	.file	"opt10_abl_tile_8x256_ilp.cpp"
	.intel_syntax noprefix
# GNU C++17 (Debian 16-20260425-1) version 16.0.1 20260425 (prerelease) [gcc-16 r16-8812-gd9c07462a22] (x86_64-linux-gnu)
#	compiled by GNU C version 16.0.1 20260425 (prerelease) [gcc-16 r16-8812-gd9c07462a22], GMP version 6.3.0, MPFR version 4.2.2, MPC version 1.3.1, isl version isl-0.27-GMP

# GGC heuristics: --param ggc-min-expand=30 --param ggc-min-heapsize=4096
# options passed: -march=tigerlake -mmmx -mpopcnt -msse -msse2 -msse3 -mssse3 -msse4.1 -msse4.2 -mavx -mno-sse4a -mno-fma4 -mno-xop -mavx512f -mbmi -mbmi2 -maes -mpclmul -mavx512vl -mavx512bw -mavx512dq -mavx512cd -mavx512vbmi -mavx512ifma -mavx512vpopcntdq -mavx512vbmi2 -mgfni -mvpclmulqdq -mavx512vnni -mavx512bitalg -mno-avx512bf16 -mavx512vp2intersect -mno-3dnow -madx -mabm -mno-cldemote -mclflushopt -mclwb -mno-clzero -mcx16 -mno-enqcmd -mf16c -mfsgsbase -mfxsr -mno-hle -msahf -mno-lwp -mlzcnt -mmovbe -mmovdir64b -mmovdiri -mno-mwaitx -mno-pconfig -mpku -mprfchw -mno-ptwrite -mrdpid -mrdrnd -mrdseed -mno-rtm -mno-serialize -mno-sgx -msha -mshstk -mno-tbm -mno-tsxldtrk -mvaes -mno-waitpkg -mno-wbnoinvd -mxsave -mxsavec -mxsaveopt -mxsaves -mno-amx-tile -mno-amx-int8 -mno-amx-bf16 -mno-uintr -mno-hreset -mno-kl -mno-widekl -mno-avxvnni -mno-avx512fp16 -mno-avxifma -mno-avxvnniint8 -mno-avxneconvert -mno-cmpccxadd -mno-amx-fp16 -mno-prefetchi -mno-raoint -mno-amx-complex -mno-avxvnniint16 -mno-sm3 -mno-sha512 -mno-sm4 -mno-apxf -mno-usermsr -mno-avx10.1 -mno-avx10.2 -mno-amx-avx512 -mno-amx-tf32 -mno-amx-fp8 -mno-movrs -mno-amx-movrs -mno-avx512bmm --param=l1-cache-size=48 --param=l1-cache-line-size=64 --param=l2-cache-size=8192 -mtune=tigerlake -mavx2 -mfma -masm=intel -g -O3 -std=c++17 -ffast-math -fasynchronous-unwind-tables
	.text
.Ltext0:
	.file 0 "/home/team15/tomasz-worktree-dir/cpp_refocus" "src/avx_analysis_code_ablations/opt10_abl_tile_8x256_ilp.cpp"
	.section	.rodata.str1.8,"aMS",@progbits,1
	.align 8
.LC0:
	.string	"cannot create std::vector larger than max_size()"
	.section	.rodata.str1.1,"aMS",@progbits,1
.LC2:
	.string	"vector::_M_realloc_append"
	.section	.text.unlikely,"ax",@progbits
.LCOLDB5:
	.text
.LHOTB5:
	.p2align 4
	.section	.text.unlikely
.Ltext_cold0:
	.text
	.globl	"_Z21refocus_shift_and_sumRSt6vectorI16SubApertureImageSaIS0_EEf"
	.type	"_Z21refocus_shift_and_sumRSt6vectorI16SubApertureImageSaIS0_EEf", @function
"_Z21refocus_shift_and_sumRSt6vectorI16SubApertureImageSaIS0_EEf":
.LVL0:
.LFB11707:
	.file 1 "src/avx_analysis_code_ablations/opt10_abl_tile_8x256_ilp.cpp"
	.loc 1 35 91 view -0
	.cfi_startproc
	.cfi_personality 0x9b,"DW.ref.__gxx_personality_v0"
	.cfi_lsda 0x1b,.LLSDA11707
	.loc 1 35 91 is_stmt 0 view .LVU1
	push	rbp	#
	.cfi_def_cfa_offset 16
	.cfi_offset 6, -16
.LBB2444:
.LBB2445:
.LBB2446:
.LBB2447:
.LBB2448:
.LBB2449:
# /usr/include/c++/16/bits/stl_vector.h:106: 	: _M_start(), _M_finish(), _M_end_of_storage()
	.file 2 "/usr/include/c++/16/bits/stl_vector.h"
	.loc 2 106 4 view .LVU2
	vpxor	xmm1, xmm1, xmm1	# tmp889
.LBE2449:
.LBE2448:
.LBE2447:
.LBE2446:
.LBE2445:
.LBE2444:
# src/avx_analysis_code_ablations/opt10_abl_tile_8x256_ilp.cpp:35: ImageData refocus_shift_and_sum(std::vector<SubApertureImage>& subapertures, float focus) {
	.loc 1 35 91 view .LVU3
	mov	rbp, rsp	#,
	.cfi_def_cfa_register 6
	push	r15	#
	push	r14	#
	push	r13	#
	push	r12	#
	.cfi_offset 15, -24
	.cfi_offset 14, -32
	.cfi_offset 13, -40
	.cfi_offset 12, -48
	mov	r12, rsi	# subapertures, subapertures
	push	rbx	#
	and	rsp, -32	#,
	sub	rsp, 256	#,
	.cfi_offset 3, -56
.LBB2461:
.LBB2462:
.LBB2463:
.LBB2464:
# /usr/include/c++/16/bits/stl_iterator.h:1059:       : _M_current(__i) { }
	.file 3 "/usr/include/c++/16/bits/stl_iterator.h"
	.loc 3 1059 9 view .LVU4
	mov	rbx, QWORD PTR [rsi]	# SR.299, MEM[(struct SubApertureImage * const &)subapertures_223(D)]
.LBE2464:
.LBE2463:
.LBE2462:
.LBE2461:
# src/avx_analysis_code_ablations/opt10_abl_tile_8x256_ilp.cpp:35: ImageData refocus_shift_and_sum(std::vector<SubApertureImage>& subapertures, float focus) {
	.loc 1 35 91 view .LVU5
	vmovss	DWORD PTR 192[rsp], xmm0	# %sfp, focus
	mov	QWORD PTR 120[rsp], rdi	# %sfp, <retval>
	.loc 1 36 5 is_stmt 1 view .LVU6
.LVL1:
.LBB2467:
.LBI2461:
	.loc 2 1334 7 view .LVU7
	.loc 2 1336 2 discriminator 2 view .LVU8
.LBB2466:
.LBI2462:
	.loc 2 988 7 view .LVU9
.LBB2465:
.LBI2463:
	.loc 3 1058 7 view .LVU10
	.loc 3 1058 7 is_stmt 0 view .LVU11
.LBE2465:
.LBE2466:
.LBE2467:
# src/avx_analysis_code_ablations/opt10_abl_tile_8x256_ilp.cpp:36:     const size_t width  = subapertures.front().data.width;
	.loc 1 36 53 discriminator 1 view .LVU12
	vmovdqu	xmm0, XMMWORD PTR [rbx]	# MEM <vector(2) long unsigned int> [(long unsigned int *)_432], MEM <vector(2) long unsigned int> [(long unsigned int *)_432]
.LVL2:
.LBB2468:
.LBB2459:
.LBB2457:
.LBB2455:
.LBB2451:
.LBB2450:
# /usr/include/c++/16/bits/stl_vector.h:106: 	: _M_start(), _M_finish(), _M_end_of_storage()
	.loc 2 106 29 view .LVU13
	mov	QWORD PTR 32[rdi], 0	# MEM[(struct _Vector_impl_data *)output_228(D) + 16B]._M_end_of_storage,
# /usr/include/c++/16/bits/stl_vector.h:106: 	: _M_start(), _M_finish(), _M_end_of_storage()
	.loc 2 106 4 view .LVU14
	vmovdqu	XMMWORD PTR 16[rdi], xmm1	# MEM <vector(2) long unsigned int> [(unsigned char * *)output_228(D) + 16B], tmp889
	vmovq	rax, xmm0	# _390, MEM <vector(2) long unsigned int> [(long unsigned int *)_432]
	vpextrq	rdx, xmm0, 1	# _920, MEM <vector(2) long unsigned int> [(long unsigned int *)_432]
	vmovq	QWORD PTR 144[rsp], xmm0	# %sfp, _390
.LVL3:
	.loc 2 106 4 view .LVU15
.LBE2450:
.LBE2451:
.LBE2455:
.LBE2457:
.LBE2459:
.LBE2468:
	.loc 1 37 5 is_stmt 1 view .LVU16
.LBB2469:
.LBI2469:
	.loc 2 1334 7 view .LVU17
	.loc 2 1336 2 discriminator 2 view .LVU18
.LBB2470:
.LBI2470:
	.loc 2 988 7 view .LVU19
.LBB2471:
.LBI2471:
	.loc 3 1058 7 view .LVU20
	.loc 3 1058 7 is_stmt 0 view .LVU21
.LBE2471:
.LBE2470:
.LBE2469:
	.loc 1 38 5 is_stmt 1 view .LVU22
	.loc 1 39 5 view .LVU23
	.loc 1 41 5 view .LVU24
.LBB2472:
.LBI2444:
	.file 4 "include/utils.hpp"
	.loc 4 11 8 view .LVU25
.LBB2460:
.LBI2445:
	.loc 2 551 7 view .LVU26
.LBB2458:
.LBI2446:
	.loc 2 321 7 view .LVU27
.LBB2456:
.LBI2447:
	.loc 2 143 2 view .LVU28
.LBB2452:
.LBI2452:
	.file 5 "/usr/include/c++/16/bits/allocator.h"
	.loc 5 168 7 view .LVU29
.LBB2453:
.LBI2453:
	.file 6 "/usr/include/c++/16/bits/new_allocator.h"
	.loc 6 88 7 view .LVU30
	.loc 6 88 7 is_stmt 0 view .LVU31
.LBE2453:
.LBE2452:
.LBB2454:
.LBI2448:
	.loc 2 105 2 is_stmt 1 view .LVU32
	.loc 2 105 2 is_stmt 0 view .LVU33
.LBE2454:
.LBE2456:
.LBE2458:
.LBE2460:
.LBE2472:
	.loc 1 42 5 is_stmt 1 view .LVU34
	.loc 1 43 5 view .LVU35
# src/avx_analysis_code_ablations/opt10_abl_tile_8x256_ilp.cpp:44:     output.data.assign(width * height * 3, 0);
	.loc 1 44 30 is_stmt 0 view .LVU36
	mov	r14, rax	# _4, _390
	mov	QWORD PTR 224[rsp], rdx	# %sfp, _920
	imul	r14, rdx	# _4, _920
# src/avx_analysis_code_ablations/opt10_abl_tile_8x256_ilp.cpp:42:     output.width = width;
	.loc 1 42 18 view .LVU37
	vmovdqu	XMMWORD PTR [rdi], xmm0	# MEM <vector(2) long unsigned int> [(long unsigned int *)output_228(D)], MEM <vector(2) long unsigned int> [(long unsigned int *)_432]
	.loc 1 44 5 is_stmt 1 view .LVU38
.LVL4:
.LBB2473:
.LBI2473:
	.loc 2 865 7 view .LVU39
.LBB2474:
.LBI2474:
	.file 7 "/usr/include/c++/16/bits/vector.tcc"
	.loc 7 274 5 view .LVU40
.LBB2475:
.LBB2476:
# /usr/include/c++/16/bits/vector.tcc:278:       if (__n > capacity())
	.loc 7 278 7 is_stmt 0 discriminator 1 view .LVU41
	test	r14, r14	# _4
	jne	.L2	#,
.LVL5:
	.loc 7 278 7 discriminator 1 view .LVU42
.LBE2476:
.LBE2475:
.LBE2474:
.LBE2473:
	.loc 1 47 5 is_stmt 1 view .LVU43
.LBB2536:
.LBI2536:
	.loc 2 551 7 view .LVU44
.LBB2537:
.LBI2537:
	.loc 2 321 7 view .LVU45
.LBB2538:
.LBI2538:
	.loc 2 143 2 view .LVU46
.LBB2539:
.LBI2539:
	.loc 5 168 7 view .LVU47
.LBB2540:
.LBI2540:
	.loc 6 88 7 view .LVU48
	.loc 6 88 7 is_stmt 0 view .LVU49
.LBE2540:
.LBE2539:
.LBB2542:
.LBI2542:
	.loc 2 105 2 is_stmt 1 view .LVU50
	.loc 2 105 2 is_stmt 0 view .LVU51
.LBE2542:
.LBE2538:
.LBE2537:
.LBE2536:
	.loc 1 48 5 is_stmt 1 view .LVU52
.LBB2567:
.LBI2567:
	.loc 2 1107 7 view .LVU53
.LBB2568:
# /usr/include/c++/16/bits/stl_vector.h:1109: 	ptrdiff_t __dif = this->_M_impl._M_finish - this->_M_impl._M_start;
	.loc 2 1109 34 is_stmt 0 view .LVU54
	mov	rdi, QWORD PTR 8[rsi]	# _433, MEM[(const struct vector *)subapertures_223(D)].D.139286._M_impl.D.138633._M_finish
.LVL6:
	.loc 2 1109 34 view .LVU55
.LBE2568:
.LBE2567:
.LBB2572:
.LBI2572:
	.loc 7 70 5 is_stmt 1 view .LVU56
.LBB2573:
# /usr/include/c++/16/bits/vector.tcc:75:       if (this->capacity() < __n)
	.loc 7 75 7 is_stmt 0 discriminator 1 view .LVU57
	mov	rcx, rdi	# _435, _433
.LBE2573:
.LBE2572:
.LBB2582:
.LBB2569:
# /usr/include/c++/16/bits/stl_vector.h:1109: 	ptrdiff_t __dif = this->_M_impl._M_finish - this->_M_impl._M_start;
	.loc 2 1109 34 view .LVU58
	mov	QWORD PTR 240[rsp], rdi	# %sfp, _433
.LBE2569:
.LBE2582:
.LBB2583:
.LBB2580:
# /usr/include/c++/16/bits/vector.tcc:75:       if (this->capacity() < __n)
	.loc 7 75 7 discriminator 1 view .LVU59
	sub	rcx, rbx	# _435, SR.299
.LVL7:
	.loc 7 75 7 discriminator 1 view .LVU60
	mov	QWORD PTR 56[rsp], rcx	# %sfp, _435
	je	.L140	#,
.LVL8:
.L4:
.LBB2574:
.LBB2575:
.LBI2575:
	.loc 2 386 7 is_stmt 1 view .LVU61
.LBB2576:
.LBB2577:
.LBI2577:
	.file 8 "/usr/include/c++/16/bits/alloc_traits.h"
	.loc 8 637 7 view .LVU62
.LBB2578:
.LBI2578:
	.loc 6 129 7 view .LVU63
.LBB2579:
# /usr/include/c++/16/bits/new_allocator.h:162: 	  return static_cast<_Tp*>(_GLIBCXX_OPERATOR_NEW(__n * sizeof(_Tp)));
	.loc 6 162 68 is_stmt 0 view .LVU64
	mov	r15, QWORD PTR 56[rsp]	# _435, %sfp
	mov	rdi, r15	#, _435
.LEHB0:
	call	"_Znwm"@PLT	#
.LVL9:
.LEHE0:
	mov	QWORD PTR 80[rsp], rax	# %sfp, __new_finish
.LVL10:
	.loc 6 162 68 view .LVU65
.LBE2579:
.LBE2578:
.LBE2577:
.LBE2576:
.LBE2575:
# /usr/include/c++/16/bits/vector.tcc:101: 	  this->_M_impl._M_end_of_storage = this->_M_impl._M_start + __n;
	.loc 7 101 61 view .LVU66
	add	r15, rax	# params$_M_end_of_storage, __new_finish
.LVL11:
.L8:
	.loc 7 101 61 view .LVU67
.LBE2574:
.LBE2580:
.LBE2583:
# src/avx_analysis_code_ablations/opt10_abl_tile_8x256_ilp.cpp:38:     const int w = static_cast<int>(width);
	.loc 1 38 15 view .LVU68
	mov	eax, DWORD PTR 144[rsp]	# tmp1875, %sfp
# src/avx_analysis_code_ablations/opt10_abl_tile_8x256_ilp.cpp:39:     const int h = static_cast<int>(height);
	.loc 1 39 15 view .LVU69
	mov	r13d, DWORD PTR 224[rsp]	# _2, %sfp
.LVL12:
	.loc 1 49 5 is_stmt 1 view .LVU70
.LBB2584:
.LBB2585:
.LBI2585:
	.loc 2 988 7 view .LVU71
.LBB2586:
.LBI2586:
	.loc 3 1058 7 view .LVU72
	.loc 3 1058 7 is_stmt 0 view .LVU73
.LBE2586:
.LBE2585:
.LBB2588:
.LBI2588:
	.loc 2 1008 7 is_stmt 1 view .LVU74
.LBB2589:
.LBI2589:
	.loc 3 1058 7 view .LVU75
	.loc 3 1058 7 is_stmt 0 view .LVU76
.LBE2589:
.LBE2588:
	.loc 1 49 22 is_stmt 1 discriminator 5 view .LVU77
.LBE2584:
# src/avx_analysis_code_ablations/opt10_abl_tile_8x256_ilp.cpp:38:     const int w = static_cast<int>(width);
	.loc 1 38 15 is_stmt 0 view .LVU78
	mov	DWORD PTR 76[rsp], eax	# %sfp, tmp1875
.LBB2703:
# src/avx_analysis_code_ablations/opt10_abl_tile_8x256_ilp.cpp:49:     for (auto& sub : subapertures) {
	.loc 1 49 22 discriminator 6 view .LVU79
	cmp	rbx, QWORD PTR 240[rsp]	# SR.299, %sfp
	je	.L65	#,
.LVL13:
.L5:
	.loc 1 49 22 discriminator 6 view .LVU80
.LBE2703:
.LBB2704:
.LBB2561:
.LBB2555:
.LBB2548:
.LBB2543:
# /usr/include/c++/16/bits/stl_vector.h:106: 	: _M_start(), _M_finish(), _M_end_of_storage()
	.loc 2 106 4 view .LVU81
	mov	r12, QWORD PTR 80[rsp]	# params$_M_start, %sfp
.LVL14:
.L19:
	.loc 2 106 4 view .LVU82
.LBE2543:
.LBE2548:
.LBE2555:
.LBE2561:
.LBE2704:
.LBB2705:
.LBB2591:
	.loc 1 50 9 is_stmt 1 view .LVU83
	.loc 1 51 9 view .LVU84
# src/avx_analysis_code_ablations/opt10_abl_tile_8x256_ilp.cpp:51:         float shift_x = focus * sub.u;
	.loc 1 51 15 is_stmt 0 view .LVU85
	vmovss	xmm5, DWORD PTR 192[rsp]	# focus, %sfp
# src/avx_analysis_code_ablations/opt10_abl_tile_8x256_ilp.cpp:61:         p.x_begin = std::max(0, -p.sx);
	.loc 1 61 33 view .LVU86
	xor	r8d, r8d	# _16
# src/avx_analysis_code_ablations/opt10_abl_tile_8x256_ilp.cpp:51:         float shift_x = focus * sub.u;
	.loc 1 51 15 view .LVU87
	vmulss	xmm4, xmm5, DWORD PTR 40[rbx]	# shift_x, focus, MEM[(float *)SR.299_582 + 40B]
.LVL15:
	.loc 1 52 9 is_stmt 1 view .LVU88
# src/avx_analysis_code_ablations/opt10_abl_tile_8x256_ilp.cpp:52:         float shift_y = focus * sub.v;
	.loc 1 52 15 is_stmt 0 view .LVU89
	vmulss	xmm2, xmm5, DWORD PTR 44[rbx]	# shift_y, focus, MEM[(float *)SR.299_582 + 44B]
.LVL16:
	.loc 1 53 9 is_stmt 1 view .LVU90
.LBB2592:
.LBI2592:
	.file 9 "/usr/include/c++/16/cmath"
	.loc 9 264 3 view .LVU91
.LBB2593:
	.loc 9 265 5 view .LVU92
# /usr/include/c++/16/cmath:265:   { return __builtin_floorf(__x); }
	.loc 9 265 28 is_stmt 0 view .LVU93
	vrndscaless	xmm0, xmm4, xmm4, 9	# _442, shift_x,
.LVL17:
	.loc 9 265 28 view .LVU94
.LBE2593:
.LBE2592:
# src/avx_analysis_code_ablations/opt10_abl_tile_8x256_ilp.cpp:53:         p.sx = static_cast<int>(std::floor(shift_x));
	.loc 1 53 16 discriminator 1 view .LVU95
	vcvttss2si	r10d, xmm0	# _8, _442
.LVL18:
	.loc 1 54 9 is_stmt 1 view .LVU96
.LBB2594:
.LBI2594:
	.loc 9 264 3 view .LVU97
.LBB2595:
	.loc 9 265 5 view .LVU98
# /usr/include/c++/16/cmath:265:   { return __builtin_floorf(__x); }
	.loc 9 265 28 is_stmt 0 view .LVU99
	vrndscaless	xmm1, xmm2, xmm2, 9	# _441, shift_y,
.LVL19:
	.loc 9 265 28 view .LVU100
.LBE2595:
.LBE2594:
# src/avx_analysis_code_ablations/opt10_abl_tile_8x256_ilp.cpp:54:         p.sy = static_cast<int>(std::floor(shift_y));
	.loc 1 54 16 discriminator 1 view .LVU101
	vcvttss2si	esi, xmm1	# _9, _441
.LVL20:
	.loc 1 55 9 is_stmt 1 view .LVU102
	.loc 1 56 9 view .LVU103
	.loc 1 57 9 view .LVU104
	.loc 1 58 9 view .LVU105
	.loc 1 59 9 view .LVU106
	.loc 1 60 9 view .LVU107
	.loc 1 61 9 view .LVU108
.LBB2596:
.LBI2596:
	.file 10 "/usr/include/c++/16/bits/stl_algobase.h"
	.loc 10 256 5 view .LVU109
.LBE2596:
# src/avx_analysis_code_ablations/opt10_abl_tile_8x256_ilp.cpp:61:         p.x_begin = std::max(0, -p.sx);
	.loc 1 61 33 is_stmt 0 view .LVU110
	mov	eax, r10d	# tmp1659, _8
	neg	eax	# tmp1659
	test	r10d, r10d	# _8
	cmovs	r8d, eax	# tmp1659,, _16
.LVL21:
	.loc 1 62 9 is_stmt 1 view .LVU111
.LBB2597:
.LBI2597:
	.loc 10 232 5 view .LVU112
.LBE2597:
# src/avx_analysis_code_ablations/opt10_abl_tile_8x256_ilp.cpp:62:         p.x_end   = std::min(w, w - p.sx - 1);
	.loc 1 62 35 is_stmt 0 view .LVU113
	mov	eax, DWORD PTR 76[rsp]	# _1, %sfp
	mov	ecx, eax	# _18, _1
	sub	ecx, r10d	# _18, _8
# src/avx_analysis_code_ablations/opt10_abl_tile_8x256_ilp.cpp:62:         p.x_end   = std::min(w, w - p.sx - 1);
	.loc 1 62 42 view .LVU114
	dec	ecx	# _19
.LBB2599:
.LBB2598:
# /usr/include/c++/16/bits/stl_algobase.h:237:       if (__b < __a)
	.loc 10 237 7 view .LVU115
	cmp	ecx, eax	# _19, _1
	cmovg	ecx, eax	# _19,, _398, _1
.LVL22:
	.loc 10 237 7 view .LVU116
.LBE2598:
.LBE2599:
	.loc 1 63 9 is_stmt 1 view .LVU117
.LBB2600:
.LBI2600:
	.loc 10 256 5 view .LVU118
.LBE2600:
# src/avx_analysis_code_ablations/opt10_abl_tile_8x256_ilp.cpp:63:         p.y_begin = std::max(0, -p.sy);
	.loc 1 63 33 is_stmt 0 view .LVU119
	mov	eax, esi	# tmp1661, _9
	xor	r9d, r9d	# _20
	neg	eax	# tmp1661
	test	esi, esi	# _9
	cmovs	r9d, eax	# tmp1661,, _20
	.loc 1 64 9 is_stmt 1 view .LVU120
.LVL23:
.LBB2601:
.LBI2601:
	.loc 10 232 5 view .LVU121
.LBE2601:
# src/avx_analysis_code_ablations/opt10_abl_tile_8x256_ilp.cpp:64:         p.y_end   = std::min(h, h - p.sy - 1);
	.loc 1 64 35 is_stmt 0 view .LVU122
	mov	eax, r13d	# _22, _2
	sub	eax, esi	# _22, _9
# src/avx_analysis_code_ablations/opt10_abl_tile_8x256_ilp.cpp:64:         p.y_end   = std::min(h, h - p.sy - 1);
	.loc 1 64 42 view .LVU123
	dec	eax	# _23
.LBB2603:
.LBB2602:
# /usr/include/c++/16/bits/stl_algobase.h:237:       if (__b < __a)
	.loc 10 237 7 view .LVU124
	cmp	eax, r13d	# _23, _2
	cmovg	eax, r13d	# _23,, _23, _2
	mov	r11d, eax	# _553, _23
.LVL24:
	.loc 10 237 7 view .LVU125
.LBE2602:
.LBE2603:
	.loc 1 65 9 is_stmt 1 view .LVU126
.LBB2604:
.LBI2604:
	.loc 2 1385 7 view .LVU127
	.loc 2 1385 7 is_stmt 0 view .LVU128
.LBE2604:
	.loc 1 66 9 is_stmt 1 view .LVU129
# src/avx_analysis_code_ablations/opt10_abl_tile_8x256_ilp.cpp:66:         if (p.x_begin >= p.x_end || p.y_begin >= p.y_end) continue;  // skip degenerate
	.loc 1 66 34 is_stmt 0 discriminator 1 view .LVU130
	cmp	r8d, ecx	# _16, _398
	jge	.L12	#,
	.loc 1 66 34 discriminator 1 view .LVU131
	cmp	r9d, eax	# _20, _553
	jge	.L12	#,
# src/avx_analysis_code_ablations/opt10_abl_tile_8x256_ilp.cpp:56:         float dy = shift_y - p.sy;
	.loc 1 56 15 view .LVU132
	vsubss	xmm5, xmm2, xmm1	# dy, shift_y, _441
.LVL25:
# src/avx_analysis_code_ablations/opt10_abl_tile_8x256_ilp.cpp:55:         float dx = shift_x - p.sx;
	.loc 1 55 15 view .LVU133
	vsubss	xmm3, xmm4, xmm0	# dx, shift_x, _442
.LVL26:
.LBB2607:
.LBB2605:
# /usr/include/c++/16/bits/stl_vector.h:1386:       { return _M_data_ptr(this->_M_impl._M_start); }
	.loc 2 1386 42 view .LVU134
	mov	rdi, QWORD PTR 16[rbx]	# _440, MEM[(unsigned char * *)SR.299_582 + 16B]
.LBE2605:
.LBE2607:
.LBB2608:
.LBB2609:
# /usr/include/c++/16/bits/stl_vector.h:1408: 	if (this->_M_impl._M_finish != this->_M_impl._M_end_of_storage)
	.loc 2 1408 2 view .LVU135
	mov	rax, QWORD PTR 80[rsp]	# __new_finish, %sfp
.LBE2609:
.LBE2608:
# src/avx_analysis_code_ablations/opt10_abl_tile_8x256_ilp.cpp:57:         p.A = (1 - dx) * (1 - dy);
	.loc 1 57 18 view .LVU136
	vaddss	xmm0, xmm0, DWORD PTR .LC1[rip]	# _770, _442,
.LVL27:
# src/avx_analysis_code_ablations/opt10_abl_tile_8x256_ilp.cpp:57:         p.A = (1 - dx) * (1 - dy);
	.loc 1 57 29 view .LVU137
	vaddss	xmm1, xmm1, DWORD PTR .LC1[rip]	# _771, _441,
.LVL28:
.LBB2693:
.LBB2606:
# /usr/include/c++/16/bits/stl_vector.h:1386:       { return _M_data_ptr(this->_M_impl._M_start); }
	.loc 2 1386 42 view .LVU138
	mov	QWORD PTR 208[rsp], rdi	# %sfp, _440
.LBE2606:
.LBE2693:
# src/avx_analysis_code_ablations/opt10_abl_tile_8x256_ilp.cpp:57:         p.A = (1 - dx) * (1 - dy);
	.loc 1 57 18 view .LVU139
	vsubss	xmm0, xmm0, xmm4	# _10, _770, shift_x
.LVL29:
# src/avx_analysis_code_ablations/opt10_abl_tile_8x256_ilp.cpp:57:         p.A = (1 - dx) * (1 - dy);
	.loc 1 57 29 view .LVU140
	vsubss	xmm1, xmm1, xmm2	# _11, _771, shift_y
.LVL30:
# src/avx_analysis_code_ablations/opt10_abl_tile_8x256_ilp.cpp:57:         p.A = (1 - dx) * (1 - dy);
	.loc 1 57 24 view .LVU141
	vmulss	xmm2, xmm0, xmm1	# _12, _10, _11
.LVL31:
# src/avx_analysis_code_ablations/opt10_abl_tile_8x256_ilp.cpp:58:         p.B = dx       * (1 - dy);
	.loc 1 58 24 view .LVU142
	vmulss	xmm1, xmm1, xmm3	# _13, _11, dx
# src/avx_analysis_code_ablations/opt10_abl_tile_8x256_ilp.cpp:59:         p.C = (1 - dx) * dy;
	.loc 1 59 24 view .LVU143
	vmulss	xmm0, xmm0, xmm5	# _14, _10, dy
# src/avx_analysis_code_ablations/opt10_abl_tile_8x256_ilp.cpp:60:         p.D = dx       * dy;
	.loc 1 60 24 view .LVU144
	vmulss	xmm3, xmm3, xmm5	# _15, dx, dy
.LVL32:
	.loc 1 67 9 is_stmt 1 view .LVU145
.LBB2694:
.LBI2608:
	.loc 2 1406 7 view .LVU146
.LBB2690:
# /usr/include/c++/16/bits/stl_vector.h:1408: 	if (this->_M_impl._M_finish != this->_M_impl._M_end_of_storage)
	.loc 2 1408 2 is_stmt 0 view .LVU147
	cmp	rax, r15	# __new_finish, params$_M_end_of_storage
	je	.L13	#,
.LVL33:
.LBB2610:
.LBI2610:
	.loc 8 705 2 is_stmt 1 view .LVU148
.LBB2611:
.LBI2611:
	.loc 6 201 2 view .LVU149
.LBB2612:
# /usr/include/c++/16/bits/new_allocator.h:203: 	{ ::new((void *)__p) _Up(std::forward<_Args>(__args)...); }
	.loc 6 203 4 is_stmt 0 discriminator 1 view .LVU150
	vunpcklps	xmm0, xmm0, xmm3	# tmp913, _14, _15
	vunpcklps	xmm2, xmm2, xmm1	# tmp914, _12, _13
	mov	DWORD PTR [rax], r10d	# params$_M_finish_216->sx, _8
.LBE2612:
.LBE2611:
.LBE2610:
# /usr/include/c++/16/bits/stl_vector.h:1413: 	    ++this->_M_impl._M_finish;
	.loc 2 1413 6 view .LVU151
	add	rax, 48	# __new_finish,
.LBB2615:
.LBB2614:
.LBB2613:
# /usr/include/c++/16/bits/new_allocator.h:203: 	{ ::new((void *)__p) _Up(std::forward<_Args>(__args)...); }
	.loc 6 203 4 discriminator 1 view .LVU152
	vmovlhps	xmm2, xmm2, xmm0	# _1253, tmp914, tmp913
	mov	DWORD PTR -44[rax], esi	# params$_M_finish_216->sy, _9
	vmovups	XMMWORD PTR -40[rax], xmm2	# MEM <vector(4) float> [(float *)params$_M_finish_216 + 8B], _1253
	mov	DWORD PTR -24[rax], r8d	# params$_M_finish_216->x_begin, _16
	mov	DWORD PTR -20[rax], ecx	# params$_M_finish_216->x_end, _398
	mov	DWORD PTR -16[rax], r9d	# params$_M_finish_216->y_begin, _20
	mov	DWORD PTR -12[rax], r11d	# params$_M_finish_216->y_end, _553
	mov	QWORD PTR -8[rax], rdi	# MEM <const unsigned char *> [(struct SubParams *)params$_M_finish_216 + 40B], _440
.LVL34:
	.loc 6 203 4 discriminator 1 view .LVU153
.LBE2613:
.LBE2614:
.LBE2615:
# /usr/include/c++/16/bits/stl_vector.h:1413: 	    ++this->_M_impl._M_finish;
	.loc 2 1413 6 view .LVU154
	mov	QWORD PTR 80[rsp], rax	# %sfp, __new_finish
.LVL35:
.L12:
	.loc 2 1413 6 view .LVU155
.LBE2690:
.LBE2694:
.LBE2591:
	.loc 1 49 5 is_stmt 1 discriminator 4 view .LVU156
.LBB2697:
.LBI2697:
	.loc 3 1101 7 view .LVU157
.LBB2698:
# /usr/include/c++/16/bits/stl_iterator.h:1103: 	++_M_current;
	.loc 3 1103 2 is_stmt 0 view .LVU158
	add	rbx, 48	# SR.299,
.LVL36:
	.loc 3 1103 2 view .LVU159
.LBE2698:
.LBE2697:
	.loc 1 49 22 is_stmt 1 discriminator 5 view .LVU160
# src/avx_analysis_code_ablations/opt10_abl_tile_8x256_ilp.cpp:49:     for (auto& sub : subapertures) {
	.loc 1 49 22 is_stmt 0 discriminator 6 view .LVU161
	cmp	rbx, QWORD PTR 240[rsp]	# SR.299, %sfp
	jne	.L19	#,
	.loc 1 49 22 discriminator 6 view .LVU162
.LBE2705:
.LBB2706:
.LBB2707:
.LBB2708:
# /usr/include/c++/16/bits/stl_vector.h:375: 	ptrdiff_t __n = _M_impl._M_end_of_storage - _M_impl._M_start;
	.loc 2 375 44 view .LVU163
	mov	rax, r15	# _435, params$_M_end_of_storage
	sub	rax, r12	# _435, params$_M_start
	mov	QWORD PTR 56[rsp], rax	# %sfp, _435
	mov	rax, QWORD PTR 80[rsp]	# __new_finish, %sfp
	mov	QWORD PTR 80[rsp], r12	# %sfp, params$_M_start
	mov	QWORD PTR 128[rsp], rax	# %sfp, __new_finish
.LVL37:
.L9:
	.loc 2 375 44 view .LVU164
.LBE2708:
.LBE2707:
.LBE2706:
	.loc 1 71 5 is_stmt 1 view .LVU165
.LBB2723:
.LBI2723:
	.loc 5 168 7 view .LVU166
.LBB2724:
.LBI2724:
	.loc 6 88 7 view .LVU167
	.loc 6 88 7 is_stmt 0 view .LVU168
.LBE2724:
.LBE2723:
.LBB2725:
.LBI2725:
	.loc 2 589 7 is_stmt 1 view .LVU169
.LBB2726:
.LBI2726:
	.loc 2 2203 7 view .LVU170
.LBB2727:
.LBB2728:
.LBI2728:
	.loc 5 172 7 view .LVU171
.LBB2729:
.LBI2729:
	.loc 6 92 7 view .LVU172
	.loc 6 92 7 is_stmt 0 view .LVU173
.LBE2729:
.LBE2728:
.LBB2730:
.LBI2730:
	.loc 5 189 7 is_stmt 1 view .LVU174
.LBB2731:
.LBI2731:
	.loc 6 104 7 view .LVU175
.LBE2731:
.LBE2730:
# /usr/include/c++/16/bits/stl_vector.h:2205: 	if (__n > _S_max_size(_Tp_alloc_type(__a)))
	.loc 2 2205 2 is_stmt 0 discriminator 3 view .LVU176
	mov	rax, r14	# tmp1739, _4
	shr	rax, 61	# tmp1739,
	jne	.L135	#,
.LVL38:
	.loc 2 2205 2 discriminator 3 view .LVU177
.LBE2727:
.LBE2726:
.LBB2733:
.LBI2733:
	.loc 2 339 7 is_stmt 1 view .LVU178
.LBB2734:
.LBI2734:
	.loc 2 152 2 view .LVU179
.LBB2735:
.LBI2735:
	.loc 5 172 7 view .LVU180
.LBB2736:
.LBI2736:
	.loc 6 92 7 view .LVU181
	.loc 6 92 7 is_stmt 0 view .LVU182
.LBE2736:
.LBE2735:
.LBB2737:
.LBI2737:
	.loc 2 105 2 is_stmt 1 view .LVU183
	.loc 2 105 2 is_stmt 0 view .LVU184
.LBE2737:
.LBE2734:
.LBB2738:
.LBI2738:
	.loc 2 405 7 is_stmt 1 view .LVU185
.LBB2739:
.LBB2740:
.LBI2740:
	.loc 2 386 7 view .LVU186
.LBB2741:
# /usr/include/c++/16/bits/stl_vector.h:389: 	return __n != 0 ? _Tr::allocate(_M_impl, __n) : pointer();
	.loc 2 389 18 is_stmt 0 view .LVU187
	test	r14, r14	# _4
	je	.L68	#,
.LVL39:
.LBB2742:
.LBI2742:
	.loc 8 637 7 is_stmt 1 view .LVU188
.LBB2743:
.LBI2743:
	.loc 6 129 7 view .LVU189
.LBB2744:
# /usr/include/c++/16/bits/new_allocator.h:162: 	  return static_cast<_Tp*>(_GLIBCXX_OPERATOR_NEW(__n * sizeof(_Tp)));
	.loc 6 162 68 is_stmt 0 view .LVU190
	sal	r14, 2	# _4,
.LVL40:
	.loc 6 162 68 view .LVU191
	mov	rdi, r14	#, _4
.LEHB1:
	call	"_Znwm"@PLT	#
.LVL41:
.LEHE1:
.LBE2744:
.LBE2743:
.LBE2742:
.LBE2741:
.LBE2740:
.LBE2739:
.LBE2738:
.LBE2733:
.LBB2756:
.LBB2757:
.LBB2758:
.LBB2759:
.LBB2760:
.LBB2761:
.LBB2762:
.LBB2763:
# /usr/include/c++/16/bits/stl_construct.h:133:       ::new(static_cast<void*>(__p)) _Tp(std::forward<_Args>(__args)...);
	.file 11 "/usr/include/c++/16/bits/stl_construct.h"
	.loc 11 133 7 discriminator 1 view .LVU192
	mov	rdx, r14	#, _4
	xor	esi, esi	#
	mov	rdi, rax	#, _379
.LBE2763:
.LBE2762:
.LBE2761:
.LBE2760:
.LBE2759:
.LBE2758:
.LBE2757:
.LBE2756:
.LBB2773:
.LBB2754:
.LBB2752:
.LBB2750:
.LBB2748:
.LBB2747:
.LBB2746:
.LBB2745:
# /usr/include/c++/16/bits/new_allocator.h:162: 	  return static_cast<_Tp*>(_GLIBCXX_OPERATOR_NEW(__n * sizeof(_Tp)));
	.loc 6 162 68 view .LVU193
	mov	QWORD PTR 64[rsp], rax	# %sfp, _379
.LVL42:
	.loc 6 162 68 view .LVU194
.LBE2745:
.LBE2746:
.LBE2747:
.LBE2748:
.LBE2750:
.LBE2752:
.LBE2754:
.LBE2773:
.LBB2774:
.LBI2756:
	.loc 2 1987 7 is_stmt 1 view .LVU195
.LBB2772:
.LBI2757:
	.file 12 "/usr/include/c++/16/bits/stl_uninitialized.h"
	.loc 12 771 5 view .LVU196
.LBB2771:
.LBI2758:
	.loc 12 550 5 view .LVU197
.LBB2770:
.LBB2769:
.LBI2760:
	.loc 12 477 5 view .LVU198
.LBB2768:
.LBB2765:
.LBI2765:
	.loc 12 113 7 view .LVU199
	.loc 12 113 7 is_stmt 0 view .LVU200
.LBE2765:
	.loc 12 485 2 is_stmt 1 discriminator 2 view .LVU201
	.loc 12 491 7 discriminator 2 view .LVU202
.LBB2766:
.LBB2764:
# /usr/include/c++/16/bits/stl_construct.h:133:       ::new(static_cast<void*>(__p)) _Tp(std::forward<_Args>(__args)...);
	.loc 11 133 7 is_stmt 0 discriminator 1 view .LVU203
	call	"memset"@PLT	#
.LVL43:
.L20:
	.loc 11 133 7 discriminator 1 view .LVU204
.LBE2764:
.LBE2766:
.LBB2767:
.LBI2767:
	.loc 12 118 7 is_stmt 1 view .LVU205
	.loc 12 118 7 is_stmt 0 view .LVU206
.LBE2767:
.LBE2768:
.LBE2769:
.LBE2770:
.LBE2771:
.LBE2772:
.LBE2774:
.LBE2725:
.LBB2777:
.LBI2777:
	.loc 5 189 7 is_stmt 1 view .LVU207
.LBB2778:
.LBI2778:
	.loc 6 104 7 view .LVU208
	.loc 6 104 7 is_stmt 0 view .LVU209
.LBE2778:
.LBE2777:
	.loc 1 72 5 is_stmt 1 view .LVU210
.LBB2779:
.LBI2779:
	.loc 5 168 7 view .LVU211
.LBB2780:
.LBI2780:
	.loc 6 88 7 view .LVU212
	.loc 6 88 7 is_stmt 0 view .LVU213
.LBE2780:
.LBE2779:
# src/avx_analysis_code_ablations/opt10_abl_tile_8x256_ilp.cpp:72:     std::vector<int> diff((width + 1) * (height + 1), 0);
	.loc 1 72 34 discriminator 1 view .LVU214
	mov	rax, QWORD PTR 144[rsp]	# _390, %sfp
	lea	r9, 1[rax]	# _24,
# src/avx_analysis_code_ablations/opt10_abl_tile_8x256_ilp.cpp:72:     std::vector<int> diff((width + 1) * (height + 1), 0);
	.loc 1 72 49 discriminator 1 view .LVU215
	mov	rax, QWORD PTR 224[rsp]	# _920, %sfp
	inc	rax	# _920
# src/avx_analysis_code_ablations/opt10_abl_tile_8x256_ilp.cpp:72:     std::vector<int> diff((width + 1) * (height + 1), 0);
	.loc 1 72 56 discriminator 1 view .LVU216
	imul	rax, r9	# _25, _24
	mov	rbx, rax	# _26, _25
.LVL44:
.LBB2781:
.LBI2781:
	.loc 2 589 7 is_stmt 1 view .LVU217
.LBB2782:
.LBI2782:
	.loc 2 2203 7 view .LVU218
.LBB2783:
.LBB2784:
.LBI2784:
	.loc 5 172 7 view .LVU219
.LBB2785:
.LBI2785:
	.loc 6 92 7 view .LVU220
	.loc 6 92 7 is_stmt 0 view .LVU221
.LBE2785:
.LBE2784:
.LBB2786:
.LBI2786:
	.loc 5 189 7 is_stmt 1 view .LVU222
.LBB2787:
.LBI2787:
	.loc 6 104 7 view .LVU223
.LBE2787:
.LBE2786:
# /usr/include/c++/16/bits/stl_vector.h:2205: 	if (__n > _S_max_size(_Tp_alloc_type(__a)))
	.loc 2 2205 2 is_stmt 0 discriminator 3 view .LVU224
	shr	rax, 61	# tmp1740,
.LVL45:
	.loc 2 2205 2 discriminator 3 view .LVU225
	jne	.L136	#,
.LVL46:
	.loc 2 2205 2 discriminator 3 view .LVU226
.LBE2783:
.LBE2782:
.LBB2789:
.LBI2789:
	.loc 2 339 7 is_stmt 1 view .LVU227
.LBB2790:
.LBI2790:
	.loc 2 152 2 view .LVU228
.LBB2791:
.LBI2791:
	.loc 5 172 7 view .LVU229
.LBB2792:
.LBI2792:
	.loc 6 92 7 view .LVU230
	.loc 6 92 7 is_stmt 0 view .LVU231
.LBE2792:
.LBE2791:
.LBB2793:
.LBI2793:
	.loc 2 105 2 is_stmt 1 view .LVU232
	.loc 2 105 2 is_stmt 0 view .LVU233
.LBE2793:
.LBE2790:
.LBB2794:
.LBI2794:
	.loc 2 405 7 is_stmt 1 view .LVU234
.LBB2795:
.LBB2796:
.LBI2796:
	.loc 2 386 7 view .LVU235
.LBB2797:
# /usr/include/c++/16/bits/stl_vector.h:389: 	return __n != 0 ? _Tr::allocate(_M_impl, __n) : pointer();
	.loc 2 389 18 is_stmt 0 view .LVU236
	test	rbx, rbx	# _26
	je	.L69	#,
.LBB2798:
.LBB2799:
.LBB2800:
# /usr/include/c++/16/bits/new_allocator.h:162: 	  return static_cast<_Tp*>(_GLIBCXX_OPERATOR_NEW(__n * sizeof(_Tp)));
	.loc 6 162 68 view .LVU237
	sal	rbx, 2	# _26,
.LVL47:
	.loc 6 162 68 view .LVU238
	mov	QWORD PTR 240[rsp], r9	# %sfp, _24
.LBE2800:
.LBE2799:
.LBI2798:
	.loc 8 637 7 is_stmt 1 view .LVU239
.LBB2803:
.LBI2799:
	.loc 6 129 7 view .LVU240
.LVL48:
.LBB2801:
# /usr/include/c++/16/bits/new_allocator.h:162: 	  return static_cast<_Tp*>(_GLIBCXX_OPERATOR_NEW(__n * sizeof(_Tp)));
	.loc 6 162 68 is_stmt 0 view .LVU241
	mov	rdi, rbx	#, _26
.LEHB2:
	call	"_Znwm"@PLT	#
.LVL49:
.LEHE2:
	.loc 6 162 68 view .LVU242
.LBE2801:
.LBE2803:
.LBE2798:
.LBE2797:
.LBE2796:
.LBE2795:
.LBE2794:
.LBE2789:
.LBB2814:
.LBB2815:
.LBB2816:
.LBB2817:
.LBB2818:
.LBB2819:
.LBB2820:
.LBB2821:
# /usr/include/c++/16/bits/stl_construct.h:133:       ::new(static_cast<void*>(__p)) _Tp(std::forward<_Args>(__args)...);
	.loc 11 133 7 discriminator 1 view .LVU243
	mov	rdx, rbx	#, _26
	xor	esi, esi	#
	mov	rdi, rax	#, _519
.LBE2821:
.LBE2820:
.LBE2819:
.LBE2818:
.LBE2817:
.LBE2816:
.LBE2815:
.LBE2814:
.LBB2831:
.LBB2812:
.LBB2810:
.LBB2808:
.LBB2806:
.LBB2805:
.LBB2804:
.LBB2802:
# /usr/include/c++/16/bits/new_allocator.h:162: 	  return static_cast<_Tp*>(_GLIBCXX_OPERATOR_NEW(__n * sizeof(_Tp)));
	.loc 6 162 68 view .LVU244
	mov	r12, rax	# _519, _519
.LVL50:
	.loc 6 162 68 view .LVU245
.LBE2802:
.LBE2804:
.LBE2805:
.LBE2806:
.LBE2808:
.LBE2810:
.LBE2812:
.LBE2831:
.LBB2832:
.LBI2814:
	.loc 2 1987 7 is_stmt 1 view .LVU246
.LBB2830:
.LBI2815:
	.loc 12 771 5 view .LVU247
.LBB2829:
.LBI2816:
	.loc 12 550 5 view .LVU248
.LBB2828:
.LBB2827:
.LBI2818:
	.loc 12 477 5 view .LVU249
.LBB2826:
.LBB2823:
.LBI2823:
	.loc 12 113 7 view .LVU250
	.loc 12 113 7 is_stmt 0 view .LVU251
.LBE2823:
	.loc 12 485 2 is_stmt 1 discriminator 2 view .LVU252
	.loc 12 491 7 discriminator 2 view .LVU253
.LBB2824:
.LBB2822:
# /usr/include/c++/16/bits/stl_construct.h:133:       ::new(static_cast<void*>(__p)) _Tp(std::forward<_Args>(__args)...);
	.loc 11 133 7 is_stmt 0 discriminator 1 view .LVU254
	call	"memset"@PLT	#
.LVL51:
	.loc 11 133 7 discriminator 1 view .LVU255
	mov	r9, QWORD PTR 240[rsp]	# _24, %sfp
.LVL52:
.L24:
	.loc 11 133 7 discriminator 1 view .LVU256
.LBE2822:
.LBE2824:
.LBB2825:
.LBI2825:
	.loc 12 118 7 is_stmt 1 view .LVU257
	.loc 12 118 7 is_stmt 0 view .LVU258
.LBE2825:
.LBE2826:
.LBE2827:
.LBE2828:
.LBE2829:
.LBE2830:
.LBE2832:
.LBE2781:
.LBB2835:
.LBI2835:
	.loc 5 189 7 is_stmt 1 view .LVU259
.LBB2836:
.LBI2836:
	.loc 6 104 7 view .LVU260
	.loc 6 104 7 is_stmt 0 view .LVU261
.LBE2836:
.LBE2835:
	.loc 1 74 5 is_stmt 1 view .LVU262
.LBB2837:
.LBB2838:
.LBI2838:
	.loc 2 988 7 view .LVU263
.LBB2839:
.LBI2839:
	.loc 3 1058 7 view .LVU264
	.loc 3 1058 7 is_stmt 0 view .LVU265
.LBE2839:
.LBE2838:
.LBB2840:
.LBI2840:
	.loc 2 1008 7 is_stmt 1 view .LVU266
.LBB2841:
.LBI2841:
	.loc 3 1058 7 view .LVU267
	.loc 3 1058 7 is_stmt 0 view .LVU268
.LBE2841:
.LBE2840:
	.loc 1 74 26 is_stmt 1 discriminator 5 view .LVU269
# src/avx_analysis_code_ablations/opt10_abl_tile_8x256_ilp.cpp:74:     for (const auto& p : params) {
	.loc 1 74 26 is_stmt 0 discriminator 6 view .LVU270
	mov	rax, QWORD PTR 80[rsp]	# __new_finish, %sfp
	cmp	rax, QWORD PTR 128[rsp]	# __new_finish, %sfp
	je	.L25	#,
.LVL53:
.L26:
	.loc 1 75 9 is_stmt 1 view .LVU271
# src/avx_analysis_code_ablations/opt10_abl_tile_8x256_ilp.cpp:75:         diff[p.y_begin * (width + 1) + p.x_begin] += 1;
	.loc 1 75 16 is_stmt 0 view .LVU272
	movsxd	rdx, DWORD PTR 32[rax]	# _28, MEM[(int *)SR.301_554 + 32B]
# src/avx_analysis_code_ablations/opt10_abl_tile_8x256_ilp.cpp:75:         diff[p.y_begin * (width + 1) + p.x_begin] += 1;
	.loc 1 75 42 view .LVU273
	movsxd	rsi, DWORD PTR 24[rax]	# _31, MEM[(int *)SR.301_554 + 24B]
.LBB2842:
.LBB2843:
# /usr/include/c++/16/bits/stl_iterator.h:1103: 	++_M_current;
	.loc 3 1103 2 view .LVU274
	add	rax, 48	# SR.301,
.LVL54:
	.loc 3 1103 2 view .LVU275
.LBE2843:
.LBE2842:
# src/avx_analysis_code_ablations/opt10_abl_tile_8x256_ilp.cpp:77:         diff[p.y_end   * (width + 1) + p.x_begin] -= 1;
	.loc 1 77 16 view .LVU276
	movsxd	rdi, DWORD PTR -12[rax]	# _44, MEM[(int *)SR.301_554 + 36B]
# src/avx_analysis_code_ablations/opt10_abl_tile_8x256_ilp.cpp:75:         diff[p.y_begin * (width + 1) + p.x_begin] += 1;
	.loc 1 75 24 view .LVU277
	imul	rdx, r9	# _29, _24
.LVL55:
.LBB2844:
.LBI2844:
	.loc 2 1251 7 is_stmt 1 view .LVU278
.LBB2845:
	.loc 2 1253 2 discriminator 2 view .LVU279
	.loc 2 1253 2 is_stmt 0 discriminator 2 view .LVU280
.LBE2845:
.LBE2844:
# src/avx_analysis_code_ablations/opt10_abl_tile_8x256_ilp.cpp:77:         diff[p.y_end   * (width + 1) + p.x_begin] -= 1;
	.loc 1 77 24 view .LVU281
	imul	rdi, r9	# _45, _24
# src/avx_analysis_code_ablations/opt10_abl_tile_8x256_ilp.cpp:75:         diff[p.y_begin * (width + 1) + p.x_begin] += 1;
	.loc 1 75 49 view .LVU282
	lea	rcx, [rdx+rsi]	# _32,
# src/avx_analysis_code_ablations/opt10_abl_tile_8x256_ilp.cpp:75:         diff[p.y_begin * (width + 1) + p.x_begin] += 1;
	.loc 1 75 51 discriminator 1 view .LVU283
	inc	DWORD PTR [r12+rcx*4]	# *_453
	.loc 1 76 9 is_stmt 1 view .LVU284
# src/avx_analysis_code_ablations/opt10_abl_tile_8x256_ilp.cpp:76:         diff[p.y_begin * (width + 1) + p.x_end  ] -= 1;
	.loc 1 76 42 is_stmt 0 view .LVU285
	movsxd	rcx, DWORD PTR -20[rax]	# _39, MEM[(int *)SR.301_554 + 28B]
.LVL56:
.LBB2846:
.LBI2846:
	.loc 2 1251 7 is_stmt 1 view .LVU286
.LBB2847:
	.loc 2 1253 2 discriminator 2 view .LVU287
	.loc 2 1253 2 is_stmt 0 discriminator 2 view .LVU288
.LBE2847:
.LBE2846:
# src/avx_analysis_code_ablations/opt10_abl_tile_8x256_ilp.cpp:76:         diff[p.y_begin * (width + 1) + p.x_end  ] -= 1;
	.loc 1 76 49 view .LVU289
	add	rdx, rcx	# _40, _39
# src/avx_analysis_code_ablations/opt10_abl_tile_8x256_ilp.cpp:76:         diff[p.y_begin * (width + 1) + p.x_end  ] -= 1;
	.loc 1 76 51 discriminator 1 view .LVU290
	dec	DWORD PTR [r12+rdx*4]	# *_450
	.loc 1 77 9 is_stmt 1 view .LVU291
.LVL57:
.LBB2848:
.LBI2848:
	.loc 2 1251 7 view .LVU292
.LBB2849:
	.loc 2 1253 2 discriminator 2 view .LVU293
	.loc 2 1253 2 is_stmt 0 discriminator 2 view .LVU294
.LBE2849:
.LBE2848:
# src/avx_analysis_code_ablations/opt10_abl_tile_8x256_ilp.cpp:77:         diff[p.y_end   * (width + 1) + p.x_begin] -= 1;
	.loc 1 77 49 view .LVU295
	lea	rdx, [rsi+rdi]	# _48,
# src/avx_analysis_code_ablations/opt10_abl_tile_8x256_ilp.cpp:77:         diff[p.y_end   * (width + 1) + p.x_begin] -= 1;
	.loc 1 77 51 discriminator 1 view .LVU296
	dec	DWORD PTR [r12+rdx*4]	# *_448
	.loc 1 78 9 is_stmt 1 view .LVU297
.LVL58:
.LBB2850:
.LBI2850:
	.loc 2 1251 7 view .LVU298
.LBB2851:
	.loc 2 1253 2 discriminator 2 view .LVU299
	.loc 2 1253 2 is_stmt 0 discriminator 2 view .LVU300
.LBE2851:
.LBE2850:
# src/avx_analysis_code_ablations/opt10_abl_tile_8x256_ilp.cpp:78:         diff[p.y_end   * (width + 1) + p.x_end  ] += 1;
	.loc 1 78 49 view .LVU301
	lea	rdx, [rcx+rdi]	# _56,
# src/avx_analysis_code_ablations/opt10_abl_tile_8x256_ilp.cpp:78:         diff[p.y_end   * (width + 1) + p.x_end  ] += 1;
	.loc 1 78 51 discriminator 1 view .LVU302
	inc	DWORD PTR [r12+rdx*4]	# *_446
	.loc 1 74 5 is_stmt 1 discriminator 4 view .LVU303
.LVL59:
.LBB2852:
.LBI2842:
	.loc 3 1101 7 view .LVU304
	.loc 3 1101 7 is_stmt 0 view .LVU305
.LBE2852:
	.loc 1 74 26 is_stmt 1 discriminator 5 view .LVU306
# src/avx_analysis_code_ablations/opt10_abl_tile_8x256_ilp.cpp:74:     for (const auto& p : params) {
	.loc 1 74 26 is_stmt 0 discriminator 6 view .LVU307
	cmp	rax, QWORD PTR 128[rsp]	# SR.301, %sfp
	jne	.L26	#,
.LVL60:
.L25:
	.loc 1 74 26 discriminator 6 view .LVU308
.LBE2837:
.LBB2853:
	.loc 1 81 23 is_stmt 1 discriminator 2 view .LVU309
	test	r13d, r13d	# _2
	jle	.L27	#,
	mov	r8d, DWORD PTR 76[rsp]	#, %sfp
	test	r8d, r8d	#
	jle	.L27	#,
.LVL61:
.LBB2854:
.LBB2855:
	.loc 1 83 27 discriminator 2 view .LVU310
	mov	rax, QWORD PTR 144[rsp]	# _390, %sfp
.LBE2855:
# src/avx_analysis_code_ablations/opt10_abl_tile_8x256_ilp.cpp:82:         int row = 0;
	.loc 1 82 13 is_stmt 0 view .LVU311
	xor	esi, esi	# row
	lea	edx, -1[rax]	# _1094,
.LBE2854:
# src/avx_analysis_code_ablations/opt10_abl_tile_8x256_ilp.cpp:81:     for (int y = 0; y < h; ++y) {
	.loc 1 81 23 discriminator 2 view .LVU312
	xor	eax, eax	# ivtmp.600
	lea	r11, 1[rdx]	# _1183,
.LVL62:
.L29:
.LBB2860:
.LBB2856:
	.loc 1 84 13 is_stmt 1 view .LVU313
# src/avx_analysis_code_ablations/opt10_abl_tile_8x256_ilp.cpp:85:             counts[y * w + x] = row + (y > 0 ? counts[(y - 1) * w + x] : 0);
	.loc 1 85 31 is_stmt 0 discriminator 5 view .LVU314
	mov	rdi, QWORD PTR 64[rsp]	# _379, %sfp
# src/avx_analysis_code_ablations/opt10_abl_tile_8x256_ilp.cpp:84:             row += diff[y * (width + 1) + x];
	.loc 1 84 17 discriminator 1 view .LVU315
	add	esi, DWORD PTR [r12+rax*4]	# row, MEM[(value_type &)_519 + ivtmp.600_1086 * 4]
.LVL63:
	.loc 1 85 13 is_stmt 1 view .LVU316
# src/avx_analysis_code_ablations/opt10_abl_tile_8x256_ilp.cpp:85:             counts[y * w + x] = row + (y > 0 ? counts[(y - 1) * w + x] : 0);
	.loc 1 85 31 is_stmt 0 discriminator 5 view .LVU317
	mov	DWORD PTR [rdi+rax*4], esi	# MEM[(value_type &)_756 + ivtmp.600_1086 * 4], row
	.loc 1 83 9 is_stmt 1 discriminator 1 view .LVU318
.LVL64:
	.loc 1 83 27 discriminator 2 view .LVU319
	inc	rax	# ivtmp.600
.LVL65:
	.loc 1 83 27 is_stmt 0 discriminator 2 view .LVU320
	cmp	rax, r11	# ivtmp.600, _1183
	jne	.L29	#,
.LBE2856:
.LBE2860:
	.loc 1 81 5 is_stmt 1 discriminator 1 view .LVU321
.LVL66:
	.loc 1 81 23 discriminator 2 view .LVU322
	cmp	r13d, 1	# _2,
	je	.L27	#,
	mov	eax, DWORD PTR 76[rsp]	# _966, %sfp
	sal	r9, 2	# _699,
.LBB2861:
.LBB2857:
# src/avx_analysis_code_ablations/opt10_abl_tile_8x256_ilp.cpp:83:         for (int x = 0; x < w; ++x) {
	.loc 1 83 27 is_stmt 0 discriminator 2 view .LVU323
	xor	r10d, r10d	# ivtmp.595
.LBE2857:
.LBE2861:
# src/avx_analysis_code_ablations/opt10_abl_tile_8x256_ilp.cpp:81:     for (int y = 0; y < h; ++y) {
	.loc 1 81 14 view .LVU324
	mov	edx, 1	# y,
	lea	rsi, [r12+r9]	# ivtmp.594,
.LVL67:
	.loc 1 81 14 view .LVU325
	lea	r8, 0[0+rax*4]	# _1083,
	lea	rcx, [rdi+r8]	# ivtmp.597,
.LVL68:
.L31:
.LBB2862:
.LBB2858:
	.loc 1 83 27 is_stmt 1 discriminator 2 view .LVU326
	mov	rdi, QWORD PTR 64[rsp]	# _379, %sfp
	movsxd	rax, r10d	# _1365, ivtmp.595
	add	r10d, DWORD PTR 144[rsp]	# ivtmp.595, %sfp
.LBE2858:
# src/avx_analysis_code_ablations/opt10_abl_tile_8x256_ilp.cpp:82:         int row = 0;
	.loc 1 82 13 is_stmt 0 view .LVU327
	mov	DWORD PTR 232[rsp], edx	# %sfp, y
	lea	rax, [rdi+rax*4]	# _875,
	xor	edi, edi	# row
	mov	QWORD PTR 240[rsp], rax	# %sfp, _875
.LBE2862:
# src/avx_analysis_code_ablations/opt10_abl_tile_8x256_ilp.cpp:81:     for (int y = 0; y < h; ++y) {
	.loc 1 81 14 view .LVU328
	xor	eax, eax	# ivtmp.581
.LVL69:
.L30:
.LBB2863:
.LBB2859:
	.loc 1 84 13 is_stmt 1 view .LVU329
# src/avx_analysis_code_ablations/opt10_abl_tile_8x256_ilp.cpp:85:             counts[y * w + x] = row + (y > 0 ? counts[(y - 1) * w + x] : 0);
	.loc 1 85 37 is_stmt 0 discriminator 4 view .LVU330
	mov	rdx, QWORD PTR 240[rsp]	# _875, %sfp
# src/avx_analysis_code_ablations/opt10_abl_tile_8x256_ilp.cpp:84:             row += diff[y * (width + 1) + x];
	.loc 1 84 17 discriminator 1 view .LVU331
	add	edi, DWORD PTR [rsi+rax*4]	# row, MEM[(value_type &)_1363 + ivtmp.581_51 * 4]
.LVL70:
	.loc 1 85 13 is_stmt 1 view .LVU332
	.loc 1 83 9 discriminator 1 view .LVU333
	.loc 1 83 27 discriminator 2 view .LVU334
# src/avx_analysis_code_ablations/opt10_abl_tile_8x256_ilp.cpp:85:             counts[y * w + x] = row + (y > 0 ? counts[(y - 1) * w + x] : 0);
	.loc 1 85 37 is_stmt 0 discriminator 4 view .LVU335
	mov	edx, DWORD PTR [rdx+rax*4]	# tmp1933, MEM[(value_type &)_875 + ivtmp.581_51 * 4]
	add	edx, edi	# tmp1933, row
	mov	DWORD PTR [rcx+rax*4], edx	# MEM[(value_type &)_855 + ivtmp.581_51 * 4], tmp1933
# src/avx_analysis_code_ablations/opt10_abl_tile_8x256_ilp.cpp:83:         for (int x = 0; x < w; ++x) {
	.loc 1 83 27 discriminator 2 view .LVU336
	inc	rax	# ivtmp.581
.LVL71:
	.loc 1 83 27 discriminator 2 view .LVU337
	cmp	rax, r11	# ivtmp.581, _1183
	jne	.L30	#,
.LBE2859:
.LBE2863:
# src/avx_analysis_code_ablations/opt10_abl_tile_8x256_ilp.cpp:81:     for (int y = 0; y < h; ++y) {
	.loc 1 81 5 discriminator 1 view .LVU338
	mov	edx, DWORD PTR 232[rsp]	# y, %sfp
	.loc 1 81 5 is_stmt 1 discriminator 1 view .LVU339
# src/avx_analysis_code_ablations/opt10_abl_tile_8x256_ilp.cpp:81:     for (int y = 0; y < h; ++y) {
	.loc 1 81 23 is_stmt 0 discriminator 2 view .LVU340
	add	rsi, r9	# ivtmp.594, _699
	add	rcx, r8	# ivtmp.597, _1083
# src/avx_analysis_code_ablations/opt10_abl_tile_8x256_ilp.cpp:81:     for (int y = 0; y < h; ++y) {
	.loc 1 81 5 discriminator 1 view .LVU341
	inc	edx	# y
.LVL72:
	.loc 1 81 23 is_stmt 1 discriminator 2 view .LVU342
	cmp	r13d, edx	# _2, y
	jg	.L31	#,
.LVL73:
.L27:
	.loc 1 81 23 is_stmt 0 discriminator 2 view .LVU343
.LBE2853:
	.loc 1 91 5 is_stmt 1 view .LVU344
	.loc 1 92 5 view .LVU345
	.loc 1 95 5 view .LVU346
.LBB2864:
.LBI2864:
	.loc 5 168 7 view .LVU347
.LBB2865:
.LBI2865:
	.loc 6 88 7 view .LVU348
	.loc 6 88 7 is_stmt 0 view .LVU349
.LBE2865:
.LBE2864:
.LBB2866:
.LBI2866:
	.loc 2 576 7 is_stmt 1 view .LVU350
.LBB2867:
.LBI2867:
	.loc 2 2203 7 view .LVU351
.LBB2868:
.LBI2868:
	.loc 5 172 7 view .LVU352
.LBB2869:
.LBI2869:
	.loc 6 92 7 view .LVU353
	.loc 6 92 7 is_stmt 0 view .LVU354
.LBE2869:
.LBE2868:
.LBB2870:
.LBI2870:
	.loc 5 189 7 is_stmt 1 view .LVU355
.LBB2871:
.LBI2871:
	.loc 6 104 7 view .LVU356
	.loc 6 104 7 is_stmt 0 view .LVU357
.LBE2871:
.LBE2870:
.LBE2867:
.LBB2872:
.LBI2872:
	.loc 2 339 7 is_stmt 1 view .LVU358
.LBB2873:
.LBI2873:
	.loc 2 152 2 view .LVU359
.LBB2874:
.LBI2874:
	.loc 5 172 7 view .LVU360
.LBB2875:
.LBI2875:
	.loc 6 92 7 view .LVU361
	.loc 6 92 7 is_stmt 0 view .LVU362
.LBE2875:
.LBE2874:
.LBB2876:
.LBI2876:
	.loc 2 105 2 is_stmt 1 view .LVU363
	.loc 2 105 2 is_stmt 0 view .LVU364
.LBE2876:
.LBE2873:
.LBB2877:
.LBI2877:
	.loc 2 405 7 is_stmt 1 view .LVU365
.LBB2878:
.LBI2878:
	.loc 2 386 7 view .LVU366
.LBB2879:
.LBB2880:
.LBI2880:
	.loc 8 637 7 view .LVU367
.LBB2881:
.LBI2881:
	.loc 6 129 7 view .LVU368
.LBB2882:
# /usr/include/c++/16/bits/new_allocator.h:162: 	  return static_cast<_Tp*>(_GLIBCXX_OPERATOR_NEW(__n * sizeof(_Tp)));
	.loc 6 162 68 is_stmt 0 view .LVU369
	mov	edi, 24576	#,
.LEHB3:
	call	"_Znwm"@PLT	#
.LVL74:
.LEHE3:
	.loc 6 162 68 view .LVU370
.LBE2882:
.LBE2881:
.LBE2880:
.LBE2879:
.LBE2878:
.LBE2877:
.LBE2872:
.LBB2883:
.LBI2883:
	.loc 2 1998 7 is_stmt 1 view .LVU371
.LBB2884:
.LBI2884:
	.loc 12 1051 5 view .LVU372
.LBB2885:
.LBI2885:
	.loc 12 982 5 view .LVU373
.LBB2886:
.LBB2887:
.LBI2887:
	.loc 12 939 9 view .LVU374
.LBB2888:
.LBI2888:
	.loc 12 939 9 view .LVU375
.LBB2889:
.LBB2890:
.LBI2890:
	.loc 11 123 5 view .LVU376
.LBB2891:
# /usr/include/c++/16/bits/stl_construct.h:133:       ::new(static_cast<void*>(__p)) _Tp(std::forward<_Args>(__args)...);
	.loc 11 133 7 is_stmt 0 discriminator 1 view .LVU377
	mov	DWORD PTR [rax], 0x00000000	# *_700,
.LVL75:
	.loc 11 133 7 discriminator 1 view .LVU378
.LBE2891:
.LBE2890:
.LBB2892:
.LBI2892:
	.loc 10 1179 5 is_stmt 1 view .LVU379
.LBB2893:
.LBI2893:
	.loc 10 1141 5 view .LVU380
.LBB2894:
.LBB2895:
.LBI2895:
	.loc 10 976 5 view .LVU381
.LBB2896:
.LBI2896:
	.loc 10 895 5 view .LVU382
.LBB2897:
	.loc 10 922 22 discriminator 2 view .LVU383
# /usr/include/c++/16/bits/stl_algobase.h:923: 	*__first = __val;
	.loc 10 923 11 is_stmt 0 view .LVU384
	xor	esi, esi	#
.LBE2897:
.LBE2896:
.LBE2895:
.LBE2894:
.LBE2893:
.LBE2892:
# /usr/include/c++/16/bits/stl_uninitialized.h:946: 	      ++__first;
	.loc 12 946 8 view .LVU385
	lea	rdi, 4[rax]	# __first_701,
.LVL76:
.LBB2908:
.LBB2906:
.LBB2904:
.LBB2902:
.LBB2900:
.LBB2898:
# /usr/include/c++/16/bits/stl_algobase.h:923: 	*__first = __val;
	.loc 10 923 11 view .LVU386
	mov	edx, 24572	#,
.LBE2898:
.LBE2900:
.LBE2902:
.LBE2904:
.LBE2906:
.LBE2908:
# /usr/include/c++/16/bits/stl_uninitialized.h:946: 	      ++__first;
	.loc 12 946 8 view .LVU387
	mov	QWORD PTR 40[rsp], rax	# %sfp, _700
.LBB2909:
.LBB2907:
.LBB2905:
.LBB2903:
.LBB2901:
.LBB2899:
# /usr/include/c++/16/bits/stl_algobase.h:923: 	*__first = __val;
	.loc 10 923 11 view .LVU388
	call	"memset"@PLT	#
.LVL77:
	.loc 10 923 11 view .LVU389
.LBE2899:
.LBE2901:
.LBE2903:
.LBE2905:
.LBE2907:
.LBE2909:
.LBE2889:
.LBE2888:
.LBE2887:
.LBE2886:
.LBE2885:
.LBE2884:
.LBE2883:
.LBE2866:
.LBB2910:
	.loc 1 97 25 is_stmt 1 discriminator 2 view .LVU390
	test	r13d, r13d	# _2
	jle	.L32	#,
	mov	edi, DWORD PTR 76[rsp]	#, %sfp
	test	edi, edi	#
	jle	.L32	#,
.LBB2911:
.LBB2912:
.LBB2913:
.LBB2914:
.LBB2915:
.LBB2916:
.LBB2917:
# src/avx_analysis_code_ablations/opt10_abl_tile_8x256_ilp.cpp:125:                     size_t ind_lbot = ind_ltop + width * 3;
	.loc 1 125 56 is_stmt 0 view .LVU391
	mov	rdi, QWORD PTR 144[rsp]	# _390, %sfp
.LBE2917:
.LBE2916:
.LBE2915:
.LBE2914:
.LBB3208:
.LBB3209:
.LBB3210:
.LBB3211:
# src/avx_analysis_code_ablations/opt10_abl_tile_8x256_ilp.cpp:227:                     float inv_c = 1.0f / static_cast<float>(c);
	.loc 1 227 27 view .LVU392
	vmovss	xmm23, DWORD PTR .LC1[rip]	# tmp1677,
	mov	QWORD PTR 32[rsp], r14	# %sfp, _4
	vxorps	xmm5, xmm5, xmm5	# tmp1698
	mov	r8, QWORD PTR 40[rsp]	# _700, %sfp
	mov	QWORD PTR 24[rsp], rbx	# %sfp, _26
.LBE3211:
.LBE3210:
.LBE3209:
.LBE3208:
.LBB3234:
.LBB3204:
.LBB3161:
.LBB3151:
# src/avx_analysis_code_ablations/opt10_abl_tile_8x256_ilp.cpp:125:                     size_t ind_lbot = ind_ltop + width * 3;
	.loc 1 125 56 view .LVU393
	xor	edx, edx	# ivtmp.579
.LBE3151:
.LBE3161:
.LBE3204:
.LBE3234:
.LBB3235:
.LBB3230:
.LBB3225:
.LBB3218:
# src/avx_analysis_code_ablations/opt10_abl_tile_8x256_ilp.cpp:227:                     float inv_c = 1.0f / static_cast<float>(c);
	.loc 1 227 27 view .LVU394
	xor	ebx, ebx	# _71
.LBE3218:
.LBE3225:
.LBE3230:
.LBE3235:
.LBB3236:
.LBB3205:
.LBB3162:
.LBB3152:
# src/avx_analysis_code_ablations/opt10_abl_tile_8x256_ilp.cpp:125:                     size_t ind_lbot = ind_ltop + width * 3;
	.loc 1 125 56 view .LVU395
	lea	rcx, [rdi+rdi*2]	# _91,
	lea	rax, 0[0+rdi*8]	# _232,
	lea	rdi, 3[rcx]	# _1330,
	mov	QWORD PTR 184[rsp], rcx	# %sfp, _91
.LBE3152:
.LBE3162:
.LBE3205:
.LBE3236:
.LBB3237:
.LBB3231:
.LBB3226:
.LBB3219:
# src/avx_analysis_code_ablations/opt10_abl_tile_8x256_ilp.cpp:227:                     float inv_c = 1.0f / static_cast<float>(c);
	.loc 1 227 27 view .LVU396
	mov	r14, rax	# _232, _232
	mov	QWORD PTR 176[rsp], rdi	# %sfp, _1330
.LVL78:
.L52:
	.loc 1 227 27 view .LVU397
.LBE3219:
.LBE3226:
.LBE3231:
.LBE3237:
.LBE2913:
.LBE2912:
	.loc 1 98 9 is_stmt 1 view .LVU398
	mov	r15d, ebx	# ty, _71
# src/avx_analysis_code_ablations/opt10_abl_tile_8x256_ilp.cpp:98:         const int tile_y_end = std::min(ty + TILE_H, h);
	.loc 1 98 44 is_stmt 0 view .LVU399
	add	ebx, 8	# _71,
.LVL79:
.LBB3271:
.LBI3271:
	.loc 10 232 5 is_stmt 1 view .LVU400
	.loc 10 232 5 is_stmt 0 view .LVU401
.LBE3271:
	.loc 1 99 9 is_stmt 1 view .LVU402
	.loc 1 101 9 view .LVU403
.LBB3276:
	.loc 1 101 29 discriminator 2 view .LVU404
.LBE3276:
.LBB3277:
.LBB3272:
# /usr/include/c++/16/bits/stl_algobase.h:237:       if (__b < __a)
	.loc 10 237 7 is_stmt 0 view .LVU405
	mov	eax, r13d	# _521, _2
.LBE3272:
.LBE3277:
# src/avx_analysis_code_ablations/opt10_abl_tile_8x256_ilp.cpp:99:         const int tile_h_actual = tile_y_end - ty;
	.loc 1 99 19 view .LVU406
	mov	QWORD PTR 136[rsp], 0	# %sfp,
.LBB3278:
.LBB3273:
# /usr/include/c++/16/bits/stl_algobase.h:237:       if (__b < __a)
	.loc 10 237 7 view .LVU407
	cmp	ebx, r13d	# _71, _2
.LBE3273:
.LBE3278:
# src/avx_analysis_code_ablations/opt10_abl_tile_8x256_ilp.cpp:99:         const int tile_h_actual = tile_y_end - ty;
	.loc 1 99 19 view .LVU408
	mov	DWORD PTR 20[rsp], r13d	# %sfp, _2
.LBB3279:
.LBB3274:
# /usr/include/c++/16/bits/stl_algobase.h:237:       if (__b < __a)
	.loc 10 237 7 view .LVU409
	cmovle	eax, ebx	# _71,, _521
.LBE3274:
.LBE3279:
# src/avx_analysis_code_ablations/opt10_abl_tile_8x256_ilp.cpp:99:         const int tile_h_actual = tile_y_end - ty;
	.loc 1 99 19 view .LVU410
	mov	DWORD PTR 16[rsp], ebx	# %sfp, _71
	mov	QWORD PTR 48[rsp], rdx	# %sfp, ivtmp.579
.LBB3280:
.LBB3275:
# /usr/include/c++/16/bits/stl_algobase.h:237:       if (__b < __a)
	.loc 10 237 7 view .LVU411
	mov	DWORD PTR 168[rsp], eax	# %sfp, _521
.LBE3275:
.LBE3280:
# src/avx_analysis_code_ablations/opt10_abl_tile_8x256_ilp.cpp:99:         const int tile_h_actual = tile_y_end - ty;
	.loc 1 99 19 view .LVU412
	sub	eax, r15d	# tile_h_actual, ty
	mov	DWORD PTR 72[rsp], eax	# %sfp, tile_h_actual
	mov	QWORD PTR 8[rsp], r14	# %sfp, _232
	mov	QWORD PTR [rsp], r12	# %sfp, _519
.LVL80:
.L51:
.LBB3281:
.LBB3268:
# src/avx_analysis_code_ablations/opt10_abl_tile_8x256_ilp.cpp:102:             const int tile_x_end = std::min(tx + TILE_W, w);
	.loc 1 102 48 view .LVU413
	mov	eax, DWORD PTR 136[rsp]	# tmp1945, %sfp
.LBB3238:
.LBB3239:
# /usr/include/c++/16/bits/stl_algobase.h:237:       if (__b < __a)
	.loc 10 237 7 view .LVU414
	mov	ecx, DWORD PTR 76[rsp]	# _1, %sfp
	mov	ebx, DWORD PTR 136[rsp]	# tx, %sfp
.LVL81:
	.loc 10 237 7 view .LVU415
.LBE3239:
.LBE3238:
	.loc 1 102 13 is_stmt 1 view .LVU416
.LBB3242:
.LBI3238:
	.loc 10 232 5 view .LVU417
.LBE3242:
# src/avx_analysis_code_ablations/opt10_abl_tile_8x256_ilp.cpp:102:             const int tile_x_end = std::min(tx + TILE_W, w);
	.loc 1 102 48 is_stmt 0 view .LVU418
	add	eax, 256	# _374,
.LVL82:
.LBB3243:
.LBB3240:
# /usr/include/c++/16/bits/stl_algobase.h:237:       if (__b < __a)
	.loc 10 237 7 view .LVU419
	cmp	eax, ecx	# _374, _1
	cmovg	eax, ecx	# _374,, _374, _1
.LBE3240:
.LBE3243:
# src/avx_analysis_code_ablations/opt10_abl_tile_8x256_ilp.cpp:103:             const int tile_w_actual = tile_x_end - tx;
	.loc 1 103 23 view .LVU420
	mov	r13d, eax	# tile_w_actual, _75
.LBB3244:
.LBB3241:
# /usr/include/c++/16/bits/stl_algobase.h:237:       if (__b < __a)
	.loc 10 237 7 view .LVU421
	mov	r12d, eax	# _75, _374
.LVL83:
	.loc 10 237 7 view .LVU422
.LBE3241:
.LBE3244:
	.loc 1 103 13 is_stmt 1 view .LVU423
# src/avx_analysis_code_ablations/opt10_abl_tile_8x256_ilp.cpp:107:                       tile_vals.begin() + tile_h_actual * tile_w_actual * 3,
	.loc 1 107 57 is_stmt 0 view .LVU424
	mov	eax, DWORD PTR 72[rsp]	# _73, %sfp
# src/avx_analysis_code_ablations/opt10_abl_tile_8x256_ilp.cpp:103:             const int tile_w_actual = tile_x_end - tx;
	.loc 1 103 23 view .LVU425
	sub	r13d, DWORD PTR 136[rsp]	#, %sfp
.LVL84:
	.loc 1 106 13 is_stmt 1 view .LVU426
.LBB3245:
.LBI3245:
	.loc 2 988 7 view .LVU427
.LBB3246:
.LBI3246:
	.loc 3 1058 7 view .LVU428
	.loc 3 1058 7 is_stmt 0 view .LVU429
.LBE3246:
.LBE3245:
.LBB3247:
.LBI3247:
	.loc 3 1147 7 is_stmt 1 view .LVU430
.LBB3248:
.LBB3249:
.LBI3249:
	.loc 3 1058 7 view .LVU431
	.loc 3 1058 7 is_stmt 0 view .LVU432
.LBE3249:
.LBE3248:
.LBE3247:
.LBB3251:
.LBI3251:
	.loc 2 988 7 is_stmt 1 view .LVU433
.LBB3252:
.LBI3252:
	.loc 3 1058 7 view .LVU434
	.loc 3 1058 7 is_stmt 0 view .LVU435
.LBE3252:
.LBE3251:
.LBB3253:
.LBI3253:
	.loc 10 1001 5 is_stmt 1 view .LVU436
.LBB3254:
.LBI3254:
	.loc 10 976 5 view .LVU437
.LBB3255:
.LBI3255:
	.loc 10 956 5 view .LVU438
.LBB3256:
.LBI3256:
	.loc 10 895 5 view .LVU439
.LBB3257:
	.loc 10 922 22 discriminator 2 view .LVU440
.LBE3257:
.LBE3256:
.LBE3255:
.LBE3254:
.LBE3253:
# src/avx_analysis_code_ablations/opt10_abl_tile_8x256_ilp.cpp:107:                       tile_vals.begin() + tile_h_actual * tile_w_actual * 3,
	.loc 1 107 57 is_stmt 0 view .LVU441
	imul	eax, r13d	# _73, tile_w_actual
# src/avx_analysis_code_ablations/opt10_abl_tile_8x256_ilp.cpp:107:                       tile_vals.begin() + tile_h_actual * tile_w_actual * 3,
	.loc 1 107 73 view .LVU442
	lea	edx, [rax+rax*2]	# _74,
.LBB3262:
.LBB3250:
# /usr/include/c++/16/bits/stl_iterator.h:1148:       { return __normal_iterator(_M_current + __n); }
	.loc 3 1148 47 view .LVU443
	movsxd	rdx, edx	# __n.55_296, _74
.LBE3250:
.LBE3262:
.LBB3263:
.LBB3261:
.LBB3260:
.LBB3259:
.LBB3258:
# /usr/include/c++/16/bits/stl_algobase.h:922:       for (; __first != __last; ++__first)
	.loc 10 922 22 discriminator 2 view .LVU444
	sal	rdx, 2	# _295,
	je	.L33	#,
	vmovaps	XMMWORD PTR 240[rsp], xmm5	# %sfp, tmp1698
# /usr/include/c++/16/bits/stl_algobase.h:923: 	*__first = __val;
	.loc 10 923 11 view .LVU445
	xor	esi, esi	#
	mov	rdi, r8	#, _700
	vzeroupper
.LVL85:
	call	"memset"@PLT	#
.LVL86:
	vmovaps	xmm5, XMMWORD PTR 240[rsp]	# tmp1698, %sfp
	vmovss	xmm23, DWORD PTR .LC1[rip]	# tmp1677,
	mov	r8, rax	# _700,
.L33:
.LVL87:
	.loc 10 923 11 view .LVU446
.LBE3258:
.LBE3259:
.LBE3260:
.LBE3261:
.LBE3263:
.LBB3264:
	.loc 1 111 39 is_stmt 1 discriminator 5 view .LVU447
# src/avx_analysis_code_ablations/opt10_abl_tile_8x256_ilp.cpp:111:             for (const SubParams& p : params) {
	.loc 1 111 39 is_stmt 0 discriminator 6 view .LVU448
	mov	rax, QWORD PTR 80[rsp]	# __new_finish, %sfp
	cmp	rax, QWORD PTR 128[rsp]	# __new_finish, %sfp
	je	.L34	#,
	mov	r14, rax	# ivtmp.567, __new_finish
	lea	eax, 0[r13+r13*2]	# _653,
	mov	DWORD PTR 96[rsp], r13d	# %sfp, tile_w_actual
	mov	r11d, r15d	# ty, ty
	cdqe
	mov	QWORD PTR 88[rsp], r8	# %sfp, _700
	mov	r8d, DWORD PTR 168[rsp]	# _521, %sfp
	mov	r15, r14	# ivtmp.567, ivtmp.567
	sal	rax, 2	# _661,
	mov	QWORD PTR 192[rsp], rax	# %sfp, _661
.LVL88:
	.p2align 4,,10
	.p2align 3
.L45:
.LBB3206:
	.loc 1 112 17 is_stmt 1 view .LVU449
.LBB3163:
.LBI3163:
	.loc 10 256 5 view .LVU450
.LBB3164:
# /usr/include/c++/16/bits/stl_algobase.h:261:       if (__a < __b)
	.loc 10 261 7 is_stmt 0 view .LVU451
	mov	eax, DWORD PTR 32[r15]	# tmp1733, MEM[(const int &)_160 + 32]
.LBE3164:
.LBE3163:
.LBB3168:
.LBB3169:
# /usr/include/c++/16/bits/stl_algobase.h:237:       if (__b < __a)
	.loc 10 237 7 view .LVU452
	mov	edx, DWORD PTR 28[r15]	# tmp1736, MEM[(const int &)_160 + 28]
.LBE3169:
.LBE3168:
.LBB3171:
.LBB3165:
# /usr/include/c++/16/bits/stl_algobase.h:261:       if (__a < __b)
	.loc 10 261 7 view .LVU453
	cmp	r11d, eax	# ty, tmp1733
	mov	edi, eax	# tmp1733, tmp1733
.LBE3165:
.LBE3171:
.LBB3172:
.LBB3173:
# /usr/include/c++/16/bits/stl_algobase.h:237:       if (__b < __a)
	.loc 10 237 7 view .LVU454
	mov	eax, DWORD PTR 36[r15]	# tmp1734, MEM[(const int &)_160 + 36]
.LBE3173:
.LBE3172:
.LBB3177:
.LBB3166:
# /usr/include/c++/16/bits/stl_algobase.h:261:       if (__a < __b)
	.loc 10 261 7 view .LVU455
	cmovge	edi, r11d	# ty,, tmp1733
.LBE3166:
.LBE3177:
.LBB3178:
.LBB3174:
# /usr/include/c++/16/bits/stl_algobase.h:237:       if (__b < __a)
	.loc 10 237 7 view .LVU456
	cmp	r8d, eax	# _521, tmp1734
	cmovle	eax, r8d	# _521,, tmp1734
.LBE3174:
.LBE3178:
.LBB3179:
.LBB3167:
# /usr/include/c++/16/bits/stl_algobase.h:261:       if (__a < __b)
	.loc 10 261 7 view .LVU457
	mov	DWORD PTR 240[rsp], edi	# %sfp, y
.LVL89:
	.loc 10 261 7 view .LVU458
.LBE3167:
.LBE3179:
	.loc 1 113 17 is_stmt 1 view .LVU459
.LBB3180:
.LBI3172:
	.loc 10 232 5 view .LVU460
.LBB3175:
# /usr/include/c++/16/bits/stl_algobase.h:237:       if (__b < __a)
	.loc 10 237 7 is_stmt 0 view .LVU461
	mov	DWORD PTR 208[rsp], eax	# %sfp, _522
.LVL90:
	.loc 10 237 7 view .LVU462
.LBE3175:
.LBE3180:
	.loc 1 114 17 is_stmt 1 view .LVU463
.LBB3181:
.LBI3181:
	.loc 10 256 5 view .LVU464
.LBE3181:
.LBB3183:
.LBB3176:
# /usr/include/c++/16/bits/stl_algobase.h:237:       if (__b < __a)
	.loc 10 237 7 is_stmt 0 view .LVU465
	mov	ecx, eax	# _522, tmp1734
.LBE3176:
.LBE3183:
.LBB3184:
.LBB3182:
# /usr/include/c++/16/bits/stl_algobase.h:261:       if (__a < __b)
	.loc 10 261 7 view .LVU466
	mov	eax, DWORD PTR 24[r15]	# tmp1735, MEM[(const int &)_160 + 24]
	cmp	ebx, eax	# tx, tmp1735
	cmovge	eax, ebx	# tx,, _155
.LVL91:
	.loc 10 261 7 view .LVU467
.LBE3182:
.LBE3184:
	.loc 1 115 17 is_stmt 1 view .LVU468
.LBB3185:
.LBI3168:
	.loc 10 232 5 view .LVU469
.LBB3170:
# /usr/include/c++/16/bits/stl_algobase.h:237:       if (__b < __a)
	.loc 10 237 7 is_stmt 0 view .LVU470
	cmp	r12d, edx	# _75, tmp1736
	cmovle	edx, r12d	# _75,, _530
.LVL92:
	.loc 10 237 7 view .LVU471
.LBE3170:
.LBE3185:
	.loc 1 116 17 is_stmt 1 view .LVU472
	cmp	eax, edx	# _155, _530
	jge	.L35	#,
	mov	r14d, edi	# y, y
	cmp	ecx, edi	# _522, y
	jle	.L35	#,
	.loc 1 118 17 view .LVU473
.LBB3186:
.LBB3153:
# src/avx_analysis_code_ablations/opt10_abl_tile_8x256_ilp.cpp:132:                                 + (x_begin - tx) * 3;
	.loc 1 132 44 is_stmt 0 view .LVU474
	mov	ecx, eax	# _96, _155
# src/avx_analysis_code_ablations/opt10_abl_tile_8x256_ilp.cpp:135:                     const int x_stop = (x_end - tx) * 3;
	.loc 1 135 47 view .LVU475
	sub	edx, ebx	# _101, tx
	mov	esi, edi	# _689, y
# src/avx_analysis_code_ablations/opt10_abl_tile_8x256_ilp.cpp:124:                     size_t ind_ltop = ((y + p.sy) * width + (x_begin + p.sx)) * 3;
	.loc 1 124 70 view .LVU476
	add	eax, DWORD PTR [r15]	# _88, MEM[(int *)_160]
# src/avx_analysis_code_ablations/opt10_abl_tile_8x256_ilp.cpp:132:                                 + (x_begin - tx) * 3;
	.loc 1 132 44 view .LVU477
	sub	ecx, ebx	# _96, tx
# src/avx_analysis_code_ablations/opt10_abl_tile_8x256_ilp.cpp:135:                     const int x_stop = (x_end - tx) * 3;
	.loc 1 135 31 view .LVU478
	lea	r10d, [rdx+rdx*2]	# x_stop_291,
# src/avx_analysis_code_ablations/opt10_abl_tile_8x256_ilp.cpp:124:                     size_t ind_ltop = ((y + p.sy) * width + (x_begin + p.sx)) * 3;
	.loc 1 124 70 view .LVU479
	cdqe
.LBE3153:
.LBE3186:
# src/avx_analysis_code_ablations/opt10_abl_tile_8x256_ilp.cpp:118:                 const __m256 Avx = _mm256_set1_ps(p.A);
	.loc 1 118 53 view .LVU480
	vmovss	xmm18, DWORD PTR 8[r15]	# _79, MEM[(float *)_160 + 8B]
.LBB3187:
.LBB3154:
# src/avx_analysis_code_ablations/opt10_abl_tile_8x256_ilp.cpp:132:                                 + (x_begin - tx) * 3;
	.loc 1 132 50 view .LVU481
	lea	r9d, [rcx+rcx*2]	# _97,
	movsxd	rcx, ecx	# _587, _96
.LBE3154:
.LBE3187:
# src/avx_analysis_code_ablations/opt10_abl_tile_8x256_ilp.cpp:119:                 const __m256 Bvx = _mm256_set1_ps(p.B);
	.loc 1 119 53 view .LVU482
	vmovss	xmm17, DWORD PTR 12[r15]	# _80, MEM[(float *)_160 + 12B]
# src/avx_analysis_code_ablations/opt10_abl_tile_8x256_ilp.cpp:120:                 const __m256 Cvx = _mm256_set1_ps(p.C);
	.loc 1 120 53 view .LVU483
	vmovss	xmm16, DWORD PTR 16[r15]	# _81, MEM[(float *)_160 + 16B]
.LBB3188:
.LBB3155:
.LBB2918:
# src/avx_analysis_code_ablations/opt10_abl_tile_8x256_ilp.cpp:139:                     for (; x + 16 <= x_stop; x += 16) {
	.loc 1 139 35 discriminator 2 view .LVU484
	lea	edx, 15[r9]	# _244,
.LBE2918:
.LBE3155:
.LBE3188:
# src/avx_analysis_code_ablations/opt10_abl_tile_8x256_ilp.cpp:121:                 const __m256 Dvx = _mm256_set1_ps(p.D);
	.loc 1 121 53 view .LVU485
	vmovss	xmm15, DWORD PTR 20[r15]	# _82, MEM[(float *)_160 + 20B]
.LBB3189:
.LBB3156:
# src/avx_analysis_code_ablations/opt10_abl_tile_8x256_ilp.cpp:132:                                 + (x_begin - tx) * 3;
	.loc 1 132 50 view .LVU486
	mov	DWORD PTR 116[rsp], r9d	# %sfp, _97
.LBE3156:
.LBE3189:
# src/avx_analysis_code_ablations/opt10_abl_tile_8x256_ilp.cpp:118:                 const __m256 Avx = _mm256_set1_ps(p.A);
	.loc 1 118 53 view .LVU487
	vbroadcastss	ymm11, xmm18	# tmp1729, _79
.LVL93:
.LBB3190:
.LBI3190:
	.file 13 "/usr/lib/gcc/x86_64-linux-gnu/16/include/avxintrin.h"
	.loc 13 1271 1 is_stmt 1 view .LVU488
.LBB3191:
	.loc 13 1273 3 view .LVU489
.LBE3191:
.LBE3190:
.LBB3193:
.LBB3157:
.LBB3061:
# src/avx_analysis_code_ablations/opt10_abl_tile_8x256_ilp.cpp:139:                     for (; x + 16 <= x_stop; x += 16) {
	.loc 1 139 35 is_stmt 0 discriminator 2 view .LVU490
	mov	DWORD PTR 200[rsp], edx	# %sfp, _244
	movsxd	rdx, DWORD PTR 4[r15]	# _692, MEM[(int *)_160 + 4B]
.LBE3061:
.LBE3157:
.LBE3193:
# src/avx_analysis_code_ablations/opt10_abl_tile_8x256_ilp.cpp:119:                 const __m256 Bvx = _mm256_set1_ps(p.B);
	.loc 1 119 53 view .LVU491
	vbroadcastss	ymm12, xmm17	# tmp1730, _80
# src/avx_analysis_code_ablations/opt10_abl_tile_8x256_ilp.cpp:120:                 const __m256 Cvx = _mm256_set1_ps(p.C);
	.loc 1 120 53 view .LVU492
	vbroadcastss	ymm13, xmm16	# tmp1731, _81
.LBB3194:
.LBB3158:
# src/avx_analysis_code_ablations/opt10_abl_tile_8x256_ilp.cpp:135:                     const int x_stop = (x_end - tx) * 3;
	.loc 1 135 31 view .LVU493
	mov	DWORD PTR 232[rsp], r10d	# %sfp, x_stop_291
.LBE3158:
.LBE3194:
# src/avx_analysis_code_ablations/opt10_abl_tile_8x256_ilp.cpp:121:                 const __m256 Dvx = _mm256_set1_ps(p.D);
	.loc 1 121 53 view .LVU494
	vbroadcastss	ymm10, xmm15	# tmp1732, _82
.LBB3195:
.LBB3192:
# /usr/lib/gcc/x86_64-linux-gnu/16/include/avxintrin.h:1274: 				 __A, __A, __A, __A };
	.loc 13 1274 25 view .LVU495
	vmovaps	ymm3, ymm11	# _337, tmp1729
.LVL94:
	.loc 13 1274 25 view .LVU496
.LBE3192:
.LBE3195:
	.loc 1 119 17 is_stmt 1 view .LVU497
.LBB3196:
.LBI3196:
	.loc 13 1271 1 view .LVU498
.LBB3197:
	.loc 13 1273 3 view .LVU499
# /usr/lib/gcc/x86_64-linux-gnu/16/include/avxintrin.h:1274: 				 __A, __A, __A, __A };
	.loc 13 1274 25 is_stmt 0 view .LVU500
	vmovaps	ymm2, ymm12	# _338, tmp1730
.LVL95:
	.loc 13 1274 25 view .LVU501
.LBE3197:
.LBE3196:
	.loc 1 120 17 is_stmt 1 view .LVU502
.LBB3198:
.LBI3198:
	.loc 13 1271 1 view .LVU503
.LBB3199:
	.loc 13 1273 3 view .LVU504
	add	rdx, rsi	# _687, _689
	mov	DWORD PTR 112[rsp], r12d	# %sfp, _75
# /usr/lib/gcc/x86_64-linux-gnu/16/include/avxintrin.h:1274: 				 __A, __A, __A, __A };
	.loc 13 1274 25 is_stmt 0 view .LVU505
	vmovaps	ymm1, ymm13	# _292, tmp1731
.LVL96:
	.loc 13 1274 25 view .LVU506
.LBE3199:
.LBE3198:
	.loc 1 121 17 is_stmt 1 view .LVU507
.LBB3200:
.LBI3200:
	.loc 13 1271 1 view .LVU508
.LBB3201:
	.loc 13 1273 3 view .LVU509
# /usr/lib/gcc/x86_64-linux-gnu/16/include/avxintrin.h:1274: 				 __A, __A, __A, __A };
	.loc 13 1274 25 is_stmt 0 view .LVU510
	vmovaps	ymm0, ymm10	# _293, tmp1732
.LVL97:
	.loc 13 1274 25 view .LVU511
.LBE3201:
.LBE3200:
	.loc 1 123 17 is_stmt 1 view .LVU512
.LBB3202:
	.loc 1 123 41 discriminator 2 view .LVU513
	imul	rdx, QWORD PTR 144[rsp]	# _1167, %sfp
	mov	QWORD PTR 224[rsp], r15	# %sfp, ivtmp.567
	mov	DWORD PTR 108[rsp], r8d	# %sfp, _521
	mov	DWORD PTR 104[rsp], ebx	# %sfp, tx
	add	rdx, rax	# _672, _89
	mov	eax, r14d	# _604, y
	mov	DWORD PTR 100[rsp], r11d	# %sfp, ty
	sub	eax, r11d	# _604, ty
	lea	rdi, [rdx+rdx*2]	# ivtmp.556,
.LVL98:
	.loc 1 123 41 is_stmt 0 discriminator 2 view .LVU514
	imul	eax, DWORD PTR 96[rsp]	# _586, %sfp
	cdqe
	add	rax, rcx	# _583, _587
	mov	rcx, QWORD PTR 88[rsp]	# _700, %sfp
	lea	rax, [rax+rax*2]	# _579,
	lea	rax, [rcx+rax*4]	# ivtmp.560,
	mov	QWORD PTR 216[rsp], rax	# %sfp, ivtmp.560
	lea	eax, -16[r10]	# _201,
	sub	eax, r9d	# _1191, _97
	mov	edx, eax	# _1225, _1191
	shr	eax, 4	# _1172,
	and	edx, -16	# _1225,
	inc	rax	# _1336
	lea	ecx, 16[r9+rdx]	# x,
	mov	DWORD PTR 172[rsp], ecx	# %sfp, x
	mov	rcx, rax	# _764, _1336
	sal	rax, 4	# _1336,
	sal	rcx, 6	# _764,
	mov	QWORD PTR 152[rsp], rax	# %sfp, _1336
	mov	QWORD PTR 160[rsp], rcx	# %sfp, _764
.LVL99:
	.p2align 4,,10
	.p2align 3
.L44:
.LBB3159:
	.loc 1 124 21 is_stmt 1 view .LVU515
	.loc 1 125 21 view .LVU516
# src/avx_analysis_code_ablations/opt10_abl_tile_8x256_ilp.cpp:127:                     size_t ind_rbot = ind_lbot + 3;
	.loc 1 127 28 is_stmt 0 view .LVU517
	mov	rax, QWORD PTR 176[rsp]	# _1330, %sfp
# src/avx_analysis_code_ablations/opt10_abl_tile_8x256_ilp.cpp:132:                                 + (x_begin - tx) * 3;
	.loc 1 132 52 view .LVU518
	mov	rbx, QWORD PTR 216[rsp]	# ivtmp.560, %sfp
	mov	rdx, rdi	# ivtmp.556, ivtmp.556
.LBB3062:
# src/avx_analysis_code_ablations/opt10_abl_tile_8x256_ilp.cpp:139:                     for (; x + 16 <= x_stop; x += 16) {
	.loc 1 139 35 discriminator 2 view .LVU519
	mov	r15d, DWORD PTR 232[rsp]	# x_stop_291, %sfp
.LBE3062:
# src/avx_analysis_code_ablations/opt10_abl_tile_8x256_ilp.cpp:125:                     size_t ind_lbot = ind_ltop + width * 3;
	.loc 1 125 28 view .LVU520
	add	rdi, QWORD PTR 184[rsp]	# ivtmp.556, %sfp
.LVL100:
	.loc 1 126 21 is_stmt 1 view .LVU521
# src/avx_analysis_code_ablations/opt10_abl_tile_8x256_ilp.cpp:126:                     size_t ind_rtop = ind_ltop + 3;
	.loc 1 126 28 is_stmt 0 view .LVU522
	lea	rcx, 3[rdx]	# ind_rtop,
.LVL101:
	.loc 1 127 21 is_stmt 1 view .LVU523
# src/avx_analysis_code_ablations/opt10_abl_tile_8x256_ilp.cpp:127:                     size_t ind_rbot = ind_lbot + 3;
	.loc 1 127 28 is_stmt 0 view .LVU524
	lea	r12, [rax+rdx]	# ind_rbot,
.LVL102:
	.loc 1 130 21 is_stmt 1 view .LVU525
# src/avx_analysis_code_ablations/opt10_abl_tile_8x256_ilp.cpp:132:                                 + (x_begin - tx) * 3;
	.loc 1 132 52 is_stmt 0 view .LVU526
	mov	rax, rbx	# vp, ivtmp.560
	.loc 1 134 21 is_stmt 1 view .LVU527
	.loc 1 135 21 view .LVU528
.LVL103:
	.loc 1 139 21 view .LVU529
.LBB3063:
	.loc 1 139 35 discriminator 2 view .LVU530
	cmp	DWORD PTR 200[rsp], r15d	# %sfp, x_stop_291
	jge	.L70	#,
	mov	r15, QWORD PTR 224[rsp]	# ivtmp.567, %sfp
	mov	rsi, QWORD PTR 40[r15]	# ivtmp.550, MEM[(const unsigned char * *)_160 + 40B]
	mov	r15, QWORD PTR 160[rsp]	# _764, %sfp
	add	rsi, rdi	# ivtmp.550, ivtmp.556
	lea	r9, [rbx+r15]	# vp,
.LVL104:
	.p2align 4,,10
	.p2align 3
.L37:
.LBB2919:
	.loc 1 140 25 view .LVU531
.LBB2920:
.LBI2920:
	.file 14 "/usr/lib/gcc/x86_64-linux-gnu/16/include/emmintrin.h"
	.loc 14 711 1 view .LVU532
.LBB2921:
	.loc 14 713 3 view .LVU533
	mov	r8, rsi	# _70, ivtmp.550
.LBE2921:
.LBE2920:
.LBB2927:
.LBB2928:
# /usr/lib/gcc/x86_64-linux-gnu/16/include/avx2intrin.h:491:   return (__m256i) __builtin_ia32_pmovzxbd256 ((__v16qi)__X);
	.file 15 "/usr/lib/gcc/x86_64-linux-gnu/16/include/avx2intrin.h"
	.loc 15 491 47 is_stmt 0 view .LVU534
	vpmovzxbd	ymm8, QWORD PTR [rsi]	# tmp1056, MEM[(__m64_u * {ref-all})_722]
.LBE2928:
.LBE2927:
.LBB2930:
.LBB2931:
	vpmovzxbd	ymm7, QWORD PTR 8[rsi]	# tmp1076, MEM[(__m64_u * {ref-all})_722 + 8B]
.LBE2931:
.LBE2930:
# src/avx_analysis_code_ablations/opt10_abl_tile_8x256_ilp.cpp:178:                         vp += 16;
	.loc 1 178 28 view .LVU535
	add	rax, 64	# vp,
.LVL105:
	.loc 1 178 28 view .LVU536
	sub	r8, rdi	# _70, ivtmp.556
.LVL106:
.LBB2933:
.LBB2926:
.LBB2922:
.LBI2922:
	.loc 14 600 1 is_stmt 1 view .LVU537
.LBB2923:
	.loc 14 602 3 view .LVU538
.LBB2924:
.LBI2924:
	.loc 14 594 1 view .LVU539
.LBB2925:
	.loc 14 596 3 view .LVU540
	.loc 14 596 3 is_stmt 0 view .LVU541
.LBE2925:
.LBE2924:
.LBE2923:
.LBE2922:
.LBE2926:
.LBE2933:
	.loc 1 141 25 is_stmt 1 view .LVU542
.LBB2934:
.LBI2934:
	.loc 14 711 1 view .LVU543
.LBB2935:
	.loc 14 713 3 view .LVU544
.LBB2936:
.LBI2936:
	.loc 14 600 1 view .LVU545
.LBB2937:
	.loc 14 602 3 view .LVU546
.LBB2938:
.LBI2938:
	.loc 14 594 1 view .LVU547
.LBB2939:
	.loc 14 596 3 view .LVU548
	.loc 14 596 3 is_stmt 0 view .LVU549
.LBE2939:
.LBE2938:
.LBE2937:
.LBE2936:
.LBE2935:
.LBE2934:
	.loc 1 142 25 is_stmt 1 view .LVU550
.LBB2940:
.LBI2940:
	.loc 14 711 1 view .LVU551
.LBB2941:
	.loc 14 713 3 view .LVU552
.LBB2942:
.LBI2942:
	.loc 14 600 1 view .LVU553
.LBB2943:
	.loc 14 602 3 view .LVU554
.LBB2944:
.LBI2944:
	.loc 14 594 1 view .LVU555
.LBB2945:
	.loc 14 596 3 view .LVU556
	.loc 14 596 3 is_stmt 0 view .LVU557
.LBE2945:
.LBE2944:
.LBE2943:
.LBE2942:
.LBE2941:
.LBE2940:
	.loc 1 143 25 is_stmt 1 view .LVU558
.LBB2946:
.LBI2946:
	.loc 14 711 1 view .LVU559
.LBB2947:
	.loc 14 713 3 view .LVU560
.LBB2948:
.LBI2948:
	.loc 14 600 1 view .LVU561
.LBB2949:
	.loc 14 602 3 view .LVU562
.LBB2950:
.LBI2950:
	.loc 14 594 1 view .LVU563
.LBB2951:
	.loc 14 596 3 view .LVU564
	.loc 14 596 3 is_stmt 0 view .LVU565
.LBE2951:
.LBE2950:
.LBE2949:
.LBE2948:
.LBE2947:
.LBE2946:
	.loc 1 145 25 is_stmt 1 view .LVU566
.LBB2952:
.LBI2952:
	.loc 14 711 1 view .LVU567
.LBB2953:
	.loc 14 713 3 view .LVU568
.LBB2954:
.LBI2954:
	.loc 14 600 1 view .LVU569
.LBB2955:
	.loc 14 602 3 view .LVU570
.LBB2956:
.LBI2956:
	.loc 14 594 1 view .LVU571
.LBB2957:
	.loc 14 596 3 view .LVU572
	.loc 14 596 3 is_stmt 0 view .LVU573
.LBE2957:
.LBE2956:
.LBE2955:
.LBE2954:
.LBE2953:
.LBE2952:
	.loc 1 146 25 is_stmt 1 view .LVU574
.LBB2958:
.LBI2958:
	.loc 14 711 1 view .LVU575
.LBB2959:
	.loc 14 713 3 view .LVU576
.LBB2960:
.LBI2960:
	.loc 14 600 1 view .LVU577
.LBB2961:
	.loc 14 602 3 view .LVU578
.LBB2962:
.LBI2962:
	.loc 14 594 1 view .LVU579
.LBB2963:
	.loc 14 596 3 view .LVU580
	.loc 14 596 3 is_stmt 0 view .LVU581
.LBE2963:
.LBE2962:
.LBE2961:
.LBE2960:
.LBE2959:
.LBE2958:
	.loc 1 147 25 is_stmt 1 view .LVU582
.LBB2964:
.LBI2964:
	.loc 14 711 1 view .LVU583
.LBB2965:
	.loc 14 713 3 view .LVU584
.LBB2966:
.LBI2966:
	.loc 14 600 1 view .LVU585
.LBB2967:
	.loc 14 602 3 view .LVU586
.LBB2968:
.LBI2968:
	.loc 14 594 1 view .LVU587
.LBB2969:
	.loc 14 596 3 view .LVU588
	.loc 14 596 3 is_stmt 0 view .LVU589
.LBE2969:
.LBE2968:
.LBE2967:
.LBE2966:
.LBE2965:
.LBE2964:
	.loc 1 148 25 is_stmt 1 view .LVU590
.LBB2970:
.LBI2970:
	.loc 14 711 1 view .LVU591
.LBB2971:
	.loc 14 713 3 view .LVU592
.LBB2972:
.LBI2972:
	.loc 14 600 1 view .LVU593
.LBB2973:
	.loc 14 602 3 view .LVU594
.LBB2974:
.LBI2974:
	.loc 14 594 1 view .LVU595
.LBB2975:
	.loc 14 596 3 view .LVU596
	.loc 14 596 3 is_stmt 0 view .LVU597
.LBE2975:
.LBE2974:
.LBE2973:
.LBE2972:
.LBE2971:
.LBE2970:
	.loc 1 150 25 is_stmt 1 view .LVU598
.LBB2976:
.LBI2976:
	.loc 15 489 1 view .LVU599
.LBB2977:
	.loc 15 491 3 view .LVU600
.LBE2977:
.LBE2976:
.LBB2979:
.LBB2980:
# /usr/lib/gcc/x86_64-linux-gnu/16/include/avx2intrin.h:491:   return (__m256i) __builtin_ia32_pmovzxbd256 ((__v16qi)__X);
	.loc 15 491 47 is_stmt 0 view .LVU601
	vpmovzxbd	ymm6, QWORD PTR 3[rsi]	# tmp1066, MEM[(__m64_u * {ref-all})_722 + 3B]
.LBE2980:
.LBE2979:
.LBB2982:
.LBB2983:
	vpmovzxbd	ymm4, QWORD PTR 11[rsi]	# tmp1086, MEM[(__m64_u * {ref-all})_722 + 11B]
.LBE2983:
.LBE2982:
.LBE2919:
# src/avx_analysis_code_ablations/opt10_abl_tile_8x256_ilp.cpp:139:                     for (; x + 16 <= x_stop; x += 16) {
	.loc 1 139 35 discriminator 2 view .LVU602
	add	rsi, 16	# ivtmp.550,
.LVL107:
.LBB3060:
.LBB2985:
.LBB2978:
# /usr/lib/gcc/x86_64-linux-gnu/16/include/avx2intrin.h:491:   return (__m256i) __builtin_ia32_pmovzxbd256 ((__v16qi)__X);
	.loc 15 491 47 view .LVU603
	vpmovzxbd	ymm20, QWORD PTR [r8+rdx]	# tmp1051, MEM[(__m64_u * {ref-all})_70 + ivtmp.556_1187 * 1]
.LVL108:
	.loc 15 491 47 view .LVU604
.LBE2978:
.LBE2985:
.LBB2986:
.LBI2986:
	.loc 13 405 1 is_stmt 1 view .LVU605
.LBB2987:
	.loc 13 407 3 view .LVU606
.LBE2987:
.LBE2986:
.LBB2989:
.LBB2990:
# /usr/lib/gcc/x86_64-linux-gnu/16/include/avx2intrin.h:491:   return (__m256i) __builtin_ia32_pmovzxbd256 ((__v16qi)__X);
	.loc 15 491 47 is_stmt 0 view .LVU607
	vpmovzxbd	ymm19, QWORD PTR 8[r8+rdx]	# tmp1071, MEM[(__m64_u * {ref-all})_70 + 8B + ivtmp.556_1187 * 1]
.LBE2990:
.LBE2989:
.LBB2992:
.LBB2993:
# /usr/lib/gcc/x86_64-linux-gnu/16/include/avxintrin.h:407:   return (__m256)__builtin_ia32_cvtdq2ps256 ((__v8si) __A);
	.loc 13 407 10 view .LVU608
	vcvtdq2ps	ymm8, ymm8	# tmp1060, tmp1056
.LBE2993:
.LBE2992:
.LBB2995:
.LBB2996:
	vcvtdq2ps	ymm7, ymm7	# tmp1080, tmp1076
.LBE2996:
.LBE2995:
.LBB2998:
.LBB2999:
# /usr/lib/gcc/x86_64-linux-gnu/16/include/avx2intrin.h:491:   return (__m256i) __builtin_ia32_pmovzxbd256 ((__v16qi)__X);
	.loc 15 491 47 view .LVU609
	vpmovzxbd	ymm14, QWORD PTR 3[r8+rdx]	# tmp1061, MEM[(__m64_u * {ref-all})_70 + 3B + ivtmp.556_1187 * 1]
.LBE2999:
.LBE2998:
.LBB3001:
.LBB3002:
	vpmovzxbd	ymm9, QWORD PTR 11[r8+rdx]	# tmp1081, MEM[(__m64_u * {ref-all})_70 + 11B + ivtmp.556_1187 * 1]
.LBE3002:
.LBE3001:
.LBB3004:
.LBB3005:
# /usr/lib/gcc/x86_64-linux-gnu/16/include/avxintrin.h:407:   return (__m256)__builtin_ia32_cvtdq2ps256 ((__v8si) __A);
	.loc 13 407 10 view .LVU610
	vcvtdq2ps	ymm6, ymm6	# tmp1070, tmp1066
.LBE3005:
.LBE3004:
.LBB3007:
.LBB3008:
	vcvtdq2ps	ymm4, ymm4	# tmp1090, tmp1086
.LBE3008:
.LBE3007:
.LBB3010:
.LBB2988:
	vcvtdq2ps	ymm20, ymm20	# tmp1055, tmp1051
.LVL109:
	.loc 13 407 10 view .LVU611
.LBE2988:
.LBE3010:
	.loc 1 151 25 is_stmt 1 view .LVU612
.LBB3011:
.LBI2927:
	.loc 15 489 1 view .LVU613
.LBB2929:
	.loc 15 491 3 view .LVU614
.LBE2929:
.LBE3011:
.LBB3012:
.LBI2992:
	.loc 13 405 1 view .LVU615
.LBB2994:
	.loc 13 407 3 view .LVU616
	.loc 13 407 3 is_stmt 0 view .LVU617
.LBE2994:
.LBE3012:
	.loc 1 152 25 is_stmt 1 view .LVU618
.LBB3013:
.LBI2998:
	.loc 15 489 1 view .LVU619
.LBB3000:
	.loc 15 491 3 view .LVU620
	.loc 15 491 3 is_stmt 0 view .LVU621
.LBE3000:
.LBE3013:
.LBB3014:
.LBI3014:
	.loc 13 405 1 is_stmt 1 view .LVU622
.LBB3015:
	.loc 13 407 3 view .LVU623
.LBE3015:
.LBE3014:
.LBB3017:
.LBB3018:
# /usr/lib/gcc/x86_64-linux-gnu/16/include/avxintrin.h:407:   return (__m256)__builtin_ia32_cvtdq2ps256 ((__v8si) __A);
	.loc 13 407 10 is_stmt 0 view .LVU624
	vcvtdq2ps	ymm19, ymm19	# tmp1075, tmp1071
.LBE3018:
.LBE3017:
.LBB3020:
.LBB3021:
# /usr/lib/gcc/x86_64-linux-gnu/16/include/fmaintrin.h:65:   return (__m256)__builtin_ia32_vfmaddps256 ((__v8sf)__A, (__v8sf)__B,
	.file 16 "/usr/lib/gcc/x86_64-linux-gnu/16/include/fmaintrin.h"
	.loc 16 65 10 view .LVU625
	vfmadd213ps	ymm20, ymm3, YMMWORD PTR -64[rax]	# tmp1091, _337, MEM[(__m256_u * {ref-all})vp_773]
.LVL110:
	.loc 16 65 10 view .LVU626
.LBE3021:
.LBE3020:
.LBB3023:
.LBB3024:
	vfmadd213ps	ymm19, ymm3, YMMWORD PTR -32[rax]	# tmp1093, _337, MEM[(__m256_u * {ref-all})vp_773 + 32B]
.LBE3024:
.LBE3023:
.LBB3026:
.LBB3016:
# /usr/lib/gcc/x86_64-linux-gnu/16/include/avxintrin.h:407:   return (__m256)__builtin_ia32_cvtdq2ps256 ((__v8si) __A);
	.loc 13 407 10 view .LVU627
	vcvtdq2ps	ymm14, ymm14	# tmp1065, tmp1061
.LVL111:
	.loc 13 407 10 view .LVU628
.LBE3016:
.LBE3026:
	.loc 1 153 25 is_stmt 1 view .LVU629
.LBB3027:
.LBI2979:
	.loc 15 489 1 view .LVU630
.LBB2981:
	.loc 15 491 3 view .LVU631
.LBE2981:
.LBE3027:
.LBB3028:
.LBI3004:
	.loc 13 405 1 view .LVU632
.LBB3006:
	.loc 13 407 3 view .LVU633
	.loc 13 407 3 is_stmt 0 view .LVU634
.LBE3006:
.LBE3028:
	.loc 1 155 25 is_stmt 1 view .LVU635
.LBB3029:
.LBI2989:
	.loc 15 489 1 view .LVU636
.LBB2991:
	.loc 15 491 3 view .LVU637
	.loc 15 491 3 is_stmt 0 view .LVU638
.LBE2991:
.LBE3029:
.LBB3030:
.LBI3017:
	.loc 13 405 1 is_stmt 1 view .LVU639
.LBB3019:
	.loc 13 407 3 view .LVU640
.LBE3019:
.LBE3030:
	.loc 1 156 25 view .LVU641
.LBB3031:
.LBI2930:
	.loc 15 489 1 view .LVU642
.LBB2932:
	.loc 15 491 3 view .LVU643
.LBE2932:
.LBE3031:
.LBB3032:
.LBI2995:
	.loc 13 405 1 view .LVU644
.LBB2997:
	.loc 13 407 3 view .LVU645
	.loc 13 407 3 is_stmt 0 view .LVU646
.LBE2997:
.LBE3032:
	.loc 1 157 25 is_stmt 1 view .LVU647
.LBB3033:
.LBI3001:
	.loc 15 489 1 view .LVU648
.LBB3003:
	.loc 15 491 3 view .LVU649
	.loc 15 491 3 is_stmt 0 view .LVU650
.LBE3003:
.LBE3033:
.LBB3034:
.LBI3034:
	.loc 13 405 1 is_stmt 1 view .LVU651
.LBB3035:
	.loc 13 407 3 view .LVU652
# /usr/lib/gcc/x86_64-linux-gnu/16/include/avxintrin.h:407:   return (__m256)__builtin_ia32_cvtdq2ps256 ((__v8si) __A);
	.loc 13 407 10 is_stmt 0 view .LVU653
	vcvtdq2ps	ymm9, ymm9	# tmp1085, tmp1081
.LVL112:
	.loc 13 407 10 view .LVU654
.LBE3035:
.LBE3034:
	.loc 1 158 25 is_stmt 1 view .LVU655
.LBB3036:
.LBI2982:
	.loc 15 489 1 view .LVU656
.LBB2984:
	.loc 15 491 3 view .LVU657
.LBE2984:
.LBE3036:
.LBB3037:
.LBI3007:
	.loc 13 405 1 view .LVU658
.LBB3009:
	.loc 13 407 3 view .LVU659
	.loc 13 407 3 is_stmt 0 view .LVU660
.LBE3009:
.LBE3037:
	.loc 1 160 25 is_stmt 1 view .LVU661
.LBB3038:
.LBI3038:
	.loc 13 847 1 view .LVU662
.LBB3039:
	.loc 13 849 3 view .LVU663
.LBE3039:
.LBE3038:
	.loc 1 161 25 view .LVU664
.LBB3040:
.LBI3040:
	.loc 13 847 1 view .LVU665
.LBB3041:
	.loc 13 849 3 view .LVU666
.LBE3041:
.LBE3040:
	.loc 1 163 25 view .LVU667
.LBB3042:
.LBI3020:
	.loc 16 63 1 view .LVU668
.LBB3022:
	.loc 16 65 3 view .LVU669
	.loc 16 65 3 is_stmt 0 view .LVU670
.LBE3022:
.LBE3042:
	.loc 1 164 25 is_stmt 1 view .LVU671
.LBB3043:
.LBI3023:
	.loc 16 63 1 view .LVU672
.LBB3025:
	.loc 16 65 3 view .LVU673
	.loc 16 65 3 is_stmt 0 view .LVU674
.LBE3025:
.LBE3043:
	.loc 1 166 25 is_stmt 1 view .LVU675
.LBB3044:
.LBI3044:
	.loc 16 63 1 view .LVU676
.LBB3045:
	.loc 16 65 3 view .LVU677
# /usr/lib/gcc/x86_64-linux-gnu/16/include/fmaintrin.h:65:   return (__m256)__builtin_ia32_vfmaddps256 ((__v8sf)__A, (__v8sf)__B,
	.loc 16 65 10 is_stmt 0 view .LVU678
	vfmadd132ps	ymm14, ymm20, ymm2	# tmp1095, tmp1091, _338
.LVL113:
	.loc 16 65 10 view .LVU679
.LBE3045:
.LBE3044:
	.loc 1 167 25 is_stmt 1 view .LVU680
.LBB3046:
.LBI3046:
	.loc 16 63 1 view .LVU681
.LBB3047:
	.loc 16 65 3 view .LVU682
# /usr/lib/gcc/x86_64-linux-gnu/16/include/fmaintrin.h:65:   return (__m256)__builtin_ia32_vfmaddps256 ((__v8sf)__A, (__v8sf)__B,
	.loc 16 65 10 is_stmt 0 view .LVU683
	vfmadd132ps	ymm9, ymm19, ymm2	# tmp1096, tmp1093, _338
.LVL114:
	.loc 16 65 10 view .LVU684
.LBE3047:
.LBE3046:
	.loc 1 169 25 is_stmt 1 view .LVU685
.LBB3048:
.LBI3048:
	.loc 16 63 1 view .LVU686
.LBB3049:
	.loc 16 65 3 view .LVU687
# /usr/lib/gcc/x86_64-linux-gnu/16/include/fmaintrin.h:65:   return (__m256)__builtin_ia32_vfmaddps256 ((__v8sf)__A, (__v8sf)__B,
	.loc 16 65 10 is_stmt 0 view .LVU688
	vfmadd132ps	ymm8, ymm14, ymm1	# tmp1097, tmp1095, _292
.LVL115:
	.loc 16 65 10 view .LVU689
.LBE3049:
.LBE3048:
	.loc 1 170 25 is_stmt 1 view .LVU690
.LBB3050:
.LBI3050:
	.loc 16 63 1 view .LVU691
.LBB3051:
	.loc 16 65 3 view .LVU692
# /usr/lib/gcc/x86_64-linux-gnu/16/include/fmaintrin.h:65:   return (__m256)__builtin_ia32_vfmaddps256 ((__v8sf)__A, (__v8sf)__B,
	.loc 16 65 10 is_stmt 0 view .LVU693
	vfmadd132ps	ymm7, ymm9, ymm1	# tmp1098, tmp1096, _292
.LVL116:
	.loc 16 65 10 view .LVU694
.LBE3051:
.LBE3050:
	.loc 1 172 25 is_stmt 1 view .LVU695
.LBB3052:
.LBI3052:
	.loc 16 63 1 view .LVU696
.LBB3053:
	.loc 16 65 3 view .LVU697
# /usr/lib/gcc/x86_64-linux-gnu/16/include/fmaintrin.h:65:   return (__m256)__builtin_ia32_vfmaddps256 ((__v8sf)__A, (__v8sf)__B,
	.loc 16 65 10 is_stmt 0 view .LVU698
	vfmadd132ps	ymm6, ymm8, ymm0	# tmp1099, tmp1097, _293
.LVL117:
	.loc 16 65 10 view .LVU699
.LBE3053:
.LBE3052:
	.loc 1 173 25 is_stmt 1 view .LVU700
.LBB3054:
.LBI3054:
	.loc 16 63 1 view .LVU701
.LBB3055:
	.loc 16 65 3 view .LVU702
# /usr/lib/gcc/x86_64-linux-gnu/16/include/fmaintrin.h:65:   return (__m256)__builtin_ia32_vfmaddps256 ((__v8sf)__A, (__v8sf)__B,
	.loc 16 65 10 is_stmt 0 view .LVU703
	vfmadd132ps	ymm4, ymm7, ymm0	# tmp1100, tmp1098, _293
.LVL118:
	.loc 16 65 10 view .LVU704
.LBE3055:
.LBE3054:
	.loc 1 175 25 is_stmt 1 view .LVU705
.LBB3056:
.LBI3056:
	.loc 13 853 1 view .LVU706
.LBB3057:
	.loc 13 855 3 view .LVU707
# /usr/lib/gcc/x86_64-linux-gnu/16/include/avxintrin.h:855:   *(__m256_u *)__P = __A;
	.loc 13 855 20 is_stmt 0 view .LVU708
	vmovups	YMMWORD PTR -64[rax], ymm6	# MEM[(__m256_u * {ref-all})vp_773], tmp1099
.LVL119:
	.loc 13 855 20 view .LVU709
.LBE3057:
.LBE3056:
	.loc 1 176 25 is_stmt 1 view .LVU710
.LBB3058:
.LBI3058:
	.loc 13 853 1 view .LVU711
.LBB3059:
	.loc 13 855 3 view .LVU712
# /usr/lib/gcc/x86_64-linux-gnu/16/include/avxintrin.h:855:   *(__m256_u *)__P = __A;
	.loc 13 855 20 is_stmt 0 view .LVU713
	vmovups	YMMWORD PTR -32[rax], ymm4	# MEM[(__m256_u * {ref-all})vp_773 + 32B], tmp1100
.LVL120:
	.loc 13 855 20 view .LVU714
.LBE3059:
.LBE3058:
	.loc 1 178 25 is_stmt 1 view .LVU715
	.loc 1 179 25 view .LVU716
	.loc 1 179 41 view .LVU717
	.loc 1 180 25 view .LVU718
	.loc 1 180 41 view .LVU719
.LBE3060:
	.loc 1 139 21 discriminator 1 view .LVU720
	.loc 1 139 35 discriminator 2 view .LVU721
	cmp	rax, r9	# vp, vp
	jne	.L37	#,
	mov	rbx, QWORD PTR 152[rsp]	# _1044, %sfp
	mov	r8d, DWORD PTR 172[rsp]	# x, %sfp
.LVL121:
	.loc 1 139 35 is_stmt 0 discriminator 2 view .LVU722
	add	r12, rbx	# ind_rbot, _1044
	add	rcx, rbx	# ind_rtop, _1044
	lea	rsi, [rdi+rbx]	# ind_lbot,
.LVL122:
	.loc 1 139 35 discriminator 2 view .LVU723
	add	rdx, rbx	# ivtmp.556, _1044
.LVL123:
.L36:
	.loc 1 139 35 discriminator 2 view .LVU724
.LBE3063:
	.loc 1 182 21 is_stmt 1 view .LVU725
.LBB3064:
# src/avx_analysis_code_ablations/opt10_abl_tile_8x256_ilp.cpp:182:                     if(x + 8 <= x_stop) {
	.loc 1 182 30 is_stmt 0 view .LVU726
	lea	r9d, 7[r8]	# _116,
# src/avx_analysis_code_ablations/opt10_abl_tile_8x256_ilp.cpp:182:                     if(x + 8 <= x_stop) {
	.loc 1 182 21 view .LVU727
	cmp	r9d, DWORD PTR 232[rsp]	# _116, %sfp
	jge	.L38	#,
.LBB3065:
	.loc 1 183 25 is_stmt 1 view .LVU728
# src/avx_analysis_code_ablations/opt10_abl_tile_8x256_ilp.cpp:183:                         __m128i ltop_b = _mm_loadl_epi64(reinterpret_cast<const __m128i*>(p.SUB + ind_ltop));
	.loc 1 183 93 is_stmt 0 view .LVU729
	mov	rbx, QWORD PTR 224[rsp]	# ivtmp.567, %sfp
# src/avx_analysis_code_ablations/opt10_abl_tile_8x256_ilp.cpp:200:                         vp += 8;
	.loc 1 200 28 view .LVU730
	add	rax, 32	# vp,
.LVL124:
# src/avx_analysis_code_ablations/opt10_abl_tile_8x256_ilp.cpp:203:                         x += 8;
	.loc 1 203 27 view .LVU731
	add	r8d, 8	# x,
# src/avx_analysis_code_ablations/opt10_abl_tile_8x256_ilp.cpp:183:                         __m128i ltop_b = _mm_loadl_epi64(reinterpret_cast<const __m128i*>(p.SUB + ind_ltop));
	.loc 1 183 93 view .LVU732
	mov	r9, QWORD PTR 40[rbx]	# _117, MEM[(const unsigned char * *)_160 + 40B]
.LVL125:
.LBB3066:
.LBI3066:
	.loc 14 711 1 is_stmt 1 view .LVU733
.LBB3067:
	.loc 14 713 3 view .LVU734
.LBB3068:
.LBI3068:
	.loc 14 600 1 view .LVU735
.LBB3069:
	.loc 14 602 3 view .LVU736
.LBB3070:
.LBI3070:
	.loc 14 594 1 view .LVU737
.LBB3071:
	.loc 14 596 3 view .LVU738
	.loc 14 596 3 is_stmt 0 view .LVU739
.LBE3071:
.LBE3070:
.LBE3069:
.LBE3068:
.LBE3067:
.LBE3066:
	.loc 1 184 25 is_stmt 1 view .LVU740
.LBB3072:
.LBI3072:
	.loc 14 711 1 view .LVU741
.LBB3073:
	.loc 14 713 3 view .LVU742
.LBB3074:
.LBI3074:
	.loc 14 600 1 view .LVU743
.LBB3075:
	.loc 14 602 3 view .LVU744
.LBB3076:
.LBI3076:
	.loc 14 594 1 view .LVU745
.LBB3077:
	.loc 14 596 3 view .LVU746
	.loc 14 596 3 is_stmt 0 view .LVU747
.LBE3077:
.LBE3076:
.LBE3075:
.LBE3074:
.LBE3073:
.LBE3072:
	.loc 1 185 25 is_stmt 1 view .LVU748
.LBB3078:
.LBI3078:
	.loc 14 711 1 view .LVU749
.LBB3079:
	.loc 14 713 3 view .LVU750
.LBB3080:
.LBI3080:
	.loc 14 600 1 view .LVU751
.LBB3081:
	.loc 14 602 3 view .LVU752
.LBB3082:
.LBI3082:
	.loc 14 594 1 view .LVU753
.LBB3083:
	.loc 14 596 3 view .LVU754
	.loc 14 596 3 is_stmt 0 view .LVU755
.LBE3083:
.LBE3082:
.LBE3081:
.LBE3080:
.LBE3079:
.LBE3078:
	.loc 1 186 25 is_stmt 1 view .LVU756
.LBB3084:
.LBI3084:
	.loc 14 711 1 view .LVU757
.LBB3085:
	.loc 14 713 3 view .LVU758
.LBB3086:
.LBI3086:
	.loc 14 600 1 view .LVU759
.LBB3087:
	.loc 14 602 3 view .LVU760
.LBB3088:
.LBI3088:
	.loc 14 594 1 view .LVU761
.LBB3089:
	.loc 14 596 3 view .LVU762
	.loc 14 596 3 is_stmt 0 view .LVU763
.LBE3089:
.LBE3088:
.LBE3087:
.LBE3086:
.LBE3085:
.LBE3084:
	.loc 1 188 25 is_stmt 1 view .LVU764
.LBB3090:
.LBI3090:
	.loc 15 489 1 view .LVU765
.LBB3091:
	.loc 15 491 3 view .LVU766
# /usr/lib/gcc/x86_64-linux-gnu/16/include/avx2intrin.h:491:   return (__m256i) __builtin_ia32_pmovzxbd256 ((__v16qi)__X);
	.loc 15 491 47 is_stmt 0 view .LVU767
	vpmovzxbd	ymm8, QWORD PTR [r9+rdx]	# tmp1103, MEM[(__m64_u * {ref-all})_118]
.LVL126:
	.loc 15 491 47 view .LVU768
.LBE3091:
.LBE3090:
.LBB3092:
.LBI3092:
	.loc 13 405 1 is_stmt 1 view .LVU769
.LBB3093:
	.loc 13 407 3 view .LVU770
.LBE3093:
.LBE3092:
.LBB3095:
.LBB3096:
# /usr/lib/gcc/x86_64-linux-gnu/16/include/avx2intrin.h:491:   return (__m256i) __builtin_ia32_pmovzxbd256 ((__v16qi)__X);
	.loc 15 491 47 is_stmt 0 view .LVU771
	vpmovzxbd	ymm7, QWORD PTR [r9+rcx]	# tmp1113, MEM[(__m64_u * {ref-all})_120]
.LBE3096:
.LBE3095:
# src/avx_analysis_code_ablations/opt10_abl_tile_8x256_ilp.cpp:201:                         ind_ltop += 8; ind_lbot += 8;
	.loc 1 201 34 view .LVU772
	add	rdx, 8	# ivtmp.556,
# src/avx_analysis_code_ablations/opt10_abl_tile_8x256_ilp.cpp:202:                         ind_rtop += 8; ind_rbot += 8;
	.loc 1 202 34 view .LVU773
	add	rcx, 8	# ind_rtop,
.LBB3098:
.LBB3099:
# /usr/lib/gcc/x86_64-linux-gnu/16/include/avx2intrin.h:491:   return (__m256i) __builtin_ia32_pmovzxbd256 ((__v16qi)__X);
	.loc 15 491 47 view .LVU774
	vpmovzxbd	ymm6, QWORD PTR [r9+rsi]	# tmp1108, MEM[(__m64_u * {ref-all})_119]
.LBE3099:
.LBE3098:
.LBB3101:
.LBB3102:
	vpmovzxbd	ymm4, QWORD PTR [r9+r12]	# tmp1118, MEM[(__m64_u * {ref-all})_121]
.LBE3102:
.LBE3101:
# src/avx_analysis_code_ablations/opt10_abl_tile_8x256_ilp.cpp:201:                         ind_ltop += 8; ind_lbot += 8;
	.loc 1 201 49 view .LVU775
	add	rsi, 8	# ind_lbot,
# src/avx_analysis_code_ablations/opt10_abl_tile_8x256_ilp.cpp:202:                         ind_rtop += 8; ind_rbot += 8;
	.loc 1 202 49 view .LVU776
	add	r12, 8	# ind_rbot,
.LBB3104:
.LBB3094:
# /usr/lib/gcc/x86_64-linux-gnu/16/include/avxintrin.h:407:   return (__m256)__builtin_ia32_cvtdq2ps256 ((__v8si) __A);
	.loc 13 407 10 view .LVU777
	vcvtdq2ps	ymm8, ymm8	# tmp1107, tmp1103
.LVL127:
	.loc 13 407 10 view .LVU778
.LBE3094:
.LBE3104:
	.loc 1 189 25 is_stmt 1 view .LVU779
.LBB3105:
.LBI3098:
	.loc 15 489 1 view .LVU780
.LBB3100:
	.loc 15 491 3 view .LVU781
	.loc 15 491 3 is_stmt 0 view .LVU782
.LBE3100:
.LBE3105:
.LBB3106:
.LBI3106:
	.loc 13 405 1 is_stmt 1 view .LVU783
.LBB3107:
	.loc 13 407 3 view .LVU784
.LBE3107:
.LBE3106:
.LBB3109:
.LBB3110:
# /usr/lib/gcc/x86_64-linux-gnu/16/include/fmaintrin.h:65:   return (__m256)__builtin_ia32_vfmaddps256 ((__v8sf)__A, (__v8sf)__B,
	.loc 16 65 10 is_stmt 0 view .LVU785
	vfmadd213ps	ymm8, ymm3, YMMWORD PTR -32[rax]	# tmp1123, _337, MEM[(__m256_u * {ref-all})vp_774]
.LVL128:
	.loc 16 65 10 view .LVU786
.LBE3110:
.LBE3109:
.LBB3112:
.LBB3113:
# /usr/lib/gcc/x86_64-linux-gnu/16/include/avxintrin.h:407:   return (__m256)__builtin_ia32_cvtdq2ps256 ((__v8si) __A);
	.loc 13 407 10 view .LVU787
	vcvtdq2ps	ymm7, ymm7	# tmp1117, tmp1113
.LBE3113:
.LBE3112:
.LBB3115:
.LBB3108:
	vcvtdq2ps	ymm6, ymm6	# tmp1112, tmp1108
.LVL129:
	.loc 13 407 10 view .LVU788
.LBE3108:
.LBE3115:
	.loc 1 190 25 is_stmt 1 view .LVU789
.LBB3116:
.LBI3095:
	.loc 15 489 1 view .LVU790
.LBB3097:
	.loc 15 491 3 view .LVU791
	.loc 15 491 3 is_stmt 0 view .LVU792
.LBE3097:
.LBE3116:
.LBB3117:
.LBI3112:
	.loc 13 405 1 is_stmt 1 view .LVU793
.LBB3114:
	.loc 13 407 3 view .LVU794
	.loc 13 407 3 is_stmt 0 view .LVU795
.LBE3114:
.LBE3117:
	.loc 1 191 25 is_stmt 1 view .LVU796
.LBB3118:
.LBI3101:
	.loc 15 489 1 view .LVU797
.LBB3103:
	.loc 15 491 3 view .LVU798
	.loc 15 491 3 is_stmt 0 view .LVU799
.LBE3103:
.LBE3118:
.LBB3119:
.LBI3119:
	.loc 13 405 1 is_stmt 1 view .LVU800
.LBB3120:
	.loc 13 407 3 view .LVU801
# /usr/lib/gcc/x86_64-linux-gnu/16/include/avxintrin.h:407:   return (__m256)__builtin_ia32_cvtdq2ps256 ((__v8si) __A);
	.loc 13 407 10 is_stmt 0 view .LVU802
	vcvtdq2ps	ymm4, ymm4	# tmp1122, tmp1118
.LVL130:
	.loc 13 407 10 view .LVU803
.LBE3120:
.LBE3119:
	.loc 1 193 25 is_stmt 1 view .LVU804
.LBB3121:
.LBI3121:
	.loc 13 847 1 view .LVU805
.LBB3122:
	.loc 13 849 3 view .LVU806
.LBE3122:
.LBE3121:
	.loc 1 194 25 view .LVU807
.LBB3123:
.LBI3109:
	.loc 16 63 1 view .LVU808
.LBB3111:
	.loc 16 65 3 view .LVU809
	.loc 16 65 3 is_stmt 0 view .LVU810
.LBE3111:
.LBE3123:
	.loc 1 195 25 is_stmt 1 view .LVU811
.LBB3124:
.LBI3124:
	.loc 16 63 1 view .LVU812
.LBB3125:
	.loc 16 65 3 view .LVU813
# /usr/lib/gcc/x86_64-linux-gnu/16/include/fmaintrin.h:65:   return (__m256)__builtin_ia32_vfmaddps256 ((__v8sf)__A, (__v8sf)__B,
	.loc 16 65 10 is_stmt 0 view .LVU814
	vfmadd132ps	ymm7, ymm8, ymm2	# tmp1125, tmp1123, _338
.LVL131:
	.loc 16 65 10 view .LVU815
.LBE3125:
.LBE3124:
	.loc 1 196 25 is_stmt 1 view .LVU816
.LBB3126:
.LBI3126:
	.loc 16 63 1 view .LVU817
.LBB3127:
	.loc 16 65 3 view .LVU818
# /usr/lib/gcc/x86_64-linux-gnu/16/include/fmaintrin.h:65:   return (__m256)__builtin_ia32_vfmaddps256 ((__v8sf)__A, (__v8sf)__B,
	.loc 16 65 10 is_stmt 0 view .LVU819
	vfmadd132ps	ymm6, ymm7, ymm1	# tmp1126, tmp1125, _292
.LVL132:
	.loc 16 65 10 view .LVU820
.LBE3127:
.LBE3126:
	.loc 1 197 25 is_stmt 1 view .LVU821
.LBB3128:
.LBI3128:
	.loc 16 63 1 view .LVU822
.LBB3129:
	.loc 16 65 3 view .LVU823
# /usr/lib/gcc/x86_64-linux-gnu/16/include/fmaintrin.h:65:   return (__m256)__builtin_ia32_vfmaddps256 ((__v8sf)__A, (__v8sf)__B,
	.loc 16 65 10 is_stmt 0 view .LVU824
	vfmadd132ps	ymm4, ymm6, ymm0	# tmp1127, tmp1126, _293
.LVL133:
	.loc 16 65 10 view .LVU825
.LBE3129:
.LBE3128:
	.loc 1 198 25 is_stmt 1 view .LVU826
.LBB3130:
.LBI3130:
	.loc 13 853 1 view .LVU827
.LBB3131:
	.loc 13 855 3 view .LVU828
# /usr/lib/gcc/x86_64-linux-gnu/16/include/avxintrin.h:855:   *(__m256_u *)__P = __A;
	.loc 13 855 20 is_stmt 0 view .LVU829
	vmovups	YMMWORD PTR -32[rax], ymm4	# MEM[(__m256_u * {ref-all})vp_774], tmp1127
.LVL134:
	.loc 13 855 20 view .LVU830
.LBE3131:
.LBE3130:
	.loc 1 200 25 is_stmt 1 view .LVU831
	.loc 1 201 25 view .LVU832
	.loc 1 201 40 view .LVU833
	.loc 1 202 25 view .LVU834
	.loc 1 202 40 view .LVU835
	.loc 1 203 25 view .LVU836
.L38:
	.loc 1 203 25 is_stmt 0 view .LVU837
.LBE3065:
.LBE3064:
	.loc 1 206 21 is_stmt 1 view .LVU838
# src/avx_analysis_code_ablations/opt10_abl_tile_8x256_ilp.cpp:206:                     int remaining = x_stop - x;
	.loc 1 206 25 is_stmt 0 view .LVU839
	mov	ebx, DWORD PTR 232[rsp]	# remaining, %sfp
	sub	ebx, r8d	# remaining, x
.LVL135:
	.loc 1 207 21 is_stmt 1 view .LVU840
.LBB3132:
	.loc 1 207 39 discriminator 2 view .LVU841
	test	ebx, ebx	# remaining
	jle	.L39	#,
.LBB3133:
# src/avx_analysis_code_ablations/opt10_abl_tile_8x256_ilp.cpp:208:                         float TL = p.SUB[ind_ltop + k];
	.loc 1 208 38 is_stmt 0 view .LVU842
	mov	r15, QWORD PTR 224[rsp]	# ivtmp.567, %sfp
	lea	r9d, -1[rbx]	# _1041,
	mov	r8, QWORD PTR 40[r15]	# _122, MEM[(const unsigned char * *)_160 + 40B]
.LVL136:
	.loc 1 208 38 view .LVU843
	cmp	r9d, 30	# _1041,
	jbe	.L71	#,
	mov	r11d, ebx	# bnd.355, remaining
	lea	r14, [r8+r12]	# vectp.359,
	add	rsi, r8	# tmp1656, _122
	add	rcx, r8	# tmp1657, _122
	shr	r11d, 5	# bnd.355,
	add	rdx, r8	# tmp1655, _122
	mov	r9, rax	# ivtmp.522, vp
	xor	r10d, r10d	# ivtmp.524
	mov	r13d, r11d	# _62, bnd.355
	sal	r13, 5	# _1255,
.LVL137:
	.p2align 4,,10
	.p2align 3
.L41:
	.loc 1 208 25 is_stmt 1 view .LVU844
# src/avx_analysis_code_ablations/opt10_abl_tile_8x256_ilp.cpp:210:                         float BL = p.SUB[ind_lbot + k];
	.loc 1 210 54 is_stmt 0 discriminator 40960 view .LVU845
	vmovdqu	ymm8, YMMWORD PTR [rsi+r10]	# MEM <const vector(32) unsigned char> [(const unsigned char *)vectp.365_1011 + ivtmp.524_1307 * 1], MEM <const vector(32) unsigned char> [(const unsigned char *)vectp.365_1011 + ivtmp.524_1307 * 1]
# src/avx_analysis_code_ablations/opt10_abl_tile_8x256_ilp.cpp:209:                         float TR = p.SUB[ind_rtop + k];
	.loc 1 209 54 discriminator 40960 view .LVU846
	vmovdqu	ymm4, YMMWORD PTR [rcx+r10]	# MEM <const vector(32) unsigned char> [(const unsigned char *)vectp.371_992 + ivtmp.524_1307 * 1], MEM <const vector(32) unsigned char> [(const unsigned char *)vectp.371_992 + ivtmp.524_1307 * 1]
	sub	r9, -128	# ivtmp.522,
# src/avx_analysis_code_ablations/opt10_abl_tile_8x256_ilp.cpp:208:                         float TL = p.SUB[ind_ltop + k];
	.loc 1 208 54 discriminator 40960 view .LVU847
	vmovdqu	ymm7, YMMWORD PTR [rdx+r10]	# MEM <const vector(32) unsigned char> [(const unsigned char *)vectp.383_965 + ivtmp.524_1307 * 1], MEM <const vector(32) unsigned char> [(const unsigned char *)vectp.383_965 + ivtmp.524_1307 * 1]
# src/avx_analysis_code_ablations/opt10_abl_tile_8x256_ilp.cpp:210:                         float BL = p.SUB[ind_lbot + k];
	.loc 1 210 31 discriminator 40960 view .LVU848
	vpmovzxbw	ymm6, xmm8	#, MEM <const vector(32) unsigned char> [(const unsigned char *)vectp.365_1011 + ivtmp.524_1307 * 1]
# src/avx_analysis_code_ablations/opt10_abl_tile_8x256_ilp.cpp:209:                         float TR = p.SUB[ind_rtop + k];
	.loc 1 209 31 discriminator 40960 view .LVU849
	vpmovzxbw	ymm9, xmm4	#, MEM <const vector(32) unsigned char> [(const unsigned char *)vectp.371_992 + ivtmp.524_1307 * 1]
# src/avx_analysis_code_ablations/opt10_abl_tile_8x256_ilp.cpp:210:                         float BL = p.SUB[ind_lbot + k];
	.loc 1 210 31 discriminator 40960 view .LVU850
	vextracti32x4	xmm8, ymm8, 0x1	# tmp1139, MEM <const vector(32) unsigned char> [(const unsigned char *)vectp.365_1011 + ivtmp.524_1307 * 1]
	vpmovsxwd	ymm19, xmm6	#, vect_BL_310.368
	vextracti32x4	xmm6, ymm6, 0x1	# tmp1152, vect_BL_310.368
# src/avx_analysis_code_ablations/opt10_abl_tile_8x256_ilp.cpp:209:                         float TR = p.SUB[ind_rtop + k];
	.loc 1 209 31 discriminator 40960 view .LVU851
	vpmovsxwd	ymm14, xmm9	#, vect_TR_309.374
# src/avx_analysis_code_ablations/opt10_abl_tile_8x256_ilp.cpp:210:                         float BL = p.SUB[ind_lbot + k];
	.loc 1 210 31 discriminator 40960 view .LVU852
	vpmovsxwd	ymm6, xmm6	# tmp1151, tmp1152
# src/avx_analysis_code_ablations/opt10_abl_tile_8x256_ilp.cpp:209:                         float TR = p.SUB[ind_rtop + k];
	.loc 1 209 31 discriminator 40960 view .LVU853
	vextracti32x4	xmm9, ymm9, 0x1	# tmp1149, vect_TR_309.374
# src/avx_analysis_code_ablations/opt10_abl_tile_8x256_ilp.cpp:210:                         float BL = p.SUB[ind_lbot + k];
	.loc 1 210 31 discriminator 40960 view .LVU854
	vpmovzxbw	ymm8, xmm8	# vect_BL_310.368, tmp1139
	vcvtdq2ps	ymm19, ymm19	# vect_BL_310.367_1005, tmp1144
# src/avx_analysis_code_ablations/opt10_abl_tile_8x256_ilp.cpp:209:                         float TR = p.SUB[ind_rtop + k];
	.loc 1 209 31 discriminator 40960 view .LVU855
	vcvtdq2ps	ymm14, ymm14	# vect_TR_309.373_986, tmp1141
# src/avx_analysis_code_ablations/opt10_abl_tile_8x256_ilp.cpp:210:                         float BL = p.SUB[ind_lbot + k];
	.loc 1 210 31 discriminator 40960 view .LVU856
	vcvtdq2ps	ymm6, ymm6	# vect_BL_310.367_1004, tmp1151
# src/avx_analysis_code_ablations/opt10_abl_tile_8x256_ilp.cpp:212:                         vp[k] += p.A*TL + p.B*TR + p.C*BL + p.D*BR;
	.loc 1 212 55 discriminator 40960 view .LVU857
	vmulps	ymm6, ymm6, ymm1	# vect__145.369_1000, vect_BL_310.367_1004, _292
# src/avx_analysis_code_ablations/opt10_abl_tile_8x256_ilp.cpp:209:                         float TR = p.SUB[ind_rtop + k];
	.loc 1 209 31 discriminator 40960 view .LVU858
	vpmovsxwd	ymm9, xmm9	# tmp1148, tmp1149
# src/avx_analysis_code_ablations/opt10_abl_tile_8x256_ilp.cpp:210:                         float BL = p.SUB[ind_lbot + k];
	.loc 1 210 31 discriminator 40960 view .LVU859
	vextracti32x4	xmm20, ymm8, 0x1	# tmp1166, vect_BL_310.368
# src/avx_analysis_code_ablations/opt10_abl_tile_8x256_ilp.cpp:212:                         vp[k] += p.A*TL + p.B*TR + p.C*BL + p.D*BR;
	.loc 1 212 55 discriminator 40960 view .LVU860
	vmulps	ymm19, ymm19, ymm1	# vect__145.369_1001, vect_BL_310.367_1005, _292
# src/avx_analysis_code_ablations/opt10_abl_tile_8x256_ilp.cpp:209:                         float TR = p.SUB[ind_rtop + k];
	.loc 1 209 31 discriminator 40960 view .LVU861
	vcvtdq2ps	ymm9, ymm9	# vect_TR_309.373_985, tmp1148
# src/avx_analysis_code_ablations/opt10_abl_tile_8x256_ilp.cpp:208:                         float TL = p.SUB[ind_ltop + k];
	.loc 1 208 31 discriminator 40960 view .LVU862
	vpmovzxbw	ymm22, xmm7	#, MEM <const vector(32) unsigned char> [(const unsigned char *)vectp.383_965 + ivtmp.524_1307 * 1]
# src/avx_analysis_code_ablations/opt10_abl_tile_8x256_ilp.cpp:209:                         float TR = p.SUB[ind_rtop + k];
	.loc 1 209 31 discriminator 40960 view .LVU863
	vextracti32x4	xmm4, ymm4, 0x1	# tmp1136, MEM <const vector(32) unsigned char> [(const unsigned char *)vectp.371_992 + ivtmp.524_1307 * 1]
# src/avx_analysis_code_ablations/opt10_abl_tile_8x256_ilp.cpp:210:                         float BL = p.SUB[ind_lbot + k];
	.loc 1 210 31 discriminator 40960 view .LVU864
	vpmovsxwd	ymm20, xmm20	# tmp1165, tmp1166
# src/avx_analysis_code_ablations/opt10_abl_tile_8x256_ilp.cpp:209:                         float TR = p.SUB[ind_rtop + k];
	.loc 1 209 31 discriminator 40960 view .LVU865
	vpmovzxbw	ymm4, xmm4	# vect_TR_309.374, tmp1136
# src/avx_analysis_code_ablations/opt10_abl_tile_8x256_ilp.cpp:208:                         float TL = p.SUB[ind_ltop + k];
	.loc 1 208 31 discriminator 40960 view .LVU866
	vextracti32x4	xmm7, ymm7, 0x1	# tmp1133, MEM <const vector(32) unsigned char> [(const unsigned char *)vectp.383_965 + ivtmp.524_1307 * 1]
# src/avx_analysis_code_ablations/opt10_abl_tile_8x256_ilp.cpp:210:                         float BL = p.SUB[ind_lbot + k];
	.loc 1 210 31 discriminator 40960 view .LVU867
	vcvtdq2ps	ymm20, ymm20	# vect_BL_310.367_1002, tmp1165
# src/avx_analysis_code_ablations/opt10_abl_tile_8x256_ilp.cpp:212:                         vp[k] += p.A*TL + p.B*TR + p.C*BL + p.D*BR;
	.loc 1 212 55 discriminator 40960 view .LVU868
	vmulps	ymm20, ymm20, ymm1	# vect__145.369_998, vect_BL_310.367_1002, _292
# src/avx_analysis_code_ablations/opt10_abl_tile_8x256_ilp.cpp:208:                         float TL = p.SUB[ind_ltop + k];
	.loc 1 208 31 discriminator 40960 view .LVU869
	vpmovzxbw	ymm7, xmm7	# vect_TL_308.386, tmp1133
.LVL138:
	.loc 1 209 25 is_stmt 1 view .LVU870
	.loc 1 210 25 view .LVU871
	vfmadd132ps	ymm9, ymm6, ymm2	# _1151, vect__145.369_1000, _338
# src/avx_analysis_code_ablations/opt10_abl_tile_8x256_ilp.cpp:210:                         float BL = p.SUB[ind_lbot + k];
	.loc 1 210 31 is_stmt 0 discriminator 40960 view .LVU872
	vpmovsxwd	ymm6, xmm8	#, vect_BL_310.368
# src/avx_analysis_code_ablations/opt10_abl_tile_8x256_ilp.cpp:208:                         float TL = p.SUB[ind_ltop + k];
	.loc 1 208 31 discriminator 40960 view .LVU873
	vpmovsxwd	ymm8, xmm22	#, vect_TL_308.386
# src/avx_analysis_code_ablations/opt10_abl_tile_8x256_ilp.cpp:210:                         float BL = p.SUB[ind_lbot + k];
	.loc 1 210 31 discriminator 40960 view .LVU874
	vcvtdq2ps	ymm6, ymm6	# vect_BL_310.367_1003, tmp1158
# src/avx_analysis_code_ablations/opt10_abl_tile_8x256_ilp.cpp:212:                         vp[k] += p.A*TL + p.B*TR + p.C*BL + p.D*BR;
	.loc 1 212 55 discriminator 40960 view .LVU875
	vmulps	ymm6, ymm6, ymm1	# vect__145.369_999, vect_BL_310.367_1003, _292
	vfmadd132ps	ymm14, ymm19, ymm2	# _1282, vect__145.369_1001, _338
# src/avx_analysis_code_ablations/opt10_abl_tile_8x256_ilp.cpp:208:                         float TL = p.SUB[ind_ltop + k];
	.loc 1 208 31 discriminator 40960 view .LVU876
	vcvtdq2ps	ymm8, ymm8	# vect_TL_308.385_959, tmp1176
# src/avx_analysis_code_ablations/opt10_abl_tile_8x256_ilp.cpp:209:                         float TR = p.SUB[ind_rtop + k];
	.loc 1 209 31 discriminator 40960 view .LVU877
	vpmovsxwd	ymm19, xmm4	#, vect_TR_309.374
	vfmadd213ps	ymm8, ymm3, YMMWORD PTR -128[r9]	# tmp1174, _337, MEM <vector(8) float> [(float *)_459]
	vcvtdq2ps	ymm19, ymm19	# vect_TR_309.373_984, tmp1155
	vfmadd132ps	ymm19, ymm6, ymm2	# _1302, vect__145.369_999, _338
	vextracti32x4	xmm6, ymm4, 0x1	# tmp1163, vect_TR_309.374
# src/avx_analysis_code_ablations/opt10_abl_tile_8x256_ilp.cpp:211:                         float BR = p.SUB[ind_rbot + k];
	.loc 1 211 54 discriminator 40960 view .LVU878
	vmovdqu	ymm4, YMMWORD PTR [r14+r10]	# MEM <const vector(32) unsigned char> [(const unsigned char *)vectp.359_1029 + ivtmp.524_1307 * 1], MEM <const vector(32) unsigned char> [(const unsigned char *)vectp.359_1029 + ivtmp.524_1307 * 1]
	add	r10, 32	# ivtmp.524,
# src/avx_analysis_code_ablations/opt10_abl_tile_8x256_ilp.cpp:209:                         float TR = p.SUB[ind_rtop + k];
	.loc 1 209 31 discriminator 40960 view .LVU879
	vpmovsxwd	ymm6, xmm6	# tmp1162, tmp1163
# src/avx_analysis_code_ablations/opt10_abl_tile_8x256_ilp.cpp:211:                         float BR = p.SUB[ind_rbot + k];
	.loc 1 211 31 discriminator 40960 view .LVU880
	vpmovzxbw	ymm21, xmm4	#, MEM <const vector(32) unsigned char> [(const unsigned char *)vectp.359_1029 + ivtmp.524_1307 * 1]
# src/avx_analysis_code_ablations/opt10_abl_tile_8x256_ilp.cpp:209:                         float TR = p.SUB[ind_rtop + k];
	.loc 1 209 31 discriminator 40960 view .LVU881
	vcvtdq2ps	ymm6, ymm6	# vect_TR_309.373_983, tmp1162
	vfmadd132ps	ymm6, ymm20, ymm2	# _1277, vect__145.369_998, _338
.LVL139:
	.loc 1 211 25 is_stmt 1 view .LVU882
# src/avx_analysis_code_ablations/opt10_abl_tile_8x256_ilp.cpp:211:                         float BR = p.SUB[ind_rbot + k];
	.loc 1 211 31 is_stmt 0 discriminator 40960 view .LVU883
	vextracti32x4	xmm4, ymm4, 0x1	# tmp1170, MEM <const vector(32) unsigned char> [(const unsigned char *)vectp.359_1029 + ivtmp.524_1307 * 1]
	vpmovsxwd	ymm20, xmm21	#, vect_BR_311.362
	vextracti32x4	xmm21, ymm21, 0x1	# tmp1181, vect_BR_311.362
	vpmovzxbw	ymm4, xmm4	# vect_BR_311.362, tmp1170
.LVL140:
	.loc 1 212 25 is_stmt 1 view .LVU884
# src/avx_analysis_code_ablations/opt10_abl_tile_8x256_ilp.cpp:211:                         float BR = p.SUB[ind_rbot + k];
	.loc 1 211 31 is_stmt 0 discriminator 40960 view .LVU885
	vcvtdq2ps	ymm20, ymm20	# vect_BR_311.361_1023, tmp1172
	vfmadd132ps	ymm20, ymm8, ymm0	# _1288, tmp1174, _293
# src/avx_analysis_code_ablations/opt10_abl_tile_8x256_ilp.cpp:208:                         float TL = p.SUB[ind_ltop + k];
	.loc 1 208 31 discriminator 40960 view .LVU886
	vextracti32x4	xmm8, ymm22, 0x1	# tmp1185, vect_TL_308.386
# src/avx_analysis_code_ablations/opt10_abl_tile_8x256_ilp.cpp:211:                         float BR = p.SUB[ind_rbot + k];
	.loc 1 211 31 discriminator 40960 view .LVU887
	vpmovsxwd	ymm21, xmm21	# tmp1180, tmp1181
# src/avx_analysis_code_ablations/opt10_abl_tile_8x256_ilp.cpp:208:                         float TL = p.SUB[ind_ltop + k];
	.loc 1 208 31 discriminator 40960 view .LVU888
	vpmovsxwd	ymm8, xmm8	# tmp1184, tmp1185
# src/avx_analysis_code_ablations/opt10_abl_tile_8x256_ilp.cpp:211:                         float BR = p.SUB[ind_rbot + k];
	.loc 1 211 31 discriminator 40960 view .LVU889
	vcvtdq2ps	ymm21, ymm21	# vect_BR_311.361_1022, tmp1180
	vpmovsxwd	ymm22, xmm4	#, vect_BR_311.362
	vextracti32x4	xmm4, ymm4, 0x1	# tmp1198, vect_BR_311.362
# src/avx_analysis_code_ablations/opt10_abl_tile_8x256_ilp.cpp:208:                         float TL = p.SUB[ind_ltop + k];
	.loc 1 208 31 discriminator 40960 view .LVU890
	vcvtdq2ps	ymm8, ymm8	# vect_TL_308.385_958, tmp1184
	vfmadd213ps	ymm8, ymm3, YMMWORD PTR -96[r9]	# tmp1182, _337, MEM <vector(8) float> [(float *)_459 + 32B]
# src/avx_analysis_code_ablations/opt10_abl_tile_8x256_ilp.cpp:211:                         float BR = p.SUB[ind_rbot + k];
	.loc 1 211 31 discriminator 40960 view .LVU891
	vpmovsxwd	ymm4, xmm4	# tmp1197, tmp1198
	vcvtdq2ps	ymm22, ymm22	# vect_BR_311.361_1021, tmp1188
	vcvtdq2ps	ymm4, ymm4	# vect_BR_311.361_1020, tmp1197
# src/avx_analysis_code_ablations/opt10_abl_tile_8x256_ilp.cpp:212:                         vp[k] += p.A*TL + p.B*TR + p.C*BL + p.D*BR;
	.loc 1 212 31 discriminator 40960 view .LVU892
	vaddps	ymm14, ymm14, ymm20	# vect__150.391_939, _1282, _1288
	vfmadd132ps	ymm21, ymm8, ymm0	# _1270, tmp1182, _293
# src/avx_analysis_code_ablations/opt10_abl_tile_8x256_ilp.cpp:208:                         float TL = p.SUB[ind_ltop + k];
	.loc 1 208 31 discriminator 40960 view .LVU893
	vpmovsxwd	ymm8, xmm7	#, vect_TL_308.386
	vextracti32x4	xmm7, ymm7, 0x1	# tmp1202, vect_TL_308.386
	vpmovsxwd	ymm7, xmm7	# tmp1201, tmp1202
	vcvtdq2ps	ymm8, ymm8	# vect_TL_308.385_957, tmp1192
	vfmadd213ps	ymm8, ymm3, YMMWORD PTR -64[r9]	# tmp1190, _337, MEM <vector(8) float> [(float *)_459 + 64B]
# src/avx_analysis_code_ablations/opt10_abl_tile_8x256_ilp.cpp:212:                         vp[k] += p.A*TL + p.B*TR + p.C*BL + p.D*BR;
	.loc 1 212 31 discriminator 40960 view .LVU894
	vmovups	YMMWORD PTR -128[r9], ymm14	# MEM <vector(8) float> [(float *)_459], vect__150.391_939
# src/avx_analysis_code_ablations/opt10_abl_tile_8x256_ilp.cpp:208:                         float TL = p.SUB[ind_ltop + k];
	.loc 1 208 31 discriminator 40960 view .LVU895
	vcvtdq2ps	ymm7, ymm7	# vect_TL_308.385_956, tmp1201
# src/avx_analysis_code_ablations/opt10_abl_tile_8x256_ilp.cpp:212:                         vp[k] += p.A*TL + p.B*TR + p.C*BL + p.D*BR;
	.loc 1 212 31 discriminator 40960 view .LVU896
	vfmadd213ps	ymm7, ymm3, YMMWORD PTR -32[r9]	# tmp1199, _337, MEM <vector(8) float> [(float *)_459 + 96B]
	vaddps	ymm9, ymm9, ymm21	# vect__150.391_938, _1151, _1270
	vfmadd132ps	ymm22, ymm8, ymm0	# _346, tmp1190, _293
	vfmadd132ps	ymm4, ymm7, ymm0	# tmp1195, tmp1199, _293
	vmovups	YMMWORD PTR -96[r9], ymm9	# MEM <vector(8) float> [(float *)_459 + 32B], vect__150.391_938
	vaddps	ymm22, ymm22, ymm19	# vect__150.391_937, _346, _1302
	vaddps	ymm4, ymm4, ymm6	# vect__150.391, tmp1195, _1277
	vmovups	YMMWORD PTR -64[r9], ymm22	# MEM <vector(8) float> [(float *)_459 + 64B], vect__150.391_937
	vmovups	YMMWORD PTR -32[r9], ymm4	# MEM <vector(8) float> [(float *)_459 + 96B], vect__150.391
.LBE3133:
	.loc 1 207 21 is_stmt 1 discriminator 1 view .LVU897
	.loc 1 207 39 discriminator 2 view .LVU898
	cmp	r13, r10	# _1255, ivtmp.524
	jne	.L41	#,
	sal	r11d, 5	# niters_vector_mult_vf.356,
	cmp	r11d, ebx	# niters_vector_mult_vf.356, remaining
	je	.L39	#,
	mov	r14d, ebx	# niters.394, remaining
	mov	r9d, r11d	# tmp.357, niters_vector_mult_vf.356
	sub	r14d, r11d	# niters.394, niters_vector_mult_vf.356
	lea	r10d, -1[r14]	# _885,
	cmp	r10d, 14	# _885,
	jbe	.L72	#,
.LVL141:
.L142:
	.loc 1 207 39 is_stmt 0 discriminator 2 view .LVU899
	mov	r13d, r11d	# _871, niters_vector_mult_vf.356
.LBB3134:
# src/avx_analysis_code_ablations/opt10_abl_tile_8x256_ilp.cpp:210:                         float BL = p.SUB[ind_lbot + k];
	.loc 1 210 54 discriminator 69632 view .LVU900
	vmovdqu	xmm8, XMMWORD PTR [rsi+r13]	# MEM <const vector(16) unsigned char> [(const unsigned char *)vectp.405_852], MEM <const vector(16) unsigned char> [(const unsigned char *)vectp.405_852]
# src/avx_analysis_code_ablations/opt10_abl_tile_8x256_ilp.cpp:209:                         float TR = p.SUB[ind_rtop + k];
	.loc 1 209 54 discriminator 69632 view .LVU901
	vmovdqu	xmm4, XMMWORD PTR [rcx+r13]	# MEM <const vector(16) unsigned char> [(const unsigned char *)vectp.411_832], MEM <const vector(16) unsigned char> [(const unsigned char *)vectp.411_832]
	lea	r10, [rax+r13*4]	# vectp_vp.417,
	.loc 1 208 25 is_stmt 1 view .LVU902
	lea	r15, [r12+r13]	# _870,
# src/avx_analysis_code_ablations/opt10_abl_tile_8x256_ilp.cpp:208:                         float TL = p.SUB[ind_ltop + k];
	.loc 1 208 54 is_stmt 0 discriminator 69632 view .LVU903
	vmovdqu	xmm7, XMMWORD PTR [rdx+r13]	# MEM <const vector(16) unsigned char> [(const unsigned char *)vectp.423_704], MEM <const vector(16) unsigned char> [(const unsigned char *)vectp.423_704]
# src/avx_analysis_code_ablations/opt10_abl_tile_8x256_ilp.cpp:210:                         float BL = p.SUB[ind_lbot + k];
	.loc 1 210 31 discriminator 69632 view .LVU904
	vpmovzxbw	xmm6, xmm8	# vect_BL_1064.408, MEM <const vector(16) unsigned char> [(const unsigned char *)vectp.405_852]
	vpsrldq	xmm8, xmm8, 8	# tmp1225, MEM <const vector(16) unsigned char> [(const unsigned char *)vectp.405_852],
# src/avx_analysis_code_ablations/opt10_abl_tile_8x256_ilp.cpp:209:                         float TR = p.SUB[ind_rtop + k];
	.loc 1 209 31 discriminator 69632 view .LVU905
	vpmovzxbw	xmm9, xmm4	# vect_TR_1068.414, MEM <const vector(16) unsigned char> [(const unsigned char *)vectp.411_832]
# src/avx_analysis_code_ablations/opt10_abl_tile_8x256_ilp.cpp:210:                         float BL = p.SUB[ind_lbot + k];
	.loc 1 210 31 discriminator 69632 view .LVU906
	vpmovsxwd	xmm14, xmm6	# tmp1229, vect_BL_1064.408
	vpsrldq	xmm6, xmm6, 8	# tmp1236, vect_BL_1064.408,
# src/avx_analysis_code_ablations/opt10_abl_tile_8x256_ilp.cpp:209:                         float TR = p.SUB[ind_rtop + k];
	.loc 1 209 31 discriminator 69632 view .LVU907
	vpmovsxwd	xmm19, xmm9	# tmp1227, vect_TR_1068.414
# src/avx_analysis_code_ablations/opt10_abl_tile_8x256_ilp.cpp:210:                         float BL = p.SUB[ind_lbot + k];
	.loc 1 210 31 discriminator 69632 view .LVU908
	vpmovsxwd	xmm6, xmm6	# tmp1235, tmp1236
# src/avx_analysis_code_ablations/opt10_abl_tile_8x256_ilp.cpp:209:                         float TR = p.SUB[ind_rtop + k];
	.loc 1 209 31 discriminator 69632 view .LVU909
	vpsrldq	xmm9, xmm9, 8	# tmp1233, vect_TR_1068.414,
# src/avx_analysis_code_ablations/opt10_abl_tile_8x256_ilp.cpp:210:                         float BL = p.SUB[ind_lbot + k];
	.loc 1 210 31 discriminator 69632 view .LVU910
	vpmovzxbw	xmm8, xmm8	# vect_BL_1064.408, tmp1225
	vcvtdq2ps	xmm14, xmm14	# vect_BL_1064.407_844, tmp1229
# src/avx_analysis_code_ablations/opt10_abl_tile_8x256_ilp.cpp:209:                         float TR = p.SUB[ind_rtop + k];
	.loc 1 209 31 discriminator 69632 view .LVU911
	vcvtdq2ps	xmm19, xmm19	# vect_TR_1068.413_824, tmp1227
# src/avx_analysis_code_ablations/opt10_abl_tile_8x256_ilp.cpp:210:                         float BL = p.SUB[ind_lbot + k];
	.loc 1 210 31 discriminator 69632 view .LVU912
	vcvtdq2ps	xmm6, xmm6	# vect_BL_1064.407_843, tmp1235
# src/avx_analysis_code_ablations/opt10_abl_tile_8x256_ilp.cpp:212:                         vp[k] += p.A*TL + p.B*TR + p.C*BL + p.D*BR;
	.loc 1 212 55 discriminator 69632 view .LVU913
	vmulps	xmm6, xmm6, xmm13	# vect__1053.409_839, vect_BL_1064.407_843, _384
# src/avx_analysis_code_ablations/opt10_abl_tile_8x256_ilp.cpp:209:                         float TR = p.SUB[ind_rtop + k];
	.loc 1 209 31 discriminator 69632 view .LVU914
	vpmovsxwd	xmm9, xmm9	# tmp1232, tmp1233
# src/avx_analysis_code_ablations/opt10_abl_tile_8x256_ilp.cpp:208:                         float TL = p.SUB[ind_ltop + k];
	.loc 1 208 31 discriminator 69632 view .LVU915
	vpmovzxbw	xmm21, xmm7	# vect_TL_1072.426, MEM <const vector(16) unsigned char> [(const unsigned char *)vectp.423_704]
# src/avx_analysis_code_ablations/opt10_abl_tile_8x256_ilp.cpp:212:                         vp[k] += p.A*TL + p.B*TR + p.C*BL + p.D*BR;
	.loc 1 212 55 discriminator 69632 view .LVU916
	vmulps	xmm14, xmm14, xmm13	# vect__1053.409_840, vect_BL_1064.407_844, _384
# src/avx_analysis_code_ablations/opt10_abl_tile_8x256_ilp.cpp:209:                         float TR = p.SUB[ind_rtop + k];
	.loc 1 209 31 discriminator 69632 view .LVU917
	vcvtdq2ps	xmm9, xmm9	# vect_TR_1068.413_823, tmp1232
# src/avx_analysis_code_ablations/opt10_abl_tile_8x256_ilp.cpp:210:                         float BL = p.SUB[ind_lbot + k];
	.loc 1 210 31 discriminator 69632 view .LVU918
	vpsrldq	xmm20, xmm8, 8	# tmp1248, vect_BL_1064.408,
# src/avx_analysis_code_ablations/opt10_abl_tile_8x256_ilp.cpp:208:                         float TL = p.SUB[ind_ltop + k];
	.loc 1 208 31 discriminator 69632 view .LVU919
	vpmovsxwd	xmm22, xmm21	# tmp1256, vect_TL_1072.426
# src/avx_analysis_code_ablations/opt10_abl_tile_8x256_ilp.cpp:209:                         float TR = p.SUB[ind_rtop + k];
	.loc 1 209 31 discriminator 69632 view .LVU920
	vpsrldq	xmm4, xmm4, 8	# tmp1221, MEM <const vector(16) unsigned char> [(const unsigned char *)vectp.411_832],
# src/avx_analysis_code_ablations/opt10_abl_tile_8x256_ilp.cpp:208:                         float TL = p.SUB[ind_ltop + k];
	.loc 1 208 31 discriminator 69632 view .LVU921
	vcvtdq2ps	xmm22, xmm22	# vect_TL_1072.425_688, tmp1256
	vfmadd213ps	xmm22, xmm11, XMMWORD PTR [r10]	# tmp1254, _54, MEM <vector(4) float> [(float *)vectp_vp.417_810]
# src/avx_analysis_code_ablations/opt10_abl_tile_8x256_ilp.cpp:210:                         float BL = p.SUB[ind_lbot + k];
	.loc 1 210 31 discriminator 69632 view .LVU922
	vpmovsxwd	xmm20, xmm20	# tmp1247, tmp1248
# src/avx_analysis_code_ablations/opt10_abl_tile_8x256_ilp.cpp:209:                         float TR = p.SUB[ind_rtop + k];
	.loc 1 209 31 discriminator 69632 view .LVU923
	vpmovzxbw	xmm4, xmm4	# vect_TR_1068.414, tmp1221
# src/avx_analysis_code_ablations/opt10_abl_tile_8x256_ilp.cpp:210:                         float BL = p.SUB[ind_lbot + k];
	.loc 1 210 31 discriminator 69632 view .LVU924
	vcvtdq2ps	xmm20, xmm20	# vect_BL_1064.407_841, tmp1247
# src/avx_analysis_code_ablations/opt10_abl_tile_8x256_ilp.cpp:208:                         float TL = p.SUB[ind_ltop + k];
	.loc 1 208 31 discriminator 69632 view .LVU925
	vpsrldq	xmm7, xmm7, 8	# tmp1217, MEM <const vector(16) unsigned char> [(const unsigned char *)vectp.423_704],
# src/avx_analysis_code_ablations/opt10_abl_tile_8x256_ilp.cpp:212:                         vp[k] += p.A*TL + p.B*TR + p.C*BL + p.D*BR;
	.loc 1 212 55 discriminator 69632 view .LVU926
	vmulps	xmm20, xmm20, xmm13	# vect__1053.409_837, vect_BL_1064.407_841, _384
# src/avx_analysis_code_ablations/opt10_abl_tile_8x256_ilp.cpp:208:                         float TL = p.SUB[ind_ltop + k];
	.loc 1 208 31 discriminator 69632 view .LVU927
	vpmovzxbw	xmm7, xmm7	# vect_TL_1072.426, tmp1217
.LVL142:
	.loc 1 209 25 is_stmt 1 view .LVU928
	.loc 1 210 25 view .LVU929
	vfmadd132ps	xmm9, xmm6, xmm12	# _744, vect__1053.409_839, _243
# src/avx_analysis_code_ablations/opt10_abl_tile_8x256_ilp.cpp:210:                         float BL = p.SUB[ind_lbot + k];
	.loc 1 210 31 is_stmt 0 discriminator 69632 view .LVU930
	vpmovsxwd	xmm6, xmm8	# tmp1241, vect_BL_1064.408
	vcvtdq2ps	xmm6, xmm6	# vect_BL_1064.407_842, tmp1241
# src/avx_analysis_code_ablations/opt10_abl_tile_8x256_ilp.cpp:212:                         vp[k] += p.A*TL + p.B*TR + p.C*BL + p.D*BR;
	.loc 1 212 55 discriminator 69632 view .LVU931
	vmulps	xmm6, xmm6, xmm13	# vect__1053.409_838, vect_BL_1064.407_842, _384
	vfmadd132ps	xmm19, xmm14, xmm12	# _926, vect__1053.409_840, _243
# src/avx_analysis_code_ablations/opt10_abl_tile_8x256_ilp.cpp:209:                         float TR = p.SUB[ind_rtop + k];
	.loc 1 209 31 discriminator 69632 view .LVU932
	vpmovsxwd	xmm14, xmm4	# tmp1239, vect_TR_1068.414
	vcvtdq2ps	xmm14, xmm14	# vect_TR_1068.413_821, tmp1239
	vfmadd132ps	xmm14, xmm6, xmm12	# _560, vect__1053.409_838, _243
	vpsrldq	xmm6, xmm4, 8	# tmp1245, vect_TR_1068.414,
# src/avx_analysis_code_ablations/opt10_abl_tile_8x256_ilp.cpp:211:                         float BR = p.SUB[ind_rbot + k];
	.loc 1 211 54 discriminator 69632 view .LVU933
	vmovdqu	xmm4, XMMWORD PTR [r8+r15]	# MEM <const vector(16) unsigned char> [(const unsigned char *)vectp.399_872], MEM <const vector(16) unsigned char> [(const unsigned char *)vectp.399_872]
# src/avx_analysis_code_ablations/opt10_abl_tile_8x256_ilp.cpp:209:                         float TR = p.SUB[ind_rtop + k];
	.loc 1 209 31 discriminator 69632 view .LVU934
	vpmovsxwd	xmm6, xmm6	# tmp1244, tmp1245
# src/avx_analysis_code_ablations/opt10_abl_tile_8x256_ilp.cpp:211:                         float BR = p.SUB[ind_rbot + k];
	.loc 1 211 31 discriminator 69632 view .LVU935
	vpmovzxbw	xmm8, xmm4	# vect_BR_1060.402, MEM <const vector(16) unsigned char> [(const unsigned char *)vectp.399_872]
# src/avx_analysis_code_ablations/opt10_abl_tile_8x256_ilp.cpp:209:                         float TR = p.SUB[ind_rtop + k];
	.loc 1 209 31 discriminator 69632 view .LVU936
	vcvtdq2ps	xmm6, xmm6	# vect_TR_1068.413_819, tmp1244
	vfmadd132ps	xmm6, xmm20, xmm12	# _1321, vect__1053.409_837, _243
.LVL143:
	.loc 1 211 25 is_stmt 1 view .LVU937
# src/avx_analysis_code_ablations/opt10_abl_tile_8x256_ilp.cpp:211:                         float BR = p.SUB[ind_rbot + k];
	.loc 1 211 31 is_stmt 0 discriminator 69632 view .LVU938
	vpmovsxwd	xmm20, xmm8	# tmp1253, vect_BR_1060.402
	vpsrldq	xmm4, xmm4, 8	# tmp1251, MEM <const vector(16) unsigned char> [(const unsigned char *)vectp.399_872],
	vcvtdq2ps	xmm20, xmm20	# vect_BR_1060.401_864, tmp1253
	vfmadd132ps	xmm20, xmm22, xmm10	# _935, tmp1254, _476
	vpsrldq	xmm22, xmm8, 8	# tmp1260, vect_BR_1060.402,
	vpmovzxbw	xmm4, xmm4	# vect_BR_1060.402, tmp1251
.LVL144:
	.loc 1 212 25 is_stmt 1 view .LVU939
# src/avx_analysis_code_ablations/opt10_abl_tile_8x256_ilp.cpp:208:                         float TL = p.SUB[ind_ltop + k];
	.loc 1 208 31 is_stmt 0 discriminator 69632 view .LVU940
	vpsrldq	xmm8, xmm21, 8	# tmp1264, vect_TL_1072.426,
	vpmovsxwd	xmm21, xmm7	# tmp1270, vect_TL_1072.426
# src/avx_analysis_code_ablations/opt10_abl_tile_8x256_ilp.cpp:211:                         float BR = p.SUB[ind_rbot + k];
	.loc 1 211 31 discriminator 69632 view .LVU941
	vpmovsxwd	xmm22, xmm22	# tmp1259, tmp1260
# src/avx_analysis_code_ablations/opt10_abl_tile_8x256_ilp.cpp:208:                         float TL = p.SUB[ind_ltop + k];
	.loc 1 208 31 discriminator 69632 view .LVU942
	vpmovsxwd	xmm8, xmm8	# tmp1263, tmp1264
	vpsrldq	xmm7, xmm7, 8	# tmp1279, vect_TL_1072.426,
	vcvtdq2ps	xmm21, xmm21	# vect_TL_1072.425_685, tmp1270
# src/avx_analysis_code_ablations/opt10_abl_tile_8x256_ilp.cpp:211:                         float BR = p.SUB[ind_rbot + k];
	.loc 1 211 31 discriminator 69632 view .LVU943
	vcvtdq2ps	xmm22, xmm22	# vect_BR_1060.401_863, tmp1259
# src/avx_analysis_code_ablations/opt10_abl_tile_8x256_ilp.cpp:208:                         float TL = p.SUB[ind_ltop + k];
	.loc 1 208 31 discriminator 69632 view .LVU944
	vcvtdq2ps	xmm8, xmm8	# vect_TL_1072.425_686, tmp1263
	vfmadd213ps	xmm8, xmm11, XMMWORD PTR 16[r10]	# tmp1261, _54, MEM <vector(4) float> [(float *)vectp_vp.417_810 + 16B]
	vfmadd213ps	xmm21, xmm11, XMMWORD PTR 32[r10]	# tmp1268, _54, MEM <vector(4) float> [(float *)vectp_vp.417_810 + 32B]
	vpmovsxwd	xmm7, xmm7	# tmp1278, tmp1279
	vcvtdq2ps	xmm7, xmm7	# vect_TL_1072.425_684, tmp1278
# src/avx_analysis_code_ablations/opt10_abl_tile_8x256_ilp.cpp:212:                         vp[k] += p.A*TL + p.B*TR + p.C*BL + p.D*BR;
	.loc 1 212 31 discriminator 69632 view .LVU945
	vfmadd213ps	xmm7, xmm11, XMMWORD PTR 48[r10]	# tmp1276, _54, MEM <vector(4) float> [(float *)vectp_vp.417_810 + 48B]
	vaddps	xmm19, xmm19, xmm20	# vect__1049.431_648, _926, _935
	vfmadd132ps	xmm22, xmm8, xmm10	# _775, tmp1261, _476
# src/avx_analysis_code_ablations/opt10_abl_tile_8x256_ilp.cpp:211:                         float BR = p.SUB[ind_rbot + k];
	.loc 1 211 31 discriminator 69632 view .LVU946
	vpmovsxwd	xmm8, xmm4	# tmp1267, vect_BR_1060.402
# src/avx_analysis_code_ablations/opt10_abl_tile_8x256_ilp.cpp:212:                         vp[k] += p.A*TL + p.B*TR + p.C*BL + p.D*BR;
	.loc 1 212 31 discriminator 69632 view .LVU947
	vmovups	XMMWORD PTR [r10], xmm19	# MEM <vector(4) float> [(float *)vectp_vp.417_810], vect__1049.431_648
# src/avx_analysis_code_ablations/opt10_abl_tile_8x256_ilp.cpp:211:                         float BR = p.SUB[ind_rbot + k];
	.loc 1 211 31 discriminator 69632 view .LVU948
	vpsrldq	xmm4, xmm4, 8	# tmp1275, vect_BR_1060.402,
	vcvtdq2ps	xmm8, xmm8	# vect_BR_1060.401_862, tmp1267
	vfmadd132ps	xmm8, xmm21, xmm10	# _716, tmp1268, _476
	vpmovsxwd	xmm4, xmm4	# tmp1274, tmp1275
	vcvtdq2ps	xmm4, xmm4	# vect_BR_1060.401_861, tmp1274
# src/avx_analysis_code_ablations/opt10_abl_tile_8x256_ilp.cpp:212:                         vp[k] += p.A*TL + p.B*TR + p.C*BL + p.D*BR;
	.loc 1 212 31 discriminator 69632 view .LVU949
	vfmadd132ps	xmm4, xmm7, xmm10	# tmp1272, tmp1276, _476
	vaddps	xmm9, xmm9, xmm22	# vect__1049.431_647, _744, _775
	vaddps	xmm14, xmm14, xmm8	# vect__1049.431_645, _560, _716
	vaddps	xmm4, xmm4, xmm6	# vect__1049.431, tmp1272, _1321
	vmovups	XMMWORD PTR 16[r10], xmm9	# MEM <vector(4) float> [(float *)vectp_vp.417_810 + 16B], vect__1049.431_647
	vmovups	XMMWORD PTR 32[r10], xmm14	# MEM <vector(4) float> [(float *)vectp_vp.417_810 + 32B], vect__1049.431_645
	vmovups	XMMWORD PTR 48[r10], xmm4	# MEM <vector(4) float> [(float *)vectp_vp.417_810 + 48B], vect__1049.431
.LBE3134:
	.loc 1 207 21 is_stmt 1 discriminator 1 view .LVU950
	.loc 1 207 39 discriminator 2 view .LVU951
	mov	r10d, r14d	# niters_vector_mult_vf.396, niters.394
	and	r10d, -16	# niters_vector_mult_vf.396,
	test	r14b, 15	# niters.394,
	je	.L39	#,
	add	r9d, r10d	# tmp.357, niters_vector_mult_vf.396
.LVL145:
.L42:
	.loc 1 207 39 is_stmt 0 discriminator 2 view .LVU952
	sub	r14d, r10d	# niters.434, niters_vector_mult_vf.396
	lea	r13d, -1[r14]	# _487,
	cmp	r13d, 6	# _487,
	jbe	.L43	#,
	add	r10d, r11d	# _460, niters_vector_mult_vf.356
	mov	r10d, r10d	# _460, _460
.LBB3135:
# src/avx_analysis_code_ablations/opt10_abl_tile_8x256_ilp.cpp:208:                         float TL = p.SUB[ind_ltop + k];
	.loc 1 208 54 discriminator 133120 view .LVU953
	vmovq	xmm4, QWORD PTR [rdx+r10]	# MEM <const vector(8) unsigned char> [(const unsigned char *)vectp.466_47], MEM <const vector(8) unsigned char> [(const unsigned char *)vectp.466_47]
	lea	r15, [r12+r10]	# _457,
	lea	r13, [rax+r10*4]	# vectp_vp.460,
	.loc 1 208 25 is_stmt 1 view .LVU954
# src/avx_analysis_code_ablations/opt10_abl_tile_8x256_ilp.cpp:208:                         float TL = p.SUB[ind_ltop + k];
	.loc 1 208 31 is_stmt 0 discriminator 133120 view .LVU955
	vpmovzxbw	xmm7, xmm4	# vect_TL_915.469, MEM <const vector(8) unsigned char> [(const unsigned char *)vectp.466_47]
	vpsrlq	xmm4, xmm4, 32	# tmp1296, MEM <const vector(8) unsigned char> [(const unsigned char *)vectp.466_47],
	vpmovzxbw	xmm6, xmm4	# vect_TL_915.469, tmp1296
# src/avx_analysis_code_ablations/opt10_abl_tile_8x256_ilp.cpp:209:                         float TR = p.SUB[ind_rtop + k];
	.loc 1 209 54 discriminator 133120 view .LVU956
	vmovq	xmm4, QWORD PTR [rcx+r10]	# MEM <const vector(8) unsigned char> [(const unsigned char *)vectp.453_235], MEM <const vector(8) unsigned char> [(const unsigned char *)vectp.453_235]
# src/avx_analysis_code_ablations/opt10_abl_tile_8x256_ilp.cpp:208:                         float TL = p.SUB[ind_ltop + k];
	.loc 1 208 31 discriminator 133120 view .LVU957
	vmovq	r11, xmm6	# vect_TL_915.469, vect_TL_915.469
.LVL146:
	.loc 1 209 25 is_stmt 1 view .LVU958
# src/avx_analysis_code_ablations/opt10_abl_tile_8x256_ilp.cpp:210:                         float BL = p.SUB[ind_lbot + k];
	.loc 1 210 54 is_stmt 0 discriminator 133120 view .LVU959
	vmovq	xmm6, QWORD PTR [rsi+r10]	# MEM <const vector(8) unsigned char> [(const unsigned char *)vectp.446_368], MEM <const vector(8) unsigned char> [(const unsigned char *)vectp.446_368]
	mov	r10d, r14d	# niters_vector_mult_vf.436, niters.434
# src/avx_analysis_code_ablations/opt10_abl_tile_8x256_ilp.cpp:209:                         float TR = p.SUB[ind_rtop + k];
	.loc 1 209 31 discriminator 133120 view .LVU960
	vpmovzxbw	xmm9, xmm4	# vect_TR_911.456, MEM <const vector(8) unsigned char> [(const unsigned char *)vectp.453_235]
	vpsrlq	xmm4, xmm4, 32	# tmp1300, MEM <const vector(8) unsigned char> [(const unsigned char *)vectp.453_235],
	and	r10d, -8	# niters_vector_mult_vf.436,
	and	r14d, 7	# niters.434,
	vpmovzxwd	xmm14, xmm9	# vect_TR_911.455_198, vect_TR_911.456
# src/avx_analysis_code_ablations/opt10_abl_tile_8x256_ilp.cpp:210:                         float BL = p.SUB[ind_lbot + k];
	.loc 1 210 31 discriminator 133120 view .LVU961
	vpmovzxbw	xmm8, xmm6	# vect_BL_907.449, MEM <const vector(8) unsigned char> [(const unsigned char *)vectp.446_368]
# src/avx_analysis_code_ablations/opt10_abl_tile_8x256_ilp.cpp:209:                         float TR = p.SUB[ind_rtop + k];
	.loc 1 209 31 discriminator 133120 view .LVU962
	vpmovzxbw	xmm4, xmm4	# vect_TR_911.456, tmp1300
.LVL147:
	.loc 1 210 25 is_stmt 1 view .LVU963
# src/avx_analysis_code_ablations/opt10_abl_tile_8x256_ilp.cpp:209:                         float TR = p.SUB[ind_rtop + k];
	.loc 1 209 31 is_stmt 0 discriminator 133120 view .LVU964
	vpsrlq	xmm9, xmm9, 32	# tmp1322, vect_TR_911.456,
# src/avx_analysis_code_ablations/opt10_abl_tile_8x256_ilp.cpp:210:                         float BL = p.SUB[ind_lbot + k];
	.loc 1 210 31 discriminator 133120 view .LVU965
	vpsrlq	xmm6, xmm6, 32	# tmp1304, MEM <const vector(8) unsigned char> [(const unsigned char *)vectp.446_368],
# src/avx_analysis_code_ablations/opt10_abl_tile_8x256_ilp.cpp:209:                         float TR = p.SUB[ind_rtop + k];
	.loc 1 209 31 discriminator 133120 view .LVU966
	vmovq	xmm14, xmm14	# tmp1307, vect_TR_911.455_198
	vcvtdq2ps	xmm20, xmm14	# tmp1308, tmp1307
# src/avx_analysis_code_ablations/opt10_abl_tile_8x256_ilp.cpp:210:                         float BL = p.SUB[ind_lbot + k];
	.loc 1 210 31 discriminator 133120 view .LVU967
	vpmovzxwd	xmm14, xmm8	# vect_BL_907.448_264, vect_BL_907.449
	vpsrlq	xmm8, xmm8, 32	# tmp1327, vect_BL_907.449,
# src/avx_analysis_code_ablations/opt10_abl_tile_8x256_ilp.cpp:209:                         float TR = p.SUB[ind_rtop + k];
	.loc 1 209 31 discriminator 133120 view .LVU968
	vpmovzxwd	xmm9, xmm9	# vect_TR_911.455_197, tmp1322
# src/avx_analysis_code_ablations/opt10_abl_tile_8x256_ilp.cpp:210:                         float BL = p.SUB[ind_lbot + k];
	.loc 1 210 31 discriminator 133120 view .LVU969
	vpmovzxwd	xmm8, xmm8	# vect_BL_907.448_263, tmp1327
# src/avx_analysis_code_ablations/opt10_abl_tile_8x256_ilp.cpp:209:                         float TR = p.SUB[ind_rtop + k];
	.loc 1 209 31 discriminator 133120 view .LVU970
	vmovq	xmm9, xmm9	# tmp1324, vect_TR_911.455_197
# src/avx_analysis_code_ablations/opt10_abl_tile_8x256_ilp.cpp:210:                         float BL = p.SUB[ind_lbot + k];
	.loc 1 210 31 discriminator 133120 view .LVU971
	vpmovzxbw	xmm6, xmm6	# vect_BL_907.449, tmp1304
	vmovq	xmm8, xmm8	# tmp1329, vect_BL_907.448_263
# src/avx_analysis_code_ablations/opt10_abl_tile_8x256_ilp.cpp:209:                         float TR = p.SUB[ind_rtop + k];
	.loc 1 209 31 discriminator 133120 view .LVU972
	vcvtdq2ps	xmm9, xmm9	# tmp1325, tmp1324
# src/avx_analysis_code_ablations/opt10_abl_tile_8x256_ilp.cpp:210:                         float BL = p.SUB[ind_lbot + k];
	.loc 1 210 31 discriminator 133120 view .LVU973
	vmovq	xmm19, xmm14	# tmp1311, vect_BL_907.448_264
	vcvtdq2ps	xmm8, xmm8	# tmp1330, tmp1329
# src/avx_analysis_code_ablations/opt10_abl_tile_8x256_ilp.cpp:212:                         vp[k] += p.A*TL + p.B*TR + p.C*BL + p.D*BR;
	.loc 1 212 55 discriminator 133120 view .LVU974
	vmulps	xmm8, xmm8, xmm13	# tmp1334, tmp1330, _384
# src/avx_analysis_code_ablations/opt10_abl_tile_8x256_ilp.cpp:210:                         float BL = p.SUB[ind_lbot + k];
	.loc 1 210 31 discriminator 133120 view .LVU975
	vcvtdq2ps	xmm19, xmm19	# tmp1312, tmp1311
# src/avx_analysis_code_ablations/opt10_abl_tile_8x256_ilp.cpp:212:                         vp[k] += p.A*TL + p.B*TR + p.C*BL + p.D*BR;
	.loc 1 212 55 discriminator 133120 view .LVU976
	vmulps	xmm19, xmm19, xmm13	# tmp1316, tmp1312, _384
	vfmadd132ps	xmm9, xmm8, xmm12	# tmp1325, tmp1334, _243
# src/avx_analysis_code_ablations/opt10_abl_tile_8x256_ilp.cpp:209:                         float TR = p.SUB[ind_rtop + k];
	.loc 1 209 31 discriminator 133120 view .LVU977
	vpmovzxwd	xmm8, xmm4	# vect_TR_911.455_195, vect_TR_911.456
	vmovq	xmm8, xmm8	# tmp1341, vect_TR_911.455_195
	vfmadd231ps	xmm19, xmm20, xmm12	# tmp1320, tmp1308, _243
	vcvtdq2ps	xmm14, xmm8	# tmp1342, tmp1341
	vmovaps	xmm21, xmm9	# tmp1338, tmp1325
# src/avx_analysis_code_ablations/opt10_abl_tile_8x256_ilp.cpp:210:                         float BL = p.SUB[ind_lbot + k];
	.loc 1 210 31 discriminator 133120 view .LVU978
	vpmovzxwd	xmm9, xmm6	# vect_BL_907.448_262, vect_BL_907.449
	vmovq	xmm9, xmm9	# tmp1345, vect_BL_907.448_262
	vpsrlq	xmm6, xmm6, 32	# tmp1361, vect_BL_907.449,
	vcvtdq2ps	xmm9, xmm9	# tmp1346, tmp1345
# src/avx_analysis_code_ablations/opt10_abl_tile_8x256_ilp.cpp:212:                         vp[k] += p.A*TL + p.B*TR + p.C*BL + p.D*BR;
	.loc 1 212 55 discriminator 133120 view .LVU979
	vmulps	xmm9, xmm9, xmm13	# tmp1350, tmp1346, _384
# src/avx_analysis_code_ablations/opt10_abl_tile_8x256_ilp.cpp:210:                         float BL = p.SUB[ind_lbot + k];
	.loc 1 210 31 discriminator 133120 view .LVU980
	vpmovzxwd	xmm6, xmm6	# vect_BL_907.448_259, tmp1361
	vmovq	xmm6, xmm6	# tmp1363, vect_BL_907.448_259
	vcvtdq2ps	xmm6, xmm6	# tmp1364, tmp1363
# src/avx_analysis_code_ablations/opt10_abl_tile_8x256_ilp.cpp:212:                         vp[k] += p.A*TL + p.B*TR + p.C*BL + p.D*BR;
	.loc 1 212 55 discriminator 133120 view .LVU981
	vmulps	xmm6, xmm6, xmm13	# tmp1368, tmp1364, _384
	vfmadd132ps	xmm14, xmm9, xmm12	# tmp1342, tmp1350, _243
# src/avx_analysis_code_ablations/opt10_abl_tile_8x256_ilp.cpp:212:                         vp[k] += p.A*TL + p.B*TR + p.C*BL + p.D*BR;
	.loc 1 212 29 discriminator 133120 view .LVU982
	vmovq	xmm9, QWORD PTR 0[r13]	# vect__900.461_147, MEM <vector(2) float> [(float *)vectp_vp.460_176]
	vmovaps	xmm22, xmm14	# tmp1354, tmp1342
# src/avx_analysis_code_ablations/opt10_abl_tile_8x256_ilp.cpp:209:                         float TR = p.SUB[ind_rtop + k];
	.loc 1 209 31 discriminator 133120 view .LVU983
	vpsrlq	xmm14, xmm4, 32	# tmp1356, vect_TR_911.456,
# src/avx_analysis_code_ablations/opt10_abl_tile_8x256_ilp.cpp:211:                         float BR = p.SUB[ind_rbot + k];
	.loc 1 211 54 discriminator 133120 view .LVU984
	vmovq	xmm4, QWORD PTR [r8+r15]	# MEM <const vector(8) unsigned char> [(const unsigned char *)vectp.439_469], MEM <const vector(8) unsigned char> [(const unsigned char *)vectp.439_469]
# src/avx_analysis_code_ablations/opt10_abl_tile_8x256_ilp.cpp:209:                         float TR = p.SUB[ind_rtop + k];
	.loc 1 209 31 discriminator 133120 view .LVU985
	vpmovzxwd	xmm14, xmm14	# vect_TR_911.455_193, tmp1356
	vmovq	xmm14, xmm14	# tmp1358, vect_TR_911.455_193
	vcvtdq2ps	xmm14, xmm14	# tmp1359, tmp1358
	vfmadd132ps	xmm14, xmm6, xmm12	# tmp1372, tmp1368, _243
.LVL148:
	.loc 1 211 25 is_stmt 1 view .LVU986
# src/avx_analysis_code_ablations/opt10_abl_tile_8x256_ilp.cpp:211:                         float BR = p.SUB[ind_rbot + k];
	.loc 1 211 31 is_stmt 0 discriminator 133120 view .LVU987
	vpmovzxbw	xmm6, xmm4	# vect_BR_903.442, MEM <const vector(8) unsigned char> [(const unsigned char *)vectp.439_469]
	vpmovzxwd	xmm8, xmm6	# vect_BR_903.441_438, vect_BR_903.442
	vpsrlq	xmm6, xmm6, 32	# tmp1394, vect_BR_903.442,
	vmovq	xmm8, xmm8	# tmp1377, vect_BR_903.441_438
	vpsrlq	xmm4, xmm4, 32	# tmp1374, MEM <const vector(8) unsigned char> [(const unsigned char *)vectp.439_469],
	vpmovzxwd	xmm6, xmm6	# vect_BR_903.441_437, tmp1394
	vcvtdq2ps	xmm20, xmm8	# tmp1378, tmp1377
# src/avx_analysis_code_ablations/opt10_abl_tile_8x256_ilp.cpp:208:                         float TL = p.SUB[ind_ltop + k];
	.loc 1 208 31 discriminator 133120 view .LVU988
	vpmovzxwd	xmm8, xmm7	# vect_TL_915.468_164, vect_TL_915.469
	vpsrlq	xmm7, xmm7, 32	# tmp1400, vect_TL_915.469,
# src/avx_analysis_code_ablations/opt10_abl_tile_8x256_ilp.cpp:211:                         float BR = p.SUB[ind_rbot + k];
	.loc 1 211 31 discriminator 133120 view .LVU989
	vpmovzxbw	xmm4, xmm4	# vect_BR_903.442, tmp1374
.LVL149:
	.loc 1 212 25 is_stmt 1 view .LVU990
# src/avx_analysis_code_ablations/opt10_abl_tile_8x256_ilp.cpp:208:                         float TL = p.SUB[ind_ltop + k];
	.loc 1 208 31 is_stmt 0 discriminator 133120 view .LVU991
	vmovq	xmm8, xmm8	# tmp1382, vect_TL_915.468_164
	vpmovzxwd	xmm7, xmm7	# vect_TL_915.468_165, tmp1400
# src/avx_analysis_code_ablations/opt10_abl_tile_8x256_ilp.cpp:211:                         float BR = p.SUB[ind_rbot + k];
	.loc 1 211 31 discriminator 133120 view .LVU992
	vmovq	xmm6, xmm6	# tmp1396, vect_BR_903.441_437
# src/avx_analysis_code_ablations/opt10_abl_tile_8x256_ilp.cpp:208:                         float TL = p.SUB[ind_ltop + k];
	.loc 1 208 31 discriminator 133120 view .LVU993
	vcvtdq2ps	xmm8, xmm8	# tmp1383, tmp1382
	vfmadd231ps	xmm9, xmm11, xmm8	# tmp1388, _54, tmp1383
# src/avx_analysis_code_ablations/opt10_abl_tile_8x256_ilp.cpp:212:                         vp[k] += p.A*TL + p.B*TR + p.C*BL + p.D*BR;
	.loc 1 212 29 discriminator 133120 view .LVU994
	vmovq	xmm8, QWORD PTR 8[r13]	# vect__900.462_144, MEM <vector(2) float> [(float *)vectp_vp.460_176 + 8B]
# src/avx_analysis_code_ablations/opt10_abl_tile_8x256_ilp.cpp:208:                         float TL = p.SUB[ind_ltop + k];
	.loc 1 208 31 discriminator 133120 view .LVU995
	vmovq	xmm7, xmm7	# tmp1402, vect_TL_915.468_165
# src/avx_analysis_code_ablations/opt10_abl_tile_8x256_ilp.cpp:211:                         float BR = p.SUB[ind_rbot + k];
	.loc 1 211 31 discriminator 133120 view .LVU996
	vcvtdq2ps	xmm6, xmm6	# tmp1397, tmp1396
# src/avx_analysis_code_ablations/opt10_abl_tile_8x256_ilp.cpp:208:                         float TL = p.SUB[ind_ltop + k];
	.loc 1 208 31 discriminator 133120 view .LVU997
	vcvtdq2ps	xmm7, xmm7	# tmp1403, tmp1402
	vfmadd132ps	xmm7, xmm8, xmm11	# tmp1408, vect__900.462_144, _54
	vfmadd132ps	xmm20, xmm9, xmm10	# tmp1392, tmp1388, _476
	vmovq	xmm9, r11	# vect_TL_915.469, vect_TL_915.469
	vpmovzxwd	xmm8, xmm9	# vect_TL_915.468_170, vect_TL_915.469
# src/avx_analysis_code_ablations/opt10_abl_tile_8x256_ilp.cpp:212:                         vp[k] += p.A*TL + p.B*TR + p.C*BL + p.D*BR;
	.loc 1 212 29 discriminator 133120 view .LVU998
	vmovq	xmm9, QWORD PTR 16[r13]	# vect__900.463_141, MEM <vector(2) float> [(float *)vectp_vp.460_176 + 16B]
# src/avx_analysis_code_ablations/opt10_abl_tile_8x256_ilp.cpp:208:                         float TL = p.SUB[ind_ltop + k];
	.loc 1 208 31 discriminator 133120 view .LVU999
	vmovq	xmm8, xmm8	# tmp1420, vect_TL_915.468_170
	vfmadd132ps	xmm6, xmm7, xmm10	# tmp1412, tmp1408, _476
# src/avx_analysis_code_ablations/opt10_abl_tile_8x256_ilp.cpp:211:                         float BR = p.SUB[ind_rbot + k];
	.loc 1 211 31 discriminator 133120 view .LVU1000
	vpmovzxwd	xmm7, xmm4	# vect_BR_903.441_436, vect_BR_903.442
# src/avx_analysis_code_ablations/opt10_abl_tile_8x256_ilp.cpp:208:                         float TL = p.SUB[ind_ltop + k];
	.loc 1 208 31 discriminator 133120 view .LVU1001
	vcvtdq2ps	xmm8, xmm8	# tmp1421, tmp1420
	vfmadd132ps	xmm8, xmm9, xmm11	# tmp1426, vect__900.463_141, _54
# src/avx_analysis_code_ablations/opt10_abl_tile_8x256_ilp.cpp:211:                         float BR = p.SUB[ind_rbot + k];
	.loc 1 211 31 discriminator 133120 view .LVU1002
	vmovq	xmm7, xmm7	# tmp1415, vect_BR_903.441_436
# src/avx_analysis_code_ablations/opt10_abl_tile_8x256_ilp.cpp:208:                         float TL = p.SUB[ind_ltop + k];
	.loc 1 208 31 discriminator 133120 view .LVU1003
	vmovq	xmm9, r11	# tmp2001, vect_TL_915.469
# src/avx_analysis_code_ablations/opt10_abl_tile_8x256_ilp.cpp:211:                         float BR = p.SUB[ind_rbot + k];
	.loc 1 211 31 discriminator 133120 view .LVU1004
	vcvtdq2ps	xmm7, xmm7	# tmp1416, tmp1415
	vpsrlq	xmm4, xmm4, 32	# tmp1433, vect_BR_903.442,
	vpmovzxwd	xmm4, xmm4	# vect_BR_903.441_434, tmp1433
	vmovq	xmm4, xmm4	# tmp1435, vect_BR_903.441_434
	vcvtdq2ps	xmm4, xmm4	# tmp1436, tmp1435
# src/avx_analysis_code_ablations/opt10_abl_tile_8x256_ilp.cpp:212:                         vp[k] += p.A*TL + p.B*TR + p.C*BL + p.D*BR;
	.loc 1 212 31 discriminator 133120 view .LVU1005
	vaddps	xmm6, xmm21, xmm6	# tmp1462, tmp1338, tmp1412
	vfmadd132ps	xmm7, xmm8, xmm10	# tmp1430, tmp1426, _476
# src/avx_analysis_code_ablations/opt10_abl_tile_8x256_ilp.cpp:208:                         float TL = p.SUB[ind_ltop + k];
	.loc 1 208 31 discriminator 133120 view .LVU1006
	vpsrlq	xmm8, xmm9, 32	# tmp1439, tmp2001,
# src/avx_analysis_code_ablations/opt10_abl_tile_8x256_ilp.cpp:212:                         vp[k] += p.A*TL + p.B*TR + p.C*BL + p.D*BR;
	.loc 1 212 29 discriminator 133120 view .LVU1007
	vmovq	xmm9, QWORD PTR 24[r13]	# vect__900.464_55, MEM <vector(2) float> [(float *)vectp_vp.460_176 + 24B]
# src/avx_analysis_code_ablations/opt10_abl_tile_8x256_ilp.cpp:208:                         float TL = p.SUB[ind_ltop + k];
	.loc 1 208 31 discriminator 133120 view .LVU1008
	vpmovzxwd	xmm8, xmm8	# vect_TL_915.468_473, tmp1439
	vmovq	xmm8, xmm8	# tmp1441, vect_TL_915.468_473
# src/avx_analysis_code_ablations/opt10_abl_tile_8x256_ilp.cpp:212:                         vp[k] += p.A*TL + p.B*TR + p.C*BL + p.D*BR;
	.loc 1 212 31 discriminator 133120 view .LVU1009
	vmovlps	QWORD PTR 8[r13], xmm6	# MEM <vector(2) float> [(float *)vectp_vp.460_176 + 8B], tmp1462
# src/avx_analysis_code_ablations/opt10_abl_tile_8x256_ilp.cpp:208:                         float TL = p.SUB[ind_ltop + k];
	.loc 1 208 31 discriminator 133120 view .LVU1010
	vcvtdq2ps	xmm8, xmm8	# tmp1442, tmp1441
# src/avx_analysis_code_ablations/opt10_abl_tile_8x256_ilp.cpp:212:                         vp[k] += p.A*TL + p.B*TR + p.C*BL + p.D*BR;
	.loc 1 212 31 discriminator 133120 view .LVU1011
	vfmadd132ps	xmm8, xmm9, xmm11	# tmp1447, vect__900.464_55, _54
	vaddps	xmm6, xmm22, xmm7	# tmp1466, tmp1354, tmp1430
	vfmadd132ps	xmm4, xmm8, xmm10	# tmp1451, tmp1447, _476
	vaddps	xmm8, xmm19, xmm20	# tmp1458, tmp1320, tmp1392
	vmovlps	QWORD PTR 16[r13], xmm6	# MEM <vector(2) float> [(float *)vectp_vp.460_176 + 16B], tmp1466
	vmovlps	QWORD PTR 0[r13], xmm8	# MEM <vector(2) float> [(float *)vectp_vp.460_176], tmp1458
	vaddps	xmm4, xmm4, xmm14	# tmp1454, tmp1451, tmp1372
	vmovlps	QWORD PTR 24[r13], xmm4	# MEM <vector(2) float> [(float *)vectp_vp.460_176 + 24B], tmp1454
.LBE3135:
	.loc 1 207 21 is_stmt 1 discriminator 1 view .LVU1012
	.loc 1 207 39 discriminator 2 view .LVU1013
	je	.L39	#,
	add	r9d, r10d	# tmp.357, niters_vector_mult_vf.436
.LVL150:
.L43:
.LBB3136:
	.loc 1 208 25 view .LVU1014
# src/avx_analysis_code_ablations/opt10_abl_tile_8x256_ilp.cpp:208:                         float TL = p.SUB[ind_ltop + k];
	.loc 1 208 53 is_stmt 0 discriminator 163840 view .LVU1015
	movsxd	r10, r9d	# _695, tmp.357
.LVL151:
	.loc 1 209 25 is_stmt 1 view .LVU1016
	.loc 1 210 25 view .LVU1017
	.loc 1 211 25 view .LVU1018
	.loc 1 212 25 view .LVU1019
# src/avx_analysis_code_ablations/opt10_abl_tile_8x256_ilp.cpp:211:                         float BR = p.SUB[ind_rbot + k];
	.loc 1 211 54 is_stmt 0 discriminator 163840 view .LVU1020
	add	r8, r12	# tmp1482, ind_rbot
# src/avx_analysis_code_ablations/opt10_abl_tile_8x256_ilp.cpp:208:                         float TL = p.SUB[ind_ltop + k];
	.loc 1 208 31 discriminator 163840 view .LVU1021
	movzx	r14d, BYTE PTR [rdx+r10]	# *_1104, *_1104
# src/avx_analysis_code_ablations/opt10_abl_tile_8x256_ilp.cpp:212:                         vp[k] += p.A*TL + p.B*TR + p.C*BL + p.D*BR;
	.loc 1 212 29 discriminator 163840 view .LVU1022
	lea	r11, 0[0+r10*4]	# _132,
# src/avx_analysis_code_ablations/opt10_abl_tile_8x256_ilp.cpp:208:                         float TL = p.SUB[ind_ltop + k];
	.loc 1 208 31 discriminator 163840 view .LVU1023
	vcvtusi2ss	xmm4, xmm5, r14d	# tmp1699, tmp1698, *_1104
# src/avx_analysis_code_ablations/opt10_abl_tile_8x256_ilp.cpp:209:                         float TR = p.SUB[ind_rtop + k];
	.loc 1 209 31 discriminator 163840 view .LVU1024
	movzx	r14d, BYTE PTR [rcx+r10]	# *_123, *_123
	vmovaps	xmm7, xmm4	# TL_1156, TL_1156
	vcvtusi2ss	xmm4, xmm5, r14d	# tmp1700, tmp1698, *_123
# src/avx_analysis_code_ablations/opt10_abl_tile_8x256_ilp.cpp:210:                         float BL = p.SUB[ind_lbot + k];
	.loc 1 210 31 discriminator 163840 view .LVU1025
	movzx	r14d, BYTE PTR [rsi+r10]	# *_308, *_308
# src/avx_analysis_code_ablations/opt10_abl_tile_8x256_ilp.cpp:211:                         float BR = p.SUB[ind_rbot + k];
	.loc 1 211 31 discriminator 163840 view .LVU1026
	movzx	r10d, BYTE PTR [r8+r10]	# *_309, *_309
	vfmadd213ss	xmm7, xmm18, DWORD PTR [rax+r11]	# TL_1156, _79, *_310
# src/avx_analysis_code_ablations/opt10_abl_tile_8x256_ilp.cpp:210:                         float BL = p.SUB[ind_lbot + k];
	.loc 1 210 31 discriminator 163840 view .LVU1027
	vcvtusi2ss	xmm6, xmm5, r14d	# tmp1701, tmp1698, *_308
# src/avx_analysis_code_ablations/opt10_abl_tile_8x256_ilp.cpp:212:                         vp[k] += p.A*TL + p.B*TR + p.C*BL + p.D*BR;
	.loc 1 212 55 discriminator 163840 view .LVU1028
	vmulss	xmm6, xmm6, xmm16	# _136, BL_128, _81
	vfmadd231ss	xmm6, xmm17, xmm4	# _1281, _80, TR_125
# src/avx_analysis_code_ablations/opt10_abl_tile_8x256_ilp.cpp:211:                         float BR = p.SUB[ind_rbot + k];
	.loc 1 211 31 discriminator 163840 view .LVU1029
	vcvtusi2ss	xmm4, xmm5, r10d	# tmp1702, tmp1698, *_309
.LBE3136:
# src/avx_analysis_code_ablations/opt10_abl_tile_8x256_ilp.cpp:207:                     for (int k = 0; k < remaining; ++k) {
	.loc 1 207 21 discriminator 163841 view .LVU1030
	lea	r10d, 1[r9]	#,
.LBB3137:
# src/avx_analysis_code_ablations/opt10_abl_tile_8x256_ilp.cpp:212:                         vp[k] += p.A*TL + p.B*TR + p.C*BL + p.D*BR;
	.loc 1 212 31 discriminator 163840 view .LVU1031
	vfmadd132ss	xmm4, xmm7, xmm15	# tmp1481, _1275, _82
	vaddss	xmm4, xmm4, xmm6	# _142, tmp1481, _1281
	vmovss	DWORD PTR [rax+r11], xmm4	# *_310, _142
.LBE3137:
	.loc 1 207 21 is_stmt 1 discriminator 1 view .LVU1032
.LVL152:
	.loc 1 207 39 discriminator 2 view .LVU1033
# src/avx_analysis_code_ablations/opt10_abl_tile_8x256_ilp.cpp:207:                     for (int k = 0; k < remaining; ++k) {
	.loc 1 207 39 is_stmt 0 discriminator 163842 view .LVU1034
	cmp	r10d, ebx	# k, remaining
	jge	.L39	#,
.LBB3138:
	.loc 1 208 25 is_stmt 1 view .LVU1035
	.loc 1 209 25 view .LVU1036
	.loc 1 210 25 view .LVU1037
	.loc 1 211 25 view .LVU1038
	.loc 1 212 25 view .LVU1039
# src/avx_analysis_code_ablations/opt10_abl_tile_8x256_ilp.cpp:208:                         float TL = p.SUB[ind_ltop + k];
	.loc 1 208 31 is_stmt 0 discriminator 196608 view .LVU1040
	movzx	r13d, BYTE PTR [rdx+r10]	# *_313, *_313
	vcvtusi2ss	xmm4, xmm5, r13d	# tmp1703, tmp1698, *_313
# src/avx_analysis_code_ablations/opt10_abl_tile_8x256_ilp.cpp:209:                         float TR = p.SUB[ind_rtop + k];
	.loc 1 209 31 discriminator 196608 view .LVU1041
	movzx	r13d, BYTE PTR [rcx+r10]	# *_1074, *_1074
	vmovaps	xmm7, xmm4	# TL_1076, TL_1076
	vcvtusi2ss	xmm4, xmm5, r13d	# tmp1704, tmp1698, *_1074
# src/avx_analysis_code_ablations/opt10_abl_tile_8x256_ilp.cpp:210:                         float BL = p.SUB[ind_lbot + k];
	.loc 1 210 31 discriminator 196608 view .LVU1042
	movzx	r13d, BYTE PTR [rsi+r10]	# *_1070, *_1070
# src/avx_analysis_code_ablations/opt10_abl_tile_8x256_ilp.cpp:211:                         float BR = p.SUB[ind_rbot + k];
	.loc 1 211 31 discriminator 196608 view .LVU1043
	movzx	r10d, BYTE PTR [r8+r10]	# *_1066, *_1066
.LVL153:
	.loc 1 211 31 discriminator 196608 view .LVU1044
	vfmadd213ss	xmm7, xmm18, DWORD PTR 4[rax+r11]	# TL_1076, _79, *_1062
# src/avx_analysis_code_ablations/opt10_abl_tile_8x256_ilp.cpp:210:                         float BL = p.SUB[ind_lbot + k];
	.loc 1 210 31 discriminator 196608 view .LVU1045
	vcvtusi2ss	xmm6, xmm5, r13d	# tmp1705, tmp1698, *_1070
# src/avx_analysis_code_ablations/opt10_abl_tile_8x256_ilp.cpp:212:                         vp[k] += p.A*TL + p.B*TR + p.C*BL + p.D*BR;
	.loc 1 212 55 discriminator 196608 view .LVU1046
	vmulss	xmm6, xmm6, xmm16	# _1057, BL_1068, _81
	vfmadd231ss	xmm6, xmm17, xmm4	# _1320, _80, TR_1072
# src/avx_analysis_code_ablations/opt10_abl_tile_8x256_ilp.cpp:211:                         float BR = p.SUB[ind_rbot + k];
	.loc 1 211 31 discriminator 196608 view .LVU1047
	vcvtusi2ss	xmm4, xmm5, r10d	# tmp1706, tmp1698, *_1066
.LBE3138:
# src/avx_analysis_code_ablations/opt10_abl_tile_8x256_ilp.cpp:207:                     for (int k = 0; k < remaining; ++k) {
	.loc 1 207 21 discriminator 196609 view .LVU1048
	lea	r10d, 2[r9]	#,
.LBB3139:
# src/avx_analysis_code_ablations/opt10_abl_tile_8x256_ilp.cpp:212:                         vp[k] += p.A*TL + p.B*TR + p.C*BL + p.D*BR;
	.loc 1 212 31 discriminator 196608 view .LVU1049
	vfmadd132ss	xmm4, xmm7, xmm15	# tmp1501, _1300, _82
	vaddss	xmm4, xmm4, xmm6	# _1053, tmp1501, _1320
	vmovss	DWORD PTR 4[rax+r11], xmm4	# *_1062, _1053
.LBE3139:
	.loc 1 207 21 is_stmt 1 discriminator 1 view .LVU1050
.LVL154:
	.loc 1 207 39 discriminator 2 view .LVU1051
# src/avx_analysis_code_ablations/opt10_abl_tile_8x256_ilp.cpp:207:                     for (int k = 0; k < remaining; ++k) {
	.loc 1 207 39 is_stmt 0 discriminator 196610 view .LVU1052
	cmp	ebx, r10d	# remaining, k
	jle	.L39	#,
.LBB3140:
	.loc 1 208 25 is_stmt 1 view .LVU1053
	.loc 1 209 25 view .LVU1054
	.loc 1 210 25 view .LVU1055
	.loc 1 211 25 view .LVU1056
	.loc 1 212 25 view .LVU1057
# src/avx_analysis_code_ablations/opt10_abl_tile_8x256_ilp.cpp:208:                         float TL = p.SUB[ind_ltop + k];
	.loc 1 208 31 is_stmt 0 discriminator 229376 view .LVU1058
	movzx	r13d, BYTE PTR [rdx+r10]	# *_921, *_921
	vcvtusi2ss	xmm4, xmm5, r13d	# tmp1707, tmp1698, *_921
# src/avx_analysis_code_ablations/opt10_abl_tile_8x256_ilp.cpp:209:                         float TR = p.SUB[ind_rtop + k];
	.loc 1 209 31 discriminator 229376 view .LVU1059
	movzx	r13d, BYTE PTR [rcx+r10]	# *_916, *_916
	vmovaps	xmm7, xmm4	# TL_918, TL_918
	vcvtusi2ss	xmm4, xmm5, r13d	# tmp1708, tmp1698, *_916
# src/avx_analysis_code_ablations/opt10_abl_tile_8x256_ilp.cpp:210:                         float BL = p.SUB[ind_lbot + k];
	.loc 1 210 31 discriminator 229376 view .LVU1060
	movzx	r13d, BYTE PTR [rsi+r10]	# *_912, *_912
# src/avx_analysis_code_ablations/opt10_abl_tile_8x256_ilp.cpp:211:                         float BR = p.SUB[ind_rbot + k];
	.loc 1 211 31 discriminator 229376 view .LVU1061
	movzx	r10d, BYTE PTR [r8+r10]	# *_908, *_908
.LVL155:
	.loc 1 211 31 discriminator 229376 view .LVU1062
	vfmadd213ss	xmm7, xmm18, DWORD PTR 8[rax+r11]	# TL_918, _79, *_904
# src/avx_analysis_code_ablations/opt10_abl_tile_8x256_ilp.cpp:210:                         float BL = p.SUB[ind_lbot + k];
	.loc 1 210 31 discriminator 229376 view .LVU1063
	vcvtusi2ss	xmm6, xmm5, r13d	# tmp1709, tmp1698, *_912
# src/avx_analysis_code_ablations/opt10_abl_tile_8x256_ilp.cpp:212:                         vp[k] += p.A*TL + p.B*TR + p.C*BL + p.D*BR;
	.loc 1 212 55 discriminator 229376 view .LVU1064
	vmulss	xmm6, xmm6, xmm16	# _899, BL_910, _81
	vfmadd231ss	xmm6, xmm17, xmm4	# _59, _80, TR_914
# src/avx_analysis_code_ablations/opt10_abl_tile_8x256_ilp.cpp:211:                         float BR = p.SUB[ind_rbot + k];
	.loc 1 211 31 discriminator 229376 view .LVU1065
	vcvtusi2ss	xmm4, xmm5, r10d	# tmp1710, tmp1698, *_908
.LBE3140:
# src/avx_analysis_code_ablations/opt10_abl_tile_8x256_ilp.cpp:207:                     for (int k = 0; k < remaining; ++k) {
	.loc 1 207 21 discriminator 229377 view .LVU1066
	lea	r10d, 3[r9]	#,
.LBB3141:
# src/avx_analysis_code_ablations/opt10_abl_tile_8x256_ilp.cpp:212:                         vp[k] += p.A*TL + p.B*TR + p.C*BL + p.D*BR;
	.loc 1 212 31 discriminator 229376 view .LVU1067
	vfmadd132ss	xmm4, xmm7, xmm15	# tmp1521, _37, _82
	vaddss	xmm4, xmm4, xmm6	# _895, tmp1521, _59
	vmovss	DWORD PTR 8[rax+r11], xmm4	# *_904, _895
.LBE3141:
	.loc 1 207 21 is_stmt 1 discriminator 1 view .LVU1068
.LVL156:
	.loc 1 207 39 discriminator 2 view .LVU1069
# src/avx_analysis_code_ablations/opt10_abl_tile_8x256_ilp.cpp:207:                     for (int k = 0; k < remaining; ++k) {
	.loc 1 207 39 is_stmt 0 discriminator 229378 view .LVU1070
	cmp	ebx, r10d	# remaining, k
	jle	.L39	#,
.LBB3142:
	.loc 1 208 25 is_stmt 1 view .LVU1071
	.loc 1 209 25 view .LVU1072
	.loc 1 210 25 view .LVU1073
	.loc 1 211 25 view .LVU1074
	.loc 1 212 25 view .LVU1075
# src/avx_analysis_code_ablations/opt10_abl_tile_8x256_ilp.cpp:208:                         float TL = p.SUB[ind_ltop + k];
	.loc 1 208 31 is_stmt 0 discriminator 262144 view .LVU1076
	movzx	r13d, BYTE PTR [rdx+r10]	# *_613, *_613
# src/avx_analysis_code_ablations/opt10_abl_tile_8x256_ilp.cpp:212:                         vp[k] += p.A*TL + p.B*TR + p.C*BL + p.D*BR;
	.loc 1 212 29 discriminator 262144 view .LVU1077
	lea	r12, 12[rax+r11]	# _1103,
# src/avx_analysis_code_ablations/opt10_abl_tile_8x256_ilp.cpp:208:                         float TL = p.SUB[ind_ltop + k];
	.loc 1 208 31 discriminator 262144 view .LVU1078
	vcvtusi2ss	xmm4, xmm5, r13d	# tmp1711, tmp1698, *_613
# src/avx_analysis_code_ablations/opt10_abl_tile_8x256_ilp.cpp:209:                         float TR = p.SUB[ind_rtop + k];
	.loc 1 209 31 discriminator 262144 view .LVU1079
	movzx	r13d, BYTE PTR [rcx+r10]	# *_706, *_706
	vmovaps	xmm7, xmm4	# TL_1080, TL_1080
	vcvtusi2ss	xmm4, xmm5, r13d	# tmp1712, tmp1698, *_706
# src/avx_analysis_code_ablations/opt10_abl_tile_8x256_ilp.cpp:210:                         float BL = p.SUB[ind_lbot + k];
	.loc 1 210 31 discriminator 262144 view .LVU1080
	movzx	r13d, BYTE PTR [rsi+r10]	# *_792, *_792
# src/avx_analysis_code_ablations/opt10_abl_tile_8x256_ilp.cpp:211:                         float BR = p.SUB[ind_rbot + k];
	.loc 1 211 31 discriminator 262144 view .LVU1081
	movzx	r10d, BYTE PTR [r8+r10]	# *_566, *_566
.LVL157:
	.loc 1 211 31 discriminator 262144 view .LVU1082
	vfmadd213ss	xmm7, xmm18, DWORD PTR [r12]	# TL_1080, _79, *_1103
# src/avx_analysis_code_ablations/opt10_abl_tile_8x256_ilp.cpp:210:                         float BL = p.SUB[ind_lbot + k];
	.loc 1 210 31 discriminator 262144 view .LVU1083
	vcvtusi2ss	xmm6, xmm5, r13d	# tmp1713, tmp1698, *_792
# src/avx_analysis_code_ablations/opt10_abl_tile_8x256_ilp.cpp:212:                         vp[k] += p.A*TL + p.B*TR + p.C*BL + p.D*BR;
	.loc 1 212 55 discriminator 262144 view .LVU1084
	vmulss	xmm6, xmm6, xmm16	# _1185, BL_676, _81
	vfmadd231ss	xmm6, xmm17, xmm4	# _86, _80, TR_568
# src/avx_analysis_code_ablations/opt10_abl_tile_8x256_ilp.cpp:211:                         float BR = p.SUB[ind_rbot + k];
	.loc 1 211 31 discriminator 262144 view .LVU1085
	vcvtusi2ss	xmm4, xmm5, r10d	# tmp1714, tmp1698, *_566
.LBE3142:
# src/avx_analysis_code_ablations/opt10_abl_tile_8x256_ilp.cpp:207:                     for (int k = 0; k < remaining; ++k) {
	.loc 1 207 21 discriminator 262145 view .LVU1086
	lea	r10d, 4[r9]	#,
.LBB3143:
# src/avx_analysis_code_ablations/opt10_abl_tile_8x256_ilp.cpp:212:                         vp[k] += p.A*TL + p.B*TR + p.C*BL + p.D*BR;
	.loc 1 212 31 discriminator 262144 view .LVU1087
	vfmadd132ss	xmm4, xmm7, xmm15	# tmp1541, _85, _82
	vaddss	xmm4, xmm4, xmm6	# _657, tmp1541, _86
	vmovss	DWORD PTR [r12], xmm4	# *_1103, _657
.LBE3143:
	.loc 1 207 21 is_stmt 1 discriminator 1 view .LVU1088
.LVL158:
	.loc 1 207 39 discriminator 2 view .LVU1089
# src/avx_analysis_code_ablations/opt10_abl_tile_8x256_ilp.cpp:207:                     for (int k = 0; k < remaining; ++k) {
	.loc 1 207 39 is_stmt 0 discriminator 262146 view .LVU1090
	cmp	ebx, r10d	# remaining, k
	jle	.L39	#,
.LBB3144:
	.loc 1 208 25 is_stmt 1 view .LVU1091
	.loc 1 209 25 view .LVU1092
	.loc 1 210 25 view .LVU1093
	.loc 1 211 25 view .LVU1094
	.loc 1 212 25 view .LVU1095
# src/avx_analysis_code_ablations/opt10_abl_tile_8x256_ilp.cpp:208:                         float TL = p.SUB[ind_ltop + k];
	.loc 1 208 31 is_stmt 0 discriminator 294912 view .LVU1096
	movzx	r13d, BYTE PTR [rdx+r10]	# *_297, *_297
	vcvtusi2ss	xmm4, xmm5, r13d	# tmp1715, tmp1698, *_297
# src/avx_analysis_code_ablations/opt10_abl_tile_8x256_ilp.cpp:209:                         float TR = p.SUB[ind_rtop + k];
	.loc 1 209 31 discriminator 294912 view .LVU1097
	movzx	r13d, BYTE PTR [rcx+r10]	# *_1095, *_1095
	vmovaps	xmm7, xmm4	# TL_1220, TL_1220
	vcvtusi2ss	xmm4, xmm5, r13d	# tmp1716, tmp1698, *_1095
# src/avx_analysis_code_ablations/opt10_abl_tile_8x256_ilp.cpp:210:                         float BL = p.SUB[ind_lbot + k];
	.loc 1 210 31 discriminator 294912 view .LVU1098
	movzx	r13d, BYTE PTR [rsi+r10]	# *_1206, *_1206
# src/avx_analysis_code_ablations/opt10_abl_tile_8x256_ilp.cpp:211:                         float BR = p.SUB[ind_rbot + k];
	.loc 1 211 31 discriminator 294912 view .LVU1099
	movzx	r10d, BYTE PTR [r8+r10]	# *_1203, *_1203
.LVL159:
	.loc 1 211 31 discriminator 294912 view .LVU1100
	vfmadd213ss	xmm7, xmm18, DWORD PTR 16[rax+r11]	# TL_1220, _79, *_1200
# src/avx_analysis_code_ablations/opt10_abl_tile_8x256_ilp.cpp:210:                         float BL = p.SUB[ind_lbot + k];
	.loc 1 210 31 discriminator 294912 view .LVU1101
	vcvtusi2ss	xmm6, xmm5, r13d	# tmp1717, tmp1698, *_1206
# src/avx_analysis_code_ablations/opt10_abl_tile_8x256_ilp.cpp:212:                         vp[k] += p.A*TL + p.B*TR + p.C*BL + p.D*BR;
	.loc 1 212 55 discriminator 294912 view .LVU1102
	vmulss	xmm6, xmm6, xmm16	# _1196, BL_1205, _81
	vfmadd231ss	xmm6, xmm17, xmm4	# _93, _80, TR_1314
# src/avx_analysis_code_ablations/opt10_abl_tile_8x256_ilp.cpp:211:                         float BR = p.SUB[ind_rbot + k];
	.loc 1 211 31 discriminator 294912 view .LVU1103
	vcvtusi2ss	xmm4, xmm5, r10d	# tmp1718, tmp1698, *_1203
.LBE3144:
# src/avx_analysis_code_ablations/opt10_abl_tile_8x256_ilp.cpp:207:                     for (int k = 0; k < remaining; ++k) {
	.loc 1 207 21 discriminator 294913 view .LVU1104
	lea	r10d, 5[r9]	#,
.LBB3145:
# src/avx_analysis_code_ablations/opt10_abl_tile_8x256_ilp.cpp:212:                         vp[k] += p.A*TL + p.B*TR + p.C*BL + p.D*BR;
	.loc 1 212 31 discriminator 294912 view .LVU1105
	vfmadd132ss	xmm4, xmm7, xmm15	# tmp1561, _92, _82
	vaddss	xmm4, xmm4, xmm6	# _1193, tmp1561, _93
	vmovss	DWORD PTR 16[rax+r11], xmm4	# *_1200, _1193
.LBE3145:
	.loc 1 207 21 is_stmt 1 discriminator 1 view .LVU1106
.LVL160:
	.loc 1 207 39 discriminator 2 view .LVU1107
# src/avx_analysis_code_ablations/opt10_abl_tile_8x256_ilp.cpp:207:                     for (int k = 0; k < remaining; ++k) {
	.loc 1 207 39 is_stmt 0 discriminator 294914 view .LVU1108
	cmp	ebx, r10d	# remaining, k
	jle	.L39	#,
.LBB3146:
	.loc 1 208 25 is_stmt 1 view .LVU1109
	.loc 1 209 25 view .LVU1110
	.loc 1 210 25 view .LVU1111
	.loc 1 211 25 view .LVU1112
	.loc 1 212 25 view .LVU1113
# src/avx_analysis_code_ablations/opt10_abl_tile_8x256_ilp.cpp:208:                         float TL = p.SUB[ind_ltop + k];
	.loc 1 208 31 is_stmt 0 discriminator 327680 view .LVU1114
	movzx	r13d, BYTE PTR [rdx+r10]	# *_270, *_270
.LBE3146:
# src/avx_analysis_code_ablations/opt10_abl_tile_8x256_ilp.cpp:207:                     for (int k = 0; k < remaining; ++k) {
	.loc 1 207 21 discriminator 327681 view .LVU1115
	add	r9d, 6	#,
.LBB3147:
# src/avx_analysis_code_ablations/opt10_abl_tile_8x256_ilp.cpp:208:                         float TL = p.SUB[ind_ltop + k];
	.loc 1 208 31 discriminator 327680 view .LVU1116
	vcvtusi2ss	xmm4, xmm5, r13d	# tmp1719, tmp1698, *_270
# src/avx_analysis_code_ablations/opt10_abl_tile_8x256_ilp.cpp:209:                         float TR = p.SUB[ind_rtop + k];
	.loc 1 209 31 discriminator 327680 view .LVU1117
	movzx	r13d, BYTE PTR [rcx+r10]	# *_162, *_162
	vmovaps	xmm7, xmm4	# TL_780, TL_780
	vcvtusi2ss	xmm4, xmm5, r13d	# tmp1720, tmp1698, *_162
# src/avx_analysis_code_ablations/opt10_abl_tile_8x256_ilp.cpp:210:                         float BL = p.SUB[ind_lbot + k];
	.loc 1 210 31 discriminator 327680 view .LVU1118
	movzx	r13d, BYTE PTR [rsi+r10]	# *_271, *_271
# src/avx_analysis_code_ablations/opt10_abl_tile_8x256_ilp.cpp:211:                         float BR = p.SUB[ind_rbot + k];
	.loc 1 211 31 discriminator 327680 view .LVU1119
	movzx	r10d, BYTE PTR [r8+r10]	# *_1263, *_1263
.LVL161:
	.loc 1 211 31 discriminator 327680 view .LVU1120
	vfmadd213ss	xmm7, xmm18, DWORD PTR 20[rax+r11]	# TL_780, _79, *_276
# src/avx_analysis_code_ablations/opt10_abl_tile_8x256_ilp.cpp:210:                         float BL = p.SUB[ind_lbot + k];
	.loc 1 210 31 discriminator 327680 view .LVU1121
	vcvtusi2ss	xmm6, xmm5, r13d	# tmp1721, tmp1698, *_271
# src/avx_analysis_code_ablations/opt10_abl_tile_8x256_ilp.cpp:212:                         vp[k] += p.A*TL + p.B*TR + p.C*BL + p.D*BR;
	.loc 1 212 55 discriminator 327680 view .LVU1122
	vmulss	xmm6, xmm6, xmm16	# _278, BL_1325, _81
	vfmadd231ss	xmm6, xmm17, xmm4	# _99, _80, TR_470
# src/avx_analysis_code_ablations/opt10_abl_tile_8x256_ilp.cpp:211:                         float BR = p.SUB[ind_rbot + k];
	.loc 1 211 31 discriminator 327680 view .LVU1123
	vcvtusi2ss	xmm4, xmm5, r10d	# tmp1722, tmp1698, *_1263
# src/avx_analysis_code_ablations/opt10_abl_tile_8x256_ilp.cpp:212:                         vp[k] += p.A*TL + p.B*TR + p.C*BL + p.D*BR;
	.loc 1 212 31 discriminator 327680 view .LVU1124
	vfmadd132ss	xmm4, xmm7, xmm15	# tmp1581, _95, _82
	vaddss	xmm4, xmm4, xmm6	# _798, tmp1581, _99
	vmovss	DWORD PTR 20[rax+r11], xmm4	# *_276, _798
.LBE3147:
	.loc 1 207 21 is_stmt 1 discriminator 1 view .LVU1125
.LVL162:
	.loc 1 207 39 discriminator 2 view .LVU1126
# src/avx_analysis_code_ablations/opt10_abl_tile_8x256_ilp.cpp:207:                     for (int k = 0; k < remaining; ++k) {
	.loc 1 207 39 is_stmt 0 discriminator 327682 view .LVU1127
	cmp	ebx, r9d	# remaining, k
	jle	.L39	#,
.LBB3148:
	.loc 1 208 25 is_stmt 1 view .LVU1128
	.loc 1 209 25 view .LVU1129
	.loc 1 210 25 view .LVU1130
	.loc 1 211 25 view .LVU1131
	.loc 1 212 25 view .LVU1132
# src/avx_analysis_code_ablations/opt10_abl_tile_8x256_ilp.cpp:208:                         float TL = p.SUB[ind_ltop + k];
	.loc 1 208 31 is_stmt 0 discriminator 98304 view .LVU1133
	movzx	edx, BYTE PTR [rdx+r9]	# *_601, *_601
	vcvtusi2ss	xmm4, xmm5, edx	# tmp1723, tmp1698, *_601
# src/avx_analysis_code_ablations/opt10_abl_tile_8x256_ilp.cpp:209:                         float TR = p.SUB[ind_rtop + k];
	.loc 1 209 31 discriminator 98304 view .LVU1134
	movzx	edx, BYTE PTR [rcx+r9]	# *_592, *_592
	vmovaps	xmm7, xmm4	# TL_595, TL_595
	vcvtusi2ss	xmm4, xmm5, edx	# tmp1724, tmp1698, *_592
# src/avx_analysis_code_ablations/opt10_abl_tile_8x256_ilp.cpp:210:                         float BL = p.SUB[ind_lbot + k];
	.loc 1 210 31 discriminator 98304 view .LVU1135
	movzx	edx, BYTE PTR [rsi+r9]	# *_577, *_577
	vfmadd213ss	xmm7, xmm18, DWORD PTR 24[rax+r11]	# TL_595, _79, *_543
	vcvtusi2ss	xmm6, xmm5, edx	# tmp1725, tmp1698, *_577
# src/avx_analysis_code_ablations/opt10_abl_tile_8x256_ilp.cpp:211:                         float BR = p.SUB[ind_rbot + k];
	.loc 1 211 31 discriminator 98304 view .LVU1136
	movzx	edx, BYTE PTR [r8+r9]	# *_571, *_571
# src/avx_analysis_code_ablations/opt10_abl_tile_8x256_ilp.cpp:212:                         vp[k] += p.A*TL + p.B*TR + p.C*BL + p.D*BR;
	.loc 1 212 55 discriminator 98304 view .LVU1137
	vmulss	xmm6, xmm6, xmm16	# _534, BL_573, _81
	vfmadd231ss	xmm6, xmm17, xmm4	# _104, _80, TR_589
# src/avx_analysis_code_ablations/opt10_abl_tile_8x256_ilp.cpp:211:                         float BR = p.SUB[ind_rbot + k];
	.loc 1 211 31 discriminator 98304 view .LVU1138
	vcvtusi2ss	xmm4, xmm5, edx	# tmp1726, tmp1698, *_571
# src/avx_analysis_code_ablations/opt10_abl_tile_8x256_ilp.cpp:212:                         vp[k] += p.A*TL + p.B*TR + p.C*BL + p.D*BR;
	.loc 1 212 31 discriminator 98304 view .LVU1139
	vfmadd132ss	xmm4, xmm7, xmm15	# tmp1601, _103, _82
	vaddss	xmm4, xmm4, xmm6	# _499, tmp1601, _104
	vmovss	DWORD PTR 24[rax+r11], xmm4	# *_543, _499
.LBE3148:
	.loc 1 207 21 is_stmt 1 discriminator 1 view .LVU1140
.LVL163:
	.loc 1 207 39 discriminator 2 view .LVU1141
.L39:
	.loc 1 207 39 is_stmt 0 discriminator 2 view .LVU1142
.LBE3132:
.LBE3159:
	.loc 1 123 17 is_stmt 1 discriminator 1 view .LVU1143
	inc	DWORD PTR 240[rsp]	# %sfp
.LVL164:
# src/avx_analysis_code_ablations/opt10_abl_tile_8x256_ilp.cpp:123:                 for (int y = y_begin; y < y_end; ++y) {
	.loc 1 123 41 is_stmt 0 discriminator 2 view .LVU1144
	mov	rbx, QWORD PTR 192[rsp]	# _661, %sfp
.LVL165:
	.loc 1 123 41 discriminator 2 view .LVU1145
	add	QWORD PTR 216[rsp], rbx	# %sfp, _661
# src/avx_analysis_code_ablations/opt10_abl_tile_8x256_ilp.cpp:123:                 for (int y = y_begin; y < y_end; ++y) {
	.loc 1 123 17 discriminator 1 view .LVU1146
	mov	eax, DWORD PTR 240[rsp]	# y, %sfp
.LVL166:
	.loc 1 123 41 is_stmt 1 discriminator 2 view .LVU1147
	cmp	eax, DWORD PTR 208[rsp]	# y, %sfp
	jl	.L44	#,
	mov	r12d, DWORD PTR 112[rsp]	# _75, %sfp
	mov	r15, QWORD PTR 224[rsp]	# ivtmp.567, %sfp
	mov	r8d, DWORD PTR 108[rsp]	# _521, %sfp
	mov	ebx, DWORD PTR 104[rsp]	# tx, %sfp
	mov	r11d, DWORD PTR 100[rsp]	# ty, %sfp
.LVL167:
.L35:
	.loc 1 123 41 is_stmt 0 discriminator 2 view .LVU1148
.LBE3202:
.LBE3206:
	.loc 1 111 13 is_stmt 1 discriminator 4 view .LVU1149
	.loc 1 111 39 discriminator 5 view .LVU1150
# src/avx_analysis_code_ablations/opt10_abl_tile_8x256_ilp.cpp:111:             for (const SubParams& p : params) {
	.loc 1 111 39 is_stmt 0 discriminator 6 view .LVU1151
	add	r15, 48	# ivtmp.567,
.LVL168:
	.loc 1 111 39 discriminator 6 view .LVU1152
	cmp	QWORD PTR 128[rsp], r15	# %sfp, ivtmp.567
	jne	.L45	#,
	mov	r13d, DWORD PTR 96[rsp]	#, %sfp
	mov	r8, QWORD PTR 88[rsp]	# _700, %sfp
	mov	r15d, r11d	# ty, ty
.LVL169:
.L34:
	.loc 1 111 39 discriminator 6 view .LVU1153
.LBE3264:
.LBB3265:
	.loc 1 218 32 is_stmt 1 discriminator 2 view .LVU1154
	cmp	DWORD PTR 168[rsp], r15d	# %sfp, ty
	jle	.L46	#,
	test	r13d, r13d	# tile_w_actual
	jle	.L46	#,
	lea	r12d, 0[r13+r13*2]	# _614,
	mov	rdi, QWORD PTR 136[rsp]	# ivtmp.572, %sfp
	mov	rax, QWORD PTR 64[rsp]	# _379, %sfp
	lea	r9, 0[r13+r13*2]	# _615,
	movsxd	r12, r12d	# _611, _614
	mov	r11, QWORD PTR 48[rsp]	# ivtmp.516, %sfp
	lea	r14, 0[0+r9*4]	# tmp1613,
	mov	r10, r8	# ivtmp.514, _700
	mov	QWORD PTR 240[rsp], r12	# %sfp, _611
	lea	r13, [rax+rdi*4]	# _786,
# src/avx_analysis_code_ablations/opt10_abl_tile_8x256_ilp.cpp:218:             for (int y = ty; y < tile_y_end; ++y) {
	.loc 1 218 22 is_stmt 0 view .LVU1155
	mov	ebx, r15d	# y, ty
# src/avx_analysis_code_ablations/opt10_abl_tile_8x256_ilp.cpp:218:             for (int y = ty; y < tile_y_end; ++y) {
	.loc 1 218 32 discriminator 2 view .LVU1156
	xor	edi, edi	# ivtmp.513
.LVL170:
	.p2align 4,,10
	.p2align 3
.L50:
.LBB3232:
	.loc 1 219 17 is_stmt 1 view .LVU1157
	.loc 1 220 17 view .LVU1158
.LBB3227:
.LBI3227:
	.loc 2 1385 7 view .LVU1159
	.loc 2 1385 7 is_stmt 0 view .LVU1160
.LBE3227:
	.loc 1 221 17 is_stmt 1 view .LVU1161
.LBB3228:
	.loc 1 221 35 discriminator 2 view .LVU1162
.LBE3228:
# src/avx_analysis_code_ablations/opt10_abl_tile_8x256_ilp.cpp:220:                 unsigned char* outp = output.data.data() + (y * width + tx) * 3;
	.loc 1 220 77 is_stmt 0 discriminator 1 view .LVU1163
	mov	rax, QWORD PTR 136[rsp]	# ivtmp.572, %sfp
	lea	rdx, 0[r13+r11*4]	# ivtmp.498,
	add	rax, r11	# _1176, ivtmp.516
	lea	rcx, [rax+rax*2]	# _569,
# src/avx_analysis_code_ablations/opt10_abl_tile_8x256_ilp.cpp:220:                 unsigned char* outp = output.data.data() + (y * width + tx) * 3;
	.loc 1 220 79 discriminator 1 view .LVU1164
	mov	rax, QWORD PTR 120[rsp]	# <retval>, %sfp
	add	rcx, QWORD PTR 16[rax]	# outp, MEM[(struct vector *)output_228(D) + 16B].D.87585._M_impl.D.86896._M_start
	xor	eax, eax	# ivtmp.506
	jmp	.L49	#
.LVL171:
	.loc 1 220 79 discriminator 1 view .LVU1165
	.p2align 5
	.p2align 4,,10
	.p2align 3
.L47:
.LBB3229:
.LBB3220:
	.loc 1 224 25 is_stmt 1 view .LVU1166
# src/avx_analysis_code_ablations/opt10_abl_tile_8x256_ilp.cpp:224:                         outp[x*3] = outp[x*3+1] = outp[x*3+2] = 0;
	.loc 1 224 35 is_stmt 0 view .LVU1167
	xor	esi, esi	#
.LVL172:
# src/avx_analysis_code_ablations/opt10_abl_tile_8x256_ilp.cpp:224:                         outp[x*3] = outp[x*3+1] = outp[x*3+2] = 0;
	.loc 1 224 63 view .LVU1168
	mov	BYTE PTR 2[rcx+rax], 0	# MEM[(unsigned char *)outp_803 + 2B + ivtmp.506_1371 * 1],
.LBE3220:
# src/avx_analysis_code_ablations/opt10_abl_tile_8x256_ilp.cpp:221:                 for (int x = 0; x < tile_w_actual; ++x) {
	.loc 1 221 35 discriminator 2 view .LVU1169
	add	rdx, 4	# ivtmp.498,
.LVL173:
.LBB3221:
# src/avx_analysis_code_ablations/opt10_abl_tile_8x256_ilp.cpp:224:                         outp[x*3] = outp[x*3+1] = outp[x*3+2] = 0;
	.loc 1 224 35 view .LVU1170
	mov	WORD PTR [rcx+rax], si	# MEM <vector(2) unsigned char> [(unsigned char *)outp_803 + ivtmp.506_1371 * 1],
	.loc 1 225 25 is_stmt 1 view .LVU1171
.LBE3221:
	.loc 1 221 17 discriminator 1 view .LVU1172
.LVL174:
	.loc 1 221 35 discriminator 2 view .LVU1173
	add	rax, 3	# ivtmp.506,
.LVL175:
	.loc 1 221 35 is_stmt 0 discriminator 2 view .LVU1174
	cmp	r9, rax	# _615, ivtmp.506
	je	.L141	#,
.LVL176:
.L49:
.LBB3222:
	.loc 1 222 21 is_stmt 1 view .LVU1175
# src/avx_analysis_code_ablations/opt10_abl_tile_8x256_ilp.cpp:222:                     int c = counts[y * width + (tx + x)];
	.loc 1 222 56 is_stmt 0 discriminator 1 view .LVU1176
	mov	esi, DWORD PTR [rdx]	# c, MEM[(value_type &)_1375]
.LVL177:
	.loc 1 223 21 is_stmt 1 view .LVU1177
	test	esi, esi	# c
	je	.L47	#,
	.loc 1 227 21 view .LVU1178
# src/avx_analysis_code_ablations/opt10_abl_tile_8x256_ilp.cpp:227:                     float inv_c = 1.0f / static_cast<float>(c);
	.loc 1 227 42 is_stmt 0 view .LVU1179
	vcvtsi2ss	xmm0, xmm5, esi	# tmp1727, tmp1698, c
.LBE3222:
# src/avx_analysis_code_ablations/opt10_abl_tile_8x256_ilp.cpp:221:                 for (int x = 0; x < tile_w_actual; ++x) {
	.loc 1 221 35 discriminator 2 view .LVU1180
	add	rdx, 4	# ivtmp.498,
.LBB3223:
# src/avx_analysis_code_ablations/opt10_abl_tile_8x256_ilp.cpp:227:                     float inv_c = 1.0f / static_cast<float>(c);
	.loc 1 227 27 view .LVU1181
	vdivss	xmm0, xmm23, xmm0	# inv_c, tmp1677, _1137
.LVL178:
	.loc 1 228 21 is_stmt 1 view .LVU1182
.LBB3212:
	.loc 1 228 41 discriminator 2 view .LVU1183
.LBB3213:
	.loc 1 229 25 view .LVU1184
	.loc 1 230 25 view .LVU1185
# src/avx_analysis_code_ablations/opt10_abl_tile_8x256_ilp.cpp:229:                         float v = vp[x*3 + ch] * inv_c;
	.loc 1 229 31 is_stmt 0 discriminator 32768 view .LVU1186
	vmulss	xmm1, xmm0, DWORD PTR [r10+rax*4]	# v_1131, inv_c, MEM[(const float *)_345 + ivtmp.506_1371 * 4]
# src/avx_analysis_code_ablations/opt10_abl_tile_8x256_ilp.cpp:230:                         outp[x*3 + ch] = static_cast<unsigned char>(v);
	.loc 1 230 42 discriminator 32768 view .LVU1187
	vcvttss2si	esi, xmm1	# tmp1628, v_1131
.LVL179:
	.loc 1 230 42 discriminator 32768 view .LVU1188
	mov	BYTE PTR [rcx+rax], sil	# MEM[(unsigned char *)outp_803 + ivtmp.506_1371 * 1], tmp1628
.LBE3213:
	.loc 1 228 21 is_stmt 1 discriminator 1 view .LVU1189
.LVL180:
	.loc 1 228 41 discriminator 2 view .LVU1190
.LBB3214:
	.loc 1 229 25 view .LVU1191
# src/avx_analysis_code_ablations/opt10_abl_tile_8x256_ilp.cpp:229:                         float v = vp[x*3 + ch] * inv_c;
	.loc 1 229 42 is_stmt 0 discriminator 65536 view .LVU1192
	lea	esi, 1[rax]	# _1127,
.LVL181:
	.loc 1 230 25 is_stmt 1 view .LVU1193
# src/avx_analysis_code_ablations/opt10_abl_tile_8x256_ilp.cpp:229:                         float v = vp[x*3 + ch] * inv_c;
	.loc 1 229 46 is_stmt 0 discriminator 65536 view .LVU1194
	lea	r12, [rdi+rsi]	# tmp1630,
.LVL182:
# src/avx_analysis_code_ablations/opt10_abl_tile_8x256_ilp.cpp:229:                         float v = vp[x*3 + ch] * inv_c;
	.loc 1 229 31 discriminator 65536 view .LVU1195
	vmulss	xmm1, xmm0, DWORD PTR [r8+r12*4]	# v_1122, inv_c, *_1124
# src/avx_analysis_code_ablations/opt10_abl_tile_8x256_ilp.cpp:230:                         outp[x*3 + ch] = static_cast<unsigned char>(v);
	.loc 1 230 42 discriminator 65536 view .LVU1196
	vcvttss2si	r12d, xmm1	# tmp1633, v_1122
.LVL183:
	.loc 1 230 42 discriminator 65536 view .LVU1197
	mov	BYTE PTR [rcx+rsi], r12b	# *_1121, tmp1633
.LBE3214:
	.loc 1 228 21 is_stmt 1 discriminator 1 view .LVU1198
.LVL184:
	.loc 1 228 41 discriminator 2 view .LVU1199
.LBB3215:
	.loc 1 229 25 view .LVU1200
# src/avx_analysis_code_ablations/opt10_abl_tile_8x256_ilp.cpp:229:                         float v = vp[x*3 + ch] * inv_c;
	.loc 1 229 42 is_stmt 0 discriminator 98304 view .LVU1201
	lea	esi, 2[rax]	# _1117,
.LVL185:
	.loc 1 230 25 is_stmt 1 view .LVU1202
.LBE3215:
.LBE3212:
.LBE3223:
# src/avx_analysis_code_ablations/opt10_abl_tile_8x256_ilp.cpp:221:                 for (int x = 0; x < tile_w_actual; ++x) {
	.loc 1 221 35 is_stmt 0 discriminator 2 view .LVU1203
	add	rax, 3	# ivtmp.506,
.LVL186:
.LBB3224:
.LBB3217:
.LBB3216:
# src/avx_analysis_code_ablations/opt10_abl_tile_8x256_ilp.cpp:229:                         float v = vp[x*3 + ch] * inv_c;
	.loc 1 229 46 discriminator 98304 view .LVU1204
	lea	r12, [rdi+rsi]	# tmp1635,
.LVL187:
# src/avx_analysis_code_ablations/opt10_abl_tile_8x256_ilp.cpp:229:                         float v = vp[x*3 + ch] * inv_c;
	.loc 1 229 31 discriminator 98304 view .LVU1205
	vmulss	xmm0, xmm0, DWORD PTR [r8+r12*4]	# v_1112, inv_c, *_1114
.LVL188:
# src/avx_analysis_code_ablations/opt10_abl_tile_8x256_ilp.cpp:230:                         outp[x*3 + ch] = static_cast<unsigned char>(v);
	.loc 1 230 42 discriminator 98304 view .LVU1206
	vcvttss2si	r12d, xmm0	# tmp1638, v_1112
	.loc 1 230 42 discriminator 98304 view .LVU1207
	mov	BYTE PTR [rcx+rsi], r12b	# *_1111, tmp1638
.LBE3216:
	.loc 1 228 21 is_stmt 1 discriminator 1 view .LVU1208
.LVL189:
	.loc 1 228 41 discriminator 2 view .LVU1209
.LBE3217:
.LBE3224:
	.loc 1 221 17 discriminator 1 view .LVU1210
	.loc 1 221 35 discriminator 2 view .LVU1211
	cmp	r9, rax	# _615, ivtmp.506
	jne	.L49	#,
.LVL190:
.L141:
	.loc 1 221 35 is_stmt 0 discriminator 2 view .LVU1212
.LBE3229:
.LBE3232:
	.loc 1 218 13 is_stmt 1 discriminator 1 view .LVU1213
	inc	ebx	# y
.LVL191:
	.loc 1 218 32 discriminator 2 view .LVU1214
	add	rdi, QWORD PTR 240[rsp]	# ivtmp.513, %sfp
	add	r10, r14	# ivtmp.514, tmp1613
	add	r11, QWORD PTR 144[rsp]	# ivtmp.516, %sfp
	cmp	DWORD PTR 168[rsp], ebx	# %sfp, y
	jne	.L50	#,
.LVL192:
.L46:
	.loc 1 218 32 is_stmt 0 discriminator 2 view .LVU1215
.LBE3265:
.LBE3268:
	.loc 1 101 29 is_stmt 1 discriminator 2 view .LVU1216
	add	QWORD PTR 136[rsp], 256	# %sfp,
.LVL193:
	.loc 1 101 29 is_stmt 0 discriminator 2 view .LVU1217
	mov	rax, QWORD PTR 136[rsp]	# ivtmp.572, %sfp
	cmp	DWORD PTR 76[rsp], eax	# %sfp, tmp2026
	jg	.L51	#,
.LBE3281:
.LBE2911:
# src/avx_analysis_code_ablations/opt10_abl_tile_8x256_ilp.cpp:97:     for (int ty = 0; ty < h; ty += TILE_H) {
	.loc 1 97 25 discriminator 2 view .LVU1218
	mov	rdx, QWORD PTR 48[rsp]	# ivtmp.579, %sfp
	mov	r14, QWORD PTR 8[rsp]	# _232, %sfp
	mov	r13d, DWORD PTR 20[rsp]	# _2, %sfp
	mov	ebx, DWORD PTR 16[rsp]	# _71, %sfp
	mov	r12, QWORD PTR [rsp]	# _519, %sfp
.LVL194:
	.loc 1 97 25 is_stmt 1 discriminator 2 view .LVU1219
	add	rdx, r14	# ivtmp.579, _232
	cmp	ebx, r13d	# _71, _2
	jl	.L52	#,
	mov	r14, QWORD PTR 32[rsp]	# _4, %sfp
	mov	rbx, QWORD PTR 24[rsp]	# _26, %sfp
.LVL195:
	.loc 1 97 25 is_stmt 0 discriminator 2 view .LVU1220
	vzeroupper
.LVL196:
.L32:
	.loc 1 97 25 discriminator 2 view .LVU1221
.LBE2910:
	.loc 1 237 5 is_stmt 1 view .LVU1222
.LBB3286:
.LBI3286:
	.loc 2 790 7 view .LVU1223
.LBB3287:
.LBI3287:
	.loc 2 307 7 view .LVU1224
	.loc 2 307 7 is_stmt 0 view .LVU1225
.LBE3287:
.LBB3288:
.LBI3288:
	.loc 8 1082 5 is_stmt 1 view .LVU1226
	.loc 8 1082 5 is_stmt 0 view .LVU1227
.LBE3288:
.LBB3289:
.LBI3289:
	.loc 2 373 7 is_stmt 1 view .LVU1228
.LBB3290:
.LBB3291:
.LBI3291:
	.loc 2 394 7 view .LVU1229
.LBB3292:
.LBB3293:
.LBI3293:
	.loc 8 688 7 view .LVU1230
.LBB3294:
.LBI3294:
	.loc 6 167 7 view .LVU1231
.LBB3295:
# /usr/include/c++/16/bits/new_allocator.h:183: 	_GLIBCXX_OPERATOR_DELETE(_GLIBCXX_SIZED_DEALLOC(__p, __n));
	.loc 6 183 59 is_stmt 0 view .LVU1232
	mov	rdi, QWORD PTR 40[rsp]	#, %sfp
	mov	esi, 24576	#,
	call	"_ZdlPvm"@PLT	#
.LVL197:
	.loc 6 183 59 view .LVU1233
.LBE3295:
.LBE3294:
.LBE3293:
.LBE3292:
.LBE3291:
.LBE3290:
.LBB3296:
.LBI3296:
	.loc 2 139 14 is_stmt 1 view .LVU1234
.LBB3297:
.LBI3297:
	.loc 5 189 7 view .LVU1235
.LBB3298:
.LBI3298:
	.loc 6 104 7 view .LVU1236
	.loc 6 104 7 is_stmt 0 view .LVU1237
.LBE3298:
.LBE3297:
.LBE3296:
.LBE3289:
.LBE3286:
.LBB3299:
.LBI3299:
	.loc 2 790 7 is_stmt 1 view .LVU1238
.LBB3300:
.LBI3300:
	.loc 2 307 7 view .LVU1239
	.loc 2 307 7 is_stmt 0 view .LVU1240
.LBE3300:
.LBB3301:
.LBI3301:
	.loc 8 1082 5 is_stmt 1 view .LVU1241
	.loc 8 1082 5 is_stmt 0 view .LVU1242
.LBE3301:
.LBB3302:
.LBI3302:
	.loc 2 373 7 is_stmt 1 view .LVU1243
.LBB3303:
.LBB3304:
.LBI3304:
	.loc 2 394 7 view .LVU1244
.LBB3305:
# /usr/include/c++/16/bits/stl_vector.h:397: 	if (__p)
	.loc 2 397 2 is_stmt 0 view .LVU1245
	test	r12, r12	# _519
	je	.L53	#,
.LVL198:
.LBB3306:
.LBI3306:
	.loc 8 688 7 is_stmt 1 view .LVU1246
.LBB3307:
.LBI3307:
	.loc 6 167 7 view .LVU1247
.LBB3308:
# /usr/include/c++/16/bits/new_allocator.h:183: 	_GLIBCXX_OPERATOR_DELETE(_GLIBCXX_SIZED_DEALLOC(__p, __n));
	.loc 6 183 59 is_stmt 0 view .LVU1248
	mov	rsi, rbx	#, _26
	mov	rdi, r12	#, _519
	call	"_ZdlPvm"@PLT	#
.LVL199:
	.loc 6 183 59 view .LVU1249
.LBE3308:
.LBE3307:
.LBE3306:
.LBE3305:
.LBE3304:
.LBE3303:
.LBB3309:
.LBI3309:
	.loc 2 139 14 is_stmt 1 view .LVU1250
.LBB3310:
.LBI3310:
	.loc 5 189 7 view .LVU1251
.LBB3311:
.LBI3311:
	.loc 6 104 7 view .LVU1252
	.loc 6 104 7 is_stmt 0 view .LVU1253
.LBE3311:
.LBE3310:
.LBE3309:
.LBE3302:
.LBE3299:
.LBB3312:
.LBI3312:
	.loc 2 790 7 is_stmt 1 view .LVU1254
.LBB3313:
.LBI3313:
	.loc 2 307 7 view .LVU1255
	.loc 2 307 7 is_stmt 0 view .LVU1256
.LBE3313:
.LBB3314:
.LBI3314:
	.loc 8 1082 5 is_stmt 1 view .LVU1257
	.loc 8 1082 5 is_stmt 0 view .LVU1258
.LBE3314:
.LBB3315:
.LBI3315:
	.loc 2 373 7 is_stmt 1 view .LVU1259
.L53:
.LBB3316:
.LBB3317:
.LBI3317:
	.loc 2 394 7 view .LVU1260
.LBB3318:
# /usr/include/c++/16/bits/stl_vector.h:397: 	if (__p)
	.loc 2 397 2 is_stmt 0 view .LVU1261
	mov	rax, QWORD PTR 64[rsp]	# _379, %sfp
	test	rax, rax	# _379
	je	.L54	#,
.LVL200:
.LBB3319:
.LBI3319:
	.loc 8 688 7 is_stmt 1 view .LVU1262
.LBB3320:
.LBI3320:
	.loc 6 167 7 view .LVU1263
.LBB3321:
# /usr/include/c++/16/bits/new_allocator.h:183: 	_GLIBCXX_OPERATOR_DELETE(_GLIBCXX_SIZED_DEALLOC(__p, __n));
	.loc 6 183 59 is_stmt 0 view .LVU1264
	mov	rsi, r14	#, _4
	mov	rdi, rax	#, _379
	call	"_ZdlPvm"@PLT	#
.LVL201:
.L54:
	.loc 6 183 59 view .LVU1265
.LBE3321:
.LBE3320:
.LBE3319:
.LBE3318:
.LBE3317:
.LBE3316:
.LBB3322:
.LBI3322:
	.loc 2 139 14 is_stmt 1 view .LVU1266
.LBB3323:
.LBI3323:
	.loc 5 189 7 view .LVU1267
.LBB3324:
.LBI3324:
	.loc 6 104 7 view .LVU1268
	.loc 6 104 7 is_stmt 0 view .LVU1269
.LBE3324:
.LBE3323:
.LBE3322:
.LBE3315:
.LBE3312:
.LBB3325:
.LBI2706:
	.loc 2 790 7 is_stmt 1 view .LVU1270
.LBB2720:
.LBI2720:
	.loc 2 307 7 view .LVU1271
	.loc 2 307 7 is_stmt 0 view .LVU1272
.LBE2720:
.LBB2721:
.LBI2721:
	.loc 8 1082 5 is_stmt 1 view .LVU1273
	.loc 8 1082 5 is_stmt 0 view .LVU1274
.LBE2721:
.LBB2722:
.LBI2707:
	.loc 2 373 7 is_stmt 1 view .LVU1275
.LBB2716:
.LBB2709:
.LBI2709:
	.loc 2 394 7 view .LVU1276
.LBB2710:
# /usr/include/c++/16/bits/stl_vector.h:397: 	if (__p)
	.loc 2 397 2 is_stmt 0 view .LVU1277
	mov	rax, QWORD PTR 80[rsp]	# __new_finish, %sfp
	test	rax, rax	# __new_finish
	je	.L1	#,
.LVL202:
.LBB2711:
.LBI2711:
	.loc 2 394 7 is_stmt 1 view .LVU1278
.LBB2712:
.LBB2713:
.LBI2713:
	.loc 8 688 7 view .LVU1279
.LBB2714:
.LBI2714:
	.loc 6 167 7 view .LVU1280
.LBB2715:
# /usr/include/c++/16/bits/new_allocator.h:183: 	_GLIBCXX_OPERATOR_DELETE(_GLIBCXX_SIZED_DEALLOC(__p, __n));
	.loc 6 183 59 is_stmt 0 view .LVU1281
	mov	rsi, QWORD PTR 56[rsp]	#, %sfp
	mov	rdi, rax	#, __new_finish
	call	"_ZdlPvm"@PLT	#
.LVL203:
	.loc 6 183 59 view .LVU1282
.LBE2715:
.LBE2714:
.LBE2713:
.LBE2712:
.LBE2711:
.LBE2710:
.LBE2709:
.LBE2716:
.LBB2717:
.LBI2717:
	.loc 2 139 14 is_stmt 1 view .LVU1283
.LBB2718:
.LBI2718:
	.loc 5 189 7 view .LVU1284
.LBB2719:
.LBI2719:
	.loc 6 104 7 view .LVU1285
.L1:
	.loc 6 104 7 is_stmt 0 view .LVU1286
.LBE2719:
.LBE2718:
.LBE2717:
.LBE2722:
.LBE3325:
# src/avx_analysis_code_ablations/opt10_abl_tile_8x256_ilp.cpp:238: }
	.loc 1 238 1 view .LVU1287
	mov	rax, QWORD PTR 120[rsp]	#, %sfp
	lea	rsp, -40[rbp]	#,
.LVL204:
	.loc 1 238 1 view .LVU1288
	pop	rbx	#
	pop	r12	#
	pop	r13	#
	pop	r14	#
	pop	r15	#
	pop	rbp	#
	.cfi_remember_state
	.cfi_def_cfa 7, 8
.LVL205:
	.loc 1 238 1 view .LVU1289
	ret	
.LVL206:
.L2:
	.cfi_restore_state
# src/avx_analysis_code_ablations/opt10_abl_tile_8x256_ilp.cpp:44:     output.data.assign(width * height * 3, 0);
	.loc 1 44 23 view .LVU1290
	lea	r13, [r14+r14*2]	# _5,
.LVL207:
.LBB3326:
.LBB2534:
.LBB2532:
.LBB2530:
.LBB2477:
.LBB2478:
.LBI2478:
	.loc 2 589 7 is_stmt 1 view .LVU1291
.LBB2479:
.LBI2479:
	.loc 2 2203 7 view .LVU1292
.LBB2480:
.LBB2481:
.LBI2481:
	.loc 5 172 7 view .LVU1293
.LBB2482:
.LBI2482:
	.loc 6 92 7 view .LVU1294
	.loc 6 92 7 is_stmt 0 view .LVU1295
.LBE2482:
.LBE2481:
.LBB2483:
.LBI2483:
	.loc 5 189 7 is_stmt 1 view .LVU1296
.LBB2484:
.LBI2484:
	.loc 6 104 7 view .LVU1297
.LBE2484:
.LBE2483:
# /usr/include/c++/16/bits/stl_vector.h:2205: 	if (__n > _S_max_size(_Tp_alloc_type(__a)))
	.loc 2 2205 2 is_stmt 0 discriminator 3 view .LVU1298
	test	r13, r13	# _5
	js	.L133	#,
.LVL208:
	.loc 2 2205 2 discriminator 3 view .LVU1299
.LBE2480:
.LBE2479:
.LBB2486:
.LBI2486:
	.loc 2 339 7 is_stmt 1 view .LVU1300
.LBB2487:
.LBI2487:
	.loc 2 152 2 view .LVU1301
.LBB2488:
.LBI2488:
	.loc 5 172 7 view .LVU1302
.LBB2489:
.LBI2489:
	.loc 6 92 7 view .LVU1303
	.loc 6 92 7 is_stmt 0 view .LVU1304
.LBE2489:
.LBE2488:
.LBB2490:
.LBI2490:
	.loc 2 105 2 is_stmt 1 view .LVU1305
	.loc 2 105 2 is_stmt 0 view .LVU1306
.LBE2490:
.LBE2487:
.LBB2491:
.LBI2491:
	.loc 2 405 7 is_stmt 1 view .LVU1307
.LBB2492:
.LBB2493:
.LBI2493:
	.loc 2 386 7 view .LVU1308
.LBB2494:
.LBB2495:
.LBI2495:
	.loc 8 637 7 view .LVU1309
.LBB2496:
.LBI2496:
	.loc 6 129 7 view .LVU1310
.LBB2497:
# /usr/include/c++/16/bits/new_allocator.h:162: 	  return static_cast<_Tp*>(_GLIBCXX_OPERATOR_NEW(__n * sizeof(_Tp)));
	.loc 6 162 68 is_stmt 0 view .LVU1311
	mov	rdi, r13	#, _5
.LVL209:
.LEHB4:
	.loc 6 162 68 view .LVU1312
	call	"_Znwm"@PLT	#
.LVL210:
.LEHE4:
	.loc 6 162 68 view .LVU1313
.LBE2497:
.LBE2496:
.LBE2495:
.LBE2494:
.LBE2493:
.LBE2492:
.LBE2491:
.LBE2486:
.LBB2500:
.LBB2501:
.LBB2502:
.LBB2503:
.LBB2504:
.LBB2505:
# /usr/include/c++/16/bits/stl_uninitialized.h:577: 		      __builtin_memset(__dest, (unsigned char)__x, __n);
	.loc 12 577 25 view .LVU1314
	xor	esi, esi	#
	mov	rdx, r13	#, _5
.LBE2505:
.LBE2504:
.LBE2503:
.LBE2502:
.LBE2501:
.LBE2500:
.LBB2511:
.LBB2499:
.LBB2498:
# /usr/include/c++/16/bits/stl_vector.h:409: 	this->_M_impl._M_end_of_storage = this->_M_impl._M_start + __n;
	.loc 2 409 59 view .LVU1315
	lea	r15, [rax+r13]	# _559,
.LVL211:
	.loc 2 409 59 view .LVU1316
.LBE2498:
.LBE2499:
.LBE2511:
.LBB2512:
.LBI2500:
	.loc 2 1987 7 is_stmt 1 view .LVU1317
.LBB2510:
.LBI2501:
	.loc 12 771 5 view .LVU1318
.LBB2509:
.LBI2502:
	.loc 12 550 5 view .LVU1319
.LBB2508:
.LBB2507:
.LBB2506:
# /usr/include/c++/16/bits/stl_uninitialized.h:577: 		      __builtin_memset(__dest, (unsigned char)__x, __n);
	.loc 12 577 25 is_stmt 0 view .LVU1320
	mov	rdi, rax	#,
	call	"memset"@PLT	#
.LVL212:
	.loc 12 577 25 view .LVU1321
	mov	rcx, rax	# tmp1686,
.LVL213:
	.loc 12 577 25 view .LVU1322
.LBE2506:
.LBE2507:
.LBE2508:
.LBE2509:
.LBE2510:
.LBE2512:
.LBE2478:
.LBB2514:
.LBI2514:
	.loc 2 128 2 is_stmt 1 view .LVU1323
.LBB2515:
.LBB2516:
.LBI2516:
	.loc 2 105 2 view .LVU1324
	.loc 2 105 2 is_stmt 0 view .LVU1325
.LBE2516:
.LBB2517:
.LBI2517:
	.loc 2 119 2 is_stmt 1 view .LVU1326
.LBB2518:
# /usr/include/c++/16/bits/stl_vector.h:121: 	  _M_start = __x._M_start;
	.loc 2 121 13 is_stmt 0 view .LVU1327
	mov	rax, QWORD PTR 120[rsp]	# <retval>, %sfp
.LVL214:
	.loc 2 121 13 view .LVU1328
	mov	QWORD PTR 16[rax], rcx	# MEM[(struct _Vector_impl_data *)output_228(D) + 16B]._M_start, tmp1686
# /usr/include/c++/16/bits/stl_vector.h:122: 	  _M_finish = __x._M_finish;
	.loc 2 122 14 view .LVU1329
	mov	QWORD PTR 24[rax], r15	# MEM[(struct _Vector_impl_data *)output_228(D) + 16B]._M_finish, _559
# /usr/include/c++/16/bits/stl_vector.h:123: 	  _M_end_of_storage = __x._M_end_of_storage;
	.loc 2 123 22 view .LVU1330
	mov	QWORD PTR 32[rax], r15	# MEM[(struct _Vector_impl_data *)output_228(D) + 16B]._M_end_of_storage, _559
.LVL215:
	.loc 2 123 22 view .LVU1331
.LBE2518:
.LBE2517:
.LBE2515:
.LBE2514:
.LBB2519:
.LBI2519:
	.loc 2 790 7 is_stmt 1 view .LVU1332
.LBB2520:
.LBI2520:
	.loc 2 307 7 view .LVU1333
	.loc 2 307 7 is_stmt 0 view .LVU1334
.LBE2520:
.LBB2521:
.LBI2521:
	.loc 8 1082 5 is_stmt 1 view .LVU1335
	.loc 8 1082 5 is_stmt 0 view .LVU1336
.LBE2521:
.LBB2522:
.LBI2522:
	.loc 2 373 7 is_stmt 1 view .LVU1337
.LBB2523:
.LBB2524:
.LBI2524:
	.loc 2 394 7 view .LVU1338
	.loc 2 394 7 is_stmt 0 view .LVU1339
.LBE2524:
.LBE2523:
.LBB2525:
.LBI2525:
	.loc 2 139 14 is_stmt 1 view .LVU1340
.LBB2526:
.LBI2526:
	.loc 5 189 7 view .LVU1341
.LBB2527:
.LBI2527:
	.loc 6 104 7 view .LVU1342
	.loc 6 104 7 is_stmt 0 view .LVU1343
.LBE2527:
.LBE2526:
.LBE2525:
.LBE2522:
.LBE2519:
.LBE2477:
.LBE2530:
.LBE2532:
.LBE2534:
.LBE3326:
	.loc 1 47 5 is_stmt 1 view .LVU1344
.LBB3327:
	.loc 2 551 7 view .LVU1345
.LBB2562:
	.loc 2 321 7 view .LVU1346
.LBB2556:
	.loc 2 143 2 view .LVU1347
.LBB2549:
	.loc 5 168 7 view .LVU1348
.LBB2541:
	.loc 6 88 7 view .LVU1349
	.loc 6 88 7 is_stmt 0 view .LVU1350
.LBE2541:
.LBE2549:
.LBB2550:
	.loc 2 105 2 is_stmt 1 view .LVU1351
	.loc 2 105 2 is_stmt 0 view .LVU1352
.LBE2550:
.LBE2556:
.LBE2562:
.LBE3327:
	.loc 1 48 5 is_stmt 1 view .LVU1353
.LBB3328:
	.loc 2 1107 7 view .LVU1354
.LBB2570:
# /usr/include/c++/16/bits/stl_vector.h:1109: 	ptrdiff_t __dif = this->_M_impl._M_finish - this->_M_impl._M_start;
	.loc 2 1109 34 is_stmt 0 view .LVU1355
	mov	rax, QWORD PTR 8[r12]	# _433, MEM[(const struct vector *)subapertures_223(D)].D.139286._M_impl.D.138633._M_finish
.LVL216:
	.loc 2 1109 34 view .LVU1356
.LBE2570:
.LBE3328:
.LBB3329:
	.loc 7 70 5 is_stmt 1 view .LVU1357
	.loc 7 70 5 is_stmt 0 view .LVU1358
.LBE3329:
.LBB3330:
.LBB2571:
# /usr/include/c++/16/bits/stl_vector.h:1109: 	ptrdiff_t __dif = this->_M_impl._M_finish - this->_M_impl._M_start;
	.loc 2 1109 34 view .LVU1359
	mov	QWORD PTR 240[rsp], rax	# %sfp, _433
.LBE2571:
.LBE3330:
.LBB3331:
.LBB2581:
# /usr/include/c++/16/bits/vector.tcc:75:       if (this->capacity() < __n)
	.loc 7 75 7 discriminator 1 view .LVU1360
	sub	rax, rbx	# _435, SR.299
.LVL217:
	.loc 7 75 7 discriminator 1 view .LVU1361
	mov	QWORD PTR 56[rsp], rax	# %sfp, _435
	jne	.L4	#,
.LBE2581:
.LBE3331:
.LBB3332:
.LBB2563:
.LBB2557:
.LBB2551:
.LBB2544:
# /usr/include/c++/16/bits/stl_vector.h:106: 	: _M_start(), _M_finish(), _M_end_of_storage()
	.loc 2 106 4 view .LVU1362
	mov	QWORD PTR 80[rsp], 0	# %sfp,
# /usr/include/c++/16/bits/stl_vector.h:106: 	: _M_start(), _M_finish(), _M_end_of_storage()
	.loc 2 106 29 view .LVU1363
	xor	r15d, r15d	# params$_M_end_of_storage
.LVL218:
	.loc 2 106 29 view .LVU1364
	jmp	.L8	#
.LVL219:
	.p2align 4,,10
	.p2align 3
.L70:
	.loc 2 106 29 view .LVU1365
.LBE2544:
.LBE2551:
.LBE2557:
.LBE2563:
.LBE3332:
.LBB3333:
.LBB3284:
.LBB3282:
.LBB3269:
.LBB3266:
.LBB3207:
.LBB3203:
.LBB3160:
# src/avx_analysis_code_ablations/opt10_abl_tile_8x256_ilp.cpp:134:                     int x = (x_begin - tx) * 3;
	.loc 1 134 25 view .LVU1366
	mov	r8d, DWORD PTR 116[rsp]	# x, %sfp
# src/avx_analysis_code_ablations/opt10_abl_tile_8x256_ilp.cpp:125:                     size_t ind_lbot = ind_ltop + width * 3;
	.loc 1 125 28 view .LVU1367
	mov	rsi, rdi	# ind_lbot, ivtmp.556
	jmp	.L36	#
.LVL220:
.L71:
.LBB3150:
.LBB3149:
# src/avx_analysis_code_ablations/opt10_abl_tile_8x256_ilp.cpp:208:                         float TL = p.SUB[ind_ltop + k];
	.loc 1 208 38 view .LVU1368
	xor	r11d, r11d	# niters_vector_mult_vf.356
	mov	r14d, ebx	# niters.394, remaining
.LBE3149:
# src/avx_analysis_code_ablations/opt10_abl_tile_8x256_ilp.cpp:207:                     for (int k = 0; k < remaining; ++k) {
	.loc 1 207 30 view .LVU1369
	xor	r9d, r9d	# tmp.357
	add	rsi, r8	# tmp1656, _122
	sub	r14d, r11d	# niters.394, niters_vector_mult_vf.356
	add	rcx, r8	# tmp1657, _122
	add	rdx, r8	# tmp1655, _122
	lea	r10d, -1[r14]	# _885,
	cmp	r10d, 14	# _885,
	ja	.L142	#,
.LVL221:
.L72:
	.loc 1 207 30 view .LVU1370
	xor	r10d, r10d	# niters_vector_mult_vf.396
	jmp	.L42	#
.LVL222:
.L140:
	.loc 1 207 30 view .LVU1371
.LBE3150:
.LBE3160:
.LBE3203:
.LBE3207:
.LBE3266:
.LBE3269:
.LBE3282:
.LBE3284:
.LBE3333:
.LBB3334:
.LBB2564:
.LBB2558:
.LBB2552:
.LBB2545:
# /usr/include/c++/16/bits/stl_vector.h:106: 	: _M_start(), _M_finish(), _M_end_of_storage()
	.loc 2 106 4 view .LVU1372
	mov	QWORD PTR 80[rsp], 0	# %sfp,
.LBE2545:
.LBE2552:
.LBE2558:
.LBE2564:
.LBE3334:
# src/avx_analysis_code_ablations/opt10_abl_tile_8x256_ilp.cpp:39:     const int h = static_cast<int>(height);
	.loc 1 39 15 view .LVU1373
	mov	r13d, edx	# _2, _920
.LVL223:
	.loc 1 49 5 is_stmt 1 view .LVU1374
.LBB3335:
.LBB2699:
	.loc 2 988 7 view .LVU1375
.LBB2587:
	.loc 3 1058 7 view .LVU1376
	.loc 3 1058 7 is_stmt 0 view .LVU1377
.LBE2587:
.LBE2699:
.LBB2700:
	.loc 2 1008 7 is_stmt 1 view .LVU1378
.LBB2590:
	.loc 3 1058 7 view .LVU1379
	.loc 3 1058 7 is_stmt 0 view .LVU1380
.LBE2590:
.LBE2700:
	.loc 1 49 22 is_stmt 1 discriminator 5 view .LVU1381
.LBE3335:
.LBB3336:
.LBB2565:
.LBB2559:
.LBB2553:
.LBB2546:
# /usr/include/c++/16/bits/stl_vector.h:106: 	: _M_start(), _M_finish(), _M_end_of_storage()
	.loc 2 106 29 is_stmt 0 view .LVU1382
	xor	r15d, r15d	# params$_M_end_of_storage
.LBE2546:
.LBE2553:
.LBE2559:
.LBE2565:
.LBE3336:
# src/avx_analysis_code_ablations/opt10_abl_tile_8x256_ilp.cpp:38:     const int w = static_cast<int>(width);
	.loc 1 38 15 view .LVU1383
	vmovd	DWORD PTR 76[rsp], xmm0	# %sfp, tmp1866
.LBB3337:
# src/avx_analysis_code_ablations/opt10_abl_tile_8x256_ilp.cpp:49:     for (auto& sub : subapertures) {
	.loc 1 49 22 discriminator 6 view .LVU1384
	cmp	rbx, rdi	# SR.299, _433
	jne	.L5	#,
.LBE3337:
.LBB3338:
.LBB2566:
.LBB2560:
.LBB2554:
.LBB2547:
# /usr/include/c++/16/bits/stl_vector.h:106: 	: _M_start(), _M_finish(), _M_end_of_storage()
	.loc 2 106 4 view .LVU1385
	mov	QWORD PTR 128[rsp], 0	# %sfp,
.LVL224:
.L68:
	.loc 2 106 4 view .LVU1386
.LBE2547:
.LBE2554:
.LBE2560:
.LBE2566:
.LBE3338:
.LBB3339:
.LBB2775:
.LBB2755:
.LBB2753:
.LBB2751:
.LBB2749:
# /usr/include/c++/16/bits/stl_vector.h:389: 	return __n != 0 ? _Tr::allocate(_M_impl, __n) : pointer();
	.loc 2 389 58 discriminator 3 view .LVU1387
	mov	QWORD PTR 64[rsp], 0	# %sfp,
	jmp	.L20	#
.LVL225:
.L69:
	.loc 2 389 58 discriminator 3 view .LVU1388
.LBE2749:
.LBE2751:
.LBE2753:
.LBE2755:
.LBE2775:
.LBE3339:
.LBB3340:
.LBB2833:
.LBB2813:
.LBB2811:
.LBB2809:
.LBB2807:
	xor	r12d, r12d	# _519
	jmp	.L24	#
.LVL226:
.L13:
	.loc 2 389 58 discriminator 3 view .LVU1389
.LBE2807:
.LBE2809:
.LBE2811:
.LBE2813:
.LBE2833:
.LBE3340:
.LBB3341:
.LBB2701:
.LBB2695:
.LBB2691:
.LBB2616:
.LBI2616:
	.loc 7 565 7 is_stmt 1 view .LVU1390
.LBB2617:
.LBB2618:
.LBI2618:
	.loc 2 2192 7 view .LVU1391
.LBB2619:
.LBB2620:
.LBI2620:
	.loc 2 1107 7 view .LVU1392
.LBB2621:
# /usr/include/c++/16/bits/stl_vector.h:1109: 	ptrdiff_t __dif = this->_M_impl._M_finish - this->_M_impl._M_start;
	.loc 2 1109 44 is_stmt 0 view .LVU1393
	mov	rax, r15	# _629, params$_M_end_of_storage
	sub	rax, r12	# _629, params$_M_start
	mov	QWORD PTR 232[rsp], rax	# %sfp, _629
.LVL227:
# /usr/include/c++/16/bits/stl_vector.h:1109: 	ptrdiff_t __dif = this->_M_impl._M_finish - this->_M_impl._M_start;
	.loc 2 1109 12 view .LVU1394
	sar	rax, 4	# tmp915,
.LVL228:
	.loc 2 1109 12 view .LVU1395
	mov	rdx, rax	# tmp915, tmp915
	movabs	rax, -6148914691236517205	# tmp917,
	imul	rdx, rax	# __dif_630, tmp917
.LVL229:
	.loc 2 1109 12 view .LVU1396
.LBE2621:
.LBE2620:
# /usr/include/c++/16/bits/stl_vector.h:2194: 	if (max_size() - size() < __n)
	.loc 2 2194 2 discriminator 2 view .LVU1397
	movabs	rax, 192153584101141162	# tmp918,
	cmp	rdx, rax	# __dif_630, tmp918
	je	.L134	#,
.LBB2622:
.LBB2623:
# /usr/include/c++/16/bits/stl_algobase.h:261:       if (__a < __b)
	.loc 10 261 7 view .LVU1398
	test	rdx, rdx	# __dif_630
	mov	eax, 1	# tmp1737,
	mov	DWORD PTR 112[rsp], r11d	# %sfp, _553
	cmovne	rax, rdx	# __dif_630,, _632
	mov	DWORD PTR 116[rsp], ecx	# %sfp, _398
	mov	DWORD PTR 168[rsp], r9d	# %sfp, _20
.LBE2623:
.LBE2622:
# /usr/include/c++/16/bits/stl_vector.h:2197: 	const size_type __len = size() + (std::max)(size(), __n);
	.loc 2 2197 18 discriminator 3 view .LVU1399
	add	rax, rdx	# __len_633, __dif_630
# /usr/include/c++/16/bits/stl_vector.h:2198: 	return (__len < size() || __len > max_size()) ? max_size() : __len;
	.loc 2 2198 25 discriminator 3 view .LVU1400
	movabs	rdx, 192153584101141162	# tmp1738,
	mov	DWORD PTR 128[rsp], r8d	# %sfp, _16
	cmp	rax, rdx	# __len_633, tmp1738
	mov	DWORD PTR 176[rsp], esi	# %sfp, _9
	cmova	rax, rdx	# __len_633,, __len_633, tmp1738
	mov	DWORD PTR 184[rsp], r10d	# %sfp, _8
.LVL230:
.LBB2624:
.LBI2622:
	.loc 10 256 5 is_stmt 1 view .LVU1401
	.loc 10 256 5 is_stmt 0 view .LVU1402
.LBE2624:
.LBE2619:
.LBE2618:
.LBB2626:
.LBI2626:
	.loc 2 386 7 is_stmt 1 view .LVU1403
.LBB2627:
.LBB2628:
.LBI2628:
	.loc 8 637 7 view .LVU1404
.LBB2629:
.LBI2629:
	.loc 6 129 7 view .LVU1405
	.loc 6 129 7 is_stmt 0 view .LVU1406
	vmovss	DWORD PTR 136[rsp], xmm3	# %sfp, _15
.LBB2630:
# /usr/include/c++/16/bits/new_allocator.h:162: 	  return static_cast<_Tp*>(_GLIBCXX_OPERATOR_NEW(__n * sizeof(_Tp)));
	.loc 6 162 68 view .LVU1407
	lea	rax, [rax+rax*2]	# _650,
	vmovss	DWORD PTR 152[rsp], xmm0	# %sfp, _14
	sal	rax, 4	# _650,
	vmovss	DWORD PTR 160[rsp], xmm1	# %sfp, _13
	mov	rdi, rax	#, tmp925
	mov	QWORD PTR 200[rsp], rax	# %sfp, tmp925
	vmovss	DWORD PTR 172[rsp], xmm2	# %sfp, _12
.LEHB5:
	call	"_Znwm"@PLT	#
.LVL231:
.LEHE5:
	.loc 6 162 68 view .LVU1408
.LBE2630:
.LBE2629:
.LBE2628:
.LBE2627:
.LBE2626:
.LBB2639:
# /usr/include/c++/16/bits/vector.tcc:594: 	_Alloc_traits::construct(this->_M_impl,
	.loc 7 594 26 view .LVU1409
	mov	rdx, QWORD PTR 232[rsp]	# _629, %sfp
.LBB2640:
.LBB2641:
.LBB2642:
# /usr/include/c++/16/bits/new_allocator.h:203: 	{ ::new((void *)__p) _Up(std::forward<_Args>(__args)...); }
	.loc 6 203 4 discriminator 1 view .LVU1410
	mov	ecx, DWORD PTR 116[rsp]	# _398, %sfp
.LBE2642:
.LBE2641:
.LBE2640:
.LBE2639:
.LBB2683:
.LBB2637:
.LBB2635:
.LBB2633:
.LBB2631:
# /usr/include/c++/16/bits/new_allocator.h:162: 	  return static_cast<_Tp*>(_GLIBCXX_OPERATOR_NEW(__n * sizeof(_Tp)));
	.loc 6 162 68 view .LVU1411
	mov	QWORD PTR 216[rsp], rax	# %sfp, _651
.LVL232:
	.loc 6 162 68 view .LVU1412
.LBE2631:
.LBE2633:
.LBE2635:
.LBE2637:
.LBE2683:
.LBB2684:
.LBB2648:
.LBI2648:
	.loc 2 1865 2 is_stmt 1 view .LVU1413
	.loc 2 1865 2 is_stmt 0 view .LVU1414
.LBE2648:
.LBB2649:
.LBI2640:
	.loc 8 705 2 is_stmt 1 view .LVU1415
.LBB2645:
.LBI2641:
	.loc 6 201 2 view .LVU1416
.LBE2645:
.LBE2649:
.LBE2684:
.LBB2685:
.LBB2638:
.LBB2636:
.LBB2634:
.LBB2632:
# /usr/include/c++/16/bits/new_allocator.h:162: 	  return static_cast<_Tp*>(_GLIBCXX_OPERATOR_NEW(__n * sizeof(_Tp)));
	.loc 6 162 68 is_stmt 0 view .LVU1417
	mov	rdi, rax	# _651,
.LBE2632:
.LBE2634:
.LBE2636:
.LBE2638:
.LBE2685:
.LBB2686:
.LBB2650:
.LBB2646:
.LBB2643:
# /usr/include/c++/16/bits/new_allocator.h:203: 	{ ::new((void *)__p) _Up(std::forward<_Args>(__args)...); }
	.loc 6 203 4 discriminator 1 view .LVU1418
	vmovss	xmm0, DWORD PTR 152[rsp]	# _14, %sfp
	vmovss	xmm2, DWORD PTR 172[rsp]	# _12, %sfp
	mov	r10d, DWORD PTR 184[rsp]	# _8, %sfp
	mov	esi, DWORD PTR 176[rsp]	# _9, %sfp
	mov	DWORD PTR 28[rax+rdx], ecx	# _638->x_end, _398
	vinsertps	xmm0, xmm0, DWORD PTR 136[rsp], 0x10	# tmp928, _14, %sfp
	vinsertps	xmm2, xmm2, DWORD PTR 160[rsp], 0x10	# tmp929, _12, %sfp
	mov	r8d, DWORD PTR 128[rsp]	# _16, %sfp
	mov	r9d, DWORD PTR 168[rsp]	# _20, %sfp
	mov	DWORD PTR [rax+rdx], r10d	# _638->sx, _8
	mov	r11d, DWORD PTR 112[rsp]	# _553, %sfp
	mov	rcx, QWORD PTR 208[rsp]	# _440, %sfp
	vmovlhps	xmm2, xmm2, xmm0	# _1240, tmp929, tmp928
	mov	DWORD PTR 4[rax+rdx], esi	# _638->sy, _9
	mov	DWORD PTR 24[rax+rdx], r8d	# _638->x_begin, _16
	mov	DWORD PTR 32[rax+rdx], r9d	# _638->y_begin, _20
	mov	DWORD PTR 36[rax+rdx], r11d	# _638->y_end, _553
	mov	QWORD PTR 40[rax+rdx], rcx	# MEM <const unsigned char *> [(struct SubParams *)_638 + 40B], _440
.LVL233:
	.loc 6 203 4 discriminator 1 view .LVU1419
.LBE2643:
.LBE2646:
.LBE2650:
.LBB2651:
.LBI2651:
	.loc 12 1404 5 is_stmt 1 view .LVU1420
.LBB2652:
.LBI2652:
	.loc 12 1377 5 view .LVU1421
	.loc 12 1377 5 is_stmt 0 view .LVU1422
.LBE2652:
.LBE2651:
.LBB2655:
.LBB2647:
.LBB2644:
# /usr/include/c++/16/bits/new_allocator.h:203: 	{ ::new((void *)__p) _Up(std::forward<_Args>(__args)...); }
	.loc 6 203 4 discriminator 1 view .LVU1423
	vmovups	XMMWORD PTR 8[rax+rdx], xmm2	# MEM <vector(4) float> [(float *)_638 + 8B], _1240
.LBE2644:
.LBE2647:
.LBE2655:
.LBB2656:
.LBB2654:
.LBB2653:
# /usr/include/c++/16/bits/stl_uninitialized.h:1382:       if (__count > 0)
	.loc 12 1382 7 view .LVU1424
	test	rdx, rdx	# _629
	je	.L17	#,
# /usr/include/c++/16/bits/stl_uninitialized.h:1394: 	  __builtin_memcpy(__result, __first, __count * sizeof(_Tp));
	.loc 12 1394 20 view .LVU1425
	mov	rsi, r12	#, params$_M_start
	call	"memcpy"@PLT	#
.LVL234:
.L17:
	.loc 12 1394 20 view .LVU1426
.LBE2653:
.LBE2654:
.LBE2656:
# /usr/include/c++/16/bits/vector.tcc:610: 	    ++__new_finish;
	.loc 7 610 6 view .LVU1427
	mov	rax, QWORD PTR 216[rsp]	# _651, %sfp
	mov	rdi, QWORD PTR 232[rsp]	# _629, %sfp
	lea	rax, 48[rax+rdi]	# __new_finish,
.LVL235:
	.loc 7 610 6 view .LVU1428
	mov	QWORD PTR 80[rsp], rax	# %sfp, __new_finish
.LVL236:
.LBB2657:
.LBI2657:
	.loc 2 1870 2 is_stmt 1 view .LVU1429
.LBB2658:
# /usr/include/c++/16/bits/stl_vector.h:1872: 	  if (_M_storage)
	.loc 2 1872 4 is_stmt 0 view .LVU1430
	test	r12, r12	# params$_M_start
	je	.L18	#,
.LVL237:
.LBB2659:
.LBI2659:
	.loc 2 394 7 is_stmt 1 view .LVU1431
.LBB2660:
.LBB2661:
.LBI2661:
	.loc 2 394 7 view .LVU1432
.LBB2662:
.LBB2663:
.LBI2663:
	.loc 8 688 7 view .LVU1433
.LBB2664:
.LBI2664:
	.loc 6 167 7 view .LVU1434
.LBE2664:
.LBE2663:
.LBE2662:
.LBE2661:
.LBE2660:
.LBE2659:
.LBE2658:
.LBE2657:
# /usr/include/c++/16/bits/vector.tcc:648: 	__guard._M_len = this->_M_impl._M_end_of_storage - __old_start;
	.loc 7 648 51 is_stmt 0 view .LVU1435
	mov	rsi, r15	# params$_M_end_of_storage, params$_M_end_of_storage
.LBB2681:
.LBB2679:
.LBB2677:
.LBB2675:
.LBB2673:
.LBB2671:
.LBB2669:
.LBB2667:
.LBB2665:
# /usr/include/c++/16/bits/new_allocator.h:183: 	_GLIBCXX_OPERATOR_DELETE(_GLIBCXX_SIZED_DEALLOC(__p, __n));
	.loc 6 183 59 view .LVU1436
	mov	rdi, r12	#, params$_M_start
.LBE2665:
.LBE2667:
.LBE2669:
.LBE2671:
.LBE2673:
.LBE2675:
.LBE2677:
.LBE2679:
.LBE2681:
# /usr/include/c++/16/bits/vector.tcc:648: 	__guard._M_len = this->_M_impl._M_end_of_storage - __old_start;
	.loc 7 648 51 view .LVU1437
	sub	rsi, r12	# params$_M_end_of_storage, params$_M_start
.LBB2682:
.LBB2680:
.LBB2678:
.LBB2676:
.LBB2674:
.LBB2672:
.LBB2670:
.LBB2668:
.LBB2666:
# /usr/include/c++/16/bits/new_allocator.h:183: 	_GLIBCXX_OPERATOR_DELETE(_GLIBCXX_SIZED_DEALLOC(__p, __n));
	.loc 6 183 59 view .LVU1438
	call	"_ZdlPvm"@PLT	#
.LVL238:
.L18:
	.loc 6 183 59 view .LVU1439
.LBE2666:
.LBE2668:
.LBE2670:
.LBE2672:
.LBE2674:
.LBE2676:
.LBE2678:
.LBE2680:
.LBE2682:
.LBE2686:
# /usr/include/c++/16/bits/vector.tcc:655:       this->_M_impl._M_end_of_storage = __new_start + __len;
	.loc 7 655 53 view .LVU1440
	mov	r15, QWORD PTR 200[rsp]	# tmp925, %sfp
	mov	r12, QWORD PTR 216[rsp]	# _651, %sfp
.LVL239:
	.loc 7 655 53 view .LVU1441
	add	r15, r12	# tmp925, _651
.LVL240:
	.loc 7 655 53 view .LVU1442
	jmp	.L12	#
.LVL241:
.L65:
	.loc 7 655 53 view .LVU1443
.LBE2617:
.LBE2616:
.LBE2691:
.LBE2695:
.LBE2701:
# src/avx_analysis_code_ablations/opt10_abl_tile_8x256_ilp.cpp:49:     for (auto& sub : subapertures) {
	.loc 1 49 22 discriminator 6 view .LVU1444
	mov	rax, QWORD PTR 80[rsp]	# __new_finish, %sfp
	mov	QWORD PTR 128[rsp], rax	# %sfp, __new_finish
	jmp	.L9	#
.LVL242:
.L76:
	.loc 1 49 22 discriminator 6 view .LVU1445
.LBE3341:
.LBB3342:
.LBB3343:
.LBB3344:
.LBB3345:
.LBB3346:
# /usr/include/c++/16/bits/stl_vector.h:397: 	if (__p)
	.loc 2 397 2 view .LVU1446
	mov	r13, rax	# tmp1694,
	jmp	.L56	#
.LVL243:
.L129:
	.loc 2 397 2 view .LVU1447
	jmp	.L130	#
.LVL244:
.L78:
	.loc 2 397 2 view .LVU1448
	mov	rbx, rax	# tmp1645, tmp1691
	vzeroupper
.LVL245:
	jmp	.L16	#
.LVL246:
.L131:
	.loc 2 397 2 view .LVU1449
	jmp	.L132	#
.LVL247:
.L127:
	.loc 2 397 2 view .LVU1450
	jmp	.L128	#
.LVL248:
	.loc 2 397 2 view .LVU1451
.LBE3346:
.LBE3345:
.LBE3344:
.LBE3343:
.LBE3342:
	.section	.gcc_except_table,"a",@progbits
.LLSDA11707:
	.byte	0xff
	.byte	0xff
	.byte	0x1
	.uleb128 .LLSDACSE11707-.LLSDACSB11707
.LLSDACSB11707:
	.uleb128 .LEHB0-.LFB11707
	.uleb128 .LEHE0-.LEHB0
	.uleb128 .L127-.LFB11707
	.uleb128 0
	.uleb128 .LEHB1-.LFB11707
	.uleb128 .LEHE1-.LEHB1
	.uleb128 .L78-.LFB11707
	.uleb128 0
	.uleb128 .LEHB2-.LFB11707
	.uleb128 .LEHE2-.LEHB2
	.uleb128 .L129-.LFB11707
	.uleb128 0
	.uleb128 .LEHB3-.LFB11707
	.uleb128 .LEHE3-.LEHB3
	.uleb128 .L76-.LFB11707
	.uleb128 0
	.uleb128 .LEHB4-.LFB11707
	.uleb128 .LEHE4-.LEHB4
	.uleb128 .L127-.LFB11707
	.uleb128 0
	.uleb128 .LEHB5-.LFB11707
	.uleb128 .LEHE5-.LEHB5
	.uleb128 .L131-.LFB11707
	.uleb128 0
.LLSDACSE11707:
	.text
	.cfi_endproc
	.section	.text.unlikely
	.cfi_startproc
	.cfi_personality 0x9b,"DW.ref.__gxx_personality_v0"
	.cfi_lsda 0x1b,.LLSDAC11707
	.type	"_Z21refocus_shift_and_sumRSt6vectorI16SubApertureImageSaIS0_EEf.cold", @function
"_Z21refocus_shift_and_sumRSt6vectorI16SubApertureImageSaIS0_EEf.cold":
.LFSB11707:
.LBB3367:
.LBB3362:
.LBB3356:
.LBB3353:
.LBB3350:
.L133:
	.cfi_def_cfa 6, 16
	.cfi_offset 3, -56
	.cfi_offset 6, -16
	.cfi_offset 12, -48
	.cfi_offset 13, -40
	.cfi_offset 14, -32
	.cfi_offset 15, -24
.LBE3350:
.LBE3353:
.LBE3356:
.LBE3362:
.LBE3367:
.LBB3368:
.LBB2535:
.LBB2533:
.LBB2531:
.LBB2529:
.LBB2528:
.LBB2513:
.LBB2485:
# /usr/include/c++/16/bits/stl_vector.h:2206: 	  __throw_length_error(
	.loc 2 2206 24 view -0
	lea	rdi, .LC0[rip]	#,
.LVL249:
.LEHB6:
	.loc 2 2206 24 view .LVU1453
	call	"_ZSt20__throw_length_errorPKc"@PLT	#
.LVL250:
.LEHE6:
.L136:
	.loc 2 2206 24 view .LVU1454
.LBE2485:
.LBE2513:
.LBE2528:
.LBE2529:
.LBE2531:
.LBE2533:
.LBE2535:
.LBE3368:
.LBB3369:
.LBB2834:
.LBB2788:
	lea	rdi, .LC0[rip]	#,
.LEHB7:
	call	"_ZSt20__throw_length_errorPKc"@PLT	#
.LVL251:
.LEHE7:
.L134:
	.loc 2 2206 24 view .LVU1455
.LBE2788:
.LBE2834:
.LBE3369:
.LBB3370:
.LBB2702:
.LBB2696:
.LBB2692:
.LBB2689:
.LBB2688:
.LBB2687:
.LBB2625:
# /usr/include/c++/16/bits/stl_vector.h:2195: 	  __throw_length_error(__N(__s));
	.loc 2 2195 24 view .LVU1456
	lea	rdi, .LC2[rip]	#,
.LEHB8:
	call	"_ZSt20__throw_length_errorPKc"@PLT	#
.LVL252:
.LEHE8:
.L135:
	.loc 2 2195 24 view .LVU1457
.LBE2625:
.LBE2687:
.LBE2688:
.LBE2689:
.LBE2692:
.LBE2696:
.LBE2702:
.LBE3370:
.LBB3371:
.LBB2776:
.LBB2732:
# /usr/include/c++/16/bits/stl_vector.h:2206: 	  __throw_length_error(
	.loc 2 2206 24 view .LVU1458
	lea	rdi, .LC0[rip]	#,
.LEHB9:
	call	"_ZSt20__throw_length_errorPKc"@PLT	#
.LVL253:
.LEHE9:
.L56:
	.loc 2 2206 24 view .LVU1459
.LBE2732:
.LBE2776:
.LBE3371:
.LBB3372:
.LBI3342:
	.loc 2 790 7 is_stmt 1 view .LVU1460
.LBB3363:
.LBI3363:
	.loc 2 307 7 view .LVU1461
	.loc 2 307 7 is_stmt 0 view .LVU1462
.LBE3363:
.LBB3364:
.LBI3364:
	.loc 8 1082 5 is_stmt 1 view .LVU1463
	.loc 8 1082 5 is_stmt 0 view .LVU1464
.LBE3364:
.LBB3365:
.LBI3343:
	.loc 2 373 7 is_stmt 1 view .LVU1465
.LBB3357:
.LBB3354:
.LBI3345:
	.loc 2 394 7 view .LVU1466
.LBB3351:
# /usr/include/c++/16/bits/stl_vector.h:397: 	if (__p)
	.loc 2 397 2 is_stmt 0 view .LVU1467
	test	r12, r12	# _519
	jne	.L143	#,
	vzeroupper
.LVL254:
.L57:
	.loc 2 397 2 view .LVU1468
.LBE3351:
.LBE3354:
.LBE3357:
.LBB3358:
.LBI3358:
	.loc 2 139 14 is_stmt 1 view .LVU1469
.LBB3359:
.LBI3359:
	.loc 5 189 7 view .LVU1470
.LBB3360:
.LBI3360:
	.loc 6 104 7 view .LVU1471
	.loc 6 104 7 is_stmt 0 view .LVU1472
	mov	rbx, r13	# tmp1641, tmp1694
.LVL255:
	.loc 6 104 7 view .LVU1473
	jmp	.L58	#
.LVL256:
.L75:
.L130:
	.loc 6 104 7 view .LVU1474
.LBE3360:
.LBE3359:
.LBE3358:
.LBE3365:
.LBE3372:
.LBB3373:
.LBB3374:
.LBB3375:
.LBB3376:
.LBB3377:
# /usr/include/c++/16/bits/stl_vector.h:397: 	if (__p)
	.loc 2 397 2 view .LVU1475
	mov	rbx, rax	# tmp1641, tmp1695
	vzeroupper
.LVL257:
.L58:
	.loc 2 397 2 view .LVU1476
.LBE3377:
.LBE3376:
.LBE3375:
.LBE3374:
.LBI3373:
	.loc 2 790 7 is_stmt 1 view .LVU1477
.LBB3387:
.LBI3387:
	.loc 2 307 7 view .LVU1478
	.loc 2 307 7 is_stmt 0 view .LVU1479
.LBE3387:
.LBB3388:
.LBI3388:
	.loc 8 1082 5 is_stmt 1 view .LVU1480
	.loc 8 1082 5 is_stmt 0 view .LVU1481
.LBE3388:
.LBB3389:
.LBI3374:
	.loc 2 373 7 is_stmt 1 view .LVU1482
.LBB3383:
.LBB3382:
.LBI3376:
	.loc 2 394 7 view .LVU1483
.LBB3381:
# /usr/include/c++/16/bits/stl_vector.h:397: 	if (__p)
	.loc 2 397 2 is_stmt 0 view .LVU1484
	cmp	QWORD PTR 64[rsp], 0	# %sfp,
	je	.L16	#,
.LVL258:
.LBB3378:
.LBI3378:
	.loc 8 688 7 is_stmt 1 view .LVU1485
.LBB3379:
.LBI3379:
	.loc 6 167 7 view .LVU1486
.LBB3380:
# /usr/include/c++/16/bits/new_allocator.h:183: 	_GLIBCXX_OPERATOR_DELETE(_GLIBCXX_SIZED_DEALLOC(__p, __n));
	.loc 6 183 59 is_stmt 0 view .LVU1487
	mov	rdi, QWORD PTR 64[rsp]	#, %sfp
	mov	rsi, r14	#, _4
	call	"_ZdlPvm"@PLT	#
.LVL259:
	.loc 6 183 59 view .LVU1488
.LBE3380:
.LBE3379:
.LBE3378:
.LBE3381:
.LBE3382:
.LBE3383:
.LBB3384:
.LBI3384:
	.loc 2 139 14 is_stmt 1 view .LVU1489
.LBB3385:
.LBI3385:
	.loc 5 189 7 view .LVU1490
.LBB3386:
.LBI3386:
	.loc 6 104 7 view .LVU1491
.L16:
	.loc 6 104 7 is_stmt 0 view .LVU1492
.LBE3386:
.LBE3385:
.LBE3384:
.LBE3389:
.LBE3373:
.LBB3390:
.LBI3390:
	.loc 2 790 7 is_stmt 1 view .LVU1493
.LBB3391:
.LBI3391:
	.loc 2 307 7 view .LVU1494
	.loc 2 307 7 is_stmt 0 view .LVU1495
.LBE3391:
.LBB3392:
.LBI3392:
	.loc 8 1082 5 is_stmt 1 view .LVU1496
	.loc 8 1082 5 is_stmt 0 view .LVU1497
.LBE3392:
.LBB3393:
.LBI3393:
	.loc 2 373 7 is_stmt 1 view .LVU1498
.LBB3394:
.LBB3395:
.LBI3395:
	.loc 2 394 7 view .LVU1499
.LBB3396:
# /usr/include/c++/16/bits/stl_vector.h:397: 	if (__p)
	.loc 2 397 2 is_stmt 0 view .LVU1500
	cmp	QWORD PTR 80[rsp], 0	# %sfp,
	je	.L61	#,
.LVL260:
.LBB3397:
.LBI3397:
	.loc 2 394 7 is_stmt 1 view .LVU1501
.LBB3398:
.LBB3399:
.LBI3399:
	.loc 8 688 7 view .LVU1502
.LBB3400:
.LBI3400:
	.loc 6 167 7 view .LVU1503
.LBE3400:
.LBE3399:
.LBE3398:
.LBE3397:
.LBE3396:
.LBE3395:
# /usr/include/c++/16/bits/stl_vector.h:375: 	ptrdiff_t __n = _M_impl._M_end_of_storage - _M_impl._M_start;
	.loc 2 375 44 is_stmt 0 view .LVU1504
	mov	rdi, QWORD PTR 80[rsp]	# __new_finish, %sfp
	mov	rsi, r15	# params$_M_end_of_storage, params$_M_end_of_storage
	sub	rsi, rdi	# params$_M_end_of_storage, __new_finish
.LBB3408:
.LBB3406:
.LBB3405:
.LBB3404:
.LBB3403:
.LBB3402:
.LBB3401:
# /usr/include/c++/16/bits/new_allocator.h:183: 	_GLIBCXX_OPERATOR_DELETE(_GLIBCXX_SIZED_DEALLOC(__p, __n));
	.loc 6 183 59 view .LVU1505
	call	"_ZdlPvm"@PLT	#
.LVL261:
	.loc 6 183 59 view .LVU1506
.LBE3401:
.LBE3402:
.LBE3403:
.LBE3404:
.LBE3405:
.LBE3406:
.LBE3408:
.LBE3394:
.LBB3410:
.LBI3410:
	.loc 2 139 14 is_stmt 1 view .LVU1507
.LBB3411:
.LBI3411:
	.loc 5 189 7 view .LVU1508
.LBB3412:
.LBI3412:
	.loc 6 104 7 view .LVU1509
	.loc 6 104 7 is_stmt 0 view .LVU1510
	jmp	.L61	#
.LVL262:
.L73:
.L128:
	.loc 6 104 7 view .LVU1511
.LBE3412:
.LBE3411:
.LBE3410:
.LBE3393:
.LBE3390:
.LBB3415:
.LBB3416:
.LBB3417:
.LBB3418:
# /usr/include/c++/16/bits/stl_vector.h:375: 	ptrdiff_t __n = _M_impl._M_end_of_storage - _M_impl._M_start;
	.loc 2 375 54 view .LVU1512
	mov	rbx, rax	# tmp1648, tmp1697
	vzeroupper
.LVL263:
.L61:
	.loc 2 375 54 view .LVU1513
.LBE3418:
.LBE3417:
.LBE3416:
.LBI3415:
	.loc 4 11 8 is_stmt 1 view .LVU1514
.LBB3435:
.LBI3416:
	.loc 2 790 7 view .LVU1515
.LBB3432:
.LBI3432:
	.loc 2 307 7 view .LVU1516
	.loc 2 307 7 is_stmt 0 view .LVU1517
.LBE3432:
.LBB3433:
.LBI3433:
	.loc 8 1082 5 is_stmt 1 view .LVU1518
	.loc 8 1082 5 is_stmt 0 view .LVU1519
.LBE3433:
.LBB3434:
.LBI3417:
	.loc 2 373 7 is_stmt 1 view .LVU1520
.LBB3428:
# /usr/include/c++/16/bits/stl_vector.h:375: 	ptrdiff_t __n = _M_impl._M_end_of_storage - _M_impl._M_start;
	.loc 2 375 54 is_stmt 0 view .LVU1521
	mov	rax, QWORD PTR 120[rsp]	# <retval>, %sfp
	mov	rdi, QWORD PTR 16[rax]	# _502, MEM[(struct _Vector_base *)output_228(D) + 16B]._M_impl.D.86896._M_start
.LVL264:
.LBB3419:
.LBI3419:
	.loc 2 394 7 is_stmt 1 view .LVU1522
.LBB3420:
# /usr/include/c++/16/bits/stl_vector.h:397: 	if (__p)
	.loc 2 397 2 is_stmt 0 view .LVU1523
	test	rdi, rdi	# _502
	je	.L62	#,
.LVL265:
.LBB3421:
.LBI3421:
	.loc 8 688 7 is_stmt 1 view .LVU1524
.LBB3422:
.LBI3422:
	.loc 6 167 7 view .LVU1525
.LBE3422:
.LBE3421:
.LBE3420:
.LBE3419:
# /usr/include/c++/16/bits/stl_vector.h:375: 	ptrdiff_t __n = _M_impl._M_end_of_storage - _M_impl._M_start;
	.loc 2 375 12 is_stmt 0 view .LVU1526
	mov	rsi, QWORD PTR 32[rax]	# MEM[(struct _Vector_base *)output_228(D) + 16B]._M_impl.D.86896._M_end_of_storage, MEM[(struct _Vector_base *)output_228(D) + 16B]._M_impl.D.86896._M_end_of_storage
	sub	rsi, rdi	# __n_503, _502
.LBB3427:
.LBB3426:
.LBB3425:
.LBB3424:
.LBB3423:
# /usr/include/c++/16/bits/new_allocator.h:183: 	_GLIBCXX_OPERATOR_DELETE(_GLIBCXX_SIZED_DEALLOC(__p, __n));
	.loc 6 183 59 view .LVU1527
	call	"_ZdlPvm"@PLT	#
.LVL266:
.L62:
	.loc 6 183 59 view .LVU1528
.LBE3423:
.LBE3424:
.LBE3425:
.LBE3426:
.LBE3427:
.LBE3428:
.LBB3429:
.LBI3429:
	.loc 2 139 14 is_stmt 1 view .LVU1529
.LBB3430:
.LBI3430:
	.loc 5 189 7 view .LVU1530
.LBB3431:
.LBI3431:
	.loc 6 104 7 view .LVU1531
	.loc 6 104 7 is_stmt 0 view .LVU1532
	mov	rdi, rbx	#, tmp1648
.LEHB10:
	call	"_Unwind_Resume"@PLT	#
.LVL267:
.LEHE10:
.L143:
	.loc 6 104 7 view .LVU1533
.LBE3431:
.LBE3430:
.LBE3429:
.LBE3434:
.LBE3435:
.LBE3415:
.LBB3436:
.LBB3366:
.LBB3361:
.LBB3355:
.LBB3352:
.LBB3347:
.LBI3347:
	.loc 8 688 7 is_stmt 1 view .LVU1534
.LBB3348:
.LBI3348:
	.loc 6 167 7 view .LVU1535
.LBB3349:
# /usr/include/c++/16/bits/new_allocator.h:183: 	_GLIBCXX_OPERATOR_DELETE(_GLIBCXX_SIZED_DEALLOC(__p, __n));
	.loc 6 183 59 is_stmt 0 view .LVU1536
	mov	rsi, rbx	#, _26
	mov	rdi, r12	#, _519
	vzeroupper
.LVL268:
	call	"_ZdlPvm"@PLT	#
.LVL269:
	.loc 6 183 59 view .LVU1537
	jmp	.L57	#
.LVL270:
.L77:
.L132:
	.loc 6 183 59 view .LVU1538
.LBE3349:
.LBE3348:
.LBE3347:
.LBE3352:
.LBE3355:
.LBE3361:
.LBE3366:
.LBE3436:
.LBB3437:
.LBB3285:
.LBB3283:
.LBB3270:
.LBB3267:
.LBB3233:
# src/avx_analysis_code_ablations/opt10_abl_tile_8x256_ilp.cpp:220:                 unsigned char* outp = output.data.data() + (y * width + tx) * 3;
	.loc 1 220 79 discriminator 1 view .LVU1539
	mov	QWORD PTR 80[rsp], r12	# %sfp, params$_M_start
	mov	rbx, rax	# tmp1645, tmp1688
.LVL271:
	.loc 1 220 79 discriminator 1 view .LVU1540
	vzeroupper
.LVL272:
	jmp	.L16	#
.LVL273:
.L74:
	.loc 1 220 79 discriminator 1 view .LVU1541
.LBE3233:
.LBE3267:
.LBE3270:
.LBE3283:
.LBE3285:
.LBE3437:
.LBB3438:
.LBB3414:
.LBB3413:
.LBB3409:
.LBB3407:
# /usr/include/c++/16/bits/stl_vector.h:397: 	if (__p)
	.loc 2 397 2 view .LVU1542
	mov	rbx, rax	# tmp1645, tmp1696
	vzeroupper
.LVL274:
	jmp	.L16	#
.LBE3407:
.LBE3409:
.LBE3413:
.LBE3414:
.LBE3438:
	.cfi_endproc
.LFE11707:
	.section	.gcc_except_table
.LLSDAC11707:
	.byte	0xff
	.byte	0xff
	.byte	0x1
	.uleb128 .LLSDACSEC11707-.LLSDACSBC11707
.LLSDACSBC11707:
	.uleb128 .LEHB6-.LCOLDB5
	.uleb128 .LEHE6-.LEHB6
	.uleb128 .L73-.LCOLDB5
	.uleb128 0
	.uleb128 .LEHB7-.LCOLDB5
	.uleb128 .LEHE7-.LEHB7
	.uleb128 .L75-.LCOLDB5
	.uleb128 0
	.uleb128 .LEHB8-.LCOLDB5
	.uleb128 .LEHE8-.LEHB8
	.uleb128 .L77-.LCOLDB5
	.uleb128 0
	.uleb128 .LEHB9-.LCOLDB5
	.uleb128 .LEHE9-.LEHB9
	.uleb128 .L74-.LCOLDB5
	.uleb128 0
	.uleb128 .LEHB10-.LCOLDB5
	.uleb128 .LEHE10-.LEHB10
	.uleb128 0
	.uleb128 0
.LLSDACSEC11707:
	.section	.text.unlikely
	.text
	.size	"_Z21refocus_shift_and_sumRSt6vectorI16SubApertureImageSaIS0_EEf", .-"_Z21refocus_shift_and_sumRSt6vectorI16SubApertureImageSaIS0_EEf"
	.section	.text.unlikely
	.size	"_Z21refocus_shift_and_sumRSt6vectorI16SubApertureImageSaIS0_EEf.cold", .-"_Z21refocus_shift_and_sumRSt6vectorI16SubApertureImageSaIS0_EEf.cold"
.LCOLDE5:
	.text
.LHOTE5:
	.section	.rodata.cst4,"aM",@progbits,4
	.align 4
.LC1:
	.long	1065353216
	.text
.Letext0:
	.section	.text.unlikely
.Letext_cold0:
	.file 17 "/usr/include/c++/16/cwchar"
	.file 18 "/usr/include/x86_64-linux-gnu/c++/16/bits/c++config.h"
	.file 19 "/usr/include/c++/16/type_traits"
	.file 20 "/usr/include/c++/16/bits/exception_ptr.h"
	.file 21 "/usr/include/c++/16/clocale"
	.file 22 "/usr/include/c++/16/bits/stl_iterator_base_types.h"
	.file 23 "/usr/include/c++/16/debug/debug.h"
	.file 24 "/usr/include/c++/16/cstdlib"
	.file 25 "/usr/include/c++/16/cstdio"
	.file 26 "/usr/include/c++/16/cstddef"
	.file 27 "/usr/include/c++/16/cstdint"
	.file 28 "/usr/include/c++/16/ctime"
	.file 29 "/usr/include/c++/16/bits/chrono.h"
	.file 30 "/usr/include/c++/16/system_error"
	.file 31 "/usr/include/c++/16/bits/fs_fwd.h"
	.file 32 "/usr/include/c++/16/bits/fs_path.h"
	.file 33 "/usr/include/c++/16/cwctype"
	.file 34 "/usr/include/c++/16/bits/shared_ptr_base.h"
	.file 35 "/usr/include/c++/16/bits/std_abs.h"
	.file 36 "/usr/include/c++/16/initializer_list"
	.file 37 "/usr/include/c++/16/bits/new_throw.h"
	.file 38 "/usr/include/c++/16/bits/stdexcept_throwfwd.h"
	.file 39 "/usr/include/c++/16/bits/ptr_traits.h"
	.file 40 "/usr/lib/gcc/x86_64-linux-gnu/16/include/stddef.h"
	.file 41 "<built-in>"
	.file 42 "/usr/include/x86_64-linux-gnu/bits/types/wint_t.h"
	.file 43 "/usr/include/x86_64-linux-gnu/bits/types/__mbstate_t.h"
	.file 44 "/usr/include/x86_64-linux-gnu/bits/types/mbstate_t.h"
	.file 45 "/usr/include/x86_64-linux-gnu/bits/types/__FILE.h"
	.file 46 "/usr/include/x86_64-linux-gnu/bits/types/struct_FILE.h"
	.file 47 "/usr/include/x86_64-linux-gnu/bits/types/FILE.h"
	.file 48 "/usr/include/wchar.h"
	.file 49 "/usr/include/x86_64-linux-gnu/bits/types/struct_tm.h"
	.file 50 "/usr/include/c++/16/ext/alloc_traits.h"
	.file 51 "/usr/include/c++/16/ext/type_traits.h"
	.file 52 "/usr/include/locale.h"
	.file 53 "/usr/include/x86_64-linux-gnu/bits/types.h"
	.file 54 "/usr/include/stdlib.h"
	.file 55 "/usr/include/x86_64-linux-gnu/bits/types/clock_t.h"
	.file 56 "/usr/include/x86_64-linux-gnu/bits/types/time_t.h"
	.file 57 "/usr/include/x86_64-linux-gnu/bits/stdint-intn.h"
	.file 58 "/usr/include/x86_64-linux-gnu/bits/types/struct_timespec.h"
	.file 59 "/usr/include/x86_64-linux-gnu/bits/stdlib-float.h"
	.file 60 "/usr/include/x86_64-linux-gnu/bits/stdlib-bsearch.h"
	.file 61 "/usr/include/x86_64-linux-gnu/bits/types/__fpos_t.h"
	.file 62 "/usr/include/stdio.h"
	.file 63 "/usr/include/x86_64-linux-gnu/bits/stdio.h"
	.file 64 "/usr/include/x86_64-linux-gnu/bits/stdint-uintn.h"
	.file 65 "/usr/include/x86_64-linux-gnu/bits/stdint-least.h"
	.file 66 "/usr/include/stdint.h"
	.file 67 "/usr/include/time.h"
	.file 68 "/usr/include/x86_64-linux-gnu/bits/wctype-wchar.h"
	.file 69 "/usr/include/wctype.h"
	.file 70 "/usr/include/math.h"
	.file 71 "/usr/include/c++/16/pstl/execution_defs.h"
	.file 72 "/usr/lib/gcc/x86_64-linux-gnu/16/include/mmintrin.h"
	.file 73 "/usr/include/c++/16/stdlib.h"
	.file 74 "/usr/include/c++/16/new"
	.file 75 "/usr/include/c++/16/bits/memory_resource.h"
	.file 76 "/usr/include/c++/16/string_view"
	.file 77 "/usr/include/c++/16/ext/concurrence.h"
	.section	.data.rel.local.DW.ref.__gxx_personality_v0,"awG",@progbits,DW.ref.__gxx_personality_v0,comdat
	.align 8
	.type	"DW.ref.__gxx_personality_v0", @object
	.size	"DW.ref.__gxx_personality_v0", 8
"DW.ref.__gxx_personality_v0":
	.quad	"__gxx_personality_v0"
	.globl	"__gxx_personality_v0"
	.ident	"GCC: (Debian 16-20260425-1) 16.0.1 20260425 (prerelease) [gcc-16 r16-8812-gd9c07462a22]"
	.section	.note.GNU-stack,"",@progbits
