	.file	"opt17_ilp_only.cpp"
	.intel_syntax noprefix
# GNU C++17 (Debian 16-20260425-1) version 16.0.1 20260425 (prerelease) [gcc-16 r16-8812-gd9c07462a22] (x86_64-linux-gnu)
#	compiled by GNU C version 16.0.1 20260425 (prerelease) [gcc-16 r16-8812-gd9c07462a22], GMP version 6.3.0, MPFR version 4.2.2, MPC version 1.3.1, isl version isl-0.27-GMP

# GGC heuristics: --param ggc-min-expand=30 --param ggc-min-heapsize=4096
# options passed: -march=tigerlake -mmmx -mpopcnt -msse -msse2 -msse3 -mssse3 -msse4.1 -msse4.2 -mavx -mno-sse4a -mno-fma4 -mno-xop -mavx512f -mbmi -mbmi2 -maes -mpclmul -mavx512vl -mavx512bw -mavx512dq -mavx512cd -mavx512vbmi -mavx512ifma -mavx512vpopcntdq -mavx512vbmi2 -mgfni -mvpclmulqdq -mavx512vnni -mavx512bitalg -mno-avx512bf16 -mavx512vp2intersect -mno-3dnow -madx -mabm -mno-cldemote -mclflushopt -mclwb -mno-clzero -mcx16 -mno-enqcmd -mf16c -mfsgsbase -mfxsr -mno-hle -msahf -mno-lwp -mlzcnt -mmovbe -mmovdir64b -mmovdiri -mno-mwaitx -mno-pconfig -mpku -mprfchw -mno-ptwrite -mrdpid -mrdrnd -mrdseed -mno-rtm -mno-serialize -mno-sgx -msha -mshstk -mno-tbm -mno-tsxldtrk -mvaes -mno-waitpkg -mno-wbnoinvd -mxsave -mxsavec -mxsaveopt -mxsaves -mno-amx-tile -mno-amx-int8 -mno-amx-bf16 -mno-uintr -mno-hreset -mno-kl -mno-widekl -mno-avxvnni -mno-avx512fp16 -mno-avxifma -mno-avxvnniint8 -mno-avxneconvert -mno-cmpccxadd -mno-amx-fp16 -mno-prefetchi -mno-raoint -mno-amx-complex -mno-avxvnniint16 -mno-sm3 -mno-sha512 -mno-sm4 -mno-apxf -mno-usermsr -mno-avx10.1 -mno-avx10.2 -mno-amx-avx512 -mno-amx-tf32 -mno-amx-fp8 -mno-movrs -mno-amx-movrs -mno-avx512bmm --param=l1-cache-size=48 --param=l1-cache-line-size=64 --param=l2-cache-size=8192 -mtune=tigerlake -mavx2 -mfma -masm=intel -g -O3 -std=c++17 -ffast-math -fasynchronous-unwind-tables
	.text
.Ltext0:
	.file 0 "/home/team15/tomasz-worktree-dir/cpp_refocus" "src/opt17_ilp_only.cpp"
	.section	.rodata.str1.8,"aMS",@progbits,1
	.align 8
.LC0:
	.string	"cannot create std::vector larger than max_size()"
	.section	.rodata.str1.1,"aMS",@progbits,1
.LC2:
	.string	"vector::_M_realloc_append"
	.section	.text.unlikely,"ax",@progbits
.LCOLDB8:
	.text
.LHOTB8:
	.p2align 4
	.section	.text.unlikely
.Ltext_cold0:
	.text
	.globl	"_Z21refocus_shift_and_sumRSt6vectorI16SubApertureImageSaIS0_EEf"
	.type	"_Z21refocus_shift_and_sumRSt6vectorI16SubApertureImageSaIS0_EEf", @function
"_Z21refocus_shift_and_sumRSt6vectorI16SubApertureImageSaIS0_EEf":
.LVL0:
.LFB11708:
	.file 1 "src/opt17_ilp_only.cpp"
	.loc 1 28 91 view -0
	.cfi_startproc
	.cfi_personality 0x9b,"DW.ref.__gxx_personality_v0"
	.cfi_lsda 0x1b,.LLSDA11708
	.loc 1 28 91 is_stmt 0 view .LVU1
	push	rbp	#
	.cfi_def_cfa_offset 16
	.cfi_offset 6, -16
.LBB2375:
.LBB2376:
.LBB2377:
.LBB2378:
.LBB2379:
.LBB2380:
# /usr/include/c++/16/bits/stl_vector.h:106: 	: _M_start(), _M_finish(), _M_end_of_storage()
	.file 2 "/usr/include/c++/16/bits/stl_vector.h"
	.loc 2 106 4 view .LVU2
	vpxor	xmm1, xmm1, xmm1	# tmp954
.LBE2380:
.LBE2379:
.LBE2378:
.LBE2377:
.LBE2376:
.LBE2375:
# src/opt17_ilp_only.cpp:28: ImageData refocus_shift_and_sum(std::vector<SubApertureImage>& subapertures, float focus) {
	.loc 1 28 91 view .LVU3
	mov	rbp, rsp	#,
	.cfi_def_cfa_register 6
	push	r15	#
	push	r14	#
	push	r13	#
	.cfi_offset 15, -24
	.cfi_offset 14, -32
	.cfi_offset 13, -40
	mov	r13, rsi	# subapertures, subapertures
	push	r12	#
	push	rbx	#
	and	rsp, -32	#,
	sub	rsp, 288	#,
	.cfi_offset 12, -48
	.cfi_offset 3, -56
.LBB2392:
.LBB2393:
.LBB2394:
.LBB2395:
# /usr/include/c++/16/bits/stl_iterator.h:1059:       : _M_current(__i) { }
	.file 3 "/usr/include/c++/16/bits/stl_iterator.h"
	.loc 3 1059 9 view .LVU4
	mov	rbx, QWORD PTR [rsi]	# SR.301, MEM[(struct SubApertureImage * const &)subapertures_245(D)]
.LBE2395:
.LBE2394:
.LBE2393:
.LBE2392:
# src/opt17_ilp_only.cpp:28: ImageData refocus_shift_and_sum(std::vector<SubApertureImage>& subapertures, float focus) {
	.loc 1 28 91 view .LVU5
	vmovss	DWORD PTR 224[rsp], xmm0	# %sfp, focus
	mov	QWORD PTR 64[rsp], rdi	# %sfp, <retval>
	.loc 1 29 5 is_stmt 1 view .LVU6
.LVL1:
.LBB2398:
.LBI2392:
	.loc 2 1334 7 view .LVU7
	.loc 2 1336 2 discriminator 2 view .LVU8
.LBB2397:
.LBI2393:
	.loc 2 988 7 view .LVU9
.LBB2396:
.LBI2394:
	.loc 3 1058 7 view .LVU10
	.loc 3 1058 7 is_stmt 0 view .LVU11
.LBE2396:
.LBE2397:
.LBE2398:
# src/opt17_ilp_only.cpp:29:     const size_t width  = subapertures.front().data.width;
	.loc 1 29 53 discriminator 1 view .LVU12
	vmovdqu	xmm0, XMMWORD PTR [rbx]	# MEM <vector(2) long unsigned int> [(long unsigned int *)_286], MEM <vector(2) long unsigned int> [(long unsigned int *)_286]
.LVL2:
.LBB2399:
.LBB2390:
.LBB2388:
.LBB2386:
.LBB2382:
.LBB2381:
# /usr/include/c++/16/bits/stl_vector.h:106: 	: _M_start(), _M_finish(), _M_end_of_storage()
	.loc 2 106 29 view .LVU13
	mov	QWORD PTR 32[rdi], 0	# MEM[(struct _Vector_impl_data *)output_249(D) + 16B]._M_end_of_storage,
# /usr/include/c++/16/bits/stl_vector.h:106: 	: _M_start(), _M_finish(), _M_end_of_storage()
	.loc 2 106 4 view .LVU14
	vmovdqu	XMMWORD PTR 16[rdi], xmm1	# MEM <vector(2) long unsigned int> [(unsigned char * *)output_249(D) + 16B], tmp954
	vmovq	rax, xmm0	# _370, MEM <vector(2) long unsigned int> [(long unsigned int *)_286]
	vpextrq	rdx, xmm0, 1	# _954, MEM <vector(2) long unsigned int> [(long unsigned int *)_286]
	vmovq	QWORD PTR 56[rsp], xmm0	# %sfp, _370
.LVL3:
	.loc 2 106 4 view .LVU15
.LBE2381:
.LBE2382:
.LBE2386:
.LBE2388:
.LBE2390:
.LBE2399:
	.loc 1 30 5 is_stmt 1 view .LVU16
.LBB2400:
.LBI2400:
	.loc 2 1334 7 view .LVU17
	.loc 2 1336 2 discriminator 2 view .LVU18
.LBB2401:
.LBI2401:
	.loc 2 988 7 view .LVU19
.LBB2402:
.LBI2402:
	.loc 3 1058 7 view .LVU20
	.loc 3 1058 7 is_stmt 0 view .LVU21
.LBE2402:
.LBE2401:
.LBE2400:
	.loc 1 31 5 is_stmt 1 view .LVU22
	.loc 1 32 5 view .LVU23
	.loc 1 34 5 view .LVU24
.LBB2403:
.LBI2375:
	.file 4 "include/utils.hpp"
	.loc 4 11 8 view .LVU25
.LBB2391:
.LBI2376:
	.loc 2 551 7 view .LVU26
.LBB2389:
.LBI2377:
	.loc 2 321 7 view .LVU27
.LBB2387:
.LBI2378:
	.loc 2 143 2 view .LVU28
.LBB2383:
.LBI2383:
	.file 5 "/usr/include/c++/16/bits/allocator.h"
	.loc 5 168 7 view .LVU29
.LBB2384:
.LBI2384:
	.file 6 "/usr/include/c++/16/bits/new_allocator.h"
	.loc 6 88 7 view .LVU30
	.loc 6 88 7 is_stmt 0 view .LVU31
.LBE2384:
.LBE2383:
.LBB2385:
.LBI2379:
	.loc 2 105 2 is_stmt 1 view .LVU32
	.loc 2 105 2 is_stmt 0 view .LVU33
.LBE2385:
.LBE2387:
.LBE2389:
.LBE2391:
.LBE2403:
	.loc 1 35 5 is_stmt 1 view .LVU34
	.loc 1 36 5 view .LVU35
# src/opt17_ilp_only.cpp:37:     output.data.assign(width * height * 3, 0);
	.loc 1 37 30 is_stmt 0 view .LVU36
	mov	r12, rax	# _4, _370
	mov	QWORD PTR 256[rsp], rdx	# %sfp, _954
	imul	r12, rdx	# _4, _954
# src/opt17_ilp_only.cpp:35:     output.width = width;
	.loc 1 35 18 view .LVU37
	vmovdqu	XMMWORD PTR [rdi], xmm0	# MEM <vector(2) long unsigned int> [(long unsigned int *)output_249(D)], MEM <vector(2) long unsigned int> [(long unsigned int *)_286]
	.loc 1 37 5 is_stmt 1 view .LVU38
.LVL4:
.LBB2404:
.LBI2404:
	.loc 2 865 7 view .LVU39
.LBB2405:
.LBI2405:
	.file 7 "/usr/include/c++/16/bits/vector.tcc"
	.loc 7 274 5 view .LVU40
.LBB2406:
.LBB2407:
# /usr/include/c++/16/bits/vector.tcc:278:       if (__n > capacity())
	.loc 7 278 7 is_stmt 0 discriminator 1 view .LVU41
	test	r12, r12	# _4
	jne	.L2	#,
.LVL5:
	.loc 7 278 7 discriminator 1 view .LVU42
.LBE2407:
.LBE2406:
.LBE2405:
.LBE2404:
	.loc 1 39 5 is_stmt 1 view .LVU43
.LBB2467:
.LBI2467:
	.loc 2 551 7 view .LVU44
.LBB2468:
.LBI2468:
	.loc 2 321 7 view .LVU45
.LBB2469:
.LBI2469:
	.loc 2 143 2 view .LVU46
.LBB2470:
.LBI2470:
	.loc 5 168 7 view .LVU47
.LBB2471:
.LBI2471:
	.loc 6 88 7 view .LVU48
	.loc 6 88 7 is_stmt 0 view .LVU49
.LBE2471:
.LBE2470:
.LBB2473:
.LBI2473:
	.loc 2 105 2 is_stmt 1 view .LVU50
	.loc 2 105 2 is_stmt 0 view .LVU51
.LBE2473:
.LBE2469:
.LBE2468:
.LBE2467:
	.loc 1 40 5 is_stmt 1 view .LVU52
.LBB2498:
.LBI2498:
	.loc 2 1107 7 view .LVU53
.LBB2499:
# /usr/include/c++/16/bits/stl_vector.h:1109: 	ptrdiff_t __dif = this->_M_impl._M_finish - this->_M_impl._M_start;
	.loc 2 1109 34 is_stmt 0 view .LVU54
	mov	rcx, QWORD PTR 8[rsi]	# _174, MEM[(const struct vector *)subapertures_245(D)].D.139289._M_impl.D.138636._M_finish
.LVL6:
	.loc 2 1109 34 view .LVU55
.LBE2499:
.LBE2498:
.LBB2503:
.LBI2503:
	.loc 7 70 5 is_stmt 1 view .LVU56
.LBB2504:
# /usr/include/c++/16/bits/vector.tcc:75:       if (this->capacity() < __n)
	.loc 7 75 7 is_stmt 0 discriminator 1 view .LVU57
	mov	rdi, rcx	# _270, _174
.LVL7:
	.loc 7 75 7 discriminator 1 view .LVU58
.LBE2504:
.LBE2503:
.LBB2513:
.LBB2500:
# /usr/include/c++/16/bits/stl_vector.h:1109: 	ptrdiff_t __dif = this->_M_impl._M_finish - this->_M_impl._M_start;
	.loc 2 1109 34 view .LVU59
	mov	QWORD PTR 280[rsp], rcx	# %sfp, _174
.LBE2500:
.LBE2513:
.LBB2514:
.LBB2511:
# /usr/include/c++/16/bits/vector.tcc:75:       if (this->capacity() < __n)
	.loc 7 75 7 discriminator 1 view .LVU60
	sub	rdi, rbx	# _270, SR.301
.LVL8:
	.loc 7 75 7 discriminator 1 view .LVU61
	mov	QWORD PTR 40[rsp], rdi	# %sfp, _270
	je	.L167	#,
.LVL9:
.L4:
.LBB2505:
.LBB2506:
.LBI2506:
	.loc 2 386 7 is_stmt 1 view .LVU62
.LBB2507:
.LBB2508:
.LBI2508:
	.file 8 "/usr/include/c++/16/bits/alloc_traits.h"
	.loc 8 637 7 view .LVU63
.LBB2509:
.LBI2509:
	.loc 6 129 7 view .LVU64
.LBB2510:
# /usr/include/c++/16/bits/new_allocator.h:162: 	  return static_cast<_Tp*>(_GLIBCXX_OPERATOR_NEW(__n * sizeof(_Tp)));
	.loc 6 162 68 is_stmt 0 view .LVU65
	mov	r15, QWORD PTR 40[rsp]	# _270, %sfp
	mov	rdi, r15	#, _270
.LEHB0:
	call	"_Znwm"@PLT	#
.LVL10:
.LEHE0:
	mov	QWORD PTR 112[rsp], rax	# %sfp, __new_finish
.LVL11:
	.loc 6 162 68 view .LVU66
.LBE2510:
.LBE2509:
.LBE2508:
.LBE2507:
.LBE2506:
# /usr/include/c++/16/bits/vector.tcc:101: 	  this->_M_impl._M_end_of_storage = this->_M_impl._M_start + __n;
	.loc 7 101 61 view .LVU67
	lea	r13, [rax+r15]	# params$_M_end_of_storage,
.LVL12:
.L8:
	.loc 7 101 61 view .LVU68
.LBE2505:
.LBE2511:
.LBE2514:
# src/opt17_ilp_only.cpp:31:     const int w = static_cast<int>(width);
	.loc 1 31 15 view .LVU69
	mov	eax, DWORD PTR 56[rsp]	# tmp1965, %sfp
# src/opt17_ilp_only.cpp:32:     const int h = static_cast<int>(height);
	.loc 1 32 15 view .LVU70
	mov	r14d, DWORD PTR 256[rsp]	# _2, %sfp
.LVL13:
	.loc 1 41 5 is_stmt 1 view .LVU71
.LBB2515:
.LBB2516:
.LBI2516:
	.loc 2 988 7 view .LVU72
.LBB2517:
.LBI2517:
	.loc 3 1058 7 view .LVU73
	.loc 3 1058 7 is_stmt 0 view .LVU74
.LBE2517:
.LBE2516:
.LBB2519:
.LBI2519:
	.loc 2 1008 7 is_stmt 1 view .LVU75
.LBB2520:
.LBI2520:
	.loc 3 1058 7 view .LVU76
	.loc 3 1058 7 is_stmt 0 view .LVU77
.LBE2520:
.LBE2519:
	.loc 1 41 22 is_stmt 1 discriminator 5 view .LVU78
.LBE2515:
# src/opt17_ilp_only.cpp:31:     const int w = static_cast<int>(width);
	.loc 1 31 15 is_stmt 0 view .LVU79
	mov	DWORD PTR 84[rsp], eax	# %sfp, tmp1965
.LBB2634:
# src/opt17_ilp_only.cpp:41:     for (auto& sub : subapertures) {
	.loc 1 41 22 discriminator 6 view .LVU80
	cmp	QWORD PTR 280[rsp], rbx	# %sfp, SR.301
	je	.L80	#,
.LVL14:
.L5:
	.loc 1 41 22 discriminator 6 view .LVU81
.LBE2634:
.LBB2635:
.LBB2492:
.LBB2486:
.LBB2479:
.LBB2474:
# /usr/include/c++/16/bits/stl_vector.h:106: 	: _M_start(), _M_finish(), _M_end_of_storage()
	.loc 2 106 29 view .LVU82
	mov	r15, QWORD PTR 112[rsp]	# params$_M_start, %sfp
.L17:
.LVL15:
	.loc 2 106 29 view .LVU83
.LBE2474:
.LBE2479:
.LBE2486:
.LBE2492:
.LBE2635:
.LBB2636:
.LBB2522:
	.loc 1 42 9 is_stmt 1 view .LVU84
	.loc 1 43 9 view .LVU85
# src/opt17_ilp_only.cpp:43:         float shift_x = focus * sub.u;
	.loc 1 43 15 is_stmt 0 view .LVU86
	vmovss	xmm3, DWORD PTR 224[rsp]	# focus, %sfp
# src/opt17_ilp_only.cpp:53:         p.x_begin = std::max(0, -p.sx);
	.loc 1 53 33 view .LVU87
	xor	r8d, r8d	# _16
# src/opt17_ilp_only.cpp:43:         float shift_x = focus * sub.u;
	.loc 1 43 15 view .LVU88
	vmulss	xmm4, xmm3, DWORD PTR 40[rbx]	# shift_x, focus, MEM[(float *)SR.301_560 + 40B]
.LVL16:
	.loc 1 44 9 is_stmt 1 view .LVU89
# src/opt17_ilp_only.cpp:44:         float shift_y = focus * sub.v;
	.loc 1 44 15 is_stmt 0 view .LVU90
	vmulss	xmm2, xmm3, DWORD PTR 44[rbx]	# shift_y, focus, MEM[(float *)SR.301_560 + 44B]
.LVL17:
	.loc 1 45 9 is_stmt 1 view .LVU91
.LBB2523:
.LBI2523:
	.file 9 "/usr/include/c++/16/cmath"
	.loc 9 264 3 view .LVU92
.LBB2524:
	.loc 9 265 5 view .LVU93
# /usr/include/c++/16/cmath:265:   { return __builtin_floorf(__x); }
	.loc 9 265 28 is_stmt 0 view .LVU94
	vrndscaless	xmm0, xmm4, xmm4, 9	# _373, shift_x,
.LVL18:
	.loc 9 265 28 view .LVU95
.LBE2524:
.LBE2523:
# src/opt17_ilp_only.cpp:45:         p.sx = static_cast<int>(std::floor(shift_x));
	.loc 1 45 16 discriminator 1 view .LVU96
	vcvttss2si	r10d, xmm0	# _8, _373
.LVL19:
	.loc 1 46 9 is_stmt 1 view .LVU97
.LBB2525:
.LBI2525:
	.loc 9 264 3 view .LVU98
.LBB2526:
	.loc 9 265 5 view .LVU99
# /usr/include/c++/16/cmath:265:   { return __builtin_floorf(__x); }
	.loc 9 265 28 is_stmt 0 view .LVU100
	vrndscaless	xmm1, xmm2, xmm2, 9	# _375, shift_y,
.LVL20:
	.loc 9 265 28 view .LVU101
.LBE2526:
.LBE2525:
# src/opt17_ilp_only.cpp:46:         p.sy = static_cast<int>(std::floor(shift_y));
	.loc 1 46 16 discriminator 1 view .LVU102
	vcvttss2si	esi, xmm1	# _9, _375
.LVL21:
	.loc 1 47 9 is_stmt 1 view .LVU103
	.loc 1 48 9 view .LVU104
	.loc 1 49 9 view .LVU105
	.loc 1 50 9 view .LVU106
	.loc 1 51 9 view .LVU107
	.loc 1 52 9 view .LVU108
	.loc 1 53 9 view .LVU109
.LBB2527:
.LBI2527:
	.file 10 "/usr/include/c++/16/bits/stl_algobase.h"
	.loc 10 256 5 view .LVU110
.LBE2527:
# src/opt17_ilp_only.cpp:53:         p.x_begin = std::max(0, -p.sx);
	.loc 1 53 33 is_stmt 0 view .LVU111
	mov	eax, r10d	# tmp1709, _8
	neg	eax	# tmp1709
	test	r10d, r10d	# _8
	cmovs	r8d, eax	# tmp1709,, _16
.LVL22:
	.loc 1 54 9 is_stmt 1 view .LVU112
.LBB2528:
.LBI2528:
	.loc 10 232 5 view .LVU113
.LBE2528:
# src/opt17_ilp_only.cpp:54:         p.x_end   = std::min(w, w - p.sx - 1);
	.loc 1 54 35 is_stmt 0 view .LVU114
	mov	eax, DWORD PTR 84[rsp]	# _1, %sfp
	mov	ecx, eax	# _18, _1
	sub	ecx, r10d	# _18, _8
# src/opt17_ilp_only.cpp:54:         p.x_end   = std::min(w, w - p.sx - 1);
	.loc 1 54 42 view .LVU115
	dec	ecx	# _19
.LBB2530:
.LBB2529:
# /usr/include/c++/16/bits/stl_algobase.h:237:       if (__b < __a)
	.loc 10 237 7 view .LVU116
	cmp	ecx, eax	# _19, _1
	cmovg	ecx, eax	# _19,, _276, _1
.LVL23:
	.loc 10 237 7 view .LVU117
.LBE2529:
.LBE2530:
	.loc 1 55 9 is_stmt 1 view .LVU118
.LBB2531:
.LBI2531:
	.loc 10 256 5 view .LVU119
.LBE2531:
# src/opt17_ilp_only.cpp:55:         p.y_begin = std::max(0, -p.sy);
	.loc 1 55 33 is_stmt 0 view .LVU120
	mov	eax, esi	# tmp1711, _9
	xor	r9d, r9d	# _21
	neg	eax	# tmp1711
	test	esi, esi	# _9
	cmovs	r9d, eax	# tmp1711,, _21
	.loc 1 56 9 is_stmt 1 view .LVU121
.LVL24:
.LBB2532:
.LBI2532:
	.loc 10 232 5 view .LVU122
.LBE2532:
# src/opt17_ilp_only.cpp:56:         p.y_end   = std::min(h, h - p.sy - 1);
	.loc 1 56 35 is_stmt 0 view .LVU123
	mov	eax, r14d	# _23, _2
	sub	eax, esi	# _23, _9
# src/opt17_ilp_only.cpp:56:         p.y_end   = std::min(h, h - p.sy - 1);
	.loc 1 56 42 view .LVU124
	dec	eax	# _24
.LBB2534:
.LBB2533:
# /usr/include/c++/16/bits/stl_algobase.h:237:       if (__b < __a)
	.loc 10 237 7 view .LVU125
	cmp	eax, r14d	# _24, _2
	cmovg	eax, r14d	# _24,, _24, _2
	mov	r11d, eax	# _277, _24
.LVL25:
	.loc 10 237 7 view .LVU126
.LBE2533:
.LBE2534:
	.loc 1 57 9 is_stmt 1 view .LVU127
.LBB2535:
.LBI2535:
	.loc 2 1385 7 view .LVU128
	.loc 2 1385 7 is_stmt 0 view .LVU129
.LBE2535:
	.loc 1 58 9 is_stmt 1 view .LVU130
# src/opt17_ilp_only.cpp:58:         if (p.x_begin >= p.x_end || p.y_begin >= p.y_end) continue;
	.loc 1 58 34 is_stmt 0 discriminator 1 view .LVU131
	cmp	r8d, ecx	# _16, _276
	jge	.L12	#,
	.loc 1 58 34 discriminator 1 view .LVU132
	cmp	r9d, eax	# _21, _277
	jge	.L12	#,
# src/opt17_ilp_only.cpp:48:         float dy = shift_y - p.sy;
	.loc 1 48 15 view .LVU133
	vsubss	xmm5, xmm2, xmm1	# dy, shift_y, _375
.LVL26:
# src/opt17_ilp_only.cpp:47:         float dx = shift_x - p.sx;
	.loc 1 47 15 view .LVU134
	vsubss	xmm3, xmm4, xmm0	# dx, shift_x, _373
.LVL27:
.LBB2538:
.LBB2536:
# /usr/include/c++/16/bits/stl_vector.h:1386:       { return _M_data_ptr(this->_M_impl._M_start); }
	.loc 2 1386 42 view .LVU135
	mov	rdi, QWORD PTR 16[rbx]	# _352, MEM[(unsigned char * *)SR.301_560 + 16B]
.LBE2536:
.LBE2538:
.LBB2539:
.LBB2540:
# /usr/include/c++/16/bits/stl_vector.h:1408: 	if (this->_M_impl._M_finish != this->_M_impl._M_end_of_storage)
	.loc 2 1408 2 view .LVU136
	mov	rax, QWORD PTR 112[rsp]	# __new_finish, %sfp
.LBE2540:
.LBE2539:
# src/opt17_ilp_only.cpp:49:         p.A = (1.0f - dx) * (1.0f - dy);
	.loc 1 49 21 view .LVU137
	vaddss	xmm0, xmm0, DWORD PTR .LC1[rip]	# _776, _373,
.LVL28:
# src/opt17_ilp_only.cpp:49:         p.A = (1.0f - dx) * (1.0f - dy);
	.loc 1 49 35 view .LVU138
	vaddss	xmm1, xmm1, DWORD PTR .LC1[rip]	# _814, _375,
.LVL29:
.LBB2624:
.LBB2537:
# /usr/include/c++/16/bits/stl_vector.h:1386:       { return _M_data_ptr(this->_M_impl._M_start); }
	.loc 2 1386 42 view .LVU139
	mov	QWORD PTR 240[rsp], rdi	# %sfp, _352
.LBE2537:
.LBE2624:
# src/opt17_ilp_only.cpp:49:         p.A = (1.0f - dx) * (1.0f - dy);
	.loc 1 49 21 view .LVU140
	vsubss	xmm0, xmm0, xmm4	# _10, _776, shift_x
.LVL30:
# src/opt17_ilp_only.cpp:49:         p.A = (1.0f - dx) * (1.0f - dy);
	.loc 1 49 35 view .LVU141
	vsubss	xmm1, xmm1, xmm2	# _11, _814, shift_y
.LVL31:
# src/opt17_ilp_only.cpp:49:         p.A = (1.0f - dx) * (1.0f - dy);
	.loc 1 49 27 view .LVU142
	vmulss	xmm2, xmm0, xmm1	# _12, _10, _11
.LVL32:
# src/opt17_ilp_only.cpp:50:         p.B = dx           * (1.0f - dy);
	.loc 1 50 28 view .LVU143
	vmulss	xmm1, xmm1, xmm3	# _13, _11, dx
# src/opt17_ilp_only.cpp:51:         p.C = (1.0f - dx) * dy;
	.loc 1 51 27 view .LVU144
	vmulss	xmm0, xmm0, xmm5	# _14, _10, dy
# src/opt17_ilp_only.cpp:52:         p.D = dx           * dy;
	.loc 1 52 28 view .LVU145
	vmulss	xmm3, xmm3, xmm5	# _15, dx, dy
.LVL33:
	.loc 1 59 9 is_stmt 1 view .LVU146
.LBB2625:
.LBI2539:
	.loc 2 1406 7 view .LVU147
.LBB2621:
# /usr/include/c++/16/bits/stl_vector.h:1408: 	if (this->_M_impl._M_finish != this->_M_impl._M_end_of_storage)
	.loc 2 1408 2 is_stmt 0 view .LVU148
	cmp	rax, r13	# __new_finish, params$_M_end_of_storage
	je	.L13	#,
.LVL34:
.LBB2541:
.LBI2541:
	.loc 8 705 2 is_stmt 1 view .LVU149
.LBB2542:
.LBI2542:
	.loc 6 201 2 view .LVU150
.LBB2543:
# /usr/include/c++/16/bits/new_allocator.h:203: 	{ ::new((void *)__p) _Up(std::forward<_Args>(__args)...); }
	.loc 6 203 4 is_stmt 0 discriminator 1 view .LVU151
	vunpcklps	xmm0, xmm0, xmm3	# tmp978, _14, _15
	vunpcklps	xmm2, xmm2, xmm1	# tmp979, _12, _13
	mov	DWORD PTR [rax], r10d	# params$_M_finish_238->sx, _8
.LBE2543:
.LBE2542:
.LBE2541:
# /usr/include/c++/16/bits/stl_vector.h:1413: 	    ++this->_M_impl._M_finish;
	.loc 2 1413 6 view .LVU152
	add	rax, 48	# __new_finish,
.LBB2546:
.LBB2545:
.LBB2544:
# /usr/include/c++/16/bits/new_allocator.h:203: 	{ ::new((void *)__p) _Up(std::forward<_Args>(__args)...); }
	.loc 6 203 4 discriminator 1 view .LVU153
	vmovlhps	xmm2, xmm2, xmm0	# _1215, tmp979, tmp978
	mov	DWORD PTR -44[rax], esi	# params$_M_finish_238->sy, _9
	vmovups	XMMWORD PTR -40[rax], xmm2	# MEM <vector(4) float> [(float *)params$_M_finish_238 + 8B], _1215
	mov	DWORD PTR -24[rax], r8d	# params$_M_finish_238->x_begin, _16
	mov	DWORD PTR -20[rax], ecx	# params$_M_finish_238->x_end, _276
	mov	DWORD PTR -16[rax], r9d	# params$_M_finish_238->y_begin, _21
	mov	DWORD PTR -12[rax], r11d	# params$_M_finish_238->y_end, _277
	mov	QWORD PTR -8[rax], rdi	# MEM <const unsigned char *> [(struct SubParams *)params$_M_finish_238 + 40B], _352
.LVL35:
	.loc 6 203 4 discriminator 1 view .LVU154
.LBE2544:
.LBE2545:
.LBE2546:
# /usr/include/c++/16/bits/stl_vector.h:1413: 	    ++this->_M_impl._M_finish;
	.loc 2 1413 6 view .LVU155
	mov	QWORD PTR 112[rsp], rax	# %sfp, __new_finish
.LVL36:
.L12:
	.loc 2 1413 6 view .LVU156
.LBE2621:
.LBE2625:
.LBE2522:
	.loc 1 41 5 is_stmt 1 discriminator 4 view .LVU157
.LBB2628:
.LBI2628:
	.loc 3 1101 7 view .LVU158
.LBB2629:
# /usr/include/c++/16/bits/stl_iterator.h:1103: 	++_M_current;
	.loc 3 1103 2 is_stmt 0 view .LVU159
	add	rbx, 48	# SR.301,
.LVL37:
	.loc 3 1103 2 view .LVU160
.LBE2629:
.LBE2628:
	.loc 1 41 22 is_stmt 1 discriminator 5 view .LVU161
# src/opt17_ilp_only.cpp:41:     for (auto& sub : subapertures) {
	.loc 1 41 22 is_stmt 0 discriminator 6 view .LVU162
	cmp	rbx, QWORD PTR 280[rsp]	# SR.301, %sfp
	jne	.L17	#,
	.loc 1 41 22 discriminator 6 view .LVU163
.LBE2636:
.LBB2637:
.LBB2638:
.LBB2639:
# /usr/include/c++/16/bits/stl_vector.h:375: 	ptrdiff_t __n = _M_impl._M_end_of_storage - _M_impl._M_start;
	.loc 2 375 44 view .LVU164
	mov	rax, r13	# _270, params$_M_end_of_storage
	sub	rax, r15	# _270, params$_M_start
	mov	QWORD PTR 40[rsp], rax	# %sfp, _270
	mov	rax, QWORD PTR 112[rsp]	# __new_finish, %sfp
	mov	QWORD PTR 112[rsp], r15	# %sfp, params$_M_start
	mov	QWORD PTR 152[rsp], rax	# %sfp, __new_finish
.LVL38:
.L9:
	.loc 2 375 44 view .LVU165
.LBE2639:
.LBE2638:
.LBE2637:
	.loc 1 62 5 is_stmt 1 view .LVU166
.LBB2654:
.LBI2654:
	.loc 5 168 7 view .LVU167
.LBB2655:
.LBI2655:
	.loc 6 88 7 view .LVU168
	.loc 6 88 7 is_stmt 0 view .LVU169
.LBE2655:
.LBE2654:
.LBB2656:
.LBI2656:
	.loc 2 589 7 is_stmt 1 view .LVU170
.LBB2657:
.LBI2657:
	.loc 2 2203 7 view .LVU171
.LBB2658:
.LBB2659:
.LBI2659:
	.loc 5 172 7 view .LVU172
.LBB2660:
.LBI2660:
	.loc 6 92 7 view .LVU173
	.loc 6 92 7 is_stmt 0 view .LVU174
.LBE2660:
.LBE2659:
.LBB2661:
.LBI2661:
	.loc 5 189 7 is_stmt 1 view .LVU175
.LBB2662:
.LBI2662:
	.loc 6 104 7 view .LVU176
.LBE2662:
.LBE2661:
# /usr/include/c++/16/bits/stl_vector.h:2205: 	if (__n > _S_max_size(_Tp_alloc_type(__a)))
	.loc 2 2205 2 is_stmt 0 discriminator 3 view .LVU177
	mov	rax, r12	# tmp1815, _4
	shr	rax, 61	# tmp1815,
	jne	.L158	#,
.LVL39:
	.loc 2 2205 2 discriminator 3 view .LVU178
.LBE2658:
.LBE2657:
.LBB2664:
.LBI2664:
	.loc 2 339 7 is_stmt 1 view .LVU179
.LBB2665:
.LBI2665:
	.loc 2 152 2 view .LVU180
.LBB2666:
.LBI2666:
	.loc 5 172 7 view .LVU181
.LBB2667:
.LBI2667:
	.loc 6 92 7 view .LVU182
	.loc 6 92 7 is_stmt 0 view .LVU183
.LBE2667:
.LBE2666:
.LBB2668:
.LBI2668:
	.loc 2 105 2 is_stmt 1 view .LVU184
	.loc 2 105 2 is_stmt 0 view .LVU185
.LBE2668:
.LBE2665:
.LBB2669:
.LBI2669:
	.loc 2 405 7 is_stmt 1 view .LVU186
.LBB2670:
.LBB2671:
.LBI2671:
	.loc 2 386 7 view .LVU187
.LBB2672:
# /usr/include/c++/16/bits/stl_vector.h:389: 	return __n != 0 ? _Tr::allocate(_M_impl, __n) : pointer();
	.loc 2 389 18 is_stmt 0 view .LVU188
	test	r12, r12	# _4
	je	.L83	#,
.LVL40:
.LBB2673:
.LBI2673:
	.loc 8 637 7 is_stmt 1 view .LVU189
.LBB2674:
.LBI2674:
	.loc 6 129 7 view .LVU190
.LBB2675:
# /usr/include/c++/16/bits/new_allocator.h:162: 	  return static_cast<_Tp*>(_GLIBCXX_OPERATOR_NEW(__n * sizeof(_Tp)));
	.loc 6 162 68 is_stmt 0 view .LVU191
	sal	r12, 2	# _4,
.LVL41:
	.loc 6 162 68 view .LVU192
	mov	rdi, r12	#, _4
.LEHB1:
	call	"_Znwm"@PLT	#
.LVL42:
.LEHE1:
.LBE2675:
.LBE2674:
.LBE2673:
.LBE2672:
.LBE2671:
.LBE2670:
.LBE2669:
.LBE2664:
.LBB2687:
.LBB2688:
.LBB2689:
.LBB2690:
.LBB2691:
.LBB2692:
.LBB2693:
.LBB2694:
# /usr/include/c++/16/bits/stl_construct.h:133:       ::new(static_cast<void*>(__p)) _Tp(std::forward<_Args>(__args)...);
	.file 11 "/usr/include/c++/16/bits/stl_construct.h"
	.loc 11 133 7 discriminator 1 view .LVU193
	mov	rdx, r12	#, _4
	xor	esi, esi	#
	mov	rdi, rax	#, _530
.LBE2694:
.LBE2693:
.LBE2692:
.LBE2691:
.LBE2690:
.LBE2689:
.LBE2688:
.LBE2687:
.LBB2704:
.LBB2685:
.LBB2683:
.LBB2681:
.LBB2679:
.LBB2678:
.LBB2677:
.LBB2676:
# /usr/include/c++/16/bits/new_allocator.h:162: 	  return static_cast<_Tp*>(_GLIBCXX_OPERATOR_NEW(__n * sizeof(_Tp)));
	.loc 6 162 68 view .LVU194
	mov	QWORD PTR 72[rsp], rax	# %sfp, _530
.LVL43:
	.loc 6 162 68 view .LVU195
.LBE2676:
.LBE2677:
.LBE2678:
.LBE2679:
.LBE2681:
.LBE2683:
.LBE2685:
.LBE2704:
.LBB2705:
.LBI2687:
	.loc 2 1987 7 is_stmt 1 view .LVU196
.LBB2703:
.LBI2688:
	.file 12 "/usr/include/c++/16/bits/stl_uninitialized.h"
	.loc 12 771 5 view .LVU197
.LBB2702:
.LBI2689:
	.loc 12 550 5 view .LVU198
.LBB2701:
.LBB2700:
.LBI2691:
	.loc 12 477 5 view .LVU199
.LBB2699:
.LBB2696:
.LBI2696:
	.loc 12 113 7 view .LVU200
	.loc 12 113 7 is_stmt 0 view .LVU201
.LBE2696:
	.loc 12 485 2 is_stmt 1 discriminator 2 view .LVU202
	.loc 12 491 7 discriminator 2 view .LVU203
.LBB2697:
.LBB2695:
# /usr/include/c++/16/bits/stl_construct.h:133:       ::new(static_cast<void*>(__p)) _Tp(std::forward<_Args>(__args)...);
	.loc 11 133 7 is_stmt 0 discriminator 1 view .LVU204
	call	"memset"@PLT	#
.LVL44:
.L18:
	.loc 11 133 7 discriminator 1 view .LVU205
.LBE2695:
.LBE2697:
.LBB2698:
.LBI2698:
	.loc 12 118 7 is_stmt 1 view .LVU206
	.loc 12 118 7 is_stmt 0 view .LVU207
.LBE2698:
.LBE2699:
.LBE2700:
.LBE2701:
.LBE2702:
.LBE2703:
.LBE2705:
.LBE2656:
.LBB2708:
.LBI2708:
	.loc 5 189 7 is_stmt 1 view .LVU208
.LBB2709:
.LBI2709:
	.loc 6 104 7 view .LVU209
	.loc 6 104 7 is_stmt 0 view .LVU210
.LBE2709:
.LBE2708:
	.loc 1 63 5 is_stmt 1 view .LVU211
.LBB2710:
	.loc 1 64 9 view .LVU212
.LBB2711:
.LBI2711:
	.loc 5 168 7 view .LVU213
.LBB2712:
.LBI2712:
	.loc 6 88 7 view .LVU214
	.loc 6 88 7 is_stmt 0 view .LVU215
.LBE2712:
.LBE2711:
# src/opt17_ilp_only.cpp:64:         std::vector<int> diff((width + 1) * (height + 1), 0);
	.loc 1 64 38 discriminator 1 view .LVU216
	mov	rax, QWORD PTR 56[rsp]	# _370, %sfp
# src/opt17_ilp_only.cpp:64:         std::vector<int> diff((width + 1) * (height + 1), 0);
	.loc 1 64 53 discriminator 1 view .LVU217
	mov	rbx, QWORD PTR 256[rsp]	# _954, %sfp
# src/opt17_ilp_only.cpp:64:         std::vector<int> diff((width + 1) * (height + 1), 0);
	.loc 1 64 38 discriminator 1 view .LVU218
	lea	r15, 1[rax]	# _25,
# src/opt17_ilp_only.cpp:64:         std::vector<int> diff((width + 1) * (height + 1), 0);
	.loc 1 64 53 discriminator 1 view .LVU219
	inc	rbx	# _954
# src/opt17_ilp_only.cpp:64:         std::vector<int> diff((width + 1) * (height + 1), 0);
	.loc 1 64 60 discriminator 1 view .LVU220
	imul	rbx, r15	# _378, _25
.LVL45:
.LBB2713:
.LBI2713:
	.loc 2 589 7 is_stmt 1 view .LVU221
.LBB2714:
.LBI2714:
	.loc 2 2203 7 view .LVU222
.LBB2715:
.LBB2716:
.LBI2716:
	.loc 5 172 7 view .LVU223
.LBB2717:
.LBI2717:
	.loc 6 92 7 view .LVU224
	.loc 6 92 7 is_stmt 0 view .LVU225
.LBE2717:
.LBE2716:
.LBB2718:
.LBI2718:
	.loc 5 189 7 is_stmt 1 view .LVU226
.LBB2719:
.LBI2719:
	.loc 6 104 7 view .LVU227
.LBE2719:
.LBE2718:
# /usr/include/c++/16/bits/stl_vector.h:2205: 	if (__n > _S_max_size(_Tp_alloc_type(__a)))
	.loc 2 2205 2 is_stmt 0 discriminator 3 view .LVU228
	mov	rax, rbx	# tmp1816, _378
	shr	rax, 61	# tmp1816,
	jne	.L159	#,
.LVL46:
	.loc 2 2205 2 discriminator 3 view .LVU229
.LBE2715:
.LBE2714:
.LBB2721:
.LBI2721:
	.loc 2 339 7 is_stmt 1 view .LVU230
.LBB2722:
.LBI2722:
	.loc 2 152 2 view .LVU231
.LBB2723:
.LBI2723:
	.loc 5 172 7 view .LVU232
.LBB2724:
.LBI2724:
	.loc 6 92 7 view .LVU233
	.loc 6 92 7 is_stmt 0 view .LVU234
.LBE2724:
.LBE2723:
.LBB2725:
.LBI2725:
	.loc 2 105 2 is_stmt 1 view .LVU235
	.loc 2 105 2 is_stmt 0 view .LVU236
.LBE2725:
.LBE2722:
.LBB2726:
.LBI2726:
	.loc 2 405 7 is_stmt 1 view .LVU237
.LBB2727:
.LBB2728:
.LBI2728:
	.loc 2 386 7 view .LVU238
.LBB2729:
# /usr/include/c++/16/bits/stl_vector.h:389: 	return __n != 0 ? _Tr::allocate(_M_impl, __n) : pointer();
	.loc 2 389 18 is_stmt 0 view .LVU239
	test	rbx, rbx	# _378
	je	.L168	#,
.LVL47:
.LBB2730:
.LBI2730:
	.loc 8 637 7 is_stmt 1 view .LVU240
.LBB2731:
.LBI2731:
	.loc 6 129 7 view .LVU241
.LBB2732:
# /usr/include/c++/16/bits/new_allocator.h:162: 	  return static_cast<_Tp*>(_GLIBCXX_OPERATOR_NEW(__n * sizeof(_Tp)));
	.loc 6 162 68 is_stmt 0 view .LVU242
	sal	rbx, 2	# _378,
.LVL48:
	.loc 6 162 68 view .LVU243
	mov	rdi, rbx	#, _378
.LEHB2:
	call	"_Znwm"@PLT	#
.LVL49:
	mov	rdi, rax	# _376, _376
.LVL50:
	.loc 6 162 68 view .LVU244
.LBE2732:
.LBE2731:
.LBE2730:
.LBE2729:
.LBE2728:
.LBE2727:
.LBE2726:
.LBE2721:
.LBB2737:
.LBI2737:
	.loc 2 1987 7 is_stmt 1 view .LVU245
.LBB2738:
.LBI2738:
	.loc 12 771 5 view .LVU246
.LBB2739:
.LBI2739:
	.loc 12 550 5 view .LVU247
.LBB2740:
.LBB2741:
.LBI2741:
	.loc 12 477 5 view .LVU248
.LBB2742:
.LBB2743:
.LBI2743:
	.loc 12 113 7 view .LVU249
	.loc 12 113 7 is_stmt 0 view .LVU250
.LBE2743:
	.loc 12 485 2 is_stmt 1 discriminator 2 view .LVU251
	.loc 12 491 7 discriminator 2 view .LVU252
.LBB2744:
.LBB2745:
# /usr/include/c++/16/bits/stl_construct.h:133:       ::new(static_cast<void*>(__p)) _Tp(std::forward<_Args>(__args)...);
	.loc 11 133 7 is_stmt 0 discriminator 1 view .LVU253
	mov	rdx, rbx	#, _378
	xor	esi, esi	#
	call	"memset"@PLT	#
.LVL51:
	.loc 11 133 7 discriminator 1 view .LVU254
.LBE2745:
.LBE2744:
.LBE2742:
.LBE2741:
.LBE2740:
.LBE2739:
.LBE2738:
.LBE2737:
.LBE2713:
.LBB2764:
# src/opt17_ilp_only.cpp:65:         for (const auto& p : params) {
	.loc 1 65 30 discriminator 6 view .LVU255
	mov	rcx, QWORD PTR 152[rsp]	# params$_M_finish, %sfp
.LBE2764:
.LBB2784:
.LBB2760:
.LBB2758:
.LBB2756:
.LBB2754:
.LBB2752:
.LBB2750:
.LBB2747:
.LBB2746:
# /usr/include/c++/16/bits/stl_construct.h:133:       ::new(static_cast<void*>(__p)) _Tp(std::forward<_Args>(__args)...);
	.loc 11 133 7 discriminator 1 view .LVU256
	mov	rdi, rax	# _376,
.LVL52:
	.loc 11 133 7 discriminator 1 view .LVU257
.LBE2746:
.LBE2747:
.LBB2748:
.LBI2748:
	.loc 12 118 7 is_stmt 1 view .LVU258
	.loc 12 118 7 is_stmt 0 view .LVU259
.LBE2748:
.LBE2750:
.LBE2752:
.LBE2754:
.LBE2756:
.LBE2758:
.LBE2760:
.LBE2784:
.LBB2785:
.LBI2785:
	.loc 5 189 7 is_stmt 1 view .LVU260
.LBB2786:
.LBI2786:
	.loc 6 104 7 view .LVU261
	.loc 6 104 7 is_stmt 0 view .LVU262
.LBE2786:
.LBE2785:
	.loc 1 65 9 is_stmt 1 view .LVU263
.LBB2788:
.LBB2765:
.LBI2765:
	.loc 2 988 7 view .LVU264
.LBB2766:
.LBI2766:
	.loc 3 1058 7 view .LVU265
	.loc 3 1058 7 is_stmt 0 view .LVU266
.LBE2766:
.LBE2765:
.LBB2768:
.LBI2768:
	.loc 2 1008 7 is_stmt 1 view .LVU267
.LBB2769:
.LBI2769:
	.loc 3 1058 7 view .LVU268
	.loc 3 1058 7 is_stmt 0 view .LVU269
.LBE2769:
.LBE2768:
	.loc 1 65 30 is_stmt 1 discriminator 5 view .LVU270
# src/opt17_ilp_only.cpp:65:         for (const auto& p : params) {
	.loc 1 65 30 is_stmt 0 discriminator 6 view .LVU271
	cmp	QWORD PTR 112[rsp], rcx	# %sfp, params$_M_finish
	je	.L27	#,
.L24:
# src/opt17_ilp_only.cpp:65:         for (const auto& p : params) {
	.loc 1 65 30 view .LVU272
	mov	rax, QWORD PTR 112[rsp]	# SR.303, %sfp
.LVL53:
.L28:
	.loc 1 66 13 is_stmt 1 view .LVU273
# src/opt17_ilp_only.cpp:66:             diff[p.y_begin * (width + 1) + p.x_begin] += 1;
	.loc 1 66 20 is_stmt 0 view .LVU274
	movsxd	rdx, DWORD PTR 32[rax]	# _29, MEM[(int *)SR.303_561 + 32B]
# src/opt17_ilp_only.cpp:66:             diff[p.y_begin * (width + 1) + p.x_begin] += 1;
	.loc 1 66 46 view .LVU275
	movsxd	rsi, DWORD PTR 24[rax]	# _32, MEM[(int *)SR.303_561 + 24B]
.LBB2771:
.LBB2772:
# /usr/include/c++/16/bits/stl_iterator.h:1103: 	++_M_current;
	.loc 3 1103 2 view .LVU276
	add	rax, 48	# SR.303,
.LVL54:
	.loc 3 1103 2 view .LVU277
.LBE2772:
.LBE2771:
# src/opt17_ilp_only.cpp:68:             diff[p.y_end   * (width + 1) + p.x_begin] -= 1;
	.loc 1 68 20 view .LVU278
	movsxd	r8, DWORD PTR -12[rax]	# _45, MEM[(int *)SR.303_561 + 36B]
# src/opt17_ilp_only.cpp:66:             diff[p.y_begin * (width + 1) + p.x_begin] += 1;
	.loc 1 66 28 view .LVU279
	imul	rdx, r15	# _30, _25
.LVL55:
.LBB2773:
.LBI2773:
	.loc 2 1251 7 is_stmt 1 view .LVU280
.LBB2774:
	.loc 2 1253 2 discriminator 2 view .LVU281
	.loc 2 1253 2 is_stmt 0 discriminator 2 view .LVU282
.LBE2774:
.LBE2773:
# src/opt17_ilp_only.cpp:68:             diff[p.y_end   * (width + 1) + p.x_begin] -= 1;
	.loc 1 68 28 view .LVU283
	imul	r8, r15	# _46, _25
# src/opt17_ilp_only.cpp:66:             diff[p.y_begin * (width + 1) + p.x_begin] += 1;
	.loc 1 66 53 view .LVU284
	lea	rcx, [rdx+rsi]	# _33,
# src/opt17_ilp_only.cpp:66:             diff[p.y_begin * (width + 1) + p.x_begin] += 1;
	.loc 1 66 55 discriminator 1 view .LVU285
	inc	DWORD PTR [rdi+rcx*4]	# *_393
	.loc 1 67 13 is_stmt 1 view .LVU286
# src/opt17_ilp_only.cpp:67:             diff[p.y_begin * (width + 1) + p.x_end  ] -= 1;
	.loc 1 67 46 is_stmt 0 view .LVU287
	movsxd	rcx, DWORD PTR -20[rax]	# _40, MEM[(int *)SR.303_561 + 28B]
.LVL56:
.LBB2775:
.LBI2775:
	.loc 2 1251 7 is_stmt 1 view .LVU288
.LBB2776:
	.loc 2 1253 2 discriminator 2 view .LVU289
	.loc 2 1253 2 is_stmt 0 discriminator 2 view .LVU290
.LBE2776:
.LBE2775:
# src/opt17_ilp_only.cpp:67:             diff[p.y_begin * (width + 1) + p.x_end  ] -= 1;
	.loc 1 67 53 view .LVU291
	add	rdx, rcx	# _41, _40
# src/opt17_ilp_only.cpp:67:             diff[p.y_begin * (width + 1) + p.x_end  ] -= 1;
	.loc 1 67 55 discriminator 1 view .LVU292
	dec	DWORD PTR [rdi+rdx*4]	# *_390
	.loc 1 68 13 is_stmt 1 view .LVU293
.LVL57:
.LBB2777:
.LBI2777:
	.loc 2 1251 7 view .LVU294
.LBB2778:
	.loc 2 1253 2 discriminator 2 view .LVU295
	.loc 2 1253 2 is_stmt 0 discriminator 2 view .LVU296
.LBE2778:
.LBE2777:
# src/opt17_ilp_only.cpp:68:             diff[p.y_end   * (width + 1) + p.x_begin] -= 1;
	.loc 1 68 53 view .LVU297
	lea	rdx, [rsi+r8]	# _49,
# src/opt17_ilp_only.cpp:68:             diff[p.y_end   * (width + 1) + p.x_begin] -= 1;
	.loc 1 68 55 discriminator 1 view .LVU298
	dec	DWORD PTR [rdi+rdx*4]	# *_388
	.loc 1 69 13 is_stmt 1 view .LVU299
.LVL58:
.LBB2779:
.LBI2779:
	.loc 2 1251 7 view .LVU300
.LBB2780:
	.loc 2 1253 2 discriminator 2 view .LVU301
	.loc 2 1253 2 is_stmt 0 discriminator 2 view .LVU302
.LBE2780:
.LBE2779:
# src/opt17_ilp_only.cpp:69:             diff[p.y_end   * (width + 1) + p.x_end  ] += 1;
	.loc 1 69 53 view .LVU303
	lea	rdx, [rcx+r8]	# _57,
# src/opt17_ilp_only.cpp:69:             diff[p.y_end   * (width + 1) + p.x_end  ] += 1;
	.loc 1 69 55 discriminator 1 view .LVU304
	inc	DWORD PTR [rdi+rdx*4]	# *_247
	.loc 1 65 9 is_stmt 1 discriminator 4 view .LVU305
.LVL59:
.LBB2781:
.LBI2771:
	.loc 3 1101 7 view .LVU306
	.loc 3 1101 7 is_stmt 0 view .LVU307
.LBE2781:
	.loc 1 65 30 is_stmt 1 discriminator 5 view .LVU308
# src/opt17_ilp_only.cpp:65:         for (const auto& p : params) {
	.loc 1 65 30 is_stmt 0 discriminator 6 view .LVU309
	cmp	rax, QWORD PTR 152[rsp]	# SR.303, %sfp
	jne	.L28	#,
.LVL60:
	.loc 1 65 30 discriminator 6 view .LVU310
.LBE2788:
.LBB2789:
	.loc 1 71 27 is_stmt 1 discriminator 2 view .LVU311
	test	r14d, r14d	# _2
	jle	.L34	#,
	mov	ecx, DWORD PTR 84[rsp]	#, %sfp
	test	ecx, ecx	#
	jle	.L34	#,
.LVL61:
.L26:
.LBB2790:
.LBB2791:
	.loc 1 73 31 discriminator 2 view .LVU312
	mov	rax, QWORD PTR 56[rsp]	# _370, %sfp
.LBE2791:
# src/opt17_ilp_only.cpp:72:             int row = 0;
	.loc 1 72 17 is_stmt 0 view .LVU313
	xor	ecx, ecx	# row
	lea	edx, -1[rax]	# _972,
.LBE2790:
.LBE2789:
.LBB2800:
# src/opt17_ilp_only.cpp:65:         for (const auto& p : params) {
	.loc 1 65 30 view .LVU314
	xor	eax, eax	# ivtmp.591
	lea	rsi, 1[rdx]	# _933,
.LVL62:
.L30:
	.loc 1 65 30 view .LVU315
.LBE2800:
.LBB2801:
.LBB2796:
.LBB2792:
	.loc 1 74 17 is_stmt 1 view .LVU316
# src/opt17_ilp_only.cpp:75:                 counts[y * w + x] = row + (y > 0 ? counts[(y - 1) * w + x] : 0);
	.loc 1 75 35 is_stmt 0 discriminator 5 view .LVU317
	mov	rdx, QWORD PTR 72[rsp]	# _530, %sfp
# src/opt17_ilp_only.cpp:74:                 row += diff[y * (width + 1) + x];
	.loc 1 74 21 discriminator 1 view .LVU318
	add	ecx, DWORD PTR [rdi+rax*4]	# row, MEM[(value_type &)_905 + ivtmp.591_976 * 4]
.LVL63:
	.loc 1 75 17 is_stmt 1 view .LVU319
# src/opt17_ilp_only.cpp:75:                 counts[y * w + x] = row + (y > 0 ? counts[(y - 1) * w + x] : 0);
	.loc 1 75 35 is_stmt 0 discriminator 5 view .LVU320
	mov	DWORD PTR [rdx+rax*4], ecx	# MEM[(value_type &)_574 + ivtmp.591_976 * 4], row
	.loc 1 73 13 is_stmt 1 discriminator 1 view .LVU321
.LVL64:
	.loc 1 73 31 discriminator 2 view .LVU322
	inc	rax	# ivtmp.591
.LVL65:
	.loc 1 73 31 is_stmt 0 discriminator 2 view .LVU323
	cmp	rsi, rax	# _933, ivtmp.591
	jne	.L30	#,
.LBE2792:
.LBE2796:
	.loc 1 71 9 is_stmt 1 discriminator 1 view .LVU324
.LVL66:
	.loc 1 71 27 discriminator 2 view .LVU325
	cmp	r14d, 1	# _2,
	jle	.L31	#,
	mov	eax, DWORD PTR 84[rsp]	# _693, %sfp
	sal	r15, 2	# _884,
.LBB2797:
.LBB2793:
# src/opt17_ilp_only.cpp:73:             for (int x = 0; x < w; ++x) {
	.loc 1 73 31 is_stmt 0 discriminator 2 view .LVU326
	xor	r11d, r11d	# ivtmp.586
.LBE2793:
.LBE2797:
# src/opt17_ilp_only.cpp:71:         for (int y = 0; y < h; ++y) {
	.loc 1 71 18 view .LVU327
	mov	r10d, 1	# y,
	lea	rdx, [rdi+r15]	# ivtmp.585,
	lea	r8, 0[0+rax*4]	# _692,
	mov	rax, QWORD PTR 72[rsp]	# _530, %sfp
	lea	r9, [rax+r8]	# ivtmp.588,
.LVL67:
.L33:
.LBB2798:
.LBB2794:
	.loc 1 73 31 is_stmt 1 discriminator 2 view .LVU328
	mov	rcx, QWORD PTR 72[rsp]	# _530, %sfp
	movsxd	rax, r11d	# _139, ivtmp.586
	add	r11d, DWORD PTR 56[rsp]	# ivtmp.586, %sfp
.LBE2794:
# src/opt17_ilp_only.cpp:72:             int row = 0;
	.loc 1 72 17 is_stmt 0 view .LVU329
	mov	QWORD PTR 272[rsp], rdi	# %sfp, _376
	lea	rax, [rcx+rax*4]	# _1355,
	xor	ecx, ecx	# row
	mov	QWORD PTR 280[rsp], rax	# %sfp, _1355
.LBE2798:
# src/opt17_ilp_only.cpp:71:         for (int y = 0; y < h; ++y) {
	.loc 1 71 18 view .LVU330
	xor	eax, eax	# ivtmp.572
.LVL68:
.L32:
.LBB2799:
.LBB2795:
	.loc 1 74 17 is_stmt 1 view .LVU331
# src/opt17_ilp_only.cpp:75:                 counts[y * w + x] = row + (y > 0 ? counts[(y - 1) * w + x] : 0);
	.loc 1 75 41 is_stmt 0 discriminator 4 view .LVU332
	mov	rdi, QWORD PTR 280[rsp]	# _1355, %sfp
# src/opt17_ilp_only.cpp:74:                 row += diff[y * (width + 1) + x];
	.loc 1 74 21 discriminator 1 view .LVU333
	add	ecx, DWORD PTR [rdx+rax*4]	# row, MEM[(value_type &)_167 + ivtmp.572_177 * 4]
.LVL69:
	.loc 1 75 17 is_stmt 1 view .LVU334
	.loc 1 73 13 discriminator 1 view .LVU335
	.loc 1 73 31 discriminator 2 view .LVU336
# src/opt17_ilp_only.cpp:75:                 counts[y * w + x] = row + (y > 0 ? counts[(y - 1) * w + x] : 0);
	.loc 1 75 41 is_stmt 0 discriminator 4 view .LVU337
	mov	edi, DWORD PTR [rdi+rax*4]	# tmp2025, MEM[(value_type &)_1355 + ivtmp.572_177 * 4]
	add	edi, ecx	# tmp2025, row
	mov	DWORD PTR [r9+rax*4], edi	# MEM[(value_type &)_141 + ivtmp.572_177 * 4], tmp2025
# src/opt17_ilp_only.cpp:73:             for (int x = 0; x < w; ++x) {
	.loc 1 73 31 discriminator 2 view .LVU338
	inc	rax	# ivtmp.572
.LVL70:
	.loc 1 73 31 discriminator 2 view .LVU339
	cmp	rax, rsi	# ivtmp.572, _933
	jne	.L32	#,
.LBE2795:
.LBE2799:
# src/opt17_ilp_only.cpp:71:         for (int y = 0; y < h; ++y) {
	.loc 1 71 9 discriminator 1 view .LVU340
	inc	r10d	# y
.LVL71:
	.loc 1 71 9 discriminator 1 view .LVU341
	mov	rdi, QWORD PTR 272[rsp]	# _376, %sfp
	.loc 1 71 9 is_stmt 1 discriminator 1 view .LVU342
.LVL72:
	.loc 1 71 27 discriminator 2 view .LVU343
	add	rdx, r15	# ivtmp.585, _884
	add	r9, r8	# ivtmp.588, _692
	cmp	r14d, r10d	# _2, y
	jg	.L33	#,
.LVL73:
.L34:
	.loc 1 71 27 is_stmt 0 discriminator 2 view .LVU344
.LBE2801:
.LBB2802:
.LBI2802:
	.loc 2 790 7 is_stmt 1 view .LVU345
.LBB2803:
.LBI2803:
	.loc 2 307 7 view .LVU346
	.loc 2 307 7 is_stmt 0 view .LVU347
.LBE2803:
.LBB2804:
.LBI2804:
	.loc 8 1082 5 is_stmt 1 view .LVU348
	.loc 8 1082 5 is_stmt 0 view .LVU349
.LBE2804:
.LBB2805:
.LBI2805:
	.loc 2 373 7 is_stmt 1 view .LVU350
.LBB2806:
.LBB2807:
.LBI2807:
	.loc 2 394 7 view .LVU351
.LBB2808:
# /usr/include/c++/16/bits/stl_vector.h:397: 	if (__p)
	.loc 2 397 2 is_stmt 0 view .LVU352
	test	rdi, rdi	# _376
	je	.L25	#,
.LVL74:
.L31:
.LBB2809:
.LBI2809:
	.loc 8 688 7 is_stmt 1 view .LVU353
.LBB2810:
.LBI2810:
	.loc 6 167 7 view .LVU354
.LBB2811:
# /usr/include/c++/16/bits/new_allocator.h:183: 	_GLIBCXX_OPERATOR_DELETE(_GLIBCXX_SIZED_DEALLOC(__p, __n));
	.loc 6 183 59 is_stmt 0 view .LVU355
	mov	rsi, rbx	#, _378
	call	"_ZdlPvm"@PLT	#
.LVL75:
.L25:
	.loc 6 183 59 view .LVU356
.LBE2811:
.LBE2810:
.LBE2809:
.LBE2808:
.LBE2807:
.LBE2806:
.LBB2812:
.LBI2812:
	.loc 2 139 14 is_stmt 1 view .LVU357
.LBB2813:
.LBI2813:
	.loc 5 189 7 view .LVU358
.LBB2814:
.LBI2814:
	.loc 6 104 7 view .LVU359
	.loc 6 104 7 is_stmt 0 view .LVU360
.LBE2814:
.LBE2813:
.LBE2812:
.LBE2805:
.LBE2802:
.LBE2710:
	.loc 1 80 5 is_stmt 1 view .LVU361
	.loc 1 81 5 view .LVU362
	.loc 1 83 5 view .LVU363
.LBB2823:
.LBI2823:
	.loc 5 168 7 view .LVU364
.LBB2824:
.LBI2824:
	.loc 6 88 7 view .LVU365
	.loc 6 88 7 is_stmt 0 view .LVU366
.LBE2824:
.LBE2823:
.LBB2825:
.LBI2825:
	.loc 2 576 7 is_stmt 1 view .LVU367
.LBB2826:
.LBI2826:
	.loc 2 2203 7 view .LVU368
.LBB2827:
.LBI2827:
	.loc 5 172 7 view .LVU369
.LBB2828:
.LBI2828:
	.loc 6 92 7 view .LVU370
	.loc 6 92 7 is_stmt 0 view .LVU371
.LBE2828:
.LBE2827:
.LBB2829:
.LBI2829:
	.loc 5 189 7 is_stmt 1 view .LVU372
.LBB2830:
.LBI2830:
	.loc 6 104 7 view .LVU373
	.loc 6 104 7 is_stmt 0 view .LVU374
.LBE2830:
.LBE2829:
.LBE2826:
.LBB2831:
.LBI2831:
	.loc 2 339 7 is_stmt 1 view .LVU375
.LBB2832:
.LBI2832:
	.loc 2 152 2 view .LVU376
.LBB2833:
.LBI2833:
	.loc 5 172 7 view .LVU377
.LBB2834:
.LBI2834:
	.loc 6 92 7 view .LVU378
	.loc 6 92 7 is_stmt 0 view .LVU379
.LBE2834:
.LBE2833:
.LBB2835:
.LBI2835:
	.loc 2 105 2 is_stmt 1 view .LVU380
	.loc 2 105 2 is_stmt 0 view .LVU381
.LBE2835:
.LBE2832:
.LBB2836:
.LBI2836:
	.loc 2 405 7 is_stmt 1 view .LVU382
.LBB2837:
.LBI2837:
	.loc 2 386 7 view .LVU383
.LBB2838:
.LBB2839:
.LBI2839:
	.loc 8 637 7 view .LVU384
.LBB2840:
.LBI2840:
	.loc 6 129 7 view .LVU385
.LBB2841:
# /usr/include/c++/16/bits/new_allocator.h:162: 	  return static_cast<_Tp*>(_GLIBCXX_OPERATOR_NEW(__n * sizeof(_Tp)));
	.loc 6 162 68 is_stmt 0 view .LVU386
	mov	edi, 195072	#,
	call	"_Znwm"@PLT	#
.LVL76:
.LEHE2:
.LBE2841:
.LBE2840:
.LBE2839:
.LBE2838:
.LBE2837:
.LBE2836:
.LBE2831:
.LBB2848:
.LBB2849:
.LBB2850:
.LBB2851:
.LBB2852:
.LBB2853:
.LBB2854:
.LBB2855:
.LBB2856:
# /usr/include/c++/16/bits/stl_construct.h:133:       ::new(static_cast<void*>(__p)) _Tp(std::forward<_Args>(__args)...);
	.loc 11 133 7 discriminator 1 view .LVU387
	mov	DWORD PTR [rax], 0x00000000	# *_705,
.LBE2856:
.LBE2855:
.LBB2857:
.LBB2858:
.LBB2859:
.LBB2860:
.LBB2861:
.LBB2862:
# /usr/include/c++/16/bits/stl_algobase.h:923: 	*__first = __val;
	.loc 10 923 11 view .LVU388
	xor	esi, esi	#
.LBE2862:
.LBE2861:
.LBE2860:
.LBE2859:
.LBE2858:
.LBE2857:
# /usr/include/c++/16/bits/stl_uninitialized.h:946: 	      ++__first;
	.loc 12 946 8 view .LVU389
	lea	rdi, 4[rax]	# __first_706,
.LBB2873:
.LBB2871:
.LBB2869:
.LBB2867:
.LBB2865:
.LBB2863:
# /usr/include/c++/16/bits/stl_algobase.h:923: 	*__first = __val;
	.loc 10 923 11 view .LVU390
	mov	edx, 195068	#,
.LBE2863:
.LBE2865:
.LBE2867:
.LBE2869:
.LBE2871:
.LBE2873:
.LBE2854:
.LBE2853:
.LBE2852:
.LBE2851:
.LBE2850:
.LBE2849:
.LBE2848:
.LBB2882:
.LBB2847:
.LBB2846:
.LBB2845:
.LBB2844:
.LBB2843:
.LBB2842:
# /usr/include/c++/16/bits/new_allocator.h:162: 	  return static_cast<_Tp*>(_GLIBCXX_OPERATOR_NEW(__n * sizeof(_Tp)));
	.loc 6 162 68 view .LVU391
	mov	QWORD PTR 248[rsp], rax	# %sfp, _705
.LVL77:
	.loc 6 162 68 view .LVU392
.LBE2842:
.LBE2843:
.LBE2844:
.LBE2845:
.LBE2846:
.LBE2847:
.LBE2882:
.LBB2883:
.LBI2848:
	.loc 2 1998 7 is_stmt 1 view .LVU393
.LBB2881:
.LBI2849:
	.loc 12 1051 5 view .LVU394
.LBB2880:
.LBI2850:
	.loc 12 982 5 view .LVU395
.LBB2879:
.LBB2878:
.LBI2852:
	.loc 12 939 9 view .LVU396
.LBB2877:
.LBI2853:
	.loc 12 939 9 view .LVU397
.LBB2876:
.LBB2874:
.LBI2855:
	.loc 11 123 5 view .LVU398
	.loc 11 123 5 is_stmt 0 view .LVU399
.LBE2874:
.LBB2875:
.LBI2857:
	.loc 10 1179 5 is_stmt 1 view .LVU400
.LBB2872:
.LBI2858:
	.loc 10 1141 5 view .LVU401
.LBB2870:
.LBB2868:
.LBI2860:
	.loc 10 976 5 view .LVU402
.LBB2866:
.LBI2861:
	.loc 10 895 5 view .LVU403
.LBB2864:
	.loc 10 922 22 discriminator 2 view .LVU404
# /usr/include/c++/16/bits/stl_algobase.h:923: 	*__first = __val;
	.loc 10 923 11 is_stmt 0 view .LVU405
	call	"memset"@PLT	#
.LVL78:
	.loc 10 923 11 view .LVU406
.LBE2864:
.LBE2866:
.LBE2868:
.LBE2870:
.LBE2872:
.LBE2875:
.LBE2876:
.LBE2877:
.LBE2878:
.LBE2879:
.LBE2880:
.LBE2881:
.LBE2883:
.LBE2825:
.LBB2884:
	.loc 1 85 25 is_stmt 1 discriminator 2 view .LVU407
	test	r14d, r14d	# _2
	jle	.L35	#,
	mov	edx, DWORD PTR 84[rsp]	#, %sfp
	test	edx, edx	#
	jle	.L35	#,
.LBB2885:
.LBB2886:
.LBB2887:
.LBB2888:
.LBB2889:
.LBB2890:
.LBB2891:
# src/opt17_ilp_only.cpp:114:                     const size_t rb1 = rb0 + width * 3;
	.loc 1 114 52 is_stmt 0 view .LVU408
	mov	rax, QWORD PTR 56[rsp]	# _370, %sfp
.LBE2891:
.LBE2890:
.LBE2889:
.LBE2888:
.LBB3225:
.LBB3226:
.LBB3227:
.LBB3228:
# src/opt17_ilp_only.cpp:172:                     float inv_c = 1.0f / (float)c;
	.loc 1 172 27 view .LVU409
	vmovss	xmm20, DWORD PTR .LC1[rip]	# tmp1740,
.LBE3228:
.LBE3227:
.LBE3226:
.LBE3225:
.LBB3291:
.LBB3220:
.LBB3171:
.LBB3159:
# src/opt17_ilp_only.cpp:114:                     const size_t rb1 = rb0 + width * 3;
	.loc 1 114 52 view .LVU410
	mov	QWORD PTR 88[rsp], 0	# %sfp,
	vxorps	xmm4, xmm4, xmm4	# tmp1761
.LBE3159:
.LBE3171:
.LBE3220:
.LBE3291:
.LBB3292:
.LBB3287:
.LBB3278:
.LBB3271:
.LBB3229:
.LBB3230:
.LBB3231:
# /usr/include/c++/16/bits/stl_algobase.h:261:       if (__a < __b)
	.loc 10 261 7 view .LVU411
	vmovss	xmm13, DWORD PTR .LC4[rip]	# tmp1741,
	mov	QWORD PTR 16[rsp], r12	# %sfp, _4
.LBE3231:
.LBE3230:
.LBE3229:
.LBE3271:
.LBE3278:
.LBE3287:
.LBE3292:
.LBB3293:
.LBB3221:
.LBB3172:
.LBB3160:
# src/opt17_ilp_only.cpp:114:                     const size_t rb1 = rb0 + width * 3;
	.loc 1 114 52 view .LVU412
	lea	rcx, [rax+rax*2]	# _96,
.LBE3160:
.LBE3172:
.LBE3221:
.LBE3293:
.LBB3294:
.LBB3288:
.LBB3279:
.LBB3272:
.LBB3243:
.LBB3235:
.LBB3232:
# /usr/include/c++/16/bits/stl_algobase.h:261:       if (__a < __b)
	.loc 10 261 7 view .LVU413
	lea	r12, 0[0+rax*8]	# _499,
.LBE3232:
.LBE3235:
.LBE3243:
.LBE3272:
.LBE3279:
.LBE3288:
.LBE3294:
.LBB3295:
.LBB3222:
.LBB3173:
.LBB3161:
# src/opt17_ilp_only.cpp:114:                     const size_t rb1 = rb0 + width * 3;
	.loc 1 114 52 view .LVU414
	mov	QWORD PTR 192[rsp], rcx	# %sfp, _96
	xor	ecx, ecx	# ivtmp.569
.LVL79:
.L68:
	.loc 1 114 52 view .LVU415
	mov	rdi, QWORD PTR 88[rsp]	# ivtmp.570, %sfp
.LBE3161:
.LBE3173:
.LBE3222:
.LBE3295:
.LBE2887:
.LBE2886:
# src/opt17_ilp_only.cpp:87:         const int tile_h_actual = tile_y_end - ty;
	.loc 1 87 19 view .LVU416
	mov	r10, QWORD PTR 56[rsp]	# _370, %sfp
	mov	DWORD PTR 24[rsp], r14d	# %sfp, _2
	mov	QWORD PTR 32[rsp], rcx	# %sfp, ivtmp.569
# src/opt17_ilp_only.cpp:86:         const int tile_y_end    = std::min(ty + TILE_H, h);
	.loc 1 86 47 view .LVU417
	lea	eax, 8[rdi]	# _364,
	mov	DWORD PTR 80[rsp], edi	# %sfp, ivtmp.570
.LVL80:
	.loc 1 86 9 is_stmt 1 view .LVU418
.LBB3328:
.LBI3328:
	.loc 10 232 5 view .LVU419
	.loc 10 232 5 is_stmt 0 view .LVU420
.LBE3328:
	.loc 1 87 9 is_stmt 1 view .LVU421
	.loc 1 89 9 view .LVU422
.LBB3331:
	.loc 1 89 29 discriminator 2 view .LVU423
.LBE3331:
.LBB3332:
.LBB3329:
# /usr/include/c++/16/bits/stl_algobase.h:237:       if (__b < __a)
	.loc 10 237 7 is_stmt 0 view .LVU424
	cmp	eax, r14d	# _364, _2
	mov	DWORD PTR 48[rsp], edi	# %sfp, ivtmp.570
	cmovg	eax, r14d	# _364,, _364, _2
.LBE3329:
.LBE3332:
# src/opt17_ilp_only.cpp:87:         const int tile_h_actual = tile_y_end - ty;
	.loc 1 87 19 view .LVU425
	mov	QWORD PTR 8[rsp], r12	# %sfp, _499
	xor	r12d, r12d	# ivtmp.562
.LBB3333:
.LBB3330:
# /usr/include/c++/16/bits/stl_algobase.h:237:       if (__b < __a)
	.loc 10 237 7 view .LVU426
	mov	r15d, eax	# _385, _364
.LBE3330:
.LBE3333:
# src/opt17_ilp_only.cpp:87:         const int tile_h_actual = tile_y_end - ty;
	.loc 1 87 19 view .LVU427
	sub	eax, edi	# tile_h_actual, ivtmp.570
	mov	DWORD PTR 28[rsp], eax	# %sfp, tile_h_actual
.LVL81:
.L67:
.LBB3334:
.LBB3325:
.LBB3296:
.LBB3297:
# /usr/include/c++/16/bits/stl_algobase.h:237:       if (__b < __a)
	.loc 10 237 7 view .LVU428
	mov	ecx, DWORD PTR 84[rsp]	# _1, %sfp
.LBE3297:
.LBE3296:
# src/opt17_ilp_only.cpp:90:             const int tile_x_end    = std::min(tx + TILE_W, w);
	.loc 1 90 51 view .LVU429
	lea	eax, 2032[r12]	# _586,
	mov	r13d, r12d	#, ivtmp.562
.LVL82:
	.loc 1 90 13 is_stmt 1 view .LVU430
.LBB3300:
.LBI3296:
	.loc 10 232 5 view .LVU431
.LBB3298:
# /usr/include/c++/16/bits/stl_algobase.h:237:       if (__b < __a)
	.loc 10 237 7 is_stmt 0 view .LVU432
	cmp	eax, ecx	# _586, _1
	cmovg	eax, ecx	# _586,, _586, _1
.LBE3298:
.LBE3300:
# src/opt17_ilp_only.cpp:91:             const int tile_w_actual = tile_x_end - tx;
	.loc 1 91 23 view .LVU433
	mov	ecx, eax	# tile_w_actual, _386
.LBB3301:
.LBB3299:
# /usr/include/c++/16/bits/stl_algobase.h:237:       if (__b < __a)
	.loc 10 237 7 view .LVU434
	mov	r14d, eax	# _386, _586
.LVL83:
	.loc 10 237 7 view .LVU435
.LBE3299:
.LBE3301:
	.loc 1 91 13 is_stmt 1 view .LVU436
# src/opt17_ilp_only.cpp:95:                       tile_vals.begin() + tile_h_actual * tile_w_actual * 3,
	.loc 1 95 57 is_stmt 0 view .LVU437
	mov	eax, DWORD PTR 28[rsp]	# _77, %sfp
# src/opt17_ilp_only.cpp:91:             const int tile_w_actual = tile_x_end - tx;
	.loc 1 91 23 view .LVU438
	sub	ecx, r12d	# tile_w_actual, ivtmp.562
.LVL84:
	.loc 1 92 13 is_stmt 1 view .LVU439
# src/opt17_ilp_only.cpp:95:                       tile_vals.begin() + tile_h_actual * tile_w_actual * 3,
	.loc 1 95 57 is_stmt 0 view .LVU440
	imul	eax, ecx	# _77, tile_w_actual
# src/opt17_ilp_only.cpp:92:             const size_t tile_row_stride = (size_t)tile_w_actual * 3;
	.loc 1 92 44 view .LVU441
	movsxd	r11, ecx	# _76, tile_w_actual
.LVL85:
	.loc 1 94 13 is_stmt 1 view .LVU442
.LBB3302:
.LBI3302:
	.loc 2 988 7 view .LVU443
.LBB3303:
.LBI3303:
	.loc 3 1058 7 view .LVU444
	.loc 3 1058 7 is_stmt 0 view .LVU445
.LBE3303:
.LBE3302:
.LBB3304:
.LBI3304:
	.loc 3 1147 7 is_stmt 1 view .LVU446
.LBB3305:
.LBB3306:
.LBI3306:
	.loc 3 1058 7 view .LVU447
	.loc 3 1058 7 is_stmt 0 view .LVU448
.LBE3306:
.LBE3305:
.LBE3304:
.LBB3308:
.LBI3308:
	.loc 2 988 7 is_stmt 1 view .LVU449
.LBB3309:
.LBI3309:
	.loc 3 1058 7 view .LVU450
	.loc 3 1058 7 is_stmt 0 view .LVU451
.LBE3309:
.LBE3308:
.LBB3310:
.LBI3310:
	.loc 10 1001 5 is_stmt 1 view .LVU452
.LBB3311:
.LBI3311:
	.loc 10 976 5 view .LVU453
.LBB3312:
.LBI3312:
	.loc 10 956 5 view .LVU454
.LBB3313:
.LBI3313:
	.loc 10 895 5 view .LVU455
.LBB3314:
	.loc 10 922 22 discriminator 2 view .LVU456
.LBE3314:
.LBE3313:
.LBE3312:
.LBE3311:
.LBE3310:
# src/opt17_ilp_only.cpp:95:                       tile_vals.begin() + tile_h_actual * tile_w_actual * 3,
	.loc 1 95 73 is_stmt 0 view .LVU457
	lea	edx, [rax+rax*2]	# _78,
.LBB3319:
.LBB3307:
# /usr/include/c++/16/bits/stl_iterator.h:1148:       { return __normal_iterator(_M_current + __n); }
	.loc 3 1148 47 view .LVU458
	movsxd	rdx, edx	# __n.53_309, _78
.LBE3307:
.LBE3319:
.LBB3320:
.LBB3318:
.LBB3317:
.LBB3316:
.LBB3315:
# /usr/include/c++/16/bits/stl_algobase.h:922:       for (; __first != __last; ++__first)
	.loc 10 922 22 discriminator 2 view .LVU459
	sal	rdx, 2	# _337,
	je	.L36	#,
	mov	QWORD PTR 240[rsp], r10	# %sfp, _370
# /usr/include/c++/16/bits/stl_algobase.h:923: 	*__first = __val;
	.loc 10 923 11 view .LVU460
	mov	rdi, QWORD PTR 248[rsp]	#, %sfp
	xor	esi, esi	#
	mov	DWORD PTR 272[rsp], ecx	# %sfp, tile_w_actual
	mov	QWORD PTR 280[rsp], r11	# %sfp, _76
	vmovaps	XMMWORD PTR 256[rsp], xmm4	# %sfp, tmp1761
	vzeroupper
.LVL86:
	call	"memset"@PLT	#
.LVL87:
	.loc 10 923 11 view .LVU461
	mov	r10, QWORD PTR 240[rsp]	# _370, %sfp
	vmovaps	xmm4, XMMWORD PTR 256[rsp]	# tmp1761, %sfp
	vmovss	xmm13, DWORD PTR .LC4[rip]	# tmp1741,
	vmovss	xmm20, DWORD PTR .LC1[rip]	# tmp1740,
	mov	ecx, DWORD PTR 272[rsp]	# tile_w_actual, %sfp
	mov	r11, QWORD PTR 280[rsp]	# _76, %sfp
.LVL88:
.L36:
	.loc 10 923 11 view .LVU462
.LBE3315:
.LBE3316:
.LBE3317:
.LBE3318:
.LBE3320:
.LBB3321:
	.loc 1 98 39 is_stmt 1 discriminator 5 view .LVU463
# src/opt17_ilp_only.cpp:98:             for (const SubParams& p : params) {
	.loc 1 98 39 is_stmt 0 discriminator 6 view .LVU464
	mov	rax, QWORD PTR 112[rsp]	# __new_finish, %sfp
	cmp	rax, QWORD PTR 152[rsp]	# __new_finish, %sfp
	je	.L37	#,
	mov	rdx, rax	# ivtmp.557, __new_finish
	lea	rax, [r11+r11*2]	# _1494,
	mov	QWORD PTR 104[rsp], r11	# %sfp, _76
	mov	r9d, DWORD PTR 80[rsp]	# ty, %sfp
	mov	QWORD PTR 208[rsp], rax	# %sfp, _1494
	sal	rax, 2	# tmp1072,
	mov	QWORD PTR 200[rsp], rax	# %sfp, tmp1072
	mov	DWORD PTR 52[rsp], ecx	# %sfp, tile_w_actual
	mov	DWORD PTR 148[rsp], r14d	# %sfp, _386
	mov	QWORD PTR 96[rsp], r12	# %sfp, ivtmp.562
.LVL89:
	.p2align 4,,10
	.p2align 3
.L53:
.LBB3223:
	.loc 1 99 17 is_stmt 1 view .LVU465
.LBB3174:
.LBI3174:
	.loc 10 256 5 view .LVU466
.LBB3175:
# /usr/include/c++/16/bits/stl_algobase.h:261:       if (__a < __b)
	.loc 10 261 7 is_stmt 0 view .LVU467
	mov	eax, DWORD PTR 32[rdx]	# tmp1809, MEM[(const int &)_180 + 32]
.LBE3175:
.LBE3174:
.LBB3179:
.LBB3180:
# /usr/include/c++/16/bits/stl_algobase.h:237:       if (__b < __a)
	.loc 10 237 7 view .LVU468
	mov	ecx, DWORD PTR 28[rdx]	# tmp1812, MEM[(const int &)_180 + 28]
	mov	esi, DWORD PTR 148[rsp]	# _386, %sfp
.LBE3180:
.LBE3179:
.LBB3182:
.LBB3176:
# /usr/include/c++/16/bits/stl_algobase.h:261:       if (__a < __b)
	.loc 10 261 7 view .LVU469
	cmp	r9d, eax	# ty, tmp1809
	mov	edi, eax	# tmp1809, tmp1809
.LBE3176:
.LBE3182:
.LBB3183:
.LBB3184:
# /usr/include/c++/16/bits/stl_algobase.h:237:       if (__b < __a)
	.loc 10 237 7 view .LVU470
	mov	eax, DWORD PTR 36[rdx]	# tmp1810, MEM[(const int &)_180 + 36]
.LBE3184:
.LBE3183:
.LBB3188:
.LBB3177:
# /usr/include/c++/16/bits/stl_algobase.h:261:       if (__a < __b)
	.loc 10 261 7 view .LVU471
	cmovge	edi, r9d	# ty,, tmp1809
.LBE3177:
.LBE3188:
.LBB3189:
.LBB3185:
# /usr/include/c++/16/bits/stl_algobase.h:237:       if (__b < __a)
	.loc 10 237 7 view .LVU472
	cmp	r15d, eax	# _385, tmp1810
	cmovle	eax, r15d	# _385,, tmp1810
.LBE3185:
.LBE3189:
.LBB3190:
.LBB3178:
# /usr/include/c++/16/bits/stl_algobase.h:261:       if (__a < __b)
	.loc 10 261 7 view .LVU473
	mov	DWORD PTR 280[rsp], edi	# %sfp, y
.LVL90:
	.loc 10 261 7 view .LVU474
.LBE3178:
.LBE3190:
	.loc 1 100 17 is_stmt 1 view .LVU475
.LBB3191:
.LBI3183:
	.loc 10 232 5 view .LVU476
.LBB3186:
# /usr/include/c++/16/bits/stl_algobase.h:237:       if (__b < __a)
	.loc 10 237 7 is_stmt 0 view .LVU477
	mov	DWORD PTR 216[rsp], eax	# %sfp, _531
.LVL91:
	.loc 10 237 7 view .LVU478
.LBE3186:
.LBE3191:
	.loc 1 101 17 is_stmt 1 view .LVU479
.LBB3192:
.LBI3192:
	.loc 10 256 5 view .LVU480
.LBE3192:
.LBB3194:
.LBB3187:
# /usr/include/c++/16/bits/stl_algobase.h:237:       if (__b < __a)
	.loc 10 237 7 is_stmt 0 view .LVU481
	mov	ebx, eax	# _531, tmp1810
.LBE3187:
.LBE3194:
.LBB3195:
.LBB3193:
# /usr/include/c++/16/bits/stl_algobase.h:261:       if (__a < __b)
	.loc 10 261 7 view .LVU482
	mov	eax, DWORD PTR 24[rdx]	#, MEM[(const int &)_180 + 24]
	cmp	r13d, eax	# tx, tmp1811
	cmovge	rax, r13	#,,
.LVL92:
	.loc 10 261 7 view .LVU483
.LBE3193:
.LBE3195:
	.loc 1 102 17 is_stmt 1 view .LVU484
.LBB3196:
.LBI3179:
	.loc 10 232 5 view .LVU485
.LBB3181:
# /usr/include/c++/16/bits/stl_algobase.h:237:       if (__b < __a)
	.loc 10 237 7 is_stmt 0 view .LVU486
	cmp	esi, ecx	# _386, tmp1812
	cmovle	ecx, esi	# _386,, _75
.LVL93:
	.loc 10 237 7 view .LVU487
.LBE3181:
.LBE3196:
	.loc 1 103 17 is_stmt 1 view .LVU488
	cmp	ecx, eax	# _75, _296
	jle	.L38	#,
	cmp	ebx, edi	# _531, y
	jle	.L38	#,
	.loc 1 105 17 view .LVU489
	mov	r8d, edi	# _1495, y
# src/opt17_ilp_only.cpp:110:                 const int x_floats = (x_end - x_begin) * 3;
	.loc 1 110 45 is_stmt 0 view .LVU490
	sub	ecx, eax	# _87, _296
.LBB3197:
.LBB3162:
# src/opt17_ilp_only.cpp:113:                     const size_t rb0 = ((size_t)(y + p.sy) * width + (size_t)(x_begin + p.sx)) * 3;
	.loc 1 113 87 view .LVU491
	mov	esi, DWORD PTR [rdx]	# _93, MEM[(int *)_180]
	mov	r14, QWORD PTR 248[rsp]	# _705, %sfp
	mov	rdi, r8	# _774, _1495
.LBE3162:
.LBE3197:
# src/opt17_ilp_only.cpp:110:                 const int x_floats = (x_end - x_begin) * 3;
	.loc 1 110 27 view .LVU492
	lea	ebx, [rcx+rcx*2]	# x_floats_304,
.LBB3198:
.LBB3163:
# src/opt17_ilp_only.cpp:116:                     float* vp = tile_vals.data() + (size_t)(y - ty) * tile_row_stride + (size_t)(x_begin - tx) * 3;
	.loc 1 116 106 discriminator 1 view .LVU493
	mov	ecx, eax	# _100, _296
.LBE3163:
.LBE3198:
# src/opt17_ilp_only.cpp:105:                 const __m256 Avx = _mm256_set1_ps(p.A);
	.loc 1 105 53 view .LVU494
	vmovss	xmm19, DWORD PTR 8[rdx]	# _83, MEM[(float *)_180 + 8B]
	sub	rdi, QWORD PTR 88[rsp]	# _774, %sfp
.LBB3199:
.LBB3164:
# src/opt17_ilp_only.cpp:116:                     float* vp = tile_vals.data() + (size_t)(y - ty) * tile_row_stride + (size_t)(x_begin - tx) * 3;
	.loc 1 116 106 discriminator 1 view .LVU495
	sub	ecx, r13d	# _100, tx
# src/opt17_ilp_only.cpp:113:                     const size_t rb0 = ((size_t)(y + p.sy) * width + (size_t)(x_begin + p.sx)) * 3;
	.loc 1 113 87 view .LVU496
	add	esi, eax	# _93, _296
	sub	rax, QWORD PTR 96[rsp]	# _1455, %sfp
	imul	rdi, QWORD PTR 104[rsp]	# _1102, %sfp
# src/opt17_ilp_only.cpp:116:                     float* vp = tile_vals.data() + (size_t)(y - ty) * tile_row_stride + (size_t)(x_begin - tx) * 3;
	.loc 1 116 89 discriminator 1 view .LVU497
	movsxd	rcx, ecx	# _101, _100
.LBE3164:
.LBE3199:
# src/opt17_ilp_only.cpp:110:                 const int x_floats = (x_end - x_begin) * 3;
	.loc 1 110 27 view .LVU498
	mov	DWORD PTR 272[rsp], ebx	# %sfp, x_floats_304
.LBB3200:
.LBB3165:
# src/opt17_ilp_only.cpp:113:                     const size_t rb0 = ((size_t)(y + p.sy) * width + (size_t)(x_begin + p.sx)) * 3;
	.loc 1 113 70 view .LVU499
	movsxd	rsi, esi	# _94, _93
.LBE3165:
.LBE3200:
# src/opt17_ilp_only.cpp:106:                 const __m256 Bvx = _mm256_set1_ps(p.B);
	.loc 1 106 53 view .LVU500
	vmovss	xmm18, DWORD PTR 12[rdx]	# _84, MEM[(float *)_180 + 12B]
# src/opt17_ilp_only.cpp:107:                 const __m256 Cvx = _mm256_set1_ps(p.C);
	.loc 1 107 53 view .LVU501
	vmovss	xmm17, DWORD PTR 16[rdx]	# _85, MEM[(float *)_180 + 16B]
	mov	QWORD PTR 136[rsp], rdx	# %sfp, ivtmp.557
# src/opt17_ilp_only.cpp:105:                 const __m256 Avx = _mm256_set1_ps(p.A);
	.loc 1 105 53 view .LVU502
	vbroadcastss	ymm10, xmm19	# tmp1796, _83
.LVL94:
.LBB3201:
.LBI3201:
	.file 13 "/usr/lib/gcc/x86_64-linux-gnu/16/include/avxintrin.h"
	.loc 13 1271 1 is_stmt 1 view .LVU503
.LBB3202:
	.loc 13 1273 3 view .LVU504
.LBE3202:
.LBE3201:
# src/opt17_ilp_only.cpp:108:                 const __m256 Dvx = _mm256_set1_ps(p.D);
	.loc 1 108 53 is_stmt 0 view .LVU505
	vmovss	xmm16, DWORD PTR 20[rdx]	# _86, MEM[(float *)_180 + 20B]
.LBB3204:
.LBB3166:
.LBB2892:
.LBB2893:
# src/opt17_ilp_only.cpp:144:                         __m256 rl0 = load_cvt8(p.SUB + rb0 + xf);
	.loc 1 144 50 view .LVU506
	mov	r12, QWORD PTR 40[rdx]	# pretmp_1478, MEM[(const unsigned char * *)_180 + 40B]
	mov	QWORD PTR 128[rsp], r10	# %sfp, _370
.LBE2893:
.LBE2892:
.LBE3166:
.LBE3204:
.LBB3205:
.LBB3203:
# /usr/lib/gcc/x86_64-linux-gnu/16/include/avxintrin.h:1274: 				 __A, __A, __A, __A };
	.loc 13 1274 25 view .LVU507
	vmovaps	ymm3, ymm10	# _332, tmp1796
.LVL95:
	.loc 13 1274 25 view .LVU508
.LBE3203:
.LBE3205:
	.loc 1 106 17 is_stmt 1 view .LVU509
	add	rcx, rdi	# _1254, _1102
	add	rax, rdi	# _1322, _1102
	mov	DWORD PTR 124[rsp], r13d	# %sfp, tx
# src/opt17_ilp_only.cpp:106:                 const __m256 Bvx = _mm256_set1_ps(p.B);
	.loc 1 106 53 is_stmt 0 view .LVU510
	vbroadcastss	ymm11, xmm18	# tmp1797, _84
.LVL96:
.LBB3206:
.LBI3206:
	.loc 13 1271 1 is_stmt 1 view .LVU511
.LBB3207:
	.loc 13 1273 3 view .LVU512
	lea	rcx, [rcx+rcx*2]	# _1233,
	lea	rax, [rax+rax*2]	# ivtmp.549,
	mov	DWORD PTR 120[rsp], r9d	# %sfp, ty
.LBE3207:
.LBE3206:
# src/opt17_ilp_only.cpp:107:                 const __m256 Cvx = _mm256_set1_ps(p.C);
	.loc 1 107 53 is_stmt 0 view .LVU513
	vbroadcastss	ymm12, xmm17	# tmp1798, _85
	lea	r11, [r14+rcx*4]	# ivtmp.546,
	movsxd	rcx, DWORD PTR 4[rdx]	# _198, MEM[(int *)_180 + 4B]
	mov	QWORD PTR 232[rsp], rax	# %sfp, ivtmp.549
	lea	eax, -16[rbx]	# _750,
	mov	edi, eax	# _175, _750
	shr	eax, 4	# _257,
# src/opt17_ilp_only.cpp:108:                 const __m256 Dvx = _mm256_set1_ps(p.D);
	.loc 1 108 53 view .LVU514
	vbroadcastss	ymm9, xmm16	# tmp1799, _86
	mov	DWORD PTR 144[rsp], r15d	# %sfp, _385
	add	r8, rcx	# _199, _198
	and	edi, -16	# _175,
	inc	eax	# _183
	mov	r15, r11	# ivtmp.546, ivtmp.546
	imul	r8, r10	# _200, _370
.LBB3209:
.LBB3167:
.LBB2970:
# src/opt17_ilp_only.cpp:143:                     if (xf + 8 <= x_floats) {
	.loc 1 143 32 view .LVU515
	lea	ebx, 23[rdi]	# _127,
	mov	DWORD PTR 184[rsp], edi	# %sfp, _175
.LBB2967:
# src/opt17_ilp_only.cpp:144:                         __m256 rl0 = load_cvt8(p.SUB + rb0 + xf);
	.loc 1 144 62 view .LVU516
	add	edi, 16	# _1343,
	mov	QWORD PTR 168[rsp], rdi	# %sfp, _1343
	sal	rax, 6	# _183,
# src/opt17_ilp_only.cpp:148:                         __m256 v = _mm256_loadu_ps(vp + xf);
	.loc 1 148 55 view .LVU517
	sal	rdi, 2	# _1349,
.LBE2967:
.LBE2970:
.LBE3167:
.LBE3209:
.LBB3210:
.LBB3208:
# /usr/lib/gcc/x86_64-linux-gnu/16/include/avxintrin.h:1274: 				 __A, __A, __A, __A };
	.loc 13 1274 25 view .LVU518
	vmovaps	ymm2, ymm11	# _333, tmp1797
.LVL97:
	.loc 13 1274 25 view .LVU519
.LBE3208:
.LBE3210:
	.loc 1 107 17 is_stmt 1 view .LVU520
.LBB3211:
.LBI3211:
	.loc 13 1271 1 view .LVU521
.LBB3212:
	.loc 13 1273 3 view .LVU522
.LBE3212:
.LBE3211:
.LBB3214:
.LBB3168:
.LBB2971:
# src/opt17_ilp_only.cpp:143:                     if (xf + 8 <= x_floats) {
	.loc 1 143 32 is_stmt 0 view .LVU523
	mov	DWORD PTR 188[rsp], ebx	# %sfp, _127
.LBE2971:
.LBE3168:
.LBE3214:
.LBB3215:
.LBB3213:
# /usr/lib/gcc/x86_64-linux-gnu/16/include/avxintrin.h:1274: 				 __A, __A, __A, __A };
	.loc 13 1274 25 view .LVU524
	vmovaps	ymm1, ymm12	# _334, tmp1798
.LVL98:
	.loc 13 1274 25 view .LVU525
.LBE3213:
.LBE3215:
	.loc 1 108 17 is_stmt 1 view .LVU526
.LBB3216:
.LBI3216:
	.loc 13 1271 1 view .LVU527
.LBB3217:
	.loc 13 1273 3 view .LVU528
# /usr/lib/gcc/x86_64-linux-gnu/16/include/avxintrin.h:1274: 				 __A, __A, __A, __A };
	.loc 13 1274 25 is_stmt 0 view .LVU529
	vmovaps	ymm0, ymm9	# _335, tmp1799
.LVL99:
	.loc 13 1274 25 view .LVU530
.LBE3217:
.LBE3216:
	.loc 1 110 17 is_stmt 1 view .LVU531
	.loc 1 112 17 view .LVU532
.LBB3218:
	.loc 1 112 41 discriminator 2 view .LVU533
	lea	rcx, [rsi+r8]	# _66,
.LBB3169:
.LBB2972:
.LBB2968:
# src/opt17_ilp_only.cpp:148:                         __m256 v = _mm256_loadu_ps(vp + xf);
	.loc 1 148 55 is_stmt 0 view .LVU534
	mov	QWORD PTR 160[rsp], rdi	# %sfp, _1349
	add	rsi, r10	# _490, _370
	mov	QWORD PTR 176[rsp], rax	# %sfp, _183
	add	rsi, r8	# _206, _200
	lea	rcx, [rcx+rcx*2]	# ivtmp.547,
	lea	r14, [rsi+rsi*2]	# ivtmp.548,
.LVL100:
	.p2align 4,,10
	.p2align 3
.L52:
	.loc 1 148 55 view .LVU535
.LBE2968:
.LBE2972:
	.loc 1 113 21 is_stmt 1 view .LVU536
	.loc 1 114 21 view .LVU537
	.loc 1 116 21 view .LVU538
	.loc 1 118 21 view .LVU539
	.loc 1 120 21 view .LVU540
.LBB2973:
	.loc 1 120 36 discriminator 2 view .LVU541
	cmp	DWORD PTR 272[rsp], 15	# %sfp,
	jle	.L39	#,
	mov	rax, QWORD PTR 176[rsp]	# _604, %sfp
	lea	rdx, [r12+r14]	# ivtmp.539,
	lea	rdi, [rax+r15]	# _250,
	mov	rax, r15	# ivtmp.540, ivtmp.546
.LVL101:
	.p2align 4,,10
	.p2align 3
.L40:
.LBB2974:
	.loc 1 121 25 view .LVU542
.LBB2975:
.LBI2975:
	.loc 1 23 22 view .LVU543
	.loc 1 24 5 view .LVU544
.LBB2976:
.LBI2976:
	.file 14 "/usr/lib/gcc/x86_64-linux-gnu/16/include/emmintrin.h"
	.loc 14 711 1 view .LVU545
.LBB2977:
	.loc 14 713 3 view .LVU546
	mov	rsi, rdx	# _1185, ivtmp.539
.LBE2977:
.LBE2976:
.LBE2975:
.LBB2992:
.LBB2993:
.LBB2994:
# /usr/lib/gcc/x86_64-linux-gnu/16/include/avx2intrin.h:491:   return (__m256i) __builtin_ia32_pmovzxbd256 ((__v16qi)__X);
	.file 15 "/usr/lib/gcc/x86_64-linux-gnu/16/include/avx2intrin.h"
	.loc 15 491 47 is_stmt 0 view .LVU547
	vpmovzxbd	ymm8, QWORD PTR [rdx]	# tmp1143, MEM[(__m64_u * {ref-all})_1202]
.LBE2994:
.LBE2993:
.LBE2992:
.LBB3007:
.LBB3008:
.LBB3009:
	vpmovzxbd	ymm7, QWORD PTR 8[rdx]	# tmp1148, MEM[(__m64_u * {ref-all})_1202 + 8B]
.LBE3009:
.LBE3008:
.LBE3007:
.LBE2974:
# src/opt17_ilp_only.cpp:120:                     for (; xf + 16 <= x_floats; xf += 16) {
	.loc 1 120 36 discriminator 2 view .LVU548
	add	rax, 64	# ivtmp.540,
	sub	rsi, r14	# _1185, ivtmp.548
.LVL102:
.LBB3136:
.LBB3022:
.LBB2983:
.LBB2982:
.LBB2978:
.LBI2978:
	.loc 14 600 1 is_stmt 1 view .LVU549
.LBB2979:
	.loc 14 602 3 view .LVU550
.LBB2980:
.LBI2980:
	.loc 14 594 1 view .LVU551
.LBB2981:
	.loc 14 596 3 view .LVU552
	.loc 14 596 3 is_stmt 0 view .LVU553
.LBE2981:
.LBE2980:
.LBE2979:
.LBE2978:
.LBE2982:
.LBE2983:
.LBB2984:
.LBI2984:
	.loc 15 489 1 is_stmt 1 view .LVU554
.LBB2985:
	.loc 15 491 3 view .LVU555
.LBE2985:
.LBE2984:
.LBE3022:
.LBB3023:
.LBB3024:
.LBB3025:
# /usr/lib/gcc/x86_64-linux-gnu/16/include/avx2intrin.h:491:   return (__m256i) __builtin_ia32_pmovzxbd256 ((__v16qi)__X);
	.loc 15 491 47 is_stmt 0 view .LVU556
	vpmovzxbd	ymm6, QWORD PTR 3[rdx]	# tmp1153, MEM[(__m64_u * {ref-all})_1202 + 3B]
.LBE3025:
.LBE3024:
.LBE3023:
.LBB3038:
.LBB3039:
.LBB3040:
	vpmovzxbd	ymm5, QWORD PTR 11[rdx]	# tmp1158, MEM[(__m64_u * {ref-all})_1202 + 11B]
.LBE3040:
.LBE3039:
.LBE3038:
.LBE3136:
# src/opt17_ilp_only.cpp:120:                     for (; xf + 16 <= x_floats; xf += 16) {
	.loc 1 120 36 discriminator 2 view .LVU557
	add	rdx, 16	# ivtmp.539,
.LBB3137:
.LBB3053:
.LBB2987:
.LBB2986:
# /usr/lib/gcc/x86_64-linux-gnu/16/include/avx2intrin.h:491:   return (__m256i) __builtin_ia32_pmovzxbd256 ((__v16qi)__X);
	.loc 15 491 47 view .LVU558
	vpmovzxbd	ymm22, QWORD PTR [rsi+rcx]	# tmp1123, MEM[(__m64_u * {ref-all})_1185 + ivtmp.547_195 * 1]
.LVL103:
	.loc 15 491 47 view .LVU559
.LBE2986:
.LBE2987:
.LBB2988:
.LBI2988:
	.loc 13 405 1 is_stmt 1 view .LVU560
.LBB2989:
	.loc 13 407 3 view .LVU561
.LBE2989:
.LBE2988:
.LBE3053:
.LBB3054:
.LBB3055:
.LBB3056:
# /usr/lib/gcc/x86_64-linux-gnu/16/include/avx2intrin.h:491:   return (__m256i) __builtin_ia32_pmovzxbd256 ((__v16qi)__X);
	.loc 15 491 47 is_stmt 0 view .LVU562
	vpmovzxbd	ymm21, QWORD PTR 8[rsi+rcx]	# tmp1128, MEM[(__m64_u * {ref-all})_1185 + 8B + ivtmp.547_195 * 1]
.LBE3056:
.LBE3055:
.LBE3054:
.LBB3067:
.LBB2996:
.LBB2997:
# /usr/lib/gcc/x86_64-linux-gnu/16/include/avxintrin.h:407:   return (__m256)__builtin_ia32_cvtdq2ps256 ((__v8si) __A);
	.loc 13 407 10 view .LVU563
	vcvtdq2ps	ymm8, ymm8	# tmp1147, tmp1143
.LBE2997:
.LBE2996:
.LBE3067:
.LBB3068:
.LBB3011:
.LBB3012:
	vcvtdq2ps	ymm7, ymm7	# tmp1152, tmp1148
.LBE3012:
.LBE3011:
.LBE3068:
.LBB3069:
.LBB3070:
.LBB3071:
# /usr/lib/gcc/x86_64-linux-gnu/16/include/avx2intrin.h:491:   return (__m256i) __builtin_ia32_pmovzxbd256 ((__v16qi)__X);
	.loc 15 491 47 view .LVU564
	vpmovzxbd	ymm15, QWORD PTR 3[rsi+rcx]	# tmp1133, MEM[(__m64_u * {ref-all})_1185 + 3B + ivtmp.547_195 * 1]
.LBE3071:
.LBE3070:
.LBE3069:
.LBB3084:
.LBB3085:
.LBB3086:
	vpmovzxbd	ymm14, QWORD PTR 11[rsi+rcx]	# tmp1138, MEM[(__m64_u * {ref-all})_1185 + 11B + ivtmp.547_195 * 1]
.LBE3086:
.LBE3085:
.LBE3084:
.LBB3097:
.LBB3027:
.LBB3028:
# /usr/lib/gcc/x86_64-linux-gnu/16/include/avxintrin.h:407:   return (__m256)__builtin_ia32_cvtdq2ps256 ((__v8si) __A);
	.loc 13 407 10 view .LVU565
	vcvtdq2ps	ymm6, ymm6	# tmp1157, tmp1153
.LBE3028:
.LBE3027:
.LBE3097:
.LBB3098:
.LBB3042:
.LBB3043:
	vcvtdq2ps	ymm5, ymm5	# tmp1162, tmp1158
.LBE3043:
.LBE3042:
.LBE3098:
.LBB3099:
.LBB2991:
.LBB2990:
	vcvtdq2ps	ymm22, ymm22	# tmp1127, tmp1123
.LVL104:
	.loc 13 407 10 view .LVU566
.LBE2990:
.LBE2991:
.LBE3099:
	.loc 1 122 25 is_stmt 1 view .LVU567
.LBB3100:
.LBI3054:
	.loc 1 23 22 view .LVU568
	.loc 1 24 5 view .LVU569
.LBB3058:
.LBI3058:
	.loc 14 711 1 view .LVU570
.LBB3059:
	.loc 14 713 3 view .LVU571
.LBB3060:
.LBI3060:
	.loc 14 600 1 view .LVU572
.LBB3061:
	.loc 14 602 3 view .LVU573
.LBB3062:
.LBI3062:
	.loc 14 594 1 view .LVU574
.LBB3063:
	.loc 14 596 3 view .LVU575
	.loc 14 596 3 is_stmt 0 view .LVU576
.LBE3063:
.LBE3062:
.LBE3061:
.LBE3060:
.LBE3059:
.LBE3058:
.LBB3064:
.LBI3055:
	.loc 15 489 1 is_stmt 1 view .LVU577
.LBB3057:
	.loc 15 491 3 view .LVU578
	.loc 15 491 3 is_stmt 0 view .LVU579
.LBE3057:
.LBE3064:
.LBB3065:
.LBI3065:
	.loc 13 405 1 is_stmt 1 view .LVU580
.LBB3066:
	.loc 13 407 3 view .LVU581
# /usr/lib/gcc/x86_64-linux-gnu/16/include/avxintrin.h:407:   return (__m256)__builtin_ia32_cvtdq2ps256 ((__v8si) __A);
	.loc 13 407 10 is_stmt 0 view .LVU582
	vcvtdq2ps	ymm21, ymm21	# tmp1132, tmp1128
.LVL105:
	.loc 13 407 10 view .LVU583
.LBE3066:
.LBE3065:
.LBE3100:
	.loc 1 123 25 is_stmt 1 view .LVU584
.LBB3101:
.LBI3069:
	.loc 1 23 22 view .LVU585
	.loc 1 24 5 view .LVU586
.LBB3073:
.LBI3073:
	.loc 14 711 1 view .LVU587
.LBB3074:
	.loc 14 713 3 view .LVU588
.LBB3075:
.LBI3075:
	.loc 14 600 1 view .LVU589
.LBB3076:
	.loc 14 602 3 view .LVU590
.LBB3077:
.LBI3077:
	.loc 14 594 1 view .LVU591
.LBB3078:
	.loc 14 596 3 view .LVU592
	.loc 14 596 3 is_stmt 0 view .LVU593
.LBE3078:
.LBE3077:
.LBE3076:
.LBE3075:
.LBE3074:
.LBE3073:
.LBB3079:
.LBI3070:
	.loc 15 489 1 is_stmt 1 view .LVU594
.LBB3072:
	.loc 15 491 3 view .LVU595
	.loc 15 491 3 is_stmt 0 view .LVU596
.LBE3072:
.LBE3079:
.LBB3080:
.LBI3080:
	.loc 13 405 1 is_stmt 1 view .LVU597
.LBB3081:
	.loc 13 407 3 view .LVU598
.LBE3081:
.LBE3080:
.LBE3101:
.LBB3102:
.LBB3103:
# /usr/lib/gcc/x86_64-linux-gnu/16/include/fmaintrin.h:65:   return (__m256)__builtin_ia32_vfmaddps256 ((__v8sf)__A, (__v8sf)__B,
	.file 16 "/usr/lib/gcc/x86_64-linux-gnu/16/include/fmaintrin.h"
	.loc 16 65 10 is_stmt 0 view .LVU599
	vfmadd213ps	ymm22, ymm3, YMMWORD PTR -64[rax]	# tmp1163, _332, MEM[(__m256_u * {ref-all})_1212]
.LVL106:
	.loc 16 65 10 view .LVU600
.LBE3103:
.LBE3102:
.LBB3105:
.LBB3106:
	vfmadd213ps	ymm21, ymm3, YMMWORD PTR -32[rax]	# tmp1165, _332, MEM[(__m256_u * {ref-all})_1212 + 32B]
.LVL107:
	.loc 16 65 10 view .LVU601
.LBE3106:
.LBE3105:
.LBB3108:
.LBB3083:
.LBB3082:
# /usr/lib/gcc/x86_64-linux-gnu/16/include/avxintrin.h:407:   return (__m256)__builtin_ia32_cvtdq2ps256 ((__v8si) __A);
	.loc 13 407 10 view .LVU602
	vcvtdq2ps	ymm15, ymm15	# tmp1137, tmp1133
.LVL108:
	.loc 13 407 10 view .LVU603
.LBE3082:
.LBE3083:
.LBE3108:
	.loc 1 124 25 is_stmt 1 view .LVU604
.LBB3109:
.LBI3084:
	.loc 1 23 22 view .LVU605
	.loc 1 24 5 view .LVU606
.LBB3088:
.LBI3088:
	.loc 14 711 1 view .LVU607
.LBB3089:
	.loc 14 713 3 view .LVU608
.LBB3090:
.LBI3090:
	.loc 14 600 1 view .LVU609
.LBB3091:
	.loc 14 602 3 view .LVU610
.LBB3092:
.LBI3092:
	.loc 14 594 1 view .LVU611
.LBB3093:
	.loc 14 596 3 view .LVU612
	.loc 14 596 3 is_stmt 0 view .LVU613
.LBE3093:
.LBE3092:
.LBE3091:
.LBE3090:
.LBE3089:
.LBE3088:
.LBB3094:
.LBI3085:
	.loc 15 489 1 is_stmt 1 view .LVU614
.LBB3087:
	.loc 15 491 3 view .LVU615
	.loc 15 491 3 is_stmt 0 view .LVU616
.LBE3087:
.LBE3094:
.LBB3095:
.LBI3095:
	.loc 13 405 1 is_stmt 1 view .LVU617
.LBB3096:
	.loc 13 407 3 view .LVU618
# /usr/lib/gcc/x86_64-linux-gnu/16/include/avxintrin.h:407:   return (__m256)__builtin_ia32_cvtdq2ps256 ((__v8si) __A);
	.loc 13 407 10 is_stmt 0 view .LVU619
	vcvtdq2ps	ymm14, ymm14	# tmp1142, tmp1138
.LVL109:
	.loc 13 407 10 view .LVU620
.LBE3096:
.LBE3095:
.LBE3109:
	.loc 1 125 25 is_stmt 1 view .LVU621
.LBB3110:
.LBI2992:
	.loc 1 23 22 view .LVU622
	.loc 1 24 5 view .LVU623
.LBB2999:
.LBI2999:
	.loc 14 711 1 view .LVU624
.LBB3000:
	.loc 14 713 3 view .LVU625
.LBB3001:
.LBI3001:
	.loc 14 600 1 view .LVU626
.LBB3002:
	.loc 14 602 3 view .LVU627
.LBB3003:
.LBI3003:
	.loc 14 594 1 view .LVU628
.LBB3004:
	.loc 14 596 3 view .LVU629
	.loc 14 596 3 is_stmt 0 view .LVU630
.LBE3004:
.LBE3003:
.LBE3002:
.LBE3001:
.LBE3000:
.LBE2999:
.LBB3005:
.LBI2993:
	.loc 15 489 1 is_stmt 1 view .LVU631
.LBB2995:
	.loc 15 491 3 view .LVU632
.LBE2995:
.LBE3005:
.LBB3006:
.LBI2996:
	.loc 13 405 1 view .LVU633
.LBB2998:
	.loc 13 407 3 view .LVU634
	.loc 13 407 3 is_stmt 0 view .LVU635
.LBE2998:
.LBE3006:
.LBE3110:
	.loc 1 126 25 is_stmt 1 view .LVU636
.LBB3111:
.LBI3007:
	.loc 1 23 22 view .LVU637
	.loc 1 24 5 view .LVU638
.LBB3014:
.LBI3014:
	.loc 14 711 1 view .LVU639
.LBB3015:
	.loc 14 713 3 view .LVU640
.LBB3016:
.LBI3016:
	.loc 14 600 1 view .LVU641
.LBB3017:
	.loc 14 602 3 view .LVU642
.LBB3018:
.LBI3018:
	.loc 14 594 1 view .LVU643
.LBB3019:
	.loc 14 596 3 view .LVU644
	.loc 14 596 3 is_stmt 0 view .LVU645
.LBE3019:
.LBE3018:
.LBE3017:
.LBE3016:
.LBE3015:
.LBE3014:
.LBB3020:
.LBI3008:
	.loc 15 489 1 is_stmt 1 view .LVU646
.LBB3010:
	.loc 15 491 3 view .LVU647
.LBE3010:
.LBE3020:
.LBB3021:
.LBI3011:
	.loc 13 405 1 view .LVU648
.LBB3013:
	.loc 13 407 3 view .LVU649
	.loc 13 407 3 is_stmt 0 view .LVU650
.LBE3013:
.LBE3021:
.LBE3111:
	.loc 1 127 25 is_stmt 1 view .LVU651
.LBB3112:
.LBI3023:
	.loc 1 23 22 view .LVU652
	.loc 1 24 5 view .LVU653
.LBB3030:
.LBI3030:
	.loc 14 711 1 view .LVU654
.LBB3031:
	.loc 14 713 3 view .LVU655
.LBB3032:
.LBI3032:
	.loc 14 600 1 view .LVU656
.LBB3033:
	.loc 14 602 3 view .LVU657
.LBB3034:
.LBI3034:
	.loc 14 594 1 view .LVU658
.LBB3035:
	.loc 14 596 3 view .LVU659
	.loc 14 596 3 is_stmt 0 view .LVU660
.LBE3035:
.LBE3034:
.LBE3033:
.LBE3032:
.LBE3031:
.LBE3030:
.LBB3036:
.LBI3024:
	.loc 15 489 1 is_stmt 1 view .LVU661
.LBB3026:
	.loc 15 491 3 view .LVU662
.LBE3026:
.LBE3036:
.LBB3037:
.LBI3027:
	.loc 13 405 1 view .LVU663
.LBB3029:
	.loc 13 407 3 view .LVU664
	.loc 13 407 3 is_stmt 0 view .LVU665
.LBE3029:
.LBE3037:
.LBE3112:
	.loc 1 128 25 is_stmt 1 view .LVU666
.LBB3113:
.LBI3038:
	.loc 1 23 22 view .LVU667
	.loc 1 24 5 view .LVU668
.LBB3045:
.LBI3045:
	.loc 14 711 1 view .LVU669
.LBB3046:
	.loc 14 713 3 view .LVU670
.LBB3047:
.LBI3047:
	.loc 14 600 1 view .LVU671
.LBB3048:
	.loc 14 602 3 view .LVU672
.LBB3049:
.LBI3049:
	.loc 14 594 1 view .LVU673
.LBB3050:
	.loc 14 596 3 view .LVU674
	.loc 14 596 3 is_stmt 0 view .LVU675
.LBE3050:
.LBE3049:
.LBE3048:
.LBE3047:
.LBE3046:
.LBE3045:
.LBB3051:
.LBI3039:
	.loc 15 489 1 is_stmt 1 view .LVU676
.LBB3041:
	.loc 15 491 3 view .LVU677
.LBE3041:
.LBE3051:
.LBB3052:
.LBI3042:
	.loc 13 405 1 view .LVU678
.LBB3044:
	.loc 13 407 3 view .LVU679
	.loc 13 407 3 is_stmt 0 view .LVU680
.LBE3044:
.LBE3052:
.LBE3113:
	.loc 1 129 25 is_stmt 1 view .LVU681
.LBB3114:
.LBI3114:
	.loc 13 847 1 view .LVU682
.LBB3115:
	.loc 13 849 3 view .LVU683
	.loc 13 849 3 is_stmt 0 view .LVU684
.LBE3115:
.LBE3114:
	.loc 1 130 25 is_stmt 1 view .LVU685
.LBB3116:
.LBI3116:
	.loc 13 847 1 view .LVU686
.LBB3117:
	.loc 13 849 3 view .LVU687
	.loc 13 849 3 is_stmt 0 view .LVU688
.LBE3117:
.LBE3116:
	.loc 1 131 25 is_stmt 1 view .LVU689
.LBB3118:
.LBI3102:
	.loc 16 63 1 view .LVU690
.LBB3104:
	.loc 16 65 3 view .LVU691
	.loc 16 65 3 is_stmt 0 view .LVU692
.LBE3104:
.LBE3118:
	.loc 1 132 25 is_stmt 1 view .LVU693
.LBB3119:
.LBI3105:
	.loc 16 63 1 view .LVU694
.LBB3107:
	.loc 16 65 3 view .LVU695
	.loc 16 65 3 is_stmt 0 view .LVU696
.LBE3107:
.LBE3119:
	.loc 1 133 25 is_stmt 1 view .LVU697
.LBB3120:
.LBI3120:
	.loc 16 63 1 view .LVU698
.LBB3121:
	.loc 16 65 3 view .LVU699
# /usr/lib/gcc/x86_64-linux-gnu/16/include/fmaintrin.h:65:   return (__m256)__builtin_ia32_vfmaddps256 ((__v8sf)__A, (__v8sf)__B,
	.loc 16 65 10 is_stmt 0 view .LVU700
	vfmadd132ps	ymm15, ymm22, ymm2	# tmp1167, tmp1163, _333
.LVL110:
	.loc 16 65 10 view .LVU701
.LBE3121:
.LBE3120:
	.loc 1 134 25 is_stmt 1 view .LVU702
.LBB3122:
.LBI3122:
	.loc 16 63 1 view .LVU703
.LBB3123:
	.loc 16 65 3 view .LVU704
# /usr/lib/gcc/x86_64-linux-gnu/16/include/fmaintrin.h:65:   return (__m256)__builtin_ia32_vfmaddps256 ((__v8sf)__A, (__v8sf)__B,
	.loc 16 65 10 is_stmt 0 view .LVU705
	vfmadd132ps	ymm14, ymm21, ymm2	# tmp1168, tmp1165, _333
.LVL111:
	.loc 16 65 10 view .LVU706
.LBE3123:
.LBE3122:
	.loc 1 135 25 is_stmt 1 view .LVU707
.LBB3124:
.LBI3124:
	.loc 16 63 1 view .LVU708
.LBB3125:
	.loc 16 65 3 view .LVU709
# /usr/lib/gcc/x86_64-linux-gnu/16/include/fmaintrin.h:65:   return (__m256)__builtin_ia32_vfmaddps256 ((__v8sf)__A, (__v8sf)__B,
	.loc 16 65 10 is_stmt 0 view .LVU710
	vfmadd132ps	ymm8, ymm15, ymm1	# tmp1169, tmp1167, _334
.LVL112:
	.loc 16 65 10 view .LVU711
.LBE3125:
.LBE3124:
	.loc 1 136 25 is_stmt 1 view .LVU712
.LBB3126:
.LBI3126:
	.loc 16 63 1 view .LVU713
.LBB3127:
	.loc 16 65 3 view .LVU714
# /usr/lib/gcc/x86_64-linux-gnu/16/include/fmaintrin.h:65:   return (__m256)__builtin_ia32_vfmaddps256 ((__v8sf)__A, (__v8sf)__B,
	.loc 16 65 10 is_stmt 0 view .LVU715
	vfmadd132ps	ymm7, ymm14, ymm1	# tmp1170, tmp1168, _334
.LVL113:
	.loc 16 65 10 view .LVU716
.LBE3127:
.LBE3126:
	.loc 1 137 25 is_stmt 1 view .LVU717
.LBB3128:
.LBI3128:
	.loc 16 63 1 view .LVU718
.LBB3129:
	.loc 16 65 3 view .LVU719
# /usr/lib/gcc/x86_64-linux-gnu/16/include/fmaintrin.h:65:   return (__m256)__builtin_ia32_vfmaddps256 ((__v8sf)__A, (__v8sf)__B,
	.loc 16 65 10 is_stmt 0 view .LVU720
	vfmadd132ps	ymm6, ymm8, ymm0	# tmp1171, tmp1169, _335
.LVL114:
	.loc 16 65 10 view .LVU721
.LBE3129:
.LBE3128:
	.loc 1 138 25 is_stmt 1 view .LVU722
.LBB3130:
.LBI3130:
	.loc 16 63 1 view .LVU723
.LBB3131:
	.loc 16 65 3 view .LVU724
# /usr/lib/gcc/x86_64-linux-gnu/16/include/fmaintrin.h:65:   return (__m256)__builtin_ia32_vfmaddps256 ((__v8sf)__A, (__v8sf)__B,
	.loc 16 65 10 is_stmt 0 view .LVU725
	vfmadd132ps	ymm5, ymm7, ymm0	# tmp1172, tmp1170, _335
.LVL115:
	.loc 16 65 10 view .LVU726
.LBE3131:
.LBE3130:
	.loc 1 139 25 is_stmt 1 view .LVU727
.LBB3132:
.LBI3132:
	.loc 13 853 1 view .LVU728
.LBB3133:
	.loc 13 855 3 view .LVU729
# /usr/lib/gcc/x86_64-linux-gnu/16/include/avxintrin.h:855:   *(__m256_u *)__P = __A;
	.loc 13 855 20 is_stmt 0 view .LVU730
	vmovups	YMMWORD PTR -64[rax], ymm6	# MEM[(__m256_u * {ref-all})_1212], tmp1171
.LVL116:
	.loc 13 855 20 view .LVU731
.LBE3133:
.LBE3132:
	.loc 1 140 25 is_stmt 1 view .LVU732
.LBB3134:
.LBI3134:
	.loc 13 853 1 view .LVU733
.LBB3135:
	.loc 13 855 3 view .LVU734
# /usr/lib/gcc/x86_64-linux-gnu/16/include/avxintrin.h:855:   *(__m256_u *)__P = __A;
	.loc 13 855 20 is_stmt 0 view .LVU735
	vmovups	YMMWORD PTR -32[rax], ymm5	# MEM[(__m256_u * {ref-all})_1212 + 32B], tmp1172
.LVL117:
	.loc 13 855 20 view .LVU736
.LBE3135:
.LBE3134:
.LBE3137:
	.loc 1 120 21 is_stmt 1 discriminator 1 view .LVU737
	.loc 1 120 36 discriminator 2 view .LVU738
	cmp	rdi, rax	# _250, ivtmp.540
	jne	.L40	#,
.LBE2973:
	.loc 1 143 21 view .LVU739
.LBB3138:
	mov	edi, DWORD PTR 184[rsp]	# _175, %sfp
	mov	ebx, DWORD PTR 272[rsp]	# x_floats_304, %sfp
	lea	eax, 16[rdi]	# xf,
	mov	DWORD PTR 256[rsp], eax	# %sfp, xf
	cmp	DWORD PTR 188[rsp], ebx	# %sfp, x_floats_304
	jge	.L44	#,
.LBB2969:
# src/opt17_ilp_only.cpp:144:                         __m256 rl0 = load_cvt8(p.SUB + rb0 + xf);
	.loc 1 144 60 is_stmt 0 view .LVU740
	mov	rax, QWORD PTR 168[rsp]	# _1343, %sfp
# src/opt17_ilp_only.cpp:148:                         __m256 v = _mm256_loadu_ps(vp + xf);
	.loc 1 148 55 view .LVU741
	add	edi, 24	# xf,
	mov	DWORD PTR 256[rsp], edi	# %sfp, xf
# src/opt17_ilp_only.cpp:144:                         __m256 rl0 = load_cvt8(p.SUB + rb0 + xf);
	.loc 1 144 60 view .LVU742
	lea	rsi, [rcx+rax]	# _1345,
.LVL118:
# src/opt17_ilp_only.cpp:146:                         __m256 rl1 = load_cvt8(p.SUB + rb1 + xf);
	.loc 1 146 60 view .LVU743
	lea	rdx, [rax+r14]	# _1347,
.LVL119:
# src/opt17_ilp_only.cpp:148:                         __m256 v = _mm256_loadu_ps(vp + xf);
	.loc 1 148 55 view .LVU744
	mov	rax, QWORD PTR 160[rsp]	# _1349, %sfp
	add	rax, r15	# _1351, ivtmp.546
.LVL120:
.L42:
	.loc 1 144 25 is_stmt 1 view .LVU745
.LBB2894:
.LBI2894:
	.loc 1 23 22 view .LVU746
	.loc 1 24 5 view .LVU747
.LBB2895:
.LBI2895:
	.loc 14 711 1 view .LVU748
.LBB2896:
	.loc 14 713 3 view .LVU749
.LBB2897:
.LBI2897:
	.loc 14 600 1 view .LVU750
.LBB2898:
	.loc 14 602 3 view .LVU751
.LBB2899:
.LBI2899:
	.loc 14 594 1 view .LVU752
.LBB2900:
	.loc 14 596 3 view .LVU753
	.loc 14 596 3 is_stmt 0 view .LVU754
.LBE2900:
.LBE2899:
.LBE2898:
.LBE2897:
.LBE2896:
.LBE2895:
.LBB2901:
.LBI2901:
	.loc 15 489 1 is_stmt 1 view .LVU755
.LBB2902:
	.loc 15 491 3 view .LVU756
# /usr/lib/gcc/x86_64-linux-gnu/16/include/avx2intrin.h:491:   return (__m256i) __builtin_ia32_pmovzxbd256 ((__v16qi)__X);
	.loc 15 491 47 is_stmt 0 view .LVU757
	vpmovzxbd	ymm8, QWORD PTR [r12+rsi]	# tmp1173, MEM[(__m64_u * {ref-all})_131]
.LVL121:
	.loc 15 491 47 view .LVU758
.LBE2902:
.LBE2901:
.LBB2903:
.LBI2903:
	.loc 13 405 1 is_stmt 1 view .LVU759
.LBB2904:
	.loc 13 407 3 view .LVU760
.LBE2904:
.LBE2903:
.LBE2894:
.LBB2907:
.LBB2908:
.LBB2909:
# /usr/lib/gcc/x86_64-linux-gnu/16/include/avx2intrin.h:491:   return (__m256i) __builtin_ia32_pmovzxbd256 ((__v16qi)__X);
	.loc 15 491 47 is_stmt 0 view .LVU761
	vpmovzxbd	ymm7, QWORD PTR 3[r12+rsi]	# tmp1178, MEM[(__m64_u * {ref-all})_133]
.LBE2909:
.LBE2908:
.LBE2907:
.LBB2922:
.LBB2923:
.LBB2924:
	vpmovzxbd	ymm6, QWORD PTR [r12+rdx]	# tmp1183, MEM[(__m64_u * {ref-all})_135]
.LBE2924:
.LBE2923:
.LBE2922:
.LBB2935:
.LBB2936:
.LBB2937:
	vpmovzxbd	ymm5, QWORD PTR 3[r12+rdx]	# tmp1188, MEM[(__m64_u * {ref-all})_137]
.LBE2937:
.LBE2936:
.LBE2935:
.LBB2948:
.LBB2906:
.LBB2905:
# /usr/lib/gcc/x86_64-linux-gnu/16/include/avxintrin.h:407:   return (__m256)__builtin_ia32_cvtdq2ps256 ((__v8si) __A);
	.loc 13 407 10 view .LVU762
	vcvtdq2ps	ymm8, ymm8	# tmp1177, tmp1173
.LVL122:
	.loc 13 407 10 view .LVU763
.LBE2905:
.LBE2906:
.LBE2948:
	.loc 1 145 25 is_stmt 1 view .LVU764
.LBB2949:
.LBI2907:
	.loc 1 23 22 view .LVU765
	.loc 1 24 5 view .LVU766
.LBB2911:
.LBI2911:
	.loc 14 711 1 view .LVU767
.LBB2912:
	.loc 14 713 3 view .LVU768
.LBB2913:
.LBI2913:
	.loc 14 600 1 view .LVU769
.LBB2914:
	.loc 14 602 3 view .LVU770
.LBB2915:
.LBI2915:
	.loc 14 594 1 view .LVU771
.LBB2916:
	.loc 14 596 3 view .LVU772
	.loc 14 596 3 is_stmt 0 view .LVU773
.LBE2916:
.LBE2915:
.LBE2914:
.LBE2913:
.LBE2912:
.LBE2911:
.LBB2917:
.LBI2908:
	.loc 15 489 1 is_stmt 1 view .LVU774
.LBB2910:
	.loc 15 491 3 view .LVU775
	.loc 15 491 3 is_stmt 0 view .LVU776
.LBE2910:
.LBE2917:
.LBB2918:
.LBI2918:
	.loc 13 405 1 is_stmt 1 view .LVU777
.LBB2919:
	.loc 13 407 3 view .LVU778
.LBE2919:
.LBE2918:
.LBE2949:
.LBB2950:
.LBB2951:
# /usr/lib/gcc/x86_64-linux-gnu/16/include/fmaintrin.h:65:   return (__m256)__builtin_ia32_vfmaddps256 ((__v8sf)__A, (__v8sf)__B,
	.loc 16 65 10 is_stmt 0 view .LVU779
	vfmadd213ps	ymm8, ymm3, YMMWORD PTR [rax]	# tmp1193, _332, MEM[(__m256_u * {ref-all})prephitmp_1352]
.LVL123:
	.loc 16 65 10 view .LVU780
.LBE2951:
.LBE2950:
.LBB2953:
.LBB2921:
.LBB2920:
# /usr/lib/gcc/x86_64-linux-gnu/16/include/avxintrin.h:407:   return (__m256)__builtin_ia32_cvtdq2ps256 ((__v8si) __A);
	.loc 13 407 10 view .LVU781
	vcvtdq2ps	ymm7, ymm7	# tmp1182, tmp1178
.LVL124:
	.loc 13 407 10 view .LVU782
.LBE2920:
.LBE2921:
.LBE2953:
	.loc 1 146 25 is_stmt 1 view .LVU783
.LBB2954:
.LBI2922:
	.loc 1 23 22 view .LVU784
	.loc 1 24 5 view .LVU785
.LBB2926:
.LBI2926:
	.loc 14 711 1 view .LVU786
.LBB2927:
	.loc 14 713 3 view .LVU787
.LBB2928:
.LBI2928:
	.loc 14 600 1 view .LVU788
.LBB2929:
	.loc 14 602 3 view .LVU789
.LBB2930:
.LBI2930:
	.loc 14 594 1 view .LVU790
.LBB2931:
	.loc 14 596 3 view .LVU791
	.loc 14 596 3 is_stmt 0 view .LVU792
.LBE2931:
.LBE2930:
.LBE2929:
.LBE2928:
.LBE2927:
.LBE2926:
.LBB2932:
.LBI2923:
	.loc 15 489 1 is_stmt 1 view .LVU793
.LBB2925:
	.loc 15 491 3 view .LVU794
	.loc 15 491 3 is_stmt 0 view .LVU795
.LBE2925:
.LBE2932:
.LBB2933:
.LBI2933:
	.loc 13 405 1 is_stmt 1 view .LVU796
.LBB2934:
	.loc 13 407 3 view .LVU797
# /usr/lib/gcc/x86_64-linux-gnu/16/include/avxintrin.h:407:   return (__m256)__builtin_ia32_cvtdq2ps256 ((__v8si) __A);
	.loc 13 407 10 is_stmt 0 view .LVU798
	vcvtdq2ps	ymm6, ymm6	# tmp1187, tmp1183
.LVL125:
	.loc 13 407 10 view .LVU799
.LBE2934:
.LBE2933:
.LBE2954:
	.loc 1 147 25 is_stmt 1 view .LVU800
.LBB2955:
.LBI2935:
	.loc 1 23 22 view .LVU801
	.loc 1 24 5 view .LVU802
.LBB2939:
.LBI2939:
	.loc 14 711 1 view .LVU803
.LBB2940:
	.loc 14 713 3 view .LVU804
.LBB2941:
.LBI2941:
	.loc 14 600 1 view .LVU805
.LBB2942:
	.loc 14 602 3 view .LVU806
.LBB2943:
.LBI2943:
	.loc 14 594 1 view .LVU807
.LBB2944:
	.loc 14 596 3 view .LVU808
	.loc 14 596 3 is_stmt 0 view .LVU809
.LBE2944:
.LBE2943:
.LBE2942:
.LBE2941:
.LBE2940:
.LBE2939:
.LBB2945:
.LBI2936:
	.loc 15 489 1 is_stmt 1 view .LVU810
.LBB2938:
	.loc 15 491 3 view .LVU811
	.loc 15 491 3 is_stmt 0 view .LVU812
.LBE2938:
.LBE2945:
.LBB2946:
.LBI2946:
	.loc 13 405 1 is_stmt 1 view .LVU813
.LBB2947:
	.loc 13 407 3 view .LVU814
# /usr/lib/gcc/x86_64-linux-gnu/16/include/avxintrin.h:407:   return (__m256)__builtin_ia32_cvtdq2ps256 ((__v8si) __A);
	.loc 13 407 10 is_stmt 0 view .LVU815
	vcvtdq2ps	ymm5, ymm5	# tmp1192, tmp1188
.LVL126:
	.loc 13 407 10 view .LVU816
.LBE2947:
.LBE2946:
.LBE2955:
	.loc 1 148 25 is_stmt 1 view .LVU817
.LBB2956:
.LBI2956:
	.loc 13 847 1 view .LVU818
.LBB2957:
	.loc 13 849 3 view .LVU819
	.loc 13 849 3 is_stmt 0 view .LVU820
.LBE2957:
.LBE2956:
	.loc 1 149 25 is_stmt 1 view .LVU821
.LBB2958:
.LBI2950:
	.loc 16 63 1 view .LVU822
.LBB2952:
	.loc 16 65 3 view .LVU823
	.loc 16 65 3 is_stmt 0 view .LVU824
.LBE2952:
.LBE2958:
	.loc 1 150 25 is_stmt 1 view .LVU825
.LBB2959:
.LBI2959:
	.loc 16 63 1 view .LVU826
.LBB2960:
	.loc 16 65 3 view .LVU827
# /usr/lib/gcc/x86_64-linux-gnu/16/include/fmaintrin.h:65:   return (__m256)__builtin_ia32_vfmaddps256 ((__v8sf)__A, (__v8sf)__B,
	.loc 16 65 10 is_stmt 0 view .LVU828
	vfmadd132ps	ymm7, ymm8, ymm2	# tmp1195, tmp1193, _333
.LVL127:
	.loc 16 65 10 view .LVU829
.LBE2960:
.LBE2959:
	.loc 1 151 25 is_stmt 1 view .LVU830
.LBB2961:
.LBI2961:
	.loc 16 63 1 view .LVU831
.LBB2962:
	.loc 16 65 3 view .LVU832
# /usr/lib/gcc/x86_64-linux-gnu/16/include/fmaintrin.h:65:   return (__m256)__builtin_ia32_vfmaddps256 ((__v8sf)__A, (__v8sf)__B,
	.loc 16 65 10 is_stmt 0 view .LVU833
	vfmadd132ps	ymm6, ymm7, ymm1	# tmp1196, tmp1195, _334
.LVL128:
	.loc 16 65 10 view .LVU834
.LBE2962:
.LBE2961:
	.loc 1 152 25 is_stmt 1 view .LVU835
.LBB2963:
.LBI2963:
	.loc 16 63 1 view .LVU836
.LBB2964:
	.loc 16 65 3 view .LVU837
# /usr/lib/gcc/x86_64-linux-gnu/16/include/fmaintrin.h:65:   return (__m256)__builtin_ia32_vfmaddps256 ((__v8sf)__A, (__v8sf)__B,
	.loc 16 65 10 is_stmt 0 view .LVU838
	vfmadd132ps	ymm5, ymm6, ymm0	# tmp1197, tmp1196, _335
.LVL129:
	.loc 16 65 10 view .LVU839
.LBE2964:
.LBE2963:
	.loc 1 153 25 is_stmt 1 view .LVU840
.LBB2965:
.LBI2965:
	.loc 13 853 1 view .LVU841
.LBB2966:
	.loc 13 855 3 view .LVU842
# /usr/lib/gcc/x86_64-linux-gnu/16/include/avxintrin.h:855:   *(__m256_u *)__P = __A;
	.loc 13 855 20 is_stmt 0 view .LVU843
	vmovups	YMMWORD PTR [rax], ymm5	# MEM[(__m256_u * {ref-all})prephitmp_1352], tmp1197
.LVL130:
	.loc 13 855 20 view .LVU844
.LBE2966:
.LBE2965:
	.loc 1 154 25 is_stmt 1 view .LVU845
.L44:
	.loc 1 154 25 is_stmt 0 view .LVU846
.LBE2969:
.LBE3138:
	.loc 1 157 21 is_stmt 1 view .LVU847
.LBB3139:
	.loc 1 157 39 discriminator 2 view .LVU848
# src/opt17_ilp_only.cpp:157:                     for (int k = 0; k < x_floats - xf; ++k) {
	.loc 1 157 50 is_stmt 0 discriminator 2 view .LVU849
	mov	edi, DWORD PTR 272[rsp]	# _262, %sfp
	mov	eax, DWORD PTR 256[rsp]	# xf, %sfp
	sub	edi, eax	# _262, xf
# src/opt17_ilp_only.cpp:157:                     for (int k = 0; k < x_floats - xf; ++k) {
	.loc 1 157 39 discriminator 2 view .LVU850
	test	edi, edi	# _262
	jle	.L45	#,
.LBB3140:
# src/opt17_ilp_only.cpp:158:                         float s0l = p.SUB[rb0+xf+k], s0r = p.SUB[rb0+xf+k+3];
	.loc 1 158 47 view .LVU851
	mov	r10d, eax	# _1223, xf
# src/opt17_ilp_only.cpp:158:                         float s0l = p.SUB[rb0+xf+k], s0r = p.SUB[rb0+xf+k+3];
	.loc 1 158 46 view .LVU852
	lea	r8, [rcx+r10]	# _1376,
# src/opt17_ilp_only.cpp:159:                         float s1l = p.SUB[rb1+xf+k], s1r = p.SUB[rb1+xf+k+3];
	.loc 1 159 46 view .LVU853
	lea	r9, [r10+r14]	# _1378,
.LVL131:
.L43:
	.loc 1 159 46 view .LVU854
	mov	rax, QWORD PTR 232[rsp]	# ivtmp.549, %sfp
	mov	rsi, QWORD PTR 248[rsp]	# _705, %sfp
	mov	r11d, edi	# _1327, _262
	lea	r13, 3[r11+r9]	# _1200,
	lea	rbx, [rax+r10]	# _1222,
	add	r13, r12	# _1199, pretmp_1478
	lea	rax, [rsi+rbx*4]	# _1220,
	lea	rdx, [rbx+r11]	# _1209,
	mov	QWORD PTR 240[rsp], rbx	# %sfp, _1222
	cmp	rax, r13	# _1220, _1199
	lea	rbx, [rsi+rdx*4]	# _1207,
	lea	rsi, [r12+r8]	# _1206,
	setnb	BYTE PTR 220[rsp]	#, %sfp
	lea	rdx, [r12+r9]	# _1174,
	cmp	rdx, rbx	# _1174, _1207
	mov	QWORD PTR 224[rsp], rsi	# %sfp, _1206
	movzx	esi, BYTE PTR 220[rsp]	# _1187, %sfp
	setnb	r13b	#, _1173
	or	sil, r13b	# _1187, _1173
	je	.L46	#,
	lea	r11, 3[r11+r8]	# _1324,
	mov	rsi, QWORD PTR 224[rsp]	# _1206, %sfp
	add	r11, r12	# _395, pretmp_1478
	cmp	rax, r11	# _1220, _395
	setnb	r11b	#, _1219
	cmp	rsi, rbx	# _1206, _1207
	setnb	bl	#, _1205
	or	r11b, bl	# _1219, _1205
	je	.L46	#,
	lea	r10d, -1[rdi]	# _1095,
	cmp	r10d, 30	# _1095,
	jbe	.L88	#,
	mov	r10d, edi	# bnd.356, _262
	lea	rbx, 3[r12+r9]	# vectp.360,
	lea	r11, 3[r12+r8]	# vectp.366,
	shr	r10d, 5	# bnd.356,
	mov	r13d, r10d	# _1175, bnd.356
	mov	DWORD PTR 224[rsp], r10d	# %sfp, bnd.356
.LBE3140:
.LBE3139:
# src/opt17_ilp_only.cpp:118:                     int xf = 0;
	.loc 1 118 25 view .LVU855
	xor	r10d, r10d	# ivtmp.525
	sal	r13, 5	# _1176,
	.p2align 4,,10
	.p2align 3
.L48:
.LBB3153:
.LBB3141:
	.loc 1 158 25 is_stmt 1 view .LVU856
# src/opt17_ilp_only.cpp:159:                         float s1l = p.SUB[rb1+xf+k], s1r = p.SUB[rb1+xf+k+3];
	.loc 1 159 51 is_stmt 0 discriminator 106496 view .LVU857
	vmovdqu	ymm5, YMMWORD PTR [rdx+r10]	# MEM <const vector(32) unsigned char> [(const unsigned char *)_1174 + ivtmp.525_1023 * 1], MEM <const vector(32) unsigned char> [(const unsigned char *)_1174 + ivtmp.525_1023 * 1]
# src/opt17_ilp_only.cpp:158:                         float s0l = p.SUB[rb0+xf+k], s0r = p.SUB[rb0+xf+k+3];
	.loc 1 158 76 discriminator 106496 view .LVU858
	vmovdqu	ymm6, YMMWORD PTR [r11+r10]	# MEM <const vector(32) unsigned char> [(const unsigned char *)vectp.366_1063 + ivtmp.525_1023 * 1], MEM <const vector(32) unsigned char> [(const unsigned char *)vectp.366_1063 + ivtmp.525_1023 * 1]
	sub	rax, -128	# ivtmp.523,
# src/opt17_ilp_only.cpp:158:                         float s0l = p.SUB[rb0+xf+k], s0r = p.SUB[rb0+xf+k+3];
	.loc 1 158 51 discriminator 106496 view .LVU859
	vmovdqu	ymm7, YMMWORD PTR [rsi+r10]	# MEM <const vector(32) unsigned char> [(const unsigned char *)_1206 + ivtmp.525_1023 * 1], MEM <const vector(32) unsigned char> [(const unsigned char *)_1206 + ivtmp.525_1023 * 1]
# src/opt17_ilp_only.cpp:159:                         float s1l = p.SUB[rb1+xf+k], s1r = p.SUB[rb1+xf+k+3];
	.loc 1 159 31 discriminator 106496 view .LVU860
	vpmovzxbw	ymm8, xmm5	#, MEM <const vector(32) unsigned char> [(const unsigned char *)_1174 + ivtmp.525_1023 * 1]
# src/opt17_ilp_only.cpp:158:                         float s0l = p.SUB[rb0+xf+k], s0r = p.SUB[rb0+xf+k+3];
	.loc 1 158 54 discriminator 106496 view .LVU861
	vpmovzxbw	ymm14, xmm6	#, MEM <const vector(32) unsigned char> [(const unsigned char *)vectp.366_1063 + ivtmp.525_1023 * 1]
# src/opt17_ilp_only.cpp:159:                         float s1l = p.SUB[rb1+xf+k], s1r = p.SUB[rb1+xf+k+3];
	.loc 1 159 31 discriminator 106496 view .LVU862
	vextracti32x4	xmm5, ymm5, 0x1	# tmp1226, MEM <const vector(32) unsigned char> [(const unsigned char *)_1174 + ivtmp.525_1023 * 1]
	vpmovsxwd	ymm21, xmm8	#, vect_s1l_317.375
# src/opt17_ilp_only.cpp:158:                         float s0l = p.SUB[rb0+xf+k], s0r = p.SUB[rb0+xf+k+3];
	.loc 1 158 54 discriminator 106496 view .LVU863
	vpmovsxwd	ymm15, xmm14	#, vect_s0r_316.369
# src/opt17_ilp_only.cpp:159:                         float s1l = p.SUB[rb1+xf+k], s1r = p.SUB[rb1+xf+k+3];
	.loc 1 159 31 discriminator 106496 view .LVU864
	vpmovzxbw	ymm5, xmm5	# vect_s1l_317.375, tmp1226
	vcvtdq2ps	ymm21, ymm21	# vect_s1l_317.374_1038, tmp1231
# src/opt17_ilp_only.cpp:160:                         vp[xf+k] += p.A*s0l + p.B*s0r + p.C*s1l + p.D*s1r;
	.loc 1 160 60 discriminator 106496 view .LVU865
	vmulps	ymm21, ymm21, ymm1	# vect__168.376_1034, vect_s1l_317.374_1038, _334
# src/opt17_ilp_only.cpp:158:                         float s0l = p.SUB[rb0+xf+k], s0r = p.SUB[rb0+xf+k+3];
	.loc 1 158 54 discriminator 106496 view .LVU866
	vcvtdq2ps	ymm15, ymm15	# vect_s0r_316.368_1056, tmp1228
	vextracti32x4	xmm6, ymm6, 0x1	# tmp1223, MEM <const vector(32) unsigned char> [(const unsigned char *)vectp.366_1063 + ivtmp.525_1023 * 1]
# src/opt17_ilp_only.cpp:158:                         float s0l = p.SUB[rb0+xf+k], s0r = p.SUB[rb0+xf+k+3];
	.loc 1 158 31 discriminator 106496 view .LVU867
	vpmovzxbw	ymm22, xmm7	#, MEM <const vector(32) unsigned char> [(const unsigned char *)_1206 + ivtmp.525_1023 * 1]
# src/opt17_ilp_only.cpp:158:                         float s0l = p.SUB[rb0+xf+k], s0r = p.SUB[rb0+xf+k+3];
	.loc 1 158 54 discriminator 106496 view .LVU868
	vpmovzxbw	ymm6, xmm6	# vect_s0r_316.369, tmp1223
# src/opt17_ilp_only.cpp:158:                         float s0l = p.SUB[rb0+xf+k], s0r = p.SUB[rb0+xf+k+3];
	.loc 1 158 31 discriminator 106496 view .LVU869
	vpmovsxwd	ymm24, xmm22	#, vect_s0l_315.387
	vextracti32x4	xmm7, ymm7, 0x1	# tmp1220, MEM <const vector(32) unsigned char> [(const unsigned char *)_1206 + ivtmp.525_1023 * 1]
	vcvtdq2ps	ymm24, ymm24	# vect_s0l_315.386_1002, tmp1263
	vfmadd213ps	ymm24, ymm3, YMMWORD PTR -128[rax]	# tmp1261, _332, MEM <vector(8) float> [(float *)_1025]
	vextracti32x4	xmm22, ymm22, 0x1	# tmp1272, vect_s0l_315.387
	vpmovzxbw	ymm7, xmm7	# vect_s0l_315.387, tmp1220
.LVL132:
	.loc 1 159 25 is_stmt 1 view .LVU870
# src/opt17_ilp_only.cpp:158:                         float s0l = p.SUB[rb0+xf+k], s0r = p.SUB[rb0+xf+k+3];
	.loc 1 158 31 is_stmt 0 discriminator 106496 view .LVU871
	vpmovsxwd	ymm22, xmm22	# tmp1271, tmp1272
	vcvtdq2ps	ymm22, ymm22	# vect_s0l_315.386_1001, tmp1271
	vfmadd213ps	ymm22, ymm3, YMMWORD PTR -96[rax]	# tmp1269, _332, MEM <vector(8) float> [(float *)_1025 + 32B]
	vfmadd132ps	ymm15, ymm21, ymm2	# _97, vect__168.376_1034, _333
# src/opt17_ilp_only.cpp:158:                         float s0l = p.SUB[rb0+xf+k], s0r = p.SUB[rb0+xf+k+3];
	.loc 1 158 54 discriminator 106496 view .LVU872
	vextracti32x4	xmm21, ymm14, 0x1	# tmp1236, vect_s0r_316.369
# src/opt17_ilp_only.cpp:159:                         float s1l = p.SUB[rb1+xf+k], s1r = p.SUB[rb1+xf+k+3];
	.loc 1 159 31 discriminator 106496 view .LVU873
	vextracti32x4	xmm14, ymm8, 0x1	# tmp1239, vect_s1l_317.375
	vpmovsxwd	ymm14, xmm14	# tmp1238, tmp1239
# src/opt17_ilp_only.cpp:158:                         float s0l = p.SUB[rb0+xf+k], s0r = p.SUB[rb0+xf+k+3];
	.loc 1 158 54 discriminator 106496 view .LVU874
	vpmovsxwd	ymm21, xmm21	# tmp1235, tmp1236
# src/opt17_ilp_only.cpp:159:                         float s1l = p.SUB[rb1+xf+k], s1r = p.SUB[rb1+xf+k+3];
	.loc 1 159 31 discriminator 106496 view .LVU875
	vcvtdq2ps	ymm14, ymm14	# vect_s1l_317.374_1037, tmp1238
# src/opt17_ilp_only.cpp:160:                         vp[xf+k] += p.A*s0l + p.B*s0r + p.C*s1l + p.D*s1r;
	.loc 1 160 60 discriminator 106496 view .LVU876
	vmulps	ymm14, ymm14, ymm1	# vect__168.376_1033, vect_s1l_317.374_1037, _334
	vcvtdq2ps	ymm8, ymm21	# vect_s0r_316.368_1055, tmp1235
# src/opt17_ilp_only.cpp:158:                         float s0l = p.SUB[rb0+xf+k], s0r = p.SUB[rb0+xf+k+3];
	.loc 1 158 54 discriminator 106496 view .LVU877
	vpmovsxwd	ymm21, xmm6	#, vect_s0r_316.369
	vextracti32x4	xmm6, ymm6, 0x1	# tmp1250, vect_s0r_316.369
	vpmovsxwd	ymm6, xmm6	# tmp1249, tmp1250
	vcvtdq2ps	ymm21, ymm21	# vect_s0r_316.368_1054, tmp1242
	vcvtdq2ps	ymm6, ymm6	# vect_s0r_316.368_1053, tmp1249
	vfmadd132ps	ymm8, ymm14, ymm2	# vect_s0r_316.368_1055, vect__168.376_1033, _333
# src/opt17_ilp_only.cpp:159:                         float s1l = p.SUB[rb1+xf+k], s1r = p.SUB[rb1+xf+k+3];
	.loc 1 159 31 discriminator 106496 view .LVU878
	vpmovsxwd	ymm14, xmm5	#, vect_s1l_317.375
	vextracti32x4	xmm5, ymm5, 0x1	# tmp1253, vect_s1l_317.375
	vpmovsxwd	ymm5, xmm5	# tmp1252, tmp1253
	vcvtdq2ps	ymm14, ymm14	# vect_s1l_317.374_1036, tmp1245
	vcvtdq2ps	ymm5, ymm5	# vect_s1l_317.374_1035, tmp1252
# src/opt17_ilp_only.cpp:160:                         vp[xf+k] += p.A*s0l + p.B*s0r + p.C*s1l + p.D*s1r;
	.loc 1 160 60 discriminator 106496 view .LVU879
	vmulps	ymm5, ymm5, ymm1	# vect__168.376_1031, vect_s1l_317.374_1035, _334
	vmulps	ymm14, ymm14, ymm1	# vect__168.376_1032, vect_s1l_317.374_1036, _334
	vfmadd132ps	ymm6, ymm5, ymm2	# _1475, vect__168.376_1031, _333
.LVL133:
# src/opt17_ilp_only.cpp:159:                         float s1l = p.SUB[rb1+xf+k], s1r = p.SUB[rb1+xf+k+3];
	.loc 1 159 76 discriminator 106496 view .LVU880
	vmovdqu	ymm5, YMMWORD PTR [rbx+r10]	# MEM <const vector(32) unsigned char> [(const unsigned char *)vectp.360_1082 + ivtmp.525_1023 * 1], MEM <const vector(32) unsigned char> [(const unsigned char *)vectp.360_1082 + ivtmp.525_1023 * 1]
	add	r10, 32	# ivtmp.525,
	vfmadd132ps	ymm21, ymm14, ymm2	# _240, vect__168.376_1032, _333
# src/opt17_ilp_only.cpp:159:                         float s1l = p.SUB[rb1+xf+k], s1r = p.SUB[rb1+xf+k+3];
	.loc 1 159 54 discriminator 106496 view .LVU881
	vpmovzxbw	ymm14, xmm5	#, MEM <const vector(32) unsigned char> [(const unsigned char *)vectp.360_1082 + ivtmp.525_1023 * 1]
	vextracti32x4	xmm5, ymm5, 0x1	# tmp1257, MEM <const vector(32) unsigned char> [(const unsigned char *)vectp.360_1082 + ivtmp.525_1023 * 1]
	vpmovsxwd	ymm23, xmm14	#, vect_s1r_318.363
	vextracti32x4	xmm14, ymm14, 0x1	# tmp1268, vect_s1r_318.363
	vpmovzxbw	ymm5, xmm5	# vect_s1r_318.363, tmp1257
.LVL134:
	.loc 1 160 25 is_stmt 1 view .LVU882
# src/opt17_ilp_only.cpp:159:                         float s1l = p.SUB[rb1+xf+k], s1r = p.SUB[rb1+xf+k+3];
	.loc 1 159 54 is_stmt 0 discriminator 106496 view .LVU883
	vcvtdq2ps	ymm23, ymm23	# vect_s1r_318.362_1075, tmp1259
	vfmadd132ps	ymm23, ymm24, ymm0	# _98, tmp1261, _335
# src/opt17_ilp_only.cpp:158:                         float s0l = p.SUB[rb0+xf+k], s0r = p.SUB[rb0+xf+k+3];
	.loc 1 158 31 discriminator 106496 view .LVU884
	vpmovsxwd	ymm24, xmm7	#, vect_s0l_315.387
	vextracti32x4	xmm7, ymm7, 0x1	# tmp1289, vect_s0l_315.387
	vpmovsxwd	ymm7, xmm7	# tmp1288, tmp1289
	vcvtdq2ps	ymm24, ymm24	# vect_s0l_315.386_1000, tmp1279
	vfmadd213ps	ymm24, ymm3, YMMWORD PTR -64[rax]	# tmp1277, _332, MEM <vector(8) float> [(float *)_1025 + 64B]
# src/opt17_ilp_only.cpp:159:                         float s1l = p.SUB[rb1+xf+k], s1r = p.SUB[rb1+xf+k+3];
	.loc 1 159 54 discriminator 106496 view .LVU885
	vpmovsxwd	ymm14, xmm14	# tmp1267, tmp1268
# src/opt17_ilp_only.cpp:158:                         float s0l = p.SUB[rb0+xf+k], s0r = p.SUB[rb0+xf+k+3];
	.loc 1 158 31 discriminator 106496 view .LVU886
	vcvtdq2ps	ymm7, ymm7	# vect_s0l_315.386_999, tmp1288
# src/opt17_ilp_only.cpp:160:                         vp[xf+k] += p.A*s0l + p.B*s0r + p.C*s1l + p.D*s1r;
	.loc 1 160 34 discriminator 106496 view .LVU887
	vfmadd213ps	ymm7, ymm3, YMMWORD PTR -32[rax]	# tmp1286, _332, MEM <vector(8) float> [(float *)_1025 + 96B]
# src/opt17_ilp_only.cpp:159:                         float s1l = p.SUB[rb1+xf+k], s1r = p.SUB[rb1+xf+k+3];
	.loc 1 159 54 discriminator 106496 view .LVU888
	vcvtdq2ps	ymm14, ymm14	# vect_s1r_318.362_1074, tmp1267
	vfmadd132ps	ymm14, ymm22, ymm0	# _1439, tmp1269, _335
	vpmovsxwd	ymm22, xmm5	#, vect_s1r_318.363
	vextracti32x4	xmm5, ymm5, 0x1	# tmp1285, vect_s1r_318.363
	vcvtdq2ps	ymm22, ymm22	# vect_s1r_318.362_1073, tmp1275
	vpmovsxwd	ymm5, xmm5	# tmp1284, tmp1285
	vcvtdq2ps	ymm5, ymm5	# vect_s1r_318.362_1072, tmp1284
# src/opt17_ilp_only.cpp:160:                         vp[xf+k] += p.A*s0l + p.B*s0r + p.C*s1l + p.D*s1r;
	.loc 1 160 34 discriminator 106496 view .LVU889
	vaddps	ymm15, ymm15, ymm23	# vect__173.392_982, _97, _98
	vfmadd132ps	ymm22, ymm24, ymm0	# _1414, tmp1277, _335
	vfmadd132ps	ymm5, ymm7, ymm0	# tmp1282, tmp1286, _335
	vaddps	ymm8, ymm8, ymm14	# vect__173.392_981, _1426, _1439
	vmovups	YMMWORD PTR -128[rax], ymm15	# MEM <vector(8) float> [(float *)_1025], vect__173.392_982
	.loc 1 160 34 discriminator 106496 view .LVU890
	vmovups	YMMWORD PTR -96[rax], ymm8	# MEM <vector(8) float> [(float *)_1025 + 32B], vect__173.392_981
	vaddps	ymm21, ymm21, ymm22	# vect__173.392_980, _240, _1414
	vaddps	ymm5, ymm5, ymm6	# vect__173.392, tmp1282, _1475
	vmovups	YMMWORD PTR -64[rax], ymm21	# MEM <vector(8) float> [(float *)_1025 + 64B], vect__173.392_980
	vmovups	YMMWORD PTR -32[rax], ymm5	# MEM <vector(8) float> [(float *)_1025 + 96B], vect__173.392
.LBE3141:
	.loc 1 157 21 is_stmt 1 discriminator 1 view .LVU891
	.loc 1 157 39 discriminator 2 view .LVU892
	cmp	r10, r13	# ivtmp.525, _1176
	jne	.L48	#,
	mov	r10d, DWORD PTR 224[rsp]	# bnd.356, %sfp
	sal	r10d, 5	# bnd.356,
	cmp	r10d, edi	# niters_vector_mult_vf.357, _262
	je	.L45	#,
	mov	edx, edi	# niters.395, _262
	mov	eax, r10d	# tmp.358, niters_vector_mult_vf.357
	sub	edx, r10d	# niters.395, niters_vector_mult_vf.357
	lea	esi, -1[rdx]	# _917,
	cmp	esi, 14	# _917,
	jbe	.L89	#,
.LVL135:
.L169:
	.loc 1 157 39 is_stmt 0 discriminator 2 view .LVU893
	mov	esi, r10d	# _903, niters_vector_mult_vf.357
	mov	r13, QWORD PTR 248[rsp]	# _705, %sfp
	lea	r11, [rsi+r9]	# _902,
	lea	rbx, [rsi+r8]	# _881,
	add	rsi, QWORD PTR 240[rsp]	# _837, %sfp
.LBB3142:
# src/opt17_ilp_only.cpp:159:                         float s1l = p.SUB[rb1+xf+k], s1r = p.SUB[rb1+xf+k+3];
	.loc 1 159 51 discriminator 135168 view .LVU894
	vmovdqu	xmm5, XMMWORD PTR [r12+r11]	# MEM <const vector(16) unsigned char> [(const unsigned char *)vectp.412_862], MEM <const vector(16) unsigned char> [(const unsigned char *)vectp.412_862]
# src/opt17_ilp_only.cpp:158:                         float s0l = p.SUB[rb0+xf+k], s0r = p.SUB[rb0+xf+k+3];
	.loc 1 158 76 discriminator 135168 view .LVU895
	vmovdqu	xmm6, XMMWORD PTR 3[r12+rbx]	# MEM <const vector(16) unsigned char> [(const unsigned char *)vectp.406_883], MEM <const vector(16) unsigned char> [(const unsigned char *)vectp.406_883]
	lea	rsi, 0[r13+rsi*4]	# vectp.418,
	.loc 1 158 25 is_stmt 1 view .LVU896
# src/opt17_ilp_only.cpp:158:                         float s0l = p.SUB[rb0+xf+k], s0r = p.SUB[rb0+xf+k+3];
	.loc 1 158 51 is_stmt 0 discriminator 135168 view .LVU897
	vmovdqu	xmm7, XMMWORD PTR [r12+rbx]	# MEM <const vector(16) unsigned char> [(const unsigned char *)vectp.424_815], MEM <const vector(16) unsigned char> [(const unsigned char *)vectp.424_815]
# src/opt17_ilp_only.cpp:159:                         float s1l = p.SUB[rb1+xf+k], s1r = p.SUB[rb1+xf+k+3];
	.loc 1 159 31 discriminator 135168 view .LVU898
	vpmovzxbw	xmm14, xmm5	# vect_s1l_1118.415, MEM <const vector(16) unsigned char> [(const unsigned char *)vectp.412_862]
	vpsrldq	xmm5, xmm5, 8	# tmp1307, MEM <const vector(16) unsigned char> [(const unsigned char *)vectp.412_862],
# src/opt17_ilp_only.cpp:158:                         float s0l = p.SUB[rb0+xf+k], s0r = p.SUB[rb0+xf+k+3];
	.loc 1 158 54 discriminator 135168 view .LVU899
	vpmovzxbw	xmm8, xmm6	# vect_s0r_1122.409, MEM <const vector(16) unsigned char> [(const unsigned char *)vectp.406_883]
# src/opt17_ilp_only.cpp:159:                         float s1l = p.SUB[rb1+xf+k], s1r = p.SUB[rb1+xf+k+3];
	.loc 1 159 31 discriminator 135168 view .LVU900
	vpmovsxwd	xmm15, xmm14	# tmp1311, vect_s1l_1118.415
	vpsrldq	xmm14, xmm14, 8	# tmp1318, vect_s1l_1118.415,
# src/opt17_ilp_only.cpp:158:                         float s0l = p.SUB[rb0+xf+k], s0r = p.SUB[rb0+xf+k+3];
	.loc 1 158 54 discriminator 135168 view .LVU901
	vpmovsxwd	xmm21, xmm8	# tmp1309, vect_s0r_1122.409
# src/opt17_ilp_only.cpp:159:                         float s1l = p.SUB[rb1+xf+k], s1r = p.SUB[rb1+xf+k+3];
	.loc 1 159 31 discriminator 135168 view .LVU902
	vpmovsxwd	xmm14, xmm14	# tmp1317, tmp1318
# src/opt17_ilp_only.cpp:158:                         float s0l = p.SUB[rb0+xf+k], s0r = p.SUB[rb0+xf+k+3];
	.loc 1 158 54 discriminator 135168 view .LVU903
	vpsrldq	xmm8, xmm8, 8	# tmp1315, vect_s0r_1122.409,
# src/opt17_ilp_only.cpp:159:                         float s1l = p.SUB[rb1+xf+k], s1r = p.SUB[rb1+xf+k+3];
	.loc 1 159 31 discriminator 135168 view .LVU904
	vpmovzxbw	xmm5, xmm5	# vect_s1l_1118.415, tmp1307
	vcvtdq2ps	xmm15, xmm15	# vect_s1l_1118.414_854, tmp1311
# src/opt17_ilp_only.cpp:158:                         float s0l = p.SUB[rb0+xf+k], s0r = p.SUB[rb0+xf+k+3];
	.loc 1 158 54 discriminator 135168 view .LVU905
	vcvtdq2ps	xmm21, xmm21	# vect_s0r_1122.408_874, tmp1309
# src/opt17_ilp_only.cpp:159:                         float s1l = p.SUB[rb1+xf+k], s1r = p.SUB[rb1+xf+k+3];
	.loc 1 159 31 discriminator 135168 view .LVU906
	vcvtdq2ps	xmm14, xmm14	# vect_s1l_1118.414_853, tmp1317
# src/opt17_ilp_only.cpp:160:                         vp[xf+k] += p.A*s0l + p.B*s0r + p.C*s1l + p.D*s1r;
	.loc 1 160 60 discriminator 135168 view .LVU907
	vmulps	xmm14, xmm14, xmm12	# vect__1105.416_849, vect_s1l_1118.414_853, _379
# src/opt17_ilp_only.cpp:158:                         float s0l = p.SUB[rb0+xf+k], s0r = p.SUB[rb0+xf+k+3];
	.loc 1 158 54 discriminator 135168 view .LVU908
	vpmovsxwd	xmm8, xmm8	# tmp1314, tmp1315
# src/opt17_ilp_only.cpp:158:                         float s0l = p.SUB[rb0+xf+k], s0r = p.SUB[rb0+xf+k+3];
	.loc 1 158 31 discriminator 135168 view .LVU909
	vpmovzxbw	xmm22, xmm7	# vect_s0l_1126.427, MEM <const vector(16) unsigned char> [(const unsigned char *)vectp.424_815]
# src/opt17_ilp_only.cpp:160:                         vp[xf+k] += p.A*s0l + p.B*s0r + p.C*s1l + p.D*s1r;
	.loc 1 160 60 discriminator 135168 view .LVU910
	vmulps	xmm15, xmm15, xmm12	# vect__1105.416_850, vect_s1l_1118.414_854, _379
# src/opt17_ilp_only.cpp:158:                         float s0l = p.SUB[rb0+xf+k], s0r = p.SUB[rb0+xf+k+3];
	.loc 1 158 54 discriminator 135168 view .LVU911
	vcvtdq2ps	xmm8, xmm8	# vect_s0r_1122.408_873, tmp1314
	vpsrldq	xmm6, xmm6, 8	# tmp1305, MEM <const vector(16) unsigned char> [(const unsigned char *)vectp.406_883],
# src/opt17_ilp_only.cpp:158:                         float s0l = p.SUB[rb0+xf+k], s0r = p.SUB[rb0+xf+k+3];
	.loc 1 158 31 discriminator 135168 view .LVU912
	vpmovsxwd	xmm24, xmm22	# tmp1338, vect_s0l_1126.427
	vcvtdq2ps	xmm24, xmm24	# vect_s0l_1126.426_771, tmp1338
	vfmadd213ps	xmm24, xmm10, XMMWORD PTR [rsi]	# tmp1336, _214, MEM <vector(4) float> [(float *)vectp.418_846]
	vpsrldq	xmm7, xmm7, 8	# tmp1303, MEM <const vector(16) unsigned char> [(const unsigned char *)vectp.424_815],
# src/opt17_ilp_only.cpp:158:                         float s0l = p.SUB[rb0+xf+k], s0r = p.SUB[rb0+xf+k+3];
	.loc 1 158 54 discriminator 135168 view .LVU913
	vpmovzxbw	xmm6, xmm6	# vect_s0r_1122.409, tmp1305
# src/opt17_ilp_only.cpp:158:                         float s0l = p.SUB[rb0+xf+k], s0r = p.SUB[rb0+xf+k+3];
	.loc 1 158 31 discriminator 135168 view .LVU914
	vpsrldq	xmm22, xmm22, 8	# tmp1346, vect_s0l_1126.427,
	vpmovzxbw	xmm7, xmm7	# vect_s0l_1126.427, tmp1303
.LVL136:
	.loc 1 159 25 is_stmt 1 view .LVU915
# src/opt17_ilp_only.cpp:158:                         float s0l = p.SUB[rb0+xf+k], s0r = p.SUB[rb0+xf+k+3];
	.loc 1 158 31 is_stmt 0 discriminator 135168 view .LVU916
	vpmovsxwd	xmm22, xmm22	# tmp1345, tmp1346
	vfmadd132ps	xmm8, xmm14, xmm11	# _1419, vect__1105.416_849, _507
# src/opt17_ilp_only.cpp:159:                         float s1l = p.SUB[rb1+xf+k], s1r = p.SUB[rb1+xf+k+3];
	.loc 1 159 31 discriminator 135168 view .LVU917
	vpmovsxwd	xmm14, xmm5	# tmp1323, vect_s1l_1118.415
# src/opt17_ilp_only.cpp:158:                         float s0l = p.SUB[rb0+xf+k], s0r = p.SUB[rb0+xf+k+3];
	.loc 1 158 31 discriminator 135168 view .LVU918
	vcvtdq2ps	xmm22, xmm22	# vect_s0l_1126.426_769, tmp1345
# src/opt17_ilp_only.cpp:159:                         float s1l = p.SUB[rb1+xf+k], s1r = p.SUB[rb1+xf+k+3];
	.loc 1 159 31 discriminator 135168 view .LVU919
	vpsrldq	xmm5, xmm5, 8	# tmp1330, vect_s1l_1118.415,
	vcvtdq2ps	xmm14, xmm14	# vect_s1l_1118.414_852, tmp1323
	vfmadd132ps	xmm21, xmm15, xmm11	# _1463, vect__1105.416_850, _507
# src/opt17_ilp_only.cpp:158:                         float s0l = p.SUB[rb0+xf+k], s0r = p.SUB[rb0+xf+k+3];
	.loc 1 158 54 discriminator 135168 view .LVU920
	vpmovsxwd	xmm15, xmm6	# tmp1321, vect_s0r_1122.409
# src/opt17_ilp_only.cpp:160:                         vp[xf+k] += p.A*s0l + p.B*s0r + p.C*s1l + p.D*s1r;
	.loc 1 160 60 discriminator 135168 view .LVU921
	vmulps	xmm14, xmm14, xmm12	# vect__1105.416_848, vect_s1l_1118.414_852, _379
# src/opt17_ilp_only.cpp:158:                         float s0l = p.SUB[rb0+xf+k], s0r = p.SUB[rb0+xf+k+3];
	.loc 1 158 54 discriminator 135168 view .LVU922
	vpsrldq	xmm6, xmm6, 8	# tmp1327, vect_s0r_1122.409,
# src/opt17_ilp_only.cpp:159:                         float s1l = p.SUB[rb1+xf+k], s1r = p.SUB[rb1+xf+k+3];
	.loc 1 159 31 discriminator 135168 view .LVU923
	vpmovsxwd	xmm5, xmm5	# tmp1329, tmp1330
# src/opt17_ilp_only.cpp:158:                         float s0l = p.SUB[rb0+xf+k], s0r = p.SUB[rb0+xf+k+3];
	.loc 1 158 54 discriminator 135168 view .LVU924
	vcvtdq2ps	xmm15, xmm15	# vect_s0r_1122.408_872, tmp1321
# src/opt17_ilp_only.cpp:159:                         float s1l = p.SUB[rb1+xf+k], s1r = p.SUB[rb1+xf+k+3];
	.loc 1 159 31 discriminator 135168 view .LVU925
	vcvtdq2ps	xmm5, xmm5	# vect_s1l_1118.414_851, tmp1329
# src/opt17_ilp_only.cpp:160:                         vp[xf+k] += p.A*s0l + p.B*s0r + p.C*s1l + p.D*s1r;
	.loc 1 160 60 discriminator 135168 view .LVU926
	vmulps	xmm5, xmm5, xmm12	# vect__1105.416_847, vect_s1l_1118.414_851, _379
	vfmadd213ps	xmm22, xmm10, XMMWORD PTR 16[rsi]	# tmp1343, _214, MEM <vector(4) float> [(float *)vectp.418_846 + 16B]
# src/opt17_ilp_only.cpp:158:                         float s0l = p.SUB[rb0+xf+k], s0r = p.SUB[rb0+xf+k+3];
	.loc 1 158 54 discriminator 135168 view .LVU927
	vpmovsxwd	xmm6, xmm6	# tmp1326, tmp1327
	vcvtdq2ps	xmm6, xmm6	# vect_s0r_1122.408_871, tmp1326
	vfmadd132ps	xmm15, xmm14, xmm11	# _1167, vect__1105.416_848, _507
	vfmadd132ps	xmm6, xmm5, xmm11	# _559, vect__1105.416_847, _507
.LVL137:
# src/opt17_ilp_only.cpp:159:                         float s1l = p.SUB[rb1+xf+k], s1r = p.SUB[rb1+xf+k+3];
	.loc 1 159 76 discriminator 135168 view .LVU928
	vmovdqu	xmm5, XMMWORD PTR 3[r12+r11]	# MEM <const vector(16) unsigned char> [(const unsigned char *)vectp.400_904], MEM <const vector(16) unsigned char> [(const unsigned char *)vectp.400_904]
# src/opt17_ilp_only.cpp:159:                         float s1l = p.SUB[rb1+xf+k], s1r = p.SUB[rb1+xf+k+3];
	.loc 1 159 54 discriminator 135168 view .LVU929
	vpmovzxbw	xmm14, xmm5	# vect_s1r_1114.403, MEM <const vector(16) unsigned char> [(const unsigned char *)vectp.400_904]
	vpsrldq	xmm5, xmm5, 8	# tmp1333, MEM <const vector(16) unsigned char> [(const unsigned char *)vectp.400_904],
	vpmovsxwd	xmm23, xmm14	# tmp1335, vect_s1r_1114.403
	vpsrldq	xmm14, xmm14, 8	# tmp1342, vect_s1r_1114.403,
	vpmovzxbw	xmm5, xmm5	# vect_s1r_1114.403, tmp1333
.LVL138:
	.loc 1 160 25 is_stmt 1 view .LVU930
# src/opt17_ilp_only.cpp:159:                         float s1l = p.SUB[rb1+xf+k], s1r = p.SUB[rb1+xf+k+3];
	.loc 1 159 54 is_stmt 0 discriminator 135168 view .LVU931
	vcvtdq2ps	xmm23, xmm23	# vect_s1r_1114.402_895, tmp1335
	vfmadd132ps	xmm23, xmm24, xmm9	# _1481, tmp1336, _591
# src/opt17_ilp_only.cpp:158:                         float s0l = p.SUB[rb0+xf+k], s0r = p.SUB[rb0+xf+k+3];
	.loc 1 158 31 discriminator 135168 view .LVU932
	vpmovsxwd	xmm24, xmm7	# tmp1352, vect_s0l_1126.427
# src/opt17_ilp_only.cpp:159:                         float s1l = p.SUB[rb1+xf+k], s1r = p.SUB[rb1+xf+k+3];
	.loc 1 159 54 discriminator 135168 view .LVU933
	vpmovsxwd	xmm14, xmm14	# tmp1341, tmp1342
# src/opt17_ilp_only.cpp:158:                         float s0l = p.SUB[rb0+xf+k], s0r = p.SUB[rb0+xf+k+3];
	.loc 1 158 31 discriminator 135168 view .LVU934
	vpsrldq	xmm7, xmm7, 8	# tmp1361, vect_s0l_1126.427,
	vcvtdq2ps	xmm24, xmm24	# vect_s0l_1126.426_763, tmp1352
	vfmadd213ps	xmm24, xmm10, XMMWORD PTR 32[rsi]	# tmp1350, _214, MEM <vector(4) float> [(float *)vectp.418_846 + 32B]
# src/opt17_ilp_only.cpp:159:                         float s1l = p.SUB[rb1+xf+k], s1r = p.SUB[rb1+xf+k+3];
	.loc 1 159 54 discriminator 135168 view .LVU935
	vcvtdq2ps	xmm14, xmm14	# vect_s1r_1114.402_894, tmp1341
# src/opt17_ilp_only.cpp:158:                         float s0l = p.SUB[rb0+xf+k], s0r = p.SUB[rb0+xf+k+3];
	.loc 1 158 31 discriminator 135168 view .LVU936
	vpmovsxwd	xmm7, xmm7	# tmp1360, tmp1361
	vfmadd132ps	xmm14, xmm22, xmm9	# _1425, tmp1343, _591
# src/opt17_ilp_only.cpp:159:                         float s1l = p.SUB[rb1+xf+k], s1r = p.SUB[rb1+xf+k+3];
	.loc 1 159 54 discriminator 135168 view .LVU937
	vpmovsxwd	xmm22, xmm5	# tmp1349, vect_s1r_1114.403
# src/opt17_ilp_only.cpp:158:                         float s0l = p.SUB[rb0+xf+k], s0r = p.SUB[rb0+xf+k+3];
	.loc 1 158 31 discriminator 135168 view .LVU938
	vcvtdq2ps	xmm7, xmm7	# vect_s0l_1126.426_760, tmp1360
# src/opt17_ilp_only.cpp:160:                         vp[xf+k] += p.A*s0l + p.B*s0r + p.C*s1l + p.D*s1r;
	.loc 1 160 34 discriminator 135168 view .LVU939
	vfmadd213ps	xmm7, xmm10, XMMWORD PTR 48[rsi]	# tmp1358, _214, MEM <vector(4) float> [(float *)vectp.418_846 + 48B]
# src/opt17_ilp_only.cpp:159:                         float s1l = p.SUB[rb1+xf+k], s1r = p.SUB[rb1+xf+k+3];
	.loc 1 159 54 discriminator 135168 view .LVU940
	vpsrldq	xmm5, xmm5, 8	# tmp1357, vect_s1r_1114.403,
	vcvtdq2ps	xmm22, xmm22	# vect_s1r_1114.402_893, tmp1349
	vpmovsxwd	xmm5, xmm5	# tmp1356, tmp1357
	vcvtdq2ps	xmm5, xmm5	# vect_s1r_1114.402_892, tmp1356
# src/opt17_ilp_only.cpp:160:                         vp[xf+k] += p.A*s0l + p.B*s0r + p.C*s1l + p.D*s1r;
	.loc 1 160 34 discriminator 135168 view .LVU941
	vaddps	xmm21, xmm21, xmm23	# vect__1101.432_703, _1463, _1481
	vfmadd132ps	xmm22, xmm24, xmm9	# _1296, tmp1350, _591
	vaddps	xmm8, xmm8, xmm14	# vect__1101.432_702, _1419, _1425
	vfmadd132ps	xmm5, xmm7, xmm9	# tmp1354, tmp1358, _591
	vmovups	XMMWORD PTR [rsi], xmm21	# MEM <vector(4) float> [(float *)vectp.418_846], vect__1101.432_703
	.loc 1 160 34 discriminator 135168 view .LVU942
	vmovups	XMMWORD PTR 16[rsi], xmm8	# MEM <vector(4) float> [(float *)vectp.418_846 + 16B], vect__1101.432_702
	vaddps	xmm15, xmm15, xmm22	# vect__1101.432_701, _1167, _1296
	vaddps	xmm5, xmm5, xmm6	# vect__1101.432, tmp1354, _559
	vmovups	XMMWORD PTR 32[rsi], xmm15	# MEM <vector(4) float> [(float *)vectp.418_846 + 32B], vect__1101.432_701
	vmovups	XMMWORD PTR 48[rsi], xmm5	# MEM <vector(4) float> [(float *)vectp.418_846 + 48B], vect__1101.432
.LBE3142:
	.loc 1 157 21 is_stmt 1 discriminator 1 view .LVU943
	.loc 1 157 39 discriminator 2 view .LVU944
	mov	esi, edx	# niters_vector_mult_vf.397, niters.395
	and	esi, -16	# niters_vector_mult_vf.397,
	test	dl, 15	# niters.395,
	je	.L45	#,
	add	eax, esi	# tmp.358, niters_vector_mult_vf.397
.LVL139:
.L49:
	.loc 1 157 39 is_stmt 0 discriminator 2 view .LVU945
	sub	edx, esi	# niters.435, niters_vector_mult_vf.397
	lea	r11d, -1[rdx]	# _607,
	cmp	r11d, 6	# _607,
	jbe	.L50	#,
	add	esi, r10d	# _580, niters_vector_mult_vf.357
	mov	rbx, QWORD PTR 248[rsp]	# _705, %sfp
	mov	esi, esi	# _580, _580
	lea	r11, [rsi+r8]	# _496,
	lea	r10, [rsi+r9]	# _577,
	add	rsi, QWORD PTR 240[rsp]	# _258, %sfp
.LBB3143:
# src/opt17_ilp_only.cpp:158:                         float s0l = p.SUB[rb0+xf+k], s0r = p.SUB[rb0+xf+k+3];
	.loc 1 158 51 discriminator 198656 view .LVU946
	vmovq	xmm5, QWORD PTR [r12+r11]	# MEM <const vector(8) unsigned char> [(const unsigned char *)vectp.467_170], MEM <const vector(8) unsigned char> [(const unsigned char *)vectp.467_170]
	lea	rbx, [rbx+rsi*4]	# vectp.461,
	.loc 1 158 25 is_stmt 1 view .LVU947
# src/opt17_ilp_only.cpp:158:                         float s0l = p.SUB[rb0+xf+k], s0r = p.SUB[rb0+xf+k+3];
	.loc 1 158 31 is_stmt 0 discriminator 198656 view .LVU948
	vpmovzxbw	xmm7, xmm5	# vect_s0l_949.470, MEM <const vector(8) unsigned char> [(const unsigned char *)vectp.467_170]
	vpsrlq	xmm5, xmm5, 32	# tmp1377, MEM <const vector(8) unsigned char> [(const unsigned char *)vectp.467_170],
	vpmovzxbw	xmm6, xmm5	# vect_s0l_949.470, tmp1377
# src/opt17_ilp_only.cpp:159:                         float s1l = p.SUB[rb1+xf+k], s1r = p.SUB[rb1+xf+k+3];
	.loc 1 159 51 discriminator 198656 view .LVU949
	vmovq	xmm5, QWORD PTR [r12+r10]	# MEM <const vector(8) unsigned char> [(const unsigned char *)vectp.454_369], MEM <const vector(8) unsigned char> [(const unsigned char *)vectp.454_369]
# src/opt17_ilp_only.cpp:158:                         float s0l = p.SUB[rb0+xf+k], s0r = p.SUB[rb0+xf+k+3];
	.loc 1 158 31 discriminator 198656 view .LVU950
	vmovq	rsi, xmm6	# vect_s0l_949.470, vect_s0l_949.470
.LVL140:
# src/opt17_ilp_only.cpp:158:                         float s0l = p.SUB[rb0+xf+k], s0r = p.SUB[rb0+xf+k+3];
	.loc 1 158 76 discriminator 198656 view .LVU951
	vmovq	xmm6, QWORD PTR 3[r12+r11]	# MEM <const vector(8) unsigned char> [(const unsigned char *)vectp.447_501], MEM <const vector(8) unsigned char> [(const unsigned char *)vectp.447_501]
# src/opt17_ilp_only.cpp:159:                         float s1l = p.SUB[rb1+xf+k], s1r = p.SUB[rb1+xf+k+3];
	.loc 1 159 31 discriminator 198656 view .LVU952
	vpmovzxbw	xmm8, xmm5	# vect_s1l_941.457, MEM <const vector(8) unsigned char> [(const unsigned char *)vectp.454_369]
	vpsrlq	xmm5, xmm5, 32	# tmp1381, MEM <const vector(8) unsigned char> [(const unsigned char *)vectp.454_369],
# src/opt17_ilp_only.cpp:158:                         float s0l = p.SUB[rb0+xf+k], s0r = p.SUB[rb0+xf+k+3];
	.loc 1 158 54 discriminator 198656 view .LVU953
	vpmovzxbw	xmm14, xmm6	# vect_s0r_945.450, MEM <const vector(8) unsigned char> [(const unsigned char *)vectp.447_501]
	vpsrlq	xmm6, xmm6, 32	# tmp1379, MEM <const vector(8) unsigned char> [(const unsigned char *)vectp.447_501],
# src/opt17_ilp_only.cpp:159:                         float s1l = p.SUB[rb1+xf+k], s1r = p.SUB[rb1+xf+k+3];
	.loc 1 159 31 discriminator 198656 view .LVU954
	vpmovzxbw	xmm5, xmm5	# vect_s1l_941.457, tmp1381
# src/opt17_ilp_only.cpp:158:                         float s0l = p.SUB[rb0+xf+k], s0r = p.SUB[rb0+xf+k+3];
	.loc 1 158 54 discriminator 198656 view .LVU955
	vpmovzxwd	xmm15, xmm14	# vect_s0r_945.449_406, vect_s0r_945.450
	vpsrlq	xmm14, xmm14, 32	# tmp1399, vect_s0r_945.450,
	vpmovzxbw	xmm6, xmm6	# vect_s0r_945.450, tmp1379
.LVL141:
	.loc 1 159 25 is_stmt 1 view .LVU956
# src/opt17_ilp_only.cpp:158:                         float s0l = p.SUB[rb0+xf+k], s0r = p.SUB[rb0+xf+k+3];
	.loc 1 158 54 is_stmt 0 discriminator 198656 view .LVU957
	vmovq	xmm15, xmm15	# tmp1384, vect_s0r_945.449_406
	vpmovzxwd	xmm14, xmm14	# vect_s0r_945.449_404, tmp1399
	vcvtdq2ps	xmm22, xmm15	# tmp1385, tmp1384
# src/opt17_ilp_only.cpp:159:                         float s1l = p.SUB[rb1+xf+k], s1r = p.SUB[rb1+xf+k+3];
	.loc 1 159 31 discriminator 198656 view .LVU958
	vpmovzxwd	xmm15, xmm8	# vect_s1l_941.456_346, vect_s1l_941.457
	vpsrlq	xmm8, xmm8, 32	# tmp1404, vect_s1l_941.457,
# src/opt17_ilp_only.cpp:158:                         float s0l = p.SUB[rb0+xf+k], s0r = p.SUB[rb0+xf+k+3];
	.loc 1 158 54 discriminator 198656 view .LVU959
	vmovq	xmm14, xmm14	# tmp1401, vect_s0r_945.449_404
# src/opt17_ilp_only.cpp:159:                         float s1l = p.SUB[rb1+xf+k], s1r = p.SUB[rb1+xf+k+3];
	.loc 1 159 31 discriminator 198656 view .LVU960
	vpmovzxwd	xmm8, xmm8	# vect_s1l_941.456_344, tmp1404
# src/opt17_ilp_only.cpp:158:                         float s0l = p.SUB[rb0+xf+k], s0r = p.SUB[rb0+xf+k+3];
	.loc 1 158 54 discriminator 198656 view .LVU961
	vcvtdq2ps	xmm14, xmm14	# tmp1402, tmp1401
# src/opt17_ilp_only.cpp:159:                         float s1l = p.SUB[rb1+xf+k], s1r = p.SUB[rb1+xf+k+3];
	.loc 1 159 31 discriminator 198656 view .LVU962
	vmovq	xmm21, xmm15	# tmp1388, vect_s1l_941.456_346
	vmovq	xmm8, xmm8	# tmp1406, vect_s1l_941.456_344
	vcvtdq2ps	xmm21, xmm21	# tmp1389, tmp1388
	vcvtdq2ps	xmm8, xmm8	# tmp1407, tmp1406
# src/opt17_ilp_only.cpp:160:                         vp[xf+k] += p.A*s0l + p.B*s0r + p.C*s1l + p.D*s1r;
	.loc 1 160 60 discriminator 198656 view .LVU963
	vmulps	xmm8, xmm8, xmm12	# tmp1411, tmp1407, _379
	vmulps	xmm21, xmm21, xmm12	# tmp1393, tmp1389, _379
	vfmadd132ps	xmm14, xmm8, xmm11	# tmp1402, tmp1411, _507
# src/opt17_ilp_only.cpp:158:                         float s0l = p.SUB[rb0+xf+k], s0r = p.SUB[rb0+xf+k+3];
	.loc 1 158 54 discriminator 198656 view .LVU964
	vpmovzxwd	xmm8, xmm6	# vect_s0r_945.449_403, vect_s0r_945.450
	vpsrlq	xmm6, xmm6, 32	# tmp1433, vect_s0r_945.450,
	vfmadd132ps	xmm22, xmm21, xmm11	# tmp1397, tmp1393, _507
	vmovq	xmm8, xmm8	# tmp1418, vect_s0r_945.449_403
	vpmovzxwd	xmm6, xmm6	# vect_s0r_945.449_400, tmp1433
	vcvtdq2ps	xmm15, xmm8	# tmp1419, tmp1418
# src/opt17_ilp_only.cpp:159:                         float s1l = p.SUB[rb1+xf+k], s1r = p.SUB[rb1+xf+k+3];
	.loc 1 159 76 discriminator 198656 view .LVU965
	vmovq	xmm8, QWORD PTR 3[r12+r10]	# MEM <const vector(8) unsigned char> [(const unsigned char *)vectp.440_584], MEM <const vector(8) unsigned char> [(const unsigned char *)vectp.440_584]
# src/opt17_ilp_only.cpp:158:                         float s0l = p.SUB[rb0+xf+k], s0r = p.SUB[rb0+xf+k+3];
	.loc 1 158 54 discriminator 198656 view .LVU966
	vmovq	xmm6, xmm6	# tmp1435, vect_s0r_945.449_400
	vcvtdq2ps	xmm6, xmm6	# tmp1436, tmp1435
	vmovaps	xmm24, xmm14	# tmp1415, tmp1402
# src/opt17_ilp_only.cpp:159:                         float s1l = p.SUB[rb1+xf+k], s1r = p.SUB[rb1+xf+k+3];
	.loc 1 159 31 discriminator 198656 view .LVU967
	vpmovzxwd	xmm14, xmm5	# vect_s1l_941.456_341, vect_s1l_941.457
	vpsrlq	xmm5, xmm5, 32	# tmp1438, vect_s1l_941.457,
	vmovq	xmm14, xmm14	# tmp1422, vect_s1l_941.456_341
	vpmovzxwd	xmm5, xmm5	# vect_s1l_941.456_339, tmp1438
	vcvtdq2ps	xmm14, xmm14	# tmp1423, tmp1422
# src/opt17_ilp_only.cpp:160:                         vp[xf+k] += p.A*s0l + p.B*s0r + p.C*s1l + p.D*s1r;
	.loc 1 160 60 discriminator 198656 view .LVU968
	vmulps	xmm14, xmm14, xmm12	# tmp1427, tmp1423, _379
# src/opt17_ilp_only.cpp:159:                         float s1l = p.SUB[rb1+xf+k], s1r = p.SUB[rb1+xf+k+3];
	.loc 1 159 31 discriminator 198656 view .LVU969
	vmovq	xmm5, xmm5	# tmp1440, vect_s1l_941.456_339
	vcvtdq2ps	xmm5, xmm5	# tmp1441, tmp1440
# src/opt17_ilp_only.cpp:160:                         vp[xf+k] += p.A*s0l + p.B*s0r + p.C*s1l + p.D*s1r;
	.loc 1 160 60 discriminator 198656 view .LVU970
	vmulps	xmm5, xmm5, xmm12	# tmp1445, tmp1441, _379
	vfmadd132ps	xmm15, xmm14, xmm11	# tmp1419, tmp1427, _507
# src/opt17_ilp_only.cpp:160:                         vp[xf+k] += p.A*s0l + p.B*s0r + p.C*s1l + p.D*s1r;
	.loc 1 160 32 discriminator 198656 view .LVU971
	vmovq	xmm14, QWORD PTR [rbx]	# vect__932.462_235, MEM <vector(2) float> [(float *)vectp.461_271]
	vfmadd132ps	xmm6, xmm5, xmm11	# tmp1436, tmp1445, _507
# src/opt17_ilp_only.cpp:159:                         float s1l = p.SUB[rb1+xf+k], s1r = p.SUB[rb1+xf+k+3];
	.loc 1 159 54 discriminator 198656 view .LVU972
	vpmovzxbw	xmm5, xmm8	# vect_s1r_937.443, MEM <const vector(8) unsigned char> [(const unsigned char *)vectp.440_584]
	vpsrlq	xmm8, xmm8, 32	# tmp1451, MEM <const vector(8) unsigned char> [(const unsigned char *)vectp.440_584],
	vpmovzxbw	xmm8, xmm8	# vect_s1r_937.443, tmp1451
	vmovaps	xmm26, xmm15	# tmp1431, tmp1419
	vmovaps	xmm21, xmm6	# tmp1449, tmp1436
.LVL142:
	.loc 1 160 25 is_stmt 1 view .LVU973
# src/opt17_ilp_only.cpp:159:                         float s1l = p.SUB[rb1+xf+k], s1r = p.SUB[rb1+xf+k+3];
	.loc 1 159 54 is_stmt 0 discriminator 198656 view .LVU974
	vpmovzxwd	xmm6, xmm5	# vect_s1r_937.442_550, vect_s1r_937.443
	vmovq	xmm6, xmm6	# tmp1454, vect_s1r_937.442_550
	vpsrlq	xmm5, xmm5, 32	# tmp1471, vect_s1r_937.443,
	vcvtdq2ps	xmm15, xmm6	# tmp1455, tmp1454
# src/opt17_ilp_only.cpp:158:                         float s0l = p.SUB[rb0+xf+k], s0r = p.SUB[rb0+xf+k+3];
	.loc 1 158 31 discriminator 198656 view .LVU975
	vpmovzxwd	xmm6, xmm7	# vect_s0l_949.469_53, vect_s0l_949.470
# src/opt17_ilp_only.cpp:159:                         float s1l = p.SUB[rb1+xf+k], s1r = p.SUB[rb1+xf+k+3];
	.loc 1 159 54 discriminator 198656 view .LVU976
	vpmovzxwd	xmm5, xmm5	# vect_s1r_937.442_544, tmp1471
# src/opt17_ilp_only.cpp:158:                         float s0l = p.SUB[rb0+xf+k], s0r = p.SUB[rb0+xf+k+3];
	.loc 1 158 31 discriminator 198656 view .LVU977
	vmovq	xmm6, xmm6	# tmp1459, vect_s0l_949.469_53
# src/opt17_ilp_only.cpp:159:                         float s1l = p.SUB[rb1+xf+k], s1r = p.SUB[rb1+xf+k+3];
	.loc 1 159 54 discriminator 198656 view .LVU978
	vmovq	xmm25, xmm5	# tmp1473, vect_s1r_937.442_544
	vpmovzxwd	xmm5, xmm8	# vect_s1r_937.442_539, vect_s1r_937.443
# src/opt17_ilp_only.cpp:158:                         float s0l = p.SUB[rb0+xf+k], s0r = p.SUB[rb0+xf+k+3];
	.loc 1 158 31 discriminator 198656 view .LVU979
	vcvtdq2ps	xmm6, xmm6	# tmp1460, tmp1459
	vfmadd231ps	xmm14, xmm6, xmm10	# tmp1465, tmp1460, _214
	vpsrlq	xmm6, xmm7, 32	# tmp1477, vect_s0l_949.470,
	vmovq	xmm7, rsi	# vect_s0l_949.470, vect_s0l_949.470
# src/opt17_ilp_only.cpp:159:                         float s1l = p.SUB[rb1+xf+k], s1r = p.SUB[rb1+xf+k+3];
	.loc 1 159 54 discriminator 198656 view .LVU980
	vcvtdq2ps	xmm25, xmm25	# tmp1474, tmp1473
# src/opt17_ilp_only.cpp:158:                         float s0l = p.SUB[rb0+xf+k], s0r = p.SUB[rb0+xf+k+3];
	.loc 1 158 31 discriminator 198656 view .LVU981
	vpmovzxwd	xmm6, xmm6	# vect_s0l_949.469_52, tmp1477
	vpmovzxwd	xmm7, xmm7	# vect_s0l_949.469_48, vect_s0l_949.470
# src/opt17_ilp_only.cpp:159:                         float s1l = p.SUB[rb1+xf+k], s1r = p.SUB[rb1+xf+k+3];
	.loc 1 159 54 discriminator 198656 view .LVU982
	vmovq	xmm5, xmm5	# tmp1492, vect_s1r_937.442_539
# src/opt17_ilp_only.cpp:158:                         float s0l = p.SUB[rb0+xf+k], s0r = p.SUB[rb0+xf+k+3];
	.loc 1 158 31 discriminator 198656 view .LVU983
	vmovq	xmm6, xmm6	# tmp1479, vect_s0l_949.469_52
# src/opt17_ilp_only.cpp:159:                         float s1l = p.SUB[rb1+xf+k], s1r = p.SUB[rb1+xf+k+3];
	.loc 1 159 54 discriminator 198656 view .LVU984
	vcvtdq2ps	xmm5, xmm5	# tmp1493, tmp1492
	vpsrlq	xmm8, xmm8, 32	# tmp1510, vect_s1r_937.443,
# src/opt17_ilp_only.cpp:158:                         float s0l = p.SUB[rb0+xf+k], s0r = p.SUB[rb0+xf+k+3];
	.loc 1 158 31 discriminator 198656 view .LVU985
	vmovq	xmm7, xmm7	# tmp1497, vect_s0l_949.469_48
	vcvtdq2ps	xmm7, xmm7	# tmp1498, tmp1497
# src/opt17_ilp_only.cpp:159:                         float s1l = p.SUB[rb1+xf+k], s1r = p.SUB[rb1+xf+k+3];
	.loc 1 159 54 discriminator 198656 view .LVU986
	vpmovzxwd	xmm8, xmm8	# vect_s1r_937.442_538, tmp1510
	vmovq	xmm8, xmm8	# tmp1512, vect_s1r_937.442_538
	vfmadd132ps	xmm15, xmm14, xmm9	# tmp1455, tmp1465, _591
# src/opt17_ilp_only.cpp:158:                         float s0l = p.SUB[rb0+xf+k], s0r = p.SUB[rb0+xf+k+3];
	.loc 1 158 31 discriminator 198656 view .LVU987
	vcvtdq2ps	xmm14, xmm6	# tmp1480, tmp1479
# src/opt17_ilp_only.cpp:160:                         vp[xf+k] += p.A*s0l + p.B*s0r + p.C*s1l + p.D*s1r;
	.loc 1 160 32 discriminator 198656 view .LVU988
	vmovq	xmm6, QWORD PTR 8[rbx]	# vect__932.463_227, MEM <vector(2) float> [(float *)vectp.461_271 + 8B]
# src/opt17_ilp_only.cpp:159:                         float s1l = p.SUB[rb1+xf+k], s1r = p.SUB[rb1+xf+k+3];
	.loc 1 159 54 discriminator 198656 view .LVU989
	vcvtdq2ps	xmm8, xmm8	# tmp1513, tmp1512
	vfmadd231ps	xmm6, xmm14, xmm10	# tmp1485, tmp1480, _214
# src/opt17_ilp_only.cpp:160:                         vp[xf+k] += p.A*s0l + p.B*s0r + p.C*s1l + p.D*s1r;
	.loc 1 160 32 discriminator 198656 view .LVU990
	vmovq	xmm14, QWORD PTR 16[rbx]	# vect__932.464_221, MEM <vector(2) float> [(float *)vectp.461_271 + 16B]
	vfmadd132ps	xmm7, xmm14, xmm10	# tmp1503, vect__932.464_221, _214
	vmovaps	xmm23, xmm15	# tmp1469, tmp1455
	vmovq	xmm15, QWORD PTR 24[rbx]	# vect__932.465_216, MEM <vector(2) float> [(float *)vectp.461_271 + 24B]
	vfmadd132ps	xmm25, xmm6, xmm9	# tmp1489, tmp1485, _591
	vfmadd132ps	xmm5, xmm7, xmm9	# tmp1507, tmp1503, _591
# src/opt17_ilp_only.cpp:158:                         float s0l = p.SUB[rb0+xf+k], s0r = p.SUB[rb0+xf+k+3];
	.loc 1 158 31 discriminator 198656 view .LVU991
	vmovq	xmm7, rsi	# tmp2116, vect_s0l_949.470
	mov	esi, edx	# niters_vector_mult_vf.437, niters.435
	vpsrlq	xmm14, xmm7, 32	# tmp1516, tmp2116,
	and	esi, -8	# niters_vector_mult_vf.437,
	and	edx, 7	# niters.435,
	vpmovzxwd	xmm14, xmm14	# vect_s0l_949.469_47, tmp1516
	vmovq	xmm14, xmm14	# tmp1518, vect_s0l_949.469_47
# src/opt17_ilp_only.cpp:160:                         vp[xf+k] += p.A*s0l + p.B*s0r + p.C*s1l + p.D*s1r;
	.loc 1 160 34 discriminator 198656 view .LVU992
	vaddps	xmm7, xmm24, xmm25	# tmp1539, tmp1415, tmp1489
# src/opt17_ilp_only.cpp:158:                         float s0l = p.SUB[rb0+xf+k], s0r = p.SUB[rb0+xf+k+3];
	.loc 1 158 31 discriminator 198656 view .LVU993
	vcvtdq2ps	xmm14, xmm14	# tmp1519, tmp1518
# src/opt17_ilp_only.cpp:160:                         vp[xf+k] += p.A*s0l + p.B*s0r + p.C*s1l + p.D*s1r;
	.loc 1 160 34 discriminator 198656 view .LVU994
	vfmadd132ps	xmm14, xmm15, xmm10	# tmp1524, vect__932.465_216, _214
	vaddps	xmm5, xmm26, xmm5	# tmp1543, tmp1431, tmp1507
	vmovlps	QWORD PTR 8[rbx], xmm7	# MEM <vector(2) float> [(float *)vectp.461_271 + 8B], tmp1539
	.loc 1 160 34 discriminator 198656 view .LVU995
	vmovlps	QWORD PTR 16[rbx], xmm5	# MEM <vector(2) float> [(float *)vectp.461_271 + 16B], tmp1543
	vfmadd132ps	xmm8, xmm14, xmm9	# tmp1528, tmp1524, _591
	vaddps	xmm14, xmm8, xmm21	# tmp1531, tmp1528, tmp1449
	vaddps	xmm8, xmm22, xmm23	# tmp1535, tmp1397, tmp1469
	vmovlps	QWORD PTR 24[rbx], xmm14	# MEM <vector(2) float> [(float *)vectp.461_271 + 24B], tmp1531
.LBE3143:
	.loc 1 157 21 is_stmt 1 discriminator 1 view .LVU996
	.loc 1 157 39 discriminator 2 view .LVU997
.LBB3144:
# src/opt17_ilp_only.cpp:160:                         vp[xf+k] += p.A*s0l + p.B*s0r + p.C*s1l + p.D*s1r;
	.loc 1 160 34 is_stmt 0 discriminator 198656 view .LVU998
	vmovlps	QWORD PTR [rbx], xmm8	# MEM <vector(2) float> [(float *)vectp.461_271], tmp1535
	je	.L45	#,
	add	eax, esi	# tmp.358, niters_vector_mult_vf.437
.LVL143:
.L50:
	.loc 1 158 25 is_stmt 1 view .LVU999
# src/opt17_ilp_only.cpp:158:                         float s0l = p.SUB[rb0+xf+k], s0r = p.SUB[rb0+xf+k+3];
	.loc 1 158 50 is_stmt 0 discriminator 229376 view .LVU1000
	movsxd	rdx, eax	# _700, tmp.358
# src/opt17_ilp_only.cpp:160:                         vp[xf+k] += p.A*s0l + p.B*s0r + p.C*s1l + p.D*s1r;
	.loc 1 160 32 discriminator 229376 view .LVU1001
	mov	ebx, DWORD PTR 256[rsp]	# xf, %sfp
# src/opt17_ilp_only.cpp:158:                         float s0l = p.SUB[rb0+xf+k], s0r = p.SUB[rb0+xf+k+3];
	.loc 1 158 49 discriminator 229376 view .LVU1002
	lea	r10, [rdx+r8]	# _579,
.LVL144:
	.loc 1 159 25 is_stmt 1 view .LVU1003
# src/opt17_ilp_only.cpp:159:                         float s1l = p.SUB[rb1+xf+k], s1r = p.SUB[rb1+xf+k+3];
	.loc 1 159 49 is_stmt 0 discriminator 229376 view .LVU1004
	add	rdx, r9	# _146, _1378
.LVL145:
	.loc 1 160 25 is_stmt 1 view .LVU1005
# src/opt17_ilp_only.cpp:158:                         float s0l = p.SUB[rb0+xf+k], s0r = p.SUB[rb0+xf+k+3];
	.loc 1 158 31 is_stmt 0 discriminator 229376 view .LVU1006
	movzx	r11d, BYTE PTR [r12+r10]	# *_1249, *_1249
# src/opt17_ilp_only.cpp:158:                         float s0l = p.SUB[rb0+xf+k], s0r = p.SUB[rb0+xf+k+3];
	.loc 1 158 54 discriminator 229376 view .LVU1007
	movzx	r10d, BYTE PTR 3[r12+r10]	# *_143, *_143
.LVL146:
# src/opt17_ilp_only.cpp:160:                         vp[xf+k] += p.A*s0l + p.B*s0r + p.C*s1l + p.D*s1r;
	.loc 1 160 32 discriminator 229376 view .LVU1008
	lea	esi, [rbx+rax]	# _317,
# src/opt17_ilp_only.cpp:158:                         float s0l = p.SUB[rb0+xf+k], s0r = p.SUB[rb0+xf+k+3];
	.loc 1 158 31 discriminator 229376 view .LVU1009
	vcvtusi2ss	xmm5, xmm4, r11d	# tmp1762, tmp1761, *_1249
	vmovaps	xmm7, xmm5	# s0l_1301, s0l_1301
# src/opt17_ilp_only.cpp:158:                         float s0l = p.SUB[rb0+xf+k], s0r = p.SUB[rb0+xf+k+3];
	.loc 1 158 54 discriminator 229376 view .LVU1010
	vcvtusi2ss	xmm5, xmm4, r10d	# tmp1763, tmp1761, *_143
# src/opt17_ilp_only.cpp:159:                         float s1l = p.SUB[rb1+xf+k], s1r = p.SUB[rb1+xf+k+3];
	.loc 1 159 31 discriminator 229376 view .LVU1011
	movzx	r10d, BYTE PTR [r12+rdx]	# *_315, *_315
# src/opt17_ilp_only.cpp:159:                         float s1l = p.SUB[rb1+xf+k], s1r = p.SUB[rb1+xf+k+3];
	.loc 1 159 54 discriminator 229376 view .LVU1012
	movzx	edx, BYTE PTR 3[r12+rdx]	# *_316, *_316
.LVL147:
	.loc 1 159 54 discriminator 229376 view .LVU1013
	vfmadd213ss	xmm7, xmm19, DWORD PTR [r15+rsi*4]	# s0l_1301, _83, *_155
# src/opt17_ilp_only.cpp:159:                         float s1l = p.SUB[rb1+xf+k], s1r = p.SUB[rb1+xf+k+3];
	.loc 1 159 31 discriminator 229376 view .LVU1014
	vcvtusi2ss	xmm6, xmm4, r10d	# tmp1764, tmp1761, *_315
# src/opt17_ilp_only.cpp:160:                         vp[xf+k] += p.A*s0l + p.B*s0r + p.C*s1l + p.D*s1r;
	.loc 1 160 60 discriminator 229376 view .LVU1015
	vmulss	xmm6, xmm6, xmm17	# _159, s1l_148, _85
	vfmadd231ss	xmm6, xmm18, xmm5	# _1163, _84, s0r_145
# src/opt17_ilp_only.cpp:159:                         float s1l = p.SUB[rb1+xf+k], s1r = p.SUB[rb1+xf+k+3];
	.loc 1 159 54 discriminator 229376 view .LVU1016
	vcvtusi2ss	xmm5, xmm4, edx	# tmp1765, tmp1761, *_316
# src/opt17_ilp_only.cpp:160:                         vp[xf+k] += p.A*s0l + p.B*s0r + p.C*s1l + p.D*s1r;
	.loc 1 160 34 discriminator 229376 view .LVU1017
	vfmadd132ss	xmm5, xmm7, xmm16	# tmp1556, _1155, _86
	vaddss	xmm5, xmm5, xmm6	# _165, tmp1556, _1163
	vmovss	DWORD PTR [r15+rsi*4], xmm5	# *_155, _165
.LBE3144:
	.loc 1 157 21 is_stmt 1 discriminator 1 view .LVU1018
# src/opt17_ilp_only.cpp:157:                     for (int k = 0; k < x_floats - xf; ++k) {
	.loc 1 157 21 is_stmt 0 discriminator 229377 view .LVU1019
	lea	esi, 1[rax]	# k,
.LVL148:
	.loc 1 157 39 is_stmt 1 discriminator 2 view .LVU1020
# src/opt17_ilp_only.cpp:157:                     for (int k = 0; k < x_floats - xf; ++k) {
	.loc 1 157 39 is_stmt 0 discriminator 229378 view .LVU1021
	cmp	esi, edi	# k, _262
	jge	.L45	#,
.LBB3145:
	.loc 1 158 25 is_stmt 1 view .LVU1022
# src/opt17_ilp_only.cpp:158:                         float s0l = p.SUB[rb0+xf+k], s0r = p.SUB[rb0+xf+k+3];
	.loc 1 158 50 is_stmt 0 discriminator 262144 view .LVU1023
	mov	edx, esi	# _766, k
# src/opt17_ilp_only.cpp:160:                         vp[xf+k] += p.A*s0l + p.B*s0r + p.C*s1l + p.D*s1r;
	.loc 1 160 32 discriminator 262144 view .LVU1024
	add	esi, ebx	# _1116, xf
.LVL149:
# src/opt17_ilp_only.cpp:158:                         float s0l = p.SUB[rb0+xf+k], s0r = p.SUB[rb0+xf+k+3];
	.loc 1 158 49 discriminator 262144 view .LVU1025
	lea	r10, [rdx+r8]	# _173,
.LVL150:
	.loc 1 159 25 is_stmt 1 view .LVU1026
# src/opt17_ilp_only.cpp:159:                         float s1l = p.SUB[rb1+xf+k], s1r = p.SUB[rb1+xf+k+3];
	.loc 1 159 49 is_stmt 0 discriminator 262144 view .LVU1027
	add	rdx, r9	# _1125, _1378
.LVL151:
	.loc 1 160 25 is_stmt 1 view .LVU1028
# src/opt17_ilp_only.cpp:160:                         vp[xf+k] += p.A*s0l + p.B*s0r + p.C*s1l + p.D*s1r;
	.loc 1 160 32 is_stmt 0 discriminator 262144 view .LVU1029
	mov	esi, esi	# _1116, _1116
# src/opt17_ilp_only.cpp:158:                         float s0l = p.SUB[rb0+xf+k], s0r = p.SUB[rb0+xf+k+3];
	.loc 1 158 31 discriminator 262144 view .LVU1030
	movzx	r11d, BYTE PTR [r12+r10]	# *_320, *_320
# src/opt17_ilp_only.cpp:158:                         float s0l = p.SUB[rb0+xf+k], s0r = p.SUB[rb0+xf+k+3];
	.loc 1 158 54 discriminator 262144 view .LVU1031
	movzx	r10d, BYTE PTR 3[r12+r10]	# *_1128, *_1128
.LVL152:
# src/opt17_ilp_only.cpp:158:                         float s0l = p.SUB[rb0+xf+k], s0r = p.SUB[rb0+xf+k+3];
	.loc 1 158 31 discriminator 262144 view .LVU1032
	vcvtusi2ss	xmm5, xmm4, r11d	# tmp1766, tmp1761, *_320
	vmovaps	xmm7, xmm5	# s0l_1130, s0l_1130
# src/opt17_ilp_only.cpp:158:                         float s0l = p.SUB[rb0+xf+k], s0r = p.SUB[rb0+xf+k+3];
	.loc 1 158 54 discriminator 262144 view .LVU1033
	vcvtusi2ss	xmm5, xmm4, r10d	# tmp1767, tmp1761, *_1128
# src/opt17_ilp_only.cpp:159:                         float s1l = p.SUB[rb1+xf+k], s1r = p.SUB[rb1+xf+k+3];
	.loc 1 159 31 discriminator 262144 view .LVU1034
	movzx	r10d, BYTE PTR [r12+rdx]	# *_1124, *_1124
# src/opt17_ilp_only.cpp:159:                         float s1l = p.SUB[rb1+xf+k], s1r = p.SUB[rb1+xf+k+3];
	.loc 1 159 54 discriminator 262144 view .LVU1035
	movzx	edx, BYTE PTR 3[r12+rdx]	# *_1120, *_1120
.LVL153:
	.loc 1 159 54 discriminator 262144 view .LVU1036
	vfmadd213ss	xmm7, xmm19, DWORD PTR [r15+rsi*4]	# s0l_1130, _83, *_1114
# src/opt17_ilp_only.cpp:159:                         float s1l = p.SUB[rb1+xf+k], s1r = p.SUB[rb1+xf+k+3];
	.loc 1 159 31 discriminator 262144 view .LVU1037
	vcvtusi2ss	xmm6, xmm4, r10d	# tmp1768, tmp1761, *_1124
# src/opt17_ilp_only.cpp:160:                         vp[xf+k] += p.A*s0l + p.B*s0r + p.C*s1l + p.D*s1r;
	.loc 1 160 60 discriminator 262144 view .LVU1038
	vmulss	xmm6, xmm6, xmm17	# _1109, s1l_1122, _85
	vfmadd231ss	xmm6, xmm18, xmm5	# _1412, _84, s0r_1126
# src/opt17_ilp_only.cpp:159:                         float s1l = p.SUB[rb1+xf+k], s1r = p.SUB[rb1+xf+k+3];
	.loc 1 159 54 discriminator 262144 view .LVU1039
	vcvtusi2ss	xmm5, xmm4, edx	# tmp1769, tmp1761, *_1120
# src/opt17_ilp_only.cpp:160:                         vp[xf+k] += p.A*s0l + p.B*s0r + p.C*s1l + p.D*s1r;
	.loc 1 160 34 discriminator 262144 view .LVU1040
	vfmadd132ss	xmm5, xmm7, xmm16	# tmp1571, _1373, _86
	vaddss	xmm5, xmm5, xmm6	# _1105, tmp1571, _1412
	vmovss	DWORD PTR [r15+rsi*4], xmm5	# *_1114, _1105
.LBE3145:
	.loc 1 157 21 is_stmt 1 discriminator 1 view .LVU1041
# src/opt17_ilp_only.cpp:157:                     for (int k = 0; k < x_floats - xf; ++k) {
	.loc 1 157 21 is_stmt 0 discriminator 262145 view .LVU1042
	lea	esi, 2[rax]	# k,
.LVL154:
	.loc 1 157 39 is_stmt 1 discriminator 2 view .LVU1043
# src/opt17_ilp_only.cpp:157:                     for (int k = 0; k < x_floats - xf; ++k) {
	.loc 1 157 39 is_stmt 0 discriminator 262146 view .LVU1044
	cmp	esi, edi	# k, _262
	jge	.L45	#,
.LBB3146:
	.loc 1 158 25 is_stmt 1 view .LVU1045
# src/opt17_ilp_only.cpp:158:                         float s0l = p.SUB[rb0+xf+k], s0r = p.SUB[rb0+xf+k+3];
	.loc 1 158 50 is_stmt 0 discriminator 294912 view .LVU1046
	mov	edx, esi	# _1099, k
# src/opt17_ilp_only.cpp:160:                         vp[xf+k] += p.A*s0l + p.B*s0r + p.C*s1l + p.D*s1r;
	.loc 1 160 32 discriminator 294912 view .LVU1047
	add	esi, ebx	# _938, xf
.LVL155:
# src/opt17_ilp_only.cpp:158:                         float s0l = p.SUB[rb0+xf+k], s0r = p.SUB[rb0+xf+k+3];
	.loc 1 158 49 discriminator 294912 view .LVU1048
	lea	r10, [rdx+r8]	# _1097,
.LVL156:
	.loc 1 159 25 is_stmt 1 view .LVU1049
# src/opt17_ilp_only.cpp:159:                         float s1l = p.SUB[rb1+xf+k], s1r = p.SUB[rb1+xf+k+3];
	.loc 1 159 49 is_stmt 0 discriminator 294912 view .LVU1050
	add	rdx, r9	# _947, _1378
.LVL157:
	.loc 1 160 25 is_stmt 1 view .LVU1051
# src/opt17_ilp_only.cpp:160:                         vp[xf+k] += p.A*s0l + p.B*s0r + p.C*s1l + p.D*s1r;
	.loc 1 160 32 is_stmt 0 discriminator 294912 view .LVU1052
	mov	esi, esi	# _938, _938
# src/opt17_ilp_only.cpp:158:                         float s0l = p.SUB[rb0+xf+k], s0r = p.SUB[rb0+xf+k+3];
	.loc 1 158 31 discriminator 294912 view .LVU1053
	movzx	r11d, BYTE PTR [r12+r10]	# *_955, *_955
# src/opt17_ilp_only.cpp:158:                         float s0l = p.SUB[rb0+xf+k], s0r = p.SUB[rb0+xf+k+3];
	.loc 1 158 54 discriminator 294912 view .LVU1054
	movzx	r10d, BYTE PTR 3[r12+r10]	# *_950, *_950
.LVL158:
# src/opt17_ilp_only.cpp:158:                         float s0l = p.SUB[rb0+xf+k], s0r = p.SUB[rb0+xf+k+3];
	.loc 1 158 31 discriminator 294912 view .LVU1055
	vcvtusi2ss	xmm5, xmm4, r11d	# tmp1770, tmp1761, *_955
	vmovaps	xmm7, xmm5	# s0l_952, s0l_952
# src/opt17_ilp_only.cpp:158:                         float s0l = p.SUB[rb0+xf+k], s0r = p.SUB[rb0+xf+k+3];
	.loc 1 158 54 discriminator 294912 view .LVU1056
	vcvtusi2ss	xmm5, xmm4, r10d	# tmp1771, tmp1761, *_950
# src/opt17_ilp_only.cpp:159:                         float s1l = p.SUB[rb1+xf+k], s1r = p.SUB[rb1+xf+k+3];
	.loc 1 159 31 discriminator 294912 view .LVU1057
	movzx	r10d, BYTE PTR [r12+rdx]	# *_946, *_946
# src/opt17_ilp_only.cpp:159:                         float s1l = p.SUB[rb1+xf+k], s1r = p.SUB[rb1+xf+k+3];
	.loc 1 159 54 discriminator 294912 view .LVU1058
	movzx	edx, BYTE PTR 3[r12+rdx]	# *_942, *_942
.LVL159:
	.loc 1 159 54 discriminator 294912 view .LVU1059
	vfmadd213ss	xmm7, xmm19, DWORD PTR [r15+rsi*4]	# s0l_952, _83, *_936
# src/opt17_ilp_only.cpp:159:                         float s1l = p.SUB[rb1+xf+k], s1r = p.SUB[rb1+xf+k+3];
	.loc 1 159 31 discriminator 294912 view .LVU1060
	vcvtusi2ss	xmm6, xmm4, r10d	# tmp1772, tmp1761, *_946
# src/opt17_ilp_only.cpp:160:                         vp[xf+k] += p.A*s0l + p.B*s0r + p.C*s1l + p.D*s1r;
	.loc 1 160 60 discriminator 294912 view .LVU1061
	vmulss	xmm6, xmm6, xmm17	# _931, s1l_944, _85
	vfmadd231ss	xmm6, xmm18, xmm5	# _1437, _84, s0r_948
# src/opt17_ilp_only.cpp:159:                         float s1l = p.SUB[rb1+xf+k], s1r = p.SUB[rb1+xf+k+3];
	.loc 1 159 54 discriminator 294912 view .LVU1062
	vcvtusi2ss	xmm5, xmm4, edx	# tmp1773, tmp1761, *_942
# src/opt17_ilp_only.cpp:160:                         vp[xf+k] += p.A*s0l + p.B*s0r + p.C*s1l + p.D*s1r;
	.loc 1 160 34 discriminator 294912 view .LVU1063
	vfmadd132ss	xmm5, xmm7, xmm16	# tmp1586, _1424, _86
	vaddss	xmm5, xmm5, xmm6	# _927, tmp1586, _1437
	vmovss	DWORD PTR [r15+rsi*4], xmm5	# *_936, _927
.LBE3146:
	.loc 1 157 21 is_stmt 1 discriminator 1 view .LVU1064
# src/opt17_ilp_only.cpp:157:                     for (int k = 0; k < x_floats - xf; ++k) {
	.loc 1 157 21 is_stmt 0 discriminator 294913 view .LVU1065
	lea	esi, 3[rax]	# k,
.LVL160:
	.loc 1 157 39 is_stmt 1 discriminator 2 view .LVU1066
# src/opt17_ilp_only.cpp:157:                     for (int k = 0; k < x_floats - xf; ++k) {
	.loc 1 157 39 is_stmt 0 discriminator 294914 view .LVU1067
	cmp	esi, edi	# k, _262
	jge	.L45	#,
.LBB3147:
	.loc 1 158 25 is_stmt 1 view .LVU1068
# src/opt17_ilp_only.cpp:158:                         float s0l = p.SUB[rb0+xf+k], s0r = p.SUB[rb0+xf+k+3];
	.loc 1 158 50 is_stmt 0 discriminator 327680 view .LVU1069
	mov	edx, esi	# _920, k
# src/opt17_ilp_only.cpp:160:                         vp[xf+k] += p.A*s0l + p.B*s0r + p.C*s1l + p.D*s1r;
	.loc 1 160 32 discriminator 327680 view .LVU1070
	add	esi, ebx	# _1250, xf
.LVL161:
# src/opt17_ilp_only.cpp:158:                         float s0l = p.SUB[rb0+xf+k], s0r = p.SUB[rb0+xf+k+3];
	.loc 1 158 49 discriminator 327680 view .LVU1071
	lea	r10, [rdx+r8]	# _611,
.LVL162:
	.loc 1 159 25 is_stmt 1 view .LVU1072
# src/opt17_ilp_only.cpp:159:                         float s1l = p.SUB[rb1+xf+k], s1r = p.SUB[rb1+xf+k+3];
	.loc 1 159 49 is_stmt 0 discriminator 327680 view .LVU1073
	add	rdx, r9	# _806, _1378
.LVL163:
	.loc 1 160 25 is_stmt 1 view .LVU1074
# src/opt17_ilp_only.cpp:160:                         vp[xf+k] += p.A*s0l + p.B*s0r + p.C*s1l + p.D*s1r;
	.loc 1 160 32 is_stmt 0 discriminator 327680 view .LVU1075
	mov	esi, esi	# _1250, _1250
# src/opt17_ilp_only.cpp:158:                         float s0l = p.SUB[rb0+xf+k], s0r = p.SUB[rb0+xf+k+3];
	.loc 1 158 31 discriminator 327680 view .LVU1076
	movzx	r11d, BYTE PTR [r12+r10]	# *_673, *_673
# src/opt17_ilp_only.cpp:158:                         float s0l = p.SUB[rb0+xf+k], s0r = p.SUB[rb0+xf+k+3];
	.loc 1 158 54 discriminator 327680 view .LVU1077
	movzx	r10d, BYTE PTR 3[r12+r10]	# *_664, *_664
.LVL164:
# src/opt17_ilp_only.cpp:158:                         float s0l = p.SUB[rb0+xf+k], s0r = p.SUB[rb0+xf+k+3];
	.loc 1 158 31 discriminator 327680 view .LVU1078
	vcvtusi2ss	xmm5, xmm4, r11d	# tmp1774, tmp1761, *_673
	vmovaps	xmm7, xmm5	# s0l_1134, s0l_1134
# src/opt17_ilp_only.cpp:158:                         float s0l = p.SUB[rb0+xf+k], s0r = p.SUB[rb0+xf+k+3];
	.loc 1 158 54 discriminator 327680 view .LVU1079
	vcvtusi2ss	xmm5, xmm4, r10d	# tmp1775, tmp1761, *_664
# src/opt17_ilp_only.cpp:159:                         float s1l = p.SUB[rb1+xf+k], s1r = p.SUB[rb1+xf+k+3];
	.loc 1 159 31 discriminator 327680 view .LVU1080
	movzx	r10d, BYTE PTR [r12+rdx]	# *_535, *_535
# src/opt17_ilp_only.cpp:159:                         float s1l = p.SUB[rb1+xf+k], s1r = p.SUB[rb1+xf+k+3];
	.loc 1 159 54 discriminator 327680 view .LVU1081
	movzx	edx, BYTE PTR 3[r12+rdx]	# *_1314, *_1314
.LVL165:
	.loc 1 159 54 discriminator 327680 view .LVU1082
	vfmadd213ss	xmm7, xmm19, DWORD PTR [r15+rsi*4]	# s0l_1134, _83, *_398
# src/opt17_ilp_only.cpp:159:                         float s1l = p.SUB[rb1+xf+k], s1r = p.SUB[rb1+xf+k+3];
	.loc 1 159 31 discriminator 327680 view .LVU1083
	vcvtusi2ss	xmm6, xmm4, r10d	# tmp1776, tmp1761, *_535
# src/opt17_ilp_only.cpp:160:                         vp[xf+k] += p.A*s0l + p.B*s0r + p.C*s1l + p.D*s1r;
	.loc 1 160 60 discriminator 327680 view .LVU1084
	vmulss	xmm6, xmm6, xmm17	# _1196, s1l_1431, _85
	vfmadd231ss	xmm6, xmm18, xmm5	# _89, _84, s0r_810
# src/opt17_ilp_only.cpp:159:                         float s1l = p.SUB[rb1+xf+k], s1r = p.SUB[rb1+xf+k+3];
	.loc 1 159 54 discriminator 327680 view .LVU1085
	vcvtusi2ss	xmm5, xmm4, edx	# tmp1777, tmp1761, *_1314
# src/opt17_ilp_only.cpp:160:                         vp[xf+k] += p.A*s0l + p.B*s0r + p.C*s1l + p.D*s1r;
	.loc 1 160 34 discriminator 327680 view .LVU1086
	vfmadd132ss	xmm5, xmm7, xmm16	# tmp1601, _1480, _86
	vaddss	xmm5, xmm5, xmm6	# _1364, tmp1601, _89
	vmovss	DWORD PTR [r15+rsi*4], xmm5	# *_398, _1364
.LBE3147:
	.loc 1 157 21 is_stmt 1 discriminator 1 view .LVU1087
# src/opt17_ilp_only.cpp:157:                     for (int k = 0; k < x_floats - xf; ++k) {
	.loc 1 157 21 is_stmt 0 discriminator 327681 view .LVU1088
	lea	esi, 4[rax]	# k,
.LVL166:
	.loc 1 157 39 is_stmt 1 discriminator 2 view .LVU1089
# src/opt17_ilp_only.cpp:157:                     for (int k = 0; k < x_floats - xf; ++k) {
	.loc 1 157 39 is_stmt 0 discriminator 327682 view .LVU1090
	cmp	esi, edi	# k, _262
	jge	.L45	#,
.LBB3148:
	.loc 1 158 25 is_stmt 1 view .LVU1091
# src/opt17_ilp_only.cpp:158:                         float s0l = p.SUB[rb0+xf+k], s0r = p.SUB[rb0+xf+k+3];
	.loc 1 158 50 is_stmt 0 discriminator 360448 view .LVU1092
	mov	edx, esi	# _1245, k
# src/opt17_ilp_only.cpp:160:                         vp[xf+k] += p.A*s0l + p.B*s0r + p.C*s1l + p.D*s1r;
	.loc 1 160 32 discriminator 360448 view .LVU1093
	add	esi, ebx	# _1393, xf
.LVL167:
# src/opt17_ilp_only.cpp:158:                         float s0l = p.SUB[rb0+xf+k], s0r = p.SUB[rb0+xf+k+3];
	.loc 1 158 49 discriminator 360448 view .LVU1094
	lea	r10, [rdx+r8]	# _401,
.LVL168:
	.loc 1 159 25 is_stmt 1 view .LVU1095
# src/opt17_ilp_only.cpp:159:                         float s1l = p.SUB[rb1+xf+k], s1r = p.SUB[rb1+xf+k+3];
	.loc 1 159 49 is_stmt 0 discriminator 360448 view .LVU1096
	add	rdx, r9	# _1308, _1378
.LVL169:
	.loc 1 160 25 is_stmt 1 view .LVU1097
# src/opt17_ilp_only.cpp:160:                         vp[xf+k] += p.A*s0l + p.B*s0r + p.C*s1l + p.D*s1r;
	.loc 1 160 32 is_stmt 0 discriminator 360448 view .LVU1098
	mov	esi, esi	# _1393, _1393
# src/opt17_ilp_only.cpp:158:                         float s0l = p.SUB[rb0+xf+k], s0r = p.SUB[rb0+xf+k+3];
	.loc 1 158 31 discriminator 360448 view .LVU1099
	movzx	r11d, BYTE PTR [r12+r10]	# *_402, *_402
# src/opt17_ilp_only.cpp:158:                         float s0l = p.SUB[rb0+xf+k], s0r = p.SUB[rb0+xf+k+3];
	.loc 1 158 54 discriminator 360448 view .LVU1100
	movzx	r10d, BYTE PTR 3[r12+r10]	# *_1399, *_1399
.LVL170:
# src/opt17_ilp_only.cpp:158:                         float s0l = p.SUB[rb0+xf+k], s0r = p.SUB[rb0+xf+k+3];
	.loc 1 158 31 discriminator 360448 view .LVU1101
	vcvtusi2ss	xmm5, xmm4, r11d	# tmp1778, tmp1761, *_402
	vmovaps	xmm7, xmm5	# s0l_348, s0l_348
# src/opt17_ilp_only.cpp:158:                         float s0l = p.SUB[rb0+xf+k], s0r = p.SUB[rb0+xf+k+3];
	.loc 1 158 54 discriminator 360448 view .LVU1102
	vcvtusi2ss	xmm5, xmm4, r10d	# tmp1779, tmp1761, *_1399
# src/opt17_ilp_only.cpp:159:                         float s1l = p.SUB[rb1+xf+k], s1r = p.SUB[rb1+xf+k+3];
	.loc 1 159 31 discriminator 360448 view .LVU1103
	movzx	r10d, BYTE PTR [r12+rdx]	# *_1368, *_1368
# src/opt17_ilp_only.cpp:159:                         float s1l = p.SUB[rb1+xf+k], s1r = p.SUB[rb1+xf+k+3];
	.loc 1 159 54 discriminator 360448 view .LVU1104
	movzx	edx, BYTE PTR 3[r12+rdx]	# *_1253, *_1253
.LVL171:
	.loc 1 159 54 discriminator 360448 view .LVU1105
	vfmadd213ss	xmm7, xmm19, DWORD PTR [r15+rsi*4]	# s0l_348, _83, *_1391
# src/opt17_ilp_only.cpp:159:                         float s1l = p.SUB[rb1+xf+k], s1r = p.SUB[rb1+xf+k+3];
	.loc 1 159 31 discriminator 360448 view .LVU1106
	vcvtusi2ss	xmm6, xmm4, r10d	# tmp1780, tmp1761, *_1368
# src/opt17_ilp_only.cpp:160:                         vp[xf+k] += p.A*s0l + p.B*s0r + p.C*s1l + p.D*s1r;
	.loc 1 160 60 discriminator 360448 view .LVU1107
	vmulss	xmm6, xmm6, xmm17	# _1304, s1l_1366, _85
	vfmadd231ss	xmm6, xmm18, xmm5	# _95, _84, s0r_1397
# src/opt17_ilp_only.cpp:159:                         float s1l = p.SUB[rb1+xf+k], s1r = p.SUB[rb1+xf+k+3];
	.loc 1 159 54 discriminator 360448 view .LVU1108
	vcvtusi2ss	xmm5, xmm4, edx	# tmp1781, tmp1761, *_1253
# src/opt17_ilp_only.cpp:160:                         vp[xf+k] += p.A*s0l + p.B*s0r + p.C*s1l + p.D*s1r;
	.loc 1 160 34 discriminator 360448 view .LVU1109
	vfmadd132ss	xmm5, xmm7, xmm16	# tmp1616, _91, _86
	vaddss	xmm5, xmm5, xmm6	# _1226, tmp1616, _95
	vmovss	DWORD PTR [r15+rsi*4], xmm5	# *_1391, _1226
.LBE3148:
	.loc 1 157 21 is_stmt 1 discriminator 1 view .LVU1110
# src/opt17_ilp_only.cpp:157:                     for (int k = 0; k < x_floats - xf; ++k) {
	.loc 1 157 21 is_stmt 0 discriminator 360449 view .LVU1111
	lea	esi, 5[rax]	# k,
.LVL172:
	.loc 1 157 39 is_stmt 1 discriminator 2 view .LVU1112
# src/opt17_ilp_only.cpp:157:                     for (int k = 0; k < x_floats - xf; ++k) {
	.loc 1 157 39 is_stmt 0 discriminator 360450 view .LVU1113
	cmp	edi, esi	# _262, k
	jle	.L45	#,
.LBB3149:
	.loc 1 158 25 is_stmt 1 view .LVU1114
# src/opt17_ilp_only.cpp:158:                         float s0l = p.SUB[rb0+xf+k], s0r = p.SUB[rb0+xf+k+3];
	.loc 1 158 50 is_stmt 0 discriminator 393216 view .LVU1115
	mov	edx, esi	# _1385, k
# src/opt17_ilp_only.cpp:160:                         vp[xf+k] += p.A*s0l + p.B*s0r + p.C*s1l + p.D*s1r;
	.loc 1 160 32 discriminator 393216 view .LVU1116
	add	esi, ebx	# _189, xf
.LVL173:
	.loc 1 160 32 discriminator 393216 view .LVU1117
.LBE3149:
# src/opt17_ilp_only.cpp:157:                     for (int k = 0; k < x_floats - xf; ++k) {
	.loc 1 157 21 discriminator 393217 view .LVU1118
	add	eax, 6	# k,
.LVL174:
.LBB3150:
# src/opt17_ilp_only.cpp:158:                         float s0l = p.SUB[rb0+xf+k], s0r = p.SUB[rb0+xf+k+3];
	.loc 1 158 49 discriminator 393216 view .LVU1119
	lea	r10, [r8+rdx]	# _1361,
.LVL175:
	.loc 1 159 25 is_stmt 1 view .LVU1120
# src/opt17_ilp_only.cpp:159:                         float s1l = p.SUB[rb1+xf+k], s1r = p.SUB[rb1+xf+k+3];
	.loc 1 159 49 is_stmt 0 discriminator 393216 view .LVU1121
	add	rdx, r9	# _486, _1378
.LVL176:
	.loc 1 160 25 is_stmt 1 view .LVU1122
# src/opt17_ilp_only.cpp:160:                         vp[xf+k] += p.A*s0l + p.B*s0r + p.C*s1l + p.D*s1r;
	.loc 1 160 32 is_stmt 0 discriminator 393216 view .LVU1123
	mov	esi, esi	# _189, _189
# src/opt17_ilp_only.cpp:158:                         float s0l = p.SUB[rb0+xf+k], s0r = p.SUB[rb0+xf+k+3];
	.loc 1 158 31 discriminator 393216 view .LVU1124
	movzx	r11d, BYTE PTR [r12+r10]	# *_798, *_798
# src/opt17_ilp_only.cpp:158:                         float s0l = p.SUB[rb0+xf+k], s0r = p.SUB[rb0+xf+k+3];
	.loc 1 158 54 discriminator 393216 view .LVU1125
	movzx	r10d, BYTE PTR 3[r12+r10]	# *_184, *_184
.LVL177:
# src/opt17_ilp_only.cpp:158:                         float s0l = p.SUB[rb0+xf+k], s0r = p.SUB[rb0+xf+k+3];
	.loc 1 158 31 discriminator 393216 view .LVU1126
	vcvtusi2ss	xmm5, xmm4, r11d	# tmp1782, tmp1761, *_798
	vmovaps	xmm7, xmm5	# s0l_755, s0l_755
# src/opt17_ilp_only.cpp:158:                         float s0l = p.SUB[rb0+xf+k], s0r = p.SUB[rb0+xf+k+3];
	.loc 1 158 54 discriminator 393216 view .LVU1127
	vcvtusi2ss	xmm5, xmm4, r10d	# tmp1783, tmp1761, *_184
# src/opt17_ilp_only.cpp:159:                         float s1l = p.SUB[rb1+xf+k], s1r = p.SUB[rb1+xf+k+3];
	.loc 1 159 31 discriminator 393216 view .LVU1128
	movzx	r10d, BYTE PTR [r12+rdx]	# *_487, *_487
# src/opt17_ilp_only.cpp:159:                         float s1l = p.SUB[rb1+xf+k], s1r = p.SUB[rb1+xf+k+3];
	.loc 1 159 54 discriminator 393216 view .LVU1129
	movzx	edx, BYTE PTR 3[r12+rdx]	# *_294, *_294
.LVL178:
	.loc 1 159 54 discriminator 393216 view .LVU1130
	vfmadd213ss	xmm7, xmm19, DWORD PTR [r15+rsi*4]	# s0l_755, _83, *_1337
# src/opt17_ilp_only.cpp:159:                         float s1l = p.SUB[rb1+xf+k], s1r = p.SUB[rb1+xf+k+3];
	.loc 1 159 31 discriminator 393216 view .LVU1131
	vcvtusi2ss	xmm6, xmm4, r10d	# tmp1784, tmp1761, *_487
# src/opt17_ilp_only.cpp:160:                         vp[xf+k] += p.A*s0l + p.B*s0r + p.C*s1l + p.D*s1r;
	.loc 1 160 60 discriminator 393216 view .LVU1132
	vmulss	xmm6, xmm6, xmm17	# _342, s1l_1406, _85
	vfmadd231ss	xmm6, xmm18, xmm5	# _105, _84, s0r_186
# src/opt17_ilp_only.cpp:159:                         float s1l = p.SUB[rb1+xf+k], s1r = p.SUB[rb1+xf+k+3];
	.loc 1 159 54 discriminator 393216 view .LVU1133
	vcvtusi2ss	xmm5, xmm4, edx	# tmp1785, tmp1761, *_294
# src/opt17_ilp_only.cpp:160:                         vp[xf+k] += p.A*s0l + p.B*s0r + p.C*s1l + p.D*s1r;
	.loc 1 160 34 discriminator 393216 view .LVU1134
	vfmadd132ss	xmm5, xmm7, xmm16	# tmp1631, _104, _86
	vaddss	xmm5, xmm5, xmm6	# _1319, tmp1631, _105
	vmovss	DWORD PTR [r15+rsi*4], xmm5	# *_1337, _1319
.LBE3150:
	.loc 1 157 21 is_stmt 1 discriminator 1 view .LVU1135
.LVL179:
	.loc 1 157 39 discriminator 2 view .LVU1136
# src/opt17_ilp_only.cpp:157:                     for (int k = 0; k < x_floats - xf; ++k) {
	.loc 1 157 39 is_stmt 0 discriminator 393218 view .LVU1137
	cmp	edi, eax	# _262, k
	jle	.L45	#,
.LBB3151:
	.loc 1 158 25 is_stmt 1 view .LVU1138
# src/opt17_ilp_only.cpp:158:                         float s0l = p.SUB[rb0+xf+k], s0r = p.SUB[rb0+xf+k+3];
	.loc 1 158 50 is_stmt 0 discriminator 163840 view .LVU1139
	mov	edx, eax	# _666, k
# src/opt17_ilp_only.cpp:160:                         vp[xf+k] += p.A*s0l + p.B*s0r + p.C*s1l + p.D*s1r;
	.loc 1 160 32 discriminator 163840 view .LVU1140
	add	eax, ebx	# _630, xf
.LVL180:
# src/opt17_ilp_only.cpp:158:                         float s0l = p.SUB[rb0+xf+k], s0r = p.SUB[rb0+xf+k+3];
	.loc 1 158 49 discriminator 163840 view .LVU1141
	add	r8, rdx	# _665, _666
.LVL181:
	.loc 1 159 25 is_stmt 1 view .LVU1142
# src/opt17_ilp_only.cpp:159:                         float s1l = p.SUB[rb1+xf+k], s1r = p.SUB[rb1+xf+k+3];
	.loc 1 159 49 is_stmt 0 discriminator 163840 view .LVU1143
	add	rdx, r9	# _652, _1378
.LVL182:
	.loc 1 160 25 is_stmt 1 view .LVU1144
# src/opt17_ilp_only.cpp:160:                         vp[xf+k] += p.A*s0l + p.B*s0r + p.C*s1l + p.D*s1r;
	.loc 1 160 32 is_stmt 0 discriminator 163840 view .LVU1145
	mov	eax, eax	# _630, _630
# src/opt17_ilp_only.cpp:158:                         float s0l = p.SUB[rb0+xf+k], s0r = p.SUB[rb0+xf+k+3];
	.loc 1 158 31 discriminator 163840 view .LVU1146
	movzx	esi, BYTE PTR [r12+r8]	# *_663, *_663
	vcvtusi2ss	xmm5, xmm4, esi	# tmp1786, tmp1761, *_663
# src/opt17_ilp_only.cpp:158:                         float s0l = p.SUB[rb0+xf+k], s0r = p.SUB[rb0+xf+k+3];
	.loc 1 158 54 discriminator 163840 view .LVU1147
	movzx	esi, BYTE PTR 3[r12+r8]	# *_658, *_658
	vmovaps	xmm7, xmm5	# s0l_660, s0l_660
	vcvtusi2ss	xmm5, xmm4, esi	# tmp1787, tmp1761, *_658
# src/opt17_ilp_only.cpp:159:                         float s1l = p.SUB[rb1+xf+k], s1r = p.SUB[rb1+xf+k+3];
	.loc 1 159 31 discriminator 163840 view .LVU1148
	movzx	esi, BYTE PTR [r12+rdx]	# *_650, *_650
# src/opt17_ilp_only.cpp:159:                         float s1l = p.SUB[rb1+xf+k], s1r = p.SUB[rb1+xf+k+3];
	.loc 1 159 54 discriminator 163840 view .LVU1149
	movzx	edx, BYTE PTR 3[r12+rdx]	# *_641, *_641
.LVL183:
	.loc 1 159 54 discriminator 163840 view .LVU1150
	vfmadd213ss	xmm7, xmm19, DWORD PTR [r15+rax*4]	# s0l_660, _83, *_626
# src/opt17_ilp_only.cpp:159:                         float s1l = p.SUB[rb1+xf+k], s1r = p.SUB[rb1+xf+k+3];
	.loc 1 159 31 discriminator 163840 view .LVU1151
	vcvtusi2ss	xmm6, xmm4, esi	# tmp1788, tmp1761, *_650
# src/opt17_ilp_only.cpp:160:                         vp[xf+k] += p.A*s0l + p.B*s0r + p.C*s1l + p.D*s1r;
	.loc 1 160 60 discriminator 163840 view .LVU1152
	vmulss	xmm6, xmm6, xmm17	# _620, s1l_648, _85
	vfmadd231ss	xmm6, xmm18, xmm5	# _108, _84, s0r_653
# src/opt17_ilp_only.cpp:159:                         float s1l = p.SUB[rb1+xf+k], s1r = p.SUB[rb1+xf+k+3];
	.loc 1 159 54 discriminator 163840 view .LVU1153
	vcvtusi2ss	xmm5, xmm4, edx	# tmp1789, tmp1761, *_641
# src/opt17_ilp_only.cpp:160:                         vp[xf+k] += p.A*s0l + p.B*s0r + p.C*s1l + p.D*s1r;
	.loc 1 160 34 discriminator 163840 view .LVU1154
	vfmadd132ss	xmm5, xmm7, xmm16	# tmp1646, _107, _86
	vaddss	xmm5, xmm5, xmm6	# _616, tmp1646, _108
	vmovss	DWORD PTR [r15+rax*4], xmm5	# *_626, _616
.LBE3151:
	.loc 1 157 21 is_stmt 1 discriminator 1 view .LVU1155
	.loc 1 157 39 discriminator 2 view .LVU1156
.LVL184:
.L45:
	.loc 1 157 39 is_stmt 0 discriminator 2 view .LVU1157
.LBE3153:
.LBE3169:
	.loc 1 112 17 is_stmt 1 discriminator 1 view .LVU1158
	inc	DWORD PTR 280[rsp]	# %sfp
.LVL185:
# src/opt17_ilp_only.cpp:112:                 for (int y = y_begin; y < y_end; ++y) {
	.loc 1 112 41 is_stmt 0 discriminator 2 view .LVU1159
	mov	rdi, QWORD PTR 192[rsp]	# _96, %sfp
	mov	rbx, QWORD PTR 208[rsp]	# _1494, %sfp
	add	r15, QWORD PTR 200[rsp]	# ivtmp.546, %sfp
.LVL186:
	.loc 1 112 41 discriminator 2 view .LVU1160
	add	rcx, rdi	# ivtmp.547, _96
.LVL187:
	.loc 1 112 41 discriminator 2 view .LVU1161
	add	r14, rdi	# ivtmp.548, _96
.LVL188:
	.loc 1 112 41 discriminator 2 view .LVU1162
	add	QWORD PTR 232[rsp], rbx	# %sfp, _1494
# src/opt17_ilp_only.cpp:112:                 for (int y = y_begin; y < y_end; ++y) {
	.loc 1 112 17 discriminator 1 view .LVU1163
	mov	eax, DWORD PTR 280[rsp]	# y, %sfp
.LVL189:
	.loc 1 112 41 is_stmt 1 discriminator 2 view .LVU1164
	cmp	eax, DWORD PTR 216[rsp]	# y, %sfp
	jl	.L52	#,
	mov	rdx, QWORD PTR 136[rsp]	# ivtmp.557, %sfp
	mov	r10, QWORD PTR 128[rsp]	# _370, %sfp
	mov	r15d, DWORD PTR 144[rsp]	# _385, %sfp
	mov	r13d, DWORD PTR 124[rsp]	#, %sfp
	mov	r9d, DWORD PTR 120[rsp]	# ty, %sfp
.LVL190:
.L38:
	.loc 1 112 41 is_stmt 0 discriminator 2 view .LVU1165
.LBE3218:
.LBE3223:
	.loc 1 98 13 is_stmt 1 discriminator 4 view .LVU1166
	.loc 1 98 39 discriminator 5 view .LVU1167
# src/opt17_ilp_only.cpp:98:             for (const SubParams& p : params) {
	.loc 1 98 39 is_stmt 0 discriminator 6 view .LVU1168
	add	rdx, 48	# ivtmp.557,
.LVL191:
	.loc 1 98 39 discriminator 6 view .LVU1169
	cmp	QWORD PTR 152[rsp], rdx	# %sfp, ivtmp.557
	jne	.L53	#,
	mov	r11, QWORD PTR 104[rsp]	# _76, %sfp
	mov	ecx, DWORD PTR 52[rsp]	# tile_w_actual, %sfp
	mov	r12, QWORD PTR 96[rsp]	# ivtmp.562, %sfp
.LVL192:
.L37:
	.loc 1 98 39 discriminator 6 view .LVU1170
.LBE3321:
.LBB3322:
	.loc 1 165 32 is_stmt 1 discriminator 2 view .LVU1171
	cmp	DWORD PTR 48[rsp], r15d	# %sfp, _385
	jge	.L54	#,
	test	ecx, ecx	# tile_w_actual
	jle	.L54	#,
	lea	rax, [r11+r11*2]	# _670,
	mov	rdi, QWORD PTR 248[rsp]	# ivtmp.508, %sfp
	mov	r9, QWORD PTR 32[rsp]	# ivtmp.507, %sfp
	lea	r8d, [rcx+rcx*2]	# _267,
	lea	r13, 0[0+rax*4]	# tmp1665,
	mov	rax, QWORD PTR 72[rsp]	# _530, %sfp
# src/opt17_ilp_only.cpp:165:             for (int y = ty; y < tile_y_end; ++y) {
	.loc 1 165 22 is_stmt 0 view .LVU1172
	mov	r11d, DWORD PTR 80[rsp]	# y, %sfp
.LBB3289:
.LBB3280:
.LBB3273:
# src/opt17_ilp_only.cpp:173:                     outp[x*3    ] = (unsigned char)std::clamp(vp[x*3    ] * inv_c + 0.5f, 0.0f, 255.0f);
	.loc 1 173 83 view .LVU1173
	vmovss	xmm3, DWORD PTR .LC5[rip]	# tmp1716,
.LBB3244:
.LBB3236:
.LBB3237:
# /usr/include/c++/16/bits/stl_algobase.h:237:       if (__b < __a)
	.loc 10 237 7 view .LVU1174
	vmovss	xmm6, DWORD PTR .LC6[rip]	# tmp1717,
	mov	r14, QWORD PTR 64[rsp]	# <retval>, %sfp
	lea	rbx, [rax+r12*4]	# _835,
	.p2align 4,,10
	.p2align 3
.L66:
.LVL193:
	.loc 10 237 7 view .LVU1175
.LBE3237:
.LBE3236:
.LBE3244:
.LBE3273:
.LBE3280:
	.loc 1 166 17 is_stmt 1 view .LVU1176
	.loc 1 167 17 view .LVU1177
.LBB3281:
.LBI3281:
	.loc 2 1385 7 view .LVU1178
	.loc 2 1385 7 is_stmt 0 view .LVU1179
.LBE3281:
	.loc 1 169 17 is_stmt 1 view .LVU1180
.LBB3282:
	.loc 1 169 35 discriminator 2 view .LVU1181
.LBE3282:
# src/opt17_ilp_only.cpp:167:                 unsigned char* outp = output.data.data() + (size_t)(y * width + tx) * 3;
	.loc 1 167 85 is_stmt 0 discriminator 1 view .LVU1182
	lea	rax, [r9+r12]	# _571,
.LBB3283:
.LBB3274:
# src/opt17_ilp_only.cpp:175:                     outp[x*3 + 2] = (unsigned char)std::clamp(vp[x*3 + 2] * inv_c + 0.5f, 0.0f, 255.0f);
	.loc 1 175 83 view .LVU1183
	mov	QWORD PTR 280[rsp], r9	# %sfp, ivtmp.507
.LBB3245:
.LBB3246:
.LBB3247:
# /usr/include/c++/16/bits/stl_algobase.h:237:       if (__b < __a)
	.loc 10 237 7 view .LVU1184
	vmovss	xmm2, DWORD PTR .LC6[rip]	# tmp1719,
	lea	rcx, [rbx+r9*4]	# ivtmp.497,
.LBE3247:
.LBE3246:
.LBE3245:
.LBE3274:
.LBE3283:
# src/opt17_ilp_only.cpp:167:                 unsigned char* outp = output.data.data() + (size_t)(y * width + tx) * 3;
	.loc 1 167 85 discriminator 1 view .LVU1185
	lea	rsi, [rax+rax*2]	# _736,
.LBB3284:
.LBB3275:
# src/opt17_ilp_only.cpp:175:                     outp[x*3 + 2] = (unsigned char)std::clamp(vp[x*3 + 2] * inv_c + 0.5f, 0.0f, 255.0f);
	.loc 1 175 83 view .LVU1186
	vmovss	xmm5, DWORD PTR .LC5[rip]	# tmp1720,
.LBE3275:
.LBE3284:
# src/opt17_ilp_only.cpp:167:                 unsigned char* outp = output.data.data() + (size_t)(y * width + tx) * 3;
	.loc 1 167 87 discriminator 1 view .LVU1187
	xor	edx, edx	# ivtmp.499
	add	rsi, QWORD PTR 16[r14]	# outp, MEM[(struct vector *)output_249(D) + 16B].D.87585._M_impl.D.86896._M_start
.LVL194:
	.p2align 4,,10
	.p2align 3
.L65:
.LBB3285:
.LBB3276:
	.loc 1 170 21 is_stmt 1 view .LVU1188
# src/opt17_ilp_only.cpp:170:                     int c = counts[y * width + (tx + x)];
	.loc 1 170 56 is_stmt 0 discriminator 1 view .LVU1189
	mov	eax, DWORD PTR [rcx]	# c, MEM[(value_type &)_265]
.LVL195:
	.loc 1 171 21 is_stmt 1 view .LVU1190
	test	eax, eax	# c
	je	.L55	#,
	.loc 1 172 21 view .LVU1191
# src/opt17_ilp_only.cpp:172:                     float inv_c = 1.0f / (float)c;
	.loc 1 172 42 is_stmt 0 view .LVU1192
	vcvtsi2ss	xmm0, xmm4, eax	# tmp1794, tmp1761, c
# src/opt17_ilp_only.cpp:173:                     outp[x*3    ] = (unsigned char)std::clamp(vp[x*3    ] * inv_c + 0.5f, 0.0f, 255.0f);
	.loc 1 173 67 view .LVU1193
	mov	eax, edx	# _1289, ivtmp.499
.LVL196:
.LBB3253:
.LBB3239:
.LBB3233:
# /usr/include/c++/16/bits/stl_algobase.h:261:       if (__a < __b)
	.loc 10 261 7 view .LVU1194
	xor	r9d, r9d	# prephitmp_1281
.LBE3233:
.LBE3239:
.LBE3253:
# src/opt17_ilp_only.cpp:172:                     float inv_c = 1.0f / (float)c;
	.loc 1 172 27 view .LVU1195
	vdivss	xmm0, xmm20, xmm0	# inv_c, tmp1740, _1292
.LVL197:
	.loc 1 173 21 is_stmt 1 view .LVU1196
# src/opt17_ilp_only.cpp:173:                     outp[x*3    ] = (unsigned char)std::clamp(vp[x*3    ] * inv_c + 0.5f, 0.0f, 255.0f);
	.loc 1 173 75 is_stmt 0 view .LVU1197
	vmulss	xmm1, xmm0, DWORD PTR [rdi+rax*4]	# _1285, inv_c, *_1287
.LBB3254:
.LBI3229:
	.file 17 "/usr/include/c++/16/bits/stl_algo.h"
	.loc 17 3614 5 is_stmt 1 view .LVU1198
	.loc 17 3616 7 discriminator 2 view .LVU1199
.LBB3240:
.LBI3230:
	.loc 10 256 5 view .LVU1200
.LBB3234:
# /usr/include/c++/16/bits/stl_algobase.h:261:       if (__a < __b)
	.loc 10 261 7 is_stmt 0 view .LVU1201
	vcomiss	xmm13, xmm1	# tmp1741, _1285
	ja	.L64	#,
.LBE3234:
.LBE3240:
.LBE3254:
# src/opt17_ilp_only.cpp:173:                     outp[x*3    ] = (unsigned char)std::clamp(vp[x*3    ] * inv_c + 0.5f, 0.0f, 255.0f);
	.loc 1 173 83 view .LVU1202
	vaddss	xmm1, xmm1, xmm3	# _1284, _1285, tmp1716
.LBB3255:
.LBB3241:
.LBB3238:
# /usr/include/c++/16/bits/stl_algobase.h:237:       if (__b < __a)
	.loc 10 237 7 view .LVU1203
	vminss	xmm1, xmm1, xmm6	# _1284, _1284, tmp1717
.LBE3238:
.LBE3241:
.LBE3255:
# src/opt17_ilp_only.cpp:173:                     outp[x*3    ] = (unsigned char)std::clamp(vp[x*3    ] * inv_c + 0.5f, 0.0f, 255.0f);
	.loc 1 173 37 discriminator 1 view .LVU1204
	vcvttss2si	r9d, xmm1	# prephitmp_1281, _1284
.L64:
.LBB3256:
.LBB3242:
.LBI3236:
	.loc 10 232 5 is_stmt 1 view .LVU1205
.LBE3242:
.LBE3256:
# src/opt17_ilp_only.cpp:174:                     outp[x*3 + 1] = (unsigned char)std::clamp(vp[x*3 + 1] * inv_c + 0.5f, 0.0f, 255.0f);
	.loc 1 174 75 is_stmt 0 view .LVU1206
	vmulss	xmm1, xmm0, DWORD PTR 4[rdi+rax*4]	# _1274, inv_c, *_1276
# src/opt17_ilp_only.cpp:173:                     outp[x*3    ] = (unsigned char)std::clamp(vp[x*3    ] * inv_c + 0.5f, 0.0f, 255.0f);
	.loc 1 173 35 discriminator 1 view .LVU1207
	mov	BYTE PTR [rsi+rax], r9b	# *_1280, prephitmp_1281
	.loc 1 174 21 is_stmt 1 view .LVU1208
.LBB3257:
.LBI3245:
	.loc 17 3614 5 view .LVU1209
	.loc 17 3616 7 discriminator 2 view .LVU1210
.LBB3249:
.LBI3249:
	.loc 10 256 5 view .LVU1211
.LBB3250:
# /usr/include/c++/16/bits/stl_algobase.h:261:       if (__a < __b)
	.loc 10 261 7 is_stmt 0 view .LVU1212
	xor	r9d, r9d	# prephitmp_1270
	vcomiss	xmm13, xmm1	# tmp1741, _1274
	ja	.L63	#,
.LBE3250:
.LBE3249:
.LBE3257:
# src/opt17_ilp_only.cpp:174:                     outp[x*3 + 1] = (unsigned char)std::clamp(vp[x*3 + 1] * inv_c + 0.5f, 0.0f, 255.0f);
	.loc 1 174 83 view .LVU1213
	vaddss	xmm1, xmm1, xmm3	# _1273, _1274, tmp1716
.LBB3258:
.LBB3251:
.LBB3248:
# /usr/include/c++/16/bits/stl_algobase.h:237:       if (__b < __a)
	.loc 10 237 7 view .LVU1214
	vminss	xmm1, xmm1, xmm2	# _1273, _1273, tmp1719
.LBE3248:
.LBE3251:
.LBE3258:
# src/opt17_ilp_only.cpp:174:                     outp[x*3 + 1] = (unsigned char)std::clamp(vp[x*3 + 1] * inv_c + 0.5f, 0.0f, 255.0f);
	.loc 1 174 37 discriminator 1 view .LVU1215
	vcvttss2si	r9d, xmm1	# prephitmp_1270, _1273
.L63:
.LBB3259:
.LBB3252:
.LBI3246:
	.loc 10 232 5 is_stmt 1 view .LVU1216
.LBE3252:
.LBE3259:
# src/opt17_ilp_only.cpp:175:                     outp[x*3 + 2] = (unsigned char)std::clamp(vp[x*3 + 2] * inv_c + 0.5f, 0.0f, 255.0f);
	.loc 1 175 75 is_stmt 0 view .LVU1217
	vmulss	xmm0, xmm0, DWORD PTR 8[rdi+rax*4]	# _1263, inv_c, *_1265
.LVL198:
# src/opt17_ilp_only.cpp:174:                     outp[x*3 + 1] = (unsigned char)std::clamp(vp[x*3 + 1] * inv_c + 0.5f, 0.0f, 255.0f);
	.loc 1 174 35 discriminator 1 view .LVU1218
	mov	BYTE PTR 1[rsi+rax], r9b	# *_1269, prephitmp_1270
	.loc 1 175 21 is_stmt 1 view .LVU1219
.LBB3260:
.LBI3260:
	.loc 17 3614 5 view .LVU1220
	.loc 17 3616 7 discriminator 2 view .LVU1221
.LBB3261:
.LBI3261:
	.loc 10 256 5 view .LVU1222
.LBB3262:
# /usr/include/c++/16/bits/stl_algobase.h:261:       if (__a < __b)
	.loc 10 261 7 is_stmt 0 view .LVU1223
	xor	r9d, r9d	# prephitmp_1259
	vcomiss	xmm13, xmm0	# tmp1741, _1263
	ja	.L62	#,
.LBE3262:
.LBE3261:
.LBE3260:
# src/opt17_ilp_only.cpp:175:                     outp[x*3 + 2] = (unsigned char)std::clamp(vp[x*3 + 2] * inv_c + 0.5f, 0.0f, 255.0f);
	.loc 1 175 83 view .LVU1224
	vaddss	xmm0, xmm0, xmm5	# _1262, _1263, tmp1720
.LBB3268:
.LBB3264:
.LBB3265:
# /usr/include/c++/16/bits/stl_algobase.h:237:       if (__b < __a)
	.loc 10 237 7 view .LVU1225
	vminss	xmm0, xmm0, xmm2	# _1262, _1262, tmp1719
.LBE3265:
.LBE3264:
.LBE3268:
# src/opt17_ilp_only.cpp:175:                     outp[x*3 + 2] = (unsigned char)std::clamp(vp[x*3 + 2] * inv_c + 0.5f, 0.0f, 255.0f);
	.loc 1 175 37 discriminator 1 view .LVU1226
	vcvttss2si	r9d, xmm0	# prephitmp_1259, _1262
.L62:
.LBB3269:
.LBB3266:
.LBI3264:
	.loc 10 232 5 is_stmt 1 view .LVU1227
.LBE3266:
.LBE3269:
# src/opt17_ilp_only.cpp:175:                     outp[x*3 + 2] = (unsigned char)std::clamp(vp[x*3 + 2] * inv_c + 0.5f, 0.0f, 255.0f);
	.loc 1 175 35 is_stmt 0 discriminator 1 view .LVU1228
	mov	BYTE PTR 2[rsi+rax], r9b	# *_1258, prephitmp_1259
.LVL199:
.L55:
	.loc 1 175 35 discriminator 1 view .LVU1229
.LBE3276:
	.loc 1 169 17 is_stmt 1 discriminator 1 view .LVU1230
	.loc 1 169 35 discriminator 2 view .LVU1231
	add	edx, 3	# ivtmp.499,
	add	rcx, 4	# ivtmp.497,
.LVL200:
	.loc 1 169 35 is_stmt 0 discriminator 2 view .LVU1232
	cmp	edx, r8d	# ivtmp.499, _267
	jne	.L65	#,
.LBE3285:
.LBE3289:
# src/opt17_ilp_only.cpp:165:             for (int y = ty; y < tile_y_end; ++y) {
	.loc 1 165 13 discriminator 1 view .LVU1233
	mov	r9, QWORD PTR 280[rsp]	# ivtmp.507, %sfp
	.loc 1 165 13 is_stmt 1 discriminator 1 view .LVU1234
	inc	r11d	# y
.LVL201:
	.loc 1 165 32 discriminator 2 view .LVU1235
	add	rdi, r13	# ivtmp.508, tmp1665
	add	r9, r10	# ivtmp.507, _370
	cmp	r15d, r11d	# _385, y
	jne	.L66	#,
.LVL202:
.L54:
	.loc 1 165 32 is_stmt 0 discriminator 2 view .LVU1236
.LBE3322:
.LBE3325:
	.loc 1 89 29 is_stmt 1 discriminator 2 view .LVU1237
	add	r12, 2032	# ivtmp.562,
	cmp	DWORD PTR 84[rsp], r12d	# %sfp, ivtmp.562
	jg	.L67	#,
.LBE3334:
.LBE2885:
# src/opt17_ilp_only.cpp:85:     for (int ty = 0; ty < h; ty += TILE_H) {
	.loc 1 85 25 is_stmt 0 discriminator 2 view .LVU1238
	add	QWORD PTR 88[rsp], 8	# %sfp,
	mov	rcx, QWORD PTR 32[rsp]	# ivtmp.569, %sfp
	mov	r12, QWORD PTR 8[rsp]	# _499, %sfp
.LVL203:
	.loc 1 85 25 is_stmt 1 discriminator 2 view .LVU1239
	mov	r14d, DWORD PTR 24[rsp]	# _2, %sfp
	add	rcx, r12	# ivtmp.569, _499
	cmp	r14d, DWORD PTR 88[rsp]	# _2, %sfp
	jg	.L68	#,
	mov	r12, QWORD PTR 16[rsp]	# _4, %sfp
	vzeroupper
.LVL204:
.L35:
	.loc 1 85 25 is_stmt 0 discriminator 2 view .LVU1240
.LBE2884:
	.loc 1 181 5 is_stmt 1 view .LVU1241
.LBB3339:
.LBI3339:
	.loc 2 790 7 view .LVU1242
.LBB3340:
.LBI3340:
	.loc 2 307 7 view .LVU1243
	.loc 2 307 7 is_stmt 0 view .LVU1244
.LBE3340:
.LBB3341:
.LBI3341:
	.loc 8 1082 5 is_stmt 1 view .LVU1245
	.loc 8 1082 5 is_stmt 0 view .LVU1246
.LBE3341:
.LBB3342:
.LBI3342:
	.loc 2 373 7 is_stmt 1 view .LVU1247
.LBB3343:
.LBB3344:
.LBI3344:
	.loc 2 394 7 view .LVU1248
.LBB3345:
.LBB3346:
.LBI3346:
	.loc 8 688 7 view .LVU1249
.LBB3347:
.LBI3347:
	.loc 6 167 7 view .LVU1250
.LBB3348:
# /usr/include/c++/16/bits/new_allocator.h:183: 	_GLIBCXX_OPERATOR_DELETE(_GLIBCXX_SIZED_DEALLOC(__p, __n));
	.loc 6 183 59 is_stmt 0 view .LVU1251
	mov	rdi, QWORD PTR 248[rsp]	#, %sfp
	mov	esi, 195072	#,
	call	"_ZdlPvm"@PLT	#
.LVL205:
	.loc 6 183 59 view .LVU1252
.LBE3348:
.LBE3347:
.LBE3346:
.LBE3345:
.LBE3344:
.LBE3343:
.LBB3349:
.LBI3349:
	.loc 2 139 14 is_stmt 1 view .LVU1253
.LBB3350:
.LBI3350:
	.loc 5 189 7 view .LVU1254
.LBB3351:
.LBI3351:
	.loc 6 104 7 view .LVU1255
	.loc 6 104 7 is_stmt 0 view .LVU1256
.LBE3351:
.LBE3350:
.LBE3349:
.LBE3342:
.LBE3339:
.LBB3352:
.LBI3352:
	.loc 2 790 7 is_stmt 1 view .LVU1257
.LBB3353:
.LBI3353:
	.loc 2 307 7 view .LVU1258
	.loc 2 307 7 is_stmt 0 view .LVU1259
.LBE3353:
.LBB3354:
.LBI3354:
	.loc 8 1082 5 is_stmt 1 view .LVU1260
	.loc 8 1082 5 is_stmt 0 view .LVU1261
.LBE3354:
.LBB3355:
.LBI3355:
	.loc 2 373 7 is_stmt 1 view .LVU1262
.LBB3356:
.LBB3357:
.LBI3357:
	.loc 2 394 7 view .LVU1263
.LBB3358:
# /usr/include/c++/16/bits/stl_vector.h:397: 	if (__p)
	.loc 2 397 2 is_stmt 0 view .LVU1264
	mov	rax, QWORD PTR 72[rsp]	# _530, %sfp
	test	rax, rax	# _530
	je	.L69	#,
.LVL206:
.LBB3359:
.LBI3359:
	.loc 8 688 7 is_stmt 1 view .LVU1265
.LBB3360:
.LBI3360:
	.loc 6 167 7 view .LVU1266
.LBB3361:
# /usr/include/c++/16/bits/new_allocator.h:183: 	_GLIBCXX_OPERATOR_DELETE(_GLIBCXX_SIZED_DEALLOC(__p, __n));
	.loc 6 183 59 is_stmt 0 view .LVU1267
	mov	rsi, r12	#, _4
	mov	rdi, rax	#, _530
	call	"_ZdlPvm"@PLT	#
.LVL207:
.L69:
	.loc 6 183 59 view .LVU1268
.LBE3361:
.LBE3360:
.LBE3359:
.LBE3358:
.LBE3357:
.LBE3356:
.LBB3362:
.LBI3362:
	.loc 2 139 14 is_stmt 1 view .LVU1269
.LBB3363:
.LBI3363:
	.loc 5 189 7 view .LVU1270
.LBB3364:
.LBI3364:
	.loc 6 104 7 view .LVU1271
	.loc 6 104 7 is_stmt 0 view .LVU1272
.LBE3364:
.LBE3363:
.LBE3362:
.LBE3355:
.LBE3352:
.LBB3365:
.LBI2637:
	.loc 2 790 7 is_stmt 1 view .LVU1273
.LBB2651:
.LBI2651:
	.loc 2 307 7 view .LVU1274
	.loc 2 307 7 is_stmt 0 view .LVU1275
.LBE2651:
.LBB2652:
.LBI2652:
	.loc 8 1082 5 is_stmt 1 view .LVU1276
	.loc 8 1082 5 is_stmt 0 view .LVU1277
.LBE2652:
.LBB2653:
.LBI2638:
	.loc 2 373 7 is_stmt 1 view .LVU1278
.LBB2647:
.LBB2640:
.LBI2640:
	.loc 2 394 7 view .LVU1279
.LBB2641:
# /usr/include/c++/16/bits/stl_vector.h:397: 	if (__p)
	.loc 2 397 2 is_stmt 0 view .LVU1280
	mov	rax, QWORD PTR 112[rsp]	# __new_finish, %sfp
	test	rax, rax	# __new_finish
	je	.L1	#,
.LVL208:
.LBB2642:
.LBI2642:
	.loc 2 394 7 is_stmt 1 view .LVU1281
.LBB2643:
.LBB2644:
.LBI2644:
	.loc 8 688 7 view .LVU1282
.LBB2645:
.LBI2645:
	.loc 6 167 7 view .LVU1283
.LBB2646:
# /usr/include/c++/16/bits/new_allocator.h:183: 	_GLIBCXX_OPERATOR_DELETE(_GLIBCXX_SIZED_DEALLOC(__p, __n));
	.loc 6 183 59 is_stmt 0 view .LVU1284
	mov	rsi, QWORD PTR 40[rsp]	#, %sfp
	mov	rdi, rax	#, __new_finish
	call	"_ZdlPvm"@PLT	#
.LVL209:
	.loc 6 183 59 view .LVU1285
.LBE2646:
.LBE2645:
.LBE2644:
.LBE2643:
.LBE2642:
.LBE2641:
.LBE2640:
.LBE2647:
.LBB2648:
.LBI2648:
	.loc 2 139 14 is_stmt 1 view .LVU1286
.LBB2649:
.LBI2649:
	.loc 5 189 7 view .LVU1287
.LBB2650:
.LBI2650:
	.loc 6 104 7 view .LVU1288
.L1:
	.loc 6 104 7 is_stmt 0 view .LVU1289
.LBE2650:
.LBE2649:
.LBE2648:
.LBE2653:
.LBE3365:
# src/opt17_ilp_only.cpp:182: }
	.loc 1 182 1 view .LVU1290
	mov	rax, QWORD PTR 64[rsp]	#, %sfp
	lea	rsp, -40[rbp]	#,
.LVL210:
	.loc 1 182 1 view .LVU1291
	pop	rbx	#
	pop	r12	#
.LVL211:
	.loc 1 182 1 view .LVU1292
	pop	r13	#
	pop	r14	#
	pop	r15	#
	pop	rbp	#
	.cfi_remember_state
	.cfi_def_cfa 7, 8
.LVL212:
	.loc 1 182 1 view .LVU1293
	ret	
.LVL213:
	.p2align 4,,10
	.p2align 3
.L46:
	.cfi_restore_state
.LBB3366:
.LBB3337:
.LBB3335:
.LBB3326:
.LBB3323:
.LBB3224:
.LBB3219:
.LBB3170:
.LBB3154:
# src/opt17_ilp_only.cpp:157:                     for (int k = 0; k < x_floats - xf; ++k) {
	.loc 1 157 30 view .LVU1294
	mov	rsi, QWORD PTR 224[rsp]	# _1206, %sfp
	lea	r8, [r15+r10*4]	# _843,
	xor	eax, eax	# ivtmp.510
	.p2align 4,,10
	.p2align 3
.L51:
.LVL214:
.LBB3152:
	.loc 1 158 25 is_stmt 1 view .LVU1295
	.loc 1 159 25 view .LVU1296
	.loc 1 160 25 view .LVU1297
# src/opt17_ilp_only.cpp:158:                         float s0l = p.SUB[rb0+xf+k], s0r = p.SUB[rb0+xf+k+3];
	.loc 1 158 31 is_stmt 0 discriminator 65536 view .LVU1298
	movzx	r9d, BYTE PTR [rsi+rax]	# MEM[(const unsigned char *)_1206 + ivtmp.510_879 * 1], MEM[(const unsigned char *)_1206 + ivtmp.510_879 * 1]
	vcvtusi2ss	xmm5, xmm4, r9d	# tmp1790, tmp1761, MEM[(const unsigned char *)_1206 + ivtmp.510_879 * 1]
# src/opt17_ilp_only.cpp:158:                         float s0l = p.SUB[rb0+xf+k], s0r = p.SUB[rb0+xf+k+3];
	.loc 1 158 54 discriminator 65536 view .LVU1299
	movzx	r9d, BYTE PTR 3[rsi+rax]	# MEM[(const unsigned char *)_1206 + 3B + ivtmp.510_879 * 1], MEM[(const unsigned char *)_1206 + 3B + ivtmp.510_879 * 1]
	vmovaps	xmm7, xmm5	# s0l_1164, s0l_1164
	vcvtusi2ss	xmm5, xmm4, r9d	# tmp1791, tmp1761, MEM[(const unsigned char *)_1206 + 3B + ivtmp.510_879 * 1]
# src/opt17_ilp_only.cpp:159:                         float s1l = p.SUB[rb1+xf+k], s1r = p.SUB[rb1+xf+k+3];
	.loc 1 159 31 discriminator 65536 view .LVU1300
	movzx	r9d, BYTE PTR [rdx+rax]	# MEM[(const unsigned char *)_1174 + ivtmp.510_879 * 1], MEM[(const unsigned char *)_1174 + ivtmp.510_879 * 1]
	vfmadd213ss	xmm7, xmm19, DWORD PTR [r8+rax*4]	# s0l_1164, _83, MEM[(float *)_843 + ivtmp.510_879 * 4]
	vcvtusi2ss	xmm6, xmm4, r9d	# tmp1792, tmp1761, MEM[(const unsigned char *)_1174 + ivtmp.510_879 * 1]
# src/opt17_ilp_only.cpp:159:                         float s1l = p.SUB[rb1+xf+k], s1r = p.SUB[rb1+xf+k+3];
	.loc 1 159 54 discriminator 65536 view .LVU1301
	movzx	r9d, BYTE PTR 3[rdx+rax]	# MEM[(const unsigned char *)_1174 + 3B + ivtmp.510_879 * 1], MEM[(const unsigned char *)_1174 + 3B + ivtmp.510_879 * 1]
# src/opt17_ilp_only.cpp:160:                         vp[xf+k] += p.A*s0l + p.B*s0r + p.C*s1l + p.D*s1r;
	.loc 1 160 60 discriminator 65536 view .LVU1302
	vmulss	xmm6, xmm6, xmm17	# _1143, s1l_1156, _85
	vfmadd231ss	xmm6, xmm18, xmm5	# _111, _84, s0r_1160
# src/opt17_ilp_only.cpp:159:                         float s1l = p.SUB[rb1+xf+k], s1r = p.SUB[rb1+xf+k+3];
	.loc 1 159 54 discriminator 65536 view .LVU1303
	vcvtusi2ss	xmm5, xmm4, r9d	# tmp1793, tmp1761, MEM[(const unsigned char *)_1174 + 3B + ivtmp.510_879 * 1]
# src/opt17_ilp_only.cpp:160:                         vp[xf+k] += p.A*s0l + p.B*s0r + p.C*s1l + p.D*s1r;
	.loc 1 160 34 discriminator 65536 view .LVU1304
	vfmadd132ss	xmm5, xmm7, xmm16	# tmp1658, _110, _86
	vaddss	xmm5, xmm5, xmm6	# _1139, tmp1658, _111
	vmovss	DWORD PTR [r8+rax*4], xmm5	# MEM[(float *)_843 + ivtmp.510_879 * 4], _1139
.LBE3152:
	.loc 1 157 21 is_stmt 1 discriminator 1 view .LVU1305
.LVL215:
	.loc 1 157 39 discriminator 2 view .LVU1306
# src/opt17_ilp_only.cpp:157:                     for (int k = 0; k < x_floats - xf; ++k) {
	.loc 1 157 39 is_stmt 0 discriminator 65538 view .LVU1307
	inc	rax	# ivtmp.510
.LVL216:
	.loc 1 157 39 discriminator 65538 view .LVU1308
	cmp	edi, eax	# _262, ivtmp.510
	jg	.L51	#,
	jmp	.L45	#
.LVL217:
	.p2align 4,,10
	.p2align 3
.L39:
	.loc 1 157 39 discriminator 65538 view .LVU1309
.LBE3154:
	.loc 1 143 21 is_stmt 1 view .LVU1310
.LBB3155:
	mov	edi, DWORD PTR 272[rsp]	# x_floats_304, %sfp
	cmp	edi, 7	# x_floats_304,
	jg	.L86	#,
.LBE3155:
# src/opt17_ilp_only.cpp:118:                     int xf = 0;
	.loc 1 118 25 is_stmt 0 view .LVU1311
	mov	DWORD PTR 256[rsp], 0	# %sfp,
.LBB3156:
# src/opt17_ilp_only.cpp:143:                     if (xf + 8 <= x_floats) {
	.loc 1 143 21 view .LVU1312
	mov	r9, r14	# _1378, ivtmp.548
	mov	r8, rcx	# _1376, ivtmp.547
	xor	r10d, r10d	# _1223
	jmp	.L43	#
.LVL218:
.L88:
	.loc 1 143 21 view .LVU1313
.LBE3156:
# src/opt17_ilp_only.cpp:118:                     int xf = 0;
	.loc 1 118 25 view .LVU1314
	xor	r10d, r10d	# niters_vector_mult_vf.357
	mov	edx, edi	# niters.395, _262
.LBB3157:
# src/opt17_ilp_only.cpp:157:                     for (int k = 0; k < x_floats - xf; ++k) {
	.loc 1 157 30 view .LVU1315
	xor	eax, eax	# tmp.358
	sub	edx, r10d	# niters.395, niters_vector_mult_vf.357
	lea	esi, -1[rdx]	# _917,
	cmp	esi, 14	# _917,
	ja	.L169	#,
.L89:
	xor	esi, esi	# niters_vector_mult_vf.397
	jmp	.L49	#
.LVL219:
.L86:
	.loc 1 157 30 view .LVU1316
.LBE3157:
.LBB3158:
# src/opt17_ilp_only.cpp:143:                     if (xf + 8 <= x_floats) {
	.loc 1 143 21 view .LVU1317
	mov	DWORD PTR 256[rsp], 8	# %sfp,
	mov	rax, r15	# _1351, ivtmp.546
	mov	rdx, r14	# _1347, ivtmp.548
	mov	rsi, rcx	# _1345, ivtmp.547
	jmp	.L42	#
.LVL220:
.L168:
	.loc 1 143 21 view .LVU1318
.LBE3158:
.LBE3170:
.LBE3219:
.LBE3224:
.LBE3323:
.LBE3326:
.LBE3335:
.LBE3337:
.LBE3366:
.LBB3367:
.LBB2815:
.LBB2761:
.LBB2759:
.LBB2757:
.LBB2755:
.LBB2753:
.LBB2751:
.LBB2749:
	.loc 12 118 7 is_stmt 1 view .LVU1319
	.loc 12 118 7 is_stmt 0 view .LVU1320
.LBE2749:
.LBE2751:
.LBE2753:
.LBE2755:
.LBE2757:
.LBE2759:
.LBE2761:
.LBE2815:
.LBB2816:
	.loc 5 189 7 is_stmt 1 view .LVU1321
.LBB2787:
	.loc 6 104 7 view .LVU1322
	.loc 6 104 7 is_stmt 0 view .LVU1323
.LBE2787:
.LBE2816:
	.loc 1 65 9 is_stmt 1 view .LVU1324
.LBB2817:
.LBB2782:
	.loc 2 988 7 view .LVU1325
.LBB2767:
	.loc 3 1058 7 view .LVU1326
	.loc 3 1058 7 is_stmt 0 view .LVU1327
.LBE2767:
.LBE2782:
.LBB2783:
	.loc 2 1008 7 is_stmt 1 view .LVU1328
.LBB2770:
	.loc 3 1058 7 view .LVU1329
	.loc 3 1058 7 is_stmt 0 view .LVU1330
.LBE2770:
.LBE2783:
	.loc 1 65 30 is_stmt 1 discriminator 5 view .LVU1331
# src/opt17_ilp_only.cpp:65:         for (const auto& p : params) {
	.loc 1 65 30 is_stmt 0 discriminator 6 view .LVU1332
	mov	rcx, QWORD PTR 152[rsp]	# params$_M_finish, %sfp
.LBE2817:
.LBB2818:
.LBB2762:
.LBB2736:
.LBB2735:
.LBB2734:
.LBB2733:
# /usr/include/c++/16/bits/stl_vector.h:389: 	return __n != 0 ? _Tr::allocate(_M_impl, __n) : pointer();
	.loc 2 389 58 discriminator 3 view .LVU1333
	xor	edi, edi	# _376
.LBE2733:
.LBE2734:
.LBE2735:
.LBE2736:
.LBE2762:
.LBE2818:
.LBB2819:
# src/opt17_ilp_only.cpp:65:         for (const auto& p : params) {
	.loc 1 65 30 discriminator 6 view .LVU1334
	cmp	QWORD PTR 112[rsp], rcx	# %sfp, params$_M_finish
	jne	.L24	#,
.LVL221:
	.loc 1 65 30 discriminator 6 view .LVU1335
.LBE2819:
.LBB2820:
	.loc 1 71 27 is_stmt 1 discriminator 2 view .LVU1336
	test	r14d, r14d	# _2
	jle	.L25	#,
	mov	esi, DWORD PTR 84[rsp]	#, %sfp
	test	esi, esi	#
	jg	.L26	#,
	jmp	.L25	#
.LVL222:
	.p2align 4,,10
	.p2align 3
.L167:
	.loc 1 71 27 is_stmt 0 discriminator 2 view .LVU1337
.LBE2820:
.LBE3367:
.LBB3368:
.LBB2493:
.LBB2487:
.LBB2480:
.LBB2475:
# /usr/include/c++/16/bits/stl_vector.h:106: 	: _M_start(), _M_finish(), _M_end_of_storage()
	.loc 2 106 4 view .LVU1338
	mov	QWORD PTR 112[rsp], 0	# %sfp,
.LBE2475:
.LBE2480:
.LBE2487:
.LBE2493:
.LBE3368:
# src/opt17_ilp_only.cpp:32:     const int h = static_cast<int>(height);
	.loc 1 32 15 view .LVU1339
	mov	r14d, edx	# _2, _954
.LVL223:
	.loc 1 41 5 is_stmt 1 view .LVU1340
.LBB3369:
.LBB2630:
	.loc 2 988 7 view .LVU1341
.LBB2518:
	.loc 3 1058 7 view .LVU1342
	.loc 3 1058 7 is_stmt 0 view .LVU1343
.LBE2518:
.LBE2630:
.LBB2631:
	.loc 2 1008 7 is_stmt 1 view .LVU1344
.LBB2521:
	.loc 3 1058 7 view .LVU1345
	.loc 3 1058 7 is_stmt 0 view .LVU1346
.LBE2521:
.LBE2631:
	.loc 1 41 22 is_stmt 1 discriminator 5 view .LVU1347
.LBE3369:
.LBB3370:
.LBB2494:
.LBB2488:
.LBB2481:
.LBB2476:
# /usr/include/c++/16/bits/stl_vector.h:106: 	: _M_start(), _M_finish(), _M_end_of_storage()
	.loc 2 106 29 is_stmt 0 view .LVU1348
	xor	r13d, r13d	# params$_M_end_of_storage
.LBE2476:
.LBE2481:
.LBE2488:
.LBE2494:
.LBE3370:
# src/opt17_ilp_only.cpp:31:     const int w = static_cast<int>(width);
	.loc 1 31 15 view .LVU1349
	vmovd	DWORD PTR 84[rsp], xmm0	# %sfp, tmp1956
.LBB3371:
# src/opt17_ilp_only.cpp:41:     for (auto& sub : subapertures) {
	.loc 1 41 22 discriminator 6 view .LVU1350
	cmp	rbx, rcx	# SR.301, _174
	jne	.L5	#,
.LBE3371:
.LBB3372:
.LBB2495:
.LBB2489:
.LBB2482:
.LBB2477:
# /usr/include/c++/16/bits/stl_vector.h:106: 	: _M_start(), _M_finish(), _M_end_of_storage()
	.loc 2 106 4 view .LVU1351
	mov	QWORD PTR 152[rsp], 0	# %sfp,
.LVL224:
.L83:
	.loc 2 106 4 view .LVU1352
.LBE2477:
.LBE2482:
.LBE2489:
.LBE2495:
.LBE3372:
.LBB3373:
.LBB2706:
.LBB2686:
.LBB2684:
.LBB2682:
.LBB2680:
# /usr/include/c++/16/bits/stl_vector.h:389: 	return __n != 0 ? _Tr::allocate(_M_impl, __n) : pointer();
	.loc 2 389 58 discriminator 3 view .LVU1353
	mov	QWORD PTR 72[rsp], 0	# %sfp,
	jmp	.L18	#
.LVL225:
.L13:
	.loc 2 389 58 discriminator 3 view .LVU1354
.LBE2680:
.LBE2682:
.LBE2684:
.LBE2686:
.LBE2706:
.LBE3373:
.LBB3374:
.LBB2632:
.LBB2626:
.LBB2622:
.LBB2547:
.LBI2547:
	.loc 7 565 7 is_stmt 1 view .LVU1355
.LBB2548:
.LBB2549:
.LBI2549:
	.loc 2 2192 7 view .LVU1356
.LBB2550:
.LBB2551:
.LBI2551:
	.loc 2 1107 7 view .LVU1357
.LBB2552:
# /usr/include/c++/16/bits/stl_vector.h:1109: 	ptrdiff_t __dif = this->_M_impl._M_finish - this->_M_impl._M_start;
	.loc 2 1109 44 is_stmt 0 view .LVU1358
	mov	rax, r13	# _634, params$_M_end_of_storage
	sub	rax, r15	# _634, params$_M_start
	mov	QWORD PTR 272[rsp], rax	# %sfp, _634
.LVL226:
# /usr/include/c++/16/bits/stl_vector.h:1109: 	ptrdiff_t __dif = this->_M_impl._M_finish - this->_M_impl._M_start;
	.loc 2 1109 12 view .LVU1359
	sar	rax, 4	# tmp980,
.LVL227:
	.loc 2 1109 12 view .LVU1360
	mov	rdx, rax	# tmp980, tmp980
	movabs	rax, -6148914691236517205	# tmp982,
	imul	rdx, rax	# __dif_635, tmp982
.LVL228:
	.loc 2 1109 12 view .LVU1361
.LBE2552:
.LBE2551:
# /usr/include/c++/16/bits/stl_vector.h:2194: 	if (max_size() - size() < __n)
	.loc 2 2194 2 discriminator 2 view .LVU1362
	movabs	rax, 192153584101141162	# tmp983,
	cmp	rdx, rax	# __dif_635, tmp983
	je	.L157	#,
.LBB2553:
.LBB2554:
# /usr/include/c++/16/bits/stl_algobase.h:261:       if (__a < __b)
	.loc 10 261 7 view .LVU1363
	test	rdx, rdx	# __dif_635
	mov	eax, 1	# tmp1813,
	mov	DWORD PTR 160[rsp], r11d	# %sfp, _277
	cmovne	rax, rdx	# __dif_635,, _637
	mov	DWORD PTR 168[rsp], ecx	# %sfp, _276
	mov	DWORD PTR 176[rsp], r9d	# %sfp, _21
.LBE2554:
.LBE2553:
# /usr/include/c++/16/bits/stl_vector.h:2197: 	const size_type __len = size() + (std::max)(size(), __n);
	.loc 2 2197 18 discriminator 3 view .LVU1364
	add	rax, rdx	# __len_638, __dif_635
# /usr/include/c++/16/bits/stl_vector.h:2198: 	return (__len < size() || __len > max_size()) ? max_size() : __len;
	.loc 2 2198 25 discriminator 3 view .LVU1365
	movabs	rdx, 192153584101141162	# tmp1814,
	mov	DWORD PTR 184[rsp], r8d	# %sfp, _16
	cmp	rax, rdx	# __len_638, tmp1814
	mov	DWORD PTR 216[rsp], esi	# %sfp, _9
	cmova	rax, rdx	# __len_638,, __len_638, tmp1814
	mov	DWORD PTR 220[rsp], r10d	# %sfp, _8
.LVL229:
.LBB2555:
.LBI2553:
	.loc 10 256 5 is_stmt 1 view .LVU1366
	.loc 10 256 5 is_stmt 0 view .LVU1367
.LBE2555:
.LBE2550:
.LBE2549:
.LBB2557:
.LBI2557:
	.loc 2 386 7 is_stmt 1 view .LVU1368
.LBB2558:
.LBB2559:
.LBI2559:
	.loc 8 637 7 view .LVU1369
.LBB2560:
.LBI2560:
	.loc 6 129 7 view .LVU1370
	.loc 6 129 7 is_stmt 0 view .LVU1371
	vmovss	DWORD PTR 188[rsp], xmm3	# %sfp, _15
.LBB2561:
# /usr/include/c++/16/bits/new_allocator.h:162: 	  return static_cast<_Tp*>(_GLIBCXX_OPERATOR_NEW(__n * sizeof(_Tp)));
	.loc 6 162 68 view .LVU1372
	lea	rax, [rax+rax*2]	# _655,
	vmovss	DWORD PTR 192[rsp], xmm0	# %sfp, _14
	sal	rax, 4	# _655,
	vmovss	DWORD PTR 200[rsp], xmm1	# %sfp, _13
	mov	rdi, rax	#, tmp990
	mov	QWORD PTR 232[rsp], rax	# %sfp, tmp990
	vmovss	DWORD PTR 208[rsp], xmm2	# %sfp, _12
.LEHB3:
	call	"_Znwm"@PLT	#
.LVL230:
.LEHE3:
	.loc 6 162 68 view .LVU1373
.LBE2561:
.LBE2560:
.LBE2559:
.LBE2558:
.LBE2557:
.LBB2570:
# /usr/include/c++/16/bits/vector.tcc:594: 	_Alloc_traits::construct(this->_M_impl,
	.loc 7 594 26 view .LVU1374
	mov	rdx, QWORD PTR 272[rsp]	# _634, %sfp
.LBB2571:
.LBB2572:
.LBB2573:
# /usr/include/c++/16/bits/new_allocator.h:203: 	{ ::new((void *)__p) _Up(std::forward<_Args>(__args)...); }
	.loc 6 203 4 discriminator 1 view .LVU1375
	mov	ecx, DWORD PTR 168[rsp]	# _276, %sfp
.LBE2573:
.LBE2572:
.LBE2571:
.LBE2570:
.LBB2614:
.LBB2568:
.LBB2566:
.LBB2564:
.LBB2562:
# /usr/include/c++/16/bits/new_allocator.h:162: 	  return static_cast<_Tp*>(_GLIBCXX_OPERATOR_NEW(__n * sizeof(_Tp)));
	.loc 6 162 68 view .LVU1376
	mov	QWORD PTR 248[rsp], rax	# %sfp, _656
.LVL231:
	.loc 6 162 68 view .LVU1377
.LBE2562:
.LBE2564:
.LBE2566:
.LBE2568:
.LBE2614:
.LBB2615:
.LBB2579:
.LBI2579:
	.loc 2 1865 2 is_stmt 1 view .LVU1378
	.loc 2 1865 2 is_stmt 0 view .LVU1379
.LBE2579:
.LBB2580:
.LBI2571:
	.loc 8 705 2 is_stmt 1 view .LVU1380
.LBB2576:
.LBI2572:
	.loc 6 201 2 view .LVU1381
.LBE2576:
.LBE2580:
.LBE2615:
.LBB2616:
.LBB2569:
.LBB2567:
.LBB2565:
.LBB2563:
# /usr/include/c++/16/bits/new_allocator.h:162: 	  return static_cast<_Tp*>(_GLIBCXX_OPERATOR_NEW(__n * sizeof(_Tp)));
	.loc 6 162 68 is_stmt 0 view .LVU1382
	mov	rdi, rax	# _656,
.LBE2563:
.LBE2565:
.LBE2567:
.LBE2569:
.LBE2616:
.LBB2617:
.LBB2581:
.LBB2577:
.LBB2574:
# /usr/include/c++/16/bits/new_allocator.h:203: 	{ ::new((void *)__p) _Up(std::forward<_Args>(__args)...); }
	.loc 6 203 4 discriminator 1 view .LVU1383
	vmovss	xmm0, DWORD PTR 192[rsp]	# _14, %sfp
	vmovss	xmm2, DWORD PTR 208[rsp]	# _12, %sfp
	mov	r10d, DWORD PTR 220[rsp]	# _8, %sfp
	mov	esi, DWORD PTR 216[rsp]	# _9, %sfp
	mov	DWORD PTR 28[rax+rdx], ecx	# _643->x_end, _276
	vinsertps	xmm0, xmm0, DWORD PTR 188[rsp], 0x10	# tmp993, _14, %sfp
	vinsertps	xmm2, xmm2, DWORD PTR 200[rsp], 0x10	# tmp994, _12, %sfp
	mov	r8d, DWORD PTR 184[rsp]	# _16, %sfp
	mov	r9d, DWORD PTR 176[rsp]	# _21, %sfp
	mov	DWORD PTR [rax+rdx], r10d	# _643->sx, _8
	mov	r11d, DWORD PTR 160[rsp]	# _277, %sfp
	mov	rcx, QWORD PTR 240[rsp]	# _352, %sfp
	vmovlhps	xmm2, xmm2, xmm0	# _1218, tmp994, tmp993
	mov	DWORD PTR 4[rax+rdx], esi	# _643->sy, _9
	mov	DWORD PTR 24[rax+rdx], r8d	# _643->x_begin, _16
	mov	DWORD PTR 32[rax+rdx], r9d	# _643->y_begin, _21
	mov	DWORD PTR 36[rax+rdx], r11d	# _643->y_end, _277
	mov	QWORD PTR 40[rax+rdx], rcx	# MEM <const unsigned char *> [(struct SubParams *)_643 + 40B], _352
.LVL232:
	.loc 6 203 4 discriminator 1 view .LVU1384
.LBE2574:
.LBE2577:
.LBE2581:
.LBB2582:
.LBI2582:
	.loc 12 1404 5 is_stmt 1 view .LVU1385
.LBB2583:
.LBI2583:
	.loc 12 1377 5 view .LVU1386
	.loc 12 1377 5 is_stmt 0 view .LVU1387
.LBE2583:
.LBE2582:
.LBB2586:
.LBB2578:
.LBB2575:
# /usr/include/c++/16/bits/new_allocator.h:203: 	{ ::new((void *)__p) _Up(std::forward<_Args>(__args)...); }
	.loc 6 203 4 discriminator 1 view .LVU1388
	vmovups	XMMWORD PTR 8[rax+rdx], xmm2	# MEM <vector(4) float> [(float *)_643 + 8B], _1218
.LBE2575:
.LBE2578:
.LBE2586:
.LBB2587:
.LBB2585:
.LBB2584:
# /usr/include/c++/16/bits/stl_uninitialized.h:1382:       if (__count > 0)
	.loc 12 1382 7 view .LVU1389
	test	rdx, rdx	# _634
	je	.L15	#,
# /usr/include/c++/16/bits/stl_uninitialized.h:1394: 	  __builtin_memcpy(__result, __first, __count * sizeof(_Tp));
	.loc 12 1394 20 view .LVU1390
	mov	rsi, r15	#, params$_M_start
	call	"memcpy"@PLT	#
.LVL233:
.L15:
	.loc 12 1394 20 view .LVU1391
.LBE2584:
.LBE2585:
.LBE2587:
# /usr/include/c++/16/bits/vector.tcc:610: 	    ++__new_finish;
	.loc 7 610 6 view .LVU1392
	mov	rax, QWORD PTR 248[rsp]	# _656, %sfp
	mov	rcx, QWORD PTR 272[rsp]	# _634, %sfp
	lea	rax, 48[rax+rcx]	# __new_finish,
.LVL234:
	.loc 7 610 6 view .LVU1393
	mov	QWORD PTR 112[rsp], rax	# %sfp, __new_finish
.LVL235:
.LBB2588:
.LBI2588:
	.loc 2 1870 2 is_stmt 1 view .LVU1394
.LBB2589:
# /usr/include/c++/16/bits/stl_vector.h:1872: 	  if (_M_storage)
	.loc 2 1872 4 is_stmt 0 view .LVU1395
	test	r15, r15	# params$_M_start
	je	.L16	#,
.LVL236:
.LBB2590:
.LBI2590:
	.loc 2 394 7 is_stmt 1 view .LVU1396
.LBB2591:
.LBB2592:
.LBI2592:
	.loc 2 394 7 view .LVU1397
.LBB2593:
.LBB2594:
.LBI2594:
	.loc 8 688 7 view .LVU1398
.LBB2595:
.LBI2595:
	.loc 6 167 7 view .LVU1399
.LBE2595:
.LBE2594:
.LBE2593:
.LBE2592:
.LBE2591:
.LBE2590:
.LBE2589:
.LBE2588:
# /usr/include/c++/16/bits/vector.tcc:648: 	__guard._M_len = this->_M_impl._M_end_of_storage - __old_start;
	.loc 7 648 51 is_stmt 0 view .LVU1400
	mov	rsi, r13	# params$_M_end_of_storage, params$_M_end_of_storage
.LBB2612:
.LBB2610:
.LBB2608:
.LBB2606:
.LBB2604:
.LBB2602:
.LBB2600:
.LBB2598:
.LBB2596:
# /usr/include/c++/16/bits/new_allocator.h:183: 	_GLIBCXX_OPERATOR_DELETE(_GLIBCXX_SIZED_DEALLOC(__p, __n));
	.loc 6 183 59 view .LVU1401
	mov	rdi, r15	#, params$_M_start
.LBE2596:
.LBE2598:
.LBE2600:
.LBE2602:
.LBE2604:
.LBE2606:
.LBE2608:
.LBE2610:
.LBE2612:
# /usr/include/c++/16/bits/vector.tcc:648: 	__guard._M_len = this->_M_impl._M_end_of_storage - __old_start;
	.loc 7 648 51 view .LVU1402
	sub	rsi, r15	# params$_M_end_of_storage, params$_M_start
.LBB2613:
.LBB2611:
.LBB2609:
.LBB2607:
.LBB2605:
.LBB2603:
.LBB2601:
.LBB2599:
.LBB2597:
# /usr/include/c++/16/bits/new_allocator.h:183: 	_GLIBCXX_OPERATOR_DELETE(_GLIBCXX_SIZED_DEALLOC(__p, __n));
	.loc 6 183 59 view .LVU1403
	call	"_ZdlPvm"@PLT	#
.LVL237:
.L16:
	.loc 6 183 59 view .LVU1404
.LBE2597:
.LBE2599:
.LBE2601:
.LBE2603:
.LBE2605:
.LBE2607:
.LBE2609:
.LBE2611:
.LBE2613:
.LBE2617:
# /usr/include/c++/16/bits/vector.tcc:655:       this->_M_impl._M_end_of_storage = __new_start + __len;
	.loc 7 655 53 view .LVU1405
	mov	r13, QWORD PTR 232[rsp]	# tmp990, %sfp
	mov	r15, QWORD PTR 248[rsp]	# _656, %sfp
.LVL238:
	.loc 7 655 53 view .LVU1406
	add	r13, r15	# tmp990, _656
.LVL239:
	.loc 7 655 53 view .LVU1407
	jmp	.L12	#
.LVL240:
.L2:
	.loc 7 655 53 view .LVU1408
.LBE2548:
.LBE2547:
.LBE2622:
.LBE2626:
.LBE2632:
.LBE3374:
# src/opt17_ilp_only.cpp:37:     output.data.assign(width * height * 3, 0);
	.loc 1 37 23 view .LVU1409
	lea	r14, [r12+r12*2]	# _5,
.LVL241:
.LBB3375:
.LBB2465:
.LBB2463:
.LBB2461:
.LBB2408:
.LBB2409:
.LBI2409:
	.loc 2 589 7 is_stmt 1 view .LVU1410
.LBB2410:
.LBI2410:
	.loc 2 2203 7 view .LVU1411
.LBB2411:
.LBB2412:
.LBI2412:
	.loc 5 172 7 view .LVU1412
.LBB2413:
.LBI2413:
	.loc 6 92 7 view .LVU1413
	.loc 6 92 7 is_stmt 0 view .LVU1414
.LBE2413:
.LBE2412:
.LBB2414:
.LBI2414:
	.loc 5 189 7 is_stmt 1 view .LVU1415
.LBB2415:
.LBI2415:
	.loc 6 104 7 view .LVU1416
.LBE2415:
.LBE2414:
# /usr/include/c++/16/bits/stl_vector.h:2205: 	if (__n > _S_max_size(_Tp_alloc_type(__a)))
	.loc 2 2205 2 is_stmt 0 discriminator 3 view .LVU1417
	test	r14, r14	# _5
	js	.L156	#,
.LVL242:
	.loc 2 2205 2 discriminator 3 view .LVU1418
.LBE2411:
.LBE2410:
.LBB2417:
.LBI2417:
	.loc 2 339 7 is_stmt 1 view .LVU1419
.LBB2418:
.LBI2418:
	.loc 2 152 2 view .LVU1420
.LBB2419:
.LBI2419:
	.loc 5 172 7 view .LVU1421
.LBB2420:
.LBI2420:
	.loc 6 92 7 view .LVU1422
	.loc 6 92 7 is_stmt 0 view .LVU1423
.LBE2420:
.LBE2419:
.LBB2421:
.LBI2421:
	.loc 2 105 2 is_stmt 1 view .LVU1424
	.loc 2 105 2 is_stmt 0 view .LVU1425
.LBE2421:
.LBE2418:
.LBB2422:
.LBI2422:
	.loc 2 405 7 is_stmt 1 view .LVU1426
.LBB2423:
.LBB2424:
.LBI2424:
	.loc 2 386 7 view .LVU1427
.LBB2425:
.LBB2426:
.LBI2426:
	.loc 8 637 7 view .LVU1428
.LBB2427:
.LBI2427:
	.loc 6 129 7 view .LVU1429
.LBB2428:
# /usr/include/c++/16/bits/new_allocator.h:162: 	  return static_cast<_Tp*>(_GLIBCXX_OPERATOR_NEW(__n * sizeof(_Tp)));
	.loc 6 162 68 is_stmt 0 view .LVU1430
	mov	rdi, r14	#, _5
.LVL243:
.LEHB4:
	.loc 6 162 68 view .LVU1431
	call	"_Znwm"@PLT	#
.LVL244:
.LEHE4:
	.loc 6 162 68 view .LVU1432
.LBE2428:
.LBE2427:
.LBE2426:
.LBE2425:
.LBE2424:
.LBE2423:
.LBE2422:
.LBE2417:
.LBB2431:
.LBB2432:
.LBB2433:
.LBB2434:
.LBB2435:
.LBB2436:
# /usr/include/c++/16/bits/stl_uninitialized.h:577: 		      __builtin_memset(__dest, (unsigned char)__x, __n);
	.loc 12 577 25 view .LVU1433
	xor	esi, esi	#
	mov	rdx, r14	#, _5
.LBE2436:
.LBE2435:
.LBE2434:
.LBE2433:
.LBE2432:
.LBE2431:
.LBB2442:
.LBB2430:
.LBB2429:
# /usr/include/c++/16/bits/stl_vector.h:409: 	this->_M_impl._M_end_of_storage = this->_M_impl._M_start + __n;
	.loc 2 409 59 view .LVU1434
	lea	r15, [rax+r14]	# _749,
.LVL245:
	.loc 2 409 59 view .LVU1435
.LBE2429:
.LBE2430:
.LBE2442:
.LBB2443:
.LBI2431:
	.loc 2 1987 7 is_stmt 1 view .LVU1436
.LBB2441:
.LBI2432:
	.loc 12 771 5 view .LVU1437
.LBB2440:
.LBI2433:
	.loc 12 550 5 view .LVU1438
.LBB2439:
.LBB2438:
.LBB2437:
# /usr/include/c++/16/bits/stl_uninitialized.h:577: 		      __builtin_memset(__dest, (unsigned char)__x, __n);
	.loc 12 577 25 is_stmt 0 view .LVU1439
	mov	rdi, rax	#,
	call	"memset"@PLT	#
.LVL246:
	.loc 12 577 25 view .LVU1440
	mov	rcx, rax	# tmp1750,
.LVL247:
	.loc 12 577 25 view .LVU1441
.LBE2437:
.LBE2438:
.LBE2439:
.LBE2440:
.LBE2441:
.LBE2443:
.LBE2409:
.LBB2445:
.LBI2445:
	.loc 2 128 2 is_stmt 1 view .LVU1442
.LBB2446:
.LBB2447:
.LBI2447:
	.loc 2 105 2 view .LVU1443
	.loc 2 105 2 is_stmt 0 view .LVU1444
.LBE2447:
.LBB2448:
.LBI2448:
	.loc 2 119 2 is_stmt 1 view .LVU1445
.LBB2449:
# /usr/include/c++/16/bits/stl_vector.h:121: 	  _M_start = __x._M_start;
	.loc 2 121 13 is_stmt 0 view .LVU1446
	mov	rax, QWORD PTR 64[rsp]	# <retval>, %sfp
.LVL248:
	.loc 2 121 13 view .LVU1447
	mov	QWORD PTR 16[rax], rcx	# MEM[(struct _Vector_impl_data *)output_249(D) + 16B]._M_start, tmp1750
# /usr/include/c++/16/bits/stl_vector.h:122: 	  _M_finish = __x._M_finish;
	.loc 2 122 14 view .LVU1448
	mov	QWORD PTR 24[rax], r15	# MEM[(struct _Vector_impl_data *)output_249(D) + 16B]._M_finish, _749
# /usr/include/c++/16/bits/stl_vector.h:123: 	  _M_end_of_storage = __x._M_end_of_storage;
	.loc 2 123 22 view .LVU1449
	mov	QWORD PTR 32[rax], r15	# MEM[(struct _Vector_impl_data *)output_249(D) + 16B]._M_end_of_storage, _749
.LVL249:
	.loc 2 123 22 view .LVU1450
.LBE2449:
.LBE2448:
.LBE2446:
.LBE2445:
.LBB2450:
.LBI2450:
	.loc 2 790 7 is_stmt 1 view .LVU1451
.LBB2451:
.LBI2451:
	.loc 2 307 7 view .LVU1452
	.loc 2 307 7 is_stmt 0 view .LVU1453
.LBE2451:
.LBB2452:
.LBI2452:
	.loc 8 1082 5 is_stmt 1 view .LVU1454
	.loc 8 1082 5 is_stmt 0 view .LVU1455
.LBE2452:
.LBB2453:
.LBI2453:
	.loc 2 373 7 is_stmt 1 view .LVU1456
.LBB2454:
.LBB2455:
.LBI2455:
	.loc 2 394 7 view .LVU1457
	.loc 2 394 7 is_stmt 0 view .LVU1458
.LBE2455:
.LBE2454:
.LBB2456:
.LBI2456:
	.loc 2 139 14 is_stmt 1 view .LVU1459
.LBB2457:
.LBI2457:
	.loc 5 189 7 view .LVU1460
.LBB2458:
.LBI2458:
	.loc 6 104 7 view .LVU1461
	.loc 6 104 7 is_stmt 0 view .LVU1462
.LBE2458:
.LBE2457:
.LBE2456:
.LBE2453:
.LBE2450:
.LBE2408:
.LBE2461:
.LBE2463:
.LBE2465:
.LBE3375:
	.loc 1 39 5 is_stmt 1 view .LVU1463
.LBB3376:
	.loc 2 551 7 view .LVU1464
.LBB2496:
	.loc 2 321 7 view .LVU1465
.LBB2490:
	.loc 2 143 2 view .LVU1466
.LBB2483:
	.loc 5 168 7 view .LVU1467
.LBB2472:
	.loc 6 88 7 view .LVU1468
	.loc 6 88 7 is_stmt 0 view .LVU1469
.LBE2472:
.LBE2483:
.LBB2484:
	.loc 2 105 2 is_stmt 1 view .LVU1470
	.loc 2 105 2 is_stmt 0 view .LVU1471
.LBE2484:
.LBE2490:
.LBE2496:
.LBE3376:
	.loc 1 40 5 is_stmt 1 view .LVU1472
.LBB3377:
	.loc 2 1107 7 view .LVU1473
.LBB2501:
# /usr/include/c++/16/bits/stl_vector.h:1109: 	ptrdiff_t __dif = this->_M_impl._M_finish - this->_M_impl._M_start;
	.loc 2 1109 34 is_stmt 0 view .LVU1474
	mov	rax, QWORD PTR 8[r13]	# _174, MEM[(const struct vector *)subapertures_245(D)].D.139289._M_impl.D.138636._M_finish
.LVL250:
	.loc 2 1109 34 view .LVU1475
.LBE2501:
.LBE3377:
.LBB3378:
	.loc 7 70 5 is_stmt 1 view .LVU1476
	.loc 7 70 5 is_stmt 0 view .LVU1477
.LBE3378:
.LBB3379:
.LBB2502:
# /usr/include/c++/16/bits/stl_vector.h:1109: 	ptrdiff_t __dif = this->_M_impl._M_finish - this->_M_impl._M_start;
	.loc 2 1109 34 view .LVU1478
	mov	QWORD PTR 280[rsp], rax	# %sfp, _174
.LBE2502:
.LBE3379:
.LBB3380:
.LBB2512:
# /usr/include/c++/16/bits/vector.tcc:75:       if (this->capacity() < __n)
	.loc 7 75 7 discriminator 1 view .LVU1479
	sub	rax, rbx	# _270, SR.301
.LVL251:
	.loc 7 75 7 discriminator 1 view .LVU1480
	mov	QWORD PTR 40[rsp], rax	# %sfp, _270
	jne	.L4	#,
.LBE2512:
.LBE3380:
.LBB3381:
.LBB2497:
.LBB2491:
.LBB2485:
.LBB2478:
# /usr/include/c++/16/bits/stl_vector.h:106: 	: _M_start(), _M_finish(), _M_end_of_storage()
	.loc 2 106 4 view .LVU1481
	mov	QWORD PTR 112[rsp], 0	# %sfp,
# /usr/include/c++/16/bits/stl_vector.h:106: 	: _M_start(), _M_finish(), _M_end_of_storage()
	.loc 2 106 29 view .LVU1482
	xor	r13d, r13d	# params$_M_end_of_storage
.LVL252:
	.loc 2 106 29 view .LVU1483
	jmp	.L8	#
.LVL253:
.L27:
	.loc 2 106 29 view .LVU1484
.LBE2478:
.LBE2485:
.LBE2491:
.LBE2497:
.LBE3381:
.LBB3382:
.LBB2821:
	.loc 1 71 27 is_stmt 1 discriminator 2 view .LVU1485
	test	r14d, r14d	# _2
	jle	.L31	#,
	mov	eax, DWORD PTR 84[rsp]	#, %sfp
	test	eax, eax	#
	jg	.L26	#,
	jmp	.L31	#
.LVL254:
.L80:
	.loc 1 71 27 is_stmt 0 discriminator 2 view .LVU1486
.LBE2821:
.LBE3382:
.LBB3383:
# src/opt17_ilp_only.cpp:41:     for (auto& sub : subapertures) {
	.loc 1 41 22 discriminator 6 view .LVU1487
	mov	rax, QWORD PTR 112[rsp]	# __new_finish, %sfp
	mov	QWORD PTR 152[rsp], rax	# %sfp, __new_finish
	jmp	.L9	#
.LVL255:
.L150:
	.loc 1 41 22 discriminator 6 view .LVU1488
	jmp	.L151	#
.LVL256:
.L152:
	.loc 1 41 22 discriminator 6 view .LVU1489
	jmp	.L153	#
.LVL257:
.L93:
	.loc 1 41 22 discriminator 6 view .LVU1490
	mov	rbx, rax	# tmp1697, tmp1754
	vzeroupper
.LVL258:
	jmp	.L21	#
.LVL259:
.L154:
	.loc 1 41 22 discriminator 6 view .LVU1491
	jmp	.L155	#
.LVL260:
	.loc 1 41 22 discriminator 6 view .LVU1492
.LBE3383:
	.section	.gcc_except_table,"a",@progbits
.LLSDA11708:
	.byte	0xff
	.byte	0xff
	.byte	0x1
	.uleb128 .LLSDACSE11708-.LLSDACSB11708
.LLSDACSB11708:
	.uleb128 .LEHB0-.LFB11708
	.uleb128 .LEHE0-.LEHB0
	.uleb128 .L150-.LFB11708
	.uleb128 0
	.uleb128 .LEHB1-.LFB11708
	.uleb128 .LEHE1-.LEHB1
	.uleb128 .L93-.LFB11708
	.uleb128 0
	.uleb128 .LEHB2-.LFB11708
	.uleb128 .LEHE2-.LEHB2
	.uleb128 .L152-.LFB11708
	.uleb128 0
	.uleb128 .LEHB3-.LFB11708
	.uleb128 .LEHE3-.LEHB3
	.uleb128 .L154-.LFB11708
	.uleb128 0
	.uleb128 .LEHB4-.LFB11708
	.uleb128 .LEHE4-.LEHB4
	.uleb128 .L150-.LFB11708
	.uleb128 0
.LLSDACSE11708:
	.text
	.cfi_endproc
	.section	.text.unlikely
	.cfi_startproc
	.cfi_personality 0x9b,"DW.ref.__gxx_personality_v0"
	.cfi_lsda 0x1b,.LLSDAC11708
	.type	"_Z21refocus_shift_and_sumRSt6vectorI16SubApertureImageSaIS0_EEf.cold", @function
"_Z21refocus_shift_and_sumRSt6vectorI16SubApertureImageSaIS0_EEf.cold":
.LFSB11708:
.LBB3384:
.L158:
	.cfi_def_cfa 6, 16
	.cfi_offset 3, -56
	.cfi_offset 6, -16
	.cfi_offset 12, -48
	.cfi_offset 13, -40
	.cfi_offset 14, -32
	.cfi_offset 15, -24
.LBE3384:
.LBB3385:
.LBB2707:
.LBB2663:
# /usr/include/c++/16/bits/stl_vector.h:2206: 	  __throw_length_error(
	.loc 2 2206 24 view -0
	lea	rdi, .LC0[rip]	#,
.LEHB5:
	call	"_ZSt20__throw_length_errorPKc"@PLT	#
.LVL261:
.LEHE5:
.L91:
.LBE2663:
.LBE2707:
.LBE3385:
.LBB3386:
.LBB3387:
.LBB3388:
.LBB3389:
.LBB3390:
# /usr/include/c++/16/bits/stl_vector.h:397: 	if (__p)
	.loc 2 397 2 view .LVU1494
	mov	rbx, rax	# tmp1697, tmp1759
	vzeroupper
.LVL262:
.L21:
	.loc 2 397 2 view .LVU1495
.LBE3390:
.LBE3389:
.LBE3388:
.LBE3387:
.LBI3386:
	.loc 2 790 7 is_stmt 1 view .LVU1496
.LBB3408:
.LBI3408:
	.loc 2 307 7 view .LVU1497
	.loc 2 307 7 is_stmt 0 view .LVU1498
.LBE3408:
.LBB3409:
.LBI3409:
	.loc 8 1082 5 is_stmt 1 view .LVU1499
	.loc 8 1082 5 is_stmt 0 view .LVU1500
.LBE3409:
.LBB3410:
.LBI3387:
	.loc 2 373 7 is_stmt 1 view .LVU1501
.LBB3404:
.LBB3402:
.LBI3389:
	.loc 2 394 7 view .LVU1502
.LBB3400:
# /usr/include/c++/16/bits/stl_vector.h:397: 	if (__p)
	.loc 2 397 2 is_stmt 0 view .LVU1503
	cmp	QWORD PTR 112[rsp], 0	# %sfp,
	je	.L75	#,
.LVL263:
.LBB3391:
.LBI3391:
	.loc 2 394 7 is_stmt 1 view .LVU1504
.LBB3392:
.LBB3393:
.LBI3393:
	.loc 8 688 7 view .LVU1505
.LBB3394:
.LBI3394:
	.loc 6 167 7 view .LVU1506
.LBE3394:
.LBE3393:
.LBE3392:
.LBE3391:
.LBE3400:
.LBE3402:
# /usr/include/c++/16/bits/stl_vector.h:375: 	ptrdiff_t __n = _M_impl._M_end_of_storage - _M_impl._M_start;
	.loc 2 375 44 is_stmt 0 view .LVU1507
	mov	rdi, QWORD PTR 112[rsp]	# __new_finish, %sfp
	mov	rsi, r13	# params$_M_end_of_storage, params$_M_end_of_storage
	sub	rsi, rdi	# params$_M_end_of_storage, __new_finish
.LBB3403:
.LBB3401:
.LBB3399:
.LBB3398:
.LBB3397:
.LBB3396:
.LBB3395:
# /usr/include/c++/16/bits/new_allocator.h:183: 	_GLIBCXX_OPERATOR_DELETE(_GLIBCXX_SIZED_DEALLOC(__p, __n));
	.loc 6 183 59 view .LVU1508
	call	"_ZdlPvm"@PLT	#
.LVL264:
	.loc 6 183 59 view .LVU1509
.LBE3395:
.LBE3396:
.LBE3397:
.LBE3398:
.LBE3399:
.LBE3401:
.LBE3403:
.LBE3404:
.LBB3405:
.LBI3405:
	.loc 2 139 14 is_stmt 1 view .LVU1510
.LBB3406:
.LBI3406:
	.loc 5 189 7 view .LVU1511
.LBB3407:
.LBI3407:
	.loc 6 104 7 view .LVU1512
	.loc 6 104 7 is_stmt 0 view .LVU1513
	jmp	.L75	#
.LVL265:
.L90:
.L151:
	.loc 6 104 7 view .LVU1514
.LBE3407:
.LBE3406:
.LBE3405:
.LBE3410:
.LBE3386:
.LBB3411:
.LBB3412:
.LBB3413:
.LBB3414:
# /usr/include/c++/16/bits/stl_vector.h:375: 	ptrdiff_t __n = _M_impl._M_end_of_storage - _M_impl._M_start;
	.loc 2 375 54 view .LVU1515
	mov	rbx, rax	# tmp1702, tmp1760
	vzeroupper
.LVL266:
.L75:
	.loc 2 375 54 view .LVU1516
.LBE3414:
.LBE3413:
.LBE3412:
.LBI3411:
	.loc 4 11 8 is_stmt 1 view .LVU1517
.LBB3431:
.LBI3412:
	.loc 2 790 7 view .LVU1518
.LBB3428:
.LBI3428:
	.loc 2 307 7 view .LVU1519
	.loc 2 307 7 is_stmt 0 view .LVU1520
.LBE3428:
.LBB3429:
.LBI3429:
	.loc 8 1082 5 is_stmt 1 view .LVU1521
	.loc 8 1082 5 is_stmt 0 view .LVU1522
.LBE3429:
.LBB3430:
.LBI3413:
	.loc 2 373 7 is_stmt 1 view .LVU1523
.LBB3424:
# /usr/include/c++/16/bits/stl_vector.h:375: 	ptrdiff_t __n = _M_impl._M_end_of_storage - _M_impl._M_start;
	.loc 2 375 54 is_stmt 0 view .LVU1524
	mov	rax, QWORD PTR 64[rsp]	# <retval>, %sfp
	mov	rdi, QWORD PTR 16[rax]	# _513, MEM[(struct _Vector_base *)output_249(D) + 16B]._M_impl.D.86896._M_start
.LVL267:
.LBB3415:
.LBI3415:
	.loc 2 394 7 is_stmt 1 view .LVU1525
.LBB3416:
# /usr/include/c++/16/bits/stl_vector.h:397: 	if (__p)
	.loc 2 397 2 is_stmt 0 view .LVU1526
	test	rdi, rdi	# _513
	je	.L76	#,
.LVL268:
.LBB3417:
.LBI3417:
	.loc 8 688 7 is_stmt 1 view .LVU1527
.LBB3418:
.LBI3418:
	.loc 6 167 7 view .LVU1528
.LBE3418:
.LBE3417:
.LBE3416:
.LBE3415:
# /usr/include/c++/16/bits/stl_vector.h:375: 	ptrdiff_t __n = _M_impl._M_end_of_storage - _M_impl._M_start;
	.loc 2 375 12 is_stmt 0 view .LVU1529
	mov	rsi, QWORD PTR 32[rax]	# MEM[(struct _Vector_base *)output_249(D) + 16B]._M_impl.D.86896._M_end_of_storage, MEM[(struct _Vector_base *)output_249(D) + 16B]._M_impl.D.86896._M_end_of_storage
	sub	rsi, rdi	# __n_514, _513
.LBB3423:
.LBB3422:
.LBB3421:
.LBB3420:
.LBB3419:
# /usr/include/c++/16/bits/new_allocator.h:183: 	_GLIBCXX_OPERATOR_DELETE(_GLIBCXX_SIZED_DEALLOC(__p, __n));
	.loc 6 183 59 view .LVU1530
	call	"_ZdlPvm"@PLT	#
.LVL269:
.L76:
	.loc 6 183 59 view .LVU1531
.LBE3419:
.LBE3420:
.LBE3421:
.LBE3422:
.LBE3423:
.LBE3424:
.LBB3425:
.LBI3425:
	.loc 2 139 14 is_stmt 1 view .LVU1532
.LBB3426:
.LBI3426:
	.loc 5 189 7 view .LVU1533
.LBB3427:
.LBI3427:
	.loc 6 104 7 view .LVU1534
	.loc 6 104 7 is_stmt 0 view .LVU1535
	mov	rdi, rbx	#, tmp1702
.LEHB6:
	call	"_Unwind_Resume"@PLT	#
.LVL270:
.LEHE6:
.L156:
	.loc 6 104 7 view .LVU1536
.LBE3427:
.LBE3426:
.LBE3425:
.LBE3430:
.LBE3431:
.LBE3411:
.LBB3432:
.LBB2466:
.LBB2464:
.LBB2462:
.LBB2460:
.LBB2459:
.LBB2444:
.LBB2416:
# /usr/include/c++/16/bits/stl_vector.h:2206: 	  __throw_length_error(
	.loc 2 2206 24 view .LVU1537
	lea	rdi, .LC0[rip]	#,
.LVL271:
.LEHB7:
	.loc 2 2206 24 view .LVU1538
	call	"_ZSt20__throw_length_errorPKc"@PLT	#
.LVL272:
.LEHE7:
.L92:
.L153:
	.loc 2 2206 24 view .LVU1539
.LBE2416:
.LBE2444:
.LBE2459:
.LBE2460:
.LBE2462:
.LBE2464:
.LBE2466:
.LBE3432:
.LBB3433:
.LBB3434:
.LBB3435:
.LBB3436:
.LBB3437:
# /usr/include/c++/16/bits/stl_vector.h:397: 	if (__p)
	.loc 2 397 2 view .LVU1540
	cmp	QWORD PTR 72[rsp], 0	# %sfp,
	mov	rbx, rax	# tmp1757,
.LBE3437:
.LBE3436:
.LBE3435:
.LBE3434:
.LBI3433:
	.loc 2 790 7 is_stmt 1 view .LVU1541
.LVL273:
.LBB3447:
.LBI3447:
	.loc 2 307 7 view .LVU1542
	.loc 2 307 7 is_stmt 0 view .LVU1543
.LBE3447:
.LBB3448:
.LBI3448:
	.loc 8 1082 5 is_stmt 1 view .LVU1544
	.loc 8 1082 5 is_stmt 0 view .LVU1545
.LBE3448:
.LBB3449:
.LBI3434:
	.loc 2 373 7 is_stmt 1 view .LVU1546
.LBB3443:
.LBB3442:
.LBI3436:
	.loc 2 394 7 view .LVU1547
.LBB3441:
# /usr/include/c++/16/bits/stl_vector.h:397: 	if (__p)
	.loc 2 397 2 is_stmt 0 view .LVU1548
	je	.L164	#,
.LVL274:
.LBB3438:
.LBI3438:
	.loc 8 688 7 is_stmt 1 view .LVU1549
.LBB3439:
.LBI3439:
	.loc 6 167 7 view .LVU1550
.LBB3440:
# /usr/include/c++/16/bits/new_allocator.h:183: 	_GLIBCXX_OPERATOR_DELETE(_GLIBCXX_SIZED_DEALLOC(__p, __n));
	.loc 6 183 59 is_stmt 0 view .LVU1551
	mov	rdi, QWORD PTR 72[rsp]	#, %sfp
	mov	rsi, r12	#, _4
	vzeroupper
.LVL275:
	call	"_ZdlPvm"@PLT	#
.LVL276:
	.loc 6 183 59 view .LVU1552
.LBE3440:
.LBE3439:
.LBE3438:
.LBE3441:
.LBE3442:
.LBE3443:
.LBB3444:
.LBI3444:
	.loc 2 139 14 is_stmt 1 view .LVU1553
.LBB3445:
.LBI3445:
	.loc 5 189 7 view .LVU1554
.LBB3446:
.LBI3446:
	.loc 6 104 7 view .LVU1555
	.loc 6 104 7 is_stmt 0 view .LVU1556
	jmp	.L21	#
.LVL277:
.L164:
	.loc 6 104 7 view .LVU1557
	vzeroupper
.LVL278:
	jmp	.L21	#
.LVL279:
.L157:
	.loc 6 104 7 view .LVU1558
.LBE3446:
.LBE3445:
.LBE3444:
.LBE3449:
.LBE3433:
.LBB3450:
.LBB2633:
.LBB2627:
.LBB2623:
.LBB2620:
.LBB2619:
.LBB2618:
.LBB2556:
# /usr/include/c++/16/bits/stl_vector.h:2195: 	  __throw_length_error(__N(__s));
	.loc 2 2195 24 view .LVU1559
	lea	rdi, .LC2[rip]	#,
.LEHB8:
	call	"_ZSt20__throw_length_errorPKc"@PLT	#
.LVL280:
.LEHE8:
.L159:
	.loc 2 2195 24 view .LVU1560
.LBE2556:
.LBE2618:
.LBE2619:
.LBE2620:
.LBE2623:
.LBE2627:
.LBE2633:
.LBE3450:
.LBB3451:
.LBB2822:
.LBB2763:
.LBB2720:
# /usr/include/c++/16/bits/stl_vector.h:2206: 	  __throw_length_error(
	.loc 2 2206 24 view .LVU1561
	lea	rdi, .LC0[rip]	#,
.LEHB9:
	call	"_ZSt20__throw_length_errorPKc"@PLT	#
.LVL281:
.LEHE9:
.L94:
.L155:
	.loc 2 2206 24 view .LVU1562
.LBE2720:
.LBE2763:
.LBE2822:
.LBE3451:
.LBB3452:
.LBB3338:
.LBB3336:
.LBB3327:
.LBB3324:
.LBB3290:
.LBB3286:
.LBB3277:
.LBB3270:
.LBB3267:
.LBB3263:
# /usr/include/c++/16/bits/stl_algobase.h:261:       if (__a < __b)
	.loc 10 261 7 view .LVU1563
	mov	QWORD PTR 112[rsp], r15	# %sfp, params$_M_start
	mov	rbx, rax	# tmp1697, tmp1758
.LVL282:
	.loc 10 261 7 view .LVU1564
	vzeroupper
.LVL283:
	jmp	.L21	#
.LBE3263:
.LBE3267:
.LBE3270:
.LBE3277:
.LBE3286:
.LBE3290:
.LBE3324:
.LBE3327:
.LBE3336:
.LBE3338:
.LBE3452:
	.cfi_endproc
.LFE11708:
	.section	.gcc_except_table
.LLSDAC11708:
	.byte	0xff
	.byte	0xff
	.byte	0x1
	.uleb128 .LLSDACSEC11708-.LLSDACSBC11708
.LLSDACSBC11708:
	.uleb128 .LEHB5-.LCOLDB8
	.uleb128 .LEHE5-.LEHB5
	.uleb128 .L91-.LCOLDB8
	.uleb128 0
	.uleb128 .LEHB6-.LCOLDB8
	.uleb128 .LEHE6-.LEHB6
	.uleb128 0
	.uleb128 0
	.uleb128 .LEHB7-.LCOLDB8
	.uleb128 .LEHE7-.LEHB7
	.uleb128 .L90-.LCOLDB8
	.uleb128 0
	.uleb128 .LEHB8-.LCOLDB8
	.uleb128 .LEHE8-.LEHB8
	.uleb128 .L94-.LCOLDB8
	.uleb128 0
	.uleb128 .LEHB9-.LCOLDB8
	.uleb128 .LEHE9-.LEHB9
	.uleb128 .L92-.LCOLDB8
	.uleb128 0
.LLSDACSEC11708:
	.section	.text.unlikely
	.text
	.size	"_Z21refocus_shift_and_sumRSt6vectorI16SubApertureImageSaIS0_EEf", .-"_Z21refocus_shift_and_sumRSt6vectorI16SubApertureImageSaIS0_EEf"
	.section	.text.unlikely
	.size	"_Z21refocus_shift_and_sumRSt6vectorI16SubApertureImageSaIS0_EEf.cold", .-"_Z21refocus_shift_and_sumRSt6vectorI16SubApertureImageSaIS0_EEf.cold"
.LCOLDE8:
	.text
.LHOTE8:
	.section	.rodata.cst4,"aM",@progbits,4
	.align 4
.LC1:
	.long	1065353216
	.align 4
.LC4:
	.long	-1090519040
	.align 4
.LC5:
	.long	1056964608
	.align 4
.LC6:
	.long	1132396544
	.text
.Letext0:
	.section	.text.unlikely
.Letext_cold0:
	.file 18 "/usr/include/c++/16/cwchar"
	.file 19 "/usr/include/x86_64-linux-gnu/c++/16/bits/c++config.h"
	.file 20 "/usr/include/c++/16/type_traits"
	.file 21 "/usr/include/c++/16/bits/exception_ptr.h"
	.file 22 "/usr/include/c++/16/clocale"
	.file 23 "/usr/include/c++/16/bits/stl_iterator_base_types.h"
	.file 24 "/usr/include/c++/16/debug/debug.h"
	.file 25 "/usr/include/c++/16/cstdlib"
	.file 26 "/usr/include/c++/16/cstdio"
	.file 27 "/usr/include/c++/16/cstddef"
	.file 28 "/usr/include/c++/16/cstdint"
	.file 29 "/usr/include/c++/16/ctime"
	.file 30 "/usr/include/c++/16/bits/chrono.h"
	.file 31 "/usr/include/c++/16/system_error"
	.file 32 "/usr/include/c++/16/bits/fs_fwd.h"
	.file 33 "/usr/include/c++/16/bits/fs_path.h"
	.file 34 "/usr/include/c++/16/cwctype"
	.file 35 "/usr/include/c++/16/bits/shared_ptr_base.h"
	.file 36 "/usr/include/c++/16/bits/std_abs.h"
	.file 37 "/usr/include/c++/16/initializer_list"
	.file 38 "/usr/include/c++/16/bits/new_throw.h"
	.file 39 "/usr/include/c++/16/bits/stdexcept_throwfwd.h"
	.file 40 "/usr/include/c++/16/bits/ptr_traits.h"
	.file 41 "/usr/lib/gcc/x86_64-linux-gnu/16/include/stddef.h"
	.file 42 "<built-in>"
	.file 43 "/usr/include/x86_64-linux-gnu/bits/types/wint_t.h"
	.file 44 "/usr/include/x86_64-linux-gnu/bits/types/__mbstate_t.h"
	.file 45 "/usr/include/x86_64-linux-gnu/bits/types/mbstate_t.h"
	.file 46 "/usr/include/x86_64-linux-gnu/bits/types/__FILE.h"
	.file 47 "/usr/include/x86_64-linux-gnu/bits/types/struct_FILE.h"
	.file 48 "/usr/include/x86_64-linux-gnu/bits/types/FILE.h"
	.file 49 "/usr/include/wchar.h"
	.file 50 "/usr/include/x86_64-linux-gnu/bits/types/struct_tm.h"
	.file 51 "/usr/include/c++/16/ext/alloc_traits.h"
	.file 52 "/usr/include/c++/16/ext/type_traits.h"
	.file 53 "/usr/include/locale.h"
	.file 54 "/usr/include/x86_64-linux-gnu/bits/types.h"
	.file 55 "/usr/include/stdlib.h"
	.file 56 "/usr/include/x86_64-linux-gnu/bits/types/clock_t.h"
	.file 57 "/usr/include/x86_64-linux-gnu/bits/types/time_t.h"
	.file 58 "/usr/include/x86_64-linux-gnu/bits/stdint-intn.h"
	.file 59 "/usr/include/x86_64-linux-gnu/bits/types/struct_timespec.h"
	.file 60 "/usr/include/x86_64-linux-gnu/bits/stdlib-float.h"
	.file 61 "/usr/include/x86_64-linux-gnu/bits/stdlib-bsearch.h"
	.file 62 "/usr/include/x86_64-linux-gnu/bits/types/__fpos_t.h"
	.file 63 "/usr/include/stdio.h"
	.file 64 "/usr/include/x86_64-linux-gnu/bits/stdio.h"
	.file 65 "/usr/include/x86_64-linux-gnu/bits/stdint-uintn.h"
	.file 66 "/usr/include/x86_64-linux-gnu/bits/stdint-least.h"
	.file 67 "/usr/include/stdint.h"
	.file 68 "/usr/include/time.h"
	.file 69 "/usr/include/x86_64-linux-gnu/bits/wctype-wchar.h"
	.file 70 "/usr/include/wctype.h"
	.file 71 "/usr/include/math.h"
	.file 72 "/usr/include/c++/16/pstl/execution_defs.h"
	.file 73 "/usr/lib/gcc/x86_64-linux-gnu/16/include/mmintrin.h"
	.file 74 "/usr/include/c++/16/stdlib.h"
	.file 75 "/usr/include/c++/16/new"
	.file 76 "/usr/include/c++/16/bits/memory_resource.h"
	.file 77 "/usr/include/c++/16/string_view"
	.file 78 "/usr/include/c++/16/ext/concurrence.h"
	.section	.debug_info,"",@progbits
.Ldebug_info0:
	.long	0x12591
	.value	0x5
	.byte	0x1
	.byte	0x8
	.long	.Ldebug_abbrev0
	.uleb128 0x9e
	.long	.LASF1480
	.byte	0x21
	.byte	0x4
	.long	0x313e7
	.long	.LASF0
	.long	.LASF1
	.long	.LLRL654
	.quad	0
	.long	.Ldebug_line0
	.uleb128 0x2c
	.byte	0x4
	.byte	0x4
	.long	.LASF2
	.uleb128 0x2c
	.byte	0x1
	.byte	0x8
	.long	.LASF3
	.uleb128 0xd
	.long	0x43
	.uleb128 0x2c
	.byte	0x1
	.byte	0x6
	.long	.LASF4
	.uleb128 0x7
	.long	0x43
	.uleb128 0x9f
	.byte	0x4
	.byte	0x5
	.string	"int"
	.uleb128 0x7
	.long	0x4f
	.uleb128 0xa0
	.string	"std"
	.byte	0x13
	.value	0x156
	.byte	0xb
	.long	0x7675
	.uleb128 0x5
	.byte	0x12
	.byte	0x42
	.byte	0xb
	.long	0x7745
	.uleb128 0x5
	.byte	0x12
	.byte	0x8f
	.byte	0xb
	.long	0x76d2
	.uleb128 0x5
	.byte	0x12
	.byte	0x91
	.byte	0xb
	.long	0x7916
	.uleb128 0x5
	.byte	0x12
	.byte	0x92
	.byte	0xb
	.long	0x792d
	.uleb128 0x5
	.byte	0x12
	.byte	0x93
	.byte	0xb
	.long	0x7949
	.uleb128 0x5
	.byte	0x12
	.byte	0x94
	.byte	0xb
	.long	0x797b
	.uleb128 0x5
	.byte	0x12
	.byte	0x95
	.byte	0xb
	.long	0x7997
	.uleb128 0x5
	.byte	0x12
	.byte	0x96
	.byte	0xb
	.long	0x79b8
	.uleb128 0x5
	.byte	0x12
	.byte	0x97
	.byte	0xb
	.long	0x79d4
	.uleb128 0x5
	.byte	0x12
	.byte	0x98
	.byte	0xb
	.long	0x79f1
	.uleb128 0x5
	.byte	0x12
	.byte	0x99
	.byte	0xb
	.long	0x7a12
	.uleb128 0x5
	.byte	0x12
	.byte	0x9a
	.byte	0xb
	.long	0x7a29
	.uleb128 0x5
	.byte	0x12
	.byte	0x9b
	.byte	0xb
	.long	0x7a37
	.uleb128 0x5
	.byte	0x12
	.byte	0x9c
	.byte	0xb
	.long	0x7a5d
	.uleb128 0x5
	.byte	0x12
	.byte	0x9d
	.byte	0xb
	.long	0x7a83
	.uleb128 0x5
	.byte	0x12
	.byte	0x9e
	.byte	0xb
	.long	0x7a9f
	.uleb128 0x5
	.byte	0x12
	.byte	0x9f
	.byte	0xb
	.long	0x7aca
	.uleb128 0x5
	.byte	0x12
	.byte	0xa0
	.byte	0xb
	.long	0x7ae6
	.uleb128 0x5
	.byte	0x12
	.byte	0xa2
	.byte	0xb
	.long	0x7afd
	.uleb128 0x5
	.byte	0x12
	.byte	0xa4
	.byte	0xb
	.long	0x7b1f
	.uleb128 0x5
	.byte	0x12
	.byte	0xa5
	.byte	0xb
	.long	0x7b40
	.uleb128 0x5
	.byte	0x12
	.byte	0xa6
	.byte	0xb
	.long	0x7b5c
	.uleb128 0x5
	.byte	0x12
	.byte	0xa8
	.byte	0xb
	.long	0x7b82
	.uleb128 0x5
	.byte	0x12
	.byte	0xab
	.byte	0xb
	.long	0x7ba7
	.uleb128 0x5
	.byte	0x12
	.byte	0xae
	.byte	0xb
	.long	0x7bcd
	.uleb128 0x5
	.byte	0x12
	.byte	0xb0
	.byte	0xb
	.long	0x7bf2
	.uleb128 0x5
	.byte	0x12
	.byte	0xb2
	.byte	0xb
	.long	0x7c0e
	.uleb128 0x5
	.byte	0x12
	.byte	0xb4
	.byte	0xb
	.long	0x7c2e
	.uleb128 0x5
	.byte	0x12
	.byte	0xb5
	.byte	0xb
	.long	0x7c4f
	.uleb128 0x5
	.byte	0x12
	.byte	0xb6
	.byte	0xb
	.long	0x7c6a
	.uleb128 0x5
	.byte	0x12
	.byte	0xb7
	.byte	0xb
	.long	0x7c85
	.uleb128 0x5
	.byte	0x12
	.byte	0xb8
	.byte	0xb
	.long	0x7ca0
	.uleb128 0x5
	.byte	0x12
	.byte	0xb9
	.byte	0xb
	.long	0x7cbb
	.uleb128 0x5
	.byte	0x12
	.byte	0xba
	.byte	0xb
	.long	0x7cd6
	.uleb128 0x5
	.byte	0x12
	.byte	0xbb
	.byte	0xb
	.long	0x7da3
	.uleb128 0x5
	.byte	0x12
	.byte	0xbc
	.byte	0xb
	.long	0x7db9
	.uleb128 0x5
	.byte	0x12
	.byte	0xbd
	.byte	0xb
	.long	0x7dd9
	.uleb128 0x5
	.byte	0x12
	.byte	0xbe
	.byte	0xb
	.long	0x7df9
	.uleb128 0x5
	.byte	0x12
	.byte	0xbf
	.byte	0xb
	.long	0x7e19
	.uleb128 0x5
	.byte	0x12
	.byte	0xc0
	.byte	0xb
	.long	0x7e44
	.uleb128 0x5
	.byte	0x12
	.byte	0xc1
	.byte	0xb
	.long	0x7e5f
	.uleb128 0x5
	.byte	0x12
	.byte	0xc3
	.byte	0xb
	.long	0x7e87
	.uleb128 0x5
	.byte	0x12
	.byte	0xc5
	.byte	0xb
	.long	0x7ea8
	.uleb128 0x5
	.byte	0x12
	.byte	0xc6
	.byte	0xb
	.long	0x7ec8
	.uleb128 0x5
	.byte	0x12
	.byte	0xc7
	.byte	0xb
	.long	0x7ef4
	.uleb128 0x5
	.byte	0x12
	.byte	0xc8
	.byte	0xb
	.long	0x7f19
	.uleb128 0x5
	.byte	0x12
	.byte	0xc9
	.byte	0xb
	.long	0x7f39
	.uleb128 0x5
	.byte	0x12
	.byte	0xca
	.byte	0xb
	.long	0x7f50
	.uleb128 0x5
	.byte	0x12
	.byte	0xcb
	.byte	0xb
	.long	0x7f71
	.uleb128 0x5
	.byte	0x12
	.byte	0xcc
	.byte	0xb
	.long	0x7f92
	.uleb128 0x5
	.byte	0x12
	.byte	0xcd
	.byte	0xb
	.long	0x7fb3
	.uleb128 0x5
	.byte	0x12
	.byte	0xce
	.byte	0xb
	.long	0x7fd4
	.uleb128 0x5
	.byte	0x12
	.byte	0xcf
	.byte	0xb
	.long	0x7fec
	.uleb128 0x5
	.byte	0x12
	.byte	0xd0
	.byte	0xb
	.long	0x8008
	.uleb128 0x5
	.byte	0x12
	.byte	0xd0
	.byte	0xb
	.long	0x8027
	.uleb128 0x5
	.byte	0x12
	.byte	0xd1
	.byte	0xb
	.long	0x8046
	.uleb128 0x5
	.byte	0x12
	.byte	0xd1
	.byte	0xb
	.long	0x8065
	.uleb128 0x5
	.byte	0x12
	.byte	0xd2
	.byte	0xb
	.long	0x8084
	.uleb128 0x5
	.byte	0x12
	.byte	0xd2
	.byte	0xb
	.long	0x80a3
	.uleb128 0x5
	.byte	0x12
	.byte	0xd3
	.byte	0xb
	.long	0x80c2
	.uleb128 0x5
	.byte	0x12
	.byte	0xd3
	.byte	0xb
	.long	0x80e1
	.uleb128 0x5
	.byte	0x12
	.byte	0xd4
	.byte	0xb
	.long	0x8100
	.uleb128 0x5
	.byte	0x12
	.byte	0xd4
	.byte	0xb
	.long	0x8125
	.uleb128 0x19
	.byte	0x12
	.value	0x10d
	.byte	0x16
	.long	0x9286
	.uleb128 0x19
	.byte	0x12
	.value	0x10e
	.byte	0x16
	.long	0x92a9
	.uleb128 0x19
	.byte	0x12
	.value	0x10f
	.byte	0x16
	.long	0x92d5
	.uleb128 0x19
	.byte	0x12
	.value	0x11d
	.byte	0xe
	.long	0x7e87
	.uleb128 0x19
	.byte	0x12
	.value	0x120
	.byte	0xe
	.long	0x7b82
	.uleb128 0x19
	.byte	0x12
	.value	0x123
	.byte	0xe
	.long	0x7bcd
	.uleb128 0x19
	.byte	0x12
	.value	0x126
	.byte	0xe
	.long	0x7c0e
	.uleb128 0x19
	.byte	0x12
	.value	0x12a
	.byte	0xe
	.long	0x9286
	.uleb128 0x19
	.byte	0x12
	.value	0x12b
	.byte	0xe
	.long	0x92a9
	.uleb128 0x19
	.byte	0x12
	.value	0x12c
	.byte	0xe
	.long	0x92d5
	.uleb128 0x1e
	.long	.LASF5
	.byte	0x13
	.value	0x158
	.byte	0x1a
	.long	0x7686
	.uleb128 0x7
	.long	0x2bc
	.uleb128 0x1a
	.long	.LASF11
	.byte	0x1
	.byte	0x14
	.byte	0x5f
	.byte	0xc
	.long	0x338
	.uleb128 0x8
	.long	.LASF6
	.byte	0x14
	.byte	0x62
	.byte	0xd
	.long	0x9345
	.uleb128 0x45
	.long	.LASF7
	.byte	0x14
	.byte	0x64
	.byte	0x11
	.long	.LASF9
	.long	0x2db
	.long	0x2ff
	.long	0x305
	.uleb128 0x2
	.long	0x9351
	.byte	0
	.uleb128 0x45
	.long	.LASF8
	.byte	0x14
	.byte	0x67
	.byte	0x1c
	.long	.LASF10
	.long	0x2db
	.long	0x31d
	.long	0x323
	.uleb128 0x2
	.long	0x9351
	.byte	0
	.uleb128 0xf
	.string	"_Tp"
	.long	0x9345
	.uleb128 0x82
	.string	"__v"
	.long	0x9345
	.byte	0x1
	.byte	0
	.uleb128 0x7
	.long	0x2ce
	.uleb128 0x1a
	.long	.LASF12
	.byte	0x1
	.byte	0x14
	.byte	0x5f
	.byte	0xc
	.long	0x3a7
	.uleb128 0x8
	.long	.LASF6
	.byte	0x14
	.byte	0x62
	.byte	0xd
	.long	0x9345
	.uleb128 0x45
	.long	.LASF13
	.byte	0x14
	.byte	0x64
	.byte	0x11
	.long	.LASF14
	.long	0x34a
	.long	0x36e
	.long	0x374
	.uleb128 0x2
	.long	0x9356
	.byte	0
	.uleb128 0x45
	.long	.LASF8
	.byte	0x14
	.byte	0x67
	.byte	0x1c
	.long	.LASF15
	.long	0x34a
	.long	0x38c
	.long	0x392
	.uleb128 0x2
	.long	0x9356
	.byte	0
	.uleb128 0xf
	.string	"_Tp"
	.long	0x9345
	.uleb128 0x82
	.string	"__v"
	.long	0x9345
	.byte	0
	.byte	0
	.uleb128 0x7
	.long	0x33d
	.uleb128 0x8
	.long	.LASF16
	.byte	0x14
	.byte	0x7a
	.byte	0x9
	.long	0x3b8
	.uleb128 0x8
	.long	.LASF17
	.byte	0x14
	.byte	0x73
	.byte	0xb
	.long	0x33d
	.uleb128 0x83
	.long	.LASF18
	.value	0xbfb
	.uleb128 0x83
	.long	.LASF19
	.value	0xc50
	.uleb128 0x6c
	.long	.LASF20
	.byte	0x15
	.byte	0x3d
	.byte	0xd
	.long	0x5f0
	.uleb128 0x3f
	.long	.LASF21
	.byte	0x8
	.byte	0x15
	.byte	0x69
	.long	0x5c9
	.uleb128 0x11
	.long	.LASF107
	.byte	0x15
	.byte	0x6b
	.byte	0xd
	.long	0x76cf
	.byte	0
	.uleb128 0x84
	.long	.LASF21
	.byte	0x15
	.byte	0x7f
	.byte	0x10
	.long	.LASF22
	.long	0x40e
	.long	0x419
	.uleb128 0x2
	.long	0x938a
	.uleb128 0x1
	.long	0x76cf
	.byte	0
	.uleb128 0x23
	.long	.LASF23
	.byte	0x15
	.byte	0x82
	.byte	0xc
	.long	.LASF25
	.long	0x42d
	.long	0x433
	.uleb128 0x2
	.long	0x938a
	.byte	0
	.uleb128 0x23
	.long	.LASF24
	.byte	0x15
	.byte	0x83
	.byte	0xc
	.long	.LASF26
	.long	0x447
	.long	0x44d
	.uleb128 0x2
	.long	0x938a
	.byte	0
	.uleb128 0x45
	.long	.LASF27
	.byte	0x15
	.byte	0x85
	.byte	0xd
	.long	.LASF28
	.long	0x76cf
	.long	0x465
	.long	0x46b
	.uleb128 0x2
	.long	0x938f
	.byte	0
	.uleb128 0x45
	.long	.LASF29
	.byte	0x15
	.byte	0x92
	.byte	0x13
	.long	.LASF30
	.long	0x9394
	.long	0x483
	.long	0x48e
	.uleb128 0x2
	.long	0x938f
	.uleb128 0x1
	.long	0x939b
	.byte	0
	.uleb128 0x24
	.long	.LASF21
	.byte	0x15
	.byte	0x96
	.byte	0x1c
	.long	.LASF31
	.byte	0x1
	.long	0x4a3
	.long	0x4a9
	.uleb128 0x2
	.long	0x938a
	.byte	0
	.uleb128 0x24
	.long	.LASF21
	.byte	0x15
	.byte	0x98
	.byte	0x1c
	.long	.LASF32
	.byte	0x1
	.long	0x4be
	.long	0x4c9
	.uleb128 0x2
	.long	0x938a
	.uleb128 0x1
	.long	0x93a0
	.byte	0
	.uleb128 0x24
	.long	.LASF21
	.byte	0x15
	.byte	0x9c
	.byte	0x1c
	.long	.LASF33
	.byte	0x1
	.long	0x4de
	.long	0x4e9
	.uleb128 0x2
	.long	0x938a
	.uleb128 0x1
	.long	0x619
	.byte	0
	.uleb128 0x24
	.long	.LASF21
	.byte	0x15
	.byte	0xa0
	.byte	0x1c
	.long	.LASF34
	.byte	0x1
	.long	0x4fe
	.long	0x509
	.uleb128 0x2
	.long	0x938a
	.uleb128 0x1
	.long	0x93a5
	.byte	0
	.uleb128 0x21
	.long	.LASF35
	.byte	0x15
	.byte	0xad
	.byte	0x7
	.long	.LASF36
	.long	0x93aa
	.byte	0x1
	.long	0x522
	.long	0x52d
	.uleb128 0x2
	.long	0x938a
	.uleb128 0x1
	.long	0x93a0
	.byte	0
	.uleb128 0x21
	.long	.LASF35
	.byte	0x15
	.byte	0xb1
	.byte	0x7
	.long	.LASF37
	.long	0x93aa
	.byte	0x1
	.long	0x546
	.long	0x551
	.uleb128 0x2
	.long	0x938a
	.uleb128 0x1
	.long	0x93a5
	.byte	0
	.uleb128 0x24
	.long	.LASF38
	.byte	0x15
	.byte	0xb8
	.byte	0x1c
	.long	.LASF39
	.byte	0x1
	.long	0x566
	.long	0x56c
	.uleb128 0x2
	.long	0x938a
	.byte	0
	.uleb128 0x24
	.long	.LASF40
	.byte	0x15
	.byte	0xbb
	.byte	0x7
	.long	.LASF41
	.byte	0x1
	.long	0x581
	.long	0x58c
	.uleb128 0x2
	.long	0x938a
	.uleb128 0x1
	.long	0x93aa
	.byte	0
	.uleb128 0xa1
	.long	.LASF67
	.byte	0x15
	.byte	0xc6
	.byte	0x25
	.long	.LASF68
	.long	0x9345
	.byte	0x1
	.long	0x5a6
	.long	0x5ac
	.uleb128 0x2
	.long	0x938f
	.byte	0
	.uleb128 0xa2
	.long	.LASF42
	.byte	0x15
	.byte	0xdf
	.byte	0x7
	.long	.LASF43
	.long	0x93af
	.byte	0x1
	.long	0x5c2
	.uleb128 0x2
	.long	0x938f
	.byte	0
	.byte	0
	.uleb128 0x7
	.long	0x3e0
	.uleb128 0x5
	.byte	0x15
	.byte	0x5d
	.byte	0x10
	.long	0x5f8
	.uleb128 0xa3
	.long	.LASF40
	.byte	0x15
	.value	0x120
	.byte	0x5
	.long	.LASF1481
	.uleb128 0x1
	.long	0x93aa
	.uleb128 0x1
	.long	0x93aa
	.byte	0
	.byte	0
	.uleb128 0x5
	.byte	0x15
	.byte	0x42
	.byte	0x1a
	.long	0x3e0
	.uleb128 0x85
	.long	.LASF44
	.byte	0x15
	.byte	0x52
	.byte	0x8
	.long	.LASF45
	.long	0x60f
	.uleb128 0x1
	.long	0x3e0
	.byte	0
	.uleb128 0x34
	.long	.LASF280
	.uleb128 0x7
	.long	0x60f
	.uleb128 0x1e
	.long	.LASF46
	.byte	0x13
	.value	0x15c
	.byte	0x1d
	.long	0x933f
	.uleb128 0x19
	.byte	0x15
	.value	0x12d
	.byte	0x1a
	.long	0x5d6
	.uleb128 0x1e
	.long	.LASF47
	.byte	0x13
	.value	0x159
	.byte	0x1c
	.long	0x7eed
	.uleb128 0x8
	.long	.LASF48
	.byte	0x14
	.byte	0x77
	.byte	0x9
	.long	0x648
	.uleb128 0x8
	.long	.LASF17
	.byte	0x14
	.byte	0x73
	.byte	0xb
	.long	0x2ce
	.uleb128 0x5
	.byte	0x16
	.byte	0x37
	.byte	0xb
	.long	0x93b4
	.uleb128 0x5
	.byte	0x16
	.byte	0x38
	.byte	0xb
	.long	0x94fa
	.uleb128 0x5
	.byte	0x16
	.byte	0x39
	.byte	0xb
	.long	0x9515
	.uleb128 0xa4
	.long	.LASF1482
	.byte	0x1
	.byte	0x17
	.byte	0x5f
	.byte	0xa
	.uleb128 0x1a
	.long	.LASF49
	.byte	0x1
	.byte	0x17
	.byte	0x65
	.byte	0xa
	.long	0x689
	.uleb128 0x36
	.long	0x66c
	.byte	0
	.uleb128 0x1a
	.long	.LASF50
	.byte	0x1
	.byte	0x17
	.byte	0x69
	.byte	0xa
	.long	0x69c
	.uleb128 0x36
	.long	0x676
	.byte	0
	.uleb128 0x1a
	.long	.LASF51
	.byte	0x1
	.byte	0x17
	.byte	0x6d
	.byte	0xa
	.long	0x6af
	.uleb128 0x36
	.long	0x689
	.byte	0
	.uleb128 0x79
	.long	.LASF52
	.byte	0x18
	.byte	0x32
	.byte	0xd
	.uleb128 0x5
	.byte	0x19
	.byte	0x89
	.byte	0xb
	.long	0x967e
	.uleb128 0x5
	.byte	0x19
	.byte	0x8a
	.byte	0xb
	.long	0x96b2
	.uleb128 0x5
	.byte	0x19
	.byte	0x90
	.byte	0xb
	.long	0x978e
	.uleb128 0x5
	.byte	0x19
	.byte	0x93
	.byte	0xb
	.long	0x97ac
	.uleb128 0x5
	.byte	0x19
	.byte	0x96
	.byte	0xb
	.long	0x97c7
	.uleb128 0x5
	.byte	0x19
	.byte	0x97
	.byte	0xb
	.long	0x97dd
	.uleb128 0x5
	.byte	0x19
	.byte	0x98
	.byte	0xb
	.long	0x97f4
	.uleb128 0x5
	.byte	0x19
	.byte	0x99
	.byte	0xb
	.long	0x980b
	.uleb128 0x5
	.byte	0x19
	.byte	0x9b
	.byte	0xb
	.long	0x9835
	.uleb128 0x5
	.byte	0x19
	.byte	0x9e
	.byte	0xb
	.long	0x9852
	.uleb128 0x5
	.byte	0x19
	.byte	0xa0
	.byte	0xb
	.long	0x9869
	.uleb128 0x5
	.byte	0x19
	.byte	0xa3
	.byte	0xb
	.long	0x9885
	.uleb128 0x5
	.byte	0x19
	.byte	0xa4
	.byte	0xb
	.long	0x98a1
	.uleb128 0x5
	.byte	0x19
	.byte	0xa5
	.byte	0xb
	.long	0x98c2
	.uleb128 0x5
	.byte	0x19
	.byte	0xa7
	.byte	0xb
	.long	0x98e3
	.uleb128 0x5
	.byte	0x19
	.byte	0xaa
	.byte	0xb
	.long	0x9904
	.uleb128 0x5
	.byte	0x19
	.byte	0xad
	.byte	0xb
	.long	0x9918
	.uleb128 0x5
	.byte	0x19
	.byte	0xaf
	.byte	0xb
	.long	0x9926
	.uleb128 0x5
	.byte	0x19
	.byte	0xb0
	.byte	0xb
	.long	0x9938
	.uleb128 0x5
	.byte	0x19
	.byte	0xb1
	.byte	0xb
	.long	0x9958
	.uleb128 0x5
	.byte	0x19
	.byte	0xb2
	.byte	0xb
	.long	0x997c
	.uleb128 0x5
	.byte	0x19
	.byte	0xb3
	.byte	0xb
	.long	0x99a0
	.uleb128 0x5
	.byte	0x19
	.byte	0xb5
	.byte	0xb
	.long	0x99b7
	.uleb128 0x5
	.byte	0x19
	.byte	0xb6
	.byte	0xb
	.long	0x99d8
	.uleb128 0x5
	.byte	0x19
	.byte	0xfd
	.byte	0x16
	.long	0x96e6
	.uleb128 0x19
	.byte	0x19
	.value	0x102
	.byte	0x16
	.long	0x81a9
	.uleb128 0x19
	.byte	0x19
	.value	0x103
	.byte	0x16
	.long	0x99f4
	.uleb128 0x19
	.byte	0x19
	.value	0x105
	.byte	0x16
	.long	0x9a10
	.uleb128 0x19
	.byte	0x19
	.value	0x106
	.byte	0x16
	.long	0x9a6f
	.uleb128 0x19
	.byte	0x19
	.value	0x107
	.byte	0x16
	.long	0x9a27
	.uleb128 0x19
	.byte	0x19
	.value	0x108
	.byte	0x16
	.long	0x9a4b
	.uleb128 0x19
	.byte	0x19
	.value	0x109
	.byte	0x16
	.long	0x9a8a
	.uleb128 0x5
	.byte	0x1a
	.byte	0x64
	.byte	0xb
	.long	0x78f9
	.uleb128 0x5
	.byte	0x1a
	.byte	0x65
	.byte	0xb
	.long	0x9b2f
	.uleb128 0x5
	.byte	0x1a
	.byte	0x67
	.byte	0xb
	.long	0x9b45
	.uleb128 0x5
	.byte	0x1a
	.byte	0x68
	.byte	0xb
	.long	0x9b57
	.uleb128 0x5
	.byte	0x1a
	.byte	0x69
	.byte	0xb
	.long	0x9b6d
	.uleb128 0x5
	.byte	0x1a
	.byte	0x6a
	.byte	0xb
	.long	0x9b84
	.uleb128 0x5
	.byte	0x1a
	.byte	0x6b
	.byte	0xb
	.long	0x9b9b
	.uleb128 0x5
	.byte	0x1a
	.byte	0x6c
	.byte	0xb
	.long	0x9bb1
	.uleb128 0x5
	.byte	0x1a
	.byte	0x6d
	.byte	0xb
	.long	0x9bc8
	.uleb128 0x5
	.byte	0x1a
	.byte	0x6e
	.byte	0xb
	.long	0x9be9
	.uleb128 0x5
	.byte	0x1a
	.byte	0x6f
	.byte	0xb
	.long	0x9c0a
	.uleb128 0x5
	.byte	0x1a
	.byte	0x73
	.byte	0xb
	.long	0x9c26
	.uleb128 0x5
	.byte	0x1a
	.byte	0x74
	.byte	0xb
	.long	0x9c4c
	.uleb128 0x5
	.byte	0x1a
	.byte	0x76
	.byte	0xb
	.long	0x9c6d
	.uleb128 0x5
	.byte	0x1a
	.byte	0x77
	.byte	0xb
	.long	0x9c8e
	.uleb128 0x5
	.byte	0x1a
	.byte	0x78
	.byte	0xb
	.long	0x9caf
	.uleb128 0x5
	.byte	0x1a
	.byte	0x7a
	.byte	0xb
	.long	0x9cc6
	.uleb128 0x5
	.byte	0x1a
	.byte	0x7b
	.byte	0xb
	.long	0x9cdd
	.uleb128 0x5
	.byte	0x1a
	.byte	0x80
	.byte	0xb
	.long	0x9ce9
	.uleb128 0x5
	.byte	0x1a
	.byte	0x85
	.byte	0xb
	.long	0x9cfb
	.uleb128 0x5
	.byte	0x1a
	.byte	0x86
	.byte	0xb
	.long	0x9d11
	.uleb128 0x5
	.byte	0x1a
	.byte	0x87
	.byte	0xb
	.long	0x9d2c
	.uleb128 0x5
	.byte	0x1a
	.byte	0x89
	.byte	0xb
	.long	0x9d3e
	.uleb128 0x5
	.byte	0x1a
	.byte	0x8a
	.byte	0xb
	.long	0x9d55
	.uleb128 0x5
	.byte	0x1a
	.byte	0x8d
	.byte	0xb
	.long	0x9d7b
	.uleb128 0x5
	.byte	0x1a
	.byte	0x8f
	.byte	0xb
	.long	0x9d87
	.uleb128 0x5
	.byte	0x1a
	.byte	0x91
	.byte	0xb
	.long	0x9d9d
	.uleb128 0x86
	.long	.LASF53
	.byte	0x13
	.value	0x179
	.byte	0x41
	.uleb128 0x5
	.byte	0x1b
	.byte	0x42
	.byte	0xb
	.long	0x9330
	.uleb128 0xa5
	.string	"pmr"
	.byte	0x4c
	.byte	0x37
	.byte	0xb
	.uleb128 0x87
	.string	"_V2"
	.byte	0x1f
	.byte	0x54
	.byte	0x1
	.uleb128 0x5
	.byte	0x1c
	.byte	0x35
	.byte	0xb
	.long	0x970f
	.uleb128 0x5
	.byte	0x1c
	.byte	0x36
	.byte	0xb
	.long	0x971b
	.uleb128 0x5
	.byte	0x1c
	.byte	0x37
	.byte	0xb
	.long	0x9727
	.uleb128 0x5
	.byte	0x1c
	.byte	0x38
	.byte	0xb
	.long	0x9733
	.uleb128 0x5
	.byte	0x1c
	.byte	0x3a
	.byte	0xb
	.long	0x9e49
	.uleb128 0x5
	.byte	0x1c
	.byte	0x3b
	.byte	0xb
	.long	0x9e55
	.uleb128 0x5
	.byte	0x1c
	.byte	0x3c
	.byte	0xb
	.long	0x9e61
	.uleb128 0x5
	.byte	0x1c
	.byte	0x3d
	.byte	0xb
	.long	0x9e6d
	.uleb128 0x5
	.byte	0x1c
	.byte	0x3f
	.byte	0xb
	.long	0x9de9
	.uleb128 0x5
	.byte	0x1c
	.byte	0x40
	.byte	0xb
	.long	0x9df5
	.uleb128 0x5
	.byte	0x1c
	.byte	0x41
	.byte	0xb
	.long	0x9e01
	.uleb128 0x5
	.byte	0x1c
	.byte	0x42
	.byte	0xb
	.long	0x9e0d
	.uleb128 0x5
	.byte	0x1c
	.byte	0x44
	.byte	0xb
	.long	0x9ec1
	.uleb128 0x5
	.byte	0x1c
	.byte	0x45
	.byte	0xb
	.long	0x9ea9
	.uleb128 0x5
	.byte	0x1c
	.byte	0x47
	.byte	0xb
	.long	0x9db9
	.uleb128 0x5
	.byte	0x1c
	.byte	0x48
	.byte	0xb
	.long	0x9dc5
	.uleb128 0x5
	.byte	0x1c
	.byte	0x49
	.byte	0xb
	.long	0x9dd1
	.uleb128 0x5
	.byte	0x1c
	.byte	0x4a
	.byte	0xb
	.long	0x9ddd
	.uleb128 0x5
	.byte	0x1c
	.byte	0x4c
	.byte	0xb
	.long	0x9e79
	.uleb128 0x5
	.byte	0x1c
	.byte	0x4d
	.byte	0xb
	.long	0x9e85
	.uleb128 0x5
	.byte	0x1c
	.byte	0x4e
	.byte	0xb
	.long	0x9e91
	.uleb128 0x5
	.byte	0x1c
	.byte	0x4f
	.byte	0xb
	.long	0x9e9d
	.uleb128 0x5
	.byte	0x1c
	.byte	0x51
	.byte	0xb
	.long	0x9e19
	.uleb128 0x5
	.byte	0x1c
	.byte	0x52
	.byte	0xb
	.long	0x9e25
	.uleb128 0x5
	.byte	0x1c
	.byte	0x53
	.byte	0xb
	.long	0x9e31
	.uleb128 0x5
	.byte	0x1c
	.byte	0x54
	.byte	0xb
	.long	0x9e3d
	.uleb128 0x5
	.byte	0x1c
	.byte	0x56
	.byte	0xb
	.long	0x9ecd
	.uleb128 0x5
	.byte	0x1c
	.byte	0x57
	.byte	0xb
	.long	0x9eb5
	.uleb128 0x5
	.byte	0x1d
	.byte	0x3e
	.byte	0xb
	.long	0x96f2
	.uleb128 0x5
	.byte	0x1d
	.byte	0x3f
	.byte	0xb
	.long	0x96fe
	.uleb128 0x5
	.byte	0x1d
	.byte	0x40
	.byte	0xb
	.long	0x7d01
	.uleb128 0x5
	.byte	0x1d
	.byte	0x42
	.byte	0xb
	.long	0x9ef5
	.uleb128 0x5
	.byte	0x1d
	.byte	0x43
	.byte	0xb
	.long	0x9f01
	.uleb128 0x5
	.byte	0x1d
	.byte	0x44
	.byte	0xb
	.long	0x9f1c
	.uleb128 0x5
	.byte	0x1d
	.byte	0x45
	.byte	0xb
	.long	0x9f37
	.uleb128 0x5
	.byte	0x1d
	.byte	0x46
	.byte	0xb
	.long	0x9f52
	.uleb128 0x5
	.byte	0x1d
	.byte	0x47
	.byte	0xb
	.long	0x9f68
	.uleb128 0x5
	.byte	0x1d
	.byte	0x48
	.byte	0xb
	.long	0x9f83
	.uleb128 0x5
	.byte	0x1d
	.byte	0x49
	.byte	0xb
	.long	0x9f99
	.uleb128 0x5
	.byte	0x1d
	.byte	0x51
	.byte	0xb
	.long	0x973f
	.uleb128 0x5
	.byte	0x1d
	.byte	0x52
	.byte	0xb
	.long	0x9faf
	.uleb128 0x6c
	.long	.LASF54
	.byte	0x1e
	.byte	0x3d
	.byte	0xd
	.long	0xa23
	.uleb128 0xa6
	.string	"_V2"
	.byte	0x1e
	.value	0x4c6
	.byte	0x1
	.uleb128 0xa7
	.byte	0x1e
	.value	0x5aa
	.byte	0x1f
	.long	0xa31
	.byte	0
	.uleb128 0xa8
	.long	.LASF1483
	.byte	0x4d
	.value	0x369
	.byte	0x14
	.long	0xa3c
	.uleb128 0x86
	.long	.LASF55
	.byte	0x1e
	.value	0x54e
	.byte	0x14
	.byte	0
	.uleb128 0x6c
	.long	.LASF56
	.byte	0x1e
	.byte	0x3a
	.byte	0xd
	.long	0xa5b
	.uleb128 0xa9
	.long	.LASF53
	.byte	0x20
	.byte	0x30
	.byte	0x3f
	.uleb128 0x79
	.long	.LASF57
	.byte	0x21
	.byte	0x48
	.byte	0xb
	.byte	0
	.byte	0
	.uleb128 0x5
	.byte	0x22
	.byte	0x54
	.byte	0xb
	.long	0x9fdc
	.uleb128 0x5
	.byte	0x22
	.byte	0x55
	.byte	0xb
	.long	0x9fd0
	.uleb128 0x5
	.byte	0x22
	.byte	0x56
	.byte	0xb
	.long	0x76d2
	.uleb128 0x5
	.byte	0x22
	.byte	0x5e
	.byte	0xb
	.long	0x9fed
	.uleb128 0x5
	.byte	0x22
	.byte	0x67
	.byte	0xb
	.long	0xa008
	.uleb128 0x5
	.byte	0x22
	.byte	0x6a
	.byte	0xb
	.long	0xa023
	.uleb128 0x5
	.byte	0x22
	.byte	0x6b
	.byte	0xb
	.long	0xa039
	.uleb128 0x5
	.byte	0x23
	.byte	0x61
	.byte	0x14
	.long	0x81c7
	.uleb128 0x5
	.byte	0x23
	.byte	0x62
	.byte	0x14
	.long	0xa04f
	.uleb128 0x5
	.byte	0x23
	.byte	0x63
	.byte	0x14
	.long	0x81da
	.uleb128 0x5
	.byte	0x23
	.byte	0x64
	.byte	0x14
	.long	0x81e0
	.uleb128 0x5
	.byte	0x23
	.byte	0x65
	.byte	0x14
	.long	0x81e6
	.uleb128 0x5a
	.long	.LASF58
	.byte	0x1
	.byte	0xc
	.value	0x3a6
	.byte	0xc
	.long	0xb06
	.uleb128 0x16
	.long	.LASF59
	.byte	0xc
	.value	0x3ab
	.byte	0x9
	.long	.LASF96
	.long	0xa86a
	.long	0xafb
	.uleb128 0xa
	.long	.LASF60
	.long	0xa86a
	.uleb128 0xa
	.long	.LASF61
	.long	0x7686
	.uleb128 0x1
	.long	0xa86a
	.uleb128 0x1
	.long	0x7686
	.byte	0
	.uleb128 0x88
	.long	.LASF62
	.long	0x9345
	.byte	0
	.uleb128 0x3f
	.long	.LASF63
	.byte	0x1
	.byte	0x6
	.byte	0x3f
	.long	0xca4
	.uleb128 0x24
	.long	.LASF64
	.byte	0x6
	.byte	0x58
	.byte	0x7
	.long	.LASF65
	.byte	0x1
	.long	0xb27
	.long	0xb2d
	.uleb128 0x2
	.long	0xa061
	.byte	0
	.uleb128 0x24
	.long	.LASF64
	.byte	0x6
	.byte	0x5c
	.byte	0x7
	.long	.LASF66
	.byte	0x1
	.long	0xb42
	.long	0xb4d
	.uleb128 0x2
	.long	0xa061
	.uleb128 0x1
	.long	0xa06b
	.byte	0
	.uleb128 0x4e
	.long	.LASF35
	.byte	0x6
	.byte	0x64
	.byte	0x18
	.long	.LASF69
	.long	0xa070
	.long	0xb65
	.long	0xb70
	.uleb128 0x2
	.long	0xa061
	.uleb128 0x1
	.long	0xa06b
	.byte	0
	.uleb128 0x24
	.long	.LASF70
	.byte	0x6
	.byte	0x68
	.byte	0x7
	.long	.LASF71
	.byte	0x1
	.long	0xb85
	.long	0xb8b
	.uleb128 0x2
	.long	0xa061
	.byte	0
	.uleb128 0x2a
	.long	.LASF74
	.byte	0x6
	.byte	0x46
	.byte	0x1a
	.long	0xa075
	.uleb128 0x21
	.long	.LASF72
	.byte	0x6
	.byte	0x6b
	.byte	0x7
	.long	.LASF73
	.long	0xb8b
	.byte	0x1
	.long	0xbb0
	.long	0xbbb
	.uleb128 0x2
	.long	0xa07f
	.uleb128 0x1
	.long	0xbbb
	.byte	0
	.uleb128 0x2a
	.long	.LASF75
	.byte	0x6
	.byte	0x48
	.byte	0x1a
	.long	0xa089
	.uleb128 0x2a
	.long	.LASF76
	.byte	0x6
	.byte	0x47
	.byte	0x1a
	.long	0xa08e
	.uleb128 0x21
	.long	.LASF72
	.byte	0x6
	.byte	0x6f
	.byte	0x7
	.long	.LASF77
	.long	0xbc7
	.byte	0x1
	.long	0xbec
	.long	0xbf7
	.uleb128 0x2
	.long	0xa07f
	.uleb128 0x1
	.long	0xbf7
	.byte	0
	.uleb128 0x2a
	.long	.LASF78
	.byte	0x6
	.byte	0x49
	.byte	0x1a
	.long	0xa093
	.uleb128 0x21
	.long	.LASF79
	.byte	0x6
	.byte	0x81
	.byte	0x7
	.long	.LASF80
	.long	0xa075
	.byte	0x1
	.long	0xc1c
	.long	0xc2c
	.uleb128 0x2
	.long	0xa061
	.uleb128 0x1
	.long	0xc2c
	.uleb128 0x1
	.long	0x9394
	.byte	0
	.uleb128 0x2a
	.long	.LASF81
	.byte	0x6
	.byte	0x43
	.byte	0x1f
	.long	0x2bc
	.uleb128 0x24
	.long	.LASF82
	.byte	0x6
	.byte	0xa7
	.byte	0x7
	.long	.LASF83
	.byte	0x1
	.long	0xc4d
	.long	0xc5d
	.uleb128 0x2
	.long	0xa061
	.uleb128 0x1
	.long	0xa075
	.uleb128 0x1
	.long	0xc2c
	.byte	0
	.uleb128 0x21
	.long	.LASF84
	.byte	0x6
	.byte	0xc2
	.byte	0x7
	.long	.LASF85
	.long	0xc2c
	.byte	0x1
	.long	0xc76
	.long	0xc7c
	.uleb128 0x2
	.long	0xa07f
	.byte	0
	.uleb128 0x45
	.long	.LASF86
	.byte	0x6
	.byte	0xf2
	.byte	0x7
	.long	.LASF87
	.long	0xc2c
	.long	0xc94
	.long	0xc9a
	.uleb128 0x2
	.long	0xa07f
	.byte	0
	.uleb128 0xf
	.string	"_Tp"
	.long	0x37
	.byte	0
	.uleb128 0x7
	.long	0xb06
	.uleb128 0x3f
	.long	.LASF88
	.byte	0x1
	.byte	0x5
	.byte	0x85
	.long	0xd2d
	.uleb128 0x47
	.long	0xb06
	.byte	0x1
	.uleb128 0x24
	.long	.LASF89
	.byte	0x5
	.byte	0xa8
	.byte	0x7
	.long	.LASF90
	.byte	0x1
	.long	0xcd0
	.long	0xcd6
	.uleb128 0x2
	.long	0xa098
	.byte	0
	.uleb128 0x24
	.long	.LASF89
	.byte	0x5
	.byte	0xac
	.byte	0x7
	.long	.LASF91
	.byte	0x1
	.long	0xceb
	.long	0xcf6
	.uleb128 0x2
	.long	0xa098
	.uleb128 0x1
	.long	0xa0a2
	.byte	0
	.uleb128 0x4e
	.long	.LASF35
	.byte	0x5
	.byte	0xb1
	.byte	0x12
	.long	.LASF92
	.long	0xa0a7
	.long	0xd0e
	.long	0xd19
	.uleb128 0x2
	.long	0xa098
	.uleb128 0x1
	.long	0xa0a2
	.byte	0
	.uleb128 0x6d
	.long	.LASF93
	.long	.LASF94
	.long	0xd26
	.uleb128 0x2
	.long	0xa098
	.byte	0
	.byte	0
	.uleb128 0x7
	.long	0xca9
	.uleb128 0x5a
	.long	.LASF95
	.byte	0x1
	.byte	0x8
	.value	0x248
	.byte	0xc
	.long	0xe30
	.uleb128 0x1e
	.long	.LASF74
	.byte	0x8
	.value	0x251
	.byte	0xd
	.long	0xa075
	.uleb128 0x16
	.long	.LASF79
	.byte	0x8
	.value	0x27d
	.byte	0x7
	.long	.LASF97
	.long	0xd40
	.long	0xd6d
	.uleb128 0x1
	.long	0xa0ac
	.uleb128 0x1
	.long	0xd7f
	.byte	0
	.uleb128 0x1e
	.long	.LASF98
	.byte	0x8
	.value	0x24b
	.byte	0xd
	.long	0xca9
	.uleb128 0x7
	.long	0xd6d
	.uleb128 0x1e
	.long	.LASF81
	.byte	0x8
	.value	0x260
	.byte	0xd
	.long	0x2bc
	.uleb128 0x16
	.long	.LASF79
	.byte	0x8
	.value	0x28c
	.byte	0x7
	.long	.LASF99
	.long	0xd40
	.long	0xdb1
	.uleb128 0x1
	.long	0xa0ac
	.uleb128 0x1
	.long	0xd7f
	.uleb128 0x1
	.long	0xdb1
	.byte	0
	.uleb128 0x1e
	.long	.LASF100
	.byte	0x8
	.value	0x25a
	.byte	0xd
	.long	0x9394
	.uleb128 0x38
	.long	.LASF82
	.byte	0x8
	.value	0x2b0
	.byte	0x7
	.long	.LASF311
	.long	0xddf
	.uleb128 0x1
	.long	0xa0ac
	.uleb128 0x1
	.long	0xd40
	.uleb128 0x1
	.long	0xd7f
	.byte	0
	.uleb128 0x16
	.long	.LASF84
	.byte	0x8
	.value	0x2ed
	.byte	0x7
	.long	.LASF101
	.long	0xd7f
	.long	0xdfa
	.uleb128 0x1
	.long	0xa0b1
	.byte	0
	.uleb128 0x16
	.long	.LASF102
	.byte	0x8
	.value	0x2fd
	.byte	0x7
	.long	.LASF103
	.long	0xd6d
	.long	0xe15
	.uleb128 0x1
	.long	0xa0b1
	.byte	0
	.uleb128 0x1e
	.long	.LASF6
	.byte	0x8
	.value	0x24e
	.byte	0xd
	.long	0x37
	.uleb128 0x1e
	.long	.LASF104
	.byte	0x8
	.value	0x26f
	.byte	0x8
	.long	0xca9
	.byte	0
	.uleb128 0x1a
	.long	.LASF105
	.byte	0x18
	.byte	0x2
	.byte	0x5b
	.byte	0xc
	.long	0x11d1
	.uleb128 0x1a
	.long	.LASF106
	.byte	0x18
	.byte	0x2
	.byte	0x62
	.byte	0xe
	.long	0xee3
	.uleb128 0x11
	.long	.LASF108
	.byte	0x2
	.byte	0x64
	.byte	0xa
	.long	0xee8
	.byte	0
	.uleb128 0x11
	.long	.LASF109
	.byte	0x2
	.byte	0x65
	.byte	0xa
	.long	0xee8
	.byte	0x8
	.uleb128 0x11
	.long	.LASF110
	.byte	0x2
	.byte	0x66
	.byte	0xa
	.long	0xee8
	.byte	0x10
	.uleb128 0x23
	.long	.LASF106
	.byte	0x2
	.byte	0x69
	.byte	0x2
	.long	.LASF111
	.long	0xe85
	.long	0xe8b
	.uleb128 0x2
	.long	0xa0c0
	.byte	0
	.uleb128 0x23
	.long	.LASF106
	.byte	0x2
	.byte	0x6f
	.byte	0x2
	.long	.LASF112
	.long	0xe9f
	.long	0xeaa
	.uleb128 0x2
	.long	0xa0c0
	.uleb128 0x1
	.long	0xa0ca
	.byte	0
	.uleb128 0x23
	.long	.LASF113
	.byte	0x2
	.byte	0x77
	.byte	0x2
	.long	.LASF114
	.long	0xebe
	.long	0xec9
	.uleb128 0x2
	.long	0xa0c0
	.uleb128 0x1
	.long	0xa0cf
	.byte	0
	.uleb128 0x66
	.long	.LASF115
	.byte	0x80
	.long	.LASF319
	.long	0xed7
	.uleb128 0x2
	.long	0xa0c0
	.uleb128 0x1
	.long	0xa0d4
	.byte	0
	.byte	0
	.uleb128 0x7
	.long	0xe3d
	.uleb128 0x8
	.long	.LASF74
	.byte	0x2
	.byte	0x60
	.byte	0x9
	.long	0x82c3
	.uleb128 0x1a
	.long	.LASF116
	.byte	0x18
	.byte	0x2
	.byte	0x8b
	.byte	0xe
	.long	0xfba
	.uleb128 0x36
	.long	0xca9
	.uleb128 0x36
	.long	0xe3d
	.uleb128 0x23
	.long	.LASF116
	.byte	0x2
	.byte	0x8f
	.byte	0x2
	.long	.LASF117
	.long	0xf1f
	.long	0xf25
	.uleb128 0x2
	.long	0xa0d9
	.byte	0
	.uleb128 0x23
	.long	.LASF116
	.byte	0x2
	.byte	0x98
	.byte	0x2
	.long	.LASF118
	.long	0xf39
	.long	0xf44
	.uleb128 0x2
	.long	0xa0d9
	.uleb128 0x1
	.long	0xa0e3
	.byte	0
	.uleb128 0x23
	.long	.LASF116
	.byte	0x2
	.byte	0xa0
	.byte	0x2
	.long	.LASF119
	.long	0xf58
	.long	0xf63
	.uleb128 0x2
	.long	0xa0d9
	.uleb128 0x1
	.long	0xa0e8
	.byte	0
	.uleb128 0x23
	.long	.LASF116
	.byte	0x2
	.byte	0xa5
	.byte	0x2
	.long	.LASF120
	.long	0xf77
	.long	0xf82
	.uleb128 0x2
	.long	0xa0d9
	.uleb128 0x1
	.long	0xa0ed
	.byte	0
	.uleb128 0x23
	.long	.LASF116
	.byte	0x2
	.byte	0xaa
	.byte	0x2
	.long	.LASF121
	.long	0xf96
	.long	0xfa6
	.uleb128 0x2
	.long	0xa0d9
	.uleb128 0x1
	.long	0xa0ed
	.uleb128 0x1
	.long	0xa0e8
	.byte	0
	.uleb128 0x6e
	.long	.LASF481
	.long	.LASF482
	.long	0xfb3
	.uleb128 0x2
	.long	0xa0d9
	.byte	0
	.byte	0
	.uleb128 0x8
	.long	.LASF122
	.byte	0x2
	.byte	0x5e
	.byte	0x15
	.long	0x82f4
	.uleb128 0x7
	.long	0xfba
	.uleb128 0x37
	.long	.LASF123
	.value	0x133
	.byte	0x7
	.long	.LASF124
	.long	0xa0f2
	.long	0xfe3
	.long	0xfe9
	.uleb128 0x2
	.long	0xa0f7
	.byte	0
	.uleb128 0x37
	.long	.LASF123
	.value	0x138
	.byte	0x7
	.long	.LASF125
	.long	0xa0e3
	.long	0x1001
	.long	0x1007
	.uleb128 0x2
	.long	0xa101
	.byte	0
	.uleb128 0x1e
	.long	.LASF98
	.byte	0x2
	.value	0x12f
	.byte	0x16
	.long	0xca9
	.uleb128 0x7
	.long	0x1007
	.uleb128 0x37
	.long	.LASF126
	.value	0x13d
	.byte	0x7
	.long	.LASF127
	.long	0x1007
	.long	0x1031
	.long	0x1037
	.uleb128 0x2
	.long	0xa101
	.byte	0
	.uleb128 0x4f
	.long	.LASF128
	.value	0x141
	.long	.LASF129
	.long	0x104a
	.long	0x1050
	.uleb128 0x2
	.long	0xa0f7
	.byte	0
	.uleb128 0x1c
	.long	.LASF128
	.value	0x147
	.long	.LASF130
	.long	0x1063
	.long	0x106e
	.uleb128 0x2
	.long	0xa0f7
	.uleb128 0x1
	.long	0xa106
	.byte	0
	.uleb128 0x1c
	.long	.LASF128
	.value	0x14d
	.long	.LASF131
	.long	0x1081
	.long	0x108c
	.uleb128 0x2
	.long	0xa0f7
	.uleb128 0x1
	.long	0x2bc
	.byte	0
	.uleb128 0x1c
	.long	.LASF128
	.value	0x153
	.long	.LASF132
	.long	0x109f
	.long	0x10af
	.uleb128 0x2
	.long	0xa0f7
	.uleb128 0x1
	.long	0x2bc
	.uleb128 0x1
	.long	0xa106
	.byte	0
	.uleb128 0x4f
	.long	.LASF128
	.value	0x158
	.long	.LASF133
	.long	0x10c2
	.long	0x10cd
	.uleb128 0x2
	.long	0xa0f7
	.uleb128 0x1
	.long	0xa10b
	.byte	0
	.uleb128 0x1c
	.long	.LASF128
	.value	0x15d
	.long	.LASF134
	.long	0x10e0
	.long	0x10eb
	.uleb128 0x2
	.long	0xa0f7
	.uleb128 0x1
	.long	0xa0ed
	.byte	0
	.uleb128 0x1c
	.long	.LASF128
	.value	0x161
	.long	.LASF135
	.long	0x10fe
	.long	0x110e
	.uleb128 0x2
	.long	0xa0f7
	.uleb128 0x1
	.long	0xa10b
	.uleb128 0x1
	.long	0xa106
	.byte	0
	.uleb128 0x1c
	.long	.LASF128
	.value	0x16f
	.long	.LASF136
	.long	0x1121
	.long	0x1131
	.uleb128 0x2
	.long	0xa0f7
	.uleb128 0x1
	.long	0xa106
	.uleb128 0x1
	.long	0xa10b
	.byte	0
	.uleb128 0x1c
	.long	.LASF137
	.value	0x175
	.long	.LASF138
	.long	0x1144
	.long	0x114a
	.uleb128 0x2
	.long	0xa0f7
	.byte	0
	.uleb128 0x50
	.long	.LASF139
	.value	0x17e
	.byte	0x14
	.long	0xef4
	.byte	0
	.uleb128 0x37
	.long	.LASF140
	.value	0x182
	.byte	0x7
	.long	.LASF141
	.long	0xee8
	.long	0x116f
	.long	0x117a
	.uleb128 0x2
	.long	0xa0f7
	.uleb128 0x1
	.long	0x2bc
	.byte	0
	.uleb128 0x1c
	.long	.LASF142
	.value	0x18a
	.long	.LASF143
	.long	0x118d
	.long	0x119d
	.uleb128 0x2
	.long	0xa0f7
	.uleb128 0x1
	.long	0xee8
	.uleb128 0x1
	.long	0x2bc
	.byte	0
	.uleb128 0x10
	.long	.LASF144
	.byte	0x2
	.value	0x195
	.byte	0x7
	.long	.LASF145
	.byte	0x2
	.long	0x11b3
	.long	0x11be
	.uleb128 0x2
	.long	0xa0f7
	.uleb128 0x1
	.long	0x2bc
	.byte	0
	.uleb128 0xf
	.string	"_Tp"
	.long	0x37
	.uleb128 0xa
	.long	.LASF146
	.long	0xca9
	.byte	0
	.uleb128 0x7
	.long	0xe30
	.uleb128 0x1a
	.long	.LASF147
	.byte	0x1
	.byte	0x14
	.byte	0xa9
	.byte	0xc
	.long	0x11f9
	.uleb128 0x8
	.long	.LASF148
	.byte	0x14
	.byte	0xaa
	.byte	0xd
	.long	0xca9
	.uleb128 0xa
	.long	.LASF149
	.long	0xca9
	.byte	0
	.uleb128 0x48
	.long	.LASF150
	.byte	0x18
	.byte	0x2
	.value	0x1cc
	.long	0x1dd2
	.uleb128 0x19
	.byte	0x2
	.value	0x1cc
	.byte	0xb
	.long	0x1157
	.uleb128 0x19
	.byte	0x2
	.value	0x1cc
	.byte	0xb
	.long	0x117a
	.uleb128 0x19
	.byte	0x2
	.value	0x1cc
	.byte	0xb
	.long	0x114a
	.uleb128 0x19
	.byte	0x2
	.value	0x1cc
	.byte	0xb
	.long	0xfe9
	.uleb128 0x19
	.byte	0x2
	.value	0x1cc
	.byte	0xb
	.long	0xfcb
	.uleb128 0x19
	.byte	0x2
	.value	0x1cc
	.byte	0xb
	.long	0x1019
	.uleb128 0x47
	.long	0xe30
	.byte	0x2
	.uleb128 0x16
	.long	.LASF151
	.byte	0x2
	.value	0x1f6
	.byte	0x7
	.long	.LASF152
	.long	0x9345
	.long	0x125d
	.uleb128 0x1
	.long	0x63c
	.byte	0
	.uleb128 0x16
	.long	.LASF151
	.byte	0x2
	.value	0x1ff
	.byte	0x7
	.long	.LASF153
	.long	0x9345
	.long	0x1278
	.uleb128 0x1
	.long	0x3ac
	.byte	0
	.uleb128 0x6f
	.long	.LASF345
	.long	.LASF346
	.long	0x9345
	.uleb128 0x15
	.long	.LASF74
	.byte	0x2
	.value	0x1e6
	.byte	0x29
	.long	0xee8
	.uleb128 0x16
	.long	.LASF154
	.byte	0x2
	.value	0x20c
	.byte	0x7
	.long	.LASF155
	.long	0x1285
	.long	0x12bc
	.uleb128 0x1
	.long	0x1285
	.uleb128 0x1
	.long	0x1285
	.uleb128 0x1
	.long	0x1285
	.uleb128 0x1
	.long	0xa110
	.byte	0
	.uleb128 0x1e
	.long	.LASF122
	.byte	0x2
	.value	0x1e1
	.byte	0x2f
	.long	0xfba
	.uleb128 0x7
	.long	0x12bc
	.uleb128 0x51
	.long	.LASF156
	.value	0x227
	.long	.LASF157
	.long	0x12e1
	.long	0x12e7
	.uleb128 0x2
	.long	0xa115
	.byte	0
	.uleb128 0x41
	.long	.LASF156
	.byte	0x2
	.value	0x232
	.long	.LASF158
	.long	0x12fb
	.long	0x1306
	.uleb128 0x2
	.long	0xa115
	.uleb128 0x1
	.long	0xa11f
	.byte	0
	.uleb128 0x15
	.long	.LASF98
	.byte	0x2
	.value	0x1f1
	.byte	0x1a
	.long	0xca9
	.uleb128 0x7
	.long	0x1306
	.uleb128 0x41
	.long	.LASF156
	.byte	0x2
	.value	0x240
	.long	.LASF159
	.long	0x132c
	.long	0x133c
	.uleb128 0x2
	.long	0xa115
	.uleb128 0x1
	.long	0x133c
	.uleb128 0x1
	.long	0xa11f
	.byte	0
	.uleb128 0x15
	.long	.LASF81
	.byte	0x2
	.value	0x1ef
	.byte	0x1a
	.long	0x2bc
	.uleb128 0x7
	.long	0x133c
	.uleb128 0x10
	.long	.LASF156
	.byte	0x2
	.value	0x24d
	.byte	0x7
	.long	.LASF160
	.byte	0x1
	.long	0x1364
	.long	0x1379
	.uleb128 0x2
	.long	0xa115
	.uleb128 0x1
	.long	0x133c
	.uleb128 0x1
	.long	0xa124
	.uleb128 0x1
	.long	0xa11f
	.byte	0
	.uleb128 0x15
	.long	.LASF6
	.byte	0x2
	.value	0x1e5
	.byte	0x17
	.long	0x37
	.uleb128 0x7
	.long	0x1379
	.uleb128 0x10
	.long	.LASF156
	.byte	0x2
	.value	0x26d
	.byte	0x7
	.long	.LASF161
	.byte	0x1
	.long	0x13a1
	.long	0x13ac
	.uleb128 0x2
	.long	0xa115
	.uleb128 0x1
	.long	0xa129
	.byte	0
	.uleb128 0x51
	.long	.LASF156
	.value	0x280
	.long	.LASF162
	.long	0x13bf
	.long	0x13ca
	.uleb128 0x2
	.long	0xa115
	.uleb128 0x1
	.long	0xa12e
	.byte	0
	.uleb128 0x10
	.long	.LASF156
	.byte	0x2
	.value	0x284
	.byte	0x7
	.long	.LASF163
	.byte	0x1
	.long	0x13e0
	.long	0x13f0
	.uleb128 0x2
	.long	0xa115
	.uleb128 0x1
	.long	0xa129
	.uleb128 0x1
	.long	0xa133
	.byte	0
	.uleb128 0x1c
	.long	.LASF156
	.value	0x28f
	.long	.LASF164
	.long	0x1403
	.long	0x1418
	.uleb128 0x2
	.long	0xa115
	.uleb128 0x1
	.long	0xa12e
	.uleb128 0x1
	.long	0xa11f
	.uleb128 0x1
	.long	0x63c
	.byte	0
	.uleb128 0x1c
	.long	.LASF156
	.value	0x294
	.long	.LASF165
	.long	0x142b
	.long	0x1440
	.uleb128 0x2
	.long	0xa115
	.uleb128 0x1
	.long	0xa12e
	.uleb128 0x1
	.long	0xa11f
	.uleb128 0x1
	.long	0x3ac
	.byte	0
	.uleb128 0x10
	.long	.LASF156
	.byte	0x2
	.value	0x2a7
	.byte	0x7
	.long	.LASF166
	.byte	0x1
	.long	0x1456
	.long	0x1466
	.uleb128 0x2
	.long	0xa115
	.uleb128 0x1
	.long	0xa12e
	.uleb128 0x1
	.long	0xa133
	.byte	0
	.uleb128 0x10
	.long	.LASF156
	.byte	0x2
	.value	0x2ba
	.byte	0x7
	.long	.LASF167
	.byte	0x1
	.long	0x147c
	.long	0x148c
	.uleb128 0x2
	.long	0xa115
	.uleb128 0x1
	.long	0x1de8
	.uleb128 0x1
	.long	0xa11f
	.byte	0
	.uleb128 0x10
	.long	.LASF168
	.byte	0x2
	.value	0x316
	.byte	0x7
	.long	.LASF169
	.byte	0x1
	.long	0x14a2
	.long	0x14a8
	.uleb128 0x2
	.long	0xa115
	.byte	0
	.uleb128 0x21
	.long	.LASF35
	.byte	0x7
	.byte	0xd6
	.byte	0x5
	.long	.LASF170
	.long	0xa138
	.byte	0x1
	.long	0x14c1
	.long	0x14cc
	.uleb128 0x2
	.long	0xa115
	.uleb128 0x1
	.long	0xa129
	.byte	0
	.uleb128 0x6
	.long	.LASF35
	.byte	0x2
	.value	0x337
	.byte	0x7
	.long	.LASF171
	.long	0xa138
	.byte	0x1
	.long	0x14e6
	.long	0x14f1
	.uleb128 0x2
	.long	0xa115
	.uleb128 0x1
	.long	0xa12e
	.byte	0
	.uleb128 0x6
	.long	.LASF35
	.byte	0x2
	.value	0x34d
	.byte	0x7
	.long	.LASF172
	.long	0xa138
	.byte	0x1
	.long	0x150b
	.long	0x1516
	.uleb128 0x2
	.long	0xa115
	.uleb128 0x1
	.long	0x1de8
	.byte	0
	.uleb128 0x10
	.long	.LASF173
	.byte	0x2
	.value	0x361
	.byte	0x7
	.long	.LASF174
	.byte	0x1
	.long	0x152c
	.long	0x153c
	.uleb128 0x2
	.long	0xa115
	.uleb128 0x1
	.long	0x133c
	.uleb128 0x1
	.long	0xa124
	.byte	0
	.uleb128 0x10
	.long	.LASF173
	.byte	0x2
	.value	0x390
	.byte	0x7
	.long	.LASF175
	.byte	0x1
	.long	0x1552
	.long	0x155d
	.uleb128 0x2
	.long	0xa115
	.uleb128 0x1
	.long	0x1de8
	.byte	0
	.uleb128 0x15
	.long	.LASF176
	.byte	0x2
	.value	0x1ea
	.byte	0x3d
	.long	0x8314
	.uleb128 0x6
	.long	.LASF177
	.byte	0x2
	.value	0x3dc
	.byte	0x7
	.long	.LASF178
	.long	0x155d
	.byte	0x1
	.long	0x1584
	.long	0x158a
	.uleb128 0x2
	.long	0xa115
	.byte	0
	.uleb128 0x15
	.long	.LASF179
	.byte	0x2
	.value	0x1ec
	.byte	0x7
	.long	0x8547
	.uleb128 0x6
	.long	.LASF177
	.byte	0x2
	.value	0x3e6
	.byte	0x7
	.long	.LASF180
	.long	0x158a
	.byte	0x1
	.long	0x15b1
	.long	0x15b7
	.uleb128 0x2
	.long	0xa13d
	.byte	0
	.uleb128 0x3a
	.string	"end"
	.value	0x3f0
	.long	.LASF181
	.long	0x155d
	.long	0x15ce
	.long	0x15d4
	.uleb128 0x2
	.long	0xa115
	.byte	0
	.uleb128 0x3a
	.string	"end"
	.value	0x3fa
	.long	.LASF182
	.long	0x158a
	.long	0x15eb
	.long	0x15f1
	.uleb128 0x2
	.long	0xa13d
	.byte	0
	.uleb128 0x15
	.long	.LASF183
	.byte	0x2
	.value	0x1ee
	.byte	0x30
	.long	0x1ded
	.uleb128 0x6
	.long	.LASF184
	.byte	0x2
	.value	0x404
	.byte	0x7
	.long	.LASF185
	.long	0x15f1
	.byte	0x1
	.long	0x1618
	.long	0x161e
	.uleb128 0x2
	.long	0xa115
	.byte	0
	.uleb128 0x15
	.long	.LASF186
	.byte	0x2
	.value	0x1ed
	.byte	0x35
	.long	0x1df2
	.uleb128 0x6
	.long	.LASF184
	.byte	0x2
	.value	0x40e
	.byte	0x7
	.long	.LASF187
	.long	0x161e
	.byte	0x1
	.long	0x1645
	.long	0x164b
	.uleb128 0x2
	.long	0xa13d
	.byte	0
	.uleb128 0x6
	.long	.LASF188
	.byte	0x2
	.value	0x418
	.byte	0x7
	.long	.LASF189
	.long	0x15f1
	.byte	0x1
	.long	0x1665
	.long	0x166b
	.uleb128 0x2
	.long	0xa115
	.byte	0
	.uleb128 0x6
	.long	.LASF188
	.byte	0x2
	.value	0x422
	.byte	0x7
	.long	.LASF190
	.long	0x161e
	.byte	0x1
	.long	0x1685
	.long	0x168b
	.uleb128 0x2
	.long	0xa13d
	.byte	0
	.uleb128 0x6
	.long	.LASF191
	.byte	0x2
	.value	0x42d
	.byte	0x7
	.long	.LASF192
	.long	0x158a
	.byte	0x1
	.long	0x16a5
	.long	0x16ab
	.uleb128 0x2
	.long	0xa13d
	.byte	0
	.uleb128 0x6
	.long	.LASF193
	.byte	0x2
	.value	0x437
	.byte	0x7
	.long	.LASF194
	.long	0x158a
	.byte	0x1
	.long	0x16c5
	.long	0x16cb
	.uleb128 0x2
	.long	0xa13d
	.byte	0
	.uleb128 0x6
	.long	.LASF195
	.byte	0x2
	.value	0x441
	.byte	0x7
	.long	.LASF196
	.long	0x161e
	.byte	0x1
	.long	0x16e5
	.long	0x16eb
	.uleb128 0x2
	.long	0xa13d
	.byte	0
	.uleb128 0x6
	.long	.LASF197
	.byte	0x2
	.value	0x44b
	.byte	0x7
	.long	.LASF198
	.long	0x161e
	.byte	0x1
	.long	0x1705
	.long	0x170b
	.uleb128 0x2
	.long	0xa13d
	.byte	0
	.uleb128 0x6
	.long	.LASF199
	.byte	0x2
	.value	0x453
	.byte	0x7
	.long	.LASF200
	.long	0x133c
	.byte	0x1
	.long	0x1725
	.long	0x172b
	.uleb128 0x2
	.long	0xa13d
	.byte	0
	.uleb128 0x6
	.long	.LASF84
	.byte	0x2
	.value	0x45e
	.byte	0x7
	.long	.LASF201
	.long	0x133c
	.byte	0x1
	.long	0x1745
	.long	0x174b
	.uleb128 0x2
	.long	0xa13d
	.byte	0
	.uleb128 0x10
	.long	.LASF202
	.byte	0x2
	.value	0x46d
	.byte	0x7
	.long	.LASF203
	.byte	0x1
	.long	0x1761
	.long	0x176c
	.uleb128 0x2
	.long	0xa115
	.uleb128 0x1
	.long	0x133c
	.byte	0
	.uleb128 0x10
	.long	.LASF202
	.byte	0x2
	.value	0x482
	.byte	0x7
	.long	.LASF204
	.byte	0x1
	.long	0x1782
	.long	0x1792
	.uleb128 0x2
	.long	0xa115
	.uleb128 0x1
	.long	0x133c
	.uleb128 0x1
	.long	0xa124
	.byte	0
	.uleb128 0x10
	.long	.LASF205
	.byte	0x2
	.value	0x4a4
	.byte	0x7
	.long	.LASF206
	.byte	0x1
	.long	0x17a8
	.long	0x17ae
	.uleb128 0x2
	.long	0xa115
	.byte	0
	.uleb128 0x6
	.long	.LASF207
	.byte	0x2
	.value	0x4ae
	.byte	0x7
	.long	.LASF208
	.long	0x133c
	.byte	0x1
	.long	0x17c8
	.long	0x17ce
	.uleb128 0x2
	.long	0xa13d
	.byte	0
	.uleb128 0x6
	.long	.LASF209
	.byte	0x2
	.value	0x4bd
	.byte	0x7
	.long	.LASF210
	.long	0x9345
	.byte	0x1
	.long	0x17e8
	.long	0x17ee
	.uleb128 0x2
	.long	0xa13d
	.byte	0
	.uleb128 0x24
	.long	.LASF211
	.byte	0x7
	.byte	0x46
	.byte	0x5
	.long	.LASF212
	.byte	0x1
	.long	0x1803
	.long	0x180e
	.uleb128 0x2
	.long	0xa115
	.uleb128 0x1
	.long	0x133c
	.byte	0
	.uleb128 0x15
	.long	.LASF75
	.byte	0x2
	.value	0x1e8
	.byte	0x32
	.long	0x82cf
	.uleb128 0x6
	.long	.LASF213
	.byte	0x2
	.value	0x4e3
	.byte	0x7
	.long	.LASF214
	.long	0x180e
	.byte	0x1
	.long	0x1835
	.long	0x1840
	.uleb128 0x2
	.long	0xa115
	.uleb128 0x1
	.long	0x133c
	.byte	0
	.uleb128 0x15
	.long	.LASF78
	.byte	0x2
	.value	0x1e9
	.byte	0x37
	.long	0x82db
	.uleb128 0x6
	.long	.LASF213
	.byte	0x2
	.value	0x4f6
	.byte	0x7
	.long	.LASF215
	.long	0x1840
	.byte	0x1
	.long	0x1867
	.long	0x1872
	.uleb128 0x2
	.long	0xa13d
	.uleb128 0x1
	.long	0x133c
	.byte	0
	.uleb128 0x10
	.long	.LASF216
	.byte	0x2
	.value	0x500
	.byte	0x7
	.long	.LASF217
	.byte	0x2
	.long	0x1888
	.long	0x1893
	.uleb128 0x2
	.long	0xa13d
	.uleb128 0x1
	.long	0x133c
	.byte	0
	.uleb128 0x3a
	.string	"at"
	.value	0x517
	.long	.LASF218
	.long	0x180e
	.long	0x18a9
	.long	0x18b4
	.uleb128 0x2
	.long	0xa115
	.uleb128 0x1
	.long	0x133c
	.byte	0
	.uleb128 0x3a
	.string	"at"
	.value	0x52a
	.long	.LASF219
	.long	0x1840
	.long	0x18ca
	.long	0x18d5
	.uleb128 0x2
	.long	0xa13d
	.uleb128 0x1
	.long	0x133c
	.byte	0
	.uleb128 0x6
	.long	.LASF220
	.byte	0x2
	.value	0x536
	.byte	0x7
	.long	.LASF221
	.long	0x180e
	.byte	0x1
	.long	0x18ef
	.long	0x18f5
	.uleb128 0x2
	.long	0xa115
	.byte	0
	.uleb128 0x6
	.long	.LASF220
	.byte	0x2
	.value	0x542
	.byte	0x7
	.long	.LASF222
	.long	0x1840
	.byte	0x1
	.long	0x190f
	.long	0x1915
	.uleb128 0x2
	.long	0xa13d
	.byte	0
	.uleb128 0x6
	.long	.LASF223
	.byte	0x2
	.value	0x54e
	.byte	0x7
	.long	.LASF224
	.long	0x180e
	.byte	0x1
	.long	0x192f
	.long	0x1935
	.uleb128 0x2
	.long	0xa115
	.byte	0
	.uleb128 0x6
	.long	.LASF223
	.byte	0x2
	.value	0x55a
	.byte	0x7
	.long	.LASF225
	.long	0x1840
	.byte	0x1
	.long	0x194f
	.long	0x1955
	.uleb128 0x2
	.long	0xa13d
	.byte	0
	.uleb128 0x6
	.long	.LASF226
	.byte	0x2
	.value	0x569
	.byte	0x7
	.long	.LASF227
	.long	0xa075
	.byte	0x1
	.long	0x196f
	.long	0x1975
	.uleb128 0x2
	.long	0xa115
	.byte	0
	.uleb128 0x6
	.long	.LASF226
	.byte	0x2
	.value	0x56e
	.byte	0x7
	.long	.LASF228
	.long	0xa08e
	.byte	0x1
	.long	0x198f
	.long	0x1995
	.uleb128 0x2
	.long	0xa13d
	.byte	0
	.uleb128 0x10
	.long	.LASF229
	.byte	0x2
	.value	0x57e
	.byte	0x7
	.long	.LASF230
	.byte	0x1
	.long	0x19ab
	.long	0x19b6
	.uleb128 0x2
	.long	0xa115
	.uleb128 0x1
	.long	0xa124
	.byte	0
	.uleb128 0x10
	.long	.LASF229
	.byte	0x2
	.value	0x58f
	.byte	0x7
	.long	.LASF231
	.byte	0x1
	.long	0x19cc
	.long	0x19d7
	.uleb128 0x2
	.long	0xa115
	.uleb128 0x1
	.long	0xa147
	.byte	0
	.uleb128 0x10
	.long	.LASF232
	.byte	0x2
	.value	0x5a7
	.byte	0x7
	.long	.LASF233
	.byte	0x1
	.long	0x19ed
	.long	0x19f3
	.uleb128 0x2
	.long	0xa115
	.byte	0
	.uleb128 0x21
	.long	.LASF234
	.byte	0x7
	.byte	0x89
	.byte	0x5
	.long	.LASF235
	.long	0x155d
	.byte	0x1
	.long	0x1a0c
	.long	0x1a1c
	.uleb128 0x2
	.long	0xa115
	.uleb128 0x1
	.long	0x158a
	.uleb128 0x1
	.long	0xa124
	.byte	0
	.uleb128 0x6
	.long	.LASF234
	.byte	0x2
	.value	0x5ee
	.byte	0x7
	.long	.LASF236
	.long	0x155d
	.byte	0x1
	.long	0x1a36
	.long	0x1a46
	.uleb128 0x2
	.long	0xa115
	.uleb128 0x1
	.long	0x158a
	.uleb128 0x1
	.long	0xa147
	.byte	0
	.uleb128 0x6
	.long	.LASF234
	.byte	0x2
	.value	0x600
	.byte	0x7
	.long	.LASF237
	.long	0x155d
	.byte	0x1
	.long	0x1a60
	.long	0x1a70
	.uleb128 0x2
	.long	0xa115
	.uleb128 0x1
	.long	0x158a
	.uleb128 0x1
	.long	0x1de8
	.byte	0
	.uleb128 0x6
	.long	.LASF234
	.byte	0x2
	.value	0x61a
	.byte	0x7
	.long	.LASF238
	.long	0x155d
	.byte	0x1
	.long	0x1a8a
	.long	0x1a9f
	.uleb128 0x2
	.long	0xa115
	.uleb128 0x1
	.long	0x158a
	.uleb128 0x1
	.long	0x133c
	.uleb128 0x1
	.long	0xa124
	.byte	0
	.uleb128 0x6
	.long	.LASF239
	.byte	0x2
	.value	0x6f6
	.byte	0x7
	.long	.LASF240
	.long	0x155d
	.byte	0x1
	.long	0x1ab9
	.long	0x1ac4
	.uleb128 0x2
	.long	0xa115
	.uleb128 0x1
	.long	0x158a
	.byte	0
	.uleb128 0x6
	.long	.LASF239
	.byte	0x2
	.value	0x712
	.byte	0x7
	.long	.LASF241
	.long	0x155d
	.byte	0x1
	.long	0x1ade
	.long	0x1aee
	.uleb128 0x2
	.long	0xa115
	.uleb128 0x1
	.long	0x158a
	.uleb128 0x1
	.long	0x158a
	.byte	0
	.uleb128 0x10
	.long	.LASF40
	.byte	0x2
	.value	0x72a
	.byte	0x7
	.long	.LASF242
	.byte	0x1
	.long	0x1b04
	.long	0x1b0f
	.uleb128 0x2
	.long	0xa115
	.uleb128 0x1
	.long	0xa138
	.byte	0
	.uleb128 0x10
	.long	.LASF243
	.byte	0x2
	.value	0x73d
	.byte	0x7
	.long	.LASF244
	.byte	0x1
	.long	0x1b25
	.long	0x1b2b
	.uleb128 0x2
	.long	0xa115
	.byte	0
	.uleb128 0x10
	.long	.LASF245
	.byte	0x2
	.value	0x7c3
	.byte	0x7
	.long	.LASF246
	.byte	0x2
	.long	0x1b41
	.long	0x1b51
	.uleb128 0x2
	.long	0xa115
	.uleb128 0x1
	.long	0x133c
	.uleb128 0x1
	.long	0xa124
	.byte	0
	.uleb128 0x10
	.long	.LASF247
	.byte	0x2
	.value	0x7ce
	.byte	0x7
	.long	.LASF248
	.byte	0x2
	.long	0x1b67
	.long	0x1b72
	.uleb128 0x2
	.long	0xa115
	.uleb128 0x1
	.long	0x133c
	.byte	0
	.uleb128 0x10
	.long	.LASF249
	.byte	0x7
	.value	0x112
	.byte	0x5
	.long	.LASF250
	.byte	0x2
	.long	0x1b88
	.long	0x1b98
	.uleb128 0x2
	.long	0xa115
	.uleb128 0x1
	.long	0x2bc
	.uleb128 0x1
	.long	0xa124
	.byte	0
	.uleb128 0x10
	.long	.LASF251
	.byte	0x7
	.value	0x296
	.byte	0x5
	.long	.LASF252
	.byte	0x2
	.long	0x1bae
	.long	0x1bc3
	.uleb128 0x2
	.long	0xa115
	.uleb128 0x1
	.long	0x155d
	.uleb128 0x1
	.long	0x133c
	.uleb128 0x1
	.long	0xa124
	.byte	0
	.uleb128 0x10
	.long	.LASF253
	.byte	0x7
	.value	0x300
	.byte	0x5
	.long	.LASF254
	.byte	0x2
	.long	0x1bd9
	.long	0x1be9
	.uleb128 0x2
	.long	0xa115
	.uleb128 0x1
	.long	0x133c
	.uleb128 0x1
	.long	0xa124
	.byte	0
	.uleb128 0x10
	.long	.LASF255
	.byte	0x7
	.value	0x339
	.byte	0x5
	.long	.LASF256
	.byte	0x2
	.long	0x1bff
	.long	0x1c0a
	.uleb128 0x2
	.long	0xa115
	.uleb128 0x1
	.long	0x133c
	.byte	0
	.uleb128 0x6
	.long	.LASF257
	.byte	0x7
	.value	0x396
	.byte	0x5
	.long	.LASF258
	.long	0x9345
	.byte	0x2
	.long	0x1c24
	.long	0x1c2a
	.uleb128 0x2
	.long	0xa115
	.byte	0
	.uleb128 0x6
	.long	.LASF259
	.byte	0x7
	.value	0x16f
	.byte	0x5
	.long	.LASF260
	.long	0x155d
	.byte	0x2
	.long	0x1c44
	.long	0x1c54
	.uleb128 0x2
	.long	0xa115
	.uleb128 0x1
	.long	0x158a
	.uleb128 0x1
	.long	0xa147
	.byte	0
	.uleb128 0x6
	.long	.LASF261
	.byte	0x2
	.value	0x889
	.byte	0x7
	.long	.LASF262
	.long	0x155d
	.byte	0x2
	.long	0x1c6e
	.long	0x1c7e
	.uleb128 0x2
	.long	0xa115
	.uleb128 0x1
	.long	0x158a
	.uleb128 0x1
	.long	0xa147
	.byte	0
	.uleb128 0x6
	.long	.LASF263
	.byte	0x2
	.value	0x890
	.byte	0x7
	.long	.LASF264
	.long	0x133c
	.byte	0x2
	.long	0x1c98
	.long	0x1ca8
	.uleb128 0x2
	.long	0xa13d
	.uleb128 0x1
	.long	0x133c
	.uleb128 0x1
	.long	0x7911
	.byte	0
	.uleb128 0x52
	.long	.LASF265
	.value	0x89b
	.long	.LASF266
	.long	0x133c
	.long	0x1cc6
	.uleb128 0x1
	.long	0x133c
	.uleb128 0x1
	.long	0xa11f
	.byte	0
	.uleb128 0x52
	.long	.LASF267
	.value	0x8a4
	.long	.LASF268
	.long	0x133c
	.long	0x1cdf
	.uleb128 0x1
	.long	0xa14c
	.byte	0
	.uleb128 0x10
	.long	.LASF269
	.byte	0x2
	.value	0x8b5
	.byte	0x7
	.long	.LASF270
	.byte	0x2
	.long	0x1cf5
	.long	0x1d00
	.uleb128 0x2
	.long	0xa115
	.uleb128 0x1
	.long	0x1285
	.byte	0
	.uleb128 0x21
	.long	.LASF271
	.byte	0x7
	.byte	0xb9
	.byte	0x5
	.long	.LASF272
	.long	0x155d
	.byte	0x2
	.long	0x1d19
	.long	0x1d24
	.uleb128 0x2
	.long	0xa115
	.uleb128 0x1
	.long	0x155d
	.byte	0
	.uleb128 0x21
	.long	.LASF271
	.byte	0x7
	.byte	0xc7
	.byte	0x5
	.long	.LASF273
	.long	0x155d
	.byte	0x2
	.long	0x1d3d
	.long	0x1d4d
	.uleb128 0x2
	.long	0xa115
	.uleb128 0x1
	.long	0x155d
	.uleb128 0x1
	.long	0x155d
	.byte	0
	.uleb128 0x1c
	.long	.LASF274
	.value	0x8cf
	.long	.LASF275
	.long	0x1d60
	.long	0x1d70
	.uleb128 0x2
	.long	0xa115
	.uleb128 0x1
	.long	0xa12e
	.uleb128 0x1
	.long	0x63c
	.byte	0
	.uleb128 0x1c
	.long	.LASF274
	.value	0x8db
	.long	.LASF276
	.long	0x1d83
	.long	0x1d93
	.uleb128 0x2
	.long	0xa115
	.uleb128 0x1
	.long	0xa12e
	.uleb128 0x1
	.long	0x3ac
	.byte	0
	.uleb128 0x37
	.long	.LASF277
	.value	0x8ee
	.byte	0x2
	.long	.LASF278
	.long	0xa075
	.long	0x1db4
	.long	0x1dbf
	.uleb128 0xf
	.string	"_Up"
	.long	0x37
	.uleb128 0x2
	.long	0xa13d
	.uleb128 0x1
	.long	0xa075
	.byte	0
	.uleb128 0xf
	.string	"_Tp"
	.long	0x37
	.uleb128 0x67
	.long	.LASF146
	.long	0xca9
	.byte	0
	.uleb128 0x7
	.long	0x11f9
	.uleb128 0x8
	.long	.LASF279
	.byte	0x14
	.byte	0xad
	.byte	0xb
	.long	0x11e3
	.uleb128 0x7
	.long	0x1dd7
	.uleb128 0x34
	.long	.LASF281
	.uleb128 0x34
	.long	.LASF282
	.uleb128 0x34
	.long	.LASF283
	.uleb128 0x19
	.byte	0x9
	.value	0x82c
	.byte	0xb
	.long	0xa28c
	.uleb128 0x19
	.byte	0x9
	.value	0x82d
	.byte	0xb
	.long	0xa280
	.uleb128 0x4b
	.string	"abs"
	.byte	0x24
	.byte	0x96
	.long	.LASF284
	.long	0x9eee
	.long	0x1e22
	.uleb128 0x1
	.long	0x9eee
	.byte	0
	.uleb128 0x4b
	.string	"abs"
	.byte	0x24
	.byte	0x6e
	.long	.LASF285
	.long	0x9375
	.long	0x1e3b
	.uleb128 0x1
	.long	0x9375
	.byte	0
	.uleb128 0x4b
	.string	"abs"
	.byte	0x24
	.byte	0x55
	.long	.LASF286
	.long	0x92a2
	.long	0x1e54
	.uleb128 0x1
	.long	0x92a2
	.byte	0
	.uleb128 0x4b
	.string	"abs"
	.byte	0x24
	.byte	0x51
	.long	.LASF287
	.long	0x30
	.long	0x1e6d
	.uleb128 0x1
	.long	0x30
	.byte	0
	.uleb128 0x4b
	.string	"abs"
	.byte	0x24
	.byte	0x4d
	.long	.LASF288
	.long	0x7e7b
	.long	0x1e86
	.uleb128 0x1
	.long	0x7e7b
	.byte	0
	.uleb128 0x4b
	.string	"abs"
	.byte	0x24
	.byte	0x43
	.long	.LASF289
	.long	0x92ce
	.long	0x1e9f
	.uleb128 0x1
	.long	0x92ce
	.byte	0
	.uleb128 0x4b
	.string	"abs"
	.byte	0x24
	.byte	0x3e
	.long	.LASF290
	.long	0x7eed
	.long	0x1eb8
	.uleb128 0x1
	.long	0x7eed
	.byte	0
	.uleb128 0x4b
	.string	"div"
	.byte	0x19
	.byte	0xbb
	.long	.LASF291
	.long	0x96b2
	.long	0x1ed6
	.uleb128 0x1
	.long	0x7eed
	.uleb128 0x1
	.long	0x7eed
	.byte	0
	.uleb128 0x3f
	.long	.LASF292
	.byte	0x1
	.byte	0x6
	.byte	0x3f
	.long	0x2074
	.uleb128 0x24
	.long	.LASF64
	.byte	0x6
	.byte	0x58
	.byte	0x7
	.long	.LASF293
	.byte	0x1
	.long	0x1ef7
	.long	0x1efd
	.uleb128 0x2
	.long	0xa55e
	.byte	0
	.uleb128 0x24
	.long	.LASF64
	.byte	0x6
	.byte	0x5c
	.byte	0x7
	.long	.LASF294
	.byte	0x1
	.long	0x1f12
	.long	0x1f1d
	.uleb128 0x2
	.long	0xa55e
	.uleb128 0x1
	.long	0xa563
	.byte	0
	.uleb128 0x4e
	.long	.LASF35
	.byte	0x6
	.byte	0x64
	.byte	0x18
	.long	.LASF295
	.long	0xa568
	.long	0x1f35
	.long	0x1f40
	.uleb128 0x2
	.long	0xa55e
	.uleb128 0x1
	.long	0xa563
	.byte	0
	.uleb128 0x24
	.long	.LASF70
	.byte	0x6
	.byte	0x68
	.byte	0x7
	.long	.LASF296
	.byte	0x1
	.long	0x1f55
	.long	0x1f5b
	.uleb128 0x2
	.long	0xa55e
	.byte	0
	.uleb128 0x2a
	.long	.LASF74
	.byte	0x6
	.byte	0x46
	.byte	0x1a
	.long	0xa56d
	.uleb128 0x21
	.long	.LASF72
	.byte	0x6
	.byte	0x6b
	.byte	0x7
	.long	.LASF297
	.long	0x1f5b
	.byte	0x1
	.long	0x1f80
	.long	0x1f8b
	.uleb128 0x2
	.long	0xa577
	.uleb128 0x1
	.long	0x1f8b
	.byte	0
	.uleb128 0x2a
	.long	.LASF75
	.byte	0x6
	.byte	0x48
	.byte	0x1a
	.long	0xa57c
	.uleb128 0x2a
	.long	.LASF76
	.byte	0x6
	.byte	0x47
	.byte	0x1a
	.long	0xa581
	.uleb128 0x21
	.long	.LASF72
	.byte	0x6
	.byte	0x6f
	.byte	0x7
	.long	.LASF298
	.long	0x1f97
	.byte	0x1
	.long	0x1fbc
	.long	0x1fc7
	.uleb128 0x2
	.long	0xa577
	.uleb128 0x1
	.long	0x1fc7
	.byte	0
	.uleb128 0x2a
	.long	.LASF78
	.byte	0x6
	.byte	0x49
	.byte	0x1a
	.long	0xa58b
	.uleb128 0x21
	.long	.LASF79
	.byte	0x6
	.byte	0x81
	.byte	0x7
	.long	.LASF299
	.long	0xa56d
	.byte	0x1
	.long	0x1fec
	.long	0x1ffc
	.uleb128 0x2
	.long	0xa55e
	.uleb128 0x1
	.long	0x1ffc
	.uleb128 0x1
	.long	0x9394
	.byte	0
	.uleb128 0x2a
	.long	.LASF81
	.byte	0x6
	.byte	0x43
	.byte	0x1f
	.long	0x2bc
	.uleb128 0x24
	.long	.LASF82
	.byte	0x6
	.byte	0xa7
	.byte	0x7
	.long	.LASF300
	.byte	0x1
	.long	0x201d
	.long	0x202d
	.uleb128 0x2
	.long	0xa55e
	.uleb128 0x1
	.long	0xa56d
	.uleb128 0x1
	.long	0x1ffc
	.byte	0
	.uleb128 0x21
	.long	.LASF84
	.byte	0x6
	.byte	0xc2
	.byte	0x7
	.long	.LASF301
	.long	0x1ffc
	.byte	0x1
	.long	0x2046
	.long	0x204c
	.uleb128 0x2
	.long	0xa577
	.byte	0
	.uleb128 0x45
	.long	.LASF86
	.byte	0x6
	.byte	0xf2
	.byte	0x7
	.long	.LASF302
	.long	0x1ffc
	.long	0x2064
	.long	0x206a
	.uleb128 0x2
	.long	0xa577
	.byte	0
	.uleb128 0xf
	.string	"_Tp"
	.long	0xa24a
	.byte	0
	.uleb128 0x7
	.long	0x1ed6
	.uleb128 0x3f
	.long	.LASF303
	.byte	0x1
	.byte	0x5
	.byte	0x85
	.long	0x20fd
	.uleb128 0x47
	.long	0x1ed6
	.byte	0x1
	.uleb128 0x24
	.long	.LASF89
	.byte	0x5
	.byte	0xa8
	.byte	0x7
	.long	.LASF304
	.byte	0x1
	.long	0x20a0
	.long	0x20a6
	.uleb128 0x2
	.long	0xa590
	.byte	0
	.uleb128 0x24
	.long	.LASF89
	.byte	0x5
	.byte	0xac
	.byte	0x7
	.long	.LASF305
	.byte	0x1
	.long	0x20bb
	.long	0x20c6
	.uleb128 0x2
	.long	0xa590
	.uleb128 0x1
	.long	0xa595
	.byte	0
	.uleb128 0x4e
	.long	.LASF35
	.byte	0x5
	.byte	0xb1
	.byte	0x12
	.long	.LASF306
	.long	0xa59a
	.long	0x20de
	.long	0x20e9
	.uleb128 0x2
	.long	0xa590
	.uleb128 0x1
	.long	0xa595
	.byte	0
	.uleb128 0x6d
	.long	.LASF93
	.long	.LASF307
	.long	0x20f6
	.uleb128 0x2
	.long	0xa590
	.byte	0
	.byte	0
	.uleb128 0x7
	.long	0x2079
	.uleb128 0x5a
	.long	.LASF308
	.byte	0x1
	.byte	0x8
	.value	0x248
	.byte	0xc
	.long	0x2200
	.uleb128 0x1e
	.long	.LASF74
	.byte	0x8
	.value	0x251
	.byte	0xd
	.long	0xa56d
	.uleb128 0x16
	.long	.LASF79
	.byte	0x8
	.value	0x27d
	.byte	0x7
	.long	.LASF309
	.long	0x2110
	.long	0x213d
	.uleb128 0x1
	.long	0xa59f
	.uleb128 0x1
	.long	0x214f
	.byte	0
	.uleb128 0x1e
	.long	.LASF98
	.byte	0x8
	.value	0x24b
	.byte	0xd
	.long	0x2079
	.uleb128 0x7
	.long	0x213d
	.uleb128 0x1e
	.long	.LASF81
	.byte	0x8
	.value	0x260
	.byte	0xd
	.long	0x2bc
	.uleb128 0x16
	.long	.LASF79
	.byte	0x8
	.value	0x28c
	.byte	0x7
	.long	.LASF310
	.long	0x2110
	.long	0x2181
	.uleb128 0x1
	.long	0xa59f
	.uleb128 0x1
	.long	0x214f
	.uleb128 0x1
	.long	0x2181
	.byte	0
	.uleb128 0x1e
	.long	.LASF100
	.byte	0x8
	.value	0x25a
	.byte	0xd
	.long	0x9394
	.uleb128 0x38
	.long	.LASF82
	.byte	0x8
	.value	0x2b0
	.byte	0x7
	.long	.LASF312
	.long	0x21af
	.uleb128 0x1
	.long	0xa59f
	.uleb128 0x1
	.long	0x2110
	.uleb128 0x1
	.long	0x214f
	.byte	0
	.uleb128 0x16
	.long	.LASF84
	.byte	0x8
	.value	0x2ed
	.byte	0x7
	.long	.LASF313
	.long	0x214f
	.long	0x21ca
	.uleb128 0x1
	.long	0xa5a4
	.byte	0
	.uleb128 0x16
	.long	.LASF102
	.byte	0x8
	.value	0x2fd
	.byte	0x7
	.long	.LASF314
	.long	0x213d
	.long	0x21e5
	.uleb128 0x1
	.long	0xa5a4
	.byte	0
	.uleb128 0x1e
	.long	.LASF6
	.byte	0x8
	.value	0x24e
	.byte	0xd
	.long	0xa24a
	.uleb128 0x1e
	.long	.LASF104
	.byte	0x8
	.value	0x26f
	.byte	0x8
	.long	0x2079
	.byte	0
	.uleb128 0x1a
	.long	.LASF315
	.byte	0x18
	.byte	0x2
	.byte	0x5b
	.byte	0xc
	.long	0x2588
	.uleb128 0x1a
	.long	.LASF106
	.byte	0x18
	.byte	0x2
	.byte	0x62
	.byte	0xe
	.long	0x22b3
	.uleb128 0x11
	.long	.LASF108
	.byte	0x2
	.byte	0x64
	.byte	0xa
	.long	0x22b8
	.byte	0
	.uleb128 0x11
	.long	.LASF109
	.byte	0x2
	.byte	0x65
	.byte	0xa
	.long	0x22b8
	.byte	0x8
	.uleb128 0x11
	.long	.LASF110
	.byte	0x2
	.byte	0x66
	.byte	0xa
	.long	0x22b8
	.byte	0x10
	.uleb128 0x23
	.long	.LASF106
	.byte	0x2
	.byte	0x69
	.byte	0x2
	.long	.LASF316
	.long	0x2255
	.long	0x225b
	.uleb128 0x2
	.long	0xa5b3
	.byte	0
	.uleb128 0x23
	.long	.LASF106
	.byte	0x2
	.byte	0x6f
	.byte	0x2
	.long	.LASF317
	.long	0x226f
	.long	0x227a
	.uleb128 0x2
	.long	0xa5b3
	.uleb128 0x1
	.long	0xa5b8
	.byte	0
	.uleb128 0x23
	.long	.LASF113
	.byte	0x2
	.byte	0x77
	.byte	0x2
	.long	.LASF318
	.long	0x228e
	.long	0x2299
	.uleb128 0x2
	.long	0xa5b3
	.uleb128 0x1
	.long	0xa5bd
	.byte	0
	.uleb128 0x66
	.long	.LASF115
	.byte	0x80
	.long	.LASF320
	.long	0x22a7
	.uleb128 0x2
	.long	0xa5b3
	.uleb128 0x1
	.long	0xa5c2
	.byte	0
	.byte	0
	.uleb128 0x7
	.long	0x220d
	.uleb128 0x8
	.long	.LASF74
	.byte	0x2
	.byte	0x60
	.byte	0x9
	.long	0x860a
	.uleb128 0x1a
	.long	.LASF116
	.byte	0x18
	.byte	0x2
	.byte	0x8b
	.byte	0xe
	.long	0x2371
	.uleb128 0x36
	.long	0x2079
	.uleb128 0x36
	.long	0x220d
	.uleb128 0x23
	.long	.LASF116
	.byte	0x2
	.byte	0x8f
	.byte	0x2
	.long	.LASF321
	.long	0x22ef
	.long	0x22f5
	.uleb128 0x2
	.long	0xa5c7
	.byte	0
	.uleb128 0x23
	.long	.LASF116
	.byte	0x2
	.byte	0x98
	.byte	0x2
	.long	.LASF322
	.long	0x2309
	.long	0x2314
	.uleb128 0x2
	.long	0xa5c7
	.uleb128 0x1
	.long	0xa5cc
	.byte	0
	.uleb128 0x23
	.long	.LASF116
	.byte	0x2
	.byte	0xa0
	.byte	0x2
	.long	.LASF323
	.long	0x2328
	.long	0x2333
	.uleb128 0x2
	.long	0xa5c7
	.uleb128 0x1
	.long	0xa5d1
	.byte	0
	.uleb128 0x23
	.long	.LASF116
	.byte	0x2
	.byte	0xa5
	.byte	0x2
	.long	.LASF324
	.long	0x2347
	.long	0x2352
	.uleb128 0x2
	.long	0xa5c7
	.uleb128 0x1
	.long	0xa5d6
	.byte	0
	.uleb128 0x66
	.long	.LASF116
	.byte	0xaa
	.long	.LASF325
	.long	0x2360
	.uleb128 0x2
	.long	0xa5c7
	.uleb128 0x1
	.long	0xa5d6
	.uleb128 0x1
	.long	0xa5d1
	.byte	0
	.byte	0
	.uleb128 0x8
	.long	.LASF122
	.byte	0x2
	.byte	0x5e
	.byte	0x15
	.long	0x863b
	.uleb128 0x7
	.long	0x2371
	.uleb128 0x37
	.long	.LASF123
	.value	0x133
	.byte	0x7
	.long	.LASF326
	.long	0xa5db
	.long	0x239a
	.long	0x23a0
	.uleb128 0x2
	.long	0xa5e0
	.byte	0
	.uleb128 0x37
	.long	.LASF123
	.value	0x138
	.byte	0x7
	.long	.LASF327
	.long	0xa5cc
	.long	0x23b8
	.long	0x23be
	.uleb128 0x2
	.long	0xa5e5
	.byte	0
	.uleb128 0x1e
	.long	.LASF98
	.byte	0x2
	.value	0x12f
	.byte	0x16
	.long	0x2079
	.uleb128 0x7
	.long	0x23be
	.uleb128 0x37
	.long	.LASF126
	.value	0x13d
	.byte	0x7
	.long	.LASF328
	.long	0x23be
	.long	0x23e8
	.long	0x23ee
	.uleb128 0x2
	.long	0xa5e5
	.byte	0
	.uleb128 0x4f
	.long	.LASF128
	.value	0x141
	.long	.LASF329
	.long	0x2401
	.long	0x2407
	.uleb128 0x2
	.long	0xa5e0
	.byte	0
	.uleb128 0x1c
	.long	.LASF128
	.value	0x147
	.long	.LASF330
	.long	0x241a
	.long	0x2425
	.uleb128 0x2
	.long	0xa5e0
	.uleb128 0x1
	.long	0xa5ea
	.byte	0
	.uleb128 0x1c
	.long	.LASF128
	.value	0x14d
	.long	.LASF331
	.long	0x2438
	.long	0x2443
	.uleb128 0x2
	.long	0xa5e0
	.uleb128 0x1
	.long	0x2bc
	.byte	0
	.uleb128 0x1c
	.long	.LASF128
	.value	0x153
	.long	.LASF332
	.long	0x2456
	.long	0x2466
	.uleb128 0x2
	.long	0xa5e0
	.uleb128 0x1
	.long	0x2bc
	.uleb128 0x1
	.long	0xa5ea
	.byte	0
	.uleb128 0x4f
	.long	.LASF128
	.value	0x158
	.long	.LASF333
	.long	0x2479
	.long	0x2484
	.uleb128 0x2
	.long	0xa5e0
	.uleb128 0x1
	.long	0xa5ef
	.byte	0
	.uleb128 0x1c
	.long	.LASF128
	.value	0x15d
	.long	.LASF334
	.long	0x2497
	.long	0x24a2
	.uleb128 0x2
	.long	0xa5e0
	.uleb128 0x1
	.long	0xa5d6
	.byte	0
	.uleb128 0x1c
	.long	.LASF128
	.value	0x161
	.long	.LASF335
	.long	0x24b5
	.long	0x24c5
	.uleb128 0x2
	.long	0xa5e0
	.uleb128 0x1
	.long	0xa5ef
	.uleb128 0x1
	.long	0xa5ea
	.byte	0
	.uleb128 0x1c
	.long	.LASF128
	.value	0x16f
	.long	.LASF336
	.long	0x24d8
	.long	0x24e8
	.uleb128 0x2
	.long	0xa5e0
	.uleb128 0x1
	.long	0xa5ea
	.uleb128 0x1
	.long	0xa5ef
	.byte	0
	.uleb128 0x1c
	.long	.LASF137
	.value	0x175
	.long	.LASF337
	.long	0x24fb
	.long	0x2501
	.uleb128 0x2
	.long	0xa5e0
	.byte	0
	.uleb128 0x50
	.long	.LASF139
	.value	0x17e
	.byte	0x14
	.long	0x22c4
	.byte	0
	.uleb128 0x37
	.long	.LASF140
	.value	0x182
	.byte	0x7
	.long	.LASF338
	.long	0x22b8
	.long	0x2526
	.long	0x2531
	.uleb128 0x2
	.long	0xa5e0
	.uleb128 0x1
	.long	0x2bc
	.byte	0
	.uleb128 0x1c
	.long	.LASF142
	.value	0x18a
	.long	.LASF339
	.long	0x2544
	.long	0x2554
	.uleb128 0x2
	.long	0xa5e0
	.uleb128 0x1
	.long	0x22b8
	.uleb128 0x1
	.long	0x2bc
	.byte	0
	.uleb128 0x10
	.long	.LASF144
	.byte	0x2
	.value	0x195
	.byte	0x7
	.long	.LASF340
	.byte	0x2
	.long	0x256a
	.long	0x2575
	.uleb128 0x2
	.long	0xa5e0
	.uleb128 0x1
	.long	0x2bc
	.byte	0
	.uleb128 0xf
	.string	"_Tp"
	.long	0xa24a
	.uleb128 0xa
	.long	.LASF146
	.long	0x2079
	.byte	0
	.uleb128 0x7
	.long	0x2200
	.uleb128 0x1a
	.long	.LASF341
	.byte	0x1
	.byte	0x14
	.byte	0xa9
	.byte	0xc
	.long	0x25b0
	.uleb128 0x8
	.long	.LASF148
	.byte	0x14
	.byte	0xaa
	.byte	0xd
	.long	0x2079
	.uleb128 0xa
	.long	.LASF149
	.long	0x2079
	.byte	0
	.uleb128 0x48
	.long	.LASF342
	.byte	0x18
	.byte	0x2
	.value	0x1cc
	.long	0x3158
	.uleb128 0x19
	.byte	0x2
	.value	0x1cc
	.byte	0xb
	.long	0x250e
	.uleb128 0x19
	.byte	0x2
	.value	0x1cc
	.byte	0xb
	.long	0x2531
	.uleb128 0x19
	.byte	0x2
	.value	0x1cc
	.byte	0xb
	.long	0x2501
	.uleb128 0x19
	.byte	0x2
	.value	0x1cc
	.byte	0xb
	.long	0x23a0
	.uleb128 0x19
	.byte	0x2
	.value	0x1cc
	.byte	0xb
	.long	0x2382
	.uleb128 0x19
	.byte	0x2
	.value	0x1cc
	.byte	0xb
	.long	0x23d0
	.uleb128 0x47
	.long	0x2200
	.byte	0x2
	.uleb128 0x16
	.long	.LASF151
	.byte	0x2
	.value	0x1f6
	.byte	0x7
	.long	.LASF343
	.long	0x9345
	.long	0x2614
	.uleb128 0x1
	.long	0x63c
	.byte	0
	.uleb128 0x16
	.long	.LASF151
	.byte	0x2
	.value	0x1ff
	.byte	0x7
	.long	.LASF344
	.long	0x9345
	.long	0x262f
	.uleb128 0x1
	.long	0x3ac
	.byte	0
	.uleb128 0x6f
	.long	.LASF345
	.long	.LASF347
	.long	0x9345
	.uleb128 0x15
	.long	.LASF74
	.byte	0x2
	.value	0x1e6
	.byte	0x29
	.long	0x22b8
	.uleb128 0x16
	.long	.LASF154
	.byte	0x2
	.value	0x20c
	.byte	0x7
	.long	.LASF348
	.long	0x263c
	.long	0x2673
	.uleb128 0x1
	.long	0x263c
	.uleb128 0x1
	.long	0x263c
	.uleb128 0x1
	.long	0x263c
	.uleb128 0x1
	.long	0xa5f4
	.byte	0
	.uleb128 0x1e
	.long	.LASF122
	.byte	0x2
	.value	0x1e1
	.byte	0x2f
	.long	0x2371
	.uleb128 0x7
	.long	0x2673
	.uleb128 0x51
	.long	.LASF156
	.value	0x227
	.long	.LASF349
	.long	0x2698
	.long	0x269e
	.uleb128 0x2
	.long	0xa5f9
	.byte	0
	.uleb128 0x41
	.long	.LASF156
	.byte	0x2
	.value	0x232
	.long	.LASF350
	.long	0x26b2
	.long	0x26bd
	.uleb128 0x2
	.long	0xa5f9
	.uleb128 0x1
	.long	0xa603
	.byte	0
	.uleb128 0x15
	.long	.LASF98
	.byte	0x2
	.value	0x1f1
	.byte	0x1a
	.long	0x2079
	.uleb128 0x7
	.long	0x26bd
	.uleb128 0x41
	.long	.LASF156
	.byte	0x2
	.value	0x240
	.long	.LASF351
	.long	0x26e3
	.long	0x26f3
	.uleb128 0x2
	.long	0xa5f9
	.uleb128 0x1
	.long	0x26f3
	.uleb128 0x1
	.long	0xa603
	.byte	0
	.uleb128 0x15
	.long	.LASF81
	.byte	0x2
	.value	0x1ef
	.byte	0x1a
	.long	0x2bc
	.uleb128 0x10
	.long	.LASF156
	.byte	0x2
	.value	0x24d
	.byte	0x7
	.long	.LASF352
	.byte	0x1
	.long	0x2716
	.long	0x272b
	.uleb128 0x2
	.long	0xa5f9
	.uleb128 0x1
	.long	0x26f3
	.uleb128 0x1
	.long	0xa608
	.uleb128 0x1
	.long	0xa603
	.byte	0
	.uleb128 0x15
	.long	.LASF6
	.byte	0x2
	.value	0x1e5
	.byte	0x17
	.long	0xa24a
	.uleb128 0x7
	.long	0x272b
	.uleb128 0x10
	.long	.LASF156
	.byte	0x2
	.value	0x26d
	.byte	0x7
	.long	.LASF353
	.byte	0x1
	.long	0x2753
	.long	0x275e
	.uleb128 0x2
	.long	0xa5f9
	.uleb128 0x1
	.long	0xa60d
	.byte	0
	.uleb128 0x51
	.long	.LASF156
	.value	0x280
	.long	.LASF354
	.long	0x2771
	.long	0x277c
	.uleb128 0x2
	.long	0xa5f9
	.uleb128 0x1
	.long	0xa612
	.byte	0
	.uleb128 0x10
	.long	.LASF156
	.byte	0x2
	.value	0x284
	.byte	0x7
	.long	.LASF355
	.byte	0x1
	.long	0x2792
	.long	0x27a2
	.uleb128 0x2
	.long	0xa5f9
	.uleb128 0x1
	.long	0xa60d
	.uleb128 0x1
	.long	0xa617
	.byte	0
	.uleb128 0x1c
	.long	.LASF156
	.value	0x28f
	.long	.LASF356
	.long	0x27b5
	.long	0x27ca
	.uleb128 0x2
	.long	0xa5f9
	.uleb128 0x1
	.long	0xa612
	.uleb128 0x1
	.long	0xa603
	.uleb128 0x1
	.long	0x63c
	.byte	0
	.uleb128 0x1c
	.long	.LASF156
	.value	0x294
	.long	.LASF357
	.long	0x27dd
	.long	0x27f2
	.uleb128 0x2
	.long	0xa5f9
	.uleb128 0x1
	.long	0xa612
	.uleb128 0x1
	.long	0xa603
	.uleb128 0x1
	.long	0x3ac
	.byte	0
	.uleb128 0x10
	.long	.LASF156
	.byte	0x2
	.value	0x2a7
	.byte	0x7
	.long	.LASF358
	.byte	0x1
	.long	0x2808
	.long	0x2818
	.uleb128 0x2
	.long	0xa5f9
	.uleb128 0x1
	.long	0xa612
	.uleb128 0x1
	.long	0xa617
	.byte	0
	.uleb128 0x10
	.long	.LASF156
	.byte	0x2
	.value	0x2ba
	.byte	0x7
	.long	.LASF359
	.byte	0x1
	.long	0x282e
	.long	0x283e
	.uleb128 0x2
	.long	0xa5f9
	.uleb128 0x1
	.long	0x316e
	.uleb128 0x1
	.long	0xa603
	.byte	0
	.uleb128 0x10
	.long	.LASF168
	.byte	0x2
	.value	0x316
	.byte	0x7
	.long	.LASF360
	.byte	0x1
	.long	0x2854
	.long	0x285a
	.uleb128 0x2
	.long	0xa5f9
	.byte	0
	.uleb128 0x21
	.long	.LASF35
	.byte	0x7
	.byte	0xd6
	.byte	0x5
	.long	.LASF361
	.long	0xa61c
	.byte	0x1
	.long	0x2873
	.long	0x287e
	.uleb128 0x2
	.long	0xa5f9
	.uleb128 0x1
	.long	0xa60d
	.byte	0
	.uleb128 0x6
	.long	.LASF35
	.byte	0x2
	.value	0x337
	.byte	0x7
	.long	.LASF362
	.long	0xa61c
	.byte	0x1
	.long	0x2898
	.long	0x28a3
	.uleb128 0x2
	.long	0xa5f9
	.uleb128 0x1
	.long	0xa612
	.byte	0
	.uleb128 0x6
	.long	.LASF35
	.byte	0x2
	.value	0x34d
	.byte	0x7
	.long	.LASF363
	.long	0xa61c
	.byte	0x1
	.long	0x28bd
	.long	0x28c8
	.uleb128 0x2
	.long	0xa5f9
	.uleb128 0x1
	.long	0x316e
	.byte	0
	.uleb128 0x10
	.long	.LASF173
	.byte	0x2
	.value	0x361
	.byte	0x7
	.long	.LASF364
	.byte	0x1
	.long	0x28de
	.long	0x28ee
	.uleb128 0x2
	.long	0xa5f9
	.uleb128 0x1
	.long	0x26f3
	.uleb128 0x1
	.long	0xa608
	.byte	0
	.uleb128 0x10
	.long	.LASF173
	.byte	0x2
	.value	0x390
	.byte	0x7
	.long	.LASF365
	.byte	0x1
	.long	0x2904
	.long	0x290f
	.uleb128 0x2
	.long	0xa5f9
	.uleb128 0x1
	.long	0x316e
	.byte	0
	.uleb128 0x15
	.long	.LASF176
	.byte	0x2
	.value	0x1ea
	.byte	0x3d
	.long	0x865b
	.uleb128 0x6
	.long	.LASF177
	.byte	0x2
	.value	0x3dc
	.byte	0x7
	.long	.LASF366
	.long	0x290f
	.byte	0x1
	.long	0x2936
	.long	0x293c
	.uleb128 0x2
	.long	0xa5f9
	.byte	0
	.uleb128 0x15
	.long	.LASF179
	.byte	0x2
	.value	0x1ec
	.byte	0x7
	.long	0x888e
	.uleb128 0x6
	.long	.LASF177
	.byte	0x2
	.value	0x3e6
	.byte	0x7
	.long	.LASF367
	.long	0x293c
	.byte	0x1
	.long	0x2963
	.long	0x2969
	.uleb128 0x2
	.long	0xa621
	.byte	0
	.uleb128 0x3a
	.string	"end"
	.value	0x3f0
	.long	.LASF368
	.long	0x290f
	.long	0x2980
	.long	0x2986
	.uleb128 0x2
	.long	0xa5f9
	.byte	0
	.uleb128 0x3a
	.string	"end"
	.value	0x3fa
	.long	.LASF369
	.long	0x293c
	.long	0x299d
	.long	0x29a3
	.uleb128 0x2
	.long	0xa621
	.byte	0
	.uleb128 0x15
	.long	.LASF183
	.byte	0x2
	.value	0x1ee
	.byte	0x30
	.long	0x3173
	.uleb128 0x6
	.long	.LASF184
	.byte	0x2
	.value	0x404
	.byte	0x7
	.long	.LASF370
	.long	0x29a3
	.byte	0x1
	.long	0x29ca
	.long	0x29d0
	.uleb128 0x2
	.long	0xa5f9
	.byte	0
	.uleb128 0x15
	.long	.LASF186
	.byte	0x2
	.value	0x1ed
	.byte	0x35
	.long	0x3178
	.uleb128 0x6
	.long	.LASF184
	.byte	0x2
	.value	0x40e
	.byte	0x7
	.long	.LASF371
	.long	0x29d0
	.byte	0x1
	.long	0x29f7
	.long	0x29fd
	.uleb128 0x2
	.long	0xa621
	.byte	0
	.uleb128 0x6
	.long	.LASF188
	.byte	0x2
	.value	0x418
	.byte	0x7
	.long	.LASF372
	.long	0x29a3
	.byte	0x1
	.long	0x2a17
	.long	0x2a1d
	.uleb128 0x2
	.long	0xa5f9
	.byte	0
	.uleb128 0x6
	.long	.LASF188
	.byte	0x2
	.value	0x422
	.byte	0x7
	.long	.LASF373
	.long	0x29d0
	.byte	0x1
	.long	0x2a37
	.long	0x2a3d
	.uleb128 0x2
	.long	0xa621
	.byte	0
	.uleb128 0x6
	.long	.LASF191
	.byte	0x2
	.value	0x42d
	.byte	0x7
	.long	.LASF374
	.long	0x293c
	.byte	0x1
	.long	0x2a57
	.long	0x2a5d
	.uleb128 0x2
	.long	0xa621
	.byte	0
	.uleb128 0x6
	.long	.LASF193
	.byte	0x2
	.value	0x437
	.byte	0x7
	.long	.LASF375
	.long	0x293c
	.byte	0x1
	.long	0x2a77
	.long	0x2a7d
	.uleb128 0x2
	.long	0xa621
	.byte	0
	.uleb128 0x6
	.long	.LASF195
	.byte	0x2
	.value	0x441
	.byte	0x7
	.long	.LASF376
	.long	0x29d0
	.byte	0x1
	.long	0x2a97
	.long	0x2a9d
	.uleb128 0x2
	.long	0xa621
	.byte	0
	.uleb128 0x6
	.long	.LASF197
	.byte	0x2
	.value	0x44b
	.byte	0x7
	.long	.LASF377
	.long	0x29d0
	.byte	0x1
	.long	0x2ab7
	.long	0x2abd
	.uleb128 0x2
	.long	0xa621
	.byte	0
	.uleb128 0x6
	.long	.LASF199
	.byte	0x2
	.value	0x453
	.byte	0x7
	.long	.LASF378
	.long	0x26f3
	.byte	0x1
	.long	0x2ad7
	.long	0x2add
	.uleb128 0x2
	.long	0xa621
	.byte	0
	.uleb128 0x6
	.long	.LASF84
	.byte	0x2
	.value	0x45e
	.byte	0x7
	.long	.LASF379
	.long	0x26f3
	.byte	0x1
	.long	0x2af7
	.long	0x2afd
	.uleb128 0x2
	.long	0xa621
	.byte	0
	.uleb128 0x10
	.long	.LASF202
	.byte	0x2
	.value	0x46d
	.byte	0x7
	.long	.LASF380
	.byte	0x1
	.long	0x2b13
	.long	0x2b1e
	.uleb128 0x2
	.long	0xa5f9
	.uleb128 0x1
	.long	0x26f3
	.byte	0
	.uleb128 0x10
	.long	.LASF202
	.byte	0x2
	.value	0x482
	.byte	0x7
	.long	.LASF381
	.byte	0x1
	.long	0x2b34
	.long	0x2b44
	.uleb128 0x2
	.long	0xa5f9
	.uleb128 0x1
	.long	0x26f3
	.uleb128 0x1
	.long	0xa608
	.byte	0
	.uleb128 0x10
	.long	.LASF205
	.byte	0x2
	.value	0x4a4
	.byte	0x7
	.long	.LASF382
	.byte	0x1
	.long	0x2b5a
	.long	0x2b60
	.uleb128 0x2
	.long	0xa5f9
	.byte	0
	.uleb128 0x6
	.long	.LASF207
	.byte	0x2
	.value	0x4ae
	.byte	0x7
	.long	.LASF383
	.long	0x26f3
	.byte	0x1
	.long	0x2b7a
	.long	0x2b80
	.uleb128 0x2
	.long	0xa621
	.byte	0
	.uleb128 0x6
	.long	.LASF209
	.byte	0x2
	.value	0x4bd
	.byte	0x7
	.long	.LASF384
	.long	0x9345
	.byte	0x1
	.long	0x2b9a
	.long	0x2ba0
	.uleb128 0x2
	.long	0xa621
	.byte	0
	.uleb128 0x24
	.long	.LASF211
	.byte	0x7
	.byte	0x46
	.byte	0x5
	.long	.LASF385
	.byte	0x1
	.long	0x2bb5
	.long	0x2bc0
	.uleb128 0x2
	.long	0xa5f9
	.uleb128 0x1
	.long	0x26f3
	.byte	0
	.uleb128 0x15
	.long	.LASF75
	.byte	0x2
	.value	0x1e8
	.byte	0x32
	.long	0x8616
	.uleb128 0x6
	.long	.LASF213
	.byte	0x2
	.value	0x4e3
	.byte	0x7
	.long	.LASF386
	.long	0x2bc0
	.byte	0x1
	.long	0x2be7
	.long	0x2bf2
	.uleb128 0x2
	.long	0xa5f9
	.uleb128 0x1
	.long	0x26f3
	.byte	0
	.uleb128 0x15
	.long	.LASF78
	.byte	0x2
	.value	0x1e9
	.byte	0x37
	.long	0x8622
	.uleb128 0x6
	.long	.LASF213
	.byte	0x2
	.value	0x4f6
	.byte	0x7
	.long	.LASF387
	.long	0x2bf2
	.byte	0x1
	.long	0x2c19
	.long	0x2c24
	.uleb128 0x2
	.long	0xa621
	.uleb128 0x1
	.long	0x26f3
	.byte	0
	.uleb128 0x10
	.long	.LASF216
	.byte	0x2
	.value	0x500
	.byte	0x7
	.long	.LASF388
	.byte	0x2
	.long	0x2c3a
	.long	0x2c45
	.uleb128 0x2
	.long	0xa621
	.uleb128 0x1
	.long	0x26f3
	.byte	0
	.uleb128 0x3a
	.string	"at"
	.value	0x517
	.long	.LASF389
	.long	0x2bc0
	.long	0x2c5b
	.long	0x2c66
	.uleb128 0x2
	.long	0xa5f9
	.uleb128 0x1
	.long	0x26f3
	.byte	0
	.uleb128 0x3a
	.string	"at"
	.value	0x52a
	.long	.LASF390
	.long	0x2bf2
	.long	0x2c7c
	.long	0x2c87
	.uleb128 0x2
	.long	0xa621
	.uleb128 0x1
	.long	0x26f3
	.byte	0
	.uleb128 0x6
	.long	.LASF220
	.byte	0x2
	.value	0x536
	.byte	0x7
	.long	.LASF391
	.long	0x2bc0
	.byte	0x1
	.long	0x2ca1
	.long	0x2ca7
	.uleb128 0x2
	.long	0xa5f9
	.byte	0
	.uleb128 0x6
	.long	.LASF220
	.byte	0x2
	.value	0x542
	.byte	0x7
	.long	.LASF392
	.long	0x2bf2
	.byte	0x1
	.long	0x2cc1
	.long	0x2cc7
	.uleb128 0x2
	.long	0xa621
	.byte	0
	.uleb128 0x6
	.long	.LASF223
	.byte	0x2
	.value	0x54e
	.byte	0x7
	.long	.LASF393
	.long	0x2bc0
	.byte	0x1
	.long	0x2ce1
	.long	0x2ce7
	.uleb128 0x2
	.long	0xa5f9
	.byte	0
	.uleb128 0x6
	.long	.LASF223
	.byte	0x2
	.value	0x55a
	.byte	0x7
	.long	.LASF394
	.long	0x2bf2
	.byte	0x1
	.long	0x2d01
	.long	0x2d07
	.uleb128 0x2
	.long	0xa621
	.byte	0
	.uleb128 0x6
	.long	.LASF226
	.byte	0x2
	.value	0x569
	.byte	0x7
	.long	.LASF395
	.long	0xa56d
	.byte	0x1
	.long	0x2d21
	.long	0x2d27
	.uleb128 0x2
	.long	0xa5f9
	.byte	0
	.uleb128 0x6
	.long	.LASF226
	.byte	0x2
	.value	0x56e
	.byte	0x7
	.long	.LASF396
	.long	0xa581
	.byte	0x1
	.long	0x2d41
	.long	0x2d47
	.uleb128 0x2
	.long	0xa621
	.byte	0
	.uleb128 0x10
	.long	.LASF229
	.byte	0x2
	.value	0x57e
	.byte	0x7
	.long	.LASF397
	.byte	0x1
	.long	0x2d5d
	.long	0x2d68
	.uleb128 0x2
	.long	0xa5f9
	.uleb128 0x1
	.long	0xa608
	.byte	0
	.uleb128 0x10
	.long	.LASF229
	.byte	0x2
	.value	0x58f
	.byte	0x7
	.long	.LASF398
	.byte	0x1
	.long	0x2d7e
	.long	0x2d89
	.uleb128 0x2
	.long	0xa5f9
	.uleb128 0x1
	.long	0xa62b
	.byte	0
	.uleb128 0x10
	.long	.LASF232
	.byte	0x2
	.value	0x5a7
	.byte	0x7
	.long	.LASF399
	.byte	0x1
	.long	0x2d9f
	.long	0x2da5
	.uleb128 0x2
	.long	0xa5f9
	.byte	0
	.uleb128 0x21
	.long	.LASF234
	.byte	0x7
	.byte	0x89
	.byte	0x5
	.long	.LASF400
	.long	0x290f
	.byte	0x1
	.long	0x2dbe
	.long	0x2dce
	.uleb128 0x2
	.long	0xa5f9
	.uleb128 0x1
	.long	0x293c
	.uleb128 0x1
	.long	0xa608
	.byte	0
	.uleb128 0x6
	.long	.LASF234
	.byte	0x2
	.value	0x5ee
	.byte	0x7
	.long	.LASF401
	.long	0x290f
	.byte	0x1
	.long	0x2de8
	.long	0x2df8
	.uleb128 0x2
	.long	0xa5f9
	.uleb128 0x1
	.long	0x293c
	.uleb128 0x1
	.long	0xa62b
	.byte	0
	.uleb128 0x6
	.long	.LASF234
	.byte	0x2
	.value	0x600
	.byte	0x7
	.long	.LASF402
	.long	0x290f
	.byte	0x1
	.long	0x2e12
	.long	0x2e22
	.uleb128 0x2
	.long	0xa5f9
	.uleb128 0x1
	.long	0x293c
	.uleb128 0x1
	.long	0x316e
	.byte	0
	.uleb128 0x6
	.long	.LASF234
	.byte	0x2
	.value	0x61a
	.byte	0x7
	.long	.LASF403
	.long	0x290f
	.byte	0x1
	.long	0x2e3c
	.long	0x2e51
	.uleb128 0x2
	.long	0xa5f9
	.uleb128 0x1
	.long	0x293c
	.uleb128 0x1
	.long	0x26f3
	.uleb128 0x1
	.long	0xa608
	.byte	0
	.uleb128 0x6
	.long	.LASF239
	.byte	0x2
	.value	0x6f6
	.byte	0x7
	.long	.LASF404
	.long	0x290f
	.byte	0x1
	.long	0x2e6b
	.long	0x2e76
	.uleb128 0x2
	.long	0xa5f9
	.uleb128 0x1
	.long	0x293c
	.byte	0
	.uleb128 0x6
	.long	.LASF239
	.byte	0x2
	.value	0x712
	.byte	0x7
	.long	.LASF405
	.long	0x290f
	.byte	0x1
	.long	0x2e90
	.long	0x2ea0
	.uleb128 0x2
	.long	0xa5f9
	.uleb128 0x1
	.long	0x293c
	.uleb128 0x1
	.long	0x293c
	.byte	0
	.uleb128 0x10
	.long	.LASF40
	.byte	0x2
	.value	0x72a
	.byte	0x7
	.long	.LASF406
	.byte	0x1
	.long	0x2eb6
	.long	0x2ec1
	.uleb128 0x2
	.long	0xa5f9
	.uleb128 0x1
	.long	0xa61c
	.byte	0
	.uleb128 0x10
	.long	.LASF243
	.byte	0x2
	.value	0x73d
	.byte	0x7
	.long	.LASF407
	.byte	0x1
	.long	0x2ed7
	.long	0x2edd
	.uleb128 0x2
	.long	0xa5f9
	.byte	0
	.uleb128 0x10
	.long	.LASF245
	.byte	0x2
	.value	0x7c3
	.byte	0x7
	.long	.LASF408
	.byte	0x2
	.long	0x2ef3
	.long	0x2f03
	.uleb128 0x2
	.long	0xa5f9
	.uleb128 0x1
	.long	0x26f3
	.uleb128 0x1
	.long	0xa608
	.byte	0
	.uleb128 0x10
	.long	.LASF247
	.byte	0x2
	.value	0x7ce
	.byte	0x7
	.long	.LASF409
	.byte	0x2
	.long	0x2f19
	.long	0x2f24
	.uleb128 0x2
	.long	0xa5f9
	.uleb128 0x1
	.long	0x26f3
	.byte	0
	.uleb128 0x10
	.long	.LASF249
	.byte	0x7
	.value	0x112
	.byte	0x5
	.long	.LASF410
	.byte	0x2
	.long	0x2f3a
	.long	0x2f4a
	.uleb128 0x2
	.long	0xa5f9
	.uleb128 0x1
	.long	0x2bc
	.uleb128 0x1
	.long	0xa608
	.byte	0
	.uleb128 0x10
	.long	.LASF251
	.byte	0x7
	.value	0x296
	.byte	0x5
	.long	.LASF411
	.byte	0x2
	.long	0x2f60
	.long	0x2f75
	.uleb128 0x2
	.long	0xa5f9
	.uleb128 0x1
	.long	0x290f
	.uleb128 0x1
	.long	0x26f3
	.uleb128 0x1
	.long	0xa608
	.byte	0
	.uleb128 0x10
	.long	.LASF253
	.byte	0x7
	.value	0x300
	.byte	0x5
	.long	.LASF412
	.byte	0x2
	.long	0x2f8b
	.long	0x2f9b
	.uleb128 0x2
	.long	0xa5f9
	.uleb128 0x1
	.long	0x26f3
	.uleb128 0x1
	.long	0xa608
	.byte	0
	.uleb128 0x10
	.long	.LASF255
	.byte	0x7
	.value	0x339
	.byte	0x5
	.long	.LASF413
	.byte	0x2
	.long	0x2fb1
	.long	0x2fbc
	.uleb128 0x2
	.long	0xa5f9
	.uleb128 0x1
	.long	0x26f3
	.byte	0
	.uleb128 0x6
	.long	.LASF257
	.byte	0x7
	.value	0x396
	.byte	0x5
	.long	.LASF414
	.long	0x9345
	.byte	0x2
	.long	0x2fd6
	.long	0x2fdc
	.uleb128 0x2
	.long	0xa5f9
	.byte	0
	.uleb128 0x6
	.long	.LASF259
	.byte	0x7
	.value	0x16f
	.byte	0x5
	.long	.LASF415
	.long	0x290f
	.byte	0x2
	.long	0x2ff6
	.long	0x3006
	.uleb128 0x2
	.long	0xa5f9
	.uleb128 0x1
	.long	0x293c
	.uleb128 0x1
	.long	0xa62b
	.byte	0
	.uleb128 0x6
	.long	.LASF261
	.byte	0x2
	.value	0x889
	.byte	0x7
	.long	.LASF416
	.long	0x290f
	.byte	0x2
	.long	0x3020
	.long	0x3030
	.uleb128 0x2
	.long	0xa5f9
	.uleb128 0x1
	.long	0x293c
	.uleb128 0x1
	.long	0xa62b
	.byte	0
	.uleb128 0x6
	.long	.LASF263
	.byte	0x2
	.value	0x890
	.byte	0x7
	.long	.LASF417
	.long	0x26f3
	.byte	0x2
	.long	0x304a
	.long	0x305a
	.uleb128 0x2
	.long	0xa621
	.uleb128 0x1
	.long	0x26f3
	.uleb128 0x1
	.long	0x7911
	.byte	0
	.uleb128 0x52
	.long	.LASF265
	.value	0x89b
	.long	.LASF418
	.long	0x26f3
	.long	0x3078
	.uleb128 0x1
	.long	0x26f3
	.uleb128 0x1
	.long	0xa603
	.byte	0
	.uleb128 0x52
	.long	.LASF267
	.value	0x8a4
	.long	.LASF419
	.long	0x26f3
	.long	0x3091
	.uleb128 0x1
	.long	0xa630
	.byte	0
	.uleb128 0x10
	.long	.LASF269
	.byte	0x2
	.value	0x8b5
	.byte	0x7
	.long	.LASF420
	.byte	0x2
	.long	0x30a7
	.long	0x30b2
	.uleb128 0x2
	.long	0xa5f9
	.uleb128 0x1
	.long	0x263c
	.byte	0
	.uleb128 0x21
	.long	.LASF271
	.byte	0x7
	.byte	0xb9
	.byte	0x5
	.long	.LASF421
	.long	0x290f
	.byte	0x2
	.long	0x30cb
	.long	0x30d6
	.uleb128 0x2
	.long	0xa5f9
	.uleb128 0x1
	.long	0x290f
	.byte	0
	.uleb128 0x21
	.long	.LASF271
	.byte	0x7
	.byte	0xc7
	.byte	0x5
	.long	.LASF422
	.long	0x290f
	.byte	0x2
	.long	0x30ef
	.long	0x30ff
	.uleb128 0x2
	.long	0xa5f9
	.uleb128 0x1
	.long	0x290f
	.uleb128 0x1
	.long	0x290f
	.byte	0
	.uleb128 0x1c
	.long	.LASF274
	.value	0x8cf
	.long	.LASF423
	.long	0x3112
	.long	0x3122
	.uleb128 0x2
	.long	0xa5f9
	.uleb128 0x1
	.long	0xa612
	.uleb128 0x1
	.long	0x63c
	.byte	0
	.uleb128 0x1c
	.long	.LASF274
	.value	0x8db
	.long	.LASF424
	.long	0x3135
	.long	0x3145
	.uleb128 0x2
	.long	0xa5f9
	.uleb128 0x1
	.long	0xa612
	.uleb128 0x1
	.long	0x3ac
	.byte	0
	.uleb128 0xf
	.string	"_Tp"
	.long	0xa24a
	.uleb128 0x67
	.long	.LASF146
	.long	0x2079
	.byte	0
	.uleb128 0x7
	.long	0x25b0
	.uleb128 0x8
	.long	.LASF279
	.byte	0x14
	.byte	0xad
	.byte	0xb
	.long	0x259a
	.uleb128 0x7
	.long	0x315d
	.uleb128 0x34
	.long	.LASF425
	.uleb128 0x34
	.long	.LASF426
	.uleb128 0x34
	.long	.LASF427
	.uleb128 0x3f
	.long	.LASF428
	.byte	0x1
	.byte	0x6
	.byte	0x3f
	.long	0x3329
	.uleb128 0x53
	.long	.LASF64
	.byte	0x6
	.byte	0x58
	.byte	0x7
	.long	0x3199
	.long	0x319f
	.uleb128 0x2
	.long	0xa635
	.byte	0
	.uleb128 0x53
	.long	.LASF64
	.byte	0x6
	.byte	0x5c
	.byte	0x7
	.long	0x31af
	.long	0x31ba
	.uleb128 0x2
	.long	0xa635
	.uleb128 0x1
	.long	0xa63f
	.byte	0
	.uleb128 0x89
	.long	.LASF35
	.byte	0x6
	.byte	0x64
	.byte	0x18
	.long	0xa644
	.long	0x31cf
	.long	0x31da
	.uleb128 0x2
	.long	0xa635
	.uleb128 0x1
	.long	0xa63f
	.byte	0
	.uleb128 0x53
	.long	.LASF70
	.byte	0x6
	.byte	0x68
	.byte	0x7
	.long	0x31ea
	.long	0x31f0
	.uleb128 0x2
	.long	0xa635
	.byte	0
	.uleb128 0x2a
	.long	.LASF74
	.byte	0x6
	.byte	0x46
	.byte	0x1a
	.long	0xa649
	.uleb128 0x54
	.long	.LASF72
	.byte	0x6
	.byte	0x6b
	.byte	0x7
	.long	0x31f0
	.byte	0x1
	.long	0x3211
	.long	0x321c
	.uleb128 0x2
	.long	0xa653
	.uleb128 0x1
	.long	0x321c
	.byte	0
	.uleb128 0x2a
	.long	.LASF75
	.byte	0x6
	.byte	0x48
	.byte	0x1a
	.long	0xa65d
	.uleb128 0x2a
	.long	.LASF76
	.byte	0x6
	.byte	0x47
	.byte	0x1a
	.long	0xa662
	.uleb128 0x54
	.long	.LASF72
	.byte	0x6
	.byte	0x6f
	.byte	0x7
	.long	0x3228
	.byte	0x1
	.long	0x3249
	.long	0x3254
	.uleb128 0x2
	.long	0xa653
	.uleb128 0x1
	.long	0x3254
	.byte	0
	.uleb128 0x2a
	.long	.LASF78
	.byte	0x6
	.byte	0x49
	.byte	0x1a
	.long	0xa667
	.uleb128 0x54
	.long	.LASF79
	.byte	0x6
	.byte	0x81
	.byte	0x7
	.long	0xa649
	.byte	0x1
	.long	0x3275
	.long	0x3285
	.uleb128 0x2
	.long	0xa635
	.uleb128 0x1
	.long	0x3285
	.uleb128 0x1
	.long	0x9394
	.byte	0
	.uleb128 0x2a
	.long	.LASF81
	.byte	0x6
	.byte	0x43
	.byte	0x1f
	.long	0x2bc
	.uleb128 0x53
	.long	.LASF82
	.byte	0x6
	.byte	0xa7
	.byte	0x7
	.long	0x32a1
	.long	0x32b1
	.uleb128 0x2
	.long	0xa635
	.uleb128 0x1
	.long	0xa649
	.uleb128 0x1
	.long	0x3285
	.byte	0
	.uleb128 0x54
	.long	.LASF84
	.byte	0x6
	.byte	0xc2
	.byte	0x7
	.long	0x3285
	.byte	0x1
	.long	0x32c6
	.long	0x32cc
	.uleb128 0x2
	.long	0xa653
	.byte	0
	.uleb128 0xaa
	.long	.LASF86
	.byte	0x6
	.byte	0xf2
	.byte	0x7
	.long	0x3285
	.long	0x32e1
	.long	0x32e7
	.uleb128 0x2
	.long	0xa653
	.byte	0
	.uleb128 0x53
	.long	.LASF429
	.byte	0x6
	.byte	0xc9
	.byte	0x2
	.long	0x330f
	.long	0x331f
	.uleb128 0xf
	.string	"_Up"
	.long	0xa4c5
	.uleb128 0x55
	.long	.LASF432
	.long	0x330f
	.uleb128 0x56
	.long	0xa667
	.byte	0
	.uleb128 0x2
	.long	0xa635
	.uleb128 0x1
	.long	0xa649
	.uleb128 0x1
	.long	0xa667
	.byte	0
	.uleb128 0xf
	.string	"_Tp"
	.long	0xa4c5
	.byte	0
	.uleb128 0x7
	.long	0x317d
	.uleb128 0x3f
	.long	.LASF430
	.byte	0x1
	.byte	0x5
	.byte	0x85
	.long	0x33a6
	.uleb128 0x47
	.long	0x317d
	.byte	0x1
	.uleb128 0x53
	.long	.LASF89
	.byte	0x5
	.byte	0xa8
	.byte	0x7
	.long	0x3350
	.long	0x3356
	.uleb128 0x2
	.long	0xa66c
	.byte	0
	.uleb128 0x53
	.long	.LASF89
	.byte	0x5
	.byte	0xac
	.byte	0x7
	.long	0x3366
	.long	0x3371
	.uleb128 0x2
	.long	0xa66c
	.uleb128 0x1
	.long	0xa676
	.byte	0
	.uleb128 0x89
	.long	.LASF35
	.byte	0x5
	.byte	0xb1
	.byte	0x12
	.long	0xa67b
	.long	0x3386
	.long	0x3391
	.uleb128 0x2
	.long	0xa66c
	.uleb128 0x1
	.long	0xa676
	.byte	0
	.uleb128 0xab
	.long	.LASF93
	.byte	0x5
	.byte	0xbd
	.byte	0x7
	.byte	0x1
	.long	0x339f
	.uleb128 0x2
	.long	0xa66c
	.byte	0
	.byte	0
	.uleb128 0x7
	.long	0x332e
	.uleb128 0x5a
	.long	.LASF431
	.byte	0x1
	.byte	0x8
	.value	0x248
	.byte	0xc
	.long	0x34c7
	.uleb128 0x1e
	.long	.LASF74
	.byte	0x8
	.value	0x251
	.byte	0xd
	.long	0xa649
	.uleb128 0x46
	.long	.LASF79
	.byte	0x8
	.value	0x27d
	.byte	0x7
	.long	0x33b9
	.long	0x33e2
	.uleb128 0x1
	.long	0xa680
	.uleb128 0x1
	.long	0x33f4
	.byte	0
	.uleb128 0x1e
	.long	.LASF98
	.byte	0x8
	.value	0x24b
	.byte	0xd
	.long	0x332e
	.uleb128 0x7
	.long	0x33e2
	.uleb128 0x1e
	.long	.LASF81
	.byte	0x8
	.value	0x260
	.byte	0xd
	.long	0x2bc
	.uleb128 0x46
	.long	.LASF79
	.byte	0x8
	.value	0x28c
	.byte	0x7
	.long	0x33b9
	.long	0x3422
	.uleb128 0x1
	.long	0xa680
	.uleb128 0x1
	.long	0x33f4
	.uleb128 0x1
	.long	0x3422
	.byte	0
	.uleb128 0x1e
	.long	.LASF100
	.byte	0x8
	.value	0x25a
	.byte	0xd
	.long	0x9394
	.uleb128 0x8a
	.long	.LASF82
	.value	0x2b0
	.byte	0x7
	.long	0x344c
	.uleb128 0x1
	.long	0xa680
	.uleb128 0x1
	.long	0x33b9
	.uleb128 0x1
	.long	0x33f4
	.byte	0
	.uleb128 0x46
	.long	.LASF84
	.byte	0x8
	.value	0x2ed
	.byte	0x7
	.long	0x33f4
	.long	0x3463
	.uleb128 0x1
	.long	0xa685
	.byte	0
	.uleb128 0x46
	.long	.LASF102
	.byte	0x8
	.value	0x2fd
	.byte	0x7
	.long	0x33e2
	.long	0x347a
	.uleb128 0x1
	.long	0xa685
	.byte	0
	.uleb128 0x1e
	.long	.LASF6
	.byte	0x8
	.value	0x24e
	.byte	0xd
	.long	0xa4c5
	.uleb128 0x1e
	.long	.LASF104
	.byte	0x8
	.value	0x26f
	.byte	0x8
	.long	0x332e
	.uleb128 0xac
	.long	.LASF429
	.byte	0x8
	.value	0x2c1
	.byte	0x2
	.uleb128 0xf
	.string	"_Up"
	.long	0xa4c5
	.uleb128 0x55
	.long	.LASF432
	.long	0x34b6
	.uleb128 0x56
	.long	0xa667
	.byte	0
	.uleb128 0x1
	.long	0xa680
	.uleb128 0x1
	.long	0xa649
	.uleb128 0x1
	.long	0xa667
	.byte	0
	.byte	0
	.uleb128 0x1a
	.long	.LASF433
	.byte	0x18
	.byte	0x2
	.byte	0x5b
	.byte	0xc
	.long	0x3802
	.uleb128 0x1a
	.long	.LASF106
	.byte	0x18
	.byte	0x2
	.byte	0x62
	.byte	0xe
	.long	0x3567
	.uleb128 0x11
	.long	.LASF108
	.byte	0x2
	.byte	0x64
	.byte	0xa
	.long	0x356c
	.byte	0
	.uleb128 0x11
	.long	.LASF109
	.byte	0x2
	.byte	0x65
	.byte	0xa
	.long	0x356c
	.byte	0x8
	.uleb128 0x11
	.long	.LASF110
	.byte	0x2
	.byte	0x66
	.byte	0xa
	.long	0x356c
	.byte	0x10
	.uleb128 0x57
	.long	.LASF106
	.byte	0x69
	.long	0x3516
	.long	0x351c
	.uleb128 0x2
	.long	0xa694
	.byte	0
	.uleb128 0x57
	.long	.LASF106
	.byte	0x6f
	.long	0x352a
	.long	0x3535
	.uleb128 0x2
	.long	0xa694
	.uleb128 0x1
	.long	0xa69e
	.byte	0
	.uleb128 0x57
	.long	.LASF113
	.byte	0x77
	.long	0x3543
	.long	0x354e
	.uleb128 0x2
	.long	0xa694
	.uleb128 0x1
	.long	0xa6a3
	.byte	0
	.uleb128 0xad
	.long	.LASF115
	.byte	0x2
	.byte	0x80
	.byte	0x2
	.long	0x355b
	.uleb128 0x2
	.long	0xa694
	.uleb128 0x1
	.long	0xa6a8
	.byte	0
	.byte	0
	.uleb128 0x7
	.long	0x34d4
	.uleb128 0x8
	.long	.LASF74
	.byte	0x2
	.byte	0x60
	.byte	0x9
	.long	0x8b65
	.uleb128 0x1a
	.long	.LASF116
	.byte	0x18
	.byte	0x2
	.byte	0x8b
	.byte	0xe
	.long	0x361d
	.uleb128 0x36
	.long	0x332e
	.uleb128 0x36
	.long	0x34d4
	.uleb128 0x57
	.long	.LASF116
	.byte	0x8f
	.long	0x359d
	.long	0x35a3
	.uleb128 0x2
	.long	0xa6ad
	.byte	0
	.uleb128 0x57
	.long	.LASF116
	.byte	0x98
	.long	0x35b1
	.long	0x35bc
	.uleb128 0x2
	.long	0xa6ad
	.uleb128 0x1
	.long	0xa6b7
	.byte	0
	.uleb128 0x57
	.long	.LASF116
	.byte	0xa0
	.long	0x35ca
	.long	0x35d5
	.uleb128 0x2
	.long	0xa6ad
	.uleb128 0x1
	.long	0xa6bc
	.byte	0
	.uleb128 0x57
	.long	.LASF116
	.byte	0xa5
	.long	0x35e3
	.long	0x35ee
	.uleb128 0x2
	.long	0xa6ad
	.uleb128 0x1
	.long	0xa6c1
	.byte	0
	.uleb128 0x57
	.long	.LASF116
	.byte	0xaa
	.long	0x35fc
	.long	0x360c
	.uleb128 0x2
	.long	0xa6ad
	.uleb128 0x1
	.long	0xa6c1
	.uleb128 0x1
	.long	0xa6bc
	.byte	0
	.uleb128 0xae
	.long	.LASF481
	.long	0x3616
	.uleb128 0x2
	.long	0xa6ad
	.byte	0
	.byte	0
	.uleb128 0x8
	.long	.LASF122
	.byte	0x2
	.byte	0x5e
	.byte	0x15
	.long	0x8b96
	.uleb128 0x7
	.long	0x361d
	.uleb128 0x68
	.long	.LASF123
	.value	0x133
	.byte	0x7
	.long	0xa6c6
	.long	0x3642
	.long	0x3648
	.uleb128 0x2
	.long	0xa6cb
	.byte	0
	.uleb128 0x68
	.long	.LASF123
	.value	0x138
	.byte	0x7
	.long	0xa6b7
	.long	0x365c
	.long	0x3662
	.uleb128 0x2
	.long	0xa6d5
	.byte	0
	.uleb128 0x1e
	.long	.LASF98
	.byte	0x2
	.value	0x12f
	.byte	0x16
	.long	0x332e
	.uleb128 0x7
	.long	0x3662
	.uleb128 0x68
	.long	.LASF126
	.value	0x13d
	.byte	0x7
	.long	0x3662
	.long	0x3688
	.long	0x368e
	.uleb128 0x2
	.long	0xa6d5
	.byte	0
	.uleb128 0x8b
	.long	.LASF128
	.value	0x141
	.long	0x369e
	.long	0x36a4
	.uleb128 0x2
	.long	0xa6cb
	.byte	0
	.uleb128 0x3c
	.long	.LASF128
	.value	0x147
	.byte	0x7
	.long	0x36b4
	.long	0x36bf
	.uleb128 0x2
	.long	0xa6cb
	.uleb128 0x1
	.long	0xa6df
	.byte	0
	.uleb128 0x3c
	.long	.LASF128
	.value	0x14d
	.byte	0x7
	.long	0x36cf
	.long	0x36da
	.uleb128 0x2
	.long	0xa6cb
	.uleb128 0x1
	.long	0x2bc
	.byte	0
	.uleb128 0x3c
	.long	.LASF128
	.value	0x153
	.byte	0x7
	.long	0x36ea
	.long	0x36fa
	.uleb128 0x2
	.long	0xa6cb
	.uleb128 0x1
	.long	0x2bc
	.uleb128 0x1
	.long	0xa6df
	.byte	0
	.uleb128 0x8b
	.long	.LASF128
	.value	0x158
	.long	0x370a
	.long	0x3715
	.uleb128 0x2
	.long	0xa6cb
	.uleb128 0x1
	.long	0xa6e4
	.byte	0
	.uleb128 0x3c
	.long	.LASF128
	.value	0x15d
	.byte	0x7
	.long	0x3725
	.long	0x3730
	.uleb128 0x2
	.long	0xa6cb
	.uleb128 0x1
	.long	0xa6c1
	.byte	0
	.uleb128 0x3c
	.long	.LASF128
	.value	0x161
	.byte	0x7
	.long	0x3740
	.long	0x3750
	.uleb128 0x2
	.long	0xa6cb
	.uleb128 0x1
	.long	0xa6e4
	.uleb128 0x1
	.long	0xa6df
	.byte	0
	.uleb128 0x3c
	.long	.LASF128
	.value	0x16f
	.byte	0x7
	.long	0x3760
	.long	0x3770
	.uleb128 0x2
	.long	0xa6cb
	.uleb128 0x1
	.long	0xa6df
	.uleb128 0x1
	.long	0xa6e4
	.byte	0
	.uleb128 0x3c
	.long	.LASF137
	.value	0x175
	.byte	0x7
	.long	0x3780
	.long	0x3786
	.uleb128 0x2
	.long	0xa6cb
	.byte	0
	.uleb128 0x50
	.long	.LASF139
	.value	0x17e
	.byte	0x14
	.long	0x3578
	.byte	0
	.uleb128 0x68
	.long	.LASF140
	.value	0x182
	.byte	0x7
	.long	0x356c
	.long	0x37a7
	.long	0x37b2
	.uleb128 0x2
	.long	0xa6cb
	.uleb128 0x1
	.long	0x2bc
	.byte	0
	.uleb128 0x3c
	.long	.LASF142
	.value	0x18a
	.byte	0x7
	.long	0x37c2
	.long	0x37d2
	.uleb128 0x2
	.long	0xa6cb
	.uleb128 0x1
	.long	0x356c
	.uleb128 0x1
	.long	0x2bc
	.byte	0
	.uleb128 0x2d
	.long	.LASF144
	.byte	0x2
	.value	0x195
	.byte	0x7
	.byte	0x2
	.long	0x37e4
	.long	0x37ef
	.uleb128 0x2
	.long	0xa6cb
	.uleb128 0x1
	.long	0x2bc
	.byte	0
	.uleb128 0xf
	.string	"_Tp"
	.long	0xa4c5
	.uleb128 0xa
	.long	.LASF146
	.long	0x332e
	.byte	0
	.uleb128 0x7
	.long	0x34c7
	.uleb128 0x1a
	.long	.LASF434
	.byte	0x1
	.byte	0x14
	.byte	0xa9
	.byte	0xc
	.long	0x382a
	.uleb128 0x8
	.long	.LASF148
	.byte	0x14
	.byte	0xaa
	.byte	0xd
	.long	0x332e
	.uleb128 0xa
	.long	.LASF149
	.long	0x332e
	.byte	0
	.uleb128 0x48
	.long	.LASF435
	.byte	0x18
	.byte	0x2
	.value	0x1cc
	.long	0x4386
	.uleb128 0x19
	.byte	0x2
	.value	0x1cc
	.byte	0xb
	.long	0x3793
	.uleb128 0x19
	.byte	0x2
	.value	0x1cc
	.byte	0xb
	.long	0x37b2
	.uleb128 0x19
	.byte	0x2
	.value	0x1cc
	.byte	0xb
	.long	0x3786
	.uleb128 0x19
	.byte	0x2
	.value	0x1cc
	.byte	0xb
	.long	0x3648
	.uleb128 0x19
	.byte	0x2
	.value	0x1cc
	.byte	0xb
	.long	0x362e
	.uleb128 0x19
	.byte	0x2
	.value	0x1cc
	.byte	0xb
	.long	0x3674
	.uleb128 0x47
	.long	0x34c7
	.byte	0x2
	.uleb128 0x46
	.long	.LASF151
	.byte	0x2
	.value	0x1f6
	.byte	0x7
	.long	0x9345
	.long	0x388a
	.uleb128 0x1
	.long	0x63c
	.byte	0
	.uleb128 0x46
	.long	.LASF151
	.byte	0x2
	.value	0x1ff
	.byte	0x7
	.long	0x9345
	.long	0x38a1
	.uleb128 0x1
	.long	0x3ac
	.byte	0
	.uleb128 0xaf
	.long	.LASF345
	.byte	0x2
	.value	0x203
	.byte	0x7
	.long	0x9345
	.uleb128 0x15
	.long	.LASF74
	.byte	0x2
	.value	0x1e6
	.byte	0x29
	.long	0x356c
	.uleb128 0x46
	.long	.LASF154
	.byte	0x2
	.value	0x20c
	.byte	0x7
	.long	0x38af
	.long	0x38e2
	.uleb128 0x1
	.long	0x38af
	.uleb128 0x1
	.long	0x38af
	.uleb128 0x1
	.long	0x38af
	.uleb128 0x1
	.long	0xa6e9
	.byte	0
	.uleb128 0x1e
	.long	.LASF122
	.byte	0x2
	.value	0x1e1
	.byte	0x2f
	.long	0x361d
	.uleb128 0x7
	.long	0x38e2
	.uleb128 0x8c
	.long	.LASF156
	.value	0x227
	.long	0x3904
	.long	0x390a
	.uleb128 0x2
	.long	0xa6ee
	.byte	0
	.uleb128 0x7a
	.long	.LASF156
	.byte	0x2
	.value	0x232
	.long	0x391a
	.long	0x3925
	.uleb128 0x2
	.long	0xa6ee
	.uleb128 0x1
	.long	0xa6f8
	.byte	0
	.uleb128 0x15
	.long	.LASF98
	.byte	0x2
	.value	0x1f1
	.byte	0x1a
	.long	0x332e
	.uleb128 0x7
	.long	0x3925
	.uleb128 0x7a
	.long	.LASF156
	.byte	0x2
	.value	0x240
	.long	0x3947
	.long	0x3957
	.uleb128 0x2
	.long	0xa6ee
	.uleb128 0x1
	.long	0x3957
	.uleb128 0x1
	.long	0xa6f8
	.byte	0
	.uleb128 0x15
	.long	.LASF81
	.byte	0x2
	.value	0x1ef
	.byte	0x1a
	.long	0x2bc
	.uleb128 0x7
	.long	0x3957
	.uleb128 0x2d
	.long	.LASF156
	.byte	0x2
	.value	0x24d
	.byte	0x7
	.byte	0x1
	.long	0x397b
	.long	0x3990
	.uleb128 0x2
	.long	0xa6ee
	.uleb128 0x1
	.long	0x3957
	.uleb128 0x1
	.long	0xa6fd
	.uleb128 0x1
	.long	0xa6f8
	.byte	0
	.uleb128 0x15
	.long	.LASF6
	.byte	0x2
	.value	0x1e5
	.byte	0x17
	.long	0xa4c5
	.uleb128 0x7
	.long	0x3990
	.uleb128 0x2d
	.long	.LASF156
	.byte	0x2
	.value	0x26d
	.byte	0x7
	.byte	0x1
	.long	0x39b4
	.long	0x39bf
	.uleb128 0x2
	.long	0xa6ee
	.uleb128 0x1
	.long	0xa702
	.byte	0
	.uleb128 0x8c
	.long	.LASF156
	.value	0x280
	.long	0x39cf
	.long	0x39da
	.uleb128 0x2
	.long	0xa6ee
	.uleb128 0x1
	.long	0xa707
	.byte	0
	.uleb128 0x2d
	.long	.LASF156
	.byte	0x2
	.value	0x284
	.byte	0x7
	.byte	0x1
	.long	0x39ec
	.long	0x39fc
	.uleb128 0x2
	.long	0xa6ee
	.uleb128 0x1
	.long	0xa702
	.uleb128 0x1
	.long	0xa70c
	.byte	0
	.uleb128 0x3c
	.long	.LASF156
	.value	0x28f
	.byte	0x7
	.long	0x3a0c
	.long	0x3a21
	.uleb128 0x2
	.long	0xa6ee
	.uleb128 0x1
	.long	0xa707
	.uleb128 0x1
	.long	0xa6f8
	.uleb128 0x1
	.long	0x63c
	.byte	0
	.uleb128 0x3c
	.long	.LASF156
	.value	0x294
	.byte	0x7
	.long	0x3a31
	.long	0x3a46
	.uleb128 0x2
	.long	0xa6ee
	.uleb128 0x1
	.long	0xa707
	.uleb128 0x1
	.long	0xa6f8
	.uleb128 0x1
	.long	0x3ac
	.byte	0
	.uleb128 0x2d
	.long	.LASF156
	.byte	0x2
	.value	0x2a7
	.byte	0x7
	.byte	0x1
	.long	0x3a58
	.long	0x3a68
	.uleb128 0x2
	.long	0xa6ee
	.uleb128 0x1
	.long	0xa707
	.uleb128 0x1
	.long	0xa70c
	.byte	0
	.uleb128 0x2d
	.long	.LASF156
	.byte	0x2
	.value	0x2ba
	.byte	0x7
	.byte	0x1
	.long	0x3a7a
	.long	0x3a8a
	.uleb128 0x2
	.long	0xa6ee
	.uleb128 0x1
	.long	0x439c
	.uleb128 0x1
	.long	0xa6f8
	.byte	0
	.uleb128 0x2d
	.long	.LASF168
	.byte	0x2
	.value	0x316
	.byte	0x7
	.byte	0x1
	.long	0x3a9c
	.long	0x3aa2
	.uleb128 0x2
	.long	0xa6ee
	.byte	0
	.uleb128 0x54
	.long	.LASF35
	.byte	0x7
	.byte	0xd6
	.byte	0x5
	.long	0xa711
	.byte	0x1
	.long	0x3ab7
	.long	0x3ac2
	.uleb128 0x2
	.long	0xa6ee
	.uleb128 0x1
	.long	0xa702
	.byte	0
	.uleb128 0x1f
	.long	.LASF35
	.byte	0x2
	.value	0x337
	.byte	0x7
	.long	0xa711
	.byte	0x1
	.long	0x3ad8
	.long	0x3ae3
	.uleb128 0x2
	.long	0xa6ee
	.uleb128 0x1
	.long	0xa707
	.byte	0
	.uleb128 0x1f
	.long	.LASF35
	.byte	0x2
	.value	0x34d
	.byte	0x7
	.long	0xa711
	.byte	0x1
	.long	0x3af9
	.long	0x3b04
	.uleb128 0x2
	.long	0xa6ee
	.uleb128 0x1
	.long	0x439c
	.byte	0
	.uleb128 0x2d
	.long	.LASF173
	.byte	0x2
	.value	0x361
	.byte	0x7
	.byte	0x1
	.long	0x3b16
	.long	0x3b26
	.uleb128 0x2
	.long	0xa6ee
	.uleb128 0x1
	.long	0x3957
	.uleb128 0x1
	.long	0xa6fd
	.byte	0
	.uleb128 0x2d
	.long	.LASF173
	.byte	0x2
	.value	0x390
	.byte	0x7
	.byte	0x1
	.long	0x3b38
	.long	0x3b43
	.uleb128 0x2
	.long	0xa6ee
	.uleb128 0x1
	.long	0x439c
	.byte	0
	.uleb128 0x15
	.long	.LASF176
	.byte	0x2
	.value	0x1ea
	.byte	0x3d
	.long	0x8bb6
	.uleb128 0x1f
	.long	.LASF177
	.byte	0x2
	.value	0x3dc
	.byte	0x7
	.long	0x3b43
	.byte	0x1
	.long	0x3b66
	.long	0x3b6c
	.uleb128 0x2
	.long	0xa6ee
	.byte	0
	.uleb128 0x15
	.long	.LASF179
	.byte	0x2
	.value	0x1ec
	.byte	0x7
	.long	0x8db1
	.uleb128 0x1f
	.long	.LASF177
	.byte	0x2
	.value	0x3e6
	.byte	0x7
	.long	0x3b6c
	.byte	0x1
	.long	0x3b8f
	.long	0x3b95
	.uleb128 0x2
	.long	0xa716
	.byte	0
	.uleb128 0x70
	.string	"end"
	.value	0x3f0
	.long	0x3b43
	.long	0x3ba8
	.long	0x3bae
	.uleb128 0x2
	.long	0xa6ee
	.byte	0
	.uleb128 0x70
	.string	"end"
	.value	0x3fa
	.long	0x3b6c
	.long	0x3bc1
	.long	0x3bc7
	.uleb128 0x2
	.long	0xa716
	.byte	0
	.uleb128 0x15
	.long	.LASF183
	.byte	0x2
	.value	0x1ee
	.byte	0x30
	.long	0x43a1
	.uleb128 0x1f
	.long	.LASF184
	.byte	0x2
	.value	0x404
	.byte	0x7
	.long	0x3bc7
	.byte	0x1
	.long	0x3bea
	.long	0x3bf0
	.uleb128 0x2
	.long	0xa6ee
	.byte	0
	.uleb128 0x15
	.long	.LASF186
	.byte	0x2
	.value	0x1ed
	.byte	0x35
	.long	0x43a6
	.uleb128 0x1f
	.long	.LASF184
	.byte	0x2
	.value	0x40e
	.byte	0x7
	.long	0x3bf0
	.byte	0x1
	.long	0x3c13
	.long	0x3c19
	.uleb128 0x2
	.long	0xa716
	.byte	0
	.uleb128 0x1f
	.long	.LASF188
	.byte	0x2
	.value	0x418
	.byte	0x7
	.long	0x3bc7
	.byte	0x1
	.long	0x3c2f
	.long	0x3c35
	.uleb128 0x2
	.long	0xa6ee
	.byte	0
	.uleb128 0x1f
	.long	.LASF188
	.byte	0x2
	.value	0x422
	.byte	0x7
	.long	0x3bf0
	.byte	0x1
	.long	0x3c4b
	.long	0x3c51
	.uleb128 0x2
	.long	0xa716
	.byte	0
	.uleb128 0x1f
	.long	.LASF191
	.byte	0x2
	.value	0x42d
	.byte	0x7
	.long	0x3b6c
	.byte	0x1
	.long	0x3c67
	.long	0x3c6d
	.uleb128 0x2
	.long	0xa716
	.byte	0
	.uleb128 0x1f
	.long	.LASF193
	.byte	0x2
	.value	0x437
	.byte	0x7
	.long	0x3b6c
	.byte	0x1
	.long	0x3c83
	.long	0x3c89
	.uleb128 0x2
	.long	0xa716
	.byte	0
	.uleb128 0x1f
	.long	.LASF195
	.byte	0x2
	.value	0x441
	.byte	0x7
	.long	0x3bf0
	.byte	0x1
	.long	0x3c9f
	.long	0x3ca5
	.uleb128 0x2
	.long	0xa716
	.byte	0
	.uleb128 0x1f
	.long	.LASF197
	.byte	0x2
	.value	0x44b
	.byte	0x7
	.long	0x3bf0
	.byte	0x1
	.long	0x3cbb
	.long	0x3cc1
	.uleb128 0x2
	.long	0xa716
	.byte	0
	.uleb128 0x1f
	.long	.LASF199
	.byte	0x2
	.value	0x453
	.byte	0x7
	.long	0x3957
	.byte	0x1
	.long	0x3cd7
	.long	0x3cdd
	.uleb128 0x2
	.long	0xa716
	.byte	0
	.uleb128 0x1f
	.long	.LASF84
	.byte	0x2
	.value	0x45e
	.byte	0x7
	.long	0x3957
	.byte	0x1
	.long	0x3cf3
	.long	0x3cf9
	.uleb128 0x2
	.long	0xa716
	.byte	0
	.uleb128 0x2d
	.long	.LASF202
	.byte	0x2
	.value	0x46d
	.byte	0x7
	.byte	0x1
	.long	0x3d0b
	.long	0x3d16
	.uleb128 0x2
	.long	0xa6ee
	.uleb128 0x1
	.long	0x3957
	.byte	0
	.uleb128 0x2d
	.long	.LASF202
	.byte	0x2
	.value	0x482
	.byte	0x7
	.byte	0x1
	.long	0x3d28
	.long	0x3d38
	.uleb128 0x2
	.long	0xa6ee
	.uleb128 0x1
	.long	0x3957
	.uleb128 0x1
	.long	0xa6fd
	.byte	0
	.uleb128 0x2d
	.long	.LASF205
	.byte	0x2
	.value	0x4a4
	.byte	0x7
	.byte	0x1
	.long	0x3d4a
	.long	0x3d50
	.uleb128 0x2
	.long	0xa6ee
	.byte	0
	.uleb128 0x1f
	.long	.LASF207
	.byte	0x2
	.value	0x4ae
	.byte	0x7
	.long	0x3957
	.byte	0x1
	.long	0x3d66
	.long	0x3d6c
	.uleb128 0x2
	.long	0xa716
	.byte	0
	.uleb128 0x1f
	.long	.LASF209
	.byte	0x2
	.value	0x4bd
	.byte	0x7
	.long	0x9345
	.byte	0x1
	.long	0x3d82
	.long	0x3d88
	.uleb128 0x2
	.long	0xa716
	.byte	0
	.uleb128 0x53
	.long	.LASF211
	.byte	0x7
	.byte	0x46
	.byte	0x5
	.long	0x3d98
	.long	0x3da3
	.uleb128 0x2
	.long	0xa6ee
	.uleb128 0x1
	.long	0x3957
	.byte	0
	.uleb128 0x15
	.long	.LASF75
	.byte	0x2
	.value	0x1e8
	.byte	0x32
	.long	0x8b71
	.uleb128 0x1f
	.long	.LASF213
	.byte	0x2
	.value	0x4e3
	.byte	0x7
	.long	0x3da3
	.byte	0x1
	.long	0x3dc6
	.long	0x3dd1
	.uleb128 0x2
	.long	0xa6ee
	.uleb128 0x1
	.long	0x3957
	.byte	0
	.uleb128 0x15
	.long	.LASF78
	.byte	0x2
	.value	0x1e9
	.byte	0x37
	.long	0x8b7d
	.uleb128 0x1f
	.long	.LASF213
	.byte	0x2
	.value	0x4f6
	.byte	0x7
	.long	0x3dd1
	.byte	0x1
	.long	0x3df4
	.long	0x3dff
	.uleb128 0x2
	.long	0xa716
	.uleb128 0x1
	.long	0x3957
	.byte	0
	.uleb128 0x2d
	.long	.LASF216
	.byte	0x2
	.value	0x500
	.byte	0x7
	.byte	0x2
	.long	0x3e11
	.long	0x3e1c
	.uleb128 0x2
	.long	0xa716
	.uleb128 0x1
	.long	0x3957
	.byte	0
	.uleb128 0x70
	.string	"at"
	.value	0x517
	.long	0x3da3
	.long	0x3e2e
	.long	0x3e39
	.uleb128 0x2
	.long	0xa6ee
	.uleb128 0x1
	.long	0x3957
	.byte	0
	.uleb128 0x70
	.string	"at"
	.value	0x52a
	.long	0x3dd1
	.long	0x3e4b
	.long	0x3e56
	.uleb128 0x2
	.long	0xa716
	.uleb128 0x1
	.long	0x3957
	.byte	0
	.uleb128 0x1f
	.long	.LASF220
	.byte	0x2
	.value	0x536
	.byte	0x7
	.long	0x3da3
	.byte	0x1
	.long	0x3e6c
	.long	0x3e72
	.uleb128 0x2
	.long	0xa6ee
	.byte	0
	.uleb128 0x1f
	.long	.LASF220
	.byte	0x2
	.value	0x542
	.byte	0x7
	.long	0x3dd1
	.byte	0x1
	.long	0x3e88
	.long	0x3e8e
	.uleb128 0x2
	.long	0xa716
	.byte	0
	.uleb128 0x1f
	.long	.LASF223
	.byte	0x2
	.value	0x54e
	.byte	0x7
	.long	0x3da3
	.byte	0x1
	.long	0x3ea4
	.long	0x3eaa
	.uleb128 0x2
	.long	0xa6ee
	.byte	0
	.uleb128 0x1f
	.long	.LASF223
	.byte	0x2
	.value	0x55a
	.byte	0x7
	.long	0x3dd1
	.byte	0x1
	.long	0x3ec0
	.long	0x3ec6
	.uleb128 0x2
	.long	0xa716
	.byte	0
	.uleb128 0x1f
	.long	.LASF226
	.byte	0x2
	.value	0x569
	.byte	0x7
	.long	0xa649
	.byte	0x1
	.long	0x3edc
	.long	0x3ee2
	.uleb128 0x2
	.long	0xa6ee
	.byte	0
	.uleb128 0x1f
	.long	.LASF226
	.byte	0x2
	.value	0x56e
	.byte	0x7
	.long	0xa662
	.byte	0x1
	.long	0x3ef8
	.long	0x3efe
	.uleb128 0x2
	.long	0xa716
	.byte	0
	.uleb128 0x2d
	.long	.LASF229
	.byte	0x2
	.value	0x57e
	.byte	0x7
	.byte	0x1
	.long	0x3f10
	.long	0x3f1b
	.uleb128 0x2
	.long	0xa6ee
	.uleb128 0x1
	.long	0xa6fd
	.byte	0
	.uleb128 0x2d
	.long	.LASF229
	.byte	0x2
	.value	0x58f
	.byte	0x7
	.byte	0x1
	.long	0x3f2d
	.long	0x3f38
	.uleb128 0x2
	.long	0xa6ee
	.uleb128 0x1
	.long	0xa720
	.byte	0
	.uleb128 0x2d
	.long	.LASF232
	.byte	0x2
	.value	0x5a7
	.byte	0x7
	.byte	0x1
	.long	0x3f4a
	.long	0x3f50
	.uleb128 0x2
	.long	0xa6ee
	.byte	0
	.uleb128 0x54
	.long	.LASF234
	.byte	0x7
	.byte	0x89
	.byte	0x5
	.long	0x3b43
	.byte	0x1
	.long	0x3f65
	.long	0x3f75
	.uleb128 0x2
	.long	0xa6ee
	.uleb128 0x1
	.long	0x3b6c
	.uleb128 0x1
	.long	0xa6fd
	.byte	0
	.uleb128 0x1f
	.long	.LASF234
	.byte	0x2
	.value	0x5ee
	.byte	0x7
	.long	0x3b43
	.byte	0x1
	.long	0x3f8b
	.long	0x3f9b
	.uleb128 0x2
	.long	0xa6ee
	.uleb128 0x1
	.long	0x3b6c
	.uleb128 0x1
	.long	0xa720
	.byte	0
	.uleb128 0x1f
	.long	.LASF234
	.byte	0x2
	.value	0x600
	.byte	0x7
	.long	0x3b43
	.byte	0x1
	.long	0x3fb1
	.long	0x3fc1
	.uleb128 0x2
	.long	0xa6ee
	.uleb128 0x1
	.long	0x3b6c
	.uleb128 0x1
	.long	0x439c
	.byte	0
	.uleb128 0x1f
	.long	.LASF234
	.byte	0x2
	.value	0x61a
	.byte	0x7
	.long	0x3b43
	.byte	0x1
	.long	0x3fd7
	.long	0x3fec
	.uleb128 0x2
	.long	0xa6ee
	.uleb128 0x1
	.long	0x3b6c
	.uleb128 0x1
	.long	0x3957
	.uleb128 0x1
	.long	0xa6fd
	.byte	0
	.uleb128 0x1f
	.long	.LASF239
	.byte	0x2
	.value	0x6f6
	.byte	0x7
	.long	0x3b43
	.byte	0x1
	.long	0x4002
	.long	0x400d
	.uleb128 0x2
	.long	0xa6ee
	.uleb128 0x1
	.long	0x3b6c
	.byte	0
	.uleb128 0x1f
	.long	.LASF239
	.byte	0x2
	.value	0x712
	.byte	0x7
	.long	0x3b43
	.byte	0x1
	.long	0x4023
	.long	0x4033
	.uleb128 0x2
	.long	0xa6ee
	.uleb128 0x1
	.long	0x3b6c
	.uleb128 0x1
	.long	0x3b6c
	.byte	0
	.uleb128 0x2d
	.long	.LASF40
	.byte	0x2
	.value	0x72a
	.byte	0x7
	.byte	0x1
	.long	0x4045
	.long	0x4050
	.uleb128 0x2
	.long	0xa6ee
	.uleb128 0x1
	.long	0xa711
	.byte	0
	.uleb128 0x2d
	.long	.LASF243
	.byte	0x2
	.value	0x73d
	.byte	0x7
	.byte	0x1
	.long	0x4062
	.long	0x4068
	.uleb128 0x2
	.long	0xa6ee
	.byte	0
	.uleb128 0x2d
	.long	.LASF245
	.byte	0x2
	.value	0x7c3
	.byte	0x7
	.byte	0x2
	.long	0x407a
	.long	0x408a
	.uleb128 0x2
	.long	0xa6ee
	.uleb128 0x1
	.long	0x3957
	.uleb128 0x1
	.long	0xa6fd
	.byte	0
	.uleb128 0x2d
	.long	.LASF247
	.byte	0x2
	.value	0x7ce
	.byte	0x7
	.byte	0x2
	.long	0x409c
	.long	0x40a7
	.uleb128 0x2
	.long	0xa6ee
	.uleb128 0x1
	.long	0x3957
	.byte	0
	.uleb128 0x2d
	.long	.LASF249
	.byte	0x7
	.value	0x112
	.byte	0x5
	.byte	0x2
	.long	0x40b9
	.long	0x40c9
	.uleb128 0x2
	.long	0xa6ee
	.uleb128 0x1
	.long	0x2bc
	.uleb128 0x1
	.long	0xa6fd
	.byte	0
	.uleb128 0x2d
	.long	.LASF251
	.byte	0x7
	.value	0x296
	.byte	0x5
	.byte	0x2
	.long	0x40db
	.long	0x40f0
	.uleb128 0x2
	.long	0xa6ee
	.uleb128 0x1
	.long	0x3b43
	.uleb128 0x1
	.long	0x3957
	.uleb128 0x1
	.long	0xa6fd
	.byte	0
	.uleb128 0x2d
	.long	.LASF253
	.byte	0x7
	.value	0x300
	.byte	0x5
	.byte	0x2
	.long	0x4102
	.long	0x4112
	.uleb128 0x2
	.long	0xa6ee
	.uleb128 0x1
	.long	0x3957
	.uleb128 0x1
	.long	0xa6fd
	.byte	0
	.uleb128 0x2d
	.long	.LASF255
	.byte	0x7
	.value	0x339
	.byte	0x5
	.byte	0x2
	.long	0x4124
	.long	0x412f
	.uleb128 0x2
	.long	0xa6ee
	.uleb128 0x1
	.long	0x3957
	.byte	0
	.uleb128 0x1f
	.long	.LASF257
	.byte	0x7
	.value	0x396
	.byte	0x5
	.long	0x9345
	.byte	0x2
	.long	0x4145
	.long	0x414b
	.uleb128 0x2
	.long	0xa6ee
	.byte	0
	.uleb128 0x1f
	.long	.LASF259
	.byte	0x7
	.value	0x16f
	.byte	0x5
	.long	0x3b43
	.byte	0x2
	.long	0x4161
	.long	0x4171
	.uleb128 0x2
	.long	0xa6ee
	.uleb128 0x1
	.long	0x3b6c
	.uleb128 0x1
	.long	0xa720
	.byte	0
	.uleb128 0x1f
	.long	.LASF261
	.byte	0x2
	.value	0x889
	.byte	0x7
	.long	0x3b43
	.byte	0x2
	.long	0x4187
	.long	0x4197
	.uleb128 0x2
	.long	0xa6ee
	.uleb128 0x1
	.long	0x3b6c
	.uleb128 0x1
	.long	0xa720
	.byte	0
	.uleb128 0x1f
	.long	.LASF263
	.byte	0x2
	.value	0x890
	.byte	0x7
	.long	0x3957
	.byte	0x2
	.long	0x41ad
	.long	0x41bd
	.uleb128 0x2
	.long	0xa716
	.uleb128 0x1
	.long	0x3957
	.uleb128 0x1
	.long	0x7911
	.byte	0
	.uleb128 0x8d
	.long	.LASF265
	.value	0x89b
	.long	0x3957
	.long	0x41d8
	.uleb128 0x1
	.long	0x3957
	.uleb128 0x1
	.long	0xa6f8
	.byte	0
	.uleb128 0x8d
	.long	.LASF267
	.value	0x8a4
	.long	0x3957
	.long	0x41ee
	.uleb128 0x1
	.long	0xa725
	.byte	0
	.uleb128 0x2d
	.long	.LASF269
	.byte	0x2
	.value	0x8b5
	.byte	0x7
	.byte	0x2
	.long	0x4200
	.long	0x420b
	.uleb128 0x2
	.long	0xa6ee
	.uleb128 0x1
	.long	0x38af
	.byte	0
	.uleb128 0x54
	.long	.LASF271
	.byte	0x7
	.byte	0xb9
	.byte	0x5
	.long	0x3b43
	.byte	0x2
	.long	0x4220
	.long	0x422b
	.uleb128 0x2
	.long	0xa6ee
	.uleb128 0x1
	.long	0x3b43
	.byte	0
	.uleb128 0x54
	.long	.LASF271
	.byte	0x7
	.byte	0xc7
	.byte	0x5
	.long	0x3b43
	.byte	0x2
	.long	0x4240
	.long	0x4250
	.uleb128 0x2
	.long	0xa6ee
	.uleb128 0x1
	.long	0x3b43
	.uleb128 0x1
	.long	0x3b43
	.byte	0
	.uleb128 0x3c
	.long	.LASF274
	.value	0x8cf
	.byte	0x7
	.long	0x4260
	.long	0x4270
	.uleb128 0x2
	.long	0xa6ee
	.uleb128 0x1
	.long	0xa707
	.uleb128 0x1
	.long	0x63c
	.byte	0
	.uleb128 0x3c
	.long	.LASF274
	.value	0x8db
	.byte	0x7
	.long	0x4280
	.long	0x4290
	.uleb128 0x2
	.long	0xa6ee
	.uleb128 0x1
	.long	0xa707
	.uleb128 0x1
	.long	0x3ac
	.byte	0
	.uleb128 0x1e
	.long	.LASF436
	.byte	0x2
	.value	0x1e0
	.byte	0x2b
	.long	0x34c7
	.uleb128 0x5a
	.long	.LASF437
	.byte	0x18
	.byte	0x2
	.value	0x742
	.byte	0xe
	.long	0x4342
	.uleb128 0x50
	.long	.LASF438
	.value	0x744
	.byte	0xa
	.long	0x38af
	.byte	0
	.uleb128 0x50
	.long	.LASF439
	.value	0x745
	.byte	0xc
	.long	0x3957
	.byte	0x8
	.uleb128 0x50
	.long	.LASF440
	.value	0x746
	.byte	0x9
	.long	0xa9a0
	.byte	0x10
	.uleb128 0x3c
	.long	.LASF437
	.value	0x749
	.byte	0x2
	.long	0x42e2
	.long	0x42f7
	.uleb128 0x2
	.long	0xa9a5
	.uleb128 0x1
	.long	0x38af
	.uleb128 0x1
	.long	0x3957
	.uleb128 0x1
	.long	0xa9a0
	.byte	0
	.uleb128 0x3c
	.long	.LASF441
	.value	0x74e
	.byte	0x2
	.long	0x4307
	.long	0x430d
	.uleb128 0x2
	.long	0xa9a5
	.byte	0
	.uleb128 0x68
	.long	.LASF24
	.value	0x756
	.byte	0x2
	.long	0x38af
	.long	0x4321
	.long	0x4327
	.uleb128 0x2
	.long	0xa9a5
	.byte	0
	.uleb128 0xb0
	.long	.LASF437
	.byte	0x2
	.value	0x75e
	.byte	0x2
	.byte	0x3
	.long	0x4336
	.uleb128 0x2
	.long	0xa9a5
	.uleb128 0x1
	.long	0xa9af
	.byte	0
	.byte	0
	.uleb128 0x7
	.long	0x429d
	.uleb128 0x2d
	.long	.LASF442
	.byte	0x7
	.value	0x235
	.byte	0x7
	.byte	0x2
	.long	0x4368
	.long	0x4373
	.uleb128 0x55
	.long	.LASF432
	.long	0x4368
	.uleb128 0x56
	.long	0xa667
	.byte	0
	.uleb128 0x2
	.long	0xa6ee
	.uleb128 0x1
	.long	0xa667
	.byte	0
	.uleb128 0xf
	.string	"_Tp"
	.long	0xa4c5
	.uleb128 0x67
	.long	.LASF146
	.long	0x332e
	.byte	0
	.uleb128 0x7
	.long	0x382a
	.uleb128 0x8
	.long	.LASF279
	.byte	0x14
	.byte	0xad
	.byte	0xb
	.long	0x3814
	.uleb128 0x7
	.long	0x438b
	.uleb128 0x34
	.long	.LASF443
	.uleb128 0x34
	.long	.LASF444
	.uleb128 0x34
	.long	.LASF445
	.uleb128 0x1a
	.long	.LASF446
	.byte	0x1
	.byte	0x17
	.byte	0xd4
	.byte	0xc
	.long	0x43e6
	.uleb128 0x8
	.long	.LASF447
	.byte	0x17
	.byte	0xd8
	.byte	0x2b
	.long	0x62f
	.uleb128 0x8
	.long	.LASF74
	.byte	0x17
	.byte	0xd9
	.byte	0x2b
	.long	0xa56d
	.uleb128 0x8
	.long	.LASF75
	.byte	0x17
	.byte	0xda
	.byte	0x2b
	.long	0xa57c
	.uleb128 0xa
	.long	.LASF448
	.long	0xa56d
	.byte	0
	.uleb128 0x3f
	.long	.LASF449
	.byte	0x1
	.byte	0x6
	.byte	0x3f
	.long	0x4584
	.uleb128 0x24
	.long	.LASF64
	.byte	0x6
	.byte	0x58
	.byte	0x7
	.long	.LASF450
	.byte	0x1
	.long	0x4407
	.long	0x440d
	.uleb128 0x2
	.long	0xa748
	.byte	0
	.uleb128 0x24
	.long	.LASF64
	.byte	0x6
	.byte	0x5c
	.byte	0x7
	.long	.LASF451
	.byte	0x1
	.long	0x4422
	.long	0x442d
	.uleb128 0x2
	.long	0xa748
	.uleb128 0x1
	.long	0xa752
	.byte	0
	.uleb128 0x4e
	.long	.LASF35
	.byte	0x6
	.byte	0x64
	.byte	0x18
	.long	.LASF452
	.long	0xa757
	.long	0x4445
	.long	0x4450
	.uleb128 0x2
	.long	0xa748
	.uleb128 0x1
	.long	0xa752
	.byte	0
	.uleb128 0x24
	.long	.LASF70
	.byte	0x6
	.byte	0x68
	.byte	0x7
	.long	.LASF453
	.byte	0x1
	.long	0x4465
	.long	0x446b
	.uleb128 0x2
	.long	0xa748
	.byte	0
	.uleb128 0x2a
	.long	.LASF74
	.byte	0x6
	.byte	0x46
	.byte	0x1a
	.long	0xa75c
	.uleb128 0x21
	.long	.LASF72
	.byte	0x6
	.byte	0x6b
	.byte	0x7
	.long	.LASF454
	.long	0x446b
	.byte	0x1
	.long	0x4490
	.long	0x449b
	.uleb128 0x2
	.long	0xa766
	.uleb128 0x1
	.long	0x449b
	.byte	0
	.uleb128 0x2a
	.long	.LASF75
	.byte	0x6
	.byte	0x48
	.byte	0x1a
	.long	0xa770
	.uleb128 0x2a
	.long	.LASF76
	.byte	0x6
	.byte	0x47
	.byte	0x1a
	.long	0x790c
	.uleb128 0x21
	.long	.LASF72
	.byte	0x6
	.byte	0x6f
	.byte	0x7
	.long	.LASF455
	.long	0x44a7
	.byte	0x1
	.long	0x44cc
	.long	0x44d7
	.uleb128 0x2
	.long	0xa766
	.uleb128 0x1
	.long	0x44d7
	.byte	0
	.uleb128 0x2a
	.long	.LASF78
	.byte	0x6
	.byte	0x49
	.byte	0x1a
	.long	0xa775
	.uleb128 0x21
	.long	.LASF79
	.byte	0x6
	.byte	0x81
	.byte	0x7
	.long	.LASF456
	.long	0xa75c
	.byte	0x1
	.long	0x44fc
	.long	0x450c
	.uleb128 0x2
	.long	0xa748
	.uleb128 0x1
	.long	0x450c
	.uleb128 0x1
	.long	0x9394
	.byte	0
	.uleb128 0x2a
	.long	.LASF81
	.byte	0x6
	.byte	0x43
	.byte	0x1f
	.long	0x2bc
	.uleb128 0x24
	.long	.LASF82
	.byte	0x6
	.byte	0xa7
	.byte	0x7
	.long	.LASF457
	.byte	0x1
	.long	0x452d
	.long	0x453d
	.uleb128 0x2
	.long	0xa748
	.uleb128 0x1
	.long	0xa75c
	.uleb128 0x1
	.long	0x450c
	.byte	0
	.uleb128 0x21
	.long	.LASF84
	.byte	0x6
	.byte	0xc2
	.byte	0x7
	.long	.LASF458
	.long	0x450c
	.byte	0x1
	.long	0x4556
	.long	0x455c
	.uleb128 0x2
	.long	0xa766
	.byte	0
	.uleb128 0x45
	.long	.LASF86
	.byte	0x6
	.byte	0xf2
	.byte	0x7
	.long	.LASF459
	.long	0x450c
	.long	0x4574
	.long	0x457a
	.uleb128 0x2
	.long	0xa766
	.byte	0
	.uleb128 0xf
	.string	"_Tp"
	.long	0x4f
	.byte	0
	.uleb128 0x7
	.long	0x43e6
	.uleb128 0x3f
	.long	.LASF460
	.byte	0x1
	.byte	0x5
	.byte	0x85
	.long	0x460d
	.uleb128 0x47
	.long	0x43e6
	.byte	0x1
	.uleb128 0x24
	.long	.LASF89
	.byte	0x5
	.byte	0xa8
	.byte	0x7
	.long	.LASF461
	.byte	0x1
	.long	0x45b0
	.long	0x45b6
	.uleb128 0x2
	.long	0xa77a
	.byte	0
	.uleb128 0x24
	.long	.LASF89
	.byte	0x5
	.byte	0xac
	.byte	0x7
	.long	.LASF462
	.byte	0x1
	.long	0x45cb
	.long	0x45d6
	.uleb128 0x2
	.long	0xa77a
	.uleb128 0x1
	.long	0xa784
	.byte	0
	.uleb128 0x4e
	.long	.LASF35
	.byte	0x5
	.byte	0xb1
	.byte	0x12
	.long	.LASF463
	.long	0xa789
	.long	0x45ee
	.long	0x45f9
	.uleb128 0x2
	.long	0xa77a
	.uleb128 0x1
	.long	0xa784
	.byte	0
	.uleb128 0x6d
	.long	.LASF93
	.long	.LASF464
	.long	0x4606
	.uleb128 0x2
	.long	0xa77a
	.byte	0
	.byte	0
	.uleb128 0x7
	.long	0x4589
	.uleb128 0x5a
	.long	.LASF465
	.byte	0x1
	.byte	0x8
	.value	0x248
	.byte	0xc
	.long	0x4710
	.uleb128 0x1e
	.long	.LASF74
	.byte	0x8
	.value	0x251
	.byte	0xd
	.long	0xa75c
	.uleb128 0x16
	.long	.LASF79
	.byte	0x8
	.value	0x27d
	.byte	0x7
	.long	.LASF466
	.long	0x4620
	.long	0x464d
	.uleb128 0x1
	.long	0xa78e
	.uleb128 0x1
	.long	0x465f
	.byte	0
	.uleb128 0x1e
	.long	.LASF98
	.byte	0x8
	.value	0x24b
	.byte	0xd
	.long	0x4589
	.uleb128 0x7
	.long	0x464d
	.uleb128 0x1e
	.long	.LASF81
	.byte	0x8
	.value	0x260
	.byte	0xd
	.long	0x2bc
	.uleb128 0x16
	.long	.LASF79
	.byte	0x8
	.value	0x28c
	.byte	0x7
	.long	.LASF467
	.long	0x4620
	.long	0x4691
	.uleb128 0x1
	.long	0xa78e
	.uleb128 0x1
	.long	0x465f
	.uleb128 0x1
	.long	0x4691
	.byte	0
	.uleb128 0x1e
	.long	.LASF100
	.byte	0x8
	.value	0x25a
	.byte	0xd
	.long	0x9394
	.uleb128 0x38
	.long	.LASF82
	.byte	0x8
	.value	0x2b0
	.byte	0x7
	.long	.LASF468
	.long	0x46bf
	.uleb128 0x1
	.long	0xa78e
	.uleb128 0x1
	.long	0x4620
	.uleb128 0x1
	.long	0x465f
	.byte	0
	.uleb128 0x16
	.long	.LASF84
	.byte	0x8
	.value	0x2ed
	.byte	0x7
	.long	.LASF469
	.long	0x465f
	.long	0x46da
	.uleb128 0x1
	.long	0xa793
	.byte	0
	.uleb128 0x16
	.long	.LASF102
	.byte	0x8
	.value	0x2fd
	.byte	0x7
	.long	.LASF470
	.long	0x464d
	.long	0x46f5
	.uleb128 0x1
	.long	0xa793
	.byte	0
	.uleb128 0x1e
	.long	.LASF6
	.byte	0x8
	.value	0x24e
	.byte	0xd
	.long	0x4f
	.uleb128 0x1e
	.long	.LASF104
	.byte	0x8
	.value	0x26f
	.byte	0x8
	.long	0x4589
	.byte	0
	.uleb128 0x1a
	.long	.LASF471
	.byte	0x18
	.byte	0x2
	.byte	0x5b
	.byte	0xc
	.long	0x4ab1
	.uleb128 0x1a
	.long	.LASF106
	.byte	0x18
	.byte	0x2
	.byte	0x62
	.byte	0xe
	.long	0x47c3
	.uleb128 0x11
	.long	.LASF108
	.byte	0x2
	.byte	0x64
	.byte	0xa
	.long	0x47c8
	.byte	0
	.uleb128 0x11
	.long	.LASF109
	.byte	0x2
	.byte	0x65
	.byte	0xa
	.long	0x47c8
	.byte	0x8
	.uleb128 0x11
	.long	.LASF110
	.byte	0x2
	.byte	0x66
	.byte	0xa
	.long	0x47c8
	.byte	0x10
	.uleb128 0x23
	.long	.LASF106
	.byte	0x2
	.byte	0x69
	.byte	0x2
	.long	.LASF472
	.long	0x4765
	.long	0x476b
	.uleb128 0x2
	.long	0xa7a2
	.byte	0
	.uleb128 0x23
	.long	.LASF106
	.byte	0x2
	.byte	0x6f
	.byte	0x2
	.long	.LASF473
	.long	0x477f
	.long	0x478a
	.uleb128 0x2
	.long	0xa7a2
	.uleb128 0x1
	.long	0xa7ac
	.byte	0
	.uleb128 0x23
	.long	.LASF113
	.byte	0x2
	.byte	0x77
	.byte	0x2
	.long	.LASF474
	.long	0x479e
	.long	0x47a9
	.uleb128 0x2
	.long	0xa7a2
	.uleb128 0x1
	.long	0xa7b1
	.byte	0
	.uleb128 0x66
	.long	.LASF115
	.byte	0x80
	.long	.LASF475
	.long	0x47b7
	.uleb128 0x2
	.long	0xa7a2
	.uleb128 0x1
	.long	0xa7b6
	.byte	0
	.byte	0
	.uleb128 0x7
	.long	0x471d
	.uleb128 0x8
	.long	.LASF74
	.byte	0x2
	.byte	0x60
	.byte	0x9
	.long	0x8e74
	.uleb128 0x1a
	.long	.LASF116
	.byte	0x18
	.byte	0x2
	.byte	0x8b
	.byte	0xe
	.long	0x489a
	.uleb128 0x36
	.long	0x4589
	.uleb128 0x36
	.long	0x471d
	.uleb128 0x23
	.long	.LASF116
	.byte	0x2
	.byte	0x8f
	.byte	0x2
	.long	.LASF476
	.long	0x47ff
	.long	0x4805
	.uleb128 0x2
	.long	0xa7bb
	.byte	0
	.uleb128 0x23
	.long	.LASF116
	.byte	0x2
	.byte	0x98
	.byte	0x2
	.long	.LASF477
	.long	0x4819
	.long	0x4824
	.uleb128 0x2
	.long	0xa7bb
	.uleb128 0x1
	.long	0xa7c5
	.byte	0
	.uleb128 0x23
	.long	.LASF116
	.byte	0x2
	.byte	0xa0
	.byte	0x2
	.long	.LASF478
	.long	0x4838
	.long	0x4843
	.uleb128 0x2
	.long	0xa7bb
	.uleb128 0x1
	.long	0xa7ca
	.byte	0
	.uleb128 0x23
	.long	.LASF116
	.byte	0x2
	.byte	0xa5
	.byte	0x2
	.long	.LASF479
	.long	0x4857
	.long	0x4862
	.uleb128 0x2
	.long	0xa7bb
	.uleb128 0x1
	.long	0xa7cf
	.byte	0
	.uleb128 0x23
	.long	.LASF116
	.byte	0x2
	.byte	0xaa
	.byte	0x2
	.long	.LASF480
	.long	0x4876
	.long	0x4886
	.uleb128 0x2
	.long	0xa7bb
	.uleb128 0x1
	.long	0xa7cf
	.uleb128 0x1
	.long	0xa7ca
	.byte	0
	.uleb128 0x6e
	.long	.LASF481
	.long	.LASF483
	.long	0x4893
	.uleb128 0x2
	.long	0xa7bb
	.byte	0
	.byte	0
	.uleb128 0x8
	.long	.LASF122
	.byte	0x2
	.byte	0x5e
	.byte	0x15
	.long	0x8ea5
	.uleb128 0x7
	.long	0x489a
	.uleb128 0x37
	.long	.LASF123
	.value	0x133
	.byte	0x7
	.long	.LASF484
	.long	0xa7d4
	.long	0x48c3
	.long	0x48c9
	.uleb128 0x2
	.long	0xa7d9
	.byte	0
	.uleb128 0x37
	.long	.LASF123
	.value	0x138
	.byte	0x7
	.long	.LASF485
	.long	0xa7c5
	.long	0x48e1
	.long	0x48e7
	.uleb128 0x2
	.long	0xa7e3
	.byte	0
	.uleb128 0x1e
	.long	.LASF98
	.byte	0x2
	.value	0x12f
	.byte	0x16
	.long	0x4589
	.uleb128 0x7
	.long	0x48e7
	.uleb128 0x37
	.long	.LASF126
	.value	0x13d
	.byte	0x7
	.long	.LASF486
	.long	0x48e7
	.long	0x4911
	.long	0x4917
	.uleb128 0x2
	.long	0xa7e3
	.byte	0
	.uleb128 0x4f
	.long	.LASF128
	.value	0x141
	.long	.LASF487
	.long	0x492a
	.long	0x4930
	.uleb128 0x2
	.long	0xa7d9
	.byte	0
	.uleb128 0x1c
	.long	.LASF128
	.value	0x147
	.long	.LASF488
	.long	0x4943
	.long	0x494e
	.uleb128 0x2
	.long	0xa7d9
	.uleb128 0x1
	.long	0xa7e8
	.byte	0
	.uleb128 0x1c
	.long	.LASF128
	.value	0x14d
	.long	.LASF489
	.long	0x4961
	.long	0x496c
	.uleb128 0x2
	.long	0xa7d9
	.uleb128 0x1
	.long	0x2bc
	.byte	0
	.uleb128 0x1c
	.long	.LASF128
	.value	0x153
	.long	.LASF490
	.long	0x497f
	.long	0x498f
	.uleb128 0x2
	.long	0xa7d9
	.uleb128 0x1
	.long	0x2bc
	.uleb128 0x1
	.long	0xa7e8
	.byte	0
	.uleb128 0x4f
	.long	.LASF128
	.value	0x158
	.long	.LASF491
	.long	0x49a2
	.long	0x49ad
	.uleb128 0x2
	.long	0xa7d9
	.uleb128 0x1
	.long	0xa7ed
	.byte	0
	.uleb128 0x1c
	.long	.LASF128
	.value	0x15d
	.long	.LASF492
	.long	0x49c0
	.long	0x49cb
	.uleb128 0x2
	.long	0xa7d9
	.uleb128 0x1
	.long	0xa7cf
	.byte	0
	.uleb128 0x1c
	.long	.LASF128
	.value	0x161
	.long	.LASF493
	.long	0x49de
	.long	0x49ee
	.uleb128 0x2
	.long	0xa7d9
	.uleb128 0x1
	.long	0xa7ed
	.uleb128 0x1
	.long	0xa7e8
	.byte	0
	.uleb128 0x1c
	.long	.LASF128
	.value	0x16f
	.long	.LASF494
	.long	0x4a01
	.long	0x4a11
	.uleb128 0x2
	.long	0xa7d9
	.uleb128 0x1
	.long	0xa7e8
	.uleb128 0x1
	.long	0xa7ed
	.byte	0
	.uleb128 0x1c
	.long	.LASF137
	.value	0x175
	.long	.LASF495
	.long	0x4a24
	.long	0x4a2a
	.uleb128 0x2
	.long	0xa7d9
	.byte	0
	.uleb128 0x50
	.long	.LASF139
	.value	0x17e
	.byte	0x14
	.long	0x47d4
	.byte	0
	.uleb128 0x37
	.long	.LASF140
	.value	0x182
	.byte	0x7
	.long	.LASF496
	.long	0x47c8
	.long	0x4a4f
	.long	0x4a5a
	.uleb128 0x2
	.long	0xa7d9
	.uleb128 0x1
	.long	0x2bc
	.byte	0
	.uleb128 0x1c
	.long	.LASF142
	.value	0x18a
	.long	.LASF497
	.long	0x4a6d
	.long	0x4a7d
	.uleb128 0x2
	.long	0xa7d9
	.uleb128 0x1
	.long	0x47c8
	.uleb128 0x1
	.long	0x2bc
	.byte	0
	.uleb128 0x10
	.long	.LASF144
	.byte	0x2
	.value	0x195
	.byte	0x7
	.long	.LASF498
	.byte	0x2
	.long	0x4a93
	.long	0x4a9e
	.uleb128 0x2
	.long	0xa7d9
	.uleb128 0x1
	.long	0x2bc
	.byte	0
	.uleb128 0xf
	.string	"_Tp"
	.long	0x4f
	.uleb128 0xa
	.long	.LASF146
	.long	0x4589
	.byte	0
	.uleb128 0x7
	.long	0x4710
	.uleb128 0x1a
	.long	.LASF499
	.byte	0x1
	.byte	0x14
	.byte	0xa9
	.byte	0xc
	.long	0x4ad9
	.uleb128 0x8
	.long	.LASF148
	.byte	0x14
	.byte	0xaa
	.byte	0xd
	.long	0x4589
	.uleb128 0xa
	.long	.LASF149
	.long	0x4589
	.byte	0
	.uleb128 0x48
	.long	.LASF500
	.byte	0x18
	.byte	0x2
	.value	0x1cc
	.long	0x5681
	.uleb128 0x19
	.byte	0x2
	.value	0x1cc
	.byte	0xb
	.long	0x4a37
	.uleb128 0x19
	.byte	0x2
	.value	0x1cc
	.byte	0xb
	.long	0x4a5a
	.uleb128 0x19
	.byte	0x2
	.value	0x1cc
	.byte	0xb
	.long	0x4a2a
	.uleb128 0x19
	.byte	0x2
	.value	0x1cc
	.byte	0xb
	.long	0x48c9
	.uleb128 0x19
	.byte	0x2
	.value	0x1cc
	.byte	0xb
	.long	0x48ab
	.uleb128 0x19
	.byte	0x2
	.value	0x1cc
	.byte	0xb
	.long	0x48f9
	.uleb128 0x47
	.long	0x4710
	.byte	0x2
	.uleb128 0x16
	.long	.LASF151
	.byte	0x2
	.value	0x1f6
	.byte	0x7
	.long	.LASF501
	.long	0x9345
	.long	0x4b3d
	.uleb128 0x1
	.long	0x63c
	.byte	0
	.uleb128 0x16
	.long	.LASF151
	.byte	0x2
	.value	0x1ff
	.byte	0x7
	.long	.LASF502
	.long	0x9345
	.long	0x4b58
	.uleb128 0x1
	.long	0x3ac
	.byte	0
	.uleb128 0x6f
	.long	.LASF345
	.long	.LASF503
	.long	0x9345
	.uleb128 0x15
	.long	.LASF74
	.byte	0x2
	.value	0x1e6
	.byte	0x29
	.long	0x47c8
	.uleb128 0x16
	.long	.LASF154
	.byte	0x2
	.value	0x20c
	.byte	0x7
	.long	.LASF504
	.long	0x4b65
	.long	0x4b9c
	.uleb128 0x1
	.long	0x4b65
	.uleb128 0x1
	.long	0x4b65
	.uleb128 0x1
	.long	0x4b65
	.uleb128 0x1
	.long	0xa7f2
	.byte	0
	.uleb128 0x1e
	.long	.LASF122
	.byte	0x2
	.value	0x1e1
	.byte	0x2f
	.long	0x489a
	.uleb128 0x7
	.long	0x4b9c
	.uleb128 0x51
	.long	.LASF156
	.value	0x227
	.long	.LASF505
	.long	0x4bc1
	.long	0x4bc7
	.uleb128 0x2
	.long	0xa7f7
	.byte	0
	.uleb128 0x41
	.long	.LASF156
	.byte	0x2
	.value	0x232
	.long	.LASF506
	.long	0x4bdb
	.long	0x4be6
	.uleb128 0x2
	.long	0xa7f7
	.uleb128 0x1
	.long	0xa801
	.byte	0
	.uleb128 0x15
	.long	.LASF98
	.byte	0x2
	.value	0x1f1
	.byte	0x1a
	.long	0x4589
	.uleb128 0x7
	.long	0x4be6
	.uleb128 0x41
	.long	.LASF156
	.byte	0x2
	.value	0x240
	.long	.LASF507
	.long	0x4c0c
	.long	0x4c1c
	.uleb128 0x2
	.long	0xa7f7
	.uleb128 0x1
	.long	0x4c1c
	.uleb128 0x1
	.long	0xa801
	.byte	0
	.uleb128 0x15
	.long	.LASF81
	.byte	0x2
	.value	0x1ef
	.byte	0x1a
	.long	0x2bc
	.uleb128 0x10
	.long	.LASF156
	.byte	0x2
	.value	0x24d
	.byte	0x7
	.long	.LASF508
	.byte	0x1
	.long	0x4c3f
	.long	0x4c54
	.uleb128 0x2
	.long	0xa7f7
	.uleb128 0x1
	.long	0x4c1c
	.uleb128 0x1
	.long	0xa806
	.uleb128 0x1
	.long	0xa801
	.byte	0
	.uleb128 0x15
	.long	.LASF6
	.byte	0x2
	.value	0x1e5
	.byte	0x17
	.long	0x4f
	.uleb128 0x7
	.long	0x4c54
	.uleb128 0x10
	.long	.LASF156
	.byte	0x2
	.value	0x26d
	.byte	0x7
	.long	.LASF509
	.byte	0x1
	.long	0x4c7c
	.long	0x4c87
	.uleb128 0x2
	.long	0xa7f7
	.uleb128 0x1
	.long	0xa80b
	.byte	0
	.uleb128 0x51
	.long	.LASF156
	.value	0x280
	.long	.LASF510
	.long	0x4c9a
	.long	0x4ca5
	.uleb128 0x2
	.long	0xa7f7
	.uleb128 0x1
	.long	0xa810
	.byte	0
	.uleb128 0x10
	.long	.LASF156
	.byte	0x2
	.value	0x284
	.byte	0x7
	.long	.LASF511
	.byte	0x1
	.long	0x4cbb
	.long	0x4ccb
	.uleb128 0x2
	.long	0xa7f7
	.uleb128 0x1
	.long	0xa80b
	.uleb128 0x1
	.long	0xa815
	.byte	0
	.uleb128 0x1c
	.long	.LASF156
	.value	0x28f
	.long	.LASF512
	.long	0x4cde
	.long	0x4cf3
	.uleb128 0x2
	.long	0xa7f7
	.uleb128 0x1
	.long	0xa810
	.uleb128 0x1
	.long	0xa801
	.uleb128 0x1
	.long	0x63c
	.byte	0
	.uleb128 0x1c
	.long	.LASF156
	.value	0x294
	.long	.LASF513
	.long	0x4d06
	.long	0x4d1b
	.uleb128 0x2
	.long	0xa7f7
	.uleb128 0x1
	.long	0xa810
	.uleb128 0x1
	.long	0xa801
	.uleb128 0x1
	.long	0x3ac
	.byte	0
	.uleb128 0x10
	.long	.LASF156
	.byte	0x2
	.value	0x2a7
	.byte	0x7
	.long	.LASF514
	.byte	0x1
	.long	0x4d31
	.long	0x4d41
	.uleb128 0x2
	.long	0xa7f7
	.uleb128 0x1
	.long	0xa810
	.uleb128 0x1
	.long	0xa815
	.byte	0
	.uleb128 0x10
	.long	.LASF156
	.byte	0x2
	.value	0x2ba
	.byte	0x7
	.long	.LASF515
	.byte	0x1
	.long	0x4d57
	.long	0x4d67
	.uleb128 0x2
	.long	0xa7f7
	.uleb128 0x1
	.long	0x5697
	.uleb128 0x1
	.long	0xa801
	.byte	0
	.uleb128 0x10
	.long	.LASF168
	.byte	0x2
	.value	0x316
	.byte	0x7
	.long	.LASF516
	.byte	0x1
	.long	0x4d7d
	.long	0x4d83
	.uleb128 0x2
	.long	0xa7f7
	.byte	0
	.uleb128 0x21
	.long	.LASF35
	.byte	0x7
	.byte	0xd6
	.byte	0x5
	.long	.LASF517
	.long	0xa81a
	.byte	0x1
	.long	0x4d9c
	.long	0x4da7
	.uleb128 0x2
	.long	0xa7f7
	.uleb128 0x1
	.long	0xa80b
	.byte	0
	.uleb128 0x6
	.long	.LASF35
	.byte	0x2
	.value	0x337
	.byte	0x7
	.long	.LASF518
	.long	0xa81a
	.byte	0x1
	.long	0x4dc1
	.long	0x4dcc
	.uleb128 0x2
	.long	0xa7f7
	.uleb128 0x1
	.long	0xa810
	.byte	0
	.uleb128 0x6
	.long	.LASF35
	.byte	0x2
	.value	0x34d
	.byte	0x7
	.long	.LASF519
	.long	0xa81a
	.byte	0x1
	.long	0x4de6
	.long	0x4df1
	.uleb128 0x2
	.long	0xa7f7
	.uleb128 0x1
	.long	0x5697
	.byte	0
	.uleb128 0x10
	.long	.LASF173
	.byte	0x2
	.value	0x361
	.byte	0x7
	.long	.LASF520
	.byte	0x1
	.long	0x4e07
	.long	0x4e17
	.uleb128 0x2
	.long	0xa7f7
	.uleb128 0x1
	.long	0x4c1c
	.uleb128 0x1
	.long	0xa806
	.byte	0
	.uleb128 0x10
	.long	.LASF173
	.byte	0x2
	.value	0x390
	.byte	0x7
	.long	.LASF521
	.byte	0x1
	.long	0x4e2d
	.long	0x4e38
	.uleb128 0x2
	.long	0xa7f7
	.uleb128 0x1
	.long	0x5697
	.byte	0
	.uleb128 0x15
	.long	.LASF176
	.byte	0x2
	.value	0x1ea
	.byte	0x3d
	.long	0x8ec5
	.uleb128 0x6
	.long	.LASF177
	.byte	0x2
	.value	0x3dc
	.byte	0x7
	.long	.LASF522
	.long	0x4e38
	.byte	0x1
	.long	0x4e5f
	.long	0x4e65
	.uleb128 0x2
	.long	0xa7f7
	.byte	0
	.uleb128 0x15
	.long	.LASF179
	.byte	0x2
	.value	0x1ec
	.byte	0x7
	.long	0x8eca
	.uleb128 0x6
	.long	.LASF177
	.byte	0x2
	.value	0x3e6
	.byte	0x7
	.long	.LASF523
	.long	0x4e65
	.byte	0x1
	.long	0x4e8c
	.long	0x4e92
	.uleb128 0x2
	.long	0xa81f
	.byte	0
	.uleb128 0x3a
	.string	"end"
	.value	0x3f0
	.long	.LASF524
	.long	0x4e38
	.long	0x4ea9
	.long	0x4eaf
	.uleb128 0x2
	.long	0xa7f7
	.byte	0
	.uleb128 0x3a
	.string	"end"
	.value	0x3fa
	.long	.LASF525
	.long	0x4e65
	.long	0x4ec6
	.long	0x4ecc
	.uleb128 0x2
	.long	0xa81f
	.byte	0
	.uleb128 0x15
	.long	.LASF183
	.byte	0x2
	.value	0x1ee
	.byte	0x30
	.long	0x5789
	.uleb128 0x6
	.long	.LASF184
	.byte	0x2
	.value	0x404
	.byte	0x7
	.long	.LASF526
	.long	0x4ecc
	.byte	0x1
	.long	0x4ef3
	.long	0x4ef9
	.uleb128 0x2
	.long	0xa7f7
	.byte	0
	.uleb128 0x15
	.long	.LASF186
	.byte	0x2
	.value	0x1ed
	.byte	0x35
	.long	0x578e
	.uleb128 0x6
	.long	.LASF184
	.byte	0x2
	.value	0x40e
	.byte	0x7
	.long	.LASF527
	.long	0x4ef9
	.byte	0x1
	.long	0x4f20
	.long	0x4f26
	.uleb128 0x2
	.long	0xa81f
	.byte	0
	.uleb128 0x6
	.long	.LASF188
	.byte	0x2
	.value	0x418
	.byte	0x7
	.long	.LASF528
	.long	0x4ecc
	.byte	0x1
	.long	0x4f40
	.long	0x4f46
	.uleb128 0x2
	.long	0xa7f7
	.byte	0
	.uleb128 0x6
	.long	.LASF188
	.byte	0x2
	.value	0x422
	.byte	0x7
	.long	.LASF529
	.long	0x4ef9
	.byte	0x1
	.long	0x4f60
	.long	0x4f66
	.uleb128 0x2
	.long	0xa81f
	.byte	0
	.uleb128 0x6
	.long	.LASF191
	.byte	0x2
	.value	0x42d
	.byte	0x7
	.long	.LASF530
	.long	0x4e65
	.byte	0x1
	.long	0x4f80
	.long	0x4f86
	.uleb128 0x2
	.long	0xa81f
	.byte	0
	.uleb128 0x6
	.long	.LASF193
	.byte	0x2
	.value	0x437
	.byte	0x7
	.long	.LASF531
	.long	0x4e65
	.byte	0x1
	.long	0x4fa0
	.long	0x4fa6
	.uleb128 0x2
	.long	0xa81f
	.byte	0
	.uleb128 0x6
	.long	.LASF195
	.byte	0x2
	.value	0x441
	.byte	0x7
	.long	.LASF532
	.long	0x4ef9
	.byte	0x1
	.long	0x4fc0
	.long	0x4fc6
	.uleb128 0x2
	.long	0xa81f
	.byte	0
	.uleb128 0x6
	.long	.LASF197
	.byte	0x2
	.value	0x44b
	.byte	0x7
	.long	.LASF533
	.long	0x4ef9
	.byte	0x1
	.long	0x4fe0
	.long	0x4fe6
	.uleb128 0x2
	.long	0xa81f
	.byte	0
	.uleb128 0x6
	.long	.LASF199
	.byte	0x2
	.value	0x453
	.byte	0x7
	.long	.LASF534
	.long	0x4c1c
	.byte	0x1
	.long	0x5000
	.long	0x5006
	.uleb128 0x2
	.long	0xa81f
	.byte	0
	.uleb128 0x6
	.long	.LASF84
	.byte	0x2
	.value	0x45e
	.byte	0x7
	.long	.LASF535
	.long	0x4c1c
	.byte	0x1
	.long	0x5020
	.long	0x5026
	.uleb128 0x2
	.long	0xa81f
	.byte	0
	.uleb128 0x10
	.long	.LASF202
	.byte	0x2
	.value	0x46d
	.byte	0x7
	.long	.LASF536
	.byte	0x1
	.long	0x503c
	.long	0x5047
	.uleb128 0x2
	.long	0xa7f7
	.uleb128 0x1
	.long	0x4c1c
	.byte	0
	.uleb128 0x10
	.long	.LASF202
	.byte	0x2
	.value	0x482
	.byte	0x7
	.long	.LASF537
	.byte	0x1
	.long	0x505d
	.long	0x506d
	.uleb128 0x2
	.long	0xa7f7
	.uleb128 0x1
	.long	0x4c1c
	.uleb128 0x1
	.long	0xa806
	.byte	0
	.uleb128 0x10
	.long	.LASF205
	.byte	0x2
	.value	0x4a4
	.byte	0x7
	.long	.LASF538
	.byte	0x1
	.long	0x5083
	.long	0x5089
	.uleb128 0x2
	.long	0xa7f7
	.byte	0
	.uleb128 0x6
	.long	.LASF207
	.byte	0x2
	.value	0x4ae
	.byte	0x7
	.long	.LASF539
	.long	0x4c1c
	.byte	0x1
	.long	0x50a3
	.long	0x50a9
	.uleb128 0x2
	.long	0xa81f
	.byte	0
	.uleb128 0x6
	.long	.LASF209
	.byte	0x2
	.value	0x4bd
	.byte	0x7
	.long	.LASF540
	.long	0x9345
	.byte	0x1
	.long	0x50c3
	.long	0x50c9
	.uleb128 0x2
	.long	0xa81f
	.byte	0
	.uleb128 0x24
	.long	.LASF211
	.byte	0x7
	.byte	0x46
	.byte	0x5
	.long	.LASF541
	.byte	0x1
	.long	0x50de
	.long	0x50e9
	.uleb128 0x2
	.long	0xa7f7
	.uleb128 0x1
	.long	0x4c1c
	.byte	0
	.uleb128 0x15
	.long	.LASF75
	.byte	0x2
	.value	0x1e8
	.byte	0x32
	.long	0x8e80
	.uleb128 0x6
	.long	.LASF213
	.byte	0x2
	.value	0x4e3
	.byte	0x7
	.long	.LASF542
	.long	0x50e9
	.byte	0x1
	.long	0x5110
	.long	0x511b
	.uleb128 0x2
	.long	0xa7f7
	.uleb128 0x1
	.long	0x4c1c
	.byte	0
	.uleb128 0x15
	.long	.LASF78
	.byte	0x2
	.value	0x1e9
	.byte	0x37
	.long	0x8e8c
	.uleb128 0x6
	.long	.LASF213
	.byte	0x2
	.value	0x4f6
	.byte	0x7
	.long	.LASF543
	.long	0x511b
	.byte	0x1
	.long	0x5142
	.long	0x514d
	.uleb128 0x2
	.long	0xa81f
	.uleb128 0x1
	.long	0x4c1c
	.byte	0
	.uleb128 0x10
	.long	.LASF216
	.byte	0x2
	.value	0x500
	.byte	0x7
	.long	.LASF544
	.byte	0x2
	.long	0x5163
	.long	0x516e
	.uleb128 0x2
	.long	0xa81f
	.uleb128 0x1
	.long	0x4c1c
	.byte	0
	.uleb128 0x3a
	.string	"at"
	.value	0x517
	.long	.LASF545
	.long	0x50e9
	.long	0x5184
	.long	0x518f
	.uleb128 0x2
	.long	0xa7f7
	.uleb128 0x1
	.long	0x4c1c
	.byte	0
	.uleb128 0x3a
	.string	"at"
	.value	0x52a
	.long	.LASF546
	.long	0x511b
	.long	0x51a5
	.long	0x51b0
	.uleb128 0x2
	.long	0xa81f
	.uleb128 0x1
	.long	0x4c1c
	.byte	0
	.uleb128 0x6
	.long	.LASF220
	.byte	0x2
	.value	0x536
	.byte	0x7
	.long	.LASF547
	.long	0x50e9
	.byte	0x1
	.long	0x51ca
	.long	0x51d0
	.uleb128 0x2
	.long	0xa7f7
	.byte	0
	.uleb128 0x6
	.long	.LASF220
	.byte	0x2
	.value	0x542
	.byte	0x7
	.long	.LASF548
	.long	0x511b
	.byte	0x1
	.long	0x51ea
	.long	0x51f0
	.uleb128 0x2
	.long	0xa81f
	.byte	0
	.uleb128 0x6
	.long	.LASF223
	.byte	0x2
	.value	0x54e
	.byte	0x7
	.long	.LASF549
	.long	0x50e9
	.byte	0x1
	.long	0x520a
	.long	0x5210
	.uleb128 0x2
	.long	0xa7f7
	.byte	0
	.uleb128 0x6
	.long	.LASF223
	.byte	0x2
	.value	0x55a
	.byte	0x7
	.long	.LASF550
	.long	0x511b
	.byte	0x1
	.long	0x522a
	.long	0x5230
	.uleb128 0x2
	.long	0xa81f
	.byte	0
	.uleb128 0x6
	.long	.LASF226
	.byte	0x2
	.value	0x569
	.byte	0x7
	.long	.LASF551
	.long	0xa75c
	.byte	0x1
	.long	0x524a
	.long	0x5250
	.uleb128 0x2
	.long	0xa7f7
	.byte	0
	.uleb128 0x6
	.long	.LASF226
	.byte	0x2
	.value	0x56e
	.byte	0x7
	.long	.LASF552
	.long	0x790c
	.byte	0x1
	.long	0x526a
	.long	0x5270
	.uleb128 0x2
	.long	0xa81f
	.byte	0
	.uleb128 0x10
	.long	.LASF229
	.byte	0x2
	.value	0x57e
	.byte	0x7
	.long	.LASF553
	.byte	0x1
	.long	0x5286
	.long	0x5291
	.uleb128 0x2
	.long	0xa7f7
	.uleb128 0x1
	.long	0xa806
	.byte	0
	.uleb128 0x10
	.long	.LASF229
	.byte	0x2
	.value	0x58f
	.byte	0x7
	.long	.LASF554
	.byte	0x1
	.long	0x52a7
	.long	0x52b2
	.uleb128 0x2
	.long	0xa7f7
	.uleb128 0x1
	.long	0xa824
	.byte	0
	.uleb128 0x10
	.long	.LASF232
	.byte	0x2
	.value	0x5a7
	.byte	0x7
	.long	.LASF555
	.byte	0x1
	.long	0x52c8
	.long	0x52ce
	.uleb128 0x2
	.long	0xa7f7
	.byte	0
	.uleb128 0x21
	.long	.LASF234
	.byte	0x7
	.byte	0x89
	.byte	0x5
	.long	.LASF556
	.long	0x4e38
	.byte	0x1
	.long	0x52e7
	.long	0x52f7
	.uleb128 0x2
	.long	0xa7f7
	.uleb128 0x1
	.long	0x4e65
	.uleb128 0x1
	.long	0xa806
	.byte	0
	.uleb128 0x6
	.long	.LASF234
	.byte	0x2
	.value	0x5ee
	.byte	0x7
	.long	.LASF557
	.long	0x4e38
	.byte	0x1
	.long	0x5311
	.long	0x5321
	.uleb128 0x2
	.long	0xa7f7
	.uleb128 0x1
	.long	0x4e65
	.uleb128 0x1
	.long	0xa824
	.byte	0
	.uleb128 0x6
	.long	.LASF234
	.byte	0x2
	.value	0x600
	.byte	0x7
	.long	.LASF558
	.long	0x4e38
	.byte	0x1
	.long	0x533b
	.long	0x534b
	.uleb128 0x2
	.long	0xa7f7
	.uleb128 0x1
	.long	0x4e65
	.uleb128 0x1
	.long	0x5697
	.byte	0
	.uleb128 0x6
	.long	.LASF234
	.byte	0x2
	.value	0x61a
	.byte	0x7
	.long	.LASF559
	.long	0x4e38
	.byte	0x1
	.long	0x5365
	.long	0x537a
	.uleb128 0x2
	.long	0xa7f7
	.uleb128 0x1
	.long	0x4e65
	.uleb128 0x1
	.long	0x4c1c
	.uleb128 0x1
	.long	0xa806
	.byte	0
	.uleb128 0x6
	.long	.LASF239
	.byte	0x2
	.value	0x6f6
	.byte	0x7
	.long	.LASF560
	.long	0x4e38
	.byte	0x1
	.long	0x5394
	.long	0x539f
	.uleb128 0x2
	.long	0xa7f7
	.uleb128 0x1
	.long	0x4e65
	.byte	0
	.uleb128 0x6
	.long	.LASF239
	.byte	0x2
	.value	0x712
	.byte	0x7
	.long	.LASF561
	.long	0x4e38
	.byte	0x1
	.long	0x53b9
	.long	0x53c9
	.uleb128 0x2
	.long	0xa7f7
	.uleb128 0x1
	.long	0x4e65
	.uleb128 0x1
	.long	0x4e65
	.byte	0
	.uleb128 0x10
	.long	.LASF40
	.byte	0x2
	.value	0x72a
	.byte	0x7
	.long	.LASF562
	.byte	0x1
	.long	0x53df
	.long	0x53ea
	.uleb128 0x2
	.long	0xa7f7
	.uleb128 0x1
	.long	0xa81a
	.byte	0
	.uleb128 0x10
	.long	.LASF243
	.byte	0x2
	.value	0x73d
	.byte	0x7
	.long	.LASF563
	.byte	0x1
	.long	0x5400
	.long	0x5406
	.uleb128 0x2
	.long	0xa7f7
	.byte	0
	.uleb128 0x10
	.long	.LASF245
	.byte	0x2
	.value	0x7c3
	.byte	0x7
	.long	.LASF564
	.byte	0x2
	.long	0x541c
	.long	0x542c
	.uleb128 0x2
	.long	0xa7f7
	.uleb128 0x1
	.long	0x4c1c
	.uleb128 0x1
	.long	0xa806
	.byte	0
	.uleb128 0x10
	.long	.LASF247
	.byte	0x2
	.value	0x7ce
	.byte	0x7
	.long	.LASF565
	.byte	0x2
	.long	0x5442
	.long	0x544d
	.uleb128 0x2
	.long	0xa7f7
	.uleb128 0x1
	.long	0x4c1c
	.byte	0
	.uleb128 0x10
	.long	.LASF249
	.byte	0x7
	.value	0x112
	.byte	0x5
	.long	.LASF566
	.byte	0x2
	.long	0x5463
	.long	0x5473
	.uleb128 0x2
	.long	0xa7f7
	.uleb128 0x1
	.long	0x2bc
	.uleb128 0x1
	.long	0xa806
	.byte	0
	.uleb128 0x10
	.long	.LASF251
	.byte	0x7
	.value	0x296
	.byte	0x5
	.long	.LASF567
	.byte	0x2
	.long	0x5489
	.long	0x549e
	.uleb128 0x2
	.long	0xa7f7
	.uleb128 0x1
	.long	0x4e38
	.uleb128 0x1
	.long	0x4c1c
	.uleb128 0x1
	.long	0xa806
	.byte	0
	.uleb128 0x10
	.long	.LASF253
	.byte	0x7
	.value	0x300
	.byte	0x5
	.long	.LASF568
	.byte	0x2
	.long	0x54b4
	.long	0x54c4
	.uleb128 0x2
	.long	0xa7f7
	.uleb128 0x1
	.long	0x4c1c
	.uleb128 0x1
	.long	0xa806
	.byte	0
	.uleb128 0x10
	.long	.LASF255
	.byte	0x7
	.value	0x339
	.byte	0x5
	.long	.LASF569
	.byte	0x2
	.long	0x54da
	.long	0x54e5
	.uleb128 0x2
	.long	0xa7f7
	.uleb128 0x1
	.long	0x4c1c
	.byte	0
	.uleb128 0x6
	.long	.LASF257
	.byte	0x7
	.value	0x396
	.byte	0x5
	.long	.LASF570
	.long	0x9345
	.byte	0x2
	.long	0x54ff
	.long	0x5505
	.uleb128 0x2
	.long	0xa7f7
	.byte	0
	.uleb128 0x6
	.long	.LASF259
	.byte	0x7
	.value	0x16f
	.byte	0x5
	.long	.LASF571
	.long	0x4e38
	.byte	0x2
	.long	0x551f
	.long	0x552f
	.uleb128 0x2
	.long	0xa7f7
	.uleb128 0x1
	.long	0x4e65
	.uleb128 0x1
	.long	0xa824
	.byte	0
	.uleb128 0x6
	.long	.LASF261
	.byte	0x2
	.value	0x889
	.byte	0x7
	.long	.LASF572
	.long	0x4e38
	.byte	0x2
	.long	0x5549
	.long	0x5559
	.uleb128 0x2
	.long	0xa7f7
	.uleb128 0x1
	.long	0x4e65
	.uleb128 0x1
	.long	0xa824
	.byte	0
	.uleb128 0x6
	.long	.LASF263
	.byte	0x2
	.value	0x890
	.byte	0x7
	.long	.LASF573
	.long	0x4c1c
	.byte	0x2
	.long	0x5573
	.long	0x5583
	.uleb128 0x2
	.long	0xa81f
	.uleb128 0x1
	.long	0x4c1c
	.uleb128 0x1
	.long	0x7911
	.byte	0
	.uleb128 0x52
	.long	.LASF265
	.value	0x89b
	.long	.LASF574
	.long	0x4c1c
	.long	0x55a1
	.uleb128 0x1
	.long	0x4c1c
	.uleb128 0x1
	.long	0xa801
	.byte	0
	.uleb128 0x52
	.long	.LASF267
	.value	0x8a4
	.long	.LASF575
	.long	0x4c1c
	.long	0x55ba
	.uleb128 0x1
	.long	0xa829
	.byte	0
	.uleb128 0x10
	.long	.LASF269
	.byte	0x2
	.value	0x8b5
	.byte	0x7
	.long	.LASF576
	.byte	0x2
	.long	0x55d0
	.long	0x55db
	.uleb128 0x2
	.long	0xa7f7
	.uleb128 0x1
	.long	0x4b65
	.byte	0
	.uleb128 0x21
	.long	.LASF271
	.byte	0x7
	.byte	0xb9
	.byte	0x5
	.long	.LASF577
	.long	0x4e38
	.byte	0x2
	.long	0x55f4
	.long	0x55ff
	.uleb128 0x2
	.long	0xa7f7
	.uleb128 0x1
	.long	0x4e38
	.byte	0
	.uleb128 0x21
	.long	.LASF271
	.byte	0x7
	.byte	0xc7
	.byte	0x5
	.long	.LASF578
	.long	0x4e38
	.byte	0x2
	.long	0x5618
	.long	0x5628
	.uleb128 0x2
	.long	0xa7f7
	.uleb128 0x1
	.long	0x4e38
	.uleb128 0x1
	.long	0x4e38
	.byte	0
	.uleb128 0x1c
	.long	.LASF274
	.value	0x8cf
	.long	.LASF579
	.long	0x563b
	.long	0x564b
	.uleb128 0x2
	.long	0xa7f7
	.uleb128 0x1
	.long	0xa810
	.uleb128 0x1
	.long	0x63c
	.byte	0
	.uleb128 0x1c
	.long	.LASF274
	.value	0x8db
	.long	.LASF580
	.long	0x565e
	.long	0x566e
	.uleb128 0x2
	.long	0xa7f7
	.uleb128 0x1
	.long	0xa810
	.uleb128 0x1
	.long	0x3ac
	.byte	0
	.uleb128 0xf
	.string	"_Tp"
	.long	0x4f
	.uleb128 0x67
	.long	.LASF146
	.long	0x4589
	.byte	0
	.uleb128 0x7
	.long	0x4ad9
	.uleb128 0x8
	.long	.LASF279
	.byte	0x14
	.byte	0xad
	.byte	0xb
	.long	0x4ac3
	.uleb128 0x7
	.long	0x5686
	.uleb128 0x3f
	.long	.LASF581
	.byte	0x10
	.byte	0x25
	.byte	0x2f
	.long	0x5784
	.uleb128 0x2a
	.long	.LASF176
	.byte	0x25
	.byte	0x36
	.byte	0x1a
	.long	0x790c
	.uleb128 0x11
	.long	.LASF582
	.byte	0x25
	.byte	0x3a
	.byte	0x12
	.long	0x56a3
	.byte	0
	.uleb128 0x2a
	.long	.LASF81
	.byte	0x25
	.byte	0x35
	.byte	0x18
	.long	0x2bc
	.uleb128 0x11
	.long	.LASF439
	.byte	0x25
	.byte	0x3b
	.byte	0x13
	.long	0x56bc
	.byte	0x8
	.uleb128 0x23
	.long	.LASF583
	.byte	0x25
	.byte	0x3e
	.byte	0x11
	.long	.LASF584
	.long	0x56e9
	.long	0x56f9
	.uleb128 0x2
	.long	0xa82e
	.uleb128 0x1
	.long	0x56f9
	.uleb128 0x1
	.long	0x56bc
	.byte	0
	.uleb128 0x2a
	.long	.LASF179
	.byte	0x25
	.byte	0x37
	.byte	0x1a
	.long	0x790c
	.uleb128 0x24
	.long	.LASF583
	.byte	0x25
	.byte	0x42
	.byte	0x11
	.long	.LASF585
	.byte	0x1
	.long	0x571a
	.long	0x5720
	.uleb128 0x2
	.long	0xa82e
	.byte	0
	.uleb128 0x21
	.long	.LASF199
	.byte	0x25
	.byte	0x47
	.byte	0x7
	.long	.LASF586
	.long	0x56bc
	.byte	0x1
	.long	0x5739
	.long	0x573f
	.uleb128 0x2
	.long	0xa833
	.byte	0
	.uleb128 0x21
	.long	.LASF177
	.byte	0x25
	.byte	0x4b
	.byte	0x7
	.long	.LASF587
	.long	0x56f9
	.byte	0x1
	.long	0x5758
	.long	0x575e
	.uleb128 0x2
	.long	0xa833
	.byte	0
	.uleb128 0x8e
	.string	"end"
	.byte	0x4f
	.long	.LASF728
	.long	0x56f9
	.long	0x5775
	.long	0x577b
	.uleb128 0x2
	.long	0xa833
	.byte	0
	.uleb128 0xf
	.string	"_E"
	.long	0x4f
	.byte	0
	.uleb128 0x7
	.long	0x5697
	.uleb128 0x34
	.long	.LASF588
	.uleb128 0x34
	.long	.LASF589
	.uleb128 0x1a
	.long	.LASF590
	.byte	0x1
	.byte	0x17
	.byte	0xd4
	.byte	0xc
	.long	0x57ce
	.uleb128 0x8
	.long	.LASF447
	.byte	0x17
	.byte	0xd8
	.byte	0x2b
	.long	0x62f
	.uleb128 0x8
	.long	.LASF74
	.byte	0x17
	.byte	0xd9
	.byte	0x2b
	.long	0xa649
	.uleb128 0x8
	.long	.LASF75
	.byte	0x17
	.byte	0xda
	.byte	0x2b
	.long	0xa65d
	.uleb128 0xa
	.long	.LASF448
	.long	0xa649
	.byte	0
	.uleb128 0x3f
	.long	.LASF591
	.byte	0x1
	.byte	0x6
	.byte	0x3f
	.long	0x596c
	.uleb128 0x24
	.long	.LASF64
	.byte	0x6
	.byte	0x58
	.byte	0x7
	.long	.LASF592
	.byte	0x1
	.long	0x57ef
	.long	0x57f5
	.uleb128 0x2
	.long	0xa856
	.byte	0
	.uleb128 0x24
	.long	.LASF64
	.byte	0x6
	.byte	0x5c
	.byte	0x7
	.long	.LASF593
	.byte	0x1
	.long	0x580a
	.long	0x5815
	.uleb128 0x2
	.long	0xa856
	.uleb128 0x1
	.long	0xa860
	.byte	0
	.uleb128 0x4e
	.long	.LASF35
	.byte	0x6
	.byte	0x64
	.byte	0x18
	.long	.LASF594
	.long	0xa865
	.long	0x582d
	.long	0x5838
	.uleb128 0x2
	.long	0xa856
	.uleb128 0x1
	.long	0xa860
	.byte	0
	.uleb128 0x24
	.long	.LASF70
	.byte	0x6
	.byte	0x68
	.byte	0x7
	.long	.LASF595
	.byte	0x1
	.long	0x584d
	.long	0x5853
	.uleb128 0x2
	.long	0xa856
	.byte	0
	.uleb128 0x2a
	.long	.LASF74
	.byte	0x6
	.byte	0x46
	.byte	0x1a
	.long	0xa86a
	.uleb128 0x21
	.long	.LASF72
	.byte	0x6
	.byte	0x6b
	.byte	0x7
	.long	.LASF596
	.long	0x5853
	.byte	0x1
	.long	0x5878
	.long	0x5883
	.uleb128 0x2
	.long	0xa874
	.uleb128 0x1
	.long	0x5883
	.byte	0
	.uleb128 0x2a
	.long	.LASF75
	.byte	0x6
	.byte	0x48
	.byte	0x1a
	.long	0xa87e
	.uleb128 0x2a
	.long	.LASF76
	.byte	0x6
	.byte	0x47
	.byte	0x1a
	.long	0xa883
	.uleb128 0x21
	.long	.LASF72
	.byte	0x6
	.byte	0x6f
	.byte	0x7
	.long	.LASF597
	.long	0x588f
	.byte	0x1
	.long	0x58b4
	.long	0x58bf
	.uleb128 0x2
	.long	0xa874
	.uleb128 0x1
	.long	0x58bf
	.byte	0
	.uleb128 0x2a
	.long	.LASF78
	.byte	0x6
	.byte	0x49
	.byte	0x1a
	.long	0xa888
	.uleb128 0x21
	.long	.LASF79
	.byte	0x6
	.byte	0x81
	.byte	0x7
	.long	.LASF598
	.long	0xa86a
	.byte	0x1
	.long	0x58e4
	.long	0x58f4
	.uleb128 0x2
	.long	0xa856
	.uleb128 0x1
	.long	0x58f4
	.uleb128 0x1
	.long	0x9394
	.byte	0
	.uleb128 0x2a
	.long	.LASF81
	.byte	0x6
	.byte	0x43
	.byte	0x1f
	.long	0x2bc
	.uleb128 0x24
	.long	.LASF82
	.byte	0x6
	.byte	0xa7
	.byte	0x7
	.long	.LASF599
	.byte	0x1
	.long	0x5915
	.long	0x5925
	.uleb128 0x2
	.long	0xa856
	.uleb128 0x1
	.long	0xa86a
	.uleb128 0x1
	.long	0x58f4
	.byte	0
	.uleb128 0x21
	.long	.LASF84
	.byte	0x6
	.byte	0xc2
	.byte	0x7
	.long	.LASF600
	.long	0x58f4
	.byte	0x1
	.long	0x593e
	.long	0x5944
	.uleb128 0x2
	.long	0xa874
	.byte	0
	.uleb128 0x45
	.long	.LASF86
	.byte	0x6
	.byte	0xf2
	.byte	0x7
	.long	.LASF601
	.long	0x58f4
	.long	0x595c
	.long	0x5962
	.uleb128 0x2
	.long	0xa874
	.byte	0
	.uleb128 0xf
	.string	"_Tp"
	.long	0x30
	.byte	0
	.uleb128 0x7
	.long	0x57ce
	.uleb128 0x3f
	.long	.LASF602
	.byte	0x1
	.byte	0x5
	.byte	0x85
	.long	0x59f5
	.uleb128 0x47
	.long	0x57ce
	.byte	0x1
	.uleb128 0x24
	.long	.LASF89
	.byte	0x5
	.byte	0xa8
	.byte	0x7
	.long	.LASF603
	.byte	0x1
	.long	0x5998
	.long	0x599e
	.uleb128 0x2
	.long	0xa88d
	.byte	0
	.uleb128 0x24
	.long	.LASF89
	.byte	0x5
	.byte	0xac
	.byte	0x7
	.long	.LASF604
	.byte	0x1
	.long	0x59b3
	.long	0x59be
	.uleb128 0x2
	.long	0xa88d
	.uleb128 0x1
	.long	0xa897
	.byte	0
	.uleb128 0x4e
	.long	.LASF35
	.byte	0x5
	.byte	0xb1
	.byte	0x12
	.long	.LASF605
	.long	0xa89c
	.long	0x59d6
	.long	0x59e1
	.uleb128 0x2
	.long	0xa88d
	.uleb128 0x1
	.long	0xa897
	.byte	0
	.uleb128 0x6d
	.long	.LASF93
	.long	.LASF606
	.long	0x59ee
	.uleb128 0x2
	.long	0xa88d
	.byte	0
	.byte	0
	.uleb128 0x7
	.long	0x5971
	.uleb128 0x5a
	.long	.LASF607
	.byte	0x1
	.byte	0x8
	.value	0x248
	.byte	0xc
	.long	0x5af8
	.uleb128 0x1e
	.long	.LASF74
	.byte	0x8
	.value	0x251
	.byte	0xd
	.long	0xa86a
	.uleb128 0x16
	.long	.LASF79
	.byte	0x8
	.value	0x27d
	.byte	0x7
	.long	.LASF608
	.long	0x5a08
	.long	0x5a35
	.uleb128 0x1
	.long	0xa8a1
	.uleb128 0x1
	.long	0x5a47
	.byte	0
	.uleb128 0x1e
	.long	.LASF98
	.byte	0x8
	.value	0x24b
	.byte	0xd
	.long	0x5971
	.uleb128 0x7
	.long	0x5a35
	.uleb128 0x1e
	.long	.LASF81
	.byte	0x8
	.value	0x260
	.byte	0xd
	.long	0x2bc
	.uleb128 0x16
	.long	.LASF79
	.byte	0x8
	.value	0x28c
	.byte	0x7
	.long	.LASF609
	.long	0x5a08
	.long	0x5a79
	.uleb128 0x1
	.long	0xa8a1
	.uleb128 0x1
	.long	0x5a47
	.uleb128 0x1
	.long	0x5a79
	.byte	0
	.uleb128 0x1e
	.long	.LASF100
	.byte	0x8
	.value	0x25a
	.byte	0xd
	.long	0x9394
	.uleb128 0x38
	.long	.LASF82
	.byte	0x8
	.value	0x2b0
	.byte	0x7
	.long	.LASF610
	.long	0x5aa7
	.uleb128 0x1
	.long	0xa8a1
	.uleb128 0x1
	.long	0x5a08
	.uleb128 0x1
	.long	0x5a47
	.byte	0
	.uleb128 0x16
	.long	.LASF84
	.byte	0x8
	.value	0x2ed
	.byte	0x7
	.long	.LASF611
	.long	0x5a47
	.long	0x5ac2
	.uleb128 0x1
	.long	0xa8a6
	.byte	0
	.uleb128 0x16
	.long	.LASF102
	.byte	0x8
	.value	0x2fd
	.byte	0x7
	.long	.LASF612
	.long	0x5a35
	.long	0x5add
	.uleb128 0x1
	.long	0xa8a6
	.byte	0
	.uleb128 0x1e
	.long	.LASF6
	.byte	0x8
	.value	0x24e
	.byte	0xd
	.long	0x30
	.uleb128 0x1e
	.long	.LASF104
	.byte	0x8
	.value	0x26f
	.byte	0x8
	.long	0x5971
	.byte	0
	.uleb128 0x1a
	.long	.LASF613
	.byte	0x18
	.byte	0x2
	.byte	0x5b
	.byte	0xc
	.long	0x5e99
	.uleb128 0x1a
	.long	.LASF106
	.byte	0x18
	.byte	0x2
	.byte	0x62
	.byte	0xe
	.long	0x5bab
	.uleb128 0x11
	.long	.LASF108
	.byte	0x2
	.byte	0x64
	.byte	0xa
	.long	0x5bb0
	.byte	0
	.uleb128 0x11
	.long	.LASF109
	.byte	0x2
	.byte	0x65
	.byte	0xa
	.long	0x5bb0
	.byte	0x8
	.uleb128 0x11
	.long	.LASF110
	.byte	0x2
	.byte	0x66
	.byte	0xa
	.long	0x5bb0
	.byte	0x10
	.uleb128 0x23
	.long	.LASF106
	.byte	0x2
	.byte	0x69
	.byte	0x2
	.long	.LASF614
	.long	0x5b4d
	.long	0x5b53
	.uleb128 0x2
	.long	0xa8b5
	.byte	0
	.uleb128 0x23
	.long	.LASF106
	.byte	0x2
	.byte	0x6f
	.byte	0x2
	.long	.LASF615
	.long	0x5b67
	.long	0x5b72
	.uleb128 0x2
	.long	0xa8b5
	.uleb128 0x1
	.long	0xa8bf
	.byte	0
	.uleb128 0x23
	.long	.LASF113
	.byte	0x2
	.byte	0x77
	.byte	0x2
	.long	.LASF616
	.long	0x5b86
	.long	0x5b91
	.uleb128 0x2
	.long	0xa8b5
	.uleb128 0x1
	.long	0xa8c4
	.byte	0
	.uleb128 0x66
	.long	.LASF115
	.byte	0x80
	.long	.LASF617
	.long	0x5b9f
	.uleb128 0x2
	.long	0xa8b5
	.uleb128 0x1
	.long	0xa8c9
	.byte	0
	.byte	0
	.uleb128 0x7
	.long	0x5b05
	.uleb128 0x8
	.long	.LASF74
	.byte	0x2
	.byte	0x60
	.byte	0x9
	.long	0x8f8d
	.uleb128 0x1a
	.long	.LASF116
	.byte	0x18
	.byte	0x2
	.byte	0x8b
	.byte	0xe
	.long	0x5c82
	.uleb128 0x36
	.long	0x5971
	.uleb128 0x36
	.long	0x5b05
	.uleb128 0x23
	.long	.LASF116
	.byte	0x2
	.byte	0x8f
	.byte	0x2
	.long	.LASF618
	.long	0x5be7
	.long	0x5bed
	.uleb128 0x2
	.long	0xa8ce
	.byte	0
	.uleb128 0x23
	.long	.LASF116
	.byte	0x2
	.byte	0x98
	.byte	0x2
	.long	.LASF619
	.long	0x5c01
	.long	0x5c0c
	.uleb128 0x2
	.long	0xa8ce
	.uleb128 0x1
	.long	0xa8d8
	.byte	0
	.uleb128 0x23
	.long	.LASF116
	.byte	0x2
	.byte	0xa0
	.byte	0x2
	.long	.LASF620
	.long	0x5c20
	.long	0x5c2b
	.uleb128 0x2
	.long	0xa8ce
	.uleb128 0x1
	.long	0xa8dd
	.byte	0
	.uleb128 0x23
	.long	.LASF116
	.byte	0x2
	.byte	0xa5
	.byte	0x2
	.long	.LASF621
	.long	0x5c3f
	.long	0x5c4a
	.uleb128 0x2
	.long	0xa8ce
	.uleb128 0x1
	.long	0xa8e2
	.byte	0
	.uleb128 0x23
	.long	.LASF116
	.byte	0x2
	.byte	0xaa
	.byte	0x2
	.long	.LASF622
	.long	0x5c5e
	.long	0x5c6e
	.uleb128 0x2
	.long	0xa8ce
	.uleb128 0x1
	.long	0xa8e2
	.uleb128 0x1
	.long	0xa8dd
	.byte	0
	.uleb128 0x6e
	.long	.LASF481
	.long	.LASF623
	.long	0x5c7b
	.uleb128 0x2
	.long	0xa8ce
	.byte	0
	.byte	0
	.uleb128 0x8
	.long	.LASF122
	.byte	0x2
	.byte	0x5e
	.byte	0x15
	.long	0x8fbe
	.uleb128 0x7
	.long	0x5c82
	.uleb128 0x37
	.long	.LASF123
	.value	0x133
	.byte	0x7
	.long	.LASF624
	.long	0xa8e7
	.long	0x5cab
	.long	0x5cb1
	.uleb128 0x2
	.long	0xa8ec
	.byte	0
	.uleb128 0x37
	.long	.LASF123
	.value	0x138
	.byte	0x7
	.long	.LASF625
	.long	0xa8d8
	.long	0x5cc9
	.long	0x5ccf
	.uleb128 0x2
	.long	0xa8f6
	.byte	0
	.uleb128 0x1e
	.long	.LASF98
	.byte	0x2
	.value	0x12f
	.byte	0x16
	.long	0x5971
	.uleb128 0x7
	.long	0x5ccf
	.uleb128 0x37
	.long	.LASF126
	.value	0x13d
	.byte	0x7
	.long	.LASF626
	.long	0x5ccf
	.long	0x5cf9
	.long	0x5cff
	.uleb128 0x2
	.long	0xa8f6
	.byte	0
	.uleb128 0x4f
	.long	.LASF128
	.value	0x141
	.long	.LASF627
	.long	0x5d12
	.long	0x5d18
	.uleb128 0x2
	.long	0xa8ec
	.byte	0
	.uleb128 0x1c
	.long	.LASF128
	.value	0x147
	.long	.LASF628
	.long	0x5d2b
	.long	0x5d36
	.uleb128 0x2
	.long	0xa8ec
	.uleb128 0x1
	.long	0xa8fb
	.byte	0
	.uleb128 0x1c
	.long	.LASF128
	.value	0x14d
	.long	.LASF629
	.long	0x5d49
	.long	0x5d54
	.uleb128 0x2
	.long	0xa8ec
	.uleb128 0x1
	.long	0x2bc
	.byte	0
	.uleb128 0x1c
	.long	.LASF128
	.value	0x153
	.long	.LASF630
	.long	0x5d67
	.long	0x5d77
	.uleb128 0x2
	.long	0xa8ec
	.uleb128 0x1
	.long	0x2bc
	.uleb128 0x1
	.long	0xa8fb
	.byte	0
	.uleb128 0x4f
	.long	.LASF128
	.value	0x158
	.long	.LASF631
	.long	0x5d8a
	.long	0x5d95
	.uleb128 0x2
	.long	0xa8ec
	.uleb128 0x1
	.long	0xa900
	.byte	0
	.uleb128 0x1c
	.long	.LASF128
	.value	0x15d
	.long	.LASF632
	.long	0x5da8
	.long	0x5db3
	.uleb128 0x2
	.long	0xa8ec
	.uleb128 0x1
	.long	0xa8e2
	.byte	0
	.uleb128 0x1c
	.long	.LASF128
	.value	0x161
	.long	.LASF633
	.long	0x5dc6
	.long	0x5dd6
	.uleb128 0x2
	.long	0xa8ec
	.uleb128 0x1
	.long	0xa900
	.uleb128 0x1
	.long	0xa8fb
	.byte	0
	.uleb128 0x1c
	.long	.LASF128
	.value	0x16f
	.long	.LASF634
	.long	0x5de9
	.long	0x5df9
	.uleb128 0x2
	.long	0xa8ec
	.uleb128 0x1
	.long	0xa8fb
	.uleb128 0x1
	.long	0xa900
	.byte	0
	.uleb128 0x1c
	.long	.LASF137
	.value	0x175
	.long	.LASF635
	.long	0x5e0c
	.long	0x5e12
	.uleb128 0x2
	.long	0xa8ec
	.byte	0
	.uleb128 0x50
	.long	.LASF139
	.value	0x17e
	.byte	0x14
	.long	0x5bbc
	.byte	0
	.uleb128 0x37
	.long	.LASF140
	.value	0x182
	.byte	0x7
	.long	.LASF636
	.long	0x5bb0
	.long	0x5e37
	.long	0x5e42
	.uleb128 0x2
	.long	0xa8ec
	.uleb128 0x1
	.long	0x2bc
	.byte	0
	.uleb128 0x1c
	.long	.LASF142
	.value	0x18a
	.long	.LASF637
	.long	0x5e55
	.long	0x5e65
	.uleb128 0x2
	.long	0xa8ec
	.uleb128 0x1
	.long	0x5bb0
	.uleb128 0x1
	.long	0x2bc
	.byte	0
	.uleb128 0x10
	.long	.LASF144
	.byte	0x2
	.value	0x195
	.byte	0x7
	.long	.LASF638
	.byte	0x2
	.long	0x5e7b
	.long	0x5e86
	.uleb128 0x2
	.long	0xa8ec
	.uleb128 0x1
	.long	0x2bc
	.byte	0
	.uleb128 0xf
	.string	"_Tp"
	.long	0x30
	.uleb128 0xa
	.long	.LASF146
	.long	0x5971
	.byte	0
	.uleb128 0x7
	.long	0x5af8
	.uleb128 0x1a
	.long	.LASF639
	.byte	0x1
	.byte	0x14
	.byte	0xa9
	.byte	0xc
	.long	0x5ec1
	.uleb128 0x8
	.long	.LASF148
	.byte	0x14
	.byte	0xaa
	.byte	0xd
	.long	0x5971
	.uleb128 0xa
	.long	.LASF149
	.long	0x5971
	.byte	0
	.uleb128 0x48
	.long	.LASF640
	.byte	0x18
	.byte	0x2
	.value	0x1cc
	.long	0x6a95
	.uleb128 0x19
	.byte	0x2
	.value	0x1cc
	.byte	0xb
	.long	0x5e1f
	.uleb128 0x19
	.byte	0x2
	.value	0x1cc
	.byte	0xb
	.long	0x5e42
	.uleb128 0x19
	.byte	0x2
	.value	0x1cc
	.byte	0xb
	.long	0x5e12
	.uleb128 0x19
	.byte	0x2
	.value	0x1cc
	.byte	0xb
	.long	0x5cb1
	.uleb128 0x19
	.byte	0x2
	.value	0x1cc
	.byte	0xb
	.long	0x5c93
	.uleb128 0x19
	.byte	0x2
	.value	0x1cc
	.byte	0xb
	.long	0x5ce1
	.uleb128 0x47
	.long	0x5af8
	.byte	0x2
	.uleb128 0x16
	.long	.LASF151
	.byte	0x2
	.value	0x1f6
	.byte	0x7
	.long	.LASF641
	.long	0x9345
	.long	0x5f25
	.uleb128 0x1
	.long	0x63c
	.byte	0
	.uleb128 0x16
	.long	.LASF151
	.byte	0x2
	.value	0x1ff
	.byte	0x7
	.long	.LASF642
	.long	0x9345
	.long	0x5f40
	.uleb128 0x1
	.long	0x3ac
	.byte	0
	.uleb128 0x6f
	.long	.LASF345
	.long	.LASF643
	.long	0x9345
	.uleb128 0x15
	.long	.LASF74
	.byte	0x2
	.value	0x1e6
	.byte	0x29
	.long	0x5bb0
	.uleb128 0x16
	.long	.LASF154
	.byte	0x2
	.value	0x20c
	.byte	0x7
	.long	.LASF644
	.long	0x5f4d
	.long	0x5f84
	.uleb128 0x1
	.long	0x5f4d
	.uleb128 0x1
	.long	0x5f4d
	.uleb128 0x1
	.long	0x5f4d
	.uleb128 0x1
	.long	0xa905
	.byte	0
	.uleb128 0x1e
	.long	.LASF122
	.byte	0x2
	.value	0x1e1
	.byte	0x2f
	.long	0x5c82
	.uleb128 0x7
	.long	0x5f84
	.uleb128 0x51
	.long	.LASF156
	.value	0x227
	.long	.LASF645
	.long	0x5fa9
	.long	0x5faf
	.uleb128 0x2
	.long	0xa90a
	.byte	0
	.uleb128 0x41
	.long	.LASF156
	.byte	0x2
	.value	0x232
	.long	.LASF646
	.long	0x5fc3
	.long	0x5fce
	.uleb128 0x2
	.long	0xa90a
	.uleb128 0x1
	.long	0xa914
	.byte	0
	.uleb128 0x15
	.long	.LASF98
	.byte	0x2
	.value	0x1f1
	.byte	0x1a
	.long	0x5971
	.uleb128 0x7
	.long	0x5fce
	.uleb128 0x41
	.long	.LASF156
	.byte	0x2
	.value	0x240
	.long	.LASF647
	.long	0x5ff4
	.long	0x6004
	.uleb128 0x2
	.long	0xa90a
	.uleb128 0x1
	.long	0x6004
	.uleb128 0x1
	.long	0xa914
	.byte	0
	.uleb128 0x15
	.long	.LASF81
	.byte	0x2
	.value	0x1ef
	.byte	0x1a
	.long	0x2bc
	.uleb128 0x10
	.long	.LASF156
	.byte	0x2
	.value	0x24d
	.byte	0x7
	.long	.LASF648
	.byte	0x1
	.long	0x6027
	.long	0x603c
	.uleb128 0x2
	.long	0xa90a
	.uleb128 0x1
	.long	0x6004
	.uleb128 0x1
	.long	0xa919
	.uleb128 0x1
	.long	0xa914
	.byte	0
	.uleb128 0x15
	.long	.LASF6
	.byte	0x2
	.value	0x1e5
	.byte	0x17
	.long	0x30
	.uleb128 0x7
	.long	0x603c
	.uleb128 0x10
	.long	.LASF156
	.byte	0x2
	.value	0x26d
	.byte	0x7
	.long	.LASF649
	.byte	0x1
	.long	0x6064
	.long	0x606f
	.uleb128 0x2
	.long	0xa90a
	.uleb128 0x1
	.long	0xa91e
	.byte	0
	.uleb128 0x51
	.long	.LASF156
	.value	0x280
	.long	.LASF650
	.long	0x6082
	.long	0x608d
	.uleb128 0x2
	.long	0xa90a
	.uleb128 0x1
	.long	0xa923
	.byte	0
	.uleb128 0x10
	.long	.LASF156
	.byte	0x2
	.value	0x284
	.byte	0x7
	.long	.LASF651
	.byte	0x1
	.long	0x60a3
	.long	0x60b3
	.uleb128 0x2
	.long	0xa90a
	.uleb128 0x1
	.long	0xa91e
	.uleb128 0x1
	.long	0xa928
	.byte	0
	.uleb128 0x1c
	.long	.LASF156
	.value	0x28f
	.long	.LASF652
	.long	0x60c6
	.long	0x60db
	.uleb128 0x2
	.long	0xa90a
	.uleb128 0x1
	.long	0xa923
	.uleb128 0x1
	.long	0xa914
	.uleb128 0x1
	.long	0x63c
	.byte	0
	.uleb128 0x1c
	.long	.LASF156
	.value	0x294
	.long	.LASF653
	.long	0x60ee
	.long	0x6103
	.uleb128 0x2
	.long	0xa90a
	.uleb128 0x1
	.long	0xa923
	.uleb128 0x1
	.long	0xa914
	.uleb128 0x1
	.long	0x3ac
	.byte	0
	.uleb128 0x10
	.long	.LASF156
	.byte	0x2
	.value	0x2a7
	.byte	0x7
	.long	.LASF654
	.byte	0x1
	.long	0x6119
	.long	0x6129
	.uleb128 0x2
	.long	0xa90a
	.uleb128 0x1
	.long	0xa923
	.uleb128 0x1
	.long	0xa928
	.byte	0
	.uleb128 0x10
	.long	.LASF156
	.byte	0x2
	.value	0x2ba
	.byte	0x7
	.long	.LASF655
	.byte	0x1
	.long	0x613f
	.long	0x614f
	.uleb128 0x2
	.long	0xa90a
	.uleb128 0x1
	.long	0x6aab
	.uleb128 0x1
	.long	0xa914
	.byte	0
	.uleb128 0x10
	.long	.LASF168
	.byte	0x2
	.value	0x316
	.byte	0x7
	.long	.LASF656
	.byte	0x1
	.long	0x6165
	.long	0x616b
	.uleb128 0x2
	.long	0xa90a
	.byte	0
	.uleb128 0x21
	.long	.LASF35
	.byte	0x7
	.byte	0xd6
	.byte	0x5
	.long	.LASF657
	.long	0xa92d
	.byte	0x1
	.long	0x6184
	.long	0x618f
	.uleb128 0x2
	.long	0xa90a
	.uleb128 0x1
	.long	0xa91e
	.byte	0
	.uleb128 0x6
	.long	.LASF35
	.byte	0x2
	.value	0x337
	.byte	0x7
	.long	.LASF658
	.long	0xa92d
	.byte	0x1
	.long	0x61a9
	.long	0x61b4
	.uleb128 0x2
	.long	0xa90a
	.uleb128 0x1
	.long	0xa923
	.byte	0
	.uleb128 0x6
	.long	.LASF35
	.byte	0x2
	.value	0x34d
	.byte	0x7
	.long	.LASF659
	.long	0xa92d
	.byte	0x1
	.long	0x61ce
	.long	0x61d9
	.uleb128 0x2
	.long	0xa90a
	.uleb128 0x1
	.long	0x6aab
	.byte	0
	.uleb128 0x10
	.long	.LASF173
	.byte	0x2
	.value	0x361
	.byte	0x7
	.long	.LASF660
	.byte	0x1
	.long	0x61ef
	.long	0x61ff
	.uleb128 0x2
	.long	0xa90a
	.uleb128 0x1
	.long	0x6004
	.uleb128 0x1
	.long	0xa919
	.byte	0
	.uleb128 0x10
	.long	.LASF173
	.byte	0x2
	.value	0x390
	.byte	0x7
	.long	.LASF661
	.byte	0x1
	.long	0x6215
	.long	0x6220
	.uleb128 0x2
	.long	0xa90a
	.uleb128 0x1
	.long	0x6aab
	.byte	0
	.uleb128 0x15
	.long	.LASF176
	.byte	0x2
	.value	0x1ea
	.byte	0x3d
	.long	0x8fde
	.uleb128 0x6
	.long	.LASF177
	.byte	0x2
	.value	0x3dc
	.byte	0x7
	.long	.LASF662
	.long	0x6220
	.byte	0x1
	.long	0x6247
	.long	0x624d
	.uleb128 0x2
	.long	0xa90a
	.byte	0
	.uleb128 0x15
	.long	.LASF179
	.byte	0x2
	.value	0x1ec
	.byte	0x7
	.long	0x9211
	.uleb128 0x6
	.long	.LASF177
	.byte	0x2
	.value	0x3e6
	.byte	0x7
	.long	.LASF663
	.long	0x624d
	.byte	0x1
	.long	0x6274
	.long	0x627a
	.uleb128 0x2
	.long	0xa932
	.byte	0
	.uleb128 0x3a
	.string	"end"
	.value	0x3f0
	.long	.LASF664
	.long	0x6220
	.long	0x6291
	.long	0x6297
	.uleb128 0x2
	.long	0xa90a
	.byte	0
	.uleb128 0x3a
	.string	"end"
	.value	0x3fa
	.long	.LASF665
	.long	0x624d
	.long	0x62ae
	.long	0x62b4
	.uleb128 0x2
	.long	0xa932
	.byte	0
	.uleb128 0x15
	.long	.LASF183
	.byte	0x2
	.value	0x1ee
	.byte	0x30
	.long	0x6b9d
	.uleb128 0x6
	.long	.LASF184
	.byte	0x2
	.value	0x404
	.byte	0x7
	.long	.LASF666
	.long	0x62b4
	.byte	0x1
	.long	0x62db
	.long	0x62e1
	.uleb128 0x2
	.long	0xa90a
	.byte	0
	.uleb128 0x15
	.long	.LASF186
	.byte	0x2
	.value	0x1ed
	.byte	0x35
	.long	0x6ba2
	.uleb128 0x6
	.long	.LASF184
	.byte	0x2
	.value	0x40e
	.byte	0x7
	.long	.LASF667
	.long	0x62e1
	.byte	0x1
	.long	0x6308
	.long	0x630e
	.uleb128 0x2
	.long	0xa932
	.byte	0
	.uleb128 0x6
	.long	.LASF188
	.byte	0x2
	.value	0x418
	.byte	0x7
	.long	.LASF668
	.long	0x62b4
	.byte	0x1
	.long	0x6328
	.long	0x632e
	.uleb128 0x2
	.long	0xa90a
	.byte	0
	.uleb128 0x6
	.long	.LASF188
	.byte	0x2
	.value	0x422
	.byte	0x7
	.long	.LASF669
	.long	0x62e1
	.byte	0x1
	.long	0x6348
	.long	0x634e
	.uleb128 0x2
	.long	0xa932
	.byte	0
	.uleb128 0x6
	.long	.LASF191
	.byte	0x2
	.value	0x42d
	.byte	0x7
	.long	.LASF670
	.long	0x624d
	.byte	0x1
	.long	0x6368
	.long	0x636e
	.uleb128 0x2
	.long	0xa932
	.byte	0
	.uleb128 0x6
	.long	.LASF193
	.byte	0x2
	.value	0x437
	.byte	0x7
	.long	.LASF671
	.long	0x624d
	.byte	0x1
	.long	0x6388
	.long	0x638e
	.uleb128 0x2
	.long	0xa932
	.byte	0
	.uleb128 0x6
	.long	.LASF195
	.byte	0x2
	.value	0x441
	.byte	0x7
	.long	.LASF672
	.long	0x62e1
	.byte	0x1
	.long	0x63a8
	.long	0x63ae
	.uleb128 0x2
	.long	0xa932
	.byte	0
	.uleb128 0x6
	.long	.LASF197
	.byte	0x2
	.value	0x44b
	.byte	0x7
	.long	.LASF673
	.long	0x62e1
	.byte	0x1
	.long	0x63c8
	.long	0x63ce
	.uleb128 0x2
	.long	0xa932
	.byte	0
	.uleb128 0x6
	.long	.LASF199
	.byte	0x2
	.value	0x453
	.byte	0x7
	.long	.LASF674
	.long	0x6004
	.byte	0x1
	.long	0x63e8
	.long	0x63ee
	.uleb128 0x2
	.long	0xa932
	.byte	0
	.uleb128 0x6
	.long	.LASF84
	.byte	0x2
	.value	0x45e
	.byte	0x7
	.long	.LASF675
	.long	0x6004
	.byte	0x1
	.long	0x6408
	.long	0x640e
	.uleb128 0x2
	.long	0xa932
	.byte	0
	.uleb128 0x10
	.long	.LASF202
	.byte	0x2
	.value	0x46d
	.byte	0x7
	.long	.LASF676
	.byte	0x1
	.long	0x6424
	.long	0x642f
	.uleb128 0x2
	.long	0xa90a
	.uleb128 0x1
	.long	0x6004
	.byte	0
	.uleb128 0x10
	.long	.LASF202
	.byte	0x2
	.value	0x482
	.byte	0x7
	.long	.LASF677
	.byte	0x1
	.long	0x6445
	.long	0x6455
	.uleb128 0x2
	.long	0xa90a
	.uleb128 0x1
	.long	0x6004
	.uleb128 0x1
	.long	0xa919
	.byte	0
	.uleb128 0x10
	.long	.LASF205
	.byte	0x2
	.value	0x4a4
	.byte	0x7
	.long	.LASF678
	.byte	0x1
	.long	0x646b
	.long	0x6471
	.uleb128 0x2
	.long	0xa90a
	.byte	0
	.uleb128 0x6
	.long	.LASF207
	.byte	0x2
	.value	0x4ae
	.byte	0x7
	.long	.LASF679
	.long	0x6004
	.byte	0x1
	.long	0x648b
	.long	0x6491
	.uleb128 0x2
	.long	0xa932
	.byte	0
	.uleb128 0x6
	.long	.LASF209
	.byte	0x2
	.value	0x4bd
	.byte	0x7
	.long	.LASF680
	.long	0x9345
	.byte	0x1
	.long	0x64ab
	.long	0x64b1
	.uleb128 0x2
	.long	0xa932
	.byte	0
	.uleb128 0x24
	.long	.LASF211
	.byte	0x7
	.byte	0x46
	.byte	0x5
	.long	.LASF681
	.byte	0x1
	.long	0x64c6
	.long	0x64d1
	.uleb128 0x2
	.long	0xa90a
	.uleb128 0x1
	.long	0x6004
	.byte	0
	.uleb128 0x15
	.long	.LASF75
	.byte	0x2
	.value	0x1e8
	.byte	0x32
	.long	0x8f99
	.uleb128 0x6
	.long	.LASF213
	.byte	0x2
	.value	0x4e3
	.byte	0x7
	.long	.LASF682
	.long	0x64d1
	.byte	0x1
	.long	0x64f8
	.long	0x6503
	.uleb128 0x2
	.long	0xa90a
	.uleb128 0x1
	.long	0x6004
	.byte	0
	.uleb128 0x15
	.long	.LASF78
	.byte	0x2
	.value	0x1e9
	.byte	0x37
	.long	0x8fa5
	.uleb128 0x6
	.long	.LASF213
	.byte	0x2
	.value	0x4f6
	.byte	0x7
	.long	.LASF683
	.long	0x6503
	.byte	0x1
	.long	0x652a
	.long	0x6535
	.uleb128 0x2
	.long	0xa932
	.uleb128 0x1
	.long	0x6004
	.byte	0
	.uleb128 0x10
	.long	.LASF216
	.byte	0x2
	.value	0x500
	.byte	0x7
	.long	.LASF684
	.byte	0x2
	.long	0x654b
	.long	0x6556
	.uleb128 0x2
	.long	0xa932
	.uleb128 0x1
	.long	0x6004
	.byte	0
	.uleb128 0x3a
	.string	"at"
	.value	0x517
	.long	.LASF685
	.long	0x64d1
	.long	0x656c
	.long	0x6577
	.uleb128 0x2
	.long	0xa90a
	.uleb128 0x1
	.long	0x6004
	.byte	0
	.uleb128 0x3a
	.string	"at"
	.value	0x52a
	.long	.LASF686
	.long	0x6503
	.long	0x658d
	.long	0x6598
	.uleb128 0x2
	.long	0xa932
	.uleb128 0x1
	.long	0x6004
	.byte	0
	.uleb128 0x6
	.long	.LASF220
	.byte	0x2
	.value	0x536
	.byte	0x7
	.long	.LASF687
	.long	0x64d1
	.byte	0x1
	.long	0x65b2
	.long	0x65b8
	.uleb128 0x2
	.long	0xa90a
	.byte	0
	.uleb128 0x6
	.long	.LASF220
	.byte	0x2
	.value	0x542
	.byte	0x7
	.long	.LASF688
	.long	0x6503
	.byte	0x1
	.long	0x65d2
	.long	0x65d8
	.uleb128 0x2
	.long	0xa932
	.byte	0
	.uleb128 0x6
	.long	.LASF223
	.byte	0x2
	.value	0x54e
	.byte	0x7
	.long	.LASF689
	.long	0x64d1
	.byte	0x1
	.long	0x65f2
	.long	0x65f8
	.uleb128 0x2
	.long	0xa90a
	.byte	0
	.uleb128 0x6
	.long	.LASF223
	.byte	0x2
	.value	0x55a
	.byte	0x7
	.long	.LASF690
	.long	0x6503
	.byte	0x1
	.long	0x6612
	.long	0x6618
	.uleb128 0x2
	.long	0xa932
	.byte	0
	.uleb128 0x6
	.long	.LASF226
	.byte	0x2
	.value	0x569
	.byte	0x7
	.long	.LASF691
	.long	0xa86a
	.byte	0x1
	.long	0x6632
	.long	0x6638
	.uleb128 0x2
	.long	0xa90a
	.byte	0
	.uleb128 0x6
	.long	.LASF226
	.byte	0x2
	.value	0x56e
	.byte	0x7
	.long	.LASF692
	.long	0xa883
	.byte	0x1
	.long	0x6652
	.long	0x6658
	.uleb128 0x2
	.long	0xa932
	.byte	0
	.uleb128 0x10
	.long	.LASF229
	.byte	0x2
	.value	0x57e
	.byte	0x7
	.long	.LASF693
	.byte	0x1
	.long	0x666e
	.long	0x6679
	.uleb128 0x2
	.long	0xa90a
	.uleb128 0x1
	.long	0xa919
	.byte	0
	.uleb128 0x10
	.long	.LASF229
	.byte	0x2
	.value	0x58f
	.byte	0x7
	.long	.LASF694
	.byte	0x1
	.long	0x668f
	.long	0x669a
	.uleb128 0x2
	.long	0xa90a
	.uleb128 0x1
	.long	0xa93c
	.byte	0
	.uleb128 0x10
	.long	.LASF232
	.byte	0x2
	.value	0x5a7
	.byte	0x7
	.long	.LASF695
	.byte	0x1
	.long	0x66b0
	.long	0x66b6
	.uleb128 0x2
	.long	0xa90a
	.byte	0
	.uleb128 0x21
	.long	.LASF234
	.byte	0x7
	.byte	0x89
	.byte	0x5
	.long	.LASF696
	.long	0x6220
	.byte	0x1
	.long	0x66cf
	.long	0x66df
	.uleb128 0x2
	.long	0xa90a
	.uleb128 0x1
	.long	0x624d
	.uleb128 0x1
	.long	0xa919
	.byte	0
	.uleb128 0x6
	.long	.LASF234
	.byte	0x2
	.value	0x5ee
	.byte	0x7
	.long	.LASF697
	.long	0x6220
	.byte	0x1
	.long	0x66f9
	.long	0x6709
	.uleb128 0x2
	.long	0xa90a
	.uleb128 0x1
	.long	0x624d
	.uleb128 0x1
	.long	0xa93c
	.byte	0
	.uleb128 0x6
	.long	.LASF234
	.byte	0x2
	.value	0x600
	.byte	0x7
	.long	.LASF698
	.long	0x6220
	.byte	0x1
	.long	0x6723
	.long	0x6733
	.uleb128 0x2
	.long	0xa90a
	.uleb128 0x1
	.long	0x624d
	.uleb128 0x1
	.long	0x6aab
	.byte	0
	.uleb128 0x6
	.long	.LASF234
	.byte	0x2
	.value	0x61a
	.byte	0x7
	.long	.LASF699
	.long	0x6220
	.byte	0x1
	.long	0x674d
	.long	0x6762
	.uleb128 0x2
	.long	0xa90a
	.uleb128 0x1
	.long	0x624d
	.uleb128 0x1
	.long	0x6004
	.uleb128 0x1
	.long	0xa919
	.byte	0
	.uleb128 0x6
	.long	.LASF239
	.byte	0x2
	.value	0x6f6
	.byte	0x7
	.long	.LASF700
	.long	0x6220
	.byte	0x1
	.long	0x677c
	.long	0x6787
	.uleb128 0x2
	.long	0xa90a
	.uleb128 0x1
	.long	0x624d
	.byte	0
	.uleb128 0x6
	.long	.LASF239
	.byte	0x2
	.value	0x712
	.byte	0x7
	.long	.LASF701
	.long	0x6220
	.byte	0x1
	.long	0x67a1
	.long	0x67b1
	.uleb128 0x2
	.long	0xa90a
	.uleb128 0x1
	.long	0x624d
	.uleb128 0x1
	.long	0x624d
	.byte	0
	.uleb128 0x10
	.long	.LASF40
	.byte	0x2
	.value	0x72a
	.byte	0x7
	.long	.LASF702
	.byte	0x1
	.long	0x67c7
	.long	0x67d2
	.uleb128 0x2
	.long	0xa90a
	.uleb128 0x1
	.long	0xa92d
	.byte	0
	.uleb128 0x10
	.long	.LASF243
	.byte	0x2
	.value	0x73d
	.byte	0x7
	.long	.LASF703
	.byte	0x1
	.long	0x67e8
	.long	0x67ee
	.uleb128 0x2
	.long	0xa90a
	.byte	0
	.uleb128 0x10
	.long	.LASF245
	.byte	0x2
	.value	0x7c3
	.byte	0x7
	.long	.LASF704
	.byte	0x2
	.long	0x6804
	.long	0x6814
	.uleb128 0x2
	.long	0xa90a
	.uleb128 0x1
	.long	0x6004
	.uleb128 0x1
	.long	0xa919
	.byte	0
	.uleb128 0x10
	.long	.LASF247
	.byte	0x2
	.value	0x7ce
	.byte	0x7
	.long	.LASF705
	.byte	0x2
	.long	0x682a
	.long	0x6835
	.uleb128 0x2
	.long	0xa90a
	.uleb128 0x1
	.long	0x6004
	.byte	0
	.uleb128 0x10
	.long	.LASF249
	.byte	0x7
	.value	0x112
	.byte	0x5
	.long	.LASF706
	.byte	0x2
	.long	0x684b
	.long	0x685b
	.uleb128 0x2
	.long	0xa90a
	.uleb128 0x1
	.long	0x2bc
	.uleb128 0x1
	.long	0xa919
	.byte	0
	.uleb128 0x10
	.long	.LASF251
	.byte	0x7
	.value	0x296
	.byte	0x5
	.long	.LASF707
	.byte	0x2
	.long	0x6871
	.long	0x6886
	.uleb128 0x2
	.long	0xa90a
	.uleb128 0x1
	.long	0x6220
	.uleb128 0x1
	.long	0x6004
	.uleb128 0x1
	.long	0xa919
	.byte	0
	.uleb128 0x10
	.long	.LASF253
	.byte	0x7
	.value	0x300
	.byte	0x5
	.long	.LASF708
	.byte	0x2
	.long	0x689c
	.long	0x68ac
	.uleb128 0x2
	.long	0xa90a
	.uleb128 0x1
	.long	0x6004
	.uleb128 0x1
	.long	0xa919
	.byte	0
	.uleb128 0x10
	.long	.LASF255
	.byte	0x7
	.value	0x339
	.byte	0x5
	.long	.LASF709
	.byte	0x2
	.long	0x68c2
	.long	0x68cd
	.uleb128 0x2
	.long	0xa90a
	.uleb128 0x1
	.long	0x6004
	.byte	0
	.uleb128 0x6
	.long	.LASF257
	.byte	0x7
	.value	0x396
	.byte	0x5
	.long	.LASF710
	.long	0x9345
	.byte	0x2
	.long	0x68e7
	.long	0x68ed
	.uleb128 0x2
	.long	0xa90a
	.byte	0
	.uleb128 0x6
	.long	.LASF259
	.byte	0x7
	.value	0x16f
	.byte	0x5
	.long	.LASF711
	.long	0x6220
	.byte	0x2
	.long	0x6907
	.long	0x6917
	.uleb128 0x2
	.long	0xa90a
	.uleb128 0x1
	.long	0x624d
	.uleb128 0x1
	.long	0xa93c
	.byte	0
	.uleb128 0x6
	.long	.LASF261
	.byte	0x2
	.value	0x889
	.byte	0x7
	.long	.LASF712
	.long	0x6220
	.byte	0x2
	.long	0x6931
	.long	0x6941
	.uleb128 0x2
	.long	0xa90a
	.uleb128 0x1
	.long	0x624d
	.uleb128 0x1
	.long	0xa93c
	.byte	0
	.uleb128 0x6
	.long	.LASF263
	.byte	0x2
	.value	0x890
	.byte	0x7
	.long	.LASF713
	.long	0x6004
	.byte	0x2
	.long	0x695b
	.long	0x696b
	.uleb128 0x2
	.long	0xa932
	.uleb128 0x1
	.long	0x6004
	.uleb128 0x1
	.long	0x7911
	.byte	0
	.uleb128 0x52
	.long	.LASF265
	.value	0x89b
	.long	.LASF714
	.long	0x6004
	.long	0x6989
	.uleb128 0x1
	.long	0x6004
	.uleb128 0x1
	.long	0xa914
	.byte	0
	.uleb128 0x52
	.long	.LASF267
	.value	0x8a4
	.long	.LASF715
	.long	0x6004
	.long	0x69a2
	.uleb128 0x1
	.long	0xa941
	.byte	0
	.uleb128 0x10
	.long	.LASF269
	.byte	0x2
	.value	0x8b5
	.byte	0x7
	.long	.LASF716
	.byte	0x2
	.long	0x69b8
	.long	0x69c3
	.uleb128 0x2
	.long	0xa90a
	.uleb128 0x1
	.long	0x5f4d
	.byte	0
	.uleb128 0x21
	.long	.LASF271
	.byte	0x7
	.byte	0xb9
	.byte	0x5
	.long	.LASF717
	.long	0x6220
	.byte	0x2
	.long	0x69dc
	.long	0x69e7
	.uleb128 0x2
	.long	0xa90a
	.uleb128 0x1
	.long	0x6220
	.byte	0
	.uleb128 0x21
	.long	.LASF271
	.byte	0x7
	.byte	0xc7
	.byte	0x5
	.long	.LASF718
	.long	0x6220
	.byte	0x2
	.long	0x6a00
	.long	0x6a10
	.uleb128 0x2
	.long	0xa90a
	.uleb128 0x1
	.long	0x6220
	.uleb128 0x1
	.long	0x6220
	.byte	0
	.uleb128 0x1c
	.long	.LASF274
	.value	0x8cf
	.long	.LASF719
	.long	0x6a23
	.long	0x6a33
	.uleb128 0x2
	.long	0xa90a
	.uleb128 0x1
	.long	0xa923
	.uleb128 0x1
	.long	0x63c
	.byte	0
	.uleb128 0x1c
	.long	.LASF274
	.value	0x8db
	.long	.LASF720
	.long	0x6a46
	.long	0x6a56
	.uleb128 0x2
	.long	0xa90a
	.uleb128 0x1
	.long	0xa923
	.uleb128 0x1
	.long	0x3ac
	.byte	0
	.uleb128 0x37
	.long	.LASF721
	.value	0x8ee
	.byte	0x2
	.long	.LASF722
	.long	0xa86a
	.long	0x6a77
	.long	0x6a82
	.uleb128 0xf
	.string	"_Up"
	.long	0x30
	.uleb128 0x2
	.long	0xa932
	.uleb128 0x1
	.long	0xa86a
	.byte	0
	.uleb128 0xf
	.string	"_Tp"
	.long	0x30
	.uleb128 0x67
	.long	.LASF146
	.long	0x5971
	.byte	0
	.uleb128 0x7
	.long	0x5ec1
	.uleb128 0x8
	.long	.LASF279
	.byte	0x14
	.byte	0xad
	.byte	0xb
	.long	0x5eab
	.uleb128 0x7
	.long	0x6a9a
	.uleb128 0x3f
	.long	.LASF723
	.byte	0x10
	.byte	0x25
	.byte	0x2f
	.long	0x6b98
	.uleb128 0x2a
	.long	.LASF176
	.byte	0x25
	.byte	0x36
	.byte	0x1a
	.long	0xa883
	.uleb128 0x11
	.long	.LASF582
	.byte	0x25
	.byte	0x3a
	.byte	0x12
	.long	0x6ab7
	.byte	0
	.uleb128 0x2a
	.long	.LASF81
	.byte	0x25
	.byte	0x35
	.byte	0x18
	.long	0x2bc
	.uleb128 0x11
	.long	.LASF439
	.byte	0x25
	.byte	0x3b
	.byte	0x13
	.long	0x6ad0
	.byte	0x8
	.uleb128 0x23
	.long	.LASF583
	.byte	0x25
	.byte	0x3e
	.byte	0x11
	.long	.LASF724
	.long	0x6afd
	.long	0x6b0d
	.uleb128 0x2
	.long	0xa946
	.uleb128 0x1
	.long	0x6b0d
	.uleb128 0x1
	.long	0x6ad0
	.byte	0
	.uleb128 0x2a
	.long	.LASF179
	.byte	0x25
	.byte	0x37
	.byte	0x1a
	.long	0xa883
	.uleb128 0x24
	.long	.LASF583
	.byte	0x25
	.byte	0x42
	.byte	0x11
	.long	.LASF725
	.byte	0x1
	.long	0x6b2e
	.long	0x6b34
	.uleb128 0x2
	.long	0xa946
	.byte	0
	.uleb128 0x21
	.long	.LASF199
	.byte	0x25
	.byte	0x47
	.byte	0x7
	.long	.LASF726
	.long	0x6ad0
	.byte	0x1
	.long	0x6b4d
	.long	0x6b53
	.uleb128 0x2
	.long	0xa94b
	.byte	0
	.uleb128 0x21
	.long	.LASF177
	.byte	0x25
	.byte	0x4b
	.byte	0x7
	.long	.LASF727
	.long	0x6b0d
	.byte	0x1
	.long	0x6b6c
	.long	0x6b72
	.uleb128 0x2
	.long	0xa94b
	.byte	0
	.uleb128 0x8e
	.string	"end"
	.byte	0x4f
	.long	.LASF729
	.long	0x6b0d
	.long	0x6b89
	.long	0x6b8f
	.uleb128 0x2
	.long	0xa94b
	.byte	0
	.uleb128 0xf
	.string	"_E"
	.long	0x30
	.byte	0
	.uleb128 0x7
	.long	0x6aab
	.uleb128 0x34
	.long	.LASF730
	.uleb128 0x34
	.long	.LASF731
	.uleb128 0x1a
	.long	.LASF732
	.byte	0x1
	.byte	0x17
	.byte	0xd4
	.byte	0xc
	.long	0x6bee
	.uleb128 0x8
	.long	.LASF6
	.byte	0x17
	.byte	0xd7
	.byte	0x2b
	.long	0x30
	.uleb128 0x8
	.long	.LASF447
	.byte	0x17
	.byte	0xd8
	.byte	0x2b
	.long	0x62f
	.uleb128 0x8
	.long	.LASF74
	.byte	0x17
	.byte	0xd9
	.byte	0x2b
	.long	0xa86a
	.uleb128 0x8
	.long	.LASF75
	.byte	0x17
	.byte	0xda
	.byte	0x2b
	.long	0xa87e
	.uleb128 0xa
	.long	.LASF448
	.long	0xa86a
	.byte	0
	.uleb128 0x79
	.long	.LASF57
	.byte	0x14
	.byte	0xaf
	.byte	0xd
	.uleb128 0x1a
	.long	.LASF733
	.byte	0x1
	.byte	0x14
	.byte	0x8d
	.byte	0xc
	.long	0x6c19
	.uleb128 0x8
	.long	.LASF148
	.byte	0x14
	.byte	0x8e
	.byte	0xd
	.long	0xa649
	.uleb128 0xf
	.string	"_Tp"
	.long	0xa649
	.byte	0
	.uleb128 0x1a
	.long	.LASF734
	.byte	0x1
	.byte	0x17
	.byte	0xdf
	.byte	0xc
	.long	0x6c54
	.uleb128 0x8
	.long	.LASF447
	.byte	0x17
	.byte	0xe3
	.byte	0x2b
	.long	0x62f
	.uleb128 0x8
	.long	.LASF74
	.byte	0x17
	.byte	0xe4
	.byte	0x2b
	.long	0xa581
	.uleb128 0x8
	.long	.LASF75
	.byte	0x17
	.byte	0xe5
	.byte	0x2b
	.long	0xa58b
	.uleb128 0xa
	.long	.LASF448
	.long	0xa581
	.byte	0
	.uleb128 0x1a
	.long	.LASF735
	.byte	0x1
	.byte	0x17
	.byte	0xd4
	.byte	0xc
	.long	0x6c8f
	.uleb128 0x8
	.long	.LASF447
	.byte	0x17
	.byte	0xd8
	.byte	0x2b
	.long	0x62f
	.uleb128 0x8
	.long	.LASF74
	.byte	0x17
	.byte	0xd9
	.byte	0x2b
	.long	0xa075
	.uleb128 0x8
	.long	.LASF75
	.byte	0x17
	.byte	0xda
	.byte	0x2b
	.long	0xa089
	.uleb128 0xa
	.long	.LASF448
	.long	0xa075
	.byte	0
	.uleb128 0x1a
	.long	.LASF736
	.byte	0x10
	.byte	0xc
	.byte	0x6d
	.byte	0xc
	.long	0x6d60
	.uleb128 0x84
	.long	.LASF737
	.byte	0xc
	.byte	0x71
	.byte	0x7
	.long	.LASF738
	.long	0x6cb1
	.long	0x6cbc
	.uleb128 0x2
	.long	0xa9b4
	.uleb128 0x1
	.long	0xa9be
	.byte	0
	.uleb128 0x23
	.long	.LASF739
	.byte	0xc
	.byte	0x76
	.byte	0x7
	.long	.LASF740
	.long	0x6cd0
	.long	0x6cd6
	.uleb128 0x2
	.long	0xa9b4
	.byte	0
	.uleb128 0x23
	.long	.LASF741
	.byte	0xc
	.byte	0x83
	.byte	0xc
	.long	.LASF742
	.long	0x6cea
	.long	0x6cf0
	.uleb128 0x2
	.long	0xa9b4
	.byte	0
	.uleb128 0x11
	.long	.LASF743
	.byte	0xc
	.byte	0x85
	.byte	0x1e
	.long	0xa761
	.byte	0
	.uleb128 0x11
	.long	.LASF744
	.byte	0xc
	.byte	0x86
	.byte	0x19
	.long	0xa9c3
	.byte	0x8
	.uleb128 0x24
	.long	.LASF737
	.byte	0xc
	.byte	0x89
	.byte	0x7
	.long	.LASF745
	.byte	0x3
	.long	0x6d1f
	.long	0x6d2a
	.uleb128 0x2
	.long	0xa9b4
	.uleb128 0x1
	.long	0xa9c8
	.byte	0
	.uleb128 0xb1
	.long	.LASF746
	.byte	0xc
	.byte	0x8e
	.byte	0x2
	.long	.LASF747
	.byte	0x3
	.long	0x6d50
	.uleb128 0xa
	.long	.LASF748
	.long	0xa75c
	.uleb128 0x1
	.long	0xa75c
	.uleb128 0x1
	.long	0xa75c
	.byte	0
	.uleb128 0xa
	.long	.LASF60
	.long	0xa75c
	.uleb128 0xb2
	.long	.LASF146
	.byte	0
	.uleb128 0x7
	.long	0x6c8f
	.uleb128 0xb3
	.long	.LASF1484
	.byte	0x14
	.value	0x6e5
	.byte	0x26
	.long	0x934c
	.byte	0x1
	.byte	0x3
	.uleb128 0x8f
	.long	.LASF749
	.byte	0x45
	.long	.LASF751
	.uleb128 0x8f
	.long	.LASF750
	.byte	0x42
	.long	.LASF752
	.uleb128 0x85
	.long	.LASF753
	.byte	0x27
	.byte	0x4f
	.byte	0x3
	.long	.LASF754
	.long	0x6da2
	.uleb128 0x1
	.long	0x7911
	.byte	0
	.uleb128 0x38
	.long	.LASF755
	.byte	0xa
	.value	0x3d0
	.byte	0x5
	.long	.LASF756
	.long	0x6dd5
	.uleb128 0xa
	.long	.LASF757
	.long	0xa86a
	.uleb128 0xf
	.string	"_Tp"
	.long	0x30
	.uleb128 0x1
	.long	0xa86a
	.uleb128 0x1
	.long	0xa86a
	.uleb128 0x1
	.long	0xa888
	.byte	0
	.uleb128 0x16
	.long	.LASF758
	.byte	0xa
	.value	0x475
	.byte	0x5
	.long	.LASF759
	.long	0xa86a
	.long	0x6e1a
	.uleb128 0xa
	.long	.LASF760
	.long	0xa86a
	.uleb128 0xa
	.long	.LASF61
	.long	0x7686
	.uleb128 0xf
	.string	"_Tp"
	.long	0x30
	.uleb128 0x1
	.long	0xa86a
	.uleb128 0x1
	.long	0x7686
	.uleb128 0x1
	.long	0xa888
	.uleb128 0x1
	.long	0x69c
	.byte	0
	.uleb128 0x16
	.long	.LASF761
	.byte	0xa
	.value	0x49b
	.byte	0x5
	.long	.LASF762
	.long	0xa86a
	.long	0x6e5a
	.uleb128 0xf
	.string	"_OI"
	.long	0xa86a
	.uleb128 0xa
	.long	.LASF61
	.long	0x7686
	.uleb128 0xf
	.string	"_Tp"
	.long	0x30
	.uleb128 0x1
	.long	0xa86a
	.uleb128 0x1
	.long	0x7686
	.uleb128 0x1
	.long	0xa888
	.byte	0
	.uleb128 0x49
	.long	.LASF763
	.byte	0xb
	.byte	0x7b
	.byte	0x5
	.long	.LASF764
	.long	0x6e7f
	.uleb128 0xf
	.string	"_Tp"
	.long	0x30
	.uleb128 0x90
	.long	.LASF432
	.uleb128 0x1
	.long	0xa86a
	.byte	0
	.uleb128 0x49
	.long	.LASF765
	.byte	0xb
	.byte	0x7b
	.byte	0x5
	.long	.LASF766
	.long	0x6eb2
	.uleb128 0xf
	.string	"_Tp"
	.long	0x4f
	.uleb128 0x55
	.long	.LASF432
	.long	0x6ea7
	.uleb128 0x56
	.long	0xa775
	.byte	0
	.uleb128 0x1
	.long	0xa75c
	.uleb128 0x1
	.long	0xa775
	.byte	0
	.uleb128 0x38
	.long	.LASF767
	.byte	0xa
	.value	0x3a7
	.byte	0x5
	.long	.LASF768
	.long	0x6ee5
	.uleb128 0xf
	.string	"_Up"
	.long	0x37
	.uleb128 0xf
	.string	"_Tp"
	.long	0x37
	.uleb128 0x1
	.long	0xa075
	.uleb128 0x1
	.long	0xa075
	.uleb128 0x1
	.long	0xa093
	.byte	0
	.uleb128 0x16
	.long	.LASF769
	.byte	0xc
	.value	0x1dd
	.byte	0x5
	.long	.LASF770
	.long	0xa75c
	.long	0x6f25
	.uleb128 0xa
	.long	.LASF60
	.long	0xa75c
	.uleb128 0xa
	.long	.LASF61
	.long	0x7686
	.uleb128 0xf
	.string	"_Tp"
	.long	0x4f
	.uleb128 0x1
	.long	0xa75c
	.uleb128 0x1
	.long	0x7686
	.uleb128 0x1
	.long	0xa775
	.byte	0
	.uleb128 0x38
	.long	.LASF771
	.byte	0xa
	.value	0x3d0
	.byte	0x5
	.long	.LASF772
	.long	0x6f58
	.uleb128 0xa
	.long	.LASF757
	.long	0xa075
	.uleb128 0xf
	.string	"_Tp"
	.long	0x37
	.uleb128 0x1
	.long	0xa075
	.uleb128 0x1
	.long	0xa075
	.uleb128 0x1
	.long	0xa093
	.byte	0
	.uleb128 0x16
	.long	.LASF773
	.byte	0x3
	.value	0xbce
	.byte	0x5
	.long	.LASF774
	.long	0xa075
	.long	0x6f7c
	.uleb128 0xa
	.long	.LASF448
	.long	0xa075
	.uleb128 0x1
	.long	0xa075
	.byte	0
	.uleb128 0x38
	.long	.LASF775
	.byte	0xa
	.value	0x3bc
	.byte	0x5
	.long	.LASF776
	.long	0x6fb8
	.uleb128 0xa
	.long	.LASF777
	.long	0xa075
	.uleb128 0xa
	.long	.LASF778
	.long	0x11f9
	.uleb128 0xf
	.string	"_Tp"
	.long	0x37
	.uleb128 0x1
	.long	0x8314
	.uleb128 0x1
	.long	0x8314
	.uleb128 0x1
	.long	0xa093
	.byte	0
	.uleb128 0x38
	.long	.LASF779
	.byte	0xa
	.value	0x37f
	.byte	0x5
	.long	.LASF780
	.long	0x6feb
	.uleb128 0xa
	.long	.LASF60
	.long	0xa86a
	.uleb128 0xf
	.string	"_Tp"
	.long	0x30
	.uleb128 0x1
	.long	0xa86a
	.uleb128 0x1
	.long	0xa86a
	.uleb128 0x1
	.long	0xa888
	.byte	0
	.uleb128 0x16
	.long	.LASF781
	.byte	0xc
	.value	0x3d6
	.byte	0x5
	.long	.LASF782
	.long	0xa86a
	.long	0x701d
	.uleb128 0xa
	.long	.LASF60
	.long	0xa86a
	.uleb128 0xa
	.long	.LASF61
	.long	0x7686
	.uleb128 0x1
	.long	0xa86a
	.uleb128 0x1
	.long	0x7686
	.byte	0
	.uleb128 0x16
	.long	.LASF783
	.byte	0xc
	.value	0x226
	.byte	0x5
	.long	.LASF784
	.long	0xa75c
	.long	0x705d
	.uleb128 0xa
	.long	.LASF60
	.long	0xa75c
	.uleb128 0xa
	.long	.LASF61
	.long	0x7686
	.uleb128 0xf
	.string	"_Tp"
	.long	0x4f
	.uleb128 0x1
	.long	0xa75c
	.uleb128 0x1
	.long	0x7686
	.uleb128 0x1
	.long	0xa775
	.byte	0
	.uleb128 0x16
	.long	.LASF785
	.byte	0xa
	.value	0x100
	.byte	0x5
	.long	.LASF786
	.long	0xb37e
	.long	0x7086
	.uleb128 0xf
	.string	"_Tp"
	.long	0x7686
	.uleb128 0x1
	.long	0xb37e
	.uleb128 0x1
	.long	0xb37e
	.byte	0
	.uleb128 0x16
	.long	.LASF787
	.byte	0xa
	.value	0x475
	.byte	0x5
	.long	.LASF788
	.long	0xa075
	.long	0x70cb
	.uleb128 0xa
	.long	.LASF760
	.long	0xa075
	.uleb128 0xa
	.long	.LASF61
	.long	0x7686
	.uleb128 0xf
	.string	"_Tp"
	.long	0x37
	.uleb128 0x1
	.long	0xa075
	.uleb128 0x1
	.long	0x7686
	.uleb128 0x1
	.long	0xa093
	.uleb128 0x1
	.long	0x69c
	.byte	0
	.uleb128 0x16
	.long	.LASF789
	.byte	0xc
	.value	0x226
	.byte	0x5
	.long	.LASF790
	.long	0xa075
	.long	0x710b
	.uleb128 0xa
	.long	.LASF60
	.long	0xa075
	.uleb128 0xa
	.long	.LASF61
	.long	0x7686
	.uleb128 0xf
	.string	"_Tp"
	.long	0x37
	.uleb128 0x1
	.long	0xa075
	.uleb128 0x1
	.long	0x7686
	.uleb128 0x1
	.long	0xa093
	.byte	0
	.uleb128 0x38
	.long	.LASF791
	.byte	0xa
	.value	0x3d0
	.byte	0x5
	.long	.LASF792
	.long	0x713e
	.uleb128 0xa
	.long	.LASF757
	.long	0x8314
	.uleb128 0xf
	.string	"_Tp"
	.long	0x37
	.uleb128 0x1
	.long	0x8314
	.uleb128 0x1
	.long	0x8314
	.uleb128 0x1
	.long	0xa093
	.byte	0
	.uleb128 0x38
	.long	.LASF793
	.byte	0xa
	.value	0x3bc
	.byte	0x5
	.long	.LASF794
	.long	0x717a
	.uleb128 0xa
	.long	.LASF777
	.long	0xa86a
	.uleb128 0xa
	.long	.LASF778
	.long	0x5ec1
	.uleb128 0xf
	.string	"_Tp"
	.long	0x30
	.uleb128 0x1
	.long	0x8fde
	.uleb128 0x1
	.long	0x8fde
	.uleb128 0x1
	.long	0xa888
	.byte	0
	.uleb128 0x49
	.long	.LASF795
	.byte	0xb
	.byte	0xdb
	.byte	0x5
	.long	.LASF796
	.long	0x719e
	.uleb128 0xa
	.long	.LASF60
	.long	0xa86a
	.uleb128 0x1
	.long	0xa86a
	.uleb128 0x1
	.long	0xa86a
	.byte	0
	.uleb128 0x16
	.long	.LASF797
	.byte	0xc
	.value	0x41b
	.byte	0x5
	.long	.LASF798
	.long	0xa86a
	.long	0x71de
	.uleb128 0xa
	.long	.LASF60
	.long	0xa86a
	.uleb128 0xa
	.long	.LASF61
	.long	0x7686
	.uleb128 0xf
	.string	"_Tp"
	.long	0x30
	.uleb128 0x1
	.long	0xa86a
	.uleb128 0x1
	.long	0x7686
	.uleb128 0x1
	.long	0xa89c
	.byte	0
	.uleb128 0x49
	.long	.LASF799
	.byte	0xb
	.byte	0xdb
	.byte	0x5
	.long	.LASF800
	.long	0x7202
	.uleb128 0xa
	.long	.LASF60
	.long	0xa75c
	.uleb128 0x1
	.long	0xa75c
	.uleb128 0x1
	.long	0xa75c
	.byte	0
	.uleb128 0x16
	.long	.LASF801
	.byte	0xc
	.value	0x303
	.byte	0x5
	.long	.LASF802
	.long	0xa75c
	.long	0x7250
	.uleb128 0xa
	.long	.LASF60
	.long	0xa75c
	.uleb128 0xa
	.long	.LASF61
	.long	0x7686
	.uleb128 0xf
	.string	"_Tp"
	.long	0x4f
	.uleb128 0xa
	.long	.LASF803
	.long	0x4f
	.uleb128 0x1
	.long	0xa75c
	.uleb128 0x1
	.long	0x7686
	.uleb128 0x1
	.long	0xa775
	.uleb128 0x1
	.long	0xa789
	.byte	0
	.uleb128 0x91
	.long	.LASF804
	.byte	0x28
	.byte	0xcf
	.byte	0x5
	.long	0xa649
	.long	0x7270
	.uleb128 0xf
	.string	"_Tp"
	.long	0xa4c5
	.uleb128 0x1
	.long	0xa649
	.byte	0
	.uleb128 0x8
	.long	.LASF805
	.byte	0x14
	.byte	0x92
	.byte	0xb
	.long	0x6c03
	.uleb128 0x46
	.long	.LASF806
	.byte	0xc
	.value	0x561
	.byte	0x5
	.long	0x7270
	.long	0x72b4
	.uleb128 0xf
	.string	"_Tp"
	.long	0xa4c5
	.uleb128 0xf
	.string	"_Up"
	.long	0xa4c5
	.uleb128 0x1
	.long	0xa649
	.uleb128 0x1
	.long	0xa649
	.uleb128 0x1
	.long	0xa649
	.uleb128 0x1
	.long	0xa67b
	.byte	0
	.uleb128 0x46
	.long	.LASF807
	.byte	0x3
	.value	0xbce
	.byte	0x5
	.long	0xa649
	.long	0x72d4
	.uleb128 0xa
	.long	.LASF448
	.long	0xa649
	.uleb128 0x1
	.long	0xa649
	.byte	0
	.uleb128 0x92
	.long	.LASF808
	.byte	0xb
	.byte	0xdb
	.byte	0x5
	.long	0x72f5
	.uleb128 0xa
	.long	.LASF60
	.long	0xa649
	.uleb128 0x1
	.long	0xa649
	.uleb128 0x1
	.long	0xa649
	.byte	0
	.uleb128 0x16
	.long	.LASF809
	.byte	0xa
	.value	0x49b
	.byte	0x5
	.long	.LASF810
	.long	0xa075
	.long	0x7335
	.uleb128 0xf
	.string	"_OI"
	.long	0xa075
	.uleb128 0xa
	.long	.LASF61
	.long	0x7686
	.uleb128 0xf
	.string	"_Tp"
	.long	0x37
	.uleb128 0x1
	.long	0xa075
	.uleb128 0x1
	.long	0x7686
	.uleb128 0x1
	.long	0xa093
	.byte	0
	.uleb128 0x16
	.long	.LASF811
	.byte	0xc
	.value	0x303
	.byte	0x5
	.long	.LASF812
	.long	0xa075
	.long	0x7383
	.uleb128 0xa
	.long	.LASF60
	.long	0xa075
	.uleb128 0xa
	.long	.LASF61
	.long	0x7686
	.uleb128 0xf
	.string	"_Tp"
	.long	0x37
	.uleb128 0xa
	.long	.LASF803
	.long	0x37
	.uleb128 0x1
	.long	0xa075
	.uleb128 0x1
	.long	0x7686
	.uleb128 0x1
	.long	0xa093
	.uleb128 0x1
	.long	0xa0a7
	.byte	0
	.uleb128 0x38
	.long	.LASF813
	.byte	0xa
	.value	0x3e9
	.byte	0x5
	.long	.LASF814
	.long	0x73b6
	.uleb128 0xa
	.long	.LASF60
	.long	0x8314
	.uleb128 0xf
	.string	"_Tp"
	.long	0x37
	.uleb128 0x1
	.long	0x8314
	.uleb128 0x1
	.long	0x8314
	.uleb128 0x1
	.long	0xa093
	.byte	0
	.uleb128 0x49
	.long	.LASF815
	.byte	0xb
	.byte	0xdb
	.byte	0x5
	.long	.LASF816
	.long	0x73da
	.uleb128 0xa
	.long	.LASF60
	.long	0xa075
	.uleb128 0x1
	.long	0xa075
	.uleb128 0x1
	.long	0xa075
	.byte	0
	.uleb128 0x32
	.long	.LASF817
	.byte	0xa
	.byte	0xe8
	.byte	0x5
	.long	.LASF818
	.long	0xb37e
	.long	0x7402
	.uleb128 0xf
	.string	"_Tp"
	.long	0x7686
	.uleb128 0x1
	.long	0xb37e
	.uleb128 0x1
	.long	0xb37e
	.byte	0
	.uleb128 0x32
	.long	.LASF819
	.byte	0xa
	.byte	0xe8
	.byte	0x5
	.long	.LASF820
	.long	0xa888
	.long	0x742a
	.uleb128 0xf
	.string	"_Tp"
	.long	0x30
	.uleb128 0x1
	.long	0xa888
	.uleb128 0x1
	.long	0xa888
	.byte	0
	.uleb128 0x16
	.long	.LASF821
	.byte	0xa
	.value	0x100
	.byte	0x5
	.long	.LASF822
	.long	0xa888
	.long	0x7453
	.uleb128 0xf
	.string	"_Tp"
	.long	0x30
	.uleb128 0x1
	.long	0xa888
	.uleb128 0x1
	.long	0xa888
	.byte	0
	.uleb128 0x38
	.long	.LASF823
	.byte	0xa
	.value	0x3d0
	.byte	0x5
	.long	.LASF824
	.long	0x7486
	.uleb128 0xa
	.long	.LASF757
	.long	0x8fde
	.uleb128 0xf
	.string	"_Tp"
	.long	0x30
	.uleb128 0x1
	.long	0x8fde
	.uleb128 0x1
	.long	0x8fde
	.uleb128 0x1
	.long	0xa888
	.byte	0
	.uleb128 0x38
	.long	.LASF825
	.byte	0x8
	.value	0x43a
	.byte	0x5
	.long	.LASF826
	.long	0x74b9
	.uleb128 0xa
	.long	.LASF60
	.long	0xa86a
	.uleb128 0xf
	.string	"_Tp"
	.long	0x30
	.uleb128 0x1
	.long	0xa86a
	.uleb128 0x1
	.long	0xa86a
	.uleb128 0x1
	.long	0xa89c
	.byte	0
	.uleb128 0x38
	.long	.LASF827
	.byte	0x8
	.value	0x43a
	.byte	0x5
	.long	.LASF828
	.long	0x74ec
	.uleb128 0xa
	.long	.LASF60
	.long	0xa75c
	.uleb128 0xf
	.string	"_Tp"
	.long	0x4f
	.uleb128 0x1
	.long	0xa75c
	.uleb128 0x1
	.long	0xa75c
	.uleb128 0x1
	.long	0xa789
	.byte	0
	.uleb128 0x46
	.long	.LASF829
	.byte	0xc
	.value	0x57c
	.byte	0x5
	.long	0xa649
	.long	0x752d
	.uleb128 0xa
	.long	.LASF830
	.long	0xa649
	.uleb128 0xa
	.long	.LASF60
	.long	0xa649
	.uleb128 0xa
	.long	.LASF831
	.long	0x332e
	.uleb128 0x1
	.long	0xa649
	.uleb128 0x1
	.long	0xa649
	.uleb128 0x1
	.long	0xa649
	.uleb128 0x1
	.long	0xa67b
	.byte	0
	.uleb128 0x8a
	.long	.LASF832
	.value	0x43a
	.byte	0x5
	.long	0x755c
	.uleb128 0xa
	.long	.LASF60
	.long	0xa649
	.uleb128 0xf
	.string	"_Tp"
	.long	0xa4c5
	.uleb128 0x1
	.long	0xa649
	.uleb128 0x1
	.long	0xa649
	.uleb128 0x1
	.long	0xa67b
	.byte	0
	.uleb128 0x38
	.long	.LASF833
	.byte	0x8
	.value	0x43a
	.byte	0x5
	.long	.LASF834
	.long	0x758f
	.uleb128 0xa
	.long	.LASF60
	.long	0xa075
	.uleb128 0xf
	.string	"_Tp"
	.long	0x37
	.uleb128 0x1
	.long	0xa075
	.uleb128 0x1
	.long	0xa075
	.uleb128 0x1
	.long	0xa0a7
	.byte	0
	.uleb128 0x16
	.long	.LASF835
	.byte	0x11
	.value	0xe1e
	.byte	0x5
	.long	.LASF836
	.long	0xa888
	.long	0x75bd
	.uleb128 0xf
	.string	"_Tp"
	.long	0x30
	.uleb128 0x1
	.long	0xa888
	.uleb128 0x1
	.long	0xa888
	.uleb128 0x1
	.long	0xa888
	.byte	0
	.uleb128 0x38
	.long	.LASF837
	.byte	0xa
	.value	0x3e9
	.byte	0x5
	.long	.LASF838
	.long	0x75f0
	.uleb128 0xa
	.long	.LASF60
	.long	0x8fde
	.uleb128 0xf
	.string	"_Tp"
	.long	0x30
	.uleb128 0x1
	.long	0x8fde
	.uleb128 0x1
	.long	0x8fde
	.uleb128 0x1
	.long	0xa888
	.byte	0
	.uleb128 0x32
	.long	.LASF839
	.byte	0xa
	.byte	0xe8
	.byte	0x5
	.long	.LASF840
	.long	0xa775
	.long	0x7618
	.uleb128 0xf
	.string	"_Tp"
	.long	0x4f
	.uleb128 0x1
	.long	0xa775
	.uleb128 0x1
	.long	0xa775
	.byte	0
	.uleb128 0x16
	.long	.LASF841
	.byte	0xa
	.value	0x100
	.byte	0x5
	.long	.LASF842
	.long	0xa775
	.long	0x7641
	.uleb128 0xf
	.string	"_Tp"
	.long	0x4f
	.uleb128 0x1
	.long	0xa775
	.uleb128 0x1
	.long	0xa775
	.byte	0
	.uleb128 0x16
	.long	.LASF843
	.byte	0x9
	.value	0x108
	.byte	0x3
	.long	.LASF844
	.long	0x30
	.long	0x765c
	.uleb128 0x1
	.long	0x30
	.byte	0
	.uleb128 0x93
	.long	.LASF845
	.byte	0xa
	.value	0x3fd
	.byte	0x3
	.long	.LASF846
	.long	0x7686
	.uleb128 0x1
	.long	0x7686
	.byte	0
	.byte	0
	.uleb128 0x8
	.long	.LASF5
	.byte	0x29
	.byte	0xe5
	.byte	0x17
	.long	0x7686
	.uleb128 0x7
	.long	0x7675
	.uleb128 0x2c
	.byte	0x8
	.byte	0x7
	.long	.LASF847
	.uleb128 0x7
	.long	0x7686
	.uleb128 0xb4
	.long	.LASF1485
	.byte	0x18
	.byte	0x2a
	.byte	0
	.long	0x76c8
	.uleb128 0x71
	.long	.LASF848
	.long	0x76c8
	.byte	0
	.uleb128 0x71
	.long	.LASF849
	.long	0x76c8
	.byte	0x4
	.uleb128 0x71
	.long	.LASF850
	.long	0x76cf
	.byte	0x8
	.uleb128 0x71
	.long	.LASF851
	.long	0x76cf
	.byte	0x10
	.byte	0
	.uleb128 0x2c
	.byte	0x4
	.byte	0x7
	.long	.LASF852
	.uleb128 0xb5
	.byte	0x8
	.uleb128 0x8
	.long	.LASF853
	.byte	0x2b
	.byte	0x14
	.byte	0x17
	.long	0x76c8
	.uleb128 0x72
	.byte	0x8
	.byte	0x2c
	.byte	0xe
	.byte	0x1
	.long	.LASF1177
	.long	0x7729
	.uleb128 0xb6
	.byte	0x4
	.byte	0x2c
	.byte	0x11
	.byte	0x3
	.long	0x770e
	.uleb128 0x94
	.long	.LASF854
	.byte	0x12
	.byte	0x13
	.long	0x76c8
	.uleb128 0x94
	.long	.LASF855
	.byte	0x13
	.byte	0xa
	.long	0x7729
	.byte	0
	.uleb128 0x11
	.long	.LASF856
	.byte	0x2c
	.byte	0xf
	.byte	0x7
	.long	0x4f
	.byte	0
	.uleb128 0x11
	.long	.LASF857
	.byte	0x2c
	.byte	0x14
	.byte	0x5
	.long	0x76eb
	.byte	0x4
	.byte	0
	.uleb128 0x7b
	.long	0x43
	.long	0x7739
	.uleb128 0x7c
	.long	0x7686
	.byte	0x3
	.byte	0
	.uleb128 0x8
	.long	.LASF858
	.byte	0x2c
	.byte	0x15
	.byte	0x3
	.long	0x76de
	.uleb128 0x8
	.long	.LASF859
	.byte	0x2d
	.byte	0x6
	.byte	0x15
	.long	0x7739
	.uleb128 0x7
	.long	0x7745
	.uleb128 0x8
	.long	.LASF860
	.byte	0x2e
	.byte	0x5
	.byte	0x19
	.long	0x7762
	.uleb128 0x1a
	.long	.LASF861
	.byte	0xd8
	.byte	0x2f
	.byte	0x32
	.byte	0x8
	.long	0x78f9
	.uleb128 0x11
	.long	.LASF862
	.byte	0x2f
	.byte	0x34
	.byte	0x7
	.long	0x4f
	.byte	0
	.uleb128 0x11
	.long	.LASF863
	.byte	0x2f
	.byte	0x37
	.byte	0x9
	.long	0x3e
	.byte	0x8
	.uleb128 0x11
	.long	.LASF864
	.byte	0x2f
	.byte	0x38
	.byte	0x9
	.long	0x3e
	.byte	0x10
	.uleb128 0x11
	.long	.LASF865
	.byte	0x2f
	.byte	0x39
	.byte	0x9
	.long	0x3e
	.byte	0x18
	.uleb128 0x11
	.long	.LASF866
	.byte	0x2f
	.byte	0x3a
	.byte	0x9
	.long	0x3e
	.byte	0x20
	.uleb128 0x11
	.long	.LASF867
	.byte	0x2f
	.byte	0x3b
	.byte	0x9
	.long	0x3e
	.byte	0x28
	.uleb128 0x11
	.long	.LASF868
	.byte	0x2f
	.byte	0x3c
	.byte	0x9
	.long	0x3e
	.byte	0x30
	.uleb128 0x11
	.long	.LASF869
	.byte	0x2f
	.byte	0x3d
	.byte	0x9
	.long	0x3e
	.byte	0x38
	.uleb128 0x11
	.long	.LASF870
	.byte	0x2f
	.byte	0x3e
	.byte	0x9
	.long	0x3e
	.byte	0x40
	.uleb128 0x11
	.long	.LASF871
	.byte	0x2f
	.byte	0x41
	.byte	0x9
	.long	0x3e
	.byte	0x48
	.uleb128 0x11
	.long	.LASF872
	.byte	0x2f
	.byte	0x42
	.byte	0x9
	.long	0x3e
	.byte	0x50
	.uleb128 0x11
	.long	.LASF873
	.byte	0x2f
	.byte	0x43
	.byte	0x9
	.long	0x3e
	.byte	0x58
	.uleb128 0x11
	.long	.LASF874
	.byte	0x2f
	.byte	0x45
	.byte	0x16
	.long	0x9ae7
	.byte	0x60
	.uleb128 0x11
	.long	.LASF875
	.byte	0x2f
	.byte	0x47
	.byte	0x14
	.long	0x9aec
	.byte	0x68
	.uleb128 0x11
	.long	.LASF876
	.byte	0x2f
	.byte	0x49
	.byte	0x7
	.long	0x4f
	.byte	0x70
	.uleb128 0xb7
	.long	.LASF993
	.byte	0x2f
	.byte	0x4a
	.byte	0x7
	.long	0x4f
	.byte	0x18
	.value	0x3a0
	.uleb128 0x11
	.long	.LASF877
	.byte	0x2f
	.byte	0x4c
	.byte	0x8
	.long	0x9af1
	.byte	0x77
	.uleb128 0x11
	.long	.LASF878
	.byte	0x2f
	.byte	0x4d
	.byte	0xb
	.long	0x9603
	.byte	0x78
	.uleb128 0x11
	.long	.LASF879
	.byte	0x2f
	.byte	0x50
	.byte	0x12
	.long	0x7905
	.byte	0x80
	.uleb128 0x11
	.long	.LASF880
	.byte	0x2f
	.byte	0x51
	.byte	0xf
	.long	0x9367
	.byte	0x82
	.uleb128 0x11
	.long	.LASF881
	.byte	0x2f
	.byte	0x52
	.byte	0x8
	.long	0x9af1
	.byte	0x83
	.uleb128 0x11
	.long	.LASF882
	.byte	0x2f
	.byte	0x54
	.byte	0xf
	.long	0x9b01
	.byte	0x88
	.uleb128 0x11
	.long	.LASF883
	.byte	0x2f
	.byte	0x5c
	.byte	0xd
	.long	0x960f
	.byte	0x90
	.uleb128 0x11
	.long	.LASF884
	.byte	0x2f
	.byte	0x5e
	.byte	0x17
	.long	0x9b0b
	.byte	0x98
	.uleb128 0x11
	.long	.LASF885
	.byte	0x2f
	.byte	0x5f
	.byte	0x19
	.long	0x9b15
	.byte	0xa0
	.uleb128 0x11
	.long	.LASF886
	.byte	0x2f
	.byte	0x60
	.byte	0x14
	.long	0x9aec
	.byte	0xa8
	.uleb128 0x11
	.long	.LASF887
	.byte	0x2f
	.byte	0x61
	.byte	0x9
	.long	0x76cf
	.byte	0xb0
	.uleb128 0x11
	.long	.LASF888
	.byte	0x2f
	.byte	0x62
	.byte	0x15
	.long	0x9b1a
	.byte	0xb8
	.uleb128 0x11
	.long	.LASF889
	.byte	0x2f
	.byte	0x63
	.byte	0x7
	.long	0x4f
	.byte	0xc0
	.uleb128 0x11
	.long	.LASF890
	.byte	0x2f
	.byte	0x65
	.byte	0x8
	.long	0x9b1f
	.byte	0xc4
	.byte	0
	.uleb128 0x8
	.long	.LASF891
	.byte	0x30
	.byte	0x7
	.byte	0x19
	.long	0x7762
	.uleb128 0x2c
	.byte	0x2
	.byte	0x7
	.long	.LASF892
	.uleb128 0xd
	.long	0x57
	.uleb128 0xd
	.long	0x4a
	.uleb128 0x17
	.long	.LASF893
	.byte	0x31
	.value	0x157
	.byte	0x1
	.long	0x76d2
	.long	0x792d
	.uleb128 0x1
	.long	0x4f
	.byte	0
	.uleb128 0x17
	.long	.LASF894
	.byte	0x31
	.value	0x3a7
	.byte	0xf
	.long	0x76d2
	.long	0x7944
	.uleb128 0x1
	.long	0x7944
	.byte	0
	.uleb128 0xd
	.long	0x7756
	.uleb128 0x17
	.long	.LASF895
	.byte	0x31
	.value	0x3c4
	.byte	0x11
	.long	0x796a
	.long	0x796a
	.uleb128 0x1
	.long	0x796a
	.uleb128 0x1
	.long	0x4f
	.uleb128 0x1
	.long	0x7944
	.byte	0
	.uleb128 0xd
	.long	0x796f
	.uleb128 0x2c
	.byte	0x4
	.byte	0x5
	.long	.LASF896
	.uleb128 0x7
	.long	0x796f
	.uleb128 0x17
	.long	.LASF897
	.byte	0x31
	.value	0x3b5
	.byte	0xf
	.long	0x76d2
	.long	0x7997
	.uleb128 0x1
	.long	0x796f
	.uleb128 0x1
	.long	0x7944
	.byte	0
	.uleb128 0x17
	.long	.LASF898
	.byte	0x31
	.value	0x3cb
	.byte	0xc
	.long	0x4f
	.long	0x79b3
	.uleb128 0x1
	.long	0x79b3
	.uleb128 0x1
	.long	0x7944
	.byte	0
	.uleb128 0xd
	.long	0x7976
	.uleb128 0x17
	.long	.LASF899
	.byte	0x31
	.value	0x2d5
	.byte	0xc
	.long	0x4f
	.long	0x79d4
	.uleb128 0x1
	.long	0x7944
	.uleb128 0x1
	.long	0x4f
	.byte	0
	.uleb128 0x17
	.long	.LASF900
	.byte	0x31
	.value	0x2dc
	.byte	0xc
	.long	0x4f
	.long	0x79f1
	.uleb128 0x1
	.long	0x7944
	.uleb128 0x1
	.long	0x79b3
	.uleb128 0x62
	.byte	0
	.uleb128 0x16
	.long	.LASF901
	.byte	0x31
	.value	0x31b
	.byte	0xc
	.long	.LASF902
	.long	0x4f
	.long	0x7a12
	.uleb128 0x1
	.long	0x7944
	.uleb128 0x1
	.long	0x79b3
	.uleb128 0x62
	.byte	0
	.uleb128 0x17
	.long	.LASF903
	.byte	0x31
	.value	0x3a8
	.byte	0xf
	.long	0x76d2
	.long	0x7a29
	.uleb128 0x1
	.long	0x7944
	.byte	0
	.uleb128 0x95
	.long	.LASF1151
	.byte	0x31
	.value	0x3ae
	.byte	0xf
	.long	0x76d2
	.uleb128 0x17
	.long	.LASF904
	.byte	0x31
	.value	0x162
	.byte	0x1
	.long	0x7675
	.long	0x7a58
	.uleb128 0x1
	.long	0x7911
	.uleb128 0x1
	.long	0x7675
	.uleb128 0x1
	.long	0x7a58
	.byte	0
	.uleb128 0xd
	.long	0x7745
	.uleb128 0x17
	.long	.LASF905
	.byte	0x31
	.value	0x141
	.byte	0xf
	.long	0x7675
	.long	0x7a83
	.uleb128 0x1
	.long	0x796a
	.uleb128 0x1
	.long	0x7911
	.uleb128 0x1
	.long	0x7675
	.uleb128 0x1
	.long	0x7a58
	.byte	0
	.uleb128 0x17
	.long	.LASF906
	.byte	0x31
	.value	0x13d
	.byte	0xc
	.long	0x4f
	.long	0x7a9a
	.uleb128 0x1
	.long	0x7a9a
	.byte	0
	.uleb128 0xd
	.long	0x7751
	.uleb128 0x17
	.long	.LASF907
	.byte	0x31
	.value	0x16a
	.byte	0xf
	.long	0x7675
	.long	0x7ac5
	.uleb128 0x1
	.long	0x796a
	.uleb128 0x1
	.long	0x7ac5
	.uleb128 0x1
	.long	0x7675
	.uleb128 0x1
	.long	0x7a58
	.byte	0
	.uleb128 0xd
	.long	0x7911
	.uleb128 0x17
	.long	.LASF908
	.byte	0x31
	.value	0x3b6
	.byte	0xf
	.long	0x76d2
	.long	0x7ae6
	.uleb128 0x1
	.long	0x796f
	.uleb128 0x1
	.long	0x7944
	.byte	0
	.uleb128 0x17
	.long	.LASF909
	.byte	0x31
	.value	0x3bc
	.byte	0xf
	.long	0x76d2
	.long	0x7afd
	.uleb128 0x1
	.long	0x796f
	.byte	0
	.uleb128 0x17
	.long	.LASF910
	.byte	0x31
	.value	0x2e6
	.byte	0xc
	.long	0x4f
	.long	0x7b1f
	.uleb128 0x1
	.long	0x796a
	.uleb128 0x1
	.long	0x7675
	.uleb128 0x1
	.long	0x79b3
	.uleb128 0x62
	.byte	0
	.uleb128 0x16
	.long	.LASF911
	.byte	0x31
	.value	0x322
	.byte	0xc
	.long	.LASF912
	.long	0x4f
	.long	0x7b40
	.uleb128 0x1
	.long	0x79b3
	.uleb128 0x1
	.long	0x79b3
	.uleb128 0x62
	.byte	0
	.uleb128 0x17
	.long	.LASF913
	.byte	0x31
	.value	0x3d3
	.byte	0xf
	.long	0x76d2
	.long	0x7b5c
	.uleb128 0x1
	.long	0x76d2
	.uleb128 0x1
	.long	0x7944
	.byte	0
	.uleb128 0x17
	.long	.LASF914
	.byte	0x31
	.value	0x2ee
	.byte	0xc
	.long	0x4f
	.long	0x7b7d
	.uleb128 0x1
	.long	0x7944
	.uleb128 0x1
	.long	0x79b3
	.uleb128 0x1
	.long	0x7b7d
	.byte	0
	.uleb128 0xd
	.long	0x7692
	.uleb128 0x16
	.long	.LASF915
	.byte	0x31
	.value	0x36b
	.byte	0xc
	.long	.LASF916
	.long	0x4f
	.long	0x7ba7
	.uleb128 0x1
	.long	0x7944
	.uleb128 0x1
	.long	0x79b3
	.uleb128 0x1
	.long	0x7b7d
	.byte	0
	.uleb128 0x17
	.long	.LASF917
	.byte	0x31
	.value	0x2fb
	.byte	0xc
	.long	0x4f
	.long	0x7bcd
	.uleb128 0x1
	.long	0x796a
	.uleb128 0x1
	.long	0x7675
	.uleb128 0x1
	.long	0x79b3
	.uleb128 0x1
	.long	0x7b7d
	.byte	0
	.uleb128 0x16
	.long	.LASF918
	.byte	0x31
	.value	0x372
	.byte	0xc
	.long	.LASF919
	.long	0x4f
	.long	0x7bf2
	.uleb128 0x1
	.long	0x79b3
	.uleb128 0x1
	.long	0x79b3
	.uleb128 0x1
	.long	0x7b7d
	.byte	0
	.uleb128 0x17
	.long	.LASF920
	.byte	0x31
	.value	0x2f6
	.byte	0xc
	.long	0x4f
	.long	0x7c0e
	.uleb128 0x1
	.long	0x79b3
	.uleb128 0x1
	.long	0x7b7d
	.byte	0
	.uleb128 0x16
	.long	.LASF921
	.byte	0x31
	.value	0x36f
	.byte	0xc
	.long	.LASF922
	.long	0x4f
	.long	0x7c2e
	.uleb128 0x1
	.long	0x79b3
	.uleb128 0x1
	.long	0x7b7d
	.byte	0
	.uleb128 0x17
	.long	.LASF923
	.byte	0x31
	.value	0x146
	.byte	0xf
	.long	0x7675
	.long	0x7c4f
	.uleb128 0x1
	.long	0x3e
	.uleb128 0x1
	.long	0x796f
	.uleb128 0x1
	.long	0x7a58
	.byte	0
	.uleb128 0x27
	.long	.LASF924
	.byte	0x31
	.byte	0x79
	.byte	0x11
	.long	0x796a
	.long	0x7c6a
	.uleb128 0x1
	.long	0x796a
	.uleb128 0x1
	.long	0x79b3
	.byte	0
	.uleb128 0x27
	.long	.LASF925
	.byte	0x31
	.byte	0x82
	.byte	0xc
	.long	0x4f
	.long	0x7c85
	.uleb128 0x1
	.long	0x79b3
	.uleb128 0x1
	.long	0x79b3
	.byte	0
	.uleb128 0x27
	.long	.LASF926
	.byte	0x31
	.byte	0x9b
	.byte	0xc
	.long	0x4f
	.long	0x7ca0
	.uleb128 0x1
	.long	0x79b3
	.uleb128 0x1
	.long	0x79b3
	.byte	0
	.uleb128 0x27
	.long	.LASF927
	.byte	0x31
	.byte	0x62
	.byte	0x11
	.long	0x796a
	.long	0x7cbb
	.uleb128 0x1
	.long	0x796a
	.uleb128 0x1
	.long	0x79b3
	.byte	0
	.uleb128 0x27
	.long	.LASF928
	.byte	0x31
	.byte	0xd4
	.byte	0xf
	.long	0x7675
	.long	0x7cd6
	.uleb128 0x1
	.long	0x79b3
	.uleb128 0x1
	.long	0x79b3
	.byte	0
	.uleb128 0x17
	.long	.LASF929
	.byte	0x31
	.value	0x413
	.byte	0xf
	.long	0x7675
	.long	0x7cfc
	.uleb128 0x1
	.long	0x796a
	.uleb128 0x1
	.long	0x7675
	.uleb128 0x1
	.long	0x79b3
	.uleb128 0x1
	.long	0x7cfc
	.byte	0
	.uleb128 0xd
	.long	0x7d9e
	.uleb128 0xb8
	.string	"tm"
	.byte	0x38
	.byte	0x32
	.byte	0x7
	.byte	0x8
	.long	0x7d9e
	.uleb128 0x11
	.long	.LASF930
	.byte	0x32
	.byte	0x9
	.byte	0x7
	.long	0x4f
	.byte	0
	.uleb128 0x11
	.long	.LASF931
	.byte	0x32
	.byte	0xa
	.byte	0x7
	.long	0x4f
	.byte	0x4
	.uleb128 0x11
	.long	.LASF932
	.byte	0x32
	.byte	0xb
	.byte	0x7
	.long	0x4f
	.byte	0x8
	.uleb128 0x11
	.long	.LASF933
	.byte	0x32
	.byte	0xc
	.byte	0x7
	.long	0x4f
	.byte	0xc
	.uleb128 0x11
	.long	.LASF934
	.byte	0x32
	.byte	0xd
	.byte	0x7
	.long	0x4f
	.byte	0x10
	.uleb128 0x11
	.long	.LASF935
	.byte	0x32
	.byte	0xe
	.byte	0x7
	.long	0x4f
	.byte	0x14
	.uleb128 0x11
	.long	.LASF936
	.byte	0x32
	.byte	0xf
	.byte	0x7
	.long	0x4f
	.byte	0x18
	.uleb128 0x11
	.long	.LASF937
	.byte	0x32
	.byte	0x10
	.byte	0x7
	.long	0x4f
	.byte	0x1c
	.uleb128 0x11
	.long	.LASF938
	.byte	0x32
	.byte	0x11
	.byte	0x7
	.long	0x4f
	.byte	0x20
	.uleb128 0x11
	.long	.LASF939
	.byte	0x32
	.byte	0x14
	.byte	0xc
	.long	0x7eed
	.byte	0x28
	.uleb128 0x11
	.long	.LASF940
	.byte	0x32
	.byte	0x15
	.byte	0xf
	.long	0x7911
	.byte	0x30
	.byte	0
	.uleb128 0x7
	.long	0x7d01
	.uleb128 0x27
	.long	.LASF941
	.byte	0x31
	.byte	0xf7
	.byte	0xf
	.long	0x7675
	.long	0x7db9
	.uleb128 0x1
	.long	0x79b3
	.byte	0
	.uleb128 0x27
	.long	.LASF942
	.byte	0x31
	.byte	0x7d
	.byte	0x11
	.long	0x796a
	.long	0x7dd9
	.uleb128 0x1
	.long	0x796a
	.uleb128 0x1
	.long	0x79b3
	.uleb128 0x1
	.long	0x7675
	.byte	0
	.uleb128 0x27
	.long	.LASF943
	.byte	0x31
	.byte	0x85
	.byte	0xc
	.long	0x4f
	.long	0x7df9
	.uleb128 0x1
	.long	0x79b3
	.uleb128 0x1
	.long	0x79b3
	.uleb128 0x1
	.long	0x7675
	.byte	0
	.uleb128 0x27
	.long	.LASF944
	.byte	0x31
	.byte	0x67
	.byte	0x11
	.long	0x796a
	.long	0x7e19
	.uleb128 0x1
	.long	0x796a
	.uleb128 0x1
	.long	0x79b3
	.uleb128 0x1
	.long	0x7675
	.byte	0
	.uleb128 0x17
	.long	.LASF945
	.byte	0x31
	.value	0x170
	.byte	0xf
	.long	0x7675
	.long	0x7e3f
	.uleb128 0x1
	.long	0x3e
	.uleb128 0x1
	.long	0x7e3f
	.uleb128 0x1
	.long	0x7675
	.uleb128 0x1
	.long	0x7a58
	.byte	0
	.uleb128 0xd
	.long	0x79b3
	.uleb128 0x27
	.long	.LASF946
	.byte	0x31
	.byte	0xd8
	.byte	0xf
	.long	0x7675
	.long	0x7e5f
	.uleb128 0x1
	.long	0x79b3
	.uleb128 0x1
	.long	0x79b3
	.byte	0
	.uleb128 0x17
	.long	.LASF947
	.byte	0x31
	.value	0x192
	.byte	0xf
	.long	0x7e7b
	.long	0x7e7b
	.uleb128 0x1
	.long	0x79b3
	.uleb128 0x1
	.long	0x7e82
	.byte	0
	.uleb128 0x2c
	.byte	0x8
	.byte	0x4
	.long	.LASF948
	.uleb128 0xd
	.long	0x796a
	.uleb128 0x17
	.long	.LASF949
	.byte	0x31
	.value	0x197
	.byte	0xe
	.long	0x30
	.long	0x7ea3
	.uleb128 0x1
	.long	0x79b3
	.uleb128 0x1
	.long	0x7e82
	.byte	0
	.uleb128 0x7
	.long	0x30
	.uleb128 0x27
	.long	.LASF950
	.byte	0x31
	.byte	0xf2
	.byte	0x11
	.long	0x796a
	.long	0x7ec8
	.uleb128 0x1
	.long	0x796a
	.uleb128 0x1
	.long	0x79b3
	.uleb128 0x1
	.long	0x7e82
	.byte	0
	.uleb128 0x16
	.long	.LASF951
	.byte	0x31
	.value	0x1f4
	.byte	0x11
	.long	.LASF952
	.long	0x7eed
	.long	0x7eed
	.uleb128 0x1
	.long	0x79b3
	.uleb128 0x1
	.long	0x7e82
	.uleb128 0x1
	.long	0x4f
	.byte	0
	.uleb128 0x2c
	.byte	0x8
	.byte	0x5
	.long	.LASF953
	.uleb128 0x16
	.long	.LASF954
	.byte	0x31
	.value	0x1f7
	.byte	0x1a
	.long	.LASF955
	.long	0x7686
	.long	0x7f19
	.uleb128 0x1
	.long	0x79b3
	.uleb128 0x1
	.long	0x7e82
	.uleb128 0x1
	.long	0x4f
	.byte	0
	.uleb128 0x27
	.long	.LASF956
	.byte	0x31
	.byte	0x9f
	.byte	0xf
	.long	0x7675
	.long	0x7f39
	.uleb128 0x1
	.long	0x796a
	.uleb128 0x1
	.long	0x79b3
	.uleb128 0x1
	.long	0x7675
	.byte	0
	.uleb128 0x17
	.long	.LASF957
	.byte	0x31
	.value	0x15d
	.byte	0x1
	.long	0x4f
	.long	0x7f50
	.uleb128 0x1
	.long	0x76d2
	.byte	0
	.uleb128 0x17
	.long	.LASF958
	.byte	0x31
	.value	0x11b
	.byte	0xc
	.long	0x4f
	.long	0x7f71
	.uleb128 0x1
	.long	0x79b3
	.uleb128 0x1
	.long	0x79b3
	.uleb128 0x1
	.long	0x7675
	.byte	0
	.uleb128 0x17
	.long	.LASF959
	.byte	0x31
	.value	0x11f
	.byte	0x11
	.long	0x796a
	.long	0x7f92
	.uleb128 0x1
	.long	0x796a
	.uleb128 0x1
	.long	0x79b3
	.uleb128 0x1
	.long	0x7675
	.byte	0
	.uleb128 0x17
	.long	.LASF960
	.byte	0x31
	.value	0x124
	.byte	0x11
	.long	0x796a
	.long	0x7fb3
	.uleb128 0x1
	.long	0x796a
	.uleb128 0x1
	.long	0x79b3
	.uleb128 0x1
	.long	0x7675
	.byte	0
	.uleb128 0x17
	.long	.LASF961
	.byte	0x31
	.value	0x128
	.byte	0x11
	.long	0x796a
	.long	0x7fd4
	.uleb128 0x1
	.long	0x796a
	.uleb128 0x1
	.long	0x796f
	.uleb128 0x1
	.long	0x7675
	.byte	0
	.uleb128 0x17
	.long	.LASF962
	.byte	0x31
	.value	0x2e3
	.byte	0xc
	.long	0x4f
	.long	0x7fec
	.uleb128 0x1
	.long	0x79b3
	.uleb128 0x62
	.byte	0
	.uleb128 0x16
	.long	.LASF963
	.byte	0x31
	.value	0x31f
	.byte	0xc
	.long	.LASF964
	.long	0x4f
	.long	0x8008
	.uleb128 0x1
	.long	0x79b3
	.uleb128 0x62
	.byte	0
	.uleb128 0x32
	.long	.LASF965
	.byte	0x31
	.byte	0xba
	.byte	0x1d
	.long	.LASF965
	.long	0x79b3
	.long	0x8027
	.uleb128 0x1
	.long	0x79b3
	.uleb128 0x1
	.long	0x796f
	.byte	0
	.uleb128 0x32
	.long	.LASF965
	.byte	0x31
	.byte	0xb8
	.byte	0x17
	.long	.LASF965
	.long	0x796a
	.long	0x8046
	.uleb128 0x1
	.long	0x796a
	.uleb128 0x1
	.long	0x796f
	.byte	0
	.uleb128 0x32
	.long	.LASF966
	.byte	0x31
	.byte	0xde
	.byte	0x1d
	.long	.LASF966
	.long	0x79b3
	.long	0x8065
	.uleb128 0x1
	.long	0x79b3
	.uleb128 0x1
	.long	0x79b3
	.byte	0
	.uleb128 0x32
	.long	.LASF966
	.byte	0x31
	.byte	0xdc
	.byte	0x17
	.long	.LASF966
	.long	0x796a
	.long	0x8084
	.uleb128 0x1
	.long	0x796a
	.uleb128 0x1
	.long	0x79b3
	.byte	0
	.uleb128 0x32
	.long	.LASF967
	.byte	0x31
	.byte	0xc4
	.byte	0x1d
	.long	.LASF967
	.long	0x79b3
	.long	0x80a3
	.uleb128 0x1
	.long	0x79b3
	.uleb128 0x1
	.long	0x796f
	.byte	0
	.uleb128 0x32
	.long	.LASF967
	.byte	0x31
	.byte	0xc2
	.byte	0x17
	.long	.LASF967
	.long	0x796a
	.long	0x80c2
	.uleb128 0x1
	.long	0x796a
	.uleb128 0x1
	.long	0x796f
	.byte	0
	.uleb128 0x32
	.long	.LASF968
	.byte	0x31
	.byte	0xe9
	.byte	0x1d
	.long	.LASF968
	.long	0x79b3
	.long	0x80e1
	.uleb128 0x1
	.long	0x79b3
	.uleb128 0x1
	.long	0x79b3
	.byte	0
	.uleb128 0x32
	.long	.LASF968
	.byte	0x31
	.byte	0xe7
	.byte	0x17
	.long	.LASF968
	.long	0x796a
	.long	0x8100
	.uleb128 0x1
	.long	0x796a
	.uleb128 0x1
	.long	0x79b3
	.byte	0
	.uleb128 0x16
	.long	.LASF969
	.byte	0x31
	.value	0x112
	.byte	0x1d
	.long	.LASF969
	.long	0x79b3
	.long	0x8125
	.uleb128 0x1
	.long	0x79b3
	.uleb128 0x1
	.long	0x796f
	.uleb128 0x1
	.long	0x7675
	.byte	0
	.uleb128 0x16
	.long	.LASF969
	.byte	0x31
	.value	0x110
	.byte	0x17
	.long	.LASF969
	.long	0x796a
	.long	0x814a
	.uleb128 0x1
	.long	0x796a
	.uleb128 0x1
	.long	0x796f
	.uleb128 0x1
	.long	0x7675
	.byte	0
	.uleb128 0x96
	.long	.LASF970
	.byte	0x13
	.value	0x17b
	.long	0x9286
	.uleb128 0x5
	.byte	0x12
	.byte	0xfd
	.byte	0xb
	.long	0x9286
	.uleb128 0x19
	.byte	0x12
	.value	0x106
	.byte	0xb
	.long	0x92a9
	.uleb128 0x19
	.byte	0x12
	.value	0x107
	.byte	0xb
	.long	0x92d5
	.uleb128 0x5
	.byte	0x19
	.byte	0xd2
	.byte	0xb
	.long	0x96e6
	.uleb128 0x5
	.byte	0x19
	.byte	0xe4
	.byte	0xb
	.long	0x99f4
	.uleb128 0x5
	.byte	0x19
	.byte	0xf0
	.byte	0xb
	.long	0x9a10
	.uleb128 0x5
	.byte	0x19
	.byte	0xf1
	.byte	0xb
	.long	0x9a27
	.uleb128 0x5
	.byte	0x19
	.byte	0xf2
	.byte	0xb
	.long	0x9a4b
	.uleb128 0x5
	.byte	0x19
	.byte	0xf4
	.byte	0xb
	.long	0x9a6f
	.uleb128 0x5
	.byte	0x19
	.byte	0xf5
	.byte	0xb
	.long	0x9a8a
	.uleb128 0x4b
	.string	"div"
	.byte	0x19
	.byte	0xe1
	.long	.LASF971
	.long	0x96e6
	.long	0x81c7
	.uleb128 0x1
	.long	0x92ce
	.uleb128 0x1
	.long	0x92ce
	.byte	0
	.uleb128 0xb9
	.long	.LASF1486
	.byte	0x7
	.byte	0x4
	.long	0x76c8
	.byte	0x4e
	.byte	0x36
	.byte	0x8
	.long	0x81ed
	.uleb128 0x7d
	.long	.LASF972
	.byte	0
	.uleb128 0x7d
	.long	.LASF973
	.byte	0x1
	.uleb128 0x7d
	.long	.LASF974
	.byte	0x2
	.byte	0
	.uleb128 0x7
	.long	0x81c7
	.uleb128 0xba
	.long	.LASF1487
	.byte	0x4e
	.byte	0x3a
	.byte	0x28
	.long	.LASF1488
	.long	0x81ed
	.byte	0x2
	.byte	0x3
	.uleb128 0x1a
	.long	.LASF975
	.byte	0x1
	.byte	0x33
	.byte	0x2f
	.byte	0xa
	.long	0x8314
	.uleb128 0x5
	.byte	0x33
	.byte	0x2f
	.byte	0xa
	.long	0xd8c
	.uleb128 0x5
	.byte	0x33
	.byte	0x2f
	.byte	0xa
	.long	0xd4d
	.uleb128 0x5
	.byte	0x33
	.byte	0x2f
	.byte	0xa
	.long	0xdbe
	.uleb128 0x5
	.byte	0x33
	.byte	0x2f
	.byte	0xa
	.long	0xddf
	.uleb128 0x36
	.long	0xd32
	.uleb128 0x32
	.long	.LASF976
	.byte	0x33
	.byte	0x63
	.byte	0x1d
	.long	.LASF977
	.long	0xca9
	.long	0x8251
	.uleb128 0x1
	.long	0xa0a2
	.byte	0
	.uleb128 0x49
	.long	.LASF978
	.byte	0x33
	.byte	0x67
	.byte	0x26
	.long	.LASF979
	.long	0x826c
	.uleb128 0x1
	.long	0xa0a7
	.uleb128 0x1
	.long	0xa0a7
	.byte	0
	.uleb128 0x33
	.long	.LASF980
	.byte	0x6b
	.long	.LASF981
	.long	0x9345
	.uleb128 0x33
	.long	.LASF982
	.byte	0x6f
	.long	.LASF983
	.long	0x9345
	.uleb128 0x33
	.long	.LASF984
	.byte	0x73
	.long	.LASF985
	.long	0x9345
	.uleb128 0x33
	.long	.LASF986
	.byte	0x77
	.long	.LASF987
	.long	0x9345
	.uleb128 0x33
	.long	.LASF988
	.byte	0x7b
	.long	.LASF989
	.long	0x9345
	.uleb128 0x8
	.long	.LASF6
	.byte	0x33
	.byte	0x37
	.byte	0x35
	.long	0xe15
	.uleb128 0x7
	.long	0x82b2
	.uleb128 0x8
	.long	.LASF74
	.byte	0x33
	.byte	0x38
	.byte	0x35
	.long	0xd40
	.uleb128 0x8
	.long	.LASF75
	.byte	0x33
	.byte	0x3d
	.byte	0x35
	.long	0xa0b6
	.uleb128 0x8
	.long	.LASF78
	.byte	0x33
	.byte	0x3e
	.byte	0x35
	.long	0xa0bb
	.uleb128 0x1a
	.long	.LASF990
	.byte	0x1
	.byte	0x33
	.byte	0x7f
	.byte	0xe
	.long	0x830a
	.uleb128 0x8
	.long	.LASF991
	.byte	0x33
	.byte	0x80
	.byte	0x41
	.long	0xe22
	.uleb128 0xf
	.string	"_Tp"
	.long	0x37
	.byte	0
	.uleb128 0xa
	.long	.LASF146
	.long	0xca9
	.byte	0
	.uleb128 0x48
	.long	.LASF992
	.byte	0x8
	.byte	0x3
	.value	0x402
	.long	0x8542
	.uleb128 0x69
	.long	.LASF994
	.long	0xa075
	.uleb128 0x10
	.long	.LASF995
	.byte	0x3
	.value	0x41d
	.byte	0x7
	.long	.LASF996
	.byte	0x1
	.long	0x8340
	.long	0x8346
	.uleb128 0x2
	.long	0xa982
	.byte	0
	.uleb128 0x41
	.long	.LASF995
	.byte	0x3
	.value	0x422
	.long	.LASF997
	.long	0x835a
	.long	0x8365
	.uleb128 0x2
	.long	0xa982
	.uleb128 0x1
	.long	0xa98c
	.byte	0
	.uleb128 0x15
	.long	.LASF75
	.byte	0x3
	.value	0x414
	.byte	0x32
	.long	0x6c79
	.uleb128 0x6
	.long	.LASF998
	.byte	0x3
	.value	0x441
	.byte	0x7
	.long	.LASF999
	.long	0x8365
	.byte	0x1
	.long	0x838c
	.long	0x8392
	.uleb128 0x2
	.long	0xa991
	.byte	0
	.uleb128 0x15
	.long	.LASF74
	.byte	0x3
	.value	0x415
	.byte	0x32
	.long	0x6c6d
	.uleb128 0x6
	.long	.LASF1000
	.byte	0x3
	.value	0x447
	.byte	0x7
	.long	.LASF1001
	.long	0x8392
	.byte	0x1
	.long	0x83b9
	.long	0x83bf
	.uleb128 0x2
	.long	0xa991
	.byte	0
	.uleb128 0x6
	.long	.LASF1002
	.byte	0x3
	.value	0x44d
	.byte	0x7
	.long	.LASF1003
	.long	0xa99b
	.byte	0x1
	.long	0x83d9
	.long	0x83df
	.uleb128 0x2
	.long	0xa982
	.byte	0
	.uleb128 0x6
	.long	.LASF1002
	.byte	0x3
	.value	0x456
	.byte	0x7
	.long	.LASF1004
	.long	0x8314
	.byte	0x1
	.long	0x83f9
	.long	0x8404
	.uleb128 0x2
	.long	0xa982
	.uleb128 0x1
	.long	0x4f
	.byte	0
	.uleb128 0x6
	.long	.LASF1005
	.byte	0x3
	.value	0x45e
	.byte	0x7
	.long	.LASF1006
	.long	0xa99b
	.byte	0x1
	.long	0x841e
	.long	0x8424
	.uleb128 0x2
	.long	0xa982
	.byte	0
	.uleb128 0x6
	.long	.LASF1005
	.byte	0x3
	.value	0x467
	.byte	0x7
	.long	.LASF1007
	.long	0x8314
	.byte	0x1
	.long	0x843e
	.long	0x8449
	.uleb128 0x2
	.long	0xa982
	.uleb128 0x1
	.long	0x4f
	.byte	0
	.uleb128 0x6
	.long	.LASF213
	.byte	0x3
	.value	0x46f
	.byte	0x7
	.long	.LASF1008
	.long	0x8365
	.byte	0x1
	.long	0x8463
	.long	0x846e
	.uleb128 0x2
	.long	0xa991
	.uleb128 0x1
	.long	0x846e
	.byte	0
	.uleb128 0x15
	.long	.LASF447
	.byte	0x3
	.value	0x413
	.byte	0x38
	.long	0x6c61
	.uleb128 0x6
	.long	.LASF1009
	.byte	0x3
	.value	0x475
	.byte	0x7
	.long	.LASF1010
	.long	0xa99b
	.byte	0x1
	.long	0x8495
	.long	0x84a0
	.uleb128 0x2
	.long	0xa982
	.uleb128 0x1
	.long	0x846e
	.byte	0
	.uleb128 0x6
	.long	.LASF1011
	.byte	0x3
	.value	0x47b
	.byte	0x7
	.long	.LASF1012
	.long	0x8314
	.byte	0x1
	.long	0x84ba
	.long	0x84c5
	.uleb128 0x2
	.long	0xa991
	.uleb128 0x1
	.long	0x846e
	.byte	0
	.uleb128 0x6
	.long	.LASF1013
	.byte	0x3
	.value	0x481
	.byte	0x7
	.long	.LASF1014
	.long	0xa99b
	.byte	0x1
	.long	0x84df
	.long	0x84ea
	.uleb128 0x2
	.long	0xa982
	.uleb128 0x1
	.long	0x846e
	.byte	0
	.uleb128 0x6
	.long	.LASF1015
	.byte	0x3
	.value	0x487
	.byte	0x7
	.long	.LASF1016
	.long	0x8314
	.byte	0x1
	.long	0x8504
	.long	0x850f
	.uleb128 0x2
	.long	0xa991
	.uleb128 0x1
	.long	0x846e
	.byte	0
	.uleb128 0x6
	.long	.LASF1017
	.byte	0x3
	.value	0x48d
	.byte	0x7
	.long	.LASF1018
	.long	0xa98c
	.byte	0x1
	.long	0x8529
	.long	0x852f
	.uleb128 0x2
	.long	0xa991
	.byte	0
	.uleb128 0xa
	.long	.LASF448
	.long	0xa075
	.uleb128 0xa
	.long	.LASF1019
	.long	0x11f9
	.byte	0
	.uleb128 0x7
	.long	0x8314
	.uleb128 0x34
	.long	.LASF1020
	.uleb128 0x1a
	.long	.LASF1021
	.byte	0x1
	.byte	0x33
	.byte	0x2f
	.byte	0xa
	.long	0x865b
	.uleb128 0x5
	.byte	0x33
	.byte	0x2f
	.byte	0xa
	.long	0x215c
	.uleb128 0x5
	.byte	0x33
	.byte	0x2f
	.byte	0xa
	.long	0x211d
	.uleb128 0x5
	.byte	0x33
	.byte	0x2f
	.byte	0xa
	.long	0x218e
	.uleb128 0x5
	.byte	0x33
	.byte	0x2f
	.byte	0xa
	.long	0x21af
	.uleb128 0x36
	.long	0x2102
	.uleb128 0x32
	.long	.LASF976
	.byte	0x33
	.byte	0x63
	.byte	0x1d
	.long	.LASF1022
	.long	0x2079
	.long	0x8598
	.uleb128 0x1
	.long	0xa595
	.byte	0
	.uleb128 0x49
	.long	.LASF978
	.byte	0x33
	.byte	0x67
	.byte	0x26
	.long	.LASF1023
	.long	0x85b3
	.uleb128 0x1
	.long	0xa59a
	.uleb128 0x1
	.long	0xa59a
	.byte	0
	.uleb128 0x33
	.long	.LASF980
	.byte	0x6b
	.long	.LASF1024
	.long	0x9345
	.uleb128 0x33
	.long	.LASF982
	.byte	0x6f
	.long	.LASF1025
	.long	0x9345
	.uleb128 0x33
	.long	.LASF984
	.byte	0x73
	.long	.LASF1026
	.long	0x9345
	.uleb128 0x33
	.long	.LASF986
	.byte	0x77
	.long	.LASF1027
	.long	0x9345
	.uleb128 0x33
	.long	.LASF988
	.byte	0x7b
	.long	.LASF1028
	.long	0x9345
	.uleb128 0x8
	.long	.LASF6
	.byte	0x33
	.byte	0x37
	.byte	0x35
	.long	0x21e5
	.uleb128 0x7
	.long	0x85f9
	.uleb128 0x8
	.long	.LASF74
	.byte	0x33
	.byte	0x38
	.byte	0x35
	.long	0x2110
	.uleb128 0x8
	.long	.LASF75
	.byte	0x33
	.byte	0x3d
	.byte	0x35
	.long	0xa5a9
	.uleb128 0x8
	.long	.LASF78
	.byte	0x33
	.byte	0x3e
	.byte	0x35
	.long	0xa5ae
	.uleb128 0x1a
	.long	.LASF1029
	.byte	0x1
	.byte	0x33
	.byte	0x7f
	.byte	0xe
	.long	0x8651
	.uleb128 0x8
	.long	.LASF991
	.byte	0x33
	.byte	0x80
	.byte	0x41
	.long	0x21f2
	.uleb128 0xf
	.string	"_Tp"
	.long	0xa24a
	.byte	0
	.uleb128 0xa
	.long	.LASF146
	.long	0x2079
	.byte	0
	.uleb128 0x48
	.long	.LASF1030
	.byte	0x8
	.byte	0x3
	.value	0x402
	.long	0x8889
	.uleb128 0x69
	.long	.LASF994
	.long	0xa56d
	.uleb128 0x10
	.long	.LASF995
	.byte	0x3
	.value	0x41d
	.byte	0x7
	.long	.LASF1031
	.byte	0x1
	.long	0x8687
	.long	0x868d
	.uleb128 0x2
	.long	0xa72a
	.byte	0
	.uleb128 0x41
	.long	.LASF995
	.byte	0x3
	.value	0x422
	.long	.LASF1032
	.long	0x86a1
	.long	0x86ac
	.uleb128 0x2
	.long	0xa72a
	.uleb128 0x1
	.long	0xa734
	.byte	0
	.uleb128 0x15
	.long	.LASF75
	.byte	0x3
	.value	0x414
	.byte	0x32
	.long	0x43d0
	.uleb128 0x6
	.long	.LASF998
	.byte	0x3
	.value	0x441
	.byte	0x7
	.long	.LASF1033
	.long	0x86ac
	.byte	0x1
	.long	0x86d3
	.long	0x86d9
	.uleb128 0x2
	.long	0xa739
	.byte	0
	.uleb128 0x15
	.long	.LASF74
	.byte	0x3
	.value	0x415
	.byte	0x32
	.long	0x43c4
	.uleb128 0x6
	.long	.LASF1000
	.byte	0x3
	.value	0x447
	.byte	0x7
	.long	.LASF1034
	.long	0x86d9
	.byte	0x1
	.long	0x8700
	.long	0x8706
	.uleb128 0x2
	.long	0xa739
	.byte	0
	.uleb128 0x6
	.long	.LASF1002
	.byte	0x3
	.value	0x44d
	.byte	0x7
	.long	.LASF1035
	.long	0xa743
	.byte	0x1
	.long	0x8720
	.long	0x8726
	.uleb128 0x2
	.long	0xa72a
	.byte	0
	.uleb128 0x6
	.long	.LASF1002
	.byte	0x3
	.value	0x456
	.byte	0x7
	.long	.LASF1036
	.long	0x865b
	.byte	0x1
	.long	0x8740
	.long	0x874b
	.uleb128 0x2
	.long	0xa72a
	.uleb128 0x1
	.long	0x4f
	.byte	0
	.uleb128 0x6
	.long	.LASF1005
	.byte	0x3
	.value	0x45e
	.byte	0x7
	.long	.LASF1037
	.long	0xa743
	.byte	0x1
	.long	0x8765
	.long	0x876b
	.uleb128 0x2
	.long	0xa72a
	.byte	0
	.uleb128 0x6
	.long	.LASF1005
	.byte	0x3
	.value	0x467
	.byte	0x7
	.long	.LASF1038
	.long	0x865b
	.byte	0x1
	.long	0x8785
	.long	0x8790
	.uleb128 0x2
	.long	0xa72a
	.uleb128 0x1
	.long	0x4f
	.byte	0
	.uleb128 0x6
	.long	.LASF213
	.byte	0x3
	.value	0x46f
	.byte	0x7
	.long	.LASF1039
	.long	0x86ac
	.byte	0x1
	.long	0x87aa
	.long	0x87b5
	.uleb128 0x2
	.long	0xa739
	.uleb128 0x1
	.long	0x87b5
	.byte	0
	.uleb128 0x15
	.long	.LASF447
	.byte	0x3
	.value	0x413
	.byte	0x38
	.long	0x43b8
	.uleb128 0x6
	.long	.LASF1009
	.byte	0x3
	.value	0x475
	.byte	0x7
	.long	.LASF1040
	.long	0xa743
	.byte	0x1
	.long	0x87dc
	.long	0x87e7
	.uleb128 0x2
	.long	0xa72a
	.uleb128 0x1
	.long	0x87b5
	.byte	0
	.uleb128 0x6
	.long	.LASF1011
	.byte	0x3
	.value	0x47b
	.byte	0x7
	.long	.LASF1041
	.long	0x865b
	.byte	0x1
	.long	0x8801
	.long	0x880c
	.uleb128 0x2
	.long	0xa739
	.uleb128 0x1
	.long	0x87b5
	.byte	0
	.uleb128 0x6
	.long	.LASF1013
	.byte	0x3
	.value	0x481
	.byte	0x7
	.long	.LASF1042
	.long	0xa743
	.byte	0x1
	.long	0x8826
	.long	0x8831
	.uleb128 0x2
	.long	0xa72a
	.uleb128 0x1
	.long	0x87b5
	.byte	0
	.uleb128 0x6
	.long	.LASF1015
	.byte	0x3
	.value	0x487
	.byte	0x7
	.long	.LASF1043
	.long	0x865b
	.byte	0x1
	.long	0x884b
	.long	0x8856
	.uleb128 0x2
	.long	0xa739
	.uleb128 0x1
	.long	0x87b5
	.byte	0
	.uleb128 0x6
	.long	.LASF1017
	.byte	0x3
	.value	0x48d
	.byte	0x7
	.long	.LASF1044
	.long	0xa734
	.byte	0x1
	.long	0x8870
	.long	0x8876
	.uleb128 0x2
	.long	0xa739
	.byte	0
	.uleb128 0xa
	.long	.LASF448
	.long	0xa56d
	.uleb128 0xa
	.long	.LASF1019
	.long	0x25b0
	.byte	0
	.uleb128 0x7
	.long	0x865b
	.uleb128 0x48
	.long	.LASF1045
	.byte	0x8
	.byte	0x3
	.value	0x402
	.long	0x8abc
	.uleb128 0x69
	.long	.LASF994
	.long	0xa581
	.uleb128 0x10
	.long	.LASF995
	.byte	0x3
	.value	0x41d
	.byte	0x7
	.long	.LASF1046
	.byte	0x1
	.long	0x88ba
	.long	0x88c0
	.uleb128 0x2
	.long	0xa96e
	.byte	0
	.uleb128 0x41
	.long	.LASF995
	.byte	0x3
	.value	0x422
	.long	.LASF1047
	.long	0x88d4
	.long	0x88df
	.uleb128 0x2
	.long	0xa96e
	.uleb128 0x1
	.long	0xa973
	.byte	0
	.uleb128 0x15
	.long	.LASF75
	.byte	0x3
	.value	0x414
	.byte	0x32
	.long	0x6c3e
	.uleb128 0x6
	.long	.LASF998
	.byte	0x3
	.value	0x441
	.byte	0x7
	.long	.LASF1048
	.long	0x88df
	.byte	0x1
	.long	0x8906
	.long	0x890c
	.uleb128 0x2
	.long	0xa978
	.byte	0
	.uleb128 0x15
	.long	.LASF74
	.byte	0x3
	.value	0x415
	.byte	0x32
	.long	0x6c32
	.uleb128 0x6
	.long	.LASF1000
	.byte	0x3
	.value	0x447
	.byte	0x7
	.long	.LASF1049
	.long	0x890c
	.byte	0x1
	.long	0x8933
	.long	0x8939
	.uleb128 0x2
	.long	0xa978
	.byte	0
	.uleb128 0x6
	.long	.LASF1002
	.byte	0x3
	.value	0x44d
	.byte	0x7
	.long	.LASF1050
	.long	0xa97d
	.byte	0x1
	.long	0x8953
	.long	0x8959
	.uleb128 0x2
	.long	0xa96e
	.byte	0
	.uleb128 0x6
	.long	.LASF1002
	.byte	0x3
	.value	0x456
	.byte	0x7
	.long	.LASF1051
	.long	0x888e
	.byte	0x1
	.long	0x8973
	.long	0x897e
	.uleb128 0x2
	.long	0xa96e
	.uleb128 0x1
	.long	0x4f
	.byte	0
	.uleb128 0x6
	.long	.LASF1005
	.byte	0x3
	.value	0x45e
	.byte	0x7
	.long	.LASF1052
	.long	0xa97d
	.byte	0x1
	.long	0x8998
	.long	0x899e
	.uleb128 0x2
	.long	0xa96e
	.byte	0
	.uleb128 0x6
	.long	.LASF1005
	.byte	0x3
	.value	0x467
	.byte	0x7
	.long	.LASF1053
	.long	0x888e
	.byte	0x1
	.long	0x89b8
	.long	0x89c3
	.uleb128 0x2
	.long	0xa96e
	.uleb128 0x1
	.long	0x4f
	.byte	0
	.uleb128 0x6
	.long	.LASF213
	.byte	0x3
	.value	0x46f
	.byte	0x7
	.long	.LASF1054
	.long	0x88df
	.byte	0x1
	.long	0x89dd
	.long	0x89e8
	.uleb128 0x2
	.long	0xa978
	.uleb128 0x1
	.long	0x89e8
	.byte	0
	.uleb128 0x15
	.long	.LASF447
	.byte	0x3
	.value	0x413
	.byte	0x38
	.long	0x6c26
	.uleb128 0x6
	.long	.LASF1009
	.byte	0x3
	.value	0x475
	.byte	0x7
	.long	.LASF1055
	.long	0xa97d
	.byte	0x1
	.long	0x8a0f
	.long	0x8a1a
	.uleb128 0x2
	.long	0xa96e
	.uleb128 0x1
	.long	0x89e8
	.byte	0
	.uleb128 0x6
	.long	.LASF1011
	.byte	0x3
	.value	0x47b
	.byte	0x7
	.long	.LASF1056
	.long	0x888e
	.byte	0x1
	.long	0x8a34
	.long	0x8a3f
	.uleb128 0x2
	.long	0xa978
	.uleb128 0x1
	.long	0x89e8
	.byte	0
	.uleb128 0x6
	.long	.LASF1013
	.byte	0x3
	.value	0x481
	.byte	0x7
	.long	.LASF1057
	.long	0xa97d
	.byte	0x1
	.long	0x8a59
	.long	0x8a64
	.uleb128 0x2
	.long	0xa96e
	.uleb128 0x1
	.long	0x89e8
	.byte	0
	.uleb128 0x6
	.long	.LASF1015
	.byte	0x3
	.value	0x487
	.byte	0x7
	.long	.LASF1058
	.long	0x888e
	.byte	0x1
	.long	0x8a7e
	.long	0x8a89
	.uleb128 0x2
	.long	0xa978
	.uleb128 0x1
	.long	0x89e8
	.byte	0
	.uleb128 0x6
	.long	.LASF1017
	.byte	0x3
	.value	0x48d
	.byte	0x7
	.long	.LASF1059
	.long	0xa973
	.byte	0x1
	.long	0x8aa3
	.long	0x8aa9
	.uleb128 0x2
	.long	0xa978
	.byte	0
	.uleb128 0xa
	.long	.LASF448
	.long	0xa581
	.uleb128 0xa
	.long	.LASF1019
	.long	0x25b0
	.byte	0
	.uleb128 0x7
	.long	0x888e
	.uleb128 0x1a
	.long	.LASF1060
	.byte	0x1
	.byte	0x33
	.byte	0x2f
	.byte	0xa
	.long	0x8bb6
	.uleb128 0x5
	.byte	0x33
	.byte	0x2f
	.byte	0xa
	.long	0x3401
	.uleb128 0x5
	.byte	0x33
	.byte	0x2f
	.byte	0xa
	.long	0x33c6
	.uleb128 0x5
	.byte	0x33
	.byte	0x2f
	.byte	0xa
	.long	0x342f
	.uleb128 0x5
	.byte	0x33
	.byte	0x2f
	.byte	0xa
	.long	0x344c
	.uleb128 0x36
	.long	0x33ab
	.uleb128 0x91
	.long	.LASF976
	.byte	0x33
	.byte	0x63
	.byte	0x1d
	.long	0x332e
	.long	0x8b0a
	.uleb128 0x1
	.long	0xa676
	.byte	0
	.uleb128 0x92
	.long	.LASF978
	.byte	0x33
	.byte	0x67
	.byte	0x26
	.long	0x8b22
	.uleb128 0x1
	.long	0xa67b
	.uleb128 0x1
	.long	0xa67b
	.byte	0
	.uleb128 0x6a
	.long	.LASF980
	.byte	0x6b
	.long	0x9345
	.uleb128 0x6a
	.long	.LASF982
	.byte	0x6f
	.long	0x9345
	.uleb128 0x6a
	.long	.LASF984
	.byte	0x73
	.long	0x9345
	.uleb128 0x6a
	.long	.LASF986
	.byte	0x77
	.long	0x9345
	.uleb128 0x6a
	.long	.LASF988
	.byte	0x7b
	.long	0x9345
	.uleb128 0x8
	.long	.LASF6
	.byte	0x33
	.byte	0x37
	.byte	0x35
	.long	0x347a
	.uleb128 0x7
	.long	0x8b54
	.uleb128 0x8
	.long	.LASF74
	.byte	0x33
	.byte	0x38
	.byte	0x35
	.long	0x33b9
	.uleb128 0x8
	.long	.LASF75
	.byte	0x33
	.byte	0x3d
	.byte	0x35
	.long	0xa68a
	.uleb128 0x8
	.long	.LASF78
	.byte	0x33
	.byte	0x3e
	.byte	0x35
	.long	0xa68f
	.uleb128 0x1a
	.long	.LASF1061
	.byte	0x1
	.byte	0x33
	.byte	0x7f
	.byte	0xe
	.long	0x8bac
	.uleb128 0x8
	.long	.LASF991
	.byte	0x33
	.byte	0x80
	.byte	0x41
	.long	0x3487
	.uleb128 0xf
	.string	"_Tp"
	.long	0xa4c5
	.byte	0
	.uleb128 0xa
	.long	.LASF146
	.long	0x332e
	.byte	0
	.uleb128 0x48
	.long	.LASF1062
	.byte	0x8
	.byte	0x3
	.value	0x402
	.long	0x8dac
	.uleb128 0x69
	.long	.LASF994
	.long	0xa649
	.uleb128 0x2d
	.long	.LASF995
	.byte	0x3
	.value	0x41d
	.byte	0x7
	.byte	0x1
	.long	0x8bde
	.long	0x8be4
	.uleb128 0x2
	.long	0xa838
	.byte	0
	.uleb128 0x7a
	.long	.LASF995
	.byte	0x3
	.value	0x422
	.long	0x8bf4
	.long	0x8bff
	.uleb128 0x2
	.long	0xa838
	.uleb128 0x1
	.long	0xa842
	.byte	0
	.uleb128 0x15
	.long	.LASF75
	.byte	0x3
	.value	0x414
	.byte	0x32
	.long	0x57b8
	.uleb128 0x1f
	.long	.LASF998
	.byte	0x3
	.value	0x441
	.byte	0x7
	.long	0x8bff
	.byte	0x1
	.long	0x8c22
	.long	0x8c28
	.uleb128 0x2
	.long	0xa847
	.byte	0
	.uleb128 0x15
	.long	.LASF74
	.byte	0x3
	.value	0x415
	.byte	0x32
	.long	0x57ac
	.uleb128 0x1f
	.long	.LASF1000
	.byte	0x3
	.value	0x447
	.byte	0x7
	.long	0x8c28
	.byte	0x1
	.long	0x8c4b
	.long	0x8c51
	.uleb128 0x2
	.long	0xa847
	.byte	0
	.uleb128 0x1f
	.long	.LASF1002
	.byte	0x3
	.value	0x44d
	.byte	0x7
	.long	0xa851
	.byte	0x1
	.long	0x8c67
	.long	0x8c6d
	.uleb128 0x2
	.long	0xa838
	.byte	0
	.uleb128 0x1f
	.long	.LASF1002
	.byte	0x3
	.value	0x456
	.byte	0x7
	.long	0x8bb6
	.byte	0x1
	.long	0x8c83
	.long	0x8c8e
	.uleb128 0x2
	.long	0xa838
	.uleb128 0x1
	.long	0x4f
	.byte	0
	.uleb128 0x1f
	.long	.LASF1005
	.byte	0x3
	.value	0x45e
	.byte	0x7
	.long	0xa851
	.byte	0x1
	.long	0x8ca4
	.long	0x8caa
	.uleb128 0x2
	.long	0xa838
	.byte	0
	.uleb128 0x1f
	.long	.LASF1005
	.byte	0x3
	.value	0x467
	.byte	0x7
	.long	0x8bb6
	.byte	0x1
	.long	0x8cc0
	.long	0x8ccb
	.uleb128 0x2
	.long	0xa838
	.uleb128 0x1
	.long	0x4f
	.byte	0
	.uleb128 0x1f
	.long	.LASF213
	.byte	0x3
	.value	0x46f
	.byte	0x7
	.long	0x8bff
	.byte	0x1
	.long	0x8ce1
	.long	0x8cec
	.uleb128 0x2
	.long	0xa847
	.uleb128 0x1
	.long	0x8cec
	.byte	0
	.uleb128 0x15
	.long	.LASF447
	.byte	0x3
	.value	0x413
	.byte	0x38
	.long	0x57a0
	.uleb128 0x1f
	.long	.LASF1009
	.byte	0x3
	.value	0x475
	.byte	0x7
	.long	0xa851
	.byte	0x1
	.long	0x8d0f
	.long	0x8d1a
	.uleb128 0x2
	.long	0xa838
	.uleb128 0x1
	.long	0x8cec
	.byte	0
	.uleb128 0x1f
	.long	.LASF1011
	.byte	0x3
	.value	0x47b
	.byte	0x7
	.long	0x8bb6
	.byte	0x1
	.long	0x8d30
	.long	0x8d3b
	.uleb128 0x2
	.long	0xa847
	.uleb128 0x1
	.long	0x8cec
	.byte	0
	.uleb128 0x1f
	.long	.LASF1013
	.byte	0x3
	.value	0x481
	.byte	0x7
	.long	0xa851
	.byte	0x1
	.long	0x8d51
	.long	0x8d5c
	.uleb128 0x2
	.long	0xa838
	.uleb128 0x1
	.long	0x8cec
	.byte	0
	.uleb128 0x1f
	.long	.LASF1015
	.byte	0x3
	.value	0x487
	.byte	0x7
	.long	0x8bb6
	.byte	0x1
	.long	0x8d72
	.long	0x8d7d
	.uleb128 0x2
	.long	0xa847
	.uleb128 0x1
	.long	0x8cec
	.byte	0
	.uleb128 0x1f
	.long	.LASF1017
	.byte	0x3
	.value	0x48d
	.byte	0x7
	.long	0xa842
	.byte	0x1
	.long	0x8d93
	.long	0x8d99
	.uleb128 0x2
	.long	0xa847
	.byte	0
	.uleb128 0xa
	.long	.LASF448
	.long	0xa649
	.uleb128 0xa
	.long	.LASF1019
	.long	0x382a
	.byte	0
	.uleb128 0x7
	.long	0x8bb6
	.uleb128 0x34
	.long	.LASF1063
	.uleb128 0x1a
	.long	.LASF1064
	.byte	0x1
	.byte	0x33
	.byte	0x2f
	.byte	0xa
	.long	0x8ec5
	.uleb128 0x5
	.byte	0x33
	.byte	0x2f
	.byte	0xa
	.long	0x466c
	.uleb128 0x5
	.byte	0x33
	.byte	0x2f
	.byte	0xa
	.long	0x462d
	.uleb128 0x5
	.byte	0x33
	.byte	0x2f
	.byte	0xa
	.long	0x469e
	.uleb128 0x5
	.byte	0x33
	.byte	0x2f
	.byte	0xa
	.long	0x46bf
	.uleb128 0x36
	.long	0x4612
	.uleb128 0x32
	.long	.LASF976
	.byte	0x33
	.byte	0x63
	.byte	0x1d
	.long	.LASF1065
	.long	0x4589
	.long	0x8e02
	.uleb128 0x1
	.long	0xa784
	.byte	0
	.uleb128 0x49
	.long	.LASF978
	.byte	0x33
	.byte	0x67
	.byte	0x26
	.long	.LASF1066
	.long	0x8e1d
	.uleb128 0x1
	.long	0xa789
	.uleb128 0x1
	.long	0xa789
	.byte	0
	.uleb128 0x33
	.long	.LASF980
	.byte	0x6b
	.long	.LASF1067
	.long	0x9345
	.uleb128 0x33
	.long	.LASF982
	.byte	0x6f
	.long	.LASF1068
	.long	0x9345
	.uleb128 0x33
	.long	.LASF984
	.byte	0x73
	.long	.LASF1069
	.long	0x9345
	.uleb128 0x33
	.long	.LASF986
	.byte	0x77
	.long	.LASF1070
	.long	0x9345
	.uleb128 0x33
	.long	.LASF988
	.byte	0x7b
	.long	.LASF1071
	.long	0x9345
	.uleb128 0x8
	.long	.LASF6
	.byte	0x33
	.byte	0x37
	.byte	0x35
	.long	0x46f5
	.uleb128 0x7
	.long	0x8e63
	.uleb128 0x8
	.long	.LASF74
	.byte	0x33
	.byte	0x38
	.byte	0x35
	.long	0x4620
	.uleb128 0x8
	.long	.LASF75
	.byte	0x33
	.byte	0x3d
	.byte	0x35
	.long	0xa798
	.uleb128 0x8
	.long	.LASF78
	.byte	0x33
	.byte	0x3e
	.byte	0x35
	.long	0xa79d
	.uleb128 0x1a
	.long	.LASF1072
	.byte	0x1
	.byte	0x33
	.byte	0x7f
	.byte	0xe
	.long	0x8ebb
	.uleb128 0x8
	.long	.LASF991
	.byte	0x33
	.byte	0x80
	.byte	0x41
	.long	0x4702
	.uleb128 0xf
	.string	"_Tp"
	.long	0x4f
	.byte	0
	.uleb128 0xa
	.long	.LASF146
	.long	0x4589
	.byte	0
	.uleb128 0x34
	.long	.LASF1073
	.uleb128 0x34
	.long	.LASF1074
	.uleb128 0x1a
	.long	.LASF1075
	.byte	0x1
	.byte	0x33
	.byte	0x2f
	.byte	0xa
	.long	0x8fde
	.uleb128 0x5
	.byte	0x33
	.byte	0x2f
	.byte	0xa
	.long	0x5a54
	.uleb128 0x5
	.byte	0x33
	.byte	0x2f
	.byte	0xa
	.long	0x5a15
	.uleb128 0x5
	.byte	0x33
	.byte	0x2f
	.byte	0xa
	.long	0x5a86
	.uleb128 0x5
	.byte	0x33
	.byte	0x2f
	.byte	0xa
	.long	0x5aa7
	.uleb128 0x36
	.long	0x59fa
	.uleb128 0x32
	.long	.LASF976
	.byte	0x33
	.byte	0x63
	.byte	0x1d
	.long	.LASF1076
	.long	0x5971
	.long	0x8f1b
	.uleb128 0x1
	.long	0xa897
	.byte	0
	.uleb128 0x49
	.long	.LASF978
	.byte	0x33
	.byte	0x67
	.byte	0x26
	.long	.LASF1077
	.long	0x8f36
	.uleb128 0x1
	.long	0xa89c
	.uleb128 0x1
	.long	0xa89c
	.byte	0
	.uleb128 0x33
	.long	.LASF980
	.byte	0x6b
	.long	.LASF1078
	.long	0x9345
	.uleb128 0x33
	.long	.LASF982
	.byte	0x6f
	.long	.LASF1079
	.long	0x9345
	.uleb128 0x33
	.long	.LASF984
	.byte	0x73
	.long	.LASF1080
	.long	0x9345
	.uleb128 0x33
	.long	.LASF986
	.byte	0x77
	.long	.LASF1081
	.long	0x9345
	.uleb128 0x33
	.long	.LASF988
	.byte	0x7b
	.long	.LASF1082
	.long	0x9345
	.uleb128 0x8
	.long	.LASF6
	.byte	0x33
	.byte	0x37
	.byte	0x35
	.long	0x5add
	.uleb128 0x7
	.long	0x8f7c
	.uleb128 0x8
	.long	.LASF74
	.byte	0x33
	.byte	0x38
	.byte	0x35
	.long	0x5a08
	.uleb128 0x8
	.long	.LASF75
	.byte	0x33
	.byte	0x3d
	.byte	0x35
	.long	0xa8ab
	.uleb128 0x8
	.long	.LASF78
	.byte	0x33
	.byte	0x3e
	.byte	0x35
	.long	0xa8b0
	.uleb128 0x1a
	.long	.LASF1083
	.byte	0x1
	.byte	0x33
	.byte	0x7f
	.byte	0xe
	.long	0x8fd4
	.uleb128 0x8
	.long	.LASF991
	.byte	0x33
	.byte	0x80
	.byte	0x41
	.long	0x5aea
	.uleb128 0xf
	.string	"_Tp"
	.long	0x30
	.byte	0
	.uleb128 0xa
	.long	.LASF146
	.long	0x5971
	.byte	0
	.uleb128 0x48
	.long	.LASF1084
	.byte	0x8
	.byte	0x3
	.value	0x402
	.long	0x920c
	.uleb128 0x69
	.long	.LASF994
	.long	0xa86a
	.uleb128 0x10
	.long	.LASF995
	.byte	0x3
	.value	0x41d
	.byte	0x7
	.long	.LASF1085
	.byte	0x1
	.long	0x900a
	.long	0x9010
	.uleb128 0x2
	.long	0xa950
	.byte	0
	.uleb128 0x41
	.long	.LASF995
	.byte	0x3
	.value	0x422
	.long	.LASF1086
	.long	0x9024
	.long	0x902f
	.uleb128 0x2
	.long	0xa950
	.uleb128 0x1
	.long	0xa95a
	.byte	0
	.uleb128 0x15
	.long	.LASF75
	.byte	0x3
	.value	0x414
	.byte	0x32
	.long	0x6bd8
	.uleb128 0x6
	.long	.LASF998
	.byte	0x3
	.value	0x441
	.byte	0x7
	.long	.LASF1087
	.long	0x902f
	.byte	0x1
	.long	0x9056
	.long	0x905c
	.uleb128 0x2
	.long	0xa95f
	.byte	0
	.uleb128 0x15
	.long	.LASF74
	.byte	0x3
	.value	0x415
	.byte	0x32
	.long	0x6bcc
	.uleb128 0x6
	.long	.LASF1000
	.byte	0x3
	.value	0x447
	.byte	0x7
	.long	.LASF1088
	.long	0x905c
	.byte	0x1
	.long	0x9083
	.long	0x9089
	.uleb128 0x2
	.long	0xa95f
	.byte	0
	.uleb128 0x6
	.long	.LASF1002
	.byte	0x3
	.value	0x44d
	.byte	0x7
	.long	.LASF1089
	.long	0xa969
	.byte	0x1
	.long	0x90a3
	.long	0x90a9
	.uleb128 0x2
	.long	0xa950
	.byte	0
	.uleb128 0x6
	.long	.LASF1002
	.byte	0x3
	.value	0x456
	.byte	0x7
	.long	.LASF1090
	.long	0x8fde
	.byte	0x1
	.long	0x90c3
	.long	0x90ce
	.uleb128 0x2
	.long	0xa950
	.uleb128 0x1
	.long	0x4f
	.byte	0
	.uleb128 0x6
	.long	.LASF1005
	.byte	0x3
	.value	0x45e
	.byte	0x7
	.long	.LASF1091
	.long	0xa969
	.byte	0x1
	.long	0x90e8
	.long	0x90ee
	.uleb128 0x2
	.long	0xa950
	.byte	0
	.uleb128 0x6
	.long	.LASF1005
	.byte	0x3
	.value	0x467
	.byte	0x7
	.long	.LASF1092
	.long	0x8fde
	.byte	0x1
	.long	0x9108
	.long	0x9113
	.uleb128 0x2
	.long	0xa950
	.uleb128 0x1
	.long	0x4f
	.byte	0
	.uleb128 0x6
	.long	.LASF213
	.byte	0x3
	.value	0x46f
	.byte	0x7
	.long	.LASF1093
	.long	0x902f
	.byte	0x1
	.long	0x912d
	.long	0x9138
	.uleb128 0x2
	.long	0xa95f
	.uleb128 0x1
	.long	0x9138
	.byte	0
	.uleb128 0x15
	.long	.LASF447
	.byte	0x3
	.value	0x413
	.byte	0x38
	.long	0x6bc0
	.uleb128 0x6
	.long	.LASF1009
	.byte	0x3
	.value	0x475
	.byte	0x7
	.long	.LASF1094
	.long	0xa969
	.byte	0x1
	.long	0x915f
	.long	0x916a
	.uleb128 0x2
	.long	0xa950
	.uleb128 0x1
	.long	0x9138
	.byte	0
	.uleb128 0x6
	.long	.LASF1011
	.byte	0x3
	.value	0x47b
	.byte	0x7
	.long	.LASF1095
	.long	0x8fde
	.byte	0x1
	.long	0x9184
	.long	0x918f
	.uleb128 0x2
	.long	0xa95f
	.uleb128 0x1
	.long	0x9138
	.byte	0
	.uleb128 0x6
	.long	.LASF1013
	.byte	0x3
	.value	0x481
	.byte	0x7
	.long	.LASF1096
	.long	0xa969
	.byte	0x1
	.long	0x91a9
	.long	0x91b4
	.uleb128 0x2
	.long	0xa950
	.uleb128 0x1
	.long	0x9138
	.byte	0
	.uleb128 0x6
	.long	.LASF1015
	.byte	0x3
	.value	0x487
	.byte	0x7
	.long	.LASF1097
	.long	0x8fde
	.byte	0x1
	.long	0x91ce
	.long	0x91d9
	.uleb128 0x2
	.long	0xa95f
	.uleb128 0x1
	.long	0x9138
	.byte	0
	.uleb128 0x6
	.long	.LASF1017
	.byte	0x3
	.value	0x48d
	.byte	0x7
	.long	.LASF1098
	.long	0xa95a
	.byte	0x1
	.long	0x91f3
	.long	0x91f9
	.uleb128 0x2
	.long	0xa95f
	.byte	0
	.uleb128 0xa
	.long	.LASF448
	.long	0xa86a
	.uleb128 0xa
	.long	.LASF1019
	.long	0x5ec1
	.byte	0
	.uleb128 0x7
	.long	0x8fde
	.uleb128 0x34
	.long	.LASF1099
	.uleb128 0x1a
	.long	.LASF1100
	.byte	0x1
	.byte	0x34
	.byte	0x3c
	.byte	0xc
	.long	0x924c
	.uleb128 0x8
	.long	.LASF1101
	.byte	0x34
	.byte	0x3d
	.byte	0x17
	.long	0x7ea3
	.uleb128 0x88
	.long	.LASF1102
	.long	0x9345
	.uleb128 0xa
	.long	.LASF1103
	.long	0x7ea3
	.uleb128 0xa
	.long	.LASF1104
	.long	0xa888
	.byte	0
	.uleb128 0x46
	.long	.LASF1105
	.byte	0x3
	.value	0x4dd
	.byte	0x7
	.long	0x9345
	.long	0x9268
	.uleb128 0x1
	.long	0x12174
	.uleb128 0x1
	.long	0x12174
	.byte	0
	.uleb128 0x93
	.long	.LASF1105
	.byte	0x3
	.value	0x4dd
	.byte	0x7
	.long	.LASF1106
	.long	0x9345
	.uleb128 0x1
	.long	0x121ce
	.uleb128 0x1
	.long	0x121ce
	.byte	0
	.byte	0
	.uleb128 0x17
	.long	.LASF1107
	.byte	0x31
	.value	0x199
	.byte	0x14
	.long	0x92a2
	.long	0x92a2
	.uleb128 0x1
	.long	0x79b3
	.uleb128 0x1
	.long	0x7e82
	.byte	0
	.uleb128 0x2c
	.byte	0x10
	.byte	0x4
	.long	.LASF1108
	.uleb128 0x16
	.long	.LASF1109
	.byte	0x31
	.value	0x1fc
	.byte	0x16
	.long	.LASF1110
	.long	0x92ce
	.long	0x92ce
	.uleb128 0x1
	.long	0x79b3
	.uleb128 0x1
	.long	0x7e82
	.uleb128 0x1
	.long	0x4f
	.byte	0
	.uleb128 0x2c
	.byte	0x8
	.byte	0x5
	.long	.LASF1111
	.uleb128 0x16
	.long	.LASF1112
	.byte	0x31
	.value	0x201
	.byte	0x1f
	.long	.LASF1113
	.long	0x92fa
	.long	0x92fa
	.uleb128 0x1
	.long	0x79b3
	.uleb128 0x1
	.long	0x7e82
	.uleb128 0x1
	.long	0x4f
	.byte	0
	.uleb128 0x2c
	.byte	0x8
	.byte	0x7
	.long	.LASF1114
	.uleb128 0xbb
	.byte	0x20
	.byte	0x10
	.byte	0x29
	.value	0x1b8
	.byte	0x10
	.long	.LASF1489
	.long	0x9330
	.uleb128 0x97
	.long	.LASF1115
	.value	0x1b9
	.byte	0xd
	.long	0x92ce
	.byte	0x8
	.byte	0
	.uleb128 0x97
	.long	.LASF1116
	.value	0x1ba
	.byte	0xf
	.long	0x92a2
	.byte	0x10
	.byte	0x10
	.byte	0
	.uleb128 0xbc
	.long	.LASF1117
	.byte	0x29
	.value	0x1c3
	.byte	0x3
	.long	0x9301
	.byte	0x10
	.uleb128 0xbd
	.long	.LASF1490
	.uleb128 0x2c
	.byte	0x1
	.byte	0x2
	.long	.LASF1118
	.uleb128 0x7
	.long	0x9345
	.uleb128 0xd
	.long	0x338
	.uleb128 0xd
	.long	0x3a7
	.uleb128 0x7
	.long	0x37
	.uleb128 0x2c
	.byte	0x10
	.byte	0x7
	.long	.LASF1119
	.uleb128 0x2c
	.byte	0x1
	.byte	0x6
	.long	.LASF1120
	.uleb128 0x2c
	.byte	0x2
	.byte	0x5
	.long	.LASF1121
	.uleb128 0x2c
	.byte	0x10
	.byte	0x5
	.long	.LASF1122
	.uleb128 0x2c
	.byte	0x2
	.byte	0x10
	.long	.LASF1123
	.uleb128 0x2c
	.byte	0x4
	.byte	0x10
	.long	.LASF1124
	.uleb128 0xd
	.long	0x3e0
	.uleb128 0xd
	.long	0x5c9
	.uleb128 0xd
	.long	0x9399
	.uleb128 0xbe
	.uleb128 0xc
	.long	0x614
	.uleb128 0xc
	.long	0x5c9
	.uleb128 0x2b
	.long	0x3e0
	.uleb128 0xc
	.long	0x3e0
	.uleb128 0xd
	.long	0x614
	.uleb128 0x1a
	.long	.LASF1125
	.byte	0x60
	.byte	0x35
	.byte	0x33
	.byte	0x8
	.long	0x94fa
	.uleb128 0x11
	.long	.LASF1126
	.byte	0x35
	.byte	0x37
	.byte	0x9
	.long	0x3e
	.byte	0
	.uleb128 0x11
	.long	.LASF1127
	.byte	0x35
	.byte	0x38
	.byte	0x9
	.long	0x3e
	.byte	0x8
	.uleb128 0x11
	.long	.LASF1128
	.byte	0x35
	.byte	0x3e
	.byte	0x9
	.long	0x3e
	.byte	0x10
	.uleb128 0x11
	.long	.LASF1129
	.byte	0x35
	.byte	0x44
	.byte	0x9
	.long	0x3e
	.byte	0x18
	.uleb128 0x11
	.long	.LASF1130
	.byte	0x35
	.byte	0x45
	.byte	0x9
	.long	0x3e
	.byte	0x20
	.uleb128 0x11
	.long	.LASF1131
	.byte	0x35
	.byte	0x46
	.byte	0x9
	.long	0x3e
	.byte	0x28
	.uleb128 0x11
	.long	.LASF1132
	.byte	0x35
	.byte	0x47
	.byte	0x9
	.long	0x3e
	.byte	0x30
	.uleb128 0x11
	.long	.LASF1133
	.byte	0x35
	.byte	0x48
	.byte	0x9
	.long	0x3e
	.byte	0x38
	.uleb128 0x11
	.long	.LASF1134
	.byte	0x35
	.byte	0x49
	.byte	0x9
	.long	0x3e
	.byte	0x40
	.uleb128 0x11
	.long	.LASF1135
	.byte	0x35
	.byte	0x4a
	.byte	0x9
	.long	0x3e
	.byte	0x48
	.uleb128 0x11
	.long	.LASF1136
	.byte	0x35
	.byte	0x4b
	.byte	0x8
	.long	0x43
	.byte	0x50
	.uleb128 0x11
	.long	.LASF1137
	.byte	0x35
	.byte	0x4c
	.byte	0x8
	.long	0x43
	.byte	0x51
	.uleb128 0x11
	.long	.LASF1138
	.byte	0x35
	.byte	0x4e
	.byte	0x8
	.long	0x43
	.byte	0x52
	.uleb128 0x11
	.long	.LASF1139
	.byte	0x35
	.byte	0x50
	.byte	0x8
	.long	0x43
	.byte	0x53
	.uleb128 0x11
	.long	.LASF1140
	.byte	0x35
	.byte	0x52
	.byte	0x8
	.long	0x43
	.byte	0x54
	.uleb128 0x11
	.long	.LASF1141
	.byte	0x35
	.byte	0x54
	.byte	0x8
	.long	0x43
	.byte	0x55
	.uleb128 0x11
	.long	.LASF1142
	.byte	0x35
	.byte	0x5b
	.byte	0x8
	.long	0x43
	.byte	0x56
	.uleb128 0x11
	.long	.LASF1143
	.byte	0x35
	.byte	0x5c
	.byte	0x8
	.long	0x43
	.byte	0x57
	.uleb128 0x11
	.long	.LASF1144
	.byte	0x35
	.byte	0x5f
	.byte	0x8
	.long	0x43
	.byte	0x58
	.uleb128 0x11
	.long	.LASF1145
	.byte	0x35
	.byte	0x61
	.byte	0x8
	.long	0x43
	.byte	0x59
	.uleb128 0x11
	.long	.LASF1146
	.byte	0x35
	.byte	0x63
	.byte	0x8
	.long	0x43
	.byte	0x5a
	.uleb128 0x11
	.long	.LASF1147
	.byte	0x35
	.byte	0x65
	.byte	0x8
	.long	0x43
	.byte	0x5b
	.uleb128 0x11
	.long	.LASF1148
	.byte	0x35
	.byte	0x6c
	.byte	0x8
	.long	0x43
	.byte	0x5c
	.uleb128 0x11
	.long	.LASF1149
	.byte	0x35
	.byte	0x6d
	.byte	0x8
	.long	0x43
	.byte	0x5d
	.byte	0
	.uleb128 0x27
	.long	.LASF1150
	.byte	0x35
	.byte	0x7a
	.byte	0xe
	.long	0x3e
	.long	0x9515
	.uleb128 0x1
	.long	0x4f
	.uleb128 0x1
	.long	0x7911
	.byte	0
	.uleb128 0x73
	.long	.LASF1152
	.byte	0x35
	.byte	0x7d
	.byte	0x16
	.long	0x9521
	.uleb128 0xd
	.long	0x93b4
	.uleb128 0x8
	.long	.LASF1153
	.byte	0x36
	.byte	0x25
	.byte	0x15
	.long	0x9367
	.uleb128 0x8
	.long	.LASF1154
	.byte	0x36
	.byte	0x26
	.byte	0x17
	.long	0x37
	.uleb128 0x8
	.long	.LASF1155
	.byte	0x36
	.byte	0x27
	.byte	0x1a
	.long	0x936e
	.uleb128 0x8
	.long	.LASF1156
	.byte	0x36
	.byte	0x28
	.byte	0x1c
	.long	0x7905
	.uleb128 0x8
	.long	.LASF1157
	.byte	0x36
	.byte	0x29
	.byte	0x14
	.long	0x4f
	.uleb128 0x7
	.long	0x9556
	.uleb128 0x8
	.long	.LASF1158
	.byte	0x36
	.byte	0x2a
	.byte	0x16
	.long	0x76c8
	.uleb128 0x8
	.long	.LASF1159
	.byte	0x36
	.byte	0x2c
	.byte	0x19
	.long	0x7eed
	.uleb128 0x8
	.long	.LASF1160
	.byte	0x36
	.byte	0x2d
	.byte	0x1b
	.long	0x7686
	.uleb128 0x8
	.long	.LASF1161
	.byte	0x36
	.byte	0x34
	.byte	0x12
	.long	0x9526
	.uleb128 0x8
	.long	.LASF1162
	.byte	0x36
	.byte	0x35
	.byte	0x13
	.long	0x9532
	.uleb128 0x8
	.long	.LASF1163
	.byte	0x36
	.byte	0x36
	.byte	0x13
	.long	0x953e
	.uleb128 0x8
	.long	.LASF1164
	.byte	0x36
	.byte	0x37
	.byte	0x14
	.long	0x954a
	.uleb128 0x8
	.long	.LASF1165
	.byte	0x36
	.byte	0x38
	.byte	0x13
	.long	0x9556
	.uleb128 0x8
	.long	.LASF1166
	.byte	0x36
	.byte	0x39
	.byte	0x14
	.long	0x9567
	.uleb128 0x8
	.long	.LASF1167
	.byte	0x36
	.byte	0x3a
	.byte	0x13
	.long	0x9573
	.uleb128 0x8
	.long	.LASF1168
	.byte	0x36
	.byte	0x3b
	.byte	0x14
	.long	0x957f
	.uleb128 0x8
	.long	.LASF1169
	.byte	0x36
	.byte	0x48
	.byte	0x12
	.long	0x7eed
	.uleb128 0x8
	.long	.LASF1170
	.byte	0x36
	.byte	0x49
	.byte	0x1b
	.long	0x7686
	.uleb128 0x8
	.long	.LASF1171
	.byte	0x36
	.byte	0x98
	.byte	0x19
	.long	0x7eed
	.uleb128 0x8
	.long	.LASF1172
	.byte	0x36
	.byte	0x99
	.byte	0x1b
	.long	0x7eed
	.uleb128 0x8
	.long	.LASF1173
	.byte	0x36
	.byte	0x9c
	.byte	0x1b
	.long	0x7eed
	.uleb128 0x8
	.long	.LASF1174
	.byte	0x36
	.byte	0xa0
	.byte	0x1a
	.long	0x7eed
	.uleb128 0x8
	.long	.LASF1175
	.byte	0x36
	.byte	0xc5
	.byte	0x21
	.long	0x7eed
	.uleb128 0x96
	.long	.LASF1176
	.byte	0x3
	.value	0xbb4
	.long	0x9656
	.uleb128 0xbf
	.byte	0x18
	.byte	0x3a
	.byte	0x18
	.long	0x6af
	.byte	0
	.uleb128 0x72
	.byte	0x8
	.byte	0x37
	.byte	0x3c
	.byte	0x3
	.long	.LASF1178
	.long	0x967e
	.uleb128 0x11
	.long	.LASF1179
	.byte	0x37
	.byte	0x3d
	.byte	0x9
	.long	0x4f
	.byte	0
	.uleb128 0x42
	.string	"rem"
	.byte	0x37
	.byte	0x3e
	.byte	0x9
	.long	0x4f
	.byte	0x4
	.byte	0
	.uleb128 0x8
	.long	.LASF1180
	.byte	0x37
	.byte	0x3f
	.byte	0x5
	.long	0x9656
	.uleb128 0x72
	.byte	0x10
	.byte	0x37
	.byte	0x44
	.byte	0x3
	.long	.LASF1181
	.long	0x96b2
	.uleb128 0x11
	.long	.LASF1179
	.byte	0x37
	.byte	0x45
	.byte	0xe
	.long	0x7eed
	.byte	0
	.uleb128 0x42
	.string	"rem"
	.byte	0x37
	.byte	0x46
	.byte	0xe
	.long	0x7eed
	.byte	0x8
	.byte	0
	.uleb128 0x8
	.long	.LASF1182
	.byte	0x37
	.byte	0x47
	.byte	0x5
	.long	0x968a
	.uleb128 0x72
	.byte	0x10
	.byte	0x37
	.byte	0x4e
	.byte	0x3
	.long	.LASF1183
	.long	0x96e6
	.uleb128 0x11
	.long	.LASF1179
	.byte	0x37
	.byte	0x4f
	.byte	0x13
	.long	0x92ce
	.byte	0
	.uleb128 0x42
	.string	"rem"
	.byte	0x37
	.byte	0x50
	.byte	0x13
	.long	0x92ce
	.byte	0x8
	.byte	0
	.uleb128 0x8
	.long	.LASF1184
	.byte	0x37
	.byte	0x51
	.byte	0x5
	.long	0x96be
	.uleb128 0x8
	.long	.LASF1185
	.byte	0x38
	.byte	0x7
	.byte	0x13
	.long	0x961b
	.uleb128 0x8
	.long	.LASF1186
	.byte	0x39
	.byte	0xa
	.byte	0x12
	.long	0x9627
	.uleb128 0x7
	.long	0x96fe
	.uleb128 0x8
	.long	.LASF1187
	.byte	0x3a
	.byte	0x18
	.byte	0x12
	.long	0x9526
	.uleb128 0x8
	.long	.LASF1188
	.byte	0x3a
	.byte	0x19
	.byte	0x13
	.long	0x953e
	.uleb128 0x8
	.long	.LASF1189
	.byte	0x3a
	.byte	0x1a
	.byte	0x13
	.long	0x9556
	.uleb128 0x8
	.long	.LASF1190
	.byte	0x3a
	.byte	0x1b
	.byte	0x13
	.long	0x9573
	.uleb128 0x1a
	.long	.LASF1191
	.byte	0x10
	.byte	0x3b
	.byte	0xb
	.byte	0x8
	.long	0x9767
	.uleb128 0x11
	.long	.LASF1192
	.byte	0x3b
	.byte	0x10
	.byte	0xc
	.long	0x9627
	.byte	0
	.uleb128 0x11
	.long	.LASF1193
	.byte	0x3b
	.byte	0x15
	.byte	0x15
	.long	0x9633
	.byte	0x8
	.byte	0
	.uleb128 0x1e
	.long	.LASF1194
	.byte	0x37
	.value	0x3b4
	.byte	0xf
	.long	0x9774
	.uleb128 0xd
	.long	0x9779
	.uleb128 0xc0
	.long	0x4f
	.long	0x978e
	.uleb128 0x1
	.long	0x9394
	.uleb128 0x1
	.long	0x9394
	.byte	0
	.uleb128 0x17
	.long	.LASF1195
	.byte	0x37
	.value	0x2de
	.byte	0xc
	.long	0x4f
	.long	0x97a5
	.uleb128 0x1
	.long	0x97a5
	.byte	0
	.uleb128 0xd
	.long	0x97aa
	.uleb128 0xc1
	.uleb128 0x16
	.long	.LASF1196
	.byte	0x37
	.value	0x2e3
	.byte	0x12
	.long	.LASF1196
	.long	0x4f
	.long	0x97c7
	.uleb128 0x1
	.long	0x97a5
	.byte	0
	.uleb128 0x27
	.long	.LASF1197
	.byte	0x3c
	.byte	0x19
	.byte	0x1
	.long	0x7e7b
	.long	0x97dd
	.uleb128 0x1
	.long	0x7911
	.byte	0
	.uleb128 0x17
	.long	.LASF1198
	.byte	0x37
	.value	0x1e1
	.byte	0x1
	.long	0x4f
	.long	0x97f4
	.uleb128 0x1
	.long	0x7911
	.byte	0
	.uleb128 0x17
	.long	.LASF1199
	.byte	0x37
	.value	0x1e6
	.byte	0x1
	.long	0x7eed
	.long	0x980b
	.uleb128 0x1
	.long	0x7911
	.byte	0
	.uleb128 0x27
	.long	.LASF1200
	.byte	0x3d
	.byte	0x14
	.byte	0x1
	.long	0x76cf
	.long	0x9835
	.uleb128 0x1
	.long	0x9394
	.uleb128 0x1
	.long	0x9394
	.uleb128 0x1
	.long	0x7675
	.uleb128 0x1
	.long	0x7675
	.uleb128 0x1
	.long	0x9767
	.byte	0
	.uleb128 0xc2
	.string	"div"
	.byte	0x37
	.value	0x3e0
	.byte	0xe
	.long	0x967e
	.long	0x9852
	.uleb128 0x1
	.long	0x4f
	.uleb128 0x1
	.long	0x4f
	.byte	0
	.uleb128 0x17
	.long	.LASF1201
	.byte	0x37
	.value	0x305
	.byte	0xe
	.long	0x3e
	.long	0x9869
	.uleb128 0x1
	.long	0x7911
	.byte	0
	.uleb128 0x17
	.long	.LASF1202
	.byte	0x37
	.value	0x3e2
	.byte	0xf
	.long	0x96b2
	.long	0x9885
	.uleb128 0x1
	.long	0x7eed
	.uleb128 0x1
	.long	0x7eed
	.byte	0
	.uleb128 0x17
	.long	.LASF1203
	.byte	0x37
	.value	0x426
	.byte	0xc
	.long	0x4f
	.long	0x98a1
	.uleb128 0x1
	.long	0x7911
	.uleb128 0x1
	.long	0x7675
	.byte	0
	.uleb128 0x17
	.long	.LASF1204
	.byte	0x37
	.value	0x431
	.byte	0xf
	.long	0x7675
	.long	0x98c2
	.uleb128 0x1
	.long	0x796a
	.uleb128 0x1
	.long	0x7911
	.uleb128 0x1
	.long	0x7675
	.byte	0
	.uleb128 0x17
	.long	.LASF1205
	.byte	0x37
	.value	0x429
	.byte	0xc
	.long	0x4f
	.long	0x98e3
	.uleb128 0x1
	.long	0x796a
	.uleb128 0x1
	.long	0x7911
	.uleb128 0x1
	.long	0x7675
	.byte	0
	.uleb128 0x63
	.long	.LASF1206
	.byte	0x37
	.value	0x3ca
	.long	0x9904
	.uleb128 0x1
	.long	0x76cf
	.uleb128 0x1
	.long	0x7675
	.uleb128 0x1
	.long	0x7675
	.uleb128 0x1
	.long	0x9767
	.byte	0
	.uleb128 0xc3
	.long	.LASF1207
	.byte	0x37
	.value	0x2fa
	.byte	0xd
	.long	0x9918
	.uleb128 0x1
	.long	0x4f
	.byte	0
	.uleb128 0x95
	.long	.LASF1208
	.byte	0x37
	.value	0x23d
	.byte	0xc
	.long	0x4f
	.uleb128 0x63
	.long	.LASF1209
	.byte	0x37
	.value	0x23f
	.long	0x9938
	.uleb128 0x1
	.long	0x76c8
	.byte	0
	.uleb128 0x27
	.long	.LASF1210
	.byte	0x37
	.byte	0x76
	.byte	0xf
	.long	0x7e7b
	.long	0x9953
	.uleb128 0x1
	.long	0x7911
	.uleb128 0x1
	.long	0x9953
	.byte	0
	.uleb128 0xd
	.long	0x3e
	.uleb128 0x32
	.long	.LASF1211
	.byte	0x37
	.byte	0xd7
	.byte	0x11
	.long	.LASF1212
	.long	0x7eed
	.long	0x997c
	.uleb128 0x1
	.long	0x7911
	.uleb128 0x1
	.long	0x9953
	.uleb128 0x1
	.long	0x4f
	.byte	0
	.uleb128 0x32
	.long	.LASF1213
	.byte	0x37
	.byte	0xdb
	.byte	0x1a
	.long	.LASF1214
	.long	0x7686
	.long	0x99a0
	.uleb128 0x1
	.long	0x7911
	.uleb128 0x1
	.long	0x9953
	.uleb128 0x1
	.long	0x4f
	.byte	0
	.uleb128 0x17
	.long	.LASF1215
	.byte	0x37
	.value	0x39b
	.byte	0xc
	.long	0x4f
	.long	0x99b7
	.uleb128 0x1
	.long	0x7911
	.byte	0
	.uleb128 0x17
	.long	.LASF1216
	.byte	0x37
	.value	0x435
	.byte	0xf
	.long	0x7675
	.long	0x99d8
	.uleb128 0x1
	.long	0x3e
	.uleb128 0x1
	.long	0x79b3
	.uleb128 0x1
	.long	0x7675
	.byte	0
	.uleb128 0x17
	.long	.LASF1217
	.byte	0x37
	.value	0x42d
	.byte	0xc
	.long	0x4f
	.long	0x99f4
	.uleb128 0x1
	.long	0x3e
	.uleb128 0x1
	.long	0x796f
	.byte	0
	.uleb128 0x17
	.long	.LASF1218
	.byte	0x37
	.value	0x3e6
	.byte	0x1e
	.long	0x96e6
	.long	0x9a10
	.uleb128 0x1
	.long	0x92ce
	.uleb128 0x1
	.long	0x92ce
	.byte	0
	.uleb128 0x17
	.long	.LASF1219
	.byte	0x37
	.value	0x1ed
	.byte	0x1
	.long	0x92ce
	.long	0x9a27
	.uleb128 0x1
	.long	0x7911
	.byte	0
	.uleb128 0x32
	.long	.LASF1220
	.byte	0x37
	.byte	0xee
	.byte	0x16
	.long	.LASF1221
	.long	0x92ce
	.long	0x9a4b
	.uleb128 0x1
	.long	0x7911
	.uleb128 0x1
	.long	0x9953
	.uleb128 0x1
	.long	0x4f
	.byte	0
	.uleb128 0x32
	.long	.LASF1222
	.byte	0x37
	.byte	0xf3
	.byte	0x1f
	.long	.LASF1223
	.long	0x92fa
	.long	0x9a6f
	.uleb128 0x1
	.long	0x7911
	.uleb128 0x1
	.long	0x9953
	.uleb128 0x1
	.long	0x4f
	.byte	0
	.uleb128 0x27
	.long	.LASF1224
	.byte	0x37
	.byte	0x7c
	.byte	0xe
	.long	0x30
	.long	0x9a8a
	.uleb128 0x1
	.long	0x7911
	.uleb128 0x1
	.long	0x9953
	.byte	0
	.uleb128 0x27
	.long	.LASF1225
	.byte	0x37
	.byte	0x7f
	.byte	0x14
	.long	0x92a2
	.long	0x9aa5
	.uleb128 0x1
	.long	0x7911
	.uleb128 0x1
	.long	0x9953
	.byte	0
	.uleb128 0x1a
	.long	.LASF1226
	.byte	0x10
	.byte	0x3e
	.byte	0xa
	.byte	0x10
	.long	0x9acd
	.uleb128 0x11
	.long	.LASF1227
	.byte	0x3e
	.byte	0xc
	.byte	0xb
	.long	0x9603
	.byte	0
	.uleb128 0x11
	.long	.LASF1228
	.byte	0x3e
	.byte	0xd
	.byte	0xf
	.long	0x7739
	.byte	0x8
	.byte	0
	.uleb128 0x8
	.long	.LASF1229
	.byte	0x3e
	.byte	0xe
	.byte	0x3
	.long	0x9aa5
	.uleb128 0xc4
	.long	.LASF1491
	.byte	0x2f
	.byte	0x2c
	.byte	0xe
	.uleb128 0x7e
	.long	.LASF1230
	.uleb128 0xd
	.long	0x9ae2
	.uleb128 0xd
	.long	0x7762
	.uleb128 0x7b
	.long	0x43
	.long	0x9b01
	.uleb128 0x7c
	.long	0x7686
	.byte	0
	.byte	0
	.uleb128 0xd
	.long	0x9ad9
	.uleb128 0x7e
	.long	.LASF1231
	.uleb128 0xd
	.long	0x9b06
	.uleb128 0x7e
	.long	.LASF1232
	.uleb128 0xd
	.long	0x9b10
	.uleb128 0xd
	.long	0x9aec
	.uleb128 0x7b
	.long	0x43
	.long	0x9b2f
	.uleb128 0x7c
	.long	0x7686
	.byte	0x13
	.byte	0
	.uleb128 0x8
	.long	.LASF1233
	.byte	0x3f
	.byte	0x55
	.byte	0x12
	.long	0x9acd
	.uleb128 0x7
	.long	0x9b2f
	.uleb128 0xd
	.long	0x78f9
	.uleb128 0x63
	.long	.LASF1234
	.byte	0x3f
	.value	0x352
	.long	0x9b57
	.uleb128 0x1
	.long	0x9b40
	.byte	0
	.uleb128 0x27
	.long	.LASF1235
	.byte	0x3f
	.byte	0xb8
	.byte	0xc
	.long	0x4f
	.long	0x9b6d
	.uleb128 0x1
	.long	0x9b40
	.byte	0
	.uleb128 0x17
	.long	.LASF1236
	.byte	0x3f
	.value	0x354
	.byte	0xc
	.long	0x4f
	.long	0x9b84
	.uleb128 0x1
	.long	0x9b40
	.byte	0
	.uleb128 0x17
	.long	.LASF1237
	.byte	0x3f
	.value	0x356
	.byte	0xc
	.long	0x4f
	.long	0x9b9b
	.uleb128 0x1
	.long	0x9b40
	.byte	0
	.uleb128 0x27
	.long	.LASF1238
	.byte	0x3f
	.byte	0xec
	.byte	0xc
	.long	0x4f
	.long	0x9bb1
	.uleb128 0x1
	.long	0x9b40
	.byte	0
	.uleb128 0x17
	.long	.LASF1239
	.byte	0x3f
	.value	0x23f
	.byte	0xc
	.long	0x4f
	.long	0x9bc8
	.uleb128 0x1
	.long	0x9b40
	.byte	0
	.uleb128 0x17
	.long	.LASF1240
	.byte	0x3f
	.value	0x333
	.byte	0xc
	.long	0x4f
	.long	0x9be4
	.uleb128 0x1
	.long	0x9b40
	.uleb128 0x1
	.long	0x9be4
	.byte	0
	.uleb128 0xd
	.long	0x9b2f
	.uleb128 0x17
	.long	.LASF1241
	.byte	0x3f
	.value	0x28e
	.byte	0xe
	.long	0x3e
	.long	0x9c0a
	.uleb128 0x1
	.long	0x3e
	.uleb128 0x1
	.long	0x4f
	.uleb128 0x1
	.long	0x9b40
	.byte	0
	.uleb128 0x17
	.long	.LASF1242
	.byte	0x3f
	.value	0x108
	.byte	0xe
	.long	0x9b40
	.long	0x9c26
	.uleb128 0x1
	.long	0x7911
	.uleb128 0x1
	.long	0x7911
	.byte	0
	.uleb128 0x17
	.long	.LASF1243
	.byte	0x3f
	.value	0x2d8
	.byte	0xf
	.long	0x7675
	.long	0x9c4c
	.uleb128 0x1
	.long	0x76cf
	.uleb128 0x1
	.long	0x7675
	.uleb128 0x1
	.long	0x7675
	.uleb128 0x1
	.long	0x9b40
	.byte	0
	.uleb128 0x17
	.long	.LASF1244
	.byte	0x3f
	.value	0x10f
	.byte	0xe
	.long	0x9b40
	.long	0x9c6d
	.uleb128 0x1
	.long	0x7911
	.uleb128 0x1
	.long	0x7911
	.uleb128 0x1
	.long	0x9b40
	.byte	0
	.uleb128 0x17
	.long	.LASF1245
	.byte	0x3f
	.value	0x301
	.byte	0xc
	.long	0x4f
	.long	0x9c8e
	.uleb128 0x1
	.long	0x9b40
	.uleb128 0x1
	.long	0x7eed
	.uleb128 0x1
	.long	0x4f
	.byte	0
	.uleb128 0x17
	.long	.LASF1246
	.byte	0x3f
	.value	0x339
	.byte	0xc
	.long	0x4f
	.long	0x9caa
	.uleb128 0x1
	.long	0x9b40
	.uleb128 0x1
	.long	0x9caa
	.byte	0
	.uleb128 0xd
	.long	0x9b3b
	.uleb128 0x17
	.long	.LASF1247
	.byte	0x3f
	.value	0x307
	.byte	0x11
	.long	0x7eed
	.long	0x9cc6
	.uleb128 0x1
	.long	0x9b40
	.byte	0
	.uleb128 0x17
	.long	.LASF1248
	.byte	0x3f
	.value	0x240
	.byte	0xc
	.long	0x4f
	.long	0x9cdd
	.uleb128 0x1
	.long	0x9b40
	.byte	0
	.uleb128 0x73
	.long	.LASF1249
	.byte	0x40
	.byte	0x2f
	.byte	0x1
	.long	0x4f
	.uleb128 0x63
	.long	.LASF1250
	.byte	0x3f
	.value	0x364
	.long	0x9cfb
	.uleb128 0x1
	.long	0x7911
	.byte	0
	.uleb128 0x27
	.long	.LASF1251
	.byte	0x3f
	.byte	0x9e
	.byte	0xc
	.long	0x4f
	.long	0x9d11
	.uleb128 0x1
	.long	0x7911
	.byte	0
	.uleb128 0x27
	.long	.LASF1252
	.byte	0x3f
	.byte	0xa0
	.byte	0xc
	.long	0x4f
	.long	0x9d2c
	.uleb128 0x1
	.long	0x7911
	.uleb128 0x1
	.long	0x7911
	.byte	0
	.uleb128 0x63
	.long	.LASF1253
	.byte	0x3f
	.value	0x30c
	.long	0x9d3e
	.uleb128 0x1
	.long	0x9b40
	.byte	0
	.uleb128 0x63
	.long	.LASF1254
	.byte	0x3f
	.value	0x14e
	.long	0x9d55
	.uleb128 0x1
	.long	0x9b40
	.uleb128 0x1
	.long	0x3e
	.byte	0
	.uleb128 0x17
	.long	.LASF1255
	.byte	0x3f
	.value	0x153
	.byte	0xc
	.long	0x4f
	.long	0x9d7b
	.uleb128 0x1
	.long	0x9b40
	.uleb128 0x1
	.long	0x3e
	.uleb128 0x1
	.long	0x4f
	.uleb128 0x1
	.long	0x7675
	.byte	0
	.uleb128 0x73
	.long	.LASF1256
	.byte	0x3f
	.byte	0xc2
	.byte	0xe
	.long	0x9b40
	.uleb128 0x27
	.long	.LASF1257
	.byte	0x3f
	.byte	0xd3
	.byte	0xe
	.long	0x3e
	.long	0x9d9d
	.uleb128 0x1
	.long	0x3e
	.byte	0
	.uleb128 0x17
	.long	.LASF1258
	.byte	0x3f
	.value	0x2d1
	.byte	0xc
	.long	0x4f
	.long	0x9db9
	.uleb128 0x1
	.long	0x4f
	.uleb128 0x1
	.long	0x9b40
	.byte	0
	.uleb128 0x8
	.long	.LASF1259
	.byte	0x41
	.byte	0x18
	.byte	0x13
	.long	0x9532
	.uleb128 0x8
	.long	.LASF1260
	.byte	0x41
	.byte	0x19
	.byte	0x14
	.long	0x954a
	.uleb128 0x8
	.long	.LASF1261
	.byte	0x41
	.byte	0x1a
	.byte	0x14
	.long	0x9567
	.uleb128 0x8
	.long	.LASF1262
	.byte	0x41
	.byte	0x1b
	.byte	0x14
	.long	0x957f
	.uleb128 0x8
	.long	.LASF1263
	.byte	0x42
	.byte	0x19
	.byte	0x18
	.long	0x958b
	.uleb128 0x8
	.long	.LASF1264
	.byte	0x42
	.byte	0x1a
	.byte	0x19
	.long	0x95a3
	.uleb128 0x8
	.long	.LASF1265
	.byte	0x42
	.byte	0x1b
	.byte	0x19
	.long	0x95bb
	.uleb128 0x8
	.long	.LASF1266
	.byte	0x42
	.byte	0x1c
	.byte	0x19
	.long	0x95d3
	.uleb128 0x8
	.long	.LASF1267
	.byte	0x42
	.byte	0x1f
	.byte	0x19
	.long	0x9597
	.uleb128 0x8
	.long	.LASF1268
	.byte	0x42
	.byte	0x20
	.byte	0x1a
	.long	0x95af
	.uleb128 0x8
	.long	.LASF1269
	.byte	0x42
	.byte	0x21
	.byte	0x1a
	.long	0x95c7
	.uleb128 0x8
	.long	.LASF1270
	.byte	0x42
	.byte	0x22
	.byte	0x1a
	.long	0x95df
	.uleb128 0x8
	.long	.LASF1271
	.byte	0x43
	.byte	0x2f
	.byte	0x16
	.long	0x9367
	.uleb128 0x8
	.long	.LASF1272
	.byte	0x43
	.byte	0x31
	.byte	0x13
	.long	0x7eed
	.uleb128 0x8
	.long	.LASF1273
	.byte	0x43
	.byte	0x32
	.byte	0x13
	.long	0x7eed
	.uleb128 0x8
	.long	.LASF1274
	.byte	0x43
	.byte	0x33
	.byte	0x13
	.long	0x7eed
	.uleb128 0x8
	.long	.LASF1275
	.byte	0x43
	.byte	0x3c
	.byte	0x18
	.long	0x37
	.uleb128 0x8
	.long	.LASF1276
	.byte	0x43
	.byte	0x3e
	.byte	0x1b
	.long	0x7686
	.uleb128 0x8
	.long	.LASF1277
	.byte	0x43
	.byte	0x3f
	.byte	0x1b
	.long	0x7686
	.uleb128 0x8
	.long	.LASF1278
	.byte	0x43
	.byte	0x40
	.byte	0x1b
	.long	0x7686
	.uleb128 0x8
	.long	.LASF1279
	.byte	0x43
	.byte	0x4c
	.byte	0x13
	.long	0x7eed
	.uleb128 0x8
	.long	.LASF1280
	.byte	0x43
	.byte	0x4f
	.byte	0x1b
	.long	0x7686
	.uleb128 0x8
	.long	.LASF1281
	.byte	0x43
	.byte	0x5a
	.byte	0x15
	.long	0x95eb
	.uleb128 0x8
	.long	.LASF1282
	.byte	0x43
	.byte	0x5b
	.byte	0x16
	.long	0x95f7
	.uleb128 0x2c
	.byte	0x4
	.byte	0x4
	.long	.LASF1283
	.uleb128 0x2c
	.byte	0x8
	.byte	0x4
	.long	.LASF1284
	.uleb128 0x2c
	.byte	0x10
	.byte	0x4
	.long	.LASF1285
	.uleb128 0x2c
	.byte	0x10
	.byte	0x4
	.long	.LASF1286
	.uleb128 0x73
	.long	.LASF1287
	.byte	0x44
	.byte	0x48
	.byte	0x10
	.long	0x96f2
	.uleb128 0x27
	.long	.LASF1288
	.byte	0x44
	.byte	0x4f
	.byte	0xf
	.long	0x7e7b
	.long	0x9f1c
	.uleb128 0x1
	.long	0x96fe
	.uleb128 0x1
	.long	0x96fe
	.byte	0
	.uleb128 0x27
	.long	.LASF1289
	.byte	0x44
	.byte	0x52
	.byte	0xf
	.long	0x96fe
	.long	0x9f32
	.uleb128 0x1
	.long	0x9f32
	.byte	0
	.uleb128 0xd
	.long	0x7d01
	.uleb128 0x27
	.long	.LASF1290
	.byte	0x44
	.byte	0x4c
	.byte	0xf
	.long	0x96fe
	.long	0x9f4d
	.uleb128 0x1
	.long	0x9f4d
	.byte	0
	.uleb128 0xd
	.long	0x96fe
	.uleb128 0x27
	.long	.LASF1291
	.byte	0x44
	.byte	0xb3
	.byte	0xe
	.long	0x3e
	.long	0x9f68
	.uleb128 0x1
	.long	0x7cfc
	.byte	0
	.uleb128 0x27
	.long	.LASF1292
	.byte	0x44
	.byte	0xb7
	.byte	0xe
	.long	0x3e
	.long	0x9f7e
	.uleb128 0x1
	.long	0x9f7e
	.byte	0
	.uleb128 0xd
	.long	0x970a
	.uleb128 0x27
	.long	.LASF1293
	.byte	0x44
	.byte	0x84
	.byte	0x13
	.long	0x9f32
	.long	0x9f99
	.uleb128 0x1
	.long	0x9f7e
	.byte	0
	.uleb128 0x27
	.long	.LASF1294
	.byte	0x44
	.byte	0x88
	.byte	0x13
	.long	0x9f32
	.long	0x9faf
	.uleb128 0x1
	.long	0x9f7e
	.byte	0
	.uleb128 0x17
	.long	.LASF1295
	.byte	0x44
	.value	0x17f
	.byte	0xc
	.long	0x4f
	.long	0x9fcb
	.uleb128 0x1
	.long	0x9fcb
	.uleb128 0x1
	.long	0x4f
	.byte	0
	.uleb128 0xd
	.long	0x973f
	.uleb128 0x8
	.long	.LASF1296
	.byte	0x45
	.byte	0x26
	.byte	0x1b
	.long	0x7686
	.uleb128 0x8
	.long	.LASF1297
	.byte	0x46
	.byte	0x30
	.byte	0x1a
	.long	0x9fe8
	.uleb128 0xd
	.long	0x9562
	.uleb128 0x27
	.long	.LASF1298
	.byte	0x45
	.byte	0x9f
	.byte	0xc
	.long	0x4f
	.long	0xa008
	.uleb128 0x1
	.long	0x76d2
	.uleb128 0x1
	.long	0x9fd0
	.byte	0
	.uleb128 0x27
	.long	.LASF1299
	.byte	0x46
	.byte	0x37
	.byte	0xf
	.long	0x76d2
	.long	0xa023
	.uleb128 0x1
	.long	0x76d2
	.uleb128 0x1
	.long	0x9fdc
	.byte	0
	.uleb128 0x27
	.long	.LASF1300
	.byte	0x46
	.byte	0x34
	.byte	0x12
	.long	0x9fdc
	.long	0xa039
	.uleb128 0x1
	.long	0x7911
	.byte	0
	.uleb128 0x27
	.long	.LASF1301
	.byte	0x45
	.byte	0x9b
	.byte	0x11
	.long	0x9fd0
	.long	0xa04f
	.uleb128 0x1
	.long	0x7911
	.byte	0
	.uleb128 0x98
	.long	0x81f2
	.uleb128 0xc5
	.string	"fs"
	.byte	0x4
	.byte	0x9
	.byte	0xb
	.long	0xa3c
	.uleb128 0xd
	.long	0xb06
	.uleb128 0x7
	.long	0xa061
	.uleb128 0xc
	.long	0xca4
	.uleb128 0xc
	.long	0xb06
	.uleb128 0xd
	.long	0x37
	.uleb128 0x7
	.long	0xa075
	.uleb128 0xd
	.long	0xca4
	.uleb128 0x7
	.long	0xa07f
	.uleb128 0xc
	.long	0x37
	.uleb128 0xd
	.long	0x935b
	.uleb128 0xc
	.long	0x935b
	.uleb128 0xd
	.long	0xca9
	.uleb128 0x7
	.long	0xa098
	.uleb128 0xc
	.long	0xd2d
	.uleb128 0xc
	.long	0xca9
	.uleb128 0xc
	.long	0xd6d
	.uleb128 0xc
	.long	0xd7a
	.uleb128 0xc
	.long	0x82b2
	.uleb128 0xc
	.long	0x82be
	.uleb128 0xd
	.long	0xe3d
	.uleb128 0x7
	.long	0xa0c0
	.uleb128 0x2b
	.long	0xe3d
	.uleb128 0xc
	.long	0xee3
	.uleb128 0xc
	.long	0xe3d
	.uleb128 0xd
	.long	0xef4
	.uleb128 0x7
	.long	0xa0d9
	.uleb128 0xc
	.long	0xfc6
	.uleb128 0x2b
	.long	0xef4
	.uleb128 0x2b
	.long	0xfba
	.uleb128 0xc
	.long	0xfba
	.uleb128 0xd
	.long	0xe30
	.uleb128 0x7
	.long	0xa0f7
	.uleb128 0xd
	.long	0x11d1
	.uleb128 0xc
	.long	0x1014
	.uleb128 0x2b
	.long	0xe30
	.uleb128 0xc
	.long	0x12bc
	.uleb128 0xd
	.long	0x11f9
	.uleb128 0x7
	.long	0xa115
	.uleb128 0xc
	.long	0x1313
	.uleb128 0xc
	.long	0x1386
	.uleb128 0xc
	.long	0x1dd2
	.uleb128 0x2b
	.long	0x11f9
	.uleb128 0xc
	.long	0x1de3
	.uleb128 0xc
	.long	0x11f9
	.uleb128 0xd
	.long	0x1dd2
	.uleb128 0x7
	.long	0xa13d
	.uleb128 0x2b
	.long	0x1379
	.uleb128 0xc
	.long	0x12c9
	.uleb128 0x1a
	.long	.LASF1302
	.byte	0x28
	.byte	0x4
	.byte	0xb
	.byte	0x8
	.long	0xa236
	.uleb128 0x11
	.long	.LASF1303
	.byte	0x4
	.byte	0xc
	.byte	0xc
	.long	0x7675
	.byte	0
	.uleb128 0x11
	.long	.LASF1304
	.byte	0x4
	.byte	0xd
	.byte	0xc
	.long	0x7675
	.byte	0x8
	.uleb128 0x11
	.long	.LASF226
	.byte	0x4
	.byte	0xe
	.byte	0x20
	.long	0x11f9
	.byte	0x10
	.uleb128 0x45
	.long	.LASF1305
	.byte	0x4
	.byte	0x10
	.byte	0x13
	.long	.LASF1306
	.long	0x7675
	.long	0xa19d
	.long	0xa1b2
	.uleb128 0x2
	.long	0xa23b
	.uleb128 0x1
	.long	0x7675
	.uleb128 0x1
	.long	0x7675
	.uleb128 0x1
	.long	0x7675
	.byte	0
	.uleb128 0x99
	.string	"at"
	.byte	0x1d
	.byte	0x1b
	.long	.LASF1307
	.long	0xa089
	.long	0xa1c9
	.long	0xa1de
	.uleb128 0x2
	.long	0xa240
	.uleb128 0x1
	.long	0x7675
	.uleb128 0x1
	.long	0x7675
	.uleb128 0x1
	.long	0x7675
	.byte	0
	.uleb128 0x99
	.string	"at"
	.byte	0x21
	.byte	0x21
	.long	.LASF1308
	.long	0xa093
	.long	0xa1f5
	.long	0xa20a
	.uleb128 0x2
	.long	0xa23b
	.uleb128 0x1
	.long	0x7675
	.uleb128 0x1
	.long	0x7675
	.uleb128 0x1
	.long	0x7675
	.byte	0
	.uleb128 0xc6
	.long	.LASF1309
	.long	.LASF1492
	.long	0xa21c
	.long	0xa222
	.uleb128 0x2
	.long	0xa240
	.byte	0
	.uleb128 0x6e
	.long	.LASF1302
	.long	.LASF1310
	.long	0xa22f
	.uleb128 0x2
	.long	0xa240
	.byte	0
	.byte	0
	.uleb128 0x7
	.long	0xa151
	.uleb128 0xd
	.long	0xa236
	.uleb128 0xd
	.long	0xa151
	.uleb128 0x7
	.long	0xa240
	.uleb128 0x1a
	.long	.LASF1311
	.byte	0x30
	.byte	0x4
	.byte	0x26
	.byte	0x8
	.long	0xa27b
	.uleb128 0x11
	.long	.LASF226
	.byte	0x4
	.byte	0x27
	.byte	0xf
	.long	0xa151
	.byte	0
	.uleb128 0x42
	.string	"u"
	.byte	0x4
	.byte	0x28
	.byte	0xb
	.long	0x30
	.byte	0x28
	.uleb128 0x42
	.string	"v"
	.byte	0x4
	.byte	0x29
	.byte	0xb
	.long	0x30
	.byte	0x2c
	.byte	0
	.uleb128 0x7
	.long	0xa24a
	.uleb128 0x8
	.long	.LASF1312
	.byte	0x47
	.byte	0xa7
	.byte	0xf
	.long	0x30
	.uleb128 0x8
	.long	.LASF1313
	.byte	0x47
	.byte	0xa8
	.byte	0x10
	.long	0x7e7b
	.uleb128 0x2c
	.byte	0x8
	.byte	0x4
	.long	.LASF1314
	.uleb128 0x2c
	.byte	0x10
	.byte	0x4
	.long	.LASF1315
	.uleb128 0x6c
	.long	.LASF1316
	.byte	0x48
	.byte	0xf
	.byte	0xb
	.long	0xa2c5
	.uleb128 0xc7
	.long	.LASF1493
	.byte	0x48
	.byte	0x11
	.byte	0xb
	.uleb128 0x87
	.string	"v1"
	.byte	0x48
	.byte	0x13
	.byte	0x12
	.byte	0
	.byte	0
	.uleb128 0x8
	.long	.LASF1317
	.byte	0x49
	.byte	0x2c
	.byte	0xd
	.long	0xa2d1
	.uleb128 0x5b
	.long	0x4f
	.long	0xa2dd
	.uleb128 0x5c
	.byte	0x1
	.byte	0
	.uleb128 0x7f
	.long	.LASF1318
	.byte	0x49
	.byte	0x31
	.byte	0xd
	.long	0xa2d1
	.uleb128 0x5
	.byte	0x4a
	.byte	0x27
	.byte	0xc
	.long	0x978e
	.uleb128 0x5
	.byte	0x4a
	.byte	0x2b
	.byte	0xe
	.long	0x97ac
	.uleb128 0x5
	.byte	0x4a
	.byte	0x2e
	.byte	0xe
	.long	0x9904
	.uleb128 0x5
	.byte	0x4a
	.byte	0x36
	.byte	0xc
	.long	0x967e
	.uleb128 0x5
	.byte	0x4a
	.byte	0x37
	.byte	0xc
	.long	0x96b2
	.uleb128 0x5
	.byte	0x4a
	.byte	0x39
	.byte	0xc
	.long	0x1e09
	.uleb128 0x5
	.byte	0x4a
	.byte	0x39
	.byte	0xc
	.long	0x1e22
	.uleb128 0x5
	.byte	0x4a
	.byte	0x39
	.byte	0xc
	.long	0x1e3b
	.uleb128 0x5
	.byte	0x4a
	.byte	0x39
	.byte	0xc
	.long	0x1e54
	.uleb128 0x5
	.byte	0x4a
	.byte	0x39
	.byte	0xc
	.long	0x1e6d
	.uleb128 0x5
	.byte	0x4a
	.byte	0x39
	.byte	0xc
	.long	0x1e86
	.uleb128 0x5
	.byte	0x4a
	.byte	0x39
	.byte	0xc
	.long	0x1e9f
	.uleb128 0x5
	.byte	0x4a
	.byte	0x3a
	.byte	0xc
	.long	0x97c7
	.uleb128 0x5
	.byte	0x4a
	.byte	0x3b
	.byte	0xc
	.long	0x97dd
	.uleb128 0x5
	.byte	0x4a
	.byte	0x3c
	.byte	0xc
	.long	0x97f4
	.uleb128 0x5
	.byte	0x4a
	.byte	0x3d
	.byte	0xc
	.long	0x980b
	.uleb128 0x5
	.byte	0x4a
	.byte	0x3f
	.byte	0xc
	.long	0x81a9
	.uleb128 0x5
	.byte	0x4a
	.byte	0x3f
	.byte	0xc
	.long	0x1eb8
	.uleb128 0x5
	.byte	0x4a
	.byte	0x3f
	.byte	0xc
	.long	0x9835
	.uleb128 0x5
	.byte	0x4a
	.byte	0x41
	.byte	0xc
	.long	0x9852
	.uleb128 0x5
	.byte	0x4a
	.byte	0x43
	.byte	0xc
	.long	0x9869
	.uleb128 0x5
	.byte	0x4a
	.byte	0x46
	.byte	0xc
	.long	0x9885
	.uleb128 0x5
	.byte	0x4a
	.byte	0x47
	.byte	0xc
	.long	0x98a1
	.uleb128 0x5
	.byte	0x4a
	.byte	0x48
	.byte	0xc
	.long	0x98c2
	.uleb128 0x5
	.byte	0x4a
	.byte	0x4a
	.byte	0xc
	.long	0x98e3
	.uleb128 0x5
	.byte	0x4a
	.byte	0x4b
	.byte	0xc
	.long	0x9918
	.uleb128 0x5
	.byte	0x4a
	.byte	0x4d
	.byte	0xc
	.long	0x9926
	.uleb128 0x5
	.byte	0x4a
	.byte	0x4e
	.byte	0xc
	.long	0x9938
	.uleb128 0x5
	.byte	0x4a
	.byte	0x4f
	.byte	0xc
	.long	0x9958
	.uleb128 0x5
	.byte	0x4a
	.byte	0x50
	.byte	0xc
	.long	0x997c
	.uleb128 0x5
	.byte	0x4a
	.byte	0x51
	.byte	0xc
	.long	0x99a0
	.uleb128 0x5
	.byte	0x4a
	.byte	0x53
	.byte	0xc
	.long	0x99b7
	.uleb128 0x5
	.byte	0x4a
	.byte	0x54
	.byte	0xc
	.long	0x99d8
	.uleb128 0x2c
	.byte	0x4
	.byte	0x4
	.long	.LASF2
	.uleb128 0x8
	.long	.LASF1319
	.byte	0xe
	.byte	0x2f
	.byte	0xe
	.long	0xa404
	.uleb128 0x5b
	.long	0x43
	.long	0xa410
	.uleb128 0x5c
	.byte	0xf
	.byte	0
	.uleb128 0x8
	.long	.LASF1320
	.byte	0xe
	.byte	0x35
	.byte	0x13
	.long	0xa41c
	.uleb128 0x5b
	.long	0x92ce
	.long	0xa428
	.uleb128 0x5c
	.byte	0x1
	.byte	0
	.uleb128 0x7f
	.long	.LASF1321
	.byte	0xe
	.byte	0x39
	.byte	0x13
	.long	0xa41c
	.uleb128 0x7
	.long	0xa428
	.uleb128 0x2c
	.byte	0x8
	.byte	0x4
	.long	.LASF948
	.uleb128 0x8
	.long	.LASF1322
	.byte	0xd
	.byte	0x2a
	.byte	0xf
	.long	0xa44c
	.uleb128 0x5b
	.long	0x30
	.long	0xa458
	.uleb128 0x5c
	.byte	0x7
	.byte	0
	.uleb128 0x8
	.long	.LASF1323
	.byte	0xd
	.byte	0x2d
	.byte	0xd
	.long	0xa464
	.uleb128 0x5b
	.long	0x4f
	.long	0xa470
	.uleb128 0x5c
	.byte	0x7
	.byte	0
	.uleb128 0x8
	.long	.LASF1324
	.byte	0xd
	.byte	0x37
	.byte	0xf
	.long	0xa481
	.uleb128 0x7
	.long	0xa470
	.uleb128 0x5b
	.long	0x30
	.long	0xa48d
	.uleb128 0x5c
	.byte	0x7
	.byte	0
	.uleb128 0x8
	.long	.LASF1325
	.byte	0xd
	.byte	0x39
	.byte	0x13
	.long	0xa499
	.uleb128 0x5b
	.long	0x92ce
	.long	0xa4a5
	.uleb128 0x5c
	.byte	0x3
	.byte	0
	.uleb128 0x7f
	.long	.LASF1326
	.byte	0xd
	.byte	0x3f
	.byte	0xf
	.long	0xa481
	.uleb128 0x2c
	.byte	0x2
	.byte	0x4
	.long	.LASF1327
	.uleb128 0x2c
	.byte	0x2
	.byte	0x4
	.long	.LASF1328
	.uleb128 0xc8
	.long	0xa55e
	.uleb128 0x1a
	.long	.LASF1329
	.byte	0x30
	.byte	0x1
	.byte	0xf
	.byte	0x8
	.long	0xa558
	.uleb128 0x42
	.string	"sx"
	.byte	0x1
	.byte	0x10
	.byte	0x9
	.long	0x4f
	.byte	0
	.uleb128 0x42
	.string	"sy"
	.byte	0x1
	.byte	0x10
	.byte	0xd
	.long	0x4f
	.byte	0x4
	.uleb128 0x42
	.string	"A"
	.byte	0x1
	.byte	0x11
	.byte	0xb
	.long	0x30
	.byte	0x8
	.uleb128 0x42
	.string	"B"
	.byte	0x1
	.byte	0x11
	.byte	0xe
	.long	0x30
	.byte	0xc
	.uleb128 0x42
	.string	"C"
	.byte	0x1
	.byte	0x11
	.byte	0x11
	.long	0x30
	.byte	0x10
	.uleb128 0x42
	.string	"D"
	.byte	0x1
	.byte	0x11
	.byte	0x14
	.long	0x30
	.byte	0x14
	.uleb128 0x11
	.long	.LASF1330
	.byte	0x1
	.byte	0x12
	.byte	0x9
	.long	0x4f
	.byte	0x18
	.uleb128 0x11
	.long	.LASF1331
	.byte	0x1
	.byte	0x12
	.byte	0x12
	.long	0x4f
	.byte	0x1c
	.uleb128 0x11
	.long	.LASF1332
	.byte	0x1
	.byte	0x12
	.byte	0x19
	.long	0x4f
	.byte	0x20
	.uleb128 0x11
	.long	.LASF1333
	.byte	0x1
	.byte	0x12
	.byte	0x22
	.long	0x4f
	.byte	0x24
	.uleb128 0x42
	.string	"SUB"
	.byte	0x1
	.byte	0x13
	.byte	0x1a
	.long	0xa08e
	.byte	0x28
	.byte	0
	.uleb128 0x7
	.long	0xa4c5
	.byte	0
	.uleb128 0xd
	.long	0x1ed6
	.uleb128 0xc
	.long	0x2074
	.uleb128 0xc
	.long	0x1ed6
	.uleb128 0xd
	.long	0xa24a
	.uleb128 0x7
	.long	0xa56d
	.uleb128 0xd
	.long	0x2074
	.uleb128 0xc
	.long	0xa24a
	.uleb128 0xd
	.long	0xa27b
	.uleb128 0x7
	.long	0xa581
	.uleb128 0xc
	.long	0xa27b
	.uleb128 0xd
	.long	0x2079
	.uleb128 0xc
	.long	0x20fd
	.uleb128 0xc
	.long	0x2079
	.uleb128 0xc
	.long	0x213d
	.uleb128 0xc
	.long	0x214a
	.uleb128 0xc
	.long	0x85f9
	.uleb128 0xc
	.long	0x8605
	.uleb128 0xd
	.long	0x220d
	.uleb128 0x2b
	.long	0x220d
	.uleb128 0xc
	.long	0x22b3
	.uleb128 0xc
	.long	0x220d
	.uleb128 0xd
	.long	0x22c4
	.uleb128 0xc
	.long	0x237d
	.uleb128 0x2b
	.long	0x22c4
	.uleb128 0x2b
	.long	0x2371
	.uleb128 0xc
	.long	0x2371
	.uleb128 0xd
	.long	0x2200
	.uleb128 0xd
	.long	0x2588
	.uleb128 0xc
	.long	0x23cb
	.uleb128 0x2b
	.long	0x2200
	.uleb128 0xc
	.long	0x2673
	.uleb128 0xd
	.long	0x25b0
	.uleb128 0x7
	.long	0xa5f9
	.uleb128 0xc
	.long	0x26ca
	.uleb128 0xc
	.long	0x2738
	.uleb128 0xc
	.long	0x3158
	.uleb128 0x2b
	.long	0x25b0
	.uleb128 0xc
	.long	0x3169
	.uleb128 0xc
	.long	0x25b0
	.uleb128 0xd
	.long	0x3158
	.uleb128 0x7
	.long	0xa621
	.uleb128 0x2b
	.long	0x272b
	.uleb128 0xc
	.long	0x2680
	.uleb128 0xd
	.long	0x317d
	.uleb128 0x7
	.long	0xa635
	.uleb128 0xc
	.long	0x3329
	.uleb128 0xc
	.long	0x317d
	.uleb128 0xd
	.long	0xa4c5
	.uleb128 0x7
	.long	0xa649
	.uleb128 0xd
	.long	0x3329
	.uleb128 0x7
	.long	0xa653
	.uleb128 0xc
	.long	0xa4c5
	.uleb128 0xd
	.long	0xa558
	.uleb128 0xc
	.long	0xa558
	.uleb128 0xd
	.long	0x332e
	.uleb128 0x7
	.long	0xa66c
	.uleb128 0xc
	.long	0x33a6
	.uleb128 0xc
	.long	0x332e
	.uleb128 0xc
	.long	0x33e2
	.uleb128 0xc
	.long	0x33ef
	.uleb128 0xc
	.long	0x8b54
	.uleb128 0xc
	.long	0x8b60
	.uleb128 0xd
	.long	0x34d4
	.uleb128 0x7
	.long	0xa694
	.uleb128 0x2b
	.long	0x34d4
	.uleb128 0xc
	.long	0x3567
	.uleb128 0xc
	.long	0x34d4
	.uleb128 0xd
	.long	0x3578
	.uleb128 0x7
	.long	0xa6ad
	.uleb128 0xc
	.long	0x3629
	.uleb128 0x2b
	.long	0x3578
	.uleb128 0x2b
	.long	0x361d
	.uleb128 0xc
	.long	0x361d
	.uleb128 0xd
	.long	0x34c7
	.uleb128 0x7
	.long	0xa6cb
	.uleb128 0xd
	.long	0x3802
	.uleb128 0x7
	.long	0xa6d5
	.uleb128 0xc
	.long	0x366f
	.uleb128 0x2b
	.long	0x34c7
	.uleb128 0xc
	.long	0x38e2
	.uleb128 0xd
	.long	0x382a
	.uleb128 0x7
	.long	0xa6ee
	.uleb128 0xc
	.long	0x3932
	.uleb128 0xc
	.long	0x399d
	.uleb128 0xc
	.long	0x4386
	.uleb128 0x2b
	.long	0x382a
	.uleb128 0xc
	.long	0x4397
	.uleb128 0xc
	.long	0x382a
	.uleb128 0xd
	.long	0x4386
	.uleb128 0x7
	.long	0xa716
	.uleb128 0x2b
	.long	0x3990
	.uleb128 0xc
	.long	0x38ef
	.uleb128 0xd
	.long	0x865b
	.uleb128 0x7
	.long	0xa72a
	.uleb128 0xc
	.long	0xa572
	.uleb128 0xd
	.long	0x8889
	.uleb128 0x7
	.long	0xa739
	.uleb128 0xc
	.long	0x865b
	.uleb128 0xd
	.long	0x43e6
	.uleb128 0x7
	.long	0xa748
	.uleb128 0xc
	.long	0x4584
	.uleb128 0xc
	.long	0x43e6
	.uleb128 0xd
	.long	0x4f
	.uleb128 0x7
	.long	0xa75c
	.uleb128 0xd
	.long	0x4584
	.uleb128 0x7
	.long	0xa766
	.uleb128 0xc
	.long	0x4f
	.uleb128 0xc
	.long	0x57
	.uleb128 0xd
	.long	0x4589
	.uleb128 0x7
	.long	0xa77a
	.uleb128 0xc
	.long	0x460d
	.uleb128 0xc
	.long	0x4589
	.uleb128 0xc
	.long	0x464d
	.uleb128 0xc
	.long	0x465a
	.uleb128 0xc
	.long	0x8e63
	.uleb128 0xc
	.long	0x8e6f
	.uleb128 0xd
	.long	0x471d
	.uleb128 0x7
	.long	0xa7a2
	.uleb128 0x2b
	.long	0x471d
	.uleb128 0xc
	.long	0x47c3
	.uleb128 0xc
	.long	0x471d
	.uleb128 0xd
	.long	0x47d4
	.uleb128 0x7
	.long	0xa7bb
	.uleb128 0xc
	.long	0x48a6
	.uleb128 0x2b
	.long	0x47d4
	.uleb128 0x2b
	.long	0x489a
	.uleb128 0xc
	.long	0x489a
	.uleb128 0xd
	.long	0x4710
	.uleb128 0x7
	.long	0xa7d9
	.uleb128 0xd
	.long	0x4ab1
	.uleb128 0xc
	.long	0x48f4
	.uleb128 0x2b
	.long	0x4710
	.uleb128 0xc
	.long	0x4b9c
	.uleb128 0xd
	.long	0x4ad9
	.uleb128 0x7
	.long	0xa7f7
	.uleb128 0xc
	.long	0x4bf3
	.uleb128 0xc
	.long	0x4c61
	.uleb128 0xc
	.long	0x5681
	.uleb128 0x2b
	.long	0x4ad9
	.uleb128 0xc
	.long	0x5692
	.uleb128 0xc
	.long	0x4ad9
	.uleb128 0xd
	.long	0x5681
	.uleb128 0x2b
	.long	0x4c54
	.uleb128 0xc
	.long	0x4ba9
	.uleb128 0xd
	.long	0x5697
	.uleb128 0xd
	.long	0x5784
	.uleb128 0xd
	.long	0x8bb6
	.uleb128 0x7
	.long	0xa838
	.uleb128 0xc
	.long	0xa64e
	.uleb128 0xd
	.long	0x8dac
	.uleb128 0x7
	.long	0xa847
	.uleb128 0xc
	.long	0x8bb6
	.uleb128 0xd
	.long	0x57ce
	.uleb128 0x7
	.long	0xa856
	.uleb128 0xc
	.long	0x596c
	.uleb128 0xc
	.long	0x57ce
	.uleb128 0xd
	.long	0x30
	.uleb128 0x7
	.long	0xa86a
	.uleb128 0xd
	.long	0x596c
	.uleb128 0x7
	.long	0xa874
	.uleb128 0xc
	.long	0x30
	.uleb128 0xd
	.long	0x7ea3
	.uleb128 0xc
	.long	0x7ea3
	.uleb128 0xd
	.long	0x5971
	.uleb128 0x7
	.long	0xa88d
	.uleb128 0xc
	.long	0x59f5
	.uleb128 0xc
	.long	0x5971
	.uleb128 0xc
	.long	0x5a35
	.uleb128 0xc
	.long	0x5a42
	.uleb128 0xc
	.long	0x8f7c
	.uleb128 0xc
	.long	0x8f88
	.uleb128 0xd
	.long	0x5b05
	.uleb128 0x7
	.long	0xa8b5
	.uleb128 0x2b
	.long	0x5b05
	.uleb128 0xc
	.long	0x5bab
	.uleb128 0xc
	.long	0x5b05
	.uleb128 0xd
	.long	0x5bbc
	.uleb128 0x7
	.long	0xa8ce
	.uleb128 0xc
	.long	0x5c8e
	.uleb128 0x2b
	.long	0x5bbc
	.uleb128 0x2b
	.long	0x5c82
	.uleb128 0xc
	.long	0x5c82
	.uleb128 0xd
	.long	0x5af8
	.uleb128 0x7
	.long	0xa8ec
	.uleb128 0xd
	.long	0x5e99
	.uleb128 0xc
	.long	0x5cdc
	.uleb128 0x2b
	.long	0x5af8
	.uleb128 0xc
	.long	0x5f84
	.uleb128 0xd
	.long	0x5ec1
	.uleb128 0x7
	.long	0xa90a
	.uleb128 0xc
	.long	0x5fdb
	.uleb128 0xc
	.long	0x6049
	.uleb128 0xc
	.long	0x6a95
	.uleb128 0x2b
	.long	0x5ec1
	.uleb128 0xc
	.long	0x6aa6
	.uleb128 0xc
	.long	0x5ec1
	.uleb128 0xd
	.long	0x6a95
	.uleb128 0x7
	.long	0xa932
	.uleb128 0x2b
	.long	0x603c
	.uleb128 0xc
	.long	0x5f91
	.uleb128 0xd
	.long	0x6aab
	.uleb128 0xd
	.long	0x6b98
	.uleb128 0xd
	.long	0x8fde
	.uleb128 0x7
	.long	0xa950
	.uleb128 0xc
	.long	0xa86f
	.uleb128 0xd
	.long	0x920c
	.uleb128 0x7
	.long	0xa95f
	.uleb128 0xc
	.long	0x8fde
	.uleb128 0xd
	.long	0x888e
	.uleb128 0xc
	.long	0xa586
	.uleb128 0xd
	.long	0x8abc
	.uleb128 0xc
	.long	0x888e
	.uleb128 0xd
	.long	0x8314
	.uleb128 0x7
	.long	0xa982
	.uleb128 0xc
	.long	0xa07a
	.uleb128 0xd
	.long	0x8542
	.uleb128 0x7
	.long	0xa991
	.uleb128 0xc
	.long	0x8314
	.uleb128 0xc
	.long	0x4290
	.uleb128 0xd
	.long	0x429d
	.uleb128 0x7
	.long	0xa9a5
	.uleb128 0xc
	.long	0x4342
	.uleb128 0xd
	.long	0x6c8f
	.uleb128 0x7
	.long	0xa9b4
	.uleb128 0xc
	.long	0xa75c
	.uleb128 0xd
	.long	0xa75c
	.uleb128 0xc
	.long	0x6d60
	.uleb128 0x98
	.long	0x6d65
	.uleb128 0x49
	.long	.LASF1334
	.byte	0x4b
	.byte	0x6e
	.byte	0x6
	.long	.LASF1335
	.long	0xa9ee
	.uleb128 0x1
	.long	0x76cf
	.uleb128 0x1
	.long	0x2bc
	.byte	0
	.uleb128 0x32
	.long	.LASF1336
	.byte	0x4b
	.byte	0x63
	.byte	0x1a
	.long	.LASF1337
	.long	0x76cf
	.long	0xaa08
	.uleb128 0x1
	.long	0x2bc
	.byte	0
	.uleb128 0x13
	.long	0x6da2
	.byte	0x3
	.long	0xaa4c
	.uleb128 0xa
	.long	.LASF757
	.long	0xa86a
	.uleb128 0xf
	.string	"_Tp"
	.long	0x30
	.uleb128 0x12
	.long	.LASF1338
	.byte	0xa
	.value	0x3d0
	.byte	0x14
	.long	0xa86a
	.uleb128 0x12
	.long	.LASF1339
	.byte	0xa
	.value	0x3d0
	.byte	0x23
	.long	0xa86a
	.uleb128 0x12
	.long	.LASF857
	.byte	0xa
	.value	0x3d0
	.byte	0x36
	.long	0xa888
	.byte	0
	.uleb128 0xb
	.long	0xc03
	.long	0xaa5a
	.byte	0x3
	.long	0xaa75
	.uleb128 0x9
	.long	.LASF1340
	.long	0xa066
	.uleb128 0x26
	.string	"__n"
	.byte	0x6
	.byte	0x81
	.byte	0x1a
	.long	0xc2c
	.uleb128 0x1
	.long	0x9394
	.byte	0
	.uleb128 0xb
	.long	0xc7c
	.long	0xaa83
	.byte	0x3
	.long	0xaa8d
	.uleb128 0x9
	.long	.LASF1340
	.long	0xa084
	.byte	0
	.uleb128 0x13
	.long	0x6dd5
	.byte	0x3
	.long	0xaaf9
	.uleb128 0xa
	.long	.LASF760
	.long	0xa86a
	.uleb128 0xa
	.long	.LASF61
	.long	0x7686
	.uleb128 0xf
	.string	"_Tp"
	.long	0x30
	.uleb128 0x12
	.long	.LASF1338
	.byte	0xa
	.value	0x475
	.byte	0x20
	.long	0xa86a
	.uleb128 0xe
	.string	"__n"
	.byte	0xa
	.value	0x475
	.byte	0x2f
	.long	0x7686
	.uleb128 0x12
	.long	.LASF857
	.byte	0xa
	.value	0x475
	.byte	0x3f
	.long	0xa888
	.uleb128 0x1
	.long	0x69c
	.uleb128 0x5d
	.string	"__d"
	.byte	0xa
	.value	0x47e
	.byte	0x42
	.long	0x6bc0
	.uleb128 0x28
	.long	.LASF1339
	.byte	0xa
	.value	0x481
	.byte	0x17
	.long	0xa86a
	.byte	0
	.uleb128 0x13
	.long	0x6d2a
	.byte	0x3
	.long	0xab25
	.uleb128 0xa
	.long	.LASF748
	.long	0xa75c
	.uleb128 0x43
	.long	.LASF1338
	.byte	0xc
	.byte	0x8e
	.byte	0x13
	.long	0xa75c
	.uleb128 0x43
	.long	.LASF1339
	.byte	0xc
	.byte	0x8e
	.byte	0x22
	.long	0xa75c
	.byte	0
	.uleb128 0x13
	.long	0xd4d
	.byte	0x3
	.long	0xab4a
	.uleb128 0xe
	.string	"__a"
	.byte	0x8
	.value	0x27d
	.byte	0x20
	.long	0xa0ac
	.uleb128 0xe
	.string	"__n"
	.byte	0x8
	.value	0x27d
	.byte	0x2f
	.long	0xd7f
	.byte	0
	.uleb128 0xb
	.long	0xc5d
	.long	0xab58
	.byte	0x3
	.long	0xab62
	.uleb128 0x9
	.long	.LASF1340
	.long	0xa084
	.byte	0
	.uleb128 0x13
	.long	0x6e1a
	.byte	0x3
	.long	0xabaf
	.uleb128 0xf
	.string	"_OI"
	.long	0xa86a
	.uleb128 0xa
	.long	.LASF61
	.long	0x7686
	.uleb128 0xf
	.string	"_Tp"
	.long	0x30
	.uleb128 0x12
	.long	.LASF1338
	.byte	0xa
	.value	0x49b
	.byte	0x10
	.long	0xa86a
	.uleb128 0xe
	.string	"__n"
	.byte	0xa
	.value	0x49b
	.byte	0x1f
	.long	0x7686
	.uleb128 0x12
	.long	.LASF857
	.byte	0xa
	.value	0x49b
	.byte	0x2f
	.long	0xa888
	.byte	0
	.uleb128 0x13
	.long	0x6e5a
	.byte	0x3
	.long	0xabde
	.uleb128 0xf
	.string	"_Tp"
	.long	0x30
	.uleb128 0x90
	.long	.LASF432
	.uleb128 0x26
	.string	"__p"
	.byte	0xb
	.byte	0x7b
	.byte	0x15
	.long	0xa86a
	.uleb128 0xc9
	.long	.LASF1365
	.byte	0xb
	.byte	0x7b
	.byte	0x21
	.byte	0
	.uleb128 0xb
	.long	0x58cb
	.long	0xabec
	.byte	0x3
	.long	0xac07
	.uleb128 0x9
	.long	.LASF1340
	.long	0xa85b
	.uleb128 0x26
	.string	"__n"
	.byte	0x6
	.byte	0x81
	.byte	0x1a
	.long	0x58f4
	.uleb128 0x1
	.long	0x9394
	.byte	0
	.uleb128 0xb
	.long	0x5944
	.long	0xac15
	.byte	0x3
	.long	0xac1f
	.uleb128 0x9
	.long	.LASF1340
	.long	0xa879
	.byte	0
	.uleb128 0xb
	.long	0x6cd6
	.long	0xac2d
	.byte	0x3
	.long	0xac37
	.uleb128 0x9
	.long	.LASF1340
	.long	0xa9b9
	.byte	0
	.uleb128 0x13
	.long	0x6e7f
	.byte	0x3
	.long	0xac75
	.uleb128 0xf
	.string	"_Tp"
	.long	0x4f
	.uleb128 0x55
	.long	.LASF432
	.long	0xac59
	.uleb128 0x56
	.long	0xa775
	.byte	0
	.uleb128 0x26
	.string	"__p"
	.byte	0xb
	.byte	0x7b
	.byte	0x15
	.long	0xa75c
	.uleb128 0x9a
	.long	.LASF1365
	.byte	0xb
	.byte	0x7b
	.byte	0x21
	.uleb128 0x1
	.long	0xa775
	.byte	0
	.byte	0
	.uleb128 0xb
	.long	0x6cbc
	.long	0xac83
	.byte	0x2
	.long	0xac8d
	.uleb128 0x9
	.long	.LASF1340
	.long	0xa9b9
	.byte	0
	.uleb128 0x1b
	.long	0xac75
	.long	.LASF1341
	.long	0xac9e
	.long	0xaca4
	.uleb128 0x3
	.long	0xac83
	.byte	0
	.uleb128 0xb
	.long	0x6c9c
	.long	0xacb2
	.byte	0x2
	.long	0xacc8
	.uleb128 0x9
	.long	.LASF1340
	.long	0xa9b9
	.uleb128 0x43
	.long	.LASF1338
	.byte	0xc
	.byte	0x71
	.byte	0x2d
	.long	0xa9be
	.byte	0
	.uleb128 0x1b
	.long	0xaca4
	.long	.LASF1342
	.long	0xacd9
	.long	0xace4
	.uleb128 0x3
	.long	0xacb2
	.uleb128 0x3
	.long	0xacbb
	.byte	0
	.uleb128 0xb
	.long	0x44e3
	.long	0xacf2
	.byte	0x3
	.long	0xad0d
	.uleb128 0x9
	.long	.LASF1340
	.long	0xa74d
	.uleb128 0x26
	.string	"__n"
	.byte	0x6
	.byte	0x81
	.byte	0x1a
	.long	0x450c
	.uleb128 0x1
	.long	0x9394
	.byte	0
	.uleb128 0xb
	.long	0x455c
	.long	0xad1b
	.byte	0x3
	.long	0xad25
	.uleb128 0x9
	.long	.LASF1340
	.long	0xa76b
	.byte	0
	.uleb128 0x13
	.long	0x6eb2
	.byte	0x3
	.long	0xad85
	.uleb128 0xf
	.string	"_Up"
	.long	0x37
	.uleb128 0xf
	.string	"_Tp"
	.long	0x37
	.uleb128 0x12
	.long	.LASF1338
	.byte	0xa
	.value	0x3a7
	.byte	0x14
	.long	0xa075
	.uleb128 0x12
	.long	.LASF1339
	.byte	0xa
	.value	0x3a7
	.byte	0x22
	.long	0xa075
	.uleb128 0xe
	.string	"__x"
	.byte	0xa
	.value	0x3a7
	.byte	0x35
	.long	0xa093
	.uleb128 0x28
	.long	.LASF1343
	.byte	0xa
	.value	0x3ab
	.byte	0x11
	.long	0x935b
	.uleb128 0x44
	.uleb128 0x28
	.long	.LASF1344
	.byte	0xa
	.value	0x3b4
	.byte	0x18
	.long	0x2c9
	.byte	0
	.byte	0
	.uleb128 0xb
	.long	0x1157
	.long	0xad93
	.byte	0x3
	.long	0xadaa
	.uleb128 0x9
	.long	.LASF1340
	.long	0xa0fc
	.uleb128 0xe
	.string	"__n"
	.byte	0x2
	.value	0x182
	.byte	0x1a
	.long	0x2bc
	.byte	0
	.uleb128 0x13
	.long	0xddf
	.byte	0x3
	.long	0xadc2
	.uleb128 0xe
	.string	"__a"
	.byte	0x8
	.value	0x2ed
	.byte	0x26
	.long	0xa0b1
	.byte	0
	.uleb128 0x13
	.long	0xac9
	.byte	0x3
	.long	0xae08
	.uleb128 0xa
	.long	.LASF60
	.long	0xa86a
	.uleb128 0xa
	.long	.LASF61
	.long	0x7686
	.uleb128 0x12
	.long	.LASF1338
	.byte	0xc
	.value	0x3ab
	.byte	0x2d
	.long	0xa86a
	.uleb128 0xe
	.string	"__n"
	.byte	0xc
	.value	0x3ab
	.byte	0x3c
	.long	0x7686
	.uleb128 0x44
	.uleb128 0x28
	.long	.LASF1343
	.byte	0xc
	.value	0x3af
	.byte	0x40
	.long	0xae08
	.byte	0
	.byte	0
	.uleb128 0xd
	.long	0x6bb4
	.uleb128 0xb
	.long	0x5900
	.long	0xae1b
	.byte	0x3
	.long	0xae3d
	.uleb128 0x9
	.long	.LASF1340
	.long	0xa85b
	.uleb128 0x26
	.string	"__p"
	.byte	0x6
	.byte	0xa7
	.byte	0x17
	.long	0xa86a
	.uleb128 0x26
	.string	"__n"
	.byte	0x6
	.byte	0xa7
	.byte	0x26
	.long	0x58f4
	.byte	0
	.uleb128 0x13
	.long	0x5a15
	.byte	0x3
	.long	0xae62
	.uleb128 0xe
	.string	"__a"
	.byte	0x8
	.value	0x27d
	.byte	0x20
	.long	0xa8a1
	.uleb128 0xe
	.string	"__n"
	.byte	0x8
	.value	0x27d
	.byte	0x2f
	.long	0x5a47
	.byte	0
	.uleb128 0xb
	.long	0x5925
	.long	0xae70
	.byte	0x3
	.long	0xae7a
	.uleb128 0x9
	.long	.LASF1340
	.long	0xa879
	.byte	0
	.uleb128 0x13
	.long	0x6ee5
	.byte	0x1
	.long	0xaed4
	.uleb128 0xa
	.long	.LASF60
	.long	0xa75c
	.uleb128 0xa
	.long	.LASF61
	.long	0x7686
	.uleb128 0xf
	.string	"_Tp"
	.long	0x4f
	.uleb128 0x12
	.long	.LASF1338
	.byte	0xc
	.value	0x1dd
	.byte	0x29
	.long	0xa75c
	.uleb128 0xe
	.string	"__n"
	.byte	0xc
	.value	0x1dd
	.byte	0x38
	.long	0x7686
	.uleb128 0xe
	.string	"__x"
	.byte	0xc
	.value	0x1dd
	.byte	0x48
	.long	0xa775
	.uleb128 0x28
	.long	.LASF1345
	.byte	0xc
	.value	0x1df
	.byte	0x2d
	.long	0x6c8f
	.byte	0
	.uleb128 0xb
	.long	0x4518
	.long	0xaee2
	.byte	0x3
	.long	0xaf04
	.uleb128 0x9
	.long	.LASF1340
	.long	0xa74d
	.uleb128 0x26
	.string	"__p"
	.byte	0x6
	.byte	0xa7
	.byte	0x17
	.long	0xa75c
	.uleb128 0x26
	.string	"__n"
	.byte	0x6
	.byte	0xa7
	.byte	0x26
	.long	0x450c
	.byte	0
	.uleb128 0x13
	.long	0x462d
	.byte	0x3
	.long	0xaf29
	.uleb128 0xe
	.string	"__a"
	.byte	0x8
	.value	0x27d
	.byte	0x20
	.long	0xa78e
	.uleb128 0xe
	.string	"__n"
	.byte	0x8
	.value	0x27d
	.byte	0x2f
	.long	0x465f
	.byte	0
	.uleb128 0xb
	.long	0x453d
	.long	0xaf37
	.byte	0x3
	.long	0xaf41
	.uleb128 0x9
	.long	.LASF1340
	.long	0xa76b
	.byte	0
	.uleb128 0xb
	.long	0x32cc
	.long	0xaf4f
	.byte	0x3
	.long	0xaf59
	.uleb128 0x9
	.long	.LASF1340
	.long	0xa658
	.byte	0
	.uleb128 0xb
	.long	0x32b1
	.long	0xaf67
	.byte	0x3
	.long	0xaf71
	.uleb128 0x9
	.long	.LASF1340
	.long	0xa658
	.byte	0
	.uleb128 0x13
	.long	0x6f25
	.byte	0x3
	.long	0xafb5
	.uleb128 0xa
	.long	.LASF757
	.long	0xa075
	.uleb128 0xf
	.string	"_Tp"
	.long	0x37
	.uleb128 0x12
	.long	.LASF1338
	.byte	0xa
	.value	0x3d0
	.byte	0x14
	.long	0xa075
	.uleb128 0x12
	.long	.LASF1339
	.byte	0xa
	.value	0x3d0
	.byte	0x23
	.long	0xa075
	.uleb128 0x12
	.long	.LASF857
	.byte	0xa
	.value	0x3d0
	.byte	0x36
	.long	0xa093
	.byte	0
	.uleb128 0x13
	.long	0x6f58
	.byte	0x3
	.long	0xafd6
	.uleb128 0xa
	.long	.LASF448
	.long	0xa075
	.uleb128 0x12
	.long	.LASF1346
	.byte	0x3
	.value	0xbce
	.byte	0x1c
	.long	0xa075
	.byte	0
	.uleb128 0x13
	.long	0x6f7c
	.byte	0x3
	.long	0xb023
	.uleb128 0xa
	.long	.LASF777
	.long	0xa075
	.uleb128 0xa
	.long	.LASF778
	.long	0x11f9
	.uleb128 0xf
	.string	"_Tp"
	.long	0x37
	.uleb128 0x12
	.long	.LASF1338
	.byte	0xa
	.value	0x3bc
	.byte	0x3b
	.long	0x8314
	.uleb128 0x12
	.long	.LASF1339
	.byte	0xa
	.value	0x3bd
	.byte	0x34
	.long	0x8314
	.uleb128 0x12
	.long	.LASF857
	.byte	0xa
	.value	0x3be
	.byte	0x13
	.long	0xa093
	.byte	0
	.uleb128 0xb
	.long	0x850f
	.long	0xb031
	.byte	0x3
	.long	0xb03b
	.uleb128 0x9
	.long	.LASF1340
	.long	0xa996
	.byte	0
	.uleb128 0xb
	.long	0x119d
	.long	0xb049
	.byte	0x3
	.long	0xb060
	.uleb128 0x9
	.long	.LASF1340
	.long	0xa0fc
	.uleb128 0xe
	.string	"__n"
	.byte	0x2
	.value	0x195
	.byte	0x20
	.long	0x2bc
	.byte	0
	.uleb128 0xb
	.long	0xf25
	.long	0xb06e
	.byte	0x2
	.long	0xb084
	.uleb128 0x9
	.long	.LASF1340
	.long	0xa0de
	.uleb128 0x26
	.string	"__a"
	.byte	0x2
	.byte	0x98
	.byte	0x25
	.long	0xa0e3
	.byte	0
	.uleb128 0x1b
	.long	0xb060
	.long	.LASF1347
	.long	0xb095
	.long	0xb0a0
	.uleb128 0x3
	.long	0xb06e
	.uleb128 0x3
	.long	0xb077
	.byte	0
	.uleb128 0x13
	.long	0x1cc6
	.byte	0x3
	.long	0xb0d2
	.uleb128 0xe
	.string	"__a"
	.byte	0x2
	.value	0x8a4
	.byte	0x29
	.long	0xa14c
	.uleb128 0x28
	.long	.LASF1348
	.byte	0x2
	.value	0x8a9
	.byte	0xf
	.long	0x2c9
	.uleb128 0x28
	.long	.LASF1349
	.byte	0x2
	.value	0x8ab
	.byte	0xf
	.long	0x2c9
	.byte	0
	.uleb128 0x13
	.long	0x6fb8
	.byte	0x3
	.long	0xb13e
	.uleb128 0xa
	.long	.LASF60
	.long	0xa86a
	.uleb128 0xf
	.string	"_Tp"
	.long	0x30
	.uleb128 0x12
	.long	.LASF1338
	.byte	0xa
	.value	0x37f
	.byte	0x20
	.long	0xa86a
	.uleb128 0x12
	.long	.LASF1339
	.byte	0xa
	.value	0x37f
	.byte	0x3a
	.long	0xa86a
	.uleb128 0x12
	.long	.LASF857
	.byte	0xa
	.value	0x380
	.byte	0x13
	.long	0xa888
	.uleb128 0x28
	.long	.LASF1350
	.byte	0xa
	.value	0x388
	.byte	0x12
	.long	0x934c
	.uleb128 0xca
	.string	"_Up"
	.byte	0xa
	.value	0x398
	.byte	0x20
	.long	0x9223
	.uleb128 0x28
	.long	.LASF1343
	.byte	0xa
	.value	0x399
	.byte	0xb
	.long	0xb122
	.byte	0
	.uleb128 0x13
	.long	0x6feb
	.byte	0x3
	.long	0xb183
	.uleb128 0xa
	.long	.LASF60
	.long	0xa86a
	.uleb128 0xa
	.long	.LASF61
	.long	0x7686
	.uleb128 0x12
	.long	.LASF1338
	.byte	0xc
	.value	0x3d6
	.byte	0x30
	.long	0xa86a
	.uleb128 0xe
	.string	"__n"
	.byte	0xc
	.value	0x3d6
	.byte	0x3f
	.long	0x7686
	.uleb128 0xcb
	.long	.LASF1494
	.byte	0xc
	.value	0x3e1
	.byte	0x16
	.long	0x934c
	.byte	0
	.uleb128 0x13
	.long	0x5a86
	.byte	0x3
	.long	0xb1b5
	.uleb128 0xe
	.string	"__a"
	.byte	0x8
	.value	0x2b0
	.byte	0x22
	.long	0xa8a1
	.uleb128 0xe
	.string	"__p"
	.byte	0x8
	.value	0x2b0
	.byte	0x2f
	.long	0x5a08
	.uleb128 0xe
	.string	"__n"
	.byte	0x8
	.value	0x2b0
	.byte	0x3e
	.long	0x5a47
	.byte	0
	.uleb128 0xb
	.long	0x5e1f
	.long	0xb1c3
	.byte	0x3
	.long	0xb1da
	.uleb128 0x9
	.long	.LASF1340
	.long	0xa8f1
	.uleb128 0xe
	.string	"__n"
	.byte	0x2
	.value	0x182
	.byte	0x1a
	.long	0x2bc
	.byte	0
	.uleb128 0xb
	.long	0x5b39
	.long	0xb1e8
	.byte	0x2
	.long	0xb1f2
	.uleb128 0x9
	.long	.LASF1340
	.long	0xa8ba
	.byte	0
	.uleb128 0x1b
	.long	0xb1da
	.long	.LASF1351
	.long	0xb203
	.long	0xb209
	.uleb128 0x3
	.long	0xb1e8
	.byte	0
	.uleb128 0xb
	.long	0x57f5
	.long	0xb217
	.byte	0x2
	.long	0xb226
	.uleb128 0x9
	.long	.LASF1340
	.long	0xa85b
	.uleb128 0x1
	.long	0xa860
	.byte	0
	.uleb128 0x1b
	.long	0xb209
	.long	.LASF1352
	.long	0xb237
	.long	0xb242
	.uleb128 0x3
	.long	0xb217
	.uleb128 0x3
	.long	0xb220
	.byte	0
	.uleb128 0x13
	.long	0x5aa7
	.byte	0x3
	.long	0xb25a
	.uleb128 0xe
	.string	"__a"
	.byte	0x8
	.value	0x2ed
	.byte	0x26
	.long	0xa8a6
	.byte	0
	.uleb128 0x13
	.long	0x701d
	.byte	0x3
	.long	0xb2a7
	.uleb128 0xa
	.long	.LASF60
	.long	0xa75c
	.uleb128 0xa
	.long	.LASF61
	.long	0x7686
	.uleb128 0xf
	.string	"_Tp"
	.long	0x4f
	.uleb128 0x12
	.long	.LASF1338
	.byte	0xc
	.value	0x226
	.byte	0x2b
	.long	0xa75c
	.uleb128 0xe
	.string	"__n"
	.byte	0xc
	.value	0x226
	.byte	0x3a
	.long	0x7686
	.uleb128 0xe
	.string	"__x"
	.byte	0xc
	.value	0x226
	.byte	0x4a
	.long	0xa775
	.byte	0
	.uleb128 0x13
	.long	0x469e
	.byte	0x3
	.long	0xb2d9
	.uleb128 0xe
	.string	"__a"
	.byte	0x8
	.value	0x2b0
	.byte	0x22
	.long	0xa78e
	.uleb128 0xe
	.string	"__p"
	.byte	0x8
	.value	0x2b0
	.byte	0x2f
	.long	0x4620
	.uleb128 0xe
	.string	"__n"
	.byte	0x8
	.value	0x2b0
	.byte	0x3e
	.long	0x465f
	.byte	0
	.uleb128 0xb
	.long	0x4a37
	.long	0xb2e7
	.byte	0x3
	.long	0xb2fe
	.uleb128 0x9
	.long	.LASF1340
	.long	0xa7de
	.uleb128 0xe
	.string	"__n"
	.byte	0x2
	.value	0x182
	.byte	0x1a
	.long	0x2bc
	.byte	0
	.uleb128 0xb
	.long	0x4751
	.long	0xb30c
	.byte	0x2
	.long	0xb316
	.uleb128 0x9
	.long	.LASF1340
	.long	0xa7a7
	.byte	0
	.uleb128 0x1b
	.long	0xb2fe
	.long	.LASF1353
	.long	0xb327
	.long	0xb32d
	.uleb128 0x3
	.long	0xb30c
	.byte	0
	.uleb128 0xb
	.long	0x440d
	.long	0xb33b
	.byte	0x2
	.long	0xb34a
	.uleb128 0x9
	.long	.LASF1340
	.long	0xa74d
	.uleb128 0x1
	.long	0xa752
	.byte	0
	.uleb128 0x1b
	.long	0xb32d
	.long	.LASF1354
	.long	0xb35b
	.long	0xb366
	.uleb128 0x3
	.long	0xb33b
	.uleb128 0x3
	.long	0xb344
	.byte	0
	.uleb128 0x13
	.long	0x46bf
	.byte	0x3
	.long	0xb37e
	.uleb128 0xe
	.string	"__a"
	.byte	0x8
	.value	0x2ed
	.byte	0x26
	.long	0xa793
	.byte	0
	.uleb128 0xc
	.long	0x768d
	.uleb128 0x13
	.long	0x705d
	.byte	0x3
	.long	0xb3b1
	.uleb128 0xf
	.string	"_Tp"
	.long	0x7686
	.uleb128 0xe
	.string	"__a"
	.byte	0xa
	.value	0x100
	.byte	0x14
	.long	0xb37e
	.uleb128 0xe
	.string	"__b"
	.byte	0xa
	.value	0x100
	.byte	0x24
	.long	0xb37e
	.byte	0
	.uleb128 0xb
	.long	0x3260
	.long	0xb3bf
	.byte	0x3
	.long	0xb3da
	.uleb128 0x9
	.long	.LASF1340
	.long	0xa63a
	.uleb128 0x26
	.string	"__n"
	.byte	0x6
	.byte	0x81
	.byte	0x1a
	.long	0x3285
	.uleb128 0x1
	.long	0x9394
	.byte	0
	.uleb128 0x13
	.long	0x344c
	.byte	0x3
	.long	0xb3f2
	.uleb128 0xe
	.string	"__a"
	.byte	0x8
	.value	0x2ed
	.byte	0x26
	.long	0xa685
	.byte	0
	.uleb128 0xb
	.long	0x3291
	.long	0xb400
	.byte	0x3
	.long	0xb422
	.uleb128 0x9
	.long	.LASF1340
	.long	0xa63a
	.uleb128 0x26
	.string	"__p"
	.byte	0x6
	.byte	0xa7
	.byte	0x17
	.long	0xa649
	.uleb128 0x26
	.string	"__n"
	.byte	0x6
	.byte	0xa7
	.byte	0x26
	.long	0x3285
	.byte	0
	.uleb128 0x13
	.long	0x7086
	.byte	0x3
	.long	0xb48e
	.uleb128 0xa
	.long	.LASF760
	.long	0xa075
	.uleb128 0xa
	.long	.LASF61
	.long	0x7686
	.uleb128 0xf
	.string	"_Tp"
	.long	0x37
	.uleb128 0x12
	.long	.LASF1338
	.byte	0xa
	.value	0x475
	.byte	0x20
	.long	0xa075
	.uleb128 0xe
	.string	"__n"
	.byte	0xa
	.value	0x475
	.byte	0x2f
	.long	0x7686
	.uleb128 0x12
	.long	.LASF857
	.byte	0xa
	.value	0x475
	.byte	0x3f
	.long	0xa093
	.uleb128 0x1
	.long	0x69c
	.uleb128 0x5d
	.string	"__d"
	.byte	0xa
	.value	0x47e
	.byte	0x42
	.long	0x6c61
	.uleb128 0x28
	.long	.LASF1339
	.byte	0xa
	.value	0x481
	.byte	0x17
	.long	0xa075
	.byte	0
	.uleb128 0x13
	.long	0x70cb
	.byte	0x3
	.long	0xb4ec
	.uleb128 0xa
	.long	.LASF60
	.long	0xa075
	.uleb128 0xa
	.long	.LASF61
	.long	0x7686
	.uleb128 0xf
	.string	"_Tp"
	.long	0x37
	.uleb128 0x12
	.long	.LASF1338
	.byte	0xc
	.value	0x226
	.byte	0x2b
	.long	0xa075
	.uleb128 0xe
	.string	"__n"
	.byte	0xc
	.value	0x226
	.byte	0x3a
	.long	0x7686
	.uleb128 0xe
	.string	"__x"
	.byte	0xc
	.value	0x226
	.byte	0x4a
	.long	0xa093
	.uleb128 0x44
	.uleb128 0x44
	.uleb128 0x28
	.long	.LASF1355
	.byte	0xc
	.value	0x23e
	.byte	0xb
	.long	0x76cf
	.byte	0
	.byte	0
	.byte	0
	.uleb128 0x13
	.long	0x710b
	.byte	0x3
	.long	0xb530
	.uleb128 0xa
	.long	.LASF757
	.long	0x8314
	.uleb128 0xf
	.string	"_Tp"
	.long	0x37
	.uleb128 0x12
	.long	.LASF1338
	.byte	0xa
	.value	0x3d0
	.byte	0x14
	.long	0x8314
	.uleb128 0x12
	.long	.LASF1339
	.byte	0xa
	.value	0x3d0
	.byte	0x23
	.long	0x8314
	.uleb128 0x12
	.long	.LASF857
	.byte	0xa
	.value	0x3d0
	.byte	0x36
	.long	0xa093
	.byte	0
	.uleb128 0xb
	.long	0x8346
	.long	0xb53e
	.byte	0x2
	.long	0xb555
	.uleb128 0x9
	.long	.LASF1340
	.long	0xa987
	.uleb128 0xe
	.string	"__i"
	.byte	0x3
	.value	0x422
	.byte	0x2a
	.long	0xa98c
	.byte	0
	.uleb128 0x1b
	.long	0xb530
	.long	.LASF1356
	.long	0xb566
	.long	0xb571
	.uleb128 0x3
	.long	0xb53e
	.uleb128 0x3
	.long	0xb547
	.byte	0
	.uleb128 0xb
	.long	0xeaa
	.long	0xb57f
	.byte	0x3
	.long	0xb595
	.uleb128 0x9
	.long	.LASF1340
	.long	0xa0c5
	.uleb128 0x26
	.string	"__x"
	.byte	0x2
	.byte	0x77
	.byte	0x28
	.long	0xa0cf
	.byte	0
	.uleb128 0xb
	.long	0x1b2b
	.long	0xb5a3
	.byte	0x3
	.long	0xb5c7
	.uleb128 0x9
	.long	.LASF1340
	.long	0xa11a
	.uleb128 0xe
	.string	"__n"
	.byte	0x2
	.value	0x7c3
	.byte	0x24
	.long	0x133c
	.uleb128 0x12
	.long	.LASF857
	.byte	0x2
	.value	0x7c3
	.byte	0x3b
	.long	0xa124
	.byte	0
	.uleb128 0xb
	.long	0x108c
	.long	0xb5d5
	.byte	0x2
	.long	0xb5f9
	.uleb128 0x9
	.long	.LASF1340
	.long	0xa0fc
	.uleb128 0xe
	.string	"__n"
	.byte	0x2
	.value	0x153
	.byte	0x1b
	.long	0x2bc
	.uleb128 0xe
	.string	"__a"
	.byte	0x2
	.value	0x153
	.byte	0x36
	.long	0xa106
	.byte	0
	.uleb128 0x1b
	.long	0xb5c7
	.long	.LASF1357
	.long	0xb60a
	.long	0xb61a
	.uleb128 0x3
	.long	0xb5d5
	.uleb128 0x3
	.long	0xb5de
	.uleb128 0x3
	.long	0xb5eb
	.byte	0
	.uleb128 0x13
	.long	0x1ca8
	.byte	0x3
	.long	0xb63f
	.uleb128 0xe
	.string	"__n"
	.byte	0x2
	.value	0x89b
	.byte	0x23
	.long	0x133c
	.uleb128 0xe
	.string	"__a"
	.byte	0x2
	.value	0x89b
	.byte	0x3e
	.long	0xa11f
	.byte	0
	.uleb128 0xb
	.long	0xc38
	.long	0xb64d
	.byte	0x3
	.long	0xb66f
	.uleb128 0x9
	.long	.LASF1340
	.long	0xa066
	.uleb128 0x26
	.string	"__p"
	.byte	0x6
	.byte	0xa7
	.byte	0x17
	.long	0xa075
	.uleb128 0x26
	.string	"__n"
	.byte	0x6
	.byte	0xa7
	.byte	0x26
	.long	0xc2c
	.byte	0
	.uleb128 0xb
	.long	0xb2d
	.long	0xb67d
	.byte	0x2
	.long	0xb68c
	.uleb128 0x9
	.long	.LASF1340
	.long	0xa066
	.uleb128 0x1
	.long	0xa06b
	.byte	0
	.uleb128 0x1b
	.long	0xb66f
	.long	.LASF1358
	.long	0xb69d
	.long	0xb6a8
	.uleb128 0x3
	.long	0xb67d
	.uleb128 0x3
	.long	0xb686
	.byte	0
	.uleb128 0x13
	.long	0x713e
	.byte	0x3
	.long	0xb6f5
	.uleb128 0xa
	.long	.LASF777
	.long	0xa86a
	.uleb128 0xa
	.long	.LASF778
	.long	0x5ec1
	.uleb128 0xf
	.string	"_Tp"
	.long	0x30
	.uleb128 0x12
	.long	.LASF1338
	.byte	0xa
	.value	0x3bc
	.byte	0x3b
	.long	0x8fde
	.uleb128 0x12
	.long	.LASF1339
	.byte	0xa
	.value	0x3bd
	.byte	0x34
	.long	0x8fde
	.uleb128 0x12
	.long	.LASF857
	.byte	0xa
	.value	0x3be
	.byte	0x13
	.long	0xa888
	.byte	0
	.uleb128 0xb
	.long	0x91d9
	.long	0xb703
	.byte	0x3
	.long	0xb70d
	.uleb128 0x9
	.long	.LASF1340
	.long	0xa964
	.byte	0
	.uleb128 0x13
	.long	0x717a
	.byte	0x3
	.long	0xb739
	.uleb128 0xa
	.long	.LASF60
	.long	0xa86a
	.uleb128 0x43
	.long	.LASF1338
	.byte	0xb
	.byte	0xdb
	.byte	0x1f
	.long	0xa86a
	.uleb128 0x43
	.long	.LASF1339
	.byte	0xb
	.byte	0xdb
	.byte	0x39
	.long	0xa86a
	.byte	0
	.uleb128 0x13
	.long	0x719e
	.byte	0x3
	.long	0xb77e
	.uleb128 0xa
	.long	.LASF60
	.long	0xa86a
	.uleb128 0xa
	.long	.LASF61
	.long	0x7686
	.uleb128 0xf
	.string	"_Tp"
	.long	0x30
	.uleb128 0x12
	.long	.LASF1338
	.byte	0xc
	.value	0x41b
	.byte	0x32
	.long	0xa86a
	.uleb128 0xe
	.string	"__n"
	.byte	0xc
	.value	0x41b
	.byte	0x41
	.long	0x7686
	.uleb128 0x1
	.long	0xa89c
	.byte	0
	.uleb128 0xb
	.long	0x5e42
	.long	0xb78c
	.byte	0x3
	.long	0xb7b0
	.uleb128 0x9
	.long	.LASF1340
	.long	0xa8f1
	.uleb128 0xe
	.string	"__p"
	.byte	0x2
	.value	0x18a
	.byte	0x1d
	.long	0x5bb0
	.uleb128 0xe
	.string	"__n"
	.byte	0x2
	.value	0x18a
	.byte	0x29
	.long	0x2bc
	.byte	0
	.uleb128 0xb
	.long	0x5e65
	.long	0xb7be
	.byte	0x3
	.long	0xb7d5
	.uleb128 0x9
	.long	.LASF1340
	.long	0xa8f1
	.uleb128 0xe
	.string	"__n"
	.byte	0x2
	.value	0x195
	.byte	0x20
	.long	0x2bc
	.byte	0
	.uleb128 0xb
	.long	0x5bed
	.long	0xb7e3
	.byte	0x2
	.long	0xb7f9
	.uleb128 0x9
	.long	.LASF1340
	.long	0xa8d3
	.uleb128 0x26
	.string	"__a"
	.byte	0x2
	.byte	0x98
	.byte	0x25
	.long	0xa8d8
	.byte	0
	.uleb128 0x1b
	.long	0xb7d5
	.long	.LASF1359
	.long	0xb80a
	.long	0xb815
	.uleb128 0x3
	.long	0xb7e3
	.uleb128 0x3
	.long	0xb7ec
	.byte	0
	.uleb128 0xb
	.long	0x599e
	.long	0xb823
	.byte	0x2
	.long	0xb839
	.uleb128 0x9
	.long	.LASF1340
	.long	0xa892
	.uleb128 0x26
	.string	"__a"
	.byte	0x5
	.byte	0xac
	.byte	0x22
	.long	0xa897
	.byte	0
	.uleb128 0x1b
	.long	0xb815
	.long	.LASF1360
	.long	0xb84a
	.long	0xb855
	.uleb128 0x3
	.long	0xb823
	.uleb128 0x3
	.long	0xb82c
	.byte	0
	.uleb128 0x13
	.long	0x6989
	.byte	0x3
	.long	0xb887
	.uleb128 0xe
	.string	"__a"
	.byte	0x2
	.value	0x8a4
	.byte	0x29
	.long	0xa941
	.uleb128 0x28
	.long	.LASF1348
	.byte	0x2
	.value	0x8a9
	.byte	0xf
	.long	0x2c9
	.uleb128 0x28
	.long	.LASF1349
	.byte	0x2
	.value	0x8ab
	.byte	0xf
	.long	0x2c9
	.byte	0
	.uleb128 0x13
	.long	0x71de
	.byte	0x3
	.long	0xb8b3
	.uleb128 0xa
	.long	.LASF60
	.long	0xa75c
	.uleb128 0x43
	.long	.LASF1338
	.byte	0xb
	.byte	0xdb
	.byte	0x1f
	.long	0xa75c
	.uleb128 0x43
	.long	.LASF1339
	.byte	0xb
	.byte	0xdb
	.byte	0x39
	.long	0xa75c
	.byte	0
	.uleb128 0x13
	.long	0x7202
	.byte	0x3
	.long	0xb90e
	.uleb128 0xa
	.long	.LASF60
	.long	0xa75c
	.uleb128 0xa
	.long	.LASF61
	.long	0x7686
	.uleb128 0xf
	.string	"_Tp"
	.long	0x4f
	.uleb128 0xa
	.long	.LASF803
	.long	0x4f
	.uleb128 0x12
	.long	.LASF1338
	.byte	0xc
	.value	0x303
	.byte	0x2f
	.long	0xa75c
	.uleb128 0xe
	.string	"__n"
	.byte	0xc
	.value	0x303
	.byte	0x3e
	.long	0x7686
	.uleb128 0xe
	.string	"__x"
	.byte	0xc
	.value	0x304
	.byte	0x14
	.long	0xa775
	.uleb128 0x1
	.long	0xa789
	.byte	0
	.uleb128 0xb
	.long	0x4a5a
	.long	0xb91c
	.byte	0x3
	.long	0xb940
	.uleb128 0x9
	.long	.LASF1340
	.long	0xa7de
	.uleb128 0xe
	.string	"__p"
	.byte	0x2
	.value	0x18a
	.byte	0x1d
	.long	0x47c8
	.uleb128 0xe
	.string	"__n"
	.byte	0x2
	.value	0x18a
	.byte	0x29
	.long	0x2bc
	.byte	0
	.uleb128 0xb
	.long	0x4a7d
	.long	0xb94e
	.byte	0x3
	.long	0xb965
	.uleb128 0x9
	.long	.LASF1340
	.long	0xa7de
	.uleb128 0xe
	.string	"__n"
	.byte	0x2
	.value	0x195
	.byte	0x20
	.long	0x2bc
	.byte	0
	.uleb128 0xb
	.long	0x4805
	.long	0xb973
	.byte	0x2
	.long	0xb989
	.uleb128 0x9
	.long	.LASF1340
	.long	0xa7c0
	.uleb128 0x26
	.string	"__a"
	.byte	0x2
	.byte	0x98
	.byte	0x25
	.long	0xa7c5
	.byte	0
	.uleb128 0x1b
	.long	0xb965
	.long	.LASF1361
	.long	0xb99a
	.long	0xb9a5
	.uleb128 0x3
	.long	0xb973
	.uleb128 0x3
	.long	0xb97c
	.byte	0
	.uleb128 0xb
	.long	0x45b6
	.long	0xb9b3
	.byte	0x2
	.long	0xb9c9
	.uleb128 0x9
	.long	.LASF1340
	.long	0xa77f
	.uleb128 0x26
	.string	"__a"
	.byte	0x5
	.byte	0xac
	.byte	0x22
	.long	0xa784
	.byte	0
	.uleb128 0x1b
	.long	0xb9a5
	.long	.LASF1362
	.long	0xb9da
	.long	0xb9e5
	.uleb128 0x3
	.long	0xb9b3
	.uleb128 0x3
	.long	0xb9bc
	.byte	0
	.uleb128 0x13
	.long	0x55a1
	.byte	0x3
	.long	0xba17
	.uleb128 0xe
	.string	"__a"
	.byte	0x2
	.value	0x8a4
	.byte	0x29
	.long	0xa829
	.uleb128 0x28
	.long	.LASF1348
	.byte	0x2
	.value	0x8a9
	.byte	0xf
	.long	0x2c9
	.uleb128 0x28
	.long	.LASF1349
	.byte	0x2
	.value	0x8ab
	.byte	0xf
	.long	0x2c9
	.byte	0
	.uleb128 0x13
	.long	0x7250
	.byte	0x3
	.long	0xba37
	.uleb128 0xf
	.string	"_Tp"
	.long	0xa4c5
	.uleb128 0x43
	.long	.LASF1363
	.byte	0x28
	.byte	0xcf
	.byte	0x17
	.long	0xa649
	.byte	0
	.uleb128 0xb
	.long	0x42f7
	.long	0xba45
	.byte	0x2
	.long	0xba4f
	.uleb128 0x9
	.long	.LASF1340
	.long	0xa9aa
	.byte	0
	.uleb128 0x3d
	.long	0xba37
	.long	0xba5c
	.long	0xba62
	.uleb128 0x3
	.long	0xba45
	.byte	0
	.uleb128 0xb
	.long	0x42d2
	.long	0xba70
	.byte	0x2
	.long	0xbaa1
	.uleb128 0x9
	.long	.LASF1340
	.long	0xa9aa
	.uleb128 0xe
	.string	"__s"
	.byte	0x2
	.value	0x749
	.byte	0x17
	.long	0x38af
	.uleb128 0xe
	.string	"__l"
	.byte	0x2
	.value	0x749
	.byte	0x26
	.long	0x3957
	.uleb128 0x12
	.long	.LASF1364
	.byte	0x2
	.value	0x749
	.byte	0x32
	.long	0xa9a0
	.byte	0
	.uleb128 0x3d
	.long	0xba62
	.long	0xbaae
	.long	0xbac3
	.uleb128 0x3
	.long	0xba70
	.uleb128 0x3
	.long	0xba79
	.uleb128 0x3
	.long	0xba86
	.uleb128 0x3
	.long	0xba93
	.byte	0
	.uleb128 0xb
	.long	0x4197
	.long	0xbad1
	.byte	0x3
	.long	0xbb02
	.uleb128 0x9
	.long	.LASF1340
	.long	0xa71b
	.uleb128 0xe
	.string	"__n"
	.byte	0x2
	.value	0x890
	.byte	0x1e
	.long	0x3957
	.uleb128 0xe
	.string	"__s"
	.byte	0x2
	.value	0x890
	.byte	0x2f
	.long	0x7911
	.uleb128 0x28
	.long	.LASF1344
	.byte	0x2
	.value	0x895
	.byte	0x12
	.long	0x3964
	.byte	0
	.uleb128 0xb
	.long	0x32e7
	.long	0xbb28
	.byte	0x3
	.long	0xbb4d
	.uleb128 0xf
	.string	"_Up"
	.long	0xa4c5
	.uleb128 0x55
	.long	.LASF432
	.long	0xbb28
	.uleb128 0x56
	.long	0xa667
	.byte	0
	.uleb128 0x9
	.long	.LASF1340
	.long	0xa63a
	.uleb128 0x26
	.string	"__p"
	.byte	0x6
	.byte	0xc9
	.byte	0x11
	.long	0xa649
	.uleb128 0x9a
	.long	.LASF1365
	.byte	0x6
	.byte	0xc9
	.byte	0x1d
	.uleb128 0x1
	.long	0xa667
	.byte	0
	.byte	0
	.uleb128 0x13
	.long	0x727c
	.byte	0x3
	.long	0xbbab
	.uleb128 0xf
	.string	"_Tp"
	.long	0xa4c5
	.uleb128 0xf
	.string	"_Up"
	.long	0xa4c5
	.uleb128 0x12
	.long	.LASF1338
	.byte	0xc
	.value	0x561
	.byte	0x19
	.long	0xa649
	.uleb128 0x12
	.long	.LASF1339
	.byte	0xc
	.value	0x561
	.byte	0x27
	.long	0xa649
	.uleb128 0x12
	.long	.LASF1366
	.byte	0xc
	.value	0x562
	.byte	0xb
	.long	0xa649
	.uleb128 0x12
	.long	.LASF1367
	.byte	0xc
	.value	0x563
	.byte	0x2b
	.long	0xa67b
	.uleb128 0x28
	.long	.LASF856
	.byte	0xc
	.value	0x565
	.byte	0x11
	.long	0x62f
	.byte	0
	.uleb128 0x13
	.long	0x72b4
	.byte	0x3
	.long	0xbbcc
	.uleb128 0xa
	.long	.LASF448
	.long	0xa649
	.uleb128 0x12
	.long	.LASF1346
	.byte	0x3
	.value	0xbce
	.byte	0x1c
	.long	0xa649
	.byte	0
	.uleb128 0x13
	.long	0x33c6
	.byte	0x3
	.long	0xbbf1
	.uleb128 0xe
	.string	"__a"
	.byte	0x8
	.value	0x27d
	.byte	0x20
	.long	0xa680
	.uleb128 0xe
	.string	"__n"
	.byte	0x8
	.value	0x27d
	.byte	0x2f
	.long	0x33f4
	.byte	0
	.uleb128 0xb
	.long	0x3648
	.long	0xbbff
	.byte	0x3
	.long	0xbc09
	.uleb128 0x9
	.long	.LASF1340
	.long	0xa6da
	.byte	0
	.uleb128 0x13
	.long	0x41d8
	.byte	0x3
	.long	0xbc3b
	.uleb128 0xe
	.string	"__a"
	.byte	0x2
	.value	0x8a4
	.byte	0x29
	.long	0xa725
	.uleb128 0x28
	.long	.LASF1348
	.byte	0x2
	.value	0x8a9
	.byte	0xf
	.long	0x2c9
	.uleb128 0x28
	.long	.LASF1349
	.byte	0x2
	.value	0x8ab
	.byte	0xf
	.long	0x2c9
	.byte	0
	.uleb128 0x13
	.long	0x72d4
	.byte	0x3
	.long	0xbc67
	.uleb128 0xa
	.long	.LASF60
	.long	0xa649
	.uleb128 0x43
	.long	.LASF1338
	.byte	0xb
	.byte	0xdb
	.byte	0x1f
	.long	0xa649
	.uleb128 0x43
	.long	.LASF1339
	.byte	0xb
	.byte	0xdb
	.byte	0x39
	.long	0xa649
	.byte	0
	.uleb128 0x13
	.long	0x342f
	.byte	0x3
	.long	0xbc99
	.uleb128 0xe
	.string	"__a"
	.byte	0x8
	.value	0x2b0
	.byte	0x22
	.long	0xa680
	.uleb128 0xe
	.string	"__p"
	.byte	0x8
	.value	0x2b0
	.byte	0x2f
	.long	0x33b9
	.uleb128 0xe
	.string	"__n"
	.byte	0x8
	.value	0x2b0
	.byte	0x3e
	.long	0x33f4
	.byte	0
	.uleb128 0xb
	.long	0x3189
	.long	0xbca7
	.byte	0x2
	.long	0xbcb1
	.uleb128 0x9
	.long	.LASF1340
	.long	0xa63a
	.byte	0
	.uleb128 0x3d
	.long	0xbc99
	.long	0xbcbe
	.long	0xbcc4
	.uleb128 0x3
	.long	0xbca7
	.byte	0
	.uleb128 0x13
	.long	0x72f5
	.byte	0x3
	.long	0xbd11
	.uleb128 0xf
	.string	"_OI"
	.long	0xa075
	.uleb128 0xa
	.long	.LASF61
	.long	0x7686
	.uleb128 0xf
	.string	"_Tp"
	.long	0x37
	.uleb128 0x12
	.long	.LASF1338
	.byte	0xa
	.value	0x49b
	.byte	0x10
	.long	0xa075
	.uleb128 0xe
	.string	"__n"
	.byte	0xa
	.value	0x49b
	.byte	0x1f
	.long	0x7686
	.uleb128 0x12
	.long	.LASF857
	.byte	0xa
	.value	0x49b
	.byte	0x2f
	.long	0xa093
	.byte	0
	.uleb128 0xb
	.long	0x1cdf
	.long	0xbd1f
	.byte	0x3
	.long	0xbd45
	.uleb128 0x9
	.long	.LASF1340
	.long	0xa11a
	.uleb128 0x12
	.long	.LASF1227
	.byte	0x2
	.value	0x8b5
	.byte	0x1f
	.long	0x1285
	.uleb128 0x44
	.uleb128 0x5d
	.string	"__n"
	.byte	0x2
	.value	0x8b7
	.byte	0x10
	.long	0x133c
	.byte	0
	.byte	0
	.uleb128 0x13
	.long	0x7335
	.byte	0x3
	.long	0xbda0
	.uleb128 0xa
	.long	.LASF60
	.long	0xa075
	.uleb128 0xa
	.long	.LASF61
	.long	0x7686
	.uleb128 0xf
	.string	"_Tp"
	.long	0x37
	.uleb128 0xa
	.long	.LASF803
	.long	0x37
	.uleb128 0x12
	.long	.LASF1338
	.byte	0xc
	.value	0x303
	.byte	0x2f
	.long	0xa075
	.uleb128 0xe
	.string	"__n"
	.byte	0xc
	.value	0x303
	.byte	0x3e
	.long	0x7686
	.uleb128 0xe
	.string	"__x"
	.byte	0xc
	.value	0x304
	.byte	0x14
	.long	0xa093
	.uleb128 0x1
	.long	0xa0a7
	.byte	0
	.uleb128 0x13
	.long	0x7383
	.byte	0x3
	.long	0xbde4
	.uleb128 0xa
	.long	.LASF60
	.long	0x8314
	.uleb128 0xf
	.string	"_Tp"
	.long	0x37
	.uleb128 0x12
	.long	.LASF1338
	.byte	0xa
	.value	0x3e9
	.byte	0x1b
	.long	0x8314
	.uleb128 0x12
	.long	.LASF1339
	.byte	0xa
	.value	0x3e9
	.byte	0x35
	.long	0x8314
	.uleb128 0x12
	.long	.LASF857
	.byte	0xa
	.value	0x3e9
	.byte	0x48
	.long	0xa093
	.byte	0
	.uleb128 0xb
	.long	0x15b7
	.long	0xbdf2
	.byte	0x3
	.long	0xbdfc
	.uleb128 0x9
	.long	.LASF1340
	.long	0xa11a
	.byte	0
	.uleb128 0xb
	.long	0x156a
	.long	0xbe0a
	.byte	0x3
	.long	0xbe14
	.uleb128 0x9
	.long	.LASF1340
	.long	0xa11a
	.byte	0
	.uleb128 0xb
	.long	0xec9
	.long	0xbe22
	.byte	0x3
	.long	0xbe44
	.uleb128 0x9
	.long	.LASF1340
	.long	0xa0c5
	.uleb128 0x26
	.string	"__x"
	.byte	0x2
	.byte	0x80
	.byte	0x22
	.long	0xa0d4
	.uleb128 0x39
	.long	.LASF1368
	.byte	0x2
	.byte	0x84
	.byte	0x16
	.long	0xe3d
	.byte	0
	.uleb128 0xb
	.long	0x134e
	.long	0xbe52
	.byte	0x2
	.long	0xbe83
	.uleb128 0x9
	.long	.LASF1340
	.long	0xa11a
	.uleb128 0xe
	.string	"__n"
	.byte	0x2
	.value	0x24d
	.byte	0x18
	.long	0x133c
	.uleb128 0x12
	.long	.LASF857
	.byte	0x2
	.value	0x24d
	.byte	0x2f
	.long	0xa124
	.uleb128 0xe
	.string	"__a"
	.byte	0x2
	.value	0x24e
	.byte	0x1d
	.long	0xa11f
	.byte	0
	.uleb128 0x1b
	.long	0xbe44
	.long	.LASF1369
	.long	0xbe94
	.long	0xbea9
	.uleb128 0x3
	.long	0xbe52
	.uleb128 0x3
	.long	0xbe5b
	.uleb128 0x3
	.long	0xbe68
	.uleb128 0x3
	.long	0xbe75
	.byte	0
	.uleb128 0xb
	.long	0x17ae
	.long	0xbeb7
	.byte	0x3
	.long	0xbece
	.uleb128 0x9
	.long	.LASF1340
	.long	0xa142
	.uleb128 0x28
	.long	.LASF1370
	.byte	0x2
	.value	0x4b0
	.byte	0xc
	.long	0x62f
	.byte	0
	.uleb128 0x13
	.long	0x73b6
	.byte	0x3
	.long	0xbefa
	.uleb128 0xa
	.long	.LASF60
	.long	0xa075
	.uleb128 0x43
	.long	.LASF1338
	.byte	0xb
	.byte	0xdb
	.byte	0x1f
	.long	0xa075
	.uleb128 0x43
	.long	.LASF1339
	.byte	0xb
	.byte	0xdb
	.byte	0x39
	.long	0xa075
	.byte	0
	.uleb128 0x13
	.long	0xdbe
	.byte	0x3
	.long	0xbf2c
	.uleb128 0xe
	.string	"__a"
	.byte	0x8
	.value	0x2b0
	.byte	0x22
	.long	0xa0ac
	.uleb128 0xe
	.string	"__p"
	.byte	0x8
	.value	0x2b0
	.byte	0x2f
	.long	0xd40
	.uleb128 0xe
	.string	"__n"
	.byte	0x8
	.value	0x2b0
	.byte	0x3e
	.long	0xd7f
	.byte	0
	.uleb128 0xb
	.long	0xb12
	.long	0xbf3a
	.byte	0x2
	.long	0xbf44
	.uleb128 0x9
	.long	.LASF1340
	.long	0xa066
	.byte	0
	.uleb128 0x1b
	.long	0xbf2c
	.long	.LASF1371
	.long	0xbf55
	.long	0xbf5b
	.uleb128 0x3
	.long	0xbf3a
	.byte	0
	.uleb128 0x13
	.long	0x73da
	.byte	0x3
	.long	0xbf87
	.uleb128 0xf
	.string	"_Tp"
	.long	0x7686
	.uleb128 0x26
	.string	"__a"
	.byte	0xa
	.byte	0xe8
	.byte	0x14
	.long	0xb37e
	.uleb128 0x26
	.string	"__b"
	.byte	0xa
	.byte	0xe8
	.byte	0x24
	.long	0xb37e
	.byte	0
	.uleb128 0xb
	.long	0xcd6
	.long	0xbf95
	.byte	0x2
	.long	0xbfab
	.uleb128 0x9
	.long	.LASF1340
	.long	0xa09d
	.uleb128 0x26
	.string	"__a"
	.byte	0x5
	.byte	0xac
	.byte	0x22
	.long	0xa0a2
	.byte	0
	.uleb128 0x1b
	.long	0xbf87
	.long	.LASF1372
	.long	0xbfbc
	.long	0xbfc7
	.uleb128 0x3
	.long	0xbf95
	.uleb128 0x3
	.long	0xbf9e
	.byte	0
	.uleb128 0x13
	.long	0x7402
	.byte	0x3
	.long	0xbff3
	.uleb128 0xf
	.string	"_Tp"
	.long	0x30
	.uleb128 0x26
	.string	"__a"
	.byte	0xa
	.byte	0xe8
	.byte	0x14
	.long	0xa888
	.uleb128 0x26
	.string	"__b"
	.byte	0xa
	.byte	0xe8
	.byte	0x24
	.long	0xa888
	.byte	0
	.uleb128 0x13
	.long	0x742a
	.byte	0x3
	.long	0xc021
	.uleb128 0xf
	.string	"_Tp"
	.long	0x30
	.uleb128 0xe
	.string	"__a"
	.byte	0xa
	.value	0x100
	.byte	0x14
	.long	0xa888
	.uleb128 0xe
	.string	"__b"
	.byte	0xa
	.value	0x100
	.byte	0x24
	.long	0xa888
	.byte	0
	.uleb128 0xb
	.long	0x6a56
	.long	0xc038
	.byte	0x3
	.long	0xc04f
	.uleb128 0xf
	.string	"_Up"
	.long	0x30
	.uleb128 0x9
	.long	.LASF1340
	.long	0xa937
	.uleb128 0x12
	.long	.LASF1363
	.byte	0x2
	.value	0x8ee
	.byte	0x13
	.long	0xa86a
	.byte	0
	.uleb128 0x13
	.long	0x7453
	.byte	0x3
	.long	0xc093
	.uleb128 0xa
	.long	.LASF757
	.long	0x8fde
	.uleb128 0xf
	.string	"_Tp"
	.long	0x30
	.uleb128 0x12
	.long	.LASF1338
	.byte	0xa
	.value	0x3d0
	.byte	0x14
	.long	0x8fde
	.uleb128 0x12
	.long	.LASF1339
	.byte	0xa
	.value	0x3d0
	.byte	0x23
	.long	0x8fde
	.uleb128 0x12
	.long	.LASF857
	.byte	0xa
	.value	0x3d0
	.byte	0x36
	.long	0xa888
	.byte	0
	.uleb128 0xb
	.long	0x9010
	.long	0xc0a1
	.byte	0x2
	.long	0xc0b8
	.uleb128 0x9
	.long	.LASF1340
	.long	0xa955
	.uleb128 0xe
	.string	"__i"
	.byte	0x3
	.value	0x422
	.byte	0x2a
	.long	0xa95a
	.byte	0
	.uleb128 0x1b
	.long	0xc093
	.long	.LASF1373
	.long	0xc0c9
	.long	0xc0d4
	.uleb128 0x3
	.long	0xc0a1
	.uleb128 0x3
	.long	0xc0aa
	.byte	0
	.uleb128 0x13
	.long	0x7486
	.byte	0x3
	.long	0xc110
	.uleb128 0xa
	.long	.LASF60
	.long	0xa86a
	.uleb128 0xf
	.string	"_Tp"
	.long	0x30
	.uleb128 0x12
	.long	.LASF1338
	.byte	0x8
	.value	0x43a
	.byte	0x1f
	.long	0xa86a
	.uleb128 0x12
	.long	.LASF1339
	.byte	0x8
	.value	0x43a
	.byte	0x39
	.long	0xa86a
	.uleb128 0x1
	.long	0xa89c
	.byte	0
	.uleb128 0xb
	.long	0x5c93
	.long	0xc11e
	.byte	0x3
	.long	0xc128
	.uleb128 0x9
	.long	.LASF1340
	.long	0xa8f1
	.byte	0
	.uleb128 0xb
	.long	0x6814
	.long	0xc136
	.byte	0x3
	.long	0xc14d
	.uleb128 0x9
	.long	.LASF1340
	.long	0xa90f
	.uleb128 0xe
	.string	"__n"
	.byte	0x2
	.value	0x7ce
	.byte	0x27
	.long	0x6004
	.byte	0
	.uleb128 0xb
	.long	0x5df9
	.long	0xc15b
	.byte	0x2
	.long	0xc174
	.uleb128 0x9
	.long	.LASF1340
	.long	0xa8f1
	.uleb128 0x44
	.uleb128 0x5d
	.string	"__n"
	.byte	0x2
	.value	0x177
	.byte	0xc
	.long	0x62f
	.byte	0
	.byte	0
	.uleb128 0x1b
	.long	0xc14d
	.long	.LASF1374
	.long	0xc185
	.long	0xc196
	.uleb128 0x3
	.long	0xc15b
	.uleb128 0x74
	.long	0xc164
	.uleb128 0x3e
	.long	0xc165
	.byte	0
	.byte	0
	.uleb128 0xb
	.long	0x5d54
	.long	0xc1a4
	.byte	0x2
	.long	0xc1c8
	.uleb128 0x9
	.long	.LASF1340
	.long	0xa8f1
	.uleb128 0xe
	.string	"__n"
	.byte	0x2
	.value	0x153
	.byte	0x1b
	.long	0x2bc
	.uleb128 0xe
	.string	"__a"
	.byte	0x2
	.value	0x153
	.byte	0x36
	.long	0xa8fb
	.byte	0
	.uleb128 0x1b
	.long	0xc196
	.long	.LASF1375
	.long	0xc1d9
	.long	0xc1e9
	.uleb128 0x3
	.long	0xc1a4
	.uleb128 0x3
	.long	0xc1ad
	.uleb128 0x3
	.long	0xc1ba
	.byte	0
	.uleb128 0x64
	.long	0x5c6e
	.byte	0x2
	.byte	0x8b
	.byte	0xe
	.long	0xc1f9
	.long	0xc203
	.uleb128 0x9
	.long	.LASF1340
	.long	0xa8d3
	.byte	0
	.uleb128 0x1b
	.long	0xc1e9
	.long	.LASF1376
	.long	0xc214
	.long	0xc21a
	.uleb128 0x3
	.long	0xc1f9
	.byte	0
	.uleb128 0x13
	.long	0x696b
	.byte	0x3
	.long	0xc23f
	.uleb128 0xe
	.string	"__n"
	.byte	0x2
	.value	0x89b
	.byte	0x23
	.long	0x6004
	.uleb128 0xe
	.string	"__a"
	.byte	0x2
	.value	0x89b
	.byte	0x3e
	.long	0xa914
	.byte	0
	.uleb128 0xb
	.long	0x5838
	.long	0xc24d
	.byte	0x2
	.long	0xc257
	.uleb128 0x9
	.long	.LASF1340
	.long	0xa85b
	.byte	0
	.uleb128 0x1b
	.long	0xc23f
	.long	.LASF1377
	.long	0xc268
	.long	0xc26e
	.uleb128 0x3
	.long	0xc24d
	.byte	0
	.uleb128 0xb
	.long	0x57da
	.long	0xc27c
	.byte	0x2
	.long	0xc286
	.uleb128 0x9
	.long	.LASF1340
	.long	0xa85b
	.byte	0
	.uleb128 0x1b
	.long	0xc26e
	.long	.LASF1378
	.long	0xc297
	.long	0xc29d
	.uleb128 0x3
	.long	0xc27c
	.byte	0
	.uleb128 0xb
	.long	0x8be4
	.long	0xc2ab
	.byte	0x2
	.long	0xc2c2
	.uleb128 0x9
	.long	.LASF1340
	.long	0xa83d
	.uleb128 0xe
	.string	"__i"
	.byte	0x3
	.value	0x422
	.byte	0x2a
	.long	0xa842
	.byte	0
	.uleb128 0x3d
	.long	0xc29d
	.long	0xc2cf
	.long	0xc2da
	.uleb128 0x3
	.long	0xc2ab
	.uleb128 0x3
	.long	0xc2b4
	.byte	0
	.uleb128 0x13
	.long	0x74b9
	.byte	0x3
	.long	0xc316
	.uleb128 0xa
	.long	.LASF60
	.long	0xa75c
	.uleb128 0xf
	.string	"_Tp"
	.long	0x4f
	.uleb128 0x12
	.long	.LASF1338
	.byte	0x8
	.value	0x43a
	.byte	0x1f
	.long	0xa75c
	.uleb128 0x12
	.long	.LASF1339
	.byte	0x8
	.value	0x43a
	.byte	0x39
	.long	0xa75c
	.uleb128 0x1
	.long	0xa789
	.byte	0
	.uleb128 0xb
	.long	0x48ab
	.long	0xc324
	.byte	0x3
	.long	0xc32e
	.uleb128 0x9
	.long	.LASF1340
	.long	0xa7de
	.byte	0
	.uleb128 0xb
	.long	0x5406
	.long	0xc33c
	.byte	0x3
	.long	0xc360
	.uleb128 0x9
	.long	.LASF1340
	.long	0xa7fc
	.uleb128 0xe
	.string	"__n"
	.byte	0x2
	.value	0x7c3
	.byte	0x24
	.long	0x4c1c
	.uleb128 0x12
	.long	.LASF857
	.byte	0x2
	.value	0x7c3
	.byte	0x3b
	.long	0xa806
	.byte	0
	.uleb128 0xb
	.long	0x4a11
	.long	0xc36e
	.byte	0x2
	.long	0xc387
	.uleb128 0x9
	.long	.LASF1340
	.long	0xa7de
	.uleb128 0x44
	.uleb128 0x5d
	.string	"__n"
	.byte	0x2
	.value	0x177
	.byte	0xc
	.long	0x62f
	.byte	0
	.byte	0
	.uleb128 0x1b
	.long	0xc360
	.long	.LASF1379
	.long	0xc398
	.long	0xc3a9
	.uleb128 0x3
	.long	0xc36e
	.uleb128 0x74
	.long	0xc377
	.uleb128 0x3e
	.long	0xc378
	.byte	0
	.byte	0
	.uleb128 0xb
	.long	0x496c
	.long	0xc3b7
	.byte	0x2
	.long	0xc3db
	.uleb128 0x9
	.long	.LASF1340
	.long	0xa7de
	.uleb128 0xe
	.string	"__n"
	.byte	0x2
	.value	0x153
	.byte	0x1b
	.long	0x2bc
	.uleb128 0xe
	.string	"__a"
	.byte	0x2
	.value	0x153
	.byte	0x36
	.long	0xa7e8
	.byte	0
	.uleb128 0x1b
	.long	0xc3a9
	.long	.LASF1380
	.long	0xc3ec
	.long	0xc3fc
	.uleb128 0x3
	.long	0xc3b7
	.uleb128 0x3
	.long	0xc3c0
	.uleb128 0x3
	.long	0xc3cd
	.byte	0
	.uleb128 0x64
	.long	0x4886
	.byte	0x2
	.byte	0x8b
	.byte	0xe
	.long	0xc40c
	.long	0xc416
	.uleb128 0x9
	.long	.LASF1340
	.long	0xa7c0
	.byte	0
	.uleb128 0x1b
	.long	0xc3fc
	.long	.LASF1381
	.long	0xc427
	.long	0xc42d
	.uleb128 0x3
	.long	0xc40c
	.byte	0
	.uleb128 0x13
	.long	0x5583
	.byte	0x3
	.long	0xc452
	.uleb128 0xe
	.string	"__n"
	.byte	0x2
	.value	0x89b
	.byte	0x23
	.long	0x4c1c
	.uleb128 0xe
	.string	"__a"
	.byte	0x2
	.value	0x89b
	.byte	0x3e
	.long	0xa801
	.byte	0
	.uleb128 0xb
	.long	0x4450
	.long	0xc460
	.byte	0x2
	.long	0xc46a
	.uleb128 0x9
	.long	.LASF1340
	.long	0xa74d
	.byte	0
	.uleb128 0x1b
	.long	0xc452
	.long	.LASF1382
	.long	0xc47b
	.long	0xc481
	.uleb128 0x3
	.long	0xc460
	.byte	0
	.uleb128 0xb
	.long	0x43f2
	.long	0xc48f
	.byte	0x2
	.long	0xc499
	.uleb128 0x9
	.long	.LASF1340
	.long	0xa74d
	.byte	0
	.uleb128 0x1b
	.long	0xc481
	.long	.LASF1383
	.long	0xc4aa
	.long	0xc4b0
	.uleb128 0x3
	.long	0xc48f
	.byte	0
	.uleb128 0xb
	.long	0x4347
	.long	0xc4cd
	.byte	0x1
	.long	0xc548
	.uleb128 0x55
	.long	.LASF432
	.long	0xc4cd
	.uleb128 0x56
	.long	0xa667
	.byte	0
	.uleb128 0x9
	.long	.LASF1340
	.long	0xa6f3
	.uleb128 0xcc
	.long	.LASF1365
	.byte	0x7
	.value	0x236
	.byte	0x20
	.long	0xc4ea
	.uleb128 0x1
	.long	0xa667
	.byte	0
	.uleb128 0x28
	.long	.LASF1344
	.byte	0x7
	.value	0x23e
	.byte	0x17
	.long	0x3964
	.uleb128 0x28
	.long	.LASF1384
	.byte	0x7
	.value	0x241
	.byte	0xf
	.long	0x38af
	.uleb128 0x28
	.long	.LASF1385
	.byte	0x7
	.value	0x242
	.byte	0xf
	.long	0x38af
	.uleb128 0x28
	.long	.LASF1386
	.byte	0x7
	.value	0x243
	.byte	0x17
	.long	0x3964
	.uleb128 0x28
	.long	.LASF1387
	.byte	0x7
	.value	0x244
	.byte	0xf
	.long	0x38af
	.uleb128 0x28
	.long	.LASF1388
	.byte	0x7
	.value	0x245
	.byte	0xf
	.long	0x38af
	.uleb128 0x44
	.uleb128 0x28
	.long	.LASF1345
	.byte	0x7
	.value	0x248
	.byte	0xf
	.long	0x429d
	.byte	0
	.byte	0
	.uleb128 0x13
	.long	0x3494
	.byte	0x3
	.long	0xc595
	.uleb128 0xf
	.string	"_Up"
	.long	0xa4c5
	.uleb128 0x55
	.long	.LASF432
	.long	0xc56a
	.uleb128 0x56
	.long	0xa667
	.byte	0
	.uleb128 0xe
	.string	"__a"
	.byte	0x8
	.value	0x2c1
	.byte	0x1c
	.long	0xa680
	.uleb128 0xe
	.string	"__p"
	.byte	0x8
	.value	0x2c2
	.byte	0xa
	.long	0xa649
	.uleb128 0xcd
	.long	.LASF1365
	.byte	0x8
	.value	0x2c2
	.byte	0x16
	.uleb128 0x1
	.long	0xa667
	.byte	0
	.byte	0
	.uleb128 0xb
	.long	0x1d93
	.long	0xc5ac
	.byte	0x3
	.long	0xc5c3
	.uleb128 0xf
	.string	"_Up"
	.long	0x37
	.uleb128 0x9
	.long	.LASF1340
	.long	0xa142
	.uleb128 0x12
	.long	.LASF1363
	.byte	0x2
	.value	0x8ee
	.byte	0x13
	.long	0xa075
	.byte	0
	.uleb128 0xb
	.long	0x868d
	.long	0xc5d1
	.byte	0x2
	.long	0xc5e8
	.uleb128 0x9
	.long	.LASF1340
	.long	0xa72f
	.uleb128 0xe
	.string	"__i"
	.byte	0x3
	.value	0x422
	.byte	0x2a
	.long	0xa734
	.byte	0
	.uleb128 0x1b
	.long	0xc5c3
	.long	.LASF1389
	.long	0xc5f9
	.long	0xc604
	.uleb128 0x3
	.long	0xc5d1
	.uleb128 0x3
	.long	0xc5da
	.byte	0
	.uleb128 0x13
	.long	0x74ec
	.byte	0x3
	.long	0xc65e
	.uleb128 0xa
	.long	.LASF830
	.long	0xa649
	.uleb128 0xa
	.long	.LASF60
	.long	0xa649
	.uleb128 0xa
	.long	.LASF831
	.long	0x332e
	.uleb128 0x12
	.long	.LASF1338
	.byte	0xc
	.value	0x57c
	.byte	0x21
	.long	0xa649
	.uleb128 0x12
	.long	.LASF1339
	.byte	0xc
	.value	0x57c
	.byte	0x39
	.long	0xa649
	.uleb128 0x12
	.long	.LASF1366
	.byte	0xc
	.value	0x57d
	.byte	0x15
	.long	0xa649
	.uleb128 0x12
	.long	.LASF1367
	.byte	0xc
	.value	0x57d
	.byte	0x2b
	.long	0xa67b
	.byte	0
	.uleb128 0xb
	.long	0x3793
	.long	0xc66c
	.byte	0x3
	.long	0xc683
	.uleb128 0x9
	.long	.LASF1340
	.long	0xa6d0
	.uleb128 0xe
	.string	"__n"
	.byte	0x2
	.value	0x182
	.byte	0x1a
	.long	0x2bc
	.byte	0
	.uleb128 0xb
	.long	0x3cc1
	.long	0xc691
	.byte	0x3
	.long	0xc6a8
	.uleb128 0x9
	.long	.LASF1340
	.long	0xa71b
	.uleb128 0x28
	.long	.LASF1370
	.byte	0x2
	.value	0x455
	.byte	0xc
	.long	0x62f
	.byte	0
	.uleb128 0xb
	.long	0x3d50
	.long	0xc6b6
	.byte	0x3
	.long	0xc6cd
	.uleb128 0x9
	.long	.LASF1340
	.long	0xa71b
	.uleb128 0x28
	.long	.LASF1370
	.byte	0x2
	.value	0x4b0
	.byte	0xc
	.long	0x62f
	.byte	0
	.uleb128 0xb
	.long	0x3cdd
	.long	0xc6db
	.byte	0x3
	.long	0xc6e5
	.uleb128 0x9
	.long	.LASF1340
	.long	0xa71b
	.byte	0
	.uleb128 0x13
	.long	0x752d
	.byte	0x3
	.long	0xc721
	.uleb128 0xa
	.long	.LASF60
	.long	0xa649
	.uleb128 0xf
	.string	"_Tp"
	.long	0xa4c5
	.uleb128 0x12
	.long	.LASF1338
	.byte	0x8
	.value	0x43a
	.byte	0x1f
	.long	0xa649
	.uleb128 0x12
	.long	.LASF1339
	.byte	0x8
	.value	0x43a
	.byte	0x39
	.long	0xa649
	.uleb128 0x1
	.long	0xa67b
	.byte	0
	.uleb128 0xb
	.long	0x362e
	.long	0xc72f
	.byte	0x3
	.long	0xc739
	.uleb128 0x9
	.long	.LASF1340
	.long	0xa6d0
	.byte	0
	.uleb128 0xb
	.long	0x37b2
	.long	0xc747
	.byte	0x3
	.long	0xc76b
	.uleb128 0x9
	.long	.LASF1340
	.long	0xa6d0
	.uleb128 0xe
	.string	"__p"
	.byte	0x2
	.value	0x18a
	.byte	0x1d
	.long	0x356c
	.uleb128 0xe
	.string	"__n"
	.byte	0x2
	.value	0x18a
	.byte	0x29
	.long	0x2bc
	.byte	0
	.uleb128 0xb
	.long	0x31da
	.long	0xc779
	.byte	0x2
	.long	0xc783
	.uleb128 0x9
	.long	.LASF1340
	.long	0xa63a
	.byte	0
	.uleb128 0x3d
	.long	0xc76b
	.long	0xc790
	.long	0xc796
	.uleb128 0x3
	.long	0xc779
	.byte	0
	.uleb128 0xb
	.long	0x3508
	.long	0xc7a4
	.byte	0x2
	.long	0xc7ae
	.uleb128 0x9
	.long	.LASF1340
	.long	0xa699
	.byte	0
	.uleb128 0x3d
	.long	0xc796
	.long	0xc7bb
	.long	0xc7c1
	.uleb128 0x3
	.long	0xc7a4
	.byte	0
	.uleb128 0xb
	.long	0x3340
	.long	0xc7cf
	.byte	0x2
	.long	0xc7d9
	.uleb128 0x9
	.long	.LASF1340
	.long	0xa671
	.byte	0
	.uleb128 0x3d
	.long	0xc7c1
	.long	0xc7e6
	.long	0xc7ec
	.uleb128 0x3
	.long	0xc7cf
	.byte	0
	.uleb128 0xb
	.long	0x1b72
	.long	0xc7fa
	.byte	0x1
	.long	0xc84e
	.uleb128 0x9
	.long	.LASF1340
	.long	0xa11a
	.uleb128 0xe
	.string	"__n"
	.byte	0x7
	.value	0x113
	.byte	0x1b
	.long	0x2bc
	.uleb128 0x12
	.long	.LASF1343
	.byte	0x7
	.value	0x113
	.byte	0x32
	.long	0xa124
	.uleb128 0x28
	.long	.LASF1390
	.byte	0x7
	.value	0x115
	.byte	0x17
	.long	0x1349
	.uleb128 0xce
	.long	0xc83e
	.uleb128 0x28
	.long	.LASF1368
	.byte	0x7
	.value	0x11a
	.byte	0xb
	.long	0x11f9
	.byte	0
	.uleb128 0x44
	.uleb128 0x28
	.long	.LASF1391
	.byte	0x7
	.value	0x120
	.byte	0x14
	.long	0x1349
	.byte	0
	.byte	0
	.uleb128 0x13
	.long	0x755c
	.byte	0x3
	.long	0xc88a
	.uleb128 0xa
	.long	.LASF60
	.long	0xa075
	.uleb128 0xf
	.string	"_Tp"
	.long	0x37
	.uleb128 0x12
	.long	.LASF1338
	.byte	0x8
	.value	0x43a
	.byte	0x1f
	.long	0xa075
	.uleb128 0x12
	.long	.LASF1339
	.byte	0x8
	.value	0x43a
	.byte	0x39
	.long	0xa075
	.uleb128 0x1
	.long	0xa0a7
	.byte	0
	.uleb128 0xb
	.long	0xfcb
	.long	0xc898
	.byte	0x3
	.long	0xc8a2
	.uleb128 0x9
	.long	.LASF1340
	.long	0xa0fc
	.byte	0
	.uleb128 0xb
	.long	0x117a
	.long	0xc8b0
	.byte	0x3
	.long	0xc8d4
	.uleb128 0x9
	.long	.LASF1340
	.long	0xa0fc
	.uleb128 0xe
	.string	"__p"
	.byte	0x2
	.value	0x18a
	.byte	0x1d
	.long	0xee8
	.uleb128 0xe
	.string	"__n"
	.byte	0x2
	.value	0x18a
	.byte	0x29
	.long	0x2bc
	.byte	0
	.uleb128 0xb
	.long	0xb70
	.long	0xc8e2
	.byte	0x2
	.long	0xc8ec
	.uleb128 0x9
	.long	.LASF1340
	.long	0xa066
	.byte	0
	.uleb128 0x1b
	.long	0xc8d4
	.long	.LASF1392
	.long	0xc8fd
	.long	0xc903
	.uleb128 0x3
	.long	0xc8e2
	.byte	0
	.uleb128 0xb
	.long	0xe71
	.long	0xc911
	.byte	0x2
	.long	0xc91b
	.uleb128 0x9
	.long	.LASF1340
	.long	0xa0c5
	.byte	0
	.uleb128 0x1b
	.long	0xc903
	.long	.LASF1393
	.long	0xc92c
	.long	0xc932
	.uleb128 0x3
	.long	0xc911
	.byte	0
	.uleb128 0xb
	.long	0xcbb
	.long	0xc940
	.byte	0x2
	.long	0xc94a
	.uleb128 0x9
	.long	.LASF1340
	.long	0xa09d
	.byte	0
	.uleb128 0x1b
	.long	0xc932
	.long	.LASF1394
	.long	0xc95b
	.long	0xc961
	.uleb128 0x3
	.long	0xc940
	.byte	0
	.uleb128 0xb
	.long	0x170b
	.long	0xc96f
	.byte	0x3
	.long	0xc986
	.uleb128 0x9
	.long	.LASF1340
	.long	0xa142
	.uleb128 0x28
	.long	.LASF1370
	.byte	0x2
	.value	0x455
	.byte	0xc
	.long	0x62f
	.byte	0
	.uleb128 0x13
	.long	0x758f
	.byte	0x3
	.long	0xc9c1
	.uleb128 0xf
	.string	"_Tp"
	.long	0x30
	.uleb128 0x12
	.long	.LASF1343
	.byte	0x11
	.value	0xe1e
	.byte	0x16
	.long	0xa888
	.uleb128 0x12
	.long	.LASF1395
	.byte	0x11
	.value	0xe1e
	.byte	0x28
	.long	0xa888
	.uleb128 0x12
	.long	.LASF1396
	.byte	0x11
	.value	0xe1e
	.byte	0x39
	.long	0xa888
	.byte	0
	.uleb128 0xb
	.long	0x6618
	.long	0xc9cf
	.byte	0x3
	.long	0xc9d9
	.uleb128 0x9
	.long	.LASF1340
	.long	0xa90f
	.byte	0
	.uleb128 0x13
	.long	0x75bd
	.byte	0x3
	.long	0xca1d
	.uleb128 0xa
	.long	.LASF60
	.long	0x8fde
	.uleb128 0xf
	.string	"_Tp"
	.long	0x30
	.uleb128 0x12
	.long	.LASF1338
	.byte	0xa
	.value	0x3e9
	.byte	0x1b
	.long	0x8fde
	.uleb128 0x12
	.long	.LASF1339
	.byte	0xa
	.value	0x3e9
	.byte	0x35
	.long	0x8fde
	.uleb128 0x12
	.long	.LASF857
	.byte	0xa
	.value	0x3e9
	.byte	0x48
	.long	0xa888
	.byte	0
	.uleb128 0xb
	.long	0x916a
	.long	0xca2b
	.byte	0x3
	.long	0xca42
	.uleb128 0x9
	.long	.LASF1340
	.long	0xa964
	.uleb128 0xe
	.string	"__n"
	.byte	0x3
	.value	0x47b
	.byte	0x21
	.long	0x9138
	.byte	0
	.uleb128 0xb
	.long	0x622d
	.long	0xca50
	.byte	0x3
	.long	0xca5a
	.uleb128 0x9
	.long	.LASF1340
	.long	0xa90f
	.byte	0
	.uleb128 0xb
	.long	0x614f
	.long	0xca68
	.byte	0x2
	.long	0xca72
	.uleb128 0x9
	.long	.LASF1340
	.long	0xa90f
	.byte	0
	.uleb128 0x1b
	.long	0xca5a
	.long	.LASF1397
	.long	0xca83
	.long	0xca89
	.uleb128 0x3
	.long	0xca68
	.byte	0
	.uleb128 0xb
	.long	0x5fe0
	.long	0xca97
	.byte	0x2
	.long	0xcabb
	.uleb128 0x9
	.long	.LASF1340
	.long	0xa90f
	.uleb128 0xe
	.string	"__n"
	.byte	0x2
	.value	0x240
	.byte	0x18
	.long	0x6004
	.uleb128 0xe
	.string	"__a"
	.byte	0x2
	.value	0x240
	.byte	0x33
	.long	0xa914
	.byte	0
	.uleb128 0x1b
	.long	0xca89
	.long	.LASF1398
	.long	0xcacc
	.long	0xcadc
	.uleb128 0x3
	.long	0xca97
	.uleb128 0x3
	.long	0xcaa0
	.uleb128 0x3
	.long	0xcaad
	.byte	0
	.uleb128 0xb
	.long	0x59e1
	.long	0xcaea
	.byte	0x2
	.long	0xcaf4
	.uleb128 0x9
	.long	.LASF1340
	.long	0xa892
	.byte	0
	.uleb128 0x1b
	.long	0xcadc
	.long	.LASF1399
	.long	0xcb05
	.long	0xcb0b
	.uleb128 0x3
	.long	0xcaea
	.byte	0
	.uleb128 0xb
	.long	0x5983
	.long	0xcb19
	.byte	0x2
	.long	0xcb23
	.uleb128 0x9
	.long	.LASF1340
	.long	0xa892
	.byte	0
	.uleb128 0x1b
	.long	0xcb0b
	.long	.LASF1400
	.long	0xcb34
	.long	0xcb3a
	.uleb128 0x3
	.long	0xcb19
	.byte	0
	.uleb128 0xb
	.long	0x50f6
	.long	0xcb48
	.byte	0x3
	.long	0xcb5f
	.uleb128 0x9
	.long	.LASF1340
	.long	0xa7fc
	.uleb128 0xe
	.string	"__n"
	.byte	0x2
	.value	0x4e3
	.byte	0x1c
	.long	0x4c1c
	.byte	0
	.uleb128 0xb
	.long	0x3b95
	.long	0xcb6d
	.byte	0x3
	.long	0xcb77
	.uleb128 0x9
	.long	.LASF1340
	.long	0xa6f3
	.byte	0
	.uleb128 0xb
	.long	0x3b50
	.long	0xcb85
	.byte	0x3
	.long	0xcb8f
	.uleb128 0x9
	.long	.LASF1340
	.long	0xa6f3
	.byte	0
	.uleb128 0xb
	.long	0x4d67
	.long	0xcb9d
	.byte	0x2
	.long	0xcba7
	.uleb128 0x9
	.long	.LASF1340
	.long	0xa7fc
	.byte	0
	.uleb128 0x1b
	.long	0xcb8f
	.long	.LASF1401
	.long	0xcbb8
	.long	0xcbbe
	.uleb128 0x3
	.long	0xcb9d
	.byte	0
	.uleb128 0xb
	.long	0x4c29
	.long	0xcbcc
	.byte	0x2
	.long	0xcbfd
	.uleb128 0x9
	.long	.LASF1340
	.long	0xa7fc
	.uleb128 0xe
	.string	"__n"
	.byte	0x2
	.value	0x24d
	.byte	0x18
	.long	0x4c1c
	.uleb128 0x12
	.long	.LASF857
	.byte	0x2
	.value	0x24d
	.byte	0x2f
	.long	0xa806
	.uleb128 0xe
	.string	"__a"
	.byte	0x2
	.value	0x24e
	.byte	0x1d
	.long	0xa801
	.byte	0
	.uleb128 0x1b
	.long	0xcbbe
	.long	.LASF1402
	.long	0xcc0e
	.long	0xcc23
	.uleb128 0x3
	.long	0xcbcc
	.uleb128 0x3
	.long	0xcbd5
	.uleb128 0x3
	.long	0xcbe2
	.uleb128 0x3
	.long	0xcbef
	.byte	0
	.uleb128 0xb
	.long	0x45f9
	.long	0xcc31
	.byte	0x2
	.long	0xcc3b
	.uleb128 0x9
	.long	.LASF1340
	.long	0xa77f
	.byte	0
	.uleb128 0x1b
	.long	0xcc23
	.long	.LASF1403
	.long	0xcc4c
	.long	0xcc52
	.uleb128 0x3
	.long	0xcc31
	.byte	0
	.uleb128 0xb
	.long	0x459b
	.long	0xcc60
	.byte	0x2
	.long	0xcc6a
	.uleb128 0x9
	.long	.LASF1340
	.long	0xa77f
	.byte	0
	.uleb128 0x1b
	.long	0xcc52
	.long	.LASF1404
	.long	0xcc7b
	.long	0xcc81
	.uleb128 0x3
	.long	0xcc60
	.byte	0
	.uleb128 0xb
	.long	0x3efe
	.long	0xcc8f
	.byte	0x3
	.long	0xcca6
	.uleb128 0x9
	.long	.LASF1340
	.long	0xa6f3
	.uleb128 0xe
	.string	"__x"
	.byte	0x2
	.value	0x57e
	.byte	0x23
	.long	0xa6fd
	.byte	0
	.uleb128 0xb
	.long	0x1955
	.long	0xccb4
	.byte	0x3
	.long	0xccbe
	.uleb128 0x9
	.long	.LASF1340
	.long	0xa11a
	.byte	0
	.uleb128 0xb
	.long	0x2969
	.long	0xcccc
	.byte	0x3
	.long	0xccd6
	.uleb128 0x9
	.long	.LASF1340
	.long	0xa5fe
	.byte	0
	.uleb128 0xb
	.long	0x291c
	.long	0xcce4
	.byte	0x3
	.long	0xccee
	.uleb128 0x9
	.long	.LASF1340
	.long	0xa5fe
	.byte	0
	.uleb128 0xb
	.long	0x3d88
	.long	0xccfc
	.byte	0x1
	.long	0xcd2c
	.uleb128 0x9
	.long	.LASF1340
	.long	0xa6f3
	.uleb128 0x26
	.string	"__n"
	.byte	0x7
	.byte	0x47
	.byte	0x17
	.long	0x3957
	.uleb128 0x44
	.uleb128 0x39
	.long	.LASF1405
	.byte	0x7
	.byte	0x4d
	.byte	0x14
	.long	0x3964
	.uleb128 0x39
	.long	.LASF1368
	.byte	0x7
	.byte	0x4e
	.byte	0xc
	.long	0x38af
	.byte	0
	.byte	0
	.uleb128 0xb
	.long	0x2abd
	.long	0xcd3a
	.byte	0x3
	.long	0xcd51
	.uleb128 0x9
	.long	.LASF1340
	.long	0xa626
	.uleb128 0x28
	.long	.LASF1370
	.byte	0x2
	.value	0x455
	.byte	0xc
	.long	0x62f
	.byte	0
	.uleb128 0xb
	.long	0x3a8a
	.long	0xcd5f
	.byte	0x2
	.long	0xcd69
	.uleb128 0x9
	.long	.LASF1340
	.long	0xa6f3
	.byte	0
	.uleb128 0x3d
	.long	0xcd51
	.long	0xcd76
	.long	0xcd7c
	.uleb128 0x3
	.long	0xcd5f
	.byte	0
	.uleb128 0xb
	.long	0x3770
	.long	0xcd8a
	.byte	0x2
	.long	0xcda3
	.uleb128 0x9
	.long	.LASF1340
	.long	0xa6d0
	.uleb128 0x44
	.uleb128 0x5d
	.string	"__n"
	.byte	0x2
	.value	0x177
	.byte	0xc
	.long	0x62f
	.byte	0
	.byte	0
	.uleb128 0x3d
	.long	0xcd7c
	.long	0xcdb0
	.long	0xcdc1
	.uleb128 0x3
	.long	0xcd8a
	.uleb128 0x74
	.long	0xcd93
	.uleb128 0x3e
	.long	0xcd94
	.byte	0
	.byte	0
	.uleb128 0xb
	.long	0x3391
	.long	0xcdcf
	.byte	0x2
	.long	0xcdd9
	.uleb128 0x9
	.long	.LASF1340
	.long	0xa671
	.byte	0
	.uleb128 0x3d
	.long	0xcdc1
	.long	0xcde6
	.long	0xcdec
	.uleb128 0x3
	.long	0xcdcf
	.byte	0
	.uleb128 0xb
	.long	0x358f
	.long	0xcdfa
	.byte	0x2
	.long	0xce04
	.uleb128 0x9
	.long	.LASF1340
	.long	0xa6b2
	.byte	0
	.uleb128 0x3d
	.long	0xcdec
	.long	0xce11
	.long	0xce17
	.uleb128 0x3
	.long	0xcdfa
	.byte	0
	.uleb128 0xb
	.long	0x1516
	.long	0xce25
	.byte	0x3
	.long	0xce49
	.uleb128 0x9
	.long	.LASF1340
	.long	0xa11a
	.uleb128 0xe
	.string	"__n"
	.byte	0x2
	.value	0x361
	.byte	0x18
	.long	0x133c
	.uleb128 0x12
	.long	.LASF1343
	.byte	0x2
	.value	0x361
	.byte	0x2f
	.long	0xa124
	.byte	0
	.uleb128 0xb
	.long	0x148c
	.long	0xce57
	.byte	0x2
	.long	0xce61
	.uleb128 0x9
	.long	.LASF1340
	.long	0xa11a
	.byte	0
	.uleb128 0x1b
	.long	0xce49
	.long	.LASF1406
	.long	0xce72
	.long	0xce78
	.uleb128 0x3
	.long	0xce57
	.byte	0
	.uleb128 0xb
	.long	0x1131
	.long	0xce86
	.byte	0x2
	.long	0xce9f
	.uleb128 0x9
	.long	.LASF1340
	.long	0xa0fc
	.uleb128 0x44
	.uleb128 0x5d
	.string	"__n"
	.byte	0x2
	.value	0x177
	.byte	0xc
	.long	0x62f
	.byte	0
	.byte	0
	.uleb128 0x1b
	.long	0xce78
	.long	.LASF1407
	.long	0xceb0
	.long	0xcec1
	.uleb128 0x3
	.long	0xce86
	.uleb128 0x74
	.long	0xce8f
	.uleb128 0x3e
	.long	0xce90
	.byte	0
	.byte	0
	.uleb128 0xb
	.long	0xd19
	.long	0xcecf
	.byte	0x2
	.long	0xced9
	.uleb128 0x9
	.long	.LASF1340
	.long	0xa09d
	.byte	0
	.uleb128 0x1b
	.long	0xcec1
	.long	.LASF1408
	.long	0xceea
	.long	0xcef0
	.uleb128 0x3
	.long	0xcecf
	.byte	0
	.uleb128 0xb
	.long	0xf0b
	.long	0xcefe
	.byte	0x2
	.long	0xcf08
	.uleb128 0x9
	.long	.LASF1340
	.long	0xa0de
	.byte	0
	.uleb128 0x1b
	.long	0xcef0
	.long	.LASF1409
	.long	0xcf19
	.long	0xcf1f
	.uleb128 0x3
	.long	0xcefe
	.byte	0
	.uleb128 0xb
	.long	0x2c87
	.long	0xcf2d
	.byte	0x3
	.long	0xcf37
	.uleb128 0x9
	.long	.LASF1340
	.long	0xa5fe
	.byte	0
	.uleb128 0xcf
	.long	.LASF1410
	.byte	0x1
	.byte	0x1c
	.byte	0xb
	.long	.LASF1411
	.long	0xa151
	.long	.LLRL0
	.uleb128 0x1
	.byte	0x9c
	.long	0x120ba
	.uleb128 0x9b
	.long	.LASF1412
	.byte	0x40
	.long	0xa61c
	.long	.LLST1
	.long	.LVUS1
	.uleb128 0x9b
	.long	.LASF1413
	.byte	0x54
	.long	0x30
	.long	.LLST2
	.long	.LVUS2
	.uleb128 0x39
	.long	.LASF1303
	.byte	0x1
	.byte	0x1d
	.byte	0x12
	.long	0x7681
	.uleb128 0x39
	.long	.LASF1304
	.byte	0x1
	.byte	0x1e
	.byte	0x12
	.long	0x7681
	.uleb128 0x80
	.string	"w"
	.byte	0x1f
	.byte	0xf
	.long	0x57
	.uleb128 0x80
	.string	"h"
	.byte	0x20
	.byte	0xf
	.long	0x57
	.uleb128 0x35
	.long	.LASF1414
	.byte	0x22
	.byte	0xf
	.long	0xa151
	.long	.LLST3
	.long	.LVUS3
	.uleb128 0x35
	.long	.LASF1415
	.byte	0x27
	.byte	0x1c
	.long	0x382a
	.long	.LLST4
	.long	.LVUS4
	.uleb128 0x39
	.long	.LASF1416
	.byte	0x1
	.byte	0x3e
	.byte	0x16
	.long	0x4ad9
	.uleb128 0x35
	.long	.LASF1417
	.byte	0x50
	.byte	0xf
	.long	0x57
	.long	.LLST5
	.long	.LVUS5
	.uleb128 0x35
	.long	.LASF1418
	.byte	0x51
	.byte	0xf
	.long	0x57
	.long	.LLST6
	.long	.LVUS6
	.uleb128 0x39
	.long	.LASF1419
	.byte	0x1
	.byte	0x53
	.byte	0x18
	.long	0x5ec1
	.uleb128 0x40
	.long	.LLRL112
	.long	0xd80b
	.uleb128 0x29
	.string	"sub"
	.byte	0x29
	.byte	0x10
	.long	0xa57c
	.long	.LLST113
	.long	.LVUS113
	.uleb128 0x9c
	.long	.LASF1420
	.long	0xa61c
	.long	.LLST114
	.long	.LVUS114
	.uleb128 0x5e
	.long	.LASF1421
	.long	0x290f
	.uleb128 0x5e
	.long	.LASF1422
	.long	0x290f
	.uleb128 0x40
	.long	.LLRL121
	.long	0xd734
	.uleb128 0x29
	.string	"p"
	.byte	0x2a
	.byte	0x13
	.long	0xa4c5
	.long	.LLST122
	.long	.LVUS122
	.uleb128 0x35
	.long	.LASF1423
	.byte	0x2b
	.byte	0xf
	.long	0x30
	.long	.LLST123
	.long	.LVUS123
	.uleb128 0x35
	.long	.LASF1424
	.byte	0x2c
	.byte	0xf
	.long	0x30
	.long	.LLST124
	.long	.LVUS124
	.uleb128 0x29
	.string	"dx"
	.byte	0x2f
	.byte	0xf
	.long	0x30
	.long	.LLST125
	.long	.LVUS125
	.uleb128 0x29
	.string	"dy"
	.byte	0x30
	.byte	0xf
	.long	0x30
	.long	.LLST126
	.long	.LVUS126
	.uleb128 0x22
	.long	0x12501
	.quad	.LBI2523
	.value	.LVU92
	.quad	.LBB2523
	.quad	.LBE2523-.LBB2523
	.byte	0x1
	.byte	0x2d
	.byte	0x2b
	.long	0xd0e0
	.uleb128 0x4
	.long	0x1250b
	.long	.LLST127
	.long	.LVUS127
	.byte	0
	.uleb128 0x22
	.long	0x12501
	.quad	.LBI2525
	.value	.LVU98
	.quad	.LBB2525
	.quad	.LBE2525-.LBB2525
	.byte	0x1
	.byte	0x2e
	.byte	0x2b
	.long	0xd114
	.uleb128 0x4
	.long	0x1250b
	.long	.LLST128
	.long	.LVUS128
	.byte	0
	.uleb128 0x22
	.long	0x12116
	.quad	.LBI2527
	.value	.LVU110
	.quad	.LBB2527
	.quad	.LBE2527-.LBB2527
	.byte	0x1
	.byte	0x35
	.byte	0x1d
	.long	0xd145
	.uleb128 0x3
	.long	0x12129
	.uleb128 0x3
	.long	0x12136
	.byte	0
	.uleb128 0x25
	.long	0x120ea
	.quad	.LBI2528
	.value	.LVU113
	.long	.LLRL129
	.byte	0x1
	.byte	0x36
	.byte	0x1d
	.long	0xd172
	.uleb128 0x4
	.long	0x120fd
	.long	.LLST130
	.long	.LVUS130
	.uleb128 0x3
	.long	0x12109
	.byte	0
	.uleb128 0x22
	.long	0x12116
	.quad	.LBI2531
	.value	.LVU119
	.quad	.LBB2531
	.quad	.LBE2531-.LBB2531
	.byte	0x1
	.byte	0x37
	.byte	0x1d
	.long	0xd1a3
	.uleb128 0x3
	.long	0x12129
	.uleb128 0x3
	.long	0x12136
	.byte	0
	.uleb128 0x25
	.long	0x120ea
	.quad	.LBI2532
	.value	.LVU122
	.long	.LLRL131
	.byte	0x1
	.byte	0x38
	.byte	0x1d
	.long	0xd1d0
	.uleb128 0x4
	.long	0x120fd
	.long	.LLST132
	.long	.LVUS132
	.uleb128 0x3
	.long	0x12109
	.byte	0
	.uleb128 0x25
	.long	0xcca6
	.quad	.LBI2535
	.value	.LVU128
	.long	.LLRL133
	.byte	0x1
	.byte	0x39
	.byte	0x23
	.long	0xd1f8
	.uleb128 0x4
	.long	0xccb4
	.long	.LLST134
	.long	.LVUS134
	.byte	0
	.uleb128 0x5f
	.long	0xcc81
	.quad	.LBI2539
	.value	.LVU147
	.long	.LLRL135
	.byte	0x1
	.byte	0x3b
	.byte	0x19
	.uleb128 0x4
	.long	0xcc8f
	.long	.LLST136
	.long	.LVUS136
	.uleb128 0x4
	.long	0xcc98
	.long	.LLST137
	.long	.LVUS137
	.uleb128 0x3b
	.long	0xc548
	.quad	.LBI2541
	.value	.LVU149
	.long	.LLRL138
	.byte	0x2
	.value	0x583
	.byte	0x1e
	.long	0xd29a
	.uleb128 0x4
	.long	0xc56a
	.long	.LLST139
	.long	.LVUS139
	.uleb128 0x3
	.long	0xc577
	.uleb128 0x4
	.long	0xc58e
	.long	.LLST140
	.long	.LVUS140
	.uleb128 0x18
	.long	0xbb02
	.quad	.LBI2542
	.value	.LVU150
	.long	.LLRL138
	.byte	0x8
	.value	0x2ca
	.byte	0x11
	.uleb128 0x4
	.long	0xbb28
	.long	.LLST141
	.long	.LVUS141
	.uleb128 0x3
	.long	0xbb31
	.uleb128 0x4
	.long	0xbb46
	.long	.LLST142
	.long	.LVUS142
	.byte	0
	.byte	0
	.uleb128 0x18
	.long	0xc4b0
	.quad	.LBI2547
	.value	.LVU1355
	.long	.LLRL143
	.byte	0x2
	.value	0x589
	.byte	0x15
	.uleb128 0x4
	.long	0xc4cd
	.long	.LLST144
	.long	.LVUS144
	.uleb128 0x4
	.long	0xc4e4
	.long	.LLST145
	.long	.LVUS145
	.uleb128 0x3e
	.long	0xc4ea
	.uleb128 0x30
	.long	0xc4f7
	.long	.LLST146
	.long	.LVUS146
	.uleb128 0x30
	.long	0xc504
	.long	.LLST147
	.long	.LVUS147
	.uleb128 0x30
	.long	0xc511
	.long	.LLST148
	.long	.LVUS148
	.uleb128 0x30
	.long	0xc51e
	.long	.LLST149
	.long	.LVUS149
	.uleb128 0x30
	.long	0xc52b
	.long	.LLST150
	.long	.LVUS150
	.uleb128 0x3b
	.long	0xbac3
	.quad	.LBI2549
	.value	.LVU1356
	.long	.LLRL151
	.byte	0x7
	.value	0x23e
	.byte	0x2b
	.long	0xd3e5
	.uleb128 0x4
	.long	0xbad1
	.long	.LLST152
	.long	.LVUS152
	.uleb128 0x4
	.long	0xbada
	.long	.LLST153
	.long	.LVUS153
	.uleb128 0x4
	.long	0xbae7
	.long	.LLST154
	.long	.LVUS154
	.uleb128 0x3e
	.long	0xbaf4
	.uleb128 0x75
	.long	0xc683
	.quad	.LBI2551
	.value	.LVU1357
	.quad	.LBB2551
	.quad	.LBE2551-.LBB2551
	.value	0x892
	.byte	0x17
	.byte	0x1
	.long	0xd39a
	.uleb128 0x4
	.long	0xc691
	.long	.LLST155
	.long	.LVUS155
	.uleb128 0x30
	.long	0xc69a
	.long	.LLST156
	.long	.LVUS156
	.byte	0
	.uleb128 0x4c
	.long	0xb383
	.quad	.LBI2553
	.value	.LVU1366
	.long	.LLRL157
	.byte	0x2
	.value	0x895
	.byte	0x2d
	.byte	0x2
	.long	0xd3c9
	.uleb128 0x3
	.long	0xb396
	.uleb128 0x4
	.long	0xb3a3
	.long	.LLST158
	.long	.LVUS158
	.byte	0
	.uleb128 0x31
	.quad	.LVL280
	.long	0x6d8b
	.uleb128 0x20
	.uleb128 0x1
	.byte	0x55
	.uleb128 0x9
	.byte	0x3
	.quad	.LC2
	.byte	0
	.byte	0
	.uleb128 0x3b
	.long	0xc65e
	.quad	.LBI2557
	.value	.LVU1368
	.long	.LLRL159
	.byte	0x7
	.value	0x244
	.byte	0x2c
	.long	0xd48b
	.uleb128 0x4
	.long	0xc66c
	.long	.LLST160
	.long	.LVUS160
	.uleb128 0x3
	.long	0xc675
	.uleb128 0x60
	.long	0xbbcc
	.quad	.LBI2559
	.value	.LVU1369
	.long	.LLRL161
	.byte	0x2
	.value	0x185
	.byte	0x21
	.byte	0x1
	.uleb128 0x4
	.long	0xbbd6
	.long	.LLST162
	.long	.LVUS162
	.uleb128 0x3
	.long	0xbbe3
	.uleb128 0x18
	.long	0xb3b1
	.quad	.LBI2560
	.value	.LVU1370
	.long	.LLRL163
	.byte	0x8
	.value	0x27e
	.byte	0x1c
	.uleb128 0x4
	.long	0xb3d4
	.long	.LLST164
	.long	.LVUS164
	.uleb128 0x4
	.long	0xb3bf
	.long	.LLST165
	.long	.LVUS165
	.uleb128 0x3
	.long	0xb3c8
	.uleb128 0x31
	.quad	.LVL230
	.long	0xa9ee
	.uleb128 0x20
	.uleb128 0x1
	.byte	0x55
	.uleb128 0x4
	.byte	0x77
	.sleb128 232
	.byte	0x6
	.byte	0
	.byte	0
	.byte	0
	.byte	0
	.uleb128 0x6b
	.long	0xc538
	.long	.LLRL166
	.uleb128 0x3e
	.long	0xc539
	.uleb128 0x4c
	.long	0xc548
	.quad	.LBI2571
	.value	.LVU1380
	.long	.LLRL167
	.byte	0x7
	.value	0x252
	.byte	0x1a
	.byte	0x1
	.long	0xd51c
	.uleb128 0x4
	.long	0xc56a
	.long	.LLST168
	.long	.LVUS168
	.uleb128 0x4
	.long	0xc577
	.long	.LLST169
	.long	.LVUS169
	.uleb128 0x4
	.long	0xc58e
	.long	.LLST170
	.long	.LVUS170
	.uleb128 0x18
	.long	0xbb02
	.quad	.LBI2572
	.value	.LVU1381
	.long	.LLRL167
	.byte	0x8
	.value	0x2ca
	.byte	0x11
	.uleb128 0x4
	.long	0xbb28
	.long	.LLST171
	.long	.LVUS171
	.uleb128 0x4
	.long	0xbb31
	.long	.LLST172
	.long	.LVUS172
	.uleb128 0x4
	.long	0xbb46
	.long	.LLST173
	.long	.LVUS173
	.byte	0
	.byte	0
	.uleb128 0x2e
	.long	0xba62
	.quad	.LBI2579
	.value	.LVU1378
	.quad	.LBB2579
	.quad	.LBE2579-.LBB2579
	.byte	0x7
	.value	0x248
	.byte	0xf
	.long	0xd570
	.uleb128 0x4
	.long	0xba70
	.long	.LLST174
	.long	.LVUS174
	.uleb128 0x4
	.long	0xba79
	.long	.LLST175
	.long	.LVUS175
	.uleb128 0x3
	.long	0xba86
	.uleb128 0x4
	.long	0xba93
	.long	.LLST176
	.long	.LVUS176
	.byte	0
	.uleb128 0x3b
	.long	0xc604
	.quad	.LBI2582
	.value	.LVU1385
	.long	.LLRL177
	.byte	0x7
	.value	0x25f
	.byte	0x26
	.long	0xd632
	.uleb128 0x4
	.long	0xc629
	.long	.LLST178
	.long	.LVUS178
	.uleb128 0x3
	.long	0xc636
	.uleb128 0x4
	.long	0xc643
	.long	.LLST179
	.long	.LVUS179
	.uleb128 0x4
	.long	0xc650
	.long	.LLST180
	.long	.LVUS180
	.uleb128 0x4c
	.long	0xbb4d
	.quad	.LBI2583
	.value	.LVU1386
	.long	.LLRL177
	.byte	0xc
	.value	0x582
	.byte	0x21
	.byte	0x3
	.long	0xd60d
	.uleb128 0x4
	.long	0xbb69
	.long	.LLST181
	.long	.LVUS181
	.uleb128 0x3
	.long	0xbb76
	.uleb128 0x4
	.long	0xbb83
	.long	.LLST182
	.long	.LVUS182
	.uleb128 0x4
	.long	0xbb90
	.long	.LLST183
	.long	.LVUS183
	.uleb128 0x30
	.long	0xbb9d
	.long	.LLST184
	.long	.LVUS184
	.byte	0
	.uleb128 0x31
	.quad	.LVL233
	.long	0x12576
	.uleb128 0x20
	.uleb128 0x1
	.byte	0x55
	.uleb128 0x4
	.byte	0x77
	.sleb128 248
	.byte	0x6
	.uleb128 0x20
	.uleb128 0x1
	.byte	0x54
	.uleb128 0x2
	.byte	0x7f
	.sleb128 0
	.uleb128 0x20
	.uleb128 0x1
	.byte	0x51
	.uleb128 0x4
	.byte	0x77
	.sleb128 272
	.byte	0x6
	.byte	0
	.byte	0
	.uleb128 0x18
	.long	0xba37
	.quad	.LBI2588
	.value	.LVU1394
	.long	.LLRL185
	.byte	0x7
	.value	0x289
	.byte	0x7
	.uleb128 0x4
	.long	0xba45
	.long	.LLST186
	.long	.LVUS186
	.uleb128 0x18
	.long	0xc739
	.quad	.LBI2590
	.value	.LVU1396
	.long	.LLRL187
	.byte	0x2
	.value	0x751
	.byte	0x1b
	.uleb128 0x3
	.long	0xc747
	.uleb128 0x4
	.long	0xc750
	.long	.LLST188
	.long	.LVUS188
	.uleb128 0x3
	.long	0xc75d
	.uleb128 0x18
	.long	0xc739
	.quad	.LBI2592
	.value	.LVU1397
	.long	.LLRL189
	.byte	0x2
	.value	0x18a
	.byte	0x7
	.uleb128 0x3
	.long	0xc747
	.uleb128 0x4
	.long	0xc750
	.long	.LLST190
	.long	.LVUS190
	.uleb128 0x3
	.long	0xc75d
	.uleb128 0x18
	.long	0xbc67
	.quad	.LBI2594
	.value	.LVU1398
	.long	.LLRL191
	.byte	0x2
	.value	0x18e
	.byte	0x13
	.uleb128 0x3
	.long	0xbc71
	.uleb128 0x4
	.long	0xbc7e
	.long	.LLST192
	.long	.LVUS192
	.uleb128 0x3
	.long	0xbc8b
	.uleb128 0x18
	.long	0xb3f2
	.quad	.LBI2595
	.value	.LVU1399
	.long	.LLRL193
	.byte	0x8
	.value	0x2b1
	.byte	0x17
	.uleb128 0x3
	.long	0xb400
	.uleb128 0x4
	.long	0xb409
	.long	.LLST194
	.long	.LVUS194
	.uleb128 0x3
	.long	0xb415
	.uleb128 0x31
	.quad	.LVL237
	.long	0xa9d3
	.uleb128 0x20
	.uleb128 0x1
	.byte	0x55
	.uleb128 0x2
	.byte	0x7f
	.sleb128 0
	.uleb128 0x20
	.uleb128 0x1
	.byte	0x54
	.uleb128 0x5
	.byte	0x7d
	.sleb128 0
	.byte	0x7f
	.sleb128 0
	.byte	0x1c
	.byte	0
	.byte	0
	.byte	0
	.byte	0
	.byte	0
	.byte	0
	.byte	0
	.byte	0
	.byte	0
	.byte	0
	.uleb128 0x25
	.long	0xccd6
	.quad	.LBI2516
	.value	.LVU72
	.long	.LLRL115
	.byte	0x1
	.byte	0x29
	.byte	0x16
	.long	0xd786
	.uleb128 0x4
	.long	0xcce4
	.long	.LLST116
	.long	.LVUS116
	.uleb128 0x18
	.long	0xc5c3
	.quad	.LBI2517
	.value	.LVU73
	.long	.LLRL115
	.byte	0x2
	.value	0x3dd
	.byte	0x10
	.uleb128 0x3
	.long	0xc5d1
	.uleb128 0x4
	.long	0xc5da
	.long	.LLST117
	.long	.LVUS117
	.byte	0
	.byte	0
	.uleb128 0x2f
	.long	0xccbe
	.quad	.LBI2519
	.value	.LVU75
	.long	.LLRL118
	.byte	0x1
	.byte	0x29
	.byte	0x16
	.byte	0x1
	.long	0xd7d9
	.uleb128 0x4
	.long	0xcccc
	.long	.LLST119
	.long	.LVUS119
	.uleb128 0x18
	.long	0xc5c3
	.quad	.LBI2520
	.value	.LVU76
	.long	.LLRL118
	.byte	0x2
	.value	0x3f1
	.byte	0x10
	.uleb128 0x3
	.long	0xc5d1
	.uleb128 0x4
	.long	0xc5da
	.long	.LLST120
	.long	.LVUS120
	.byte	0
	.byte	0
	.uleb128 0x4d
	.long	0x120d2
	.quad	.LBI2628
	.value	.LVU158
	.quad	.LBB2628
	.quad	.LBE2628-.LBB2628
	.byte	0x1
	.byte	0x29
	.byte	0x16
	.byte	0x4
	.uleb128 0x4
	.long	0x120e0
	.long	.LLST195
	.long	.LVUS195
	.byte	0
	.byte	0
	.uleb128 0x40
	.long	.LLRL252
	.long	0xe186
	.uleb128 0x39
	.long	.LASF1425
	.byte	0x1
	.byte	0x40
	.byte	0x1a
	.long	0x4ad9
	.uleb128 0x40
	.long	.LLRL295
	.long	0xda0d
	.uleb128 0x29
	.string	"p"
	.byte	0x41
	.byte	0x1a
	.long	0xa667
	.long	.LLST296
	.long	.LVUS296
	.uleb128 0x9c
	.long	.LASF1420
	.long	0xa711
	.long	.LLST297
	.long	.LVUS297
	.uleb128 0x5e
	.long	.LASF1421
	.long	0x3b43
	.uleb128 0x5e
	.long	.LASF1422
	.long	0x3b43
	.uleb128 0x25
	.long	0xcb77
	.quad	.LBI2765
	.value	.LVU264
	.long	.LLRL298
	.byte	0x1
	.byte	0x41
	.byte	0x1e
	.long	0xd8b0
	.uleb128 0x4
	.long	0xcb85
	.long	.LLST299
	.long	.LVUS299
	.uleb128 0x18
	.long	0xc29d
	.quad	.LBI2766
	.value	.LVU265
	.long	.LLRL298
	.byte	0x2
	.value	0x3dd
	.byte	0x10
	.uleb128 0x3
	.long	0xc2ab
	.uleb128 0x4
	.long	0xc2b4
	.long	.LLST300
	.long	.LVUS300
	.byte	0
	.byte	0
	.uleb128 0x2f
	.long	0xcb5f
	.quad	.LBI2768
	.value	.LVU267
	.long	.LLRL301
	.byte	0x1
	.byte	0x41
	.byte	0x1e
	.byte	0x1
	.long	0xd903
	.uleb128 0x4
	.long	0xcb6d
	.long	.LLST302
	.long	.LVUS302
	.uleb128 0x18
	.long	0xc29d
	.quad	.LBI2769
	.value	.LVU268
	.long	.LLRL301
	.byte	0x2
	.value	0x3f1
	.byte	0x10
	.uleb128 0x3
	.long	0xc2ab
	.uleb128 0x4
	.long	0xc2b4
	.long	.LLST303
	.long	.LVUS303
	.byte	0
	.byte	0
	.uleb128 0x2f
	.long	0x120ba
	.quad	.LBI2771
	.value	.LVU306
	.long	.LLRL304
	.byte	0x1
	.byte	0x41
	.byte	0x1e
	.byte	0x4
	.long	0xd92c
	.uleb128 0x4
	.long	0x120c8
	.long	.LLST305
	.long	.LVUS305
	.byte	0
	.uleb128 0x22
	.long	0xcb3a
	.quad	.LBI2773
	.value	.LVU280
	.quad	.LBB2773
	.quad	.LBE2773-.LBB2773
	.byte	0x1
	.byte	0x42
	.byte	0x35
	.long	0xd965
	.uleb128 0x3
	.long	0xcb48
	.uleb128 0x4
	.long	0xcb51
	.long	.LLST306
	.long	.LVUS306
	.byte	0
	.uleb128 0x22
	.long	0xcb3a
	.quad	.LBI2775
	.value	.LVU288
	.quad	.LBB2775
	.quad	.LBE2775-.LBB2775
	.byte	0x1
	.byte	0x43
	.byte	0x35
	.long	0xd99e
	.uleb128 0x3
	.long	0xcb48
	.uleb128 0x4
	.long	0xcb51
	.long	.LLST307
	.long	.LVUS307
	.byte	0
	.uleb128 0x22
	.long	0xcb3a
	.quad	.LBI2777
	.value	.LVU294
	.quad	.LBB2777
	.quad	.LBE2777-.LBB2777
	.byte	0x1
	.byte	0x44
	.byte	0x35
	.long	0xd9d7
	.uleb128 0x3
	.long	0xcb48
	.uleb128 0x4
	.long	0xcb51
	.long	.LLST308
	.long	.LVUS308
	.byte	0
	.uleb128 0x1d
	.long	0xcb3a
	.quad	.LBI2779
	.value	.LVU300
	.quad	.LBB2779
	.quad	.LBE2779-.LBB2779
	.byte	0x1
	.byte	0x45
	.byte	0x35
	.uleb128 0x3
	.long	0xcb48
	.uleb128 0x4
	.long	0xcb51
	.long	.LLST309
	.long	.LVUS309
	.byte	0
	.byte	0
	.uleb128 0x40
	.long	.LLRL313
	.long	0xda58
	.uleb128 0x29
	.string	"y"
	.byte	0x47
	.byte	0x12
	.long	0x4f
	.long	.LLST314
	.long	.LVUS314
	.uleb128 0x4a
	.long	.LLRL315
	.uleb128 0x29
	.string	"row"
	.byte	0x48
	.byte	0x11
	.long	0x4f
	.long	.LLST316
	.long	.LVUS316
	.uleb128 0x4a
	.long	.LLRL317
	.uleb128 0x29
	.string	"x"
	.byte	0x49
	.byte	0x16
	.long	0x4f
	.long	.LLST318
	.long	.LVUS318
	.byte	0
	.byte	0
	.byte	0
	.uleb128 0x22
	.long	0xcc52
	.quad	.LBI2711
	.value	.LVU213
	.quad	.LBB2711
	.quad	.LBE2711-.LBB2711
	.byte	0x1
	.byte	0x40
	.byte	0x3c
	.long	0xdaac
	.uleb128 0x3
	.long	0xcc60
	.uleb128 0x1d
	.long	0xc481
	.quad	.LBI2712
	.value	.LVU214
	.quad	.LBB2712
	.quad	.LBE2712-.LBB2712
	.byte	0x5
	.byte	0xa8
	.byte	0x24
	.uleb128 0x3
	.long	0xc48f
	.byte	0
	.byte	0
	.uleb128 0x2f
	.long	0xcbbe
	.quad	.LBI2713
	.value	.LVU221
	.long	.LLRL255
	.byte	0x1
	.byte	0x40
	.byte	0x3c
	.byte	0x1
	.long	0xdf26
	.uleb128 0x3
	.long	0xcbcc
	.uleb128 0x4
	.long	0xcbd5
	.long	.LLST256
	.long	.LVUS256
	.uleb128 0x3
	.long	0xcbe2
	.uleb128 0x3
	.long	0xcbef
	.uleb128 0x3b
	.long	0xc42d
	.quad	.LBI2714
	.value	.LVU222
	.long	.LLRL259
	.byte	0x2
	.value	0x24f
	.byte	0x2f
	.long	0xdbe0
	.uleb128 0x4
	.long	0xc437
	.long	.LLST260
	.long	.LVUS260
	.uleb128 0x3
	.long	0xc444
	.uleb128 0x2e
	.long	0xb9a5
	.quad	.LBI2716
	.value	.LVU223
	.quad	.LBB2716
	.quad	.LBE2716-.LBB2716
	.byte	0x2
	.value	0x89d
	.byte	0x18
	.long	0xdb6f
	.uleb128 0x3
	.long	0xb9b3
	.uleb128 0x3
	.long	0xb9bc
	.uleb128 0x1d
	.long	0xb32d
	.quad	.LBI2717
	.value	.LVU224
	.quad	.LBB2717
	.quad	.LBE2717-.LBB2717
	.byte	0x5
	.byte	0xad
	.byte	0x22
	.uleb128 0x3
	.long	0xb33b
	.uleb128 0x3
	.long	0xb344
	.byte	0
	.byte	0
	.uleb128 0x75
	.long	0xcc23
	.quad	.LBI2718
	.value	.LVU226
	.quad	.LBB2718
	.quad	.LBE2718-.LBB2718
	.value	0x89d
	.byte	0x18
	.byte	0x2
	.long	0xdbc4
	.uleb128 0x3
	.long	0xcc31
	.uleb128 0x1d
	.long	0xc452
	.quad	.LBI2719
	.value	.LVU227
	.quad	.LBB2719
	.quad	.LBE2719-.LBB2719
	.byte	0x5
	.byte	0xbd
	.byte	0x27
	.uleb128 0x3
	.long	0xc460
	.byte	0
	.byte	0
	.uleb128 0x31
	.quad	.LVL281
	.long	0x6d8b
	.uleb128 0x20
	.uleb128 0x1
	.byte	0x55
	.uleb128 0x9
	.byte	0x3
	.quad	.LC0
	.byte	0
	.byte	0
	.uleb128 0x4c
	.long	0xc3a9
	.quad	.LBI2721
	.value	.LVU230
	.long	.LLRL264
	.byte	0x2
	.value	0x24f
	.byte	0x2f
	.byte	0x1
	.long	0xddae
	.uleb128 0x3
	.long	0xc3b7
	.uleb128 0x4
	.long	0xc3c0
	.long	.LLST265
	.long	.LVUS265
	.uleb128 0x3
	.long	0xc3cd
	.uleb128 0x2e
	.long	0xb965
	.quad	.LBI2722
	.value	.LVU231
	.quad	.LBB2722
	.quad	.LBE2722-.LBB2722
	.byte	0x2
	.value	0x154
	.byte	0x9
	.long	0xdccc
	.uleb128 0x3
	.long	0xb973
	.uleb128 0x3
	.long	0xb97c
	.uleb128 0x22
	.long	0xb9a5
	.quad	.LBI2723
	.value	.LVU232
	.quad	.LBB2723
	.quad	.LBE2723-.LBB2723
	.byte	0x2
	.byte	0x99
	.byte	0x16
	.long	0xdca2
	.uleb128 0x3
	.long	0xb9b3
	.uleb128 0x3
	.long	0xb9bc
	.uleb128 0x1d
	.long	0xb32d
	.quad	.LBI2724
	.value	.LVU233
	.quad	.LBB2724
	.quad	.LBE2724-.LBB2724
	.byte	0x5
	.byte	0xad
	.byte	0x22
	.uleb128 0x3
	.long	0xb33b
	.uleb128 0x3
	.long	0xb344
	.byte	0
	.byte	0
	.uleb128 0x4d
	.long	0xb2fe
	.quad	.LBI2725
	.value	.LVU235
	.quad	.LBB2725
	.quad	.LBE2725-.LBB2725
	.byte	0x2
	.byte	0x99
	.byte	0x16
	.byte	0x1
	.uleb128 0x3
	.long	0xb30c
	.byte	0
	.byte	0
	.uleb128 0x18
	.long	0xb940
	.quad	.LBI2726
	.value	.LVU237
	.long	.LLRL270
	.byte	0x2
	.value	0x155
	.byte	0x1a
	.uleb128 0x3
	.long	0xb94e
	.uleb128 0x4
	.long	0xb957
	.long	.LLST271
	.long	.LVUS271
	.uleb128 0x18
	.long	0xb2d9
	.quad	.LBI2728
	.value	.LVU238
	.long	.LLRL272
	.byte	0x2
	.value	0x197
	.byte	0x2c
	.uleb128 0x3
	.long	0xb2e7
	.uleb128 0x4
	.long	0xb2f0
	.long	.LLST273
	.long	.LVUS273
	.uleb128 0x76
	.long	0xaf04
	.quad	.LBI2730
	.value	.LVU240
	.quad	.LBB2730
	.quad	.LBE2730-.LBB2730
	.value	0x185
	.byte	0x21
	.byte	0x1
	.uleb128 0x3
	.long	0xaf0e
	.uleb128 0x4
	.long	0xaf1b
	.long	.LLST274
	.long	.LVUS274
	.uleb128 0x14
	.long	0xace4
	.quad	.LBI2731
	.value	.LVU241
	.quad	.LBB2731
	.quad	.LBE2731-.LBB2731
	.byte	0x8
	.value	0x27e
	.byte	0x1c
	.uleb128 0x3
	.long	0xacf2
	.uleb128 0x4
	.long	0xad07
	.long	.LLST275
	.long	.LVUS275
	.uleb128 0x4
	.long	0xacfb
	.long	.LLST276
	.long	.LVUS276
	.uleb128 0x31
	.quad	.LVL49
	.long	0xa9ee
	.uleb128 0x20
	.uleb128 0x1
	.byte	0x55
	.uleb128 0x2
	.byte	0x73
	.sleb128 0
	.byte	0
	.byte	0
	.byte	0
	.byte	0
	.byte	0
	.byte	0
	.uleb128 0x18
	.long	0xc32e
	.quad	.LBI2737
	.value	.LVU245
	.long	.LLRL277
	.byte	0x2
	.value	0x250
	.byte	0x1b
	.uleb128 0x3
	.long	0xc33c
	.uleb128 0x4
	.long	0xc345
	.long	.LLST278
	.long	.LVUS278
	.uleb128 0x3
	.long	0xc352
	.uleb128 0x18
	.long	0xb8b3
	.quad	.LBI2738
	.value	.LVU246
	.long	.LLRL277
	.byte	0x2
	.value	0x7c6
	.byte	0x21
	.uleb128 0x4
	.long	0xb8e1
	.long	.LLST280
	.long	.LVUS280
	.uleb128 0x4
	.long	0xb8ee
	.long	.LLST281
	.long	.LVUS281
	.uleb128 0x3
	.long	0xb8fb
	.uleb128 0x3
	.long	0xb908
	.uleb128 0x18
	.long	0xb25a
	.quad	.LBI2739
	.value	.LVU247
	.long	.LLRL277
	.byte	0xc
	.value	0x30a
	.byte	0x27
	.uleb128 0x4
	.long	0xb27f
	.long	.LLST283
	.long	.LVUS283
	.uleb128 0x4
	.long	0xb28c
	.long	.LLST284
	.long	.LVUS284
	.uleb128 0x3
	.long	0xb299
	.uleb128 0x18
	.long	0xae7a
	.quad	.LBI2741
	.value	.LVU248
	.long	.LLRL286
	.byte	0xc
	.value	0x253
	.byte	0x25
	.uleb128 0x4
	.long	0xae9f
	.long	.LLST287
	.long	.LVUS287
	.uleb128 0x4
	.long	0xaeac
	.long	.LLST288
	.long	.LVUS288
	.uleb128 0x3
	.long	0xaeb9
	.uleb128 0x3e
	.long	0xaec6
	.uleb128 0x2e
	.long	0xaca4
	.quad	.LBI2743
	.value	.LVU249
	.quad	.LBB2743
	.quad	.LBE2743-.LBB2743
	.byte	0xc
	.value	0x1df
	.byte	0x2d
	.long	0xdeca
	.uleb128 0x4
	.long	0xacb2
	.long	.LLST290
	.long	.LVUS290
	.uleb128 0x4
	.long	0xacbb
	.long	.LLST291
	.long	.LVUS291
	.byte	0
	.uleb128 0x9d
	.long	0xac37
	.long	.LLRL292
	.long	0xdefc
	.uleb128 0x3
	.long	0xac59
	.uleb128 0x3
	.long	0xac6e
	.uleb128 0x31
	.quad	.LVL51
	.long	0x12580
	.uleb128 0x20
	.uleb128 0x1
	.byte	0x54
	.uleb128 0x1
	.byte	0x30
	.uleb128 0x20
	.uleb128 0x1
	.byte	0x51
	.uleb128 0x2
	.byte	0x73
	.sleb128 0
	.byte	0
	.byte	0
	.uleb128 0x18
	.long	0xac75
	.quad	.LBI2748
	.value	.LVU258
	.long	.LLRL293
	.byte	0xc
	.value	0x1ef
	.byte	0x5
	.uleb128 0x4
	.long	0xac83
	.long	.LLST294
	.long	.LVUS294
	.byte	0
	.byte	0
	.byte	0
	.byte	0
	.byte	0
	.byte	0
	.uleb128 0x2f
	.long	0xcc23
	.quad	.LBI2785
	.value	.LVU260
	.long	.LLRL310
	.byte	0x1
	.byte	0x40
	.byte	0x3c
	.byte	0x2
	.long	0xdf63
	.uleb128 0x3
	.long	0xcc31
	.uleb128 0x5f
	.long	0xc452
	.quad	.LBI2786
	.value	.LVU261
	.long	.LLRL310
	.byte	0x5
	.byte	0xbd
	.byte	0x27
	.uleb128 0x3
	.long	0xc460
	.byte	0
	.byte	0
	.uleb128 0x1d
	.long	0xcb8f
	.quad	.LBI2802
	.value	.LVU345
	.quad	.LBB2802
	.quad	.LBE2802-.LBB2802
	.byte	0x1
	.byte	0x4e
	.byte	0x5
	.uleb128 0x3
	.long	0xcb9d
	.uleb128 0x2e
	.long	0xc316
	.quad	.LBI2803
	.value	.LVU346
	.quad	.LBB2803
	.quad	.LBE2803-.LBB2803
	.byte	0x2
	.value	0x319
	.byte	0x1c
	.long	0xdfb7
	.uleb128 0x3
	.long	0xc324
	.byte	0
	.uleb128 0x2e
	.long	0xc2da
	.quad	.LBI2804
	.value	.LVU348
	.quad	.LBB2804
	.quad	.LBE2804-.LBB2804
	.byte	0x2
	.value	0x318
	.byte	0xf
	.long	0xdfee
	.uleb128 0x3
	.long	0xc2f6
	.uleb128 0x3
	.long	0xc303
	.uleb128 0x3
	.long	0xc310
	.byte	0
	.uleb128 0x14
	.long	0xc360
	.quad	.LBI2805
	.value	.LVU350
	.quad	.LBB2805
	.quad	.LBE2805-.LBB2805
	.byte	0x2
	.value	0x31b
	.byte	0x7
	.uleb128 0x3
	.long	0xc36e
	.uleb128 0x77
	.long	0xc377
	.quad	.LBB2806
	.quad	.LBE2806-.LBB2806
	.long	0xe10a
	.uleb128 0x30
	.long	0xc378
	.long	.LLST319
	.long	.LVUS319
	.uleb128 0x14
	.long	0xb90e
	.quad	.LBI2807
	.value	.LVU351
	.quad	.LBB2807
	.quad	.LBE2807-.LBB2807
	.byte	0x2
	.value	0x17a
	.byte	0xf
	.uleb128 0x3
	.long	0xb91c
	.uleb128 0x4
	.long	0xb925
	.long	.LLST320
	.long	.LVUS320
	.uleb128 0x4
	.long	0xb932
	.long	.LLST319
	.long	.LVUS319
	.uleb128 0x14
	.long	0xb2a7
	.quad	.LBI2809
	.value	.LVU353
	.quad	.LBB2809
	.quad	.LBE2809-.LBB2809
	.byte	0x2
	.value	0x18e
	.byte	0x13
	.uleb128 0x3
	.long	0xb2b1
	.uleb128 0x4
	.long	0xb2be
	.long	.LLST322
	.long	.LVUS322
	.uleb128 0x3
	.long	0xb2cb
	.uleb128 0x14
	.long	0xaed4
	.quad	.LBI2810
	.value	.LVU354
	.quad	.LBB2810
	.quad	.LBE2810-.LBB2810
	.byte	0x8
	.value	0x2b1
	.byte	0x17
	.uleb128 0x3
	.long	0xaee2
	.uleb128 0x4
	.long	0xaeeb
	.long	.LLST323
	.long	.LVUS323
	.uleb128 0x3
	.long	0xaef7
	.uleb128 0x31
	.quad	.LVL75
	.long	0xa9d3
	.uleb128 0x20
	.uleb128 0x1
	.byte	0x54
	.uleb128 0x2
	.byte	0x73
	.sleb128 0
	.byte	0
	.byte	0
	.byte	0
	.byte	0
	.byte	0
	.uleb128 0x14
	.long	0xc3fc
	.quad	.LBI2812
	.value	.LVU357
	.quad	.LBB2812
	.quad	.LBE2812-.LBB2812
	.byte	0x2
	.value	0x17b
	.byte	0x7
	.uleb128 0x3
	.long	0xc40c
	.uleb128 0x1d
	.long	0xcc23
	.quad	.LBI2813
	.value	.LVU358
	.quad	.LBB2813
	.quad	.LBE2813-.LBB2813
	.byte	0x2
	.byte	0x8b
	.byte	0xe
	.uleb128 0x3
	.long	0xcc31
	.uleb128 0x1d
	.long	0xc452
	.quad	.LBI2814
	.value	.LVU359
	.quad	.LBB2814
	.quad	.LBE2814-.LBB2814
	.byte	0x5
	.byte	0xbd
	.byte	0x27
	.uleb128 0x3
	.long	0xc460
	.byte	0
	.byte	0
	.byte	0
	.byte	0
	.byte	0
	.byte	0
	.uleb128 0x40
	.long	.LLRL382
	.long	0xfb9a
	.uleb128 0x29
	.string	"ty"
	.byte	0x55
	.byte	0xe
	.long	0x4f
	.long	.LLST383
	.long	.LVUS383
	.uleb128 0x4a
	.long	.LLRL384
	.uleb128 0x39
	.long	.LASF1426
	.byte	0x1
	.byte	0x56
	.byte	0x13
	.long	0x57
	.uleb128 0x39
	.long	.LASF1427
	.byte	0x1
	.byte	0x57
	.byte	0x13
	.long	0x57
	.uleb128 0x40
	.long	.LLRL385
	.long	0xfb6f
	.uleb128 0x29
	.string	"tx"
	.byte	0x59
	.byte	0x12
	.long	0x4f
	.long	.LLST386
	.long	.LVUS386
	.uleb128 0x4a
	.long	.LLRL387
	.uleb128 0x39
	.long	.LASF1428
	.byte	0x1
	.byte	0x5a
	.byte	0x17
	.long	0x57
	.uleb128 0x35
	.long	.LASF1429
	.byte	0x5b
	.byte	0x17
	.long	0x57
	.long	.LLST388
	.long	.LVUS388
	.uleb128 0x35
	.long	.LASF1430
	.byte	0x5c
	.byte	0x1a
	.long	0x7681
	.long	.LLST389
	.long	.LVUS389
	.uleb128 0x40
	.long	.LLRL390
	.long	0xf72d
	.uleb128 0x29
	.string	"p"
	.byte	0x62
	.byte	0x23
	.long	0xa667
	.long	.LLST391
	.long	.LVUS391
	.uleb128 0x5e
	.long	.LASF1420
	.long	0xa711
	.uleb128 0x5e
	.long	.LASF1421
	.long	0x3b43
	.uleb128 0x5e
	.long	.LASF1422
	.long	0x3b43
	.uleb128 0x4a
	.long	.LLRL392
	.uleb128 0x39
	.long	.LASF1332
	.byte	0x1
	.byte	0x63
	.byte	0x1b
	.long	0x57
	.uleb128 0x39
	.long	.LASF1333
	.byte	0x1
	.byte	0x64
	.byte	0x1b
	.long	0x57
	.uleb128 0x39
	.long	.LASF1330
	.byte	0x1
	.byte	0x65
	.byte	0x1b
	.long	0x57
	.uleb128 0x39
	.long	.LASF1331
	.byte	0x1
	.byte	0x66
	.byte	0x1b
	.long	0x57
	.uleb128 0x29
	.string	"Avx"
	.byte	0x69
	.byte	0x1e
	.long	0xa47c
	.long	.LLST393
	.long	.LVUS393
	.uleb128 0x29
	.string	"Bvx"
	.byte	0x6a
	.byte	0x1e
	.long	0xa47c
	.long	.LLST394
	.long	.LVUS394
	.uleb128 0x29
	.string	"Cvx"
	.byte	0x6b
	.byte	0x1e
	.long	0xa47c
	.long	.LLST395
	.long	.LVUS395
	.uleb128 0x29
	.string	"Dvx"
	.byte	0x6c
	.byte	0x1e
	.long	0xa47c
	.long	.LLST396
	.long	.LVUS396
	.uleb128 0x39
	.long	.LASF1431
	.byte	0x1
	.byte	0x6e
	.byte	0x1b
	.long	0x57
	.uleb128 0x40
	.long	.LLRL397
	.long	0xf5af
	.uleb128 0x29
	.string	"y"
	.byte	0x70
	.byte	0x1a
	.long	0x4f
	.long	.LLST398
	.long	.LVUS398
	.uleb128 0x4a
	.long	.LLRL399
	.uleb128 0x29
	.string	"rb0"
	.byte	0x71
	.byte	0x22
	.long	0x7681
	.long	.LLST400
	.long	.LVUS400
	.uleb128 0x29
	.string	"rb1"
	.byte	0x72
	.byte	0x22
	.long	0x7681
	.long	.LLST401
	.long	.LVUS401
	.uleb128 0x29
	.string	"vp"
	.byte	0x74
	.byte	0x1c
	.long	0xa86a
	.long	.LLST402
	.long	.LVUS402
	.uleb128 0x29
	.string	"xf"
	.byte	0x76
	.byte	0x19
	.long	0x4f
	.long	.LLST403
	.long	.LVUS403
	.uleb128 0x40
	.long	.LLRL456
	.long	0xeedd
	.uleb128 0x35
	.long	.LASF1432
	.byte	0x79
	.byte	0x20
	.long	0xa470
	.long	.LLST457
	.long	.LVUS457
	.uleb128 0x35
	.long	.LASF1433
	.byte	0x7a
	.byte	0x20
	.long	0xa470
	.long	.LLST458
	.long	.LVUS458
	.uleb128 0x35
	.long	.LASF1434
	.byte	0x7b
	.byte	0x20
	.long	0xa470
	.long	.LLST459
	.long	.LVUS459
	.uleb128 0x35
	.long	.LASF1435
	.byte	0x7c
	.byte	0x20
	.long	0xa470
	.long	.LLST460
	.long	.LVUS460
	.uleb128 0x35
	.long	.LASF1436
	.byte	0x7d
	.byte	0x20
	.long	0xa470
	.long	.LLST461
	.long	.LVUS461
	.uleb128 0x35
	.long	.LASF1437
	.byte	0x7e
	.byte	0x20
	.long	0xa470
	.long	.LLST462
	.long	.LVUS462
	.uleb128 0x35
	.long	.LASF1438
	.byte	0x7f
	.byte	0x20
	.long	0xa470
	.long	.LLST463
	.long	.LVUS463
	.uleb128 0x35
	.long	.LASF1439
	.byte	0x80
	.byte	0x20
	.long	0xa470
	.long	.LLST464
	.long	.LVUS464
	.uleb128 0x35
	.long	.LASF1440
	.byte	0x81
	.byte	0x20
	.long	0xa470
	.long	.LLST465
	.long	.LVUS465
	.uleb128 0x35
	.long	.LASF1441
	.byte	0x82
	.byte	0x20
	.long	0xa470
	.long	.LLST466
	.long	.LVUS466
	.uleb128 0x25
	.long	0x1236c
	.quad	.LBI2975
	.value	.LVU543
	.long	.LLRL467
	.byte	0x1
	.byte	0x79
	.byte	0x32
	.long	0xe4fc
	.uleb128 0x3
	.long	0x1237e
	.uleb128 0x25
	.long	0x1247c
	.quad	.LBI2976
	.value	.LVU545
	.long	.LLRL468
	.byte	0x1
	.byte	0x18
	.byte	0x1e
	.long	0xe4b5
	.uleb128 0x3
	.long	0x12490
	.uleb128 0x14
	.long	0x124a3
	.quad	.LBI2978
	.value	.LVU549
	.quad	.LBB2978
	.quad	.LBE2978-.LBB2978
	.byte	0xe
	.value	0x2c9
	.byte	0x18
	.uleb128 0x3
	.long	0x124b7
	.uleb128 0x4
	.long	0x124c4
	.long	.LLST469
	.long	.LVUS469
	.uleb128 0x14
	.long	0x124d2
	.quad	.LBI2980
	.value	.LVU551
	.quad	.LBB2980
	.quad	.LBE2980-.LBB2980
	.byte	0xe
	.value	0x25a
	.byte	0x19
	.uleb128 0x4
	.long	0x124e6
	.long	.LLST470
	.long	.LVUS470
	.uleb128 0x4
	.long	0x124f3
	.long	.LLST471
	.long	.LVUS471
	.byte	0
	.byte	0
	.byte	0
	.uleb128 0x2f
	.long	0x123c6
	.quad	.LBI2984
	.value	.LVU554
	.long	.LLRL472
	.byte	0x1
	.byte	0x18
	.byte	0x1e
	.byte	0x1
	.long	0xe4d6
	.uleb128 0x3
	.long	0x123da
	.byte	0
	.uleb128 0x65
	.long	0x1245a
	.quad	.LBI2988
	.value	.LVU560
	.long	.LLRL473
	.byte	0x1
	.byte	0x18
	.byte	0x1e
	.byte	0x2
	.uleb128 0x4
	.long	0x1246e
	.long	.LLST474
	.long	.LVUS474
	.byte	0
	.byte	0
	.uleb128 0x25
	.long	0x1236c
	.quad	.LBI2992
	.value	.LVU622
	.long	.LLRL475
	.byte	0x1
	.byte	0x7d
	.byte	0x32
	.long	0xe5ea
	.uleb128 0x3
	.long	0x1237e
	.uleb128 0x2f
	.long	0x123c6
	.quad	.LBI2993
	.value	.LVU631
	.long	.LLRL476
	.byte	0x1
	.byte	0x18
	.byte	0x1e
	.byte	0x1
	.long	0xe53c
	.uleb128 0x3
	.long	0x123da
	.byte	0
	.uleb128 0x2f
	.long	0x1245a
	.quad	.LBI2996
	.value	.LVU633
	.long	.LLRL477
	.byte	0x1
	.byte	0x18
	.byte	0x1e
	.byte	0x2
	.long	0xe55d
	.uleb128 0x3
	.long	0x1246e
	.byte	0
	.uleb128 0x1d
	.long	0x1247c
	.quad	.LBI2999
	.value	.LVU624
	.quad	.LBB2999
	.quad	.LBE2999-.LBB2999
	.byte	0x1
	.byte	0x18
	.byte	0x1e
	.uleb128 0x3
	.long	0x12490
	.uleb128 0x14
	.long	0x124a3
	.quad	.LBI3001
	.value	.LVU626
	.quad	.LBB3001
	.quad	.LBE3001-.LBB3001
	.byte	0xe
	.value	0x2c9
	.byte	0x18
	.uleb128 0x3
	.long	0x124b7
	.uleb128 0x3
	.long	0x124c4
	.uleb128 0x14
	.long	0x124d2
	.quad	.LBI3003
	.value	.LVU628
	.quad	.LBB3003
	.quad	.LBE3003-.LBB3003
	.byte	0xe
	.value	0x25a
	.byte	0x19
	.uleb128 0x4
	.long	0x124e6
	.long	.LLST478
	.long	.LVUS478
	.uleb128 0x3
	.long	0x124f3
	.byte	0
	.byte	0
	.byte	0
	.byte	0
	.uleb128 0x25
	.long	0x1236c
	.quad	.LBI3007
	.value	.LVU637
	.long	.LLRL479
	.byte	0x1
	.byte	0x7e
	.byte	0x32
	.long	0xe6d8
	.uleb128 0x3
	.long	0x1237e
	.uleb128 0x2f
	.long	0x123c6
	.quad	.LBI3008
	.value	.LVU646
	.long	.LLRL480
	.byte	0x1
	.byte	0x18
	.byte	0x1e
	.byte	0x1
	.long	0xe62a
	.uleb128 0x3
	.long	0x123da
	.byte	0
	.uleb128 0x2f
	.long	0x1245a
	.quad	.LBI3011
	.value	.LVU648
	.long	.LLRL481
	.byte	0x1
	.byte	0x18
	.byte	0x1e
	.byte	0x2
	.long	0xe64b
	.uleb128 0x3
	.long	0x1246e
	.byte	0
	.uleb128 0x1d
	.long	0x1247c
	.quad	.LBI3014
	.value	.LVU639
	.quad	.LBB3014
	.quad	.LBE3014-.LBB3014
	.byte	0x1
	.byte	0x18
	.byte	0x1e
	.uleb128 0x3
	.long	0x12490
	.uleb128 0x14
	.long	0x124a3
	.quad	.LBI3016
	.value	.LVU641
	.quad	.LBB3016
	.quad	.LBE3016-.LBB3016
	.byte	0xe
	.value	0x2c9
	.byte	0x18
	.uleb128 0x3
	.long	0x124b7
	.uleb128 0x3
	.long	0x124c4
	.uleb128 0x14
	.long	0x124d2
	.quad	.LBI3018
	.value	.LVU643
	.quad	.LBB3018
	.quad	.LBE3018-.LBB3018
	.byte	0xe
	.value	0x25a
	.byte	0x19
	.uleb128 0x4
	.long	0x124e6
	.long	.LLST482
	.long	.LVUS482
	.uleb128 0x3
	.long	0x124f3
	.byte	0
	.byte	0
	.byte	0
	.byte	0
	.uleb128 0x25
	.long	0x1236c
	.quad	.LBI3023
	.value	.LVU652
	.long	.LLRL483
	.byte	0x1
	.byte	0x7f
	.byte	0x32
	.long	0xe7c6
	.uleb128 0x3
	.long	0x1237e
	.uleb128 0x2f
	.long	0x123c6
	.quad	.LBI3024
	.value	.LVU661
	.long	.LLRL484
	.byte	0x1
	.byte	0x18
	.byte	0x1e
	.byte	0x1
	.long	0xe718
	.uleb128 0x3
	.long	0x123da
	.byte	0
	.uleb128 0x2f
	.long	0x1245a
	.quad	.LBI3027
	.value	.LVU663
	.long	.LLRL485
	.byte	0x1
	.byte	0x18
	.byte	0x1e
	.byte	0x2
	.long	0xe739
	.uleb128 0x3
	.long	0x1246e
	.byte	0
	.uleb128 0x1d
	.long	0x1247c
	.quad	.LBI3030
	.value	.LVU654
	.quad	.LBB3030
	.quad	.LBE3030-.LBB3030
	.byte	0x1
	.byte	0x18
	.byte	0x1e
	.uleb128 0x3
	.long	0x12490
	.uleb128 0x14
	.long	0x124a3
	.quad	.LBI3032
	.value	.LVU656
	.quad	.LBB3032
	.quad	.LBE3032-.LBB3032
	.byte	0xe
	.value	0x2c9
	.byte	0x18
	.uleb128 0x3
	.long	0x124b7
	.uleb128 0x3
	.long	0x124c4
	.uleb128 0x14
	.long	0x124d2
	.quad	.LBI3034
	.value	.LVU658
	.quad	.LBB3034
	.quad	.LBE3034-.LBB3034
	.byte	0xe
	.value	0x25a
	.byte	0x19
	.uleb128 0x4
	.long	0x124e6
	.long	.LLST486
	.long	.LVUS486
	.uleb128 0x3
	.long	0x124f3
	.byte	0
	.byte	0
	.byte	0
	.byte	0
	.uleb128 0x25
	.long	0x1236c
	.quad	.LBI3038
	.value	.LVU667
	.long	.LLRL487
	.byte	0x1
	.byte	0x80
	.byte	0x32
	.long	0xe8b4
	.uleb128 0x3
	.long	0x1237e
	.uleb128 0x2f
	.long	0x123c6
	.quad	.LBI3039
	.value	.LVU676
	.long	.LLRL488
	.byte	0x1
	.byte	0x18
	.byte	0x1e
	.byte	0x1
	.long	0xe806
	.uleb128 0x3
	.long	0x123da
	.byte	0
	.uleb128 0x2f
	.long	0x1245a
	.quad	.LBI3042
	.value	.LVU678
	.long	.LLRL489
	.byte	0x1
	.byte	0x18
	.byte	0x1e
	.byte	0x2
	.long	0xe827
	.uleb128 0x3
	.long	0x1246e
	.byte	0
	.uleb128 0x1d
	.long	0x1247c
	.quad	.LBI3045
	.value	.LVU669
	.quad	.LBB3045
	.quad	.LBE3045-.LBB3045
	.byte	0x1
	.byte	0x18
	.byte	0x1e
	.uleb128 0x3
	.long	0x12490
	.uleb128 0x14
	.long	0x124a3
	.quad	.LBI3047
	.value	.LVU671
	.quad	.LBB3047
	.quad	.LBE3047-.LBB3047
	.byte	0xe
	.value	0x2c9
	.byte	0x18
	.uleb128 0x3
	.long	0x124b7
	.uleb128 0x3
	.long	0x124c4
	.uleb128 0x14
	.long	0x124d2
	.quad	.LBI3049
	.value	.LVU673
	.quad	.LBB3049
	.quad	.LBE3049-.LBB3049
	.byte	0xe
	.value	0x25a
	.byte	0x19
	.uleb128 0x4
	.long	0x124e6
	.long	.LLST490
	.long	.LVUS490
	.uleb128 0x3
	.long	0x124f3
	.byte	0
	.byte	0
	.byte	0
	.byte	0
	.uleb128 0x25
	.long	0x1236c
	.quad	.LBI3054
	.value	.LVU568
	.long	.LLRL491
	.byte	0x1
	.byte	0x7a
	.byte	0x32
	.long	0xe9c6
	.uleb128 0x3
	.long	0x1237e
	.uleb128 0x2f
	.long	0x123c6
	.quad	.LBI3055
	.value	.LVU577
	.long	.LLRL492
	.byte	0x1
	.byte	0x18
	.byte	0x1e
	.byte	0x1
	.long	0xe8f4
	.uleb128 0x3
	.long	0x123da
	.byte	0
	.uleb128 0x22
	.long	0x1247c
	.quad	.LBI3058
	.value	.LVU570
	.quad	.LBB3058
	.quad	.LBE3058-.LBB3058
	.byte	0x1
	.byte	0x18
	.byte	0x1e
	.long	0xe994
	.uleb128 0x3
	.long	0x12490
	.uleb128 0x14
	.long	0x124a3
	.quad	.LBI3060
	.value	.LVU572
	.quad	.LBB3060
	.quad	.LBE3060-.LBB3060
	.byte	0xe
	.value	0x2c9
	.byte	0x18
	.uleb128 0x3
	.long	0x124b7
	.uleb128 0x4
	.long	0x124c4
	.long	.LLST493
	.long	.LVUS493
	.uleb128 0x14
	.long	0x124d2
	.quad	.LBI3062
	.value	.LVU574
	.quad	.LBB3062
	.quad	.LBE3062-.LBB3062
	.byte	0xe
	.value	0x25a
	.byte	0x19
	.uleb128 0x4
	.long	0x124e6
	.long	.LLST494
	.long	.LVUS494
	.uleb128 0x4
	.long	0x124f3
	.long	.LLST495
	.long	.LVUS495
	.byte	0
	.byte	0
	.byte	0
	.uleb128 0x4d
	.long	0x1245a
	.quad	.LBI3065
	.value	.LVU580
	.quad	.LBB3065
	.quad	.LBE3065-.LBB3065
	.byte	0x1
	.byte	0x18
	.byte	0x1e
	.byte	0x2
	.uleb128 0x4
	.long	0x1246e
	.long	.LLST496
	.long	.LVUS496
	.byte	0
	.byte	0
	.uleb128 0x25
	.long	0x1236c
	.quad	.LBI3069
	.value	.LVU585
	.long	.LLRL497
	.byte	0x1
	.byte	0x7b
	.byte	0x32
	.long	0xeacc
	.uleb128 0x3
	.long	0x1237e
	.uleb128 0x2f
	.long	0x123c6
	.quad	.LBI3070
	.value	.LVU594
	.long	.LLRL498
	.byte	0x1
	.byte	0x18
	.byte	0x1e
	.byte	0x1
	.long	0xea06
	.uleb128 0x3
	.long	0x123da
	.byte	0
	.uleb128 0x22
	.long	0x1247c
	.quad	.LBI3073
	.value	.LVU587
	.quad	.LBB3073
	.quad	.LBE3073-.LBB3073
	.byte	0x1
	.byte	0x18
	.byte	0x1e
	.long	0xeaa6
	.uleb128 0x3
	.long	0x12490
	.uleb128 0x14
	.long	0x124a3
	.quad	.LBI3075
	.value	.LVU589
	.quad	.LBB3075
	.quad	.LBE3075-.LBB3075
	.byte	0xe
	.value	0x2c9
	.byte	0x18
	.uleb128 0x3
	.long	0x124b7
	.uleb128 0x4
	.long	0x124c4
	.long	.LLST499
	.long	.LVUS499
	.uleb128 0x14
	.long	0x124d2
	.quad	.LBI3077
	.value	.LVU591
	.quad	.LBB3077
	.quad	.LBE3077-.LBB3077
	.byte	0xe
	.value	0x25a
	.byte	0x19
	.uleb128 0x4
	.long	0x124e6
	.long	.LLST500
	.long	.LVUS500
	.uleb128 0x4
	.long	0x124f3
	.long	.LLST501
	.long	.LVUS501
	.byte	0
	.byte	0
	.byte	0
	.uleb128 0x65
	.long	0x1245a
	.quad	.LBI3080
	.value	.LVU597
	.long	.LLRL502
	.byte	0x1
	.byte	0x18
	.byte	0x1e
	.byte	0x2
	.uleb128 0x4
	.long	0x1246e
	.long	.LLST503
	.long	.LVUS503
	.byte	0
	.byte	0
	.uleb128 0x25
	.long	0x1236c
	.quad	.LBI3084
	.value	.LVU605
	.long	.LLRL504
	.byte	0x1
	.byte	0x7c
	.byte	0x32
	.long	0xebde
	.uleb128 0x3
	.long	0x1237e
	.uleb128 0x2f
	.long	0x123c6
	.quad	.LBI3085
	.value	.LVU614
	.long	.LLRL505
	.byte	0x1
	.byte	0x18
	.byte	0x1e
	.byte	0x1
	.long	0xeb0c
	.uleb128 0x3
	.long	0x123da
	.byte	0
	.uleb128 0x22
	.long	0x1247c
	.quad	.LBI3088
	.value	.LVU607
	.quad	.LBB3088
	.quad	.LBE3088-.LBB3088
	.byte	0x1
	.byte	0x18
	.byte	0x1e
	.long	0xebac
	.uleb128 0x3
	.long	0x12490
	.uleb128 0x14
	.long	0x124a3
	.quad	.LBI3090
	.value	.LVU609
	.quad	.LBB3090
	.quad	.LBE3090-.LBB3090
	.byte	0xe
	.value	0x2c9
	.byte	0x18
	.uleb128 0x3
	.long	0x124b7
	.uleb128 0x4
	.long	0x124c4
	.long	.LLST506
	.long	.LVUS506
	.uleb128 0x14
	.long	0x124d2
	.quad	.LBI3092
	.value	.LVU611
	.quad	.LBB3092
	.quad	.LBE3092-.LBB3092
	.byte	0xe
	.value	0x25a
	.byte	0x19
	.uleb128 0x4
	.long	0x124e6
	.long	.LLST507
	.long	.LVUS507
	.uleb128 0x4
	.long	0x124f3
	.long	.LLST508
	.long	.LVUS508
	.byte	0
	.byte	0
	.byte	0
	.uleb128 0x4d
	.long	0x1245a
	.quad	.LBI3095
	.value	.LVU617
	.quad	.LBB3095
	.quad	.LBE3095-.LBB3095
	.byte	0x1
	.byte	0x18
	.byte	0x1e
	.byte	0x2
	.uleb128 0x4
	.long	0x1246e
	.long	.LLST509
	.long	.LVUS509
	.byte	0
	.byte	0
	.uleb128 0x25
	.long	0x1238b
	.quad	.LBI3102
	.value	.LVU690
	.long	.LLRL510
	.byte	0x1
	.byte	0x83
	.byte	0x2f
	.long	0xec10
	.uleb128 0x4
	.long	0x123a1
	.long	.LLST511
	.long	.LVUS511
	.uleb128 0x3
	.long	0x123ad
	.uleb128 0x3
	.long	0x123b9
	.byte	0
	.uleb128 0x25
	.long	0x1238b
	.quad	.LBI3105
	.value	.LVU694
	.long	.LLRL512
	.byte	0x1
	.byte	0x84
	.byte	0x2f
	.long	0xec42
	.uleb128 0x4
	.long	0x123a1
	.long	.LLST513
	.long	.LVUS513
	.uleb128 0x3
	.long	0x123ad
	.uleb128 0x3
	.long	0x123b9
	.byte	0
	.uleb128 0x22
	.long	0x12438
	.quad	.LBI3114
	.value	.LVU682
	.quad	.LBB3114
	.quad	.LBE3114-.LBB3114
	.byte	0x1
	.byte	0x81
	.byte	0x36
	.long	0xec6e
	.uleb128 0x3
	.long	0x1244c
	.byte	0
	.uleb128 0x22
	.long	0x12438
	.quad	.LBI3116
	.value	.LVU686
	.quad	.LBB3116
	.quad	.LBE3116-.LBB3116
	.byte	0x1
	.byte	0x82
	.byte	0x36
	.long	0xec9a
	.uleb128 0x3
	.long	0x1244c
	.byte	0
	.uleb128 0x22
	.long	0x1238b
	.quad	.LBI3120
	.value	.LVU698
	.quad	.LBB3120
	.quad	.LBE3120-.LBB3120
	.byte	0x1
	.byte	0x85
	.byte	0x2f
	.long	0xece8
	.uleb128 0x4
	.long	0x123a1
	.long	.LLST514
	.long	.LVUS514
	.uleb128 0x4
	.long	0x123ad
	.long	.LLST515
	.long	.LVUS515
	.uleb128 0x4
	.long	0x123b9
	.long	.LLST516
	.long	.LVUS516
	.byte	0
	.uleb128 0x22
	.long	0x1238b
	.quad	.LBI3122
	.value	.LVU703
	.quad	.LBB3122
	.quad	.LBE3122-.LBB3122
	.byte	0x1
	.byte	0x86
	.byte	0x2f
	.long	0xed36
	.uleb128 0x4
	.long	0x123a1
	.long	.LLST517
	.long	.LVUS517
	.uleb128 0x4
	.long	0x123ad
	.long	.LLST518
	.long	.LVUS518
	.uleb128 0x4
	.long	0x123b9
	.long	.LLST519
	.long	.LVUS519
	.byte	0
	.uleb128 0x22
	.long	0x1238b
	.quad	.LBI3124
	.value	.LVU708
	.quad	.LBB3124
	.quad	.LBE3124-.LBB3124
	.byte	0x1
	.byte	0x87
	.byte	0x2f
	.long	0xed84
	.uleb128 0x4
	.long	0x123a1
	.long	.LLST520
	.long	.LVUS520
	.uleb128 0x4
	.long	0x123ad
	.long	.LLST521
	.long	.LVUS521
	.uleb128 0x4
	.long	0x123b9
	.long	.LLST522
	.long	.LVUS522
	.byte	0
	.uleb128 0x22
	.long	0x1238b
	.quad	.LBI3126
	.value	.LVU713
	.quad	.LBB3126
	.quad	.LBE3126-.LBB3126
	.byte	0x1
	.byte	0x88
	.byte	0x2f
	.long	0xedd2
	.uleb128 0x4
	.long	0x123a1
	.long	.LLST523
	.long	.LVUS523
	.uleb128 0x4
	.long	0x123ad
	.long	.LLST524
	.long	.LVUS524
	.uleb128 0x4
	.long	0x123b9
	.long	.LLST525
	.long	.LVUS525
	.byte	0
	.uleb128 0x22
	.long	0x1238b
	.quad	.LBI3128
	.value	.LVU718
	.quad	.LBB3128
	.quad	.LBE3128-.LBB3128
	.byte	0x1
	.byte	0x89
	.byte	0x2f
	.long	0xee20
	.uleb128 0x4
	.long	0x123a1
	.long	.LLST526
	.long	.LVUS526
	.uleb128 0x4
	.long	0x123ad
	.long	.LLST527
	.long	.LVUS527
	.uleb128 0x4
	.long	0x123b9
	.long	.LLST528
	.long	.LVUS528
	.byte	0
	.uleb128 0x22
	.long	0x1238b
	.quad	.LBI3130
	.value	.LVU723
	.quad	.LBB3130
	.quad	.LBE3130-.LBB3130
	.byte	0x1
	.byte	0x8a
	.byte	0x2f
	.long	0xee6e
	.uleb128 0x4
	.long	0x123a1
	.long	.LLST529
	.long	.LVUS529
	.uleb128 0x4
	.long	0x123ad
	.long	.LLST530
	.long	.LVUS530
	.uleb128 0x4
	.long	0x123b9
	.long	.LLST531
	.long	.LVUS531
	.byte	0
	.uleb128 0x22
	.long	0x1240a
	.quad	.LBI3132
	.value	.LVU728
	.quad	.LBB3132
	.quad	.LBE3132-.LBB3132
	.byte	0x1
	.byte	0x8b
	.byte	0x29
	.long	0xeea7
	.uleb128 0x3
	.long	0x1241d
	.uleb128 0x4
	.long	0x1242a
	.long	.LLST532
	.long	.LVUS532
	.byte	0
	.uleb128 0x1d
	.long	0x1240a
	.quad	.LBI3134
	.value	.LVU733
	.quad	.LBB3134
	.quad	.LBE3134-.LBB3134
	.byte	0x1
	.byte	0x8c
	.byte	0x29
	.uleb128 0x3
	.long	0x1241d
	.uleb128 0x4
	.long	0x1242a
	.long	.LLST533
	.long	.LVUS533
	.byte	0
	.byte	0
	.uleb128 0x40
	.long	.LLRL404
	.long	0xf544
	.uleb128 0x29
	.string	"rl0"
	.byte	0x90
	.byte	0x20
	.long	0xa470
	.long	.LLST405
	.long	.LVUS405
	.uleb128 0x29
	.string	"rr0"
	.byte	0x91
	.byte	0x20
	.long	0xa470
	.long	.LLST406
	.long	.LVUS406
	.uleb128 0x29
	.string	"rl1"
	.byte	0x92
	.byte	0x20
	.long	0xa470
	.long	.LLST407
	.long	.LVUS407
	.uleb128 0x29
	.string	"rr1"
	.byte	0x93
	.byte	0x20
	.long	0xa470
	.long	.LLST408
	.long	.LVUS408
	.uleb128 0x29
	.string	"v"
	.byte	0x94
	.byte	0x20
	.long	0xa470
	.long	.LLST409
	.long	.LVUS409
	.uleb128 0x25
	.long	0x1236c
	.quad	.LBI2894
	.value	.LVU746
	.long	.LLRL410
	.byte	0x1
	.byte	0x90
	.byte	0x2f
	.long	0xf064
	.uleb128 0x4
	.long	0x1237e
	.long	.LLST411
	.long	.LVUS411
	.uleb128 0x22
	.long	0x1247c
	.quad	.LBI2895
	.value	.LVU748
	.quad	.LBB2895
	.quad	.LBE2895-.LBB2895
	.byte	0x1
	.byte	0x18
	.byte	0x1e
	.long	0xf012
	.uleb128 0x4
	.long	0x12490
	.long	.LLST412
	.long	.LVUS412
	.uleb128 0x14
	.long	0x124a3
	.quad	.LBI2897
	.value	.LVU750
	.quad	.LBB2897
	.quad	.LBE2897-.LBB2897
	.byte	0xe
	.value	0x2c9
	.byte	0x18
	.uleb128 0x3
	.long	0x124b7
	.uleb128 0x4
	.long	0x124c4
	.long	.LLST413
	.long	.LVUS413
	.uleb128 0x14
	.long	0x124d2
	.quad	.LBI2899
	.value	.LVU752
	.quad	.LBB2899
	.quad	.LBE2899-.LBB2899
	.byte	0xe
	.value	0x25a
	.byte	0x19
	.uleb128 0x4
	.long	0x124e6
	.long	.LLST414
	.long	.LVUS414
	.uleb128 0x4
	.long	0x124f3
	.long	.LLST415
	.long	.LVUS415
	.byte	0
	.byte	0
	.byte	0
	.uleb128 0x58
	.long	0x123c6
	.quad	.LBI2901
	.value	.LVU755
	.quad	.LBB2901
	.quad	.LBE2901-.LBB2901
	.byte	0x18
	.byte	0x1e
	.byte	0x1
	.long	0xf03e
	.uleb128 0x3
	.long	0x123da
	.byte	0
	.uleb128 0x65
	.long	0x1245a
	.quad	.LBI2903
	.value	.LVU759
	.long	.LLRL416
	.byte	0x1
	.byte	0x18
	.byte	0x1e
	.byte	0x2
	.uleb128 0x4
	.long	0x1246e
	.long	.LLST417
	.long	.LVUS417
	.byte	0
	.byte	0
	.uleb128 0x25
	.long	0x1236c
	.quad	.LBI2907
	.value	.LVU765
	.long	.LLRL418
	.byte	0x1
	.byte	0x91
	.byte	0x2f
	.long	0xf17a
	.uleb128 0x4
	.long	0x1237e
	.long	.LLST419
	.long	.LVUS419
	.uleb128 0x2f
	.long	0x123c6
	.quad	.LBI2908
	.value	.LVU774
	.long	.LLRL420
	.byte	0x1
	.byte	0x18
	.byte	0x1e
	.byte	0x1
	.long	0xf0ac
	.uleb128 0x3
	.long	0x123da
	.byte	0
	.uleb128 0x22
	.long	0x1247c
	.quad	.LBI2911
	.value	.LVU767
	.quad	.LBB2911
	.quad	.LBE2911-.LBB2911
	.byte	0x1
	.byte	0x18
	.byte	0x1e
	.long	0xf154
	.uleb128 0x4
	.long	0x12490
	.long	.LLST421
	.long	.LVUS421
	.uleb128 0x14
	.long	0x124a3
	.quad	.LBI2913
	.value	.LVU769
	.quad	.LBB2913
	.quad	.LBE2913-.LBB2913
	.byte	0xe
	.value	0x2c9
	.byte	0x18
	.uleb128 0x3
	.long	0x124b7
	.uleb128 0x4
	.long	0x124c4
	.long	.LLST422
	.long	.LVUS422
	.uleb128 0x14
	.long	0x124d2
	.quad	.LBI2915
	.value	.LVU771
	.quad	.LBB2915
	.quad	.LBE2915-.LBB2915
	.byte	0xe
	.value	0x25a
	.byte	0x19
	.uleb128 0x4
	.long	0x124e6
	.long	.LLST423
	.long	.LVUS423
	.uleb128 0x4
	.long	0x124f3
	.long	.LLST424
	.long	.LVUS424
	.byte	0
	.byte	0
	.byte	0
	.uleb128 0x65
	.long	0x1245a
	.quad	.LBI2918
	.value	.LVU777
	.long	.LLRL425
	.byte	0x1
	.byte	0x18
	.byte	0x1e
	.byte	0x2
	.uleb128 0x4
	.long	0x1246e
	.long	.LLST426
	.long	.LVUS426
	.byte	0
	.byte	0
	.uleb128 0x25
	.long	0x1236c
	.quad	.LBI2922
	.value	.LVU784
	.long	.LLRL427
	.byte	0x1
	.byte	0x92
	.byte	0x2f
	.long	0xf29c
	.uleb128 0x4
	.long	0x1237e
	.long	.LLST428
	.long	.LVUS428
	.uleb128 0x2f
	.long	0x123c6
	.quad	.LBI2923
	.value	.LVU793
	.long	.LLRL429
	.byte	0x1
	.byte	0x18
	.byte	0x1e
	.byte	0x1
	.long	0xf1c2
	.uleb128 0x3
	.long	0x123da
	.byte	0
	.uleb128 0x22
	.long	0x1247c
	.quad	.LBI2926
	.value	.LVU786
	.quad	.LBB2926
	.quad	.LBE2926-.LBB2926
	.byte	0x1
	.byte	0x18
	.byte	0x1e
	.long	0xf26a
	.uleb128 0x4
	.long	0x12490
	.long	.LLST430
	.long	.LVUS430
	.uleb128 0x14
	.long	0x124a3
	.quad	.LBI2928
	.value	.LVU788
	.quad	.LBB2928
	.quad	.LBE2928-.LBB2928
	.byte	0xe
	.value	0x2c9
	.byte	0x18
	.uleb128 0x3
	.long	0x124b7
	.uleb128 0x4
	.long	0x124c4
	.long	.LLST431
	.long	.LVUS431
	.uleb128 0x14
	.long	0x124d2
	.quad	.LBI2930
	.value	.LVU790
	.quad	.LBB2930
	.quad	.LBE2930-.LBB2930
	.byte	0xe
	.value	0x25a
	.byte	0x19
	.uleb128 0x4
	.long	0x124e6
	.long	.LLST432
	.long	.LVUS432
	.uleb128 0x4
	.long	0x124f3
	.long	.LLST433
	.long	.LVUS433
	.byte	0
	.byte	0
	.byte	0
	.uleb128 0x4d
	.long	0x1245a
	.quad	.LBI2933
	.value	.LVU796
	.quad	.LBB2933
	.quad	.LBE2933-.LBB2933
	.byte	0x1
	.byte	0x18
	.byte	0x1e
	.byte	0x2
	.uleb128 0x4
	.long	0x1246e
	.long	.LLST434
	.long	.LVUS434
	.byte	0
	.byte	0
	.uleb128 0x25
	.long	0x1236c
	.quad	.LBI2935
	.value	.LVU801
	.long	.LLRL435
	.byte	0x1
	.byte	0x93
	.byte	0x2f
	.long	0xf3be
	.uleb128 0x4
	.long	0x1237e
	.long	.LLST436
	.long	.LVUS436
	.uleb128 0x2f
	.long	0x123c6
	.quad	.LBI2936
	.value	.LVU810
	.long	.LLRL437
	.byte	0x1
	.byte	0x18
	.byte	0x1e
	.byte	0x1
	.long	0xf2e4
	.uleb128 0x3
	.long	0x123da
	.byte	0
	.uleb128 0x22
	.long	0x1247c
	.quad	.LBI2939
	.value	.LVU803
	.quad	.LBB2939
	.quad	.LBE2939-.LBB2939
	.byte	0x1
	.byte	0x18
	.byte	0x1e
	.long	0xf38c
	.uleb128 0x4
	.long	0x12490
	.long	.LLST438
	.long	.LVUS438
	.uleb128 0x14
	.long	0x124a3
	.quad	.LBI2941
	.value	.LVU805
	.quad	.LBB2941
	.quad	.LBE2941-.LBB2941
	.byte	0xe
	.value	0x2c9
	.byte	0x18
	.uleb128 0x3
	.long	0x124b7
	.uleb128 0x4
	.long	0x124c4
	.long	.LLST439
	.long	.LVUS439
	.uleb128 0x14
	.long	0x124d2
	.quad	.LBI2943
	.value	.LVU807
	.quad	.LBB2943
	.quad	.LBE2943-.LBB2943
	.byte	0xe
	.value	0x25a
	.byte	0x19
	.uleb128 0x4
	.long	0x124e6
	.long	.LLST440
	.long	.LVUS440
	.uleb128 0x4
	.long	0x124f3
	.long	.LLST441
	.long	.LVUS441
	.byte	0
	.byte	0
	.byte	0
	.uleb128 0x4d
	.long	0x1245a
	.quad	.LBI2946
	.value	.LVU813
	.quad	.LBB2946
	.quad	.LBE2946-.LBB2946
	.byte	0x1
	.byte	0x18
	.byte	0x1e
	.byte	0x2
	.uleb128 0x4
	.long	0x1246e
	.long	.LLST442
	.long	.LVUS442
	.byte	0
	.byte	0
	.uleb128 0x25
	.long	0x1238b
	.quad	.LBI2950
	.value	.LVU822
	.long	.LLRL443
	.byte	0x1
	.byte	0x95
	.byte	0x2c
	.long	0xf3f8
	.uleb128 0x4
	.long	0x123a1
	.long	.LLST444
	.long	.LVUS444
	.uleb128 0x3
	.long	0x123ad
	.uleb128 0x4
	.long	0x123b9
	.long	.LLST445
	.long	.LVUS445
	.byte	0
	.uleb128 0x22
	.long	0x12438
	.quad	.LBI2956
	.value	.LVU818
	.quad	.LBB2956
	.quad	.LBE2956-.LBB2956
	.byte	0x1
	.byte	0x94
	.byte	0x33
	.long	0xf424
	.uleb128 0x3
	.long	0x1244c
	.byte	0
	.uleb128 0x22
	.long	0x1238b
	.quad	.LBI2959
	.value	.LVU826
	.quad	.LBB2959
	.quad	.LBE2959-.LBB2959
	.byte	0x1
	.byte	0x96
	.byte	0x2c
	.long	0xf472
	.uleb128 0x4
	.long	0x123a1
	.long	.LLST446
	.long	.LVUS446
	.uleb128 0x4
	.long	0x123ad
	.long	.LLST447
	.long	.LVUS447
	.uleb128 0x4
	.long	0x123b9
	.long	.LLST448
	.long	.LVUS448
	.byte	0
	.uleb128 0x22
	.long	0x1238b
	.quad	.LBI2961
	.value	.LVU831
	.quad	.LBB2961
	.quad	.LBE2961-.LBB2961
	.byte	0x1
	.byte	0x97
	.byte	0x2c
	.long	0xf4c0
	.uleb128 0x4
	.long	0x123a1
	.long	.LLST449
	.long	.LVUS449
	.uleb128 0x4
	.long	0x123ad
	.long	.LLST450
	.long	.LVUS450
	.uleb128 0x4
	.long	0x123b9
	.long	.LLST451
	.long	.LVUS451
	.byte	0
	.uleb128 0x22
	.long	0x1238b
	.quad	.LBI2963
	.value	.LVU836
	.quad	.LBB2963
	.quad	.LBE2963-.LBB2963
	.byte	0x1
	.byte	0x98
	.byte	0x2c
	.long	0xf50e
	.uleb128 0x4
	.long	0x123a1
	.long	.LLST452
	.long	.LVUS452
	.uleb128 0x4
	.long	0x123ad
	.long	.LLST453
	.long	.LVUS453
	.uleb128 0x4
	.long	0x123b9
	.long	.LLST454
	.long	.LVUS454
	.byte	0
	.uleb128 0x1d
	.long	0x1240a
	.quad	.LBI2965
	.value	.LVU841
	.quad	.LBB2965
	.quad	.LBE2965-.LBB2965
	.byte	0x1
	.byte	0x99
	.byte	0x29
	.uleb128 0x3
	.long	0x1241d
	.uleb128 0x4
	.long	0x1242a
	.long	.LLST455
	.long	.LVUS455
	.byte	0
	.byte	0
	.uleb128 0x4a
	.long	.LLRL534
	.uleb128 0x29
	.string	"k"
	.byte	0x9d
	.byte	0x1e
	.long	0x4f
	.long	.LLST535
	.long	.LVUS535
	.uleb128 0x4a
	.long	.LLRL536
	.uleb128 0x29
	.string	"s0l"
	.byte	0x9e
	.byte	0x1f
	.long	0x30
	.long	.LLST537
	.long	.LVUS537
	.uleb128 0x29
	.string	"s0r"
	.byte	0x9e
	.byte	0x36
	.long	0x30
	.long	.LLST538
	.long	.LVUS538
	.uleb128 0x29
	.string	"s1l"
	.byte	0x9f
	.byte	0x1f
	.long	0x30
	.long	.LLST539
	.long	.LVUS539
	.uleb128 0x29
	.string	"s1r"
	.byte	0x9f
	.byte	0x36
	.long	0x30
	.long	.LLST540
	.long	.LVUS540
	.byte	0
	.byte	0
	.byte	0
	.byte	0
	.uleb128 0x25
	.long	0x12116
	.quad	.LBI3174
	.value	.LVU466
	.long	.LLRL541
	.byte	0x1
	.byte	0x63
	.byte	0x2d
	.long	0xf5e4
	.uleb128 0x4
	.long	0x12129
	.long	.LLST542
	.long	.LVUS542
	.uleb128 0x4
	.long	0x12136
	.long	.LLST543
	.long	.LVUS543
	.byte	0
	.uleb128 0x25
	.long	0x120ea
	.quad	.LBI3179
	.value	.LVU485
	.long	.LLRL544
	.byte	0x1
	.byte	0x66
	.byte	0x2d
	.long	0xf619
	.uleb128 0x4
	.long	0x120fd
	.long	.LLST545
	.long	.LVUS545
	.uleb128 0x4
	.long	0x12109
	.long	.LLST546
	.long	.LVUS546
	.byte	0
	.uleb128 0x25
	.long	0x120ea
	.quad	.LBI3183
	.value	.LVU476
	.long	.LLRL547
	.byte	0x1
	.byte	0x64
	.byte	0x2d
	.long	0xf64e
	.uleb128 0x4
	.long	0x120fd
	.long	.LLST548
	.long	.LVUS548
	.uleb128 0x4
	.long	0x12109
	.long	.LLST549
	.long	.LVUS549
	.byte	0
	.uleb128 0x25
	.long	0x12116
	.quad	.LBI3192
	.value	.LVU480
	.long	.LLRL550
	.byte	0x1
	.byte	0x65
	.byte	0x2d
	.long	0xf683
	.uleb128 0x4
	.long	0x12129
	.long	.LLST551
	.long	.LVUS551
	.uleb128 0x4
	.long	0x12136
	.long	.LLST552
	.long	.LVUS552
	.byte	0
	.uleb128 0x25
	.long	0x123e8
	.quad	.LBI3201
	.value	.LVU503
	.long	.LLRL553
	.byte	0x1
	.byte	0x69
	.byte	0x32
	.long	0xf6ab
	.uleb128 0x4
	.long	0x123fc
	.long	.LLST554
	.long	.LVUS554
	.byte	0
	.uleb128 0x25
	.long	0x123e8
	.quad	.LBI3206
	.value	.LVU511
	.long	.LLRL555
	.byte	0x1
	.byte	0x6a
	.byte	0x32
	.long	0xf6d3
	.uleb128 0x4
	.long	0x123fc
	.long	.LLST556
	.long	.LVUS556
	.byte	0
	.uleb128 0x25
	.long	0x123e8
	.quad	.LBI3211
	.value	.LVU521
	.long	.LLRL557
	.byte	0x1
	.byte	0x6b
	.byte	0x32
	.long	0xf6fb
	.uleb128 0x4
	.long	0x123fc
	.long	.LLST558
	.long	.LVUS558
	.byte	0
	.uleb128 0x1d
	.long	0x123e8
	.quad	.LBI3216
	.value	.LVU527
	.quad	.LBB3216
	.quad	.LBE3216-.LBB3216
	.byte	0x1
	.byte	0x6c
	.byte	0x32
	.uleb128 0x4
	.long	0x123fc
	.long	.LLST559
	.long	.LVUS559
	.byte	0
	.byte	0
	.byte	0
	.uleb128 0x40
	.long	.LLRL560
	.long	0xf93b
	.uleb128 0x29
	.string	"y"
	.byte	0xa5
	.byte	0x16
	.long	0x4f
	.long	.LLST561
	.long	.LVUS561
	.uleb128 0x4a
	.long	.LLRL562
	.uleb128 0x80
	.string	"vp"
	.byte	0xa6
	.byte	0x20
	.long	0xa883
	.uleb128 0x39
	.long	.LASF1442
	.byte	0x1
	.byte	0xa7
	.byte	0x20
	.long	0xa075
	.uleb128 0x40
	.long	.LLRL563
	.long	0xf909
	.uleb128 0x29
	.string	"x"
	.byte	0xa9
	.byte	0x1a
	.long	0x4f
	.long	.LLST564
	.long	.LVUS564
	.uleb128 0x4a
	.long	.LLRL565
	.uleb128 0x29
	.string	"c"
	.byte	0xaa
	.byte	0x19
	.long	0x4f
	.long	.LLST566
	.long	.LVUS566
	.uleb128 0x35
	.long	.LASF1443
	.byte	0xac
	.byte	0x1b
	.long	0x30
	.long	.LLST567
	.long	.LVUS567
	.uleb128 0x25
	.long	0xc986
	.quad	.LBI3229
	.value	.LVU1198
	.long	.LLRL568
	.byte	0x1
	.byte	0xad
	.byte	0x3e
	.long	0xf819
	.uleb128 0x3
	.long	0xc999
	.uleb128 0x3
	.long	0xc9a6
	.uleb128 0x3
	.long	0xc9b3
	.uleb128 0x3b
	.long	0xbff3
	.quad	.LBI3230
	.value	.LVU1200
	.long	.LLRL569
	.byte	0x11
	.value	0xe21
	.byte	0x16
	.long	0xf7f5
	.uleb128 0x3
	.long	0xc006
	.uleb128 0x3
	.long	0xc013
	.byte	0
	.uleb128 0x60
	.long	0xbfc7
	.quad	.LBI3236
	.value	.LVU1205
	.long	.LLRL570
	.byte	0x11
	.value	0xe21
	.byte	0x16
	.byte	0x1
	.uleb128 0x3
	.long	0xbfda
	.uleb128 0x3
	.long	0xbfe6
	.byte	0
	.byte	0
	.uleb128 0x25
	.long	0xc986
	.quad	.LBI3245
	.value	.LVU1209
	.long	.LLRL571
	.byte	0x1
	.byte	0xae
	.byte	0x3e
	.long	0xf898
	.uleb128 0x3
	.long	0xc999
	.uleb128 0x3
	.long	0xc9a6
	.uleb128 0x3
	.long	0xc9b3
	.uleb128 0x4c
	.long	0xbfc7
	.quad	.LBI3246
	.value	.LVU1216
	.long	.LLRL572
	.byte	0x11
	.value	0xe21
	.byte	0x16
	.byte	0x1
	.long	0xf869
	.uleb128 0x3
	.long	0xbfda
	.uleb128 0x3
	.long	0xbfe6
	.byte	0
	.uleb128 0x14
	.long	0xbff3
	.quad	.LBI3249
	.value	.LVU1211
	.quad	.LBB3249
	.quad	.LBE3249-.LBB3249
	.byte	0x11
	.value	0xe21
	.byte	0x16
	.uleb128 0x3
	.long	0xc006
	.uleb128 0x3
	.long	0xc013
	.byte	0
	.byte	0
	.uleb128 0x5f
	.long	0xc986
	.quad	.LBI3260
	.value	.LVU1220
	.long	.LLRL573
	.byte	0x1
	.byte	0xaf
	.byte	0x3e
	.uleb128 0x3
	.long	0xc999
	.uleb128 0x3
	.long	0xc9a6
	.uleb128 0x3
	.long	0xc9b3
	.uleb128 0x3b
	.long	0xbff3
	.quad	.LBI3261
	.value	.LVU1222
	.long	.LLRL574
	.byte	0x11
	.value	0xe21
	.byte	0x16
	.long	0xf8e3
	.uleb128 0x3
	.long	0xc006
	.uleb128 0x3
	.long	0xc013
	.byte	0
	.uleb128 0x60
	.long	0xbfc7
	.quad	.LBI3264
	.value	.LVU1227
	.long	.LLRL575
	.byte	0x11
	.value	0xe21
	.byte	0x16
	.byte	0x1
	.uleb128 0x3
	.long	0xbfda
	.uleb128 0x3
	.long	0xbfe6
	.byte	0
	.byte	0
	.byte	0
	.byte	0
	.uleb128 0x1d
	.long	0xcca6
	.quad	.LBI3281
	.value	.LVU1178
	.quad	.LBB3281
	.quad	.LBE3281-.LBB3281
	.byte	0x1
	.byte	0xa7
	.byte	0x37
	.uleb128 0x4
	.long	0xccb4
	.long	.LLST576
	.long	.LVUS576
	.byte	0
	.byte	0
	.byte	0
	.uleb128 0x25
	.long	0x120ea
	.quad	.LBI3296
	.value	.LVU431
	.long	.LLRL577
	.byte	0x1
	.byte	0x5a
	.byte	0x2f
	.long	0xf968
	.uleb128 0x3
	.long	0x120fd
	.uleb128 0x4
	.long	0x12109
	.long	.LLST578
	.long	.LVUS578
	.byte	0
	.uleb128 0x22
	.long	0xca42
	.quad	.LBI3302
	.value	.LVU443
	.quad	.LBB3302
	.quad	.LBE3302-.LBB3302
	.byte	0x1
	.byte	0x5f
	.byte	0x26
	.long	0xf9c2
	.uleb128 0x3
	.long	0xca50
	.uleb128 0x14
	.long	0xc093
	.quad	.LBI3303
	.value	.LVU444
	.quad	.LBB3303
	.quad	.LBE3303-.LBB3303
	.byte	0x2
	.value	0x3dd
	.byte	0x10
	.uleb128 0x3
	.long	0xc0a1
	.uleb128 0x3
	.long	0xc0aa
	.byte	0
	.byte	0
	.uleb128 0x2f
	.long	0xca1d
	.quad	.LBI3304
	.value	.LVU446
	.long	.LLRL579
	.byte	0x1
	.byte	0x5e
	.byte	0x16
	.byte	0x1
	.long	0xfa1e
	.uleb128 0x3
	.long	0xca2b
	.uleb128 0x4
	.long	0xca34
	.long	.LLST581
	.long	.LVUS581
	.uleb128 0x14
	.long	0xc093
	.quad	.LBI3306
	.value	.LVU447
	.quad	.LBB3306
	.quad	.LBE3306-.LBB3306
	.byte	0x3
	.value	0x47c
	.byte	0x10
	.uleb128 0x3
	.long	0xc0a1
	.uleb128 0x3
	.long	0xc0aa
	.byte	0
	.byte	0
	.uleb128 0x58
	.long	0xca42
	.quad	.LBI3308
	.value	.LVU449
	.quad	.LBB3308
	.quad	.LBE3308-.LBB3308
	.byte	0x5e
	.byte	0x16
	.byte	0x2
	.long	0xfa78
	.uleb128 0x3
	.long	0xca50
	.uleb128 0x14
	.long	0xc093
	.quad	.LBI3309
	.value	.LVU450
	.quad	.LBB3309
	.quad	.LBE3309-.LBB3309
	.byte	0x2
	.value	0x3dd
	.byte	0x10
	.uleb128 0x3
	.long	0xc0a1
	.uleb128 0x3
	.long	0xc0aa
	.byte	0
	.byte	0
	.uleb128 0x65
	.long	0xc9d9
	.quad	.LBI3310
	.value	.LVU452
	.long	.LLRL582
	.byte	0x1
	.byte	0x5e
	.byte	0x16
	.byte	0x3
	.uleb128 0x3
	.long	0xc9f5
	.uleb128 0x3
	.long	0xca02
	.uleb128 0x3
	.long	0xca0f
	.uleb128 0x18
	.long	0xc04f
	.quad	.LBI3311
	.value	.LVU453
	.long	.LLRL582
	.byte	0xa
	.value	0x3f0
	.byte	0x14
	.uleb128 0x3
	.long	0xc06b
	.uleb128 0x3
	.long	0xc078
	.uleb128 0x3
	.long	0xc085
	.uleb128 0x18
	.long	0xb6a8
	.quad	.LBI3312
	.value	.LVU454
	.long	.LLRL582
	.byte	0xa
	.value	0x3d1
	.byte	0x15
	.uleb128 0x3
	.long	0xb6cd
	.uleb128 0x3
	.long	0xb6da
	.uleb128 0x3
	.long	0xb6e7
	.uleb128 0x60
	.long	0xb0d2
	.quad	.LBI3313
	.value	.LVU455
	.long	.LLRL582
	.byte	0xa
	.value	0x3bf
	.byte	0x15
	.byte	0x2
	.uleb128 0x3
	.long	0xb0ee
	.uleb128 0x3
	.long	0xb0fb
	.uleb128 0x3
	.long	0xb108
	.uleb128 0x30
	.long	0xb115
	.long	.LLST587
	.long	.LVUS587
	.uleb128 0x30
	.long	0xb130
	.long	.LLST588
	.long	.LVUS588
	.uleb128 0x59
	.quad	.LVL86
	.uleb128 0x1
	.byte	0x30
	.uleb128 0x31
	.quad	.LVL87
	.long	0x12580
	.uleb128 0x20
	.uleb128 0x1
	.byte	0x55
	.uleb128 0x4
	.byte	0x77
	.sleb128 248
	.byte	0x6
	.uleb128 0x20
	.uleb128 0x1
	.byte	0x54
	.uleb128 0x1
	.byte	0x30
	.uleb128 0x20
	.uleb128 0x1
	.byte	0x51
	.uleb128 0x14
	.byte	0x77
	.sleb128 28
	.byte	0x94
	.byte	0x4
	.byte	0x77
	.sleb128 272
	.byte	0x94
	.byte	0x4
	.byte	0x1e
	.byte	0x33
	.byte	0x1e
	.byte	0x8
	.byte	0x20
	.byte	0x24
	.byte	0x8
	.byte	0x20
	.byte	0x26
	.byte	0x32
	.byte	0x24
	.byte	0
	.byte	0
	.byte	0
	.byte	0
	.byte	0
	.byte	0
	.byte	0
	.uleb128 0x5f
	.long	0x120ea
	.quad	.LBI3328
	.value	.LVU419
	.long	.LLRL589
	.byte	0x1
	.byte	0x56
	.byte	0x2b
	.uleb128 0x3
	.long	0x120fd
	.uleb128 0x4
	.long	0x12109
	.long	.LLST590
	.long	.LVUS590
	.byte	0
	.byte	0
	.byte	0
	.uleb128 0x25
	.long	0x122ac
	.quad	.LBI2375
	.value	.LVU25
	.long	.LLRL7
	.byte	0x1
	.byte	0x22
	.byte	0xf
	.long	0xfcb9
	.uleb128 0x4
	.long	0x122bc
	.long	.LLST8
	.long	.LVUS8
	.uleb128 0x5f
	.long	0x122dd
	.quad	.LBI2376
	.value	.LVU26
	.long	.LLRL7
	.byte	0x4
	.byte	0xb
	.byte	0x8
	.uleb128 0x4
	.long	0x122eb
	.long	.LLST9
	.long	.LVUS9
	.uleb128 0x18
	.long	0x1230c
	.quad	.LBI2377
	.value	.LVU27
	.long	.LLRL7
	.byte	0x2
	.value	0x227
	.byte	0x7
	.uleb128 0x4
	.long	0x1231a
	.long	.LLST10
	.long	.LVUS10
	.uleb128 0x18
	.long	0xcef0
	.quad	.LBI2378
	.value	.LVU28
	.long	.LLRL7
	.byte	0x2
	.value	0x141
	.byte	0x7
	.uleb128 0x4
	.long	0xcefe
	.long	.LLST11
	.long	.LVUS11
	.uleb128 0x2f
	.long	0xc903
	.quad	.LBI2379
	.value	.LVU32
	.long	.LLRL12
	.byte	0x2
	.byte	0x94
	.byte	0x13
	.byte	0x1
	.long	0xfc55
	.uleb128 0x4
	.long	0xc911
	.long	.LLST13
	.long	.LVUS13
	.byte	0
	.uleb128 0x1d
	.long	0xc932
	.quad	.LBI2383
	.value	.LVU29
	.quad	.LBB2383
	.quad	.LBE2383-.LBB2383
	.byte	0x2
	.byte	0x94
	.byte	0x13
	.uleb128 0x4
	.long	0xc940
	.long	.LLST14
	.long	.LVUS14
	.uleb128 0x1d
	.long	0xbf2c
	.quad	.LBI2384
	.value	.LVU30
	.quad	.LBB2384
	.quad	.LBE2384-.LBB2384
	.byte	0x5
	.byte	0xa8
	.byte	0x24
	.uleb128 0x4
	.long	0xbf3a
	.long	.LLST15
	.long	.LVUS15
	.byte	0
	.byte	0
	.byte	0
	.byte	0
	.byte	0
	.byte	0
	.uleb128 0x25
	.long	0xcf1f
	.quad	.LBI2392
	.value	.LVU7
	.long	.LLRL16
	.byte	0x1
	.byte	0x1d
	.byte	0x2d
	.long	0xfd30
	.uleb128 0x4
	.long	0xcf2d
	.long	.LLST17
	.long	.LVUS17
	.uleb128 0x18
	.long	0xccd6
	.quad	.LBI2393
	.value	.LVU9
	.long	.LLRL16
	.byte	0x2
	.value	0x539
	.byte	0xf
	.uleb128 0x4
	.long	0xcce4
	.long	.LLST18
	.long	.LVUS18
	.uleb128 0x18
	.long	0xc5c3
	.quad	.LBI2394
	.value	.LVU10
	.long	.LLRL16
	.byte	0x2
	.value	0x3dd
	.byte	0x10
	.uleb128 0x3
	.long	0xc5d1
	.uleb128 0x4
	.long	0xc5da
	.long	.LLST19
	.long	.LVUS19
	.byte	0
	.byte	0
	.byte	0
	.uleb128 0x22
	.long	0xcf1f
	.quad	.LBI2400
	.value	.LVU17
	.quad	.LBB2400
	.quad	.LBE2400-.LBB2400
	.byte	0x1
	.byte	0x1e
	.byte	0x2d
	.long	0xfdcb
	.uleb128 0x4
	.long	0xcf2d
	.long	.LLST20
	.long	.LVUS20
	.uleb128 0x14
	.long	0xccd6
	.quad	.LBI2401
	.value	.LVU19
	.quad	.LBB2401
	.quad	.LBE2401-.LBB2401
	.byte	0x2
	.value	0x539
	.byte	0xf
	.uleb128 0x4
	.long	0xcce4
	.long	.LLST21
	.long	.LVUS21
	.uleb128 0x14
	.long	0xc5c3
	.quad	.LBI2402
	.value	.LVU20
	.quad	.LBB2402
	.quad	.LBE2402-.LBB2402
	.byte	0x2
	.value	0x3dd
	.byte	0x10
	.uleb128 0x3
	.long	0xc5d1
	.uleb128 0x4
	.long	0xc5da
	.long	.LLST22
	.long	.LVUS22
	.byte	0
	.byte	0
	.byte	0
	.uleb128 0x25
	.long	0xce17
	.quad	.LBI2404
	.value	.LVU39
	.long	.LLRL23
	.byte	0x1
	.byte	0x25
	.byte	0x17
	.long	0x1056f
	.uleb128 0x4
	.long	0xce25
	.long	.LLST24
	.long	.LVUS24
	.uleb128 0x4
	.long	0xce2e
	.long	.LLST25
	.long	.LVUS25
	.uleb128 0x3
	.long	0xce3b
	.uleb128 0x18
	.long	0xc7ec
	.quad	.LBI2405
	.value	.LVU40
	.long	.LLRL23
	.byte	0x2
	.value	0x362
	.byte	0x17
	.uleb128 0x4
	.long	0xc7fa
	.long	.LLST27
	.long	.LVUS27
	.uleb128 0x4
	.long	0xc803
	.long	.LLST28
	.long	.LVUS28
	.uleb128 0x3
	.long	0xc810
	.uleb128 0xd0
	.long	0xc81d
	.byte	0
	.uleb128 0x6b
	.long	0xc82a
	.long	.LLRL30
	.uleb128 0x3e
	.long	0xc830
	.uleb128 0x4c
	.long	0xbe44
	.quad	.LBI2409
	.value	.LVU1410
	.long	.LLRL31
	.byte	0x7
	.value	0x11a
	.byte	0xb
	.byte	0x1
	.long	0x102db
	.uleb128 0x4
	.long	0xbe52
	.long	.LLST32
	.long	.LVUS32
	.uleb128 0x4
	.long	0xbe5b
	.long	.LLST33
	.long	.LVUS33
	.uleb128 0x3
	.long	0xbe68
	.uleb128 0x4
	.long	0xbe75
	.long	.LLST35
	.long	.LVUS35
	.uleb128 0x3b
	.long	0xb61a
	.quad	.LBI2410
	.value	.LVU1411
	.long	.LLRL36
	.byte	0x2
	.value	0x24f
	.byte	0x2f
	.long	0xffac
	.uleb128 0x4
	.long	0xb624
	.long	.LLST37
	.long	.LVUS37
	.uleb128 0x4
	.long	0xb631
	.long	.LLST38
	.long	.LVUS38
	.uleb128 0x2e
	.long	0xbf87
	.quad	.LBI2412
	.value	.LVU1412
	.quad	.LBB2412
	.quad	.LBE2412-.LBB2412
	.byte	0x2
	.value	0x89d
	.byte	0x18
	.long	0xff3b
	.uleb128 0x3
	.long	0xbf95
	.uleb128 0x4
	.long	0xbf9e
	.long	.LLST39
	.long	.LVUS39
	.uleb128 0x1d
	.long	0xb66f
	.quad	.LBI2413
	.value	.LVU1413
	.quad	.LBB2413
	.quad	.LBE2413-.LBB2413
	.byte	0x5
	.byte	0xad
	.byte	0x22
	.uleb128 0x3
	.long	0xb67d
	.uleb128 0x4
	.long	0xb686
	.long	.LLST40
	.long	.LVUS40
	.byte	0
	.byte	0
	.uleb128 0x75
	.long	0xcec1
	.quad	.LBI2414
	.value	.LVU1415
	.quad	.LBB2414
	.quad	.LBE2414-.LBB2414
	.value	0x89d
	.byte	0x18
	.byte	0x2
	.long	0xff90
	.uleb128 0x3
	.long	0xcecf
	.uleb128 0x1d
	.long	0xc8d4
	.quad	.LBI2415
	.value	.LVU1416
	.quad	.LBB2415
	.quad	.LBE2415-.LBB2415
	.byte	0x5
	.byte	0xbd
	.byte	0x27
	.uleb128 0x3
	.long	0xc8e2
	.byte	0
	.byte	0
	.uleb128 0x31
	.quad	.LVL272
	.long	0x6d8b
	.uleb128 0x20
	.uleb128 0x1
	.byte	0x55
	.uleb128 0x9
	.byte	0x3
	.quad	.LC0
	.byte	0
	.byte	0
	.uleb128 0x4c
	.long	0xb5c7
	.quad	.LBI2417
	.value	.LVU1419
	.long	.LLRL41
	.byte	0x2
	.value	0x24f
	.byte	0x2f
	.byte	0x1
	.long	0x101ee
	.uleb128 0x4
	.long	0xb5d5
	.long	.LLST42
	.long	.LVUS42
	.uleb128 0x4
	.long	0xb5de
	.long	.LLST43
	.long	.LVUS43
	.uleb128 0x4
	.long	0xb5eb
	.long	.LLST44
	.long	.LVUS44
	.uleb128 0x2e
	.long	0xb060
	.quad	.LBI2418
	.value	.LVU1420
	.quad	.LBB2418
	.quad	.LBE2418-.LBB2418
	.byte	0x2
	.value	0x154
	.byte	0x9
	.long	0x100e0
	.uleb128 0x4
	.long	0xb06e
	.long	.LLST45
	.long	.LVUS45
	.uleb128 0x4
	.long	0xb077
	.long	.LLST46
	.long	.LVUS46
	.uleb128 0x22
	.long	0xbf87
	.quad	.LBI2419
	.value	.LVU1421
	.quad	.LBB2419
	.quad	.LBE2419-.LBB2419
	.byte	0x2
	.byte	0x99
	.byte	0x16
	.long	0x100ae
	.uleb128 0x4
	.long	0xbf95
	.long	.LLST47
	.long	.LVUS47
	.uleb128 0x4
	.long	0xbf9e
	.long	.LLST48
	.long	.LVUS48
	.uleb128 0x1d
	.long	0xb66f
	.quad	.LBI2420
	.value	.LVU1422
	.quad	.LBB2420
	.quad	.LBE2420-.LBB2420
	.byte	0x5
	.byte	0xad
	.byte	0x22
	.uleb128 0x4
	.long	0xb67d
	.long	.LLST49
	.long	.LVUS49
	.uleb128 0x4
	.long	0xb686
	.long	.LLST50
	.long	.LVUS50
	.byte	0
	.byte	0
	.uleb128 0x4d
	.long	0xc903
	.quad	.LBI2421
	.value	.LVU1424
	.quad	.LBB2421
	.quad	.LBE2421-.LBB2421
	.byte	0x2
	.byte	0x99
	.byte	0x16
	.byte	0x1
	.uleb128 0x4
	.long	0xc911
	.long	.LLST51
	.long	.LVUS51
	.byte	0
	.byte	0
	.uleb128 0x18
	.long	0xb03b
	.quad	.LBI2422
	.value	.LVU1426
	.long	.LLRL52
	.byte	0x2
	.value	0x155
	.byte	0x1a
	.uleb128 0x4
	.long	0xb049
	.long	.LLST53
	.long	.LVUS53
	.uleb128 0x4
	.long	0xb052
	.long	.LLST54
	.long	.LVUS54
	.uleb128 0x14
	.long	0xad85
	.quad	.LBI2424
	.value	.LVU1427
	.quad	.LBB2424
	.quad	.LBE2424-.LBB2424
	.byte	0x2
	.value	0x197
	.byte	0x2c
	.uleb128 0x4
	.long	0xad93
	.long	.LLST55
	.long	.LVUS55
	.uleb128 0x4
	.long	0xad9c
	.long	.LLST56
	.long	.LVUS56
	.uleb128 0x76
	.long	0xab25
	.quad	.LBI2426
	.value	.LVU1428
	.quad	.LBB2426
	.quad	.LBE2426-.LBB2426
	.value	0x185
	.byte	0x21
	.byte	0x1
	.uleb128 0x4
	.long	0xab2f
	.long	.LLST57
	.long	.LVUS57
	.uleb128 0x4
	.long	0xab3c
	.long	.LLST58
	.long	.LVUS58
	.uleb128 0x14
	.long	0xaa4c
	.quad	.LBI2427
	.value	.LVU1429
	.quad	.LBB2427
	.quad	.LBE2427-.LBB2427
	.byte	0x8
	.value	0x27e
	.byte	0x1c
	.uleb128 0x4
	.long	0xaa5a
	.long	.LLST59
	.long	.LVUS59
	.uleb128 0x4
	.long	0xaa63
	.long	.LLST60
	.long	.LVUS60
	.uleb128 0x4
	.long	0xaa6f
	.long	.LLST61
	.long	.LVUS61
	.uleb128 0x31
	.quad	.LVL244
	.long	0xa9ee
	.uleb128 0x20
	.uleb128 0x1
	.byte	0x55
	.uleb128 0x2
	.byte	0x7e
	.sleb128 0
	.byte	0
	.byte	0
	.byte	0
	.byte	0
	.byte	0
	.byte	0
	.uleb128 0x18
	.long	0xb595
	.quad	.LBI2431
	.value	.LVU1436
	.long	.LLRL62
	.byte	0x2
	.value	0x250
	.byte	0x1b
	.uleb128 0x4
	.long	0xb5a3
	.long	.LLST63
	.long	.LVUS63
	.uleb128 0x4
	.long	0xb5ac
	.long	.LLST64
	.long	.LVUS64
	.uleb128 0x3
	.long	0xb5b9
	.uleb128 0x18
	.long	0xbd45
	.quad	.LBI2432
	.value	.LVU1437
	.long	.LLRL62
	.byte	0x2
	.value	0x7c6
	.byte	0x21
	.uleb128 0x4
	.long	0xbd73
	.long	.LLST66
	.long	.LVUS66
	.uleb128 0x4
	.long	0xbd80
	.long	.LLST67
	.long	.LVUS67
	.uleb128 0x3
	.long	0xbd8d
	.uleb128 0x4
	.long	0xbd9a
	.long	.LLST69
	.long	.LVUS69
	.uleb128 0x18
	.long	0xb48e
	.quad	.LBI2433
	.value	.LVU1438
	.long	.LLRL62
	.byte	0xc
	.value	0x30a
	.byte	0x27
	.uleb128 0x4
	.long	0xb4b3
	.long	.LLST70
	.long	.LVUS70
	.uleb128 0x4
	.long	0xb4c0
	.long	.LLST71
	.long	.LVUS71
	.uleb128 0x3
	.long	0xb4cd
	.uleb128 0x6b
	.long	0xb4da
	.long	.LLRL73
	.uleb128 0x6b
	.long	0xb4db
	.long	.LLRL74
	.uleb128 0x30
	.long	0xb4dc
	.long	.LLST75
	.long	.LVUS75
	.uleb128 0x31
	.quad	.LVL246
	.long	0x12580
	.uleb128 0x20
	.uleb128 0x1
	.byte	0x54
	.uleb128 0x1
	.byte	0x30
	.uleb128 0x20
	.uleb128 0x1
	.byte	0x51
	.uleb128 0x2
	.byte	0x7e
	.sleb128 0
	.byte	0
	.byte	0
	.byte	0
	.byte	0
	.byte	0
	.byte	0
	.byte	0
	.uleb128 0x2e
	.long	0xbe14
	.quad	.LBI2445
	.value	.LVU1442
	.quad	.LBB2445
	.quad	.LBE2445-.LBB2445
	.byte	0x7
	.value	0x11b
	.byte	0x1e
	.long	0x10393
	.uleb128 0x4
	.long	0xbe22
	.long	.LLST76
	.long	.LVUS76
	.uleb128 0x4
	.long	0xbe2b
	.long	.LLST77
	.long	.LVUS77
	.uleb128 0x3e
	.long	0xbe37
	.uleb128 0x22
	.long	0xc903
	.quad	.LBI2447
	.value	.LVU1443
	.quad	.LBB2447
	.quad	.LBE2447-.LBB2447
	.byte	0x2
	.byte	0x84
	.byte	0x16
	.long	0x10355
	.uleb128 0x4
	.long	0xc911
	.long	.LLST78
	.long	.LVUS78
	.byte	0
	.uleb128 0x1d
	.long	0xb571
	.quad	.LBI2448
	.value	.LVU1445
	.quad	.LBB2448
	.quad	.LBE2448-.LBB2448
	.byte	0x2
	.byte	0x87
	.byte	0x14
	.uleb128 0x4
	.long	0xb57f
	.long	.LLST79
	.long	.LVUS79
	.uleb128 0x4
	.long	0xb588
	.long	.LLST80
	.long	.LVUS80
	.byte	0
	.byte	0
	.uleb128 0x14
	.long	0xce49
	.quad	.LBI2450
	.value	.LVU1451
	.quad	.LBB2450
	.quad	.LBE2450-.LBB2450
	.byte	0x7
	.value	0x11c
	.byte	0x2
	.uleb128 0x4
	.long	0xce57
	.long	.LLST81
	.long	.LVUS81
	.uleb128 0x2e
	.long	0xc88a
	.quad	.LBI2451
	.value	.LVU1452
	.quad	.LBB2451
	.quad	.LBE2451-.LBB2451
	.byte	0x2
	.value	0x319
	.byte	0x1c
	.long	0x103f8
	.uleb128 0x4
	.long	0xc898
	.long	.LLST82
	.long	.LVUS82
	.byte	0
	.uleb128 0x2e
	.long	0xc84e
	.quad	.LBI2452
	.value	.LVU1454
	.quad	.LBB2452
	.quad	.LBE2452-.LBB2452
	.byte	0x2
	.value	0x318
	.byte	0xf
	.long	0x10437
	.uleb128 0x3
	.long	0xc86a
	.uleb128 0x3
	.long	0xc877
	.uleb128 0x4
	.long	0xc884
	.long	.LLST83
	.long	.LVUS83
	.byte	0
	.uleb128 0x14
	.long	0xce78
	.quad	.LBI2453
	.value	.LVU1456
	.quad	.LBB2453
	.quad	.LBE2453-.LBB2453
	.byte	0x2
	.value	0x31b
	.byte	0x7
	.uleb128 0x4
	.long	0xce86
	.long	.LLST84
	.long	.LVUS84
	.uleb128 0x77
	.long	0xce8f
	.quad	.LBB2454
	.quad	.LBE2454-.LBB2454
	.long	0x104d9
	.uleb128 0x30
	.long	0xce90
	.long	.LLST85
	.long	.LVUS85
	.uleb128 0x14
	.long	0xc8a2
	.quad	.LBI2455
	.value	.LVU1457
	.quad	.LBB2455
	.quad	.LBE2455-.LBB2455
	.byte	0x2
	.value	0x17a
	.byte	0xf
	.uleb128 0x4
	.long	0xc8b0
	.long	.LLST86
	.long	.LVUS86
	.uleb128 0x4
	.long	0xc8b9
	.long	.LLST87
	.long	.LVUS87
	.uleb128 0x4
	.long	0xc8c6
	.long	.LLST87
	.long	.LVUS87
	.byte	0
	.byte	0
	.uleb128 0x14
	.long	0x1233b
	.quad	.LBI2456
	.value	.LVU1459
	.quad	.LBB2456
	.quad	.LBE2456-.LBB2456
	.byte	0x2
	.value	0x17b
	.byte	0x7
	.uleb128 0x4
	.long	0x1234b
	.long	.LLST89
	.long	.LVUS89
	.uleb128 0x1d
	.long	0xcec1
	.quad	.LBI2457
	.value	.LVU1460
	.quad	.LBB2457
	.quad	.LBE2457-.LBB2457
	.byte	0x2
	.byte	0x8b
	.byte	0xe
	.uleb128 0x4
	.long	0xcecf
	.long	.LLST90
	.long	.LVUS90
	.uleb128 0x1d
	.long	0xc8d4
	.quad	.LBI2458
	.value	.LVU1461
	.quad	.LBB2458
	.quad	.LBE2458-.LBB2458
	.byte	0x5
	.byte	0xbd
	.byte	0x27
	.uleb128 0x4
	.long	0xc8e2
	.long	.LLST91
	.long	.LVUS91
	.byte	0
	.byte	0
	.byte	0
	.byte	0
	.byte	0
	.byte	0
	.byte	0
	.byte	0
	.uleb128 0x25
	.long	0x121f8
	.quad	.LBI2467
	.value	.LVU44
	.long	.LLRL92
	.byte	0x1
	.byte	0x27
	.byte	0x1c
	.long	0x10652
	.uleb128 0x4
	.long	0x12206
	.long	.LLST93
	.long	.LVUS93
	.uleb128 0x18
	.long	0x12223
	.quad	.LBI2468
	.value	.LVU45
	.long	.LLRL92
	.byte	0x2
	.value	0x227
	.byte	0x7
	.uleb128 0x4
	.long	0x12231
	.long	.LLST94
	.long	.LVUS94
	.uleb128 0x18
	.long	0xcdec
	.quad	.LBI2469
	.value	.LVU46
	.long	.LLRL92
	.byte	0x2
	.value	0x141
	.byte	0x7
	.uleb128 0x4
	.long	0xcdfa
	.long	.LLST95
	.long	.LVUS95
	.uleb128 0x25
	.long	0xc7c1
	.quad	.LBI2470
	.value	.LVU47
	.long	.LLRL96
	.byte	0x2
	.byte	0x94
	.byte	0x13
	.long	0x1062a
	.uleb128 0x4
	.long	0xc7cf
	.long	.LLST97
	.long	.LVUS97
	.uleb128 0x5f
	.long	0xbc99
	.quad	.LBI2471
	.value	.LVU48
	.long	.LLRL96
	.byte	0x5
	.byte	0xa8
	.byte	0x24
	.uleb128 0x4
	.long	0xbca7
	.long	.LLST98
	.long	.LVUS98
	.byte	0
	.byte	0
	.uleb128 0x65
	.long	0xc796
	.quad	.LBI2473
	.value	.LVU50
	.long	.LLRL99
	.byte	0x2
	.byte	0x94
	.byte	0x13
	.byte	0x1
	.uleb128 0x4
	.long	0xc7a4
	.long	.LLST100
	.long	.LVUS100
	.byte	0
	.byte	0
	.byte	0
	.byte	0
	.uleb128 0x25
	.long	0xcd2c
	.quad	.LBI2498
	.value	.LVU53
	.long	.LLRL101
	.byte	0x1
	.byte	0x28
	.byte	0x13
	.long	0x1067f
	.uleb128 0x4
	.long	0xcd3a
	.long	.LLST102
	.long	.LVUS102
	.uleb128 0x3e
	.long	0xcd43
	.byte	0
	.uleb128 0x2f
	.long	0xccee
	.quad	.LBI2503
	.value	.LVU56
	.long	.LLRL103
	.byte	0x1
	.byte	0x28
	.byte	0x13
	.byte	0x1
	.long	0x107a8
	.uleb128 0x4
	.long	0xccfc
	.long	.LLST104
	.long	.LVUS104
	.uleb128 0x4
	.long	0xcd05
	.long	.LLST105
	.long	.LVUS105
	.uleb128 0xd1
	.long	0xcd11
	.quad	.LBB2505
	.quad	.LBE2505-.LBB2505
	.uleb128 0x30
	.long	0xcd12
	.long	.LLST106
	.long	.LVUS106
	.uleb128 0x30
	.long	0xcd1e
	.long	.LLST107
	.long	.LVUS107
	.uleb128 0x1d
	.long	0xc65e
	.quad	.LBI2506
	.value	.LVU62
	.quad	.LBB2506
	.quad	.LBE2506-.LBB2506
	.byte	0x7
	.byte	0x52
	.byte	0x21
	.uleb128 0x4
	.long	0xc66c
	.long	.LLST108
	.long	.LVUS108
	.uleb128 0x3
	.long	0xc675
	.uleb128 0x76
	.long	0xbbcc
	.quad	.LBI2508
	.value	.LVU63
	.quad	.LBB2508
	.quad	.LBE2508-.LBB2508
	.value	0x185
	.byte	0x21
	.byte	0x1
	.uleb128 0x4
	.long	0xbbd6
	.long	.LLST109
	.long	.LVUS109
	.uleb128 0x3
	.long	0xbbe3
	.uleb128 0x14
	.long	0xb3b1
	.quad	.LBI2509
	.value	.LVU64
	.quad	.LBB2509
	.quad	.LBE2509-.LBB2509
	.byte	0x8
	.value	0x27e
	.byte	0x1c
	.uleb128 0x4
	.long	0xb3d4
	.long	.LLST110
	.long	.LVUS110
	.uleb128 0x4
	.long	0xb3bf
	.long	.LLST111
	.long	.LVUS111
	.uleb128 0x3
	.long	0xb3c8
	.uleb128 0x31
	.quad	.LVL10
	.long	0xa9ee
	.uleb128 0x20
	.uleb128 0x1
	.byte	0x55
	.uleb128 0x2
	.byte	0x7f
	.sleb128 0
	.byte	0
	.byte	0
	.byte	0
	.byte	0
	.byte	0
	.byte	0
	.uleb128 0x2f
	.long	0xcd51
	.quad	.LBI2637
	.value	.LVU1273
	.long	.LLRL196
	.byte	0x1
	.byte	0xb6
	.byte	0x1
	.byte	0x2
	.long	0x10a07
	.uleb128 0x4
	.long	0xcd5f
	.long	.LLST197
	.long	.LVUS197
	.uleb128 0x3b
	.long	0xcd7c
	.quad	.LBI2638
	.value	.LVU1278
	.long	.LLRL198
	.byte	0x2
	.value	0x31b
	.byte	0x7
	.long	0x10996
	.uleb128 0x4
	.long	0xcd8a
	.long	.LLST199
	.long	.LVUS199
	.uleb128 0x78
	.long	0xcd93
	.long	.LLRL200
	.long	0x10904
	.uleb128 0x3e
	.long	0xcd94
	.uleb128 0x14
	.long	0xc739
	.quad	.LBI2640
	.value	.LVU1279
	.quad	.LBB2640
	.quad	.LBE2640-.LBB2640
	.byte	0x2
	.value	0x17a
	.byte	0xf
	.uleb128 0x4
	.long	0xc747
	.long	.LLST201
	.long	.LVUS201
	.uleb128 0x3
	.long	0xc750
	.uleb128 0x3
	.long	0xc75d
	.uleb128 0x14
	.long	0xc739
	.quad	.LBI2642
	.value	.LVU1281
	.quad	.LBB2642
	.quad	.LBE2642-.LBB2642
	.byte	0x2
	.value	0x18a
	.byte	0x7
	.uleb128 0x4
	.long	0xc747
	.long	.LLST202
	.long	.LVUS202
	.uleb128 0x3
	.long	0xc750
	.uleb128 0x3
	.long	0xc75d
	.uleb128 0x14
	.long	0xbc67
	.quad	.LBI2644
	.value	.LVU1282
	.quad	.LBB2644
	.quad	.LBE2644-.LBB2644
	.byte	0x2
	.value	0x18e
	.byte	0x13
	.uleb128 0x3
	.long	0xbc71
	.uleb128 0x3
	.long	0xbc7e
	.uleb128 0x3
	.long	0xbc8b
	.uleb128 0x14
	.long	0xb3f2
	.quad	.LBI2645
	.value	.LVU1283
	.quad	.LBB2645
	.quad	.LBE2645-.LBB2645
	.byte	0x8
	.value	0x2b1
	.byte	0x17
	.uleb128 0x3
	.long	0xb400
	.uleb128 0x3
	.long	0xb409
	.uleb128 0x3
	.long	0xb415
	.uleb128 0x31
	.quad	.LVL209
	.long	0xa9d3
	.uleb128 0x20
	.uleb128 0x1
	.byte	0x55
	.uleb128 0x4
	.byte	0x77
	.sleb128 112
	.byte	0x6
	.uleb128 0x20
	.uleb128 0x1
	.byte	0x54
	.uleb128 0x3
	.byte	0x77
	.sleb128 40
	.byte	0x6
	.byte	0
	.byte	0
	.byte	0
	.byte	0
	.byte	0
	.byte	0
	.uleb128 0x14
	.long	0x1224e
	.quad	.LBI2648
	.value	.LVU1286
	.quad	.LBB2648
	.quad	.LBE2648-.LBB2648
	.byte	0x2
	.value	0x17b
	.byte	0x7
	.uleb128 0x4
	.long	0x1225e
	.long	.LLST203
	.long	.LVUS203
	.uleb128 0x1d
	.long	0xcdc1
	.quad	.LBI2649
	.value	.LVU1287
	.quad	.LBB2649
	.quad	.LBE2649-.LBB2649
	.byte	0x2
	.byte	0x8b
	.byte	0xe
	.uleb128 0x4
	.long	0xcdcf
	.long	.LLST204
	.long	.LVUS204
	.uleb128 0x1d
	.long	0xc76b
	.quad	.LBI2650
	.value	.LVU1288
	.quad	.LBB2650
	.quad	.LBE2650-.LBB2650
	.byte	0x5
	.byte	0xbd
	.byte	0x27
	.uleb128 0x4
	.long	0xc779
	.long	.LLST205
	.long	.LVUS205
	.byte	0
	.byte	0
	.byte	0
	.byte	0
	.uleb128 0x2e
	.long	0xc721
	.quad	.LBI2651
	.value	.LVU1274
	.quad	.LBB2651
	.quad	.LBE2651-.LBB2651
	.byte	0x2
	.value	0x319
	.byte	0x1c
	.long	0x109cb
	.uleb128 0x4
	.long	0xc72f
	.long	.LLST206
	.long	.LVUS206
	.byte	0
	.uleb128 0x14
	.long	0xc6e5
	.quad	.LBI2652
	.value	.LVU1276
	.quad	.LBB2652
	.quad	.LBE2652-.LBB2652
	.byte	0x2
	.value	0x318
	.byte	0xf
	.uleb128 0x3
	.long	0xc701
	.uleb128 0x3
	.long	0xc70e
	.uleb128 0x4
	.long	0xc71b
	.long	.LLST207
	.long	.LVUS207
	.byte	0
	.byte	0
	.uleb128 0x22
	.long	0xcc52
	.quad	.LBI2654
	.value	.LVU167
	.quad	.LBB2654
	.quad	.LBE2654-.LBB2654
	.byte	0x1
	.byte	0x3e
	.byte	0x2e
	.long	0x10a5b
	.uleb128 0x3
	.long	0xcc60
	.uleb128 0x1d
	.long	0xc481
	.quad	.LBI2655
	.value	.LVU168
	.quad	.LBB2655
	.quad	.LBE2655-.LBB2655
	.byte	0x5
	.byte	0xa8
	.byte	0x24
	.uleb128 0x3
	.long	0xc48f
	.byte	0
	.byte	0
	.uleb128 0x2f
	.long	0xcbbe
	.quad	.LBI2656
	.value	.LVU170
	.long	.LLRL210
	.byte	0x1
	.byte	0x3e
	.byte	0x2e
	.byte	0x1
	.long	0x10ed2
	.uleb128 0x3
	.long	0xcbcc
	.uleb128 0x4
	.long	0xcbd5
	.long	.LLST211
	.long	.LVUS211
	.uleb128 0x3
	.long	0xcbe2
	.uleb128 0x3
	.long	0xcbef
	.uleb128 0x3b
	.long	0xc42d
	.quad	.LBI2657
	.value	.LVU171
	.long	.LLRL214
	.byte	0x2
	.value	0x24f
	.byte	0x2f
	.long	0x10b8f
	.uleb128 0x4
	.long	0xc437
	.long	.LLST215
	.long	.LVUS215
	.uleb128 0x3
	.long	0xc444
	.uleb128 0x2e
	.long	0xb9a5
	.quad	.LBI2659
	.value	.LVU172
	.quad	.LBB2659
	.quad	.LBE2659-.LBB2659
	.byte	0x2
	.value	0x89d
	.byte	0x18
	.long	0x10b1e
	.uleb128 0x3
	.long	0xb9b3
	.uleb128 0x3
	.long	0xb9bc
	.uleb128 0x1d
	.long	0xb32d
	.quad	.LBI2660
	.value	.LVU173
	.quad	.LBB2660
	.quad	.LBE2660-.LBB2660
	.byte	0x5
	.byte	0xad
	.byte	0x22
	.uleb128 0x3
	.long	0xb33b
	.uleb128 0x3
	.long	0xb344
	.byte	0
	.byte	0
	.uleb128 0x75
	.long	0xcc23
	.quad	.LBI2661
	.value	.LVU175
	.quad	.LBB2661
	.quad	.LBE2661-.LBB2661
	.value	0x89d
	.byte	0x18
	.byte	0x2
	.long	0x10b73
	.uleb128 0x3
	.long	0xcc31
	.uleb128 0x1d
	.long	0xc452
	.quad	.LBI2662
	.value	.LVU176
	.quad	.LBB2662
	.quad	.LBE2662-.LBB2662
	.byte	0x5
	.byte	0xbd
	.byte	0x27
	.uleb128 0x3
	.long	0xc460
	.byte	0
	.byte	0
	.uleb128 0x31
	.quad	.LVL261
	.long	0x6d8b
	.uleb128 0x20
	.uleb128 0x1
	.byte	0x55
	.uleb128 0x9
	.byte	0x3
	.quad	.LC0
	.byte	0
	.byte	0
	.uleb128 0x4c
	.long	0xc3a9
	.quad	.LBI2664
	.value	.LVU179
	.long	.LLRL219
	.byte	0x2
	.value	0x24f
	.byte	0x2f
	.byte	0x1
	.long	0x10d46
	.uleb128 0x3
	.long	0xc3b7
	.uleb128 0x4
	.long	0xc3c0
	.long	.LLST220
	.long	.LVUS220
	.uleb128 0x3
	.long	0xc3cd
	.uleb128 0x2e
	.long	0xb965
	.quad	.LBI2665
	.value	.LVU180
	.quad	.LBB2665
	.quad	.LBE2665-.LBB2665
	.byte	0x2
	.value	0x154
	.byte	0x9
	.long	0x10c7b
	.uleb128 0x3
	.long	0xb973
	.uleb128 0x3
	.long	0xb97c
	.uleb128 0x22
	.long	0xb9a5
	.quad	.LBI2666
	.value	.LVU181
	.quad	.LBB2666
	.quad	.LBE2666-.LBB2666
	.byte	0x2
	.byte	0x99
	.byte	0x16
	.long	0x10c51
	.uleb128 0x3
	.long	0xb9b3
	.uleb128 0x3
	.long	0xb9bc
	.uleb128 0x1d
	.long	0xb32d
	.quad	.LBI2667
	.value	.LVU182
	.quad	.LBB2667
	.quad	.LBE2667-.LBB2667
	.byte	0x5
	.byte	0xad
	.byte	0x22
	.uleb128 0x3
	.long	0xb33b
	.uleb128 0x3
	.long	0xb344
	.byte	0
	.byte	0
	.uleb128 0x4d
	.long	0xb2fe
	.quad	.LBI2668
	.value	.LVU184
	.quad	.LBB2668
	.quad	.LBE2668-.LBB2668
	.byte	0x2
	.byte	0x99
	.byte	0x16
	.byte	0x1
	.uleb128 0x3
	.long	0xb30c
	.byte	0
	.byte	0
	.uleb128 0x18
	.long	0xb940
	.quad	.LBI2669
	.value	.LVU186
	.long	.LLRL225
	.byte	0x2
	.value	0x155
	.byte	0x1a
	.uleb128 0x3
	.long	0xb94e
	.uleb128 0x4
	.long	0xb957
	.long	.LLST226
	.long	.LVUS226
	.uleb128 0x18
	.long	0xb2d9
	.quad	.LBI2671
	.value	.LVU187
	.long	.LLRL227
	.byte	0x2
	.value	0x197
	.byte	0x2c
	.uleb128 0x3
	.long	0xb2e7
	.uleb128 0x4
	.long	0xb2f0
	.long	.LLST228
	.long	.LVUS228
	.uleb128 0x60
	.long	0xaf04
	.quad	.LBI2673
	.value	.LVU189
	.long	.LLRL229
	.byte	0x2
	.value	0x185
	.byte	0x21
	.byte	0x1
	.uleb128 0x3
	.long	0xaf0e
	.uleb128 0x4
	.long	0xaf1b
	.long	.LLST230
	.long	.LVUS230
	.uleb128 0x18
	.long	0xace4
	.quad	.LBI2674
	.value	.LVU190
	.long	.LLRL229
	.byte	0x8
	.value	0x27e
	.byte	0x1c
	.uleb128 0x3
	.long	0xacf2
	.uleb128 0x4
	.long	0xad07
	.long	.LLST231
	.long	.LVUS231
	.uleb128 0x4
	.long	0xacfb
	.long	.LLST232
	.long	.LVUS232
	.uleb128 0x31
	.quad	.LVL42
	.long	0xa9ee
	.uleb128 0x20
	.uleb128 0x1
	.byte	0x55
	.uleb128 0x2
	.byte	0x7c
	.sleb128 0
	.byte	0
	.byte	0
	.byte	0
	.byte	0
	.byte	0
	.byte	0
	.uleb128 0x18
	.long	0xc32e
	.quad	.LBI2687
	.value	.LVU196
	.long	.LLRL233
	.byte	0x2
	.value	0x250
	.byte	0x1b
	.uleb128 0x3
	.long	0xc33c
	.uleb128 0x4
	.long	0xc345
	.long	.LLST234
	.long	.LVUS234
	.uleb128 0x3
	.long	0xc352
	.uleb128 0x18
	.long	0xb8b3
	.quad	.LBI2688
	.value	.LVU197
	.long	.LLRL233
	.byte	0x2
	.value	0x7c6
	.byte	0x21
	.uleb128 0x4
	.long	0xb8e1
	.long	.LLST236
	.long	.LVUS236
	.uleb128 0x4
	.long	0xb8ee
	.long	.LLST237
	.long	.LVUS237
	.uleb128 0x3
	.long	0xb8fb
	.uleb128 0x3
	.long	0xb908
	.uleb128 0x18
	.long	0xb25a
	.quad	.LBI2689
	.value	.LVU198
	.long	.LLRL233
	.byte	0xc
	.value	0x30a
	.byte	0x27
	.uleb128 0x4
	.long	0xb27f
	.long	.LLST239
	.long	.LVUS239
	.uleb128 0x4
	.long	0xb28c
	.long	.LLST240
	.long	.LVUS240
	.uleb128 0x3
	.long	0xb299
	.uleb128 0x18
	.long	0xae7a
	.quad	.LBI2691
	.value	.LVU199
	.long	.LLRL242
	.byte	0xc
	.value	0x253
	.byte	0x25
	.uleb128 0x4
	.long	0xae9f
	.long	.LLST243
	.long	.LVUS243
	.uleb128 0x4
	.long	0xaeac
	.long	.LLST244
	.long	.LVUS244
	.uleb128 0x3
	.long	0xaeb9
	.uleb128 0x3e
	.long	0xaec6
	.uleb128 0x9d
	.long	0xac37
	.long	.LLRL246
	.long	0x10e5a
	.uleb128 0x3
	.long	0xac59
	.uleb128 0x3
	.long	0xac6e
	.uleb128 0x31
	.quad	.LVL44
	.long	0x12580
	.uleb128 0x20
	.uleb128 0x1
	.byte	0x55
	.uleb128 0x4
	.byte	0x77
	.sleb128 72
	.byte	0x6
	.uleb128 0x20
	.uleb128 0x1
	.byte	0x54
	.uleb128 0x1
	.byte	0x30
	.uleb128 0x20
	.uleb128 0x1
	.byte	0x51
	.uleb128 0x2
	.byte	0x7c
	.sleb128 0
	.byte	0
	.byte	0
	.uleb128 0x2e
	.long	0xaca4
	.quad	.LBI2696
	.value	.LVU200
	.quad	.LBB2696
	.quad	.LBE2696-.LBB2696
	.byte	0xc
	.value	0x1df
	.byte	0x2d
	.long	0x10e9c
	.uleb128 0x4
	.long	0xacb2
	.long	.LLST247
	.long	.LVUS247
	.uleb128 0x4
	.long	0xacbb
	.long	.LLST248
	.long	.LVUS248
	.byte	0
	.uleb128 0x14
	.long	0xac75
	.quad	.LBI2698
	.value	.LVU206
	.quad	.LBB2698
	.quad	.LBE2698-.LBB2698
	.byte	0xc
	.value	0x1ef
	.byte	0x5
	.uleb128 0x4
	.long	0xac83
	.long	.LLST249
	.long	.LVUS249
	.byte	0
	.byte	0
	.byte	0
	.byte	0
	.byte	0
	.byte	0
	.uleb128 0x58
	.long	0xcc23
	.quad	.LBI2708
	.value	.LVU208
	.quad	.LBB2708
	.quad	.LBE2708-.LBB2708
	.byte	0x3e
	.byte	0x2e
	.byte	0x2
	.long	0x10f26
	.uleb128 0x3
	.long	0xcc31
	.uleb128 0x1d
	.long	0xc452
	.quad	.LBI2709
	.value	.LVU209
	.quad	.LBB2709
	.quad	.LBE2709-.LBB2709
	.byte	0x5
	.byte	0xbd
	.byte	0x27
	.uleb128 0x3
	.long	0xc460
	.byte	0
	.byte	0
	.uleb128 0x22
	.long	0xcb0b
	.quad	.LBI2823
	.value	.LVU364
	.quad	.LBB2823
	.quad	.LBE2823-.LBB2823
	.byte	0x1
	.byte	0x53
	.byte	0x35
	.long	0x10f7a
	.uleb128 0x3
	.long	0xcb19
	.uleb128 0x1d
	.long	0xc26e
	.quad	.LBI2824
	.value	.LVU365
	.quad	.LBB2824
	.quad	.LBE2824-.LBB2824
	.byte	0x5
	.byte	0xa8
	.byte	0x24
	.uleb128 0x3
	.long	0xc27c
	.byte	0
	.byte	0
	.uleb128 0x58
	.long	0xca89
	.quad	.LBI2825
	.value	.LVU367
	.quad	.LBB2825
	.quad	.LBE2825-.LBB2825
	.byte	0x53
	.byte	0x35
	.byte	0x1
	.long	0x114fc
	.uleb128 0x3
	.long	0xca97
	.uleb128 0x4
	.long	0xcaa0
	.long	.LLST326
	.long	.LVUS326
	.uleb128 0x3
	.long	0xcaad
	.uleb128 0x2e
	.long	0xc21a
	.quad	.LBI2826
	.value	.LVU368
	.quad	.LBB2826
	.quad	.LBE2826-.LBB2826
	.byte	0x2
	.value	0x241
	.byte	0x2f
	.long	0x110a1
	.uleb128 0x4
	.long	0xc224
	.long	.LLST328
	.long	.LVUS328
	.uleb128 0x3
	.long	0xc231
	.uleb128 0x2e
	.long	0xb815
	.quad	.LBI2827
	.value	.LVU369
	.quad	.LBB2827
	.quad	.LBE2827-.LBB2827
	.byte	0x2
	.value	0x89d
	.byte	0x18
	.long	0x1104f
	.uleb128 0x3
	.long	0xb823
	.uleb128 0x3
	.long	0xb82c
	.uleb128 0x1d
	.long	0xb209
	.quad	.LBI2828
	.value	.LVU370
	.quad	.LBB2828
	.quad	.LBE2828-.LBB2828
	.byte	0x5
	.byte	0xad
	.byte	0x22
	.uleb128 0x3
	.long	0xb217
	.uleb128 0x3
	.long	0xb220
	.byte	0
	.byte	0
	.uleb128 0x76
	.long	0xcadc
	.quad	.LBI2829
	.value	.LVU372
	.quad	.LBB2829
	.quad	.LBE2829-.LBB2829
	.value	0x89d
	.byte	0x18
	.byte	0x2
	.uleb128 0x3
	.long	0xcaea
	.uleb128 0x1d
	.long	0xc23f
	.quad	.LBI2830
	.value	.LVU373
	.quad	.LBB2830
	.quad	.LBE2830-.LBB2830
	.byte	0x5
	.byte	0xbd
	.byte	0x27
	.uleb128 0x3
	.long	0xc24d
	.byte	0
	.byte	0
	.byte	0
	.uleb128 0x4c
	.long	0xc196
	.quad	.LBI2831
	.value	.LVU375
	.long	.LLRL332
	.byte	0x2
	.value	0x241
	.byte	0x2f
	.byte	0x1
	.long	0x1125b
	.uleb128 0x3
	.long	0xc1a4
	.uleb128 0x4
	.long	0xc1ad
	.long	.LLST333
	.long	.LVUS333
	.uleb128 0x3
	.long	0xc1ba
	.uleb128 0x2e
	.long	0xb7d5
	.quad	.LBI2832
	.value	.LVU376
	.quad	.LBB2832
	.quad	.LBE2832-.LBB2832
	.byte	0x2
	.value	0x154
	.byte	0x9
	.long	0x1118d
	.uleb128 0x3
	.long	0xb7e3
	.uleb128 0x3
	.long	0xb7ec
	.uleb128 0x22
	.long	0xb815
	.quad	.LBI2833
	.value	.LVU377
	.quad	.LBB2833
	.quad	.LBE2833-.LBB2833
	.byte	0x2
	.byte	0x99
	.byte	0x16
	.long	0x11163
	.uleb128 0x3
	.long	0xb823
	.uleb128 0x3
	.long	0xb82c
	.uleb128 0x1d
	.long	0xb209
	.quad	.LBI2834
	.value	.LVU378
	.quad	.LBB2834
	.quad	.LBE2834-.LBB2834
	.byte	0x5
	.byte	0xad
	.byte	0x22
	.uleb128 0x3
	.long	0xb217
	.uleb128 0x3
	.long	0xb220
	.byte	0
	.byte	0
	.uleb128 0x4d
	.long	0xb1da
	.quad	.LBI2835
	.value	.LVU380
	.quad	.LBB2835
	.quad	.LBE2835-.LBB2835
	.byte	0x2
	.byte	0x99
	.byte	0x16
	.byte	0x1
	.uleb128 0x3
	.long	0xb1e8
	.byte	0
	.byte	0
	.uleb128 0x18
	.long	0xb7b0
	.quad	.LBI2836
	.value	.LVU382
	.long	.LLRL338
	.byte	0x2
	.value	0x155
	.byte	0x1a
	.uleb128 0x3
	.long	0xb7be
	.uleb128 0x4
	.long	0xb7c7
	.long	.LLST339
	.long	.LVUS339
	.uleb128 0x18
	.long	0xb1b5
	.quad	.LBI2837
	.value	.LVU383
	.long	.LLRL338
	.byte	0x2
	.value	0x197
	.byte	0x2c
	.uleb128 0x3
	.long	0xb1c3
	.uleb128 0x4
	.long	0xb1cc
	.long	.LLST340
	.long	.LVUS340
	.uleb128 0x60
	.long	0xae3d
	.quad	.LBI2839
	.value	.LVU384
	.long	.LLRL341
	.byte	0x2
	.value	0x185
	.byte	0x21
	.byte	0x1
	.uleb128 0x3
	.long	0xae47
	.uleb128 0x4
	.long	0xae54
	.long	.LLST342
	.long	.LVUS342
	.uleb128 0x18
	.long	0xabde
	.quad	.LBI2840
	.value	.LVU385
	.long	.LLRL343
	.byte	0x8
	.value	0x27e
	.byte	0x1c
	.uleb128 0x3
	.long	0xabec
	.uleb128 0x4
	.long	0xac01
	.long	.LLST344
	.long	.LVUS344
	.uleb128 0x4
	.long	0xabf5
	.long	.LLST345
	.long	.LVUS345
	.uleb128 0x31
	.quad	.LVL76
	.long	0xa9ee
	.uleb128 0x20
	.uleb128 0x1
	.byte	0x55
	.uleb128 0x5
	.byte	0xc
	.long	0x2fa00
	.byte	0
	.byte	0
	.byte	0
	.byte	0
	.byte	0
	.byte	0
	.uleb128 0x18
	.long	0xc128
	.quad	.LBI2848
	.value	.LVU393
	.long	.LLRL346
	.byte	0x2
	.value	0x242
	.byte	0x1e
	.uleb128 0x3
	.long	0xc136
	.uleb128 0x4
	.long	0xc13f
	.long	.LLST347
	.long	.LVUS347
	.uleb128 0x18
	.long	0xb739
	.quad	.LBI2849
	.value	.LVU394
	.long	.LLRL346
	.byte	0x2
	.value	0x7d1
	.byte	0x24
	.uleb128 0x4
	.long	0xb75e
	.long	.LLST348
	.long	.LVUS348
	.uleb128 0x4
	.long	0xb76b
	.long	.LLST349
	.long	.LVUS349
	.uleb128 0x3
	.long	0xb778
	.uleb128 0x18
	.long	0xb13e
	.quad	.LBI2850
	.value	.LVU395
	.long	.LLRL346
	.byte	0xc
	.value	0x41d
	.byte	0x2c
	.uleb128 0x4
	.long	0xb15a
	.long	.LLST350
	.long	.LVUS350
	.uleb128 0x4
	.long	0xb167
	.long	.LLST351
	.long	.LVUS351
	.uleb128 0x30
	.long	0xb174
	.long	.LLST352
	.long	.LVUS352
	.uleb128 0x18
	.long	0xadc2
	.quad	.LBI2852
	.value	.LVU396
	.long	.LLRL353
	.byte	0xc
	.value	0x3e6
	.byte	0x14
	.uleb128 0x4
	.long	0xadde
	.long	.LLST354
	.long	.LVUS354
	.uleb128 0x4
	.long	0xadeb
	.long	.LLST355
	.long	.LVUS355
	.uleb128 0x18
	.long	0xadc2
	.quad	.LBI2853
	.value	.LVU397
	.long	.LLRL356
	.byte	0xc
	.value	0x3ab
	.byte	0x9
	.uleb128 0x4
	.long	0xadde
	.long	.LLST357
	.long	.LVUS357
	.uleb128 0x4
	.long	0xadeb
	.long	.LLST358
	.long	.LVUS358
	.uleb128 0x6b
	.long	0xadf8
	.long	.LLRL359
	.uleb128 0x30
	.long	0xadf9
	.long	.LLST360
	.long	.LVUS360
	.uleb128 0x3b
	.long	0xabaf
	.quad	.LBI2855
	.value	.LVU398
	.long	.LLRL361
	.byte	0xc
	.value	0x3b1
	.byte	0x17
	.long	0x11399
	.uleb128 0x4
	.long	0xabc8
	.long	.LLST362
	.long	.LVUS362
	.byte	0
	.uleb128 0x18
	.long	0xab62
	.quad	.LBI2857
	.value	.LVU400
	.long	.LLRL363
	.byte	0xc
	.value	0x3b3
	.byte	0x1d
	.uleb128 0x4
	.long	0xab87
	.long	.LLST364
	.long	.LVUS364
	.uleb128 0x4
	.long	0xab94
	.long	.LLST365
	.long	.LVUS365
	.uleb128 0x4
	.long	0xaba1
	.long	.LLST366
	.long	.LVUS366
	.uleb128 0x60
	.long	0xaa8d
	.quad	.LBI2858
	.value	.LVU401
	.long	.LLRL363
	.byte	0xa
	.value	0x4a0
	.byte	0x1d
	.byte	0x1
	.uleb128 0x4
	.long	0xaab2
	.long	.LLST367
	.long	.LVUS367
	.uleb128 0x4
	.long	0xaabf
	.long	.LLST368
	.long	.LVUS368
	.uleb128 0x4
	.long	0xaacc
	.long	.LLST369
	.long	.LVUS369
	.uleb128 0x3
	.long	0xaad9
	.uleb128 0x30
	.long	0xaade
	.long	.LLST370
	.long	.LVUS370
	.uleb128 0x30
	.long	0xaaeb
	.long	.LLST371
	.long	.LVUS371
	.uleb128 0x18
	.long	0xaa08
	.quad	.LBI2860
	.value	.LVU402
	.long	.LLRL372
	.byte	0xa
	.value	0x482
	.byte	0x14
	.uleb128 0x4
	.long	0xaa24
	.long	.LLST373
	.long	.LVUS373
	.uleb128 0x4
	.long	0xaa31
	.long	.LLST371
	.long	.LVUS371
	.uleb128 0x4
	.long	0xaa3e
	.long	.LLST375
	.long	.LVUS375
	.uleb128 0x18
	.long	0xb0d2
	.quad	.LBI2861
	.value	.LVU403
	.long	.LLRL376
	.byte	0xa
	.value	0x3d1
	.byte	0x15
	.uleb128 0x4
	.long	0xb0ee
	.long	.LLST377
	.long	.LVUS377
	.uleb128 0x4
	.long	0xb0fb
	.long	.LLST378
	.long	.LVUS378
	.uleb128 0x4
	.long	0xb108
	.long	.LLST379
	.long	.LVUS379
	.uleb128 0x30
	.long	0xb115
	.long	.LLST380
	.long	.LVUS380
	.uleb128 0x30
	.long	0xb130
	.long	.LLST381
	.long	.LVUS381
	.uleb128 0x31
	.quad	.LVL78
	.long	0x12580
	.uleb128 0x20
	.uleb128 0x1
	.byte	0x55
	.uleb128 0x6
	.byte	0x77
	.sleb128 248
	.byte	0x6
	.byte	0x23
	.uleb128 0x4
	.uleb128 0x20
	.uleb128 0x1
	.byte	0x54
	.uleb128 0x1
	.byte	0x30
	.uleb128 0x20
	.uleb128 0x1
	.byte	0x51
	.uleb128 0x5
	.byte	0xc
	.long	0x2f9fc
	.byte	0
	.byte	0
	.byte	0
	.byte	0
	.byte	0
	.byte	0
	.byte	0
	.byte	0
	.byte	0
	.byte	0
	.byte	0
	.byte	0
	.uleb128 0x22
	.long	0xca5a
	.quad	.LBI3339
	.value	.LVU1242
	.quad	.LBB3339
	.quad	.LBE3339-.LBB3339
	.byte	0x1
	.byte	0xb6
	.byte	0x1
	.long	0x1173d
	.uleb128 0x3
	.long	0xca68
	.uleb128 0x2e
	.long	0xc110
	.quad	.LBI3340
	.value	.LVU1243
	.quad	.LBB3340
	.quad	.LBE3340-.LBB3340
	.byte	0x2
	.value	0x319
	.byte	0x1c
	.long	0x11554
	.uleb128 0x3
	.long	0xc11e
	.byte	0
	.uleb128 0x2e
	.long	0xc0d4
	.quad	.LBI3341
	.value	.LVU1245
	.quad	.LBB3341
	.quad	.LBE3341-.LBB3341
	.byte	0x2
	.value	0x318
	.byte	0xf
	.long	0x1158b
	.uleb128 0x3
	.long	0xc0f0
	.uleb128 0x3
	.long	0xc0fd
	.uleb128 0x3
	.long	0xc10a
	.byte	0
	.uleb128 0x14
	.long	0xc14d
	.quad	.LBI3342
	.value	.LVU1247
	.quad	.LBB3342
	.quad	.LBE3342-.LBB3342
	.byte	0x2
	.value	0x31b
	.byte	0x7
	.uleb128 0x3
	.long	0xc15b
	.uleb128 0x77
	.long	0xc164
	.quad	.LBB3343
	.quad	.LBE3343-.LBB3343
	.long	0x116c2
	.uleb128 0x30
	.long	0xc165
	.long	.LLST591
	.long	.LVUS591
	.uleb128 0x14
	.long	0xb77e
	.quad	.LBI3344
	.value	.LVU1248
	.quad	.LBB3344
	.quad	.LBE3344-.LBB3344
	.byte	0x2
	.value	0x17a
	.byte	0xf
	.uleb128 0x3
	.long	0xb78c
	.uleb128 0x4
	.long	0xb795
	.long	.LLST592
	.long	.LVUS592
	.uleb128 0x4
	.long	0xb7a2
	.long	.LLST593
	.long	.LVUS593
	.uleb128 0x14
	.long	0xb183
	.quad	.LBI3346
	.value	.LVU1249
	.quad	.LBB3346
	.quad	.LBE3346-.LBB3346
	.byte	0x2
	.value	0x18e
	.byte	0x13
	.uleb128 0x3
	.long	0xb18d
	.uleb128 0x4
	.long	0xb19a
	.long	.LLST594
	.long	.LVUS594
	.uleb128 0x4
	.long	0xb1a7
	.long	.LLST595
	.long	.LVUS595
	.uleb128 0x14
	.long	0xae0d
	.quad	.LBI3347
	.value	.LVU1250
	.quad	.LBB3347
	.quad	.LBE3347-.LBB3347
	.byte	0x8
	.value	0x2b1
	.byte	0x17
	.uleb128 0x3
	.long	0xae1b
	.uleb128 0x4
	.long	0xae24
	.long	.LLST596
	.long	.LVUS596
	.uleb128 0x4
	.long	0xae30
	.long	.LLST597
	.long	.LVUS597
	.uleb128 0x31
	.quad	.LVL205
	.long	0xa9d3
	.uleb128 0x20
	.uleb128 0x1
	.byte	0x55
	.uleb128 0x4
	.byte	0x77
	.sleb128 248
	.byte	0x6
	.uleb128 0x20
	.uleb128 0x1
	.byte	0x54
	.uleb128 0x5
	.byte	0xc
	.long	0x2fa00
	.byte	0
	.byte	0
	.byte	0
	.byte	0
	.byte	0
	.uleb128 0x14
	.long	0xc1e9
	.quad	.LBI3349
	.value	.LVU1253
	.quad	.LBB3349
	.quad	.LBE3349-.LBB3349
	.byte	0x2
	.value	0x17b
	.byte	0x7
	.uleb128 0x3
	.long	0xc1f9
	.uleb128 0x1d
	.long	0xcadc
	.quad	.LBI3350
	.value	.LVU1254
	.quad	.LBB3350
	.quad	.LBE3350-.LBB3350
	.byte	0x2
	.byte	0x8b
	.byte	0xe
	.uleb128 0x3
	.long	0xcaea
	.uleb128 0x1d
	.long	0xc23f
	.quad	.LBI3351
	.value	.LVU1255
	.quad	.LBB3351
	.quad	.LBE3351-.LBB3351
	.byte	0x5
	.byte	0xbd
	.byte	0x27
	.uleb128 0x3
	.long	0xc24d
	.byte	0
	.byte	0
	.byte	0
	.byte	0
	.byte	0
	.uleb128 0x58
	.long	0xcb8f
	.quad	.LBI3352
	.value	.LVU1257
	.quad	.LBB3352
	.quad	.LBE3352-.LBB3352
	.byte	0xb6
	.byte	0x1
	.byte	0x1
	.long	0x1197b
	.uleb128 0x3
	.long	0xcb9d
	.uleb128 0x2e
	.long	0xc316
	.quad	.LBI3353
	.value	.LVU1258
	.quad	.LBB3353
	.quad	.LBE3353-.LBB3353
	.byte	0x2
	.value	0x319
	.byte	0x1c
	.long	0x11795
	.uleb128 0x3
	.long	0xc324
	.byte	0
	.uleb128 0x2e
	.long	0xc2da
	.quad	.LBI3354
	.value	.LVU1260
	.quad	.LBB3354
	.quad	.LBE3354-.LBB3354
	.byte	0x2
	.value	0x318
	.byte	0xf
	.long	0x117cc
	.uleb128 0x3
	.long	0xc2f6
	.uleb128 0x3
	.long	0xc303
	.uleb128 0x3
	.long	0xc310
	.byte	0
	.uleb128 0x14
	.long	0xc360
	.quad	.LBI3355
	.value	.LVU1262
	.quad	.LBB3355
	.quad	.LBE3355-.LBB3355
	.byte	0x2
	.value	0x31b
	.byte	0x7
	.uleb128 0x3
	.long	0xc36e
	.uleb128 0x77
	.long	0xc377
	.quad	.LBB3356
	.quad	.LBE3356-.LBB3356
	.long	0x11900
	.uleb128 0x30
	.long	0xc378
	.long	.LLST598
	.long	.LVUS598
	.uleb128 0x14
	.long	0xb90e
	.quad	.LBI3357
	.value	.LVU1263
	.quad	.LBB3357
	.quad	.LBE3357-.LBB3357
	.byte	0x2
	.value	0x17a
	.byte	0xf
	.uleb128 0x3
	.long	0xb91c
	.uleb128 0x4
	.long	0xb925
	.long	.LLST599
	.long	.LVUS599
	.uleb128 0x4
	.long	0xb932
	.long	.LLST600
	.long	.LVUS600
	.uleb128 0x14
	.long	0xb2a7
	.quad	.LBI3359
	.value	.LVU1265
	.quad	.LBB3359
	.quad	.LBE3359-.LBB3359
	.byte	0x2
	.value	0x18e
	.byte	0x13
	.uleb128 0x3
	.long	0xb2b1
	.uleb128 0x4
	.long	0xb2be
	.long	.LLST601
	.long	.LVUS601
	.uleb128 0x4
	.long	0xb2cb
	.long	.LLST602
	.long	.LVUS602
	.uleb128 0x14
	.long	0xaed4
	.quad	.LBI3360
	.value	.LVU1266
	.quad	.LBB3360
	.quad	.LBE3360-.LBB3360
	.byte	0x8
	.value	0x2b1
	.byte	0x17
	.uleb128 0x3
	.long	0xaee2
	.uleb128 0x4
	.long	0xaeeb
	.long	.LLST603
	.long	.LVUS603
	.uleb128 0x4
	.long	0xaef7
	.long	.LLST604
	.long	.LVUS604
	.uleb128 0x31
	.quad	.LVL207
	.long	0xa9d3
	.uleb128 0x20
	.uleb128 0x1
	.byte	0x55
	.uleb128 0x4
	.byte	0x77
	.sleb128 72
	.byte	0x6
	.uleb128 0x20
	.uleb128 0x1
	.byte	0x54
	.uleb128 0x2
	.byte	0x7c
	.sleb128 0
	.byte	0
	.byte	0
	.byte	0
	.byte	0
	.byte	0
	.uleb128 0x14
	.long	0xc3fc
	.quad	.LBI3362
	.value	.LVU1269
	.quad	.LBB3362
	.quad	.LBE3362-.LBB3362
	.byte	0x2
	.value	0x17b
	.byte	0x7
	.uleb128 0x3
	.long	0xc40c
	.uleb128 0x1d
	.long	0xcc23
	.quad	.LBI3363
	.value	.LVU1270
	.quad	.LBB3363
	.quad	.LBE3363-.LBB3363
	.byte	0x2
	.byte	0x8b
	.byte	0xe
	.uleb128 0x3
	.long	0xcc31
	.uleb128 0x1d
	.long	0xc452
	.quad	.LBI3364
	.value	.LVU1271
	.quad	.LBB3364
	.quad	.LBE3364-.LBB3364
	.byte	0x5
	.byte	0xbd
	.byte	0x27
	.uleb128 0x3
	.long	0xc460
	.byte	0
	.byte	0
	.byte	0
	.byte	0
	.byte	0
	.uleb128 0x58
	.long	0xcd51
	.quad	.LBI3386
	.value	.LVU1496
	.quad	.LBB3386
	.quad	.LBE3386-.LBB3386
	.byte	0xb6
	.byte	0x1
	.byte	0x5
	.long	0x11bbd
	.uleb128 0x4
	.long	0xcd5f
	.long	.LLST605
	.long	.LVUS605
	.uleb128 0x3b
	.long	0xcd7c
	.quad	.LBI3387
	.value	.LVU1501
	.long	.LLRL606
	.byte	0x2
	.value	0x31b
	.byte	0x7
	.long	0x11b4c
	.uleb128 0x4
	.long	0xcd8a
	.long	.LLST607
	.long	.LVUS607
	.uleb128 0x78
	.long	0xcd93
	.long	.LLRL608
	.long	0x11aba
	.uleb128 0x3e
	.long	0xcd94
	.uleb128 0x18
	.long	0xc739
	.quad	.LBI3389
	.value	.LVU1502
	.long	.LLRL609
	.byte	0x2
	.value	0x17a
	.byte	0xf
	.uleb128 0x4
	.long	0xc747
	.long	.LLST610
	.long	.LVUS610
	.uleb128 0x3
	.long	0xc750
	.uleb128 0x3
	.long	0xc75d
	.uleb128 0x18
	.long	0xc739
	.quad	.LBI3391
	.value	.LVU1504
	.long	.LLRL611
	.byte	0x2
	.value	0x18a
	.byte	0x7
	.uleb128 0x4
	.long	0xc747
	.long	.LLST612
	.long	.LVUS612
	.uleb128 0x3
	.long	0xc750
	.uleb128 0x3
	.long	0xc75d
	.uleb128 0x18
	.long	0xbc67
	.quad	.LBI3393
	.value	.LVU1505
	.long	.LLRL613
	.byte	0x2
	.value	0x18e
	.byte	0x13
	.uleb128 0x3
	.long	0xbc71
	.uleb128 0x3
	.long	0xbc7e
	.uleb128 0x3
	.long	0xbc8b
	.uleb128 0x3b
	.long	0xb3f2
	.quad	.LBI3394
	.value	.LVU1506
	.long	.LLRL614
	.byte	0x8
	.value	0x2b1
	.byte	0x17
	.long	0x11a95
	.uleb128 0x3
	.long	0xb400
	.uleb128 0x3
	.long	0xb409
	.uleb128 0x3
	.long	0xb415
	.byte	0
	.uleb128 0x31
	.quad	.LVL264
	.long	0xa9d3
	.uleb128 0x20
	.uleb128 0x1
	.byte	0x55
	.uleb128 0x4
	.byte	0x77
	.sleb128 112
	.byte	0x6
	.uleb128 0x20
	.uleb128 0x1
	.byte	0x54
	.uleb128 0x7
	.byte	0x7d
	.sleb128 0
	.byte	0x77
	.sleb128 112
	.byte	0x6
	.byte	0x1c
	.byte	0
	.byte	0
	.byte	0
	.byte	0
	.byte	0
	.uleb128 0x14
	.long	0x1224e
	.quad	.LBI3405
	.value	.LVU1510
	.quad	.LBB3405
	.quad	.LBE3405-.LBB3405
	.byte	0x2
	.value	0x17b
	.byte	0x7
	.uleb128 0x4
	.long	0x1225e
	.long	.LLST615
	.long	.LVUS615
	.uleb128 0x1d
	.long	0xcdc1
	.quad	.LBI3406
	.value	.LVU1511
	.quad	.LBB3406
	.quad	.LBE3406-.LBB3406
	.byte	0x2
	.byte	0x8b
	.byte	0xe
	.uleb128 0x4
	.long	0xcdcf
	.long	.LLST616
	.long	.LVUS616
	.uleb128 0x1d
	.long	0xc76b
	.quad	.LBI3407
	.value	.LVU1512
	.quad	.LBB3407
	.quad	.LBE3407-.LBB3407
	.byte	0x5
	.byte	0xbd
	.byte	0x27
	.uleb128 0x4
	.long	0xc779
	.long	.LLST617
	.long	.LVUS617
	.byte	0
	.byte	0
	.byte	0
	.byte	0
	.uleb128 0x2e
	.long	0xc721
	.quad	.LBI3408
	.value	.LVU1497
	.quad	.LBB3408
	.quad	.LBE3408-.LBB3408
	.byte	0x2
	.value	0x319
	.byte	0x1c
	.long	0x11b81
	.uleb128 0x4
	.long	0xc72f
	.long	.LLST618
	.long	.LVUS618
	.byte	0
	.uleb128 0x14
	.long	0xc6e5
	.quad	.LBI3409
	.value	.LVU1499
	.quad	.LBB3409
	.quad	.LBE3409-.LBB3409
	.byte	0x2
	.value	0x318
	.byte	0xf
	.uleb128 0x3
	.long	0xc701
	.uleb128 0x3
	.long	0xc70e
	.uleb128 0x4
	.long	0xc71b
	.long	.LLST619
	.long	.LVUS619
	.byte	0
	.byte	0
	.uleb128 0x58
	.long	0x1227b
	.quad	.LBI3411
	.value	.LVU1517
	.quad	.LBB3411
	.quad	.LBE3411-.LBB3411
	.byte	0xb6
	.byte	0x1
	.byte	0x6
	.long	0x11e39
	.uleb128 0x4
	.long	0x1228b
	.long	.LLST620
	.long	.LVUS620
	.uleb128 0x5f
	.long	0xce49
	.quad	.LBI3412
	.value	.LVU1518
	.long	.LLRL621
	.byte	0x4
	.byte	0xb
	.byte	0x8
	.uleb128 0x4
	.long	0xce57
	.long	.LLST622
	.long	.LVUS622
	.uleb128 0x3b
	.long	0xce78
	.quad	.LBI3413
	.value	.LVU1523
	.long	.LLRL623
	.byte	0x2
	.value	0x31b
	.byte	0x7
	.long	0x11db7
	.uleb128 0x4
	.long	0xce86
	.long	.LLST624
	.long	.LVUS624
	.uleb128 0x78
	.long	0xce8f
	.long	.LLRL625
	.long	0x11d25
	.uleb128 0x30
	.long	0xce90
	.long	.LLST626
	.long	.LVUS626
	.uleb128 0x18
	.long	0xc8a2
	.quad	.LBI3415
	.value	.LVU1525
	.long	.LLRL627
	.byte	0x2
	.value	0x17a
	.byte	0xf
	.uleb128 0x4
	.long	0xc8b0
	.long	.LLST628
	.long	.LVUS628
	.uleb128 0x4
	.long	0xc8b9
	.long	.LLST629
	.long	.LVUS629
	.uleb128 0x4
	.long	0xc8c6
	.long	.LLST626
	.long	.LVUS626
	.uleb128 0x18
	.long	0xbefa
	.quad	.LBI3417
	.value	.LVU1527
	.long	.LLRL631
	.byte	0x2
	.value	0x18e
	.byte	0x13
	.uleb128 0x4
	.long	0xbf04
	.long	.LLST632
	.long	.LVUS632
	.uleb128 0x4
	.long	0xbf11
	.long	.LLST633
	.long	.LVUS633
	.uleb128 0x4
	.long	0xbf1e
	.long	.LLST634
	.long	.LVUS634
	.uleb128 0x3b
	.long	0xb63f
	.quad	.LBI3418
	.value	.LVU1528
	.long	.LLRL631
	.byte	0x8
	.value	0x2b1
	.byte	0x17
	.long	0x11d14
	.uleb128 0x4
	.long	0xb64d
	.long	.LLST635
	.long	.LVUS635
	.uleb128 0x4
	.long	0xb656
	.long	.LLST636
	.long	.LVUS636
	.uleb128 0x4
	.long	0xb662
	.long	.LLST637
	.long	.LVUS637
	.byte	0
	.uleb128 0xd2
	.quad	.LVL269
	.long	0xa9d3
	.byte	0
	.byte	0
	.byte	0
	.uleb128 0x14
	.long	0x1233b
	.quad	.LBI3425
	.value	.LVU1532
	.quad	.LBB3425
	.quad	.LBE3425-.LBB3425
	.byte	0x2
	.value	0x17b
	.byte	0x7
	.uleb128 0x4
	.long	0x1234b
	.long	.LLST638
	.long	.LVUS638
	.uleb128 0x1d
	.long	0xcec1
	.quad	.LBI3426
	.value	.LVU1533
	.quad	.LBB3426
	.quad	.LBE3426-.LBB3426
	.byte	0x2
	.byte	0x8b
	.byte	0xe
	.uleb128 0x4
	.long	0xcecf
	.long	.LLST639
	.long	.LVUS639
	.uleb128 0x1d
	.long	0xc8d4
	.quad	.LBI3427
	.value	.LVU1534
	.quad	.LBB3427
	.quad	.LBE3427-.LBB3427
	.byte	0x5
	.byte	0xbd
	.byte	0x27
	.uleb128 0x4
	.long	0xc8e2
	.long	.LLST640
	.long	.LVUS640
	.byte	0
	.byte	0
	.byte	0
	.byte	0
	.uleb128 0x2e
	.long	0xc88a
	.quad	.LBI3428
	.value	.LVU1519
	.quad	.LBB3428
	.quad	.LBE3428-.LBB3428
	.byte	0x2
	.value	0x319
	.byte	0x1c
	.long	0x11dec
	.uleb128 0x4
	.long	0xc898
	.long	.LLST641
	.long	.LVUS641
	.byte	0
	.uleb128 0x14
	.long	0xc84e
	.quad	.LBI3429
	.value	.LVU1521
	.quad	.LBB3429
	.quad	.LBE3429-.LBB3429
	.byte	0x2
	.value	0x318
	.byte	0xf
	.uleb128 0x4
	.long	0xc86a
	.long	.LLST642
	.long	.LVUS642
	.uleb128 0x4
	.long	0xc877
	.long	.LLST643
	.long	.LVUS643
	.uleb128 0x4
	.long	0xc884
	.long	.LLST644
	.long	.LVUS644
	.byte	0
	.byte	0
	.byte	0
	.uleb128 0x58
	.long	0xcb8f
	.quad	.LBI3433
	.value	.LVU1541
	.quad	.LBB3433
	.quad	.LBE3433-.LBB3433
	.byte	0xb6
	.byte	0x1
	.byte	0x4
	.long	0x1205e
	.uleb128 0x3
	.long	0xcb9d
	.uleb128 0x3b
	.long	0xc360
	.quad	.LBI3434
	.value	.LVU1546
	.long	.LLRL645
	.byte	0x2
	.value	0x31b
	.byte	0x7
	.long	0x11ffd
	.uleb128 0x3
	.long	0xc36e
	.uleb128 0x78
	.long	0xc377
	.long	.LLRL646
	.long	0x11f83
	.uleb128 0x30
	.long	0xc378
	.long	.LLST647
	.long	.LVUS647
	.uleb128 0x18
	.long	0xb90e
	.quad	.LBI3436
	.value	.LVU1547
	.long	.LLRL646
	.byte	0x2
	.value	0x17a
	.byte	0xf
	.uleb128 0x3
	.long	0xb91c
	.uleb128 0x4
	.long	0xb925
	.long	.LLST648
	.long	.LVUS648
	.uleb128 0x4
	.long	0xb932
	.long	.LLST649
	.long	.LVUS649
	.uleb128 0x14
	.long	0xb2a7
	.quad	.LBI3438
	.value	.LVU1549
	.quad	.LBB3438
	.quad	.LBE3438-.LBB3438
	.byte	0x2
	.value	0x18e
	.byte	0x13
	.uleb128 0x3
	.long	0xb2b1
	.uleb128 0x4
	.long	0xb2be
	.long	.LLST650
	.long	.LVUS650
	.uleb128 0x4
	.long	0xb2cb
	.long	.LLST651
	.long	.LVUS651
	.uleb128 0x14
	.long	0xaed4
	.quad	.LBI3439
	.value	.LVU1550
	.quad	.LBB3439
	.quad	.LBE3439-.LBB3439
	.byte	0x8
	.value	0x2b1
	.byte	0x17
	.uleb128 0x3
	.long	0xaee2
	.uleb128 0x4
	.long	0xaeeb
	.long	.LLST652
	.long	.LVUS652
	.uleb128 0x4
	.long	0xaef7
	.long	.LLST653
	.long	.LVUS653
	.uleb128 0x59
	.quad	.LVL275
	.uleb128 0x1
	.byte	0x30
	.uleb128 0x31
	.quad	.LVL276
	.long	0xa9d3
	.uleb128 0x20
	.uleb128 0x1
	.byte	0x55
	.uleb128 0x4
	.byte	0x77
	.sleb128 72
	.byte	0x6
	.uleb128 0x20
	.uleb128 0x1
	.byte	0x54
	.uleb128 0x2
	.byte	0x7c
	.sleb128 0
	.byte	0
	.byte	0
	.byte	0
	.byte	0
	.byte	0
	.uleb128 0x14
	.long	0xc3fc
	.quad	.LBI3444
	.value	.LVU1553
	.quad	.LBB3444
	.quad	.LBE3444-.LBB3444
	.byte	0x2
	.value	0x17b
	.byte	0x7
	.uleb128 0x3
	.long	0xc40c
	.uleb128 0x1d
	.long	0xcc23
	.quad	.LBI3445
	.value	.LVU1554
	.quad	.LBB3445
	.quad	.LBE3445-.LBB3445
	.byte	0x2
	.byte	0x8b
	.byte	0xe
	.uleb128 0x3
	.long	0xcc31
	.uleb128 0x1d
	.long	0xc452
	.quad	.LBI3446
	.value	.LVU1555
	.quad	.LBB3446
	.quad	.LBE3446-.LBB3446
	.byte	0x5
	.byte	0xbd
	.byte	0x27
	.uleb128 0x3
	.long	0xc460
	.byte	0
	.byte	0
	.byte	0
	.byte	0
	.uleb128 0x2e
	.long	0xc316
	.quad	.LBI3447
	.value	.LVU1542
	.quad	.LBB3447
	.quad	.LBE3447-.LBB3447
	.byte	0x2
	.value	0x319
	.byte	0x1c
	.long	0x1202a
	.uleb128 0x3
	.long	0xc324
	.byte	0
	.uleb128 0x14
	.long	0xc2da
	.quad	.LBI3448
	.value	.LVU1544
	.quad	.LBB3448
	.quad	.LBE3448-.LBB3448
	.byte	0x2
	.value	0x318
	.byte	0xf
	.uleb128 0x3
	.long	0xc2f6
	.uleb128 0x3
	.long	0xc303
	.uleb128 0x3
	.long	0xc310
	.byte	0
	.byte	0
	.uleb128 0x59
	.quad	.LVL204
	.uleb128 0x1
	.byte	0x30
	.uleb128 0x59
	.quad	.LVL258
	.uleb128 0x1
	.byte	0x30
	.uleb128 0x59
	.quad	.LVL262
	.uleb128 0x1
	.byte	0x30
	.uleb128 0x59
	.quad	.LVL266
	.uleb128 0x1
	.byte	0x30
	.uleb128 0xd3
	.quad	.LVL270
	.long	0x1258a
	.long	0x120a3
	.uleb128 0x20
	.uleb128 0x1
	.byte	0x55
	.uleb128 0x2
	.byte	0x73
	.sleb128 0
	.byte	0
	.uleb128 0x59
	.quad	.LVL278
	.uleb128 0x1
	.byte	0x30
	.uleb128 0x59
	.quad	.LVL283
	.uleb128 0x1
	.byte	0x30
	.byte	0
	.uleb128 0xb
	.long	0x8c51
	.long	0x120c8
	.byte	0x3
	.long	0x120d2
	.uleb128 0x9
	.long	.LASF1340
	.long	0xa83d
	.byte	0
	.uleb128 0xb
	.long	0x8706
	.long	0x120e0
	.byte	0x3
	.long	0x120ea
	.uleb128 0x9
	.long	.LASF1340
	.long	0xa72f
	.byte	0
	.uleb128 0x13
	.long	0x75f0
	.byte	0x3
	.long	0x12116
	.uleb128 0xf
	.string	"_Tp"
	.long	0x4f
	.uleb128 0x26
	.string	"__a"
	.byte	0xa
	.byte	0xe8
	.byte	0x14
	.long	0xa775
	.uleb128 0x26
	.string	"__b"
	.byte	0xa
	.byte	0xe8
	.byte	0x24
	.long	0xa775
	.byte	0
	.uleb128 0x13
	.long	0x7618
	.byte	0x3
	.long	0x12144
	.uleb128 0xf
	.string	"_Tp"
	.long	0x4f
	.uleb128 0xe
	.string	"__a"
	.byte	0xa
	.value	0x100
	.byte	0x14
	.long	0xa775
	.uleb128 0xe
	.string	"__b"
	.byte	0xa
	.value	0x100
	.byte	0x24
	.long	0xa775
	.byte	0
	.uleb128 0xb
	.long	0x8c0c
	.long	0x12152
	.byte	0x3
	.long	0x1215c
	.uleb128 0x9
	.long	.LASF1340
	.long	0xa84c
	.byte	0
	.uleb128 0xb
	.long	0x8d7d
	.long	0x1216a
	.byte	0x3
	.long	0x12174
	.uleb128 0x9
	.long	.LASF1340
	.long	0xa84c
	.byte	0
	.uleb128 0xc
	.long	0x8dac
	.uleb128 0x13
	.long	0x924c
	.byte	0x3
	.long	0x1219e
	.uleb128 0x12
	.long	.LASF1444
	.byte	0x3
	.value	0x4dd
	.byte	0x2b
	.long	0x12174
	.uleb128 0x12
	.long	.LASF1445
	.byte	0x3
	.value	0x4dd
	.byte	0x4b
	.long	0x12174
	.byte	0
	.uleb128 0xb
	.long	0x86b9
	.long	0x121ac
	.byte	0x3
	.long	0x121b6
	.uleb128 0x9
	.long	.LASF1340
	.long	0xa73e
	.byte	0
	.uleb128 0xb
	.long	0x8856
	.long	0x121c4
	.byte	0x3
	.long	0x121ce
	.uleb128 0x9
	.long	.LASF1340
	.long	0xa73e
	.byte	0
	.uleb128 0xc
	.long	0x8889
	.uleb128 0x13
	.long	0x9268
	.byte	0x3
	.long	0x121f8
	.uleb128 0x12
	.long	.LASF1444
	.byte	0x3
	.value	0x4dd
	.byte	0x2b
	.long	0x121ce
	.uleb128 0x12
	.long	.LASF1445
	.byte	0x3
	.value	0x4dd
	.byte	0x4b
	.long	0x121ce
	.byte	0
	.uleb128 0xb
	.long	0x38f4
	.long	0x12206
	.byte	0x2
	.long	0x12210
	.uleb128 0x9
	.long	.LASF1340
	.long	0xa6f3
	.byte	0
	.uleb128 0x3d
	.long	0x121f8
	.long	0x1221d
	.long	0x12223
	.uleb128 0x3
	.long	0x12206
	.byte	0
	.uleb128 0xb
	.long	0x368e
	.long	0x12231
	.byte	0x2
	.long	0x1223b
	.uleb128 0x9
	.long	.LASF1340
	.long	0xa6d0
	.byte	0
	.uleb128 0x3d
	.long	0x12223
	.long	0x12248
	.long	0x1224e
	.uleb128 0x3
	.long	0x12231
	.byte	0
	.uleb128 0x64
	.long	0x360c
	.byte	0x2
	.byte	0x8b
	.byte	0xe
	.long	0x1225e
	.long	0x12268
	.uleb128 0x9
	.long	.LASF1340
	.long	0xa6b2
	.byte	0
	.uleb128 0x3d
	.long	0x1224e
	.long	0x12275
	.long	0x1227b
	.uleb128 0x3
	.long	0x1225e
	.byte	0
	.uleb128 0x64
	.long	0xa20a
	.byte	0x4
	.byte	0xb
	.byte	0x8
	.long	0x1228b
	.long	0x12295
	.uleb128 0x9
	.long	.LASF1340
	.long	0xa245
	.byte	0
	.uleb128 0x1b
	.long	0x1227b
	.long	.LASF1446
	.long	0x122a6
	.long	0x122ac
	.uleb128 0x3
	.long	0x1228b
	.byte	0
	.uleb128 0x64
	.long	0xa222
	.byte	0x4
	.byte	0xb
	.byte	0x8
	.long	0x122bc
	.long	0x122c6
	.uleb128 0x9
	.long	.LASF1340
	.long	0xa245
	.byte	0
	.uleb128 0x1b
	.long	0x122ac
	.long	.LASF1447
	.long	0x122d7
	.long	0x122dd
	.uleb128 0x3
	.long	0x122bc
	.byte	0
	.uleb128 0xb
	.long	0x12ce
	.long	0x122eb
	.byte	0x2
	.long	0x122f5
	.uleb128 0x9
	.long	.LASF1340
	.long	0xa11a
	.byte	0
	.uleb128 0x1b
	.long	0x122dd
	.long	.LASF1448
	.long	0x12306
	.long	0x1230c
	.uleb128 0x3
	.long	0x122eb
	.byte	0
	.uleb128 0xb
	.long	0x1037
	.long	0x1231a
	.byte	0x2
	.long	0x12324
	.uleb128 0x9
	.long	.LASF1340
	.long	0xa0fc
	.byte	0
	.uleb128 0x1b
	.long	0x1230c
	.long	.LASF1449
	.long	0x12335
	.long	0x1233b
	.uleb128 0x3
	.long	0x1231a
	.byte	0
	.uleb128 0x64
	.long	0xfa6
	.byte	0x2
	.byte	0x8b
	.byte	0xe
	.long	0x1234b
	.long	0x12355
	.uleb128 0x9
	.long	.LASF1340
	.long	0xa0de
	.byte	0
	.uleb128 0x1b
	.long	0x1233b
	.long	.LASF1450
	.long	0x12366
	.long	0x1236c
	.uleb128 0x3
	.long	0x1234b
	.byte	0
	.uleb128 0xd4
	.long	.LASF1451
	.byte	0x1
	.byte	0x17
	.byte	0x16
	.long	0xa470
	.byte	0x3
	.long	0x1238b
	.uleb128 0x26
	.string	"ptr"
	.byte	0x1
	.byte	0x17
	.byte	0x35
	.long	0xa08e
	.byte	0
	.uleb128 0xd5
	.long	.LASF1452
	.byte	0x10
	.byte	0x3f
	.byte	0x1
	.long	.LASF1453
	.long	0xa470
	.byte	0x3
	.long	0x123c6
	.uleb128 0x26
	.string	"__A"
	.byte	0x10
	.byte	0x3f
	.byte	0x19
	.long	0xa470
	.uleb128 0x26
	.string	"__B"
	.byte	0x10
	.byte	0x3f
	.byte	0x25
	.long	0xa470
	.uleb128 0x26
	.string	"__C"
	.byte	0x10
	.byte	0x3f
	.byte	0x31
	.long	0xa470
	.byte	0
	.uleb128 0x61
	.long	.LASF1454
	.byte	0xf
	.value	0x1e9
	.long	.LASF1455
	.long	0xa48d
	.long	0x123e8
	.uleb128 0xe
	.string	"__X"
	.byte	0xf
	.value	0x1e9
	.byte	0x1f
	.long	0xa410
	.byte	0
	.uleb128 0x61
	.long	.LASF1456
	.byte	0xd
	.value	0x4f7
	.long	.LASF1457
	.long	0xa470
	.long	0x1240a
	.uleb128 0xe
	.string	"__A"
	.byte	0xd
	.value	0x4f7
	.byte	0x17
	.long	0x30
	.byte	0
	.uleb128 0xd6
	.long	.LASF1458
	.byte	0xd
	.value	0x355
	.byte	0x1
	.long	.LASF1459
	.byte	0x3
	.long	0x12438
	.uleb128 0xe
	.string	"__P"
	.byte	0xd
	.value	0x355
	.byte	0x1a
	.long	0xa86a
	.uleb128 0xe
	.string	"__A"
	.byte	0xd
	.value	0x355
	.byte	0x26
	.long	0xa470
	.byte	0
	.uleb128 0x61
	.long	.LASF1460
	.byte	0xd
	.value	0x34f
	.long	.LASF1461
	.long	0xa470
	.long	0x1245a
	.uleb128 0xe
	.string	"__P"
	.byte	0xd
	.value	0x34f
	.byte	0x1f
	.long	0xa883
	.byte	0
	.uleb128 0x61
	.long	.LASF1462
	.byte	0xd
	.value	0x195
	.long	.LASF1463
	.long	0xa470
	.long	0x1247c
	.uleb128 0xe
	.string	"__A"
	.byte	0xd
	.value	0x195
	.byte	0x1d
	.long	0xa48d
	.byte	0
	.uleb128 0x61
	.long	.LASF1464
	.byte	0xe
	.value	0x2c7
	.long	.LASF1465
	.long	0xa410
	.long	0x1249e
	.uleb128 0xe
	.string	"__P"
	.byte	0xe
	.value	0x2c7
	.byte	0x23
	.long	0x1249e
	.byte	0
	.uleb128 0xd
	.long	0xa434
	.uleb128 0x61
	.long	.LASF1466
	.byte	0xe
	.value	0x258
	.long	.LASF1467
	.long	0xa410
	.long	0x124d2
	.uleb128 0x12
	.long	.LASF1468
	.byte	0xe
	.value	0x258
	.byte	0x16
	.long	0xa2c5
	.uleb128 0x12
	.long	.LASF1469
	.byte	0xe
	.value	0x258
	.byte	0x23
	.long	0xa2c5
	.byte	0
	.uleb128 0x61
	.long	.LASF1470
	.byte	0xe
	.value	0x252
	.long	.LASF1471
	.long	0xa410
	.long	0x12501
	.uleb128 0x12
	.long	.LASF1468
	.byte	0xe
	.value	0x252
	.byte	0x1b
	.long	0x92ce
	.uleb128 0x12
	.long	.LASF1469
	.byte	0xe
	.value	0x252
	.byte	0x2b
	.long	0x92ce
	.byte	0
	.uleb128 0x13
	.long	0x7641
	.byte	0x3
	.long	0x12519
	.uleb128 0xe
	.string	"__x"
	.byte	0x9
	.value	0x108
	.byte	0xf
	.long	0x30
	.byte	0
	.uleb128 0x13
	.long	0x765c
	.byte	0x3
	.long	0x12531
	.uleb128 0xe
	.string	"__n"
	.byte	0xa
	.value	0x3fd
	.byte	0x23
	.long	0x7686
	.byte	0
	.uleb128 0xd7
	.long	.LASF1334
	.byte	0x4b
	.byte	0xb1
	.byte	0x23
	.long	.LASF1472
	.byte	0x3
	.long	0x1254e
	.uleb128 0x1
	.long	0x76cf
	.uleb128 0x1
	.long	0x76cf
	.byte	0
	.uleb128 0xd8
	.long	.LASF1336
	.byte	0x4b
	.byte	0xa8
	.byte	0x7
	.long	.LASF1473
	.long	0x76cf
	.byte	0x3
	.long	0x12576
	.uleb128 0x1
	.long	0x2bc
	.uleb128 0x26
	.string	"__p"
	.byte	0x4b
	.byte	0xa8
	.byte	0x27
	.long	0x76cf
	.byte	0
	.uleb128 0x81
	.long	.LASF1474
	.long	.LASF1476
	.uleb128 0x81
	.long	.LASF1475
	.long	.LASF1477
	.uleb128 0x81
	.long	.LASF1478
	.long	.LASF1479
	.byte	0
	.section	.debug_abbrev,"",@progbits
.Ldebug_abbrev0:
	.uleb128 0x1
	.uleb128 0x5
	.byte	0
	.uleb128 0x49
	.uleb128 0x13
	.byte	0
	.byte	0
	.uleb128 0x2
	.uleb128 0x5
	.byte	0
	.uleb128 0x49
	.uleb128 0x13
	.uleb128 0x34
	.uleb128 0x19
	.byte	0
	.byte	0
	.uleb128 0x3
	.uleb128 0x5
	.byte	0
	.uleb128 0x31
	.uleb128 0x13
	.byte	0
	.byte	0
	.uleb128 0x4
	.uleb128 0x5
	.byte	0
	.uleb128 0x31
	.uleb128 0x13
	.uleb128 0x2
	.uleb128 0x17
	.uleb128 0x2137
	.uleb128 0x17
	.byte	0
	.byte	0
	.uleb128 0x5
	.uleb128 0x8
	.byte	0
	.uleb128 0x3a
	.uleb128 0xb
	.uleb128 0x3b
	.uleb128 0xb
	.uleb128 0x39
	.uleb128 0xb
	.uleb128 0x18
	.uleb128 0x13
	.byte	0
	.byte	0
	.uleb128 0x6
	.uleb128 0x2e
	.byte	0x1
	.uleb128 0x3f
	.uleb128 0x19
	.uleb128 0x3
	.uleb128 0xe
	.uleb128 0x3a
	.uleb128 0xb
	.uleb128 0x3b
	.uleb128 0x5
	.uleb128 0x39
	.uleb128 0xb
	.uleb128 0x6e
	.uleb128 0xe
	.uleb128 0x49
	.uleb128 0x13
	.uleb128 0x32
	.uleb128 0xb
	.uleb128 0x3c
	.uleb128 0x19
	.uleb128 0x64
	.uleb128 0x13
	.uleb128 0x1
	.uleb128 0x13
	.byte	0
	.byte	0
	.uleb128 0x7
	.uleb128 0x26
	.byte	0
	.uleb128 0x49
	.uleb128 0x13
	.byte	0
	.byte	0
	.uleb128 0x8
	.uleb128 0x16
	.byte	0
	.uleb128 0x3
	.uleb128 0xe
	.uleb128 0x3a
	.uleb128 0xb
	.uleb128 0x3b
	.uleb128 0xb
	.uleb128 0x39
	.uleb128 0xb
	.uleb128 0x49
	.uleb128 0x13
	.byte	0
	.byte	0
	.uleb128 0x9
	.uleb128 0x5
	.byte	0
	.uleb128 0x3
	.uleb128 0xe
	.uleb128 0x49
	.uleb128 0x13
	.uleb128 0x34
	.uleb128 0x19
	.byte	0
	.byte	0
	.uleb128 0xa
	.uleb128 0x2f
	.byte	0
	.uleb128 0x3
	.uleb128 0xe
	.uleb128 0x49
	.uleb128 0x13
	.byte	0
	.byte	0
	.uleb128 0xb
	.uleb128 0x2e
	.byte	0x1
	.uleb128 0x47
	.uleb128 0x13
	.uleb128 0x64
	.uleb128 0x13
	.uleb128 0x20
	.uleb128 0xb
	.uleb128 0x1
	.uleb128 0x13
	.byte	0
	.byte	0
	.uleb128 0xc
	.uleb128 0x10
	.byte	0
	.uleb128 0xb
	.uleb128 0x21
	.sleb128 8
	.uleb128 0x49
	.uleb128 0x13
	.byte	0
	.byte	0
	.uleb128 0xd
	.uleb128 0xf
	.byte	0
	.uleb128 0xb
	.uleb128 0x21
	.sleb128 8
	.uleb128 0x49
	.uleb128 0x13
	.byte	0
	.byte	0
	.uleb128 0xe
	.uleb128 0x5
	.byte	0
	.uleb128 0x3
	.uleb128 0x8
	.uleb128 0x3a
	.uleb128 0xb
	.uleb128 0x3b
	.uleb128 0x5
	.uleb128 0x39
	.uleb128 0xb
	.uleb128 0x49
	.uleb128 0x13
	.byte	0
	.byte	0
	.uleb128 0xf
	.uleb128 0x2f
	.byte	0
	.uleb128 0x3
	.uleb128 0x8
	.uleb128 0x49
	.uleb128 0x13
	.byte	0
	.byte	0
	.uleb128 0x10
	.uleb128 0x2e
	.byte	0x1
	.uleb128 0x3f
	.uleb128 0x19
	.uleb128 0x3
	.uleb128 0xe
	.uleb128 0x3a
	.uleb128 0xb
	.uleb128 0x3b
	.uleb128 0x5
	.uleb128 0x39
	.uleb128 0xb
	.uleb128 0x6e
	.uleb128 0xe
	.uleb128 0x32
	.uleb128 0xb
	.uleb128 0x3c
	.uleb128 0x19
	.uleb128 0x64
	.uleb128 0x13
	.uleb128 0x1
	.uleb128 0x13
	.byte	0
	.byte	0
	.uleb128 0x11
	.uleb128 0xd
	.byte	0
	.uleb128 0x3
	.uleb128 0xe
	.uleb128 0x3a
	.uleb128 0xb
	.uleb128 0x3b
	.uleb128 0xb
	.uleb128 0x39
	.uleb128 0xb
	.uleb128 0x49
	.uleb128 0x13
	.uleb128 0x38
	.uleb128 0xb
	.byte	0
	.byte	0
	.uleb128 0x12
	.uleb128 0x5
	.byte	0
	.uleb128 0x3
	.uleb128 0xe
	.uleb128 0x3a
	.uleb128 0xb
	.uleb128 0x3b
	.uleb128 0x5
	.uleb128 0x39
	.uleb128 0xb
	.uleb128 0x49
	.uleb128 0x13
	.byte	0
	.byte	0
	.uleb128 0x13
	.uleb128 0x2e
	.byte	0x1
	.uleb128 0x47
	.uleb128 0x13
	.uleb128 0x20
	.uleb128 0xb
	.uleb128 0x1
	.uleb128 0x13
	.byte	0
	.byte	0
	.uleb128 0x14
	.uleb128 0x1d
	.byte	0x1
	.uleb128 0x31
	.uleb128 0x13
	.uleb128 0x52
	.uleb128 0x1
	.uleb128 0x2138
	.uleb128 0x5
	.uleb128 0x11
	.uleb128 0x1
	.uleb128 0x12
	.uleb128 0x7
	.uleb128 0x58
	.uleb128 0xb
	.uleb128 0x59
	.uleb128 0x5
	.uleb128 0x57
	.uleb128 0xb
	.byte	0
	.byte	0
	.uleb128 0x15
	.uleb128 0x16
	.byte	0
	.uleb128 0x3
	.uleb128 0xe
	.uleb128 0x3a
	.uleb128 0xb
	.uleb128 0x3b
	.uleb128 0x5
	.uleb128 0x39
	.uleb128 0xb
	.uleb128 0x49
	.uleb128 0x13
	.uleb128 0x32
	.uleb128 0x21
	.sleb128 1
	.byte	0
	.byte	0
	.uleb128 0x16
	.uleb128 0x2e
	.byte	0x1
	.uleb128 0x3f
	.uleb128 0x19
	.uleb128 0x3
	.uleb128 0xe
	.uleb128 0x3a
	.uleb128 0xb
	.uleb128 0x3b
	.uleb128 0x5
	.uleb128 0x39
	.uleb128 0xb
	.uleb128 0x6e
	.uleb128 0xe
	.uleb128 0x49
	.uleb128 0x13
	.uleb128 0x3c
	.uleb128 0x19
	.uleb128 0x1
	.uleb128 0x13
	.byte	0
	.byte	0
	.uleb128 0x17
	.uleb128 0x2e
	.byte	0x1
	.uleb128 0x3f
	.uleb128 0x19
	.uleb128 0x3
	.uleb128 0xe
	.uleb128 0x3a
	.uleb128 0xb
	.uleb128 0x3b
	.uleb128 0x5
	.uleb128 0x39
	.uleb128 0xb
	.uleb128 0x49
	.uleb128 0x13
	.uleb128 0x3c
	.uleb128 0x19
	.uleb128 0x1
	.uleb128 0x13
	.byte	0
	.byte	0
	.uleb128 0x18
	.uleb128 0x1d
	.byte	0x1
	.uleb128 0x31
	.uleb128 0x13
	.uleb128 0x52
	.uleb128 0x1
	.uleb128 0x2138
	.uleb128 0x5
	.uleb128 0x55
	.uleb128 0x17
	.uleb128 0x58
	.uleb128 0xb
	.uleb128 0x59
	.uleb128 0x5
	.uleb128 0x57
	.uleb128 0xb
	.byte	0
	.byte	0
	.uleb128 0x19
	.uleb128 0x8
	.byte	0
	.uleb128 0x3a
	.uleb128 0xb
	.uleb128 0x3b
	.uleb128 0x5
	.uleb128 0x39
	.uleb128 0xb
	.uleb128 0x18
	.uleb128 0x13
	.byte	0
	.byte	0
	.uleb128 0x1a
	.uleb128 0x13
	.byte	0x1
	.uleb128 0x3
	.uleb128 0xe
	.uleb128 0xb
	.uleb128 0xb
	.uleb128 0x3a
	.uleb128 0xb
	.uleb128 0x3b
	.uleb128 0xb
	.uleb128 0x39
	.uleb128 0xb
	.uleb128 0x1
	.uleb128 0x13
	.byte	0
	.byte	0
	.uleb128 0x1b
	.uleb128 0x2e
	.byte	0x1
	.uleb128 0x31
	.uleb128 0x13
	.uleb128 0x6e
	.uleb128 0xe
	.uleb128 0x64
	.uleb128 0x13
	.uleb128 0x1
	.uleb128 0x13
	.byte	0
	.byte	0
	.uleb128 0x1c
	.uleb128 0x2e
	.byte	0x1
	.uleb128 0x3f
	.uleb128 0x19
	.uleb128 0x3
	.uleb128 0xe
	.uleb128 0x3a
	.uleb128 0x21
	.sleb128 2
	.uleb128 0x3b
	.uleb128 0x5
	.uleb128 0x39
	.uleb128 0x21
	.sleb128 7
	.uleb128 0x6e
	.uleb128 0xe
	.uleb128 0x3c
	.uleb128 0x19
	.uleb128 0x64
	.uleb128 0x13
	.uleb128 0x1
	.uleb128 0x13
	.byte	0
	.byte	0
	.uleb128 0x1d
	.uleb128 0x1d
	.byte	0x1
	.uleb128 0x31
	.uleb128 0x13
	.uleb128 0x52
	.uleb128 0x1
	.uleb128 0x2138
	.uleb128 0x5
	.uleb128 0x11
	.uleb128 0x1
	.uleb128 0x12
	.uleb128 0x7
	.uleb128 0x58
	.uleb128 0xb
	.uleb128 0x59
	.uleb128 0xb
	.uleb128 0x57
	.uleb128 0xb
	.byte	0
	.byte	0
	.uleb128 0x1e
	.uleb128 0x16
	.byte	0
	.uleb128 0x3
	.uleb128 0xe
	.uleb128 0x3a
	.uleb128 0xb
	.uleb128 0x3b
	.uleb128 0x5
	.uleb128 0x39
	.uleb128 0xb
	.uleb128 0x49
	.uleb128 0x13
	.byte	0
	.byte	0
	.uleb128 0x1f
	.uleb128 0x2e
	.byte	0x1
	.uleb128 0x3
	.uleb128 0xe
	.uleb128 0x3a
	.uleb128 0xb
	.uleb128 0x3b
	.uleb128 0x5
	.uleb128 0x39
	.uleb128 0xb
	.uleb128 0x49
	.uleb128 0x13
	.uleb128 0x32
	.uleb128 0xb
	.uleb128 0x3c
	.uleb128 0x19
	.uleb128 0x64
	.uleb128 0x13
	.uleb128 0x1
	.uleb128 0x13
	.byte	0
	.byte	0
	.uleb128 0x20
	.uleb128 0x49
	.byte	0
	.uleb128 0x2
	.uleb128 0x18
	.uleb128 0x7e
	.uleb128 0x18
	.byte	0
	.byte	0
	.uleb128 0x21
	.uleb128 0x2e
	.byte	0x1
	.uleb128 0x3f
	.uleb128 0x19
	.uleb128 0x3
	.uleb128 0xe
	.uleb128 0x3a
	.uleb128 0xb
	.uleb128 0x3b
	.uleb128 0xb
	.uleb128 0x39
	.uleb128 0xb
	.uleb128 0x6e
	.uleb128 0xe
	.uleb128 0x49
	.uleb128 0x13
	.uleb128 0x32
	.uleb128 0xb
	.uleb128 0x3c
	.uleb128 0x19
	.uleb128 0x64
	.uleb128 0x13
	.uleb128 0x1
	.uleb128 0x13
	.byte	0
	.byte	0
	.uleb128 0x22
	.uleb128 0x1d
	.byte	0x1
	.uleb128 0x31
	.uleb128 0x13
	.uleb128 0x52
	.uleb128 0x1
	.uleb128 0x2138
	.uleb128 0x5
	.uleb128 0x11
	.uleb128 0x1
	.uleb128 0x12
	.uleb128 0x7
	.uleb128 0x58
	.uleb128 0xb
	.uleb128 0x59
	.uleb128 0xb
	.uleb128 0x57
	.uleb128 0xb
	.uleb128 0x1
	.uleb128 0x13
	.byte	0
	.byte	0
	.uleb128 0x23
	.uleb128 0x2e
	.byte	0x1
	.uleb128 0x3f
	.uleb128 0x19
	.uleb128 0x3
	.uleb128 0xe
	.uleb128 0x3a
	.uleb128 0xb
	.uleb128 0x3b
	.uleb128 0xb
	.uleb128 0x39
	.uleb128 0xb
	.uleb128 0x6e
	.uleb128 0xe
	.uleb128 0x3c
	.uleb128 0x19
	.uleb128 0x64
	.uleb128 0x13
	.uleb128 0x1
	.uleb128 0x13
	.byte	0
	.byte	0
	.uleb128 0x24
	.uleb128 0x2e
	.byte	0x1
	.uleb128 0x3f
	.uleb128 0x19
	.uleb128 0x3
	.uleb128 0xe
	.uleb128 0x3a
	.uleb128 0xb
	.uleb128 0x3b
	.uleb128 0xb
	.uleb128 0x39
	.uleb128 0xb
	.uleb128 0x6e
	.uleb128 0xe
	.uleb128 0x32
	.uleb128 0xb
	.uleb128 0x3c
	.uleb128 0x19
	.uleb128 0x64
	.uleb128 0x13
	.uleb128 0x1
	.uleb128 0x13
	.byte	0
	.byte	0
	.uleb128 0x25
	.uleb128 0x1d
	.byte	0x1
	.uleb128 0x31
	.uleb128 0x13
	.uleb128 0x52
	.uleb128 0x1
	.uleb128 0x2138
	.uleb128 0x5
	.uleb128 0x55
	.uleb128 0x17
	.uleb128 0x58
	.uleb128 0xb
	.uleb128 0x59
	.uleb128 0xb
	.uleb128 0x57
	.uleb128 0xb
	.uleb128 0x1
	.uleb128 0x13
	.byte	0
	.byte	0
	.uleb128 0x26
	.uleb128 0x5
	.byte	0
	.uleb128 0x3
	.uleb128 0x8
	.uleb128 0x3a
	.uleb128 0xb
	.uleb128 0x3b
	.uleb128 0xb
	.uleb128 0x39
	.uleb128 0xb
	.uleb128 0x49
	.uleb128 0x13
	.byte	0
	.byte	0
	.uleb128 0x27
	.uleb128 0x2e
	.byte	0x1
	.uleb128 0x3f
	.uleb128 0x19
	.uleb128 0x3
	.uleb128 0xe
	.uleb128 0x3a
	.uleb128 0xb
	.uleb128 0x3b
	.uleb128 0xb
	.uleb128 0x39
	.uleb128 0xb
	.uleb128 0x49
	.uleb128 0x13
	.uleb128 0x3c
	.uleb128 0x19
	.uleb128 0x1
	.uleb128 0x13
	.byte	0
	.byte	0
	.uleb128 0x28
	.uleb128 0x34
	.byte	0
	.uleb128 0x3
	.uleb128 0xe
	.uleb128 0x3a
	.uleb128 0xb
	.uleb128 0x3b
	.uleb128 0x5
	.uleb128 0x39
	.uleb128 0xb
	.uleb128 0x49
	.uleb128 0x13
	.byte	0
	.byte	0
	.uleb128 0x29
	.uleb128 0x34
	.byte	0
	.uleb128 0x3
	.uleb128 0x8
	.uleb128 0x3a
	.uleb128 0x21
	.sleb128 1
	.uleb128 0x3b
	.uleb128 0xb
	.uleb128 0x39
	.uleb128 0xb
	.uleb128 0x49
	.uleb128 0x13
	.uleb128 0x2
	.uleb128 0x17
	.uleb128 0x2137
	.uleb128 0x17
	.byte	0
	.byte	0
	.uleb128 0x2a
	.uleb128 0x16
	.byte	0
	.uleb128 0x3
	.uleb128 0xe
	.uleb128 0x3a
	.uleb128 0xb
	.uleb128 0x3b
	.uleb128 0xb
	.uleb128 0x39
	.uleb128 0xb
	.uleb128 0x49
	.uleb128 0x13
	.uleb128 0x32
	.uleb128 0x21
	.sleb128 1
	.byte	0
	.byte	0
	.uleb128 0x2b
	.uleb128 0x42
	.byte	0
	.uleb128 0xb
	.uleb128 0x21
	.sleb128 8
	.uleb128 0x49
	.uleb128 0x13
	.byte	0
	.byte	0
	.uleb128 0x2c
	.uleb128 0x24
	.byte	0
	.uleb128 0xb
	.uleb128 0xb
	.uleb128 0x3e
	.uleb128 0xb
	.uleb128 0x3
	.uleb128 0xe
	.byte	0
	.byte	0
	.uleb128 0x2d
	.uleb128 0x2e
	.byte	0x1
	.uleb128 0x3
	.uleb128 0xe
	.uleb128 0x3a
	.uleb128 0xb
	.uleb128 0x3b
	.uleb128 0x5
	.uleb128 0x39
	.uleb128 0xb
	.uleb128 0x32
	.uleb128 0xb
	.uleb128 0x3c
	.uleb128 0x19
	.uleb128 0x64
	.uleb128 0x13
	.uleb128 0x1
	.uleb128 0x13
	.byte	0
	.byte	0
	.uleb128 0x2e
	.uleb128 0x1d
	.byte	0x1
	.uleb128 0x31
	.uleb128 0x13
	.uleb128 0x52
	.uleb128 0x1
	.uleb128 0x2138
	.uleb128 0x5
	.uleb128 0x11
	.uleb128 0x1
	.uleb128 0x12
	.uleb128 0x7
	.uleb128 0x58
	.uleb128 0xb
	.uleb128 0x59
	.uleb128 0x5
	.uleb128 0x57
	.uleb128 0xb
	.uleb128 0x1
	.uleb128 0x13
	.byte	0
	.byte	0
	.uleb128 0x2f
	.uleb128 0x1d
	.byte	0x1
	.uleb128 0x31
	.uleb128 0x13
	.uleb128 0x52
	.uleb128 0x1
	.uleb128 0x2138
	.uleb128 0x5
	.uleb128 0x55
	.uleb128 0x17
	.uleb128 0x58
	.uleb128 0xb
	.uleb128 0x59
	.uleb128 0xb
	.uleb128 0x57
	.uleb128 0xb
	.uleb128 0x2136
	.uleb128 0xb
	.uleb128 0x1
	.uleb128 0x13
	.byte	0
	.byte	0
	.uleb128 0x30
	.uleb128 0x34
	.byte	0
	.uleb128 0x31
	.uleb128 0x13
	.uleb128 0x2
	.uleb128 0x17
	.uleb128 0x2137
	.uleb128 0x17
	.byte	0
	.byte	0
	.uleb128 0x31
	.uleb128 0x48
	.byte	0x1
	.uleb128 0x7d
	.uleb128 0x1
	.uleb128 0x7f
	.uleb128 0x13
	.byte	0
	.byte	0
	.uleb128 0x32
	.uleb128 0x2e
	.byte	0x1
	.uleb128 0x3f
	.uleb128 0x19
	.uleb128 0x3
	.uleb128 0xe
	.uleb128 0x3a
	.uleb128 0xb
	.uleb128 0x3b
	.uleb128 0xb
	.uleb128 0x39
	.uleb128 0xb
	.uleb128 0x6e
	.uleb128 0xe
	.uleb128 0x49
	.uleb128 0x13
	.uleb128 0x3c
	.uleb128 0x19
	.uleb128 0x1
	.uleb128 0x13
	.byte	0
	.byte	0
	.uleb128 0x33
	.uleb128 0x2e
	.byte	0
	.uleb128 0x3f
	.uleb128 0x19
	.uleb128 0x3
	.uleb128 0xe
	.uleb128 0x3a
	.uleb128 0x21
	.sleb128 51
	.uleb128 0x3b
	.uleb128 0xb
	.uleb128 0x39
	.uleb128 0x21
	.sleb128 27
	.uleb128 0x6e
	.uleb128 0xe
	.uleb128 0x49
	.uleb128 0x13
	.uleb128 0x3c
	.uleb128 0x19
	.byte	0
	.byte	0
	.uleb128 0x34
	.uleb128 0x2
	.byte	0
	.uleb128 0x3
	.uleb128 0xe
	.uleb128 0x3c
	.uleb128 0x19
	.byte	0
	.byte	0
	.uleb128 0x35
	.uleb128 0x34
	.byte	0
	.uleb128 0x3
	.uleb128 0xe
	.uleb128 0x3a
	.uleb128 0x21
	.sleb128 1
	.uleb128 0x3b
	.uleb128 0xb
	.uleb128 0x39
	.uleb128 0xb
	.uleb128 0x49
	.uleb128 0x13
	.uleb128 0x2
	.uleb128 0x17
	.uleb128 0x2137
	.uleb128 0x17
	.byte	0
	.byte	0
	.uleb128 0x36
	.uleb128 0x1c
	.byte	0
	.uleb128 0x49
	.uleb128 0x13
	.uleb128 0x38
	.uleb128 0x21
	.sleb128 0
	.byte	0
	.byte	0
	.uleb128 0x37
	.uleb128 0x2e
	.byte	0x1
	.uleb128 0x3f
	.uleb128 0x19
	.uleb128 0x3
	.uleb128 0xe
	.uleb128 0x3a
	.uleb128 0x21
	.sleb128 2
	.uleb128 0x3b
	.uleb128 0x5
	.uleb128 0x39
	.uleb128 0xb
	.uleb128 0x6e
	.uleb128 0xe
	.uleb128 0x49
	.uleb128 0x13
	.uleb128 0x3c
	.uleb128 0x19
	.uleb128 0x64
	.uleb128 0x13
	.uleb128 0x1
	.uleb128 0x13
	.byte	0
	.byte	0
	.uleb128 0x38
	.uleb128 0x2e
	.byte	0x1
	.uleb128 0x3f
	.uleb128 0x19
	.uleb128 0x3
	.uleb128 0xe
	.uleb128 0x3a
	.uleb128 0xb
	.uleb128 0x3b
	.uleb128 0x5
	.uleb128 0x39
	.uleb128 0xb
	.uleb128 0x6e
	.uleb128 0xe
	.uleb128 0x3c
	.uleb128 0x19
	.uleb128 0x1
	.uleb128 0x13
	.byte	0
	.byte	0
	.uleb128 0x39
	.uleb128 0x34
	.byte	0
	.uleb128 0x3
	.uleb128 0xe
	.uleb128 0x3a
	.uleb128 0xb
	.uleb128 0x3b
	.uleb128 0xb
	.uleb128 0x39
	.uleb128 0xb
	.uleb128 0x49
	.uleb128 0x13
	.byte	0
	.byte	0
	.uleb128 0x3a
	.uleb128 0x2e
	.byte	0x1
	.uleb128 0x3f
	.uleb128 0x19
	.uleb128 0x3
	.uleb128 0x8
	.uleb128 0x3a
	.uleb128 0x21
	.sleb128 2
	.uleb128 0x3b
	.uleb128 0x5
	.uleb128 0x39
	.uleb128 0x21
	.sleb128 7
	.uleb128 0x6e
	.uleb128 0xe
	.uleb128 0x49
	.uleb128 0x13
	.uleb128 0x32
	.uleb128 0x21
	.sleb128 1
	.uleb128 0x3c
	.uleb128 0x19
	.uleb128 0x64
	.uleb128 0x13
	.uleb128 0x1
	.uleb128 0x13
	.byte	0
	.byte	0
	.uleb128 0x3b
	.uleb128 0x1d
	.byte	0x1
	.uleb128 0x31
	.uleb128 0x13
	.uleb128 0x52
	.uleb128 0x1
	.uleb128 0x2138
	.uleb128 0x5
	.uleb128 0x55
	.uleb128 0x17
	.uleb128 0x58
	.uleb128 0xb
	.uleb128 0x59
	.uleb128 0x5
	.uleb128 0x57
	.uleb128 0xb
	.uleb128 0x1
	.uleb128 0x13
	.byte	0
	.byte	0
	.uleb128 0x3c
	.uleb128 0x2e
	.byte	0x1
	.uleb128 0x3
	.uleb128 0xe
	.uleb128 0x3a
	.uleb128 0x21
	.sleb128 2
	.uleb128 0x3b
	.uleb128 0x5
	.uleb128 0x39
	.uleb128 0xb
	.uleb128 0x3c
	.uleb128 0x19
	.uleb128 0x64
	.uleb128 0x13
	.uleb128 0x1
	.uleb128 0x13
	.byte	0
	.byte	0
	.uleb128 0x3d
	.uleb128 0x2e
	.byte	0x1
	.uleb128 0x31
	.uleb128 0x13
	.uleb128 0x64
	.uleb128 0x13
	.uleb128 0x1
	.uleb128 0x13
	.byte	0
	.byte	0
	.uleb128 0x3e
	.uleb128 0x34
	.byte	0
	.uleb128 0x31
	.uleb128 0x13
	.byte	0
	.byte	0
	.uleb128 0x3f
	.uleb128 0x2
	.byte	0x1
	.uleb128 0x3
	.uleb128 0xe
	.uleb128 0xb
	.uleb128 0xb
	.uleb128 0x3a
	.uleb128 0xb
	.uleb128 0x3b
	.uleb128 0xb
	.uleb128 0x39
	.uleb128 0x21
	.sleb128 11
	.uleb128 0x1
	.uleb128 0x13
	.byte	0
	.byte	0
	.uleb128 0x40
	.uleb128 0xb
	.byte	0x1
	.uleb128 0x55
	.uleb128 0x17
	.uleb128 0x1
	.uleb128 0x13
	.byte	0
	.byte	0
	.uleb128 0x41
	.uleb128 0x2e
	.byte	0x1
	.uleb128 0x3f
	.uleb128 0x19
	.uleb128 0x3
	.uleb128 0xe
	.uleb128 0x3a
	.uleb128 0xb
	.uleb128 0x3b
	.uleb128 0x5
	.uleb128 0x39
	.uleb128 0x21
	.sleb128 7
	.uleb128 0x6e
	.uleb128 0xe
	.uleb128 0x32
	.uleb128 0x21
	.sleb128 1
	.uleb128 0x3c
	.uleb128 0x19
	.uleb128 0x63
	.uleb128 0x19
	.uleb128 0x64
	.uleb128 0x13
	.uleb128 0x1
	.uleb128 0x13
	.byte	0
	.byte	0
	.uleb128 0x42
	.uleb128 0xd
	.byte	0
	.uleb128 0x3
	.uleb128 0x8
	.uleb128 0x3a
	.uleb128 0xb
	.uleb128 0x3b
	.uleb128 0xb
	.uleb128 0x39
	.uleb128 0xb
	.uleb128 0x49
	.uleb128 0x13
	.uleb128 0x38
	.uleb128 0xb
	.byte	0
	.byte	0
	.uleb128 0x43
	.uleb128 0x5
	.byte	0
	.uleb128 0x3
	.uleb128 0xe
	.uleb128 0x3a
	.uleb128 0xb
	.uleb128 0x3b
	.uleb128 0xb
	.uleb128 0x39
	.uleb128 0xb
	.uleb128 0x49
	.uleb128 0x13
	.byte	0
	.byte	0
	.uleb128 0x44
	.uleb128 0xb
	.byte	0x1
	.byte	0
	.byte	0
	.uleb128 0x45
	.uleb128 0x2e
	.byte	0x1
	.uleb128 0x3f
	.uleb128 0x19
	.uleb128 0x3
	.uleb128 0xe
	.uleb128 0x3a
	.uleb128 0xb
	.uleb128 0x3b
	.uleb128 0xb
	.uleb128 0x39
	.uleb128 0xb
	.uleb128 0x6e
	.uleb128 0xe
	.uleb128 0x49
	.uleb128 0x13
	.uleb128 0x3c
	.uleb128 0x19
	.uleb128 0x64
	.uleb128 0x13
	.uleb128 0x1
	.uleb128 0x13
	.byte	0
	.byte	0
	.uleb128 0x46
	.uleb128 0x2e
	.byte	0x1
	.uleb128 0x3
	.uleb128 0xe
	.uleb128 0x3a
	.uleb128 0xb
	.uleb128 0x3b
	.uleb128 0x5
	.uleb128 0x39
	.uleb128 0xb
	.uleb128 0x49
	.uleb128 0x13
	.uleb128 0x3c
	.uleb128 0x19
	.uleb128 0x1
	.uleb128 0x13
	.byte	0
	.byte	0
	.uleb128 0x47
	.uleb128 0x1c
	.byte	0
	.uleb128 0x49
	.uleb128 0x13
	.uleb128 0x38
	.uleb128 0x21
	.sleb128 0
	.uleb128 0x32
	.uleb128 0xb
	.byte	0
	.byte	0
	.uleb128 0x48
	.uleb128 0x2
	.byte	0x1
	.uleb128 0x3
	.uleb128 0xe
	.uleb128 0xb
	.uleb128 0xb
	.uleb128 0x3a
	.uleb128 0xb
	.uleb128 0x3b
	.uleb128 0x5
	.uleb128 0x39
	.uleb128 0x21
	.sleb128 11
	.uleb128 0x1
	.uleb128 0x13
	.byte	0
	.byte	0
	.uleb128 0x49
	.uleb128 0x2e
	.byte	0x1
	.uleb128 0x3f
	.uleb128 0x19
	.uleb128 0x3
	.uleb128 0xe
	.uleb128 0x3a
	.uleb128 0xb
	.uleb128 0x3b
	.uleb128 0xb
	.uleb128 0x39
	.uleb128 0xb
	.uleb128 0x6e
	.uleb128 0xe
	.uleb128 0x3c
	.uleb128 0x19
	.uleb128 0x1
	.uleb128 0x13
	.byte	0
	.byte	0
	.uleb128 0x4a
	.uleb128 0xb
	.byte	0x1
	.uleb128 0x55
	.uleb128 0x17
	.byte	0
	.byte	0
	.uleb128 0x4b
	.uleb128 0x2e
	.byte	0x1
	.uleb128 0x3f
	.uleb128 0x19
	.uleb128 0x3
	.uleb128 0x8
	.uleb128 0x3a
	.uleb128 0xb
	.uleb128 0x3b
	.uleb128 0xb
	.uleb128 0x39
	.uleb128 0x21
	.sleb128 3
	.uleb128 0x6e
	.uleb128 0xe
	.uleb128 0x49
	.uleb128 0x13
	.uleb128 0x3c
	.uleb128 0x19
	.uleb128 0x1
	.uleb128 0x13
	.byte	0
	.byte	0
	.uleb128 0x4c
	.uleb128 0x1d
	.byte	0x1
	.uleb128 0x31
	.uleb128 0x13
	.uleb128 0x52
	.uleb128 0x1
	.uleb128 0x2138
	.uleb128 0x5
	.uleb128 0x55
	.uleb128 0x17
	.uleb128 0x58
	.uleb128 0xb
	.uleb128 0x59
	.uleb128 0x5
	.uleb128 0x57
	.uleb128 0xb
	.uleb128 0x2136
	.uleb128 0xb
	.uleb128 0x1
	.uleb128 0x13
	.byte	0
	.byte	0
	.uleb128 0x4d
	.uleb128 0x1d
	.byte	0x1
	.uleb128 0x31
	.uleb128 0x13
	.uleb128 0x52
	.uleb128 0x1
	.uleb128 0x2138
	.uleb128 0x5
	.uleb128 0x11
	.uleb128 0x1
	.uleb128 0x12
	.uleb128 0x7
	.uleb128 0x58
	.uleb128 0xb
	.uleb128 0x59
	.uleb128 0xb
	.uleb128 0x57
	.uleb128 0xb
	.uleb128 0x2136
	.uleb128 0xb
	.byte	0
	.byte	0
	.uleb128 0x4e
	.uleb128 0x2e
	.byte	0x1
	.uleb128 0x3f
	.uleb128 0x19
	.uleb128 0x3
	.uleb128 0xe
	.uleb128 0x3a
	.uleb128 0xb
	.uleb128 0x3b
	.uleb128 0xb
	.uleb128 0x39
	.uleb128 0xb
	.uleb128 0x6e
	.uleb128 0xe
	.uleb128 0x49
	.uleb128 0x13
	.uleb128 0x32
	.uleb128 0x21
	.sleb128 1
	.uleb128 0x3c
	.uleb128 0x19
	.uleb128 0x8b
	.uleb128 0x21
	.sleb128 1
	.uleb128 0x64
	.uleb128 0x13
	.uleb128 0x1
	.uleb128 0x13
	.byte	0
	.byte	0
	.uleb128 0x4f
	.uleb128 0x2e
	.byte	0x1
	.uleb128 0x3f
	.uleb128 0x19
	.uleb128 0x3
	.uleb128 0xe
	.uleb128 0x3a
	.uleb128 0x21
	.sleb128 2
	.uleb128 0x3b
	.uleb128 0x5
	.uleb128 0x39
	.uleb128 0x21
	.sleb128 7
	.uleb128 0x6e
	.uleb128 0xe
	.uleb128 0x3c
	.uleb128 0x19
	.uleb128 0x8b
	.uleb128 0x21
	.sleb128 1
	.uleb128 0x64
	.uleb128 0x13
	.uleb128 0x1
	.uleb128 0x13
	.byte	0
	.byte	0
	.uleb128 0x50
	.uleb128 0xd
	.byte	0
	.uleb128 0x3
	.uleb128 0xe
	.uleb128 0x3a
	.uleb128 0x21
	.sleb128 2
	.uleb128 0x3b
	.uleb128 0x5
	.uleb128 0x39
	.uleb128 0xb
	.uleb128 0x49
	.uleb128 0x13
	.uleb128 0x38
	.uleb128 0xb
	.byte	0
	.byte	0
	.uleb128 0x51
	.uleb128 0x2e
	.byte	0x1
	.uleb128 0x3f
	.uleb128 0x19
	.uleb128 0x3
	.uleb128 0xe
	.uleb128 0x3a
	.uleb128 0x21
	.sleb128 2
	.uleb128 0x3b
	.uleb128 0x5
	.uleb128 0x39
	.uleb128 0x21
	.sleb128 7
	.uleb128 0x6e
	.uleb128 0xe
	.uleb128 0x32
	.uleb128 0x21
	.sleb128 1
	.uleb128 0x3c
	.uleb128 0x19
	.uleb128 0x8b
	.uleb128 0x21
	.sleb128 1
	.uleb128 0x64
	.uleb128 0x13
	.uleb128 0x1
	.uleb128 0x13
	.byte	0
	.byte	0
	.uleb128 0x52
	.uleb128 0x2e
	.byte	0x1
	.uleb128 0x3f
	.uleb128 0x19
	.uleb128 0x3
	.uleb128 0xe
	.uleb128 0x3a
	.uleb128 0x21
	.sleb128 2
	.uleb128 0x3b
	.uleb128 0x5
	.uleb128 0x39
	.uleb128 0x21
	.sleb128 7
	.uleb128 0x6e
	.uleb128 0xe
	.uleb128 0x49
	.uleb128 0x13
	.uleb128 0x32
	.uleb128 0x21
	.sleb128 2
	.uleb128 0x3c
	.uleb128 0x19
	.uleb128 0x1
	.uleb128 0x13
	.byte	0
	.byte	0
	.uleb128 0x53
	.uleb128 0x2e
	.byte	0x1
	.uleb128 0x3
	.uleb128 0xe
	.uleb128 0x3a
	.uleb128 0xb
	.uleb128 0x3b
	.uleb128 0xb
	.uleb128 0x39
	.uleb128 0xb
	.uleb128 0x32
	.uleb128 0x21
	.sleb128 1
	.uleb128 0x3c
	.uleb128 0x19
	.uleb128 0x64
	.uleb128 0x13
	.uleb128 0x1
	.uleb128 0x13
	.byte	0
	.byte	0
	.uleb128 0x54
	.uleb128 0x2e
	.byte	0x1
	.uleb128 0x3
	.uleb128 0xe
	.uleb128 0x3a
	.uleb128 0xb
	.uleb128 0x3b
	.uleb128 0xb
	.uleb128 0x39
	.uleb128 0xb
	.uleb128 0x49
	.uleb128 0x13
	.uleb128 0x32
	.uleb128 0xb
	.uleb128 0x3c
	.uleb128 0x19
	.uleb128 0x64
	.uleb128 0x13
	.uleb128 0x1
	.uleb128 0x13
	.byte	0
	.byte	0
	.uleb128 0x55
	.uleb128 0x4107
	.byte	0x1
	.uleb128 0x3
	.uleb128 0xe
	.uleb128 0x1
	.uleb128 0x13
	.byte	0
	.byte	0
	.uleb128 0x56
	.uleb128 0x2f
	.byte	0
	.uleb128 0x49
	.uleb128 0x13
	.byte	0
	.byte	0
	.uleb128 0x57
	.uleb128 0x2e
	.byte	0x1
	.uleb128 0x3
	.uleb128 0xe
	.uleb128 0x3a
	.uleb128 0x21
	.sleb128 2
	.uleb128 0x3b
	.uleb128 0xb
	.uleb128 0x39
	.uleb128 0x21
	.sleb128 2
	.uleb128 0x3c
	.uleb128 0x19
	.uleb128 0x64
	.uleb128 0x13
	.uleb128 0x1
	.uleb128 0x13
	.byte	0
	.byte	0
	.uleb128 0x58
	.uleb128 0x1d
	.byte	0x1
	.uleb128 0x31
	.uleb128 0x13
	.uleb128 0x52
	.uleb128 0x1
	.uleb128 0x2138
	.uleb128 0x5
	.uleb128 0x11
	.uleb128 0x1
	.uleb128 0x12
	.uleb128 0x7
	.uleb128 0x58
	.uleb128 0x21
	.sleb128 1
	.uleb128 0x59
	.uleb128 0xb
	.uleb128 0x57
	.uleb128 0xb
	.uleb128 0x2136
	.uleb128 0xb
	.uleb128 0x1
	.uleb128 0x13
	.byte	0
	.byte	0
	.uleb128 0x59
	.uleb128 0x48
	.byte	0
	.uleb128 0x7d
	.uleb128 0x1
	.uleb128 0x83
	.uleb128 0x18
	.byte	0
	.byte	0
	.uleb128 0x5a
	.uleb128 0x13
	.byte	0x1
	.uleb128 0x3
	.uleb128 0xe
	.uleb128 0xb
	.uleb128 0xb
	.uleb128 0x3a
	.uleb128 0xb
	.uleb128 0x3b
	.uleb128 0x5
	.uleb128 0x39
	.uleb128 0xb
	.uleb128 0x1
	.uleb128 0x13
	.byte	0
	.byte	0
	.uleb128 0x5b
	.uleb128 0x1
	.byte	0x1
	.uleb128 0x2107
	.uleb128 0x19
	.uleb128 0x49
	.uleb128 0x13
	.uleb128 0x1
	.uleb128 0x13
	.byte	0
	.byte	0
	.uleb128 0x5c
	.uleb128 0x21
	.byte	0
	.uleb128 0x2f
	.uleb128 0xb
	.byte	0
	.byte	0
	.uleb128 0x5d
	.uleb128 0x34
	.byte	0
	.uleb128 0x3
	.uleb128 0x8
	.uleb128 0x3a
	.uleb128 0xb
	.uleb128 0x3b
	.uleb128 0x5
	.uleb128 0x39
	.uleb128 0xb
	.uleb128 0x49
	.uleb128 0x13
	.byte	0
	.byte	0
	.uleb128 0x5e
	.uleb128 0x34
	.byte	0
	.uleb128 0x3
	.uleb128 0xe
	.uleb128 0x49
	.uleb128 0x13
	.uleb128 0x34
	.uleb128 0x19
	.byte	0
	.byte	0
	.uleb128 0x5f
	.uleb128 0x1d
	.byte	0x1
	.uleb128 0x31
	.uleb128 0x13
	.uleb128 0x52
	.uleb128 0x1
	.uleb128 0x2138
	.uleb128 0x5
	.uleb128 0x55
	.uleb128 0x17
	.uleb128 0x58
	.uleb128 0xb
	.uleb128 0x59
	.uleb128 0xb
	.uleb128 0x57
	.uleb128 0xb
	.byte	0
	.byte	0
	.uleb128 0x60
	.uleb128 0x1d
	.byte	0x1
	.uleb128 0x31
	.uleb128 0x13
	.uleb128 0x52
	.uleb128 0x1
	.uleb128 0x2138
	.uleb128 0x5
	.uleb128 0x55
	.uleb128 0x17
	.uleb128 0x58
	.uleb128 0xb
	.uleb128 0x59
	.uleb128 0x5
	.uleb128 0x57
	.uleb128 0xb
	.uleb128 0x2136
	.uleb128 0xb
	.byte	0
	.byte	0
	.uleb128 0x61
	.uleb128 0x2e
	.byte	0x1
	.uleb128 0x3f
	.uleb128 0x19
	.uleb128 0x3
	.uleb128 0xe
	.uleb128 0x3a
	.uleb128 0xb
	.uleb128 0x3b
	.uleb128 0x5
	.uleb128 0x39
	.uleb128 0x21
	.sleb128 1
	.uleb128 0x6e
	.uleb128 0xe
	.uleb128 0x49
	.uleb128 0x13
	.uleb128 0x20
	.uleb128 0x21
	.sleb128 3
	.uleb128 0x34
	.uleb128 0x19
	.uleb128 0x1
	.uleb128 0x13
	.byte	0
	.byte	0
	.uleb128 0x62
	.uleb128 0x18
	.byte	0
	.byte	0
	.byte	0
	.uleb128 0x63
	.uleb128 0x2e
	.byte	0x1
	.uleb128 0x3f
	.uleb128 0x19
	.uleb128 0x3
	.uleb128 0xe
	.uleb128 0x3a
	.uleb128 0xb
	.uleb128 0x3b
	.uleb128 0x5
	.uleb128 0x39
	.uleb128 0x21
	.sleb128 13
	.uleb128 0x3c
	.uleb128 0x19
	.uleb128 0x1
	.uleb128 0x13
	.byte	0
	.byte	0
	.uleb128 0x64
	.uleb128 0x2e
	.byte	0x1
	.uleb128 0x47
	.uleb128 0x13
	.uleb128 0x3a
	.uleb128 0xb
	.uleb128 0x3b
	.uleb128 0xb
	.uleb128 0x39
	.uleb128 0xb
	.uleb128 0x64
	.uleb128 0x13
	.uleb128 0x20
	.uleb128 0x21
	.sleb128 2
	.uleb128 0x1
	.uleb128 0x13
	.byte	0
	.byte	0
	.uleb128 0x65
	.uleb128 0x1d
	.byte	0x1
	.uleb128 0x31
	.uleb128 0x13
	.uleb128 0x52
	.uleb128 0x1
	.uleb128 0x2138
	.uleb128 0x5
	.uleb128 0x55
	.uleb128 0x17
	.uleb128 0x58
	.uleb128 0xb
	.uleb128 0x59
	.uleb128 0xb
	.uleb128 0x57
	.uleb128 0xb
	.uleb128 0x2136
	.uleb128 0xb
	.byte	0
	.byte	0
	.uleb128 0x66
	.uleb128 0x2e
	.byte	0x1
	.uleb128 0x3f
	.uleb128 0x19
	.uleb128 0x3
	.uleb128 0xe
	.uleb128 0x3a
	.uleb128 0x21
	.sleb128 2
	.uleb128 0x3b
	.uleb128 0xb
	.uleb128 0x39
	.uleb128 0x21
	.sleb128 2
	.uleb128 0x6e
	.uleb128 0xe
	.uleb128 0x3c
	.uleb128 0x19
	.uleb128 0x64
	.uleb128 0x13
	.byte	0
	.byte	0
	.uleb128 0x67
	.uleb128 0x2f
	.byte	0
	.uleb128 0x3
	.uleb128 0xe
	.uleb128 0x49
	.uleb128 0x13
	.uleb128 0x1e
	.uleb128 0x19
	.byte	0
	.byte	0
	.uleb128 0x68
	.uleb128 0x2e
	.byte	0x1
	.uleb128 0x3
	.uleb128 0xe
	.uleb128 0x3a
	.uleb128 0x21
	.sleb128 2
	.uleb128 0x3b
	.uleb128 0x5
	.uleb128 0x39
	.uleb128 0xb
	.uleb128 0x49
	.uleb128 0x13
	.uleb128 0x3c
	.uleb128 0x19
	.uleb128 0x64
	.uleb128 0x13
	.uleb128 0x1
	.uleb128 0x13
	.byte	0
	.byte	0
	.uleb128 0x69
	.uleb128 0xd
	.byte	0
	.uleb128 0x3
	.uleb128 0xe
	.uleb128 0x3a
	.uleb128 0x21
	.sleb128 3
	.uleb128 0x3b
	.uleb128 0x21
	.sleb128 1029
	.uleb128 0x39
	.uleb128 0x21
	.sleb128 17
	.uleb128 0x49
	.uleb128 0x13
	.uleb128 0x38
	.uleb128 0x21
	.sleb128 0
	.uleb128 0x32
	.uleb128 0x21
	.sleb128 2
	.byte	0
	.byte	0
	.uleb128 0x6a
	.uleb128 0x2e
	.byte	0
	.uleb128 0x3
	.uleb128 0xe
	.uleb128 0x3a
	.uleb128 0x21
	.sleb128 51
	.uleb128 0x3b
	.uleb128 0xb
	.uleb128 0x39
	.uleb128 0x21
	.sleb128 27
	.uleb128 0x49
	.uleb128 0x13
	.uleb128 0x3c
	.uleb128 0x19
	.byte	0
	.byte	0
	.uleb128 0x6b
	.uleb128 0xb
	.byte	0x1
	.uleb128 0x31
	.uleb128 0x13
	.uleb128 0x55
	.uleb128 0x17
	.byte	0
	.byte	0
	.uleb128 0x6c
	.uleb128 0x39
	.byte	0x1
	.uleb128 0x3
	.uleb128 0xe
	.uleb128 0x3a
	.uleb128 0xb
	.uleb128 0x3b
	.uleb128 0xb
	.uleb128 0x39
	.uleb128 0xb
	.uleb128 0x1
	.uleb128 0x13
	.byte	0
	.byte	0
	.uleb128 0x6d
	.uleb128 0x2e
	.byte	0x1
	.uleb128 0x3f
	.uleb128 0x19
	.uleb128 0x3
	.uleb128 0xe
	.uleb128 0x3a
	.uleb128 0x21
	.sleb128 5
	.uleb128 0x3b
	.uleb128 0x21
	.sleb128 189
	.uleb128 0x39
	.uleb128 0x21
	.sleb128 7
	.uleb128 0x6e
	.uleb128 0xe
	.uleb128 0x32
	.uleb128 0x21
	.sleb128 1
	.uleb128 0x3c
	.uleb128 0x19
	.uleb128 0x64
	.uleb128 0x13
	.byte	0
	.byte	0
	.uleb128 0x6e
	.uleb128 0x2e
	.byte	0x1
	.uleb128 0x3f
	.uleb128 0x19
	.uleb128 0x3
	.uleb128 0xe
	.uleb128 0x6e
	.uleb128 0xe
	.uleb128 0x34
	.uleb128 0x19
	.uleb128 0x3c
	.uleb128 0x19
	.uleb128 0x64
	.uleb128 0x13
	.byte	0
	.byte	0
	.uleb128 0x6f
	.uleb128 0x2e
	.byte	0
	.uleb128 0x3f
	.uleb128 0x19
	.uleb128 0x3
	.uleb128 0xe
	.uleb128 0x3a
	.uleb128 0x21
	.sleb128 2
	.uleb128 0x3b
	.uleb128 0x21
	.sleb128 515
	.uleb128 0x39
	.uleb128 0x21
	.sleb128 7
	.uleb128 0x6e
	.uleb128 0xe
	.uleb128 0x49
	.uleb128 0x13
	.uleb128 0x3c
	.uleb128 0x19
	.byte	0
	.byte	0
	.uleb128 0x70
	.uleb128 0x2e
	.byte	0x1
	.uleb128 0x3
	.uleb128 0x8
	.uleb128 0x3a
	.uleb128 0x21
	.sleb128 2
	.uleb128 0x3b
	.uleb128 0x5
	.uleb128 0x39
	.uleb128 0x21
	.sleb128 7
	.uleb128 0x49
	.uleb128 0x13
	.uleb128 0x32
	.uleb128 0x21
	.sleb128 1
	.uleb128 0x3c
	.uleb128 0x19
	.uleb128 0x64
	.uleb128 0x13
	.uleb128 0x1
	.uleb128 0x13
	.byte	0
	.byte	0
	.uleb128 0x71
	.uleb128 0xd
	.byte	0
	.uleb128 0x3
	.uleb128 0xe
	.uleb128 0x3a
	.uleb128 0x21
	.sleb128 42
	.uleb128 0x3b
	.uleb128 0x21
	.sleb128 0
	.uleb128 0x49
	.uleb128 0x13
	.uleb128 0x38
	.uleb128 0xb
	.byte	0
	.byte	0
	.uleb128 0x72
	.uleb128 0x13
	.byte	0x1
	.uleb128 0xb
	.uleb128 0xb
	.uleb128 0x3a
	.uleb128 0xb
	.uleb128 0x3b
	.uleb128 0xb
	.uleb128 0x39
	.uleb128 0xb
	.uleb128 0x6e
	.uleb128 0xe
	.uleb128 0x1
	.uleb128 0x13
	.byte	0
	.byte	0
	.uleb128 0x73
	.uleb128 0x2e
	.byte	0
	.uleb128 0x3f
	.uleb128 0x19
	.uleb128 0x3
	.uleb128 0xe
	.uleb128 0x3a
	.uleb128 0xb
	.uleb128 0x3b
	.uleb128 0xb
	.uleb128 0x39
	.uleb128 0xb
	.uleb128 0x49
	.uleb128 0x13
	.uleb128 0x3c
	.uleb128 0x19
	.byte	0
	.byte	0
	.uleb128 0x74
	.uleb128 0xb
	.byte	0x1
	.uleb128 0x31
	.uleb128 0x13
	.byte	0
	.byte	0
	.uleb128 0x75
	.uleb128 0x1d
	.byte	0x1
	.uleb128 0x31
	.uleb128 0x13
	.uleb128 0x52
	.uleb128 0x1
	.uleb128 0x2138
	.uleb128 0x5
	.uleb128 0x11
	.uleb128 0x1
	.uleb128 0x12
	.uleb128 0x7
	.uleb128 0x58
	.uleb128 0x21
	.sleb128 2
	.uleb128 0x59
	.uleb128 0x5
	.uleb128 0x57
	.uleb128 0xb
	.uleb128 0x2136
	.uleb128 0xb
	.uleb128 0x1
	.uleb128 0x13
	.byte	0
	.byte	0
	.uleb128 0x76
	.uleb128 0x1d
	.byte	0x1
	.uleb128 0x31
	.uleb128 0x13
	.uleb128 0x52
	.uleb128 0x1
	.uleb128 0x2138
	.uleb128 0x5
	.uleb128 0x11
	.uleb128 0x1
	.uleb128 0x12
	.uleb128 0x7
	.uleb128 0x58
	.uleb128 0x21
	.sleb128 2
	.uleb128 0x59
	.uleb128 0x5
	.uleb128 0x57
	.uleb128 0xb
	.uleb128 0x2136
	.uleb128 0xb
	.byte	0
	.byte	0
	.uleb128 0x77
	.uleb128 0xb
	.byte	0x1
	.uleb128 0x31
	.uleb128 0x13
	.uleb128 0x11
	.uleb128 0x1
	.uleb128 0x12
	.uleb128 0x7
	.uleb128 0x1
	.uleb128 0x13
	.byte	0
	.byte	0
	.uleb128 0x78
	.uleb128 0xb
	.byte	0x1
	.uleb128 0x31
	.uleb128 0x13
	.uleb128 0x55
	.uleb128 0x17
	.uleb128 0x1
	.uleb128 0x13
	.byte	0
	.byte	0
	.uleb128 0x79
	.uleb128 0x39
	.byte	0
	.uleb128 0x3
	.uleb128 0xe
	.uleb128 0x3a
	.uleb128 0xb
	.uleb128 0x3b
	.uleb128 0xb
	.uleb128 0x39
	.uleb128 0xb
	.byte	0
	.byte	0
	.uleb128 0x7a
	.uleb128 0x2e
	.byte	0x1
	.uleb128 0x3
	.uleb128 0xe
	.uleb128 0x3a
	.uleb128 0xb
	.uleb128 0x3b
	.uleb128 0x5
	.uleb128 0x39
	.uleb128 0x21
	.sleb128 7
	.uleb128 0x32
	.uleb128 0x21
	.sleb128 1
	.uleb128 0x3c
	.uleb128 0x19
	.uleb128 0x63
	.uleb128 0x19
	.uleb128 0x64
	.uleb128 0x13
	.uleb128 0x1
	.uleb128 0x13
	.byte	0
	.byte	0
	.uleb128 0x7b
	.uleb128 0x1
	.byte	0x1
	.uleb128 0x49
	.uleb128 0x13
	.uleb128 0x1
	.uleb128 0x13
	.byte	0
	.byte	0
	.uleb128 0x7c
	.uleb128 0x21
	.byte	0
	.uleb128 0x49
	.uleb128 0x13
	.uleb128 0x2f
	.uleb128 0xb
	.byte	0
	.byte	0
	.uleb128 0x7d
	.uleb128 0x28
	.byte	0
	.uleb128 0x3
	.uleb128 0xe
	.uleb128 0x1c
	.uleb128 0xb
	.byte	0
	.byte	0
	.uleb128 0x7e
	.uleb128 0x13
	.byte	0
	.uleb128 0x3
	.uleb128 0xe
	.uleb128 0x3c
	.uleb128 0x19
	.byte	0
	.byte	0
	.uleb128 0x7f
	.uleb128 0x16
	.byte	0
	.uleb128 0x3
	.uleb128 0xe
	.uleb128 0x3a
	.uleb128 0xb
	.uleb128 0x3b
	.uleb128 0xb
	.uleb128 0x39
	.uleb128 0xb
	.uleb128 0x49
	.uleb128 0x13
	.uleb128 0x88
	.uleb128 0x21
	.sleb128 1
	.byte	0
	.byte	0
	.uleb128 0x80
	.uleb128 0x34
	.byte	0
	.uleb128 0x3
	.uleb128 0x8
	.uleb128 0x3a
	.uleb128 0x21
	.sleb128 1
	.uleb128 0x3b
	.uleb128 0xb
	.uleb128 0x39
	.uleb128 0xb
	.uleb128 0x49
	.uleb128 0x13
	.byte	0
	.byte	0
	.uleb128 0x81
	.uleb128 0x2e
	.byte	0
	.uleb128 0x3f
	.uleb128 0x19
	.uleb128 0x3c
	.uleb128 0x19
	.uleb128 0x6e
	.uleb128 0xe
	.uleb128 0x3
	.uleb128 0xe
	.byte	0
	.byte	0
	.uleb128 0x82
	.uleb128 0x30
	.byte	0
	.uleb128 0x3
	.uleb128 0x8
	.uleb128 0x49
	.uleb128 0x13
	.uleb128 0x1c
	.uleb128 0xb
	.byte	0
	.byte	0
	.uleb128 0x83
	.uleb128 0x39
	.byte	0
	.uleb128 0x3
	.uleb128 0xe
	.uleb128 0x3a
	.uleb128 0x21
	.sleb128 20
	.uleb128 0x3b
	.uleb128 0x5
	.uleb128 0x39
	.uleb128 0x21
	.sleb128 13
	.byte	0
	.byte	0
	.uleb128 0x84
	.uleb128 0x2e
	.byte	0x1
	.uleb128 0x3f
	.uleb128 0x19
	.uleb128 0x3
	.uleb128 0xe
	.uleb128 0x3a
	.uleb128 0xb
	.uleb128 0x3b
	.uleb128 0xb
	.uleb128 0x39
	.uleb128 0xb
	.uleb128 0x6e
	.uleb128 0xe
	.uleb128 0x3c
	.uleb128 0x19
	.uleb128 0x63
	.uleb128 0x19
	.uleb128 0x64
	.uleb128 0x13
	.uleb128 0x1
	.uleb128 0x13
	.byte	0
	.byte	0
	.uleb128 0x85
	.uleb128 0x2e
	.byte	0x1
	.uleb128 0x3f
	.uleb128 0x19
	.uleb128 0x3
	.uleb128 0xe
	.uleb128 0x3a
	.uleb128 0xb
	.uleb128 0x3b
	.uleb128 0xb
	.uleb128 0x39
	.uleb128 0xb
	.uleb128 0x6e
	.uleb128 0xe
	.uleb128 0x87
	.uleb128 0x19
	.uleb128 0x3c
	.uleb128 0x19
	.uleb128 0x1
	.uleb128 0x13
	.byte	0
	.byte	0
	.uleb128 0x86
	.uleb128 0x39
	.byte	0
	.uleb128 0x3
	.uleb128 0xe
	.uleb128 0x3a
	.uleb128 0xb
	.uleb128 0x3b
	.uleb128 0x5
	.uleb128 0x39
	.uleb128 0xb
	.uleb128 0x89
	.uleb128 0x19
	.byte	0
	.byte	0
	.uleb128 0x87
	.uleb128 0x39
	.byte	0
	.uleb128 0x3
	.uleb128 0x8
	.uleb128 0x3a
	.uleb128 0xb
	.uleb128 0x3b
	.uleb128 0xb
	.uleb128 0x39
	.uleb128 0xb
	.uleb128 0x89
	.uleb128 0x19
	.byte	0
	.byte	0
	.uleb128 0x88
	.uleb128 0x30
	.byte	0
	.uleb128 0x3
	.uleb128 0xe
	.uleb128 0x49
	.uleb128 0x13
	.uleb128 0x1c
	.uleb128 0x21
	.sleb128 1
	.byte	0
	.byte	0
	.uleb128 0x89
	.uleb128 0x2e
	.byte	0x1
	.uleb128 0x3
	.uleb128 0xe
	.uleb128 0x3a
	.uleb128 0xb
	.uleb128 0x3b
	.uleb128 0xb
	.uleb128 0x39
	.uleb128 0xb
	.uleb128 0x49
	.uleb128 0x13
	.uleb128 0x32
	.uleb128 0x21
	.sleb128 1
	.uleb128 0x3c
	.uleb128 0x19
	.uleb128 0x8b
	.uleb128 0x21
	.sleb128 1
	.uleb128 0x64
	.uleb128 0x13
	.uleb128 0x1
	.uleb128 0x13
	.byte	0
	.byte	0
	.uleb128 0x8a
	.uleb128 0x2e
	.byte	0x1
	.uleb128 0x3
	.uleb128 0xe
	.uleb128 0x3a
	.uleb128 0x21
	.sleb128 8
	.uleb128 0x3b
	.uleb128 0x5
	.uleb128 0x39
	.uleb128 0xb
	.uleb128 0x3c
	.uleb128 0x19
	.uleb128 0x1
	.uleb128 0x13
	.byte	0
	.byte	0
	.uleb128 0x8b
	.uleb128 0x2e
	.byte	0x1
	.uleb128 0x3
	.uleb128 0xe
	.uleb128 0x3a
	.uleb128 0x21
	.sleb128 2
	.uleb128 0x3b
	.uleb128 0x5
	.uleb128 0x39
	.uleb128 0x21
	.sleb128 7
	.uleb128 0x3c
	.uleb128 0x19
	.uleb128 0x8b
	.uleb128 0x21
	.sleb128 1
	.uleb128 0x64
	.uleb128 0x13
	.uleb128 0x1
	.uleb128 0x13
	.byte	0
	.byte	0
	.uleb128 0x8c
	.uleb128 0x2e
	.byte	0x1
	.uleb128 0x3
	.uleb128 0xe
	.uleb128 0x3a
	.uleb128 0x21
	.sleb128 2
	.uleb128 0x3b
	.uleb128 0x5
	.uleb128 0x39
	.uleb128 0x21
	.sleb128 7
	.uleb128 0x32
	.uleb128 0x21
	.sleb128 1
	.uleb128 0x3c
	.uleb128 0x19
	.uleb128 0x8b
	.uleb128 0x21
	.sleb128 1
	.uleb128 0x64
	.uleb128 0x13
	.uleb128 0x1
	.uleb128 0x13
	.byte	0
	.byte	0
	.uleb128 0x8d
	.uleb128 0x2e
	.byte	0x1
	.uleb128 0x3
	.uleb128 0xe
	.uleb128 0x3a
	.uleb128 0x21
	.sleb128 2
	.uleb128 0x3b
	.uleb128 0x5
	.uleb128 0x39
	.uleb128 0x21
	.sleb128 7
	.uleb128 0x49
	.uleb128 0x13
	.uleb128 0x32
	.uleb128 0x21
	.sleb128 2
	.uleb128 0x3c
	.uleb128 0x19
	.uleb128 0x1
	.uleb128 0x13
	.byte	0
	.byte	0
	.uleb128 0x8e
	.uleb128 0x2e
	.byte	0x1
	.uleb128 0x3f
	.uleb128 0x19
	.uleb128 0x3
	.uleb128 0x8
	.uleb128 0x3a
	.uleb128 0x21
	.sleb128 37
	.uleb128 0x3b
	.uleb128 0xb
	.uleb128 0x39
	.uleb128 0x21
	.sleb128 7
	.uleb128 0x6e
	.uleb128 0xe
	.uleb128 0x49
	.uleb128 0x13
	.uleb128 0x32
	.uleb128 0x21
	.sleb128 1
	.uleb128 0x3c
	.uleb128 0x19
	.uleb128 0x64
	.uleb128 0x13
	.uleb128 0x1
	.uleb128 0x13
	.byte	0
	.byte	0
	.uleb128 0x8f
	.uleb128 0x2e
	.byte	0
	.uleb128 0x3f
	.uleb128 0x19
	.uleb128 0x3
	.uleb128 0xe
	.uleb128 0x3a
	.uleb128 0x21
	.sleb128 38
	.uleb128 0x3b
	.uleb128 0xb
	.uleb128 0x39
	.uleb128 0x21
	.sleb128 3
	.uleb128 0x6e
	.uleb128 0xe
	.uleb128 0x87
	.uleb128 0x19
	.uleb128 0x3c
	.uleb128 0x19
	.byte	0
	.byte	0
	.uleb128 0x90
	.uleb128 0x4107
	.byte	0
	.uleb128 0x3
	.uleb128 0xe
	.byte	0
	.byte	0
	.uleb128 0x91
	.uleb128 0x2e
	.byte	0x1
	.uleb128 0x3
	.uleb128 0xe
	.uleb128 0x3a
	.uleb128 0xb
	.uleb128 0x3b
	.uleb128 0xb
	.uleb128 0x39
	.uleb128 0xb
	.uleb128 0x49
	.uleb128 0x13
	.uleb128 0x3c
	.uleb128 0x19
	.uleb128 0x1
	.uleb128 0x13
	.byte	0
	.byte	0
	.uleb128 0x92
	.uleb128 0x2e
	.byte	0x1
	.uleb128 0x3
	.uleb128 0xe
	.uleb128 0x3a
	.uleb128 0xb
	.uleb128 0x3b
	.uleb128 0xb
	.uleb128 0x39
	.uleb128 0xb
	.uleb128 0x3c
	.uleb128 0x19
	.uleb128 0x1
	.uleb128 0x13
	.byte	0
	.byte	0
	.uleb128 0x93
	.uleb128 0x2e
	.byte	0x1
	.uleb128 0x3f
	.uleb128 0x19
	.uleb128 0x3
	.uleb128 0xe
	.uleb128 0x3a
	.uleb128 0xb
	.uleb128 0x3b
	.uleb128 0x5
	.uleb128 0x39
	.uleb128 0xb
	.uleb128 0x6e
	.uleb128 0xe
	.uleb128 0x49
	.uleb128 0x13
	.uleb128 0x3c
	.uleb128 0x19
	.byte	0
	.byte	0
	.uleb128 0x94
	.uleb128 0xd
	.byte	0
	.uleb128 0x3
	.uleb128 0xe
	.uleb128 0x3a
	.uleb128 0x21
	.sleb128 44
	.uleb128 0x3b
	.uleb128 0xb
	.uleb128 0x39
	.uleb128 0xb
	.uleb128 0x49
	.uleb128 0x13
	.byte	0
	.byte	0
	.uleb128 0x95
	.uleb128 0x2e
	.byte	0
	.uleb128 0x3f
	.uleb128 0x19
	.uleb128 0x3
	.uleb128 0xe
	.uleb128 0x3a
	.uleb128 0xb
	.uleb128 0x3b
	.uleb128 0x5
	.uleb128 0x39
	.uleb128 0xb
	.uleb128 0x49
	.uleb128 0x13
	.uleb128 0x3c
	.uleb128 0x19
	.byte	0
	.byte	0
	.uleb128 0x96
	.uleb128 0x39
	.byte	0x1
	.uleb128 0x3
	.uleb128 0xe
	.uleb128 0x3a
	.uleb128 0xb
	.uleb128 0x3b
	.uleb128 0x5
	.uleb128 0x39
	.uleb128 0x21
	.sleb128 11
	.uleb128 0x1
	.uleb128 0x13
	.byte	0
	.byte	0
	.uleb128 0x97
	.uleb128 0xd
	.byte	0
	.uleb128 0x3
	.uleb128 0xe
	.uleb128 0x3a
	.uleb128 0x21
	.sleb128 41
	.uleb128 0x3b
	.uleb128 0x5
	.uleb128 0x39
	.uleb128 0xb
	.uleb128 0x49
	.uleb128 0x13
	.uleb128 0x88
	.uleb128 0xb
	.uleb128 0x38
	.uleb128 0xb
	.byte	0
	.byte	0
	.uleb128 0x98
	.uleb128 0x34
	.byte	0
	.uleb128 0x47
	.uleb128 0x13
	.byte	0
	.byte	0
	.uleb128 0x99
	.uleb128 0x2e
	.byte	0x1
	.uleb128 0x3f
	.uleb128 0x19
	.uleb128 0x3
	.uleb128 0x8
	.uleb128 0x3a
	.uleb128 0x21
	.sleb128 4
	.uleb128 0x3b
	.uleb128 0xb
	.uleb128 0x39
	.uleb128 0xb
	.uleb128 0x6e
	.uleb128 0xe
	.uleb128 0x49
	.uleb128 0x13
	.uleb128 0x3c
	.uleb128 0x19
	.uleb128 0x64
	.uleb128 0x13
	.uleb128 0x1
	.uleb128 0x13
	.byte	0
	.byte	0
	.uleb128 0x9a
	.uleb128 0x4108
	.byte	0x1
	.uleb128 0x3
	.uleb128 0xe
	.uleb128 0x3a
	.uleb128 0xb
	.uleb128 0x3b
	.uleb128 0xb
	.uleb128 0x39
	.uleb128 0xb
	.byte	0
	.byte	0
	.uleb128 0x9b
	.uleb128 0x5
	.byte	0
	.uleb128 0x3
	.uleb128 0xe
	.uleb128 0x3a
	.uleb128 0x21
	.sleb128 1
	.uleb128 0x3b
	.uleb128 0x21
	.sleb128 28
	.uleb128 0x39
	.uleb128 0xb
	.uleb128 0x49
	.uleb128 0x13
	.uleb128 0x2
	.uleb128 0x17
	.uleb128 0x2137
	.uleb128 0x17
	.byte	0
	.byte	0
	.uleb128 0x9c
	.uleb128 0x34
	.byte	0
	.uleb128 0x3
	.uleb128 0xe
	.uleb128 0x49
	.uleb128 0x13
	.uleb128 0x34
	.uleb128 0x19
	.uleb128 0x2
	.uleb128 0x17
	.uleb128 0x2137
	.uleb128 0x17
	.byte	0
	.byte	0
	.uleb128 0x9d
	.uleb128 0x1d
	.byte	0x1
	.uleb128 0x31
	.uleb128 0x13
	.uleb128 0x55
	.uleb128 0x17
	.uleb128 0x58
	.uleb128 0x21
	.sleb128 12
	.uleb128 0x59
	.uleb128 0x21
	.sleb128 492
	.uleb128 0x57
	.uleb128 0x21
	.sleb128 17
	.uleb128 0x1
	.uleb128 0x13
	.byte	0
	.byte	0
	.uleb128 0x9e
	.uleb128 0x11
	.byte	0x1
	.uleb128 0x25
	.uleb128 0xe
	.uleb128 0x13
	.uleb128 0xb
	.uleb128 0x90
	.uleb128 0xb
	.uleb128 0x91
	.uleb128 0x6
	.uleb128 0x3
	.uleb128 0x1f
	.uleb128 0x1b
	.uleb128 0x1f
	.uleb128 0x55
	.uleb128 0x17
	.uleb128 0x11
	.uleb128 0x1
	.uleb128 0x10
	.uleb128 0x17
	.byte	0
	.byte	0
	.uleb128 0x9f
	.uleb128 0x24
	.byte	0
	.uleb128 0xb
	.uleb128 0xb
	.uleb128 0x3e
	.uleb128 0xb
	.uleb128 0x3
	.uleb128 0x8
	.byte	0
	.byte	0
	.uleb128 0xa0
	.uleb128 0x39
	.byte	0x1
	.uleb128 0x3
	.uleb128 0x8
	.uleb128 0x3a
	.uleb128 0xb
	.uleb128 0x3b
	.uleb128 0x5
	.uleb128 0x39
	.uleb128 0xb
	.uleb128 0x1
	.uleb128 0x13
	.byte	0
	.byte	0
	.uleb128 0xa1
	.uleb128 0x2e
	.byte	0x1
	.uleb128 0x3f
	.uleb128 0x19
	.uleb128 0x3
	.uleb128 0xe
	.uleb128 0x3a
	.uleb128 0xb
	.uleb128 0x3b
	.uleb128 0xb
	.uleb128 0x39
	.uleb128 0xb
	.uleb128 0x6e
	.uleb128 0xe
	.uleb128 0x49
	.uleb128 0x13
	.uleb128 0x32
	.uleb128 0xb
	.uleb128 0x3c
	.uleb128 0x19
	.uleb128 0x63
	.uleb128 0x19
	.uleb128 0x64
	.uleb128 0x13
	.uleb128 0x1
	.uleb128 0x13
	.byte	0
	.byte	0
	.uleb128 0xa2
	.uleb128 0x2e
	.byte	0x1
	.uleb128 0x3f
	.uleb128 0x19
	.uleb128 0x3
	.uleb128 0xe
	.uleb128 0x3a
	.uleb128 0xb
	.uleb128 0x3b
	.uleb128 0xb
	.uleb128 0x39
	.uleb128 0xb
	.uleb128 0x6e
	.uleb128 0xe
	.uleb128 0x49
	.uleb128 0x13
	.uleb128 0x32
	.uleb128 0xb
	.uleb128 0x3c
	.uleb128 0x19
	.uleb128 0x64
	.uleb128 0x13
	.byte	0
	.byte	0
	.uleb128 0xa3
	.uleb128 0x2e
	.byte	0x1
	.uleb128 0x3f
	.uleb128 0x19
	.uleb128 0x3
	.uleb128 0xe
	.uleb128 0x3a
	.uleb128 0xb
	.uleb128 0x3b
	.uleb128 0x5
	.uleb128 0x39
	.uleb128 0xb
	.uleb128 0x6e
	.uleb128 0xe
	.uleb128 0x3c
	.uleb128 0x19
	.byte	0
	.byte	0
	.uleb128 0xa4
	.uleb128 0x13
	.byte	0
	.uleb128 0x3
	.uleb128 0xe
	.uleb128 0xb
	.uleb128 0xb
	.uleb128 0x3a
	.uleb128 0xb
	.uleb128 0x3b
	.uleb128 0xb
	.uleb128 0x39
	.uleb128 0xb
	.byte	0
	.byte	0
	.uleb128 0xa5
	.uleb128 0x39
	.byte	0
	.uleb128 0x3
	.uleb128 0x8
	.uleb128 0x3a
	.uleb128 0xb
	.uleb128 0x3b
	.uleb128 0xb
	.uleb128 0x39
	.uleb128 0xb
	.byte	0
	.byte	0
	.uleb128 0xa6
	.uleb128 0x39
	.byte	0
	.uleb128 0x3
	.uleb128 0x8
	.uleb128 0x3a
	.uleb128 0xb
	.uleb128 0x3b
	.uleb128 0x5
	.uleb128 0x39
	.uleb128 0xb
	.uleb128 0x89
	.uleb128 0x19
	.byte	0
	.byte	0
	.uleb128 0xa7
	.uleb128 0x3a
	.byte	0
	.uleb128 0x3a
	.uleb128 0xb
	.uleb128 0x3b
	.uleb128 0x5
	.uleb128 0x39
	.uleb128 0xb
	.uleb128 0x18
	.uleb128 0x13
	.byte	0
	.byte	0
	.uleb128 0xa8
	.uleb128 0x39
	.byte	0x1
	.uleb128 0x3
	.uleb128 0xe
	.uleb128 0x3a
	.uleb128 0xb
	.uleb128 0x3b
	.uleb128 0x5
	.uleb128 0x39
	.uleb128 0xb
	.uleb128 0x89
	.uleb128 0x19
	.uleb128 0x1
	.uleb128 0x13
	.byte	0
	.byte	0
	.uleb128 0xa9
	.uleb128 0x39
	.byte	0x1
	.uleb128 0x3
	.uleb128 0xe
	.uleb128 0x3a
	.uleb128 0xb
	.uleb128 0x3b
	.uleb128 0xb
	.uleb128 0x39
	.uleb128 0xb
	.uleb128 0x89
	.uleb128 0x19
	.byte	0
	.byte	0
	.uleb128 0xaa
	.uleb128 0x2e
	.byte	0x1
	.uleb128 0x3
	.uleb128 0xe
	.uleb128 0x3a
	.uleb128 0xb
	.uleb128 0x3b
	.uleb128 0xb
	.uleb128 0x39
	.uleb128 0xb
	.uleb128 0x49
	.uleb128 0x13
	.uleb128 0x3c
	.uleb128 0x19
	.uleb128 0x64
	.uleb128 0x13
	.uleb128 0x1
	.uleb128 0x13
	.byte	0
	.byte	0
	.uleb128 0xab
	.uleb128 0x2e
	.byte	0x1
	.uleb128 0x3
	.uleb128 0xe
	.uleb128 0x3a
	.uleb128 0xb
	.uleb128 0x3b
	.uleb128 0xb
	.uleb128 0x39
	.uleb128 0xb
	.uleb128 0x32
	.uleb128 0xb
	.uleb128 0x3c
	.uleb128 0x19
	.uleb128 0x64
	.uleb128 0x13
	.byte	0
	.byte	0
	.uleb128 0xac
	.uleb128 0x2e
	.byte	0x1
	.uleb128 0x3
	.uleb128 0xe
	.uleb128 0x3a
	.uleb128 0xb
	.uleb128 0x3b
	.uleb128 0x5
	.uleb128 0x39
	.uleb128 0xb
	.uleb128 0x3c
	.uleb128 0x19
	.byte	0
	.byte	0
	.uleb128 0xad
	.uleb128 0x2e
	.byte	0x1
	.uleb128 0x3
	.uleb128 0xe
	.uleb128 0x3a
	.uleb128 0xb
	.uleb128 0x3b
	.uleb128 0xb
	.uleb128 0x39
	.uleb128 0xb
	.uleb128 0x3c
	.uleb128 0x19
	.uleb128 0x64
	.uleb128 0x13
	.byte	0
	.byte	0
	.uleb128 0xae
	.uleb128 0x2e
	.byte	0x1
	.uleb128 0x3
	.uleb128 0xe
	.uleb128 0x34
	.uleb128 0x19
	.uleb128 0x3c
	.uleb128 0x19
	.uleb128 0x64
	.uleb128 0x13
	.byte	0
	.byte	0
	.uleb128 0xaf
	.uleb128 0x2e
	.byte	0
	.uleb128 0x3
	.uleb128 0xe
	.uleb128 0x3a
	.uleb128 0xb
	.uleb128 0x3b
	.uleb128 0x5
	.uleb128 0x39
	.uleb128 0xb
	.uleb128 0x49
	.uleb128 0x13
	.uleb128 0x3c
	.uleb128 0x19
	.byte	0
	.byte	0
	.uleb128 0xb0
	.uleb128 0x2e
	.byte	0x1
	.uleb128 0x3
	.uleb128 0xe
	.uleb128 0x3a
	.uleb128 0xb
	.uleb128 0x3b
	.uleb128 0x5
	.uleb128 0x39
	.uleb128 0xb
	.uleb128 0x32
	.uleb128 0xb
	.uleb128 0x3c
	.uleb128 0x19
	.uleb128 0x64
	.uleb128 0x13
	.byte	0
	.byte	0
	.uleb128 0xb1
	.uleb128 0x2e
	.byte	0x1
	.uleb128 0x3f
	.uleb128 0x19
	.uleb128 0x3
	.uleb128 0xe
	.uleb128 0x3a
	.uleb128 0xb
	.uleb128 0x3b
	.uleb128 0xb
	.uleb128 0x39
	.uleb128 0xb
	.uleb128 0x6e
	.uleb128 0xe
	.uleb128 0x32
	.uleb128 0xb
	.uleb128 0x3c
	.uleb128 0x19
	.uleb128 0x1
	.uleb128 0x13
	.byte	0
	.byte	0
	.uleb128 0xb2
	.uleb128 0x2f
	.byte	0
	.uleb128 0x3
	.uleb128 0xe
	.byte	0
	.byte	0
	.uleb128 0xb3
	.uleb128 0x34
	.byte	0
	.uleb128 0x3
	.uleb128 0xe
	.uleb128 0x3a
	.uleb128 0xb
	.uleb128 0x3b
	.uleb128 0x5
	.uleb128 0x39
	.uleb128 0xb
	.uleb128 0x49
	.uleb128 0x13
	.uleb128 0x3c
	.uleb128 0x19
	.uleb128 0x1c
	.uleb128 0xb
	.uleb128 0x6c
	.uleb128 0x19
	.uleb128 0x20
	.uleb128 0xb
	.byte	0
	.byte	0
	.uleb128 0xb4
	.uleb128 0x13
	.byte	0x1
	.uleb128 0x3
	.uleb128 0xe
	.uleb128 0xb
	.uleb128 0xb
	.uleb128 0x3a
	.uleb128 0xb
	.uleb128 0x3b
	.uleb128 0xb
	.uleb128 0x1
	.uleb128 0x13
	.byte	0
	.byte	0
	.uleb128 0xb5
	.uleb128 0xf
	.byte	0
	.uleb128 0xb
	.uleb128 0xb
	.byte	0
	.byte	0
	.uleb128 0xb6
	.uleb128 0x17
	.byte	0x1
	.uleb128 0xb
	.uleb128 0xb
	.uleb128 0x3a
	.uleb128 0xb
	.uleb128 0x3b
	.uleb128 0xb
	.uleb128 0x39
	.uleb128 0xb
	.uleb128 0x1
	.uleb128 0x13
	.byte	0
	.byte	0
	.uleb128 0xb7
	.uleb128 0xd
	.byte	0
	.uleb128 0x3
	.uleb128 0xe
	.uleb128 0x3a
	.uleb128 0xb
	.uleb128 0x3b
	.uleb128 0xb
	.uleb128 0x39
	.uleb128 0xb
	.uleb128 0x49
	.uleb128 0x13
	.uleb128 0xd
	.uleb128 0xb
	.uleb128 0x6b
	.uleb128 0x5
	.byte	0
	.byte	0
	.uleb128 0xb8
	.uleb128 0x13
	.byte	0x1
	.uleb128 0x3
	.uleb128 0x8
	.uleb128 0xb
	.uleb128 0xb
	.uleb128 0x3a
	.uleb128 0xb
	.uleb128 0x3b
	.uleb128 0xb
	.uleb128 0x39
	.uleb128 0xb
	.uleb128 0x1
	.uleb128 0x13
	.byte	0
	.byte	0
	.uleb128 0xb9
	.uleb128 0x4
	.byte	0x1
	.uleb128 0x3
	.uleb128 0xe
	.uleb128 0x3e
	.uleb128 0xb
	.uleb128 0xb
	.uleb128 0xb
	.uleb128 0x49
	.uleb128 0x13
	.uleb128 0x3a
	.uleb128 0xb
	.uleb128 0x3b
	.uleb128 0xb
	.uleb128 0x39
	.uleb128 0xb
	.uleb128 0x1
	.uleb128 0x13
	.byte	0
	.byte	0
	.uleb128 0xba
	.uleb128 0x34
	.byte	0
	.uleb128 0x3
	.uleb128 0xe
	.uleb128 0x3a
	.uleb128 0xb
	.uleb128 0x3b
	.uleb128 0xb
	.uleb128 0x39
	.uleb128 0xb
	.uleb128 0x6e
	.uleb128 0xe
	.uleb128 0x49
	.uleb128 0x13
	.uleb128 0x3f
	.uleb128 0x19
	.uleb128 0x3c
	.uleb128 0x19
	.uleb128 0x1c
	.uleb128 0xb
	.uleb128 0x20
	.uleb128 0xb
	.byte	0
	.byte	0
	.uleb128 0xbb
	.uleb128 0x13
	.byte	0x1
	.uleb128 0xb
	.uleb128 0xb
	.uleb128 0x88
	.uleb128 0xb
	.uleb128 0x3a
	.uleb128 0xb
	.uleb128 0x3b
	.uleb128 0x5
	.uleb128 0x39
	.uleb128 0xb
	.uleb128 0x6e
	.uleb128 0xe
	.uleb128 0x1
	.uleb128 0x13
	.byte	0
	.byte	0
	.uleb128 0xbc
	.uleb128 0x16
	.byte	0
	.uleb128 0x3
	.uleb128 0xe
	.uleb128 0x3a
	.uleb128 0xb
	.uleb128 0x3b
	.uleb128 0x5
	.uleb128 0x39
	.uleb128 0xb
	.uleb128 0x49
	.uleb128 0x13
	.uleb128 0x88
	.uleb128 0xb
	.byte	0
	.byte	0
	.uleb128 0xbd
	.uleb128 0x3b
	.byte	0
	.uleb128 0x3
	.uleb128 0xe
	.byte	0
	.byte	0
	.uleb128 0xbe
	.uleb128 0x26
	.byte	0
	.byte	0
	.byte	0
	.uleb128 0xbf
	.uleb128 0x3a
	.byte	0
	.uleb128 0x3a
	.uleb128 0xb
	.uleb128 0x3b
	.uleb128 0xb
	.uleb128 0x39
	.uleb128 0xb
	.uleb128 0x18
	.uleb128 0x13
	.byte	0
	.byte	0
	.uleb128 0xc0
	.uleb128 0x15
	.byte	0x1
	.uleb128 0x49
	.uleb128 0x13
	.uleb128 0x1
	.uleb128 0x13
	.byte	0
	.byte	0
	.uleb128 0xc1
	.uleb128 0x15
	.byte	0
	.byte	0
	.byte	0
	.uleb128 0xc2
	.uleb128 0x2e
	.byte	0x1
	.uleb128 0x3f
	.uleb128 0x19
	.uleb128 0x3
	.uleb128 0x8
	.uleb128 0x3a
	.uleb128 0xb
	.uleb128 0x3b
	.uleb128 0x5
	.uleb128 0x39
	.uleb128 0xb
	.uleb128 0x49
	.uleb128 0x13
	.uleb128 0x3c
	.uleb128 0x19
	.uleb128 0x1
	.uleb128 0x13
	.byte	0
	.byte	0
	.uleb128 0xc3
	.uleb128 0x2e
	.byte	0x1
	.uleb128 0x3f
	.uleb128 0x19
	.uleb128 0x3
	.uleb128 0xe
	.uleb128 0x3a
	.uleb128 0xb
	.uleb128 0x3b
	.uleb128 0x5
	.uleb128 0x39
	.uleb128 0xb
	.uleb128 0x87
	.uleb128 0x19
	.uleb128 0x3c
	.uleb128 0x19
	.uleb128 0x1
	.uleb128 0x13
	.byte	0
	.byte	0
	.uleb128 0xc4
	.uleb128 0x16
	.byte	0
	.uleb128 0x3
	.uleb128 0xe
	.uleb128 0x3a
	.uleb128 0xb
	.uleb128 0x3b
	.uleb128 0xb
	.uleb128 0x39
	.uleb128 0xb
	.byte	0
	.byte	0
	.uleb128 0xc5
	.uleb128 0x8
	.byte	0
	.uleb128 0x3
	.uleb128 0x8
	.uleb128 0x3a
	.uleb128 0xb
	.uleb128 0x3b
	.uleb128 0xb
	.uleb128 0x39
	.uleb128 0xb
	.uleb128 0x18
	.uleb128 0x13
	.byte	0
	.byte	0
	.uleb128 0xc6
	.uleb128 0x2e
	.byte	0x1
	.uleb128 0x3f
	.uleb128 0x19
	.uleb128 0x3
	.uleb128 0xe
	.uleb128 0x6e
	.uleb128 0xe
	.uleb128 0x34
	.uleb128 0x19
	.uleb128 0x3c
	.uleb128 0x19
	.uleb128 0x64
	.uleb128 0x13
	.uleb128 0x1
	.uleb128 0x13
	.byte	0
	.byte	0
	.uleb128 0xc7
	.uleb128 0x39
	.byte	0x1
	.uleb128 0x3
	.uleb128 0xe
	.uleb128 0x3a
	.uleb128 0xb
	.uleb128 0x3b
	.uleb128 0xb
	.uleb128 0x39
	.uleb128 0xb
	.byte	0
	.byte	0
	.uleb128 0xc8
	.uleb128 0x39
	.byte	0x1
	.uleb128 0x89
	.uleb128 0x19
	.uleb128 0x1
	.uleb128 0x13
	.byte	0
	.byte	0
	.uleb128 0xc9
	.uleb128 0x4108
	.byte	0
	.uleb128 0x3
	.uleb128 0xe
	.uleb128 0x3a
	.uleb128 0xb
	.uleb128 0x3b
	.uleb128 0xb
	.uleb128 0x39
	.uleb128 0xb
	.byte	0
	.byte	0
	.uleb128 0xca
	.uleb128 0x16
	.byte	0
	.uleb128 0x3
	.uleb128 0x8
	.uleb128 0x3a
	.uleb128 0xb
	.uleb128 0x3b
	.uleb128 0x5
	.uleb128 0x39
	.uleb128 0xb
	.uleb128 0x49
	.uleb128 0x13
	.byte	0
	.byte	0
	.uleb128 0xcb
	.uleb128 0x34
	.byte	0
	.uleb128 0x3
	.uleb128 0xe
	.uleb128 0x3a
	.uleb128 0xb
	.uleb128 0x3b
	.uleb128 0x5
	.uleb128 0x39
	.uleb128 0xb
	.uleb128 0x49
	.uleb128 0x13
	.uleb128 0x6c
	.uleb128 0x19
	.byte	0
	.byte	0
	.uleb128 0xcc
	.uleb128 0x4108
	.byte	0x1
	.uleb128 0x3
	.uleb128 0xe
	.uleb128 0x3a
	.uleb128 0xb
	.uleb128 0x3b
	.uleb128 0x5
	.uleb128 0x39
	.uleb128 0xb
	.uleb128 0x1
	.uleb128 0x13
	.byte	0
	.byte	0
	.uleb128 0xcd
	.uleb128 0x4108
	.byte	0x1
	.uleb128 0x3
	.uleb128 0xe
	.uleb128 0x3a
	.uleb128 0xb
	.uleb128 0x3b
	.uleb128 0x5
	.uleb128 0x39
	.uleb128 0xb
	.byte	0
	.byte	0
	.uleb128 0xce
	.uleb128 0xb
	.byte	0x1
	.uleb128 0x1
	.uleb128 0x13
	.byte	0
	.byte	0
	.uleb128 0xcf
	.uleb128 0x2e
	.byte	0x1
	.uleb128 0x3f
	.uleb128 0x19
	.uleb128 0x3
	.uleb128 0xe
	.uleb128 0x3a
	.uleb128 0xb
	.uleb128 0x3b
	.uleb128 0xb
	.uleb128 0x39
	.uleb128 0xb
	.uleb128 0x6e
	.uleb128 0xe
	.uleb128 0x49
	.uleb128 0x13
	.uleb128 0x55
	.uleb128 0x17
	.uleb128 0x40
	.uleb128 0x18
	.uleb128 0x7a
	.uleb128 0x19
	.uleb128 0x1
	.uleb128 0x13
	.byte	0
	.byte	0
	.uleb128 0xd0
	.uleb128 0x34
	.byte	0
	.uleb128 0x31
	.uleb128 0x13
	.uleb128 0x1c
	.uleb128 0xb
	.byte	0
	.byte	0
	.uleb128 0xd1
	.uleb128 0xb
	.byte	0x1
	.uleb128 0x31
	.uleb128 0x13
	.uleb128 0x11
	.uleb128 0x1
	.uleb128 0x12
	.uleb128 0x7
	.byte	0
	.byte	0
	.uleb128 0xd2
	.uleb128 0x48
	.byte	0
	.uleb128 0x7d
	.uleb128 0x1
	.uleb128 0x7f
	.uleb128 0x13
	.byte	0
	.byte	0
	.uleb128 0xd3
	.uleb128 0x48
	.byte	0x1
	.uleb128 0x7d
	.uleb128 0x1
	.uleb128 0x7f
	.uleb128 0x13
	.uleb128 0x1
	.uleb128 0x13
	.byte	0
	.byte	0
	.uleb128 0xd4
	.uleb128 0x2e
	.byte	0x1
	.uleb128 0x3
	.uleb128 0xe
	.uleb128 0x3a
	.uleb128 0xb
	.uleb128 0x3b
	.uleb128 0xb
	.uleb128 0x39
	.uleb128 0xb
	.uleb128 0x49
	.uleb128 0x13
	.uleb128 0x20
	.uleb128 0xb
	.uleb128 0x1
	.uleb128 0x13
	.byte	0
	.byte	0
	.uleb128 0xd5
	.uleb128 0x2e
	.byte	0x1
	.uleb128 0x3f
	.uleb128 0x19
	.uleb128 0x3
	.uleb128 0xe
	.uleb128 0x3a
	.uleb128 0xb
	.uleb128 0x3b
	.uleb128 0xb
	.uleb128 0x39
	.uleb128 0xb
	.uleb128 0x6e
	.uleb128 0xe
	.uleb128 0x49
	.uleb128 0x13
	.uleb128 0x20
	.uleb128 0xb
	.uleb128 0x34
	.uleb128 0x19
	.uleb128 0x1
	.uleb128 0x13
	.byte	0
	.byte	0
	.uleb128 0xd6
	.uleb128 0x2e
	.byte	0x1
	.uleb128 0x3f
	.uleb128 0x19
	.uleb128 0x3
	.uleb128 0xe
	.uleb128 0x3a
	.uleb128 0xb
	.uleb128 0x3b
	.uleb128 0x5
	.uleb128 0x39
	.uleb128 0xb
	.uleb128 0x6e
	.uleb128 0xe
	.uleb128 0x20
	.uleb128 0xb
	.uleb128 0x34
	.uleb128 0x19
	.uleb128 0x1
	.uleb128 0x13
	.byte	0
	.byte	0
	.uleb128 0xd7
	.uleb128 0x2e
	.byte	0x1
	.uleb128 0x3f
	.uleb128 0x19
	.uleb128 0x3
	.uleb128 0xe
	.uleb128 0x3a
	.uleb128 0xb
	.uleb128 0x3b
	.uleb128 0xb
	.uleb128 0x39
	.uleb128 0xb
	.uleb128 0x6e
	.uleb128 0xe
	.uleb128 0x20
	.uleb128 0xb
	.uleb128 0x1
	.uleb128 0x13
	.byte	0
	.byte	0
	.uleb128 0xd8
	.uleb128 0x2e
	.byte	0x1
	.uleb128 0x3f
	.uleb128 0x19
	.uleb128 0x3
	.uleb128 0xe
	.uleb128 0x3a
	.uleb128 0xb
	.uleb128 0x3b
	.uleb128 0xb
	.uleb128 0x39
	.uleb128 0xb
	.uleb128 0x6e
	.uleb128 0xe
	.uleb128 0x49
	.uleb128 0x13
	.uleb128 0x20
	.uleb128 0xb
	.uleb128 0x1
	.uleb128 0x13
	.byte	0
	.byte	0
	.byte	0
	.section	.debug_loclists,"",@progbits
	.long	.Ldebug_loc3-.Ldebug_loc2
.Ldebug_loc2:
	.value	0x5
	.byte	0x8
	.byte	0
	.long	0
.Ldebug_loc0:
.LVUS1:
	.uleb128 0
	.uleb128 .LVU62
	.uleb128 .LVU62
	.uleb128 .LVU68
	.uleb128 .LVU68
	.uleb128 .LVU1337
	.uleb128 .LVU1337
	.uleb128 .LVU1352
	.uleb128 .LVU1352
	.uleb128 .LVU1408
	.uleb128 .LVU1408
	.uleb128 .LVU1432
	.uleb128 .LVU1432
	.uleb128 .LVU1483
	.uleb128 .LVU1483
	.uleb128 .LVU1488
	.uleb128 .LVU1488
	.uleb128 .LVU1489
	.uleb128 .LVU1489
	.uleb128 0
	.uleb128 0
	.uleb128 .LVU1514
	.uleb128 .LVU1514
	.uleb128 .LVU1516
	.uleb128 .LVU1516
	.uleb128 .LVU1536
	.uleb128 .LVU1536
	.uleb128 .LVU1539
	.uleb128 .LVU1539
	.uleb128 .LVU1539
	.uleb128 .LVU1539
	.uleb128 0
.LLST1:
	.byte	0x6
	.quad	.LVL0
	.byte	0x4
	.uleb128 .LVL0-.LVL0
	.uleb128 .LVL9-.LVL0
	.uleb128 0x1
	.byte	0x54
	.byte	0x4
	.uleb128 .LVL9-.LVL0
	.uleb128 .LVL12-.LVL0
	.uleb128 0x1
	.byte	0x5d
	.byte	0x4
	.uleb128 .LVL12-.LVL0
	.uleb128 .LVL222-.LVL0
	.uleb128 0x4
	.byte	0xa3
	.uleb128 0x1
	.byte	0x54
	.byte	0x9f
	.byte	0x4
	.uleb128 .LVL222-.LVL0
	.uleb128 .LVL224-.LVL0
	.uleb128 0x1
	.byte	0x54
	.byte	0x4
	.uleb128 .LVL224-.LVL0
	.uleb128 .LVL240-.LVL0
	.uleb128 0x4
	.byte	0xa3
	.uleb128 0x1
	.byte	0x54
	.byte	0x9f
	.byte	0x4
	.uleb128 .LVL240-.LVL0
	.uleb128 .LVL244-1-.LVL0
	.uleb128 0x1
	.byte	0x54
	.byte	0x4
	.uleb128 .LVL244-1-.LVL0
	.uleb128 .LVL252-.LVL0
	.uleb128 0x1
	.byte	0x5d
	.byte	0x4
	.uleb128 .LVL252-.LVL0
	.uleb128 .LVL255-.LVL0
	.uleb128 0x4
	.byte	0xa3
	.uleb128 0x1
	.byte	0x54
	.byte	0x9f
	.byte	0x4
	.uleb128 .LVL255-.LVL0
	.uleb128 .LVL256-.LVL0
	.uleb128 0x1
	.byte	0x5d
	.byte	0x4
	.uleb128 .LVL256-.LVL0
	.uleb128 .LHOTE8-.LVL0
	.uleb128 0x4
	.byte	0xa3
	.uleb128 0x1
	.byte	0x54
	.byte	0x9f
	.byte	0x6
	.quad	.LFSB11708
	.byte	0x4
	.uleb128 .LFSB11708-.LFSB11708
	.uleb128 .LVL265-.LFSB11708
	.uleb128 0x4
	.byte	0xa3
	.uleb128 0x1
	.byte	0x54
	.byte	0x9f
	.byte	0x4
	.uleb128 .LVL265-.LFSB11708
	.uleb128 .LVL266-.LFSB11708
	.uleb128 0x1
	.byte	0x5d
	.byte	0x4
	.uleb128 .LVL266-.LFSB11708
	.uleb128 .LVL270-.LFSB11708
	.uleb128 0x4
	.byte	0xa3
	.uleb128 0x1
	.byte	0x54
	.byte	0x9f
	.byte	0x4
	.uleb128 .LVL270-.LFSB11708
	.uleb128 .LVL272-1-.LFSB11708
	.uleb128 0x1
	.byte	0x54
	.byte	0x4
	.uleb128 .LVL272-1-.LFSB11708
	.uleb128 .LVL272-.LFSB11708
	.uleb128 0x1
	.byte	0x5d
	.byte	0x4
	.uleb128 .LVL272-.LFSB11708
	.uleb128 .LFE11708-.LFSB11708
	.uleb128 0x4
	.byte	0xa3
	.uleb128 0x1
	.byte	0x54
	.byte	0x9f
	.byte	0
.LVUS2:
	.uleb128 0
	.uleb128 .LVU13
	.uleb128 .LVU13
	.uleb128 .LVU415
	.uleb128 .LVU415
	.uleb128 .LVU1318
	.uleb128 .LVU1318
	.uleb128 0
	.uleb128 0
	.uleb128 0
.LLST2:
	.byte	0x6
	.quad	.LVL0
	.byte	0x4
	.uleb128 .LVL0-.LVL0
	.uleb128 .LVL2-.LVL0
	.uleb128 0x1
	.byte	0x61
	.byte	0x4
	.uleb128 .LVL2-.LVL0
	.uleb128 .LVL79-.LVL0
	.uleb128 0x3
	.byte	0x77
	.sleb128 224
	.byte	0x4
	.uleb128 .LVL79-.LVL0
	.uleb128 .LVL220-.LVL0
	.uleb128 0x6
	.byte	0xa3
	.uleb128 0x3
	.byte	0xa5
	.uleb128 0x11
	.uleb128 0x30
	.byte	0x9f
	.byte	0x4
	.uleb128 .LVL220-.LVL0
	.uleb128 .LHOTE8-.LVL0
	.uleb128 0x3
	.byte	0x77
	.sleb128 224
	.byte	0x8
	.quad	.LFSB11708
	.uleb128 .LCOLDE8-.LFSB11708
	.uleb128 0x3
	.byte	0x77
	.sleb128 224
	.byte	0
.LVUS3:
	.uleb128 0
	.uleb128 .LVU58
	.uleb128 .LVU58
	.uleb128 .LVU1291
	.uleb128 .LVU1291
	.uleb128 .LVU1293
	.uleb128 .LVU1293
	.uleb128 .LVU1294
	.uleb128 .LVU1294
	.uleb128 .LVU1408
	.uleb128 .LVU1408
	.uleb128 .LVU1431
	.uleb128 .LVU1431
	.uleb128 0
	.uleb128 0
	.uleb128 .LVU1536
	.uleb128 .LVU1536
	.uleb128 .LVU1538
	.uleb128 .LVU1538
	.uleb128 0
.LLST3:
	.byte	0x6
	.quad	.LVL0
	.byte	0x4
	.uleb128 .LVL0-.LVL0
	.uleb128 .LVL7-.LVL0
	.uleb128 0x2
	.byte	0x75
	.sleb128 0
	.byte	0x4
	.uleb128 .LVL7-.LVL0
	.uleb128 .LVL210-.LVL0
	.uleb128 0x4
	.byte	0x77
	.sleb128 64
	.byte	0x6
	.byte	0x4
	.uleb128 .LVL210-.LVL0
	.uleb128 .LVL212-.LVL0
	.uleb128 0x9
	.byte	0x76
	.sleb128 -40
	.byte	0x9
	.byte	0xe0
	.byte	0x1a
	.byte	0x8
	.byte	0xe0
	.byte	0x1c
	.byte	0x6
	.byte	0x4
	.uleb128 .LVL212-.LVL0
	.uleb128 .LVL213-.LVL0
	.uleb128 0x9
	.byte	0x77
	.sleb128 -48
	.byte	0x9
	.byte	0xe0
	.byte	0x1a
	.byte	0x8
	.byte	0xe0
	.byte	0x1c
	.byte	0x6
	.byte	0x4
	.uleb128 .LVL213-.LVL0
	.uleb128 .LVL240-.LVL0
	.uleb128 0x4
	.byte	0x77
	.sleb128 64
	.byte	0x6
	.byte	0x4
	.uleb128 .LVL240-.LVL0
	.uleb128 .LVL243-.LVL0
	.uleb128 0x2
	.byte	0x75
	.sleb128 0
	.byte	0x4
	.uleb128 .LVL243-.LVL0
	.uleb128 .LHOTE8-.LVL0
	.uleb128 0x4
	.byte	0x77
	.sleb128 64
	.byte	0x6
	.byte	0x6
	.quad	.LFSB11708
	.byte	0x4
	.uleb128 .LFSB11708-.LFSB11708
	.uleb128 .LVL270-.LFSB11708
	.uleb128 0x4
	.byte	0x77
	.sleb128 64
	.byte	0x6
	.byte	0x4
	.uleb128 .LVL270-.LFSB11708
	.uleb128 .LVL271-.LFSB11708
	.uleb128 0x2
	.byte	0x75
	.sleb128 0
	.byte	0x4
	.uleb128 .LVL271-.LFSB11708
	.uleb128 .LFE11708-.LFSB11708
	.uleb128 0x4
	.byte	0x77
	.sleb128 64
	.byte	0x6
	.byte	0
.LVUS4:
	.uleb128 .LVU51
	.uleb128 .LVU66
	.uleb128 .LVU66
	.uleb128 .LVU68
	.uleb128 .LVU83
	.uleb128 .LVU165
	.uleb128 .LVU165
	.uleb128 .LVU178
	.uleb128 .LVU1337
	.uleb128 .LVU1352
	.uleb128 .LVU1354
	.uleb128 .LVU1391
	.uleb128 .LVU1391
	.uleb128 .LVU1393
	.uleb128 .LVU1393
	.uleb128 .LVU1404
	.uleb128 .LVU1404
	.uleb128 .LVU1404
	.uleb128 .LVU1404
	.uleb128 .LVU1407
	.uleb128 .LVU1407
	.uleb128 .LVU1408
	.uleb128 .LVU1471
	.uleb128 .LVU1484
	.uleb128 .LVU1491
	.uleb128 .LVU1492
	.uleb128 .LVU1492
	.uleb128 0
	.uleb128 0
	.uleb128 .LVU1495
	.uleb128 .LVU1558
	.uleb128 .LVU1560
	.uleb128 .LVU1562
	.uleb128 .LVU1564
	.uleb128 .LVU1564
	.uleb128 0
.LLST4:
	.byte	0x6
	.quad	.LVL5
	.byte	0x4
	.uleb128 .LVL5-.LVL5
	.uleb128 .LVL11-.LVL5
	.uleb128 0xc
	.byte	0x30
	.byte	0x9f
	.byte	0x93
	.uleb128 0x8
	.byte	0x30
	.byte	0x9f
	.byte	0x93
	.uleb128 0x8
	.byte	0x30
	.byte	0x9f
	.byte	0x93
	.uleb128 0x8
	.byte	0x4
	.uleb128 .LVL11-.LVL5
	.uleb128 .LVL12-.LVL5
	.uleb128 0xa
	.byte	0x50
	.byte	0x93
	.uleb128 0x8
	.byte	0x50
	.byte	0x93
	.uleb128 0x8
	.byte	0x30
	.byte	0x9f
	.byte	0x93
	.uleb128 0x8
	.byte	0x4
	.uleb128 .LVL15-.LVL5
	.uleb128 .LVL38-.LVL5
	.uleb128 0x5
	.byte	0x5f
	.byte	0x93
	.uleb128 0x8
	.byte	0x93
	.uleb128 0x10
	.byte	0x4
	.uleb128 .LVL38-.LVL5
	.uleb128 .LVL39-.LVL5
	.uleb128 0x9
	.byte	0x93
	.uleb128 0x8
	.byte	0x77
	.sleb128 152
	.byte	0x93
	.uleb128 0x8
	.byte	0x93
	.uleb128 0x8
	.byte	0x4
	.uleb128 .LVL222-.LVL5
	.uleb128 .LVL224-.LVL5
	.uleb128 0xc
	.byte	0x30
	.byte	0x9f
	.byte	0x93
	.uleb128 0x8
	.byte	0x30
	.byte	0x9f
	.byte	0x93
	.uleb128 0x8
	.byte	0x30
	.byte	0x9f
	.byte	0x93
	.uleb128 0x8
	.byte	0x4
	.uleb128 .LVL225-.LVL5
	.uleb128 .LVL233-.LVL5
	.uleb128 0x5
	.byte	0x5f
	.byte	0x93
	.uleb128 0x8
	.byte	0x93
	.uleb128 0x10
	.byte	0x4
	.uleb128 .LVL233-.LVL5
	.uleb128 .LVL234-.LVL5
	.uleb128 0x13
	.byte	0x5f
	.byte	0x93
	.uleb128 0x8
	.byte	0x77
	.sleb128 248
	.byte	0x6
	.byte	0x77
	.sleb128 272
	.byte	0x6
	.byte	0x22
	.byte	0x23
	.uleb128 0x30
	.byte	0x9f
	.byte	0x93
	.uleb128 0x8
	.byte	0x93
	.uleb128 0x8
	.byte	0x4
	.uleb128 .LVL234-.LVL5
	.uleb128 .LVL237-1-.LVL5
	.uleb128 0x8
	.byte	0x5f
	.byte	0x93
	.uleb128 0x8
	.byte	0x50
	.byte	0x93
	.uleb128 0x8
	.byte	0x93
	.uleb128 0x8
	.byte	0x4
	.uleb128 .LVL237-1-.LVL5
	.uleb128 .LVL237-.LVL5
	.uleb128 0xa
	.byte	0x5f
	.byte	0x93
	.uleb128 0x8
	.byte	0x77
	.sleb128 112
	.byte	0x93
	.uleb128 0x8
	.byte	0x93
	.uleb128 0x8
	.byte	0x4
	.uleb128 .LVL237-.LVL5
	.uleb128 .LVL239-.LVL5
	.uleb128 0x16
	.byte	0x77
	.sleb128 248
	.byte	0x93
	.uleb128 0x8
	.byte	0x77
	.sleb128 112
	.byte	0x93
	.uleb128 0x8
	.byte	0x77
	.sleb128 248
	.byte	0x6
	.byte	0x77
	.sleb128 232
	.byte	0x6
	.byte	0x22
	.byte	0x9f
	.byte	0x93
	.uleb128 0x8
	.byte	0x4
	.uleb128 .LVL239-.LVL5
	.uleb128 .LVL240-.LVL5
	.uleb128 0xd
	.byte	0x77
	.sleb128 248
	.byte	0x93
	.uleb128 0x8
	.byte	0x77
	.sleb128 112
	.byte	0x93
	.uleb128 0x8
	.byte	0x5d
	.byte	0x93
	.uleb128 0x8
	.byte	0x4
	.uleb128 .LVL249-.LVL5
	.uleb128 .LVL253-.LVL5
	.uleb128 0xc
	.byte	0x30
	.byte	0x9f
	.byte	0x93
	.uleb128 0x8
	.byte	0x30
	.byte	0x9f
	.byte	0x93
	.uleb128 0x8
	.byte	0x30
	.byte	0x9f
	.byte	0x93
	.uleb128 0x8
	.byte	0x4
	.uleb128 .LVL259-.LVL5
	.uleb128 .LVL260-.LVL5
	.uleb128 0x5
	.byte	0x5f
	.byte	0x93
	.uleb128 0x8
	.byte	0x93
	.uleb128 0x10
	.byte	0x4
	.uleb128 .LVL260-.LVL5
	.uleb128 .LHOTE8-.LVL5
	.uleb128 0x9
	.byte	0x93
	.uleb128 0x8
	.byte	0x77
	.sleb128 152
	.byte	0x93
	.uleb128 0x8
	.byte	0x93
	.uleb128 0x8
	.byte	0x6
	.quad	.LFSB11708
	.byte	0x4
	.uleb128 .LFSB11708-.LFSB11708
	.uleb128 .LVL262-.LFSB11708
	.uleb128 0x9
	.byte	0x93
	.uleb128 0x8
	.byte	0x77
	.sleb128 152
	.byte	0x93
	.uleb128 0x8
	.byte	0x93
	.uleb128 0x8
	.byte	0x4
	.uleb128 .LVL279-.LFSB11708
	.uleb128 .LVL280-.LFSB11708
	.uleb128 0x5
	.byte	0x5f
	.byte	0x93
	.uleb128 0x8
	.byte	0x93
	.uleb128 0x10
	.byte	0x4
	.uleb128 .LVL281-.LFSB11708
	.uleb128 .LVL282-.LFSB11708
	.uleb128 0x5
	.byte	0x5f
	.byte	0x93
	.uleb128 0x8
	.byte	0x93
	.uleb128 0x10
	.byte	0x4
	.uleb128 .LVL282-.LFSB11708
	.uleb128 .LFE11708-.LFSB11708
	.uleb128 0xa
	.byte	0x5f
	.byte	0x93
	.uleb128 0x8
	.byte	0x77
	.sleb128 112
	.byte	0x93
	.uleb128 0x8
	.byte	0x93
	.uleb128 0x8
	.byte	0
.LVUS5:
	.uleb128 .LVU362
	.uleb128 .LVU1318
.LLST5:
	.byte	0x8
	.quad	.LVL75
	.uleb128 .LVL220-.LVL75
	.uleb128 0x2
	.byte	0x38
	.byte	0x9f
	.byte	0
.LVUS6:
	.uleb128 .LVU363
	.uleb128 .LVU1318
.LLST6:
	.byte	0x8
	.quad	.LVL75
	.uleb128 .LVL220-.LVL75
	.uleb128 0x4
	.byte	0xa
	.value	0x7f0
	.byte	0x9f
	.byte	0
.LVUS113:
	.uleb128 .LVU83
	.uleb128 .LVU160
	.uleb128 .LVU160
	.uleb128 .LVU165
	.uleb128 .LVU1354
	.uleb128 .LVU1408
	.uleb128 .LVU1491
	.uleb128 .LVU1492
	.uleb128 .LVU1558
	.uleb128 .LVU1560
	.uleb128 .LVU1562
	.uleb128 .LVU1564
.LLST113:
	.byte	0x6
	.quad	.LVL15
	.byte	0x4
	.uleb128 .LVL15-.LVL15
	.uleb128 .LVL37-.LVL15
	.uleb128 0x1
	.byte	0x53
	.byte	0x4
	.uleb128 .LVL37-.LVL15
	.uleb128 .LVL38-.LVL15
	.uleb128 0x3
	.byte	0x73
	.sleb128 -48
	.byte	0x9f
	.byte	0x4
	.uleb128 .LVL225-.LVL15
	.uleb128 .LVL240-.LVL15
	.uleb128 0x1
	.byte	0x53
	.byte	0x4
	.uleb128 .LVL259-.LVL15
	.uleb128 .LVL260-.LVL15
	.uleb128 0x1
	.byte	0x53
	.byte	0x6
	.quad	.LVL279
	.byte	0x4
	.uleb128 .LVL279-.LVL279
	.uleb128 .LVL280-.LVL279
	.uleb128 0x1
	.byte	0x53
	.byte	0x4
	.uleb128 .LVL281-.LVL279
	.uleb128 .LVL282-.LVL279
	.uleb128 0x1
	.byte	0x53
	.byte	0
.LVUS114:
	.uleb128 .LVU72
	.uleb128 .LVU1337
	.uleb128 .LVU1341
	.uleb128 .LVU1352
	.uleb128 .LVU1352
	.uleb128 .LVU1408
	.uleb128 .LVU1484
	.uleb128 .LVU1488
	.uleb128 .LVU1489
	.uleb128 0
	.uleb128 0
	.uleb128 .LVU1514
	.uleb128 .LVU1539
	.uleb128 0
.LLST114:
	.byte	0x6
	.quad	.LVL13
	.byte	0x4
	.uleb128 .LVL13-.LVL13
	.uleb128 .LVL222-.LVL13
	.uleb128 0x4
	.byte	0xa3
	.uleb128 0x1
	.byte	0x54
	.byte	0x9f
	.byte	0x4
	.uleb128 .LVL223-.LVL13
	.uleb128 .LVL224-.LVL13
	.uleb128 0x1
	.byte	0x54
	.byte	0x4
	.uleb128 .LVL224-.LVL13
	.uleb128 .LVL240-.LVL13
	.uleb128 0x4
	.byte	0xa3
	.uleb128 0x1
	.byte	0x54
	.byte	0x9f
	.byte	0x4
	.uleb128 .LVL253-.LVL13
	.uleb128 .LVL255-.LVL13
	.uleb128 0x4
	.byte	0xa3
	.uleb128 0x1
	.byte	0x54
	.byte	0x9f
	.byte	0x4
	.uleb128 .LVL256-.LVL13
	.uleb128 .LHOTE8-.LVL13
	.uleb128 0x4
	.byte	0xa3
	.uleb128 0x1
	.byte	0x54
	.byte	0x9f
	.byte	0x6
	.quad	.LFSB11708
	.byte	0x4
	.uleb128 .LFSB11708-.LFSB11708
	.uleb128 .LVL265-.LFSB11708
	.uleb128 0x4
	.byte	0xa3
	.uleb128 0x1
	.byte	0x54
	.byte	0x9f
	.byte	0x4
	.uleb128 .LVL272-.LFSB11708
	.uleb128 .LFE11708-.LFSB11708
	.uleb128 0x4
	.byte	0xa3
	.uleb128 0x1
	.byte	0x54
	.byte	0x9f
	.byte	0
.LVUS122:
	.uleb128 .LVU97
	.uleb128 .LVU103
	.uleb128 .LVU103
	.uleb128 .LVU106
	.uleb128 .LVU106
	.uleb128 .LVU107
	.uleb128 .LVU107
	.uleb128 .LVU108
	.uleb128 .LVU108
	.uleb128 .LVU109
	.uleb128 .LVU109
	.uleb128 .LVU112
	.uleb128 .LVU112
	.uleb128 .LVU117
	.uleb128 .LVU117
	.uleb128 .LVU134
	.uleb128 .LVU134
	.uleb128 .LVU135
	.uleb128 .LVU135
	.uleb128 .LVU138
	.uleb128 .LVU138
	.uleb128 .LVU139
	.uleb128 .LVU139
	.uleb128 .LVU141
	.uleb128 .LVU141
	.uleb128 .LVU142
	.uleb128 .LVU142
	.uleb128 .LVU143
	.uleb128 .LVU143
	.uleb128 .LVU146
	.uleb128 .LVU146
	.uleb128 .LVU156
	.uleb128 .LVU1354
	.uleb128 .LVU1373
	.uleb128 .LVU1373
	.uleb128 .LVU1408
	.uleb128 .LVU1491
	.uleb128 .LVU1492
	.uleb128 .LVU1558
	.uleb128 .LVU1560
.LLST122:
	.byte	0x6
	.quad	.LVL19
	.byte	0x4
	.uleb128 .LVL19-.LVL19
	.uleb128 .LVL21-.LVL19
	.uleb128 0x5
	.byte	0x5a
	.byte	0x93
	.uleb128 0x4
	.byte	0x93
	.uleb128 0x2c
	.byte	0x4
	.uleb128 .LVL21-.LVL19
	.uleb128 .LVL21-.LVL19
	.uleb128 0x8
	.byte	0x5a
	.byte	0x93
	.uleb128 0x4
	.byte	0x54
	.byte	0x93
	.uleb128 0x4
	.byte	0x93
	.uleb128 0x28
	.byte	0x4
	.uleb128 .LVL21-.LVL19
	.uleb128 .LVL21-.LVL19
	.uleb128 0x2a
	.byte	0x5a
	.byte	0x93
	.uleb128 0x4
	.byte	0x54
	.byte	0x93
	.uleb128 0x4
	.byte	0xa5
	.uleb128 0x11
	.uleb128 0x30
	.byte	0xa4
	.uleb128 0x30
	.byte	0x4
	.long	0x3f800000
	.byte	0x22
	.byte	0xa5
	.uleb128 0x15
	.uleb128 0x30
	.byte	0x1c
	.byte	0xa5
	.uleb128 0x12
	.uleb128 0x30
	.byte	0xa4
	.uleb128 0x30
	.byte	0x4
	.long	0x3f800000
	.byte	0x22
	.byte	0xa5
	.uleb128 0x13
	.uleb128 0x30
	.byte	0x1c
	.byte	0x1e
	.byte	0x9f
	.byte	0x93
	.uleb128 0x4
	.byte	0x93
	.uleb128 0x24
	.byte	0x4
	.uleb128 .LVL21-.LVL19
	.uleb128 .LVL21-.LVL19
	.uleb128 0x44
	.byte	0x5a
	.byte	0x93
	.uleb128 0x4
	.byte	0x54
	.byte	0x93
	.uleb128 0x4
	.byte	0xa5
	.uleb128 0x11
	.uleb128 0x30
	.byte	0xa4
	.uleb128 0x30
	.byte	0x4
	.long	0x3f800000
	.byte	0x22
	.byte	0xa5
	.uleb128 0x15
	.uleb128 0x30
	.byte	0x1c
	.byte	0xa5
	.uleb128 0x12
	.uleb128 0x30
	.byte	0xa4
	.uleb128 0x30
	.byte	0x4
	.long	0x3f800000
	.byte	0x22
	.byte	0xa5
	.uleb128 0x13
	.uleb128 0x30
	.byte	0x1c
	.byte	0x1e
	.byte	0x9f
	.byte	0x93
	.uleb128 0x4
	.byte	0xa5
	.uleb128 0x12
	.uleb128 0x30
	.byte	0xa4
	.uleb128 0x30
	.byte	0x4
	.long	0x3f800000
	.byte	0x22
	.byte	0xa5
	.uleb128 0x13
	.uleb128 0x30
	.byte	0x1c
	.byte	0xa5
	.uleb128 0x15
	.uleb128 0x30
	.byte	0xa5
	.uleb128 0x11
	.uleb128 0x30
	.byte	0x1c
	.byte	0x1e
	.byte	0x9f
	.byte	0x93
	.uleb128 0x4
	.byte	0x93
	.uleb128 0x20
	.byte	0x4
	.uleb128 .LVL21-.LVL19
	.uleb128 .LVL21-.LVL19
	.uleb128 0x5e
	.byte	0x5a
	.byte	0x93
	.uleb128 0x4
	.byte	0x54
	.byte	0x93
	.uleb128 0x4
	.byte	0xa5
	.uleb128 0x11
	.uleb128 0x30
	.byte	0xa4
	.uleb128 0x30
	.byte	0x4
	.long	0x3f800000
	.byte	0x22
	.byte	0xa5
	.uleb128 0x15
	.uleb128 0x30
	.byte	0x1c
	.byte	0xa5
	.uleb128 0x12
	.uleb128 0x30
	.byte	0xa4
	.uleb128 0x30
	.byte	0x4
	.long	0x3f800000
	.byte	0x22
	.byte	0xa5
	.uleb128 0x13
	.uleb128 0x30
	.byte	0x1c
	.byte	0x1e
	.byte	0x9f
	.byte	0x93
	.uleb128 0x4
	.byte	0xa5
	.uleb128 0x12
	.uleb128 0x30
	.byte	0xa4
	.uleb128 0x30
	.byte	0x4
	.long	0x3f800000
	.byte	0x22
	.byte	0xa5
	.uleb128 0x13
	.uleb128 0x30
	.byte	0x1c
	.byte	0xa5
	.uleb128 0x15
	.uleb128 0x30
	.byte	0xa5
	.uleb128 0x11
	.uleb128 0x30
	.byte	0x1c
	.byte	0x1e
	.byte	0x9f
	.byte	0x93
	.uleb128 0x4
	.byte	0xa5
	.uleb128 0x11
	.uleb128 0x30
	.byte	0xa4
	.uleb128 0x30
	.byte	0x4
	.long	0x3f800000
	.byte	0x22
	.byte	0xa5
	.uleb128 0x15
	.uleb128 0x30
	.byte	0x1c
	.byte	0xa5
	.uleb128 0x13
	.uleb128 0x30
	.byte	0xa5
	.uleb128 0x12
	.uleb128 0x30
	.byte	0x1c
	.byte	0x1e
	.byte	0x9f
	.byte	0x93
	.uleb128 0x4
	.byte	0x93
	.uleb128 0x1c
	.byte	0x4
	.uleb128 .LVL21-.LVL19
	.uleb128 .LVL22-.LVL19
	.uleb128 0x70
	.byte	0x5a
	.byte	0x93
	.uleb128 0x4
	.byte	0x54
	.byte	0x93
	.uleb128 0x4
	.byte	0xa5
	.uleb128 0x11
	.uleb128 0x30
	.byte	0xa4
	.uleb128 0x30
	.byte	0x4
	.long	0x3f800000
	.byte	0x22
	.byte	0xa5
	.uleb128 0x15
	.uleb128 0x30
	.byte	0x1c
	.byte	0xa5
	.uleb128 0x12
	.uleb128 0x30
	.byte	0xa4
	.uleb128 0x30
	.byte	0x4
	.long	0x3f800000
	.byte	0x22
	.byte	0xa5
	.uleb128 0x13
	.uleb128 0x30
	.byte	0x1c
	.byte	0x1e
	.byte	0x9f
	.byte	0x93
	.uleb128 0x4
	.byte	0xa5
	.uleb128 0x12
	.uleb128 0x30
	.byte	0xa4
	.uleb128 0x30
	.byte	0x4
	.long	0x3f800000
	.byte	0x22
	.byte	0xa5
	.uleb128 0x13
	.uleb128 0x30
	.byte	0x1c
	.byte	0xa5
	.uleb128 0x15
	.uleb128 0x30
	.byte	0xa5
	.uleb128 0x11
	.uleb128 0x30
	.byte	0x1c
	.byte	0x1e
	.byte	0x9f
	.byte	0x93
	.uleb128 0x4
	.byte	0xa5
	.uleb128 0x11
	.uleb128 0x30
	.byte	0xa4
	.uleb128 0x30
	.byte	0x4
	.long	0x3f800000
	.byte	0x22
	.byte	0xa5
	.uleb128 0x15
	.uleb128 0x30
	.byte	0x1c
	.byte	0xa5
	.uleb128 0x13
	.uleb128 0x30
	.byte	0xa5
	.uleb128 0x12
	.uleb128 0x30
	.byte	0x1c
	.byte	0x1e
	.byte	0x9f
	.byte	0x93
	.uleb128 0x4
	.byte	0xa5
	.uleb128 0x15
	.uleb128 0x30
	.byte	0xa5
	.uleb128 0x11
	.uleb128 0x30
	.byte	0x1c
	.byte	0xa5
	.uleb128 0x13
	.uleb128 0x30
	.byte	0xa5
	.uleb128 0x12
	.uleb128 0x30
	.byte	0x1c
	.byte	0x1e
	.byte	0x9f
	.byte	0x93
	.uleb128 0x4
	.byte	0x93
	.uleb128 0x18
	.byte	0x4
	.uleb128 .LVL22-.LVL19
	.uleb128 .LVL23-.LVL19
	.uleb128 0x73
	.byte	0x5a
	.byte	0x93
	.uleb128 0x4
	.byte	0x54
	.byte	0x93
	.uleb128 0x4
	.byte	0xa5
	.uleb128 0x11
	.uleb128 0x30
	.byte	0xa4
	.uleb128 0x30
	.byte	0x4
	.long	0x3f800000
	.byte	0x22
	.byte	0xa5
	.uleb128 0x15
	.uleb128 0x30
	.byte	0x1c
	.byte	0xa5
	.uleb128 0x12
	.uleb128 0x30
	.byte	0xa4
	.uleb128 0x30
	.byte	0x4
	.long	0x3f800000
	.byte	0x22
	.byte	0xa5
	.uleb128 0x13
	.uleb128 0x30
	.byte	0x1c
	.byte	0x1e
	.byte	0x9f
	.byte	0x93
	.uleb128 0x4
	.byte	0xa5
	.uleb128 0x12
	.uleb128 0x30
	.byte	0xa4
	.uleb128 0x30
	.byte	0x4
	.long	0x3f800000
	.byte	0x22
	.byte	0xa5
	.uleb128 0x13
	.uleb128 0x30
	.byte	0x1c
	.byte	0xa5
	.uleb128 0x15
	.uleb128 0x30
	.byte	0xa5
	.uleb128 0x11
	.uleb128 0x30
	.byte	0x1c
	.byte	0x1e
	.byte	0x9f
	.byte	0x93
	.uleb128 0x4
	.byte	0xa5
	.uleb128 0x11
	.uleb128 0x30
	.byte	0xa4
	.uleb128 0x30
	.byte	0x4
	.long	0x3f800000
	.byte	0x22
	.byte	0xa5
	.uleb128 0x15
	.uleb128 0x30
	.byte	0x1c
	.byte	0xa5
	.uleb128 0x13
	.uleb128 0x30
	.byte	0xa5
	.uleb128 0x12
	.uleb128 0x30
	.byte	0x1c
	.byte	0x1e
	.byte	0x9f
	.byte	0x93
	.uleb128 0x4
	.byte	0xa5
	.uleb128 0x15
	.uleb128 0x30
	.byte	0xa5
	.uleb128 0x11
	.uleb128 0x30
	.byte	0x1c
	.byte	0xa5
	.uleb128 0x13
	.uleb128 0x30
	.byte	0xa5
	.uleb128 0x12
	.uleb128 0x30
	.byte	0x1c
	.byte	0x1e
	.byte	0x9f
	.byte	0x93
	.uleb128 0x4
	.byte	0x58
	.byte	0x93
	.uleb128 0x4
	.byte	0x93
	.uleb128 0x14
	.byte	0x4
	.uleb128 .LVL23-.LVL19
	.uleb128 .LVL26-.LVL19
	.uleb128 0x76
	.byte	0x5a
	.byte	0x93
	.uleb128 0x4
	.byte	0x54
	.byte	0x93
	.uleb128 0x4
	.byte	0xa5
	.uleb128 0x11
	.uleb128 0x30
	.byte	0xa4
	.uleb128 0x30
	.byte	0x4
	.long	0x3f800000
	.byte	0x22
	.byte	0xa5
	.uleb128 0x15
	.uleb128 0x30
	.byte	0x1c
	.byte	0xa5
	.uleb128 0x12
	.uleb128 0x30
	.byte	0xa4
	.uleb128 0x30
	.byte	0x4
	.long	0x3f800000
	.byte	0x22
	.byte	0xa5
	.uleb128 0x13
	.uleb128 0x30
	.byte	0x1c
	.byte	0x1e
	.byte	0x9f
	.byte	0x93
	.uleb128 0x4
	.byte	0xa5
	.uleb128 0x12
	.uleb128 0x30
	.byte	0xa4
	.uleb128 0x30
	.byte	0x4
	.long	0x3f800000
	.byte	0x22
	.byte	0xa5
	.uleb128 0x13
	.uleb128 0x30
	.byte	0x1c
	.byte	0xa5
	.uleb128 0x15
	.uleb128 0x30
	.byte	0xa5
	.uleb128 0x11
	.uleb128 0x30
	.byte	0x1c
	.byte	0x1e
	.byte	0x9f
	.byte	0x93
	.uleb128 0x4
	.byte	0xa5
	.uleb128 0x11
	.uleb128 0x30
	.byte	0xa4
	.uleb128 0x30
	.byte	0x4
	.long	0x3f800000
	.byte	0x22
	.byte	0xa5
	.uleb128 0x15
	.uleb128 0x30
	.byte	0x1c
	.byte	0xa5
	.uleb128 0x13
	.uleb128 0x30
	.byte	0xa5
	.uleb128 0x12
	.uleb128 0x30
	.byte	0x1c
	.byte	0x1e
	.byte	0x9f
	.byte	0x93
	.uleb128 0x4
	.byte	0xa5
	.uleb128 0x15
	.uleb128 0x30
	.byte	0xa5
	.uleb128 0x11
	.uleb128 0x30
	.byte	0x1c
	.byte	0xa5
	.uleb128 0x13
	.uleb128 0x30
	.byte	0xa5
	.uleb128 0x12
	.uleb128 0x30
	.byte	0x1c
	.byte	0x1e
	.byte	0x9f
	.byte	0x93
	.uleb128 0x4
	.byte	0x58
	.byte	0x93
	.uleb128 0x4
	.byte	0x52
	.byte	0x93
	.uleb128 0x4
	.byte	0x93
	.uleb128 0x10
	.byte	0x4
	.uleb128 .LVL26-.LVL19
	.uleb128 .LVL27-.LVL19
	.uleb128 0x6e
	.byte	0x5a
	.byte	0x93
	.uleb128 0x4
	.byte	0x54
	.byte	0x93
	.uleb128 0x4
	.byte	0xa5
	.uleb128 0x11
	.uleb128 0x30
	.byte	0xa4
	.uleb128 0x30
	.byte	0x4
	.long	0x3f800000
	.byte	0x22
	.byte	0xa5
	.uleb128 0x15
	.uleb128 0x30
	.byte	0x1c
	.byte	0xa5
	.uleb128 0x12
	.uleb128 0x30
	.byte	0xa4
	.uleb128 0x30
	.byte	0x4
	.long	0x3f800000
	.byte	0x22
	.byte	0xa5
	.uleb128 0x13
	.uleb128 0x30
	.byte	0x1c
	.byte	0x1e
	.byte	0x9f
	.byte	0x93
	.uleb128 0x4
	.byte	0xa5
	.uleb128 0x12
	.uleb128 0x30
	.byte	0xa4
	.uleb128 0x30
	.byte	0x4
	.long	0x3f800000
	.byte	0x22
	.byte	0xa5
	.uleb128 0x13
	.uleb128 0x30
	.byte	0x1c
	.byte	0xa5
	.uleb128 0x15
	.uleb128 0x30
	.byte	0xa5
	.uleb128 0x11
	.uleb128 0x30
	.byte	0x1c
	.byte	0x1e
	.byte	0x9f
	.byte	0x93
	.uleb128 0x4
	.byte	0xa5
	.uleb128 0x11
	.uleb128 0x30
	.byte	0xa4
	.uleb128 0x30
	.byte	0x4
	.long	0x3f800000
	.byte	0x22
	.byte	0xa5
	.uleb128 0x15
	.uleb128 0x30
	.byte	0x1c
	.byte	0xa5
	.uleb128 0x16
	.uleb128 0x30
	.byte	0x1e
	.byte	0x9f
	.byte	0x93
	.uleb128 0x4
	.byte	0xa5
	.uleb128 0x15
	.uleb128 0x30
	.byte	0xa5
	.uleb128 0x11
	.uleb128 0x30
	.byte	0x1c
	.byte	0xa5
	.uleb128 0x16
	.uleb128 0x30
	.byte	0x1e
	.byte	0x9f
	.byte	0x93
	.uleb128 0x4
	.byte	0x58
	.byte	0x93
	.uleb128 0x4
	.byte	0x52
	.byte	0x93
	.uleb128 0x4
	.byte	0x93
	.uleb128 0x10
	.byte	0x4
	.uleb128 .LVL27-.LVL19
	.uleb128 .LVL28-.LVL19
	.uleb128 0x66
	.byte	0x5a
	.byte	0x93
	.uleb128 0x4
	.byte	0x54
	.byte	0x93
	.uleb128 0x4
	.byte	0xa5
	.uleb128 0x11
	.uleb128 0x30
	.byte	0xa4
	.uleb128 0x30
	.byte	0x4
	.long	0x3f800000
	.byte	0x22
	.byte	0xa5
	.uleb128 0x15
	.uleb128 0x30
	.byte	0x1c
	.byte	0xa5
	.uleb128 0x12
	.uleb128 0x30
	.byte	0xa4
	.uleb128 0x30
	.byte	0x4
	.long	0x3f800000
	.byte	0x22
	.byte	0xa5
	.uleb128 0x13
	.uleb128 0x30
	.byte	0x1c
	.byte	0x1e
	.byte	0x9f
	.byte	0x93
	.uleb128 0x4
	.byte	0xa5
	.uleb128 0x12
	.uleb128 0x30
	.byte	0xa4
	.uleb128 0x30
	.byte	0x4
	.long	0x3f800000
	.byte	0x22
	.byte	0xa5
	.uleb128 0x13
	.uleb128 0x30
	.byte	0x1c
	.byte	0xa5
	.uleb128 0x14
	.uleb128 0x30
	.byte	0x1e
	.byte	0x9f
	.byte	0x93
	.uleb128 0x4
	.byte	0xa5
	.uleb128 0x11
	.uleb128 0x30
	.byte	0xa4
	.uleb128 0x30
	.byte	0x4
	.long	0x3f800000
	.byte	0x22
	.byte	0xa5
	.uleb128 0x15
	.uleb128 0x30
	.byte	0x1c
	.byte	0xa5
	.uleb128 0x16
	.uleb128 0x30
	.byte	0x1e
	.byte	0x9f
	.byte	0x93
	.uleb128 0x4
	.byte	0xa5
	.uleb128 0x14
	.uleb128 0x30
	.byte	0xa5
	.uleb128 0x16
	.uleb128 0x30
	.byte	0x1e
	.byte	0x9f
	.byte	0x93
	.uleb128 0x4
	.byte	0x58
	.byte	0x93
	.uleb128 0x4
	.byte	0x52
	.byte	0x93
	.uleb128 0x4
	.byte	0x93
	.uleb128 0x10
	.byte	0x4
	.uleb128 .LVL28-.LVL19
	.uleb128 .LVL29-.LVL19
	.uleb128 0x56
	.byte	0x5a
	.byte	0x93
	.uleb128 0x4
	.byte	0x54
	.byte	0x93
	.uleb128 0x4
	.byte	0xa5
	.uleb128 0x11
	.uleb128 0x30
	.byte	0xa5
	.uleb128 0x15
	.uleb128 0x30
	.byte	0x1c
	.byte	0xa5
	.uleb128 0x12
	.uleb128 0x30
	.byte	0xa4
	.uleb128 0x30
	.byte	0x4
	.long	0x3f800000
	.byte	0x22
	.byte	0xa5
	.uleb128 0x13
	.uleb128 0x30
	.byte	0x1c
	.byte	0x1e
	.byte	0x9f
	.byte	0x93
	.uleb128 0x4
	.byte	0xa5
	.uleb128 0x12
	.uleb128 0x30
	.byte	0xa4
	.uleb128 0x30
	.byte	0x4
	.long	0x3f800000
	.byte	0x22
	.byte	0xa5
	.uleb128 0x13
	.uleb128 0x30
	.byte	0x1c
	.byte	0xa5
	.uleb128 0x14
	.uleb128 0x30
	.byte	0x1e
	.byte	0x9f
	.byte	0x93
	.uleb128 0x4
	.byte	0xa5
	.uleb128 0x11
	.uleb128 0x30
	.byte	0xa5
	.uleb128 0x15
	.uleb128 0x30
	.byte	0x1c
	.byte	0xa5
	.uleb128 0x16
	.uleb128 0x30
	.byte	0x1e
	.byte	0x9f
	.byte	0x93
	.uleb128 0x4
	.byte	0xa5
	.uleb128 0x14
	.uleb128 0x30
	.byte	0xa5
	.uleb128 0x16
	.uleb128 0x30
	.byte	0x1e
	.byte	0x9f
	.byte	0x93
	.uleb128 0x4
	.byte	0x58
	.byte	0x93
	.uleb128 0x4
	.byte	0x52
	.byte	0x93
	.uleb128 0x4
	.byte	0x93
	.uleb128 0x10
	.byte	0x4
	.uleb128 .LVL29-.LVL19
	.uleb128 .LVL30-.LVL19
	.uleb128 0x46
	.byte	0x5a
	.byte	0x93
	.uleb128 0x4
	.byte	0x54
	.byte	0x93
	.uleb128 0x4
	.byte	0xa5
	.uleb128 0x11
	.uleb128 0x30
	.byte	0xa5
	.uleb128 0x15
	.uleb128 0x30
	.byte	0x1c
	.byte	0xa5
	.uleb128 0x12
	.uleb128 0x30
	.byte	0xa5
	.uleb128 0x13
	.uleb128 0x30
	.byte	0x1c
	.byte	0x1e
	.byte	0x9f
	.byte	0x93
	.uleb128 0x4
	.byte	0xa5
	.uleb128 0x12
	.uleb128 0x30
	.byte	0xa5
	.uleb128 0x13
	.uleb128 0x30
	.byte	0x1c
	.byte	0xa5
	.uleb128 0x14
	.uleb128 0x30
	.byte	0x1e
	.byte	0x9f
	.byte	0x93
	.uleb128 0x4
	.byte	0xa5
	.uleb128 0x11
	.uleb128 0x30
	.byte	0xa5
	.uleb128 0x15
	.uleb128 0x30
	.byte	0x1c
	.byte	0xa5
	.uleb128 0x16
	.uleb128 0x30
	.byte	0x1e
	.byte	0x9f
	.byte	0x93
	.uleb128 0x4
	.byte	0xa5
	.uleb128 0x14
	.uleb128 0x30
	.byte	0xa5
	.uleb128 0x16
	.uleb128 0x30
	.byte	0x1e
	.byte	0x9f
	.byte	0x93
	.uleb128 0x4
	.byte	0x58
	.byte	0x93
	.uleb128 0x4
	.byte	0x52
	.byte	0x93
	.uleb128 0x4
	.byte	0x93
	.uleb128 0x10
	.byte	0x4
	.uleb128 .LVL30-.LVL19
	.uleb128 .LVL31-.LVL19
	.uleb128 0x2a
	.byte	0x5a
	.byte	0x93
	.uleb128 0x4
	.byte	0x54
	.byte	0x93
	.uleb128 0x4
	.byte	0x93
	.uleb128 0x4
	.byte	0xa5
	.uleb128 0x12
	.uleb128 0x30
	.byte	0xa5
	.uleb128 0x13
	.uleb128 0x30
	.byte	0x1c
	.byte	0xa5
	.uleb128 0x14
	.uleb128 0x30
	.byte	0x1e
	.byte	0x9f
	.byte	0x93
	.uleb128 0x4
	.byte	0x93
	.uleb128 0x4
	.byte	0xa5
	.uleb128 0x14
	.uleb128 0x30
	.byte	0xa5
	.uleb128 0x16
	.uleb128 0x30
	.byte	0x1e
	.byte	0x9f
	.byte	0x93
	.uleb128 0x4
	.byte	0x58
	.byte	0x93
	.uleb128 0x4
	.byte	0x52
	.byte	0x93
	.uleb128 0x4
	.byte	0x93
	.uleb128 0x10
	.byte	0x4
	.uleb128 .LVL31-.LVL19
	.uleb128 .LVL32-.LVL19
	.uleb128 0x1a
	.byte	0x5a
	.byte	0x93
	.uleb128 0x4
	.byte	0x54
	.byte	0x93
	.uleb128 0x4
	.byte	0x93
	.uleb128 0xc
	.byte	0xa5
	.uleb128 0x14
	.uleb128 0x30
	.byte	0xa5
	.uleb128 0x16
	.uleb128 0x30
	.byte	0x1e
	.byte	0x9f
	.byte	0x93
	.uleb128 0x4
	.byte	0x58
	.byte	0x93
	.uleb128 0x4
	.byte	0x52
	.byte	0x93
	.uleb128 0x4
	.byte	0x93
	.uleb128 0x10
	.byte	0x4
	.uleb128 .LVL32-.LVL19
	.uleb128 .LVL33-.LVL19
	.uleb128 0x1a
	.byte	0x5a
	.byte	0x93
	.uleb128 0x4
	.byte	0x54
	.byte	0x93
	.uleb128 0x4
	.byte	0x93
	.uleb128 0xc
	.byte	0xa5
	.uleb128 0x14
	.uleb128 0x30
	.byte	0xa5
	.uleb128 0x16
	.uleb128 0x30
	.byte	0x1e
	.byte	0x9f
	.byte	0x93
	.uleb128 0x4
	.byte	0x58
	.byte	0x93
	.uleb128 0x4
	.byte	0x52
	.byte	0x93
	.uleb128 0x4
	.byte	0x93
	.uleb128 0x10
	.byte	0x4
	.uleb128 .LVL33-.LVL19
	.uleb128 .LVL36-.LVL19
	.uleb128 0x10
	.byte	0x5a
	.byte	0x93
	.uleb128 0x4
	.byte	0x54
	.byte	0x93
	.uleb128 0x4
	.byte	0x93
	.uleb128 0x10
	.byte	0x58
	.byte	0x93
	.uleb128 0x4
	.byte	0x52
	.byte	0x93
	.uleb128 0x4
	.byte	0x93
	.uleb128 0x10
	.byte	0x4
	.uleb128 .LVL225-.LVL19
	.uleb128 .LVL230-1-.LVL19
	.uleb128 0x10
	.byte	0x5a
	.byte	0x93
	.uleb128 0x4
	.byte	0x54
	.byte	0x93
	.uleb128 0x4
	.byte	0x93
	.uleb128 0x10
	.byte	0x58
	.byte	0x93
	.uleb128 0x4
	.byte	0x52
	.byte	0x93
	.uleb128 0x4
	.byte	0x93
	.uleb128 0x10
	.byte	0x4
	.uleb128 .LVL230-1-.LVL19
	.uleb128 .LVL240-.LVL19
	.uleb128 0x18
	.byte	0x77
	.sleb128 220
	.byte	0x93
	.uleb128 0x4
	.byte	0x77
	.sleb128 216
	.byte	0x93
	.uleb128 0x4
	.byte	0x93
	.uleb128 0x10
	.byte	0x77
	.sleb128 184
	.byte	0x93
	.uleb128 0x4
	.byte	0x77
	.sleb128 168
	.byte	0x93
	.uleb128 0x4
	.byte	0x93
	.uleb128 0x10
	.byte	0x4
	.uleb128 .LVL259-.LVL19
	.uleb128 .LVL260-.LVL19
	.uleb128 0x18
	.byte	0x77
	.sleb128 220
	.byte	0x93
	.uleb128 0x4
	.byte	0x77
	.sleb128 216
	.byte	0x93
	.uleb128 0x4
	.byte	0x93
	.uleb128 0x10
	.byte	0x77
	.sleb128 184
	.byte	0x93
	.uleb128 0x4
	.byte	0x77
	.sleb128 168
	.byte	0x93
	.uleb128 0x4
	.byte	0x93
	.uleb128 0x10
	.byte	0x8
	.quad	.LVL279
	.uleb128 .LVL280-1-.LVL279
	.uleb128 0x10
	.byte	0x5a
	.byte	0x93
	.uleb128 0x4
	.byte	0x54
	.byte	0x93
	.uleb128 0x4
	.byte	0x93
	.uleb128 0x10
	.byte	0x58
	.byte	0x93
	.uleb128 0x4
	.byte	0x52
	.byte	0x93
	.uleb128 0x4
	.byte	0x93
	.uleb128 0x10
	.byte	0
.LVUS123:
	.uleb128 .LVU89
	.uleb128 .LVU156
	.uleb128 .LVU1354
	.uleb128 .LVU1373
	.uleb128 .LVU1558
	.uleb128 .LVU1560
.LLST123:
	.byte	0x6
	.quad	.LVL16
	.byte	0x4
	.uleb128 .LVL16-.LVL16
	.uleb128 .LVL36-.LVL16
	.uleb128 0x1
	.byte	0x65
	.byte	0x4
	.uleb128 .LVL225-.LVL16
	.uleb128 .LVL230-1-.LVL16
	.uleb128 0x1
	.byte	0x65
	.byte	0x8
	.quad	.LVL279
	.uleb128 .LVL280-1-.LVL279
	.uleb128 0x1
	.byte	0x65
	.byte	0
.LVUS124:
	.uleb128 .LVU91
	.uleb128 .LVU143
	.uleb128 .LVU143
	.uleb128 .LVU156
	.uleb128 .LVU1354
	.uleb128 .LVU1373
	.uleb128 .LVU1558
	.uleb128 .LVU1560
.LLST124:
	.byte	0x6
	.quad	.LVL17
	.byte	0x4
	.uleb128 .LVL17-.LVL17
	.uleb128 .LVL32-.LVL17
	.uleb128 0x1
	.byte	0x63
	.byte	0x4
	.uleb128 .LVL32-.LVL17
	.uleb128 .LVL36-.LVL17
	.uleb128 0xd
	.byte	0x77
	.sleb128 224
	.byte	0xa6
	.byte	0x4
	.uleb128 0x30
	.byte	0x73
	.sleb128 44
	.byte	0xa6
	.byte	0x4
	.uleb128 0x30
	.byte	0x1e
	.byte	0x9f
	.byte	0x4
	.uleb128 .LVL225-.LVL17
	.uleb128 .LVL230-1-.LVL17
	.uleb128 0xd
	.byte	0x77
	.sleb128 224
	.byte	0xa6
	.byte	0x4
	.uleb128 0x30
	.byte	0x73
	.sleb128 44
	.byte	0xa6
	.byte	0x4
	.uleb128 0x30
	.byte	0x1e
	.byte	0x9f
	.byte	0x8
	.quad	.LVL279
	.uleb128 .LVL280-1-.LVL279
	.uleb128 0xd
	.byte	0x77
	.sleb128 224
	.byte	0xa6
	.byte	0x4
	.uleb128 0x30
	.byte	0x73
	.sleb128 44
	.byte	0xa6
	.byte	0x4
	.uleb128 0x30
	.byte	0x1e
	.byte	0x9f
	.byte	0
.LVUS125:
	.uleb128 .LVU104
	.uleb128 .LVU135
	.uleb128 .LVU135
	.uleb128 .LVU146
.LLST125:
	.byte	0x6
	.quad	.LVL21
	.byte	0x4
	.uleb128 .LVL21-.LVL21
	.uleb128 .LVL27-.LVL21
	.uleb128 0x8
	.byte	0xa5
	.uleb128 0x15
	.uleb128 0x30
	.byte	0xa5
	.uleb128 0x11
	.uleb128 0x30
	.byte	0x1c
	.byte	0x9f
	.byte	0x4
	.uleb128 .LVL27-.LVL21
	.uleb128 .LVL33-.LVL21
	.uleb128 0x1
	.byte	0x64
	.byte	0
.LVUS126:
	.uleb128 .LVU105
	.uleb128 .LVU134
	.uleb128 .LVU134
	.uleb128 .LVU156
	.uleb128 .LVU1354
	.uleb128 .LVU1373
	.uleb128 .LVU1558
	.uleb128 .LVU1560
.LLST126:
	.byte	0x6
	.quad	.LVL21
	.byte	0x4
	.uleb128 .LVL21-.LVL21
	.uleb128 .LVL26-.LVL21
	.uleb128 0x8
	.byte	0xa5
	.uleb128 0x13
	.uleb128 0x30
	.byte	0xa5
	.uleb128 0x12
	.uleb128 0x30
	.byte	0x1c
	.byte	0x9f
	.byte	0x4
	.uleb128 .LVL26-.LVL21
	.uleb128 .LVL36-.LVL21
	.uleb128 0x1
	.byte	0x66
	.byte	0x4
	.uleb128 .LVL225-.LVL21
	.uleb128 .LVL230-1-.LVL21
	.uleb128 0x1
	.byte	0x66
	.byte	0x8
	.quad	.LVL279
	.uleb128 .LVL280-1-.LVL279
	.uleb128 0x1
	.byte	0x66
	.byte	0
.LVUS127:
	.uleb128 .LVU92
	.uleb128 .LVU95
.LLST127:
	.byte	0x8
	.quad	.LVL17
	.uleb128 .LVL18-.LVL17
	.uleb128 0x1
	.byte	0x65
	.byte	0
.LVUS128:
	.uleb128 .LVU98
	.uleb128 .LVU101
.LLST128:
	.byte	0x8
	.quad	.LVL19
	.uleb128 .LVL20-.LVL19
	.uleb128 0x1
	.byte	0x63
	.byte	0
.LVUS130:
	.uleb128 .LVU113
	.uleb128 .LVU117
.LLST130:
	.byte	0x8
	.quad	.LVL22
	.uleb128 .LVL23-.LVL22
	.uleb128 0x6
	.byte	0xa0
	.long	.Ldebug_info0+53136
	.sleb128 0
	.byte	0
.LVUS132:
	.uleb128 .LVU122
	.uleb128 .LVU126
.LLST132:
	.byte	0x8
	.quad	.LVL24
	.uleb128 .LVL25-.LVL24
	.uleb128 0x6
	.byte	0xa0
	.long	.Ldebug_info0+53146
	.sleb128 0
	.byte	0
.LVUS134:
	.uleb128 .LVU128
	.uleb128 .LVU129
.LLST134:
	.byte	0x8
	.quad	.LVL25
	.uleb128 .LVL25-.LVL25
	.uleb128 0x3
	.byte	0x73
	.sleb128 16
	.byte	0x9f
	.byte	0
.LVUS136:
	.uleb128 .LVU147
	.uleb128 .LVU156
	.uleb128 .LVU1354
	.uleb128 .LVU1408
	.uleb128 .LVU1491
	.uleb128 .LVU1492
	.uleb128 .LVU1558
	.uleb128 .LVU1560
	.uleb128 .LVU1562
	.uleb128 0
.LLST136:
	.byte	0x6
	.quad	.LVL33
	.byte	0x4
	.uleb128 .LVL33-.LVL33
	.uleb128 .LVL36-.LVL33
	.uleb128 0x6
	.byte	0xa0
	.long	.Ldebug_info0+53175
	.sleb128 0
	.byte	0x4
	.uleb128 .LVL225-.LVL33
	.uleb128 .LVL240-.LVL33
	.uleb128 0x6
	.byte	0xa0
	.long	.Ldebug_info0+53175
	.sleb128 0
	.byte	0x4
	.uleb128 .LVL259-.LVL33
	.uleb128 .LVL260-.LVL33
	.uleb128 0x6
	.byte	0xa0
	.long	.Ldebug_info0+53175
	.sleb128 0
	.byte	0x6
	.quad	.LVL279
	.byte	0x4
	.uleb128 .LVL279-.LVL279
	.uleb128 .LVL280-.LVL279
	.uleb128 0x6
	.byte	0xa0
	.long	.Ldebug_info0+53175
	.sleb128 0
	.byte	0x4
	.uleb128 .LVL281-.LVL279
	.uleb128 .LFE11708-.LVL279
	.uleb128 0x6
	.byte	0xa0
	.long	.Ldebug_info0+53175
	.sleb128 0
	.byte	0
.LVUS137:
	.uleb128 .LVU147
	.uleb128 .LVU156
	.uleb128 .LVU1354
	.uleb128 .LVU1408
	.uleb128 .LVU1491
	.uleb128 .LVU1492
	.uleb128 .LVU1558
	.uleb128 .LVU1560
	.uleb128 .LVU1562
	.uleb128 0
.LLST137:
	.byte	0x6
	.quad	.LVL33
	.byte	0x4
	.uleb128 .LVL33-.LVL33
	.uleb128 .LVL36-.LVL33
	.uleb128 0x6
	.byte	0xa0
	.long	.Ldebug_info0+53329
	.sleb128 0
	.byte	0x4
	.uleb128 .LVL225-.LVL33
	.uleb128 .LVL240-.LVL33
	.uleb128 0x6
	.byte	0xa0
	.long	.Ldebug_info0+53329
	.sleb128 0
	.byte	0x4
	.uleb128 .LVL259-.LVL33
	.uleb128 .LVL260-.LVL33
	.uleb128 0x6
	.byte	0xa0
	.long	.Ldebug_info0+53329
	.sleb128 0
	.byte	0x6
	.quad	.LVL279
	.byte	0x4
	.uleb128 .LVL279-.LVL279
	.uleb128 .LVL280-.LVL279
	.uleb128 0x6
	.byte	0xa0
	.long	.Ldebug_info0+53329
	.sleb128 0
	.byte	0x4
	.uleb128 .LVL281-.LVL279
	.uleb128 .LFE11708-.LVL279
	.uleb128 0x6
	.byte	0xa0
	.long	.Ldebug_info0+53329
	.sleb128 0
	.byte	0
.LVUS139:
	.uleb128 .LVU149
	.uleb128 .LVU154
.LLST139:
	.byte	0x8
	.quad	.LVL34
	.uleb128 .LVL35-.LVL34
	.uleb128 0x6
	.byte	0xa0
	.long	.Ldebug_info0+53175
	.sleb128 0
	.byte	0
.LVUS140:
	.uleb128 .LVU149
	.uleb128 .LVU154
.LLST140:
	.byte	0x8
	.quad	.LVL34
	.uleb128 .LVL35-.LVL34
	.uleb128 0x6
	.byte	0xa0
	.long	.Ldebug_info0+53329
	.sleb128 0
	.byte	0
.LVUS141:
	.uleb128 .LVU150
	.uleb128 .LVU154
.LLST141:
	.byte	0x8
	.quad	.LVL34
	.uleb128 .LVL35-.LVL34
	.uleb128 0x6
	.byte	0xa0
	.long	.Ldebug_info0+53175
	.sleb128 0
	.byte	0
.LVUS142:
	.uleb128 .LVU150
	.uleb128 .LVU154
.LLST142:
	.byte	0x8
	.quad	.LVL34
	.uleb128 .LVL35-.LVL34
	.uleb128 0x6
	.byte	0xa0
	.long	.Ldebug_info0+53329
	.sleb128 0
	.byte	0
.LVUS144:
	.uleb128 .LVU1354
	.uleb128 .LVU1407
	.uleb128 .LVU1491
	.uleb128 .LVU1492
	.uleb128 .LVU1558
	.uleb128 .LVU1560
	.uleb128 .LVU1562
	.uleb128 0
.LLST144:
	.byte	0x6
	.quad	.LVL225
	.byte	0x4
	.uleb128 .LVL225-.LVL225
	.uleb128 .LVL239-.LVL225
	.uleb128 0x6
	.byte	0xa0
	.long	.Ldebug_info0+53175
	.sleb128 0
	.byte	0x4
	.uleb128 .LVL259-.LVL225
	.uleb128 .LVL260-.LVL225
	.uleb128 0x6
	.byte	0xa0
	.long	.Ldebug_info0+53175
	.sleb128 0
	.byte	0x6
	.quad	.LVL279
	.byte	0x4
	.uleb128 .LVL279-.LVL279
	.uleb128 .LVL280-.LVL279
	.uleb128 0x6
	.byte	0xa0
	.long	.Ldebug_info0+53175
	.sleb128 0
	.byte	0x4
	.uleb128 .LVL281-.LVL279
	.uleb128 .LFE11708-.LVL279
	.uleb128 0x6
	.byte	0xa0
	.long	.Ldebug_info0+53175
	.sleb128 0
	.byte	0
.LVUS145:
	.uleb128 .LVU1354
	.uleb128 .LVU1407
	.uleb128 .LVU1491
	.uleb128 .LVU1492
	.uleb128 .LVU1558
	.uleb128 .LVU1560
	.uleb128 .LVU1562
	.uleb128 0
.LLST145:
	.byte	0x6
	.quad	.LVL225
	.byte	0x4
	.uleb128 .LVL225-.LVL225
	.uleb128 .LVL239-.LVL225
	.uleb128 0x6
	.byte	0xa0
	.long	.Ldebug_info0+53329
	.sleb128 0
	.byte	0x4
	.uleb128 .LVL259-.LVL225
	.uleb128 .LVL260-.LVL225
	.uleb128 0x6
	.byte	0xa0
	.long	.Ldebug_info0+53329
	.sleb128 0
	.byte	0x6
	.quad	.LVL279
	.byte	0x4
	.uleb128 .LVL279-.LVL279
	.uleb128 .LVL280-.LVL279
	.uleb128 0x6
	.byte	0xa0
	.long	.Ldebug_info0+53329
	.sleb128 0
	.byte	0x4
	.uleb128 .LVL281-.LVL279
	.uleb128 .LFE11708-.LVL279
	.uleb128 0x6
	.byte	0xa0
	.long	.Ldebug_info0+53329
	.sleb128 0
	.byte	0
.LVUS146:
	.uleb128 .LVU1367
	.uleb128 .LVU1406
	.uleb128 .LVU1491
	.uleb128 .LVU1492
.LLST146:
	.byte	0x6
	.quad	.LVL229
	.byte	0x4
	.uleb128 .LVL229-.LVL229
	.uleb128 .LVL238-.LVL229
	.uleb128 0x1
	.byte	0x5f
	.byte	0x4
	.uleb128 .LVL259-.LVL229
	.uleb128 .LVL260-.LVL229
	.uleb128 0x1
	.byte	0x5f
	.byte	0
.LVUS147:
	.uleb128 .LVU1391
	.uleb128 .LVU1393
	.uleb128 .LVU1393
	.uleb128 .LVU1404
	.uleb128 .LVU1404
	.uleb128 .LVU1408
.LLST147:
	.byte	0x6
	.quad	.LVL233
	.byte	0x4
	.uleb128 .LVL233-.LVL233
	.uleb128 .LVL234-.LVL233
	.uleb128 0xc
	.byte	0x77
	.sleb128 248
	.byte	0x6
	.byte	0x77
	.sleb128 272
	.byte	0x6
	.byte	0x22
	.byte	0x23
	.uleb128 0x30
	.byte	0x9f
	.byte	0x4
	.uleb128 .LVL234-.LVL233
	.uleb128 .LVL237-1-.LVL233
	.uleb128 0x1
	.byte	0x50
	.byte	0x4
	.uleb128 .LVL237-1-.LVL233
	.uleb128 .LVL240-.LVL233
	.uleb128 0x3
	.byte	0x77
	.sleb128 112
	.byte	0
.LVUS148:
	.uleb128 .LVU1367
	.uleb128 .LVU1408
	.uleb128 .LVU1491
	.uleb128 .LVU1492
.LLST148:
	.byte	0x6
	.quad	.LVL229
	.byte	0x4
	.uleb128 .LVL229-.LVL229
	.uleb128 .LVL240-.LVL229
	.uleb128 0x8
	.byte	0x77
	.sleb128 272
	.byte	0x6
	.byte	0x8
	.byte	0x30
	.byte	0x1b
	.byte	0x9f
	.byte	0x4
	.uleb128 .LVL259-.LVL229
	.uleb128 .LVL260-.LVL229
	.uleb128 0x8
	.byte	0x77
	.sleb128 272
	.byte	0x6
	.byte	0x8
	.byte	0x30
	.byte	0x1b
	.byte	0x9f
	.byte	0
.LVUS149:
	.uleb128 .LVU1377
	.uleb128 .LVU1391
	.uleb128 .LVU1391
	.uleb128 .LVU1408
.LLST149:
	.byte	0x6
	.quad	.LVL231
	.byte	0x4
	.uleb128 .LVL231-.LVL231
	.uleb128 .LVL233-1-.LVL231
	.uleb128 0x1
	.byte	0x50
	.byte	0x4
	.uleb128 .LVL233-1-.LVL231
	.uleb128 .LVL240-.LVL231
	.uleb128 0x3
	.byte	0x77
	.sleb128 248
	.byte	0
.LVUS150:
	.uleb128 .LVU1377
	.uleb128 .LVU1391
	.uleb128 .LVU1391
	.uleb128 .LVU1391
	.uleb128 .LVU1391
	.uleb128 .LVU1394
	.uleb128 .LVU1394
	.uleb128 .LVU1404
	.uleb128 .LVU1404
	.uleb128 .LVU1407
.LLST150:
	.byte	0x6
	.quad	.LVL231
	.byte	0x4
	.uleb128 .LVL231-.LVL231
	.uleb128 .LVL233-1-.LVL231
	.uleb128 0x1
	.byte	0x50
	.byte	0x4
	.uleb128 .LVL233-1-.LVL231
	.uleb128 .LVL233-.LVL231
	.uleb128 0x3
	.byte	0x77
	.sleb128 248
	.byte	0x4
	.uleb128 .LVL233-.LVL231
	.uleb128 .LVL235-.LVL231
	.uleb128 0xa
	.byte	0x77
	.sleb128 248
	.byte	0x6
	.byte	0x77
	.sleb128 272
	.byte	0x6
	.byte	0x22
	.byte	0x9f
	.byte	0x4
	.uleb128 .LVL235-.LVL231
	.uleb128 .LVL237-1-.LVL231
	.uleb128 0x1
	.byte	0x50
	.byte	0x4
	.uleb128 .LVL237-1-.LVL231
	.uleb128 .LVL239-.LVL231
	.uleb128 0x3
	.byte	0x77
	.sleb128 112
	.byte	0
.LVUS152:
	.uleb128 .LVU1356
	.uleb128 .LVU1367
	.uleb128 .LVU1558
	.uleb128 .LVU1560
.LLST152:
	.byte	0x8
	.quad	.LVL225
	.uleb128 .LVL229-.LVL225
	.uleb128 0x6
	.byte	0xa0
	.long	.Ldebug_info0+53175
	.sleb128 0
	.byte	0x8
	.quad	.LVL279
	.uleb128 .LVL280-.LVL279
	.uleb128 0x6
	.byte	0xa0
	.long	.Ldebug_info0+53175
	.sleb128 0
	.byte	0
.LVUS153:
	.uleb128 .LVU1356
	.uleb128 .LVU1367
	.uleb128 .LVU1558
	.uleb128 .LVU1560
.LLST153:
	.byte	0x8
	.quad	.LVL225
	.uleb128 .LVL229-.LVL225
	.uleb128 0x2
	.byte	0x31
	.byte	0x9f
	.byte	0x8
	.quad	.LVL279
	.uleb128 .LVL280-.LVL279
	.uleb128 0x2
	.byte	0x31
	.byte	0x9f
	.byte	0
.LVUS154:
	.uleb128 .LVU1356
	.uleb128 .LVU1367
	.uleb128 .LVU1558
	.uleb128 .LVU1560
.LLST154:
	.byte	0x8
	.quad	.LVL225
	.uleb128 .LVL229-.LVL225
	.uleb128 0xa
	.byte	0x3
	.quad	.LC2
	.byte	0x9f
	.byte	0x8
	.quad	.LVL279
	.uleb128 .LVL280-.LVL279
	.uleb128 0xa
	.byte	0x3
	.quad	.LC2
	.byte	0x9f
	.byte	0
.LVUS155:
	.uleb128 .LVU1357
	.uleb128 .LVU1361
.LLST155:
	.byte	0x8
	.quad	.LVL225
	.uleb128 .LVL228-.LVL225
	.uleb128 0x6
	.byte	0xa0
	.long	.Ldebug_info0+53175
	.sleb128 0
	.byte	0
.LVUS156:
	.uleb128 .LVU1359
	.uleb128 .LVU1360
	.uleb128 .LVU1360
	.uleb128 .LVU1361
.LLST156:
	.byte	0x6
	.quad	.LVL226
	.byte	0x4
	.uleb128 .LVL226-.LVL226
	.uleb128 .LVL227-.LVL226
	.uleb128 0x6
	.byte	0x70
	.sleb128 0
	.byte	0x8
	.byte	0x30
	.byte	0x1b
	.byte	0x9f
	.byte	0x4
	.uleb128 .LVL227-.LVL226
	.uleb128 .LVL228-.LVL226
	.uleb128 0x8
	.byte	0x77
	.sleb128 272
	.byte	0x6
	.byte	0x8
	.byte	0x30
	.byte	0x1b
	.byte	0x9f
	.byte	0
.LVUS158:
	.uleb128 .LVU1366
	.uleb128 .LVU1367
.LLST158:
	.byte	0x8
	.quad	.LVL229
	.uleb128 .LVL229-.LVL229
	.uleb128 0x6
	.byte	0xa0
	.long	.Ldebug_info0+54073
	.sleb128 0
	.byte	0
.LVUS160:
	.uleb128 .LVU1367
	.uleb128 .LVU1377
	.uleb128 .LVU1491
	.uleb128 .LVU1492
.LLST160:
	.byte	0x6
	.quad	.LVL229
	.byte	0x4
	.uleb128 .LVL229-.LVL229
	.uleb128 .LVL231-.LVL229
	.uleb128 0x6
	.byte	0xa0
	.long	.Ldebug_info0+53175
	.sleb128 0
	.byte	0x4
	.uleb128 .LVL259-.LVL229
	.uleb128 .LVL260-.LVL229
	.uleb128 0x6
	.byte	0xa0
	.long	.Ldebug_info0+53175
	.sleb128 0
	.byte	0
.LVUS162:
	.uleb128 .LVU1369
	.uleb128 .LVU1377
	.uleb128 .LVU1491
	.uleb128 .LVU1492
.LLST162:
	.byte	0x6
	.quad	.LVL229
	.byte	0x4
	.uleb128 .LVL229-.LVL229
	.uleb128 .LVL231-.LVL229
	.uleb128 0x6
	.byte	0xa0
	.long	.Ldebug_info0+53175
	.sleb128 0
	.byte	0x4
	.uleb128 .LVL259-.LVL229
	.uleb128 .LVL260-.LVL229
	.uleb128 0x6
	.byte	0xa0
	.long	.Ldebug_info0+53175
	.sleb128 0
	.byte	0
.LVUS164:
	.uleb128 .LVU1371
	.uleb128 .LVU1377
	.uleb128 .LVU1491
	.uleb128 .LVU1492
.LLST164:
	.byte	0x6
	.quad	.LVL229
	.byte	0x4
	.uleb128 .LVL229-.LVL229
	.uleb128 .LVL231-.LVL229
	.uleb128 0x2
	.byte	0x30
	.byte	0x9f
	.byte	0x4
	.uleb128 .LVL259-.LVL229
	.uleb128 .LVL260-.LVL229
	.uleb128 0x2
	.byte	0x30
	.byte	0x9f
	.byte	0
.LVUS165:
	.uleb128 .LVU1371
	.uleb128 .LVU1377
	.uleb128 .LVU1491
	.uleb128 .LVU1492
.LLST165:
	.byte	0x6
	.quad	.LVL229
	.byte	0x4
	.uleb128 .LVL229-.LVL229
	.uleb128 .LVL231-.LVL229
	.uleb128 0x6
	.byte	0xa0
	.long	.Ldebug_info0+53175
	.sleb128 0
	.byte	0x4
	.uleb128 .LVL259-.LVL229
	.uleb128 .LVL260-.LVL229
	.uleb128 0x6
	.byte	0xa0
	.long	.Ldebug_info0+53175
	.sleb128 0
	.byte	0
.LVUS168:
	.uleb128 .LVU1379
	.uleb128 .LVU1384
.LLST168:
	.byte	0x8
	.quad	.LVL231
	.uleb128 .LVL232-.LVL231
	.uleb128 0x6
	.byte	0xa0
	.long	.Ldebug_info0+53175
	.sleb128 0
	.byte	0
.LVUS169:
	.uleb128 .LVU1379
	.uleb128 .LVU1384
.LLST169:
	.byte	0x8
	.quad	.LVL231
	.uleb128 .LVL232-.LVL231
	.uleb128 0x6
	.byte	0x70
	.sleb128 0
	.byte	0x71
	.sleb128 0
	.byte	0x22
	.byte	0x9f
	.byte	0
.LVUS170:
	.uleb128 .LVU1379
	.uleb128 .LVU1384
.LLST170:
	.byte	0x8
	.quad	.LVL231
	.uleb128 .LVL232-.LVL231
	.uleb128 0x6
	.byte	0xa0
	.long	.Ldebug_info0+53329
	.sleb128 0
	.byte	0
.LVUS171:
	.uleb128 .LVU1381
	.uleb128 .LVU1384
.LLST171:
	.byte	0x8
	.quad	.LVL231
	.uleb128 .LVL232-.LVL231
	.uleb128 0x6
	.byte	0xa0
	.long	.Ldebug_info0+53175
	.sleb128 0
	.byte	0
.LVUS172:
	.uleb128 .LVU1381
	.uleb128 .LVU1384
.LLST172:
	.byte	0x8
	.quad	.LVL231
	.uleb128 .LVL232-.LVL231
	.uleb128 0x6
	.byte	0x70
	.sleb128 0
	.byte	0x71
	.sleb128 0
	.byte	0x22
	.byte	0x9f
	.byte	0
.LVUS173:
	.uleb128 .LVU1381
	.uleb128 .LVU1384
.LLST173:
	.byte	0x8
	.quad	.LVL231
	.uleb128 .LVL232-.LVL231
	.uleb128 0x6
	.byte	0xa0
	.long	.Ldebug_info0+53329
	.sleb128 0
	.byte	0
.LVUS174:
	.uleb128 .LVU1377
	.uleb128 .LVU1379
.LLST174:
	.byte	0x8
	.quad	.LVL231
	.uleb128 .LVL231-.LVL231
	.uleb128 0x6
	.byte	0xa0
	.long	.Ldebug_info0+54420
	.sleb128 0
	.byte	0
.LVUS175:
	.uleb128 .LVU1377
	.uleb128 .LVU1379
.LLST175:
	.byte	0x8
	.quad	.LVL231
	.uleb128 .LVL231-.LVL231
	.uleb128 0x1
	.byte	0x50
	.byte	0
.LVUS176:
	.uleb128 .LVU1377
	.uleb128 .LVU1379
.LLST176:
	.byte	0x8
	.quad	.LVL231
	.uleb128 .LVL231-.LVL231
	.uleb128 0x6
	.byte	0xa0
	.long	.Ldebug_info0+53175
	.sleb128 0
	.byte	0
.LVUS178:
	.uleb128 .LVU1384
	.uleb128 .LVU1391
.LLST178:
	.byte	0x8
	.quad	.LVL232
	.uleb128 .LVL233-.LVL232
	.uleb128 0x1
	.byte	0x5f
	.byte	0
.LVUS179:
	.uleb128 .LVU1384
	.uleb128 .LVU1391
	.uleb128 .LVU1391
	.uleb128 .LVU1391
.LLST179:
	.byte	0x6
	.quad	.LVL232
	.byte	0x4
	.uleb128 .LVL232-.LVL232
	.uleb128 .LVL233-1-.LVL232
	.uleb128 0x1
	.byte	0x50
	.byte	0x4
	.uleb128 .LVL233-1-.LVL232
	.uleb128 .LVL233-.LVL232
	.uleb128 0x3
	.byte	0x77
	.sleb128 248
	.byte	0
.LVUS180:
	.uleb128 .LVU1384
	.uleb128 .LVU1391
.LLST180:
	.byte	0x8
	.quad	.LVL232
	.uleb128 .LVL233-.LVL232
	.uleb128 0x6
	.byte	0xa0
	.long	.Ldebug_info0+53175
	.sleb128 0
	.byte	0
.LVUS181:
	.uleb128 .LVU1386
	.uleb128 .LVU1391
.LLST181:
	.byte	0x8
	.quad	.LVL232
	.uleb128 .LVL233-.LVL232
	.uleb128 0x1
	.byte	0x5f
	.byte	0
.LVUS182:
	.uleb128 .LVU1386
	.uleb128 .LVU1391
	.uleb128 .LVU1391
	.uleb128 .LVU1391
.LLST182:
	.byte	0x6
	.quad	.LVL232
	.byte	0x4
	.uleb128 .LVL232-.LVL232
	.uleb128 .LVL233-1-.LVL232
	.uleb128 0x1
	.byte	0x50
	.byte	0x4
	.uleb128 .LVL233-1-.LVL232
	.uleb128 .LVL233-.LVL232
	.uleb128 0x3
	.byte	0x77
	.sleb128 248
	.byte	0
.LVUS183:
	.uleb128 .LVU1386
	.uleb128 .LVU1391
.LLST183:
	.byte	0x8
	.quad	.LVL232
	.uleb128 .LVL233-.LVL232
	.uleb128 0x6
	.byte	0xa0
	.long	.Ldebug_info0+53175
	.sleb128 0
	.byte	0
.LVUS184:
	.uleb128 .LVU1387
	.uleb128 .LVU1391
	.uleb128 .LVU1391
	.uleb128 .LVU1408
.LLST184:
	.byte	0x6
	.quad	.LVL232
	.byte	0x4
	.uleb128 .LVL232-.LVL232
	.uleb128 .LVL233-1-.LVL232
	.uleb128 0x6
	.byte	0x71
	.sleb128 0
	.byte	0x8
	.byte	0x30
	.byte	0x1b
	.byte	0x9f
	.byte	0x4
	.uleb128 .LVL233-1-.LVL232
	.uleb128 .LVL240-.LVL232
	.uleb128 0x8
	.byte	0x77
	.sleb128 272
	.byte	0x6
	.byte	0x8
	.byte	0x30
	.byte	0x1b
	.byte	0x9f
	.byte	0
.LVUS186:
	.uleb128 .LVU1394
	.uleb128 .LVU1404
.LLST186:
	.byte	0x8
	.quad	.LVL235
	.uleb128 .LVL237-.LVL235
	.uleb128 0x6
	.byte	0xa0
	.long	.Ldebug_info0+54420
	.sleb128 0
	.byte	0
.LVUS188:
	.uleb128 .LVU1396
	.uleb128 .LVU1404
.LLST188:
	.byte	0x8
	.quad	.LVL236
	.uleb128 .LVL237-.LVL236
	.uleb128 0x1
	.byte	0x5f
	.byte	0
.LVUS190:
	.uleb128 .LVU1397
	.uleb128 .LVU1404
.LLST190:
	.byte	0x8
	.quad	.LVL236
	.uleb128 .LVL237-.LVL236
	.uleb128 0x1
	.byte	0x5f
	.byte	0
.LVUS192:
	.uleb128 .LVU1398
	.uleb128 .LVU1404
.LLST192:
	.byte	0x8
	.quad	.LVL236
	.uleb128 .LVL237-.LVL236
	.uleb128 0x1
	.byte	0x5f
	.byte	0
.LVUS194:
	.uleb128 .LVU1399
	.uleb128 .LVU1404
.LLST194:
	.byte	0x8
	.quad	.LVL236
	.uleb128 .LVL237-.LVL236
	.uleb128 0x1
	.byte	0x5f
	.byte	0
.LVUS116:
	.uleb128 .LVU72
	.uleb128 .LVU74
	.uleb128 .LVU1341
	.uleb128 .LVU1343
.LLST116:
	.byte	0x8
	.quad	.LVL13
	.uleb128 .LVL13-.LVL13
	.uleb128 0x4
	.byte	0xa3
	.uleb128 0x1
	.byte	0x54
	.byte	0x9f
	.byte	0x8
	.quad	.LVL223
	.uleb128 .LVL223-.LVL223
	.uleb128 0x1
	.byte	0x54
	.byte	0
.LVUS117:
	.uleb128 .LVU73
	.uleb128 .LVU74
	.uleb128 .LVU1342
	.uleb128 .LVU1343
.LLST117:
	.byte	0x8
	.quad	.LVL13
	.uleb128 .LVL13-.LVL13
	.uleb128 0x4
	.byte	0xa3
	.uleb128 0x1
	.byte	0x54
	.byte	0x9f
	.byte	0x8
	.quad	.LVL223
	.uleb128 .LVL223-.LVL223
	.uleb128 0x1
	.byte	0x54
	.byte	0
.LVUS119:
	.uleb128 .LVU74
	.uleb128 .LVU77
	.uleb128 .LVU1343
	.uleb128 .LVU1346
.LLST119:
	.byte	0x8
	.quad	.LVL13
	.uleb128 .LVL13-.LVL13
	.uleb128 0x4
	.byte	0xa3
	.uleb128 0x1
	.byte	0x54
	.byte	0x9f
	.byte	0x8
	.quad	.LVL223
	.uleb128 .LVL223-.LVL223
	.uleb128 0x1
	.byte	0x54
	.byte	0
.LVUS120:
	.uleb128 .LVU76
	.uleb128 .LVU77
	.uleb128 .LVU1345
	.uleb128 .LVU1346
.LLST120:
	.byte	0x8
	.quad	.LVL13
	.uleb128 .LVL13-.LVL13
	.uleb128 0x6
	.byte	0xa3
	.uleb128 0x1
	.byte	0x54
	.byte	0x23
	.uleb128 0x8
	.byte	0x9f
	.byte	0x8
	.quad	.LVL223
	.uleb128 .LVL223-.LVL223
	.uleb128 0x3
	.byte	0x74
	.sleb128 8
	.byte	0x9f
	.byte	0
.LVUS195:
	.uleb128 .LVU158
	.uleb128 .LVU160
.LLST195:
	.byte	0x8
	.quad	.LVL36
	.uleb128 .LVL37-.LVL36
	.uleb128 0x6
	.byte	0xa0
	.long	.Ldebug_info0+53302
	.sleb128 0
	.byte	0
.LVUS296:
	.uleb128 .LVU273
	.uleb128 .LVU277
	.uleb128 .LVU277
	.uleb128 .LVU312
.LLST296:
	.byte	0x6
	.quad	.LVL53
	.byte	0x4
	.uleb128 .LVL53-.LVL53
	.uleb128 .LVL54-.LVL53
	.uleb128 0x1
	.byte	0x50
	.byte	0x4
	.uleb128 .LVL54-.LVL53
	.uleb128 .LVL61-.LVL53
	.uleb128 0x3
	.byte	0x70
	.sleb128 -48
	.byte	0x9f
	.byte	0
.LVUS297:
	.uleb128 .LVU264
	.uleb128 .LVU1318
	.uleb128 .LVU1325
	.uleb128 .LVU1337
	.uleb128 .LVU1484
	.uleb128 .LVU1486
.LLST297:
	.byte	0x6
	.quad	.LVL52
	.byte	0x4
	.uleb128 .LVL52-.LVL52
	.uleb128 .LVL220-.LVL52
	.uleb128 0x6
	.byte	0xa0
	.long	.Ldebug_info0+53175
	.sleb128 0
	.byte	0x4
	.uleb128 .LVL220-.LVL52
	.uleb128 .LVL222-.LVL52
	.uleb128 0x6
	.byte	0xa0
	.long	.Ldebug_info0+53175
	.sleb128 0
	.byte	0x4
	.uleb128 .LVL253-.LVL52
	.uleb128 .LVL254-.LVL52
	.uleb128 0x6
	.byte	0xa0
	.long	.Ldebug_info0+53175
	.sleb128 0
	.byte	0
.LVUS299:
	.uleb128 .LVU264
	.uleb128 .LVU266
	.uleb128 .LVU1325
	.uleb128 .LVU1327
.LLST299:
	.byte	0x8
	.quad	.LVL52
	.uleb128 .LVL52-.LVL52
	.uleb128 0x6
	.byte	0xa0
	.long	.Ldebug_info0+53175
	.sleb128 0
	.byte	0x8
	.quad	.LVL220
	.uleb128 .LVL220-.LVL220
	.uleb128 0x6
	.byte	0xa0
	.long	.Ldebug_info0+53175
	.sleb128 0
	.byte	0
.LVUS300:
	.uleb128 .LVU265
	.uleb128 .LVU266
	.uleb128 .LVU1326
	.uleb128 .LVU1327
.LLST300:
	.byte	0x8
	.quad	.LVL52
	.uleb128 .LVL52-.LVL52
	.uleb128 0x6
	.byte	0xa0
	.long	.Ldebug_info0+53175
	.sleb128 0
	.byte	0x8
	.quad	.LVL220
	.uleb128 .LVL220-.LVL220
	.uleb128 0x6
	.byte	0xa0
	.long	.Ldebug_info0+53175
	.sleb128 0
	.byte	0
.LVUS302:
	.uleb128 .LVU266
	.uleb128 .LVU269
	.uleb128 .LVU1327
	.uleb128 .LVU1330
.LLST302:
	.byte	0x8
	.quad	.LVL52
	.uleb128 .LVL52-.LVL52
	.uleb128 0x6
	.byte	0xa0
	.long	.Ldebug_info0+53175
	.sleb128 0
	.byte	0x8
	.quad	.LVL220
	.uleb128 .LVL220-.LVL220
	.uleb128 0x6
	.byte	0xa0
	.long	.Ldebug_info0+53175
	.sleb128 0
	.byte	0
.LVUS303:
	.uleb128 .LVU268
	.uleb128 .LVU269
	.uleb128 .LVU1329
	.uleb128 .LVU1330
.LLST303:
	.byte	0x8
	.quad	.LVL52
	.uleb128 .LVL52-.LVL52
	.uleb128 0x6
	.byte	0xa0
	.long	.Ldebug_info0+53175
	.sleb128 8
	.byte	0x8
	.quad	.LVL220
	.uleb128 .LVL220-.LVL220
	.uleb128 0x6
	.byte	0xa0
	.long	.Ldebug_info0+53175
	.sleb128 8
	.byte	0
.LVUS305:
	.uleb128 .LVU306
	.uleb128 .LVU307
.LLST305:
	.byte	0x8
	.quad	.LVL59
	.uleb128 .LVL59-.LVL59
	.uleb128 0x6
	.byte	0xa0
	.long	.Ldebug_info0+55372
	.sleb128 0
	.byte	0
.LVUS306:
	.uleb128 .LVU280
	.uleb128 .LVU282
.LLST306:
	.byte	0x8
	.quad	.LVL55
	.uleb128 .LVL55-.LVL55
	.uleb128 0x6
	.byte	0x71
	.sleb128 0
	.byte	0x74
	.sleb128 0
	.byte	0x22
	.byte	0x9f
	.byte	0
.LVUS307:
	.uleb128 .LVU288
	.uleb128 .LVU290
.LLST307:
	.byte	0x8
	.quad	.LVL56
	.uleb128 .LVL56-.LVL56
	.uleb128 0x6
	.byte	0x71
	.sleb128 0
	.byte	0x72
	.sleb128 0
	.byte	0x22
	.byte	0x9f
	.byte	0
.LVUS308:
	.uleb128 .LVU294
	.uleb128 .LVU296
.LLST308:
	.byte	0x8
	.quad	.LVL57
	.uleb128 .LVL57-.LVL57
	.uleb128 0x6
	.byte	0x74
	.sleb128 0
	.byte	0x78
	.sleb128 0
	.byte	0x22
	.byte	0x9f
	.byte	0
.LVUS309:
	.uleb128 .LVU300
	.uleb128 .LVU302
.LLST309:
	.byte	0x8
	.quad	.LVL58
	.uleb128 .LVL58-.LVL58
	.uleb128 0x6
	.byte	0x72
	.sleb128 0
	.byte	0x78
	.sleb128 0
	.byte	0x22
	.byte	0x9f
	.byte	0
.LVUS314:
	.uleb128 .LVU310
	.uleb128 .LVU325
	.uleb128 .LVU325
	.uleb128 .LVU328
	.uleb128 .LVU328
	.uleb128 .LVU341
	.uleb128 .LVU341
	.uleb128 .LVU343
	.uleb128 .LVU343
	.uleb128 .LVU344
	.uleb128 .LVU1335
	.uleb128 .LVU1337
	.uleb128 .LVU1484
	.uleb128 .LVU1486
.LLST314:
	.byte	0x6
	.quad	.LVL60
	.byte	0x4
	.uleb128 .LVL60-.LVL60
	.uleb128 .LVL66-.LVL60
	.uleb128 0x2
	.byte	0x30
	.byte	0x9f
	.byte	0x4
	.uleb128 .LVL66-.LVL60
	.uleb128 .LVL67-.LVL60
	.uleb128 0x2
	.byte	0x31
	.byte	0x9f
	.byte	0x4
	.uleb128 .LVL67-.LVL60
	.uleb128 .LVL71-.LVL60
	.uleb128 0x1
	.byte	0x5a
	.byte	0x4
	.uleb128 .LVL71-.LVL60
	.uleb128 .LVL72-.LVL60
	.uleb128 0x3
	.byte	0x7a
	.sleb128 -1
	.byte	0x9f
	.byte	0x4
	.uleb128 .LVL72-.LVL60
	.uleb128 .LVL73-.LVL60
	.uleb128 0x1
	.byte	0x5a
	.byte	0x4
	.uleb128 .LVL221-.LVL60
	.uleb128 .LVL222-.LVL60
	.uleb128 0x2
	.byte	0x30
	.byte	0x9f
	.byte	0x4
	.uleb128 .LVL253-.LVL60
	.uleb128 .LVL254-.LVL60
	.uleb128 0x2
	.byte	0x30
	.byte	0x9f
	.byte	0
.LVUS316:
	.uleb128 .LVU312
	.uleb128 .LVU315
	.uleb128 .LVU315
	.uleb128 .LVU328
	.uleb128 .LVU328
	.uleb128 .LVU331
	.uleb128 .LVU331
	.uleb128 .LVU344
.LLST316:
	.byte	0x6
	.quad	.LVL61
	.byte	0x4
	.uleb128 .LVL61-.LVL61
	.uleb128 .LVL62-.LVL61
	.uleb128 0x2
	.byte	0x30
	.byte	0x9f
	.byte	0x4
	.uleb128 .LVL62-.LVL61
	.uleb128 .LVL67-.LVL61
	.uleb128 0x1
	.byte	0x52
	.byte	0x4
	.uleb128 .LVL67-.LVL61
	.uleb128 .LVL68-.LVL61
	.uleb128 0x2
	.byte	0x30
	.byte	0x9f
	.byte	0x4
	.uleb128 .LVL68-.LVL61
	.uleb128 .LVL73-.LVL61
	.uleb128 0x1
	.byte	0x52
	.byte	0
.LVUS318:
	.uleb128 .LVU312
	.uleb128 .LVU315
	.uleb128 .LVU315
	.uleb128 .LVU322
	.uleb128 .LVU322
	.uleb128 .LVU323
	.uleb128 .LVU328
	.uleb128 .LVU331
	.uleb128 .LVU331
	.uleb128 .LVU336
	.uleb128 .LVU336
	.uleb128 .LVU339
.LLST318:
	.byte	0x6
	.quad	.LVL61
	.byte	0x4
	.uleb128 .LVL61-.LVL61
	.uleb128 .LVL62-.LVL61
	.uleb128 0x2
	.byte	0x30
	.byte	0x9f
	.byte	0x4
	.uleb128 .LVL62-.LVL61
	.uleb128 .LVL64-.LVL61
	.uleb128 0x1
	.byte	0x50
	.byte	0x4
	.uleb128 .LVL64-.LVL61
	.uleb128 .LVL65-.LVL61
	.uleb128 0x3
	.byte	0x70
	.sleb128 1
	.byte	0x9f
	.byte	0x4
	.uleb128 .LVL67-.LVL61
	.uleb128 .LVL68-.LVL61
	.uleb128 0x2
	.byte	0x30
	.byte	0x9f
	.byte	0x4
	.uleb128 .LVL68-.LVL61
	.uleb128 .LVL69-.LVL61
	.uleb128 0x1
	.byte	0x50
	.byte	0x4
	.uleb128 .LVL69-.LVL61
	.uleb128 .LVL70-.LVL61
	.uleb128 0x3
	.byte	0x70
	.sleb128 1
	.byte	0x9f
	.byte	0
.LVUS256:
	.uleb128 .LVU221
	.uleb128 .LVU243
	.uleb128 .LVU243
	.uleb128 .LVU259
	.uleb128 .LVU1318
	.uleb128 .LVU1320
	.uleb128 .LVU1560
	.uleb128 .LVU1562
.LLST256:
	.byte	0x6
	.quad	.LVL45
	.byte	0x4
	.uleb128 .LVL45-.LVL45
	.uleb128 .LVL48-.LVL45
	.uleb128 0x1
	.byte	0x53
	.byte	0x4
	.uleb128 .LVL48-.LVL45
	.uleb128 .LVL52-.LVL45
	.uleb128 0xa
	.byte	0x77
	.sleb128 256
	.byte	0x6
	.byte	0x23
	.uleb128 0x1
	.byte	0x7f
	.sleb128 0
	.byte	0x1e
	.byte	0x9f
	.byte	0x4
	.uleb128 .LVL220-.LVL45
	.uleb128 .LVL220-.LVL45
	.uleb128 0x1
	.byte	0x53
	.byte	0x8
	.quad	.LVL280
	.uleb128 .LVL281-.LVL280
	.uleb128 0x1
	.byte	0x53
	.byte	0
.LVUS260:
	.uleb128 .LVU222
	.uleb128 .LVU229
	.uleb128 .LVU1560
	.uleb128 .LVU1562
.LLST260:
	.byte	0x8
	.quad	.LVL45
	.uleb128 .LVL46-.LVL45
	.uleb128 0x1
	.byte	0x53
	.byte	0x8
	.quad	.LVL280
	.uleb128 .LVL281-.LVL280
	.uleb128 0x1
	.byte	0x53
	.byte	0
.LVUS265:
	.uleb128 .LVU229
	.uleb128 .LVU243
	.uleb128 .LVU243
	.uleb128 .LVU244
.LLST265:
	.byte	0x6
	.quad	.LVL46
	.byte	0x4
	.uleb128 .LVL46-.LVL46
	.uleb128 .LVL48-.LVL46
	.uleb128 0x1
	.byte	0x53
	.byte	0x4
	.uleb128 .LVL48-.LVL46
	.uleb128 .LVL50-.LVL46
	.uleb128 0xa
	.byte	0x77
	.sleb128 256
	.byte	0x6
	.byte	0x23
	.uleb128 0x1
	.byte	0x7f
	.sleb128 0
	.byte	0x1e
	.byte	0x9f
	.byte	0
.LVUS271:
	.uleb128 .LVU236
	.uleb128 .LVU243
	.uleb128 .LVU243
	.uleb128 .LVU244
.LLST271:
	.byte	0x6
	.quad	.LVL46
	.byte	0x4
	.uleb128 .LVL46-.LVL46
	.uleb128 .LVL48-.LVL46
	.uleb128 0x1
	.byte	0x53
	.byte	0x4
	.uleb128 .LVL48-.LVL46
	.uleb128 .LVL50-.LVL46
	.uleb128 0xa
	.byte	0x77
	.sleb128 256
	.byte	0x6
	.byte	0x23
	.uleb128 0x1
	.byte	0x7f
	.sleb128 0
	.byte	0x1e
	.byte	0x9f
	.byte	0
.LVUS273:
	.uleb128 .LVU238
	.uleb128 .LVU243
	.uleb128 .LVU243
	.uleb128 .LVU244
.LLST273:
	.byte	0x6
	.quad	.LVL46
	.byte	0x4
	.uleb128 .LVL46-.LVL46
	.uleb128 .LVL48-.LVL46
	.uleb128 0x1
	.byte	0x53
	.byte	0x4
	.uleb128 .LVL48-.LVL46
	.uleb128 .LVL50-.LVL46
	.uleb128 0xa
	.byte	0x77
	.sleb128 256
	.byte	0x6
	.byte	0x23
	.uleb128 0x1
	.byte	0x7f
	.sleb128 0
	.byte	0x1e
	.byte	0x9f
	.byte	0
.LVUS274:
	.uleb128 .LVU240
	.uleb128 .LVU243
	.uleb128 .LVU243
	.uleb128 .LVU244
.LLST274:
	.byte	0x6
	.quad	.LVL47
	.byte	0x4
	.uleb128 .LVL47-.LVL47
	.uleb128 .LVL48-.LVL47
	.uleb128 0x1
	.byte	0x53
	.byte	0x4
	.uleb128 .LVL48-.LVL47
	.uleb128 .LVL50-.LVL47
	.uleb128 0xa
	.byte	0x77
	.sleb128 256
	.byte	0x6
	.byte	0x23
	.uleb128 0x1
	.byte	0x7f
	.sleb128 0
	.byte	0x1e
	.byte	0x9f
	.byte	0
.LVUS275:
	.uleb128 .LVU242
	.uleb128 .LVU244
.LLST275:
	.byte	0x8
	.quad	.LVL47
	.uleb128 .LVL50-.LVL47
	.uleb128 0x2
	.byte	0x30
	.byte	0x9f
	.byte	0
.LVUS276:
	.uleb128 .LVU241
	.uleb128 .LVU243
	.uleb128 .LVU243
	.uleb128 .LVU244
.LLST276:
	.byte	0x6
	.quad	.LVL47
	.byte	0x4
	.uleb128 .LVL47-.LVL47
	.uleb128 .LVL48-.LVL47
	.uleb128 0x1
	.byte	0x53
	.byte	0x4
	.uleb128 .LVL48-.LVL47
	.uleb128 .LVL50-.LVL47
	.uleb128 0xa
	.byte	0x77
	.sleb128 256
	.byte	0x6
	.byte	0x23
	.uleb128 0x1
	.byte	0x7f
	.sleb128 0
	.byte	0x1e
	.byte	0x9f
	.byte	0
.LVUS278:
	.uleb128 .LVU244
	.uleb128 .LVU257
.LLST278:
	.byte	0x8
	.quad	.LVL50
	.uleb128 .LVL52-.LVL50
	.uleb128 0x1
	.byte	0x53
	.byte	0
.LVUS280:
	.uleb128 .LVU246
	.uleb128 .LVU254
.LLST280:
	.byte	0x8
	.quad	.LVL50
	.uleb128 .LVL51-1-.LVL50
	.uleb128 0x1
	.byte	0x50
	.byte	0
.LVUS281:
	.uleb128 .LVU246
	.uleb128 .LVU257
.LLST281:
	.byte	0x8
	.quad	.LVL50
	.uleb128 .LVL52-.LVL50
	.uleb128 0x1
	.byte	0x53
	.byte	0
.LVUS283:
	.uleb128 .LVU247
	.uleb128 .LVU254
.LLST283:
	.byte	0x8
	.quad	.LVL50
	.uleb128 .LVL51-1-.LVL50
	.uleb128 0x1
	.byte	0x50
	.byte	0
.LVUS284:
	.uleb128 .LVU247
	.uleb128 .LVU257
.LLST284:
	.byte	0x8
	.quad	.LVL50
	.uleb128 .LVL52-.LVL50
	.uleb128 0x1
	.byte	0x53
	.byte	0
.LVUS287:
	.uleb128 .LVU248
	.uleb128 .LVU254
.LLST287:
	.byte	0x8
	.quad	.LVL50
	.uleb128 .LVL51-1-.LVL50
	.uleb128 0x1
	.byte	0x50
	.byte	0
.LVUS288:
	.uleb128 .LVU248
	.uleb128 .LVU253
	.uleb128 .LVU253
	.uleb128 .LVU257
.LLST288:
	.byte	0x6
	.quad	.LVL50
	.byte	0x4
	.uleb128 .LVL50-.LVL50
	.uleb128 .LVL50-.LVL50
	.uleb128 0x1
	.byte	0x53
	.byte	0x4
	.uleb128 .LVL50-.LVL50
	.uleb128 .LVL52-.LVL50
	.uleb128 0x3
	.byte	0x73
	.sleb128 -1
	.byte	0x9f
	.byte	0
.LVUS290:
	.uleb128 .LVU249
	.uleb128 .LVU250
.LLST290:
	.byte	0x8
	.quad	.LVL50
	.uleb128 .LVL50-.LVL50
	.uleb128 0x6
	.byte	0xa0
	.long	.Ldebug_info0+56963
	.sleb128 0
	.byte	0
.LVUS291:
	.uleb128 .LVU249
	.uleb128 .LVU250
.LLST291:
	.byte	0x8
	.quad	.LVL50
	.uleb128 .LVL50-.LVL50
	.uleb128 0x6
	.byte	0xa0
	.long	.Ldebug_info0+56932
	.sleb128 0
	.byte	0
.LVUS294:
	.uleb128 .LVU257
	.uleb128 .LVU259
	.uleb128 .LVU1318
	.uleb128 .LVU1320
.LLST294:
	.byte	0x8
	.quad	.LVL52
	.uleb128 .LVL52-.LVL52
	.uleb128 0x6
	.byte	0xa0
	.long	.Ldebug_info0+56963
	.sleb128 0
	.byte	0x8
	.quad	.LVL220
	.uleb128 .LVL220-.LVL220
	.uleb128 0x6
	.byte	0xa0
	.long	.Ldebug_info0+56963
	.sleb128 0
	.byte	0
.LVUS319:
	.uleb128 .LVU351
	.uleb128 .LVU353
.LLST319:
	.byte	0x8
	.quad	.LVL73
	.uleb128 .LVL74-.LVL73
	.uleb128 0x5
	.byte	0x73
	.sleb128 0
	.byte	0x34
	.byte	0x1b
	.byte	0x9f
	.byte	0
.LVUS320:
	.uleb128 .LVU351
	.uleb128 .LVU353
.LLST320:
	.byte	0x8
	.quad	.LVL73
	.uleb128 .LVL74-.LVL73
	.uleb128 0x1
	.byte	0x55
	.byte	0
.LVUS322:
	.uleb128 .LVU353
	.uleb128 .LVU356
.LLST322:
	.byte	0x8
	.quad	.LVL74
	.uleb128 .LVL75-1-.LVL74
	.uleb128 0x1
	.byte	0x55
	.byte	0
.LVUS323:
	.uleb128 .LVU354
	.uleb128 .LVU356
.LLST323:
	.byte	0x8
	.quad	.LVL74
	.uleb128 .LVL75-1-.LVL74
	.uleb128 0x1
	.byte	0x55
	.byte	0
.LVUS383:
	.uleb128 .LVU406
	.uleb128 .LVU415
	.uleb128 .LVU418
	.uleb128 .LVU428
	.uleb128 .LVU428
	.uleb128 .LVU1239
	.uleb128 .LVU1239
	.uleb128 .LVU1240
	.uleb128 .LVU1294
	.uleb128 .LVU1318
.LLST383:
	.byte	0x6
	.quad	.LVL78
	.byte	0x4
	.uleb128 .LVL78-.LVL78
	.uleb128 .LVL79-.LVL78
	.uleb128 0x2
	.byte	0x30
	.byte	0x9f
	.byte	0x4
	.uleb128 .LVL80-.LVL78
	.uleb128 .LVL81-.LVL78
	.uleb128 0x1
	.byte	0x55
	.byte	0x4
	.uleb128 .LVL81-.LVL78
	.uleb128 .LVL203-.LVL78
	.uleb128 0x3
	.byte	0x77
	.sleb128 80
	.byte	0x4
	.uleb128 .LVL203-.LVL78
	.uleb128 .LVL204-.LVL78
	.uleb128 0x8
	.byte	0x77
	.sleb128 80
	.byte	0x94
	.byte	0x4
	.byte	0x23
	.uleb128 0x8
	.byte	0x9f
	.byte	0x4
	.uleb128 .LVL213-.LVL78
	.uleb128 .LVL220-.LVL78
	.uleb128 0x3
	.byte	0x77
	.sleb128 80
	.byte	0
.LVUS386:
	.uleb128 .LVU423
	.uleb128 .LVU428
	.uleb128 .LVU430
	.uleb128 .LVU465
.LLST386:
	.byte	0x6
	.quad	.LVL80
	.byte	0x4
	.uleb128 .LVL80-.LVL80
	.uleb128 .LVL81-.LVL80
	.uleb128 0x2
	.byte	0x30
	.byte	0x9f
	.byte	0x4
	.uleb128 .LVL82-.LVL80
	.uleb128 .LVL89-.LVL80
	.uleb128 0x1
	.byte	0x5c
	.byte	0
.LVUS388:
	.uleb128 .LVU439
	.uleb128 .LVU461
	.uleb128 .LVU461
	.uleb128 .LVU462
	.uleb128 .LVU462
	.uleb128 .LVU465
.LLST388:
	.byte	0x6
	.quad	.LVL84
	.byte	0x4
	.uleb128 .LVL84-.LVL84
	.uleb128 .LVL87-1-.LVL84
	.uleb128 0x1
	.byte	0x52
	.byte	0x4
	.uleb128 .LVL87-1-.LVL84
	.uleb128 .LVL88-.LVL84
	.uleb128 0x3
	.byte	0x77
	.sleb128 272
	.byte	0x4
	.uleb128 .LVL88-.LVL84
	.uleb128 .LVL89-.LVL84
	.uleb128 0x6
	.byte	0x7e
	.sleb128 0
	.byte	0x7c
	.sleb128 0
	.byte	0x1c
	.byte	0x9f
	.byte	0
.LVUS389:
	.uleb128 .LVU442
	.uleb128 .LVU461
	.uleb128 .LVU461
	.uleb128 .LVU462
	.uleb128 .LVU462
	.uleb128 .LVU465
.LLST389:
	.byte	0x6
	.quad	.LVL85
	.byte	0x4
	.uleb128 .LVL85-.LVL85
	.uleb128 .LVL87-1-.LVL85
	.uleb128 0x5
	.byte	0x7b
	.sleb128 0
	.byte	0x33
	.byte	0x1e
	.byte	0x9f
	.byte	0x4
	.uleb128 .LVL87-1-.LVL85
	.uleb128 .LVL88-.LVL85
	.uleb128 0x7
	.byte	0x77
	.sleb128 280
	.byte	0x6
	.byte	0x33
	.byte	0x1e
	.byte	0x9f
	.byte	0x4
	.uleb128 .LVL88-.LVL85
	.uleb128 .LVL89-.LVL85
	.uleb128 0xe
	.byte	0x7e
	.sleb128 0
	.byte	0x7c
	.sleb128 0
	.byte	0x1c
	.byte	0x8
	.byte	0x20
	.byte	0x24
	.byte	0x8
	.byte	0x20
	.byte	0x26
	.byte	0x33
	.byte	0x1e
	.byte	0x9f
	.byte	0
.LVUS391:
	.uleb128 .LVU465
	.uleb128 .LVU535
	.uleb128 .LVU535
	.uleb128 .LVU1165
	.uleb128 .LVU1294
	.uleb128 .LVU1318
.LLST391:
	.byte	0x6
	.quad	.LVL89
	.byte	0x4
	.uleb128 .LVL89-.LVL89
	.uleb128 .LVL100-.LVL89
	.uleb128 0x1
	.byte	0x51
	.byte	0x4
	.uleb128 .LVL100-.LVL89
	.uleb128 .LVL190-.LVL89
	.uleb128 0x3
	.byte	0x77
	.sleb128 136
	.byte	0x4
	.uleb128 .LVL213-.LVL89
	.uleb128 .LVL220-.LVL89
	.uleb128 0x3
	.byte	0x77
	.sleb128 136
	.byte	0
.LVUS393:
	.uleb128 .LVU508
	.uleb128 .LVU1165
	.uleb128 .LVU1294
	.uleb128 .LVU1318
.LLST393:
	.byte	0x6
	.quad	.LVL95
	.byte	0x4
	.uleb128 .LVL95-.LVL95
	.uleb128 .LVL190-.LVL95
	.uleb128 0x1
	.byte	0x64
	.byte	0x4
	.uleb128 .LVL213-.LVL95
	.uleb128 .LVL220-.LVL95
	.uleb128 0x1
	.byte	0x64
	.byte	0
.LVUS394:
	.uleb128 .LVU519
	.uleb128 .LVU1165
	.uleb128 .LVU1294
	.uleb128 .LVU1318
.LLST394:
	.byte	0x6
	.quad	.LVL97
	.byte	0x4
	.uleb128 .LVL97-.LVL97
	.uleb128 .LVL190-.LVL97
	.uleb128 0x1
	.byte	0x63
	.byte	0x4
	.uleb128 .LVL213-.LVL97
	.uleb128 .LVL220-.LVL97
	.uleb128 0x1
	.byte	0x63
	.byte	0
.LVUS395:
	.uleb128 .LVU525
	.uleb128 .LVU1165
	.uleb128 .LVU1294
	.uleb128 .LVU1318
.LLST395:
	.byte	0x6
	.quad	.LVL98
	.byte	0x4
	.uleb128 .LVL98-.LVL98
	.uleb128 .LVL190-.LVL98
	.uleb128 0x1
	.byte	0x62
	.byte	0x4
	.uleb128 .LVL213-.LVL98
	.uleb128 .LVL220-.LVL98
	.uleb128 0x1
	.byte	0x62
	.byte	0
.LVUS396:
	.uleb128 .LVU530
	.uleb128 .LVU1165
	.uleb128 .LVU1294
	.uleb128 .LVU1318
.LLST396:
	.byte	0x6
	.quad	.LVL99
	.byte	0x4
	.uleb128 .LVL99-.LVL99
	.uleb128 .LVL190-.LVL99
	.uleb128 0x1
	.byte	0x61
	.byte	0x4
	.uleb128 .LVL213-.LVL99
	.uleb128 .LVL220-.LVL99
	.uleb128 0x1
	.byte	0x61
	.byte	0
.LVUS398:
	.uleb128 .LVU535
	.uleb128 .LVU1159
	.uleb128 .LVU1164
	.uleb128 .LVU1165
	.uleb128 .LVU1294
	.uleb128 .LVU1318
.LLST398:
	.byte	0x6
	.quad	.LVL100
	.byte	0x4
	.uleb128 .LVL100-.LVL100
	.uleb128 .LVL185-.LVL100
	.uleb128 0x3
	.byte	0x77
	.sleb128 280
	.byte	0x4
	.uleb128 .LVL189-.LVL100
	.uleb128 .LVL190-.LVL100
	.uleb128 0x1
	.byte	0x50
	.byte	0x4
	.uleb128 .LVL213-.LVL100
	.uleb128 .LVL220-.LVL100
	.uleb128 0x3
	.byte	0x77
	.sleb128 280
	.byte	0
.LVUS400:
	.uleb128 .LVU537
	.uleb128 .LVU1161
	.uleb128 .LVU1294
	.uleb128 .LVU1318
.LLST400:
	.byte	0x6
	.quad	.LVL100
	.byte	0x4
	.uleb128 .LVL100-.LVL100
	.uleb128 .LVL187-.LVL100
	.uleb128 0x1
	.byte	0x52
	.byte	0x4
	.uleb128 .LVL213-.LVL100
	.uleb128 .LVL220-.LVL100
	.uleb128 0x1
	.byte	0x52
	.byte	0
.LVUS401:
	.uleb128 .LVU538
	.uleb128 .LVU1162
	.uleb128 .LVU1294
	.uleb128 .LVU1318
.LLST401:
	.byte	0x6
	.quad	.LVL100
	.byte	0x4
	.uleb128 .LVL100-.LVL100
	.uleb128 .LVL188-.LVL100
	.uleb128 0x1
	.byte	0x5e
	.byte	0x4
	.uleb128 .LVL213-.LVL100
	.uleb128 .LVL220-.LVL100
	.uleb128 0x1
	.byte	0x5e
	.byte	0
.LVUS402:
	.uleb128 .LVU539
	.uleb128 .LVU1160
	.uleb128 .LVU1294
	.uleb128 .LVU1318
.LLST402:
	.byte	0x6
	.quad	.LVL100
	.byte	0x4
	.uleb128 .LVL100-.LVL100
	.uleb128 .LVL186-.LVL100
	.uleb128 0x1
	.byte	0x5f
	.byte	0x4
	.uleb128 .LVL213-.LVL100
	.uleb128 .LVL220-.LVL100
	.uleb128 0x1
	.byte	0x5f
	.byte	0
.LVUS403:
	.uleb128 .LVU541
	.uleb128 .LVU542
	.uleb128 .LVU846
	.uleb128 .LVU854
	.uleb128 .LVU1309
	.uleb128 .LVU1313
	.uleb128 .LVU1316
	.uleb128 .LVU1318
.LLST403:
	.byte	0x6
	.quad	.LVL100
	.byte	0x4
	.uleb128 .LVL100-.LVL100
	.uleb128 .LVL101-.LVL100
	.uleb128 0x2
	.byte	0x30
	.byte	0x9f
	.byte	0x4
	.uleb128 .LVL130-.LVL100
	.uleb128 .LVL131-.LVL100
	.uleb128 0x3
	.byte	0x77
	.sleb128 256
	.byte	0x4
	.uleb128 .LVL217-.LVL100
	.uleb128 .LVL218-.LVL100
	.uleb128 0x2
	.byte	0x30
	.byte	0x9f
	.byte	0x4
	.uleb128 .LVL219-.LVL100
	.uleb128 .LVL220-.LVL100
	.uleb128 0x2
	.byte	0x30
	.byte	0x9f
	.byte	0
.LVUS457:
	.uleb128 .LVU566
	.uleb128 .LVU600
.LLST457:
	.byte	0x8
	.quad	.LVL104
	.uleb128 .LVL106-.LVL104
	.uleb128 0x2
	.byte	0x90
	.uleb128 0x49
	.byte	0
.LVUS458:
	.uleb128 .LVU583
	.uleb128 .LVU601
.LLST458:
	.byte	0x8
	.quad	.LVL105
	.uleb128 .LVL107-.LVL105
	.uleb128 0x2
	.byte	0x90
	.uleb128 0x48
	.byte	0
.LVUS459:
	.uleb128 .LVU603
	.uleb128 .LVU701
.LLST459:
	.byte	0x8
	.quad	.LVL108
	.uleb128 .LVL110-.LVL108
	.uleb128 0x2
	.byte	0x90
	.uleb128 0x20
	.byte	0
.LVUS460:
	.uleb128 .LVU620
	.uleb128 .LVU706
.LLST460:
	.byte	0x8
	.quad	.LVL109
	.uleb128 .LVL111-.LVL109
	.uleb128 0x1
	.byte	0x6f
	.byte	0
.LVUS461:
	.uleb128 .LVU635
	.uleb128 .LVU711
.LLST461:
	.byte	0x8
	.quad	.LVL109
	.uleb128 .LVL112-.LVL109
	.uleb128 0x1
	.byte	0x69
	.byte	0
.LVUS462:
	.uleb128 .LVU650
	.uleb128 .LVU716
.LLST462:
	.byte	0x8
	.quad	.LVL109
	.uleb128 .LVL113-.LVL109
	.uleb128 0x1
	.byte	0x68
	.byte	0
.LVUS463:
	.uleb128 .LVU665
	.uleb128 .LVU721
.LLST463:
	.byte	0x8
	.quad	.LVL109
	.uleb128 .LVL114-.LVL109
	.uleb128 0x1
	.byte	0x67
	.byte	0
.LVUS464:
	.uleb128 .LVU680
	.uleb128 .LVU726
.LLST464:
	.byte	0x8
	.quad	.LVL109
	.uleb128 .LVL115-.LVL109
	.uleb128 0x1
	.byte	0x66
	.byte	0
.LVUS465:
	.uleb128 .LVU692
	.uleb128 .LVU701
	.uleb128 .LVU701
	.uleb128 .LVU711
	.uleb128 .LVU711
	.uleb128 .LVU721
	.uleb128 .LVU721
	.uleb128 .LVU745
.LLST465:
	.byte	0x6
	.quad	.LVL109
	.byte	0x4
	.uleb128 .LVL109-.LVL109
	.uleb128 .LVL110-.LVL109
	.uleb128 0x2
	.byte	0x90
	.uleb128 0x49
	.byte	0x4
	.uleb128 .LVL110-.LVL109
	.uleb128 .LVL112-.LVL109
	.uleb128 0x2
	.byte	0x90
	.uleb128 0x20
	.byte	0x4
	.uleb128 .LVL112-.LVL109
	.uleb128 .LVL114-.LVL109
	.uleb128 0x1
	.byte	0x69
	.byte	0x4
	.uleb128 .LVL114-.LVL109
	.uleb128 .LVL120-.LVL109
	.uleb128 0x1
	.byte	0x67
	.byte	0
.LVUS466:
	.uleb128 .LVU696
	.uleb128 .LVU706
	.uleb128 .LVU706
	.uleb128 .LVU716
	.uleb128 .LVU716
	.uleb128 .LVU726
	.uleb128 .LVU726
	.uleb128 .LVU745
.LLST466:
	.byte	0x6
	.quad	.LVL109
	.byte	0x4
	.uleb128 .LVL109-.LVL109
	.uleb128 .LVL111-.LVL109
	.uleb128 0x2
	.byte	0x90
	.uleb128 0x48
	.byte	0x4
	.uleb128 .LVL111-.LVL109
	.uleb128 .LVL113-.LVL109
	.uleb128 0x1
	.byte	0x6f
	.byte	0x4
	.uleb128 .LVL113-.LVL109
	.uleb128 .LVL115-.LVL109
	.uleb128 0x1
	.byte	0x68
	.byte	0x4
	.uleb128 .LVL115-.LVL109
	.uleb128 .LVL120-.LVL109
	.uleb128 0x1
	.byte	0x66
	.byte	0
.LVUS469:
	.uleb128 .LVU549
	.uleb128 .LVU553
.LLST469:
	.byte	0x8
	.quad	.LVL102
	.uleb128 .LVL102-.LVL102
	.uleb128 0x5
	.byte	0x74
	.sleb128 0
	.byte	0x72
	.sleb128 0
	.byte	0x22
	.byte	0
.LVUS470:
	.uleb128 .LVU551
	.uleb128 .LVU553
.LLST470:
	.byte	0x8
	.quad	.LVL102
	.uleb128 .LVL102-.LVL102
	.uleb128 0x2
	.byte	0x30
	.byte	0x9f
	.byte	0
.LVUS471:
	.uleb128 .LVU551
	.uleb128 .LVU553
.LLST471:
	.byte	0x8
	.quad	.LVL102
	.uleb128 .LVL102-.LVL102
	.uleb128 0x5
	.byte	0x74
	.sleb128 0
	.byte	0x72
	.sleb128 0
	.byte	0x22
	.byte	0
.LVUS474:
	.uleb128 .LVU559
	.uleb128 .LVU566
.LLST474:
	.byte	0x8
	.quad	.LVL103
	.uleb128 .LVL104-.LVL103
	.uleb128 0x2
	.byte	0x90
	.uleb128 0x49
	.byte	0
.LVUS478:
	.uleb128 .LVU628
	.uleb128 .LVU630
.LLST478:
	.byte	0x8
	.quad	.LVL109
	.uleb128 .LVL109-.LVL109
	.uleb128 0x2
	.byte	0x30
	.byte	0x9f
	.byte	0
.LVUS482:
	.uleb128 .LVU643
	.uleb128 .LVU645
.LLST482:
	.byte	0x8
	.quad	.LVL109
	.uleb128 .LVL109-.LVL109
	.uleb128 0x2
	.byte	0x30
	.byte	0x9f
	.byte	0
.LVUS486:
	.uleb128 .LVU658
	.uleb128 .LVU660
.LLST486:
	.byte	0x8
	.quad	.LVL109
	.uleb128 .LVL109-.LVL109
	.uleb128 0x2
	.byte	0x30
	.byte	0x9f
	.byte	0
.LVUS490:
	.uleb128 .LVU673
	.uleb128 .LVU675
.LLST490:
	.byte	0x8
	.quad	.LVL109
	.uleb128 .LVL109-.LVL109
	.uleb128 0x2
	.byte	0x30
	.byte	0x9f
	.byte	0
.LVUS493:
	.uleb128 .LVU572
	.uleb128 .LVU576
.LLST493:
	.byte	0x8
	.quad	.LVL104
	.uleb128 .LVL104-.LVL104
	.uleb128 0x7
	.byte	0x74
	.sleb128 0
	.byte	0x72
	.sleb128 0
	.byte	0x22
	.byte	0x23
	.uleb128 0x8
	.byte	0
.LVUS494:
	.uleb128 .LVU574
	.uleb128 .LVU576
.LLST494:
	.byte	0x8
	.quad	.LVL104
	.uleb128 .LVL104-.LVL104
	.uleb128 0x2
	.byte	0x30
	.byte	0x9f
	.byte	0
.LVUS495:
	.uleb128 .LVU574
	.uleb128 .LVU576
.LLST495:
	.byte	0x8
	.quad	.LVL104
	.uleb128 .LVL104-.LVL104
	.uleb128 0x7
	.byte	0x74
	.sleb128 0
	.byte	0x72
	.sleb128 0
	.byte	0x22
	.byte	0x23
	.uleb128 0x8
	.byte	0
.LVUS496:
	.uleb128 .LVU579
	.uleb128 .LVU583
.LLST496:
	.byte	0x8
	.quad	.LVL104
	.uleb128 .LVL105-.LVL104
	.uleb128 0x2
	.byte	0x90
	.uleb128 0x48
	.byte	0
.LVUS499:
	.uleb128 .LVU589
	.uleb128 .LVU593
.LLST499:
	.byte	0x8
	.quad	.LVL105
	.uleb128 .LVL105-.LVL105
	.uleb128 0x7
	.byte	0x74
	.sleb128 0
	.byte	0x72
	.sleb128 0
	.byte	0x22
	.byte	0x23
	.uleb128 0x3
	.byte	0
.LVUS500:
	.uleb128 .LVU591
	.uleb128 .LVU593
.LLST500:
	.byte	0x8
	.quad	.LVL105
	.uleb128 .LVL105-.LVL105
	.uleb128 0x2
	.byte	0x30
	.byte	0x9f
	.byte	0
.LVUS501:
	.uleb128 .LVU591
	.uleb128 .LVU593
.LLST501:
	.byte	0x8
	.quad	.LVL105
	.uleb128 .LVL105-.LVL105
	.uleb128 0x7
	.byte	0x74
	.sleb128 0
	.byte	0x72
	.sleb128 0
	.byte	0x22
	.byte	0x23
	.uleb128 0x3
	.byte	0
.LVUS503:
	.uleb128 .LVU596
	.uleb128 .LVU603
.LLST503:
	.byte	0x8
	.quad	.LVL105
	.uleb128 .LVL108-.LVL105
	.uleb128 0x2
	.byte	0x90
	.uleb128 0x20
	.byte	0
.LVUS506:
	.uleb128 .LVU609
	.uleb128 .LVU613
.LLST506:
	.byte	0x8
	.quad	.LVL108
	.uleb128 .LVL108-.LVL108
	.uleb128 0x7
	.byte	0x74
	.sleb128 0
	.byte	0x72
	.sleb128 0
	.byte	0x22
	.byte	0x23
	.uleb128 0xb
	.byte	0
.LVUS507:
	.uleb128 .LVU611
	.uleb128 .LVU613
.LLST507:
	.byte	0x8
	.quad	.LVL108
	.uleb128 .LVL108-.LVL108
	.uleb128 0x2
	.byte	0x30
	.byte	0x9f
	.byte	0
.LVUS508:
	.uleb128 .LVU611
	.uleb128 .LVU613
.LLST508:
	.byte	0x8
	.quad	.LVL108
	.uleb128 .LVL108-.LVL108
	.uleb128 0x7
	.byte	0x74
	.sleb128 0
	.byte	0x72
	.sleb128 0
	.byte	0x22
	.byte	0x23
	.uleb128 0xb
	.byte	0
.LVUS509:
	.uleb128 .LVU616
	.uleb128 .LVU620
.LLST509:
	.byte	0x8
	.quad	.LVL108
	.uleb128 .LVL109-.LVL108
	.uleb128 0x1
	.byte	0x6f
	.byte	0
.LVUS511:
	.uleb128 .LVU690
	.uleb128 .LVU692
.LLST511:
	.byte	0x8
	.quad	.LVL109
	.uleb128 .LVL109-.LVL109
	.uleb128 0x1
	.byte	0x64
	.byte	0
.LVUS513:
	.uleb128 .LVU694
	.uleb128 .LVU696
.LLST513:
	.byte	0x8
	.quad	.LVL109
	.uleb128 .LVL109-.LVL109
	.uleb128 0x1
	.byte	0x64
	.byte	0
.LVUS514:
	.uleb128 .LVU698
	.uleb128 .LVU701
.LLST514:
	.byte	0x8
	.quad	.LVL109
	.uleb128 .LVL110-.LVL109
	.uleb128 0x1
	.byte	0x63
	.byte	0
.LVUS515:
	.uleb128 .LVU698
	.uleb128 .LVU701
.LLST515:
	.byte	0x8
	.quad	.LVL109
	.uleb128 .LVL110-.LVL109
	.uleb128 0x2
	.byte	0x90
	.uleb128 0x20
	.byte	0
.LVUS516:
	.uleb128 .LVU698
	.uleb128 .LVU701
.LLST516:
	.byte	0x8
	.quad	.LVL109
	.uleb128 .LVL110-.LVL109
	.uleb128 0x2
	.byte	0x90
	.uleb128 0x49
	.byte	0
.LVUS517:
	.uleb128 .LVU703
	.uleb128 .LVU706
.LLST517:
	.byte	0x8
	.quad	.LVL110
	.uleb128 .LVL111-.LVL110
	.uleb128 0x1
	.byte	0x63
	.byte	0
.LVUS518:
	.uleb128 .LVU703
	.uleb128 .LVU706
.LLST518:
	.byte	0x8
	.quad	.LVL110
	.uleb128 .LVL111-.LVL110
	.uleb128 0x1
	.byte	0x6f
	.byte	0
.LVUS519:
	.uleb128 .LVU703
	.uleb128 .LVU706
.LLST519:
	.byte	0x8
	.quad	.LVL110
	.uleb128 .LVL111-.LVL110
	.uleb128 0x2
	.byte	0x90
	.uleb128 0x48
	.byte	0
.LVUS520:
	.uleb128 .LVU708
	.uleb128 .LVU711
.LLST520:
	.byte	0x8
	.quad	.LVL111
	.uleb128 .LVL112-.LVL111
	.uleb128 0x1
	.byte	0x62
	.byte	0
.LVUS521:
	.uleb128 .LVU708
	.uleb128 .LVU711
.LLST521:
	.byte	0x8
	.quad	.LVL111
	.uleb128 .LVL112-.LVL111
	.uleb128 0x1
	.byte	0x69
	.byte	0
.LVUS522:
	.uleb128 .LVU708
	.uleb128 .LVU711
.LLST522:
	.byte	0x8
	.quad	.LVL111
	.uleb128 .LVL112-.LVL111
	.uleb128 0x2
	.byte	0x90
	.uleb128 0x20
	.byte	0
.LVUS523:
	.uleb128 .LVU713
	.uleb128 .LVU716
.LLST523:
	.byte	0x8
	.quad	.LVL112
	.uleb128 .LVL113-.LVL112
	.uleb128 0x1
	.byte	0x62
	.byte	0
.LVUS524:
	.uleb128 .LVU713
	.uleb128 .LVU716
.LLST524:
	.byte	0x8
	.quad	.LVL112
	.uleb128 .LVL113-.LVL112
	.uleb128 0x1
	.byte	0x68
	.byte	0
.LVUS525:
	.uleb128 .LVU713
	.uleb128 .LVU716
.LLST525:
	.byte	0x8
	.quad	.LVL112
	.uleb128 .LVL113-.LVL112
	.uleb128 0x1
	.byte	0x6f
	.byte	0
.LVUS526:
	.uleb128 .LVU718
	.uleb128 .LVU721
.LLST526:
	.byte	0x8
	.quad	.LVL113
	.uleb128 .LVL114-.LVL113
	.uleb128 0x1
	.byte	0x61
	.byte	0
.LVUS527:
	.uleb128 .LVU718
	.uleb128 .LVU721
.LLST527:
	.byte	0x8
	.quad	.LVL113
	.uleb128 .LVL114-.LVL113
	.uleb128 0x1
	.byte	0x67
	.byte	0
.LVUS528:
	.uleb128 .LVU718
	.uleb128 .LVU721
.LLST528:
	.byte	0x8
	.quad	.LVL113
	.uleb128 .LVL114-.LVL113
	.uleb128 0x1
	.byte	0x69
	.byte	0
.LVUS529:
	.uleb128 .LVU723
	.uleb128 .LVU726
.LLST529:
	.byte	0x8
	.quad	.LVL114
	.uleb128 .LVL115-.LVL114
	.uleb128 0x1
	.byte	0x61
	.byte	0
.LVUS530:
	.uleb128 .LVU723
	.uleb128 .LVU726
.LLST530:
	.byte	0x8
	.quad	.LVL114
	.uleb128 .LVL115-.LVL114
	.uleb128 0x1
	.byte	0x66
	.byte	0
.LVUS531:
	.uleb128 .LVU723
	.uleb128 .LVU726
.LLST531:
	.byte	0x8
	.quad	.LVL114
	.uleb128 .LVL115-.LVL114
	.uleb128 0x1
	.byte	0x68
	.byte	0
.LVUS532:
	.uleb128 .LVU728
	.uleb128 .LVU731
.LLST532:
	.byte	0x8
	.quad	.LVL115
	.uleb128 .LVL116-.LVL115
	.uleb128 0x1
	.byte	0x67
	.byte	0
.LVUS533:
	.uleb128 .LVU733
	.uleb128 .LVU736
.LLST533:
	.byte	0x8
	.quad	.LVL116
	.uleb128 .LVL117-.LVL116
	.uleb128 0x1
	.byte	0x66
	.byte	0
.LVUS405:
	.uleb128 .LVU763
	.uleb128 .LVU780
.LLST405:
	.byte	0x8
	.quad	.LVL122
	.uleb128 .LVL123-.LVL122
	.uleb128 0x1
	.byte	0x69
	.byte	0
.LVUS406:
	.uleb128 .LVU782
	.uleb128 .LVU829
.LLST406:
	.byte	0x8
	.quad	.LVL124
	.uleb128 .LVL127-.LVL124
	.uleb128 0x1
	.byte	0x68
	.byte	0
.LVUS407:
	.uleb128 .LVU799
	.uleb128 .LVU834
.LLST407:
	.byte	0x8
	.quad	.LVL125
	.uleb128 .LVL128-.LVL125
	.uleb128 0x1
	.byte	0x67
	.byte	0
.LVUS408:
	.uleb128 .LVU816
	.uleb128 .LVU839
.LLST408:
	.byte	0x8
	.quad	.LVL126
	.uleb128 .LVL129-.LVL126
	.uleb128 0x1
	.byte	0x66
	.byte	0
.LVUS409:
	.uleb128 .LVU820
	.uleb128 .LVU824
	.uleb128 .LVU824
	.uleb128 .LVU829
	.uleb128 .LVU829
	.uleb128 .LVU834
	.uleb128 .LVU834
	.uleb128 .LVU839
	.uleb128 .LVU839
	.uleb128 .LVU846
.LLST409:
	.byte	0x6
	.quad	.LVL126
	.byte	0x4
	.uleb128 .LVL126-.LVL126
	.uleb128 .LVL126-.LVL126
	.uleb128 0x2
	.byte	0x70
	.sleb128 0
	.byte	0x4
	.uleb128 .LVL126-.LVL126
	.uleb128 .LVL127-.LVL126
	.uleb128 0x1
	.byte	0x69
	.byte	0x4
	.uleb128 .LVL127-.LVL126
	.uleb128 .LVL128-.LVL126
	.uleb128 0x1
	.byte	0x68
	.byte	0x4
	.uleb128 .LVL128-.LVL126
	.uleb128 .LVL129-.LVL126
	.uleb128 0x1
	.byte	0x67
	.byte	0x4
	.uleb128 .LVL129-.LVL126
	.uleb128 .LVL130-.LVL126
	.uleb128 0x1
	.byte	0x66
	.byte	0
.LVUS411:
	.uleb128 .LVU746
	.uleb128 .LVU763
.LLST411:
	.byte	0x8
	.quad	.LVL120
	.uleb128 .LVL122-.LVL120
	.uleb128 0x6
	.byte	0x7c
	.sleb128 0
	.byte	0x74
	.sleb128 0
	.byte	0x22
	.byte	0x9f
	.byte	0
.LVUS412:
	.uleb128 .LVU748
	.uleb128 .LVU754
.LLST412:
	.byte	0x8
	.quad	.LVL120
	.uleb128 .LVL120-.LVL120
	.uleb128 0x6
	.byte	0x7c
	.sleb128 0
	.byte	0x74
	.sleb128 0
	.byte	0x22
	.byte	0x9f
	.byte	0
.LVUS413:
	.uleb128 .LVU750
	.uleb128 .LVU754
.LLST413:
	.byte	0x8
	.quad	.LVL120
	.uleb128 .LVL120-.LVL120
	.uleb128 0x5
	.byte	0x7c
	.sleb128 0
	.byte	0x74
	.sleb128 0
	.byte	0x22
	.byte	0
.LVUS414:
	.uleb128 .LVU752
	.uleb128 .LVU754
.LLST414:
	.byte	0x8
	.quad	.LVL120
	.uleb128 .LVL120-.LVL120
	.uleb128 0x2
	.byte	0x30
	.byte	0x9f
	.byte	0
.LVUS415:
	.uleb128 .LVU752
	.uleb128 .LVU754
.LLST415:
	.byte	0x8
	.quad	.LVL120
	.uleb128 .LVL120-.LVL120
	.uleb128 0x5
	.byte	0x7c
	.sleb128 0
	.byte	0x74
	.sleb128 0
	.byte	0x22
	.byte	0
.LVUS417:
	.uleb128 .LVU758
	.uleb128 .LVU763
.LLST417:
	.byte	0x8
	.quad	.LVL121
	.uleb128 .LVL122-.LVL121
	.uleb128 0x1
	.byte	0x69
	.byte	0
.LVUS419:
	.uleb128 .LVU765
	.uleb128 .LVU782
.LLST419:
	.byte	0x8
	.quad	.LVL122
	.uleb128 .LVL124-.LVL122
	.uleb128 0x8
	.byte	0x7c
	.sleb128 0
	.byte	0x74
	.sleb128 0
	.byte	0x22
	.byte	0x23
	.uleb128 0x3
	.byte	0x9f
	.byte	0
.LVUS421:
	.uleb128 .LVU767
	.uleb128 .LVU773
.LLST421:
	.byte	0x8
	.quad	.LVL122
	.uleb128 .LVL122-.LVL122
	.uleb128 0x8
	.byte	0x7c
	.sleb128 0
	.byte	0x74
	.sleb128 0
	.byte	0x22
	.byte	0x23
	.uleb128 0x3
	.byte	0x9f
	.byte	0
.LVUS422:
	.uleb128 .LVU769
	.uleb128 .LVU773
.LLST422:
	.byte	0x8
	.quad	.LVL122
	.uleb128 .LVL122-.LVL122
	.uleb128 0x7
	.byte	0x7c
	.sleb128 0
	.byte	0x74
	.sleb128 0
	.byte	0x22
	.byte	0x23
	.uleb128 0x3
	.byte	0
.LVUS423:
	.uleb128 .LVU771
	.uleb128 .LVU773
.LLST423:
	.byte	0x8
	.quad	.LVL122
	.uleb128 .LVL122-.LVL122
	.uleb128 0x2
	.byte	0x30
	.byte	0x9f
	.byte	0
.LVUS424:
	.uleb128 .LVU771
	.uleb128 .LVU773
.LLST424:
	.byte	0x8
	.quad	.LVL122
	.uleb128 .LVL122-.LVL122
	.uleb128 0x7
	.byte	0x7c
	.sleb128 0
	.byte	0x74
	.sleb128 0
	.byte	0x22
	.byte	0x23
	.uleb128 0x3
	.byte	0
.LVUS426:
	.uleb128 .LVU776
	.uleb128 .LVU782
.LLST426:
	.byte	0x8
	.quad	.LVL122
	.uleb128 .LVL124-.LVL122
	.uleb128 0x1
	.byte	0x68
	.byte	0
.LVUS428:
	.uleb128 .LVU784
	.uleb128 .LVU799
.LLST428:
	.byte	0x8
	.quad	.LVL124
	.uleb128 .LVL125-.LVL124
	.uleb128 0x6
	.byte	0x7c
	.sleb128 0
	.byte	0x71
	.sleb128 0
	.byte	0x22
	.byte	0x9f
	.byte	0
.LVUS430:
	.uleb128 .LVU786
	.uleb128 .LVU792
.LLST430:
	.byte	0x8
	.quad	.LVL124
	.uleb128 .LVL124-.LVL124
	.uleb128 0x6
	.byte	0x7c
	.sleb128 0
	.byte	0x71
	.sleb128 0
	.byte	0x22
	.byte	0x9f
	.byte	0
.LVUS431:
	.uleb128 .LVU788
	.uleb128 .LVU792
.LLST431:
	.byte	0x8
	.quad	.LVL124
	.uleb128 .LVL124-.LVL124
	.uleb128 0x5
	.byte	0x7c
	.sleb128 0
	.byte	0x71
	.sleb128 0
	.byte	0x22
	.byte	0
.LVUS432:
	.uleb128 .LVU790
	.uleb128 .LVU792
.LLST432:
	.byte	0x8
	.quad	.LVL124
	.uleb128 .LVL124-.LVL124
	.uleb128 0x2
	.byte	0x30
	.byte	0x9f
	.byte	0
.LVUS433:
	.uleb128 .LVU790
	.uleb128 .LVU792
.LLST433:
	.byte	0x8
	.quad	.LVL124
	.uleb128 .LVL124-.LVL124
	.uleb128 0x5
	.byte	0x7c
	.sleb128 0
	.byte	0x71
	.sleb128 0
	.byte	0x22
	.byte	0
.LVUS434:
	.uleb128 .LVU795
	.uleb128 .LVU799
.LLST434:
	.byte	0x8
	.quad	.LVL124
	.uleb128 .LVL125-.LVL124
	.uleb128 0x1
	.byte	0x67
	.byte	0
.LVUS436:
	.uleb128 .LVU801
	.uleb128 .LVU816
.LLST436:
	.byte	0x8
	.quad	.LVL125
	.uleb128 .LVL126-.LVL125
	.uleb128 0x8
	.byte	0x7c
	.sleb128 0
	.byte	0x71
	.sleb128 0
	.byte	0x22
	.byte	0x23
	.uleb128 0x3
	.byte	0x9f
	.byte	0
.LVUS438:
	.uleb128 .LVU803
	.uleb128 .LVU809
.LLST438:
	.byte	0x8
	.quad	.LVL125
	.uleb128 .LVL125-.LVL125
	.uleb128 0x8
	.byte	0x7c
	.sleb128 0
	.byte	0x71
	.sleb128 0
	.byte	0x22
	.byte	0x23
	.uleb128 0x3
	.byte	0x9f
	.byte	0
.LVUS439:
	.uleb128 .LVU805
	.uleb128 .LVU809
.LLST439:
	.byte	0x8
	.quad	.LVL125
	.uleb128 .LVL125-.LVL125
	.uleb128 0x7
	.byte	0x7c
	.sleb128 0
	.byte	0x71
	.sleb128 0
	.byte	0x22
	.byte	0x23
	.uleb128 0x3
	.byte	0
.LVUS440:
	.uleb128 .LVU807
	.uleb128 .LVU809
.LLST440:
	.byte	0x8
	.quad	.LVL125
	.uleb128 .LVL125-.LVL125
	.uleb128 0x2
	.byte	0x30
	.byte	0x9f
	.byte	0
.LVUS441:
	.uleb128 .LVU807
	.uleb128 .LVU809
.LLST441:
	.byte	0x8
	.quad	.LVL125
	.uleb128 .LVL125-.LVL125
	.uleb128 0x7
	.byte	0x7c
	.sleb128 0
	.byte	0x71
	.sleb128 0
	.byte	0x22
	.byte	0x23
	.uleb128 0x3
	.byte	0
.LVUS442:
	.uleb128 .LVU812
	.uleb128 .LVU816
.LLST442:
	.byte	0x8
	.quad	.LVL125
	.uleb128 .LVL126-.LVL125
	.uleb128 0x1
	.byte	0x66
	.byte	0
.LVUS444:
	.uleb128 .LVU822
	.uleb128 .LVU824
.LLST444:
	.byte	0x8
	.quad	.LVL126
	.uleb128 .LVL126-.LVL126
	.uleb128 0x1
	.byte	0x64
	.byte	0
.LVUS445:
	.uleb128 .LVU822
	.uleb128 .LVU824
.LLST445:
	.byte	0x8
	.quad	.LVL126
	.uleb128 .LVL126-.LVL126
	.uleb128 0x2
	.byte	0x70
	.sleb128 0
	.byte	0
.LVUS446:
	.uleb128 .LVU826
	.uleb128 .LVU829
.LLST446:
	.byte	0x8
	.quad	.LVL126
	.uleb128 .LVL127-.LVL126
	.uleb128 0x1
	.byte	0x63
	.byte	0
.LVUS447:
	.uleb128 .LVU826
	.uleb128 .LVU829
.LLST447:
	.byte	0x8
	.quad	.LVL126
	.uleb128 .LVL127-.LVL126
	.uleb128 0x1
	.byte	0x68
	.byte	0
.LVUS448:
	.uleb128 .LVU826
	.uleb128 .LVU829
.LLST448:
	.byte	0x8
	.quad	.LVL126
	.uleb128 .LVL127-.LVL126
	.uleb128 0x1
	.byte	0x69
	.byte	0
.LVUS449:
	.uleb128 .LVU831
	.uleb128 .LVU834
.LLST449:
	.byte	0x8
	.quad	.LVL127
	.uleb128 .LVL128-.LVL127
	.uleb128 0x1
	.byte	0x62
	.byte	0
.LVUS450:
	.uleb128 .LVU831
	.uleb128 .LVU834
.LLST450:
	.byte	0x8
	.quad	.LVL127
	.uleb128 .LVL128-.LVL127
	.uleb128 0x1
	.byte	0x67
	.byte	0
.LVUS451:
	.uleb128 .LVU831
	.uleb128 .LVU834
.LLST451:
	.byte	0x8
	.quad	.LVL127
	.uleb128 .LVL128-.LVL127
	.uleb128 0x1
	.byte	0x68
	.byte	0
.LVUS452:
	.uleb128 .LVU836
	.uleb128 .LVU839
.LLST452:
	.byte	0x8
	.quad	.LVL128
	.uleb128 .LVL129-.LVL128
	.uleb128 0x1
	.byte	0x61
	.byte	0
.LVUS453:
	.uleb128 .LVU836
	.uleb128 .LVU839
.LLST453:
	.byte	0x8
	.quad	.LVL128
	.uleb128 .LVL129-.LVL128
	.uleb128 0x1
	.byte	0x66
	.byte	0
.LVUS454:
	.uleb128 .LVU836
	.uleb128 .LVU839
.LLST454:
	.byte	0x8
	.quad	.LVL128
	.uleb128 .LVL129-.LVL128
	.uleb128 0x1
	.byte	0x67
	.byte	0
.LVUS455:
	.uleb128 .LVU841
	.uleb128 .LVU844
.LLST455:
	.byte	0x8
	.quad	.LVL129
	.uleb128 .LVL130-.LVL129
	.uleb128 0x1
	.byte	0x66
	.byte	0
.LVUS535:
	.uleb128 .LVU848
	.uleb128 .LVU854
	.uleb128 .LVU1020
	.uleb128 .LVU1025
	.uleb128 .LVU1025
	.uleb128 .LVU1028
	.uleb128 .LVU1028
	.uleb128 .LVU1043
	.uleb128 .LVU1043
	.uleb128 .LVU1048
	.uleb128 .LVU1048
	.uleb128 .LVU1051
	.uleb128 .LVU1051
	.uleb128 .LVU1066
	.uleb128 .LVU1066
	.uleb128 .LVU1071
	.uleb128 .LVU1071
	.uleb128 .LVU1074
	.uleb128 .LVU1074
	.uleb128 .LVU1089
	.uleb128 .LVU1089
	.uleb128 .LVU1094
	.uleb128 .LVU1094
	.uleb128 .LVU1097
	.uleb128 .LVU1097
	.uleb128 .LVU1112
	.uleb128 .LVU1112
	.uleb128 .LVU1117
	.uleb128 .LVU1117
	.uleb128 .LVU1122
	.uleb128 .LVU1122
	.uleb128 .LVU1136
	.uleb128 .LVU1136
	.uleb128 .LVU1141
	.uleb128 .LVU1141
	.uleb128 .LVU1144
	.uleb128 .LVU1295
	.uleb128 .LVU1306
	.uleb128 .LVU1306
	.uleb128 .LVU1308
.LLST535:
	.byte	0x6
	.quad	.LVL130
	.byte	0x4
	.uleb128 .LVL130-.LVL130
	.uleb128 .LVL131-.LVL130
	.uleb128 0x2
	.byte	0x30
	.byte	0x9f
	.byte	0x4
	.uleb128 .LVL148-.LVL130
	.uleb128 .LVL149-.LVL130
	.uleb128 0x1
	.byte	0x54
	.byte	0x4
	.uleb128 .LVL149-.LVL130
	.uleb128 .LVL151-.LVL130
	.uleb128 0x1
	.byte	0x51
	.byte	0x4
	.uleb128 .LVL151-.LVL130
	.uleb128 .LVL154-.LVL130
	.uleb128 0x3
	.byte	0x70
	.sleb128 1
	.byte	0x9f
	.byte	0x4
	.uleb128 .LVL154-.LVL130
	.uleb128 .LVL155-.LVL130
	.uleb128 0x1
	.byte	0x54
	.byte	0x4
	.uleb128 .LVL155-.LVL130
	.uleb128 .LVL157-.LVL130
	.uleb128 0x1
	.byte	0x51
	.byte	0x4
	.uleb128 .LVL157-.LVL130
	.uleb128 .LVL160-.LVL130
	.uleb128 0x3
	.byte	0x70
	.sleb128 2
	.byte	0x9f
	.byte	0x4
	.uleb128 .LVL160-.LVL130
	.uleb128 .LVL161-.LVL130
	.uleb128 0x1
	.byte	0x54
	.byte	0x4
	.uleb128 .LVL161-.LVL130
	.uleb128 .LVL163-.LVL130
	.uleb128 0x1
	.byte	0x51
	.byte	0x4
	.uleb128 .LVL163-.LVL130
	.uleb128 .LVL166-.LVL130
	.uleb128 0x3
	.byte	0x70
	.sleb128 3
	.byte	0x9f
	.byte	0x4
	.uleb128 .LVL166-.LVL130
	.uleb128 .LVL167-.LVL130
	.uleb128 0x1
	.byte	0x54
	.byte	0x4
	.uleb128 .LVL167-.LVL130
	.uleb128 .LVL169-.LVL130
	.uleb128 0x1
	.byte	0x51
	.byte	0x4
	.uleb128 .LVL169-.LVL130
	.uleb128 .LVL172-.LVL130
	.uleb128 0x3
	.byte	0x70
	.sleb128 4
	.byte	0x9f
	.byte	0x4
	.uleb128 .LVL172-.LVL130
	.uleb128 .LVL173-.LVL130
	.uleb128 0x1
	.byte	0x54
	.byte	0x4
	.uleb128 .LVL173-.LVL130
	.uleb128 .LVL176-.LVL130
	.uleb128 0x1
	.byte	0x51
	.byte	0x4
	.uleb128 .LVL176-.LVL130
	.uleb128 .LVL179-.LVL130
	.uleb128 0x3
	.byte	0x70
	.sleb128 -1
	.byte	0x9f
	.byte	0x4
	.uleb128 .LVL179-.LVL130
	.uleb128 .LVL180-.LVL130
	.uleb128 0x1
	.byte	0x50
	.byte	0x4
	.uleb128 .LVL180-.LVL130
	.uleb128 .LVL182-.LVL130
	.uleb128 0x1
	.byte	0x51
	.byte	0x4
	.uleb128 .LVL214-.LVL130
	.uleb128 .LVL215-.LVL130
	.uleb128 0x1
	.byte	0x50
	.byte	0x4
	.uleb128 .LVL215-.LVL130
	.uleb128 .LVL216-.LVL130
	.uleb128 0x3
	.byte	0x70
	.sleb128 1
	.byte	0x9f
	.byte	0
.LVUS537:
	.uleb128 .LVU1003
	.uleb128 .LVU1008
	.uleb128 .LVU1008
	.uleb128 .LVU1026
	.uleb128 .LVU1026
	.uleb128 .LVU1032
	.uleb128 .LVU1032
	.uleb128 .LVU1049
	.uleb128 .LVU1049
	.uleb128 .LVU1055
	.uleb128 .LVU1055
	.uleb128 .LVU1072
	.uleb128 .LVU1072
	.uleb128 .LVU1078
	.uleb128 .LVU1078
	.uleb128 .LVU1095
	.uleb128 .LVU1095
	.uleb128 .LVU1101
	.uleb128 .LVU1101
	.uleb128 .LVU1119
	.uleb128 .LVU1119
	.uleb128 .LVU1120
	.uleb128 .LVU1120
	.uleb128 .LVU1126
	.uleb128 .LVU1126
	.uleb128 .LVU1141
	.uleb128 .LVU1141
	.uleb128 .LVU1142
	.uleb128 .LVU1142
	.uleb128 .LVU1157
	.uleb128 .LVU1296
	.uleb128 .LVU1308
	.uleb128 .LVU1308
	.uleb128 .LVU1309
.LLST537:
	.byte	0x6
	.quad	.LVL144
	.byte	0x4
	.uleb128 .LVL144-.LVL144
	.uleb128 .LVL146-.LVL144
	.uleb128 0xc
	.byte	0x7c
	.sleb128 0
	.byte	0x7a
	.sleb128 0
	.byte	0x22
	.byte	0x94
	.byte	0x1
	.byte	0xa8
	.uleb128 0x37
	.byte	0xa8
	.uleb128 0x30
	.byte	0x9f
	.byte	0x4
	.uleb128 .LVL146-.LVL144
	.uleb128 .LVL150-.LVL144
	.uleb128 0x15
	.byte	0x70
	.sleb128 0
	.byte	0x8
	.byte	0x20
	.byte	0x24
	.byte	0x8
	.byte	0x20
	.byte	0x26
	.byte	0x7c
	.sleb128 0
	.byte	0x22
	.byte	0x78
	.sleb128 0
	.byte	0x22
	.byte	0x94
	.byte	0x1
	.byte	0xa8
	.uleb128 0x37
	.byte	0xa8
	.uleb128 0x30
	.byte	0x9f
	.byte	0x4
	.uleb128 .LVL150-.LVL144
	.uleb128 .LVL152-.LVL144
	.uleb128 0xc
	.byte	0x7c
	.sleb128 0
	.byte	0x7a
	.sleb128 0
	.byte	0x22
	.byte	0x94
	.byte	0x1
	.byte	0xa8
	.uleb128 0x37
	.byte	0xa8
	.uleb128 0x30
	.byte	0x9f
	.byte	0x4
	.uleb128 .LVL152-.LVL144
	.uleb128 .LVL156-.LVL144
	.uleb128 0x15
	.byte	0x70
	.sleb128 1
	.byte	0xc
	.long	0xffffffff
	.byte	0x1a
	.byte	0x7c
	.sleb128 0
	.byte	0x22
	.byte	0x78
	.sleb128 0
	.byte	0x22
	.byte	0x94
	.byte	0x1
	.byte	0xa8
	.uleb128 0x37
	.byte	0xa8
	.uleb128 0x30
	.byte	0x9f
	.byte	0x4
	.uleb128 .LVL156-.LVL144
	.uleb128 .LVL158-.LVL144
	.uleb128 0xc
	.byte	0x7c
	.sleb128 0
	.byte	0x7a
	.sleb128 0
	.byte	0x22
	.byte	0x94
	.byte	0x1
	.byte	0xa8
	.uleb128 0x37
	.byte	0xa8
	.uleb128 0x30
	.byte	0x9f
	.byte	0x4
	.uleb128 .LVL158-.LVL144
	.uleb128 .LVL162-.LVL144
	.uleb128 0x15
	.byte	0x70
	.sleb128 2
	.byte	0xc
	.long	0xffffffff
	.byte	0x1a
	.byte	0x7c
	.sleb128 0
	.byte	0x22
	.byte	0x78
	.sleb128 0
	.byte	0x22
	.byte	0x94
	.byte	0x1
	.byte	0xa8
	.uleb128 0x37
	.byte	0xa8
	.uleb128 0x30
	.byte	0x9f
	.byte	0x4
	.uleb128 .LVL162-.LVL144
	.uleb128 .LVL164-.LVL144
	.uleb128 0xc
	.byte	0x7c
	.sleb128 0
	.byte	0x7a
	.sleb128 0
	.byte	0x22
	.byte	0x94
	.byte	0x1
	.byte	0xa8
	.uleb128 0x37
	.byte	0xa8
	.uleb128 0x30
	.byte	0x9f
	.byte	0x4
	.uleb128 .LVL164-.LVL144
	.uleb128 .LVL168-.LVL144
	.uleb128 0x15
	.byte	0x70
	.sleb128 3
	.byte	0xc
	.long	0xffffffff
	.byte	0x1a
	.byte	0x7c
	.sleb128 0
	.byte	0x22
	.byte	0x78
	.sleb128 0
	.byte	0x22
	.byte	0x94
	.byte	0x1
	.byte	0xa8
	.uleb128 0x37
	.byte	0xa8
	.uleb128 0x30
	.byte	0x9f
	.byte	0x4
	.uleb128 .LVL168-.LVL144
	.uleb128 .LVL170-.LVL144
	.uleb128 0xc
	.byte	0x7c
	.sleb128 0
	.byte	0x7a
	.sleb128 0
	.byte	0x22
	.byte	0x94
	.byte	0x1
	.byte	0xa8
	.uleb128 0x37
	.byte	0xa8
	.uleb128 0x30
	.byte	0x9f
	.byte	0x4
	.uleb128 .LVL170-.LVL144
	.uleb128 .LVL174-.LVL144
	.uleb128 0x15
	.byte	0x70
	.sleb128 4
	.byte	0xc
	.long	0xffffffff
	.byte	0x1a
	.byte	0x7c
	.sleb128 0
	.byte	0x22
	.byte	0x78
	.sleb128 0
	.byte	0x22
	.byte	0x94
	.byte	0x1
	.byte	0xa8
	.uleb128 0x37
	.byte	0xa8
	.uleb128 0x30
	.byte	0x9f
	.byte	0x4
	.uleb128 .LVL174-.LVL144
	.uleb128 .LVL175-.LVL144
	.uleb128 0x15
	.byte	0x70
	.sleb128 -2
	.byte	0xc
	.long	0xffffffff
	.byte	0x1a
	.byte	0x7c
	.sleb128 0
	.byte	0x22
	.byte	0x78
	.sleb128 0
	.byte	0x22
	.byte	0x94
	.byte	0x1
	.byte	0xa8
	.uleb128 0x37
	.byte	0xa8
	.uleb128 0x30
	.byte	0x9f
	.byte	0x4
	.uleb128 .LVL175-.LVL144
	.uleb128 .LVL177-.LVL144
	.uleb128 0xc
	.byte	0x7c
	.sleb128 0
	.byte	0x7a
	.sleb128 0
	.byte	0x22
	.byte	0x94
	.byte	0x1
	.byte	0xa8
	.uleb128 0x37
	.byte	0xa8
	.uleb128 0x30
	.byte	0x9f
	.byte	0x4
	.uleb128 .LVL177-.LVL144
	.uleb128 .LVL180-.LVL144
	.uleb128 0x15
	.byte	0x70
	.sleb128 -1
	.byte	0xc
	.long	0xffffffff
	.byte	0x1a
	.byte	0x7c
	.sleb128 0
	.byte	0x22
	.byte	0x78
	.sleb128 0
	.byte	0x22
	.byte	0x94
	.byte	0x1
	.byte	0xa8
	.uleb128 0x37
	.byte	0xa8
	.uleb128 0x30
	.byte	0x9f
	.byte	0x4
	.uleb128 .LVL180-.LVL144
	.uleb128 .LVL181-.LVL144
	.uleb128 0x15
	.byte	0x71
	.sleb128 -1
	.byte	0xc
	.long	0xffffffff
	.byte	0x1a
	.byte	0x7c
	.sleb128 0
	.byte	0x22
	.byte	0x78
	.sleb128 0
	.byte	0x22
	.byte	0x94
	.byte	0x1
	.byte	0xa8
	.uleb128 0x37
	.byte	0xa8
	.uleb128 0x30
	.byte	0x9f
	.byte	0x4
	.uleb128 .LVL181-.LVL144
	.uleb128 .LVL184-.LVL144
	.uleb128 0xc
	.byte	0x7c
	.sleb128 0
	.byte	0x78
	.sleb128 0
	.byte	0x22
	.byte	0x94
	.byte	0x1
	.byte	0xa8
	.uleb128 0x37
	.byte	0xa8
	.uleb128 0x30
	.byte	0x9f
	.byte	0x4
	.uleb128 .LVL214-.LVL144
	.uleb128 .LVL216-.LVL144
	.uleb128 0xc
	.byte	0x74
	.sleb128 0
	.byte	0x70
	.sleb128 0
	.byte	0x22
	.byte	0x94
	.byte	0x1
	.byte	0xa8
	.uleb128 0x37
	.byte	0xa8
	.uleb128 0x30
	.byte	0x9f
	.byte	0x4
	.uleb128 .LVL216-.LVL144
	.uleb128 .LVL217-.LVL144
	.uleb128 0xe
	.byte	0x74
	.sleb128 0
	.byte	0x70
	.sleb128 0
	.byte	0x22
	.byte	0x31
	.byte	0x1c
	.byte	0x94
	.byte	0x1
	.byte	0xa8
	.uleb128 0x37
	.byte	0xa8
	.uleb128 0x30
	.byte	0x9f
	.byte	0
.LVUS538:
	.uleb128 .LVU1003
	.uleb128 .LVU1008
	.uleb128 .LVU1008
	.uleb128 .LVU1026
	.uleb128 .LVU1026
	.uleb128 .LVU1032
	.uleb128 .LVU1032
	.uleb128 .LVU1049
	.uleb128 .LVU1049
	.uleb128 .LVU1055
	.uleb128 .LVU1055
	.uleb128 .LVU1072
	.uleb128 .LVU1072
	.uleb128 .LVU1078
	.uleb128 .LVU1078
	.uleb128 .LVU1095
	.uleb128 .LVU1095
	.uleb128 .LVU1101
	.uleb128 .LVU1101
	.uleb128 .LVU1119
	.uleb128 .LVU1119
	.uleb128 .LVU1120
	.uleb128 .LVU1120
	.uleb128 .LVU1126
	.uleb128 .LVU1126
	.uleb128 .LVU1141
	.uleb128 .LVU1141
	.uleb128 .LVU1142
	.uleb128 .LVU1142
	.uleb128 .LVU1157
	.uleb128 .LVU1296
	.uleb128 .LVU1308
	.uleb128 .LVU1308
	.uleb128 .LVU1309
.LLST538:
	.byte	0x6
	.quad	.LVL144
	.byte	0x4
	.uleb128 .LVL144-.LVL144
	.uleb128 .LVL146-.LVL144
	.uleb128 0xe
	.byte	0x7c
	.sleb128 0
	.byte	0x7a
	.sleb128 0
	.byte	0x22
	.byte	0x23
	.uleb128 0x3
	.byte	0x94
	.byte	0x1
	.byte	0xa8
	.uleb128 0x37
	.byte	0xa8
	.uleb128 0x30
	.byte	0x9f
	.byte	0x4
	.uleb128 .LVL146-.LVL144
	.uleb128 .LVL150-.LVL144
	.uleb128 0x17
	.byte	0x70
	.sleb128 0
	.byte	0x8
	.byte	0x20
	.byte	0x24
	.byte	0x8
	.byte	0x20
	.byte	0x26
	.byte	0x7c
	.sleb128 0
	.byte	0x22
	.byte	0x78
	.sleb128 0
	.byte	0x22
	.byte	0x23
	.uleb128 0x3
	.byte	0x94
	.byte	0x1
	.byte	0xa8
	.uleb128 0x37
	.byte	0xa8
	.uleb128 0x30
	.byte	0x9f
	.byte	0x4
	.uleb128 .LVL150-.LVL144
	.uleb128 .LVL152-.LVL144
	.uleb128 0xe
	.byte	0x7c
	.sleb128 0
	.byte	0x7a
	.sleb128 0
	.byte	0x22
	.byte	0x23
	.uleb128 0x3
	.byte	0x94
	.byte	0x1
	.byte	0xa8
	.uleb128 0x37
	.byte	0xa8
	.uleb128 0x30
	.byte	0x9f
	.byte	0x4
	.uleb128 .LVL152-.LVL144
	.uleb128 .LVL156-.LVL144
	.uleb128 0x17
	.byte	0x70
	.sleb128 1
	.byte	0xc
	.long	0xffffffff
	.byte	0x1a
	.byte	0x7c
	.sleb128 0
	.byte	0x22
	.byte	0x78
	.sleb128 0
	.byte	0x22
	.byte	0x23
	.uleb128 0x3
	.byte	0x94
	.byte	0x1
	.byte	0xa8
	.uleb128 0x37
	.byte	0xa8
	.uleb128 0x30
	.byte	0x9f
	.byte	0x4
	.uleb128 .LVL156-.LVL144
	.uleb128 .LVL158-.LVL144
	.uleb128 0xe
	.byte	0x7c
	.sleb128 0
	.byte	0x7a
	.sleb128 0
	.byte	0x22
	.byte	0x23
	.uleb128 0x3
	.byte	0x94
	.byte	0x1
	.byte	0xa8
	.uleb128 0x37
	.byte	0xa8
	.uleb128 0x30
	.byte	0x9f
	.byte	0x4
	.uleb128 .LVL158-.LVL144
	.uleb128 .LVL162-.LVL144
	.uleb128 0x17
	.byte	0x70
	.sleb128 2
	.byte	0xc
	.long	0xffffffff
	.byte	0x1a
	.byte	0x7c
	.sleb128 0
	.byte	0x22
	.byte	0x78
	.sleb128 0
	.byte	0x22
	.byte	0x23
	.uleb128 0x3
	.byte	0x94
	.byte	0x1
	.byte	0xa8
	.uleb128 0x37
	.byte	0xa8
	.uleb128 0x30
	.byte	0x9f
	.byte	0x4
	.uleb128 .LVL162-.LVL144
	.uleb128 .LVL164-.LVL144
	.uleb128 0xe
	.byte	0x7c
	.sleb128 0
	.byte	0x7a
	.sleb128 0
	.byte	0x22
	.byte	0x23
	.uleb128 0x3
	.byte	0x94
	.byte	0x1
	.byte	0xa8
	.uleb128 0x37
	.byte	0xa8
	.uleb128 0x30
	.byte	0x9f
	.byte	0x4
	.uleb128 .LVL164-.LVL144
	.uleb128 .LVL168-.LVL144
	.uleb128 0x17
	.byte	0x70
	.sleb128 3
	.byte	0xc
	.long	0xffffffff
	.byte	0x1a
	.byte	0x7c
	.sleb128 0
	.byte	0x22
	.byte	0x78
	.sleb128 0
	.byte	0x22
	.byte	0x23
	.uleb128 0x3
	.byte	0x94
	.byte	0x1
	.byte	0xa8
	.uleb128 0x37
	.byte	0xa8
	.uleb128 0x30
	.byte	0x9f
	.byte	0x4
	.uleb128 .LVL168-.LVL144
	.uleb128 .LVL170-.LVL144
	.uleb128 0xe
	.byte	0x7c
	.sleb128 0
	.byte	0x7a
	.sleb128 0
	.byte	0x22
	.byte	0x23
	.uleb128 0x3
	.byte	0x94
	.byte	0x1
	.byte	0xa8
	.uleb128 0x37
	.byte	0xa8
	.uleb128 0x30
	.byte	0x9f
	.byte	0x4
	.uleb128 .LVL170-.LVL144
	.uleb128 .LVL174-.LVL144
	.uleb128 0x17
	.byte	0x70
	.sleb128 4
	.byte	0xc
	.long	0xffffffff
	.byte	0x1a
	.byte	0x7c
	.sleb128 0
	.byte	0x22
	.byte	0x78
	.sleb128 0
	.byte	0x22
	.byte	0x23
	.uleb128 0x3
	.byte	0x94
	.byte	0x1
	.byte	0xa8
	.uleb128 0x37
	.byte	0xa8
	.uleb128 0x30
	.byte	0x9f
	.byte	0x4
	.uleb128 .LVL174-.LVL144
	.uleb128 .LVL175-.LVL144
	.uleb128 0x17
	.byte	0x70
	.sleb128 -2
	.byte	0xc
	.long	0xffffffff
	.byte	0x1a
	.byte	0x7c
	.sleb128 0
	.byte	0x22
	.byte	0x78
	.sleb128 0
	.byte	0x22
	.byte	0x23
	.uleb128 0x3
	.byte	0x94
	.byte	0x1
	.byte	0xa8
	.uleb128 0x37
	.byte	0xa8
	.uleb128 0x30
	.byte	0x9f
	.byte	0x4
	.uleb128 .LVL175-.LVL144
	.uleb128 .LVL177-.LVL144
	.uleb128 0xe
	.byte	0x7c
	.sleb128 0
	.byte	0x7a
	.sleb128 0
	.byte	0x22
	.byte	0x23
	.uleb128 0x3
	.byte	0x94
	.byte	0x1
	.byte	0xa8
	.uleb128 0x37
	.byte	0xa8
	.uleb128 0x30
	.byte	0x9f
	.byte	0x4
	.uleb128 .LVL177-.LVL144
	.uleb128 .LVL180-.LVL144
	.uleb128 0x17
	.byte	0x70
	.sleb128 -1
	.byte	0xc
	.long	0xffffffff
	.byte	0x1a
	.byte	0x7c
	.sleb128 0
	.byte	0x22
	.byte	0x78
	.sleb128 0
	.byte	0x22
	.byte	0x23
	.uleb128 0x3
	.byte	0x94
	.byte	0x1
	.byte	0xa8
	.uleb128 0x37
	.byte	0xa8
	.uleb128 0x30
	.byte	0x9f
	.byte	0x4
	.uleb128 .LVL180-.LVL144
	.uleb128 .LVL181-.LVL144
	.uleb128 0x17
	.byte	0x71
	.sleb128 -1
	.byte	0xc
	.long	0xffffffff
	.byte	0x1a
	.byte	0x7c
	.sleb128 0
	.byte	0x22
	.byte	0x78
	.sleb128 0
	.byte	0x22
	.byte	0x23
	.uleb128 0x3
	.byte	0x94
	.byte	0x1
	.byte	0xa8
	.uleb128 0x37
	.byte	0xa8
	.uleb128 0x30
	.byte	0x9f
	.byte	0x4
	.uleb128 .LVL181-.LVL144
	.uleb128 .LVL184-.LVL144
	.uleb128 0xe
	.byte	0x7c
	.sleb128 0
	.byte	0x78
	.sleb128 0
	.byte	0x22
	.byte	0x23
	.uleb128 0x3
	.byte	0x94
	.byte	0x1
	.byte	0xa8
	.uleb128 0x37
	.byte	0xa8
	.uleb128 0x30
	.byte	0x9f
	.byte	0x4
	.uleb128 .LVL214-.LVL144
	.uleb128 .LVL216-.LVL144
	.uleb128 0xe
	.byte	0x74
	.sleb128 0
	.byte	0x70
	.sleb128 0
	.byte	0x22
	.byte	0x23
	.uleb128 0x3
	.byte	0x94
	.byte	0x1
	.byte	0xa8
	.uleb128 0x37
	.byte	0xa8
	.uleb128 0x30
	.byte	0x9f
	.byte	0x4
	.uleb128 .LVL216-.LVL144
	.uleb128 .LVL217-.LVL144
	.uleb128 0xe
	.byte	0x74
	.sleb128 0
	.byte	0x70
	.sleb128 0
	.byte	0x22
	.byte	0x23
	.uleb128 0x2
	.byte	0x94
	.byte	0x1
	.byte	0xa8
	.uleb128 0x37
	.byte	0xa8
	.uleb128 0x30
	.byte	0x9f
	.byte	0
.LVUS539:
	.uleb128 .LVU1005
	.uleb128 .LVU1013
	.uleb128 .LVU1013
	.uleb128 .LVU1028
	.uleb128 .LVU1028
	.uleb128 .LVU1036
	.uleb128 .LVU1036
	.uleb128 .LVU1051
	.uleb128 .LVU1051
	.uleb128 .LVU1059
	.uleb128 .LVU1059
	.uleb128 .LVU1074
	.uleb128 .LVU1074
	.uleb128 .LVU1082
	.uleb128 .LVU1082
	.uleb128 .LVU1097
	.uleb128 .LVU1097
	.uleb128 .LVU1105
	.uleb128 .LVU1105
	.uleb128 .LVU1119
	.uleb128 .LVU1119
	.uleb128 .LVU1122
	.uleb128 .LVU1122
	.uleb128 .LVU1130
	.uleb128 .LVU1130
	.uleb128 .LVU1141
	.uleb128 .LVU1141
	.uleb128 .LVU1144
	.uleb128 .LVU1144
	.uleb128 .LVU1150
	.uleb128 .LVU1150
	.uleb128 .LVU1157
	.uleb128 .LVU1297
	.uleb128 .LVU1308
	.uleb128 .LVU1308
	.uleb128 .LVU1309
.LLST539:
	.byte	0x6
	.quad	.LVL145
	.byte	0x4
	.uleb128 .LVL145-.LVL145
	.uleb128 .LVL147-.LVL145
	.uleb128 0xc
	.byte	0x7c
	.sleb128 0
	.byte	0x71
	.sleb128 0
	.byte	0x22
	.byte	0x94
	.byte	0x1
	.byte	0xa8
	.uleb128 0x37
	.byte	0xa8
	.uleb128 0x30
	.byte	0x9f
	.byte	0x4
	.uleb128 .LVL147-.LVL145
	.uleb128 .LVL151-.LVL145
	.uleb128 0x15
	.byte	0x70
	.sleb128 0
	.byte	0x8
	.byte	0x20
	.byte	0x24
	.byte	0x8
	.byte	0x20
	.byte	0x26
	.byte	0x7c
	.sleb128 0
	.byte	0x22
	.byte	0x79
	.sleb128 0
	.byte	0x22
	.byte	0x94
	.byte	0x1
	.byte	0xa8
	.uleb128 0x37
	.byte	0xa8
	.uleb128 0x30
	.byte	0x9f
	.byte	0x4
	.uleb128 .LVL151-.LVL145
	.uleb128 .LVL153-.LVL145
	.uleb128 0xc
	.byte	0x7c
	.sleb128 0
	.byte	0x71
	.sleb128 0
	.byte	0x22
	.byte	0x94
	.byte	0x1
	.byte	0xa8
	.uleb128 0x37
	.byte	0xa8
	.uleb128 0x30
	.byte	0x9f
	.byte	0x4
	.uleb128 .LVL153-.LVL145
	.uleb128 .LVL157-.LVL145
	.uleb128 0x15
	.byte	0x70
	.sleb128 1
	.byte	0xc
	.long	0xffffffff
	.byte	0x1a
	.byte	0x7c
	.sleb128 0
	.byte	0x22
	.byte	0x79
	.sleb128 0
	.byte	0x22
	.byte	0x94
	.byte	0x1
	.byte	0xa8
	.uleb128 0x37
	.byte	0xa8
	.uleb128 0x30
	.byte	0x9f
	.byte	0x4
	.uleb128 .LVL157-.LVL145
	.uleb128 .LVL159-.LVL145
	.uleb128 0xc
	.byte	0x7c
	.sleb128 0
	.byte	0x71
	.sleb128 0
	.byte	0x22
	.byte	0x94
	.byte	0x1
	.byte	0xa8
	.uleb128 0x37
	.byte	0xa8
	.uleb128 0x30
	.byte	0x9f
	.byte	0x4
	.uleb128 .LVL159-.LVL145
	.uleb128 .LVL163-.LVL145
	.uleb128 0x15
	.byte	0x70
	.sleb128 2
	.byte	0xc
	.long	0xffffffff
	.byte	0x1a
	.byte	0x7c
	.sleb128 0
	.byte	0x22
	.byte	0x79
	.sleb128 0
	.byte	0x22
	.byte	0x94
	.byte	0x1
	.byte	0xa8
	.uleb128 0x37
	.byte	0xa8
	.uleb128 0x30
	.byte	0x9f
	.byte	0x4
	.uleb128 .LVL163-.LVL145
	.uleb128 .LVL165-.LVL145
	.uleb128 0xc
	.byte	0x7c
	.sleb128 0
	.byte	0x71
	.sleb128 0
	.byte	0x22
	.byte	0x94
	.byte	0x1
	.byte	0xa8
	.uleb128 0x37
	.byte	0xa8
	.uleb128 0x30
	.byte	0x9f
	.byte	0x4
	.uleb128 .LVL165-.LVL145
	.uleb128 .LVL169-.LVL145
	.uleb128 0x15
	.byte	0x70
	.sleb128 3
	.byte	0xc
	.long	0xffffffff
	.byte	0x1a
	.byte	0x7c
	.sleb128 0
	.byte	0x22
	.byte	0x79
	.sleb128 0
	.byte	0x22
	.byte	0x94
	.byte	0x1
	.byte	0xa8
	.uleb128 0x37
	.byte	0xa8
	.uleb128 0x30
	.byte	0x9f
	.byte	0x4
	.uleb128 .LVL169-.LVL145
	.uleb128 .LVL171-.LVL145
	.uleb128 0xc
	.byte	0x7c
	.sleb128 0
	.byte	0x71
	.sleb128 0
	.byte	0x22
	.byte	0x94
	.byte	0x1
	.byte	0xa8
	.uleb128 0x37
	.byte	0xa8
	.uleb128 0x30
	.byte	0x9f
	.byte	0x4
	.uleb128 .LVL171-.LVL145
	.uleb128 .LVL174-.LVL145
	.uleb128 0x15
	.byte	0x70
	.sleb128 4
	.byte	0xc
	.long	0xffffffff
	.byte	0x1a
	.byte	0x7c
	.sleb128 0
	.byte	0x22
	.byte	0x79
	.sleb128 0
	.byte	0x22
	.byte	0x94
	.byte	0x1
	.byte	0xa8
	.uleb128 0x37
	.byte	0xa8
	.uleb128 0x30
	.byte	0x9f
	.byte	0x4
	.uleb128 .LVL174-.LVL145
	.uleb128 .LVL176-.LVL145
	.uleb128 0x15
	.byte	0x70
	.sleb128 -2
	.byte	0xc
	.long	0xffffffff
	.byte	0x1a
	.byte	0x7c
	.sleb128 0
	.byte	0x22
	.byte	0x79
	.sleb128 0
	.byte	0x22
	.byte	0x94
	.byte	0x1
	.byte	0xa8
	.uleb128 0x37
	.byte	0xa8
	.uleb128 0x30
	.byte	0x9f
	.byte	0x4
	.uleb128 .LVL176-.LVL145
	.uleb128 .LVL178-.LVL145
	.uleb128 0xc
	.byte	0x7c
	.sleb128 0
	.byte	0x71
	.sleb128 0
	.byte	0x22
	.byte	0x94
	.byte	0x1
	.byte	0xa8
	.uleb128 0x37
	.byte	0xa8
	.uleb128 0x30
	.byte	0x9f
	.byte	0x4
	.uleb128 .LVL178-.LVL145
	.uleb128 .LVL180-.LVL145
	.uleb128 0x15
	.byte	0x70
	.sleb128 -1
	.byte	0xc
	.long	0xffffffff
	.byte	0x1a
	.byte	0x7c
	.sleb128 0
	.byte	0x22
	.byte	0x79
	.sleb128 0
	.byte	0x22
	.byte	0x94
	.byte	0x1
	.byte	0xa8
	.uleb128 0x37
	.byte	0xa8
	.uleb128 0x30
	.byte	0x9f
	.byte	0x4
	.uleb128 .LVL180-.LVL145
	.uleb128 .LVL182-.LVL145
	.uleb128 0x15
	.byte	0x71
	.sleb128 -1
	.byte	0xc
	.long	0xffffffff
	.byte	0x1a
	.byte	0x7c
	.sleb128 0
	.byte	0x22
	.byte	0x79
	.sleb128 0
	.byte	0x22
	.byte	0x94
	.byte	0x1
	.byte	0xa8
	.uleb128 0x37
	.byte	0xa8
	.uleb128 0x30
	.byte	0x9f
	.byte	0x4
	.uleb128 .LVL182-.LVL145
	.uleb128 .LVL183-.LVL145
	.uleb128 0xc
	.byte	0x7c
	.sleb128 0
	.byte	0x71
	.sleb128 0
	.byte	0x22
	.byte	0x94
	.byte	0x1
	.byte	0xa8
	.uleb128 0x37
	.byte	0xa8
	.uleb128 0x30
	.byte	0x9f
	.byte	0x4
	.uleb128 .LVL183-.LVL145
	.uleb128 .LVL184-.LVL145
	.uleb128 0x7
	.byte	0x74
	.sleb128 0
	.byte	0xa8
	.uleb128 0x37
	.byte	0xa8
	.uleb128 0x30
	.byte	0x9f
	.byte	0x4
	.uleb128 .LVL214-.LVL145
	.uleb128 .LVL216-.LVL145
	.uleb128 0xc
	.byte	0x71
	.sleb128 0
	.byte	0x70
	.sleb128 0
	.byte	0x22
	.byte	0x94
	.byte	0x1
	.byte	0xa8
	.uleb128 0x37
	.byte	0xa8
	.uleb128 0x30
	.byte	0x9f
	.byte	0x4
	.uleb128 .LVL216-.LVL145
	.uleb128 .LVL217-.LVL145
	.uleb128 0xe
	.byte	0x71
	.sleb128 0
	.byte	0x70
	.sleb128 0
	.byte	0x22
	.byte	0x31
	.byte	0x1c
	.byte	0x94
	.byte	0x1
	.byte	0xa8
	.uleb128 0x37
	.byte	0xa8
	.uleb128 0x30
	.byte	0x9f
	.byte	0
.LVUS540:
	.uleb128 .LVU1005
	.uleb128 .LVU1013
	.uleb128 .LVU1013
	.uleb128 .LVU1028
	.uleb128 .LVU1028
	.uleb128 .LVU1036
	.uleb128 .LVU1036
	.uleb128 .LVU1051
	.uleb128 .LVU1051
	.uleb128 .LVU1059
	.uleb128 .LVU1059
	.uleb128 .LVU1074
	.uleb128 .LVU1074
	.uleb128 .LVU1082
	.uleb128 .LVU1082
	.uleb128 .LVU1097
	.uleb128 .LVU1097
	.uleb128 .LVU1105
	.uleb128 .LVU1105
	.uleb128 .LVU1119
	.uleb128 .LVU1119
	.uleb128 .LVU1122
	.uleb128 .LVU1122
	.uleb128 .LVU1130
	.uleb128 .LVU1130
	.uleb128 .LVU1141
	.uleb128 .LVU1141
	.uleb128 .LVU1144
	.uleb128 .LVU1144
	.uleb128 .LVU1150
	.uleb128 .LVU1150
	.uleb128 .LVU1157
	.uleb128 .LVU1297
	.uleb128 .LVU1308
	.uleb128 .LVU1308
	.uleb128 .LVU1309
.LLST540:
	.byte	0x6
	.quad	.LVL145
	.byte	0x4
	.uleb128 .LVL145-.LVL145
	.uleb128 .LVL147-.LVL145
	.uleb128 0xe
	.byte	0x7c
	.sleb128 0
	.byte	0x71
	.sleb128 0
	.byte	0x22
	.byte	0x23
	.uleb128 0x3
	.byte	0x94
	.byte	0x1
	.byte	0xa8
	.uleb128 0x37
	.byte	0xa8
	.uleb128 0x30
	.byte	0x9f
	.byte	0x4
	.uleb128 .LVL147-.LVL145
	.uleb128 .LVL151-.LVL145
	.uleb128 0x17
	.byte	0x70
	.sleb128 0
	.byte	0x8
	.byte	0x20
	.byte	0x24
	.byte	0x8
	.byte	0x20
	.byte	0x26
	.byte	0x7c
	.sleb128 0
	.byte	0x22
	.byte	0x79
	.sleb128 0
	.byte	0x22
	.byte	0x23
	.uleb128 0x3
	.byte	0x94
	.byte	0x1
	.byte	0xa8
	.uleb128 0x37
	.byte	0xa8
	.uleb128 0x30
	.byte	0x9f
	.byte	0x4
	.uleb128 .LVL151-.LVL145
	.uleb128 .LVL153-.LVL145
	.uleb128 0xe
	.byte	0x7c
	.sleb128 0
	.byte	0x71
	.sleb128 0
	.byte	0x22
	.byte	0x23
	.uleb128 0x3
	.byte	0x94
	.byte	0x1
	.byte	0xa8
	.uleb128 0x37
	.byte	0xa8
	.uleb128 0x30
	.byte	0x9f
	.byte	0x4
	.uleb128 .LVL153-.LVL145
	.uleb128 .LVL157-.LVL145
	.uleb128 0x17
	.byte	0x70
	.sleb128 1
	.byte	0xc
	.long	0xffffffff
	.byte	0x1a
	.byte	0x7c
	.sleb128 0
	.byte	0x22
	.byte	0x79
	.sleb128 0
	.byte	0x22
	.byte	0x23
	.uleb128 0x3
	.byte	0x94
	.byte	0x1
	.byte	0xa8
	.uleb128 0x37
	.byte	0xa8
	.uleb128 0x30
	.byte	0x9f
	.byte	0x4
	.uleb128 .LVL157-.LVL145
	.uleb128 .LVL159-.LVL145
	.uleb128 0xe
	.byte	0x7c
	.sleb128 0
	.byte	0x71
	.sleb128 0
	.byte	0x22
	.byte	0x23
	.uleb128 0x3
	.byte	0x94
	.byte	0x1
	.byte	0xa8
	.uleb128 0x37
	.byte	0xa8
	.uleb128 0x30
	.byte	0x9f
	.byte	0x4
	.uleb128 .LVL159-.LVL145
	.uleb128 .LVL163-.LVL145
	.uleb128 0x17
	.byte	0x70
	.sleb128 2
	.byte	0xc
	.long	0xffffffff
	.byte	0x1a
	.byte	0x7c
	.sleb128 0
	.byte	0x22
	.byte	0x79
	.sleb128 0
	.byte	0x22
	.byte	0x23
	.uleb128 0x3
	.byte	0x94
	.byte	0x1
	.byte	0xa8
	.uleb128 0x37
	.byte	0xa8
	.uleb128 0x30
	.byte	0x9f
	.byte	0x4
	.uleb128 .LVL163-.LVL145
	.uleb128 .LVL165-.LVL145
	.uleb128 0xe
	.byte	0x7c
	.sleb128 0
	.byte	0x71
	.sleb128 0
	.byte	0x22
	.byte	0x23
	.uleb128 0x3
	.byte	0x94
	.byte	0x1
	.byte	0xa8
	.uleb128 0x37
	.byte	0xa8
	.uleb128 0x30
	.byte	0x9f
	.byte	0x4
	.uleb128 .LVL165-.LVL145
	.uleb128 .LVL169-.LVL145
	.uleb128 0x17
	.byte	0x70
	.sleb128 3
	.byte	0xc
	.long	0xffffffff
	.byte	0x1a
	.byte	0x7c
	.sleb128 0
	.byte	0x22
	.byte	0x79
	.sleb128 0
	.byte	0x22
	.byte	0x23
	.uleb128 0x3
	.byte	0x94
	.byte	0x1
	.byte	0xa8
	.uleb128 0x37
	.byte	0xa8
	.uleb128 0x30
	.byte	0x9f
	.byte	0x4
	.uleb128 .LVL169-.LVL145
	.uleb128 .LVL171-.LVL145
	.uleb128 0xe
	.byte	0x7c
	.sleb128 0
	.byte	0x71
	.sleb128 0
	.byte	0x22
	.byte	0x23
	.uleb128 0x3
	.byte	0x94
	.byte	0x1
	.byte	0xa8
	.uleb128 0x37
	.byte	0xa8
	.uleb128 0x30
	.byte	0x9f
	.byte	0x4
	.uleb128 .LVL171-.LVL145
	.uleb128 .LVL174-.LVL145
	.uleb128 0x17
	.byte	0x70
	.sleb128 4
	.byte	0xc
	.long	0xffffffff
	.byte	0x1a
	.byte	0x7c
	.sleb128 0
	.byte	0x22
	.byte	0x79
	.sleb128 0
	.byte	0x22
	.byte	0x23
	.uleb128 0x3
	.byte	0x94
	.byte	0x1
	.byte	0xa8
	.uleb128 0x37
	.byte	0xa8
	.uleb128 0x30
	.byte	0x9f
	.byte	0x4
	.uleb128 .LVL174-.LVL145
	.uleb128 .LVL176-.LVL145
	.uleb128 0x17
	.byte	0x70
	.sleb128 -2
	.byte	0xc
	.long	0xffffffff
	.byte	0x1a
	.byte	0x7c
	.sleb128 0
	.byte	0x22
	.byte	0x79
	.sleb128 0
	.byte	0x22
	.byte	0x23
	.uleb128 0x3
	.byte	0x94
	.byte	0x1
	.byte	0xa8
	.uleb128 0x37
	.byte	0xa8
	.uleb128 0x30
	.byte	0x9f
	.byte	0x4
	.uleb128 .LVL176-.LVL145
	.uleb128 .LVL178-.LVL145
	.uleb128 0xe
	.byte	0x7c
	.sleb128 0
	.byte	0x71
	.sleb128 0
	.byte	0x22
	.byte	0x23
	.uleb128 0x3
	.byte	0x94
	.byte	0x1
	.byte	0xa8
	.uleb128 0x37
	.byte	0xa8
	.uleb128 0x30
	.byte	0x9f
	.byte	0x4
	.uleb128 .LVL178-.LVL145
	.uleb128 .LVL180-.LVL145
	.uleb128 0x17
	.byte	0x70
	.sleb128 -1
	.byte	0xc
	.long	0xffffffff
	.byte	0x1a
	.byte	0x7c
	.sleb128 0
	.byte	0x22
	.byte	0x79
	.sleb128 0
	.byte	0x22
	.byte	0x23
	.uleb128 0x3
	.byte	0x94
	.byte	0x1
	.byte	0xa8
	.uleb128 0x37
	.byte	0xa8
	.uleb128 0x30
	.byte	0x9f
	.byte	0x4
	.uleb128 .LVL180-.LVL145
	.uleb128 .LVL182-.LVL145
	.uleb128 0x17
	.byte	0x71
	.sleb128 -1
	.byte	0xc
	.long	0xffffffff
	.byte	0x1a
	.byte	0x7c
	.sleb128 0
	.byte	0x22
	.byte	0x79
	.sleb128 0
	.byte	0x22
	.byte	0x23
	.uleb128 0x3
	.byte	0x94
	.byte	0x1
	.byte	0xa8
	.uleb128 0x37
	.byte	0xa8
	.uleb128 0x30
	.byte	0x9f
	.byte	0x4
	.uleb128 .LVL182-.LVL145
	.uleb128 .LVL183-.LVL145
	.uleb128 0xe
	.byte	0x7c
	.sleb128 0
	.byte	0x71
	.sleb128 0
	.byte	0x22
	.byte	0x23
	.uleb128 0x3
	.byte	0x94
	.byte	0x1
	.byte	0xa8
	.uleb128 0x37
	.byte	0xa8
	.uleb128 0x30
	.byte	0x9f
	.byte	0x4
	.uleb128 .LVL183-.LVL145
	.uleb128 .LVL184-.LVL145
	.uleb128 0x7
	.byte	0x71
	.sleb128 0
	.byte	0xa8
	.uleb128 0x37
	.byte	0xa8
	.uleb128 0x30
	.byte	0x9f
	.byte	0x4
	.uleb128 .LVL214-.LVL145
	.uleb128 .LVL216-.LVL145
	.uleb128 0xe
	.byte	0x71
	.sleb128 0
	.byte	0x70
	.sleb128 0
	.byte	0x22
	.byte	0x23
	.uleb128 0x3
	.byte	0x94
	.byte	0x1
	.byte	0xa8
	.uleb128 0x37
	.byte	0xa8
	.uleb128 0x30
	.byte	0x9f
	.byte	0x4
	.uleb128 .LVL216-.LVL145
	.uleb128 .LVL217-.LVL145
	.uleb128 0xe
	.byte	0x71
	.sleb128 0
	.byte	0x70
	.sleb128 0
	.byte	0x22
	.byte	0x23
	.uleb128 0x2
	.byte	0x94
	.byte	0x1
	.byte	0xa8
	.uleb128 0x37
	.byte	0xa8
	.uleb128 0x30
	.byte	0x9f
	.byte	0
.LVUS542:
	.uleb128 .LVU466
	.uleb128 .LVU474
.LLST542:
	.byte	0x8
	.quad	.LVL89
	.uleb128 .LVL90-.LVL89
	.uleb128 0x6
	.byte	0xa0
	.long	.Ldebug_info0+57743
	.sleb128 0
	.byte	0
.LVUS543:
	.uleb128 .LVU466
	.uleb128 .LVU474
.LLST543:
	.byte	0x8
	.quad	.LVL89
	.uleb128 .LVL90-.LVL89
	.uleb128 0x3
	.byte	0x71
	.sleb128 32
	.byte	0x9f
	.byte	0
.LVUS545:
	.uleb128 .LVU485
	.uleb128 .LVU487
.LLST545:
	.byte	0x8
	.quad	.LVL92
	.uleb128 .LVL93-.LVL92
	.uleb128 0x6
	.byte	0xa0
	.long	.Ldebug_info0+57822
	.sleb128 0
	.byte	0
.LVUS546:
	.uleb128 .LVU485
	.uleb128 .LVU487
.LLST546:
	.byte	0x8
	.quad	.LVL92
	.uleb128 .LVL93-.LVL92
	.uleb128 0x3
	.byte	0x71
	.sleb128 28
	.byte	0x9f
	.byte	0
.LVUS548:
	.uleb128 .LVU476
	.uleb128 .LVU478
.LLST548:
	.byte	0x8
	.quad	.LVL90
	.uleb128 .LVL91-.LVL90
	.uleb128 0x6
	.byte	0xa0
	.long	.Ldebug_info0+57766
	.sleb128 0
	.byte	0
.LVUS549:
	.uleb128 .LVU476
	.uleb128 .LVU478
.LLST549:
	.byte	0x8
	.quad	.LVL90
	.uleb128 .LVL91-.LVL90
	.uleb128 0x3
	.byte	0x71
	.sleb128 36
	.byte	0x9f
	.byte	0
.LVUS551:
	.uleb128 .LVU480
	.uleb128 .LVU483
.LLST551:
	.byte	0x8
	.quad	.LVL91
	.uleb128 .LVL92-.LVL91
	.uleb128 0x6
	.byte	0xa0
	.long	.Ldebug_info0+57799
	.sleb128 0
	.byte	0
.LVUS552:
	.uleb128 .LVU480
	.uleb128 .LVU483
.LLST552:
	.byte	0x8
	.quad	.LVL91
	.uleb128 .LVL92-.LVL91
	.uleb128 0x3
	.byte	0x71
	.sleb128 24
	.byte	0x9f
	.byte	0
.LVUS554:
	.uleb128 .LVU503
	.uleb128 .LVU508
.LLST554:
	.byte	0x8
	.quad	.LVL94
	.uleb128 .LVL95-.LVL94
	.uleb128 0x2
	.byte	0x90
	.uleb128 0x46
	.byte	0
.LVUS556:
	.uleb128 .LVU511
	.uleb128 .LVU519
.LLST556:
	.byte	0x8
	.quad	.LVL96
	.uleb128 .LVL97-.LVL96
	.uleb128 0x2
	.byte	0x90
	.uleb128 0x45
	.byte	0
.LVUS558:
	.uleb128 .LVU521
	.uleb128 .LVU525
.LLST558:
	.byte	0x8
	.quad	.LVL97
	.uleb128 .LVL98-.LVL97
	.uleb128 0x2
	.byte	0x90
	.uleb128 0x44
	.byte	0
.LVUS559:
	.uleb128 .LVU527
	.uleb128 .LVU530
.LLST559:
	.byte	0x8
	.quad	.LVL98
	.uleb128 .LVL99-.LVL98
	.uleb128 0x2
	.byte	0x90
	.uleb128 0x43
	.byte	0
.LVUS561:
	.uleb128 .LVU1175
	.uleb128 .LVU1236
.LLST561:
	.byte	0x8
	.quad	.LVL193
	.uleb128 .LVL202-.LVL193
	.uleb128 0x1
	.byte	0x5b
	.byte	0
.LVUS564:
	.uleb128 .LVU1181
	.uleb128 .LVU1188
.LLST564:
	.byte	0x8
	.quad	.LVL193
	.uleb128 .LVL194-.LVL193
	.uleb128 0x2
	.byte	0x30
	.byte	0x9f
	.byte	0
.LVUS566:
	.uleb128 .LVU1190
	.uleb128 .LVU1194
	.uleb128 .LVU1194
	.uleb128 .LVU1232
	.uleb128 .LVU1232
	.uleb128 .LVU1236
.LLST566:
	.byte	0x6
	.quad	.LVL195
	.byte	0x4
	.uleb128 .LVL195-.LVL195
	.uleb128 .LVL196-.LVL195
	.uleb128 0x1
	.byte	0x50
	.byte	0x4
	.uleb128 .LVL196-.LVL195
	.uleb128 .LVL200-.LVL195
	.uleb128 0x2
	.byte	0x72
	.sleb128 0
	.byte	0x4
	.uleb128 .LVL200-.LVL195
	.uleb128 .LVL202-.LVL195
	.uleb128 0x2
	.byte	0x72
	.sleb128 -4
	.byte	0
.LVUS567:
	.uleb128 .LVU1196
	.uleb128 .LVU1218
.LLST567:
	.byte	0x8
	.quad	.LVL197
	.uleb128 .LVL198-.LVL197
	.uleb128 0x1
	.byte	0x61
	.byte	0
.LVUS576:
	.uleb128 .LVU1178
	.uleb128 .LVU1179
.LLST576:
	.byte	0x8
	.quad	.LVL193
	.uleb128 .LVL193-.LVL193
	.uleb128 0x3
	.byte	0x7e
	.sleb128 16
	.byte	0x9f
	.byte	0
.LVUS578:
	.uleb128 .LVU431
	.uleb128 .LVU435
.LLST578:
	.byte	0x8
	.quad	.LVL82
	.uleb128 .LVL83-.LVL82
	.uleb128 0x6
	.byte	0xa0
	.long	.Ldebug_info0+53136
	.sleb128 0
	.byte	0
.LVUS581:
	.uleb128 .LVU445
	.uleb128 .LVU448
.LLST581:
	.byte	0x8
	.quad	.LVL85
	.uleb128 .LVL85-.LVL85
	.uleb128 0x10
	.byte	0x77
	.sleb128 28
	.byte	0x94
	.byte	0x4
	.byte	0x72
	.sleb128 0
	.byte	0x1e
	.byte	0x33
	.byte	0x1e
	.byte	0x8
	.byte	0x20
	.byte	0x24
	.byte	0x8
	.byte	0x20
	.byte	0x26
	.byte	0x9f
	.byte	0
.LVUS587:
	.uleb128 .LVU456
	.uleb128 .LVU1240
	.uleb128 .LVU1294
	.uleb128 .LVU1318
.LLST587:
	.byte	0x6
	.quad	.LVL85
	.byte	0x4
	.uleb128 .LVL85-.LVL85
	.uleb128 .LVL204-.LVL85
	.uleb128 0x2
	.byte	0x31
	.byte	0x9f
	.byte	0x4
	.uleb128 .LVL213-.LVL85
	.uleb128 .LVL220-.LVL85
	.uleb128 0x2
	.byte	0x31
	.byte	0x9f
	.byte	0
.LVUS588:
	.uleb128 .LVU456
	.uleb128 .LVU462
.LLST588:
	.byte	0x8
	.quad	.LVL85
	.uleb128 .LVL88-.LVL85
	.uleb128 0x6
	.byte	0x9e
	.uleb128 0x4
	.long	0
	.byte	0
.LVUS590:
	.uleb128 .LVU419
	.uleb128 .LVU420
.LLST590:
	.byte	0x8
	.quad	.LVL80
	.uleb128 .LVL80-.LVL80
	.uleb128 0x6
	.byte	0xa0
	.long	.Ldebug_info0+53146
	.sleb128 0
	.byte	0
.LVUS8:
	.uleb128 .LVU25
	.uleb128 .LVU33
.LLST8:
	.byte	0x8
	.quad	.LVL3
	.uleb128 .LVL3-.LVL3
	.uleb128 0x1
	.byte	0x55
	.byte	0
.LVUS9:
	.uleb128 .LVU26
	.uleb128 .LVU33
.LLST9:
	.byte	0x8
	.quad	.LVL3
	.uleb128 .LVL3-.LVL3
	.uleb128 0x3
	.byte	0x75
	.sleb128 16
	.byte	0x9f
	.byte	0
.LVUS10:
	.uleb128 .LVU27
	.uleb128 .LVU33
.LLST10:
	.byte	0x8
	.quad	.LVL3
	.uleb128 .LVL3-.LVL3
	.uleb128 0x3
	.byte	0x75
	.sleb128 16
	.byte	0x9f
	.byte	0
.LVUS11:
	.uleb128 .LVU28
	.uleb128 .LVU33
.LLST11:
	.byte	0x8
	.quad	.LVL3
	.uleb128 .LVL3-.LVL3
	.uleb128 0x3
	.byte	0x75
	.sleb128 16
	.byte	0x9f
	.byte	0
.LVUS13:
	.uleb128 .LVU31
	.uleb128 .LVU33
.LLST13:
	.byte	0x8
	.quad	.LVL3
	.uleb128 .LVL3-.LVL3
	.uleb128 0x3
	.byte	0x75
	.sleb128 16
	.byte	0x9f
	.byte	0
.LVUS14:
	.uleb128 .LVU29
	.uleb128 .LVU31
.LLST14:
	.byte	0x8
	.quad	.LVL3
	.uleb128 .LVL3-.LVL3
	.uleb128 0x3
	.byte	0x75
	.sleb128 16
	.byte	0x9f
	.byte	0
.LVUS15:
	.uleb128 .LVU30
	.uleb128 .LVU31
.LLST15:
	.byte	0x8
	.quad	.LVL3
	.uleb128 .LVL3-.LVL3
	.uleb128 0x3
	.byte	0x75
	.sleb128 16
	.byte	0x9f
	.byte	0
.LVUS17:
	.uleb128 .LVU7
	.uleb128 .LVU11
.LLST17:
	.byte	0x8
	.quad	.LVL1
	.uleb128 .LVL1-.LVL1
	.uleb128 0x1
	.byte	0x54
	.byte	0
.LVUS18:
	.uleb128 .LVU9
	.uleb128 .LVU11
.LLST18:
	.byte	0x8
	.quad	.LVL1
	.uleb128 .LVL1-.LVL1
	.uleb128 0x1
	.byte	0x54
	.byte	0
.LVUS19:
	.uleb128 .LVU10
	.uleb128 .LVU11
.LLST19:
	.byte	0x8
	.quad	.LVL1
	.uleb128 .LVL1-.LVL1
	.uleb128 0x1
	.byte	0x54
	.byte	0
.LVUS20:
	.uleb128 .LVU17
	.uleb128 .LVU21
.LLST20:
	.byte	0x8
	.quad	.LVL3
	.uleb128 .LVL3-.LVL3
	.uleb128 0x1
	.byte	0x54
	.byte	0
.LVUS21:
	.uleb128 .LVU19
	.uleb128 .LVU21
.LLST21:
	.byte	0x8
	.quad	.LVL3
	.uleb128 .LVL3-.LVL3
	.uleb128 0x1
	.byte	0x54
	.byte	0
.LVUS22:
	.uleb128 .LVU20
	.uleb128 .LVU21
.LLST22:
	.byte	0x8
	.quad	.LVL3
	.uleb128 .LVL3-.LVL3
	.uleb128 0x1
	.byte	0x54
	.byte	0
.LVUS24:
	.uleb128 .LVU39
	.uleb128 .LVU42
	.uleb128 .LVU1408
	.uleb128 .LVU1431
	.uleb128 .LVU1431
	.uleb128 .LVU1462
	.uleb128 .LVU1536
	.uleb128 .LVU1538
	.uleb128 .LVU1538
	.uleb128 .LVU1539
.LLST24:
	.byte	0x6
	.quad	.LVL4
	.byte	0x4
	.uleb128 .LVL4-.LVL4
	.uleb128 .LVL5-.LVL4
	.uleb128 0x3
	.byte	0x75
	.sleb128 16
	.byte	0x9f
	.byte	0x4
	.uleb128 .LVL240-.LVL4
	.uleb128 .LVL243-.LVL4
	.uleb128 0x3
	.byte	0x75
	.sleb128 16
	.byte	0x9f
	.byte	0x4
	.uleb128 .LVL243-.LVL4
	.uleb128 .LVL249-.LVL4
	.uleb128 0x7
	.byte	0x77
	.sleb128 64
	.byte	0x6
	.byte	0x23
	.uleb128 0x10
	.byte	0x9f
	.byte	0x6
	.quad	.LVL270
	.byte	0x4
	.uleb128 .LVL270-.LVL270
	.uleb128 .LVL271-.LVL270
	.uleb128 0x3
	.byte	0x75
	.sleb128 16
	.byte	0x9f
	.byte	0x4
	.uleb128 .LVL271-.LVL270
	.uleb128 .LVL272-.LVL270
	.uleb128 0x7
	.byte	0x77
	.sleb128 64
	.byte	0x6
	.byte	0x23
	.uleb128 0x10
	.byte	0x9f
	.byte	0
.LVUS25:
	.uleb128 .LVU39
	.uleb128 .LVU42
	.uleb128 .LVU1408
	.uleb128 .LVU1462
	.uleb128 .LVU1536
	.uleb128 .LVU1539
.LLST25:
	.byte	0x6
	.quad	.LVL4
	.byte	0x4
	.uleb128 .LVL4-.LVL4
	.uleb128 .LVL5-.LVL4
	.uleb128 0x5
	.byte	0x7c
	.sleb128 0
	.byte	0x33
	.byte	0x1e
	.byte	0x9f
	.byte	0x4
	.uleb128 .LVL240-.LVL4
	.uleb128 .LVL249-.LVL4
	.uleb128 0x5
	.byte	0x7c
	.sleb128 0
	.byte	0x33
	.byte	0x1e
	.byte	0x9f
	.byte	0x8
	.quad	.LVL270
	.uleb128 .LVL272-.LVL270
	.uleb128 0x5
	.byte	0x7c
	.sleb128 0
	.byte	0x33
	.byte	0x1e
	.byte	0x9f
	.byte	0
.LVUS27:
	.uleb128 .LVU40
	.uleb128 .LVU42
	.uleb128 .LVU1408
	.uleb128 .LVU1431
	.uleb128 .LVU1431
	.uleb128 .LVU1462
	.uleb128 .LVU1536
	.uleb128 .LVU1538
	.uleb128 .LVU1538
	.uleb128 .LVU1539
.LLST27:
	.byte	0x6
	.quad	.LVL4
	.byte	0x4
	.uleb128 .LVL4-.LVL4
	.uleb128 .LVL5-.LVL4
	.uleb128 0x3
	.byte	0x75
	.sleb128 16
	.byte	0x9f
	.byte	0x4
	.uleb128 .LVL240-.LVL4
	.uleb128 .LVL243-.LVL4
	.uleb128 0x3
	.byte	0x75
	.sleb128 16
	.byte	0x9f
	.byte	0x4
	.uleb128 .LVL243-.LVL4
	.uleb128 .LVL249-.LVL4
	.uleb128 0x7
	.byte	0x77
	.sleb128 64
	.byte	0x6
	.byte	0x23
	.uleb128 0x10
	.byte	0x9f
	.byte	0x6
	.quad	.LVL270
	.byte	0x4
	.uleb128 .LVL270-.LVL270
	.uleb128 .LVL271-.LVL270
	.uleb128 0x3
	.byte	0x75
	.sleb128 16
	.byte	0x9f
	.byte	0x4
	.uleb128 .LVL271-.LVL270
	.uleb128 .LVL272-.LVL270
	.uleb128 0x7
	.byte	0x77
	.sleb128 64
	.byte	0x6
	.byte	0x23
	.uleb128 0x10
	.byte	0x9f
	.byte	0
.LVUS28:
	.uleb128 .LVU40
	.uleb128 .LVU42
	.uleb128 .LVU1408
	.uleb128 .LVU1462
	.uleb128 .LVU1536
	.uleb128 .LVU1539
.LLST28:
	.byte	0x6
	.quad	.LVL4
	.byte	0x4
	.uleb128 .LVL4-.LVL4
	.uleb128 .LVL5-.LVL4
	.uleb128 0x5
	.byte	0x7c
	.sleb128 0
	.byte	0x33
	.byte	0x1e
	.byte	0x9f
	.byte	0x4
	.uleb128 .LVL240-.LVL4
	.uleb128 .LVL249-.LVL4
	.uleb128 0x5
	.byte	0x7c
	.sleb128 0
	.byte	0x33
	.byte	0x1e
	.byte	0x9f
	.byte	0x8
	.quad	.LVL270
	.uleb128 .LVL272-.LVL270
	.uleb128 0x5
	.byte	0x7c
	.sleb128 0
	.byte	0x33
	.byte	0x1e
	.byte	0x9f
	.byte	0
.LVUS32:
	.uleb128 .LVU1410
	.uleb128 .LVU1441
	.uleb128 .LVU1536
	.uleb128 .LVU1539
.LLST32:
	.byte	0x8
	.quad	.LVL241
	.uleb128 .LVL247-.LVL241
	.uleb128 0x6
	.byte	0xa0
	.long	.Ldebug_info0+65098
	.sleb128 0
	.byte	0x8
	.quad	.LVL270
	.uleb128 .LVL272-.LVL270
	.uleb128 0x6
	.byte	0xa0
	.long	.Ldebug_info0+65098
	.sleb128 0
	.byte	0
.LVUS33:
	.uleb128 .LVU1410
	.uleb128 .LVU1441
	.uleb128 .LVU1536
	.uleb128 .LVU1539
.LLST33:
	.byte	0x8
	.quad	.LVL241
	.uleb128 .LVL247-.LVL241
	.uleb128 0x5
	.byte	0x7c
	.sleb128 0
	.byte	0x33
	.byte	0x1e
	.byte	0x9f
	.byte	0x8
	.quad	.LVL270
	.uleb128 .LVL272-.LVL270
	.uleb128 0x5
	.byte	0x7c
	.sleb128 0
	.byte	0x33
	.byte	0x1e
	.byte	0x9f
	.byte	0
.LVUS35:
	.uleb128 .LVU1410
	.uleb128 .LVU1441
	.uleb128 .LVU1536
	.uleb128 .LVU1539
.LLST35:
	.byte	0x8
	.quad	.LVL241
	.uleb128 .LVL247-.LVL241
	.uleb128 0x7
	.byte	0x77
	.sleb128 64
	.byte	0x6
	.byte	0x23
	.uleb128 0x10
	.byte	0x9f
	.byte	0x8
	.quad	.LVL270
	.uleb128 .LVL272-.LVL270
	.uleb128 0x7
	.byte	0x77
	.sleb128 64
	.byte	0x6
	.byte	0x23
	.uleb128 0x10
	.byte	0x9f
	.byte	0
.LVUS37:
	.uleb128 .LVU1411
	.uleb128 .LVU1418
	.uleb128 .LVU1536
	.uleb128 .LVU1539
.LLST37:
	.byte	0x8
	.quad	.LVL241
	.uleb128 .LVL242-.LVL241
	.uleb128 0x5
	.byte	0x7c
	.sleb128 0
	.byte	0x33
	.byte	0x1e
	.byte	0x9f
	.byte	0x8
	.quad	.LVL270
	.uleb128 .LVL272-.LVL270
	.uleb128 0x5
	.byte	0x7c
	.sleb128 0
	.byte	0x33
	.byte	0x1e
	.byte	0x9f
	.byte	0
.LVUS38:
	.uleb128 .LVU1411
	.uleb128 .LVU1418
	.uleb128 .LVU1536
	.uleb128 .LVU1539
.LLST38:
	.byte	0x8
	.quad	.LVL241
	.uleb128 .LVL242-.LVL241
	.uleb128 0x7
	.byte	0x77
	.sleb128 64
	.byte	0x6
	.byte	0x23
	.uleb128 0x10
	.byte	0x9f
	.byte	0x8
	.quad	.LVL270
	.uleb128 .LVL272-.LVL270
	.uleb128 0x7
	.byte	0x77
	.sleb128 64
	.byte	0x6
	.byte	0x23
	.uleb128 0x10
	.byte	0x9f
	.byte	0
.LVUS39:
	.uleb128 .LVU1412
	.uleb128 .LVU1414
.LLST39:
	.byte	0x8
	.quad	.LVL241
	.uleb128 .LVL241-.LVL241
	.uleb128 0x7
	.byte	0x77
	.sleb128 64
	.byte	0x6
	.byte	0x23
	.uleb128 0x10
	.byte	0x9f
	.byte	0
.LVUS40:
	.uleb128 .LVU1413
	.uleb128 .LVU1414
.LLST40:
	.byte	0x8
	.quad	.LVL241
	.uleb128 .LVL241-.LVL241
	.uleb128 0x7
	.byte	0x77
	.sleb128 64
	.byte	0x6
	.byte	0x23
	.uleb128 0x10
	.byte	0x9f
	.byte	0
.LVUS42:
	.uleb128 .LVU1418
	.uleb128 .LVU1435
.LLST42:
	.byte	0x8
	.quad	.LVL242
	.uleb128 .LVL245-.LVL242
	.uleb128 0x6
	.byte	0xa0
	.long	.Ldebug_info0+65098
	.sleb128 0
	.byte	0
.LVUS43:
	.uleb128 .LVU1418
	.uleb128 .LVU1435
.LLST43:
	.byte	0x8
	.quad	.LVL242
	.uleb128 .LVL245-.LVL242
	.uleb128 0x5
	.byte	0x7c
	.sleb128 0
	.byte	0x33
	.byte	0x1e
	.byte	0x9f
	.byte	0
.LVUS44:
	.uleb128 .LVU1418
	.uleb128 .LVU1435
.LLST44:
	.byte	0x8
	.quad	.LVL242
	.uleb128 .LVL245-.LVL242
	.uleb128 0x7
	.byte	0x77
	.sleb128 64
	.byte	0x6
	.byte	0x23
	.uleb128 0x10
	.byte	0x9f
	.byte	0
.LVUS45:
	.uleb128 .LVU1420
	.uleb128 .LVU1425
.LLST45:
	.byte	0x8
	.quad	.LVL242
	.uleb128 .LVL242-.LVL242
	.uleb128 0x6
	.byte	0xa0
	.long	.Ldebug_info0+65098
	.sleb128 0
	.byte	0
.LVUS46:
	.uleb128 .LVU1420
	.uleb128 .LVU1425
.LLST46:
	.byte	0x8
	.quad	.LVL242
	.uleb128 .LVL242-.LVL242
	.uleb128 0x7
	.byte	0x77
	.sleb128 64
	.byte	0x6
	.byte	0x23
	.uleb128 0x10
	.byte	0x9f
	.byte	0
.LVUS47:
	.uleb128 .LVU1421
	.uleb128 .LVU1423
.LLST47:
	.byte	0x8
	.quad	.LVL242
	.uleb128 .LVL242-.LVL242
	.uleb128 0x6
	.byte	0xa0
	.long	.Ldebug_info0+65098
	.sleb128 0
	.byte	0
.LVUS48:
	.uleb128 .LVU1421
	.uleb128 .LVU1423
.LLST48:
	.byte	0x8
	.quad	.LVL242
	.uleb128 .LVL242-.LVL242
	.uleb128 0x7
	.byte	0x77
	.sleb128 64
	.byte	0x6
	.byte	0x23
	.uleb128 0x10
	.byte	0x9f
	.byte	0
.LVUS49:
	.uleb128 .LVU1422
	.uleb128 .LVU1423
.LLST49:
	.byte	0x8
	.quad	.LVL242
	.uleb128 .LVL242-.LVL242
	.uleb128 0x6
	.byte	0xa0
	.long	.Ldebug_info0+65098
	.sleb128 0
	.byte	0
.LVUS50:
	.uleb128 .LVU1422
	.uleb128 .LVU1423
.LLST50:
	.byte	0x8
	.quad	.LVL242
	.uleb128 .LVL242-.LVL242
	.uleb128 0x7
	.byte	0x77
	.sleb128 64
	.byte	0x6
	.byte	0x23
	.uleb128 0x10
	.byte	0x9f
	.byte	0
.LVUS51:
	.uleb128 .LVU1423
	.uleb128 .LVU1425
.LLST51:
	.byte	0x8
	.quad	.LVL242
	.uleb128 .LVL242-.LVL242
	.uleb128 0x6
	.byte	0xa0
	.long	.Ldebug_info0+65098
	.sleb128 0
	.byte	0
.LVUS53:
	.uleb128 .LVU1425
	.uleb128 .LVU1435
.LLST53:
	.byte	0x8
	.quad	.LVL242
	.uleb128 .LVL245-.LVL242
	.uleb128 0x6
	.byte	0xa0
	.long	.Ldebug_info0+65098
	.sleb128 0
	.byte	0
.LVUS54:
	.uleb128 .LVU1425
	.uleb128 .LVU1435
.LLST54:
	.byte	0x8
	.quad	.LVL242
	.uleb128 .LVL245-.LVL242
	.uleb128 0x5
	.byte	0x7c
	.sleb128 0
	.byte	0x33
	.byte	0x1e
	.byte	0x9f
	.byte	0
.LVUS55:
	.uleb128 .LVU1427
	.uleb128 .LVU1432
.LLST55:
	.byte	0x8
	.quad	.LVL242
	.uleb128 .LVL244-.LVL242
	.uleb128 0x6
	.byte	0xa0
	.long	.Ldebug_info0+65098
	.sleb128 0
	.byte	0
.LVUS56:
	.uleb128 .LVU1427
	.uleb128 .LVU1432
.LLST56:
	.byte	0x8
	.quad	.LVL242
	.uleb128 .LVL244-.LVL242
	.uleb128 0x5
	.byte	0x7c
	.sleb128 0
	.byte	0x33
	.byte	0x1e
	.byte	0x9f
	.byte	0
.LVUS57:
	.uleb128 .LVU1428
	.uleb128 .LVU1432
.LLST57:
	.byte	0x8
	.quad	.LVL242
	.uleb128 .LVL244-.LVL242
	.uleb128 0x6
	.byte	0xa0
	.long	.Ldebug_info0+65098
	.sleb128 0
	.byte	0
.LVUS58:
	.uleb128 .LVU1428
	.uleb128 .LVU1432
.LLST58:
	.byte	0x8
	.quad	.LVL242
	.uleb128 .LVL244-.LVL242
	.uleb128 0x5
	.byte	0x7c
	.sleb128 0
	.byte	0x33
	.byte	0x1e
	.byte	0x9f
	.byte	0
.LVUS59:
	.uleb128 .LVU1429
	.uleb128 .LVU1432
.LLST59:
	.byte	0x8
	.quad	.LVL242
	.uleb128 .LVL244-.LVL242
	.uleb128 0x6
	.byte	0xa0
	.long	.Ldebug_info0+65098
	.sleb128 0
	.byte	0
.LVUS60:
	.uleb128 .LVU1429
	.uleb128 .LVU1432
.LLST60:
	.byte	0x8
	.quad	.LVL242
	.uleb128 .LVL244-.LVL242
	.uleb128 0x5
	.byte	0x7c
	.sleb128 0
	.byte	0x33
	.byte	0x1e
	.byte	0x9f
	.byte	0
.LVUS61:
	.uleb128 .LVU1429
	.uleb128 .LVU1432
.LLST61:
	.byte	0x8
	.quad	.LVL242
	.uleb128 .LVL244-.LVL242
	.uleb128 0x2
	.byte	0x30
	.byte	0x9f
	.byte	0
.LVUS63:
	.uleb128 .LVU1435
	.uleb128 .LVU1441
.LLST63:
	.byte	0x8
	.quad	.LVL245
	.uleb128 .LVL247-.LVL245
	.uleb128 0x6
	.byte	0xa0
	.long	.Ldebug_info0+65098
	.sleb128 0
	.byte	0
.LVUS64:
	.uleb128 .LVU1435
	.uleb128 .LVU1441
.LLST64:
	.byte	0x8
	.quad	.LVL245
	.uleb128 .LVL247-.LVL245
	.uleb128 0x5
	.byte	0x7c
	.sleb128 0
	.byte	0x33
	.byte	0x1e
	.byte	0x9f
	.byte	0
.LVUS66:
	.uleb128 .LVU1437
	.uleb128 .LVU1440
.LLST66:
	.byte	0x8
	.quad	.LVL245
	.uleb128 .LVL246-1-.LVL245
	.uleb128 0x1
	.byte	0x50
	.byte	0
.LVUS67:
	.uleb128 .LVU1437
	.uleb128 .LVU1441
.LLST67:
	.byte	0x8
	.quad	.LVL245
	.uleb128 .LVL247-.LVL245
	.uleb128 0x5
	.byte	0x7c
	.sleb128 0
	.byte	0x33
	.byte	0x1e
	.byte	0x9f
	.byte	0
.LVUS69:
	.uleb128 .LVU1437
	.uleb128 .LVU1441
.LLST69:
	.byte	0x8
	.quad	.LVL245
	.uleb128 .LVL247-.LVL245
	.uleb128 0x6
	.byte	0xa0
	.long	.Ldebug_info0+65098
	.sleb128 0
	.byte	0
.LVUS70:
	.uleb128 .LVU1438
	.uleb128 .LVU1440
.LLST70:
	.byte	0x8
	.quad	.LVL245
	.uleb128 .LVL246-1-.LVL245
	.uleb128 0x1
	.byte	0x50
	.byte	0
.LVUS71:
	.uleb128 .LVU1438
	.uleb128 .LVU1441
.LLST71:
	.byte	0x8
	.quad	.LVL245
	.uleb128 .LVL247-.LVL245
	.uleb128 0x5
	.byte	0x7c
	.sleb128 0
	.byte	0x33
	.byte	0x1e
	.byte	0x9f
	.byte	0
.LVUS75:
	.uleb128 .LVU1439
	.uleb128 .LVU1440
.LLST75:
	.byte	0x8
	.quad	.LVL245
	.uleb128 .LVL246-1-.LVL245
	.uleb128 0x1
	.byte	0x50
	.byte	0
.LVUS76:
	.uleb128 .LVU1441
	.uleb128 .LVU1450
.LLST76:
	.byte	0x8
	.quad	.LVL247
	.uleb128 .LVL249-.LVL247
	.uleb128 0x6
	.byte	0xa0
	.long	.Ldebug_info0+65098
	.sleb128 0
	.byte	0
.LVUS77:
	.uleb128 .LVU1441
	.uleb128 .LVU1450
.LLST77:
	.byte	0x8
	.quad	.LVL247
	.uleb128 .LVL249-.LVL247
	.uleb128 0x7
	.byte	0x77
	.sleb128 64
	.byte	0x6
	.byte	0x23
	.uleb128 0x10
	.byte	0x9f
	.byte	0
.LVUS78:
	.uleb128 .LVU1443
	.uleb128 .LVU1444
.LLST78:
	.byte	0x8
	.quad	.LVL247
	.uleb128 .LVL247-.LVL247
	.uleb128 0x6
	.byte	0xa0
	.long	.Ldebug_info0+66332
	.sleb128 0
	.byte	0
.LVUS79:
	.uleb128 .LVU1444
	.uleb128 .LVU1450
.LLST79:
	.byte	0x8
	.quad	.LVL247
	.uleb128 .LVL249-.LVL247
	.uleb128 0x7
	.byte	0x77
	.sleb128 64
	.byte	0x6
	.byte	0x23
	.uleb128 0x10
	.byte	0x9f
	.byte	0
.LVUS80:
	.uleb128 .LVU1444
	.uleb128 .LVU1450
.LLST80:
	.byte	0x8
	.quad	.LVL247
	.uleb128 .LVL249-.LVL247
	.uleb128 0x6
	.byte	0xa0
	.long	.Ldebug_info0+66332
	.sleb128 0
	.byte	0
.LVUS81:
	.uleb128 .LVU1450
	.uleb128 .LVU1462
.LLST81:
	.byte	0x8
	.quad	.LVL249
	.uleb128 .LVL249-.LVL249
	.uleb128 0x6
	.byte	0xa0
	.long	.Ldebug_info0+65098
	.sleb128 0
	.byte	0
.LVUS82:
	.uleb128 .LVU1452
	.uleb128 .LVU1453
.LLST82:
	.byte	0x8
	.quad	.LVL249
	.uleb128 .LVL249-.LVL249
	.uleb128 0x6
	.byte	0xa0
	.long	.Ldebug_info0+65098
	.sleb128 0
	.byte	0
.LVUS83:
	.uleb128 .LVU1453
	.uleb128 .LVU1455
.LLST83:
	.byte	0x8
	.quad	.LVL249
	.uleb128 .LVL249-.LVL249
	.uleb128 0x6
	.byte	0xa0
	.long	.Ldebug_info0+65098
	.sleb128 0
	.byte	0
.LVUS84:
	.uleb128 .LVU1455
	.uleb128 .LVU1462
.LLST84:
	.byte	0x8
	.quad	.LVL249
	.uleb128 .LVL249-.LVL249
	.uleb128 0x6
	.byte	0xa0
	.long	.Ldebug_info0+65098
	.sleb128 0
	.byte	0
.LVUS85:
	.uleb128 .LVU1457
	.uleb128 .LVU1462
.LLST85:
	.byte	0x8
	.quad	.LVL249
	.uleb128 .LVL249-.LVL249
	.uleb128 0x2
	.byte	0x30
	.byte	0x9f
	.byte	0
.LVUS86:
	.uleb128 .LVU1457
	.uleb128 .LVU1458
.LLST86:
	.byte	0x8
	.quad	.LVL249
	.uleb128 .LVL249-.LVL249
	.uleb128 0x6
	.byte	0xa0
	.long	.Ldebug_info0+65098
	.sleb128 0
	.byte	0
.LVUS87:
	.uleb128 .LVU1457
	.uleb128 .LVU1458
.LLST87:
	.byte	0x8
	.quad	.LVL249
	.uleb128 .LVL249-.LVL249
	.uleb128 0x2
	.byte	0x30
	.byte	0x9f
	.byte	0
.LVUS89:
	.uleb128 .LVU1458
	.uleb128 .LVU1462
.LLST89:
	.byte	0x8
	.quad	.LVL249
	.uleb128 .LVL249-.LVL249
	.uleb128 0x6
	.byte	0xa0
	.long	.Ldebug_info0+65098
	.sleb128 0
	.byte	0
.LVUS90:
	.uleb128 .LVU1460
	.uleb128 .LVU1462
.LLST90:
	.byte	0x8
	.quad	.LVL249
	.uleb128 .LVL249-.LVL249
	.uleb128 0x6
	.byte	0xa0
	.long	.Ldebug_info0+65098
	.sleb128 0
	.byte	0
.LVUS91:
	.uleb128 .LVU1461
	.uleb128 .LVU1462
.LLST91:
	.byte	0x8
	.quad	.LVL249
	.uleb128 .LVL249-.LVL249
	.uleb128 0x6
	.byte	0xa0
	.long	.Ldebug_info0+65098
	.sleb128 0
	.byte	0
.LVUS93:
	.uleb128 .LVU44
	.uleb128 .LVU51
	.uleb128 .LVU1464
	.uleb128 .LVU1471
.LLST93:
	.byte	0x8
	.quad	.LVL5
	.uleb128 .LVL5-.LVL5
	.uleb128 0x6
	.byte	0xa0
	.long	.Ldebug_info0+53175
	.sleb128 0
	.byte	0x8
	.quad	.LVL249
	.uleb128 .LVL249-.LVL249
	.uleb128 0x6
	.byte	0xa0
	.long	.Ldebug_info0+53175
	.sleb128 0
	.byte	0
.LVUS94:
	.uleb128 .LVU45
	.uleb128 .LVU51
	.uleb128 .LVU1465
	.uleb128 .LVU1471
.LLST94:
	.byte	0x8
	.quad	.LVL5
	.uleb128 .LVL5-.LVL5
	.uleb128 0x6
	.byte	0xa0
	.long	.Ldebug_info0+53175
	.sleb128 0
	.byte	0x8
	.quad	.LVL249
	.uleb128 .LVL249-.LVL249
	.uleb128 0x6
	.byte	0xa0
	.long	.Ldebug_info0+53175
	.sleb128 0
	.byte	0
.LVUS95:
	.uleb128 .LVU46
	.uleb128 .LVU51
	.uleb128 .LVU1466
	.uleb128 .LVU1471
.LLST95:
	.byte	0x8
	.quad	.LVL5
	.uleb128 .LVL5-.LVL5
	.uleb128 0x6
	.byte	0xa0
	.long	.Ldebug_info0+53175
	.sleb128 0
	.byte	0x8
	.quad	.LVL249
	.uleb128 .LVL249-.LVL249
	.uleb128 0x6
	.byte	0xa0
	.long	.Ldebug_info0+53175
	.sleb128 0
	.byte	0
.LVUS97:
	.uleb128 .LVU47
	.uleb128 .LVU49
	.uleb128 .LVU1467
	.uleb128 .LVU1469
.LLST97:
	.byte	0x8
	.quad	.LVL5
	.uleb128 .LVL5-.LVL5
	.uleb128 0x6
	.byte	0xa0
	.long	.Ldebug_info0+53175
	.sleb128 0
	.byte	0x8
	.quad	.LVL249
	.uleb128 .LVL249-.LVL249
	.uleb128 0x6
	.byte	0xa0
	.long	.Ldebug_info0+53175
	.sleb128 0
	.byte	0
.LVUS98:
	.uleb128 .LVU48
	.uleb128 .LVU49
	.uleb128 .LVU1468
	.uleb128 .LVU1469
.LLST98:
	.byte	0x8
	.quad	.LVL5
	.uleb128 .LVL5-.LVL5
	.uleb128 0x6
	.byte	0xa0
	.long	.Ldebug_info0+53175
	.sleb128 0
	.byte	0x8
	.quad	.LVL249
	.uleb128 .LVL249-.LVL249
	.uleb128 0x6
	.byte	0xa0
	.long	.Ldebug_info0+53175
	.sleb128 0
	.byte	0
.LVUS100:
	.uleb128 .LVU49
	.uleb128 .LVU51
	.uleb128 .LVU1469
	.uleb128 .LVU1471
.LLST100:
	.byte	0x8
	.quad	.LVL5
	.uleb128 .LVL5-.LVL5
	.uleb128 0x6
	.byte	0xa0
	.long	.Ldebug_info0+53175
	.sleb128 0
	.byte	0x8
	.quad	.LVL249
	.uleb128 .LVL249-.LVL249
	.uleb128 0x6
	.byte	0xa0
	.long	.Ldebug_info0+53175
	.sleb128 0
	.byte	0
.LVUS102:
	.uleb128 .LVU53
	.uleb128 .LVU55
	.uleb128 .LVU1473
	.uleb128 .LVU1475
.LLST102:
	.byte	0x6
	.quad	.LVL5
	.byte	0x4
	.uleb128 .LVL5-.LVL5
	.uleb128 .LVL6-.LVL5
	.uleb128 0x1
	.byte	0x54
	.byte	0x4
	.uleb128 .LVL249-.LVL5
	.uleb128 .LVL250-.LVL5
	.uleb128 0x1
	.byte	0x5d
	.byte	0
.LVUS104:
	.uleb128 .LVU55
	.uleb128 .LVU71
	.uleb128 .LVU1337
	.uleb128 .LVU1340
	.uleb128 .LVU1475
	.uleb128 .LVU1484
.LLST104:
	.byte	0x6
	.quad	.LVL6
	.byte	0x4
	.uleb128 .LVL6-.LVL6
	.uleb128 .LVL13-.LVL6
	.uleb128 0x6
	.byte	0xa0
	.long	.Ldebug_info0+53175
	.sleb128 0
	.byte	0x4
	.uleb128 .LVL222-.LVL6
	.uleb128 .LVL223-.LVL6
	.uleb128 0x6
	.byte	0xa0
	.long	.Ldebug_info0+53175
	.sleb128 0
	.byte	0x4
	.uleb128 .LVL250-.LVL6
	.uleb128 .LVL253-.LVL6
	.uleb128 0x6
	.byte	0xa0
	.long	.Ldebug_info0+53175
	.sleb128 0
	.byte	0
.LVUS105:
	.uleb128 .LVU55
	.uleb128 .LVU61
	.uleb128 .LVU61
	.uleb128 .LVU62
	.uleb128 .LVU1337
	.uleb128 .LVU1340
	.uleb128 .LVU1475
	.uleb128 .LVU1480
	.uleb128 .LVU1480
	.uleb128 .LVU1484
.LLST105:
	.byte	0x6
	.quad	.LVL6
	.byte	0x4
	.uleb128 .LVL6-.LVL6
	.uleb128 .LVL8-.LVL6
	.uleb128 0x9
	.byte	0x72
	.sleb128 0
	.byte	0x73
	.sleb128 0
	.byte	0x1c
	.byte	0x8
	.byte	0x30
	.byte	0x1b
	.byte	0x9f
	.byte	0x4
	.uleb128 .LVL8-.LVL6
	.uleb128 .LVL9-.LVL6
	.uleb128 0x6
	.byte	0x75
	.sleb128 0
	.byte	0x8
	.byte	0x30
	.byte	0x1b
	.byte	0x9f
	.byte	0x4
	.uleb128 .LVL222-.LVL6
	.uleb128 .LVL223-.LVL6
	.uleb128 0x6
	.byte	0x75
	.sleb128 0
	.byte	0x8
	.byte	0x30
	.byte	0x1b
	.byte	0x9f
	.byte	0x4
	.uleb128 .LVL250-.LVL6
	.uleb128 .LVL251-.LVL6
	.uleb128 0x9
	.byte	0x70
	.sleb128 0
	.byte	0x73
	.sleb128 0
	.byte	0x1c
	.byte	0x8
	.byte	0x30
	.byte	0x1b
	.byte	0x9f
	.byte	0x4
	.uleb128 .LVL251-.LVL6
	.uleb128 .LVL253-.LVL6
	.uleb128 0x6
	.byte	0x70
	.sleb128 0
	.byte	0x8
	.byte	0x30
	.byte	0x1b
	.byte	0x9f
	.byte	0
.LVUS106:
	.uleb128 .LVU62
	.uleb128 .LVU68
.LLST106:
	.byte	0x8
	.quad	.LVL9
	.uleb128 .LVL12-.LVL9
	.uleb128 0x2
	.byte	0x30
	.byte	0x9f
	.byte	0
.LVUS107:
	.uleb128 .LVU66
	.uleb128 .LVU68
.LLST107:
	.byte	0x8
	.quad	.LVL11
	.uleb128 .LVL12-.LVL11
	.uleb128 0x1
	.byte	0x50
	.byte	0
.LVUS108:
	.uleb128 .LVU62
	.uleb128 .LVU66
.LLST108:
	.byte	0x8
	.quad	.LVL9
	.uleb128 .LVL11-.LVL9
	.uleb128 0x6
	.byte	0xa0
	.long	.Ldebug_info0+53175
	.sleb128 0
	.byte	0
.LVUS109:
	.uleb128 .LVU63
	.uleb128 .LVU66
.LLST109:
	.byte	0x8
	.quad	.LVL9
	.uleb128 .LVL11-.LVL9
	.uleb128 0x6
	.byte	0xa0
	.long	.Ldebug_info0+53175
	.sleb128 0
	.byte	0
.LVUS110:
	.uleb128 .LVU65
	.uleb128 .LVU66
.LLST110:
	.byte	0x8
	.quad	.LVL9
	.uleb128 .LVL11-.LVL9
	.uleb128 0x2
	.byte	0x30
	.byte	0x9f
	.byte	0
.LVUS111:
	.uleb128 .LVU65
	.uleb128 .LVU66
.LLST111:
	.byte	0x8
	.quad	.LVL9
	.uleb128 .LVL11-.LVL9
	.uleb128 0x6
	.byte	0xa0
	.long	.Ldebug_info0+53175
	.sleb128 0
	.byte	0
.LVUS197:
	.uleb128 .LVU1272
	.uleb128 .LVU1289
.LLST197:
	.byte	0x8
	.quad	.LVL207
	.uleb128 .LVL209-.LVL207
	.uleb128 0x6
	.byte	0xa0
	.long	.Ldebug_info0+53175
	.sleb128 0
	.byte	0
.LVUS199:
	.uleb128 .LVU1277
	.uleb128 .LVU1289
.LLST199:
	.byte	0x8
	.quad	.LVL207
	.uleb128 .LVL209-.LVL207
	.uleb128 0x6
	.byte	0xa0
	.long	.Ldebug_info0+53175
	.sleb128 0
	.byte	0
.LVUS201:
	.uleb128 .LVU1279
	.uleb128 .LVU1285
.LLST201:
	.byte	0x8
	.quad	.LVL207
	.uleb128 .LVL209-.LVL207
	.uleb128 0x6
	.byte	0xa0
	.long	.Ldebug_info0+53175
	.sleb128 0
	.byte	0
.LVUS202:
	.uleb128 .LVU1282
	.uleb128 .LVU1285
.LLST202:
	.byte	0x8
	.quad	.LVL208
	.uleb128 .LVL209-.LVL208
	.uleb128 0x6
	.byte	0xa0
	.long	.Ldebug_info0+53175
	.sleb128 0
	.byte	0
.LVUS203:
	.uleb128 .LVU1285
	.uleb128 .LVU1289
.LLST203:
	.byte	0x8
	.quad	.LVL209
	.uleb128 .LVL209-.LVL209
	.uleb128 0x6
	.byte	0xa0
	.long	.Ldebug_info0+53175
	.sleb128 0
	.byte	0
.LVUS204:
	.uleb128 .LVU1287
	.uleb128 .LVU1289
.LLST204:
	.byte	0x8
	.quad	.LVL209
	.uleb128 .LVL209-.LVL209
	.uleb128 0x6
	.byte	0xa0
	.long	.Ldebug_info0+53175
	.sleb128 0
	.byte	0
.LVUS205:
	.uleb128 .LVU1288
	.uleb128 .LVU1289
.LLST205:
	.byte	0x8
	.quad	.LVL209
	.uleb128 .LVL209-.LVL209
	.uleb128 0x6
	.byte	0xa0
	.long	.Ldebug_info0+53175
	.sleb128 0
	.byte	0
.LVUS206:
	.uleb128 .LVU1274
	.uleb128 .LVU1275
.LLST206:
	.byte	0x8
	.quad	.LVL207
	.uleb128 .LVL207-.LVL207
	.uleb128 0x6
	.byte	0xa0
	.long	.Ldebug_info0+53175
	.sleb128 0
	.byte	0
.LVUS207:
	.uleb128 .LVU1275
	.uleb128 .LVU1277
.LLST207:
	.byte	0x8
	.quad	.LVL207
	.uleb128 .LVL207-.LVL207
	.uleb128 0x6
	.byte	0xa0
	.long	.Ldebug_info0+53175
	.sleb128 0
	.byte	0
.LVUS211:
	.uleb128 .LVU169
	.uleb128 .LVU178
	.uleb128 .LVU1492
	.uleb128 0
	.uleb128 0
	.uleb128 .LVU1495
.LLST211:
	.byte	0x6
	.quad	.LVL38
	.byte	0x4
	.uleb128 .LVL38-.LVL38
	.uleb128 .LVL39-.LVL38
	.uleb128 0x1
	.byte	0x5c
	.byte	0x4
	.uleb128 .LVL260-.LVL38
	.uleb128 .LHOTE8-.LVL38
	.uleb128 0x1
	.byte	0x5c
	.byte	0x8
	.quad	.LFSB11708
	.uleb128 .LVL262-.LFSB11708
	.uleb128 0x1
	.byte	0x5c
	.byte	0
.LVUS215:
	.uleb128 .LVU171
	.uleb128 .LVU178
	.uleb128 .LVU1492
	.uleb128 0
	.uleb128 0
	.uleb128 .LVU1495
.LLST215:
	.byte	0x6
	.quad	.LVL38
	.byte	0x4
	.uleb128 .LVL38-.LVL38
	.uleb128 .LVL39-.LVL38
	.uleb128 0x1
	.byte	0x5c
	.byte	0x4
	.uleb128 .LVL260-.LVL38
	.uleb128 .LHOTE8-.LVL38
	.uleb128 0x1
	.byte	0x5c
	.byte	0x8
	.quad	.LFSB11708
	.uleb128 .LVL262-.LFSB11708
	.uleb128 0x1
	.byte	0x5c
	.byte	0
.LVUS220:
	.uleb128 .LVU178
	.uleb128 .LVU192
	.uleb128 .LVU192
	.uleb128 .LVU195
	.uleb128 .LVU1490
	.uleb128 .LVU1491
.LLST220:
	.byte	0x6
	.quad	.LVL39
	.byte	0x4
	.uleb128 .LVL39-.LVL39
	.uleb128 .LVL41-.LVL39
	.uleb128 0x1
	.byte	0x5c
	.byte	0x4
	.uleb128 .LVL41-.LVL39
	.uleb128 .LVL43-.LVL39
	.uleb128 0x9
	.byte	0x77
	.sleb128 56
	.byte	0x6
	.byte	0x77
	.sleb128 256
	.byte	0x6
	.byte	0x1e
	.byte	0x9f
	.byte	0x4
	.uleb128 .LVL257-.LVL39
	.uleb128 .LVL259-.LVL39
	.uleb128 0x9
	.byte	0x77
	.sleb128 56
	.byte	0x6
	.byte	0x77
	.sleb128 256
	.byte	0x6
	.byte	0x1e
	.byte	0x9f
	.byte	0
.LVUS226:
	.uleb128 .LVU185
	.uleb128 .LVU192
	.uleb128 .LVU192
	.uleb128 .LVU195
	.uleb128 .LVU1490
	.uleb128 .LVU1491
.LLST226:
	.byte	0x6
	.quad	.LVL39
	.byte	0x4
	.uleb128 .LVL39-.LVL39
	.uleb128 .LVL41-.LVL39
	.uleb128 0x1
	.byte	0x5c
	.byte	0x4
	.uleb128 .LVL41-.LVL39
	.uleb128 .LVL43-.LVL39
	.uleb128 0x9
	.byte	0x77
	.sleb128 56
	.byte	0x6
	.byte	0x77
	.sleb128 256
	.byte	0x6
	.byte	0x1e
	.byte	0x9f
	.byte	0x4
	.uleb128 .LVL257-.LVL39
	.uleb128 .LVL259-.LVL39
	.uleb128 0x9
	.byte	0x77
	.sleb128 56
	.byte	0x6
	.byte	0x77
	.sleb128 256
	.byte	0x6
	.byte	0x1e
	.byte	0x9f
	.byte	0
.LVUS228:
	.uleb128 .LVU187
	.uleb128 .LVU192
	.uleb128 .LVU192
	.uleb128 .LVU195
	.uleb128 .LVU1490
	.uleb128 .LVU1491
.LLST228:
	.byte	0x6
	.quad	.LVL39
	.byte	0x4
	.uleb128 .LVL39-.LVL39
	.uleb128 .LVL41-.LVL39
	.uleb128 0x1
	.byte	0x5c
	.byte	0x4
	.uleb128 .LVL41-.LVL39
	.uleb128 .LVL43-.LVL39
	.uleb128 0x9
	.byte	0x77
	.sleb128 56
	.byte	0x6
	.byte	0x77
	.sleb128 256
	.byte	0x6
	.byte	0x1e
	.byte	0x9f
	.byte	0x4
	.uleb128 .LVL257-.LVL39
	.uleb128 .LVL259-.LVL39
	.uleb128 0x9
	.byte	0x77
	.sleb128 56
	.byte	0x6
	.byte	0x77
	.sleb128 256
	.byte	0x6
	.byte	0x1e
	.byte	0x9f
	.byte	0
.LVUS230:
	.uleb128 .LVU189
	.uleb128 .LVU192
	.uleb128 .LVU192
	.uleb128 .LVU195
	.uleb128 .LVU1490
	.uleb128 .LVU1491
.LLST230:
	.byte	0x6
	.quad	.LVL40
	.byte	0x4
	.uleb128 .LVL40-.LVL40
	.uleb128 .LVL41-.LVL40
	.uleb128 0x1
	.byte	0x5c
	.byte	0x4
	.uleb128 .LVL41-.LVL40
	.uleb128 .LVL43-.LVL40
	.uleb128 0x9
	.byte	0x77
	.sleb128 56
	.byte	0x6
	.byte	0x77
	.sleb128 256
	.byte	0x6
	.byte	0x1e
	.byte	0x9f
	.byte	0x4
	.uleb128 .LVL257-.LVL40
	.uleb128 .LVL259-.LVL40
	.uleb128 0x9
	.byte	0x77
	.sleb128 56
	.byte	0x6
	.byte	0x77
	.sleb128 256
	.byte	0x6
	.byte	0x1e
	.byte	0x9f
	.byte	0
.LVUS231:
	.uleb128 .LVU191
	.uleb128 .LVU195
	.uleb128 .LVU1490
	.uleb128 .LVU1491
.LLST231:
	.byte	0x6
	.quad	.LVL40
	.byte	0x4
	.uleb128 .LVL40-.LVL40
	.uleb128 .LVL43-.LVL40
	.uleb128 0x2
	.byte	0x30
	.byte	0x9f
	.byte	0x4
	.uleb128 .LVL257-.LVL40
	.uleb128 .LVL259-.LVL40
	.uleb128 0x2
	.byte	0x30
	.byte	0x9f
	.byte	0
.LVUS232:
	.uleb128 .LVU190
	.uleb128 .LVU192
	.uleb128 .LVU192
	.uleb128 .LVU195
	.uleb128 .LVU1490
	.uleb128 .LVU1491
.LLST232:
	.byte	0x6
	.quad	.LVL40
	.byte	0x4
	.uleb128 .LVL40-.LVL40
	.uleb128 .LVL41-.LVL40
	.uleb128 0x1
	.byte	0x5c
	.byte	0x4
	.uleb128 .LVL41-.LVL40
	.uleb128 .LVL43-.LVL40
	.uleb128 0x9
	.byte	0x77
	.sleb128 56
	.byte	0x6
	.byte	0x77
	.sleb128 256
	.byte	0x6
	.byte	0x1e
	.byte	0x9f
	.byte	0x4
	.uleb128 .LVL257-.LVL40
	.uleb128 .LVL259-.LVL40
	.uleb128 0x9
	.byte	0x77
	.sleb128 56
	.byte	0x6
	.byte	0x77
	.sleb128 256
	.byte	0x6
	.byte	0x1e
	.byte	0x9f
	.byte	0
.LVUS234:
	.uleb128 .LVU195
	.uleb128 .LVU205
.LLST234:
	.byte	0x8
	.quad	.LVL43
	.uleb128 .LVL44-.LVL43
	.uleb128 0x1
	.byte	0x5c
	.byte	0
.LVUS236:
	.uleb128 .LVU197
	.uleb128 .LVU205
	.uleb128 .LVU205
	.uleb128 .LVU205
.LLST236:
	.byte	0x6
	.quad	.LVL43
	.byte	0x4
	.uleb128 .LVL43-.LVL43
	.uleb128 .LVL44-1-.LVL43
	.uleb128 0x1
	.byte	0x50
	.byte	0x4
	.uleb128 .LVL44-1-.LVL43
	.uleb128 .LVL44-.LVL43
	.uleb128 0x3
	.byte	0x77
	.sleb128 72
	.byte	0
.LVUS237:
	.uleb128 .LVU197
	.uleb128 .LVU205
.LLST237:
	.byte	0x8
	.quad	.LVL43
	.uleb128 .LVL44-.LVL43
	.uleb128 0x1
	.byte	0x5c
	.byte	0
.LVUS239:
	.uleb128 .LVU198
	.uleb128 .LVU205
	.uleb128 .LVU205
	.uleb128 .LVU205
.LLST239:
	.byte	0x6
	.quad	.LVL43
	.byte	0x4
	.uleb128 .LVL43-.LVL43
	.uleb128 .LVL44-1-.LVL43
	.uleb128 0x1
	.byte	0x50
	.byte	0x4
	.uleb128 .LVL44-1-.LVL43
	.uleb128 .LVL44-.LVL43
	.uleb128 0x3
	.byte	0x77
	.sleb128 72
	.byte	0
.LVUS240:
	.uleb128 .LVU198
	.uleb128 .LVU205
.LLST240:
	.byte	0x8
	.quad	.LVL43
	.uleb128 .LVL44-.LVL43
	.uleb128 0x1
	.byte	0x5c
	.byte	0
.LVUS243:
	.uleb128 .LVU199
	.uleb128 .LVU205
	.uleb128 .LVU205
	.uleb128 .LVU205
.LLST243:
	.byte	0x6
	.quad	.LVL43
	.byte	0x4
	.uleb128 .LVL43-.LVL43
	.uleb128 .LVL44-1-.LVL43
	.uleb128 0x1
	.byte	0x50
	.byte	0x4
	.uleb128 .LVL44-1-.LVL43
	.uleb128 .LVL44-.LVL43
	.uleb128 0x3
	.byte	0x77
	.sleb128 72
	.byte	0
.LVUS244:
	.uleb128 .LVU199
	.uleb128 .LVU204
	.uleb128 .LVU204
	.uleb128 .LVU205
.LLST244:
	.byte	0x6
	.quad	.LVL43
	.byte	0x4
	.uleb128 .LVL43-.LVL43
	.uleb128 .LVL43-.LVL43
	.uleb128 0x1
	.byte	0x5c
	.byte	0x4
	.uleb128 .LVL43-.LVL43
	.uleb128 .LVL44-.LVL43
	.uleb128 0x3
	.byte	0x7c
	.sleb128 -1
	.byte	0x9f
	.byte	0
.LVUS247:
	.uleb128 .LVU200
	.uleb128 .LVU201
.LLST247:
	.byte	0x8
	.quad	.LVL43
	.uleb128 .LVL43-.LVL43
	.uleb128 0x6
	.byte	0xa0
	.long	.Ldebug_info0+69147
	.sleb128 0
	.byte	0
.LVUS248:
	.uleb128 .LVU200
	.uleb128 .LVU201
.LLST248:
	.byte	0x8
	.quad	.LVL43
	.uleb128 .LVL43-.LVL43
	.uleb128 0x6
	.byte	0xa0
	.long	.Ldebug_info0+69116
	.sleb128 0
	.byte	0
.LVUS249:
	.uleb128 .LVU205
	.uleb128 .LVU207
.LLST249:
	.byte	0x8
	.quad	.LVL44
	.uleb128 .LVL44-.LVL44
	.uleb128 0x6
	.byte	0xa0
	.long	.Ldebug_info0+69147
	.sleb128 0
	.byte	0
.LVUS326:
	.uleb128 .LVU366
	.uleb128 .LVU406
.LLST326:
	.byte	0x8
	.quad	.LVL75
	.uleb128 .LVL78-.LVL75
	.uleb128 0x4
	.byte	0xa
	.value	0xbe80
	.byte	0x9f
	.byte	0
.LVUS328:
	.uleb128 .LVU368
	.uleb128 .LVU374
.LLST328:
	.byte	0x8
	.quad	.LVL75
	.uleb128 .LVL75-.LVL75
	.uleb128 0x4
	.byte	0xa
	.value	0xbe80
	.byte	0x9f
	.byte	0
.LVUS333:
	.uleb128 .LVU374
	.uleb128 .LVU392
.LLST333:
	.byte	0x8
	.quad	.LVL75
	.uleb128 .LVL77-.LVL75
	.uleb128 0x4
	.byte	0xa
	.value	0xbe80
	.byte	0x9f
	.byte	0
.LVUS339:
	.uleb128 .LVU381
	.uleb128 .LVU392
.LLST339:
	.byte	0x8
	.quad	.LVL75
	.uleb128 .LVL77-.LVL75
	.uleb128 0x4
	.byte	0xa
	.value	0xbe80
	.byte	0x9f
	.byte	0
.LVUS340:
	.uleb128 .LVU383
	.uleb128 .LVU392
.LLST340:
	.byte	0x8
	.quad	.LVL75
	.uleb128 .LVL77-.LVL75
	.uleb128 0x4
	.byte	0xa
	.value	0xbe80
	.byte	0x9f
	.byte	0
.LVUS342:
	.uleb128 .LVU384
	.uleb128 .LVU392
.LLST342:
	.byte	0x8
	.quad	.LVL75
	.uleb128 .LVL77-.LVL75
	.uleb128 0x4
	.byte	0xa
	.value	0xbe80
	.byte	0x9f
	.byte	0
.LVUS344:
	.uleb128 .LVU386
	.uleb128 .LVU392
.LLST344:
	.byte	0x8
	.quad	.LVL75
	.uleb128 .LVL77-.LVL75
	.uleb128 0x2
	.byte	0x30
	.byte	0x9f
	.byte	0
.LVUS345:
	.uleb128 .LVU385
	.uleb128 .LVU392
.LLST345:
	.byte	0x8
	.quad	.LVL75
	.uleb128 .LVL77-.LVL75
	.uleb128 0x4
	.byte	0xa
	.value	0xbe80
	.byte	0x9f
	.byte	0
.LVUS347:
	.uleb128 .LVU392
	.uleb128 .LVU406
.LLST347:
	.byte	0x8
	.quad	.LVL77
	.uleb128 .LVL78-.LVL77
	.uleb128 0x4
	.byte	0xa
	.value	0xbe80
	.byte	0x9f
	.byte	0
.LVUS348:
	.uleb128 .LVU394
	.uleb128 .LVU406
	.uleb128 .LVU406
	.uleb128 .LVU406
.LLST348:
	.byte	0x6
	.quad	.LVL77
	.byte	0x4
	.uleb128 .LVL77-.LVL77
	.uleb128 .LVL78-1-.LVL77
	.uleb128 0x1
	.byte	0x50
	.byte	0x4
	.uleb128 .LVL78-1-.LVL77
	.uleb128 .LVL78-.LVL77
	.uleb128 0x3
	.byte	0x77
	.sleb128 248
	.byte	0
.LVUS349:
	.uleb128 .LVU394
	.uleb128 .LVU406
.LLST349:
	.byte	0x8
	.quad	.LVL77
	.uleb128 .LVL78-.LVL77
	.uleb128 0x4
	.byte	0xa
	.value	0xbe80
	.byte	0x9f
	.byte	0
.LVUS350:
	.uleb128 .LVU395
	.uleb128 .LVU406
	.uleb128 .LVU406
	.uleb128 .LVU406
.LLST350:
	.byte	0x6
	.quad	.LVL77
	.byte	0x4
	.uleb128 .LVL77-.LVL77
	.uleb128 .LVL78-1-.LVL77
	.uleb128 0x1
	.byte	0x50
	.byte	0x4
	.uleb128 .LVL78-1-.LVL77
	.uleb128 .LVL78-.LVL77
	.uleb128 0x3
	.byte	0x77
	.sleb128 248
	.byte	0
.LVUS351:
	.uleb128 .LVU395
	.uleb128 .LVU406
.LLST351:
	.byte	0x8
	.quad	.LVL77
	.uleb128 .LVL78-.LVL77
	.uleb128 0x4
	.byte	0xa
	.value	0xbe80
	.byte	0x9f
	.byte	0
.LVUS352:
	.uleb128 .LVU396
	.uleb128 .LVU1318
.LLST352:
	.byte	0x8
	.quad	.LVL77
	.uleb128 .LVL220-.LVL77
	.uleb128 0x2
	.byte	0x31
	.byte	0x9f
	.byte	0
.LVUS354:
	.uleb128 .LVU396
	.uleb128 .LVU406
	.uleb128 .LVU406
	.uleb128 .LVU406
.LLST354:
	.byte	0x6
	.quad	.LVL77
	.byte	0x4
	.uleb128 .LVL77-.LVL77
	.uleb128 .LVL78-1-.LVL77
	.uleb128 0x1
	.byte	0x50
	.byte	0x4
	.uleb128 .LVL78-1-.LVL77
	.uleb128 .LVL78-.LVL77
	.uleb128 0x3
	.byte	0x77
	.sleb128 248
	.byte	0
.LVUS355:
	.uleb128 .LVU396
	.uleb128 .LVU406
.LLST355:
	.byte	0x8
	.quad	.LVL77
	.uleb128 .LVL78-.LVL77
	.uleb128 0x4
	.byte	0xa
	.value	0xbe80
	.byte	0x9f
	.byte	0
.LVUS357:
	.uleb128 .LVU397
	.uleb128 .LVU399
	.uleb128 .LVU399
	.uleb128 .LVU406
	.uleb128 .LVU406
	.uleb128 .LVU406
.LLST357:
	.byte	0x6
	.quad	.LVL77
	.byte	0x4
	.uleb128 .LVL77-.LVL77
	.uleb128 .LVL77-.LVL77
	.uleb128 0x1
	.byte	0x50
	.byte	0x4
	.uleb128 .LVL77-.LVL77
	.uleb128 .LVL78-1-.LVL77
	.uleb128 0x1
	.byte	0x55
	.byte	0x4
	.uleb128 .LVL78-1-.LVL77
	.uleb128 .LVL78-.LVL77
	.uleb128 0x7
	.byte	0x77
	.sleb128 248
	.byte	0x6
	.byte	0x23
	.uleb128 0x4
	.byte	0x9f
	.byte	0
.LVUS358:
	.uleb128 .LVU397
	.uleb128 .LVU406
.LLST358:
	.byte	0x8
	.quad	.LVL77
	.uleb128 .LVL78-.LVL77
	.uleb128 0x4
	.byte	0xa
	.value	0xbe80
	.byte	0x9f
	.byte	0
.LVUS360:
	.uleb128 .LVU398
	.uleb128 .LVU406
	.uleb128 .LVU406
	.uleb128 .LVU1291
	.uleb128 .LVU1291
	.uleb128 .LVU1293
	.uleb128 .LVU1293
	.uleb128 .LVU1294
	.uleb128 .LVU1294
	.uleb128 .LVU1318
.LLST360:
	.byte	0x6
	.quad	.LVL77
	.byte	0x4
	.uleb128 .LVL77-.LVL77
	.uleb128 .LVL78-1-.LVL77
	.uleb128 0x1
	.byte	0x50
	.byte	0x4
	.uleb128 .LVL78-1-.LVL77
	.uleb128 .LVL210-.LVL77
	.uleb128 0x3
	.byte	0x77
	.sleb128 248
	.byte	0x4
	.uleb128 .LVL210-.LVL77
	.uleb128 .LVL212-.LVL77
	.uleb128 0x8
	.byte	0x76
	.sleb128 -40
	.byte	0x9
	.byte	0xe0
	.byte	0x1a
	.byte	0x8
	.byte	0x28
	.byte	0x1c
	.byte	0x4
	.uleb128 .LVL212-.LVL77
	.uleb128 .LVL213-.LVL77
	.uleb128 0x8
	.byte	0x77
	.sleb128 -48
	.byte	0x9
	.byte	0xe0
	.byte	0x1a
	.byte	0x8
	.byte	0x28
	.byte	0x1c
	.byte	0x4
	.uleb128 .LVL213-.LVL77
	.uleb128 .LVL220-.LVL77
	.uleb128 0x3
	.byte	0x77
	.sleb128 248
	.byte	0
.LVUS362:
	.uleb128 .LVU398
	.uleb128 .LVU399
.LLST362:
	.byte	0x8
	.quad	.LVL77
	.uleb128 .LVL77-.LVL77
	.uleb128 0x1
	.byte	0x50
	.byte	0
.LVUS364:
	.uleb128 .LVU399
	.uleb128 .LVU406
	.uleb128 .LVU406
	.uleb128 .LVU406
.LLST364:
	.byte	0x6
	.quad	.LVL77
	.byte	0x4
	.uleb128 .LVL77-.LVL77
	.uleb128 .LVL78-1-.LVL77
	.uleb128 0x1
	.byte	0x55
	.byte	0x4
	.uleb128 .LVL78-1-.LVL77
	.uleb128 .LVL78-.LVL77
	.uleb128 0x7
	.byte	0x77
	.sleb128 248
	.byte	0x6
	.byte	0x23
	.uleb128 0x4
	.byte	0x9f
	.byte	0
.LVUS365:
	.uleb128 .LVU399
	.uleb128 .LVU406
.LLST365:
	.byte	0x8
	.quad	.LVL77
	.uleb128 .LVL78-.LVL77
	.uleb128 0x4
	.byte	0xa
	.value	0xbe7f
	.byte	0x9f
	.byte	0
.LVUS366:
	.uleb128 .LVU399
	.uleb128 .LVU406
	.uleb128 .LVU406
	.uleb128 .LVU406
.LLST366:
	.byte	0x6
	.quad	.LVL77
	.byte	0x4
	.uleb128 .LVL77-.LVL77
	.uleb128 .LVL78-1-.LVL77
	.uleb128 0x1
	.byte	0x50
	.byte	0x4
	.uleb128 .LVL78-1-.LVL77
	.uleb128 .LVL78-.LVL77
	.uleb128 0x3
	.byte	0x77
	.sleb128 248
	.byte	0
.LVUS367:
	.uleb128 .LVU401
	.uleb128 .LVU406
	.uleb128 .LVU406
	.uleb128 .LVU406
.LLST367:
	.byte	0x6
	.quad	.LVL77
	.byte	0x4
	.uleb128 .LVL77-.LVL77
	.uleb128 .LVL78-1-.LVL77
	.uleb128 0x1
	.byte	0x55
	.byte	0x4
	.uleb128 .LVL78-1-.LVL77
	.uleb128 .LVL78-.LVL77
	.uleb128 0x7
	.byte	0x77
	.sleb128 248
	.byte	0x6
	.byte	0x23
	.uleb128 0x4
	.byte	0x9f
	.byte	0
.LVUS368:
	.uleb128 .LVU401
	.uleb128 .LVU406
.LLST368:
	.byte	0x8
	.quad	.LVL77
	.uleb128 .LVL78-.LVL77
	.uleb128 0x4
	.byte	0xa
	.value	0xbe7f
	.byte	0x9f
	.byte	0
.LVUS369:
	.uleb128 .LVU401
	.uleb128 .LVU406
	.uleb128 .LVU406
	.uleb128 .LVU406
.LLST369:
	.byte	0x6
	.quad	.LVL77
	.byte	0x4
	.uleb128 .LVL77-.LVL77
	.uleb128 .LVL78-1-.LVL77
	.uleb128 0x1
	.byte	0x50
	.byte	0x4
	.uleb128 .LVL78-1-.LVL77
	.uleb128 .LVL78-.LVL77
	.uleb128 0x3
	.byte	0x77
	.sleb128 248
	.byte	0
.LVUS370:
	.uleb128 .LVU402
	.uleb128 .LVU1318
.LLST370:
	.byte	0x8
	.quad	.LVL77
	.uleb128 .LVL220-.LVL77
	.uleb128 0x4
	.byte	0xa
	.value	0xbe7f
	.byte	0x9f
	.byte	0
.LVUS371:
	.uleb128 .LVU402
	.uleb128 .LVU406
	.uleb128 .LVU406
	.uleb128 .LVU406
.LLST371:
	.byte	0x6
	.quad	.LVL77
	.byte	0x4
	.uleb128 .LVL77-.LVL77
	.uleb128 .LVL78-1-.LVL77
	.uleb128 0x5
	.byte	0x70
	.sleb128 195072
	.byte	0x9f
	.byte	0x4
	.uleb128 .LVL78-1-.LVL77
	.uleb128 .LVL78-.LVL77
	.uleb128 0x9
	.byte	0x77
	.sleb128 248
	.byte	0x6
	.byte	0x23
	.uleb128 0x2fa00
	.byte	0x9f
	.byte	0
.LVUS373:
	.uleb128 .LVU402
	.uleb128 .LVU406
	.uleb128 .LVU406
	.uleb128 .LVU406
.LLST373:
	.byte	0x6
	.quad	.LVL77
	.byte	0x4
	.uleb128 .LVL77-.LVL77
	.uleb128 .LVL78-1-.LVL77
	.uleb128 0x1
	.byte	0x55
	.byte	0x4
	.uleb128 .LVL78-1-.LVL77
	.uleb128 .LVL78-.LVL77
	.uleb128 0x7
	.byte	0x77
	.sleb128 248
	.byte	0x6
	.byte	0x23
	.uleb128 0x4
	.byte	0x9f
	.byte	0
.LVUS375:
	.uleb128 .LVU402
	.uleb128 .LVU406
	.uleb128 .LVU406
	.uleb128 .LVU406
.LLST375:
	.byte	0x6
	.quad	.LVL77
	.byte	0x4
	.uleb128 .LVL77-.LVL77
	.uleb128 .LVL78-1-.LVL77
	.uleb128 0x1
	.byte	0x50
	.byte	0x4
	.uleb128 .LVL78-1-.LVL77
	.uleb128 .LVL78-.LVL77
	.uleb128 0x3
	.byte	0x77
	.sleb128 248
	.byte	0
.LVUS377:
	.uleb128 .LVU403
	.uleb128 .LVU406
	.uleb128 .LVU406
	.uleb128 .LVU406
.LLST377:
	.byte	0x6
	.quad	.LVL77
	.byte	0x4
	.uleb128 .LVL77-.LVL77
	.uleb128 .LVL78-1-.LVL77
	.uleb128 0x1
	.byte	0x55
	.byte	0x4
	.uleb128 .LVL78-1-.LVL77
	.uleb128 .LVL78-.LVL77
	.uleb128 0x7
	.byte	0x77
	.sleb128 248
	.byte	0x6
	.byte	0x23
	.uleb128 0x4
	.byte	0x9f
	.byte	0
.LVUS378:
	.uleb128 .LVU403
	.uleb128 .LVU406
	.uleb128 .LVU406
	.uleb128 .LVU406
.LLST378:
	.byte	0x6
	.quad	.LVL77
	.byte	0x4
	.uleb128 .LVL77-.LVL77
	.uleb128 .LVL78-1-.LVL77
	.uleb128 0x5
	.byte	0x70
	.sleb128 195072
	.byte	0x9f
	.byte	0x4
	.uleb128 .LVL78-1-.LVL77
	.uleb128 .LVL78-.LVL77
	.uleb128 0x9
	.byte	0x77
	.sleb128 248
	.byte	0x6
	.byte	0x23
	.uleb128 0x2fa00
	.byte	0x9f
	.byte	0
.LVUS379:
	.uleb128 .LVU403
	.uleb128 .LVU406
	.uleb128 .LVU406
	.uleb128 .LVU406
.LLST379:
	.byte	0x6
	.quad	.LVL77
	.byte	0x4
	.uleb128 .LVL77-.LVL77
	.uleb128 .LVL78-1-.LVL77
	.uleb128 0x1
	.byte	0x50
	.byte	0x4
	.uleb128 .LVL78-1-.LVL77
	.uleb128 .LVL78-.LVL77
	.uleb128 0x3
	.byte	0x77
	.sleb128 248
	.byte	0
.LVUS380:
	.uleb128 .LVU404
	.uleb128 .LVU1318
.LLST380:
	.byte	0x8
	.quad	.LVL77
	.uleb128 .LVL220-.LVL77
	.uleb128 0x2
	.byte	0x31
	.byte	0x9f
	.byte	0
.LVUS381:
	.uleb128 .LVU404
	.uleb128 .LVU406
.LLST381:
	.byte	0x8
	.quad	.LVL77
	.uleb128 .LVL78-.LVL77
	.uleb128 0x6
	.byte	0x9e
	.uleb128 0x4
	.long	0
	.byte	0
.LVUS591:
	.uleb128 .LVU1248
	.uleb128 .LVU1294
.LLST591:
	.byte	0x8
	.quad	.LVL204
	.uleb128 .LVL213-.LVL204
	.uleb128 0x4
	.byte	0xa
	.value	0xbe80
	.byte	0x9f
	.byte	0
.LVUS592:
	.uleb128 .LVU1248
	.uleb128 .LVU1252
.LLST592:
	.byte	0x8
	.quad	.LVL204
	.uleb128 .LVL205-.LVL204
	.uleb128 0x3
	.byte	0x77
	.sleb128 248
	.byte	0
.LVUS593:
	.uleb128 .LVU1248
	.uleb128 .LVU1252
.LLST593:
	.byte	0x8
	.quad	.LVL204
	.uleb128 .LVL205-.LVL204
	.uleb128 0x4
	.byte	0xa
	.value	0xbe80
	.byte	0x9f
	.byte	0
.LVUS594:
	.uleb128 .LVU1249
	.uleb128 .LVU1252
.LLST594:
	.byte	0x8
	.quad	.LVL204
	.uleb128 .LVL205-.LVL204
	.uleb128 0x3
	.byte	0x77
	.sleb128 248
	.byte	0
.LVUS595:
	.uleb128 .LVU1249
	.uleb128 .LVU1252
.LLST595:
	.byte	0x8
	.quad	.LVL204
	.uleb128 .LVL205-.LVL204
	.uleb128 0x4
	.byte	0xa
	.value	0xbe80
	.byte	0x9f
	.byte	0
.LVUS596:
	.uleb128 .LVU1250
	.uleb128 .LVU1252
.LLST596:
	.byte	0x8
	.quad	.LVL204
	.uleb128 .LVL205-.LVL204
	.uleb128 0x3
	.byte	0x77
	.sleb128 248
	.byte	0
.LVUS597:
	.uleb128 .LVU1250
	.uleb128 .LVU1252
.LLST597:
	.byte	0x8
	.quad	.LVL204
	.uleb128 .LVL205-.LVL204
	.uleb128 0x4
	.byte	0xa
	.value	0xbe80
	.byte	0x9f
	.byte	0
.LVUS598:
	.uleb128 .LVU1263
	.uleb128 .LVU1292
.LLST598:
	.byte	0x8
	.quad	.LVL205
	.uleb128 .LVL211-.LVL205
	.uleb128 0x5
	.byte	0x7c
	.sleb128 0
	.byte	0x34
	.byte	0x1b
	.byte	0x9f
	.byte	0
.LVUS599:
	.uleb128 .LVU1263
	.uleb128 .LVU1268
.LLST599:
	.byte	0x8
	.quad	.LVL205
	.uleb128 .LVL207-.LVL205
	.uleb128 0x3
	.byte	0x77
	.sleb128 72
	.byte	0
.LVUS600:
	.uleb128 .LVU1263
	.uleb128 .LVU1268
.LLST600:
	.byte	0x8
	.quad	.LVL205
	.uleb128 .LVL207-.LVL205
	.uleb128 0x5
	.byte	0x7c
	.sleb128 0
	.byte	0x34
	.byte	0x1b
	.byte	0x9f
	.byte	0
.LVUS601:
	.uleb128 .LVU1265
	.uleb128 .LVU1268
.LLST601:
	.byte	0x8
	.quad	.LVL206
	.uleb128 .LVL207-.LVL206
	.uleb128 0x3
	.byte	0x77
	.sleb128 72
	.byte	0
.LVUS602:
	.uleb128 .LVU1265
	.uleb128 .LVU1268
.LLST602:
	.byte	0x8
	.quad	.LVL206
	.uleb128 .LVL207-.LVL206
	.uleb128 0x5
	.byte	0x7c
	.sleb128 0
	.byte	0x34
	.byte	0x1b
	.byte	0x9f
	.byte	0
.LVUS603:
	.uleb128 .LVU1266
	.uleb128 .LVU1268
.LLST603:
	.byte	0x8
	.quad	.LVL206
	.uleb128 .LVL207-.LVL206
	.uleb128 0x3
	.byte	0x77
	.sleb128 72
	.byte	0
.LVUS604:
	.uleb128 .LVU1266
	.uleb128 .LVU1268
.LLST604:
	.byte	0x8
	.quad	.LVL206
	.uleb128 .LVL207-.LVL206
	.uleb128 0x5
	.byte	0x7c
	.sleb128 0
	.byte	0x34
	.byte	0x1b
	.byte	0x9f
	.byte	0
.LVUS605:
	.uleb128 .LVU1495
	.uleb128 .LVU1513
.LLST605:
	.byte	0x8
	.quad	.LVL262
	.uleb128 .LVL264-.LVL262
	.uleb128 0x6
	.byte	0xa0
	.long	.Ldebug_info0+53175
	.sleb128 0
	.byte	0
.LVUS607:
	.uleb128 .LVU1500
	.uleb128 .LVU1513
.LLST607:
	.byte	0x8
	.quad	.LVL262
	.uleb128 .LVL264-.LVL262
	.uleb128 0x6
	.byte	0xa0
	.long	.Ldebug_info0+53175
	.sleb128 0
	.byte	0
.LVUS610:
	.uleb128 .LVU1502
	.uleb128 .LVU1509
.LLST610:
	.byte	0x8
	.quad	.LVL262
	.uleb128 .LVL264-.LVL262
	.uleb128 0x6
	.byte	0xa0
	.long	.Ldebug_info0+53175
	.sleb128 0
	.byte	0
.LVUS612:
	.uleb128 .LVU1505
	.uleb128 .LVU1509
.LLST612:
	.byte	0x8
	.quad	.LVL263
	.uleb128 .LVL264-.LVL263
	.uleb128 0x6
	.byte	0xa0
	.long	.Ldebug_info0+53175
	.sleb128 0
	.byte	0
.LVUS615:
	.uleb128 .LVU1509
	.uleb128 .LVU1513
.LLST615:
	.byte	0x8
	.quad	.LVL264
	.uleb128 .LVL264-.LVL264
	.uleb128 0x6
	.byte	0xa0
	.long	.Ldebug_info0+53175
	.sleb128 0
	.byte	0
.LVUS616:
	.uleb128 .LVU1511
	.uleb128 .LVU1513
.LLST616:
	.byte	0x8
	.quad	.LVL264
	.uleb128 .LVL264-.LVL264
	.uleb128 0x6
	.byte	0xa0
	.long	.Ldebug_info0+53175
	.sleb128 0
	.byte	0
.LVUS617:
	.uleb128 .LVU1512
	.uleb128 .LVU1513
.LLST617:
	.byte	0x8
	.quad	.LVL264
	.uleb128 .LVL264-.LVL264
	.uleb128 0x6
	.byte	0xa0
	.long	.Ldebug_info0+53175
	.sleb128 0
	.byte	0
.LVUS618:
	.uleb128 .LVU1497
	.uleb128 .LVU1498
.LLST618:
	.byte	0x8
	.quad	.LVL262
	.uleb128 .LVL262-.LVL262
	.uleb128 0x6
	.byte	0xa0
	.long	.Ldebug_info0+53175
	.sleb128 0
	.byte	0
.LVUS619:
	.uleb128 .LVU1498
	.uleb128 .LVU1500
.LLST619:
	.byte	0x8
	.quad	.LVL262
	.uleb128 .LVL262-.LVL262
	.uleb128 0x6
	.byte	0xa0
	.long	.Ldebug_info0+53175
	.sleb128 0
	.byte	0
.LVUS620:
	.uleb128 .LVU1516
	.uleb128 .LVU1535
.LLST620:
	.byte	0x8
	.quad	.LVL266
	.uleb128 .LVL269-.LVL266
	.uleb128 0x3
	.byte	0x77
	.sleb128 64
	.byte	0
.LVUS622:
	.uleb128 .LVU1518
	.uleb128 .LVU1535
.LLST622:
	.byte	0x8
	.quad	.LVL266
	.uleb128 .LVL269-.LVL266
	.uleb128 0x7
	.byte	0x77
	.sleb128 64
	.byte	0x6
	.byte	0x23
	.uleb128 0x10
	.byte	0x9f
	.byte	0
.LVUS624:
	.uleb128 .LVU1522
	.uleb128 .LVU1535
.LLST624:
	.byte	0x8
	.quad	.LVL266
	.uleb128 .LVL269-.LVL266
	.uleb128 0x7
	.byte	0x77
	.sleb128 64
	.byte	0x6
	.byte	0x23
	.uleb128 0x10
	.byte	0x9f
	.byte	0
.LVUS626:
	.uleb128 .LVU1525
	.uleb128 .LVU1531
.LLST626:
	.byte	0x8
	.quad	.LVL267
	.uleb128 .LVL269-1-.LVL267
	.uleb128 0xb
	.byte	0x77
	.sleb128 64
	.byte	0x6
	.byte	0x23
	.uleb128 0x20
	.byte	0x6
	.byte	0x75
	.sleb128 0
	.byte	0x1c
	.byte	0x9f
	.byte	0
.LVUS628:
	.uleb128 .LVU1525
	.uleb128 .LVU1531
.LLST628:
	.byte	0x8
	.quad	.LVL267
	.uleb128 .LVL269-.LVL267
	.uleb128 0x7
	.byte	0x77
	.sleb128 64
	.byte	0x6
	.byte	0x23
	.uleb128 0x10
	.byte	0x9f
	.byte	0
.LVUS629:
	.uleb128 .LVU1525
	.uleb128 .LVU1531
.LLST629:
	.byte	0x8
	.quad	.LVL267
	.uleb128 .LVL269-1-.LVL267
	.uleb128 0x1
	.byte	0x55
	.byte	0
.LVUS632:
	.uleb128 .LVU1527
	.uleb128 .LVU1531
.LLST632:
	.byte	0x8
	.quad	.LVL268
	.uleb128 .LVL269-.LVL268
	.uleb128 0x7
	.byte	0x77
	.sleb128 64
	.byte	0x6
	.byte	0x23
	.uleb128 0x10
	.byte	0x9f
	.byte	0
.LVUS633:
	.uleb128 .LVU1527
	.uleb128 .LVU1531
.LLST633:
	.byte	0x8
	.quad	.LVL268
	.uleb128 .LVL269-1-.LVL268
	.uleb128 0x1
	.byte	0x55
	.byte	0
.LVUS634:
	.uleb128 .LVU1527
	.uleb128 .LVU1531
.LLST634:
	.byte	0x8
	.quad	.LVL268
	.uleb128 .LVL269-1-.LVL268
	.uleb128 0xb
	.byte	0x77
	.sleb128 64
	.byte	0x6
	.byte	0x23
	.uleb128 0x20
	.byte	0x6
	.byte	0x75
	.sleb128 0
	.byte	0x1c
	.byte	0x9f
	.byte	0
.LVUS635:
	.uleb128 .LVU1528
	.uleb128 .LVU1531
.LLST635:
	.byte	0x8
	.quad	.LVL268
	.uleb128 .LVL269-.LVL268
	.uleb128 0x7
	.byte	0x77
	.sleb128 64
	.byte	0x6
	.byte	0x23
	.uleb128 0x10
	.byte	0x9f
	.byte	0
.LVUS636:
	.uleb128 .LVU1528
	.uleb128 .LVU1531
.LLST636:
	.byte	0x8
	.quad	.LVL268
	.uleb128 .LVL269-1-.LVL268
	.uleb128 0x1
	.byte	0x55
	.byte	0
.LVUS637:
	.uleb128 .LVU1528
	.uleb128 .LVU1531
.LLST637:
	.byte	0x8
	.quad	.LVL268
	.uleb128 .LVL269-1-.LVL268
	.uleb128 0xb
	.byte	0x77
	.sleb128 64
	.byte	0x6
	.byte	0x23
	.uleb128 0x20
	.byte	0x6
	.byte	0x75
	.sleb128 0
	.byte	0x1c
	.byte	0x9f
	.byte	0
.LVUS638:
	.uleb128 .LVU1531
	.uleb128 .LVU1535
.LLST638:
	.byte	0x8
	.quad	.LVL269
	.uleb128 .LVL269-.LVL269
	.uleb128 0x7
	.byte	0x77
	.sleb128 64
	.byte	0x6
	.byte	0x23
	.uleb128 0x10
	.byte	0x9f
	.byte	0
.LVUS639:
	.uleb128 .LVU1533
	.uleb128 .LVU1535
.LLST639:
	.byte	0x8
	.quad	.LVL269
	.uleb128 .LVL269-.LVL269
	.uleb128 0x7
	.byte	0x77
	.sleb128 64
	.byte	0x6
	.byte	0x23
	.uleb128 0x10
	.byte	0x9f
	.byte	0
.LVUS640:
	.uleb128 .LVU1534
	.uleb128 .LVU1535
.LLST640:
	.byte	0x8
	.quad	.LVL269
	.uleb128 .LVL269-.LVL269
	.uleb128 0x7
	.byte	0x77
	.sleb128 64
	.byte	0x6
	.byte	0x23
	.uleb128 0x10
	.byte	0x9f
	.byte	0
.LVUS641:
	.uleb128 .LVU1519
	.uleb128 .LVU1520
.LLST641:
	.byte	0x8
	.quad	.LVL266
	.uleb128 .LVL266-.LVL266
	.uleb128 0x7
	.byte	0x77
	.sleb128 64
	.byte	0x6
	.byte	0x23
	.uleb128 0x10
	.byte	0x9f
	.byte	0
.LVUS642:
	.uleb128 .LVU1520
	.uleb128 .LVU1522
.LLST642:
	.byte	0x8
	.quad	.LVL266
	.uleb128 .LVL266-.LVL266
	.uleb128 0x6
	.byte	0x77
	.sleb128 64
	.byte	0x6
	.byte	0x23
	.uleb128 0x10
	.byte	0
.LVUS643:
	.uleb128 .LVU1520
	.uleb128 .LVU1522
.LLST643:
	.byte	0x8
	.quad	.LVL266
	.uleb128 .LVL266-.LVL266
	.uleb128 0x6
	.byte	0x77
	.sleb128 64
	.byte	0x6
	.byte	0x23
	.uleb128 0x18
	.byte	0
.LVUS644:
	.uleb128 .LVU1520
	.uleb128 .LVU1522
.LLST644:
	.byte	0x8
	.quad	.LVL266
	.uleb128 .LVL266-.LVL266
	.uleb128 0x7
	.byte	0x77
	.sleb128 64
	.byte	0x6
	.byte	0x23
	.uleb128 0x10
	.byte	0x9f
	.byte	0
.LVUS647:
	.uleb128 .LVU1547
	.uleb128 .LVU1558
.LLST647:
	.byte	0x8
	.quad	.LVL273
	.uleb128 .LVL279-.LVL273
	.uleb128 0x5
	.byte	0x7c
	.sleb128 0
	.byte	0x34
	.byte	0x1b
	.byte	0x9f
	.byte	0
.LVUS648:
	.uleb128 .LVU1547
	.uleb128 .LVU1552
	.uleb128 .LVU1557
	.uleb128 .LVU1558
.LLST648:
	.byte	0x6
	.quad	.LVL273
	.byte	0x4
	.uleb128 .LVL273-.LVL273
	.uleb128 .LVL276-.LVL273
	.uleb128 0x3
	.byte	0x77
	.sleb128 72
	.byte	0x4
	.uleb128 .LVL277-.LVL273
	.uleb128 .LVL279-.LVL273
	.uleb128 0x3
	.byte	0x77
	.sleb128 72
	.byte	0
.LVUS649:
	.uleb128 .LVU1547
	.uleb128 .LVU1552
	.uleb128 .LVU1557
	.uleb128 .LVU1558
.LLST649:
	.byte	0x6
	.quad	.LVL273
	.byte	0x4
	.uleb128 .LVL273-.LVL273
	.uleb128 .LVL276-.LVL273
	.uleb128 0x5
	.byte	0x7c
	.sleb128 0
	.byte	0x34
	.byte	0x1b
	.byte	0x9f
	.byte	0x4
	.uleb128 .LVL277-.LVL273
	.uleb128 .LVL279-.LVL273
	.uleb128 0x5
	.byte	0x7c
	.sleb128 0
	.byte	0x34
	.byte	0x1b
	.byte	0x9f
	.byte	0
.LVUS650:
	.uleb128 .LVU1549
	.uleb128 .LVU1552
.LLST650:
	.byte	0x8
	.quad	.LVL274
	.uleb128 .LVL276-.LVL274
	.uleb128 0x3
	.byte	0x77
	.sleb128 72
	.byte	0
.LVUS651:
	.uleb128 .LVU1549
	.uleb128 .LVU1552
.LLST651:
	.byte	0x8
	.quad	.LVL274
	.uleb128 .LVL276-.LVL274
	.uleb128 0x5
	.byte	0x7c
	.sleb128 0
	.byte	0x34
	.byte	0x1b
	.byte	0x9f
	.byte	0
.LVUS652:
	.uleb128 .LVU1550
	.uleb128 .LVU1552
.LLST652:
	.byte	0x8
	.quad	.LVL274
	.uleb128 .LVL276-.LVL274
	.uleb128 0x3
	.byte	0x77
	.sleb128 72
	.byte	0
.LVUS653:
	.uleb128 .LVU1550
	.uleb128 .LVU1552
.LLST653:
	.byte	0x8
	.quad	.LVL274
	.uleb128 .LVL276-.LVL274
	.uleb128 0x5
	.byte	0x7c
	.sleb128 0
	.byte	0x34
	.byte	0x1b
	.byte	0x9f
	.byte	0
.Ldebug_loc3:
	.section	.debug_aranges,"",@progbits
	.long	0x3c
	.value	0x2
	.long	.Ldebug_info0
	.byte	0x8
	.byte	0
	.value	0
	.value	0
	.quad	.Ltext0
	.quad	.Letext0-.Ltext0
	.quad	.Ltext_cold0
	.quad	.Letext_cold0-.Ltext_cold0
	.quad	0
	.quad	0
	.section	.debug_rnglists,"",@progbits
.Ldebug_ranges0:
	.long	.Ldebug_ranges3-.Ldebug_ranges2
.Ldebug_ranges2:
	.value	0x5
	.byte	0x8
	.byte	0
	.long	0
.LLRL0:
	.byte	0x7
	.quad	.LFB11708
	.uleb128 .LHOTE8-.LFB11708
	.byte	0x7
	.quad	.LFSB11708
	.uleb128 .LCOLDE8-.LFSB11708
	.byte	0
.LLRL7:
	.byte	0x5
	.quad	.LBB2375
	.byte	0x4
	.uleb128 .LBB2375-.LBB2375
	.uleb128 .LBE2375-.LBB2375
	.byte	0x4
	.uleb128 .LBB2399-.LBB2375
	.uleb128 .LBE2399-.LBB2375
	.byte	0x4
	.uleb128 .LBB2403-.LBB2375
	.uleb128 .LBE2403-.LBB2375
	.byte	0
.LLRL12:
	.byte	0x5
	.quad	.LBB2379
	.byte	0x4
	.uleb128 .LBB2379-.LBB2379
	.uleb128 .LBE2379-.LBB2379
	.byte	0x4
	.uleb128 .LBB2382-.LBB2379
	.uleb128 .LBE2382-.LBB2379
	.byte	0x4
	.uleb128 .LBB2385-.LBB2379
	.uleb128 .LBE2385-.LBB2379
	.byte	0
.LLRL16:
	.byte	0x5
	.quad	.LBB2392
	.byte	0x4
	.uleb128 .LBB2392-.LBB2392
	.uleb128 .LBE2392-.LBB2392
	.byte	0x4
	.uleb128 .LBB2398-.LBB2392
	.uleb128 .LBE2398-.LBB2392
	.byte	0
.LLRL23:
	.byte	0x5
	.quad	.LBB2404
	.byte	0x4
	.uleb128 .LBB2404-.LBB2404
	.uleb128 .LBE2404-.LBB2404
	.byte	0x4
	.uleb128 .LBB3375-.LBB2404
	.uleb128 .LBE3375-.LBB2404
	.byte	0x7
	.quad	.LBB3432
	.uleb128 .LBE3432-.LBB3432
	.byte	0
.LLRL30:
	.byte	0x7
	.quad	.LBB2408
	.uleb128 .LBE2408-.LBB2408
	.byte	0x7
	.quad	.LBB2460
	.uleb128 .LBE2460-.LBB2460
	.byte	0
.LLRL31:
	.byte	0x7
	.quad	.LBB2409
	.uleb128 .LBE2409-.LBB2409
	.byte	0x7
	.quad	.LBB2459
	.uleb128 .LBE2459-.LBB2459
	.byte	0
.LLRL36:
	.byte	0x7
	.quad	.LBB2410
	.uleb128 .LBE2410-.LBB2410
	.byte	0x7
	.quad	.LBB2444
	.uleb128 .LBE2444-.LBB2444
	.byte	0
.LLRL41:
	.byte	0x5
	.quad	.LBB2417
	.byte	0x4
	.uleb128 .LBB2417-.LBB2417
	.uleb128 .LBE2417-.LBB2417
	.byte	0x4
	.uleb128 .LBB2442-.LBB2417
	.uleb128 .LBE2442-.LBB2417
	.byte	0
.LLRL52:
	.byte	0x5
	.quad	.LBB2422
	.byte	0x4
	.uleb128 .LBB2422-.LBB2422
	.uleb128 .LBE2422-.LBB2422
	.byte	0x4
	.uleb128 .LBB2430-.LBB2422
	.uleb128 .LBE2430-.LBB2422
	.byte	0
.LLRL62:
	.byte	0x5
	.quad	.LBB2431
	.byte	0x4
	.uleb128 .LBB2431-.LBB2431
	.uleb128 .LBE2431-.LBB2431
	.byte	0x4
	.uleb128 .LBB2443-.LBB2431
	.uleb128 .LBE2443-.LBB2431
	.byte	0
.LLRL73:
	.byte	0x5
	.quad	.LBB2435
	.byte	0x4
	.uleb128 .LBB2435-.LBB2435
	.uleb128 .LBE2435-.LBB2435
	.byte	0x4
	.uleb128 .LBB2438-.LBB2435
	.uleb128 .LBE2438-.LBB2435
	.byte	0
.LLRL74:
	.byte	0x5
	.quad	.LBB2436
	.byte	0x4
	.uleb128 .LBB2436-.LBB2436
	.uleb128 .LBE2436-.LBB2436
	.byte	0x4
	.uleb128 .LBB2437-.LBB2436
	.uleb128 .LBE2437-.LBB2436
	.byte	0
.LLRL92:
	.byte	0x5
	.quad	.LBB2467
	.byte	0x4
	.uleb128 .LBB2467-.LBB2467
	.uleb128 .LBE2467-.LBB2467
	.byte	0x4
	.uleb128 .LBB2635-.LBB2467
	.uleb128 .LBE2635-.LBB2467
	.byte	0x4
	.uleb128 .LBB3368-.LBB2467
	.uleb128 .LBE3368-.LBB2467
	.byte	0x4
	.uleb128 .LBB3370-.LBB2467
	.uleb128 .LBE3370-.LBB2467
	.byte	0x4
	.uleb128 .LBB3372-.LBB2467
	.uleb128 .LBE3372-.LBB2467
	.byte	0x4
	.uleb128 .LBB3376-.LBB2467
	.uleb128 .LBE3376-.LBB2467
	.byte	0x4
	.uleb128 .LBB3381-.LBB2467
	.uleb128 .LBE3381-.LBB2467
	.byte	0
.LLRL96:
	.byte	0x5
	.quad	.LBB2470
	.byte	0x4
	.uleb128 .LBB2470-.LBB2470
	.uleb128 .LBE2470-.LBB2470
	.byte	0x4
	.uleb128 .LBB2483-.LBB2470
	.uleb128 .LBE2483-.LBB2470
	.byte	0
.LLRL99:
	.byte	0x5
	.quad	.LBB2473
	.byte	0x4
	.uleb128 .LBB2473-.LBB2473
	.uleb128 .LBE2473-.LBB2473
	.byte	0x4
	.uleb128 .LBB2479-.LBB2473
	.uleb128 .LBE2479-.LBB2473
	.byte	0x4
	.uleb128 .LBB2480-.LBB2473
	.uleb128 .LBE2480-.LBB2473
	.byte	0x4
	.uleb128 .LBB2481-.LBB2473
	.uleb128 .LBE2481-.LBB2473
	.byte	0x4
	.uleb128 .LBB2482-.LBB2473
	.uleb128 .LBE2482-.LBB2473
	.byte	0x4
	.uleb128 .LBB2484-.LBB2473
	.uleb128 .LBE2484-.LBB2473
	.byte	0x4
	.uleb128 .LBB2485-.LBB2473
	.uleb128 .LBE2485-.LBB2473
	.byte	0
.LLRL101:
	.byte	0x5
	.quad	.LBB2498
	.byte	0x4
	.uleb128 .LBB2498-.LBB2498
	.uleb128 .LBE2498-.LBB2498
	.byte	0x4
	.uleb128 .LBB2513-.LBB2498
	.uleb128 .LBE2513-.LBB2498
	.byte	0x4
	.uleb128 .LBB3377-.LBB2498
	.uleb128 .LBE3377-.LBB2498
	.byte	0x4
	.uleb128 .LBB3379-.LBB2498
	.uleb128 .LBE3379-.LBB2498
	.byte	0
.LLRL103:
	.byte	0x5
	.quad	.LBB2503
	.byte	0x4
	.uleb128 .LBB2503-.LBB2503
	.uleb128 .LBE2503-.LBB2503
	.byte	0x4
	.uleb128 .LBB2514-.LBB2503
	.uleb128 .LBE2514-.LBB2503
	.byte	0x4
	.uleb128 .LBB3378-.LBB2503
	.uleb128 .LBE3378-.LBB2503
	.byte	0x4
	.uleb128 .LBB3380-.LBB2503
	.uleb128 .LBE3380-.LBB2503
	.byte	0
.LLRL112:
	.byte	0x5
	.quad	.LBB2515
	.byte	0x4
	.uleb128 .LBB2515-.LBB2515
	.uleb128 .LBE2515-.LBB2515
	.byte	0x4
	.uleb128 .LBB2634-.LBB2515
	.uleb128 .LBE2634-.LBB2515
	.byte	0x4
	.uleb128 .LBB2636-.LBB2515
	.uleb128 .LBE2636-.LBB2515
	.byte	0x4
	.uleb128 .LBB3369-.LBB2515
	.uleb128 .LBE3369-.LBB2515
	.byte	0x4
	.uleb128 .LBB3371-.LBB2515
	.uleb128 .LBE3371-.LBB2515
	.byte	0x4
	.uleb128 .LBB3374-.LBB2515
	.uleb128 .LBE3374-.LBB2515
	.byte	0x4
	.uleb128 .LBB3383-.LBB2515
	.uleb128 .LBE3383-.LBB2515
	.byte	0x5
	.quad	.LBB3384
	.byte	0x4
	.uleb128 .LBB3384-.LBB3384
	.uleb128 .LBE3384-.LBB3384
	.byte	0x4
	.uleb128 .LBB3450-.LBB3384
	.uleb128 .LBE3450-.LBB3384
	.byte	0
.LLRL115:
	.byte	0x5
	.quad	.LBB2516
	.byte	0x4
	.uleb128 .LBB2516-.LBB2516
	.uleb128 .LBE2516-.LBB2516
	.byte	0x4
	.uleb128 .LBB2630-.LBB2516
	.uleb128 .LBE2630-.LBB2516
	.byte	0
.LLRL118:
	.byte	0x5
	.quad	.LBB2519
	.byte	0x4
	.uleb128 .LBB2519-.LBB2519
	.uleb128 .LBE2519-.LBB2519
	.byte	0x4
	.uleb128 .LBB2631-.LBB2519
	.uleb128 .LBE2631-.LBB2519
	.byte	0
.LLRL121:
	.byte	0x5
	.quad	.LBB2522
	.byte	0x4
	.uleb128 .LBB2522-.LBB2522
	.uleb128 .LBE2522-.LBB2522
	.byte	0x4
	.uleb128 .LBB2632-.LBB2522
	.uleb128 .LBE2632-.LBB2522
	.byte	0x7
	.quad	.LBB2633
	.uleb128 .LBE2633-.LBB2633
	.byte	0
.LLRL129:
	.byte	0x5
	.quad	.LBB2528
	.byte	0x4
	.uleb128 .LBB2528-.LBB2528
	.uleb128 .LBE2528-.LBB2528
	.byte	0x4
	.uleb128 .LBB2530-.LBB2528
	.uleb128 .LBE2530-.LBB2528
	.byte	0
.LLRL131:
	.byte	0x5
	.quad	.LBB2532
	.byte	0x4
	.uleb128 .LBB2532-.LBB2532
	.uleb128 .LBE2532-.LBB2532
	.byte	0x4
	.uleb128 .LBB2534-.LBB2532
	.uleb128 .LBE2534-.LBB2532
	.byte	0
.LLRL133:
	.byte	0x5
	.quad	.LBB2535
	.byte	0x4
	.uleb128 .LBB2535-.LBB2535
	.uleb128 .LBE2535-.LBB2535
	.byte	0x4
	.uleb128 .LBB2538-.LBB2535
	.uleb128 .LBE2538-.LBB2535
	.byte	0x4
	.uleb128 .LBB2624-.LBB2535
	.uleb128 .LBE2624-.LBB2535
	.byte	0
.LLRL135:
	.byte	0x5
	.quad	.LBB2539
	.byte	0x4
	.uleb128 .LBB2539-.LBB2539
	.uleb128 .LBE2539-.LBB2539
	.byte	0x4
	.uleb128 .LBB2625-.LBB2539
	.uleb128 .LBE2625-.LBB2539
	.byte	0x4
	.uleb128 .LBB2626-.LBB2539
	.uleb128 .LBE2626-.LBB2539
	.byte	0x7
	.quad	.LBB2627
	.uleb128 .LBE2627-.LBB2627
	.byte	0
.LLRL138:
	.byte	0x5
	.quad	.LBB2541
	.byte	0x4
	.uleb128 .LBB2541-.LBB2541
	.uleb128 .LBE2541-.LBB2541
	.byte	0x4
	.uleb128 .LBB2546-.LBB2541
	.uleb128 .LBE2546-.LBB2541
	.byte	0
.LLRL143:
	.byte	0x7
	.quad	.LBB2547
	.uleb128 .LBE2547-.LBB2547
	.byte	0x7
	.quad	.LBB2620
	.uleb128 .LBE2620-.LBB2620
	.byte	0
.LLRL151:
	.byte	0x7
	.quad	.LBB2549
	.uleb128 .LBE2549-.LBB2549
	.byte	0x7
	.quad	.LBB2618
	.uleb128 .LBE2618-.LBB2618
	.byte	0
.LLRL157:
	.byte	0x5
	.quad	.LBB2553
	.byte	0x4
	.uleb128 .LBB2553-.LBB2553
	.uleb128 .LBE2553-.LBB2553
	.byte	0x4
	.uleb128 .LBB2555-.LBB2553
	.uleb128 .LBE2555-.LBB2553
	.byte	0
.LLRL159:
	.byte	0x5
	.quad	.LBB2557
	.byte	0x4
	.uleb128 .LBB2557-.LBB2557
	.uleb128 .LBE2557-.LBB2557
	.byte	0x4
	.uleb128 .LBB2614-.LBB2557
	.uleb128 .LBE2614-.LBB2557
	.byte	0x4
	.uleb128 .LBB2616-.LBB2557
	.uleb128 .LBE2616-.LBB2557
	.byte	0
.LLRL161:
	.byte	0x5
	.quad	.LBB2559
	.byte	0x4
	.uleb128 .LBB2559-.LBB2559
	.uleb128 .LBE2559-.LBB2559
	.byte	0x4
	.uleb128 .LBB2566-.LBB2559
	.uleb128 .LBE2566-.LBB2559
	.byte	0x4
	.uleb128 .LBB2567-.LBB2559
	.uleb128 .LBE2567-.LBB2559
	.byte	0
.LLRL163:
	.byte	0x5
	.quad	.LBB2560
	.byte	0x4
	.uleb128 .LBB2560-.LBB2560
	.uleb128 .LBE2560-.LBB2560
	.byte	0x4
	.uleb128 .LBB2564-.LBB2560
	.uleb128 .LBE2564-.LBB2560
	.byte	0x4
	.uleb128 .LBB2565-.LBB2560
	.uleb128 .LBE2565-.LBB2560
	.byte	0
.LLRL166:
	.byte	0x5
	.quad	.LBB2570
	.byte	0x4
	.uleb128 .LBB2570-.LBB2570
	.uleb128 .LBE2570-.LBB2570
	.byte	0x4
	.uleb128 .LBB2615-.LBB2570
	.uleb128 .LBE2615-.LBB2570
	.byte	0x4
	.uleb128 .LBB2617-.LBB2570
	.uleb128 .LBE2617-.LBB2570
	.byte	0
.LLRL167:
	.byte	0x5
	.quad	.LBB2571
	.byte	0x4
	.uleb128 .LBB2571-.LBB2571
	.uleb128 .LBE2571-.LBB2571
	.byte	0x4
	.uleb128 .LBB2580-.LBB2571
	.uleb128 .LBE2580-.LBB2571
	.byte	0x4
	.uleb128 .LBB2581-.LBB2571
	.uleb128 .LBE2581-.LBB2571
	.byte	0x4
	.uleb128 .LBB2586-.LBB2571
	.uleb128 .LBE2586-.LBB2571
	.byte	0
.LLRL177:
	.byte	0x5
	.quad	.LBB2582
	.byte	0x4
	.uleb128 .LBB2582-.LBB2582
	.uleb128 .LBE2582-.LBB2582
	.byte	0x4
	.uleb128 .LBB2587-.LBB2582
	.uleb128 .LBE2587-.LBB2582
	.byte	0
.LLRL185:
	.byte	0x5
	.quad	.LBB2588
	.byte	0x4
	.uleb128 .LBB2588-.LBB2588
	.uleb128 .LBE2588-.LBB2588
	.byte	0x4
	.uleb128 .LBB2612-.LBB2588
	.uleb128 .LBE2612-.LBB2588
	.byte	0x4
	.uleb128 .LBB2613-.LBB2588
	.uleb128 .LBE2613-.LBB2588
	.byte	0
.LLRL187:
	.byte	0x5
	.quad	.LBB2590
	.byte	0x4
	.uleb128 .LBB2590-.LBB2590
	.uleb128 .LBE2590-.LBB2590
	.byte	0x4
	.uleb128 .LBB2608-.LBB2590
	.uleb128 .LBE2608-.LBB2590
	.byte	0x4
	.uleb128 .LBB2609-.LBB2590
	.uleb128 .LBE2609-.LBB2590
	.byte	0
.LLRL189:
	.byte	0x5
	.quad	.LBB2592
	.byte	0x4
	.uleb128 .LBB2592-.LBB2592
	.uleb128 .LBE2592-.LBB2592
	.byte	0x4
	.uleb128 .LBB2604-.LBB2592
	.uleb128 .LBE2604-.LBB2592
	.byte	0x4
	.uleb128 .LBB2605-.LBB2592
	.uleb128 .LBE2605-.LBB2592
	.byte	0
.LLRL191:
	.byte	0x5
	.quad	.LBB2594
	.byte	0x4
	.uleb128 .LBB2594-.LBB2594
	.uleb128 .LBE2594-.LBB2594
	.byte	0x4
	.uleb128 .LBB2600-.LBB2594
	.uleb128 .LBE2600-.LBB2594
	.byte	0x4
	.uleb128 .LBB2601-.LBB2594
	.uleb128 .LBE2601-.LBB2594
	.byte	0
.LLRL193:
	.byte	0x5
	.quad	.LBB2595
	.byte	0x4
	.uleb128 .LBB2595-.LBB2595
	.uleb128 .LBE2595-.LBB2595
	.byte	0x4
	.uleb128 .LBB2598-.LBB2595
	.uleb128 .LBE2598-.LBB2595
	.byte	0x4
	.uleb128 .LBB2599-.LBB2595
	.uleb128 .LBE2599-.LBB2595
	.byte	0
.LLRL196:
	.byte	0x5
	.quad	.LBB2637
	.byte	0x4
	.uleb128 .LBB2637-.LBB2637
	.uleb128 .LBE2637-.LBB2637
	.byte	0x4
	.uleb128 .LBB3365-.LBB2637
	.uleb128 .LBE3365-.LBB2637
	.byte	0
.LLRL198:
	.byte	0x5
	.quad	.LBB2638
	.byte	0x4
	.uleb128 .LBB2638-.LBB2638
	.uleb128 .LBE2638-.LBB2638
	.byte	0x4
	.uleb128 .LBB2653-.LBB2638
	.uleb128 .LBE2653-.LBB2638
	.byte	0
.LLRL200:
	.byte	0x5
	.quad	.LBB2639
	.byte	0x4
	.uleb128 .LBB2639-.LBB2639
	.uleb128 .LBE2639-.LBB2639
	.byte	0x4
	.uleb128 .LBB2647-.LBB2639
	.uleb128 .LBE2647-.LBB2639
	.byte	0
.LLRL210:
	.byte	0x5
	.quad	.LBB2656
	.byte	0x4
	.uleb128 .LBB2656-.LBB2656
	.uleb128 .LBE2656-.LBB2656
	.byte	0x4
	.uleb128 .LBB3373-.LBB2656
	.uleb128 .LBE3373-.LBB2656
	.byte	0x7
	.quad	.LBB3385
	.uleb128 .LBE3385-.LBB3385
	.byte	0
.LLRL214:
	.byte	0x7
	.quad	.LBB2657
	.uleb128 .LBE2657-.LBB2657
	.byte	0x7
	.quad	.LBB2707
	.uleb128 .LBE2707-.LBB2707
	.byte	0
.LLRL219:
	.byte	0x5
	.quad	.LBB2664
	.byte	0x4
	.uleb128 .LBB2664-.LBB2664
	.uleb128 .LBE2664-.LBB2664
	.byte	0x4
	.uleb128 .LBB2704-.LBB2664
	.uleb128 .LBE2704-.LBB2664
	.byte	0x4
	.uleb128 .LBB2706-.LBB2664
	.uleb128 .LBE2706-.LBB2664
	.byte	0
.LLRL225:
	.byte	0x5
	.quad	.LBB2669
	.byte	0x4
	.uleb128 .LBB2669-.LBB2669
	.uleb128 .LBE2669-.LBB2669
	.byte	0x4
	.uleb128 .LBB2685-.LBB2669
	.uleb128 .LBE2685-.LBB2669
	.byte	0x4
	.uleb128 .LBB2686-.LBB2669
	.uleb128 .LBE2686-.LBB2669
	.byte	0
.LLRL227:
	.byte	0x5
	.quad	.LBB2671
	.byte	0x4
	.uleb128 .LBB2671-.LBB2671
	.uleb128 .LBE2671-.LBB2671
	.byte	0x4
	.uleb128 .LBB2681-.LBB2671
	.uleb128 .LBE2681-.LBB2671
	.byte	0x4
	.uleb128 .LBB2682-.LBB2671
	.uleb128 .LBE2682-.LBB2671
	.byte	0
.LLRL229:
	.byte	0x5
	.quad	.LBB2673
	.byte	0x4
	.uleb128 .LBB2673-.LBB2673
	.uleb128 .LBE2673-.LBB2673
	.byte	0x4
	.uleb128 .LBB2678-.LBB2673
	.uleb128 .LBE2678-.LBB2673
	.byte	0
.LLRL233:
	.byte	0x5
	.quad	.LBB2687
	.byte	0x4
	.uleb128 .LBB2687-.LBB2687
	.uleb128 .LBE2687-.LBB2687
	.byte	0x4
	.uleb128 .LBB2705-.LBB2687
	.uleb128 .LBE2705-.LBB2687
	.byte	0
.LLRL242:
	.byte	0x5
	.quad	.LBB2691
	.byte	0x4
	.uleb128 .LBB2691-.LBB2691
	.uleb128 .LBE2691-.LBB2691
	.byte	0x4
	.uleb128 .LBB2700-.LBB2691
	.uleb128 .LBE2700-.LBB2691
	.byte	0
.LLRL246:
	.byte	0x5
	.quad	.LBB2693
	.byte	0x4
	.uleb128 .LBB2693-.LBB2693
	.uleb128 .LBE2693-.LBB2693
	.byte	0x4
	.uleb128 .LBB2697-.LBB2693
	.uleb128 .LBE2697-.LBB2693
	.byte	0
.LLRL252:
	.byte	0x5
	.quad	.LBB2710
	.byte	0x4
	.uleb128 .LBB2710-.LBB2710
	.uleb128 .LBE2710-.LBB2710
	.byte	0x4
	.uleb128 .LBB3367-.LBB2710
	.uleb128 .LBE3367-.LBB2710
	.byte	0x4
	.uleb128 .LBB3382-.LBB2710
	.uleb128 .LBE3382-.LBB2710
	.byte	0x7
	.quad	.LBB3451
	.uleb128 .LBE3451-.LBB3451
	.byte	0
.LLRL255:
	.byte	0x5
	.quad	.LBB2713
	.byte	0x4
	.uleb128 .LBB2713-.LBB2713
	.uleb128 .LBE2713-.LBB2713
	.byte	0x4
	.uleb128 .LBB2784-.LBB2713
	.uleb128 .LBE2784-.LBB2713
	.byte	0x4
	.uleb128 .LBB2815-.LBB2713
	.uleb128 .LBE2815-.LBB2713
	.byte	0x4
	.uleb128 .LBB2818-.LBB2713
	.uleb128 .LBE2818-.LBB2713
	.byte	0x7
	.quad	.LBB2822
	.uleb128 .LBE2822-.LBB2822
	.byte	0
.LLRL259:
	.byte	0x7
	.quad	.LBB2714
	.uleb128 .LBE2714-.LBB2714
	.byte	0x7
	.quad	.LBB2763
	.uleb128 .LBE2763-.LBB2763
	.byte	0
.LLRL264:
	.byte	0x5
	.quad	.LBB2721
	.byte	0x4
	.uleb128 .LBB2721-.LBB2721
	.uleb128 .LBE2721-.LBB2721
	.byte	0x4
	.uleb128 .LBB2762-.LBB2721
	.uleb128 .LBE2762-.LBB2721
	.byte	0
.LLRL270:
	.byte	0x5
	.quad	.LBB2726
	.byte	0x4
	.uleb128 .LBB2726-.LBB2726
	.uleb128 .LBE2726-.LBB2726
	.byte	0x4
	.uleb128 .LBB2736-.LBB2726
	.uleb128 .LBE2736-.LBB2726
	.byte	0
.LLRL272:
	.byte	0x5
	.quad	.LBB2728
	.byte	0x4
	.uleb128 .LBB2728-.LBB2728
	.uleb128 .LBE2728-.LBB2728
	.byte	0x4
	.uleb128 .LBB2734-.LBB2728
	.uleb128 .LBE2734-.LBB2728
	.byte	0
.LLRL277:
	.byte	0x5
	.quad	.LBB2737
	.byte	0x4
	.uleb128 .LBB2737-.LBB2737
	.uleb128 .LBE2737-.LBB2737
	.byte	0x4
	.uleb128 .LBB2760-.LBB2737
	.uleb128 .LBE2760-.LBB2737
	.byte	0x4
	.uleb128 .LBB2761-.LBB2737
	.uleb128 .LBE2761-.LBB2737
	.byte	0
.LLRL286:
	.byte	0x5
	.quad	.LBB2741
	.byte	0x4
	.uleb128 .LBB2741-.LBB2741
	.uleb128 .LBE2741-.LBB2741
	.byte	0x4
	.uleb128 .LBB2752-.LBB2741
	.uleb128 .LBE2752-.LBB2741
	.byte	0x4
	.uleb128 .LBB2753-.LBB2741
	.uleb128 .LBE2753-.LBB2741
	.byte	0
.LLRL292:
	.byte	0x5
	.quad	.LBB2744
	.byte	0x4
	.uleb128 .LBB2744-.LBB2744
	.uleb128 .LBE2744-.LBB2744
	.byte	0x4
	.uleb128 .LBB2747-.LBB2744
	.uleb128 .LBE2747-.LBB2744
	.byte	0
.LLRL293:
	.byte	0x5
	.quad	.LBB2748
	.byte	0x4
	.uleb128 .LBB2748-.LBB2748
	.uleb128 .LBE2748-.LBB2748
	.byte	0x4
	.uleb128 .LBB2749-.LBB2748
	.uleb128 .LBE2749-.LBB2748
	.byte	0
.LLRL295:
	.byte	0x5
	.quad	.LBB2764
	.byte	0x4
	.uleb128 .LBB2764-.LBB2764
	.uleb128 .LBE2764-.LBB2764
	.byte	0x4
	.uleb128 .LBB2788-.LBB2764
	.uleb128 .LBE2788-.LBB2764
	.byte	0x4
	.uleb128 .LBB2800-.LBB2764
	.uleb128 .LBE2800-.LBB2764
	.byte	0x4
	.uleb128 .LBB2817-.LBB2764
	.uleb128 .LBE2817-.LBB2764
	.byte	0x4
	.uleb128 .LBB2819-.LBB2764
	.uleb128 .LBE2819-.LBB2764
	.byte	0
.LLRL298:
	.byte	0x5
	.quad	.LBB2765
	.byte	0x4
	.uleb128 .LBB2765-.LBB2765
	.uleb128 .LBE2765-.LBB2765
	.byte	0x4
	.uleb128 .LBB2782-.LBB2765
	.uleb128 .LBE2782-.LBB2765
	.byte	0
.LLRL301:
	.byte	0x5
	.quad	.LBB2768
	.byte	0x4
	.uleb128 .LBB2768-.LBB2768
	.uleb128 .LBE2768-.LBB2768
	.byte	0x4
	.uleb128 .LBB2783-.LBB2768
	.uleb128 .LBE2783-.LBB2768
	.byte	0
.LLRL304:
	.byte	0x5
	.quad	.LBB2771
	.byte	0x4
	.uleb128 .LBB2771-.LBB2771
	.uleb128 .LBE2771-.LBB2771
	.byte	0x4
	.uleb128 .LBB2781-.LBB2771
	.uleb128 .LBE2781-.LBB2771
	.byte	0
.LLRL310:
	.byte	0x5
	.quad	.LBB2785
	.byte	0x4
	.uleb128 .LBB2785-.LBB2785
	.uleb128 .LBE2785-.LBB2785
	.byte	0x4
	.uleb128 .LBB2816-.LBB2785
	.uleb128 .LBE2816-.LBB2785
	.byte	0
.LLRL313:
	.byte	0x5
	.quad	.LBB2789
	.byte	0x4
	.uleb128 .LBB2789-.LBB2789
	.uleb128 .LBE2789-.LBB2789
	.byte	0x4
	.uleb128 .LBB2801-.LBB2789
	.uleb128 .LBE2801-.LBB2789
	.byte	0x4
	.uleb128 .LBB2820-.LBB2789
	.uleb128 .LBE2820-.LBB2789
	.byte	0x4
	.uleb128 .LBB2821-.LBB2789
	.uleb128 .LBE2821-.LBB2789
	.byte	0
.LLRL315:
	.byte	0x5
	.quad	.LBB2790
	.byte	0x4
	.uleb128 .LBB2790-.LBB2790
	.uleb128 .LBE2790-.LBB2790
	.byte	0x4
	.uleb128 .LBB2796-.LBB2790
	.uleb128 .LBE2796-.LBB2790
	.byte	0x4
	.uleb128 .LBB2797-.LBB2790
	.uleb128 .LBE2797-.LBB2790
	.byte	0x4
	.uleb128 .LBB2798-.LBB2790
	.uleb128 .LBE2798-.LBB2790
	.byte	0x4
	.uleb128 .LBB2799-.LBB2790
	.uleb128 .LBE2799-.LBB2790
	.byte	0
.LLRL317:
	.byte	0x5
	.quad	.LBB2791
	.byte	0x4
	.uleb128 .LBB2791-.LBB2791
	.uleb128 .LBE2791-.LBB2791
	.byte	0x4
	.uleb128 .LBB2792-.LBB2791
	.uleb128 .LBE2792-.LBB2791
	.byte	0x4
	.uleb128 .LBB2793-.LBB2791
	.uleb128 .LBE2793-.LBB2791
	.byte	0x4
	.uleb128 .LBB2794-.LBB2791
	.uleb128 .LBE2794-.LBB2791
	.byte	0x4
	.uleb128 .LBB2795-.LBB2791
	.uleb128 .LBE2795-.LBB2791
	.byte	0
.LLRL332:
	.byte	0x5
	.quad	.LBB2831
	.byte	0x4
	.uleb128 .LBB2831-.LBB2831
	.uleb128 .LBE2831-.LBB2831
	.byte	0x4
	.uleb128 .LBB2882-.LBB2831
	.uleb128 .LBE2882-.LBB2831
	.byte	0
.LLRL338:
	.byte	0x5
	.quad	.LBB2836
	.byte	0x4
	.uleb128 .LBB2836-.LBB2836
	.uleb128 .LBE2836-.LBB2836
	.byte	0x4
	.uleb128 .LBB2847-.LBB2836
	.uleb128 .LBE2847-.LBB2836
	.byte	0
.LLRL341:
	.byte	0x5
	.quad	.LBB2839
	.byte	0x4
	.uleb128 .LBB2839-.LBB2839
	.uleb128 .LBE2839-.LBB2839
	.byte	0x4
	.uleb128 .LBB2844-.LBB2839
	.uleb128 .LBE2844-.LBB2839
	.byte	0
.LLRL343:
	.byte	0x5
	.quad	.LBB2840
	.byte	0x4
	.uleb128 .LBB2840-.LBB2840
	.uleb128 .LBE2840-.LBB2840
	.byte	0x4
	.uleb128 .LBB2843-.LBB2840
	.uleb128 .LBE2843-.LBB2840
	.byte	0
.LLRL346:
	.byte	0x5
	.quad	.LBB2848
	.byte	0x4
	.uleb128 .LBB2848-.LBB2848
	.uleb128 .LBE2848-.LBB2848
	.byte	0x4
	.uleb128 .LBB2883-.LBB2848
	.uleb128 .LBE2883-.LBB2848
	.byte	0
.LLRL353:
	.byte	0x5
	.quad	.LBB2852
	.byte	0x4
	.uleb128 .LBB2852-.LBB2852
	.uleb128 .LBE2852-.LBB2852
	.byte	0x4
	.uleb128 .LBB2878-.LBB2852
	.uleb128 .LBE2878-.LBB2852
	.byte	0
.LLRL356:
	.byte	0x5
	.quad	.LBB2853
	.byte	0x4
	.uleb128 .LBB2853-.LBB2853
	.uleb128 .LBE2853-.LBB2853
	.byte	0x4
	.uleb128 .LBB2877-.LBB2853
	.uleb128 .LBE2877-.LBB2853
	.byte	0
.LLRL359:
	.byte	0x5
	.quad	.LBB2854
	.byte	0x4
	.uleb128 .LBB2854-.LBB2854
	.uleb128 .LBE2854-.LBB2854
	.byte	0x4
	.uleb128 .LBB2876-.LBB2854
	.uleb128 .LBE2876-.LBB2854
	.byte	0
.LLRL361:
	.byte	0x5
	.quad	.LBB2855
	.byte	0x4
	.uleb128 .LBB2855-.LBB2855
	.uleb128 .LBE2855-.LBB2855
	.byte	0x4
	.uleb128 .LBB2874-.LBB2855
	.uleb128 .LBE2874-.LBB2855
	.byte	0
.LLRL363:
	.byte	0x5
	.quad	.LBB2857
	.byte	0x4
	.uleb128 .LBB2857-.LBB2857
	.uleb128 .LBE2857-.LBB2857
	.byte	0x4
	.uleb128 .LBB2873-.LBB2857
	.uleb128 .LBE2873-.LBB2857
	.byte	0x4
	.uleb128 .LBB2875-.LBB2857
	.uleb128 .LBE2875-.LBB2857
	.byte	0
.LLRL372:
	.byte	0x5
	.quad	.LBB2860
	.byte	0x4
	.uleb128 .LBB2860-.LBB2860
	.uleb128 .LBE2860-.LBB2860
	.byte	0x4
	.uleb128 .LBB2867-.LBB2860
	.uleb128 .LBE2867-.LBB2860
	.byte	0x4
	.uleb128 .LBB2868-.LBB2860
	.uleb128 .LBE2868-.LBB2860
	.byte	0
.LLRL376:
	.byte	0x5
	.quad	.LBB2861
	.byte	0x4
	.uleb128 .LBB2861-.LBB2861
	.uleb128 .LBE2861-.LBB2861
	.byte	0x4
	.uleb128 .LBB2865-.LBB2861
	.uleb128 .LBE2865-.LBB2861
	.byte	0x4
	.uleb128 .LBB2866-.LBB2861
	.uleb128 .LBE2866-.LBB2861
	.byte	0
.LLRL382:
	.byte	0x5
	.quad	.LBB2884
	.byte	0x4
	.uleb128 .LBB2884-.LBB2884
	.uleb128 .LBE2884-.LBB2884
	.byte	0x4
	.uleb128 .LBB3366-.LBB2884
	.uleb128 .LBE3366-.LBB2884
	.byte	0x7
	.quad	.LBB3452
	.uleb128 .LBE3452-.LBB3452
	.byte	0
.LLRL384:
	.byte	0x5
	.quad	.LBB2885
	.byte	0x4
	.uleb128 .LBB2885-.LBB2885
	.uleb128 .LBE2885-.LBB2885
	.byte	0x4
	.uleb128 .LBB3337-.LBB2885
	.uleb128 .LBE3337-.LBB2885
	.byte	0x7
	.quad	.LBB3338
	.uleb128 .LBE3338-.LBB3338
	.byte	0
.LLRL385:
	.byte	0x5
	.quad	.LBB2886
	.byte	0x4
	.uleb128 .LBB2886-.LBB2886
	.uleb128 .LBE2886-.LBB2886
	.byte	0x4
	.uleb128 .LBB3331-.LBB2886
	.uleb128 .LBE3331-.LBB2886
	.byte	0x4
	.uleb128 .LBB3334-.LBB2886
	.uleb128 .LBE3334-.LBB2886
	.byte	0x4
	.uleb128 .LBB3335-.LBB2886
	.uleb128 .LBE3335-.LBB2886
	.byte	0x7
	.quad	.LBB3336
	.uleb128 .LBE3336-.LBB3336
	.byte	0
.LLRL387:
	.byte	0x5
	.quad	.LBB2887
	.byte	0x4
	.uleb128 .LBB2887-.LBB2887
	.uleb128 .LBE2887-.LBB2887
	.byte	0x4
	.uleb128 .LBB3325-.LBB2887
	.uleb128 .LBE3325-.LBB2887
	.byte	0x4
	.uleb128 .LBB3326-.LBB2887
	.uleb128 .LBE3326-.LBB2887
	.byte	0x7
	.quad	.LBB3327
	.uleb128 .LBE3327-.LBB3327
	.byte	0
.LLRL390:
	.byte	0x5
	.quad	.LBB2888
	.byte	0x4
	.uleb128 .LBB2888-.LBB2888
	.uleb128 .LBE2888-.LBB2888
	.byte	0x4
	.uleb128 .LBB3291-.LBB2888
	.uleb128 .LBE3291-.LBB2888
	.byte	0x4
	.uleb128 .LBB3293-.LBB2888
	.uleb128 .LBE3293-.LBB2888
	.byte	0x4
	.uleb128 .LBB3295-.LBB2888
	.uleb128 .LBE3295-.LBB2888
	.byte	0x4
	.uleb128 .LBB3321-.LBB2888
	.uleb128 .LBE3321-.LBB2888
	.byte	0x4
	.uleb128 .LBB3323-.LBB2888
	.uleb128 .LBE3323-.LBB2888
	.byte	0
.LLRL392:
	.byte	0x5
	.quad	.LBB2889
	.byte	0x4
	.uleb128 .LBB2889-.LBB2889
	.uleb128 .LBE2889-.LBB2889
	.byte	0x4
	.uleb128 .LBB3220-.LBB2889
	.uleb128 .LBE3220-.LBB2889
	.byte	0x4
	.uleb128 .LBB3221-.LBB2889
	.uleb128 .LBE3221-.LBB2889
	.byte	0x4
	.uleb128 .LBB3222-.LBB2889
	.uleb128 .LBE3222-.LBB2889
	.byte	0x4
	.uleb128 .LBB3223-.LBB2889
	.uleb128 .LBE3223-.LBB2889
	.byte	0x4
	.uleb128 .LBB3224-.LBB2889
	.uleb128 .LBE3224-.LBB2889
	.byte	0
.LLRL397:
	.byte	0x5
	.quad	.LBB2890
	.byte	0x4
	.uleb128 .LBB2890-.LBB2890
	.uleb128 .LBE2890-.LBB2890
	.byte	0x4
	.uleb128 .LBB3171-.LBB2890
	.uleb128 .LBE3171-.LBB2890
	.byte	0x4
	.uleb128 .LBB3172-.LBB2890
	.uleb128 .LBE3172-.LBB2890
	.byte	0x4
	.uleb128 .LBB3173-.LBB2890
	.uleb128 .LBE3173-.LBB2890
	.byte	0x4
	.uleb128 .LBB3197-.LBB2890
	.uleb128 .LBE3197-.LBB2890
	.byte	0x4
	.uleb128 .LBB3198-.LBB2890
	.uleb128 .LBE3198-.LBB2890
	.byte	0x4
	.uleb128 .LBB3199-.LBB2890
	.uleb128 .LBE3199-.LBB2890
	.byte	0x4
	.uleb128 .LBB3200-.LBB2890
	.uleb128 .LBE3200-.LBB2890
	.byte	0x4
	.uleb128 .LBB3204-.LBB2890
	.uleb128 .LBE3204-.LBB2890
	.byte	0x4
	.uleb128 .LBB3209-.LBB2890
	.uleb128 .LBE3209-.LBB2890
	.byte	0x4
	.uleb128 .LBB3214-.LBB2890
	.uleb128 .LBE3214-.LBB2890
	.byte	0x4
	.uleb128 .LBB3218-.LBB2890
	.uleb128 .LBE3218-.LBB2890
	.byte	0x4
	.uleb128 .LBB3219-.LBB2890
	.uleb128 .LBE3219-.LBB2890
	.byte	0
.LLRL399:
	.byte	0x5
	.quad	.LBB2891
	.byte	0x4
	.uleb128 .LBB2891-.LBB2891
	.uleb128 .LBE2891-.LBB2891
	.byte	0x4
	.uleb128 .LBB3159-.LBB2891
	.uleb128 .LBE3159-.LBB2891
	.byte	0x4
	.uleb128 .LBB3160-.LBB2891
	.uleb128 .LBE3160-.LBB2891
	.byte	0x4
	.uleb128 .LBB3161-.LBB2891
	.uleb128 .LBE3161-.LBB2891
	.byte	0x4
	.uleb128 .LBB3162-.LBB2891
	.uleb128 .LBE3162-.LBB2891
	.byte	0x4
	.uleb128 .LBB3163-.LBB2891
	.uleb128 .LBE3163-.LBB2891
	.byte	0x4
	.uleb128 .LBB3164-.LBB2891
	.uleb128 .LBE3164-.LBB2891
	.byte	0x4
	.uleb128 .LBB3165-.LBB2891
	.uleb128 .LBE3165-.LBB2891
	.byte	0x4
	.uleb128 .LBB3166-.LBB2891
	.uleb128 .LBE3166-.LBB2891
	.byte	0x4
	.uleb128 .LBB3167-.LBB2891
	.uleb128 .LBE3167-.LBB2891
	.byte	0x4
	.uleb128 .LBB3168-.LBB2891
	.uleb128 .LBE3168-.LBB2891
	.byte	0x4
	.uleb128 .LBB3169-.LBB2891
	.uleb128 .LBE3169-.LBB2891
	.byte	0x4
	.uleb128 .LBB3170-.LBB2891
	.uleb128 .LBE3170-.LBB2891
	.byte	0
.LLRL404:
	.byte	0x5
	.quad	.LBB2893
	.byte	0x4
	.uleb128 .LBB2893-.LBB2893
	.uleb128 .LBE2893-.LBB2893
	.byte	0x4
	.uleb128 .LBB2967-.LBB2893
	.uleb128 .LBE2967-.LBB2893
	.byte	0x4
	.uleb128 .LBB2968-.LBB2893
	.uleb128 .LBE2968-.LBB2893
	.byte	0x4
	.uleb128 .LBB2969-.LBB2893
	.uleb128 .LBE2969-.LBB2893
	.byte	0
.LLRL410:
	.byte	0x5
	.quad	.LBB2894
	.byte	0x4
	.uleb128 .LBB2894-.LBB2894
	.uleb128 .LBE2894-.LBB2894
	.byte	0x4
	.uleb128 .LBB2948-.LBB2894
	.uleb128 .LBE2948-.LBB2894
	.byte	0
.LLRL416:
	.byte	0x5
	.quad	.LBB2903
	.byte	0x4
	.uleb128 .LBB2903-.LBB2903
	.uleb128 .LBE2903-.LBB2903
	.byte	0x4
	.uleb128 .LBB2906-.LBB2903
	.uleb128 .LBE2906-.LBB2903
	.byte	0
.LLRL418:
	.byte	0x5
	.quad	.LBB2907
	.byte	0x4
	.uleb128 .LBB2907-.LBB2907
	.uleb128 .LBE2907-.LBB2907
	.byte	0x4
	.uleb128 .LBB2949-.LBB2907
	.uleb128 .LBE2949-.LBB2907
	.byte	0x4
	.uleb128 .LBB2953-.LBB2907
	.uleb128 .LBE2953-.LBB2907
	.byte	0
.LLRL420:
	.byte	0x5
	.quad	.LBB2908
	.byte	0x4
	.uleb128 .LBB2908-.LBB2908
	.uleb128 .LBE2908-.LBB2908
	.byte	0x4
	.uleb128 .LBB2917-.LBB2908
	.uleb128 .LBE2917-.LBB2908
	.byte	0
.LLRL425:
	.byte	0x5
	.quad	.LBB2918
	.byte	0x4
	.uleb128 .LBB2918-.LBB2918
	.uleb128 .LBE2918-.LBB2918
	.byte	0x4
	.uleb128 .LBB2921-.LBB2918
	.uleb128 .LBE2921-.LBB2918
	.byte	0
.LLRL427:
	.byte	0x5
	.quad	.LBB2922
	.byte	0x4
	.uleb128 .LBB2922-.LBB2922
	.uleb128 .LBE2922-.LBB2922
	.byte	0x4
	.uleb128 .LBB2954-.LBB2922
	.uleb128 .LBE2954-.LBB2922
	.byte	0
.LLRL429:
	.byte	0x5
	.quad	.LBB2923
	.byte	0x4
	.uleb128 .LBB2923-.LBB2923
	.uleb128 .LBE2923-.LBB2923
	.byte	0x4
	.uleb128 .LBB2932-.LBB2923
	.uleb128 .LBE2932-.LBB2923
	.byte	0
.LLRL435:
	.byte	0x5
	.quad	.LBB2935
	.byte	0x4
	.uleb128 .LBB2935-.LBB2935
	.uleb128 .LBE2935-.LBB2935
	.byte	0x4
	.uleb128 .LBB2955-.LBB2935
	.uleb128 .LBE2955-.LBB2935
	.byte	0
.LLRL437:
	.byte	0x5
	.quad	.LBB2936
	.byte	0x4
	.uleb128 .LBB2936-.LBB2936
	.uleb128 .LBE2936-.LBB2936
	.byte	0x4
	.uleb128 .LBB2945-.LBB2936
	.uleb128 .LBE2945-.LBB2936
	.byte	0
.LLRL443:
	.byte	0x5
	.quad	.LBB2950
	.byte	0x4
	.uleb128 .LBB2950-.LBB2950
	.uleb128 .LBE2950-.LBB2950
	.byte	0x4
	.uleb128 .LBB2958-.LBB2950
	.uleb128 .LBE2958-.LBB2950
	.byte	0
.LLRL456:
	.byte	0x5
	.quad	.LBB2974
	.byte	0x4
	.uleb128 .LBB2974-.LBB2974
	.uleb128 .LBE2974-.LBB2974
	.byte	0x4
	.uleb128 .LBB3136-.LBB2974
	.uleb128 .LBE3136-.LBB2974
	.byte	0x4
	.uleb128 .LBB3137-.LBB2974
	.uleb128 .LBE3137-.LBB2974
	.byte	0
.LLRL467:
	.byte	0x5
	.quad	.LBB2975
	.byte	0x4
	.uleb128 .LBB2975-.LBB2975
	.uleb128 .LBE2975-.LBB2975
	.byte	0x4
	.uleb128 .LBB3022-.LBB2975
	.uleb128 .LBE3022-.LBB2975
	.byte	0x4
	.uleb128 .LBB3053-.LBB2975
	.uleb128 .LBE3053-.LBB2975
	.byte	0x4
	.uleb128 .LBB3099-.LBB2975
	.uleb128 .LBE3099-.LBB2975
	.byte	0
.LLRL468:
	.byte	0x5
	.quad	.LBB2976
	.byte	0x4
	.uleb128 .LBB2976-.LBB2976
	.uleb128 .LBE2976-.LBB2976
	.byte	0x4
	.uleb128 .LBB2983-.LBB2976
	.uleb128 .LBE2983-.LBB2976
	.byte	0
.LLRL472:
	.byte	0x5
	.quad	.LBB2984
	.byte	0x4
	.uleb128 .LBB2984-.LBB2984
	.uleb128 .LBE2984-.LBB2984
	.byte	0x4
	.uleb128 .LBB2987-.LBB2984
	.uleb128 .LBE2987-.LBB2984
	.byte	0
.LLRL473:
	.byte	0x5
	.quad	.LBB2988
	.byte	0x4
	.uleb128 .LBB2988-.LBB2988
	.uleb128 .LBE2988-.LBB2988
	.byte	0x4
	.uleb128 .LBB2991-.LBB2988
	.uleb128 .LBE2991-.LBB2988
	.byte	0
.LLRL475:
	.byte	0x5
	.quad	.LBB2992
	.byte	0x4
	.uleb128 .LBB2992-.LBB2992
	.uleb128 .LBE2992-.LBB2992
	.byte	0x4
	.uleb128 .LBB3067-.LBB2992
	.uleb128 .LBE3067-.LBB2992
	.byte	0x4
	.uleb128 .LBB3110-.LBB2992
	.uleb128 .LBE3110-.LBB2992
	.byte	0
.LLRL476:
	.byte	0x5
	.quad	.LBB2993
	.byte	0x4
	.uleb128 .LBB2993-.LBB2993
	.uleb128 .LBE2993-.LBB2993
	.byte	0x4
	.uleb128 .LBB3005-.LBB2993
	.uleb128 .LBE3005-.LBB2993
	.byte	0
.LLRL477:
	.byte	0x5
	.quad	.LBB2996
	.byte	0x4
	.uleb128 .LBB2996-.LBB2996
	.uleb128 .LBE2996-.LBB2996
	.byte	0x4
	.uleb128 .LBB3006-.LBB2996
	.uleb128 .LBE3006-.LBB2996
	.byte	0
.LLRL479:
	.byte	0x5
	.quad	.LBB3007
	.byte	0x4
	.uleb128 .LBB3007-.LBB3007
	.uleb128 .LBE3007-.LBB3007
	.byte	0x4
	.uleb128 .LBB3068-.LBB3007
	.uleb128 .LBE3068-.LBB3007
	.byte	0x4
	.uleb128 .LBB3111-.LBB3007
	.uleb128 .LBE3111-.LBB3007
	.byte	0
.LLRL480:
	.byte	0x5
	.quad	.LBB3008
	.byte	0x4
	.uleb128 .LBB3008-.LBB3008
	.uleb128 .LBE3008-.LBB3008
	.byte	0x4
	.uleb128 .LBB3020-.LBB3008
	.uleb128 .LBE3020-.LBB3008
	.byte	0
.LLRL481:
	.byte	0x5
	.quad	.LBB3011
	.byte	0x4
	.uleb128 .LBB3011-.LBB3011
	.uleb128 .LBE3011-.LBB3011
	.byte	0x4
	.uleb128 .LBB3021-.LBB3011
	.uleb128 .LBE3021-.LBB3011
	.byte	0
.LLRL483:
	.byte	0x5
	.quad	.LBB3023
	.byte	0x4
	.uleb128 .LBB3023-.LBB3023
	.uleb128 .LBE3023-.LBB3023
	.byte	0x4
	.uleb128 .LBB3097-.LBB3023
	.uleb128 .LBE3097-.LBB3023
	.byte	0x4
	.uleb128 .LBB3112-.LBB3023
	.uleb128 .LBE3112-.LBB3023
	.byte	0
.LLRL484:
	.byte	0x5
	.quad	.LBB3024
	.byte	0x4
	.uleb128 .LBB3024-.LBB3024
	.uleb128 .LBE3024-.LBB3024
	.byte	0x4
	.uleb128 .LBB3036-.LBB3024
	.uleb128 .LBE3036-.LBB3024
	.byte	0
.LLRL485:
	.byte	0x5
	.quad	.LBB3027
	.byte	0x4
	.uleb128 .LBB3027-.LBB3027
	.uleb128 .LBE3027-.LBB3027
	.byte	0x4
	.uleb128 .LBB3037-.LBB3027
	.uleb128 .LBE3037-.LBB3027
	.byte	0
.LLRL487:
	.byte	0x5
	.quad	.LBB3038
	.byte	0x4
	.uleb128 .LBB3038-.LBB3038
	.uleb128 .LBE3038-.LBB3038
	.byte	0x4
	.uleb128 .LBB3098-.LBB3038
	.uleb128 .LBE3098-.LBB3038
	.byte	0x4
	.uleb128 .LBB3113-.LBB3038
	.uleb128 .LBE3113-.LBB3038
	.byte	0
.LLRL488:
	.byte	0x5
	.quad	.LBB3039
	.byte	0x4
	.uleb128 .LBB3039-.LBB3039
	.uleb128 .LBE3039-.LBB3039
	.byte	0x4
	.uleb128 .LBB3051-.LBB3039
	.uleb128 .LBE3051-.LBB3039
	.byte	0
.LLRL489:
	.byte	0x5
	.quad	.LBB3042
	.byte	0x4
	.uleb128 .LBB3042-.LBB3042
	.uleb128 .LBE3042-.LBB3042
	.byte	0x4
	.uleb128 .LBB3052-.LBB3042
	.uleb128 .LBE3052-.LBB3042
	.byte	0
.LLRL491:
	.byte	0x5
	.quad	.LBB3054
	.byte	0x4
	.uleb128 .LBB3054-.LBB3054
	.uleb128 .LBE3054-.LBB3054
	.byte	0x4
	.uleb128 .LBB3100-.LBB3054
	.uleb128 .LBE3100-.LBB3054
	.byte	0
.LLRL492:
	.byte	0x5
	.quad	.LBB3055
	.byte	0x4
	.uleb128 .LBB3055-.LBB3055
	.uleb128 .LBE3055-.LBB3055
	.byte	0x4
	.uleb128 .LBB3064-.LBB3055
	.uleb128 .LBE3064-.LBB3055
	.byte	0
.LLRL497:
	.byte	0x5
	.quad	.LBB3069
	.byte	0x4
	.uleb128 .LBB3069-.LBB3069
	.uleb128 .LBE3069-.LBB3069
	.byte	0x4
	.uleb128 .LBB3101-.LBB3069
	.uleb128 .LBE3101-.LBB3069
	.byte	0x4
	.uleb128 .LBB3108-.LBB3069
	.uleb128 .LBE3108-.LBB3069
	.byte	0
.LLRL498:
	.byte	0x5
	.quad	.LBB3070
	.byte	0x4
	.uleb128 .LBB3070-.LBB3070
	.uleb128 .LBE3070-.LBB3070
	.byte	0x4
	.uleb128 .LBB3079-.LBB3070
	.uleb128 .LBE3079-.LBB3070
	.byte	0
.LLRL502:
	.byte	0x5
	.quad	.LBB3080
	.byte	0x4
	.uleb128 .LBB3080-.LBB3080
	.uleb128 .LBE3080-.LBB3080
	.byte	0x4
	.uleb128 .LBB3083-.LBB3080
	.uleb128 .LBE3083-.LBB3080
	.byte	0
.LLRL504:
	.byte	0x5
	.quad	.LBB3084
	.byte	0x4
	.uleb128 .LBB3084-.LBB3084
	.uleb128 .LBE3084-.LBB3084
	.byte	0x4
	.uleb128 .LBB3109-.LBB3084
	.uleb128 .LBE3109-.LBB3084
	.byte	0
.LLRL505:
	.byte	0x5
	.quad	.LBB3085
	.byte	0x4
	.uleb128 .LBB3085-.LBB3085
	.uleb128 .LBE3085-.LBB3085
	.byte	0x4
	.uleb128 .LBB3094-.LBB3085
	.uleb128 .LBE3094-.LBB3085
	.byte	0
.LLRL510:
	.byte	0x5
	.quad	.LBB3102
	.byte	0x4
	.uleb128 .LBB3102-.LBB3102
	.uleb128 .LBE3102-.LBB3102
	.byte	0x4
	.uleb128 .LBB3118-.LBB3102
	.uleb128 .LBE3118-.LBB3102
	.byte	0
.LLRL512:
	.byte	0x5
	.quad	.LBB3105
	.byte	0x4
	.uleb128 .LBB3105-.LBB3105
	.uleb128 .LBE3105-.LBB3105
	.byte	0x4
	.uleb128 .LBB3119-.LBB3105
	.uleb128 .LBE3119-.LBB3105
	.byte	0
.LLRL534:
	.byte	0x5
	.quad	.LBB3139
	.byte	0x4
	.uleb128 .LBB3139-.LBB3139
	.uleb128 .LBE3139-.LBB3139
	.byte	0x4
	.uleb128 .LBB3153-.LBB3139
	.uleb128 .LBE3153-.LBB3139
	.byte	0x4
	.uleb128 .LBB3154-.LBB3139
	.uleb128 .LBE3154-.LBB3139
	.byte	0x4
	.uleb128 .LBB3157-.LBB3139
	.uleb128 .LBE3157-.LBB3139
	.byte	0
.LLRL536:
	.byte	0x5
	.quad	.LBB3140
	.byte	0x4
	.uleb128 .LBB3140-.LBB3140
	.uleb128 .LBE3140-.LBB3140
	.byte	0x4
	.uleb128 .LBB3141-.LBB3140
	.uleb128 .LBE3141-.LBB3140
	.byte	0x4
	.uleb128 .LBB3142-.LBB3140
	.uleb128 .LBE3142-.LBB3140
	.byte	0x4
	.uleb128 .LBB3143-.LBB3140
	.uleb128 .LBE3143-.LBB3140
	.byte	0x4
	.uleb128 .LBB3144-.LBB3140
	.uleb128 .LBE3144-.LBB3140
	.byte	0x4
	.uleb128 .LBB3145-.LBB3140
	.uleb128 .LBE3145-.LBB3140
	.byte	0x4
	.uleb128 .LBB3146-.LBB3140
	.uleb128 .LBE3146-.LBB3140
	.byte	0x4
	.uleb128 .LBB3147-.LBB3140
	.uleb128 .LBE3147-.LBB3140
	.byte	0x4
	.uleb128 .LBB3148-.LBB3140
	.uleb128 .LBE3148-.LBB3140
	.byte	0x4
	.uleb128 .LBB3149-.LBB3140
	.uleb128 .LBE3149-.LBB3140
	.byte	0x4
	.uleb128 .LBB3150-.LBB3140
	.uleb128 .LBE3150-.LBB3140
	.byte	0x4
	.uleb128 .LBB3151-.LBB3140
	.uleb128 .LBE3151-.LBB3140
	.byte	0x4
	.uleb128 .LBB3152-.LBB3140
	.uleb128 .LBE3152-.LBB3140
	.byte	0
.LLRL541:
	.byte	0x5
	.quad	.LBB3174
	.byte	0x4
	.uleb128 .LBB3174-.LBB3174
	.uleb128 .LBE3174-.LBB3174
	.byte	0x4
	.uleb128 .LBB3182-.LBB3174
	.uleb128 .LBE3182-.LBB3174
	.byte	0x4
	.uleb128 .LBB3188-.LBB3174
	.uleb128 .LBE3188-.LBB3174
	.byte	0x4
	.uleb128 .LBB3190-.LBB3174
	.uleb128 .LBE3190-.LBB3174
	.byte	0
.LLRL544:
	.byte	0x5
	.quad	.LBB3179
	.byte	0x4
	.uleb128 .LBB3179-.LBB3179
	.uleb128 .LBE3179-.LBB3179
	.byte	0x4
	.uleb128 .LBB3196-.LBB3179
	.uleb128 .LBE3196-.LBB3179
	.byte	0
.LLRL547:
	.byte	0x5
	.quad	.LBB3183
	.byte	0x4
	.uleb128 .LBB3183-.LBB3183
	.uleb128 .LBE3183-.LBB3183
	.byte	0x4
	.uleb128 .LBB3189-.LBB3183
	.uleb128 .LBE3189-.LBB3183
	.byte	0x4
	.uleb128 .LBB3191-.LBB3183
	.uleb128 .LBE3191-.LBB3183
	.byte	0x4
	.uleb128 .LBB3194-.LBB3183
	.uleb128 .LBE3194-.LBB3183
	.byte	0
.LLRL550:
	.byte	0x5
	.quad	.LBB3192
	.byte	0x4
	.uleb128 .LBB3192-.LBB3192
	.uleb128 .LBE3192-.LBB3192
	.byte	0x4
	.uleb128 .LBB3195-.LBB3192
	.uleb128 .LBE3195-.LBB3192
	.byte	0
.LLRL553:
	.byte	0x5
	.quad	.LBB3201
	.byte	0x4
	.uleb128 .LBB3201-.LBB3201
	.uleb128 .LBE3201-.LBB3201
	.byte	0x4
	.uleb128 .LBB3205-.LBB3201
	.uleb128 .LBE3205-.LBB3201
	.byte	0
.LLRL555:
	.byte	0x5
	.quad	.LBB3206
	.byte	0x4
	.uleb128 .LBB3206-.LBB3206
	.uleb128 .LBE3206-.LBB3206
	.byte	0x4
	.uleb128 .LBB3210-.LBB3206
	.uleb128 .LBE3210-.LBB3206
	.byte	0
.LLRL557:
	.byte	0x5
	.quad	.LBB3211
	.byte	0x4
	.uleb128 .LBB3211-.LBB3211
	.uleb128 .LBE3211-.LBB3211
	.byte	0x4
	.uleb128 .LBB3215-.LBB3211
	.uleb128 .LBE3215-.LBB3211
	.byte	0
.LLRL560:
	.byte	0x5
	.quad	.LBB3225
	.byte	0x4
	.uleb128 .LBB3225-.LBB3225
	.uleb128 .LBE3225-.LBB3225
	.byte	0x4
	.uleb128 .LBB3292-.LBB3225
	.uleb128 .LBE3292-.LBB3225
	.byte	0x4
	.uleb128 .LBB3294-.LBB3225
	.uleb128 .LBE3294-.LBB3225
	.byte	0x4
	.uleb128 .LBB3322-.LBB3225
	.uleb128 .LBE3322-.LBB3225
	.byte	0x7
	.quad	.LBB3324
	.uleb128 .LBE3324-.LBB3324
	.byte	0
.LLRL562:
	.byte	0x5
	.quad	.LBB3226
	.byte	0x4
	.uleb128 .LBB3226-.LBB3226
	.uleb128 .LBE3226-.LBB3226
	.byte	0x4
	.uleb128 .LBB3287-.LBB3226
	.uleb128 .LBE3287-.LBB3226
	.byte	0x4
	.uleb128 .LBB3288-.LBB3226
	.uleb128 .LBE3288-.LBB3226
	.byte	0x4
	.uleb128 .LBB3289-.LBB3226
	.uleb128 .LBE3289-.LBB3226
	.byte	0x7
	.quad	.LBB3290
	.uleb128 .LBE3290-.LBB3290
	.byte	0
.LLRL563:
	.byte	0x5
	.quad	.LBB3227
	.byte	0x4
	.uleb128 .LBB3227-.LBB3227
	.uleb128 .LBE3227-.LBB3227
	.byte	0x4
	.uleb128 .LBB3278-.LBB3227
	.uleb128 .LBE3278-.LBB3227
	.byte	0x4
	.uleb128 .LBB3279-.LBB3227
	.uleb128 .LBE3279-.LBB3227
	.byte	0x4
	.uleb128 .LBB3280-.LBB3227
	.uleb128 .LBE3280-.LBB3227
	.byte	0x4
	.uleb128 .LBB3282-.LBB3227
	.uleb128 .LBE3282-.LBB3227
	.byte	0x4
	.uleb128 .LBB3283-.LBB3227
	.uleb128 .LBE3283-.LBB3227
	.byte	0x4
	.uleb128 .LBB3284-.LBB3227
	.uleb128 .LBE3284-.LBB3227
	.byte	0x4
	.uleb128 .LBB3285-.LBB3227
	.uleb128 .LBE3285-.LBB3227
	.byte	0x7
	.quad	.LBB3286
	.uleb128 .LBE3286-.LBB3286
	.byte	0
.LLRL565:
	.byte	0x5
	.quad	.LBB3228
	.byte	0x4
	.uleb128 .LBB3228-.LBB3228
	.uleb128 .LBE3228-.LBB3228
	.byte	0x4
	.uleb128 .LBB3271-.LBB3228
	.uleb128 .LBE3271-.LBB3228
	.byte	0x4
	.uleb128 .LBB3272-.LBB3228
	.uleb128 .LBE3272-.LBB3228
	.byte	0x4
	.uleb128 .LBB3273-.LBB3228
	.uleb128 .LBE3273-.LBB3228
	.byte	0x4
	.uleb128 .LBB3274-.LBB3228
	.uleb128 .LBE3274-.LBB3228
	.byte	0x4
	.uleb128 .LBB3275-.LBB3228
	.uleb128 .LBE3275-.LBB3228
	.byte	0x4
	.uleb128 .LBB3276-.LBB3228
	.uleb128 .LBE3276-.LBB3228
	.byte	0x7
	.quad	.LBB3277
	.uleb128 .LBE3277-.LBB3277
	.byte	0
.LLRL568:
	.byte	0x5
	.quad	.LBB3229
	.byte	0x4
	.uleb128 .LBB3229-.LBB3229
	.uleb128 .LBE3229-.LBB3229
	.byte	0x4
	.uleb128 .LBB3243-.LBB3229
	.uleb128 .LBE3243-.LBB3229
	.byte	0x4
	.uleb128 .LBB3244-.LBB3229
	.uleb128 .LBE3244-.LBB3229
	.byte	0x4
	.uleb128 .LBB3253-.LBB3229
	.uleb128 .LBE3253-.LBB3229
	.byte	0x4
	.uleb128 .LBB3254-.LBB3229
	.uleb128 .LBE3254-.LBB3229
	.byte	0x4
	.uleb128 .LBB3255-.LBB3229
	.uleb128 .LBE3255-.LBB3229
	.byte	0x4
	.uleb128 .LBB3256-.LBB3229
	.uleb128 .LBE3256-.LBB3229
	.byte	0
.LLRL569:
	.byte	0x5
	.quad	.LBB3230
	.byte	0x4
	.uleb128 .LBB3230-.LBB3230
	.uleb128 .LBE3230-.LBB3230
	.byte	0x4
	.uleb128 .LBB3235-.LBB3230
	.uleb128 .LBE3235-.LBB3230
	.byte	0x4
	.uleb128 .LBB3239-.LBB3230
	.uleb128 .LBE3239-.LBB3230
	.byte	0x4
	.uleb128 .LBB3240-.LBB3230
	.uleb128 .LBE3240-.LBB3230
	.byte	0
.LLRL570:
	.byte	0x5
	.quad	.LBB3236
	.byte	0x4
	.uleb128 .LBB3236-.LBB3236
	.uleb128 .LBE3236-.LBB3236
	.byte	0x4
	.uleb128 .LBB3241-.LBB3236
	.uleb128 .LBE3241-.LBB3236
	.byte	0x4
	.uleb128 .LBB3242-.LBB3236
	.uleb128 .LBE3242-.LBB3236
	.byte	0
.LLRL571:
	.byte	0x5
	.quad	.LBB3245
	.byte	0x4
	.uleb128 .LBB3245-.LBB3245
	.uleb128 .LBE3245-.LBB3245
	.byte	0x4
	.uleb128 .LBB3257-.LBB3245
	.uleb128 .LBE3257-.LBB3245
	.byte	0x4
	.uleb128 .LBB3258-.LBB3245
	.uleb128 .LBE3258-.LBB3245
	.byte	0x4
	.uleb128 .LBB3259-.LBB3245
	.uleb128 .LBE3259-.LBB3245
	.byte	0
.LLRL572:
	.byte	0x5
	.quad	.LBB3246
	.byte	0x4
	.uleb128 .LBB3246-.LBB3246
	.uleb128 .LBE3246-.LBB3246
	.byte	0x4
	.uleb128 .LBB3251-.LBB3246
	.uleb128 .LBE3251-.LBB3246
	.byte	0x4
	.uleb128 .LBB3252-.LBB3246
	.uleb128 .LBE3252-.LBB3246
	.byte	0
.LLRL573:
	.byte	0x5
	.quad	.LBB3260
	.byte	0x4
	.uleb128 .LBB3260-.LBB3260
	.uleb128 .LBE3260-.LBB3260
	.byte	0x4
	.uleb128 .LBB3268-.LBB3260
	.uleb128 .LBE3268-.LBB3260
	.byte	0x4
	.uleb128 .LBB3269-.LBB3260
	.uleb128 .LBE3269-.LBB3260
	.byte	0x7
	.quad	.LBB3270
	.uleb128 .LBE3270-.LBB3270
	.byte	0
.LLRL574:
	.byte	0x7
	.quad	.LBB3261
	.uleb128 .LBE3261-.LBB3261
	.byte	0x7
	.quad	.LBB3267
	.uleb128 .LBE3267-.LBB3267
	.byte	0
.LLRL575:
	.byte	0x5
	.quad	.LBB3264
	.byte	0x4
	.uleb128 .LBB3264-.LBB3264
	.uleb128 .LBE3264-.LBB3264
	.byte	0x4
	.uleb128 .LBB3266-.LBB3264
	.uleb128 .LBE3266-.LBB3264
	.byte	0
.LLRL577:
	.byte	0x5
	.quad	.LBB3296
	.byte	0x4
	.uleb128 .LBB3296-.LBB3296
	.uleb128 .LBE3296-.LBB3296
	.byte	0x4
	.uleb128 .LBB3300-.LBB3296
	.uleb128 .LBE3300-.LBB3296
	.byte	0x4
	.uleb128 .LBB3301-.LBB3296
	.uleb128 .LBE3301-.LBB3296
	.byte	0
.LLRL579:
	.byte	0x5
	.quad	.LBB3304
	.byte	0x4
	.uleb128 .LBB3304-.LBB3304
	.uleb128 .LBE3304-.LBB3304
	.byte	0x4
	.uleb128 .LBB3319-.LBB3304
	.uleb128 .LBE3319-.LBB3304
	.byte	0
.LLRL582:
	.byte	0x5
	.quad	.LBB3310
	.byte	0x4
	.uleb128 .LBB3310-.LBB3310
	.uleb128 .LBE3310-.LBB3310
	.byte	0x4
	.uleb128 .LBB3320-.LBB3310
	.uleb128 .LBE3320-.LBB3310
	.byte	0
.LLRL589:
	.byte	0x5
	.quad	.LBB3328
	.byte	0x4
	.uleb128 .LBB3328-.LBB3328
	.uleb128 .LBE3328-.LBB3328
	.byte	0x4
	.uleb128 .LBB3332-.LBB3328
	.uleb128 .LBE3332-.LBB3328
	.byte	0x4
	.uleb128 .LBB3333-.LBB3328
	.uleb128 .LBE3333-.LBB3328
	.byte	0
.LLRL606:
	.byte	0x5
	.quad	.LBB3387
	.byte	0x4
	.uleb128 .LBB3387-.LBB3387
	.uleb128 .LBE3387-.LBB3387
	.byte	0x4
	.uleb128 .LBB3410-.LBB3387
	.uleb128 .LBE3410-.LBB3387
	.byte	0
.LLRL608:
	.byte	0x5
	.quad	.LBB3388
	.byte	0x4
	.uleb128 .LBB3388-.LBB3388
	.uleb128 .LBE3388-.LBB3388
	.byte	0x4
	.uleb128 .LBB3404-.LBB3388
	.uleb128 .LBE3404-.LBB3388
	.byte	0
.LLRL609:
	.byte	0x5
	.quad	.LBB3389
	.byte	0x4
	.uleb128 .LBB3389-.LBB3389
	.uleb128 .LBE3389-.LBB3389
	.byte	0x4
	.uleb128 .LBB3402-.LBB3389
	.uleb128 .LBE3402-.LBB3389
	.byte	0x4
	.uleb128 .LBB3403-.LBB3389
	.uleb128 .LBE3403-.LBB3389
	.byte	0
.LLRL611:
	.byte	0x5
	.quad	.LBB3391
	.byte	0x4
	.uleb128 .LBB3391-.LBB3391
	.uleb128 .LBE3391-.LBB3391
	.byte	0x4
	.uleb128 .LBB3399-.LBB3391
	.uleb128 .LBE3399-.LBB3391
	.byte	0
.LLRL613:
	.byte	0x5
	.quad	.LBB3393
	.byte	0x4
	.uleb128 .LBB3393-.LBB3393
	.uleb128 .LBE3393-.LBB3393
	.byte	0x4
	.uleb128 .LBB3397-.LBB3393
	.uleb128 .LBE3397-.LBB3393
	.byte	0
.LLRL614:
	.byte	0x5
	.quad	.LBB3394
	.byte	0x4
	.uleb128 .LBB3394-.LBB3394
	.uleb128 .LBE3394-.LBB3394
	.byte	0x4
	.uleb128 .LBB3396-.LBB3394
	.uleb128 .LBE3396-.LBB3394
	.byte	0
.LLRL621:
	.byte	0x5
	.quad	.LBB3412
	.byte	0x4
	.uleb128 .LBB3412-.LBB3412
	.uleb128 .LBE3412-.LBB3412
	.byte	0x4
	.uleb128 .LBB3431-.LBB3412
	.uleb128 .LBE3431-.LBB3412
	.byte	0
.LLRL623:
	.byte	0x5
	.quad	.LBB3413
	.byte	0x4
	.uleb128 .LBB3413-.LBB3413
	.uleb128 .LBE3413-.LBB3413
	.byte	0x4
	.uleb128 .LBB3430-.LBB3413
	.uleb128 .LBE3430-.LBB3413
	.byte	0
.LLRL625:
	.byte	0x5
	.quad	.LBB3414
	.byte	0x4
	.uleb128 .LBB3414-.LBB3414
	.uleb128 .LBE3414-.LBB3414
	.byte	0x4
	.uleb128 .LBB3424-.LBB3414
	.uleb128 .LBE3424-.LBB3414
	.byte	0
.LLRL627:
	.byte	0x5
	.quad	.LBB3415
	.byte	0x4
	.uleb128 .LBB3415-.LBB3415
	.uleb128 .LBE3415-.LBB3415
	.byte	0x4
	.uleb128 .LBB3423-.LBB3415
	.uleb128 .LBE3423-.LBB3415
	.byte	0
.LLRL631:
	.byte	0x5
	.quad	.LBB3417
	.byte	0x4
	.uleb128 .LBB3417-.LBB3417
	.uleb128 .LBE3417-.LBB3417
	.byte	0x4
	.uleb128 .LBB3421-.LBB3417
	.uleb128 .LBE3421-.LBB3417
	.byte	0
.LLRL645:
	.byte	0x5
	.quad	.LBB3434
	.byte	0x4
	.uleb128 .LBB3434-.LBB3434
	.uleb128 .LBE3434-.LBB3434
	.byte	0x4
	.uleb128 .LBB3449-.LBB3434
	.uleb128 .LBE3449-.LBB3434
	.byte	0
.LLRL646:
	.byte	0x5
	.quad	.LBB3435
	.byte	0x4
	.uleb128 .LBB3435-.LBB3435
	.uleb128 .LBE3435-.LBB3435
	.byte	0x4
	.uleb128 .LBB3443-.LBB3435
	.uleb128 .LBE3443-.LBB3435
	.byte	0
.LLRL654:
	.byte	0x7
	.quad	.Ltext0
	.uleb128 .Letext0-.Ltext0
	.byte	0x7
	.quad	.Ltext_cold0
	.uleb128 .Letext_cold0-.Ltext_cold0
	.byte	0
.Ldebug_ranges3:
	.section	.debug_line,"",@progbits
.Ldebug_line0:
	.section	.debug_str,"MS",@progbits,1
.LASF356:
	.string	"_ZNSt6vectorI16SubApertureImageSaIS0_EEC4EOS2_RKS1_St17integral_constantIbLb1EE"
.LASF1125:
	.string	"lconv"
.LASF671:
	.string	"_ZNKSt6vectorIfSaIfEE4cendEv"
.LASF152:
	.string	"_ZNSt6vectorIhSaIhEE19_S_nothrow_relocateESt17integral_constantIbLb1EE"
.LASF693:
	.string	"_ZNSt6vectorIfSaIfEE9push_backERKf"
.LASF534:
	.string	"_ZNKSt6vectorIiSaIiEE4sizeEv"
.LASF960:
	.string	"wmemmove"
.LASF581:
	.string	"initializer_list<int>"
.LASF135:
	.string	"_ZNSt12_Vector_baseIhSaIhEEC4EOS1_RKS0_"
.LASF1167:
	.string	"__int_least64_t"
.LASF1058:
	.string	"_ZNK9__gnu_cxx17__normal_iteratorIPK16SubApertureImageSt6vectorIS1_SaIS1_EEEmiEl"
.LASF419:
	.string	"_ZNSt6vectorI16SubApertureImageSaIS0_EE11_S_max_sizeERKS1_"
.LASF379:
	.string	"_ZNKSt6vectorI16SubApertureImageSaIS0_EE8max_sizeEv"
.LASF1346:
	.string	"__it"
.LASF166:
	.string	"_ZNSt6vectorIhSaIhEEC4EOS1_RKS0_"
.LASF1371:
	.string	"_ZNSt15__new_allocatorIhEC2Ev"
.LASF526:
	.string	"_ZNSt6vectorIiSaIiEE6rbeginEv"
.LASF1419:
	.string	"tile_vals"
.LASF183:
	.string	"reverse_iterator"
.LASF930:
	.string	"tm_sec"
.LASF425:
	.string	"initializer_list<SubApertureImage>"
.LASF596:
	.string	"_ZNKSt15__new_allocatorIfE7addressERf"
.LASF700:
	.string	"_ZNSt6vectorIfSaIfEE5eraseEN9__gnu_cxx17__normal_iteratorIPKfS1_EE"
.LASF422:
	.string	"_ZNSt6vectorI16SubApertureImageSaIS0_EE8_M_eraseEN9__gnu_cxx17__normal_iteratorIPS0_S2_EES6_"
.LASF1023:
	.string	"_ZN9__gnu_cxx14__alloc_traitsISaI16SubApertureImageES1_E10_S_on_swapERS2_S4_"
.LASF79:
	.string	"allocate"
.LASF363:
	.string	"_ZNSt6vectorI16SubApertureImageSaIS0_EEaSESt16initializer_listIS0_E"
.LASF1119:
	.string	"__int128 unsigned"
.LASF696:
	.string	"_ZNSt6vectorIfSaIfEE6insertEN9__gnu_cxx17__normal_iteratorIPKfS1_EERS4_"
.LASF1349:
	.string	"__allocmax"
.LASF1364:
	.string	"__vect"
.LASF899:
	.string	"fwide"
.LASF617:
	.string	"_ZNSt12_Vector_baseIfSaIfEE17_Vector_impl_data12_M_swap_dataERS2_"
.LASF1074:
	.string	"__normal_iterator<int const*, std::vector<int, std::allocator<int> > >"
.LASF1145:
	.string	"int_p_sep_by_space"
.LASF512:
	.string	"_ZNSt6vectorIiSaIiEEC4EOS1_RKS0_St17integral_constantIbLb1EE"
.LASF310:
	.string	"_ZNSt16allocator_traitsISaI16SubApertureImageEE8allocateERS1_mPKv"
.LASF215:
	.string	"_ZNKSt6vectorIhSaIhEEixEm"
.LASF322:
	.string	"_ZNSt12_Vector_baseI16SubApertureImageSaIS0_EE12_Vector_implC4ERKS1_"
.LASF1154:
	.string	"__uint8_t"
.LASF903:
	.string	"getwc"
.LASF161:
	.string	"_ZNSt6vectorIhSaIhEEC4ERKS1_"
.LASF1183:
	.string	"7lldiv_t"
.LASF648:
	.string	"_ZNSt6vectorIfSaIfEEC4EmRKfRKS0_"
.LASF981:
	.string	"_ZN9__gnu_cxx14__alloc_traitsISaIhEhE27_S_propagate_on_copy_assignEv"
.LASF1233:
	.string	"fpos_t"
.LASF304:
	.string	"_ZNSaI16SubApertureImageEC4Ev"
.LASF627:
	.string	"_ZNSt12_Vector_baseIfSaIfEEC4Ev"
.LASF1410:
	.string	"refocus_shift_and_sum"
.LASF635:
	.string	"_ZNSt12_Vector_baseIfSaIfEED4Ev"
.LASF1044:
	.string	"_ZNK9__gnu_cxx17__normal_iteratorIP16SubApertureImageSt6vectorIS1_SaIS1_EEE4baseEv"
.LASF1442:
	.string	"outp"
.LASF1311:
	.string	"SubApertureImage"
.LASF764:
	.string	"_ZSt10_ConstructIfJEEvPT_DpOT0_"
.LASF990:
	.string	"rebind<unsigned char>"
.LASF724:
	.string	"_ZNSt16initializer_listIfEC4EPKfm"
.LASF653:
	.string	"_ZNSt6vectorIfSaIfEEC4EOS1_RKS0_St17integral_constantIbLb0EE"
.LASF548:
	.string	"_ZNKSt6vectorIiSaIiEE5frontEv"
.LASF737:
	.string	"_UninitDestroyGuard"
.LASF615:
	.string	"_ZNSt12_Vector_baseIfSaIfEE17_Vector_impl_dataC4EOS2_"
.LASF451:
	.string	"_ZNSt15__new_allocatorIiEC4ERKS0_"
.LASF881:
	.string	"_shortbuf"
.LASF237:
	.string	"_ZNSt6vectorIhSaIhEE6insertEN9__gnu_cxx17__normal_iteratorIPKhS1_EESt16initializer_listIhE"
.LASF642:
	.string	"_ZNSt6vectorIfSaIfEE19_S_nothrow_relocateESt17integral_constantIbLb0EE"
.LASF803:
	.string	"_Tp2"
.LASF804:
	.string	"__to_address<(anonymous namespace)::SubParams>"
.LASF970:
	.string	"__gnu_cxx"
.LASF1379:
	.string	"_ZNSt12_Vector_baseIiSaIiEED2Ev"
.LASF169:
	.string	"_ZNSt6vectorIhSaIhEED4Ev"
.LASF1336:
	.string	"operator new"
.LASF53:
	.string	"__cxx11"
.LASF1053:
	.string	"_ZN9__gnu_cxx17__normal_iteratorIPK16SubApertureImageSt6vectorIS1_SaIS1_EEEmmEi"
.LASF1164:
	.string	"__uint_least16_t"
.LASF976:
	.string	"_S_select_on_copy"
.LASF1098:
	.string	"_ZNK9__gnu_cxx17__normal_iteratorIPfSt6vectorIfSaIfEEE4baseEv"
.LASF1310:
	.string	"_ZN9ImageDataC4Ev"
.LASF1007:
	.string	"_ZN9__gnu_cxx17__normal_iteratorIPhSt6vectorIhSaIhEEEmmEi"
.LASF916:
	.string	"__isoc23_vfwscanf"
.LASF1052:
	.string	"_ZN9__gnu_cxx17__normal_iteratorIPK16SubApertureImageSt6vectorIS1_SaIS1_EEEmmEv"
.LASF943:
	.string	"wcsncmp"
.LASF244:
	.string	"_ZNSt6vectorIhSaIhEE5clearEv"
.LASF485:
	.string	"_ZNKSt12_Vector_baseIiSaIiEE19_M_get_Tp_allocatorEv"
.LASF314:
	.string	"_ZNSt16allocator_traitsISaI16SubApertureImageEE37select_on_container_copy_constructionERKS1_"
.LASF316:
	.string	"_ZNSt12_Vector_baseI16SubApertureImageSaIS0_EE17_Vector_impl_dataC4Ev"
.LASF207:
	.string	"capacity"
.LASF1348:
	.string	"__diffmax"
.LASF1100:
	.string	"__conditional_type<true, float const, float const&>"
.LASF389:
	.string	"_ZNSt6vectorI16SubApertureImageSaIS0_EE2atEm"
.LASF298:
	.string	"_ZNKSt15__new_allocatorI16SubApertureImageE7addressERKS0_"
.LASF588:
	.string	"reverse_iterator<__gnu_cxx::__normal_iterator<int*, std::vector<int, std::allocator<int> > > >"
.LASF698:
	.string	"_ZNSt6vectorIfSaIfEE6insertEN9__gnu_cxx17__normal_iteratorIPKfS1_EESt16initializer_listIfE"
.LASF1435:
	.string	"rr0_hi"
.LASF203:
	.string	"_ZNSt6vectorIhSaIhEE6resizeEm"
.LASF1113:
	.string	"__isoc23_wcstoull"
.LASF1236:
	.string	"feof"
.LASF927:
	.string	"wcscpy"
.LASF1260:
	.string	"uint16_t"
.LASF1469:
	.string	"__q0"
.LASF703:
	.string	"_ZNSt6vectorIfSaIfEE5clearEv"
.LASF335:
	.string	"_ZNSt12_Vector_baseI16SubApertureImageSaIS0_EEC4EOS2_RKS1_"
.LASF600:
	.string	"_ZNKSt15__new_allocatorIfE8max_sizeEv"
.LASF1186:
	.string	"time_t"
.LASF125:
	.string	"_ZNKSt12_Vector_baseIhSaIhEE19_M_get_Tp_allocatorEv"
.LASF1454:
	.string	"_mm256_cvtepu8_epi32"
.LASF105:
	.string	"_Vector_base<unsigned char, std::allocator<unsigned char> >"
.LASF1024:
	.string	"_ZN9__gnu_cxx14__alloc_traitsISaI16SubApertureImageES1_E27_S_propagate_on_copy_assignEv"
.LASF1312:
	.string	"float_t"
.LASF1084:
	.string	"__normal_iterator<float*, std::vector<float, std::allocator<float> > >"
.LASF768:
	.string	"_ZSt9__fill_a1IhhEN9__gnu_cxx11__enable_ifIXaasrSt9__is_byteIT_E7__valueoosrSt10__are_sameIS3_T0_E7__valuesrSt20__memcpyable_integerIS6_E7__widthEvE6__typeEPS3_SC_RKS6_"
.LASF208:
	.string	"_ZNKSt6vectorIhSaIhEE8capacityEv"
.LASF851:
	.string	"reg_save_area"
.LASF1352:
	.string	"_ZNSt15__new_allocatorIfEC2ERKS0_"
.LASF1087:
	.string	"_ZNK9__gnu_cxx17__normal_iteratorIPfSt6vectorIfSaIfEEEdeEv"
.LASF1400:
	.string	"_ZNSaIfEC2Ev"
.LASF839:
	.string	"min<int>"
.LASF1171:
	.string	"__off_t"
.LASF221:
	.string	"_ZNSt6vectorIhSaIhEE5frontEv"
.LASF76:
	.string	"const_pointer"
.LASF1416:
	.string	"counts"
.LASF435:
	.string	"vector<(anonymous namespace)::SubParams, std::allocator<(anonymous namespace)::SubParams> >"
.LASF664:
	.string	"_ZNSt6vectorIfSaIfEE3endEv"
.LASF85:
	.string	"_ZNKSt15__new_allocatorIhE8max_sizeEv"
.LASF14:
	.string	"_ZNKSt17integral_constantIbLb0EEcvbEv"
.LASF162:
	.string	"_ZNSt6vectorIhSaIhEEC4EOS1_"
.LASF82:
	.string	"deallocate"
.LASF1299:
	.string	"towctrans"
.LASF144:
	.string	"_M_create_storage"
.LASF7:
	.string	"operator std::integral_constant<bool, true>::value_type"
.LASF1450:
	.string	"_ZNSt12_Vector_baseIhSaIhEE12_Vector_implD2Ev"
.LASF204:
	.string	"_ZNSt6vectorIhSaIhEE6resizeEmRKh"
.LASF687:
	.string	"_ZNSt6vectorIfSaIfEE5frontEv"
.LASF938:
	.string	"tm_isdst"
.LASF1285:
	.string	"_Float128"
.LASF1304:
	.string	"height"
.LASF211:
	.string	"reserve"
.LASF1128:
	.string	"grouping"
.LASF1342:
	.string	"_ZNSt19_UninitDestroyGuardIPivEC2ERS0_"
.LASF882:
	.string	"_lock"
.LASF89:
	.string	"allocator"
.LASF827:
	.string	"_Destroy<int*, int>"
.LASF1110:
	.string	"__isoc23_wcstoll"
.LASF1109:
	.string	"wcstoll"
.LASF136:
	.string	"_ZNSt12_Vector_baseIhSaIhEEC4ERKS0_OS1_"
.LASF527:
	.string	"_ZNKSt6vectorIiSaIiEE6rbeginEv"
.LASF1329:
	.string	"SubParams"
.LASF551:
	.string	"_ZNSt6vectorIiSaIiEE4dataEv"
.LASF67:
	.string	"operator bool"
.LASF820:
	.string	"_ZSt3minIfERKT_S2_S2_"
.LASF691:
	.string	"_ZNSt6vectorIfSaIfEE4dataEv"
.LASF131:
	.string	"_ZNSt12_Vector_baseIhSaIhEEC4Em"
.LASF1116:
	.string	"__max_align_ld"
.LASF563:
	.string	"_ZNSt6vectorIiSaIiEE5clearEv"
.LASF1118:
	.string	"bool"
.LASF726:
	.string	"_ZNKSt16initializer_listIfE4sizeEv"
.LASF129:
	.string	"_ZNSt12_Vector_baseIhSaIhEEC4Ev"
.LASF1198:
	.string	"atoi"
.LASF1115:
	.string	"__max_align_ll"
.LASF1440:
	.string	"v_lo"
.LASF1199:
	.string	"atol"
.LASF272:
	.string	"_ZNSt6vectorIhSaIhEE8_M_eraseEN9__gnu_cxx17__normal_iteratorIPhS1_EE"
.LASF9:
	.string	"_ZNKSt17integral_constantIbLb1EEcvbEv"
.LASF535:
	.string	"_ZNKSt6vectorIiSaIiEE8max_sizeEv"
.LASF944:
	.string	"wcsncpy"
.LASF1033:
	.string	"_ZNK9__gnu_cxx17__normal_iteratorIP16SubApertureImageSt6vectorIS1_SaIS1_EEEdeEv"
.LASF946:
	.string	"wcsspn"
.LASF1397:
	.string	"_ZNSt6vectorIfSaIfEED2Ev"
.LASF668:
	.string	"_ZNSt6vectorIfSaIfEE4rendEv"
.LASF222:
	.string	"_ZNKSt6vectorIhSaIhEE5frontEv"
.LASF368:
	.string	"_ZNSt6vectorI16SubApertureImageSaIS0_EE3endEv"
.LASF15:
	.string	"_ZNKSt17integral_constantIbLb0EEclEv"
.LASF799:
	.string	"_Destroy<int*>"
.LASF1417:
	.string	"TILE_H"
.LASF264:
	.string	"_ZNKSt6vectorIhSaIhEE12_M_check_lenEmPKc"
.LASF1189:
	.string	"int32_t"
.LASF1281:
	.string	"intmax_t"
.LASF1227:
	.string	"__pos"
.LASF1418:
	.string	"TILE_W"
.LASF302:
	.string	"_ZNKSt15__new_allocatorI16SubApertureImageE11_M_max_sizeEv"
.LASF52:
	.string	"__debug"
.LASF754:
	.string	"_ZSt20__throw_length_errorPKc"
.LASF1300:
	.string	"wctrans"
.LASF502:
	.string	"_ZNSt6vectorIiSaIiEE19_S_nothrow_relocateESt17integral_constantIbLb0EE"
.LASF234:
	.string	"insert"
.LASF262:
	.string	"_ZNSt6vectorIhSaIhEE14_M_emplace_auxEN9__gnu_cxx17__normal_iteratorIPKhS1_EEOh"
.LASF510:
	.string	"_ZNSt6vectorIiSaIiEEC4EOS1_"
.LASF797:
	.string	"__uninitialized_default_n_a<float*, long unsigned int, float>"
.LASF542:
	.string	"_ZNSt6vectorIiSaIiEEixEm"
.LASF1150:
	.string	"setlocale"
.LASF1468:
	.string	"__q1"
.LASF175:
	.string	"_ZNSt6vectorIhSaIhEE6assignESt16initializer_listIhE"
.LASF1282:
	.string	"uintmax_t"
.LASF650:
	.string	"_ZNSt6vectorIfSaIfEEC4EOS1_"
.LASF1434:
	.string	"rr0_lo"
.LASF1474:
	.string	"memcpy"
.LASF921:
	.string	"vwscanf"
.LASF269:
	.string	"_M_erase_at_end"
.LASF492:
	.string	"_ZNSt12_Vector_baseIiSaIiEEC4EOS0_"
.LASF604:
	.string	"_ZNSaIfEC4ERKS_"
.LASF504:
	.string	"_ZNSt6vectorIiSaIiEE11_S_relocateEPiS2_S2_RS0_"
.LASF632:
	.string	"_ZNSt12_Vector_baseIfSaIfEEC4EOS0_"
.LASF65:
	.string	"_ZNSt15__new_allocatorIhEC4Ev"
.LASF1489:
	.string	"11max_align_t"
.LASF652:
	.string	"_ZNSt6vectorIfSaIfEEC4EOS1_RKS0_St17integral_constantIbLb1EE"
.LASF268:
	.string	"_ZNSt6vectorIhSaIhEE11_S_max_sizeERKS0_"
.LASF546:
	.string	"_ZNKSt6vectorIiSaIiEE2atEm"
.LASF361:
	.string	"_ZNSt6vectorI16SubApertureImageSaIS0_EEaSERKS2_"
.LASF462:
	.string	"_ZNSaIiEC4ERKS_"
.LASF1471:
	.string	"_Z14_mm_set_epi64xxx"
.LASF1166:
	.string	"__uint_least32_t"
.LASF1175:
	.string	"__syscall_slong_t"
.LASF1477:
	.string	"__builtin_memset"
.LASF902:
	.string	"__isoc23_fwscanf"
.LASF1480:
	.ascii	"GNU C++17 16.0.1 20260425 (prerelease) [gcc-16 r16-8812-gd9c"
	.ascii	"07462a22] -march=tigerlake -mmmx -mpopcnt -msse -msse2 -msse"
	.ascii	"3 -mssse3 -msse4.1 -msse4.2 -mavx -mno-sse4a -mno-fma4 -mno-"
	.ascii	"xop -mavx512f -mbmi -mbmi2 -maes -mpclmul -mavx512vl -mavx51"
	.ascii	"2bw -mavx512dq -mavx512cd -mavx512vbmi -mavx512ifma -mavx512"
	.ascii	"vpopcntdq -mavx512vbmi2 -mgfni -mvpclmulqdq -mavx512vnni -ma"
	.ascii	"vx512bitalg -mno-avx512bf16 -mavx512vp2intersect -mno-3dnow "
	.ascii	"-madx -mabm -mno-cldemote -mclflushopt -mclwb -mno-clzero -m"
	.ascii	"cx16 -mno-enqcmd -mf16c -mfsgsbase -mfxsr -mno-hle -msahf -m"
	.ascii	"no-lwp -mlzcnt -mmovbe -mmovdir64b -mmovdiri -mno-mwaitx -mn"
	.ascii	"o-pconfig -mpku -mprfchw -mno-ptwrite -mrdpid -mrdrnd -mrdse"
	.ascii	"ed -mno-rtm -mno-serialize -mno-sgx -msha -mshstk -mno-tbm -"
	.ascii	"mno-tsxldtrk -mvaes -mno-waitpkg -mno-wbnoinvd -mxsave -mxsa"
	.ascii	"vec -mxsaveopt -mxsaves -mno-amx-tile -mno-amx-int8 -mno-amx"
	.ascii	"-bf16 -mno-uintr -mno-hreset -mno-kl -mno-widekl -mno-avxvnn"
	.ascii	"i -mno-avx512fp16 -mno-avxifma -mno-avxvnniint8 -mno-avxneco"
	.ascii	"nvert -mno-cmpccxadd -mno-amx-fp16 -mno-prefetchi -mno-raoin"
	.ascii	"t -mno-amx-complex -mno-avxvnniint16 -mno-sm3 -mno-sha512 -m"
	.ascii	"no-sm4 -mno-apxf -mno-usermsr -mno-avx10.1 -mno-avx10.2 -mno"
	.ascii	"-amx-a"
	.string	"vx512 -mno-amx-tf32 -mno-amx-fp8 -mno-movrs -mno-amx-movrs -mno-avx512bmm --param=l1-cache-size=48 --param=l1-cache-line-size=64 --param=l2-cache-size=8192 -mtune=tigerlake -mavx2 -mfma -masm=intel -g -O3 -std=c++17 -ffast-math -fasynchronous-unwind-tables"
.LASF1001:
	.string	"_ZNK9__gnu_cxx17__normal_iteratorIPhSt6vectorIhSaIhEEEptEv"
.LASF641:
	.string	"_ZNSt6vectorIfSaIfEE19_S_nothrow_relocateESt17integral_constantIbLb1EE"
.LASF84:
	.string	"max_size"
.LASF868:
	.string	"_IO_write_end"
.LASF1212:
	.string	"__isoc23_strtol"
.LASF83:
	.string	"_ZNSt15__new_allocatorIhE10deallocateEPhm"
.LASF464:
	.string	"_ZNSaIiED4Ev"
.LASF785:
	.string	"max<long unsigned int>"
.LASF491:
	.string	"_ZNSt12_Vector_baseIiSaIiEEC4EOS1_"
.LASF1381:
	.string	"_ZNSt12_Vector_baseIiSaIiEE12_Vector_implD2Ev"
.LASF714:
	.string	"_ZNSt6vectorIfSaIfEE17_S_check_init_lenEmRKS0_"
.LASF6:
	.string	"value_type"
.LASF1266:
	.string	"int_least64_t"
.LASF631:
	.string	"_ZNSt12_Vector_baseIfSaIfEEC4EOS1_"
.LASF1217:
	.string	"wctomb"
.LASF156:
	.string	"vector"
.LASF46:
	.string	"nullptr_t"
.LASF953:
	.string	"long int"
.LASF672:
	.string	"_ZNKSt6vectorIfSaIfEE7crbeginEv"
.LASF233:
	.string	"_ZNSt6vectorIhSaIhEE8pop_backEv"
.LASF1060:
	.string	"__alloc_traits<std::allocator<(anonymous namespace)::SubParams>, (anonymous namespace)::SubParams>"
.LASF619:
	.string	"_ZNSt12_Vector_baseIfSaIfEE12_Vector_implC4ERKS0_"
.LASF1264:
	.string	"int_least16_t"
.LASF846:
	.string	"_ZSt17__size_to_integerm"
.LASF1079:
	.string	"_ZN9__gnu_cxx14__alloc_traitsISaIfEfE27_S_propagate_on_move_assignEv"
.LASF1305:
	.string	"index"
.LASF94:
	.string	"_ZNSaIhED4Ev"
.LASF1360:
	.string	"_ZNSaIfEC2ERKS_"
.LASF267:
	.string	"_S_max_size"
.LASF1221:
	.string	"__isoc23_strtoll"
.LASF592:
	.string	"_ZNSt15__new_allocatorIfEC4Ev"
.LASF1252:
	.string	"rename"
.LASF1372:
	.string	"_ZNSaIhEC2ERKS_"
.LASF965:
	.string	"wcschr"
.LASF178:
	.string	"_ZNSt6vectorIhSaIhEE5beginEv"
.LASF28:
	.string	"_ZNKSt15__exception_ptr13exception_ptr6_M_getEv"
.LASF1362:
	.string	"_ZNSaIiEC2ERKS_"
.LASF752:
	.string	"_ZSt17__throw_bad_allocv"
.LASF1078:
	.string	"_ZN9__gnu_cxx14__alloc_traitsISaIfEfE27_S_propagate_on_copy_assignEv"
.LASF1294:
	.string	"localtime"
.LASF740:
	.string	"_ZNSt19_UninitDestroyGuardIPivED4Ev"
.LASF1263:
	.string	"int_least8_t"
.LASF968:
	.string	"wcsstr"
.LASF695:
	.string	"_ZNSt6vectorIfSaIfEE8pop_backEv"
.LASF1243:
	.string	"fread"
.LASF1136:
	.string	"int_frac_digits"
.LASF1106:
	.string	"_ZN9__gnu_cxxneERKNS_17__normal_iteratorIP16SubApertureImageSt6vectorIS1_SaIS1_EEEES8_"
.LASF1390:
	.string	"__sz"
.LASF809:
	.string	"fill_n<unsigned char*, long unsigned int, unsigned char>"
.LASF468:
	.string	"_ZNSt16allocator_traitsISaIiEE10deallocateERS0_Pim"
.LASF328:
	.string	"_ZNKSt12_Vector_baseI16SubApertureImageSaIS0_EE13get_allocatorEv"
.LASF1127:
	.string	"thousands_sep"
.LASF1384:
	.string	"__old_start"
.LASF1433:
	.string	"rl0_hi"
.LASF55:
	.string	"chrono_literals"
.LASF1251:
	.string	"remove"
.LASF636:
	.string	"_ZNSt12_Vector_baseIfSaIfEE11_M_allocateEm"
.LASF947:
	.string	"wcstod"
.LASF1170:
	.string	"__uintmax_t"
.LASF949:
	.string	"wcstof"
.LASF1412:
	.string	"subapertures"
.LASF614:
	.string	"_ZNSt12_Vector_baseIfSaIfEE17_Vector_impl_dataC4Ev"
.LASF950:
	.string	"wcstok"
.LASF951:
	.string	"wcstol"
.LASF459:
	.string	"_ZNKSt15__new_allocatorIiE11_M_max_sizeEv"
.LASF115:
	.string	"_M_swap_data"
.LASF684:
	.string	"_ZNKSt6vectorIfSaIfEE14_M_range_checkEm"
.LASF417:
	.string	"_ZNKSt6vectorI16SubApertureImageSaIS0_EE12_M_check_lenEmPKc"
.LASF420:
	.string	"_ZNSt6vectorI16SubApertureImageSaIS0_EE15_M_erase_at_endEPS0_"
.LASF441:
	.string	"~_Guard_alloc"
.LASF151:
	.string	"_S_nothrow_relocate"
.LASF1338:
	.string	"__first"
.LASF838:
	.string	"_ZSt4fillIN9__gnu_cxx17__normal_iteratorIPfSt6vectorIfSaIfEEEEfEvT_S7_RKT0_"
.LASF1445:
	.string	"__rhs"
.LASF228:
	.string	"_ZNKSt6vectorIhSaIhEE4dataEv"
.LASF1184:
	.string	"lldiv_t"
.LASF1239:
	.string	"fgetc"
.LASF1218:
	.string	"lldiv"
.LASF1173:
	.string	"__clock_t"
.LASF685:
	.string	"_ZNSt6vectorIfSaIfEE2atEm"
.LASF460:
	.string	"allocator<int>"
.LASF831:
	.string	"_Allocator"
.LASF1101:
	.string	"__type"
.LASF36:
	.string	"_ZNSt15__exception_ptr13exception_ptraSERKS0_"
.LASF278:
	.string	"_ZNKSt6vectorIhSaIhEE11_M_data_ptrIhEEPT_S4_"
.LASF1094:
	.string	"_ZN9__gnu_cxx17__normal_iteratorIPfSt6vectorIfSaIfEEEpLEl"
.LASF442:
	.string	"_M_realloc_append<const (anonymous namespace)::SubParams&>"
.LASF743:
	.string	"_M_first"
.LASF1059:
	.string	"_ZNK9__gnu_cxx17__normal_iteratorIPK16SubApertureImageSt6vectorIS1_SaIS1_EEE4baseEv"
.LASF998:
	.string	"operator*"
.LASF1011:
	.string	"operator+"
.LASF1015:
	.string	"operator-"
.LASF1176:
	.string	"__gnu_debug"
.LASF399:
	.string	"_ZNSt6vectorI16SubApertureImageSaIS0_EE8pop_backEv"
.LASF826:
	.string	"_ZSt8_DestroyIPffEvT_S1_RSaIT0_E"
.LASF1155:
	.string	"__int16_t"
.LASF961:
	.string	"wmemset"
.LASF35:
	.string	"operator="
.LASF1156:
	.string	"__uint16_t"
.LASF486:
	.string	"_ZNKSt12_Vector_baseIiSaIiEE13get_allocatorEv"
.LASF1441:
	.string	"v_hi"
.LASF893:
	.string	"btowc"
.LASF173:
	.string	"assign"
.LASF1320:
	.string	"__m128i"
.LASF1365:
	.string	"__args"
.LASF699:
	.string	"_ZNSt6vectorIfSaIfEE6insertEN9__gnu_cxx17__normal_iteratorIPKfS1_EEmRS4_"
.LASF501:
	.string	"_ZNSt6vectorIiSaIiEE19_S_nothrow_relocateESt17integral_constantIbLb1EE"
.LASF258:
	.string	"_ZNSt6vectorIhSaIhEE16_M_shrink_to_fitEv"
.LASF909:
	.string	"putwchar"
.LASF633:
	.string	"_ZNSt12_Vector_baseIfSaIfEEC4EOS1_RKS0_"
.LASF1080:
	.string	"_ZN9__gnu_cxx14__alloc_traitsISaIfEfE20_S_propagate_on_swapEv"
.LASF505:
	.string	"_ZNSt6vectorIiSaIiEEC4Ev"
.LASF29:
	.string	"_M_exception_ptr_cast"
.LASF566:
	.string	"_ZNSt6vectorIiSaIiEE14_M_fill_assignEmRKi"
.LASF722:
	.string	"_ZNKSt6vectorIfSaIfEE11_M_data_ptrIfEEPT_S4_"
.LASF659:
	.string	"_ZNSt6vectorIfSaIfEEaSESt16initializer_listIfE"
.LASF1130:
	.string	"currency_symbol"
.LASF1313:
	.string	"double_t"
.LASF1402:
	.string	"_ZNSt6vectorIiSaIiEEC2EmRKiRKS0_"
.LASF734:
	.string	"iterator_traits<const SubApertureImage*>"
.LASF1426:
	.string	"tile_y_end"
.LASF788:
	.string	"_ZSt10__fill_n_aIPhmhET_S1_T0_RKT1_St26random_access_iterator_tag"
.LASF574:
	.string	"_ZNSt6vectorIiSaIiEE17_S_check_init_lenEmRKS0_"
.LASF288:
	.string	"_ZSt3absd"
.LASF160:
	.string	"_ZNSt6vectorIhSaIhEEC4EmRKhRKS0_"
.LASF1451:
	.string	"load_cvt8"
.LASF217:
	.string	"_ZNKSt6vectorIhSaIhEE14_M_range_checkEm"
.LASF300:
	.string	"_ZNSt15__new_allocatorI16SubApertureImageE10deallocateEPS0_m"
.LASF798:
	.string	"_ZSt27__uninitialized_default_n_aIPfmfET_S1_T0_RSaIT1_E"
.LASF1398:
	.string	"_ZNSt6vectorIfSaIfEEC2EmRKS0_"
.LASF875:
	.string	"_chain"
.LASF120:
	.string	"_ZNSt12_Vector_baseIhSaIhEE12_Vector_implC4EOS0_"
.LASF1146:
	.string	"int_n_cs_precedes"
.LASF682:
	.string	"_ZNSt6vectorIfSaIfEEixEm"
.LASF795:
	.string	"_Destroy<float*>"
.LASF236:
	.string	"_ZNSt6vectorIhSaIhEE6insertEN9__gnu_cxx17__normal_iteratorIPKhS1_EEOh"
.LASF1028:
	.string	"_ZN9__gnu_cxx14__alloc_traitsISaI16SubApertureImageES1_E15_S_nothrow_moveEv"
.LASF583:
	.string	"initializer_list"
.LASF495:
	.string	"_ZNSt12_Vector_baseIiSaIiEED4Ev"
.LASF1456:
	.string	"_mm256_set1_ps"
.LASF705:
	.string	"_ZNSt6vectorIfSaIfEE21_M_default_initializeEm"
.LASF1177:
	.string	"11__mbstate_t"
.LASF554:
	.string	"_ZNSt6vectorIiSaIiEE9push_backEOi"
.LASF3:
	.string	"unsigned char"
.LASF655:
	.string	"_ZNSt6vectorIfSaIfEEC4ESt16initializer_listIfERKS0_"
.LASF1029:
	.string	"rebind<SubApertureImage>"
.LASF499:
	.string	"__type_identity<std::allocator<int> >"
.LASF1308:
	.string	"_ZNK9ImageData2atEmmm"
.LASF51:
	.string	"random_access_iterator_tag"
.LASF1432:
	.string	"rl0_lo"
.LASF956:
	.string	"wcsxfrm"
.LASF455:
	.string	"_ZNKSt15__new_allocatorIiE7addressERKi"
.LASF1491:
	.string	"_IO_lock_t"
.LASF941:
	.string	"wcslen"
.LASF484:
	.string	"_ZNSt12_Vector_baseIiSaIiEE19_M_get_Tp_allocatorEv"
.LASF1066:
	.string	"_ZN9__gnu_cxx14__alloc_traitsISaIiEiE10_S_on_swapERS1_S3_"
.LASF2:
	.string	"float"
.LASF87:
	.string	"_ZNKSt15__new_allocatorIhE11_M_max_sizeEv"
.LASF339:
	.string	"_ZNSt12_Vector_baseI16SubApertureImageSaIS0_EE13_M_deallocateEPS0_m"
.LASF692:
	.string	"_ZNKSt6vectorIfSaIfEE4dataEv"
.LASF17:
	.string	"__bool_constant"
.LASF466:
	.string	"_ZNSt16allocator_traitsISaIiEE8allocateERS0_m"
.LASF480:
	.string	"_ZNSt12_Vector_baseIiSaIiEE12_Vector_implC4EOS0_OS2_"
.LASF919:
	.string	"__isoc23_vswscanf"
.LASF434:
	.string	"__type_identity<std::allocator<(anonymous namespace)::SubParams> >"
.LASF1277:
	.string	"uint_fast32_t"
.LASF409:
	.string	"_ZNSt6vectorI16SubApertureImageSaIS0_EE21_M_default_initializeEm"
.LASF1414:
	.string	"output"
.LASF124:
	.string	"_ZNSt12_Vector_baseIhSaIhEE19_M_get_Tp_allocatorEv"
.LASF1269:
	.string	"uint_least32_t"
.LASF986:
	.string	"_S_always_equal"
.LASF320:
	.string	"_ZNSt12_Vector_baseI16SubApertureImageSaIS0_EE17_Vector_impl_data12_M_swap_dataERS3_"
.LASF828:
	.string	"_ZSt8_DestroyIPiiEvT_S1_RSaIT0_E"
.LASF1148:
	.string	"int_p_sign_posn"
.LASF603:
	.string	"_ZNSaIfEC4Ev"
.LASF694:
	.string	"_ZNSt6vectorIfSaIfEE9push_backEOf"
.LASF188:
	.string	"rend"
.LASF444:
	.string	"reverse_iterator<__gnu_cxx::__normal_iterator<(anonymous namespace)::SubParams*, std::vector<(anonymous namespace)::SubParams, std::allocator<(anonymous namespace)::SubParams> > > >"
.LASF761:
	.string	"fill_n<float*, long unsigned int, float>"
.LASF1254:
	.string	"setbuf"
.LASF1455:
	.string	"_Z20_mm256_cvtepu8_epi32Dv2_x"
.LASF507:
	.string	"_ZNSt6vectorIiSaIiEEC4EmRKS0_"
.LASF342:
	.string	"vector<SubApertureImage, std::allocator<SubApertureImage> >"
.LASF1321:
	.string	"__m128i_u"
.LASF972:
	.string	"_S_single"
.LASF775:
	.string	"__fill_a1<unsigned char*, std::vector<unsigned char>, unsigned char>"
.LASF256:
	.string	"_ZNSt6vectorIhSaIhEE17_M_default_appendEm"
.LASF643:
	.string	"_ZNSt6vectorIfSaIfEE15_S_use_relocateEv"
.LASF39:
	.string	"_ZNSt15__exception_ptr13exception_ptrD4Ev"
.LASF1465:
	.string	"_Z15_mm_loadl_epi64PKDv2_x"
.LASF482:
	.string	"_ZNSt12_Vector_baseIhSaIhEE12_Vector_implD4Ev"
.LASF940:
	.string	"tm_zone"
.LASF1262:
	.string	"uint64_t"
.LASF70:
	.string	"~__new_allocator"
.LASF901:
	.string	"fwscanf"
.LASF1046:
	.string	"_ZN9__gnu_cxx17__normal_iteratorIPK16SubApertureImageSt6vectorIS1_SaIS1_EEEC4Ev"
.LASF259:
	.string	"_M_insert_rval"
.LASF929:
	.string	"wcsftime"
.LASF1048:
	.string	"_ZNK9__gnu_cxx17__normal_iteratorIPK16SubApertureImageSt6vectorIS1_SaIS1_EEEdeEv"
.LASF996:
	.string	"_ZN9__gnu_cxx17__normal_iteratorIPhSt6vectorIhSaIhEEEC4Ev"
.LASF465:
	.string	"allocator_traits<std::allocator<int> >"
.LASF23:
	.string	"_M_addref"
.LASF624:
	.string	"_ZNSt12_Vector_baseIfSaIfEE19_M_get_Tp_allocatorEv"
.LASF528:
	.string	"_ZNSt6vectorIiSaIiEE4rendEv"
.LASF384:
	.string	"_ZNKSt6vectorI16SubApertureImageSaIS0_EE5emptyEv"
.LASF68:
	.string	"_ZNKSt15__exception_ptr13exception_ptrcvbEv"
.LASF1309:
	.string	"~ImageData"
.LASF676:
	.string	"_ZNSt6vectorIfSaIfEE6resizeEm"
.LASF276:
	.string	"_ZNSt6vectorIhSaIhEE14_M_move_assignEOS1_St17integral_constantIbLb0EE"
.LASF81:
	.string	"size_type"
.LASF1253:
	.string	"rewind"
.LASF427:
	.string	"reverse_iterator<__gnu_cxx::__normal_iterator<const SubApertureImage*, std::vector<SubApertureImage, std::allocator<SubApertureImage> > > >"
.LASF1373:
	.string	"_ZN9__gnu_cxx17__normal_iteratorIPfSt6vectorIfSaIfEEEC2ERKS1_"
.LASF1314:
	.string	"_Float32x"
.LASF377:
	.string	"_ZNKSt6vectorI16SubApertureImageSaIS0_EE5crendEv"
.LASF621:
	.string	"_ZNSt12_Vector_baseIfSaIfEE12_Vector_implC4EOS0_"
.LASF318:
	.string	"_ZNSt12_Vector_baseI16SubApertureImageSaIS0_EE17_Vector_impl_data12_M_copy_dataERKS3_"
.LASF1331:
	.string	"x_end"
.LASF1478:
	.string	"_Unwind_Resume"
.LASF555:
	.string	"_ZNSt6vectorIiSaIiEE8pop_backEv"
.LASF493:
	.string	"_ZNSt12_Vector_baseIiSaIiEEC4EOS1_RKS0_"
.LASF656:
	.string	"_ZNSt6vectorIfSaIfEED4Ev"
.LASF670:
	.string	"_ZNKSt6vectorIfSaIfEE6cbeginEv"
.LASF176:
	.string	"iterator"
.LASF1225:
	.string	"strtold"
.LASF1027:
	.string	"_ZN9__gnu_cxx14__alloc_traitsISaI16SubApertureImageES1_E15_S_always_equalEv"
.LASF1220:
	.string	"strtoll"
.LASF1055:
	.string	"_ZN9__gnu_cxx17__normal_iteratorIPK16SubApertureImageSt6vectorIS1_SaIS1_EEEpLEl"
.LASF704:
	.string	"_ZNSt6vectorIfSaIfEE18_M_fill_initializeEmRKf"
.LASF457:
	.string	"_ZNSt15__new_allocatorIiE10deallocateEPim"
.LASF599:
	.string	"_ZNSt15__new_allocatorIfE10deallocateEPfm"
.LASF1010:
	.string	"_ZN9__gnu_cxx17__normal_iteratorIPhSt6vectorIhSaIhEEEpLEl"
.LASF295:
	.string	"_ZNSt15__new_allocatorI16SubApertureImageEaSERKS1_"
.LASF1195:
	.string	"atexit"
.LASF867:
	.string	"_IO_write_ptr"
.LASF1207:
	.string	"quick_exit"
.LASF674:
	.string	"_ZNKSt6vectorIfSaIfEE4sizeEv"
.LASF418:
	.string	"_ZNSt6vectorI16SubApertureImageSaIS0_EE17_S_check_init_lenEmRKS1_"
.LASF1479:
	.string	"__builtin_unwind_resume"
.LASF1135:
	.string	"negative_sign"
.LASF590:
	.string	"iterator_traits<(anonymous namespace)::SubParams*>"
.LASF416:
	.string	"_ZNSt6vectorI16SubApertureImageSaIS0_EE14_M_emplace_auxEN9__gnu_cxx17__normal_iteratorIPKS0_S2_EEOS0_"
.LASF518:
	.string	"_ZNSt6vectorIiSaIiEEaSEOS1_"
.LASF1088:
	.string	"_ZNK9__gnu_cxx17__normal_iteratorIPfSt6vectorIfSaIfEEEptEv"
.LASF1161:
	.string	"__int_least8_t"
.LASF924:
	.string	"wcscat"
.LASF658:
	.string	"_ZNSt6vectorIfSaIfEEaSEOS1_"
.LASF991:
	.string	"other"
.LASF810:
	.string	"_ZSt6fill_nIPhmhET_S1_T0_RKT1_"
.LASF145:
	.string	"_ZNSt12_Vector_baseIhSaIhEE17_M_create_storageEm"
.LASF640:
	.string	"vector<float, std::allocator<float> >"
.LASF437:
	.string	"_Guard_alloc"
.LASF168:
	.string	"~vector"
.LASF299:
	.string	"_ZNSt15__new_allocatorI16SubApertureImageE8allocateEmPKv"
.LASF605:
	.string	"_ZNSaIfEaSERKS_"
.LASF763:
	.string	"_Construct<float>"
.LASF1247:
	.string	"ftell"
.LASF532:
	.string	"_ZNKSt6vectorIiSaIiEE7crbeginEv"
.LASF1459:
	.string	"_Z16_mm256_storeu_psPfDv8_f"
.LASF1301:
	.string	"wctype"
.LASF1129:
	.string	"int_curr_symbol"
.LASF10:
	.string	"_ZNKSt17integral_constantIbLb1EEclEv"
.LASF69:
	.string	"_ZNSt15__new_allocatorIhEaSERKS0_"
.LASF92:
	.string	"_ZNSaIhEaSERKS_"
.LASF158:
	.string	"_ZNSt6vectorIhSaIhEEC4ERKS0_"
.LASF618:
	.string	"_ZNSt12_Vector_baseIfSaIfEE12_Vector_implC4Ev"
.LASF808:
	.string	"_Destroy<(anonymous namespace)::SubParams*>"
.LASF463:
	.string	"_ZNSaIiEaSERKS_"
.LASF770:
	.string	"_ZSt18__do_uninit_fill_nIPimiET_S1_T0_RKT1_"
.LASF1031:
	.string	"_ZN9__gnu_cxx17__normal_iteratorIP16SubApertureImageSt6vectorIS1_SaIS1_EEEC4Ev"
.LASF620:
	.string	"_ZNSt12_Vector_baseIfSaIfEE12_Vector_implC4EOS2_"
.LASF533:
	.string	"_ZNKSt6vectorIiSaIiEE5crendEv"
.LASF1327:
	.string	"_Float16"
.LASF45:
	.string	"_ZSt17rethrow_exceptionNSt15__exception_ptr13exception_ptrE"
.LASF713:
	.string	"_ZNKSt6vectorIfSaIfEE12_M_check_lenEmPKc"
.LASF1040:
	.string	"_ZN9__gnu_cxx17__normal_iteratorIP16SubApertureImageSt6vectorIS1_SaIS1_EEEpLEl"
.LASF199:
	.string	"size"
.LASF524:
	.string	"_ZNSt6vectorIiSaIiEE3endEv"
.LASF1032:
	.string	"_ZN9__gnu_cxx17__normal_iteratorIP16SubApertureImageSt6vectorIS1_SaIS1_EEEC4ERKS2_"
.LASF18:
	.string	"__swappable_details"
.LASF1425:
	.string	"diff"
.LASF728:
	.string	"_ZNKSt16initializer_listIiE3endEv"
.LASF780:
	.string	"_ZSt9__fill_a1IPffEvT_S1_RKT0_"
.LASF1307:
	.string	"_ZN9ImageData2atEmmm"
.LASF891:
	.string	"FILE"
.LASF219:
	.string	"_ZNKSt6vectorIhSaIhEE2atEm"
.LASF481:
	.string	"~_Vector_impl"
.LASF483:
	.string	"_ZNSt12_Vector_baseIiSaIiEE12_Vector_implD4Ev"
.LASF1446:
	.string	"_ZN9ImageDataD2Ev"
.LASF113:
	.string	"_M_copy_data"
.LASF1287:
	.string	"clock"
.LASF243:
	.string	"clear"
.LASF127:
	.string	"_ZNKSt12_Vector_baseIhSaIhEE13get_allocatorEv"
.LASF1291:
	.string	"asctime"
.LASF1034:
	.string	"_ZNK9__gnu_cxx17__normal_iteratorIP16SubApertureImageSt6vectorIS1_SaIS1_EEEptEv"
.LASF43:
	.string	"_ZNKSt15__exception_ptr13exception_ptr20__cxa_exception_typeEv"
.LASF1256:
	.string	"tmpfile"
.LASF112:
	.string	"_ZNSt12_Vector_baseIhSaIhEE17_Vector_impl_dataC4EOS2_"
.LASF708:
	.string	"_ZNSt6vectorIfSaIfEE14_M_fill_appendEmRKf"
.LASF774:
	.string	"_ZSt12__niter_baseIPhET_S1_"
.LASF607:
	.string	"allocator_traits<std::allocator<float> >"
.LASF5:
	.string	"size_t"
.LASF812:
	.string	"_ZSt24__uninitialized_fill_n_aIPhmhhET_S1_T0_RKT1_RSaIT2_E"
.LASF629:
	.string	"_ZNSt12_Vector_baseIfSaIfEEC4Em"
.LASF1039:
	.string	"_ZNK9__gnu_cxx17__normal_iteratorIP16SubApertureImageSt6vectorIS1_SaIS1_EEEixEl"
.LASF1293:
	.string	"gmtime"
.LASF856:
	.string	"__count"
.LASF1319:
	.string	"__v16qi"
.LASF1259:
	.string	"uint8_t"
.LASF1179:
	.string	"quot"
.LASF720:
	.string	"_ZNSt6vectorIfSaIfEE14_M_move_assignEOS1_St17integral_constantIbLb0EE"
.LASF966:
	.string	"wcspbrk"
.LASF560:
	.string	"_ZNSt6vectorIiSaIiEE5eraseEN9__gnu_cxx17__normal_iteratorIPKiS1_EE"
.LASF220:
	.string	"front"
.LASF101:
	.string	"_ZNSt16allocator_traitsISaIhEE8max_sizeERKS0_"
.LASF305:
	.string	"_ZNSaI16SubApertureImageEC4ERKS0_"
.LASF293:
	.string	"_ZNSt15__new_allocatorI16SubApertureImageEC4Ev"
.LASF1383:
	.string	"_ZNSt15__new_allocatorIiEC2Ev"
.LASF757:
	.string	"_FIte"
.LASF1283:
	.string	"_Float32"
.LASF525:
	.string	"_ZNKSt6vectorIiSaIiEE3endEv"
.LASF1250:
	.string	"perror"
.LASF994:
	.string	"_M_current"
.LASF321:
	.string	"_ZNSt12_Vector_baseI16SubApertureImageSaIS0_EE12_Vector_implC4Ev"
.LASF347:
	.string	"_ZNSt6vectorI16SubApertureImageSaIS0_EE15_S_use_relocateEv"
.LASF794:
	.string	"_ZSt9__fill_a1IPfSt6vectorIfSaIfEEfEvN9__gnu_cxx17__normal_iteratorIT_T0_EES8_RKT1_"
.LASF1165:
	.string	"__int_least32_t"
.LASF407:
	.string	"_ZNSt6vectorI16SubApertureImageSaIS0_EE5clearEv"
.LASF730:
	.string	"reverse_iterator<__gnu_cxx::__normal_iterator<float*, std::vector<float, std::allocator<float> > > >"
.LASF1347:
	.string	"_ZNSt12_Vector_baseIhSaIhEE12_Vector_implC2ERKS0_"
.LASF251:
	.string	"_M_fill_insert"
.LASF894:
	.string	"fgetwc"
.LASF871:
	.string	"_IO_save_base"
.LASF1273:
	.string	"int_fast32_t"
.LASF370:
	.string	"_ZNSt6vectorI16SubApertureImageSaIS0_EE6rbeginEv"
.LASF715:
	.string	"_ZNSt6vectorIfSaIfEE11_S_max_sizeERKS0_"
.LASF1481:
	.string	"_ZNSt15__exception_ptr4swapERNS_13exception_ptrES1_"
.LASF662:
	.string	"_ZNSt6vectorIfSaIfEE5beginEv"
.LASF273:
	.string	"_ZNSt6vectorIhSaIhEE8_M_eraseEN9__gnu_cxx17__normal_iteratorIPhS1_EES5_"
.LASF423:
	.string	"_ZNSt6vectorI16SubApertureImageSaIS0_EE14_M_move_assignEOS2_St17integral_constantIbLb1EE"
.LASF957:
	.string	"wctob"
.LASF890:
	.string	"_unused2"
.LASF625:
	.string	"_ZNKSt12_Vector_baseIfSaIfEE19_M_get_Tp_allocatorEv"
.LASF638:
	.string	"_ZNSt12_Vector_baseIfSaIfEE17_M_create_storageEm"
.LASF312:
	.string	"_ZNSt16allocator_traitsISaI16SubApertureImageEE10deallocateERS1_PS0_m"
.LASF900:
	.string	"fwprintf"
.LASF1457:
	.string	"_Z14_mm256_set1_psf"
.LASF511:
	.string	"_ZNSt6vectorIiSaIiEEC4ERKS1_RKS0_"
.LASF143:
	.string	"_ZNSt12_Vector_baseIhSaIhEE13_M_deallocateEPhm"
.LASF440:
	.string	"_M_vect"
.LASF249:
	.string	"_M_fill_assign"
.LASF855:
	.string	"__wchb"
.LASF1302:
	.string	"ImageData"
.LASF681:
	.string	"_ZNSt6vectorIfSaIfEE7reserveEm"
.LASF823:
	.string	"__fill_a<__gnu_cxx::__normal_iterator<float*, std::vector<float> >, float>"
.LASF391:
	.string	"_ZNSt6vectorI16SubApertureImageSaIS0_EE5frontEv"
.LASF11:
	.string	"integral_constant<bool, true>"
.LASF744:
	.string	"_M_cur"
.LASF398:
	.string	"_ZNSt6vectorI16SubApertureImageSaIS0_EE9push_backEOS0_"
.LASF395:
	.string	"_ZNSt6vectorI16SubApertureImageSaIS0_EE4dataEv"
.LASF611:
	.string	"_ZNSt16allocator_traitsISaIfEE8max_sizeERKS0_"
.LASF373:
	.string	"_ZNKSt6vectorI16SubApertureImageSaIS0_EE4rendEv"
.LASF263:
	.string	"_M_check_len"
.LASF475:
	.string	"_ZNSt12_Vector_baseIiSaIiEE17_Vector_impl_data12_M_swap_dataERS2_"
.LASF853:
	.string	"wint_t"
.LASF1203:
	.string	"mblen"
.LASF122:
	.string	"_Tp_alloc_type"
.LASF825:
	.string	"_Destroy<float*, float>"
.LASF914:
	.string	"vfwprintf"
.LASF751:
	.string	"_ZSt28__throw_bad_array_new_lengthv"
.LASF1422:
	.string	"__for_end"
.LASF95:
	.string	"allocator_traits<std::allocator<unsigned char> >"
.LASF470:
	.string	"_ZNSt16allocator_traitsISaIiEE37select_on_container_copy_constructionERKS0_"
.LASF71:
	.string	"_ZNSt15__new_allocatorIhED4Ev"
.LASF1376:
	.string	"_ZNSt12_Vector_baseIfSaIfEE12_Vector_implD2Ev"
.LASF594:
	.string	"_ZNSt15__new_allocatorIfEaSERKS0_"
.LASF1112:
	.string	"wcstoull"
.LASF885:
	.string	"_wide_data"
.LASF515:
	.string	"_ZNSt6vectorIiSaIiEEC4ESt16initializer_listIiERKS0_"
.LASF985:
	.string	"_ZN9__gnu_cxx14__alloc_traitsISaIhEhE20_S_propagate_on_swapEv"
.LASF190:
	.string	"_ZNKSt6vectorIhSaIhEE4rendEv"
.LASF311:
	.string	"_ZNSt16allocator_traitsISaIhEE10deallocateERS0_Phm"
.LASF397:
	.string	"_ZNSt6vectorI16SubApertureImageSaIS0_EE9push_backERKS0_"
.LASF1076:
	.string	"_ZN9__gnu_cxx14__alloc_traitsISaIfEfE17_S_select_on_copyERKS1_"
.LASF718:
	.string	"_ZNSt6vectorIfSaIfEE8_M_eraseEN9__gnu_cxx17__normal_iteratorIPfS1_EES5_"
.LASF1238:
	.string	"fflush"
.LASF291:
	.string	"_ZSt3divll"
.LASF712:
	.string	"_ZNSt6vectorIfSaIfEE14_M_emplace_auxEN9__gnu_cxx17__normal_iteratorIPKfS1_EEOf"
.LASF1070:
	.string	"_ZN9__gnu_cxx14__alloc_traitsISaIiEiE15_S_always_equalEv"
.LASF897:
	.string	"fputwc"
.LASF1375:
	.string	"_ZNSt12_Vector_baseIfSaIfEEC2EmRKS0_"
.LASF1284:
	.string	"_Float64"
.LASF1335:
	.string	"_ZdlPvm"
.LASF405:
	.string	"_ZNSt6vectorI16SubApertureImageSaIS0_EE5eraseEN9__gnu_cxx17__normal_iteratorIPKS0_S2_EES7_"
.LASF413:
	.string	"_ZNSt6vectorI16SubApertureImageSaIS0_EE17_M_default_appendEm"
.LASF898:
	.string	"fputws"
.LASF400:
	.string	"_ZNSt6vectorI16SubApertureImageSaIS0_EE6insertEN9__gnu_cxx17__normal_iteratorIPKS0_S2_EERS5_"
.LASF177:
	.string	"begin"
.LASF128:
	.string	"_Vector_base"
.LASF479:
	.string	"_ZNSt12_Vector_baseIiSaIiEE12_Vector_implC4EOS0_"
.LASF1026:
	.string	"_ZN9__gnu_cxx14__alloc_traitsISaI16SubApertureImageES1_E20_S_propagate_on_swapEv"
.LASF805:
	.string	"__enable_if_t"
.LASF783:
	.string	"uninitialized_fill_n<int*, long unsigned int, int>"
.LASF1392:
	.string	"_ZNSt15__new_allocatorIhED2Ev"
.LASF1363:
	.string	"__ptr"
.LASF103:
	.string	"_ZNSt16allocator_traitsISaIhEE37select_on_container_copy_constructionERKS0_"
.LASF1019:
	.string	"_Container"
.LASF1008:
	.string	"_ZNK9__gnu_cxx17__normal_iteratorIPhSt6vectorIhSaIhEEEixEl"
.LASF1159:
	.string	"__int64_t"
.LASF139:
	.string	"_M_impl"
.LASF807:
	.string	"__niter_base<(anonymous namespace)::SubParams*>"
.LASF1160:
	.string	"__uint64_t"
.LASF360:
	.string	"_ZNSt6vectorI16SubApertureImageSaIS0_EED4Ev"
.LASF584:
	.string	"_ZNSt16initializer_listIiEC4EPKim"
.LASF1380:
	.string	"_ZNSt12_Vector_baseIiSaIiEEC2EmRKS0_"
.LASF91:
	.string	"_ZNSaIhEC4ERKS_"
.LASF1423:
	.string	"shift_x"
.LASF1424:
	.string	"shift_y"
.LASF191:
	.string	"cbegin"
.LASF126:
	.string	"get_allocator"
.LASF292:
	.string	"__new_allocator<SubApertureImage>"
.LASF1358:
	.string	"_ZNSt15__new_allocatorIhEC2ERKS0_"
.LASF206:
	.string	"_ZNSt6vectorIhSaIhEE13shrink_to_fitEv"
.LASF1415:
	.string	"params"
.LASF194:
	.string	"_ZNKSt6vectorIhSaIhEE4cendEv"
.LASF163:
	.string	"_ZNSt6vectorIhSaIhEEC4ERKS1_RKS0_"
.LASF1126:
	.string	"decimal_point"
.LASF354:
	.string	"_ZNSt6vectorI16SubApertureImageSaIS0_EEC4EOS2_"
.LASF431:
	.string	"allocator_traits<std::allocator<(anonymous namespace)::SubParams> >"
.LASF117:
	.string	"_ZNSt12_Vector_baseIhSaIhEE12_Vector_implC4Ev"
.LASF760:
	.string	"_OutputIterator"
.LASF1071:
	.string	"_ZN9__gnu_cxx14__alloc_traitsISaIiEiE15_S_nothrow_moveEv"
.LASF565:
	.string	"_ZNSt6vectorIiSaIiEE21_M_default_initializeEm"
.LASF404:
	.string	"_ZNSt6vectorI16SubApertureImageSaIS0_EE5eraseEN9__gnu_cxx17__normal_iteratorIPKS0_S2_EE"
.LASF77:
	.string	"_ZNKSt15__new_allocatorIhE7addressERKh"
.LASF1490:
	.string	"decltype(nullptr)"
.LASF1340:
	.string	"this"
.LASF529:
	.string	"_ZNKSt6vectorIiSaIiEE4rendEv"
.LASF197:
	.string	"crend"
.LASF669:
	.string	"_ZNKSt6vectorIfSaIfEE4rendEv"
.LASF1235:
	.string	"fclose"
.LASF1213:
	.string	"strtoul"
.LASF1377:
	.string	"_ZNSt15__new_allocatorIfED2Ev"
.LASF478:
	.string	"_ZNSt12_Vector_baseIiSaIiEE12_Vector_implC4EOS2_"
.LASF987:
	.string	"_ZN9__gnu_cxx14__alloc_traitsISaIhEhE15_S_always_equalEv"
.LASF977:
	.string	"_ZN9__gnu_cxx14__alloc_traitsISaIhEhE17_S_select_on_copyERKS1_"
.LASF324:
	.string	"_ZNSt12_Vector_baseI16SubApertureImageSaIS0_EE12_Vector_implC4EOS1_"
.LASF719:
	.string	"_ZNSt6vectorIfSaIfEE14_M_move_assignEOS1_St17integral_constantIbLb1EE"
.LASF549:
	.string	"_ZNSt6vectorIiSaIiEE4backEv"
.LASF862:
	.string	"_flags"
.LASF1137:
	.string	"frac_digits"
.LASF521:
	.string	"_ZNSt6vectorIiSaIiEE6assignESt16initializer_listIiE"
.LASF1466:
	.string	"_mm_set_epi64"
.LASF1191:
	.string	"timespec"
.LASF369:
	.string	"_ZNKSt6vectorI16SubApertureImageSaIS0_EE3endEv"
.LASF578:
	.string	"_ZNSt6vectorIiSaIiEE8_M_eraseEN9__gnu_cxx17__normal_iteratorIPiS1_EES5_"
.LASF904:
	.string	"mbrlen"
.LASF689:
	.string	"_ZNSt6vectorIfSaIfEE4backEv"
.LASF1182:
	.string	"ldiv_t"
.LASF983:
	.string	"_ZN9__gnu_cxx14__alloc_traitsISaIhEhE27_S_propagate_on_move_assignEv"
.LASF213:
	.string	"operator[]"
.LASF96:
	.string	"_ZNSt27__uninitialized_default_n_1ILb1EE18__uninit_default_nIPfmEET_S3_T0_"
.LASF57:
	.string	"__detail"
.LASF716:
	.string	"_ZNSt6vectorIfSaIfEE15_M_erase_at_endEPf"
.LASF1163:
	.string	"__int_least16_t"
.LASF710:
	.string	"_ZNSt6vectorIfSaIfEE16_M_shrink_to_fitEv"
.LASF1395:
	.string	"__lo"
.LASF348:
	.string	"_ZNSt6vectorI16SubApertureImageSaIS0_EE11_S_relocateEPS0_S3_S3_RS1_"
.LASF1318:
	.string	"__m64_u"
.LASF569:
	.string	"_ZNSt6vectorIiSaIiEE17_M_default_appendEm"
.LASF558:
	.string	"_ZNSt6vectorIiSaIiEE6insertEN9__gnu_cxx17__normal_iteratorIPKiS1_EESt16initializer_listIiE"
.LASF1343:
	.string	"__val"
.LASF1096:
	.string	"_ZN9__gnu_cxx17__normal_iteratorIPfSt6vectorIfSaIfEEEmIEl"
.LASF1356:
	.string	"_ZN9__gnu_cxx17__normal_iteratorIPhSt6vectorIhSaIhEEEC2ERKS1_"
.LASF1021:
	.string	"__alloc_traits<std::allocator<SubApertureImage>, SubApertureImage>"
.LASF912:
	.string	"__isoc23_swscanf"
.LASF1357:
	.string	"_ZNSt12_Vector_baseIhSaIhEEC2EmRKS0_"
.LASF1216:
	.string	"wcstombs"
.LASF678:
	.string	"_ZNSt6vectorIfSaIfEE13shrink_to_fitEv"
.LASF1404:
	.string	"_ZNSaIiEC2Ev"
.LASF1368:
	.string	"__tmp"
.LASF214:
	.string	"_ZNSt6vectorIhSaIhEEixEm"
.LASF248:
	.string	"_ZNSt6vectorIhSaIhEE21_M_default_initializeEm"
.LASF179:
	.string	"const_iterator"
.LASF1405:
	.string	"__old_size"
.LASF815:
	.string	"_Destroy<unsigned char*>"
.LASF412:
	.string	"_ZNSt6vectorI16SubApertureImageSaIS0_EE14_M_fill_appendEmRKS0_"
.LASF1065:
	.string	"_ZN9__gnu_cxx14__alloc_traitsISaIiEiE17_S_select_on_copyERKS1_"
.LASF1361:
	.string	"_ZNSt12_Vector_baseIiSaIiEE12_Vector_implC2ERKS0_"
.LASF612:
	.string	"_ZNSt16allocator_traitsISaIfEE37select_on_container_copy_constructionERKS0_"
.LASF98:
	.string	"allocator_type"
.LASF490:
	.string	"_ZNSt12_Vector_baseIiSaIiEEC4EmRKS0_"
.LASF1461:
	.string	"_Z15_mm256_loadu_psPKf"
.LASF523:
	.string	"_ZNKSt6vectorIiSaIiEE5beginEv"
.LASF1493:
	.string	"execution"
.LASF232:
	.string	"pop_back"
.LASF616:
	.string	"_ZNSt12_Vector_baseIfSaIfEE17_Vector_impl_data12_M_copy_dataERKS2_"
.LASF366:
	.string	"_ZNSt6vectorI16SubApertureImageSaIS0_EE5beginEv"
.LASF1391:
	.string	"__add"
.LASF843:
	.string	"floor"
.LASF357:
	.string	"_ZNSt6vectorI16SubApertureImageSaIS0_EEC4EOS2_RKS1_St17integral_constantIbLb0EE"
.LASF1272:
	.string	"int_fast16_t"
.LASF1229:
	.string	"__fpos_t"
.LASF702:
	.string	"_ZNSt6vectorIfSaIfEE4swapERS1_"
.LASF1394:
	.string	"_ZNSaIhEC2Ev"
.LASF543:
	.string	"_ZNKSt6vectorIiSaIiEEixEm"
.LASF313:
	.string	"_ZNSt16allocator_traitsISaI16SubApertureImageEE8max_sizeERKS1_"
.LASF792:
	.string	"_ZSt8__fill_aIN9__gnu_cxx17__normal_iteratorIPhSt6vectorIhSaIhEEEEhEvT_S7_RKT0_"
.LASF185:
	.string	"_ZNSt6vectorIhSaIhEE6rbeginEv"
.LASF410:
	.string	"_ZNSt6vectorI16SubApertureImageSaIS0_EE14_M_fill_assignEmRKS0_"
.LASF165:
	.string	"_ZNSt6vectorIhSaIhEEC4EOS1_RKS0_St17integral_constantIbLb0EE"
.LASF396:
	.string	"_ZNKSt6vectorI16SubApertureImageSaIS0_EE4dataEv"
.LASF110:
	.string	"_M_end_of_storage"
.LASF782:
	.string	"_ZSt25__uninitialized_default_nIPfmET_S1_T0_"
.LASF911:
	.string	"swscanf"
.LASF530:
	.string	"_ZNKSt6vectorIiSaIiEE6cbeginEv"
.LASF34:
	.string	"_ZNSt15__exception_ptr13exception_ptrC4EOS0_"
.LASF371:
	.string	"_ZNKSt6vectorI16SubApertureImageSaIS0_EE6rbeginEv"
.LASF1475:
	.string	"memset"
.LASF1102:
	.string	"_Cond"
.LASF344:
	.string	"_ZNSt6vectorI16SubApertureImageSaIS0_EE19_S_nothrow_relocateESt17integral_constantIbLb0EE"
.LASF1462:
	.string	"_mm256_cvtepi32_ps"
.LASF765:
	.string	"_Construct<int, int const&>"
.LASF1234:
	.string	"clearerr"
.LASF449:
	.string	"__new_allocator<int>"
.LASF738:
	.string	"_ZNSt19_UninitDestroyGuardIPivEC4ERS0_"
.LASF778:
	.string	"_Cont"
.LASF540:
	.string	"_ZNKSt6vectorIiSaIiEE5emptyEv"
.LASF261:
	.string	"_M_emplace_aux"
.LASF593:
	.string	"_ZNSt15__new_allocatorIfEC4ERKS0_"
.LASF1105:
	.string	"operator!="
.LASF1075:
	.string	"__alloc_traits<std::allocator<float>, float>"
.LASF1258:
	.string	"ungetc"
.LASF1187:
	.string	"int8_t"
.LASF498:
	.string	"_ZNSt12_Vector_baseIiSaIiEE17_M_create_storageEm"
.LASF873:
	.string	"_IO_save_end"
.LASF962:
	.string	"wprintf"
.LASF415:
	.string	"_ZNSt6vectorI16SubApertureImageSaIS0_EE14_M_insert_rvalEN9__gnu_cxx17__normal_iteratorIPKS0_S2_EEOS0_"
.LASF452:
	.string	"_ZNSt15__new_allocatorIiEaSERKS0_"
.LASF1427:
	.string	"tile_h_actual"
.LASF980:
	.string	"_S_propagate_on_copy_assign"
.LASF806:
	.string	"__relocate_a_1<(anonymous namespace)::SubParams, (anonymous namespace)::SubParams>"
.LASF1276:
	.string	"uint_fast16_t"
.LASF1265:
	.string	"int_least32_t"
.LASF1209:
	.string	"srand"
.LASF63:
	.string	"__new_allocator<unsigned char>"
.LASF1138:
	.string	"p_cs_precedes"
.LASF925:
	.string	"wcscmp"
.LASF679:
	.string	"_ZNKSt6vectorIfSaIfEE8capacityEv"
.LASF667:
	.string	"_ZNKSt6vectorIfSaIfEE6rbeginEv"
.LASF573:
	.string	"_ZNKSt6vectorIiSaIiEE12_M_check_lenEmPKc"
.LASF802:
	.string	"_ZSt24__uninitialized_fill_n_aIPimiiET_S1_T0_RKT1_RSaIT2_E"
.LASF307:
	.string	"_ZNSaI16SubApertureImageED4Ev"
.LASF849:
	.string	"fp_offset"
.LASF148:
	.string	"type"
.LASF1174:
	.string	"__time_t"
.LASF907:
	.string	"mbsrtowcs"
.LASF27:
	.string	"_M_get"
.LASF1133:
	.string	"mon_grouping"
.LASF848:
	.string	"gp_offset"
.LASF74:
	.string	"pointer"
.LASF517:
	.string	"_ZNSt6vectorIiSaIiEEaSERKS1_"
.LASF255:
	.string	"_M_default_append"
.LASF1049:
	.string	"_ZNK9__gnu_cxx17__normal_iteratorIPK16SubApertureImageSt6vectorIS1_SaIS1_EEEptEv"
.LASF1122:
	.string	"__int128"
.LASF184:
	.string	"rbegin"
.LASF1025:
	.string	"_ZN9__gnu_cxx14__alloc_traitsISaI16SubApertureImageES1_E27_S_propagate_on_move_assignEv"
.LASF787:
	.string	"__fill_n_a<unsigned char*, long unsigned int, unsigned char>"
.LASF937:
	.string	"tm_yday"
.LASF906:
	.string	"mbsinit"
.LASF200:
	.string	"_ZNKSt6vectorIhSaIhEE4sizeEv"
.LASF1054:
	.string	"_ZNK9__gnu_cxx17__normal_iteratorIPK16SubApertureImageSt6vectorIS1_SaIS1_EEEixEl"
.LASF38:
	.string	"~exception_ptr"
.LASF552:
	.string	"_ZNKSt6vectorIiSaIiEE4dataEv"
.LASF1117:
	.string	"max_align_t"
.LASF445:
	.string	"reverse_iterator<__gnu_cxx::__normal_iterator<const (anonymous namespace)::SubParams*, std::vector<(anonymous namespace)::SubParams, std::allocator<(anonymous namespace)::SubParams> > > >"
.LASF1134:
	.string	"positive_sign"
.LASF931:
	.string	"tm_min"
.LASF955:
	.string	"__isoc23_wcstoul"
.LASF1492:
	.string	"_ZN9ImageDataD4Ev"
.LASF37:
	.string	"_ZNSt15__exception_ptr13exception_ptraSEOS0_"
.LASF1215:
	.string	"system"
.LASF241:
	.string	"_ZNSt6vectorIhSaIhEE5eraseEN9__gnu_cxx17__normal_iteratorIPKhS1_EES6_"
.LASF564:
	.string	"_ZNSt6vectorIiSaIiEE18_M_fill_initializeEmRKi"
.LASF1188:
	.string	"int16_t"
.LASF1050:
	.string	"_ZN9__gnu_cxx17__normal_iteratorIPK16SubApertureImageSt6vectorIS1_SaIS1_EEEppEv"
.LASF1095:
	.string	"_ZNK9__gnu_cxx17__normal_iteratorIPfSt6vectorIfSaIfEEEplEl"
.LASF433:
	.string	"_Vector_base<(anonymous namespace)::SubParams, std::allocator<(anonymous namespace)::SubParams> >"
.LASF830:
	.string	"_InputIterator"
.LASF892:
	.string	"short unsigned int"
.LASF250:
	.string	"_ZNSt6vectorIhSaIhEE14_M_fill_assignEmRKh"
.LASF1120:
	.string	"signed char"
.LASF1430:
	.string	"tile_row_stride"
.LASF201:
	.string	"_ZNKSt6vectorIhSaIhEE8max_sizeEv"
.LASF383:
	.string	"_ZNKSt6vectorI16SubApertureImageSaIS0_EE8capacityEv"
.LASF1439:
	.string	"rr1_hi"
.LASF742:
	.string	"_ZNSt19_UninitDestroyGuardIPivE7releaseEv"
.LASF114:
	.string	"_ZNSt12_Vector_baseIhSaIhEE17_Vector_impl_data12_M_copy_dataERKS2_"
.LASF508:
	.string	"_ZNSt6vectorIiSaIiEEC4EmRKiRKS0_"
.LASF1330:
	.string	"x_begin"
.LASF181:
	.string	"_ZNSt6vectorIhSaIhEE3endEv"
.LASF461:
	.string	"_ZNSaIiEC4Ev"
.LASF999:
	.string	"_ZNK9__gnu_cxx17__normal_iteratorIPhSt6vectorIhSaIhEEEdeEv"
.LASF447:
	.string	"difference_type"
.LASF553:
	.string	"_ZNSt6vectorIiSaIiEE9push_backERKi"
.LASF1085:
	.string	"_ZN9__gnu_cxx17__normal_iteratorIPfSt6vectorIfSaIfEEEC4Ev"
.LASF47:
	.string	"ptrdiff_t"
.LASF910:
	.string	"swprintf"
.LASF33:
	.string	"_ZNSt15__exception_ptr13exception_ptrC4EDn"
.LASF430:
	.string	"allocator<(anonymous namespace)::SubParams>"
.LASF349:
	.string	"_ZNSt6vectorI16SubApertureImageSaIS0_EEC4Ev"
.LASF97:
	.string	"_ZNSt16allocator_traitsISaIhEE8allocateERS0_m"
.LASF697:
	.string	"_ZNSt6vectorIfSaIfEE6insertEN9__gnu_cxx17__normal_iteratorIPKfS1_EEOf"
.LASF223:
	.string	"back"
.LASF721:
	.string	"_M_data_ptr<float>"
.LASF665:
	.string	"_ZNKSt6vectorIfSaIfEE3endEv"
.LASF859:
	.string	"mbstate_t"
.LASF964:
	.string	"__isoc23_wscanf"
.LASF450:
	.string	"_ZNSt15__new_allocatorIiEC4Ev"
.LASF1399:
	.string	"_ZNSaIfED2Ev"
.LASF394:
	.string	"_ZNKSt6vectorI16SubApertureImageSaIS0_EE4backEv"
.LASF630:
	.string	"_ZNSt12_Vector_baseIfSaIfEEC4EmRKS0_"
.LASF541:
	.string	"_ZNSt6vectorIiSaIiEE7reserveEm"
.LASF72:
	.string	"address"
.LASF1172:
	.string	"__off64_t"
.LASF756:
	.string	"_ZSt8__fill_aIPffEvT_S1_RKT0_"
.LASF896:
	.string	"wchar_t"
.LASF917:
	.string	"vswprintf"
.LASF1344:
	.string	"__len"
.LASF908:
	.string	"putwc"
.LASF157:
	.string	"_ZNSt6vectorIhSaIhEEC4Ev"
.LASF865:
	.string	"_IO_read_base"
.LASF187:
	.string	"_ZNKSt6vectorIhSaIhEE6rbeginEv"
.LASF382:
	.string	"_ZNSt6vectorI16SubApertureImageSaIS0_EE13shrink_to_fitEv"
.LASF883:
	.string	"_offset"
.LASF1057:
	.string	"_ZN9__gnu_cxx17__normal_iteratorIPK16SubApertureImageSt6vectorIS1_SaIS1_EEEmIEl"
.LASF1041:
	.string	"_ZNK9__gnu_cxx17__normal_iteratorIP16SubApertureImageSt6vectorIS1_SaIS1_EEEplEl"
.LASF1385:
	.string	"__old_finish"
.LASF225:
	.string	"_ZNKSt6vectorIhSaIhEE4backEv"
.LASF496:
	.string	"_ZNSt12_Vector_baseIiSaIiEE11_M_allocateEm"
.LASF283:
	.string	"reverse_iterator<__gnu_cxx::__normal_iterator<unsigned char const*, std::vector<unsigned char, std::allocator<unsigned char> > > >"
.LASF202:
	.string	"resize"
.LASF870:
	.string	"_IO_buf_end"
.LASF731:
	.string	"reverse_iterator<__gnu_cxx::__normal_iterator<float const*, std::vector<float, std::allocator<float> > > >"
.LASF182:
	.string	"_ZNKSt6vectorIhSaIhEE3endEv"
.LASF1204:
	.string	"mbstowcs"
.LASF1099:
	.string	"__normal_iterator<float const*, std::vector<float, std::allocator<float> > >"
.LASF119:
	.string	"_ZNSt12_Vector_baseIhSaIhEE12_Vector_implC4EOS2_"
.LASF471:
	.string	"_Vector_base<int, std::allocator<int> >"
.LASF1083:
	.string	"rebind<float>"
.LASF1143:
	.string	"n_sign_posn"
.LASF591:
	.string	"__new_allocator<float>"
.LASF993:
	.string	"_flags2"
.LASF834:
	.string	"_ZSt8_DestroyIPhhEvT_S1_RSaIT0_E"
.LASF54:
	.string	"chrono"
.LASF945:
	.string	"wcsrtombs"
.LASF1226:
	.string	"_G_fpos_t"
.LASF164:
	.string	"_ZNSt6vectorIhSaIhEEC4EOS1_RKS0_St17integral_constantIbLb1EE"
.LASF271:
	.string	"_M_erase"
.LASF936:
	.string	"tm_wday"
.LASF138:
	.string	"_ZNSt12_Vector_baseIhSaIhEED4Ev"
.LASF577:
	.string	"_ZNSt6vectorIiSaIiEE8_M_eraseEN9__gnu_cxx17__normal_iteratorIPiS1_EE"
.LASF928:
	.string	"wcscspn"
.LASF608:
	.string	"_ZNSt16allocator_traitsISaIfEE8allocateERS0_m"
.LASF24:
	.string	"_M_release"
.LASF889:
	.string	"_mode"
.LASF536:
	.string	"_ZNSt6vectorIiSaIiEE6resizeEm"
.LASF376:
	.string	"_ZNKSt6vectorI16SubApertureImageSaIS0_EE7crbeginEv"
.LASF141:
	.string	"_ZNSt12_Vector_baseIhSaIhEE11_M_allocateEm"
.LASF372:
	.string	"_ZNSt6vectorI16SubApertureImageSaIS0_EE4rendEv"
.LASF866:
	.string	"_IO_write_base"
.LASF1332:
	.string	"y_begin"
.LASF545:
	.string	"_ZNSt6vectorIiSaIiEE2atEm"
.LASF1473:
	.string	"_ZnwmPv"
.LASF343:
	.string	"_ZNSt6vectorI16SubApertureImageSaIS0_EE19_S_nothrow_relocateESt17integral_constantIbLb1EE"
.LASF192:
	.string	"_ZNKSt6vectorIhSaIhEE6cbeginEv"
.LASF854:
	.string	"__wch"
.LASF326:
	.string	"_ZNSt12_Vector_baseI16SubApertureImageSaIS0_EE19_M_get_Tp_allocatorEv"
.LASF266:
	.string	"_ZNSt6vectorIhSaIhEE17_S_check_init_lenEmRKS0_"
.LASF580:
	.string	"_ZNSt6vectorIiSaIiEE14_M_move_assignEOS1_St17integral_constantIbLb0EE"
.LASF623:
	.string	"_ZNSt12_Vector_baseIfSaIfEE12_Vector_implD4Ev"
.LASF586:
	.string	"_ZNKSt16initializer_listIiE4sizeEv"
.LASF821:
	.string	"max<float>"
.LASF196:
	.string	"_ZNKSt6vectorIhSaIhEE7crbeginEv"
.LASF1393:
	.string	"_ZNSt12_Vector_baseIhSaIhEE17_Vector_impl_dataC2Ev"
.LASF520:
	.string	"_ZNSt6vectorIiSaIiEE6assignEmRKi"
.LASF832:
	.string	"_Destroy<(anonymous namespace)::SubParams*, (anonymous namespace)::SubParams>"
.LASF918:
	.string	"vswscanf"
.LASF488:
	.string	"_ZNSt12_Vector_baseIiSaIiEEC4ERKS0_"
.LASF1355:
	.string	"__dest"
.LASF934:
	.string	"tm_mon"
.LASF506:
	.string	"_ZNSt6vectorIiSaIiEEC4ERKS0_"
.LASF1409:
	.string	"_ZNSt12_Vector_baseIhSaIhEE12_Vector_implC2Ev"
.LASF1111:
	.string	"long long int"
.LASF1290:
	.string	"time"
.LASF503:
	.string	"_ZNSt6vectorIiSaIiEE15_S_use_relocateEv"
.LASF1223:
	.string	"__isoc23_strtoull"
.LASF1280:
	.string	"uintptr_t"
.LASF301:
	.string	"_ZNKSt15__new_allocatorI16SubApertureImageE8max_sizeEv"
.LASF42:
	.string	"__cxa_exception_type"
.LASF1438:
	.string	"rr1_lo"
.LASF550:
	.string	"_ZNKSt6vectorIiSaIiEE4backEv"
.LASF8:
	.string	"operator()"
.LASF1333:
	.string	"y_end"
.LASF1240:
	.string	"fgetpos"
.LASF500:
	.string	"vector<int, std::allocator<int> >"
.LASF1444:
	.string	"__lhs"
.LASF690:
	.string	"_ZNKSt6vectorIfSaIfEE4backEv"
.LASF1453:
	.string	"_Z15_mm256_fmadd_psDv8_fS_S_"
.LASF1042:
	.string	"_ZN9__gnu_cxx17__normal_iteratorIP16SubApertureImageSt6vectorIS1_SaIS1_EEEmIEl"
.LASF227:
	.string	"_ZNSt6vectorIhSaIhEE4dataEv"
.LASF392:
	.string	"_ZNKSt6vectorI16SubApertureImageSaIS0_EE5frontEv"
.LASF920:
	.string	"vwprintf"
.LASF1230:
	.string	"_IO_marker"
.LASF888:
	.string	"_prevchain"
.LASF509:
	.string	"_ZNSt6vectorIiSaIiEEC4ERKS1_"
.LASF1315:
	.string	"_Float64x"
.LASF935:
	.string	"tm_year"
.LASF1162:
	.string	"__uint_least8_t"
.LASF12:
	.string	"integral_constant<bool, false>"
.LASF325:
	.string	"_ZNSt12_Vector_baseI16SubApertureImageSaIS0_EE12_Vector_implC4EOS1_OS3_"
.LASF469:
	.string	"_ZNSt16allocator_traitsISaIiEE8max_sizeERKS0_"
.LASF1248:
	.string	"getc"
.LASF1341:
	.string	"_ZNSt19_UninitDestroyGuardIPivED2Ev"
.LASF963:
	.string	"wscanf"
.LASF362:
	.string	"_ZNSt6vectorI16SubApertureImageSaIS0_EEaSEOS2_"
.LASF717:
	.string	"_ZNSt6vectorIfSaIfEE8_M_eraseEN9__gnu_cxx17__normal_iteratorIPfS1_EE"
.LASF1345:
	.string	"__guard"
.LASF1197:
	.string	"atof"
.LASF660:
	.string	"_ZNSt6vectorIfSaIfEE6assignEmRKf"
.LASF559:
	.string	"_ZNSt6vectorIiSaIiEE6insertEN9__gnu_cxx17__normal_iteratorIPKiS1_EEmRS4_"
.LASF154:
	.string	"_S_relocate"
.LASF381:
	.string	"_ZNSt6vectorI16SubApertureImageSaIS0_EE6resizeEmRKS0_"
.LASF539:
	.string	"_ZNKSt6vectorIiSaIiEE8capacityEv"
.LASF426:
	.string	"reverse_iterator<__gnu_cxx::__normal_iterator<SubApertureImage*, std::vector<SubApertureImage, std::allocator<SubApertureImage> > > >"
.LASF1279:
	.string	"intptr_t"
.LASF735:
	.string	"iterator_traits<unsigned char*>"
.LASF858:
	.string	"__mbstate_t"
.LASF1328:
	.string	"__bf16"
.LASF1131:
	.string	"mon_decimal_point"
.LASF1132:
	.string	"mon_thousands_sep"
.LASF1337:
	.string	"_Znwm"
.LASF428:
	.string	"__new_allocator<(anonymous namespace)::SubParams>"
.LASF1261:
	.string	"uint32_t"
.LASF40:
	.string	"swap"
.LASF1012:
	.string	"_ZNK9__gnu_cxx17__normal_iteratorIPhSt6vectorIhSaIhEEEplEl"
.LASF346:
	.string	"_ZNSt6vectorIhSaIhEE15_S_use_relocateEv"
.LASF1231:
	.string	"_IO_codecvt"
.LASF773:
	.string	"__niter_base<unsigned char*>"
.LASF1374:
	.string	"_ZNSt12_Vector_baseIfSaIfEED2Ev"
.LASF818:
	.string	"_ZSt3minImERKT_S2_S2_"
.LASF595:
	.string	"_ZNSt15__new_allocatorIfED4Ev"
.LASF683:
	.string	"_ZNKSt6vectorIfSaIfEEixEm"
.LASF235:
	.string	"_ZNSt6vectorIhSaIhEE6insertEN9__gnu_cxx17__normal_iteratorIPKhS1_EERS4_"
.LASF784:
	.string	"_ZSt20uninitialized_fill_nIPimiET_S1_T0_RKT1_"
.LASF1210:
	.string	"strtod"
.LASF1224:
	.string	"strtof"
.LASF811:
	.string	"__uninitialized_fill_n_a<unsigned char*, long unsigned int, unsigned char, unsigned char>"
.LASF1211:
	.string	"strtol"
.LASF975:
	.string	"__alloc_traits<std::allocator<unsigned char>, unsigned char>"
.LASF1108:
	.string	"long double"
.LASF134:
	.string	"_ZNSt12_Vector_baseIhSaIhEEC4EOS0_"
.LASF88:
	.string	"allocator<unsigned char>"
.LASF711:
	.string	"_ZNSt6vectorIfSaIfEE14_M_insert_rvalEN9__gnu_cxx17__normal_iteratorIPKfS1_EEOf"
.LASF275:
	.string	"_ZNSt6vectorIhSaIhEE14_M_move_assignEOS1_St17integral_constantIbLb1EE"
.LASF1018:
	.string	"_ZNK9__gnu_cxx17__normal_iteratorIPhSt6vectorIhSaIhEEE4baseEv"
.LASF1030:
	.string	"__normal_iterator<SubApertureImage*, std::vector<SubApertureImage, std::allocator<SubApertureImage> > >"
.LASF1467:
	.string	"_Z13_mm_set_epi64Dv2_iS_"
.LASF350:
	.string	"_ZNSt6vectorI16SubApertureImageSaIS0_EEC4ERKS1_"
.LASF1139:
	.string	"p_sep_by_space"
.LASF750:
	.string	"__throw_bad_alloc"
.LASF847:
	.string	"long unsigned int"
.LASF706:
	.string	"_ZNSt6vectorIfSaIfEE14_M_fill_assignEmRKf"
.LASF978:
	.string	"_S_on_swap"
.LASF1437:
	.string	"rl1_hi"
.LASF1009:
	.string	"operator+="
.LASF1350:
	.string	"__load_outside_loop"
.LASF733:
	.string	"enable_if<true, (anonymous namespace)::SubParams*>"
.LASF133:
	.string	"_ZNSt12_Vector_baseIhSaIhEEC4EOS1_"
.LASF1257:
	.string	"tmpnam"
.LASF424:
	.string	"_ZNSt6vectorI16SubApertureImageSaIS0_EE14_M_move_assignEOS2_St17integral_constantIbLb0EE"
.LASF16:
	.string	"false_type"
.LASF835:
	.string	"clamp<float>"
.LASF1237:
	.string	"ferror"
.LASF146:
	.string	"_Alloc"
.LASF353:
	.string	"_ZNSt6vectorI16SubApertureImageSaIS0_EEC4ERKS2_"
.LASF454:
	.string	"_ZNKSt15__new_allocatorIiE7addressERi"
.LASF252:
	.string	"_ZNSt6vectorIhSaIhEE14_M_fill_insertEN9__gnu_cxx17__normal_iteratorIPhS1_EEmRKh"
.LASF351:
	.string	"_ZNSt6vectorI16SubApertureImageSaIS0_EEC4EmRKS1_"
.LASF1448:
	.string	"_ZNSt6vectorIhSaIhEEC2Ev"
.LASF842:
	.string	"_ZSt3maxIiERKT_S2_S2_"
.LASF90:
	.string	"_ZNSaIhEC4Ev"
.LASF458:
	.string	"_ZNKSt15__new_allocatorIiE8max_sizeEv"
.LASF1296:
	.string	"wctype_t"
.LASF4:
	.string	"char"
.LASF319:
	.string	"_ZNSt12_Vector_baseIhSaIhEE17_Vector_impl_data12_M_swap_dataERS2_"
.LASF923:
	.string	"wcrtomb"
.LASF952:
	.string	"__isoc23_wcstol"
.LASF277:
	.string	"_M_data_ptr<unsigned char>"
.LASF791:
	.string	"__fill_a<__gnu_cxx::__normal_iterator<unsigned char*, std::vector<unsigned char> >, unsigned char>"
.LASF229:
	.string	"push_back"
.LASF1107:
	.string	"wcstold"
.LASF688:
	.string	"_ZNKSt6vectorIfSaIfEE5frontEv"
.LASF1104:
	.string	"_Iffalse"
.LASF779:
	.string	"__fill_a1<float*, float>"
.LASF1407:
	.string	"_ZNSt12_Vector_baseIhSaIhEED2Ev"
.LASF1090:
	.string	"_ZN9__gnu_cxx17__normal_iteratorIPfSt6vectorIfSaIfEEEppEi"
.LASF1002:
	.string	"operator++"
.LASF1141:
	.string	"n_sep_by_space"
.LASF582:
	.string	"_M_array"
.LASF429:
	.string	"construct<(anonymous namespace)::SubParams, const (anonymous namespace)::SubParams&>"
.LASF878:
	.string	"_old_offset"
.LASF456:
	.string	"_ZNSt15__new_allocatorIiE8allocateEmPKv"
.LASF1388:
	.string	"__new_finish"
.LASF1089:
	.string	"_ZN9__gnu_cxx17__normal_iteratorIPfSt6vectorIfSaIfEEEppEv"
.LASF193:
	.string	"cend"
.LASF841:
	.string	"max<int>"
.LASF238:
	.string	"_ZNSt6vectorIhSaIhEE6insertEN9__gnu_cxx17__normal_iteratorIPKhS1_EEmRS4_"
.LASF869:
	.string	"_IO_buf_base"
.LASF579:
	.string	"_ZNSt6vectorIiSaIiEE14_M_move_assignEOS1_St17integral_constantIbLb1EE"
.LASF257:
	.string	"_M_shrink_to_fit"
.LASF388:
	.string	"_ZNKSt6vectorI16SubApertureImageSaIS0_EE14_M_range_checkEm"
.LASF149:
	.string	"_Type"
.LASF1005:
	.string	"operator--"
.LASF749:
	.string	"__throw_bad_array_new_length"
.LASF286:
	.string	"_ZSt3abse"
.LASF287:
	.string	"_ZSt3absf"
.LASF284:
	.string	"_ZSt3absg"
.LASF585:
	.string	"_ZNSt16initializer_listIiEC4Ev"
.LASF290:
	.string	"_ZSt3absl"
.LASF285:
	.string	"_ZSt3absn"
.LASF93:
	.string	"~allocator"
.LASF1013:
	.string	"operator-="
.LASF1000:
	.string	"operator->"
.LASF1288:
	.string	"difftime"
.LASF289:
	.string	"_ZSt3absx"
.LASF1169:
	.string	"__intmax_t"
.LASF30:
	.string	"_ZNKSt15__exception_ptr13exception_ptr21_M_exception_ptr_castERKSt9type_info"
.LASF864:
	.string	"_IO_read_end"
.LASF516:
	.string	"_ZNSt6vectorIiSaIiEED4Ev"
.LASF1367:
	.string	"__alloc"
.LASF1431:
	.string	"x_floats"
.LASF367:
	.string	"_ZNKSt6vectorI16SubApertureImageSaIS0_EE5beginEv"
.LASF174:
	.string	"_ZNSt6vectorIhSaIhEE6assignEmRKh"
.LASF473:
	.string	"_ZNSt12_Vector_baseIiSaIiEE17_Vector_impl_dataC4EOS2_"
.LASF861:
	.string	"_IO_FILE"
.LASF432:
	.string	"_Args"
.LASF1093:
	.string	"_ZNK9__gnu_cxx17__normal_iteratorIPfSt6vectorIfSaIfEEEixEl"
.LASF969:
	.string	"wmemchr"
.LASF408:
	.string	"_ZNSt6vectorI16SubApertureImageSaIS0_EE18_M_fill_initializeEmRKS0_"
.LASF1232:
	.string	"_IO_wide_data"
.LASF1072:
	.string	"rebind<int>"
.LASF647:
	.string	"_ZNSt6vectorIfSaIfEEC4EmRKS0_"
.LASF472:
	.string	"_ZNSt12_Vector_baseIiSaIiEE17_Vector_impl_dataC4Ev"
.LASF824:
	.string	"_ZSt8__fill_aIN9__gnu_cxx17__normal_iteratorIPfSt6vectorIfSaIfEEEEfEvT_S7_RKT0_"
.LASF44:
	.string	"rethrow_exception"
.LASF1488:
	.string	"_ZN9__gnu_cxx21__default_lock_policyE"
.LASF932:
	.string	"tm_hour"
.LASF1429:
	.string	"tile_w_actual"
.LASF387:
	.string	"_ZNKSt6vectorI16SubApertureImageSaIS0_EEixEm"
.LASF374:
	.string	"_ZNKSt6vectorI16SubApertureImageSaIS0_EE6cbeginEv"
.LASF26:
	.string	"_ZNSt15__exception_ptr13exception_ptr10_M_releaseEv"
.LASF767:
	.string	"__fill_a1<unsigned char, unsigned char>"
.LASF1124:
	.string	"char32_t"
.LASF1219:
	.string	"atoll"
.LASF1086:
	.string	"_ZN9__gnu_cxx17__normal_iteratorIPfSt6vectorIfSaIfEEEC4ERKS1_"
.LASF240:
	.string	"_ZNSt6vectorIhSaIhEE5eraseEN9__gnu_cxx17__normal_iteratorIPKhS1_EE"
.LASF1245:
	.string	"fseek"
.LASF111:
	.string	"_ZNSt12_Vector_baseIhSaIhEE17_Vector_impl_dataC4Ev"
.LASF253:
	.string	"_M_fill_append"
.LASF331:
	.string	"_ZNSt12_Vector_baseI16SubApertureImageSaIS0_EEC4Em"
.LASF1278:
	.string	"uint_fast64_t"
.LASF329:
	.string	"_ZNSt12_Vector_baseI16SubApertureImageSaIS0_EEC4Ev"
.LASF748:
	.string	"_Iter"
.LASF622:
	.string	"_ZNSt12_Vector_baseIfSaIfEE12_Vector_implC4EOS0_OS2_"
.LASF1200:
	.string	"bsearch"
.LASF231:
	.string	"_ZNSt6vectorIhSaIhEE9push_backEOh"
.LASF1436:
	.string	"rl1_lo"
.LASF567:
	.string	"_ZNSt6vectorIiSaIiEE14_M_fill_insertEN9__gnu_cxx17__normal_iteratorIPiS1_EEmRKi"
.LASF1157:
	.string	"__int32_t"
.LASF186:
	.string	"const_reverse_iterator"
.LASF1244:
	.string	"freopen"
.LASF1151:
	.string	"getwchar"
.LASF833:
	.string	"_Destroy<unsigned char*, unsigned char>"
.LASF1038:
	.string	"_ZN9__gnu_cxx17__normal_iteratorIP16SubApertureImageSt6vectorIS1_SaIS1_EEEmmEi"
.LASF1149:
	.string	"int_n_sign_posn"
.LASF99:
	.string	"_ZNSt16allocator_traitsISaIhEE8allocateERS0_mPKv"
.LASF364:
	.string	"_ZNSt6vectorI16SubApertureImageSaIS0_EE6assignEmRKS0_"
.LASF32:
	.string	"_ZNSt15__exception_ptr13exception_ptrC4ERKS0_"
.LASF25:
	.string	"_ZNSt15__exception_ptr13exception_ptr9_M_addrefEv"
.LASF933:
	.string	"tm_mday"
.LASF725:
	.string	"_ZNSt16initializer_listIfEC4Ev"
.LASF1073:
	.string	"__normal_iterator<int*, std::vector<int, std::allocator<int> > >"
.LASF436:
	.string	"_Base"
.LASF100:
	.string	"const_void_pointer"
.LASF78:
	.string	"const_reference"
.LASF411:
	.string	"_ZNSt6vectorI16SubApertureImageSaIS0_EE14_M_fill_insertEN9__gnu_cxx17__normal_iteratorIPS0_S2_EEmRKS0_"
.LASF1037:
	.string	"_ZN9__gnu_cxx17__normal_iteratorIP16SubApertureImageSt6vectorIS1_SaIS1_EEEmmEv"
.LASF86:
	.string	"_M_max_size"
.LASF817:
	.string	"min<long unsigned int>"
.LASF1334:
	.string	"operator delete"
.LASF771:
	.string	"__fill_a<unsigned char*, unsigned char>"
.LASF686:
	.string	"_ZNKSt6vectorIfSaIfEE2atEm"
.LASF1295:
	.string	"timespec_get"
.LASF1056:
	.string	"_ZNK9__gnu_cxx17__normal_iteratorIPK16SubApertureImageSt6vectorIS1_SaIS1_EEEplEl"
.LASF22:
	.string	"_ZNSt15__exception_ptr13exception_ptrC4EPv"
.LASF1061:
	.string	"rebind<(anonymous namespace)::SubParams>"
.LASF1353:
	.string	"_ZNSt12_Vector_baseIiSaIiEE17_Vector_impl_dataC2Ev"
.LASF570:
	.string	"_ZNSt6vectorIiSaIiEE16_M_shrink_to_fitEv"
.LASF1246:
	.string	"fsetpos"
.LASF606:
	.string	"_ZNSaIfED4Ev"
.LASF1452:
	.string	"_mm256_fmadd_ps"
.LASF844:
	.string	"_ZSt5floorf"
.LASF393:
	.string	"_ZNSt6vectorI16SubApertureImageSaIS0_EE4backEv"
.LASF41:
	.string	"_ZNSt15__exception_ptr13exception_ptr4swapERS0_"
.LASF874:
	.string	"_markers"
.LASF1190:
	.string	"int64_t"
.LASF489:
	.string	"_ZNSt12_Vector_baseIiSaIiEEC4Em"
.LASF974:
	.string	"_S_atomic"
.LASF786:
	.string	"_ZSt3maxImERKT_S2_S2_"
.LASF487:
	.string	"_ZNSt12_Vector_baseIiSaIiEEC4Ev"
.LASF1487:
	.string	"__default_lock_policy"
.LASF332:
	.string	"_ZNSt12_Vector_baseI16SubApertureImageSaIS0_EEC4EmRKS1_"
.LASF60:
	.string	"_ForwardIterator"
.LASF1401:
	.string	"_ZNSt6vectorIiSaIiEED2Ev"
.LASF309:
	.string	"_ZNSt16allocator_traitsISaI16SubApertureImageEE8allocateERS1_m"
.LASF1316:
	.string	"__pstl"
.LASF813:
	.string	"fill<__gnu_cxx::__normal_iterator<unsigned char*, std::vector<unsigned char> >, unsigned char>"
.LASF626:
	.string	"_ZNKSt12_Vector_baseIfSaIfEE13get_allocatorEv"
.LASF180:
	.string	"_ZNKSt6vectorIhSaIhEE5beginEv"
.LASF884:
	.string	"_codecvt"
.LASF1267:
	.string	"uint_least8_t"
.LASF297:
	.string	"_ZNKSt15__new_allocatorI16SubApertureImageE7addressERS0_"
.LASF1202:
	.string	"ldiv"
.LASF1274:
	.string	"int_fast64_t"
.LASF150:
	.string	"vector<unsigned char, std::allocator<unsigned char> >"
.LASF159:
	.string	"_ZNSt6vectorIhSaIhEEC4EmRKS0_"
.LASF609:
	.string	"_ZNSt16allocator_traitsISaIfEE8allocateERS0_mPKv"
.LASF741:
	.string	"release"
.LASF1463:
	.string	"_Z18_mm256_cvtepi32_psDv4_x"
.LASF239:
	.string	"erase"
.LASF948:
	.string	"double"
.LASF107:
	.string	"_M_exception_object"
.LASF254:
	.string	"_ZNSt6vectorIhSaIhEE14_M_fill_appendEmRKh"
.LASF822:
	.string	"_ZSt3maxIfERKT_S2_S2_"
.LASF19:
	.string	"__swappable_with_details"
.LASF663:
	.string	"_ZNKSt6vectorIfSaIfEE5beginEv"
.LASF1476:
	.string	"__builtin_memcpy"
.LASF850:
	.string	"overflow_arg_area"
.LASF860:
	.string	"__FILE"
.LASF1485:
	.string	"typedef __va_list_tag __va_list_tag"
.LASF762:
	.string	"_ZSt6fill_nIPfmfET_S1_T0_RKT1_"
.LASF992:
	.string	"__normal_iterator<unsigned char*, std::vector<unsigned char, std::allocator<unsigned char> > >"
.LASF355:
	.string	"_ZNSt6vectorI16SubApertureImageSaIS0_EEC4ERKS2_RKS1_"
.LASF1168:
	.string	"__uint_least64_t"
.LASF1069:
	.string	"_ZN9__gnu_cxx14__alloc_traitsISaIiEiE20_S_propagate_on_swapEv"
.LASF438:
	.string	"_M_storage"
.LASF571:
	.string	"_ZNSt6vectorIiSaIiEE14_M_insert_rvalEN9__gnu_cxx17__normal_iteratorIPKiS1_EEOi"
.LASF1292:
	.string	"ctime"
.LASF1103:
	.string	"_Iftrue"
.LASF989:
	.string	"_ZN9__gnu_cxx14__alloc_traitsISaIhEhE15_S_nothrow_moveEv"
.LASF746:
	.string	"_S_destroy<int*>"
.LASF210:
	.string	"_ZNKSt6vectorIhSaIhEE5emptyEv"
.LASF448:
	.string	"_Iterator"
.LASF654:
	.string	"_ZNSt6vectorIfSaIfEEC4EOS1_RKS0_"
.LASF1421:
	.string	"__for_begin"
.LASF519:
	.string	"_ZNSt6vectorIiSaIiEEaSESt16initializer_listIiE"
.LASF589:
	.string	"reverse_iterator<__gnu_cxx::__normal_iterator<int const*, std::vector<int, std::allocator<int> > > >"
.LASF245:
	.string	"_M_fill_initialize"
.LASF1051:
	.string	"_ZN9__gnu_cxx17__normal_iteratorIPK16SubApertureImageSt6vectorIS1_SaIS1_EEEppEi"
.LASF701:
	.string	"_ZNSt6vectorIfSaIfEE5eraseEN9__gnu_cxx17__normal_iteratorIPKfS1_EES6_"
.LASF1158:
	.string	"__uint32_t"
.LASF1206:
	.string	"qsort"
.LASF1063:
	.string	"__normal_iterator<const (anonymous namespace)::SubParams*, std::vector<(anonymous namespace)::SubParams, std::allocator<(anonymous namespace)::SubParams> > >"
.LASF1004:
	.string	"_ZN9__gnu_cxx17__normal_iteratorIPhSt6vectorIhSaIhEEEppEi"
.LASF142:
	.string	"_M_deallocate"
.LASF330:
	.string	"_ZNSt12_Vector_baseI16SubApertureImageSaIS0_EEC4ERKS1_"
.LASF198:
	.string	"_ZNKSt6vectorIhSaIhEE5crendEv"
.LASF226:
	.string	"data"
.LASF547:
	.string	"_ZNSt6vectorIiSaIiEE5frontEv"
.LASF958:
	.string	"wmemcmp"
.LASF776:
	.string	"_ZSt9__fill_a1IPhSt6vectorIhSaIhEEhEvN9__gnu_cxx17__normal_iteratorIT_T0_EES8_RKT1_"
.LASF801:
	.string	"__uninitialized_fill_n_a<int*, long unsigned int, int, int>"
.LASF315:
	.string	"_Vector_base<SubApertureImage, std::allocator<SubApertureImage> >"
.LASF1003:
	.string	"_ZN9__gnu_cxx17__normal_iteratorIPhSt6vectorIhSaIhEEEppEv"
.LASF796:
	.string	"_ZSt8_DestroyIPfEvT_S1_"
.LASF218:
	.string	"_ZNSt6vectorIhSaIhEE2atEm"
.LASF857:
	.string	"__value"
.LASF680:
	.string	"_ZNKSt6vectorIfSaIfEE5emptyEv"
.LASF31:
	.string	"_ZNSt15__exception_ptr13exception_ptrC4Ev"
.LASF1443:
	.string	"inv_c"
.LASF561:
	.string	"_ZNSt6vectorIiSaIiEE5eraseEN9__gnu_cxx17__normal_iteratorIPKiS1_EES6_"
.LASF1470:
	.string	"_mm_set_epi64x"
.LASF1413:
	.string	"focus"
.LASF829:
	.string	"__relocate_a<(anonymous namespace)::SubParams*, (anonymous namespace)::SubParams*, std::allocator<(anonymous namespace)::SubParams> >"
.LASF1483:
	.string	"literals"
.LASF118:
	.string	"_ZNSt12_Vector_baseIhSaIhEE12_Vector_implC4ERKS0_"
.LASF303:
	.string	"allocator<SubApertureImage>"
.LASF1097:
	.string	"_ZNK9__gnu_cxx17__normal_iteratorIPfSt6vectorIfSaIfEEEmiEl"
.LASF1458:
	.string	"_mm256_storeu_ps"
.LASF1484:
	.string	"__is_nothrow_new_constructible"
.LASF1387:
	.string	"__new_start"
.LASF497:
	.string	"_ZNSt12_Vector_baseIiSaIiEE13_M_deallocateEPim"
.LASF246:
	.string	"_ZNSt6vectorIhSaIhEE18_M_fill_initializeEmRKh"
.LASF170:
	.string	"_ZNSt6vectorIhSaIhEEaSERKS1_"
.LASF1482:
	.string	"input_iterator_tag"
.LASF979:
	.string	"_ZN9__gnu_cxx14__alloc_traitsISaIhEhE10_S_on_swapERS1_S3_"
.LASF421:
	.string	"_ZNSt6vectorI16SubApertureImageSaIS0_EE8_M_eraseEN9__gnu_cxx17__normal_iteratorIPS0_S2_EE"
.LASF1303:
	.string	"width"
.LASF1017:
	.string	"base"
.LASF781:
	.string	"__uninitialized_default_n<float*, long unsigned int>"
.LASF327:
	.string	"_ZNKSt12_Vector_baseI16SubApertureImageSaIS0_EE19_M_get_Tp_allocatorEv"
.LASF189:
	.string	"_ZNSt6vectorIhSaIhEE4rendEv"
.LASF1035:
	.string	"_ZN9__gnu_cxx17__normal_iteratorIP16SubApertureImageSt6vectorIS1_SaIS1_EEEppEv"
.LASF390:
	.string	"_ZNKSt6vectorI16SubApertureImageSaIS0_EE2atEm"
.LASF1255:
	.string	"setvbuf"
.LASF147:
	.string	"__type_identity<std::allocator<unsigned char> >"
.LASF837:
	.string	"fill<__gnu_cxx::__normal_iterator<float*, std::vector<float> >, float>"
.LASF657:
	.string	"_ZNSt6vectorIfSaIfEEaSERKS1_"
.LASF1214:
	.string	"__isoc23_strtoul"
.LASF816:
	.string	"_ZSt8_DestroyIPhEvT_S1_"
.LASF645:
	.string	"_ZNSt6vectorIfSaIfEEC4Ev"
.LASF601:
	.string	"_ZNKSt15__new_allocatorIfE11_M_max_sizeEv"
.LASF1178:
	.string	"5div_t"
.LASF1181:
	.string	"6ldiv_t"
.LASF1180:
	.string	"div_t"
.LASF306:
	.string	"_ZNSaI16SubApertureImageEaSERKS0_"
.LASF575:
	.string	"_ZNSt6vectorIiSaIiEE11_S_max_sizeERKS0_"
.LASF358:
	.string	"_ZNSt6vectorI16SubApertureImageSaIS0_EEC4EOS2_RKS1_"
.LASF1196:
	.string	"at_quick_exit"
.LASF61:
	.string	"_Size"
.LASF1268:
	.string	"uint_least16_t"
.LASF294:
	.string	"_ZNSt15__new_allocatorI16SubApertureImageEC4ERKS1_"
.LASF209:
	.string	"empty"
.LASF887:
	.string	"_freeres_buf"
.LASF1043:
	.string	"_ZNK9__gnu_cxx17__normal_iteratorIP16SubApertureImageSt6vectorIS1_SaIS1_EEEmiEl"
.LASF677:
	.string	"_ZNSt6vectorIfSaIfEE6resizeEmRKf"
.LASF729:
	.string	"_ZNKSt16initializer_listIfE3endEv"
.LASF1205:
	.string	"mbtowc"
.LASF1036:
	.string	"_ZN9__gnu_cxx17__normal_iteratorIP16SubApertureImageSt6vectorIS1_SaIS1_EEEppEi"
.LASF171:
	.string	"_ZNSt6vectorIhSaIhEEaSEOS1_"
.LASF49:
	.string	"forward_iterator_tag"
.LASF212:
	.string	"_ZNSt6vectorIhSaIhEE7reserveEm"
.LASF109:
	.string	"_M_finish"
.LASF984:
	.string	"_S_propagate_on_swap"
.LASF247:
	.string	"_M_default_initialize"
.LASF1114:
	.string	"long long unsigned int"
.LASF800:
	.string	"_ZSt8_DestroyIPiEvT_S1_"
.LASF905:
	.string	"mbrtowc"
.LASF879:
	.string	"_cur_column"
.LASF777:
	.string	"_Ite"
.LASF836:
	.string	"_ZSt5clampIfERKT_S2_S2_S2_"
.LASF959:
	.string	"wmemcpy"
.LASF1194:
	.string	"__compar_fn_t"
.LASF140:
	.string	"_M_allocate"
.LASF402:
	.string	"_ZNSt6vectorI16SubApertureImageSaIS0_EE6insertEN9__gnu_cxx17__normal_iteratorIPKS0_S2_EESt16initializer_listIS0_E"
.LASF296:
	.string	"_ZNSt15__new_allocatorI16SubApertureImageED4Ev"
.LASF1382:
	.string	"_ZNSt15__new_allocatorIiED2Ev"
.LASF230:
	.string	"_ZNSt6vectorIhSaIhEE9push_backERKh"
.LASF1192:
	.string	"tv_sec"
.LASF747:
	.string	"_ZNSt19_UninitDestroyGuardIPivE10_S_destroyIS0_EEvT_S3_"
.LASF597:
	.string	"_ZNKSt15__new_allocatorIfE7addressERKf"
.LASF1185:
	.string	"clock_t"
.LASF137:
	.string	"~_Vector_base"
.LASF386:
	.string	"_ZNSt6vectorI16SubApertureImageSaIS0_EEixEm"
.LASF759:
	.string	"_ZSt10__fill_n_aIPfmfET_S1_T0_RKT1_St26random_access_iterator_tag"
.LASF1370:
	.string	"__dif"
.LASF644:
	.string	"_ZNSt6vectorIfSaIfEE11_S_relocateEPfS2_S2_RS0_"
.LASF736:
	.string	"_UninitDestroyGuard<int*, void>"
.LASF1406:
	.string	"_ZNSt6vectorIhSaIhEED2Ev"
.LASF1464:
	.string	"_mm_loadl_epi64"
.LASF474:
	.string	"_ZNSt12_Vector_baseIiSaIiEE17_Vector_impl_data12_M_copy_dataERKS2_"
.LASF476:
	.string	"_ZNSt12_Vector_baseIiSaIiEE12_Vector_implC4Ev"
.LASF341:
	.string	"__type_identity<std::allocator<SubApertureImage> >"
.LASF1447:
	.string	"_ZN9ImageDataC2Ev"
.LASF942:
	.string	"wcsncat"
.LASF121:
	.string	"_ZNSt12_Vector_baseIhSaIhEE12_Vector_implC4EOS0_OS2_"
.LASF1242:
	.string	"fopen"
.LASF557:
	.string	"_ZNSt6vectorIiSaIiEE6insertEN9__gnu_cxx17__normal_iteratorIPKiS1_EEOi"
.LASF939:
	.string	"tm_gmtoff"
.LASF66:
	.string	"_ZNSt15__new_allocatorIhEC4ERKS0_"
.LASF375:
	.string	"_ZNKSt6vectorI16SubApertureImageSaIS0_EE4cendEv"
.LASF279:
	.string	"__type_identity_t"
.LASF56:
	.string	"filesystem"
.LASF610:
	.string	"_ZNSt16allocator_traitsISaIfEE10deallocateERS0_Pfm"
.LASF872:
	.string	"_IO_backup_base"
.LASF973:
	.string	"_S_mutex"
.LASF334:
	.string	"_ZNSt12_Vector_baseI16SubApertureImageSaIS0_EEC4EOS1_"
.LASF1147:
	.string	"int_n_sep_by_space"
.LASF863:
	.string	"_IO_read_ptr"
.LASF634:
	.string	"_ZNSt12_Vector_baseIfSaIfEEC4ERKS0_OS1_"
.LASF613:
	.string	"_Vector_base<float, std::allocator<float> >"
.LASF280:
	.string	"type_info"
.LASF1241:
	.string	"fgets"
.LASF48:
	.string	"true_type"
.LASF727:
	.string	"_ZNKSt16initializer_listIfE5beginEv"
.LASF1271:
	.string	"int_fast8_t"
.LASF1201:
	.string	"getenv"
.LASF886:
	.string	"_freeres_list"
.LASF1006:
	.string	"_ZN9__gnu_cxx17__normal_iteratorIPhSt6vectorIhSaIhEEEmmEv"
.LASF1460:
	.string	"_mm256_loadu_ps"
.LASF1317:
	.string	"__m64"
.LASF1286:
	.string	"__float128"
.LASF790:
	.string	"_ZSt20uninitialized_fill_nIPhmhET_S1_T0_RKT1_"
.LASF167:
	.string	"_ZNSt6vectorIhSaIhEEC4ESt16initializer_listIhERKS0_"
.LASF385:
	.string	"_ZNSt6vectorI16SubApertureImageSaIS0_EE7reserveEm"
.LASF758:
	.string	"__fill_n_a<float*, long unsigned int, float>"
.LASF675:
	.string	"_ZNKSt6vectorIfSaIfEE8max_sizeEv"
.LASF895:
	.string	"fgetws"
.LASF522:
	.string	"_ZNSt6vectorIiSaIiEE5beginEv"
.LASF333:
	.string	"_ZNSt12_Vector_baseI16SubApertureImageSaIS0_EEC4EOS2_"
.LASF1208:
	.string	"rand"
.LASF64:
	.string	"__new_allocator"
.LASF1411:
	.string	"_Z21refocus_shift_and_sumRSt6vectorI16SubApertureImageSaIS0_EEf"
.LASF766:
	.string	"_ZSt10_ConstructIiJRKiEEvPT_DpOT0_"
.LASF130:
	.string	"_ZNSt12_Vector_baseIhSaIhEEC4ERKS0_"
.LASF401:
	.string	"_ZNSt6vectorI16SubApertureImageSaIS0_EE6insertEN9__gnu_cxx17__normal_iteratorIPKS0_S2_EEOS0_"
.LASF755:
	.string	"__fill_a<float*, float>"
.LASF995:
	.string	"__normal_iterator"
.LASF769:
	.string	"__do_uninit_fill_n<int*, long unsigned int, int>"
.LASF1068:
	.string	"_ZN9__gnu_cxx14__alloc_traitsISaIiEiE27_S_propagate_on_move_assignEv"
.LASF602:
	.string	"allocator<float>"
.LASF997:
	.string	"_ZN9__gnu_cxx17__normal_iteratorIPhSt6vectorIhSaIhEEEC4ERKS1_"
.LASF926:
	.string	"wcscoll"
.LASF1472:
	.string	"_ZdlPvS_"
.LASF155:
	.string	"_ZNSt6vectorIhSaIhEE11_S_relocateEPhS2_S2_RS0_"
.LASF1297:
	.string	"wctrans_t"
.LASF102:
	.string	"select_on_container_copy_construction"
.LASF556:
	.string	"_ZNSt6vectorIiSaIiEE6insertEN9__gnu_cxx17__normal_iteratorIPKiS1_EERS4_"
.LASF58:
	.string	"__uninitialized_default_n_1<true>"
.LASF274:
	.string	"_M_move_assign"
.LASF1047:
	.string	"_ZN9__gnu_cxx17__normal_iteratorIPK16SubApertureImageSt6vectorIS1_SaIS1_EEEC4ERKS3_"
.LASF789:
	.string	"uninitialized_fill_n<unsigned char*, long unsigned int, unsigned char>"
.LASF628:
	.string	"_ZNSt12_Vector_baseIfSaIfEEC4ERKS0_"
.LASF723:
	.string	"initializer_list<float>"
.LASF646:
	.string	"_ZNSt6vectorIfSaIfEEC4ERKS0_"
.LASF270:
	.string	"_ZNSt6vectorIhSaIhEE15_M_erase_at_endEPh"
.LASF1067:
	.string	"_ZN9__gnu_cxx14__alloc_traitsISaIiEiE27_S_propagate_on_copy_assignEv"
.LASF1142:
	.string	"p_sign_posn"
.LASF477:
	.string	"_ZNSt12_Vector_baseIiSaIiEE12_Vector_implC4ERKS0_"
.LASF403:
	.string	"_ZNSt6vectorI16SubApertureImageSaIS0_EE6insertEN9__gnu_cxx17__normal_iteratorIPKS0_S2_EEmRS5_"
.LASF967:
	.string	"wcsrchr"
.LASF661:
	.string	"_ZNSt6vectorIfSaIfEE6assignESt16initializer_listIfE"
.LASF1270:
	.string	"uint_least64_t"
.LASF673:
	.string	"_ZNKSt6vectorIfSaIfEE5crendEv"
.LASF338:
	.string	"_ZNSt12_Vector_baseI16SubApertureImageSaIS0_EE11_M_allocateEm"
.LASF1016:
	.string	"_ZNK9__gnu_cxx17__normal_iteratorIPhSt6vectorIhSaIhEEEmiEl"
.LASF514:
	.string	"_ZNSt6vectorIiSaIiEEC4EOS1_RKS0_"
.LASF709:
	.string	"_ZNSt6vectorIfSaIfEE17_M_default_appendEm"
.LASF352:
	.string	"_ZNSt6vectorI16SubApertureImageSaIS0_EEC4EmRKS0_RKS1_"
.LASF1082:
	.string	"_ZN9__gnu_cxx14__alloc_traitsISaIfEfE15_S_nothrow_moveEv"
.LASF1369:
	.string	"_ZNSt6vectorIhSaIhEEC2EmRKhRKS0_"
.LASF568:
	.string	"_ZNSt6vectorIiSaIiEE14_M_fill_appendEmRKi"
.LASF345:
	.string	"_S_use_relocate"
.LASF153:
	.string	"_ZNSt6vectorIhSaIhEE19_S_nothrow_relocateESt17integral_constantIbLb0EE"
.LASF116:
	.string	"_Vector_impl"
.LASF1449:
	.string	"_ZNSt12_Vector_baseIhSaIhEEC2Ev"
.LASF1289:
	.string	"mktime"
.LASF1389:
	.string	"_ZN9__gnu_cxx17__normal_iteratorIP16SubApertureImageSt6vectorIS1_SaIS1_EEEC2ERKS2_"
.LASF1428:
	.string	"tile_x_end"
.LASF1249:
	.string	"getchar"
.LASF1193:
	.string	"tv_nsec"
.LASF739:
	.string	"~_UninitDestroyGuard"
.LASF531:
	.string	"_ZNKSt6vectorIiSaIiEE4cendEv"
.LASF649:
	.string	"_ZNSt6vectorIfSaIfEEC4ERKS1_"
.LASF845:
	.string	"__size_to_integer"
.LASF538:
	.string	"_ZNSt6vectorIiSaIiEE13shrink_to_fitEv"
.LASF1494:
	.string	"__can_fill"
.LASF1062:
	.string	"__normal_iterator<(anonymous namespace)::SubParams*, std::vector<(anonymous namespace)::SubParams, std::allocator<(anonymous namespace)::SubParams> > >"
.LASF108:
	.string	"_M_start"
.LASF562:
	.string	"_ZNSt6vectorIiSaIiEE4swapERS1_"
.LASF1339:
	.string	"__last"
.LASF336:
	.string	"_ZNSt12_Vector_baseI16SubApertureImageSaIS0_EEC4ERKS1_OS2_"
.LASF988:
	.string	"_S_nothrow_move"
.LASF913:
	.string	"ungetwc"
.LASF281:
	.string	"initializer_list<unsigned char>"
.LASF1077:
	.string	"_ZN9__gnu_cxx14__alloc_traitsISaIfEfE10_S_on_swapERS1_S3_"
.LASF1322:
	.string	"__v8sf"
.LASF1064:
	.string	"__alloc_traits<std::allocator<int>, int>"
.LASF1323:
	.string	"__v8si"
.LASF982:
	.string	"_S_propagate_on_move_assign"
.LASF242:
	.string	"_ZNSt6vectorIhSaIhEE4swapERS1_"
.LASF513:
	.string	"_ZNSt6vectorIiSaIiEEC4EOS1_RKS0_St17integral_constantIbLb0EE"
.LASF1045:
	.string	"__normal_iterator<const SubApertureImage*, std::vector<SubApertureImage, std::allocator<SubApertureImage> > >"
.LASF772:
	.string	"_ZSt8__fill_aIPhhEvT_S1_RKT0_"
.LASF1020:
	.string	"__normal_iterator<unsigned char const*, std::vector<unsigned char, std::allocator<unsigned char> > >"
.LASF639:
	.string	"__type_identity<std::allocator<float> >"
.LASF971:
	.string	"_ZN9__gnu_cxx3divExx"
.LASF732:
	.string	"iterator_traits<float*>"
.LASF1359:
	.string	"_ZNSt12_Vector_baseIfSaIfEE12_Vector_implC2ERKS0_"
.LASF915:
	.string	"vfwscanf"
.LASF1140:
	.string	"n_cs_precedes"
.LASF544:
	.string	"_ZNKSt6vectorIiSaIiEE14_M_range_checkEm"
.LASF80:
	.string	"_ZNSt15__new_allocatorIhE8allocateEmPKv"
.LASF123:
	.string	"_M_get_Tp_allocator"
.LASF793:
	.string	"__fill_a1<float*, std::vector<float>, float>"
.LASF1228:
	.string	"__state"
.LASF365:
	.string	"_ZNSt6vectorI16SubApertureImageSaIS0_EE6assignESt16initializer_listIS0_E"
.LASF443:
	.string	"initializer_list<(anonymous namespace)::SubParams>"
.LASF467:
	.string	"_ZNSt16allocator_traitsISaIiEE8allocateERS0_mPKv"
.LASF1152:
	.string	"localeconv"
.LASF75:
	.string	"reference"
.LASF20:
	.string	"__exception_ptr"
.LASF877:
	.string	"_short_backupbuf"
.LASF1123:
	.string	"char16_t"
.LASF1366:
	.string	"__result"
.LASF1092:
	.string	"_ZN9__gnu_cxx17__normal_iteratorIPfSt6vectorIfSaIfEEEmmEi"
.LASF308:
	.string	"allocator_traits<std::allocator<SubApertureImage> >"
.LASF1486:
	.string	"_Lock_policy"
.LASF132:
	.string	"_ZNSt12_Vector_baseIhSaIhEEC4EmRKS0_"
.LASF1222:
	.string	"strtoull"
.LASF1091:
	.string	"_ZN9__gnu_cxx17__normal_iteratorIPfSt6vectorIfSaIfEEEmmEv"
.LASF1403:
	.string	"_ZNSaIiED2Ev"
.LASF414:
	.string	"_ZNSt6vectorI16SubApertureImageSaIS0_EE16_M_shrink_to_fitEv"
.LASF537:
	.string	"_ZNSt6vectorIiSaIiEE6resizeEmRKi"
.LASF323:
	.string	"_ZNSt12_Vector_baseI16SubApertureImageSaIS0_EE12_Vector_implC4EOS3_"
.LASF1153:
	.string	"__int8_t"
.LASF378:
	.string	"_ZNKSt6vectorI16SubApertureImageSaIS0_EE4sizeEv"
.LASF380:
	.string	"_ZNSt6vectorI16SubApertureImageSaIS0_EE6resizeEm"
.LASF104:
	.string	"rebind_alloc"
.LASF1325:
	.string	"__m256i"
.LASF205:
	.string	"shrink_to_fit"
.LASF819:
	.string	"min<float>"
.LASF359:
	.string	"_ZNSt6vectorI16SubApertureImageSaIS0_EEC4ESt16initializer_listIS0_ERKS1_"
.LASF282:
	.string	"reverse_iterator<__gnu_cxx::__normal_iterator<unsigned char*, std::vector<unsigned char, std::allocator<unsigned char> > > >"
.LASF1326:
	.string	"__m256_u"
.LASF59:
	.string	"__uninit_default_n<float*, long unsigned int>"
.LASF876:
	.string	"_fileno"
.LASF814:
	.string	"_ZSt4fillIN9__gnu_cxx17__normal_iteratorIPhSt6vectorIhSaIhEEEEhEvT_S7_RKT0_"
.LASF1408:
	.string	"_ZNSaIhED2Ev"
.LASF852:
	.string	"unsigned int"
.LASF745:
	.string	"_ZNSt19_UninitDestroyGuardIPivEC4ERKS1_"
.LASF1022:
	.string	"_ZN9__gnu_cxx14__alloc_traitsISaI16SubApertureImageES1_E17_S_select_on_copyERKS2_"
.LASF1378:
	.string	"_ZNSt15__new_allocatorIfEC2Ev"
.LASF1386:
	.string	"__elems"
.LASF337:
	.string	"_ZNSt12_Vector_baseI16SubApertureImageSaIS0_EED4Ev"
.LASF73:
	.string	"_ZNKSt15__new_allocatorIhE7addressERh"
.LASF21:
	.string	"exception_ptr"
.LASF1081:
	.string	"_ZN9__gnu_cxx14__alloc_traitsISaIfEfE15_S_always_equalEv"
.LASF1275:
	.string	"uint_fast8_t"
.LASF106:
	.string	"_Vector_impl_data"
.LASF172:
	.string	"_ZNSt6vectorIhSaIhEEaSESt16initializer_listIhE"
.LASF453:
	.string	"_ZNSt15__new_allocatorIiED4Ev"
.LASF446:
	.string	"iterator_traits<SubApertureImage*>"
.LASF1420:
	.string	"__for_range"
.LASF1014:
	.string	"_ZN9__gnu_cxx17__normal_iteratorIPhSt6vectorIhSaIhEEEmIEl"
.LASF587:
	.string	"_ZNKSt16initializer_listIiE5beginEv"
.LASF651:
	.string	"_ZNSt6vectorIfSaIfEEC4ERKS1_RKS0_"
.LASF224:
	.string	"_ZNSt6vectorIhSaIhEE4backEv"
.LASF1298:
	.string	"iswctype"
.LASF572:
	.string	"_ZNSt6vectorIiSaIiEE14_M_emplace_auxEN9__gnu_cxx17__normal_iteratorIPKiS1_EEOi"
.LASF1121:
	.string	"short int"
.LASF1324:
	.string	"__m256"
.LASF1144:
	.string	"int_p_cs_precedes"
.LASF753:
	.string	"__throw_length_error"
.LASF954:
	.string	"wcstoul"
.LASF1306:
	.string	"_ZNK9ImageData5indexEmmm"
.LASF195:
	.string	"crbegin"
.LASF260:
	.string	"_ZNSt6vectorIhSaIhEE14_M_insert_rvalEN9__gnu_cxx17__normal_iteratorIPKhS1_EEOh"
.LASF840:
	.string	"_ZSt3minIiERKT_S2_S2_"
.LASF880:
	.string	"_vtable_offset"
.LASF317:
	.string	"_ZNSt12_Vector_baseI16SubApertureImageSaIS0_EE17_Vector_impl_dataC4EOS3_"
.LASF922:
	.string	"__isoc23_vwscanf"
.LASF494:
	.string	"_ZNSt12_Vector_baseIiSaIiEEC4ERKS0_OS1_"
.LASF406:
	.string	"_ZNSt6vectorI16SubApertureImageSaIS0_EE4swapERS2_"
.LASF340:
	.string	"_ZNSt12_Vector_baseI16SubApertureImageSaIS0_EE17_M_create_storageEm"
.LASF216:
	.string	"_M_range_check"
.LASF62:
	.string	"_TrivialValueType"
.LASF637:
	.string	"_ZNSt12_Vector_baseIfSaIfEE13_M_deallocateEPfm"
.LASF265:
	.string	"_S_check_init_len"
.LASF1396:
	.string	"__hi"
.LASF1351:
	.string	"_ZNSt12_Vector_baseIfSaIfEE17_Vector_impl_dataC2Ev"
.LASF576:
	.string	"_ZNSt6vectorIiSaIiEE15_M_erase_at_endEPi"
.LASF598:
	.string	"_ZNSt15__new_allocatorIfE8allocateEmPKv"
.LASF13:
	.string	"operator std::integral_constant<bool, false>::value_type"
.LASF666:
	.string	"_ZNSt6vectorIfSaIfEE6rbeginEv"
.LASF50:
	.string	"bidirectional_iterator_tag"
.LASF707:
	.string	"_ZNSt6vectorIfSaIfEE14_M_fill_insertEN9__gnu_cxx17__normal_iteratorIPfS1_EEmRKf"
.LASF1354:
	.string	"_ZNSt15__new_allocatorIiEC2ERKS0_"
.LASF439:
	.string	"_M_len"
	.section	.debug_line_str,"MS",@progbits,1
.LASF0:
	.string	"src/opt17_ilp_only.cpp"
.LASF1:
	.string	"/home/team15/tomasz-worktree-dir/cpp_refocus"
	.hidden	"DW.ref.__gxx_personality_v0"
	.weak	"DW.ref.__gxx_personality_v0"
	.section	.data.rel.local.DW.ref.__gxx_personality_v0,"awG",@progbits,DW.ref.__gxx_personality_v0,comdat
	.align 8
	.type	"DW.ref.__gxx_personality_v0", @object
	.size	"DW.ref.__gxx_personality_v0", 8
"DW.ref.__gxx_personality_v0":
	.quad	"__gxx_personality_v0"
	.globl	"__gxx_personality_v0"
	.ident	"GCC: (Debian 16-20260425-1) 16.0.1 20260425 (prerelease) [gcc-16 r16-8812-gd9c07462a22]"
	.section	.note.GNU-stack,"",@progbits
