	.file	"opt10_abl_tile_8x256.cpp"
	.intel_syntax noprefix
# GNU C++17 (Debian 16-20260425-1) version 16.0.1 20260425 (prerelease) [gcc-16 r16-8812-gd9c07462a22] (x86_64-linux-gnu)
#	compiled by GNU C version 16.0.1 20260425 (prerelease) [gcc-16 r16-8812-gd9c07462a22], GMP version 6.3.0, MPFR version 4.2.2, MPC version 1.3.1, isl version isl-0.27-GMP

# GGC heuristics: --param ggc-min-expand=30 --param ggc-min-heapsize=4096
# options passed: -march=tigerlake -mmmx -mpopcnt -msse -msse2 -msse3 -mssse3 -msse4.1 -msse4.2 -mavx -mno-sse4a -mno-fma4 -mno-xop -mavx512f -mbmi -mbmi2 -maes -mpclmul -mavx512vl -mavx512bw -mavx512dq -mavx512cd -mavx512vbmi -mavx512ifma -mavx512vpopcntdq -mavx512vbmi2 -mgfni -mvpclmulqdq -mavx512vnni -mavx512bitalg -mno-avx512bf16 -mavx512vp2intersect -mno-3dnow -madx -mabm -mno-cldemote -mclflushopt -mclwb -mno-clzero -mcx16 -mno-enqcmd -mf16c -mfsgsbase -mfxsr -mno-hle -msahf -mno-lwp -mlzcnt -mmovbe -mmovdir64b -mmovdiri -mno-mwaitx -mno-pconfig -mpku -mprfchw -mno-ptwrite -mrdpid -mrdrnd -mrdseed -mno-rtm -mno-serialize -mno-sgx -msha -mshstk -mno-tbm -mno-tsxldtrk -mvaes -mno-waitpkg -mno-wbnoinvd -mxsave -mxsavec -mxsaveopt -mxsaves -mno-amx-tile -mno-amx-int8 -mno-amx-bf16 -mno-uintr -mno-hreset -mno-kl -mno-widekl -mno-avxvnni -mno-avx512fp16 -mno-avxifma -mno-avxvnniint8 -mno-avxneconvert -mno-cmpccxadd -mno-amx-fp16 -mno-prefetchi -mno-raoint -mno-amx-complex -mno-avxvnniint16 -mno-sm3 -mno-sha512 -mno-sm4 -mno-apxf -mno-usermsr -mno-avx10.1 -mno-avx10.2 -mno-amx-avx512 -mno-amx-tf32 -mno-amx-fp8 -mno-movrs -mno-amx-movrs -mno-avx512bmm --param=l1-cache-size=48 --param=l1-cache-line-size=64 --param=l2-cache-size=8192 -mtune=tigerlake -mavx2 -mfma -masm=intel -g -O3 -std=c++17 -ffast-math -fasynchronous-unwind-tables
	.text
.Ltext0:
	.file 0 "/home/team15/tomasz-worktree-dir/cpp_refocus" "src/avx_analysis_code_ablations/opt10_abl_tile_8x256.cpp"
	.section	.rodata.str1.8,"aMS",@progbits,1
	.align 8
.LC0:
	.string	"cannot create std::vector larger than max_size()"
	.section	.rodata.str1.1,"aMS",@progbits,1
.LC2:
	.string	"vector::_M_realloc_append"
	.section	.text.unlikely,"ax",@progbits
.LCOLDB5:
	.text
.LHOTB5:
	.p2align 4
	.section	.text.unlikely
.Ltext_cold0:
	.text
	.globl	"_Z21refocus_shift_and_sumRSt6vectorI16SubApertureImageSaIS0_EEf"
	.type	"_Z21refocus_shift_and_sumRSt6vectorI16SubApertureImageSaIS0_EEf", @function
"_Z21refocus_shift_and_sumRSt6vectorI16SubApertureImageSaIS0_EEf":
.LVL0:
.LFB11707:
	.file 1 "src/avx_analysis_code_ablations/opt10_abl_tile_8x256.cpp"
	.loc 1 34 91 view -0
	.cfi_startproc
	.cfi_personality 0x9b,"DW.ref.__gxx_personality_v0"
	.cfi_lsda 0x1b,.LLSDA11707
	.loc 1 34 91 is_stmt 0 view .LVU1
	push	rbp	#
	.cfi_def_cfa_offset 16
	.cfi_offset 6, -16
.LBB2126:
.LBB2127:
.LBB2128:
.LBB2129:
.LBB2130:
.LBB2131:
# /usr/include/c++/16/bits/stl_vector.h:106: 	: _M_start(), _M_finish(), _M_end_of_storage()
	.file 2 "/usr/include/c++/16/bits/stl_vector.h"
	.loc 2 106 4 view .LVU2
	vpxor	xmm1, xmm1, xmm1	# tmp825
.LBE2131:
.LBE2130:
.LBE2129:
.LBE2128:
.LBE2127:
.LBE2126:
# src/avx_analysis_code_ablations/opt10_abl_tile_8x256.cpp:34: ImageData refocus_shift_and_sum(std::vector<SubApertureImage>& subapertures, float focus) {
	.loc 1 34 91 view .LVU3
	mov	rbp, rsp	#,
	.cfi_def_cfa_register 6
	push	r15	#
	push	r14	#
	push	r13	#
	.cfi_offset 15, -24
	.cfi_offset 14, -32
	.cfi_offset 13, -40
	mov	r13, rsi	# subapertures, subapertures
	push	r12	#
	push	rbx	#
	and	rsp, -32	#,
	sub	rsp, 288	#,
	.cfi_offset 12, -48
	.cfi_offset 3, -56
.LBB2143:
.LBB2144:
.LBB2145:
.LBB2146:
# /usr/include/c++/16/bits/stl_iterator.h:1059:       : _M_current(__i) { }
	.file 3 "/usr/include/c++/16/bits/stl_iterator.h"
	.loc 3 1059 9 view .LVU4
	mov	rbx, QWORD PTR [rsi]	# SR.299, MEM[(struct SubApertureImage * const &)subapertures_201(D)]
.LBE2146:
.LBE2145:
.LBE2144:
.LBE2143:
# src/avx_analysis_code_ablations/opt10_abl_tile_8x256.cpp:34: ImageData refocus_shift_and_sum(std::vector<SubApertureImage>& subapertures, float focus) {
	.loc 1 34 91 view .LVU5
	vmovss	DWORD PTR 232[rsp], xmm0	# %sfp, focus
	mov	QWORD PTR 128[rsp], rdi	# %sfp, <retval>
	.loc 1 35 5 is_stmt 1 view .LVU6
.LVL1:
.LBB2149:
.LBI2143:
	.loc 2 1334 7 view .LVU7
	.loc 2 1336 2 discriminator 2 view .LVU8
.LBB2148:
.LBI2144:
	.loc 2 988 7 view .LVU9
.LBB2147:
.LBI2145:
	.loc 3 1058 7 view .LVU10
	.loc 3 1058 7 is_stmt 0 view .LVU11
.LBE2147:
.LBE2148:
.LBE2149:
# src/avx_analysis_code_ablations/opt10_abl_tile_8x256.cpp:35:     const size_t width  = subapertures.front().data.width;
	.loc 1 35 53 discriminator 1 view .LVU12
	vmovdqu	xmm0, XMMWORD PTR [rbx]	# MEM <vector(2) long unsigned int> [(long unsigned int *)_346], MEM <vector(2) long unsigned int> [(long unsigned int *)_346]
.LVL2:
.LBB2150:
.LBB2141:
.LBB2139:
.LBB2137:
.LBB2133:
.LBB2132:
# /usr/include/c++/16/bits/stl_vector.h:106: 	: _M_start(), _M_finish(), _M_end_of_storage()
	.loc 2 106 29 view .LVU13
	mov	QWORD PTR 32[rdi], 0	# MEM[(struct _Vector_impl_data *)output_206(D) + 16B]._M_end_of_storage,
# /usr/include/c++/16/bits/stl_vector.h:106: 	: _M_start(), _M_finish(), _M_end_of_storage()
	.loc 2 106 4 view .LVU14
	vmovdqu	XMMWORD PTR 16[rdi], xmm1	# MEM <vector(2) long unsigned int> [(unsigned char * *)output_206(D) + 16B], tmp825
	vmovq	rax, xmm0	# _336, MEM <vector(2) long unsigned int> [(long unsigned int *)_346]
	vpextrq	rcx, xmm0, 1	# _700, MEM <vector(2) long unsigned int> [(long unsigned int *)_346]
	vmovq	QWORD PTR 160[rsp], xmm0	# %sfp, _336
.LVL3:
	.loc 2 106 4 view .LVU15
.LBE2132:
.LBE2133:
.LBE2137:
.LBE2139:
.LBE2141:
.LBE2150:
	.loc 1 36 5 is_stmt 1 view .LVU16
.LBB2151:
.LBI2151:
	.loc 2 1334 7 view .LVU17
	.loc 2 1336 2 discriminator 2 view .LVU18
.LBB2152:
.LBI2152:
	.loc 2 988 7 view .LVU19
.LBB2153:
.LBI2153:
	.loc 3 1058 7 view .LVU20
	.loc 3 1058 7 is_stmt 0 view .LVU21
.LBE2153:
.LBE2152:
.LBE2151:
	.loc 1 37 5 is_stmt 1 view .LVU22
	.loc 1 38 5 view .LVU23
	.loc 1 40 5 view .LVU24
.LBB2154:
.LBI2126:
	.file 4 "include/utils.hpp"
	.loc 4 11 8 view .LVU25
.LBB2142:
.LBI2127:
	.loc 2 551 7 view .LVU26
.LBB2140:
.LBI2128:
	.loc 2 321 7 view .LVU27
.LBB2138:
.LBI2129:
	.loc 2 143 2 view .LVU28
.LBB2134:
.LBI2134:
	.file 5 "/usr/include/c++/16/bits/allocator.h"
	.loc 5 168 7 view .LVU29
.LBB2135:
.LBI2135:
	.file 6 "/usr/include/c++/16/bits/new_allocator.h"
	.loc 6 88 7 view .LVU30
	.loc 6 88 7 is_stmt 0 view .LVU31
.LBE2135:
.LBE2134:
.LBB2136:
.LBI2130:
	.loc 2 105 2 is_stmt 1 view .LVU32
	.loc 2 105 2 is_stmt 0 view .LVU33
.LBE2136:
.LBE2138:
.LBE2140:
.LBE2142:
.LBE2154:
	.loc 1 41 5 is_stmt 1 view .LVU34
	.loc 1 42 5 view .LVU35
# src/avx_analysis_code_ablations/opt10_abl_tile_8x256.cpp:43:     output.data.assign(width * height * 3, 0);
	.loc 1 43 30 is_stmt 0 view .LVU36
	mov	rdx, rax	# _4, _336
	mov	QWORD PTR 256[rsp], rcx	# %sfp, _700
	imul	rdx, rcx	# _4, _700
# src/avx_analysis_code_ablations/opt10_abl_tile_8x256.cpp:41:     output.width = width;
	.loc 1 41 18 view .LVU37
	vmovdqu	XMMWORD PTR [rdi], xmm0	# MEM <vector(2) long unsigned int> [(long unsigned int *)output_206(D)], MEM <vector(2) long unsigned int> [(long unsigned int *)_346]
	.loc 1 43 5 is_stmt 1 view .LVU38
# src/avx_analysis_code_ablations/opt10_abl_tile_8x256.cpp:43:     output.data.assign(width * height * 3, 0);
	.loc 1 43 30 is_stmt 0 view .LVU39
	mov	QWORD PTR 72[rsp], rdx	# %sfp, _4
.LVL4:
.LBB2155:
.LBI2155:
	.loc 2 865 7 is_stmt 1 view .LVU40
.LBB2156:
.LBI2156:
	.file 7 "/usr/include/c++/16/bits/vector.tcc"
	.loc 7 274 5 view .LVU41
.LBB2157:
.LBB2158:
# /usr/include/c++/16/bits/vector.tcc:278:       if (__n > capacity())
	.loc 7 278 7 is_stmt 0 discriminator 1 view .LVU42
	test	rdx, rdx	# _4
	jne	.L2	#,
.LVL5:
	.loc 7 278 7 discriminator 1 view .LVU43
.LBE2158:
.LBE2157:
.LBE2156:
.LBE2155:
	.loc 1 46 5 is_stmt 1 view .LVU44
.LBB2218:
.LBI2218:
	.loc 2 551 7 view .LVU45
.LBB2219:
.LBI2219:
	.loc 2 321 7 view .LVU46
.LBB2220:
.LBI2220:
	.loc 2 143 2 view .LVU47
.LBB2221:
.LBI2221:
	.loc 5 168 7 view .LVU48
.LBB2222:
.LBI2222:
	.loc 6 88 7 view .LVU49
	.loc 6 88 7 is_stmt 0 view .LVU50
.LBE2222:
.LBE2221:
.LBB2224:
.LBI2224:
	.loc 2 105 2 is_stmt 1 view .LVU51
	.loc 2 105 2 is_stmt 0 view .LVU52
.LBE2224:
.LBE2220:
.LBE2219:
.LBE2218:
	.loc 1 47 5 is_stmt 1 view .LVU53
.LBB2249:
.LBI2249:
	.loc 2 1107 7 view .LVU54
.LBB2250:
# /usr/include/c++/16/bits/stl_vector.h:1109: 	ptrdiff_t __dif = this->_M_impl._M_finish - this->_M_impl._M_start;
	.loc 2 1109 34 is_stmt 0 view .LVU55
	mov	rdx, QWORD PTR 8[rsi]	# _347, MEM[(const struct vector *)subapertures_201(D)].D.139286._M_impl.D.138633._M_finish
.LVL6:
	.loc 2 1109 34 view .LVU56
.LBE2250:
.LBE2249:
.LBB2254:
.LBI2254:
	.loc 7 70 5 is_stmt 1 view .LVU57
.LBB2255:
# /usr/include/c++/16/bits/vector.tcc:75:       if (this->capacity() < __n)
	.loc 7 75 7 is_stmt 0 discriminator 1 view .LVU58
	mov	rdi, rdx	# _349, _347
.LVL7:
	.loc 7 75 7 discriminator 1 view .LVU59
.LBE2255:
.LBE2254:
.LBB2264:
.LBB2251:
# /usr/include/c++/16/bits/stl_vector.h:1109: 	ptrdiff_t __dif = this->_M_impl._M_finish - this->_M_impl._M_start;
	.loc 2 1109 34 view .LVU60
	mov	QWORD PTR 272[rsp], rdx	# %sfp, _347
.LBE2251:
.LBE2264:
.LBB2265:
.LBB2262:
# /usr/include/c++/16/bits/vector.tcc:75:       if (this->capacity() < __n)
	.loc 7 75 7 discriminator 1 view .LVU61
	sub	rdi, rbx	# _349, SR.299
.LVL8:
	.loc 7 75 7 discriminator 1 view .LVU62
	mov	QWORD PTR 64[rsp], rdi	# %sfp, _349
	je	.L139	#,
.LVL9:
.L4:
.LBB2256:
.LBB2257:
.LBI2257:
	.loc 2 386 7 is_stmt 1 view .LVU63
.LBB2258:
.LBB2259:
.LBI2259:
	.file 8 "/usr/include/c++/16/bits/alloc_traits.h"
	.loc 8 637 7 view .LVU64
.LBB2260:
.LBI2260:
	.loc 6 129 7 view .LVU65
.LBB2261:
# /usr/include/c++/16/bits/new_allocator.h:162: 	  return static_cast<_Tp*>(_GLIBCXX_OPERATOR_NEW(__n * sizeof(_Tp)));
	.loc 6 162 68 is_stmt 0 view .LVU66
	mov	r15, QWORD PTR 64[rsp]	# _349, %sfp
	mov	rdi, r15	#, _349
.LEHB0:
	call	"_Znwm"@PLT	#
.LVL10:
.LEHE0:
	mov	QWORD PTR 88[rsp], rax	# %sfp, __new_finish
.LVL11:
	.loc 6 162 68 view .LVU67
.LBE2261:
.LBE2260:
.LBE2259:
.LBE2258:
.LBE2257:
# /usr/include/c++/16/bits/vector.tcc:101: 	  this->_M_impl._M_end_of_storage = this->_M_impl._M_start + __n;
	.loc 7 101 61 view .LVU68
	lea	r13, [rax+r15]	# params$_M_end_of_storage,
.LVL12:
.L8:
	.loc 7 101 61 view .LVU69
.LBE2256:
.LBE2262:
.LBE2265:
# src/avx_analysis_code_ablations/opt10_abl_tile_8x256.cpp:37:     const int w = static_cast<int>(width);
	.loc 1 37 15 view .LVU70
	mov	eax, DWORD PTR 160[rsp]	# tmp1753, %sfp
# src/avx_analysis_code_ablations/opt10_abl_tile_8x256.cpp:38:     const int h = static_cast<int>(height);
	.loc 1 38 15 view .LVU71
	mov	r14d, DWORD PTR 256[rsp]	# _2, %sfp
.LVL13:
	.loc 1 48 5 is_stmt 1 view .LVU72
.LBB2266:
.LBB2267:
.LBI2267:
	.loc 2 988 7 view .LVU73
.LBB2268:
.LBI2268:
	.loc 3 1058 7 view .LVU74
	.loc 3 1058 7 is_stmt 0 view .LVU75
.LBE2268:
.LBE2267:
.LBB2270:
.LBI2270:
	.loc 2 1008 7 is_stmt 1 view .LVU76
.LBB2271:
.LBI2271:
	.loc 3 1058 7 view .LVU77
	.loc 3 1058 7 is_stmt 0 view .LVU78
.LBE2271:
.LBE2270:
	.loc 1 48 22 is_stmt 1 discriminator 5 view .LVU79
.LBE2266:
# src/avx_analysis_code_ablations/opt10_abl_tile_8x256.cpp:37:     const int w = static_cast<int>(width);
	.loc 1 37 15 is_stmt 0 view .LVU80
	mov	DWORD PTR 104[rsp], eax	# %sfp, tmp1753
.LBB2381:
# src/avx_analysis_code_ablations/opt10_abl_tile_8x256.cpp:48:     for (auto& sub : subapertures) {
	.loc 1 48 22 discriminator 6 view .LVU81
	cmp	rbx, QWORD PTR 272[rsp]	# SR.299, %sfp
	je	.L64	#,
.LVL14:
.L5:
	.loc 1 48 22 discriminator 6 view .LVU82
.LBE2381:
.LBB2382:
.LBB2243:
.LBB2237:
.LBB2230:
.LBB2225:
# /usr/include/c++/16/bits/stl_vector.h:106: 	: _M_start(), _M_finish(), _M_end_of_storage()
	.loc 2 106 4 view .LVU83
	mov	r15, QWORD PTR 88[rsp]	# params$_M_start, %sfp
.L17:
.LVL15:
	.loc 2 106 4 view .LVU84
.LBE2225:
.LBE2230:
.LBE2237:
.LBE2243:
.LBE2382:
.LBB2383:
.LBB2273:
	.loc 1 49 9 is_stmt 1 view .LVU85
	.loc 1 50 9 view .LVU86
# src/avx_analysis_code_ablations/opt10_abl_tile_8x256.cpp:50:         float shift_x = focus * sub.u;
	.loc 1 50 15 is_stmt 0 view .LVU87
	vmovss	xmm5, DWORD PTR 232[rsp]	# focus, %sfp
# src/avx_analysis_code_ablations/opt10_abl_tile_8x256.cpp:60:         p.x_begin = std::max(0, -p.sx);
	.loc 1 60 33 view .LVU88
	xor	r8d, r8d	# _16
# src/avx_analysis_code_ablations/opt10_abl_tile_8x256.cpp:50:         float shift_x = focus * sub.u;
	.loc 1 50 15 view .LVU89
	vmulss	xmm4, xmm5, DWORD PTR 40[rbx]	# shift_x, focus, MEM[(float *)SR.299_495 + 40B]
.LVL16:
	.loc 1 51 9 is_stmt 1 view .LVU90
# src/avx_analysis_code_ablations/opt10_abl_tile_8x256.cpp:51:         float shift_y = focus * sub.v;
	.loc 1 51 15 is_stmt 0 view .LVU91
	vmulss	xmm2, xmm5, DWORD PTR 44[rbx]	# shift_y, focus, MEM[(float *)SR.299_495 + 44B]
.LVL17:
	.loc 1 52 9 is_stmt 1 view .LVU92
.LBB2274:
.LBI2274:
	.file 9 "/usr/include/c++/16/cmath"
	.loc 9 264 3 view .LVU93
.LBB2275:
	.loc 9 265 5 view .LVU94
# /usr/include/c++/16/cmath:265:   { return __builtin_floorf(__x); }
	.loc 9 265 28 is_stmt 0 view .LVU95
	vrndscaless	xmm0, xmm4, xmm4, 9	# _356, shift_x,
.LVL18:
	.loc 9 265 28 view .LVU96
.LBE2275:
.LBE2274:
# src/avx_analysis_code_ablations/opt10_abl_tile_8x256.cpp:52:         p.sx = static_cast<int>(std::floor(shift_x));
	.loc 1 52 16 discriminator 1 view .LVU97
	vcvttss2si	r10d, xmm0	# _8, _356
.LVL19:
	.loc 1 53 9 is_stmt 1 view .LVU98
.LBB2276:
.LBI2276:
	.loc 9 264 3 view .LVU99
.LBB2277:
	.loc 9 265 5 view .LVU100
# /usr/include/c++/16/cmath:265:   { return __builtin_floorf(__x); }
	.loc 9 265 28 is_stmt 0 view .LVU101
	vrndscaless	xmm1, xmm2, xmm2, 9	# _355, shift_y,
.LVL20:
	.loc 9 265 28 view .LVU102
.LBE2277:
.LBE2276:
# src/avx_analysis_code_ablations/opt10_abl_tile_8x256.cpp:53:         p.sy = static_cast<int>(std::floor(shift_y));
	.loc 1 53 16 discriminator 1 view .LVU103
	vcvttss2si	esi, xmm1	# _9, _355
.LVL21:
	.loc 1 54 9 is_stmt 1 view .LVU104
	.loc 1 55 9 view .LVU105
	.loc 1 56 9 view .LVU106
	.loc 1 57 9 view .LVU107
	.loc 1 58 9 view .LVU108
	.loc 1 59 9 view .LVU109
	.loc 1 60 9 view .LVU110
.LBB2278:
.LBI2278:
	.file 10 "/usr/include/c++/16/bits/stl_algobase.h"
	.loc 10 256 5 view .LVU111
.LBE2278:
# src/avx_analysis_code_ablations/opt10_abl_tile_8x256.cpp:60:         p.x_begin = std::max(0, -p.sx);
	.loc 1 60 33 is_stmt 0 view .LVU112
	mov	eax, r10d	# tmp1543, _8
	neg	eax	# tmp1543
	test	r10d, r10d	# _8
	cmovs	r8d, eax	# tmp1543,, _16
.LVL22:
	.loc 1 61 9 is_stmt 1 view .LVU113
.LBB2279:
.LBI2279:
	.loc 10 232 5 view .LVU114
.LBE2279:
# src/avx_analysis_code_ablations/opt10_abl_tile_8x256.cpp:61:         p.x_end   = std::min(w, w - p.sx - 1);
	.loc 1 61 35 is_stmt 0 view .LVU115
	mov	eax, DWORD PTR 104[rsp]	# _1, %sfp
	mov	ecx, eax	# _18, _1
	sub	ecx, r10d	# _18, _8
# src/avx_analysis_code_ablations/opt10_abl_tile_8x256.cpp:61:         p.x_end   = std::min(w, w - p.sx - 1);
	.loc 1 61 42 view .LVU116
	dec	ecx	# _19
.LBB2281:
.LBB2280:
# /usr/include/c++/16/bits/stl_algobase.h:237:       if (__b < __a)
	.loc 10 237 7 view .LVU117
	cmp	ecx, eax	# _19, _1
	cmovg	ecx, eax	# _19,, _344, _1
.LVL23:
	.loc 10 237 7 view .LVU118
.LBE2280:
.LBE2281:
	.loc 1 62 9 is_stmt 1 view .LVU119
.LBB2282:
.LBI2282:
	.loc 10 256 5 view .LVU120
.LBE2282:
# src/avx_analysis_code_ablations/opt10_abl_tile_8x256.cpp:62:         p.y_begin = std::max(0, -p.sy);
	.loc 1 62 33 is_stmt 0 view .LVU121
	mov	eax, esi	# tmp1545, _9
	xor	r9d, r9d	# _20
	neg	eax	# tmp1545
	test	esi, esi	# _9
	cmovs	r9d, eax	# tmp1545,, _20
	.loc 1 63 9 is_stmt 1 view .LVU122
.LVL24:
.LBB2283:
.LBI2283:
	.loc 10 232 5 view .LVU123
.LBE2283:
# src/avx_analysis_code_ablations/opt10_abl_tile_8x256.cpp:63:         p.y_end   = std::min(h, h - p.sy - 1);
	.loc 1 63 35 is_stmt 0 view .LVU124
	mov	eax, r14d	# _22, _2
	sub	eax, esi	# _22, _9
# src/avx_analysis_code_ablations/opt10_abl_tile_8x256.cpp:63:         p.y_end   = std::min(h, h - p.sy - 1);
	.loc 1 63 42 view .LVU125
	dec	eax	# _23
.LBB2285:
.LBB2284:
# /usr/include/c++/16/bits/stl_algobase.h:237:       if (__b < __a)
	.loc 10 237 7 view .LVU126
	cmp	eax, r14d	# _23, _2
	cmovg	eax, r14d	# _23,, _23, _2
	mov	r11d, eax	# _466, _23
.LVL25:
	.loc 10 237 7 view .LVU127
.LBE2284:
.LBE2285:
	.loc 1 64 9 is_stmt 1 view .LVU128
.LBB2286:
.LBI2286:
	.loc 2 1385 7 view .LVU129
	.loc 2 1385 7 is_stmt 0 view .LVU130
.LBE2286:
	.loc 1 65 9 is_stmt 1 view .LVU131
# src/avx_analysis_code_ablations/opt10_abl_tile_8x256.cpp:65:         if (p.x_begin >= p.x_end || p.y_begin >= p.y_end) continue;  // skip degenerate
	.loc 1 65 34 is_stmt 0 discriminator 1 view .LVU132
	cmp	r8d, ecx	# _16, _344
	jge	.L12	#,
	.loc 1 65 34 discriminator 1 view .LVU133
	cmp	r9d, eax	# _20, _466
	jge	.L12	#,
# src/avx_analysis_code_ablations/opt10_abl_tile_8x256.cpp:55:         float dy = shift_y - p.sy;
	.loc 1 55 15 view .LVU134
	vsubss	xmm5, xmm2, xmm1	# dy, shift_y, _355
.LVL26:
# src/avx_analysis_code_ablations/opt10_abl_tile_8x256.cpp:54:         float dx = shift_x - p.sx;
	.loc 1 54 15 view .LVU135
	vsubss	xmm3, xmm4, xmm0	# dx, shift_x, _356
.LVL27:
.LBB2288:
.LBB2289:
# /usr/include/c++/16/bits/stl_vector.h:1408: 	if (this->_M_impl._M_finish != this->_M_impl._M_end_of_storage)
	.loc 2 1408 2 view .LVU136
	mov	rax, QWORD PTR 88[rsp]	# __new_finish, %sfp
.LBE2289:
.LBE2288:
.LBB2371:
.LBB2287:
# /usr/include/c++/16/bits/stl_vector.h:1386:       { return _M_data_ptr(this->_M_impl._M_start); }
	.loc 2 1386 42 view .LVU137
	mov	r12, QWORD PTR 16[rbx]	# _354, MEM[(unsigned char * *)SR.299_495 + 16B]
.LBE2287:
.LBE2371:
# src/avx_analysis_code_ablations/opt10_abl_tile_8x256.cpp:56:         p.A = (1 - dx) * (1 - dy);
	.loc 1 56 18 view .LVU138
	vaddss	xmm0, xmm0, DWORD PTR .LC1[rip]	# _683, _356,
.LVL28:
# src/avx_analysis_code_ablations/opt10_abl_tile_8x256.cpp:56:         p.A = (1 - dx) * (1 - dy);
	.loc 1 56 29 view .LVU139
	vaddss	xmm1, xmm1, DWORD PTR .LC1[rip]	# _684, _355,
.LVL29:
# src/avx_analysis_code_ablations/opt10_abl_tile_8x256.cpp:56:         p.A = (1 - dx) * (1 - dy);
	.loc 1 56 18 view .LVU140
	vsubss	xmm0, xmm0, xmm4	# _10, _683, shift_x
.LVL30:
# src/avx_analysis_code_ablations/opt10_abl_tile_8x256.cpp:56:         p.A = (1 - dx) * (1 - dy);
	.loc 1 56 29 view .LVU141
	vsubss	xmm1, xmm1, xmm2	# _11, _684, shift_y
.LVL31:
# src/avx_analysis_code_ablations/opt10_abl_tile_8x256.cpp:56:         p.A = (1 - dx) * (1 - dy);
	.loc 1 56 24 view .LVU142
	vmulss	xmm2, xmm0, xmm1	# _12, _10, _11
.LVL32:
# src/avx_analysis_code_ablations/opt10_abl_tile_8x256.cpp:57:         p.B = dx       * (1 - dy);
	.loc 1 57 24 view .LVU143
	vmulss	xmm1, xmm1, xmm3	# _13, _11, dx
# src/avx_analysis_code_ablations/opt10_abl_tile_8x256.cpp:58:         p.C = (1 - dx) * dy;
	.loc 1 58 24 view .LVU144
	vmulss	xmm0, xmm0, xmm5	# _14, _10, dy
# src/avx_analysis_code_ablations/opt10_abl_tile_8x256.cpp:59:         p.D = dx       * dy;
	.loc 1 59 24 view .LVU145
	vmulss	xmm3, xmm3, xmm5	# _15, dx, dy
.LVL33:
	.loc 1 66 9 is_stmt 1 view .LVU146
.LBB2372:
.LBI2288:
	.loc 2 1406 7 view .LVU147
.LBB2368:
# /usr/include/c++/16/bits/stl_vector.h:1408: 	if (this->_M_impl._M_finish != this->_M_impl._M_end_of_storage)
	.loc 2 1408 2 is_stmt 0 view .LVU148
	cmp	rax, r13	# __new_finish, params$_M_end_of_storage
	je	.L13	#,
.LVL34:
.LBB2290:
.LBI2290:
	.loc 8 705 2 is_stmt 1 view .LVU149
.LBB2291:
.LBI2291:
	.loc 6 201 2 view .LVU150
.LBB2292:
# /usr/include/c++/16/bits/new_allocator.h:203: 	{ ::new((void *)__p) _Up(std::forward<_Args>(__args)...); }
	.loc 6 203 4 is_stmt 0 discriminator 1 view .LVU151
	vunpcklps	xmm0, xmm0, xmm3	# tmp849, _14, _15
	vunpcklps	xmm2, xmm2, xmm1	# tmp850, _12, _13
	mov	DWORD PTR [rax], r10d	# params$_M_finish_194->sx, _8
.LBE2292:
.LBE2291:
.LBE2290:
# /usr/include/c++/16/bits/stl_vector.h:1413: 	    ++this->_M_impl._M_finish;
	.loc 2 1413 6 view .LVU152
	add	rax, 48	# __new_finish,
.LBB2295:
.LBB2294:
.LBB2293:
# /usr/include/c++/16/bits/new_allocator.h:203: 	{ ::new((void *)__p) _Up(std::forward<_Args>(__args)...); }
	.loc 6 203 4 discriminator 1 view .LVU153
	vmovlhps	xmm2, xmm2, xmm0	# _1059, tmp850, tmp849
	mov	DWORD PTR -44[rax], esi	# params$_M_finish_194->sy, _9
	vmovups	XMMWORD PTR -40[rax], xmm2	# MEM <vector(4) float> [(float *)params$_M_finish_194 + 8B], _1059
	mov	DWORD PTR -24[rax], r8d	# params$_M_finish_194->x_begin, _16
	mov	DWORD PTR -20[rax], ecx	# params$_M_finish_194->x_end, _344
	mov	DWORD PTR -16[rax], r9d	# params$_M_finish_194->y_begin, _20
	mov	DWORD PTR -12[rax], r11d	# params$_M_finish_194->y_end, _466
	mov	QWORD PTR -8[rax], r12	# MEM <const unsigned char *> [(struct SubParams *)params$_M_finish_194 + 40B], _354
.LVL35:
	.loc 6 203 4 discriminator 1 view .LVU154
.LBE2293:
.LBE2294:
.LBE2295:
# /usr/include/c++/16/bits/stl_vector.h:1413: 	    ++this->_M_impl._M_finish;
	.loc 2 1413 6 view .LVU155
	mov	QWORD PTR 88[rsp], rax	# %sfp, __new_finish
.LVL36:
.L12:
	.loc 2 1413 6 view .LVU156
.LBE2368:
.LBE2372:
.LBE2273:
	.loc 1 48 5 is_stmt 1 discriminator 4 view .LVU157
.LBB2375:
.LBI2375:
	.loc 3 1101 7 view .LVU158
.LBB2376:
# /usr/include/c++/16/bits/stl_iterator.h:1103: 	++_M_current;
	.loc 3 1103 2 is_stmt 0 view .LVU159
	add	rbx, 48	# SR.299,
.LVL37:
	.loc 3 1103 2 view .LVU160
.LBE2376:
.LBE2375:
	.loc 1 48 22 is_stmt 1 discriminator 5 view .LVU161
# src/avx_analysis_code_ablations/opt10_abl_tile_8x256.cpp:48:     for (auto& sub : subapertures) {
	.loc 1 48 22 is_stmt 0 discriminator 6 view .LVU162
	cmp	QWORD PTR 272[rsp], rbx	# %sfp, SR.299
	jne	.L17	#,
	.loc 1 48 22 discriminator 6 view .LVU163
.LBE2383:
.LBB2384:
.LBB2385:
.LBB2386:
# /usr/include/c++/16/bits/stl_vector.h:375: 	ptrdiff_t __n = _M_impl._M_end_of_storage - _M_impl._M_start;
	.loc 2 375 44 view .LVU164
	mov	rax, r13	# _349, params$_M_end_of_storage
	sub	rax, r15	# _349, params$_M_start
	mov	QWORD PTR 64[rsp], rax	# %sfp, _349
	mov	rax, QWORD PTR 88[rsp]	# __new_finish, %sfp
	mov	QWORD PTR 88[rsp], r15	# %sfp, params$_M_start
	mov	QWORD PTR 144[rsp], rax	# %sfp, __new_finish
.LVL38:
.L9:
	.loc 2 375 44 view .LVU165
.LBE2386:
.LBE2385:
.LBE2384:
	.loc 1 70 5 is_stmt 1 view .LVU166
.LBB2401:
.LBI2401:
	.loc 5 168 7 view .LVU167
.LBB2402:
.LBI2402:
	.loc 6 88 7 view .LVU168
	.loc 6 88 7 is_stmt 0 view .LVU169
.LBE2402:
.LBE2401:
.LBB2403:
.LBI2403:
	.loc 2 589 7 is_stmt 1 view .LVU170
.LBB2404:
.LBI2404:
	.loc 2 2203 7 view .LVU171
.LBB2405:
.LBB2406:
.LBI2406:
	.loc 5 172 7 view .LVU172
.LBB2407:
.LBI2407:
	.loc 6 92 7 view .LVU173
	.loc 6 92 7 is_stmt 0 view .LVU174
.LBE2407:
.LBE2406:
.LBB2408:
.LBI2408:
	.loc 5 189 7 is_stmt 1 view .LVU175
.LBB2409:
.LBI2409:
	.loc 6 104 7 view .LVU176
.LBE2409:
.LBE2408:
# /usr/include/c++/16/bits/stl_vector.h:2205: 	if (__n > _S_max_size(_Tp_alloc_type(__a)))
	.loc 2 2205 2 is_stmt 0 discriminator 3 view .LVU177
	mov	rax, QWORD PTR 72[rsp]	# tmp1624, %sfp
	shr	rax, 61	# tmp1624,
	jne	.L134	#,
.LVL39:
	.loc 2 2205 2 discriminator 3 view .LVU178
.LBE2405:
.LBE2404:
.LBB2411:
.LBI2411:
	.loc 2 339 7 is_stmt 1 view .LVU179
.LBB2412:
.LBI2412:
	.loc 2 152 2 view .LVU180
.LBB2413:
.LBI2413:
	.loc 5 172 7 view .LVU181
.LBB2414:
.LBI2414:
	.loc 6 92 7 view .LVU182
	.loc 6 92 7 is_stmt 0 view .LVU183
.LBE2414:
.LBE2413:
.LBB2415:
.LBI2415:
	.loc 2 105 2 is_stmt 1 view .LVU184
	.loc 2 105 2 is_stmt 0 view .LVU185
.LBE2415:
.LBE2412:
.LBB2416:
.LBI2416:
	.loc 2 405 7 is_stmt 1 view .LVU186
.LBB2417:
.LBB2418:
.LBI2418:
	.loc 2 386 7 view .LVU187
.LBB2419:
# /usr/include/c++/16/bits/stl_vector.h:389: 	return __n != 0 ? _Tr::allocate(_M_impl, __n) : pointer();
	.loc 2 389 18 is_stmt 0 view .LVU188
	mov	rbx, QWORD PTR 72[rsp]	# _4, %sfp
	test	rbx, rbx	# _4
	je	.L67	#,
.LVL40:
.LBB2420:
.LBI2420:
	.loc 8 637 7 is_stmt 1 view .LVU189
.LBB2421:
.LBI2421:
	.loc 6 129 7 view .LVU190
.LBB2422:
# /usr/include/c++/16/bits/new_allocator.h:162: 	  return static_cast<_Tp*>(_GLIBCXX_OPERATOR_NEW(__n * sizeof(_Tp)));
	.loc 6 162 68 is_stmt 0 view .LVU191
	sal	rbx, 2	# _4,
	mov	rdi, rbx	#, _4
	mov	QWORD PTR 72[rsp], rbx	# %sfp, _4
.LVL41:
.LEHB1:
	.loc 6 162 68 view .LVU192
	call	"_Znwm"@PLT	#
.LVL42:
.LEHE1:
.LBE2422:
.LBE2421:
.LBE2420:
.LBE2419:
.LBE2418:
.LBE2417:
.LBE2416:
.LBE2411:
.LBB2434:
.LBB2435:
.LBB2436:
.LBB2437:
.LBB2438:
.LBB2439:
.LBB2440:
.LBB2441:
# /usr/include/c++/16/bits/stl_construct.h:133:       ::new(static_cast<void*>(__p)) _Tp(std::forward<_Args>(__args)...);
	.file 11 "/usr/include/c++/16/bits/stl_construct.h"
	.loc 11 133 7 discriminator 1 view .LVU193
	mov	rdx, rbx	#, _4
	xor	esi, esi	#
	mov	rdi, rax	#, _325
.LBE2441:
.LBE2440:
.LBE2439:
.LBE2438:
.LBE2437:
.LBE2436:
.LBE2435:
.LBE2434:
.LBB2451:
.LBB2432:
.LBB2430:
.LBB2428:
.LBB2426:
.LBB2425:
.LBB2424:
.LBB2423:
# /usr/include/c++/16/bits/new_allocator.h:162: 	  return static_cast<_Tp*>(_GLIBCXX_OPERATOR_NEW(__n * sizeof(_Tp)));
	.loc 6 162 68 view .LVU194
	mov	QWORD PTR 80[rsp], rax	# %sfp, _325
.LVL43:
	.loc 6 162 68 view .LVU195
.LBE2423:
.LBE2424:
.LBE2425:
.LBE2426:
.LBE2428:
.LBE2430:
.LBE2432:
.LBE2451:
.LBB2452:
.LBI2434:
	.loc 2 1987 7 is_stmt 1 view .LVU196
.LBB2450:
.LBI2435:
	.file 12 "/usr/include/c++/16/bits/stl_uninitialized.h"
	.loc 12 771 5 view .LVU197
.LBB2449:
.LBI2436:
	.loc 12 550 5 view .LVU198
.LBB2448:
.LBB2447:
.LBI2438:
	.loc 12 477 5 view .LVU199
.LBB2446:
.LBB2443:
.LBI2443:
	.loc 12 113 7 view .LVU200
	.loc 12 113 7 is_stmt 0 view .LVU201
.LBE2443:
	.loc 12 485 2 is_stmt 1 discriminator 2 view .LVU202
	.loc 12 491 7 discriminator 2 view .LVU203
.LBB2444:
.LBB2442:
# /usr/include/c++/16/bits/stl_construct.h:133:       ::new(static_cast<void*>(__p)) _Tp(std::forward<_Args>(__args)...);
	.loc 11 133 7 is_stmt 0 discriminator 1 view .LVU204
	call	"memset"@PLT	#
.LVL44:
.L18:
	.loc 11 133 7 discriminator 1 view .LVU205
.LBE2442:
.LBE2444:
.LBB2445:
.LBI2445:
	.loc 12 118 7 is_stmt 1 view .LVU206
	.loc 12 118 7 is_stmt 0 view .LVU207
.LBE2445:
.LBE2446:
.LBE2447:
.LBE2448:
.LBE2449:
.LBE2450:
.LBE2452:
.LBE2403:
.LBB2455:
.LBI2455:
	.loc 5 189 7 is_stmt 1 view .LVU208
.LBB2456:
.LBI2456:
	.loc 6 104 7 view .LVU209
	.loc 6 104 7 is_stmt 0 view .LVU210
.LBE2456:
.LBE2455:
	.loc 1 71 5 is_stmt 1 view .LVU211
.LBB2457:
.LBI2457:
	.loc 5 168 7 view .LVU212
.LBB2458:
.LBI2458:
	.loc 6 88 7 view .LVU213
	.loc 6 88 7 is_stmt 0 view .LVU214
.LBE2458:
.LBE2457:
# src/avx_analysis_code_ablations/opt10_abl_tile_8x256.cpp:71:     std::vector<int> diff((width + 1) * (height + 1), 0);
	.loc 1 71 34 discriminator 1 view .LVU215
	mov	rax, QWORD PTR 160[rsp]	# _336, %sfp
	lea	r11, 1[rax]	# _24,
# src/avx_analysis_code_ablations/opt10_abl_tile_8x256.cpp:71:     std::vector<int> diff((width + 1) * (height + 1), 0);
	.loc 1 71 49 discriminator 1 view .LVU216
	mov	rax, QWORD PTR 256[rsp]	# _700, %sfp
	inc	rax	# _700
# src/avx_analysis_code_ablations/opt10_abl_tile_8x256.cpp:71:     std::vector<int> diff((width + 1) * (height + 1), 0);
	.loc 1 71 56 discriminator 1 view .LVU217
	imul	rax, r11	# _25, _24
	mov	r15, rax	# _26, _25
.LVL45:
.LBB2459:
.LBI2459:
	.loc 2 589 7 is_stmt 1 view .LVU218
.LBB2460:
.LBI2460:
	.loc 2 2203 7 view .LVU219
.LBB2461:
.LBB2462:
.LBI2462:
	.loc 5 172 7 view .LVU220
.LBB2463:
.LBI2463:
	.loc 6 92 7 view .LVU221
	.loc 6 92 7 is_stmt 0 view .LVU222
.LBE2463:
.LBE2462:
.LBB2464:
.LBI2464:
	.loc 5 189 7 is_stmt 1 view .LVU223
.LBB2465:
.LBI2465:
	.loc 6 104 7 view .LVU224
.LBE2465:
.LBE2464:
# /usr/include/c++/16/bits/stl_vector.h:2205: 	if (__n > _S_max_size(_Tp_alloc_type(__a)))
	.loc 2 2205 2 is_stmt 0 discriminator 3 view .LVU225
	shr	rax, 61	# tmp1625,
.LVL46:
	.loc 2 2205 2 discriminator 3 view .LVU226
	jne	.L135	#,
.LVL47:
	.loc 2 2205 2 discriminator 3 view .LVU227
.LBE2461:
.LBE2460:
.LBB2467:
.LBI2467:
	.loc 2 339 7 is_stmt 1 view .LVU228
.LBB2468:
.LBI2468:
	.loc 2 152 2 view .LVU229
.LBB2469:
.LBI2469:
	.loc 5 172 7 view .LVU230
.LBB2470:
.LBI2470:
	.loc 6 92 7 view .LVU231
	.loc 6 92 7 is_stmt 0 view .LVU232
.LBE2470:
.LBE2469:
.LBB2471:
.LBI2471:
	.loc 2 105 2 is_stmt 1 view .LVU233
	.loc 2 105 2 is_stmt 0 view .LVU234
.LBE2471:
.LBE2468:
.LBB2472:
.LBI2472:
	.loc 2 405 7 is_stmt 1 view .LVU235
.LBB2473:
.LBB2474:
.LBI2474:
	.loc 2 386 7 view .LVU236
.LBB2475:
# /usr/include/c++/16/bits/stl_vector.h:389: 	return __n != 0 ? _Tr::allocate(_M_impl, __n) : pointer();
	.loc 2 389 18 is_stmt 0 view .LVU237
	test	r15, r15	# _26
	je	.L68	#,
.LBB2476:
.LBB2477:
.LBB2478:
# /usr/include/c++/16/bits/new_allocator.h:162: 	  return static_cast<_Tp*>(_GLIBCXX_OPERATOR_NEW(__n * sizeof(_Tp)));
	.loc 6 162 68 view .LVU238
	sal	r15, 2	# _26,
.LVL48:
	.loc 6 162 68 view .LVU239
	mov	QWORD PTR 272[rsp], r11	# %sfp, _24
.LBE2478:
.LBE2477:
.LBI2476:
	.loc 8 637 7 is_stmt 1 view .LVU240
.LBB2481:
.LBI2477:
	.loc 6 129 7 view .LVU241
.LVL49:
.LBB2479:
# /usr/include/c++/16/bits/new_allocator.h:162: 	  return static_cast<_Tp*>(_GLIBCXX_OPERATOR_NEW(__n * sizeof(_Tp)));
	.loc 6 162 68 is_stmt 0 view .LVU242
	mov	rdi, r15	#, _26
.LEHB2:
	call	"_Znwm"@PLT	#
.LVL50:
.LEHE2:
	.loc 6 162 68 view .LVU243
.LBE2479:
.LBE2481:
.LBE2476:
.LBE2475:
.LBE2474:
.LBE2473:
.LBE2472:
.LBE2467:
.LBB2492:
.LBB2493:
.LBB2494:
.LBB2495:
.LBB2496:
.LBB2497:
.LBB2498:
.LBB2499:
# /usr/include/c++/16/bits/stl_construct.h:133:       ::new(static_cast<void*>(__p)) _Tp(std::forward<_Args>(__args)...);
	.loc 11 133 7 discriminator 1 view .LVU244
	mov	rdx, r15	#, _26
	xor	esi, esi	#
	mov	rdi, rax	#, _433
.LBE2499:
.LBE2498:
.LBE2497:
.LBE2496:
.LBE2495:
.LBE2494:
.LBE2493:
.LBE2492:
.LBB2509:
.LBB2490:
.LBB2488:
.LBB2486:
.LBB2484:
.LBB2483:
.LBB2482:
.LBB2480:
# /usr/include/c++/16/bits/new_allocator.h:162: 	  return static_cast<_Tp*>(_GLIBCXX_OPERATOR_NEW(__n * sizeof(_Tp)));
	.loc 6 162 68 view .LVU245
	mov	rbx, rax	# _433, _433
.LVL51:
	.loc 6 162 68 view .LVU246
.LBE2480:
.LBE2482:
.LBE2483:
.LBE2484:
.LBE2486:
.LBE2488:
.LBE2490:
.LBE2509:
.LBB2510:
.LBI2492:
	.loc 2 1987 7 is_stmt 1 view .LVU247
.LBB2508:
.LBI2493:
	.loc 12 771 5 view .LVU248
.LBB2507:
.LBI2494:
	.loc 12 550 5 view .LVU249
.LBB2506:
.LBB2505:
.LBI2496:
	.loc 12 477 5 view .LVU250
.LBB2504:
.LBB2501:
.LBI2501:
	.loc 12 113 7 view .LVU251
	.loc 12 113 7 is_stmt 0 view .LVU252
.LBE2501:
	.loc 12 485 2 is_stmt 1 discriminator 2 view .LVU253
	.loc 12 491 7 discriminator 2 view .LVU254
.LBB2502:
.LBB2500:
# /usr/include/c++/16/bits/stl_construct.h:133:       ::new(static_cast<void*>(__p)) _Tp(std::forward<_Args>(__args)...);
	.loc 11 133 7 is_stmt 0 discriminator 1 view .LVU255
	call	"memset"@PLT	#
.LVL52:
	.loc 11 133 7 discriminator 1 view .LVU256
	mov	r11, QWORD PTR 272[rsp]	# _24, %sfp
.LVL53:
.L23:
	.loc 11 133 7 discriminator 1 view .LVU257
.LBE2500:
.LBE2502:
.LBB2503:
.LBI2503:
	.loc 12 118 7 is_stmt 1 view .LVU258
	.loc 12 118 7 is_stmt 0 view .LVU259
.LBE2503:
.LBE2504:
.LBE2505:
.LBE2506:
.LBE2507:
.LBE2508:
.LBE2510:
.LBE2459:
.LBB2513:
.LBI2513:
	.loc 5 189 7 is_stmt 1 view .LVU260
.LBB2514:
.LBI2514:
	.loc 6 104 7 view .LVU261
	.loc 6 104 7 is_stmt 0 view .LVU262
.LBE2514:
.LBE2513:
	.loc 1 73 5 is_stmt 1 view .LVU263
.LBB2515:
.LBB2516:
.LBI2516:
	.loc 2 988 7 view .LVU264
.LBB2517:
.LBI2517:
	.loc 3 1058 7 view .LVU265
	.loc 3 1058 7 is_stmt 0 view .LVU266
.LBE2517:
.LBE2516:
.LBB2518:
.LBI2518:
	.loc 2 1008 7 is_stmt 1 view .LVU267
.LBB2519:
.LBI2519:
	.loc 3 1058 7 view .LVU268
	.loc 3 1058 7 is_stmt 0 view .LVU269
.LBE2519:
.LBE2518:
	.loc 1 73 26 is_stmt 1 discriminator 5 view .LVU270
# src/avx_analysis_code_ablations/opt10_abl_tile_8x256.cpp:73:     for (const auto& p : params) {
	.loc 1 73 26 is_stmt 0 discriminator 6 view .LVU271
	mov	rax, QWORD PTR 88[rsp]	# __new_finish, %sfp
	cmp	QWORD PTR 144[rsp], rax	# %sfp, __new_finish
	je	.L24	#,
.LVL54:
.L25:
	.loc 1 74 9 is_stmt 1 view .LVU272
# src/avx_analysis_code_ablations/opt10_abl_tile_8x256.cpp:74:         diff[p.y_begin * (width + 1) + p.x_begin] += 1;
	.loc 1 74 16 is_stmt 0 view .LVU273
	movsxd	rdx, DWORD PTR 32[rax]	# _28, MEM[(int *)SR.301_467 + 32B]
# src/avx_analysis_code_ablations/opt10_abl_tile_8x256.cpp:74:         diff[p.y_begin * (width + 1) + p.x_begin] += 1;
	.loc 1 74 42 view .LVU274
	movsxd	rsi, DWORD PTR 24[rax]	# _31, MEM[(int *)SR.301_467 + 24B]
.LBB2520:
.LBB2521:
# /usr/include/c++/16/bits/stl_iterator.h:1103: 	++_M_current;
	.loc 3 1103 2 view .LVU275
	add	rax, 48	# SR.301,
.LVL55:
	.loc 3 1103 2 view .LVU276
.LBE2521:
.LBE2520:
# src/avx_analysis_code_ablations/opt10_abl_tile_8x256.cpp:76:         diff[p.y_end   * (width + 1) + p.x_begin] -= 1;
	.loc 1 76 16 view .LVU277
	movsxd	rdi, DWORD PTR -12[rax]	# _44, MEM[(int *)SR.301_467 + 36B]
# src/avx_analysis_code_ablations/opt10_abl_tile_8x256.cpp:74:         diff[p.y_begin * (width + 1) + p.x_begin] += 1;
	.loc 1 74 24 view .LVU278
	imul	rdx, r11	# _29, _24
.LVL56:
.LBB2522:
.LBI2522:
	.loc 2 1251 7 is_stmt 1 view .LVU279
.LBB2523:
	.loc 2 1253 2 discriminator 2 view .LVU280
	.loc 2 1253 2 is_stmt 0 discriminator 2 view .LVU281
.LBE2523:
.LBE2522:
# src/avx_analysis_code_ablations/opt10_abl_tile_8x256.cpp:76:         diff[p.y_end   * (width + 1) + p.x_begin] -= 1;
	.loc 1 76 24 view .LVU282
	imul	rdi, r11	# _45, _24
# src/avx_analysis_code_ablations/opt10_abl_tile_8x256.cpp:74:         diff[p.y_begin * (width + 1) + p.x_begin] += 1;
	.loc 1 74 49 view .LVU283
	lea	rcx, [rdx+rsi]	# _32,
# src/avx_analysis_code_ablations/opt10_abl_tile_8x256.cpp:74:         diff[p.y_begin * (width + 1) + p.x_begin] += 1;
	.loc 1 74 51 discriminator 1 view .LVU284
	inc	DWORD PTR [rbx+rcx*4]	# *_367
	.loc 1 75 9 is_stmt 1 view .LVU285
# src/avx_analysis_code_ablations/opt10_abl_tile_8x256.cpp:75:         diff[p.y_begin * (width + 1) + p.x_end  ] -= 1;
	.loc 1 75 42 is_stmt 0 view .LVU286
	movsxd	rcx, DWORD PTR -20[rax]	# _39, MEM[(int *)SR.301_467 + 28B]
.LVL57:
.LBB2524:
.LBI2524:
	.loc 2 1251 7 is_stmt 1 view .LVU287
.LBB2525:
	.loc 2 1253 2 discriminator 2 view .LVU288
	.loc 2 1253 2 is_stmt 0 discriminator 2 view .LVU289
.LBE2525:
.LBE2524:
# src/avx_analysis_code_ablations/opt10_abl_tile_8x256.cpp:75:         diff[p.y_begin * (width + 1) + p.x_end  ] -= 1;
	.loc 1 75 49 view .LVU290
	add	rdx, rcx	# _40, _39
# src/avx_analysis_code_ablations/opt10_abl_tile_8x256.cpp:75:         diff[p.y_begin * (width + 1) + p.x_end  ] -= 1;
	.loc 1 75 51 discriminator 1 view .LVU291
	dec	DWORD PTR [rbx+rdx*4]	# *_364
	.loc 1 76 9 is_stmt 1 view .LVU292
.LVL58:
.LBB2526:
.LBI2526:
	.loc 2 1251 7 view .LVU293
.LBB2527:
	.loc 2 1253 2 discriminator 2 view .LVU294
	.loc 2 1253 2 is_stmt 0 discriminator 2 view .LVU295
.LBE2527:
.LBE2526:
# src/avx_analysis_code_ablations/opt10_abl_tile_8x256.cpp:76:         diff[p.y_end   * (width + 1) + p.x_begin] -= 1;
	.loc 1 76 49 view .LVU296
	lea	rdx, [rsi+rdi]	# _48,
# src/avx_analysis_code_ablations/opt10_abl_tile_8x256.cpp:76:         diff[p.y_end   * (width + 1) + p.x_begin] -= 1;
	.loc 1 76 51 discriminator 1 view .LVU297
	dec	DWORD PTR [rbx+rdx*4]	# *_362
	.loc 1 77 9 is_stmt 1 view .LVU298
.LVL59:
.LBB2528:
.LBI2528:
	.loc 2 1251 7 view .LVU299
.LBB2529:
	.loc 2 1253 2 discriminator 2 view .LVU300
	.loc 2 1253 2 is_stmt 0 discriminator 2 view .LVU301
.LBE2529:
.LBE2528:
# src/avx_analysis_code_ablations/opt10_abl_tile_8x256.cpp:77:         diff[p.y_end   * (width + 1) + p.x_end  ] += 1;
	.loc 1 77 49 view .LVU302
	lea	rdx, [rcx+rdi]	# _56,
# src/avx_analysis_code_ablations/opt10_abl_tile_8x256.cpp:77:         diff[p.y_end   * (width + 1) + p.x_end  ] += 1;
	.loc 1 77 51 discriminator 1 view .LVU303
	inc	DWORD PTR [rbx+rdx*4]	# *_360
	.loc 1 73 5 is_stmt 1 discriminator 4 view .LVU304
.LVL60:
.LBB2530:
.LBI2520:
	.loc 3 1101 7 view .LVU305
	.loc 3 1101 7 is_stmt 0 view .LVU306
.LBE2530:
	.loc 1 73 26 is_stmt 1 discriminator 5 view .LVU307
# src/avx_analysis_code_ablations/opt10_abl_tile_8x256.cpp:73:     for (const auto& p : params) {
	.loc 1 73 26 is_stmt 0 discriminator 6 view .LVU308
	cmp	rax, QWORD PTR 144[rsp]	# SR.301, %sfp
	jne	.L25	#,
.LVL61:
.L24:
	.loc 1 73 26 discriminator 6 view .LVU309
.LBE2515:
.LBB2531:
	.loc 1 80 23 is_stmt 1 discriminator 2 view .LVU310
	test	r14d, r14d	# _2
	jle	.L26	#,
	mov	r8d, DWORD PTR 104[rsp]	#, %sfp
	test	r8d, r8d	#
	jle	.L26	#,
.LVL62:
.LBB2532:
.LBB2533:
	.loc 1 82 27 discriminator 2 view .LVU311
	mov	rax, QWORD PTR 160[rsp]	# _336, %sfp
.LBE2533:
# src/avx_analysis_code_ablations/opt10_abl_tile_8x256.cpp:81:         int row = 0;
	.loc 1 81 13 is_stmt 0 view .LVU312
	xor	esi, esi	# row
	lea	edx, -1[rax]	# _974,
.LBE2532:
# src/avx_analysis_code_ablations/opt10_abl_tile_8x256.cpp:80:     for (int y = 0; y < h; ++y) {
	.loc 1 80 23 discriminator 2 view .LVU313
	xor	eax, eax	# ivtmp.602
	lea	r8, 1[rdx]	# _989,
.LVL63:
.L28:
.LBB2538:
.LBB2534:
	.loc 1 83 13 is_stmt 1 view .LVU314
# src/avx_analysis_code_ablations/opt10_abl_tile_8x256.cpp:84:             counts[y * w + x] = row + (y > 0 ? counts[(y - 1) * w + x] : 0);
	.loc 1 84 31 is_stmt 0 discriminator 5 view .LVU315
	mov	rdx, QWORD PTR 80[rsp]	# _325, %sfp
# src/avx_analysis_code_ablations/opt10_abl_tile_8x256.cpp:83:             row += diff[y * (width + 1) + x];
	.loc 1 83 17 discriminator 1 view .LVU316
	add	esi, DWORD PTR [rbx+rax*4]	# row, MEM[(value_type &)_433 + ivtmp.602_966 * 4]
.LVL64:
	.loc 1 84 13 is_stmt 1 view .LVU317
# src/avx_analysis_code_ablations/opt10_abl_tile_8x256.cpp:84:             counts[y * w + x] = row + (y > 0 ? counts[(y - 1) * w + x] : 0);
	.loc 1 84 31 is_stmt 0 discriminator 5 view .LVU318
	mov	DWORD PTR [rdx+rax*4], esi	# MEM[(value_type &)_669 + ivtmp.602_966 * 4], row
	.loc 1 82 9 is_stmt 1 discriminator 1 view .LVU319
.LVL65:
	.loc 1 82 27 discriminator 2 view .LVU320
	inc	rax	# ivtmp.602
.LVL66:
	.loc 1 82 27 is_stmt 0 discriminator 2 view .LVU321
	cmp	rax, r8	# ivtmp.602, _989
	jne	.L28	#,
.LBE2534:
.LBE2538:
	.loc 1 80 5 is_stmt 1 discriminator 1 view .LVU322
.LVL67:
	.loc 1 80 23 discriminator 2 view .LVU323
	cmp	r14d, 1	# _2,
	je	.L26	#,
	mov	eax, DWORD PTR 104[rsp]	# _835, %sfp
	sal	r11, 2	# _508,
.LBB2539:
.LBB2535:
# src/avx_analysis_code_ablations/opt10_abl_tile_8x256.cpp:82:         for (int x = 0; x < w; ++x) {
	.loc 1 82 27 is_stmt 0 discriminator 2 view .LVU324
	xor	r10d, r10d	# ivtmp.597
	lea	rsi, [rbx+r11]	# ivtmp.596,
.LVL68:
	.loc 1 82 27 discriminator 2 view .LVU325
	lea	r9, 0[0+rax*4]	# _819,
	lea	rcx, [rdx+r9]	# ivtmp.599,
.LBE2535:
.LBE2539:
# src/avx_analysis_code_ablations/opt10_abl_tile_8x256.cpp:80:     for (int y = 0; y < h; ++y) {
	.loc 1 80 14 view .LVU326
	mov	edx, 1	# y,
.LVL69:
.L30:
.LBB2540:
.LBB2536:
	.loc 1 82 27 is_stmt 1 discriminator 2 view .LVU327
	mov	rdi, QWORD PTR 80[rsp]	# _325, %sfp
	movsxd	rax, r10d	# _1222, ivtmp.597
	add	r10d, DWORD PTR 160[rsp]	# ivtmp.597, %sfp
.LBE2536:
# src/avx_analysis_code_ablations/opt10_abl_tile_8x256.cpp:81:         int row = 0;
	.loc 1 81 13 is_stmt 0 view .LVU328
	mov	DWORD PTR 264[rsp], edx	# %sfp, y
	lea	rax, [rdi+rax*4]	# _1235,
	xor	edi, edi	# row
	mov	QWORD PTR 272[rsp], rax	# %sfp, _1235
.LBE2540:
# src/avx_analysis_code_ablations/opt10_abl_tile_8x256.cpp:80:     for (int y = 0; y < h; ++y) {
	.loc 1 80 14 view .LVU329
	xor	eax, eax	# ivtmp.583
.LVL70:
.L29:
.LBB2541:
.LBB2537:
	.loc 1 83 13 is_stmt 1 view .LVU330
# src/avx_analysis_code_ablations/opt10_abl_tile_8x256.cpp:84:             counts[y * w + x] = row + (y > 0 ? counts[(y - 1) * w + x] : 0);
	.loc 1 84 37 is_stmt 0 discriminator 4 view .LVU331
	mov	rdx, QWORD PTR 272[rsp]	# _1235, %sfp
# src/avx_analysis_code_ablations/opt10_abl_tile_8x256.cpp:83:             row += diff[y * (width + 1) + x];
	.loc 1 83 17 discriminator 1 view .LVU332
	add	edi, DWORD PTR [rsi+rax*4]	# row, MEM[(value_type &)_1201 + ivtmp.583_1197 * 4]
.LVL71:
	.loc 1 84 13 is_stmt 1 view .LVU333
# src/avx_analysis_code_ablations/opt10_abl_tile_8x256.cpp:84:             counts[y * w + x] = row + (y > 0 ? counts[(y - 1) * w + x] : 0);
	.loc 1 84 37 is_stmt 0 discriminator 4 view .LVU334
	mov	r12d, DWORD PTR [rdx+rax*4]	# _1078, MEM[(value_type &)_1235 + ivtmp.583_1197 * 4]
	add	r12d, edi	# _1078, row
# src/avx_analysis_code_ablations/opt10_abl_tile_8x256.cpp:84:             counts[y * w + x] = row + (y > 0 ? counts[(y - 1) * w + x] : 0);
	.loc 1 84 31 discriminator 5 view .LVU335
	mov	DWORD PTR [rcx+rax*4], r12d	# MEM[(value_type &)_1239 + ivtmp.583_1197 * 4], _1078
	.loc 1 82 9 is_stmt 1 discriminator 1 view .LVU336
.LVL72:
	.loc 1 82 27 discriminator 2 view .LVU337
	inc	rax	# ivtmp.583
.LVL73:
	.loc 1 82 27 is_stmt 0 discriminator 2 view .LVU338
	cmp	r8, rax	# _989, ivtmp.583
	jne	.L29	#,
.LBE2537:
.LBE2541:
# src/avx_analysis_code_ablations/opt10_abl_tile_8x256.cpp:80:     for (int y = 0; y < h; ++y) {
	.loc 1 80 5 discriminator 1 view .LVU339
	mov	edx, DWORD PTR 264[rsp]	# y, %sfp
	.loc 1 80 5 is_stmt 1 discriminator 1 view .LVU340
# src/avx_analysis_code_ablations/opt10_abl_tile_8x256.cpp:80:     for (int y = 0; y < h; ++y) {
	.loc 1 80 23 is_stmt 0 discriminator 2 view .LVU341
	add	rsi, r11	# ivtmp.596, _508
	add	rcx, r9	# ivtmp.599, _819
# src/avx_analysis_code_ablations/opt10_abl_tile_8x256.cpp:80:     for (int y = 0; y < h; ++y) {
	.loc 1 80 5 discriminator 1 view .LVU342
	inc	edx	# y
.LVL74:
	.loc 1 80 23 is_stmt 1 discriminator 2 view .LVU343
	cmp	r14d, edx	# _2, y
	jg	.L30	#,
.LVL75:
.L26:
	.loc 1 80 23 is_stmt 0 discriminator 2 view .LVU344
.LBE2531:
	.loc 1 90 5 is_stmt 1 view .LVU345
	.loc 1 91 5 view .LVU346
	.loc 1 94 5 view .LVU347
.LBB2542:
.LBI2542:
	.loc 5 168 7 view .LVU348
.LBB2543:
.LBI2543:
	.loc 6 88 7 view .LVU349
	.loc 6 88 7 is_stmt 0 view .LVU350
.LBE2543:
.LBE2542:
.LBB2544:
.LBI2544:
	.loc 2 576 7 is_stmt 1 view .LVU351
.LBB2545:
.LBI2545:
	.loc 2 2203 7 view .LVU352
.LBB2546:
.LBI2546:
	.loc 5 172 7 view .LVU353
.LBB2547:
.LBI2547:
	.loc 6 92 7 view .LVU354
	.loc 6 92 7 is_stmt 0 view .LVU355
.LBE2547:
.LBE2546:
.LBB2548:
.LBI2548:
	.loc 5 189 7 is_stmt 1 view .LVU356
.LBB2549:
.LBI2549:
	.loc 6 104 7 view .LVU357
	.loc 6 104 7 is_stmt 0 view .LVU358
.LBE2549:
.LBE2548:
.LBE2545:
.LBB2550:
.LBI2550:
	.loc 2 339 7 is_stmt 1 view .LVU359
.LBB2551:
.LBI2551:
	.loc 2 152 2 view .LVU360
.LBB2552:
.LBI2552:
	.loc 5 172 7 view .LVU361
.LBB2553:
.LBI2553:
	.loc 6 92 7 view .LVU362
	.loc 6 92 7 is_stmt 0 view .LVU363
.LBE2553:
.LBE2552:
.LBB2554:
.LBI2554:
	.loc 2 105 2 is_stmt 1 view .LVU364
	.loc 2 105 2 is_stmt 0 view .LVU365
.LBE2554:
.LBE2551:
.LBB2555:
.LBI2555:
	.loc 2 405 7 is_stmt 1 view .LVU366
.LBB2556:
.LBI2556:
	.loc 2 386 7 view .LVU367
.LBB2557:
.LBB2558:
.LBI2558:
	.loc 8 637 7 view .LVU368
.LBB2559:
.LBI2559:
	.loc 6 129 7 view .LVU369
.LBB2560:
# /usr/include/c++/16/bits/new_allocator.h:162: 	  return static_cast<_Tp*>(_GLIBCXX_OPERATOR_NEW(__n * sizeof(_Tp)));
	.loc 6 162 68 is_stmt 0 view .LVU370
	mov	edi, 24576	#,
.LEHB3:
	call	"_Znwm"@PLT	#
.LVL76:
.LEHE3:
.LBE2560:
.LBE2559:
.LBE2558:
.LBE2557:
.LBE2556:
.LBE2555:
.LBE2550:
.LBB2573:
.LBB2574:
.LBB2575:
.LBB2576:
.LBB2577:
.LBB2578:
.LBB2579:
.LBB2580:
.LBB2581:
# /usr/include/c++/16/bits/stl_construct.h:133:       ::new(static_cast<void*>(__p)) _Tp(std::forward<_Args>(__args)...);
	.loc 11 133 7 discriminator 1 view .LVU371
	mov	DWORD PTR [rax], 0x00000000	# *_613,
.LBE2581:
.LBE2580:
.LBB2582:
.LBB2583:
.LBB2584:
.LBB2585:
.LBB2586:
.LBB2587:
# /usr/include/c++/16/bits/stl_algobase.h:923: 	*__first = __val;
	.loc 10 923 11 view .LVU372
	xor	esi, esi	#
.LBE2587:
.LBE2586:
.LBE2585:
.LBE2584:
.LBE2583:
.LBE2582:
# /usr/include/c++/16/bits/stl_uninitialized.h:946: 	      ++__first;
	.loc 12 946 8 view .LVU373
	lea	rdi, 4[rax]	# __first_614,
.LBB2603:
.LBB2600:
.LBB2597:
.LBB2594:
.LBB2591:
.LBB2588:
# /usr/include/c++/16/bits/stl_algobase.h:923: 	*__first = __val;
	.loc 10 923 11 view .LVU374
	mov	edx, 24572	#,
.LBE2588:
.LBE2591:
.LBE2594:
.LBE2597:
.LBE2600:
.LBE2603:
.LBE2579:
.LBE2578:
.LBE2577:
.LBE2576:
.LBE2575:
.LBE2574:
.LBE2573:
.LBB2619:
.LBB2571:
.LBB2569:
.LBB2567:
.LBB2565:
.LBB2563:
.LBB2561:
# /usr/include/c++/16/bits/new_allocator.h:162: 	  return static_cast<_Tp*>(_GLIBCXX_OPERATOR_NEW(__n * sizeof(_Tp)));
	.loc 6 162 68 view .LVU375
	mov	QWORD PTR 40[rsp], rax	# %sfp, _613
.LVL77:
	.loc 6 162 68 view .LVU376
.LBE2561:
.LBE2563:
.LBE2565:
.LBE2567:
.LBE2569:
.LBE2571:
.LBE2619:
.LBB2620:
.LBI2573:
	.loc 2 1998 7 is_stmt 1 view .LVU377
.LBB2617:
.LBI2574:
	.loc 12 1051 5 view .LVU378
.LBB2615:
.LBI2575:
	.loc 12 982 5 view .LVU379
.LBB2613:
.LBB2611:
.LBI2577:
	.loc 12 939 9 view .LVU380
.LBB2609:
.LBI2578:
	.loc 12 939 9 view .LVU381
.LBB2607:
.LBB2604:
.LBI2580:
	.loc 11 123 5 view .LVU382
	.loc 11 123 5 is_stmt 0 view .LVU383
.LBE2604:
.LBB2605:
.LBI2582:
	.loc 10 1179 5 is_stmt 1 view .LVU384
.LBB2601:
.LBI2583:
	.loc 10 1141 5 view .LVU385
.LBB2598:
.LBB2595:
.LBI2585:
	.loc 10 976 5 view .LVU386
.LBB2592:
.LBI2586:
	.loc 10 895 5 view .LVU387
.LBB2589:
	.loc 10 922 22 discriminator 2 view .LVU388
.LBE2589:
.LBE2592:
.LBE2595:
.LBE2598:
.LBE2601:
.LBE2605:
.LBE2607:
.LBE2609:
.LBE2611:
.LBE2613:
.LBE2615:
.LBE2617:
.LBE2620:
.LBB2621:
.LBB2572:
.LBB2570:
.LBB2568:
.LBB2566:
.LBB2564:
.LBB2562:
# /usr/include/c++/16/bits/new_allocator.h:162: 	  return static_cast<_Tp*>(_GLIBCXX_OPERATOR_NEW(__n * sizeof(_Tp)));
	.loc 6 162 68 is_stmt 0 view .LVU389
	mov	r13, rax	# _613,
.LBE2562:
.LBE2564:
.LBE2566:
.LBE2568:
.LBE2570:
.LBE2572:
.LBE2621:
.LBB2622:
.LBB2618:
.LBB2616:
.LBB2614:
.LBB2612:
.LBB2610:
.LBB2608:
.LBB2606:
.LBB2602:
.LBB2599:
.LBB2596:
.LBB2593:
.LBB2590:
# /usr/include/c++/16/bits/stl_algobase.h:923: 	*__first = __val;
	.loc 10 923 11 view .LVU390
	call	"memset"@PLT	#
.LVL78:
	.loc 10 923 11 view .LVU391
.LBE2590:
.LBE2593:
.LBE2596:
.LBE2599:
.LBE2602:
.LBE2606:
.LBE2608:
.LBE2610:
.LBE2612:
.LBE2614:
.LBE2616:
.LBE2618:
.LBE2622:
.LBE2544:
.LBB2623:
	.loc 1 96 25 is_stmt 1 discriminator 2 view .LVU392
	test	r14d, r14d	# _2
	jle	.L31	#,
	mov	edi, DWORD PTR 104[rsp]	#, %sfp
	test	edi, edi	#
	jle	.L31	#,
.LBB2624:
.LBB2625:
.LBB2626:
.LBB2627:
.LBB2628:
.LBB2629:
.LBB2630:
# src/avx_analysis_code_ablations/opt10_abl_tile_8x256.cpp:124:                     size_t ind_lbot = ind_ltop + width * 3;
	.loc 1 124 56 is_stmt 0 view .LVU393
	mov	rax, QWORD PTR 160[rsp]	# _336, %sfp
.LBE2630:
.LBE2629:
.LBE2628:
.LBE2627:
.LBB2790:
.LBB2791:
.LBB2792:
.LBB2793:
# src/avx_analysis_code_ablations/opt10_abl_tile_8x256.cpp:182:                     float inv_c = 1.0f / static_cast<float>(c);
	.loc 1 182 27 view .LVU394
	mov	QWORD PTR 32[rsp], r15	# %sfp, _26
	vxorps	xmm5, xmm5, xmm5	# tmp1583
.LBE2793:
.LBE2792:
.LBE2791:
.LBE2790:
.LBB2816:
.LBB2785:
.LBB2741:
.LBB2730:
# src/avx_analysis_code_ablations/opt10_abl_tile_8x256.cpp:124:                     size_t ind_lbot = ind_ltop + width * 3;
	.loc 1 124 56 view .LVU395
	xor	edx, edx	# ivtmp.581
.LBE2730:
.LBE2741:
.LBE2785:
.LBE2816:
.LBB2817:
.LBB2812:
.LBB2807:
.LBB2800:
# src/avx_analysis_code_ablations/opt10_abl_tile_8x256.cpp:182:                     float inv_c = 1.0f / static_cast<float>(c);
	.loc 1 182 27 view .LVU396
	vmovss	xmm23, DWORD PTR .LC1[rip]	# tmp1562,
	mov	QWORD PTR 24[rsp], rbx	# %sfp, _433
	mov	r8, r13	# _613, _613
	xor	ebx, ebx	# _71
.LBE2800:
.LBE2807:
.LBE2812:
.LBE2817:
.LBB2818:
.LBB2786:
.LBB2742:
.LBB2731:
# src/avx_analysis_code_ablations/opt10_abl_tile_8x256.cpp:124:                     size_t ind_lbot = ind_ltop + width * 3;
	.loc 1 124 56 view .LVU397
	lea	rdi, [rax+rax*2]	# _91,
.LBE2731:
.LBE2742:
.LBE2786:
.LBE2818:
.LBB2819:
.LBB2813:
.LBB2808:
.LBB2801:
# src/avx_analysis_code_ablations/opt10_abl_tile_8x256.cpp:182:                     float inv_c = 1.0f / static_cast<float>(c);
	.loc 1 182 27 view .LVU398
	lea	r12, 0[0+rax*8]	# _1149,
.LBE2801:
.LBE2808:
.LBE2813:
.LBE2819:
.LBB2820:
.LBB2787:
.LBB2743:
.LBB2732:
# src/avx_analysis_code_ablations/opt10_abl_tile_8x256.cpp:124:                     size_t ind_lbot = ind_ltop + width * 3;
	.loc 1 124 56 view .LVU399
	mov	QWORD PTR 192[rsp], rdi	# %sfp, _91
	add	rdi, 3	# _1136,
	mov	QWORD PTR 184[rsp], rdi	# %sfp, _1136
.LVL79:
.L50:
	.loc 1 124 56 view .LVU400
.LBE2732:
.LBE2743:
.LBE2787:
.LBE2820:
.LBE2626:
.LBE2625:
	.loc 1 97 9 is_stmt 1 view .LVU401
	mov	r15d, ebx	# ty, _71
# src/avx_analysis_code_ablations/opt10_abl_tile_8x256.cpp:97:         const int tile_y_end = std::min(ty + TILE_H, h);
	.loc 1 97 44 is_stmt 0 view .LVU402
	add	ebx, 8	# _71,
.LVL80:
.LBB2854:
.LBI2854:
	.loc 10 232 5 is_stmt 1 view .LVU403
	.loc 10 232 5 is_stmt 0 view .LVU404
.LBE2854:
	.loc 1 98 9 is_stmt 1 view .LVU405
	.loc 1 100 9 view .LVU406
.LBB2859:
	.loc 1 100 29 discriminator 2 view .LVU407
.LBE2859:
.LBB2860:
.LBB2855:
# /usr/include/c++/16/bits/stl_algobase.h:237:       if (__b < __a)
	.loc 10 237 7 is_stmt 0 view .LVU408
	mov	eax, r14d	# _435, _2
.LBE2855:
.LBE2860:
# src/avx_analysis_code_ablations/opt10_abl_tile_8x256.cpp:98:         const int tile_h_actual = tile_y_end - ty;
	.loc 1 98 19 view .LVU409
	mov	QWORD PTR 152[rsp], 0	# %sfp,
.LBB2861:
.LBB2856:
# /usr/include/c++/16/bits/stl_algobase.h:237:       if (__b < __a)
	.loc 10 237 7 view .LVU410
	cmp	ebx, r14d	# _71, _2
.LBE2856:
.LBE2861:
# src/avx_analysis_code_ablations/opt10_abl_tile_8x256.cpp:98:         const int tile_h_actual = tile_y_end - ty;
	.loc 1 98 19 view .LVU411
	mov	DWORD PTR 48[rsp], r14d	# %sfp, _2
.LBB2862:
.LBB2857:
# /usr/include/c++/16/bits/stl_algobase.h:237:       if (__b < __a)
	.loc 10 237 7 view .LVU412
	cmovle	eax, ebx	# _71,, _435
.LBE2857:
.LBE2862:
# src/avx_analysis_code_ablations/opt10_abl_tile_8x256.cpp:98:         const int tile_h_actual = tile_y_end - ty;
	.loc 1 98 19 view .LVU413
	mov	DWORD PTR 20[rsp], ebx	# %sfp, _71
	mov	QWORD PTR 8[rsp], r12	# %sfp, _1149
.LBB2863:
.LBB2858:
# /usr/include/c++/16/bits/stl_algobase.h:237:       if (__b < __a)
	.loc 10 237 7 view .LVU414
	mov	DWORD PTR 140[rsp], eax	# %sfp, _435
.LBE2858:
.LBE2863:
# src/avx_analysis_code_ablations/opt10_abl_tile_8x256.cpp:98:         const int tile_h_actual = tile_y_end - ty;
	.loc 1 98 19 view .LVU415
	sub	eax, r15d	# tile_h_actual, ty
	mov	DWORD PTR 52[rsp], eax	# %sfp, tile_h_actual
	mov	QWORD PTR 56[rsp], rdx	# %sfp, ivtmp.581
.LVL81:
.L49:
.LBB2864:
.LBB2851:
# src/avx_analysis_code_ablations/opt10_abl_tile_8x256.cpp:101:             const int tile_x_end = std::min(tx + TILE_W, w);
	.loc 1 101 48 view .LVU416
	mov	eax, DWORD PTR 152[rsp]	# tmp1822, %sfp
.LBB2821:
.LBB2822:
# /usr/include/c++/16/bits/stl_algobase.h:237:       if (__b < __a)
	.loc 10 237 7 view .LVU417
	mov	edi, DWORD PTR 104[rsp]	# _1, %sfp
	mov	ebx, DWORD PTR 152[rsp]	# tx, %sfp
.LVL82:
	.loc 10 237 7 view .LVU418
.LBE2822:
.LBE2821:
	.loc 1 101 13 is_stmt 1 view .LVU419
.LBB2825:
.LBI2821:
	.loc 10 232 5 view .LVU420
.LBE2825:
# src/avx_analysis_code_ablations/opt10_abl_tile_8x256.cpp:101:             const int tile_x_end = std::min(tx + TILE_W, w);
	.loc 1 101 48 is_stmt 0 view .LVU421
	add	eax, 256	# _145,
.LVL83:
.LBB2826:
.LBB2823:
# /usr/include/c++/16/bits/stl_algobase.h:237:       if (__b < __a)
	.loc 10 237 7 view .LVU422
	cmp	eax, edi	# _145, _1
	cmovg	eax, edi	# _145,, _145, _1
.LBE2823:
.LBE2826:
# src/avx_analysis_code_ablations/opt10_abl_tile_8x256.cpp:102:             const int tile_w_actual = tile_x_end - tx;
	.loc 1 102 23 view .LVU423
	mov	r13d, eax	# tile_w_actual, _75
.LBB2827:
.LBB2824:
# /usr/include/c++/16/bits/stl_algobase.h:237:       if (__b < __a)
	.loc 10 237 7 view .LVU424
	mov	r12d, eax	# _75, _145
.LVL84:
	.loc 10 237 7 view .LVU425
.LBE2824:
.LBE2827:
	.loc 1 102 13 is_stmt 1 view .LVU426
# src/avx_analysis_code_ablations/opt10_abl_tile_8x256.cpp:106:                       tile_vals.begin() + tile_h_actual * tile_w_actual * 3,
	.loc 1 106 57 is_stmt 0 view .LVU427
	mov	eax, DWORD PTR 52[rsp]	# _73, %sfp
# src/avx_analysis_code_ablations/opt10_abl_tile_8x256.cpp:102:             const int tile_w_actual = tile_x_end - tx;
	.loc 1 102 23 view .LVU428
	sub	r13d, DWORD PTR 152[rsp]	#, %sfp
.LVL85:
	.loc 1 105 13 is_stmt 1 view .LVU429
.LBB2828:
.LBI2828:
	.loc 2 988 7 view .LVU430
.LBB2829:
.LBI2829:
	.loc 3 1058 7 view .LVU431
	.loc 3 1058 7 is_stmt 0 view .LVU432
.LBE2829:
.LBE2828:
.LBB2830:
.LBI2830:
	.loc 3 1147 7 is_stmt 1 view .LVU433
.LBB2831:
.LBB2832:
.LBI2832:
	.loc 3 1058 7 view .LVU434
	.loc 3 1058 7 is_stmt 0 view .LVU435
.LBE2832:
.LBE2831:
.LBE2830:
.LBB2834:
.LBI2834:
	.loc 2 988 7 is_stmt 1 view .LVU436
.LBB2835:
.LBI2835:
	.loc 3 1058 7 view .LVU437
	.loc 3 1058 7 is_stmt 0 view .LVU438
.LBE2835:
.LBE2834:
.LBB2836:
.LBI2836:
	.loc 10 1001 5 is_stmt 1 view .LVU439
.LBB2837:
.LBI2837:
	.loc 10 976 5 view .LVU440
.LBB2838:
.LBI2838:
	.loc 10 956 5 view .LVU441
.LBB2839:
.LBI2839:
	.loc 10 895 5 view .LVU442
.LBB2840:
	.loc 10 922 22 discriminator 2 view .LVU443
.LBE2840:
.LBE2839:
.LBE2838:
.LBE2837:
.LBE2836:
# src/avx_analysis_code_ablations/opt10_abl_tile_8x256.cpp:106:                       tile_vals.begin() + tile_h_actual * tile_w_actual * 3,
	.loc 1 106 57 is_stmt 0 view .LVU444
	imul	eax, r13d	# _73, tile_w_actual
# src/avx_analysis_code_ablations/opt10_abl_tile_8x256.cpp:106:                       tile_vals.begin() + tile_h_actual * tile_w_actual * 3,
	.loc 1 106 73 view .LVU445
	lea	edx, [rax+rax*2]	# _74,
.LBB2845:
.LBB2833:
# /usr/include/c++/16/bits/stl_iterator.h:1148:       { return __normal_iterator(_M_current + __n); }
	.loc 3 1148 47 view .LVU446
	movsxd	rdx, edx	# __n.55_284, _74
.LBE2833:
.LBE2845:
.LBB2846:
.LBB2844:
.LBB2843:
.LBB2842:
.LBB2841:
# /usr/include/c++/16/bits/stl_algobase.h:922:       for (; __first != __last; ++__first)
	.loc 10 922 22 discriminator 2 view .LVU447
	sal	rdx, 2	# _283,
	je	.L32	#,
	vmovaps	XMMWORD PTR 272[rsp], xmm5	# %sfp, tmp1583
# /usr/include/c++/16/bits/stl_algobase.h:923: 	*__first = __val;
	.loc 10 923 11 view .LVU448
	xor	esi, esi	#
	mov	rdi, r8	#, _613
	vzeroupper
.LVL86:
	call	"memset"@PLT	#
.LVL87:
	vmovaps	xmm5, XMMWORD PTR 272[rsp]	# tmp1583, %sfp
	vmovss	xmm23, DWORD PTR .LC1[rip]	# tmp1562,
	mov	r8, rax	# _613,
.L32:
.LVL88:
	.loc 10 923 11 view .LVU449
.LBE2841:
.LBE2842:
.LBE2843:
.LBE2844:
.LBE2846:
.LBB2847:
	.loc 1 110 39 is_stmt 1 discriminator 5 view .LVU450
# src/avx_analysis_code_ablations/opt10_abl_tile_8x256.cpp:110:             for (const SubParams& p : params) {
	.loc 1 110 39 is_stmt 0 discriminator 6 view .LVU451
	mov	rax, QWORD PTR 88[rsp]	# __new_finish, %sfp
	cmp	QWORD PTR 144[rsp], rax	# %sfp, __new_finish
	je	.L33	#,
	mov	QWORD PTR 240[rsp], rax	# %sfp, __new_finish
	lea	eax, 0[r13+r13*2]	# _600,
	cdqe
	mov	DWORD PTR 108[rsp], r13d	# %sfp, tile_w_actual
	sal	rax, 2	# _605,
	mov	QWORD PTR 96[rsp], r8	# %sfp, _613
	mov	r8d, DWORD PTR 140[rsp]	# _435, %sfp
	mov	QWORD PTR 200[rsp], rax	# %sfp, _605
.LVL89:
	.p2align 4,,10
	.p2align 3
.L43:
.LBB2788:
	.loc 1 111 17 is_stmt 1 view .LVU452
.LBB2744:
.LBI2744:
	.loc 10 256 5 view .LVU453
.LBB2745:
# /usr/include/c++/16/bits/stl_algobase.h:261:       if (__a < __b)
	.loc 10 261 7 is_stmt 0 view .LVU454
	mov	rdi, QWORD PTR 240[rsp]	# ivtmp.569, %sfp
	mov	eax, DWORD PTR 32[rdi]	# tmp1618, MEM[(const int &)_137 + 32]
.LBE2745:
.LBE2744:
.LBB2749:
.LBB2750:
# /usr/include/c++/16/bits/stl_algobase.h:237:       if (__b < __a)
	.loc 10 237 7 view .LVU455
	mov	edx, DWORD PTR 28[rdi]	# tmp1621, MEM[(const int &)_137 + 28]
.LBE2750:
.LBE2749:
.LBB2752:
.LBB2746:
# /usr/include/c++/16/bits/stl_algobase.h:261:       if (__a < __b)
	.loc 10 261 7 view .LVU456
	cmp	r15d, eax	# ty, tmp1618
	mov	esi, eax	# tmp1618, tmp1618
.LBE2746:
.LBE2752:
.LBB2753:
.LBB2754:
# /usr/include/c++/16/bits/stl_algobase.h:237:       if (__b < __a)
	.loc 10 237 7 view .LVU457
	mov	eax, DWORD PTR 36[rdi]	# tmp1619, MEM[(const int &)_137 + 36]
.LBE2754:
.LBE2753:
.LBB2758:
.LBB2747:
# /usr/include/c++/16/bits/stl_algobase.h:261:       if (__a < __b)
	.loc 10 261 7 view .LVU458
	cmovge	esi, r15d	# ty,, tmp1618
.LBE2747:
.LBE2758:
.LBB2759:
.LBB2755:
# /usr/include/c++/16/bits/stl_algobase.h:237:       if (__b < __a)
	.loc 10 237 7 view .LVU459
	cmp	r8d, eax	# _435, tmp1619
	cmovle	eax, r8d	# _435,, tmp1619
.LBE2755:
.LBE2759:
.LBB2760:
.LBB2748:
# /usr/include/c++/16/bits/stl_algobase.h:261:       if (__a < __b)
	.loc 10 261 7 view .LVU460
	mov	DWORD PTR 248[rsp], esi	# %sfp, y
.LVL90:
	.loc 10 261 7 view .LVU461
.LBE2748:
.LBE2760:
	.loc 1 112 17 is_stmt 1 view .LVU462
.LBB2761:
.LBI2753:
	.loc 10 232 5 view .LVU463
.LBB2756:
# /usr/include/c++/16/bits/stl_algobase.h:237:       if (__b < __a)
	.loc 10 237 7 is_stmt 0 view .LVU464
	mov	DWORD PTR 216[rsp], eax	# %sfp, _445
.LVL91:
	.loc 10 237 7 view .LVU465
.LBE2756:
.LBE2761:
	.loc 1 113 17 is_stmt 1 view .LVU466
.LBB2762:
.LBI2762:
	.loc 10 256 5 view .LVU467
.LBE2762:
.LBB2764:
.LBB2757:
# /usr/include/c++/16/bits/stl_algobase.h:237:       if (__b < __a)
	.loc 10 237 7 is_stmt 0 view .LVU468
	mov	ecx, eax	# _445, tmp1619
.LBE2757:
.LBE2764:
.LBB2765:
.LBB2763:
# /usr/include/c++/16/bits/stl_algobase.h:261:       if (__a < __b)
	.loc 10 261 7 view .LVU469
	mov	eax, DWORD PTR 24[rdi]	# tmp1620, MEM[(const int &)_137 + 24]
	cmp	ebx, eax	# tx, tmp1620
	cmovge	eax, ebx	# tx,, _444
.LVL92:
	.loc 10 261 7 view .LVU470
.LBE2763:
.LBE2765:
	.loc 1 114 17 is_stmt 1 view .LVU471
.LBB2766:
.LBI2749:
	.loc 10 232 5 view .LVU472
.LBB2751:
# /usr/include/c++/16/bits/stl_algobase.h:237:       if (__b < __a)
	.loc 10 237 7 is_stmt 0 view .LVU473
	cmp	r12d, edx	# _75, tmp1621
	cmovle	edx, r12d	# _75,, _442
.LVL93:
	.loc 10 237 7 view .LVU474
.LBE2751:
.LBE2766:
	.loc 1 115 17 is_stmt 1 view .LVU475
	cmp	edx, eax	# _442, _444
	jle	.L34	#,
	mov	r14d, esi	# y, y
	cmp	esi, ecx	# y, _445
	jge	.L34	#,
	.loc 1 117 17 view .LVU476
.LBB2767:
.LBB2733:
# src/avx_analysis_code_ablations/opt10_abl_tile_8x256.cpp:131:                                 + (x_begin - tx) * 3;
	.loc 1 131 44 is_stmt 0 view .LVU477
	mov	ecx, eax	# _96, _444
# src/avx_analysis_code_ablations/opt10_abl_tile_8x256.cpp:134:                     const int x_stop = (x_end - tx) * 3;
	.loc 1 134 47 view .LVU478
	sub	edx, ebx	# _101, tx
	mov	esi, esi	# _690, y
# src/avx_analysis_code_ablations/opt10_abl_tile_8x256.cpp:123:                     size_t ind_ltop = ((y + p.sy) * width + (x_begin + p.sx)) * 3;
	.loc 1 123 70 view .LVU479
	add	eax, DWORD PTR [rdi]	# _88, MEM[(int *)_137]
# src/avx_analysis_code_ablations/opt10_abl_tile_8x256.cpp:131:                                 + (x_begin - tx) * 3;
	.loc 1 131 44 view .LVU480
	sub	ecx, ebx	# _96, tx
# src/avx_analysis_code_ablations/opt10_abl_tile_8x256.cpp:134:                     const int x_stop = (x_end - tx) * 3;
	.loc 1 134 31 view .LVU481
	lea	r9d, [rdx+rdx*2]	# x_stop_271,
# src/avx_analysis_code_ablations/opt10_abl_tile_8x256.cpp:123:                     size_t ind_ltop = ((y + p.sy) * width + (x_begin + p.sx)) * 3;
	.loc 1 123 70 view .LVU482
	cdqe
.LBE2733:
.LBE2767:
# src/avx_analysis_code_ablations/opt10_abl_tile_8x256.cpp:117:                 const __m256 Avx = _mm256_set1_ps(p.A);
	.loc 1 117 53 view .LVU483
	vmovss	xmm18, DWORD PTR 8[rdi]	# _79, MEM[(float *)_137 + 8B]
.LBB2768:
.LBB2734:
# src/avx_analysis_code_ablations/opt10_abl_tile_8x256.cpp:131:                                 + (x_begin - tx) * 3;
	.loc 1 131 50 view .LVU484
	lea	r10d, [rcx+rcx*2]	# _97,
	movsxd	rcx, ecx	# _568, _96
.LBE2734:
.LBE2768:
# src/avx_analysis_code_ablations/opt10_abl_tile_8x256.cpp:118:                 const __m256 Bvx = _mm256_set1_ps(p.B);
	.loc 1 118 53 view .LVU485
	vmovss	xmm17, DWORD PTR 12[rdi]	# _80, MEM[(float *)_137 + 12B]
# src/avx_analysis_code_ablations/opt10_abl_tile_8x256.cpp:119:                 const __m256 Cvx = _mm256_set1_ps(p.C);
	.loc 1 119 53 view .LVU486
	vmovss	xmm16, DWORD PTR 16[rdi]	# _81, MEM[(float *)_137 + 16B]
.LBB2769:
.LBB2735:
.LBB2631:
# src/avx_analysis_code_ablations/opt10_abl_tile_8x256.cpp:137:                     for (; x + 8 <= x_stop; x += 8) {
	.loc 1 137 34 discriminator 2 view .LVU487
	lea	edx, 7[r10]	# _221,
.LBE2631:
.LBE2735:
.LBE2769:
# src/avx_analysis_code_ablations/opt10_abl_tile_8x256.cpp:120:                 const __m256 Dvx = _mm256_set1_ps(p.D);
	.loc 1 120 53 view .LVU488
	vmovss	xmm15, DWORD PTR 20[rdi]	# _82, MEM[(float *)_137 + 20B]
.LBB2770:
.LBB2736:
# src/avx_analysis_code_ablations/opt10_abl_tile_8x256.cpp:131:                                 + (x_begin - tx) * 3;
	.loc 1 131 50 view .LVU489
	mov	DWORD PTR 136[rsp], r10d	# %sfp, _97
.LBE2736:
.LBE2770:
# src/avx_analysis_code_ablations/opt10_abl_tile_8x256.cpp:117:                 const __m256 Avx = _mm256_set1_ps(p.A);
	.loc 1 117 53 view .LVU490
	vbroadcastss	ymm11, xmm18	# tmp1614, _79
.LVL94:
.LBB2771:
.LBI2771:
	.file 13 "/usr/lib/gcc/x86_64-linux-gnu/16/include/avxintrin.h"
	.loc 13 1271 1 is_stmt 1 view .LVU491
.LBB2772:
	.loc 13 1273 3 view .LVU492
.LBE2772:
.LBE2771:
.LBB2774:
.LBB2737:
.LBB2706:
# src/avx_analysis_code_ablations/opt10_abl_tile_8x256.cpp:137:                     for (; x + 8 <= x_stop; x += 8) {
	.loc 1 137 34 is_stmt 0 discriminator 2 view .LVU493
	mov	DWORD PTR 212[rsp], edx	# %sfp, _221
	movsxd	rdx, DWORD PTR 4[rdi]	# _978, MEM[(int *)_137 + 4B]
.LBE2706:
.LBE2737:
.LBE2774:
# src/avx_analysis_code_ablations/opt10_abl_tile_8x256.cpp:118:                 const __m256 Bvx = _mm256_set1_ps(p.B);
	.loc 1 118 53 view .LVU494
	vbroadcastss	ymm12, xmm17	# tmp1615, _80
# src/avx_analysis_code_ablations/opt10_abl_tile_8x256.cpp:119:                 const __m256 Cvx = _mm256_set1_ps(p.C);
	.loc 1 119 53 view .LVU495
	vbroadcastss	ymm13, xmm16	# tmp1616, _81
.LBB2775:
.LBB2738:
# src/avx_analysis_code_ablations/opt10_abl_tile_8x256.cpp:134:                     const int x_stop = (x_end - tx) * 3;
	.loc 1 134 31 view .LVU496
	mov	DWORD PTR 220[rsp], r9d	# %sfp, x_stop_271
.LBE2738:
.LBE2775:
# src/avx_analysis_code_ablations/opt10_abl_tile_8x256.cpp:120:                 const __m256 Dvx = _mm256_set1_ps(p.D);
	.loc 1 120 53 view .LVU497
	vbroadcastss	ymm10, xmm15	# tmp1617, _82
.LBB2776:
.LBB2773:
# /usr/lib/gcc/x86_64-linux-gnu/16/include/avxintrin.h:1274: 				 __A, __A, __A, __A };
	.loc 13 1274 25 view .LVU498
	vmovaps	ymm3, ymm11	# _264, tmp1614
.LVL95:
	.loc 13 1274 25 view .LVU499
.LBE2773:
.LBE2776:
	.loc 1 118 17 is_stmt 1 view .LVU500
.LBB2777:
.LBI2777:
	.loc 13 1271 1 view .LVU501
.LBB2778:
	.loc 13 1273 3 view .LVU502
# /usr/lib/gcc/x86_64-linux-gnu/16/include/avxintrin.h:1274: 				 __A, __A, __A, __A };
	.loc 13 1274 25 is_stmt 0 view .LVU503
	vmovaps	ymm2, ymm12	# _269, tmp1615
.LVL96:
	.loc 13 1274 25 view .LVU504
.LBE2778:
.LBE2777:
	.loc 1 119 17 is_stmt 1 view .LVU505
.LBB2779:
.LBI2779:
	.loc 13 1271 1 view .LVU506
.LBB2780:
	.loc 13 1273 3 view .LVU507
	add	rdx, rsi	# _677, _690
	mov	DWORD PTR 124[rsp], r12d	# %sfp, _75
# /usr/lib/gcc/x86_64-linux-gnu/16/include/avxintrin.h:1274: 				 __A, __A, __A, __A };
	.loc 13 1274 25 is_stmt 0 view .LVU508
	vmovaps	ymm1, ymm13	# _280, tmp1616
.LVL97:
	.loc 13 1274 25 view .LVU509
.LBE2780:
.LBE2779:
	.loc 1 120 17 is_stmt 1 view .LVU510
.LBB2781:
.LBI2781:
	.loc 13 1271 1 view .LVU511
.LBB2782:
	.loc 13 1273 3 view .LVU512
# /usr/lib/gcc/x86_64-linux-gnu/16/include/avxintrin.h:1274: 				 __A, __A, __A, __A };
	.loc 13 1274 25 is_stmt 0 view .LVU513
	vmovaps	ymm0, ymm10	# _281, tmp1617
.LVL98:
	.loc 13 1274 25 view .LVU514
.LBE2782:
.LBE2781:
	.loc 1 122 17 is_stmt 1 view .LVU515
.LBB2783:
	.loc 1 122 41 discriminator 2 view .LVU516
	imul	rdx, QWORD PTR 160[rsp]	# _615, %sfp
	mov	DWORD PTR 120[rsp], r8d	# %sfp, _435
	mov	DWORD PTR 116[rsp], ebx	# %sfp, tx
	mov	DWORD PTR 112[rsp], r15d	# %sfp, ty
	add	rdx, rax	# _976, _89
	mov	eax, r14d	# _583, y
	sub	eax, r15d	# _583, ty
	lea	r11, [rdx+rdx*2]	# ivtmp.558,
	mov	rdx, QWORD PTR 96[rsp]	# _613, %sfp
	imul	eax, DWORD PTR 108[rsp]	# _971, %sfp
	cdqe
	add	rax, rcx	# _566, _568
	lea	rax, [rax+rax*2]	# _969,
	lea	rax, [rdx+rax*4]	# ivtmp.562,
	mov	QWORD PTR 224[rsp], rax	# %sfp, ivtmp.562
	lea	eax, -8[r9]	# _180,
	sub	eax, r10d	# _392, _97
	mov	edx, eax	# _1031, _392
	shr	eax, 3	# _569,
	and	edx, -8	# _1031,
	inc	rax	# _1142
	lea	edx, 8[r10+rdx]	# x,
	mov	DWORD PTR 208[rsp], edx	# %sfp, x
	mov	rdx, rax	# _625, _1142
	sal	rax, 3	# _850,
	sal	rdx, 5	# _625,
	mov	QWORD PTR 168[rsp], rax	# %sfp, _850
	mov	QWORD PTR 176[rsp], rdx	# %sfp, _625
	.p2align 4,,10
	.p2align 3
.L42:
.LVL99:
.LBB2739:
	.loc 1 123 21 view .LVU517
	.loc 1 124 21 view .LVU518
	mov	rdx, r11	# ivtmp.558, ivtmp.558
# src/avx_analysis_code_ablations/opt10_abl_tile_8x256.cpp:131:                                 + (x_begin - tx) * 3;
	.loc 1 131 52 is_stmt 0 view .LVU519
	mov	rdi, QWORD PTR 224[rsp]	# ivtmp.562, %sfp
.LBB2707:
# src/avx_analysis_code_ablations/opt10_abl_tile_8x256.cpp:137:                     for (; x + 8 <= x_stop; x += 8) {
	.loc 1 137 34 discriminator 2 view .LVU520
	mov	ecx, DWORD PTR 220[rsp]	# x_stop_271, %sfp
.LBE2707:
# src/avx_analysis_code_ablations/opt10_abl_tile_8x256.cpp:125:                     size_t ind_rtop = ind_ltop + 3;
	.loc 1 125 28 view .LVU521
	lea	rax, 3[rdx]	# ind_rtop,
# src/avx_analysis_code_ablations/opt10_abl_tile_8x256.cpp:124:                     size_t ind_lbot = ind_ltop + width * 3;
	.loc 1 124 28 view .LVU522
	add	r11, QWORD PTR 192[rsp]	# ivtmp.558, %sfp
.LVL100:
	.loc 1 125 21 is_stmt 1 view .LVU523
# src/avx_analysis_code_ablations/opt10_abl_tile_8x256.cpp:125:                     size_t ind_rtop = ind_ltop + 3;
	.loc 1 125 28 is_stmt 0 view .LVU524
	mov	QWORD PTR 272[rsp], rax	# %sfp, ind_rtop
.LVL101:
	.loc 1 126 21 is_stmt 1 view .LVU525
# src/avx_analysis_code_ablations/opt10_abl_tile_8x256.cpp:126:                     size_t ind_rbot = ind_lbot + 3;
	.loc 1 126 28 is_stmt 0 view .LVU526
	mov	rax, QWORD PTR 184[rsp]	# _1136, %sfp
.LVL102:
	.loc 1 126 28 view .LVU527
	lea	r15, [rax+rdx]	# ind_rbot,
.LVL103:
	.loc 1 129 21 is_stmt 1 view .LVU528
# src/avx_analysis_code_ablations/opt10_abl_tile_8x256.cpp:131:                                 + (x_begin - tx) * 3;
	.loc 1 131 52 is_stmt 0 view .LVU529
	mov	rax, rdi	# vp, ivtmp.562
	.loc 1 133 21 is_stmt 1 view .LVU530
	.loc 1 134 21 view .LVU531
.LVL104:
	.loc 1 137 21 view .LVU532
.LBB2708:
	.loc 1 137 34 discriminator 2 view .LVU533
	cmp	DWORD PTR 212[rsp], ecx	# %sfp, x_stop_271
	jge	.L69	#,
	mov	rbx, QWORD PTR 240[rsp]	# ivtmp.569, %sfp
	add	rdi, QWORD PTR 176[rsp]	# vp, %sfp
	mov	rcx, QWORD PTR 40[rbx]	# ivtmp.550, MEM[(const unsigned char * *)_137 + 40B]
	add	rcx, r11	# ivtmp.550, ivtmp.558
.LVL105:
	.p2align 4,,10
	.p2align 3
.L36:
.LBB2632:
	.loc 1 138 25 view .LVU534
.LBB2633:
.LBI2633:
	.file 14 "/usr/lib/gcc/x86_64-linux-gnu/16/include/emmintrin.h"
	.loc 14 711 1 view .LVU535
.LBB2634:
	.loc 14 713 3 view .LVU536
	mov	rsi, rcx	# _70, ivtmp.550
.LBE2634:
.LBE2633:
.LBB2640:
.LBB2641:
# /usr/lib/gcc/x86_64-linux-gnu/16/include/avx2intrin.h:491:   return (__m256i) __builtin_ia32_pmovzxbd256 ((__v16qi)__X);
	.file 15 "/usr/lib/gcc/x86_64-linux-gnu/16/include/avx2intrin.h"
	.loc 15 491 47 is_stmt 0 view .LVU537
	vpmovzxbd	ymm6, QWORD PTR [rcx]	# tmp992, MEM[(__m64_u * {ref-all})_948]
.LBE2641:
.LBE2640:
.LBB2643:
.LBB2644:
	vpmovzxbd	ymm4, QWORD PTR 3[rcx]	# tmp1002, MEM[(__m64_u * {ref-all})_948 + 3B]
.LBE2644:
.LBE2643:
# src/avx_analysis_code_ablations/opt10_abl_tile_8x256.cpp:155:                         vp += 8;
	.loc 1 155 28 view .LVU538
	add	rax, 32	# vp,
.LVL106:
	.loc 1 155 28 view .LVU539
	sub	rsi, r11	# _70, ivtmp.558
.LVL107:
.LBB2646:
.LBB2639:
.LBB2635:
.LBI2635:
	.loc 14 600 1 is_stmt 1 view .LVU540
.LBB2636:
	.loc 14 602 3 view .LVU541
.LBB2637:
.LBI2637:
	.loc 14 594 1 view .LVU542
.LBB2638:
	.loc 14 596 3 view .LVU543
	.loc 14 596 3 is_stmt 0 view .LVU544
.LBE2638:
.LBE2637:
.LBE2636:
.LBE2635:
.LBE2639:
.LBE2646:
	.loc 1 139 25 is_stmt 1 view .LVU545
.LBB2647:
.LBI2647:
	.loc 14 711 1 view .LVU546
.LBB2648:
	.loc 14 713 3 view .LVU547
.LBB2649:
.LBI2649:
	.loc 14 600 1 view .LVU548
.LBB2650:
	.loc 14 602 3 view .LVU549
.LBB2651:
.LBI2651:
	.loc 14 594 1 view .LVU550
.LBB2652:
	.loc 14 596 3 view .LVU551
	.loc 14 596 3 is_stmt 0 view .LVU552
.LBE2652:
.LBE2651:
.LBE2650:
.LBE2649:
.LBE2648:
.LBE2647:
	.loc 1 140 25 is_stmt 1 view .LVU553
.LBB2653:
.LBI2653:
	.loc 14 711 1 view .LVU554
.LBB2654:
	.loc 14 713 3 view .LVU555
.LBB2655:
.LBI2655:
	.loc 14 600 1 view .LVU556
.LBB2656:
	.loc 14 602 3 view .LVU557
.LBB2657:
.LBI2657:
	.loc 14 594 1 view .LVU558
.LBB2658:
	.loc 14 596 3 view .LVU559
	.loc 14 596 3 is_stmt 0 view .LVU560
.LBE2658:
.LBE2657:
.LBE2656:
.LBE2655:
.LBE2654:
.LBE2653:
	.loc 1 141 25 is_stmt 1 view .LVU561
.LBB2659:
.LBI2659:
	.loc 14 711 1 view .LVU562
.LBB2660:
	.loc 14 713 3 view .LVU563
.LBB2661:
.LBI2661:
	.loc 14 600 1 view .LVU564
.LBB2662:
	.loc 14 602 3 view .LVU565
.LBB2663:
.LBI2663:
	.loc 14 594 1 view .LVU566
.LBB2664:
	.loc 14 596 3 view .LVU567
	.loc 14 596 3 is_stmt 0 view .LVU568
.LBE2664:
.LBE2663:
.LBE2662:
.LBE2661:
.LBE2660:
.LBE2659:
	.loc 1 143 25 is_stmt 1 view .LVU569
.LBB2665:
.LBI2665:
	.loc 15 489 1 view .LVU570
.LBB2666:
	.loc 15 491 3 view .LVU571
.LBE2666:
.LBE2665:
.LBE2632:
# src/avx_analysis_code_ablations/opt10_abl_tile_8x256.cpp:137:                     for (; x + 8 <= x_stop; x += 8) {
	.loc 1 137 34 is_stmt 0 discriminator 2 view .LVU572
	add	rcx, 8	# ivtmp.550,
.LVL108:
.LBB2705:
.LBB2668:
.LBB2667:
# /usr/lib/gcc/x86_64-linux-gnu/16/include/avx2intrin.h:491:   return (__m256i) __builtin_ia32_pmovzxbd256 ((__v16qi)__X);
	.loc 15 491 47 view .LVU573
	vpmovzxbd	ymm8, QWORD PTR [rsi+rdx]	# tmp987, MEM[(__m64_u * {ref-all})_70 + ivtmp.558_993 * 1]
.LVL109:
	.loc 15 491 47 view .LVU574
.LBE2667:
.LBE2668:
.LBB2669:
.LBI2669:
	.loc 13 405 1 is_stmt 1 view .LVU575
.LBB2670:
	.loc 13 407 3 view .LVU576
.LBE2670:
.LBE2669:
.LBB2672:
.LBB2673:
# /usr/lib/gcc/x86_64-linux-gnu/16/include/avx2intrin.h:491:   return (__m256i) __builtin_ia32_pmovzxbd256 ((__v16qi)__X);
	.loc 15 491 47 is_stmt 0 view .LVU577
	vpmovzxbd	ymm7, QWORD PTR 3[rsi+rdx]	# tmp997, MEM[(__m64_u * {ref-all})_70 + 3B + ivtmp.558_993 * 1]
.LBE2673:
.LBE2672:
.LBB2675:
.LBB2676:
# /usr/lib/gcc/x86_64-linux-gnu/16/include/avxintrin.h:407:   return (__m256)__builtin_ia32_cvtdq2ps256 ((__v8si) __A);
	.loc 13 407 10 view .LVU578
	vcvtdq2ps	ymm6, ymm6	# tmp996, tmp992
.LBE2676:
.LBE2675:
.LBB2678:
.LBB2679:
	vcvtdq2ps	ymm4, ymm4	# tmp1006, tmp1002
.LBE2679:
.LBE2678:
.LBB2681:
.LBB2671:
	vcvtdq2ps	ymm8, ymm8	# tmp991, tmp987
.LVL110:
	.loc 13 407 10 view .LVU579
.LBE2671:
.LBE2681:
	.loc 1 144 25 is_stmt 1 view .LVU580
.LBB2682:
.LBI2640:
	.loc 15 489 1 view .LVU581
.LBB2642:
	.loc 15 491 3 view .LVU582
.LBE2642:
.LBE2682:
.LBB2683:
.LBI2675:
	.loc 13 405 1 view .LVU583
.LBB2677:
	.loc 13 407 3 view .LVU584
	.loc 13 407 3 is_stmt 0 view .LVU585
.LBE2677:
.LBE2683:
	.loc 1 145 25 is_stmt 1 view .LVU586
.LBB2684:
.LBI2672:
	.loc 15 489 1 view .LVU587
.LBB2674:
	.loc 15 491 3 view .LVU588
	.loc 15 491 3 is_stmt 0 view .LVU589
.LBE2674:
.LBE2684:
.LBB2685:
.LBI2685:
	.loc 13 405 1 is_stmt 1 view .LVU590
.LBB2686:
	.loc 13 407 3 view .LVU591
.LBE2686:
.LBE2685:
.LBB2688:
.LBB2689:
# /usr/lib/gcc/x86_64-linux-gnu/16/include/fmaintrin.h:65:   return (__m256)__builtin_ia32_vfmaddps256 ((__v8sf)__A, (__v8sf)__B,
	.file 16 "/usr/lib/gcc/x86_64-linux-gnu/16/include/fmaintrin.h"
	.loc 16 65 10 is_stmt 0 view .LVU592
	vfmadd213ps	ymm8, ymm3, YMMWORD PTR -32[rax]	# tmp1007, _264, MEM[(__m256_u * {ref-all})vp_686]
.LVL111:
	.loc 16 65 10 view .LVU593
.LBE2689:
.LBE2688:
.LBB2691:
.LBB2687:
# /usr/lib/gcc/x86_64-linux-gnu/16/include/avxintrin.h:407:   return (__m256)__builtin_ia32_cvtdq2ps256 ((__v8si) __A);
	.loc 13 407 10 view .LVU594
	vcvtdq2ps	ymm7, ymm7	# tmp1001, tmp997
.LVL112:
	.loc 13 407 10 view .LVU595
.LBE2687:
.LBE2691:
	.loc 1 146 25 is_stmt 1 view .LVU596
.LBB2692:
.LBI2643:
	.loc 15 489 1 view .LVU597
.LBB2645:
	.loc 15 491 3 view .LVU598
.LBE2645:
.LBE2692:
.LBB2693:
.LBI2678:
	.loc 13 405 1 view .LVU599
.LBB2680:
	.loc 13 407 3 view .LVU600
	.loc 13 407 3 is_stmt 0 view .LVU601
.LBE2680:
.LBE2693:
	.loc 1 148 25 is_stmt 1 view .LVU602
.LBB2694:
.LBI2694:
	.loc 13 847 1 view .LVU603
.LBB2695:
	.loc 13 849 3 view .LVU604
.LBE2695:
.LBE2694:
	.loc 1 149 25 view .LVU605
.LBB2696:
.LBI2688:
	.loc 16 63 1 view .LVU606
.LBB2690:
	.loc 16 65 3 view .LVU607
	.loc 16 65 3 is_stmt 0 view .LVU608
.LBE2690:
.LBE2696:
	.loc 1 150 25 is_stmt 1 view .LVU609
.LBB2697:
.LBI2697:
	.loc 16 63 1 view .LVU610
.LBB2698:
	.loc 16 65 3 view .LVU611
# /usr/lib/gcc/x86_64-linux-gnu/16/include/fmaintrin.h:65:   return (__m256)__builtin_ia32_vfmaddps256 ((__v8sf)__A, (__v8sf)__B,
	.loc 16 65 10 is_stmt 0 view .LVU612
	vfmadd132ps	ymm7, ymm8, ymm2	# tmp1009, tmp1007, _269
.LVL113:
	.loc 16 65 10 view .LVU613
.LBE2698:
.LBE2697:
	.loc 1 151 25 is_stmt 1 view .LVU614
.LBB2699:
.LBI2699:
	.loc 16 63 1 view .LVU615
.LBB2700:
	.loc 16 65 3 view .LVU616
# /usr/lib/gcc/x86_64-linux-gnu/16/include/fmaintrin.h:65:   return (__m256)__builtin_ia32_vfmaddps256 ((__v8sf)__A, (__v8sf)__B,
	.loc 16 65 10 is_stmt 0 view .LVU617
	vfmadd132ps	ymm6, ymm7, ymm1	# tmp1010, tmp1009, _280
.LVL114:
	.loc 16 65 10 view .LVU618
.LBE2700:
.LBE2699:
	.loc 1 152 25 is_stmt 1 view .LVU619
.LBB2701:
.LBI2701:
	.loc 16 63 1 view .LVU620
.LBB2702:
	.loc 16 65 3 view .LVU621
# /usr/lib/gcc/x86_64-linux-gnu/16/include/fmaintrin.h:65:   return (__m256)__builtin_ia32_vfmaddps256 ((__v8sf)__A, (__v8sf)__B,
	.loc 16 65 10 is_stmt 0 view .LVU622
	vfmadd132ps	ymm4, ymm6, ymm0	# tmp1011, tmp1010, _281
.LVL115:
	.loc 16 65 10 view .LVU623
.LBE2702:
.LBE2701:
	.loc 1 153 25 is_stmt 1 view .LVU624
.LBB2703:
.LBI2703:
	.loc 13 853 1 view .LVU625
.LBB2704:
	.loc 13 855 3 view .LVU626
# /usr/lib/gcc/x86_64-linux-gnu/16/include/avxintrin.h:855:   *(__m256_u *)__P = __A;
	.loc 13 855 20 is_stmt 0 view .LVU627
	vmovups	YMMWORD PTR -32[rax], ymm4	# MEM[(__m256_u * {ref-all})vp_686], tmp1011
.LVL116:
	.loc 13 855 20 view .LVU628
.LBE2704:
.LBE2703:
	.loc 1 155 25 is_stmt 1 view .LVU629
	.loc 1 156 25 view .LVU630
	.loc 1 156 40 view .LVU631
	.loc 1 157 25 view .LVU632
	.loc 1 157 40 view .LVU633
.LBE2705:
	.loc 1 137 21 discriminator 1 view .LVU634
	.loc 1 137 34 discriminator 2 view .LVU635
	cmp	rax, rdi	# vp, vp
	jne	.L36	#,
	mov	rdi, QWORD PTR 168[rsp]	# _850, %sfp
	mov	ecx, DWORD PTR 208[rsp]	# x, %sfp
.LVL117:
	.loc 1 137 34 is_stmt 0 discriminator 2 view .LVU636
	lea	rbx, [r11+rdi]	# ind_lbot,
	add	QWORD PTR 272[rsp], rdi	# %sfp, _850
	add	r15, rdi	# ind_rbot, _850
	add	rdx, rdi	# ivtmp.558, _850
.LVL118:
	.loc 1 137 34 discriminator 2 view .LVU637
	mov	QWORD PTR 232[rsp], rbx	# %sfp, ind_lbot
.LVL119:
.L35:
	.loc 1 137 34 discriminator 2 view .LVU638
.LBE2708:
	.loc 1 161 21 is_stmt 1 view .LVU639
# src/avx_analysis_code_ablations/opt10_abl_tile_8x256.cpp:161:                     int remaining = x_stop - x;
	.loc 1 161 25 is_stmt 0 view .LVU640
	mov	ebx, DWORD PTR 220[rsp]	# remaining, %sfp
	sub	ebx, ecx	# remaining, x
	mov	DWORD PTR 264[rsp], ebx	# %sfp, remaining
.LVL120:
	.loc 1 162 21 is_stmt 1 view .LVU641
.LBB2709:
	.loc 1 162 39 discriminator 2 view .LVU642
	test	ebx, ebx	# remaining
	jle	.L37	#,
.LBB2710:
# src/avx_analysis_code_ablations/opt10_abl_tile_8x256.cpp:163:                         float TL = p.SUB[ind_ltop + k];
	.loc 1 163 38 is_stmt 0 view .LVU643
	mov	rdi, QWORD PTR 240[rsp]	# ivtmp.569, %sfp
	lea	ecx, -1[rbx]	# _847,
	mov	rdi, QWORD PTR 40[rdi]	# _108, MEM[(const unsigned char * *)_137 + 40B]
	cmp	ecx, 30	# _847,
	jbe	.L70	#,
	shr	ebx, 5	# bnd.355,
.LVL121:
	.loc 1 163 38 view .LVU644
	lea	r13, [rdi+r15]	# vectp.359,
	lea	rsi, [rdi+rdx]	# tmp1542,
	mov	r8, rax	# ivtmp.522, vp
	mov	r10d, ebx	# bnd.355, bnd.355
	mov	rbx, QWORD PTR 232[rsp]	# ind_lbot, %sfp
	xor	r9d, r9d	# ivtmp.524
	lea	rcx, [rdi+rbx]	# tmp1540,
	mov	rbx, QWORD PTR 272[rsp]	# ind_rtop, %sfp
	lea	r12, [rdi+rbx]	# vectp.371,
	mov	ebx, r10d	# _62, bnd.355
	sal	rbx, 5	# _1061,
.LVL122:
	.p2align 4,,10
	.p2align 3
.L39:
	.loc 1 163 25 is_stmt 1 view .LVU645
# src/avx_analysis_code_ablations/opt10_abl_tile_8x256.cpp:165:                         float BL = p.SUB[ind_lbot + k];
	.loc 1 165 54 is_stmt 0 discriminator 40960 view .LVU646
	vmovdqu	ymm8, YMMWORD PTR [rcx+r9]	# MEM <const vector(32) unsigned char> [(const unsigned char *)vectp.365_816 + ivtmp.524_1113 * 1], MEM <const vector(32) unsigned char> [(const unsigned char *)vectp.365_816 + ivtmp.524_1113 * 1]
# src/avx_analysis_code_ablations/opt10_abl_tile_8x256.cpp:164:                         float TR = p.SUB[ind_rtop + k];
	.loc 1 164 54 discriminator 40960 view .LVU647
	vmovdqu	ymm4, YMMWORD PTR [r12+r9]	# MEM <const vector(32) unsigned char> [(const unsigned char *)vectp.371_798 + ivtmp.524_1113 * 1], MEM <const vector(32) unsigned char> [(const unsigned char *)vectp.371_798 + ivtmp.524_1113 * 1]
	sub	r8, -128	# ivtmp.522,
# src/avx_analysis_code_ablations/opt10_abl_tile_8x256.cpp:163:                         float TL = p.SUB[ind_ltop + k];
	.loc 1 163 54 discriminator 40960 view .LVU648
	vmovdqu	ymm7, YMMWORD PTR [rsi+r9]	# MEM <const vector(32) unsigned char> [(const unsigned char *)vectp.383_771 + ivtmp.524_1113 * 1], MEM <const vector(32) unsigned char> [(const unsigned char *)vectp.383_771 + ivtmp.524_1113 * 1]
# src/avx_analysis_code_ablations/opt10_abl_tile_8x256.cpp:165:                         float BL = p.SUB[ind_lbot + k];
	.loc 1 165 31 discriminator 40960 view .LVU649
	vpmovzxbw	ymm6, xmm8	#, MEM <const vector(32) unsigned char> [(const unsigned char *)vectp.365_816 + ivtmp.524_1113 * 1]
# src/avx_analysis_code_ablations/opt10_abl_tile_8x256.cpp:164:                         float TR = p.SUB[ind_rtop + k];
	.loc 1 164 31 discriminator 40960 view .LVU650
	vpmovzxbw	ymm9, xmm4	#, MEM <const vector(32) unsigned char> [(const unsigned char *)vectp.371_798 + ivtmp.524_1113 * 1]
# src/avx_analysis_code_ablations/opt10_abl_tile_8x256.cpp:165:                         float BL = p.SUB[ind_lbot + k];
	.loc 1 165 31 discriminator 40960 view .LVU651
	vextracti32x4	xmm8, ymm8, 0x1	# tmp1024, MEM <const vector(32) unsigned char> [(const unsigned char *)vectp.365_816 + ivtmp.524_1113 * 1]
	vpmovsxwd	ymm19, xmm6	#, vect_BL_276.368
	vextracti32x4	xmm6, ymm6, 0x1	# tmp1037, vect_BL_276.368
# src/avx_analysis_code_ablations/opt10_abl_tile_8x256.cpp:164:                         float TR = p.SUB[ind_rtop + k];
	.loc 1 164 31 discriminator 40960 view .LVU652
	vpmovsxwd	ymm14, xmm9	#, vect_TR_275.374
# src/avx_analysis_code_ablations/opt10_abl_tile_8x256.cpp:165:                         float BL = p.SUB[ind_lbot + k];
	.loc 1 165 31 discriminator 40960 view .LVU653
	vpmovsxwd	ymm6, xmm6	# tmp1036, tmp1037
# src/avx_analysis_code_ablations/opt10_abl_tile_8x256.cpp:164:                         float TR = p.SUB[ind_rtop + k];
	.loc 1 164 31 discriminator 40960 view .LVU654
	vextracti32x4	xmm9, ymm9, 0x1	# tmp1034, vect_TR_275.374
# src/avx_analysis_code_ablations/opt10_abl_tile_8x256.cpp:165:                         float BL = p.SUB[ind_lbot + k];
	.loc 1 165 31 discriminator 40960 view .LVU655
	vpmovzxbw	ymm8, xmm8	# vect_BL_276.368, tmp1024
	vcvtdq2ps	ymm19, ymm19	# vect_BL_276.367_810, tmp1029
# src/avx_analysis_code_ablations/opt10_abl_tile_8x256.cpp:164:                         float TR = p.SUB[ind_rtop + k];
	.loc 1 164 31 discriminator 40960 view .LVU656
	vcvtdq2ps	ymm14, ymm14	# vect_TR_275.373_792, tmp1026
# src/avx_analysis_code_ablations/opt10_abl_tile_8x256.cpp:165:                         float BL = p.SUB[ind_lbot + k];
	.loc 1 165 31 discriminator 40960 view .LVU657
	vcvtdq2ps	ymm6, ymm6	# vect_BL_276.367_809, tmp1036
# src/avx_analysis_code_ablations/opt10_abl_tile_8x256.cpp:167:                         vp[k] += p.A*TL + p.B*TR + p.C*BL + p.D*BR;
	.loc 1 167 55 discriminator 40960 view .LVU658
	vmulps	ymm6, ymm6, ymm1	# vect__131.369_805, vect_BL_276.367_809, _280
# src/avx_analysis_code_ablations/opt10_abl_tile_8x256.cpp:164:                         float TR = p.SUB[ind_rtop + k];
	.loc 1 164 31 discriminator 40960 view .LVU659
	vpmovsxwd	ymm9, xmm9	# tmp1033, tmp1034
# src/avx_analysis_code_ablations/opt10_abl_tile_8x256.cpp:165:                         float BL = p.SUB[ind_lbot + k];
	.loc 1 165 31 discriminator 40960 view .LVU660
	vextracti32x4	xmm20, ymm8, 0x1	# tmp1051, vect_BL_276.368
# src/avx_analysis_code_ablations/opt10_abl_tile_8x256.cpp:167:                         vp[k] += p.A*TL + p.B*TR + p.C*BL + p.D*BR;
	.loc 1 167 55 discriminator 40960 view .LVU661
	vmulps	ymm19, ymm19, ymm1	# vect__131.369_806, vect_BL_276.367_810, _280
# src/avx_analysis_code_ablations/opt10_abl_tile_8x256.cpp:164:                         float TR = p.SUB[ind_rtop + k];
	.loc 1 164 31 discriminator 40960 view .LVU662
	vcvtdq2ps	ymm9, ymm9	# vect_TR_275.373_791, tmp1033
# src/avx_analysis_code_ablations/opt10_abl_tile_8x256.cpp:163:                         float TL = p.SUB[ind_ltop + k];
	.loc 1 163 31 discriminator 40960 view .LVU663
	vpmovzxbw	ymm22, xmm7	#, MEM <const vector(32) unsigned char> [(const unsigned char *)vectp.383_771 + ivtmp.524_1113 * 1]
# src/avx_analysis_code_ablations/opt10_abl_tile_8x256.cpp:164:                         float TR = p.SUB[ind_rtop + k];
	.loc 1 164 31 discriminator 40960 view .LVU664
	vextracti32x4	xmm4, ymm4, 0x1	# tmp1021, MEM <const vector(32) unsigned char> [(const unsigned char *)vectp.371_798 + ivtmp.524_1113 * 1]
# src/avx_analysis_code_ablations/opt10_abl_tile_8x256.cpp:165:                         float BL = p.SUB[ind_lbot + k];
	.loc 1 165 31 discriminator 40960 view .LVU665
	vpmovsxwd	ymm20, xmm20	# tmp1050, tmp1051
# src/avx_analysis_code_ablations/opt10_abl_tile_8x256.cpp:164:                         float TR = p.SUB[ind_rtop + k];
	.loc 1 164 31 discriminator 40960 view .LVU666
	vpmovzxbw	ymm4, xmm4	# vect_TR_275.374, tmp1021
# src/avx_analysis_code_ablations/opt10_abl_tile_8x256.cpp:163:                         float TL = p.SUB[ind_ltop + k];
	.loc 1 163 31 discriminator 40960 view .LVU667
	vextracti32x4	xmm7, ymm7, 0x1	# tmp1018, MEM <const vector(32) unsigned char> [(const unsigned char *)vectp.383_771 + ivtmp.524_1113 * 1]
# src/avx_analysis_code_ablations/opt10_abl_tile_8x256.cpp:165:                         float BL = p.SUB[ind_lbot + k];
	.loc 1 165 31 discriminator 40960 view .LVU668
	vcvtdq2ps	ymm20, ymm20	# vect_BL_276.367_807, tmp1050
# src/avx_analysis_code_ablations/opt10_abl_tile_8x256.cpp:167:                         vp[k] += p.A*TL + p.B*TR + p.C*BL + p.D*BR;
	.loc 1 167 55 discriminator 40960 view .LVU669
	vmulps	ymm20, ymm20, ymm1	# vect__131.369_803, vect_BL_276.367_807, _280
# src/avx_analysis_code_ablations/opt10_abl_tile_8x256.cpp:163:                         float TL = p.SUB[ind_ltop + k];
	.loc 1 163 31 discriminator 40960 view .LVU670
	vpmovzxbw	ymm7, xmm7	# vect_TL_274.386, tmp1018
.LVL123:
	.loc 1 164 25 is_stmt 1 view .LVU671
	.loc 1 165 25 view .LVU672
	vfmadd132ps	ymm9, ymm6, ymm2	# _957, vect__131.369_805, _269
# src/avx_analysis_code_ablations/opt10_abl_tile_8x256.cpp:165:                         float BL = p.SUB[ind_lbot + k];
	.loc 1 165 31 is_stmt 0 discriminator 40960 view .LVU673
	vpmovsxwd	ymm6, xmm8	#, vect_BL_276.368
# src/avx_analysis_code_ablations/opt10_abl_tile_8x256.cpp:163:                         float TL = p.SUB[ind_ltop + k];
	.loc 1 163 31 discriminator 40960 view .LVU674
	vpmovsxwd	ymm8, xmm22	#, vect_TL_274.386
# src/avx_analysis_code_ablations/opt10_abl_tile_8x256.cpp:165:                         float BL = p.SUB[ind_lbot + k];
	.loc 1 165 31 discriminator 40960 view .LVU675
	vcvtdq2ps	ymm6, ymm6	# vect_BL_276.367_808, tmp1043
# src/avx_analysis_code_ablations/opt10_abl_tile_8x256.cpp:167:                         vp[k] += p.A*TL + p.B*TR + p.C*BL + p.D*BR;
	.loc 1 167 55 discriminator 40960 view .LVU676
	vmulps	ymm6, ymm6, ymm1	# vect__131.369_804, vect_BL_276.367_808, _280
	vfmadd132ps	ymm14, ymm19, ymm2	# _1088, vect__131.369_806, _269
# src/avx_analysis_code_ablations/opt10_abl_tile_8x256.cpp:163:                         float TL = p.SUB[ind_ltop + k];
	.loc 1 163 31 discriminator 40960 view .LVU677
	vcvtdq2ps	ymm8, ymm8	# vect_TL_274.385_765, tmp1061
# src/avx_analysis_code_ablations/opt10_abl_tile_8x256.cpp:164:                         float TR = p.SUB[ind_rtop + k];
	.loc 1 164 31 discriminator 40960 view .LVU678
	vpmovsxwd	ymm19, xmm4	#, vect_TR_275.374
	vfmadd213ps	ymm8, ymm3, YMMWORD PTR -128[r8]	# tmp1059, _264, MEM <vector(8) float> [(float *)_373]
	vcvtdq2ps	ymm19, ymm19	# vect_TR_275.373_790, tmp1040
	vfmadd132ps	ymm19, ymm6, ymm2	# _1108, vect__131.369_804, _269
	vextracti32x4	xmm6, ymm4, 0x1	# tmp1048, vect_TR_275.374
# src/avx_analysis_code_ablations/opt10_abl_tile_8x256.cpp:166:                         float BR = p.SUB[ind_rbot + k];
	.loc 1 166 54 discriminator 40960 view .LVU679
	vmovdqu	ymm4, YMMWORD PTR 0[r13+r9]	# MEM <const vector(32) unsigned char> [(const unsigned char *)vectp.359_834 + ivtmp.524_1113 * 1], MEM <const vector(32) unsigned char> [(const unsigned char *)vectp.359_834 + ivtmp.524_1113 * 1]
	add	r9, 32	# ivtmp.524,
# src/avx_analysis_code_ablations/opt10_abl_tile_8x256.cpp:164:                         float TR = p.SUB[ind_rtop + k];
	.loc 1 164 31 discriminator 40960 view .LVU680
	vpmovsxwd	ymm6, xmm6	# tmp1047, tmp1048
# src/avx_analysis_code_ablations/opt10_abl_tile_8x256.cpp:166:                         float BR = p.SUB[ind_rbot + k];
	.loc 1 166 31 discriminator 40960 view .LVU681
	vpmovzxbw	ymm21, xmm4	#, MEM <const vector(32) unsigned char> [(const unsigned char *)vectp.359_834 + ivtmp.524_1113 * 1]
# src/avx_analysis_code_ablations/opt10_abl_tile_8x256.cpp:164:                         float TR = p.SUB[ind_rtop + k];
	.loc 1 164 31 discriminator 40960 view .LVU682
	vcvtdq2ps	ymm6, ymm6	# vect_TR_275.373_789, tmp1047
	vfmadd132ps	ymm6, ymm20, ymm2	# _1083, vect__131.369_803, _269
.LVL124:
	.loc 1 166 25 is_stmt 1 view .LVU683
# src/avx_analysis_code_ablations/opt10_abl_tile_8x256.cpp:166:                         float BR = p.SUB[ind_rbot + k];
	.loc 1 166 31 is_stmt 0 discriminator 40960 view .LVU684
	vextracti32x4	xmm4, ymm4, 0x1	# tmp1055, MEM <const vector(32) unsigned char> [(const unsigned char *)vectp.359_834 + ivtmp.524_1113 * 1]
	vpmovsxwd	ymm20, xmm21	#, vect_BR_277.362
	vextracti32x4	xmm21, ymm21, 0x1	# tmp1066, vect_BR_277.362
	vpmovzxbw	ymm4, xmm4	# vect_BR_277.362, tmp1055
.LVL125:
	.loc 1 167 25 is_stmt 1 view .LVU685
# src/avx_analysis_code_ablations/opt10_abl_tile_8x256.cpp:166:                         float BR = p.SUB[ind_rbot + k];
	.loc 1 166 31 is_stmt 0 discriminator 40960 view .LVU686
	vcvtdq2ps	ymm20, ymm20	# vect_BR_277.361_828, tmp1057
	vfmadd132ps	ymm20, ymm8, ymm0	# _1094, tmp1059, _281
# src/avx_analysis_code_ablations/opt10_abl_tile_8x256.cpp:163:                         float TL = p.SUB[ind_ltop + k];
	.loc 1 163 31 discriminator 40960 view .LVU687
	vextracti32x4	xmm8, ymm22, 0x1	# tmp1070, vect_TL_274.386
# src/avx_analysis_code_ablations/opt10_abl_tile_8x256.cpp:166:                         float BR = p.SUB[ind_rbot + k];
	.loc 1 166 31 discriminator 40960 view .LVU688
	vpmovsxwd	ymm21, xmm21	# tmp1065, tmp1066
# src/avx_analysis_code_ablations/opt10_abl_tile_8x256.cpp:163:                         float TL = p.SUB[ind_ltop + k];
	.loc 1 163 31 discriminator 40960 view .LVU689
	vpmovsxwd	ymm8, xmm8	# tmp1069, tmp1070
# src/avx_analysis_code_ablations/opt10_abl_tile_8x256.cpp:166:                         float BR = p.SUB[ind_rbot + k];
	.loc 1 166 31 discriminator 40960 view .LVU690
	vcvtdq2ps	ymm21, ymm21	# vect_BR_277.361_827, tmp1065
	vpmovsxwd	ymm22, xmm4	#, vect_BR_277.362
	vextracti32x4	xmm4, ymm4, 0x1	# tmp1083, vect_BR_277.362
# src/avx_analysis_code_ablations/opt10_abl_tile_8x256.cpp:163:                         float TL = p.SUB[ind_ltop + k];
	.loc 1 163 31 discriminator 40960 view .LVU691
	vcvtdq2ps	ymm8, ymm8	# vect_TL_274.385_764, tmp1069
	vfmadd213ps	ymm8, ymm3, YMMWORD PTR -96[r8]	# tmp1067, _264, MEM <vector(8) float> [(float *)_373 + 32B]
# src/avx_analysis_code_ablations/opt10_abl_tile_8x256.cpp:166:                         float BR = p.SUB[ind_rbot + k];
	.loc 1 166 31 discriminator 40960 view .LVU692
	vpmovsxwd	ymm4, xmm4	# tmp1082, tmp1083
	vcvtdq2ps	ymm22, ymm22	# vect_BR_277.361_826, tmp1073
	vcvtdq2ps	ymm4, ymm4	# vect_BR_277.361_825, tmp1082
# src/avx_analysis_code_ablations/opt10_abl_tile_8x256.cpp:167:                         vp[k] += p.A*TL + p.B*TR + p.C*BL + p.D*BR;
	.loc 1 167 31 discriminator 40960 view .LVU693
	vaddps	ymm14, ymm14, ymm20	# vect__136.391_745, _1088, _1094
	vfmadd132ps	ymm21, ymm8, ymm0	# _1076, tmp1067, _281
# src/avx_analysis_code_ablations/opt10_abl_tile_8x256.cpp:163:                         float TL = p.SUB[ind_ltop + k];
	.loc 1 163 31 discriminator 40960 view .LVU694
	vpmovsxwd	ymm8, xmm7	#, vect_TL_274.386
	vextracti32x4	xmm7, ymm7, 0x1	# tmp1087, vect_TL_274.386
	vpmovsxwd	ymm7, xmm7	# tmp1086, tmp1087
	vcvtdq2ps	ymm8, ymm8	# vect_TL_274.385_763, tmp1077
	vfmadd213ps	ymm8, ymm3, YMMWORD PTR -64[r8]	# tmp1075, _264, MEM <vector(8) float> [(float *)_373 + 64B]
# src/avx_analysis_code_ablations/opt10_abl_tile_8x256.cpp:167:                         vp[k] += p.A*TL + p.B*TR + p.C*BL + p.D*BR;
	.loc 1 167 31 discriminator 40960 view .LVU695
	vmovups	YMMWORD PTR -128[r8], ymm14	# MEM <vector(8) float> [(float *)_373], vect__136.391_745
# src/avx_analysis_code_ablations/opt10_abl_tile_8x256.cpp:163:                         float TL = p.SUB[ind_ltop + k];
	.loc 1 163 31 discriminator 40960 view .LVU696
	vcvtdq2ps	ymm7, ymm7	# vect_TL_274.385_762, tmp1086
# src/avx_analysis_code_ablations/opt10_abl_tile_8x256.cpp:167:                         vp[k] += p.A*TL + p.B*TR + p.C*BL + p.D*BR;
	.loc 1 167 31 discriminator 40960 view .LVU697
	vfmadd213ps	ymm7, ymm3, YMMWORD PTR -32[r8]	# tmp1084, _264, MEM <vector(8) float> [(float *)_373 + 96B]
	vaddps	ymm9, ymm9, ymm21	# vect__136.391_744, _957, _1076
	vfmadd132ps	ymm22, ymm8, ymm0	# _295, tmp1075, _281
	vfmadd132ps	ymm4, ymm7, ymm0	# tmp1080, tmp1084, _281
	vmovups	YMMWORD PTR -96[r8], ymm9	# MEM <vector(8) float> [(float *)_373 + 32B], vect__136.391_744
	vaddps	ymm22, ymm22, ymm19	# vect__136.391_743, _295, _1108
	vaddps	ymm4, ymm4, ymm6	# vect__136.391, tmp1080, _1083
	vmovups	YMMWORD PTR -64[r8], ymm22	# MEM <vector(8) float> [(float *)_373 + 64B], vect__136.391_743
	vmovups	YMMWORD PTR -32[r8], ymm4	# MEM <vector(8) float> [(float *)_373 + 96B], vect__136.391
.LBE2710:
	.loc 1 162 21 is_stmt 1 discriminator 1 view .LVU698
	.loc 1 162 39 discriminator 2 view .LVU699
	cmp	rbx, r9	# _1061, ivtmp.524
	jne	.L39	#,
	sal	r10d, 5	# niters_vector_mult_vf.356,
	cmp	r10d, DWORD PTR 264[rsp]	# niters_vector_mult_vf.356, %sfp
	je	.L37	#,
	mov	r8d, r10d	# tmp.437, niters_vector_mult_vf.356
.LVL126:
.L38:
	.loc 1 162 39 is_stmt 0 discriminator 2 view .LVU700
	mov	r12d, DWORD PTR 264[rsp]	# niters.394, %sfp
	sub	r12d, r10d	# niters.394, niters_vector_mult_vf.356
	lea	r9d, -1[r12]	# _579,
	cmp	r9d, 14	# _579,
	jbe	.L71	#,
	mov	ebx, r10d	# _540, niters_vector_mult_vf.356
.LBB2711:
# src/avx_analysis_code_ablations/opt10_abl_tile_8x256.cpp:164:                         float TR = p.SUB[ind_rtop + k];
	.loc 1 164 54 discriminator 69632 view .LVU701
	mov	r13, QWORD PTR 272[rsp]	# ind_rtop, %sfp
# src/avx_analysis_code_ablations/opt10_abl_tile_8x256.cpp:165:                         float BL = p.SUB[ind_lbot + k];
	.loc 1 165 54 discriminator 69632 view .LVU702
	vmovdqu	xmm8, XMMWORD PTR [rcx+rbx]	# MEM <const vector(16) unsigned char> [(const unsigned char *)vectp.405_513], MEM <const vector(16) unsigned char> [(const unsigned char *)vectp.405_513]
	lea	r14, [rbx+r15]	# _538,
# src/avx_analysis_code_ablations/opt10_abl_tile_8x256.cpp:163:                         float TL = p.SUB[ind_ltop + k];
	.loc 1 163 54 discriminator 69632 view .LVU703
	vmovdqu	xmm7, XMMWORD PTR [rsi+rbx]	# MEM <const vector(16) unsigned char> [(const unsigned char *)vectp.423_352], MEM <const vector(16) unsigned char> [(const unsigned char *)vectp.423_352]
	lea	r9, [rax+rbx*4]	# vectp_vp.417,
	.loc 1 163 25 is_stmt 1 view .LVU704
	mov	QWORD PTR 256[rsp], r14	# %sfp, _538
# src/avx_analysis_code_ablations/opt10_abl_tile_8x256.cpp:164:                         float TR = p.SUB[ind_rtop + k];
	.loc 1 164 54 is_stmt 0 discriminator 69632 view .LVU705
	lea	r14, [rdi+rbx]	# tmp1103,
# src/avx_analysis_code_ablations/opt10_abl_tile_8x256.cpp:165:                         float BL = p.SUB[ind_lbot + k];
	.loc 1 165 31 discriminator 69632 view .LVU706
	vpmovzxbw	xmm6, xmm8	# vect_BL_868.408, MEM <const vector(16) unsigned char> [(const unsigned char *)vectp.405_513]
# src/avx_analysis_code_ablations/opt10_abl_tile_8x256.cpp:164:                         float TR = p.SUB[ind_rtop + k];
	.loc 1 164 54 discriminator 69632 view .LVU707
	vmovdqu	xmm4, XMMWORD PTR [r14+r13]	# MEM <const vector(16) unsigned char> [(const unsigned char *)vectp.411_447], MEM <const vector(16) unsigned char> [(const unsigned char *)vectp.411_447]
# src/avx_analysis_code_ablations/opt10_abl_tile_8x256.cpp:165:                         float BL = p.SUB[ind_lbot + k];
	.loc 1 165 31 discriminator 69632 view .LVU708
	vpsrldq	xmm8, xmm8, 8	# tmp1110, MEM <const vector(16) unsigned char> [(const unsigned char *)vectp.405_513],
# src/avx_analysis_code_ablations/opt10_abl_tile_8x256.cpp:163:                         float TL = p.SUB[ind_ltop + k];
	.loc 1 163 31 discriminator 69632 view .LVU709
	vpmovzxbw	xmm21, xmm7	# vect_TL_876.426, MEM <const vector(16) unsigned char> [(const unsigned char *)vectp.423_352]
# src/avx_analysis_code_ablations/opt10_abl_tile_8x256.cpp:165:                         float BL = p.SUB[ind_lbot + k];
	.loc 1 165 31 discriminator 69632 view .LVU710
	vpmovsxwd	xmm14, xmm6	# tmp1114, vect_BL_868.408
	vpsrldq	xmm6, xmm6, 8	# tmp1121, vect_BL_868.408,
	vpmovzxbw	xmm8, xmm8	# vect_BL_868.408, tmp1110
	vpmovsxwd	xmm6, xmm6	# tmp1120, tmp1121
# src/avx_analysis_code_ablations/opt10_abl_tile_8x256.cpp:164:                         float TR = p.SUB[ind_rtop + k];
	.loc 1 164 31 discriminator 69632 view .LVU711
	vpmovzxbw	xmm9, xmm4	# vect_TR_872.414, MEM <const vector(16) unsigned char> [(const unsigned char *)vectp.411_447]
# src/avx_analysis_code_ablations/opt10_abl_tile_8x256.cpp:165:                         float BL = p.SUB[ind_lbot + k];
	.loc 1 165 31 discriminator 69632 view .LVU712
	vcvtdq2ps	xmm14, xmm14	# vect_BL_868.407_487, tmp1114
# src/avx_analysis_code_ablations/opt10_abl_tile_8x256.cpp:163:                         float TL = p.SUB[ind_ltop + k];
	.loc 1 163 31 discriminator 69632 view .LVU713
	vpmovsxwd	xmm22, xmm21	# tmp1141, vect_TL_876.426
# src/avx_analysis_code_ablations/opt10_abl_tile_8x256.cpp:166:                         float BR = p.SUB[ind_rbot + k];
	.loc 1 166 54 discriminator 69632 view .LVU714
	mov	rbx, QWORD PTR 256[rsp]	# _538, %sfp
# src/avx_analysis_code_ablations/opt10_abl_tile_8x256.cpp:165:                         float BL = p.SUB[ind_lbot + k];
	.loc 1 165 31 discriminator 69632 view .LVU715
	vcvtdq2ps	xmm6, xmm6	# vect_BL_868.407_486, tmp1120
# src/avx_analysis_code_ablations/opt10_abl_tile_8x256.cpp:167:                         vp[k] += p.A*TL + p.B*TR + p.C*BL + p.D*BR;
	.loc 1 167 55 discriminator 69632 view .LVU716
	vmulps	xmm6, xmm6, xmm13	# vect__857.409_462, vect_BL_868.407_486, _1171
# src/avx_analysis_code_ablations/opt10_abl_tile_8x256.cpp:165:                         float BL = p.SUB[ind_lbot + k];
	.loc 1 165 31 discriminator 69632 view .LVU717
	vpsrldq	xmm20, xmm8, 8	# tmp1133, vect_BL_868.408,
# src/avx_analysis_code_ablations/opt10_abl_tile_8x256.cpp:164:                         float TR = p.SUB[ind_rtop + k];
	.loc 1 164 31 discriminator 69632 view .LVU718
	vpmovsxwd	xmm19, xmm9	# tmp1112, vect_TR_872.414
# src/avx_analysis_code_ablations/opt10_abl_tile_8x256.cpp:163:                         float TL = p.SUB[ind_ltop + k];
	.loc 1 163 31 discriminator 69632 view .LVU719
	vcvtdq2ps	xmm22, xmm22	# vect_TL_876.425_339, tmp1141
# src/avx_analysis_code_ablations/opt10_abl_tile_8x256.cpp:164:                         float TR = p.SUB[ind_rtop + k];
	.loc 1 164 31 discriminator 69632 view .LVU720
	vpsrldq	xmm9, xmm9, 8	# tmp1118, vect_TR_872.414,
	vpsrldq	xmm4, xmm4, 8	# tmp1106, MEM <const vector(16) unsigned char> [(const unsigned char *)vectp.411_447],
# src/avx_analysis_code_ablations/opt10_abl_tile_8x256.cpp:165:                         float BL = p.SUB[ind_lbot + k];
	.loc 1 165 31 discriminator 69632 view .LVU721
	vpmovsxwd	xmm20, xmm20	# tmp1132, tmp1133
# src/avx_analysis_code_ablations/opt10_abl_tile_8x256.cpp:164:                         float TR = p.SUB[ind_rtop + k];
	.loc 1 164 31 discriminator 69632 view .LVU722
	vcvtdq2ps	xmm19, xmm19	# vect_TR_872.413_406, tmp1112
	vpmovsxwd	xmm9, xmm9	# tmp1117, tmp1118
# src/avx_analysis_code_ablations/opt10_abl_tile_8x256.cpp:165:                         float BL = p.SUB[ind_lbot + k];
	.loc 1 165 31 discriminator 69632 view .LVU723
	vcvtdq2ps	xmm20, xmm20	# vect_BL_868.407_484, tmp1132
	vfmadd213ps	xmm22, xmm11, XMMWORD PTR [r9]	# tmp1139, _1234, MEM <vector(4) float> [(float *)vectp_vp.417_395]
# src/avx_analysis_code_ablations/opt10_abl_tile_8x256.cpp:164:                         float TR = p.SUB[ind_rtop + k];
	.loc 1 164 31 discriminator 69632 view .LVU724
	vpmovzxbw	xmm4, xmm4	# vect_TR_872.414, tmp1106
# src/avx_analysis_code_ablations/opt10_abl_tile_8x256.cpp:167:                         vp[k] += p.A*TL + p.B*TR + p.C*BL + p.D*BR;
	.loc 1 167 55 discriminator 69632 view .LVU725
	vmulps	xmm14, xmm14, xmm13	# vect__857.409_465, vect_BL_868.407_487, _1171
# src/avx_analysis_code_ablations/opt10_abl_tile_8x256.cpp:164:                         float TR = p.SUB[ind_rtop + k];
	.loc 1 164 31 discriminator 69632 view .LVU726
	vcvtdq2ps	xmm9, xmm9	# vect_TR_872.413_405, tmp1117
# src/avx_analysis_code_ablations/opt10_abl_tile_8x256.cpp:163:                         float TL = p.SUB[ind_ltop + k];
	.loc 1 163 31 discriminator 69632 view .LVU727
	vpsrldq	xmm7, xmm7, 8	# tmp1102, MEM <const vector(16) unsigned char> [(const unsigned char *)vectp.423_352],
# src/avx_analysis_code_ablations/opt10_abl_tile_8x256.cpp:167:                         vp[k] += p.A*TL + p.B*TR + p.C*BL + p.D*BR;
	.loc 1 167 55 discriminator 69632 view .LVU728
	vmulps	xmm20, xmm20, xmm13	# vect__857.409_456, vect_BL_868.407_484, _1171
# src/avx_analysis_code_ablations/opt10_abl_tile_8x256.cpp:163:                         float TL = p.SUB[ind_ltop + k];
	.loc 1 163 31 discriminator 69632 view .LVU729
	vpmovzxbw	xmm7, xmm7	# vect_TL_876.426, tmp1102
.LVL127:
	.loc 1 164 25 is_stmt 1 view .LVU730
	.loc 1 165 25 view .LVU731
	vfmadd132ps	xmm9, xmm6, xmm12	# _657, vect__857.409_462, _1196
# src/avx_analysis_code_ablations/opt10_abl_tile_8x256.cpp:165:                         float BL = p.SUB[ind_lbot + k];
	.loc 1 165 31 is_stmt 0 discriminator 69632 view .LVU732
	vpmovsxwd	xmm6, xmm8	# tmp1126, vect_BL_868.408
	vcvtdq2ps	xmm6, xmm6	# vect_BL_868.407_485, tmp1126
# src/avx_analysis_code_ablations/opt10_abl_tile_8x256.cpp:167:                         vp[k] += p.A*TL + p.B*TR + p.C*BL + p.D*BR;
	.loc 1 167 55 discriminator 69632 view .LVU733
	vmulps	xmm6, xmm6, xmm13	# vect__857.409_459, vect_BL_868.407_485, _1171
	vfmadd132ps	xmm19, xmm14, xmm12	# _741, vect__857.409_465, _1196
# src/avx_analysis_code_ablations/opt10_abl_tile_8x256.cpp:164:                         float TR = p.SUB[ind_rtop + k];
	.loc 1 164 31 discriminator 69632 view .LVU734
	vpmovsxwd	xmm14, xmm4	# tmp1124, vect_TR_872.414
	vcvtdq2ps	xmm14, xmm14	# vect_TR_872.413_403, tmp1124
	vfmadd132ps	xmm14, xmm6, xmm12	# _473, vect__857.409_459, _1196
	vpsrldq	xmm6, xmm4, 8	# tmp1130, vect_TR_872.414,
# src/avx_analysis_code_ablations/opt10_abl_tile_8x256.cpp:166:                         float BR = p.SUB[ind_rbot + k];
	.loc 1 166 54 discriminator 69632 view .LVU735
	vmovdqu	xmm4, XMMWORD PTR [rdi+rbx]	# MEM <const vector(16) unsigned char> [(const unsigned char *)vectp.399_541], MEM <const vector(16) unsigned char> [(const unsigned char *)vectp.399_541]
# src/avx_analysis_code_ablations/opt10_abl_tile_8x256.cpp:164:                         float TR = p.SUB[ind_rtop + k];
	.loc 1 164 31 discriminator 69632 view .LVU736
	vpmovsxwd	xmm6, xmm6	# tmp1129, tmp1130
# src/avx_analysis_code_ablations/opt10_abl_tile_8x256.cpp:166:                         float BR = p.SUB[ind_rbot + k];
	.loc 1 166 31 discriminator 69632 view .LVU737
	vpmovzxbw	xmm8, xmm4	# vect_BR_864.402, MEM <const vector(16) unsigned char> [(const unsigned char *)vectp.399_541]
# src/avx_analysis_code_ablations/opt10_abl_tile_8x256.cpp:164:                         float TR = p.SUB[ind_rtop + k];
	.loc 1 164 31 discriminator 69632 view .LVU738
	vcvtdq2ps	xmm6, xmm6	# vect_TR_872.413_402, tmp1129
	vfmadd132ps	xmm6, xmm20, xmm12	# _1127, vect__857.409_456, _1196
.LVL128:
	.loc 1 166 25 is_stmt 1 view .LVU739
# src/avx_analysis_code_ablations/opt10_abl_tile_8x256.cpp:166:                         float BR = p.SUB[ind_rbot + k];
	.loc 1 166 31 is_stmt 0 discriminator 69632 view .LVU740
	vpmovsxwd	xmm20, xmm8	# tmp1138, vect_BR_864.402
	vpsrldq	xmm4, xmm4, 8	# tmp1136, MEM <const vector(16) unsigned char> [(const unsigned char *)vectp.399_541],
	vcvtdq2ps	xmm20, xmm20	# vect_BR_864.401_529, tmp1138
	vfmadd132ps	xmm20, xmm22, xmm10	# _770, tmp1139, _1146
	vpsrldq	xmm22, xmm8, 8	# tmp1145, vect_BR_864.402,
	vpmovzxbw	xmm4, xmm4	# vect_BR_864.402, tmp1136
.LVL129:
	.loc 1 167 25 is_stmt 1 view .LVU741
# src/avx_analysis_code_ablations/opt10_abl_tile_8x256.cpp:163:                         float TL = p.SUB[ind_ltop + k];
	.loc 1 163 31 is_stmt 0 discriminator 69632 view .LVU742
	vpsrldq	xmm8, xmm21, 8	# tmp1149, vect_TL_876.426,
	vpmovsxwd	xmm21, xmm7	# tmp1155, vect_TL_876.426
# src/avx_analysis_code_ablations/opt10_abl_tile_8x256.cpp:166:                         float BR = p.SUB[ind_rbot + k];
	.loc 1 166 31 discriminator 69632 view .LVU743
	vpmovsxwd	xmm22, xmm22	# tmp1144, tmp1145
# src/avx_analysis_code_ablations/opt10_abl_tile_8x256.cpp:163:                         float TL = p.SUB[ind_ltop + k];
	.loc 1 163 31 discriminator 69632 view .LVU744
	vpmovsxwd	xmm8, xmm8	# tmp1148, tmp1149
	vpsrldq	xmm7, xmm7, 8	# tmp1164, vect_TL_876.426,
	vcvtdq2ps	xmm21, xmm21	# vect_TL_876.425_334, tmp1155
# src/avx_analysis_code_ablations/opt10_abl_tile_8x256.cpp:166:                         float BR = p.SUB[ind_rbot + k];
	.loc 1 166 31 discriminator 69632 view .LVU745
	vcvtdq2ps	xmm22, xmm22	# vect_BR_864.401_528, tmp1144
# src/avx_analysis_code_ablations/opt10_abl_tile_8x256.cpp:163:                         float TL = p.SUB[ind_ltop + k];
	.loc 1 163 31 discriminator 69632 view .LVU746
	vcvtdq2ps	xmm8, xmm8	# vect_TL_876.425_338, tmp1148
	vfmadd213ps	xmm8, xmm11, XMMWORD PTR 16[r9]	# tmp1146, _1234, MEM <vector(4) float> [(float *)vectp_vp.417_395 + 16B]
	vfmadd213ps	xmm21, xmm11, XMMWORD PTR 32[r9]	# tmp1153, _1234, MEM <vector(4) float> [(float *)vectp_vp.417_395 + 32B]
	vpmovsxwd	xmm7, xmm7	# tmp1163, tmp1164
	vcvtdq2ps	xmm7, xmm7	# vect_TL_876.425_332, tmp1163
# src/avx_analysis_code_ablations/opt10_abl_tile_8x256.cpp:167:                         vp[k] += p.A*TL + p.B*TR + p.C*BL + p.D*BR;
	.loc 1 167 31 discriminator 69632 view .LVU747
	vfmadd213ps	xmm7, xmm11, XMMWORD PTR 48[r9]	# tmp1161, _1234, MEM <vector(4) float> [(float *)vectp_vp.417_395 + 48B]
	vaddps	xmm19, xmm19, xmm20	# vect__853.431_237, _741, _770
	vfmadd132ps	xmm22, xmm8, xmm10	# _688, tmp1146, _1146
# src/avx_analysis_code_ablations/opt10_abl_tile_8x256.cpp:166:                         float BR = p.SUB[ind_rbot + k];
	.loc 1 166 31 discriminator 69632 view .LVU748
	vpmovsxwd	xmm8, xmm4	# tmp1152, vect_BR_864.402
# src/avx_analysis_code_ablations/opt10_abl_tile_8x256.cpp:167:                         vp[k] += p.A*TL + p.B*TR + p.C*BL + p.D*BR;
	.loc 1 167 31 discriminator 69632 view .LVU749
	vmovups	XMMWORD PTR [r9], xmm19	# MEM <vector(4) float> [(float *)vectp_vp.417_395], vect__853.431_237
# src/avx_analysis_code_ablations/opt10_abl_tile_8x256.cpp:166:                         float BR = p.SUB[ind_rbot + k];
	.loc 1 166 31 discriminator 69632 view .LVU750
	vpsrldq	xmm4, xmm4, 8	# tmp1160, vect_BR_864.402,
	vcvtdq2ps	xmm8, xmm8	# vect_BR_864.401_527, tmp1152
	vfmadd132ps	xmm8, xmm21, xmm10	# _629, tmp1153, _1146
	vpmovsxwd	xmm4, xmm4	# tmp1159, tmp1160
	vcvtdq2ps	xmm4, xmm4	# vect_BR_864.401_526, tmp1159
# src/avx_analysis_code_ablations/opt10_abl_tile_8x256.cpp:167:                         vp[k] += p.A*TL + p.B*TR + p.C*BL + p.D*BR;
	.loc 1 167 31 discriminator 69632 view .LVU751
	vfmadd132ps	xmm4, xmm7, xmm10	# tmp1157, tmp1161, _1146
	vaddps	xmm9, xmm9, xmm22	# vect__853.431_233, _657, _688
	vaddps	xmm14, xmm14, xmm8	# vect__853.431_232, _473, _629
	vaddps	xmm4, xmm4, xmm6	# vect__853.431, tmp1157, _1127
	vmovups	XMMWORD PTR 16[r9], xmm9	# MEM <vector(4) float> [(float *)vectp_vp.417_395 + 16B], vect__853.431_233
	vmovups	XMMWORD PTR 32[r9], xmm14	# MEM <vector(4) float> [(float *)vectp_vp.417_395 + 32B], vect__853.431_232
	vmovups	XMMWORD PTR 48[r9], xmm4	# MEM <vector(4) float> [(float *)vectp_vp.417_395 + 48B], vect__853.431
.LBE2711:
	.loc 1 162 21 is_stmt 1 discriminator 1 view .LVU752
	.loc 1 162 39 discriminator 2 view .LVU753
	mov	r9d, r12d	# niters_vector_mult_vf.396, niters.394
	and	r9d, -16	# niters_vector_mult_vf.396,
	test	r12b, 15	# niters.394,
	je	.L37	#,
	.loc 1 162 39 is_stmt 0 discriminator 2 view .LVU754
	add	r8d, r9d	# tmp.437, niters_vector_mult_vf.396
.LVL130:
.L40:
	.loc 1 162 39 discriminator 2 view .LVU755
	sub	r12d, r9d	# niters.434, niters_vector_mult_vf.396
	lea	ebx, -1[r12]	# _666,
	cmp	ebx, 6	# _666,
	jbe	.L41	#,
	add	r9d, r10d	# _1152, niters_vector_mult_vf.356
.LBB2712:
# src/avx_analysis_code_ablations/opt10_abl_tile_8x256.cpp:164:                         float TR = p.SUB[ind_rtop + k];
	.loc 1 164 54 discriminator 133120 view .LVU756
	mov	r14, QWORD PTR 272[rsp]	# ind_rtop, %sfp
	mov	r9d, r9d	# _1152, _1152
# src/avx_analysis_code_ablations/opt10_abl_tile_8x256.cpp:163:                         float TL = p.SUB[ind_ltop + k];
	.loc 1 163 54 discriminator 133120 view .LVU757
	vmovq	xmm4, QWORD PTR [rsi+r9]	# MEM <const vector(8) unsigned char> [(const unsigned char *)vectp.466_1238], MEM <const vector(8) unsigned char> [(const unsigned char *)vectp.466_1238]
# src/avx_analysis_code_ablations/opt10_abl_tile_8x256.cpp:164:                         float TR = p.SUB[ind_rtop + k];
	.loc 1 164 54 discriminator 133120 view .LVU758
	add	r14, rdi	# tmp1182, _108
	lea	r13, [r15+r9]	# _1153,
	lea	rbx, [rax+r9*4]	# vectp_vp.460,
	.loc 1 163 25 is_stmt 1 view .LVU759
# src/avx_analysis_code_ablations/opt10_abl_tile_8x256.cpp:163:                         float TL = p.SUB[ind_ltop + k];
	.loc 1 163 31 is_stmt 0 discriminator 133120 view .LVU760
	vpmovzxbw	xmm7, xmm4	# vect_TL_647.469, MEM <const vector(8) unsigned char> [(const unsigned char *)vectp.466_1238]
	vpsrlq	xmm4, xmm4, 32	# tmp1181, MEM <const vector(8) unsigned char> [(const unsigned char *)vectp.466_1238],
	vpmovzxbw	xmm6, xmm4	# vect_TL_647.469, tmp1181
# src/avx_analysis_code_ablations/opt10_abl_tile_8x256.cpp:164:                         float TR = p.SUB[ind_rtop + k];
	.loc 1 164 54 discriminator 133120 view .LVU761
	vmovq	xmm4, QWORD PTR [r14+r9]	# MEM <const vector(8) unsigned char> [(const unsigned char *)vectp.453_1200], MEM <const vector(8) unsigned char> [(const unsigned char *)vectp.453_1200]
# src/avx_analysis_code_ablations/opt10_abl_tile_8x256.cpp:163:                         float TL = p.SUB[ind_ltop + k];
	.loc 1 163 31 discriminator 133120 view .LVU762
	vmovq	r10, xmm6	# vect_TL_647.469, vect_TL_647.469
.LVL131:
	.loc 1 164 25 is_stmt 1 view .LVU763
# src/avx_analysis_code_ablations/opt10_abl_tile_8x256.cpp:165:                         float BL = p.SUB[ind_lbot + k];
	.loc 1 165 54 is_stmt 0 discriminator 133120 view .LVU764
	vmovq	xmm6, QWORD PTR [rcx+r9]	# MEM <const vector(8) unsigned char> [(const unsigned char *)vectp.446_1175], MEM <const vector(8) unsigned char> [(const unsigned char *)vectp.446_1175]
	mov	r9d, r12d	# niters_vector_mult_vf.436, niters.434
# src/avx_analysis_code_ablations/opt10_abl_tile_8x256.cpp:164:                         float TR = p.SUB[ind_rtop + k];
	.loc 1 164 31 discriminator 133120 view .LVU765
	vpmovzxbw	xmm9, xmm4	# vect_TR_636.456, MEM <const vector(8) unsigned char> [(const unsigned char *)vectp.453_1200]
	vpsrlq	xmm4, xmm4, 32	# tmp1185, MEM <const vector(8) unsigned char> [(const unsigned char *)vectp.453_1200],
	and	r9d, -8	# niters_vector_mult_vf.436,
	and	r12d, 7	# niters.434,
	vpmovzxwd	xmm14, xmm9	# vect_TR_636.455_1209, vect_TR_636.456
# src/avx_analysis_code_ablations/opt10_abl_tile_8x256.cpp:165:                         float BL = p.SUB[ind_lbot + k];
	.loc 1 165 31 discriminator 133120 view .LVU766
	vpmovzxbw	xmm8, xmm6	# vect_BL_617.449, MEM <const vector(8) unsigned char> [(const unsigned char *)vectp.446_1175]
# src/avx_analysis_code_ablations/opt10_abl_tile_8x256.cpp:164:                         float TR = p.SUB[ind_rtop + k];
	.loc 1 164 31 discriminator 133120 view .LVU767
	vpmovzxbw	xmm4, xmm4	# vect_TR_636.456, tmp1185
.LVL132:
	.loc 1 165 25 is_stmt 1 view .LVU768
# src/avx_analysis_code_ablations/opt10_abl_tile_8x256.cpp:164:                         float TR = p.SUB[ind_rtop + k];
	.loc 1 164 31 is_stmt 0 discriminator 133120 view .LVU769
	vpsrlq	xmm9, xmm9, 32	# tmp1207, vect_TR_636.456,
# src/avx_analysis_code_ablations/opt10_abl_tile_8x256.cpp:165:                         float BL = p.SUB[ind_lbot + k];
	.loc 1 165 31 discriminator 133120 view .LVU770
	vpsrlq	xmm6, xmm6, 32	# tmp1189, MEM <const vector(8) unsigned char> [(const unsigned char *)vectp.446_1175],
# src/avx_analysis_code_ablations/opt10_abl_tile_8x256.cpp:164:                         float TR = p.SUB[ind_rtop + k];
	.loc 1 164 31 discriminator 133120 view .LVU771
	vmovq	xmm14, xmm14	# tmp1192, vect_TR_636.455_1209
	vcvtdq2ps	xmm20, xmm14	# tmp1193, tmp1192
# src/avx_analysis_code_ablations/opt10_abl_tile_8x256.cpp:165:                         float BL = p.SUB[ind_lbot + k];
	.loc 1 165 31 discriminator 133120 view .LVU772
	vpmovzxwd	xmm14, xmm8	# vect_BL_617.448_1184, vect_BL_617.449
	vpsrlq	xmm8, xmm8, 32	# tmp1212, vect_BL_617.449,
# src/avx_analysis_code_ablations/opt10_abl_tile_8x256.cpp:164:                         float TR = p.SUB[ind_rtop + k];
	.loc 1 164 31 discriminator 133120 view .LVU773
	vpmovzxwd	xmm9, xmm9	# vect_TR_636.455_1210, tmp1207
# src/avx_analysis_code_ablations/opt10_abl_tile_8x256.cpp:165:                         float BL = p.SUB[ind_lbot + k];
	.loc 1 165 31 discriminator 133120 view .LVU774
	vpmovzxwd	xmm8, xmm8	# vect_BL_617.448_1185, tmp1212
# src/avx_analysis_code_ablations/opt10_abl_tile_8x256.cpp:164:                         float TR = p.SUB[ind_rtop + k];
	.loc 1 164 31 discriminator 133120 view .LVU775
	vmovq	xmm9, xmm9	# tmp1209, vect_TR_636.455_1210
# src/avx_analysis_code_ablations/opt10_abl_tile_8x256.cpp:165:                         float BL = p.SUB[ind_lbot + k];
	.loc 1 165 31 discriminator 133120 view .LVU776
	vpmovzxbw	xmm6, xmm6	# vect_BL_617.449, tmp1189
	vmovq	xmm8, xmm8	# tmp1214, vect_BL_617.448_1185
# src/avx_analysis_code_ablations/opt10_abl_tile_8x256.cpp:164:                         float TR = p.SUB[ind_rtop + k];
	.loc 1 164 31 discriminator 133120 view .LVU777
	vcvtdq2ps	xmm9, xmm9	# tmp1210, tmp1209
# src/avx_analysis_code_ablations/opt10_abl_tile_8x256.cpp:165:                         float BL = p.SUB[ind_lbot + k];
	.loc 1 165 31 discriminator 133120 view .LVU778
	vmovq	xmm19, xmm14	# tmp1196, vect_BL_617.448_1184
	vcvtdq2ps	xmm8, xmm8	# tmp1215, tmp1214
# src/avx_analysis_code_ablations/opt10_abl_tile_8x256.cpp:167:                         vp[k] += p.A*TL + p.B*TR + p.C*BL + p.D*BR;
	.loc 1 167 55 discriminator 133120 view .LVU779
	vmulps	xmm8, xmm8, xmm13	# tmp1219, tmp1215, _1171
# src/avx_analysis_code_ablations/opt10_abl_tile_8x256.cpp:165:                         float BL = p.SUB[ind_lbot + k];
	.loc 1 165 31 discriminator 133120 view .LVU780
	vcvtdq2ps	xmm19, xmm19	# tmp1197, tmp1196
# src/avx_analysis_code_ablations/opt10_abl_tile_8x256.cpp:167:                         vp[k] += p.A*TL + p.B*TR + p.C*BL + p.D*BR;
	.loc 1 167 55 discriminator 133120 view .LVU781
	vmulps	xmm19, xmm19, xmm13	# tmp1201, tmp1197, _1171
	vfmadd132ps	xmm9, xmm8, xmm12	# tmp1210, tmp1219, _1196
# src/avx_analysis_code_ablations/opt10_abl_tile_8x256.cpp:164:                         float TR = p.SUB[ind_rtop + k];
	.loc 1 164 31 discriminator 133120 view .LVU782
	vpmovzxwd	xmm8, xmm4	# vect_TR_636.455_1211, vect_TR_636.456
	vmovq	xmm8, xmm8	# tmp1226, vect_TR_636.455_1211
	vfmadd231ps	xmm19, xmm12, xmm20	# tmp1205, _1196, tmp1193
	vcvtdq2ps	xmm14, xmm8	# tmp1227, tmp1226
	vmovaps	xmm21, xmm9	# tmp1223, tmp1210
# src/avx_analysis_code_ablations/opt10_abl_tile_8x256.cpp:165:                         float BL = p.SUB[ind_lbot + k];
	.loc 1 165 31 discriminator 133120 view .LVU783
	vpmovzxwd	xmm9, xmm6	# vect_BL_617.448_1186, vect_BL_617.449
	vmovq	xmm9, xmm9	# tmp1230, vect_BL_617.448_1186
	vpsrlq	xmm6, xmm6, 32	# tmp1246, vect_BL_617.449,
	vcvtdq2ps	xmm9, xmm9	# tmp1231, tmp1230
# src/avx_analysis_code_ablations/opt10_abl_tile_8x256.cpp:167:                         vp[k] += p.A*TL + p.B*TR + p.C*BL + p.D*BR;
	.loc 1 167 55 discriminator 133120 view .LVU784
	vmulps	xmm9, xmm9, xmm13	# tmp1235, tmp1231, _1171
# src/avx_analysis_code_ablations/opt10_abl_tile_8x256.cpp:165:                         float BL = p.SUB[ind_lbot + k];
	.loc 1 165 31 discriminator 133120 view .LVU785
	vpmovzxwd	xmm6, xmm6	# vect_BL_617.448_1187, tmp1246
	vmovq	xmm6, xmm6	# tmp1248, vect_BL_617.448_1187
	vcvtdq2ps	xmm6, xmm6	# tmp1249, tmp1248
# src/avx_analysis_code_ablations/opt10_abl_tile_8x256.cpp:167:                         vp[k] += p.A*TL + p.B*TR + p.C*BL + p.D*BR;
	.loc 1 167 55 discriminator 133120 view .LVU786
	vmulps	xmm6, xmm6, xmm13	# tmp1253, tmp1249, _1171
	vfmadd132ps	xmm14, xmm9, xmm12	# tmp1227, tmp1235, _1196
# src/avx_analysis_code_ablations/opt10_abl_tile_8x256.cpp:167:                         vp[k] += p.A*TL + p.B*TR + p.C*BL + p.D*BR;
	.loc 1 167 29 discriminator 133120 view .LVU787
	vmovq	xmm9, QWORD PTR [rbx]	# vect__603.461_1227, MEM <vector(2) float> [(float *)vectp_vp.460_1221]
	vmovaps	xmm22, xmm14	# tmp1239, tmp1227
# src/avx_analysis_code_ablations/opt10_abl_tile_8x256.cpp:164:                         float TR = p.SUB[ind_rtop + k];
	.loc 1 164 31 discriminator 133120 view .LVU788
	vpsrlq	xmm14, xmm4, 32	# tmp1241, vect_TR_636.456,
# src/avx_analysis_code_ablations/opt10_abl_tile_8x256.cpp:166:                         float BR = p.SUB[ind_rbot + k];
	.loc 1 166 54 discriminator 133120 view .LVU789
	vmovq	xmm4, QWORD PTR [rdi+r13]	# MEM <const vector(8) unsigned char> [(const unsigned char *)vectp.439_1150], MEM <const vector(8) unsigned char> [(const unsigned char *)vectp.439_1150]
# src/avx_analysis_code_ablations/opt10_abl_tile_8x256.cpp:164:                         float TR = p.SUB[ind_rtop + k];
	.loc 1 164 31 discriminator 133120 view .LVU790
	vpmovzxwd	xmm14, xmm14	# vect_TR_636.455_1212, tmp1241
	vmovq	xmm14, xmm14	# tmp1243, vect_TR_636.455_1212
	vcvtdq2ps	xmm14, xmm14	# tmp1244, tmp1243
	vfmadd132ps	xmm14, xmm6, xmm12	# tmp1257, tmp1253, _1196
.LVL133:
	.loc 1 166 25 is_stmt 1 view .LVU791
# src/avx_analysis_code_ablations/opt10_abl_tile_8x256.cpp:166:                         float BR = p.SUB[ind_rbot + k];
	.loc 1 166 31 is_stmt 0 discriminator 133120 view .LVU792
	vpmovzxbw	xmm6, xmm4	# vect_BR_609.442, MEM <const vector(8) unsigned char> [(const unsigned char *)vectp.439_1150]
	vpmovzxwd	xmm8, xmm6	# vect_BR_609.441_1159, vect_BR_609.442
	vpsrlq	xmm6, xmm6, 32	# tmp1279, vect_BR_609.442,
	vmovq	xmm8, xmm8	# tmp1262, vect_BR_609.441_1159
	vpsrlq	xmm4, xmm4, 32	# tmp1259, MEM <const vector(8) unsigned char> [(const unsigned char *)vectp.439_1150],
	vpmovzxwd	xmm6, xmm6	# vect_BR_609.441_1160, tmp1279
	vcvtdq2ps	xmm20, xmm8	# tmp1263, tmp1262
# src/avx_analysis_code_ablations/opt10_abl_tile_8x256.cpp:163:                         float TL = p.SUB[ind_ltop + k];
	.loc 1 163 31 discriminator 133120 view .LVU793
	vpmovzxwd	xmm8, xmm7	# vect_TL_647.468_1247, vect_TL_647.469
	vpsrlq	xmm7, xmm7, 32	# tmp1285, vect_TL_647.469,
# src/avx_analysis_code_ablations/opt10_abl_tile_8x256.cpp:166:                         float BR = p.SUB[ind_rbot + k];
	.loc 1 166 31 discriminator 133120 view .LVU794
	vpmovzxbw	xmm4, xmm4	# vect_BR_609.442, tmp1259
.LVL134:
	.loc 1 167 25 is_stmt 1 view .LVU795
# src/avx_analysis_code_ablations/opt10_abl_tile_8x256.cpp:163:                         float TL = p.SUB[ind_ltop + k];
	.loc 1 163 31 is_stmt 0 discriminator 133120 view .LVU796
	vmovq	xmm8, xmm8	# tmp1267, vect_TL_647.468_1247
	vpmovzxwd	xmm7, xmm7	# vect_TL_647.468_1248, tmp1285
# src/avx_analysis_code_ablations/opt10_abl_tile_8x256.cpp:166:                         float BR = p.SUB[ind_rbot + k];
	.loc 1 166 31 discriminator 133120 view .LVU797
	vmovq	xmm6, xmm6	# tmp1281, vect_BR_609.441_1160
# src/avx_analysis_code_ablations/opt10_abl_tile_8x256.cpp:163:                         float TL = p.SUB[ind_ltop + k];
	.loc 1 163 31 discriminator 133120 view .LVU798
	vcvtdq2ps	xmm8, xmm8	# tmp1268, tmp1267
	vfmadd231ps	xmm9, xmm11, xmm8	# tmp1273, _1234, tmp1268
# src/avx_analysis_code_ablations/opt10_abl_tile_8x256.cpp:167:                         vp[k] += p.A*TL + p.B*TR + p.C*BL + p.D*BR;
	.loc 1 167 29 discriminator 133120 view .LVU799
	vmovq	xmm8, QWORD PTR 8[rbx]	# vect__603.462_1229, MEM <vector(2) float> [(float *)vectp_vp.460_1221 + 8B]
# src/avx_analysis_code_ablations/opt10_abl_tile_8x256.cpp:163:                         float TL = p.SUB[ind_ltop + k];
	.loc 1 163 31 discriminator 133120 view .LVU800
	vmovq	xmm7, xmm7	# tmp1287, vect_TL_647.468_1248
# src/avx_analysis_code_ablations/opt10_abl_tile_8x256.cpp:166:                         float BR = p.SUB[ind_rbot + k];
	.loc 1 166 31 discriminator 133120 view .LVU801
	vcvtdq2ps	xmm6, xmm6	# tmp1282, tmp1281
# src/avx_analysis_code_ablations/opt10_abl_tile_8x256.cpp:163:                         float TL = p.SUB[ind_ltop + k];
	.loc 1 163 31 discriminator 133120 view .LVU802
	vcvtdq2ps	xmm7, xmm7	# tmp1288, tmp1287
	vfmadd132ps	xmm7, xmm8, xmm11	# tmp1293, vect__603.462_1229, _1234
	vfmadd132ps	xmm20, xmm9, xmm10	# tmp1277, tmp1273, _1146
	vmovq	xmm9, r10	# vect_TL_647.469, vect_TL_647.469
	vpmovzxwd	xmm8, xmm9	# vect_TL_647.468_1249, vect_TL_647.469
# src/avx_analysis_code_ablations/opt10_abl_tile_8x256.cpp:167:                         vp[k] += p.A*TL + p.B*TR + p.C*BL + p.D*BR;
	.loc 1 167 29 discriminator 133120 view .LVU803
	vmovq	xmm9, QWORD PTR 16[rbx]	# vect__603.463_1231, MEM <vector(2) float> [(float *)vectp_vp.460_1221 + 16B]
# src/avx_analysis_code_ablations/opt10_abl_tile_8x256.cpp:163:                         float TL = p.SUB[ind_ltop + k];
	.loc 1 163 31 discriminator 133120 view .LVU804
	vmovq	xmm8, xmm8	# tmp1305, vect_TL_647.468_1249
	vfmadd132ps	xmm6, xmm7, xmm10	# tmp1297, tmp1293, _1146
# src/avx_analysis_code_ablations/opt10_abl_tile_8x256.cpp:166:                         float BR = p.SUB[ind_rbot + k];
	.loc 1 166 31 discriminator 133120 view .LVU805
	vpmovzxwd	xmm7, xmm4	# vect_BR_609.441_1161, vect_BR_609.442
# src/avx_analysis_code_ablations/opt10_abl_tile_8x256.cpp:163:                         float TL = p.SUB[ind_ltop + k];
	.loc 1 163 31 discriminator 133120 view .LVU806
	vcvtdq2ps	xmm8, xmm8	# tmp1306, tmp1305
	vfmadd132ps	xmm8, xmm9, xmm11	# tmp1311, vect__603.463_1231, _1234
# src/avx_analysis_code_ablations/opt10_abl_tile_8x256.cpp:166:                         float BR = p.SUB[ind_rbot + k];
	.loc 1 166 31 discriminator 133120 view .LVU807
	vmovq	xmm7, xmm7	# tmp1300, vect_BR_609.441_1161
# src/avx_analysis_code_ablations/opt10_abl_tile_8x256.cpp:163:                         float TL = p.SUB[ind_ltop + k];
	.loc 1 163 31 discriminator 133120 view .LVU808
	vmovq	xmm9, r10	# tmp1898, vect_TL_647.469
# src/avx_analysis_code_ablations/opt10_abl_tile_8x256.cpp:166:                         float BR = p.SUB[ind_rbot + k];
	.loc 1 166 31 discriminator 133120 view .LVU809
	vcvtdq2ps	xmm7, xmm7	# tmp1301, tmp1300
	vpsrlq	xmm4, xmm4, 32	# tmp1318, vect_BR_609.442,
	vpmovzxwd	xmm4, xmm4	# vect_BR_609.441_1162, tmp1318
	vmovq	xmm4, xmm4	# tmp1320, vect_BR_609.441_1162
	vcvtdq2ps	xmm4, xmm4	# tmp1321, tmp1320
# src/avx_analysis_code_ablations/opt10_abl_tile_8x256.cpp:167:                         vp[k] += p.A*TL + p.B*TR + p.C*BL + p.D*BR;
	.loc 1 167 31 discriminator 133120 view .LVU810
	vaddps	xmm6, xmm21, xmm6	# tmp1347, tmp1223, tmp1297
	vfmadd132ps	xmm7, xmm8, xmm10	# tmp1315, tmp1311, _1146
# src/avx_analysis_code_ablations/opt10_abl_tile_8x256.cpp:163:                         float TL = p.SUB[ind_ltop + k];
	.loc 1 163 31 discriminator 133120 view .LVU811
	vpsrlq	xmm8, xmm9, 32	# tmp1324, tmp1898,
# src/avx_analysis_code_ablations/opt10_abl_tile_8x256.cpp:167:                         vp[k] += p.A*TL + p.B*TR + p.C*BL + p.D*BR;
	.loc 1 167 29 discriminator 133120 view .LVU812
	vmovq	xmm9, QWORD PTR 24[rbx]	# vect__603.464_1233, MEM <vector(2) float> [(float *)vectp_vp.460_1221 + 24B]
# src/avx_analysis_code_ablations/opt10_abl_tile_8x256.cpp:163:                         float TL = p.SUB[ind_ltop + k];
	.loc 1 163 31 discriminator 133120 view .LVU813
	vpmovzxwd	xmm8, xmm8	# vect_TL_647.468_1250, tmp1324
	vmovq	xmm8, xmm8	# tmp1326, vect_TL_647.468_1250
# src/avx_analysis_code_ablations/opt10_abl_tile_8x256.cpp:167:                         vp[k] += p.A*TL + p.B*TR + p.C*BL + p.D*BR;
	.loc 1 167 31 discriminator 133120 view .LVU814
	vmovlps	QWORD PTR 8[rbx], xmm6	# MEM <vector(2) float> [(float *)vectp_vp.460_1221 + 8B], tmp1347
# src/avx_analysis_code_ablations/opt10_abl_tile_8x256.cpp:163:                         float TL = p.SUB[ind_ltop + k];
	.loc 1 163 31 discriminator 133120 view .LVU815
	vcvtdq2ps	xmm8, xmm8	# tmp1327, tmp1326
# src/avx_analysis_code_ablations/opt10_abl_tile_8x256.cpp:167:                         vp[k] += p.A*TL + p.B*TR + p.C*BL + p.D*BR;
	.loc 1 167 31 discriminator 133120 view .LVU816
	vfmadd132ps	xmm8, xmm9, xmm11	# tmp1332, vect__603.464_1233, _1234
	vaddps	xmm6, xmm22, xmm7	# tmp1351, tmp1239, tmp1315
	vfmadd132ps	xmm4, xmm8, xmm10	# tmp1336, tmp1332, _1146
	vaddps	xmm8, xmm19, xmm20	# tmp1343, tmp1205, tmp1277
	vmovlps	QWORD PTR 16[rbx], xmm6	# MEM <vector(2) float> [(float *)vectp_vp.460_1221 + 16B], tmp1351
	vmovlps	QWORD PTR [rbx], xmm8	# MEM <vector(2) float> [(float *)vectp_vp.460_1221], tmp1343
	vaddps	xmm4, xmm4, xmm14	# tmp1339, tmp1336, tmp1257
	vmovlps	QWORD PTR 24[rbx], xmm4	# MEM <vector(2) float> [(float *)vectp_vp.460_1221 + 24B], tmp1339
.LBE2712:
	.loc 1 162 21 is_stmt 1 discriminator 1 view .LVU817
	.loc 1 162 39 discriminator 2 view .LVU818
	je	.L37	#,
	.loc 1 162 39 is_stmt 0 discriminator 2 view .LVU819
	add	r8d, r9d	# tmp.437, niters_vector_mult_vf.436
.LVL135:
.L41:
.LBB2713:
	.loc 1 163 25 is_stmt 1 view .LVU820
# src/avx_analysis_code_ablations/opt10_abl_tile_8x256.cpp:163:                         float TL = p.SUB[ind_ltop + k];
	.loc 1 163 53 is_stmt 0 discriminator 163840 view .LVU821
	movsxd	r10, r8d	# _608, tmp.437
.LVL136:
	.loc 1 164 25 is_stmt 1 view .LVU822
	.loc 1 165 25 view .LVU823
	.loc 1 166 25 view .LVU824
	.loc 1 167 25 view .LVU825
# src/avx_analysis_code_ablations/opt10_abl_tile_8x256.cpp:164:                         float TR = p.SUB[ind_rtop + k];
	.loc 1 164 31 is_stmt 0 discriminator 163840 view .LVU826
	mov	r9, QWORD PTR 272[rsp]	# ind_rtop, %sfp
.LBE2713:
# src/avx_analysis_code_ablations/opt10_abl_tile_8x256.cpp:162:                     for (int k = 0; k < remaining; ++k) {
	.loc 1 162 39 discriminator 163842 view .LVU827
	mov	r14d, DWORD PTR 264[rsp]	# remaining, %sfp
.LBB2714:
# src/avx_analysis_code_ablations/opt10_abl_tile_8x256.cpp:163:                         float TL = p.SUB[ind_ltop + k];
	.loc 1 163 31 discriminator 163840 view .LVU828
	movzx	r12d, BYTE PTR [rsi+r10]	# *_910, *_910
# src/avx_analysis_code_ablations/opt10_abl_tile_8x256.cpp:167:                         vp[k] += p.A*TL + p.B*TR + p.C*BL + p.D*BR;
	.loc 1 167 29 discriminator 163840 view .LVU829
	lea	rbx, 0[0+r10*4]	# _118,
	mov	QWORD PTR 256[rsp], rbx	# %sfp, _118
# src/avx_analysis_code_ablations/opt10_abl_tile_8x256.cpp:163:                         float TL = p.SUB[ind_ltop + k];
	.loc 1 163 31 discriminator 163840 view .LVU830
	vcvtusi2ss	xmm4, xmm5, r12d	# tmp1584, tmp1583, *_910
# src/avx_analysis_code_ablations/opt10_abl_tile_8x256.cpp:164:                         float TR = p.SUB[ind_rtop + k];
	.loc 1 164 54 discriminator 163840 view .LVU831
	lea	r12, [rdi+r10]	# tmp1357,
# src/avx_analysis_code_ablations/opt10_abl_tile_8x256.cpp:165:                         float BL = p.SUB[ind_lbot + k];
	.loc 1 165 31 discriminator 163840 view .LVU832
	movzx	r10d, BYTE PTR [rcx+r10]	# *_274, *_274
.LVL137:
# src/avx_analysis_code_ablations/opt10_abl_tile_8x256.cpp:164:                         float TR = p.SUB[ind_rtop + k];
	.loc 1 164 31 discriminator 163840 view .LVU833
	movzx	r13d, BYTE PTR [r12+r9]	# *_109, *_109
# src/avx_analysis_code_ablations/opt10_abl_tile_8x256.cpp:165:                         float BL = p.SUB[ind_lbot + k];
	.loc 1 165 31 discriminator 163840 view .LVU834
	vcvtusi2ss	xmm6, xmm5, r10d	# tmp1586, tmp1583, *_274
# src/avx_analysis_code_ablations/opt10_abl_tile_8x256.cpp:166:                         float BR = p.SUB[ind_rbot + k];
	.loc 1 166 31 discriminator 163840 view .LVU835
	movzx	r10d, BYTE PTR [r12+r15]	# *_275, *_275
	vmovaps	xmm7, xmm4	# TL_962, TL_962
# src/avx_analysis_code_ablations/opt10_abl_tile_8x256.cpp:164:                         float TR = p.SUB[ind_rtop + k];
	.loc 1 164 31 discriminator 163840 view .LVU836
	vcvtusi2ss	xmm4, xmm5, r13d	# tmp1585, tmp1583, *_109
	vfmadd213ss	xmm7, xmm18, DWORD PTR [rax+rbx]	# TL_962, _79, *_276
# src/avx_analysis_code_ablations/opt10_abl_tile_8x256.cpp:167:                         vp[k] += p.A*TL + p.B*TR + p.C*BL + p.D*BR;
	.loc 1 167 55 discriminator 163840 view .LVU837
	vmulss	xmm6, xmm6, xmm16	# _122, BL_114, _81
	vfmadd231ss	xmm6, xmm17, xmm4	# _1093, _80, TR_111
# src/avx_analysis_code_ablations/opt10_abl_tile_8x256.cpp:166:                         float BR = p.SUB[ind_rbot + k];
	.loc 1 166 31 discriminator 163840 view .LVU838
	vcvtusi2ss	xmm4, xmm5, r10d	# tmp1587, tmp1583, *_275
.LBE2714:
# src/avx_analysis_code_ablations/opt10_abl_tile_8x256.cpp:162:                     for (int k = 0; k < remaining; ++k) {
	.loc 1 162 21 discriminator 163841 view .LVU839
	lea	r10d, 1[r8]	#,
.LBB2715:
# src/avx_analysis_code_ablations/opt10_abl_tile_8x256.cpp:167:                         vp[k] += p.A*TL + p.B*TR + p.C*BL + p.D*BR;
	.loc 1 167 31 discriminator 163840 view .LVU840
	vfmadd132ss	xmm4, xmm7, xmm15	# tmp1366, _1087, _82
	vaddss	xmm4, xmm4, xmm6	# _128, tmp1366, _1093
	vmovss	DWORD PTR [rax+rbx], xmm4	# *_276, _128
.LBE2715:
	.loc 1 162 21 is_stmt 1 discriminator 1 view .LVU841
.LVL138:
	.loc 1 162 39 discriminator 2 view .LVU842
# src/avx_analysis_code_ablations/opt10_abl_tile_8x256.cpp:162:                     for (int k = 0; k < remaining; ++k) {
	.loc 1 162 39 is_stmt 0 discriminator 163842 view .LVU843
	cmp	r10d, r14d	# k, remaining
	jge	.L37	#,
.LBB2716:
	.loc 1 163 25 is_stmt 1 view .LVU844
.LVL139:
	.loc 1 164 25 view .LVU845
	.loc 1 165 25 view .LVU846
	.loc 1 166 25 view .LVU847
	.loc 1 167 25 view .LVU848
# src/avx_analysis_code_ablations/opt10_abl_tile_8x256.cpp:163:                         float TL = p.SUB[ind_ltop + k];
	.loc 1 163 31 is_stmt 0 discriminator 196608 view .LVU849
	movzx	r12d, BYTE PTR [rsi+r10]	# *_279, *_279
	vcvtusi2ss	xmm4, xmm5, r12d	# tmp1588, tmp1583, *_279
# src/avx_analysis_code_ablations/opt10_abl_tile_8x256.cpp:164:                         float TR = p.SUB[ind_rtop + k];
	.loc 1 164 54 discriminator 196608 view .LVU850
	lea	r12, [rdi+r10]	# tmp1377,
# src/avx_analysis_code_ablations/opt10_abl_tile_8x256.cpp:165:                         float BL = p.SUB[ind_lbot + k];
	.loc 1 165 31 discriminator 196608 view .LVU851
	movzx	r10d, BYTE PTR [rcx+r10]	# *_874, *_874
.LVL140:
# src/avx_analysis_code_ablations/opt10_abl_tile_8x256.cpp:164:                         float TR = p.SUB[ind_rtop + k];
	.loc 1 164 31 discriminator 196608 view .LVU852
	movzx	r13d, BYTE PTR [r12+r9]	# *_878, *_878
# src/avx_analysis_code_ablations/opt10_abl_tile_8x256.cpp:165:                         float BL = p.SUB[ind_lbot + k];
	.loc 1 165 31 discriminator 196608 view .LVU853
	vcvtusi2ss	xmm6, xmm5, r10d	# tmp1590, tmp1583, *_874
# src/avx_analysis_code_ablations/opt10_abl_tile_8x256.cpp:166:                         float BR = p.SUB[ind_rbot + k];
	.loc 1 166 31 discriminator 196608 view .LVU854
	movzx	r10d, BYTE PTR [r12+r15]	# *_870, *_870
	vmovaps	xmm7, xmm4	# TL_880, TL_880
# src/avx_analysis_code_ablations/opt10_abl_tile_8x256.cpp:164:                         float TR = p.SUB[ind_rtop + k];
	.loc 1 164 31 discriminator 196608 view .LVU855
	vcvtusi2ss	xmm4, xmm5, r13d	# tmp1589, tmp1583, *_878
	vfmadd213ss	xmm7, xmm18, DWORD PTR 4[rax+rbx]	# TL_880, _79, *_866
# src/avx_analysis_code_ablations/opt10_abl_tile_8x256.cpp:167:                         vp[k] += p.A*TL + p.B*TR + p.C*BL + p.D*BR;
	.loc 1 167 55 discriminator 196608 view .LVU856
	vmulss	xmm6, xmm6, xmm16	# _861, BL_872, _81
	vfmadd231ss	xmm6, xmm17, xmm4	# _1225, _80, TR_876
# src/avx_analysis_code_ablations/opt10_abl_tile_8x256.cpp:166:                         float BR = p.SUB[ind_rbot + k];
	.loc 1 166 31 discriminator 196608 view .LVU857
	vcvtusi2ss	xmm4, xmm5, r10d	# tmp1591, tmp1583, *_870
.LBE2716:
# src/avx_analysis_code_ablations/opt10_abl_tile_8x256.cpp:162:                     for (int k = 0; k < remaining; ++k) {
	.loc 1 162 21 discriminator 196609 view .LVU858
	lea	r10d, 2[r8]	#,
.LBB2717:
# src/avx_analysis_code_ablations/opt10_abl_tile_8x256.cpp:167:                         vp[k] += p.A*TL + p.B*TR + p.C*BL + p.D*BR;
	.loc 1 167 31 discriminator 196608 view .LVU859
	vfmadd132ss	xmm4, xmm7, xmm15	# tmp1386, _1126, _82
	vaddss	xmm4, xmm4, xmm6	# _857, tmp1386, _1225
	vmovss	DWORD PTR 4[rax+rbx], xmm4	# *_866, _857
.LBE2717:
	.loc 1 162 21 is_stmt 1 discriminator 1 view .LVU860
.LVL141:
	.loc 1 162 39 discriminator 2 view .LVU861
# src/avx_analysis_code_ablations/opt10_abl_tile_8x256.cpp:162:                     for (int k = 0; k < remaining; ++k) {
	.loc 1 162 39 is_stmt 0 discriminator 196610 view .LVU862
	cmp	r14d, r10d	# remaining, k
	jle	.L37	#,
.LBB2718:
	.loc 1 163 25 is_stmt 1 view .LVU863
.LVL142:
	.loc 1 164 25 view .LVU864
	.loc 1 165 25 view .LVU865
	.loc 1 166 25 view .LVU866
	.loc 1 167 25 view .LVU867
# src/avx_analysis_code_ablations/opt10_abl_tile_8x256.cpp:167:                         vp[k] += p.A*TL + p.B*TR + p.C*BL + p.D*BR;
	.loc 1 167 29 is_stmt 0 discriminator 229376 view .LVU868
	lea	r13, 8[rax+rbx]	# _610,
# src/avx_analysis_code_ablations/opt10_abl_tile_8x256.cpp:163:                         float TL = p.SUB[ind_ltop + k];
	.loc 1 163 31 discriminator 229376 view .LVU869
	movzx	ebx, BYTE PTR [rsi+r10]	# *_721, *_721
# src/avx_analysis_code_ablations/opt10_abl_tile_8x256.cpp:164:                         float TR = p.SUB[ind_rtop + k];
	.loc 1 164 54 discriminator 229376 view .LVU870
	lea	r12, [rdi+r9]	# tmp1397,
# src/avx_analysis_code_ablations/opt10_abl_tile_8x256.cpp:163:                         float TL = p.SUB[ind_ltop + k];
	.loc 1 163 31 discriminator 229376 view .LVU871
	vcvtusi2ss	xmm4, xmm5, ebx	# tmp1592, tmp1583, *_721
# src/avx_analysis_code_ablations/opt10_abl_tile_8x256.cpp:164:                         float TR = p.SUB[ind_rtop + k];
	.loc 1 164 31 discriminator 229376 view .LVU872
	movzx	ebx, BYTE PTR [r12+r10]	# *_663, *_663
	vmovaps	xmm7, xmm4	# TL_667, TL_667
	vcvtusi2ss	xmm4, xmm5, ebx	# tmp1593, tmp1583, *_663
# src/avx_analysis_code_ablations/opt10_abl_tile_8x256.cpp:165:                         float BL = p.SUB[ind_lbot + k];
	.loc 1 165 31 discriminator 229376 view .LVU873
	movzx	ebx, BYTE PTR [rcx+r10]	# *_637, *_637
	vfmadd213ss	xmm7, xmm18, DWORD PTR 0[r13]	# TL_667, _79, *_610
	vcvtusi2ss	xmm6, xmm5, ebx	# tmp1594, tmp1583, *_637
# src/avx_analysis_code_ablations/opt10_abl_tile_8x256.cpp:166:                         float BR = p.SUB[ind_rbot + k];
	.loc 1 166 54 discriminator 229376 view .LVU874
	lea	rbx, [rdi+r15]	# tmp1407,
# src/avx_analysis_code_ablations/opt10_abl_tile_8x256.cpp:166:                         float BR = p.SUB[ind_rbot + k];
	.loc 1 166 31 discriminator 229376 view .LVU875
	movzx	r10d, BYTE PTR [rbx+r10]	# *_620, *_620
.LVL143:
# src/avx_analysis_code_ablations/opt10_abl_tile_8x256.cpp:167:                         vp[k] += p.A*TL + p.B*TR + p.C*BL + p.D*BR;
	.loc 1 167 55 discriminator 229376 view .LVU876
	vmulss	xmm6, xmm6, xmm16	# _601, BL_632, _81
	vfmadd231ss	xmm6, xmm17, xmm4	# _84, _80, TR_640
# src/avx_analysis_code_ablations/opt10_abl_tile_8x256.cpp:166:                         float BR = p.SUB[ind_rbot + k];
	.loc 1 166 31 discriminator 229376 view .LVU877
	vcvtusi2ss	xmm4, xmm5, r10d	# tmp1595, tmp1583, *_620
.LBE2718:
# src/avx_analysis_code_ablations/opt10_abl_tile_8x256.cpp:162:                     for (int k = 0; k < remaining; ++k) {
	.loc 1 162 21 discriminator 229377 view .LVU878
	lea	r10d, 3[r8]	#,
.LBB2719:
# src/avx_analysis_code_ablations/opt10_abl_tile_8x256.cpp:167:                         vp[k] += p.A*TL + p.B*TR + p.C*BL + p.D*BR;
	.loc 1 167 31 discriminator 229376 view .LVU879
	vfmadd132ss	xmm4, xmm7, xmm15	# tmp1406, _59, _82
	vaddss	xmm4, xmm4, xmm6	# _596, tmp1406, _84
	vmovss	DWORD PTR 0[r13], xmm4	# *_610, _596
.LBE2719:
	.loc 1 162 21 is_stmt 1 discriminator 1 view .LVU880
.LVL144:
	.loc 1 162 39 discriminator 2 view .LVU881
# src/avx_analysis_code_ablations/opt10_abl_tile_8x256.cpp:162:                     for (int k = 0; k < remaining; ++k) {
	.loc 1 162 39 is_stmt 0 discriminator 229378 view .LVU882
	cmp	r14d, r10d	#, k
	jle	.L37	#,
.LBB2720:
	.loc 1 163 25 is_stmt 1 view .LVU883
.LVL145:
	.loc 1 164 25 view .LVU884
	.loc 1 165 25 view .LVU885
	.loc 1 166 25 view .LVU886
	.loc 1 167 25 view .LVU887
# src/avx_analysis_code_ablations/opt10_abl_tile_8x256.cpp:167:                         vp[k] += p.A*TL + p.B*TR + p.C*BL + p.D*BR;
	.loc 1 167 29 is_stmt 0 discriminator 262144 view .LVU888
	mov	r14, QWORD PTR 256[rsp]	# _118, %sfp
	lea	r13, 12[rax+r14]	# _909,
# src/avx_analysis_code_ablations/opt10_abl_tile_8x256.cpp:163:                         float TL = p.SUB[ind_ltop + k];
	.loc 1 163 31 discriminator 262144 view .LVU889
	movzx	r14d, BYTE PTR [rsi+r10]	# *_185, *_185
	vcvtusi2ss	xmm4, xmm5, r14d	# tmp1596, tmp1583, *_185
# src/avx_analysis_code_ablations/opt10_abl_tile_8x256.cpp:164:                         float TR = p.SUB[ind_rtop + k];
	.loc 1 164 54 discriminator 262144 view .LVU890
	lea	r14, [rdi+r10]	# tmp1417,
# src/avx_analysis_code_ablations/opt10_abl_tile_8x256.cpp:165:                         float BL = p.SUB[ind_lbot + k];
	.loc 1 165 31 discriminator 262144 view .LVU891
	movzx	r10d, BYTE PTR [rcx+r10]	# *_705, *_705
.LVL146:
# src/avx_analysis_code_ablations/opt10_abl_tile_8x256.cpp:164:                         float TR = p.SUB[ind_rtop + k];
	.loc 1 164 31 discriminator 262144 view .LVU892
	movzx	r9d, BYTE PTR [r14+r9]	# *_619, *_619
# src/avx_analysis_code_ablations/opt10_abl_tile_8x256.cpp:165:                         float BL = p.SUB[ind_lbot + k];
	.loc 1 165 31 discriminator 262144 view .LVU893
	vcvtusi2ss	xmm6, xmm5, r10d	# tmp1598, tmp1583, *_705
# src/avx_analysis_code_ablations/opt10_abl_tile_8x256.cpp:166:                         float BR = p.SUB[ind_rbot + k];
	.loc 1 166 31 discriminator 262144 view .LVU894
	movzx	r10d, BYTE PTR [r14+r15]	# *_479, *_479
	vmovaps	xmm7, xmm4	# TL_884, TL_884
# src/avx_analysis_code_ablations/opt10_abl_tile_8x256.cpp:164:                         float TR = p.SUB[ind_rtop + k];
	.loc 1 164 31 discriminator 262144 view .LVU895
	vcvtusi2ss	xmm4, xmm5, r9d	# tmp1597, tmp1583, *_619
	vfmadd213ss	xmm7, xmm18, DWORD PTR 0[r13]	# TL_884, _79, *_909
# src/avx_analysis_code_ablations/opt10_abl_tile_8x256.cpp:167:                         vp[k] += p.A*TL + p.B*TR + p.C*BL + p.D*BR;
	.loc 1 167 55 discriminator 262144 view .LVU896
	vmulss	xmm6, xmm6, xmm16	# _991, BL_589, _81
	vfmadd231ss	xmm6, xmm17, xmm4	# _90, _80, TR_481
# src/avx_analysis_code_ablations/opt10_abl_tile_8x256.cpp:166:                         float BR = p.SUB[ind_rbot + k];
	.loc 1 166 31 discriminator 262144 view .LVU897
	vcvtusi2ss	xmm4, xmm5, r10d	# tmp1599, tmp1583, *_479
.LBE2720:
# src/avx_analysis_code_ablations/opt10_abl_tile_8x256.cpp:162:                     for (int k = 0; k < remaining; ++k) {
	.loc 1 162 21 discriminator 262145 view .LVU898
	lea	r10d, 4[r8]	#,
.LBB2721:
# src/avx_analysis_code_ablations/opt10_abl_tile_8x256.cpp:167:                         vp[k] += p.A*TL + p.B*TR + p.C*BL + p.D*BR;
	.loc 1 167 31 discriminator 262144 view .LVU899
	vfmadd132ss	xmm4, xmm7, xmm15	# tmp1426, _86, _82
	vaddss	xmm4, xmm4, xmm6	# _570, tmp1426, _90
	vmovss	DWORD PTR 0[r13], xmm4	# *_909, _570
.LBE2721:
	.loc 1 162 21 is_stmt 1 discriminator 1 view .LVU900
.LVL147:
	.loc 1 162 39 discriminator 2 view .LVU901
# src/avx_analysis_code_ablations/opt10_abl_tile_8x256.cpp:162:                     for (int k = 0; k < remaining; ++k) {
	.loc 1 162 39 is_stmt 0 discriminator 262146 view .LVU902
	cmp	DWORD PTR 264[rsp], r10d	# %sfp, k
	jle	.L37	#,
.LBB2722:
	.loc 1 163 25 is_stmt 1 view .LVU903
.LVL148:
	.loc 1 164 25 view .LVU904
	.loc 1 165 25 view .LVU905
	.loc 1 166 25 view .LVU906
	.loc 1 167 25 view .LVU907
# src/avx_analysis_code_ablations/opt10_abl_tile_8x256.cpp:167:                         vp[k] += p.A*TL + p.B*TR + p.C*BL + p.D*BR;
	.loc 1 167 29 is_stmt 0 discriminator 294912 view .LVU908
	mov	r14, QWORD PTR 256[rsp]	# _118, %sfp
	lea	r13, 16[rax+r14]	# _1006,
# src/avx_analysis_code_ablations/opt10_abl_tile_8x256.cpp:163:                         float TL = p.SUB[ind_ltop + k];
	.loc 1 163 31 discriminator 294912 view .LVU909
	movzx	r14d, BYTE PTR [rsi+r10]	# *_285, *_285
	vcvtusi2ss	xmm4, xmm5, r14d	# tmp1600, tmp1583, *_285
# src/avx_analysis_code_ablations/opt10_abl_tile_8x256.cpp:164:                         float TR = p.SUB[ind_rtop + k];
	.loc 1 164 31 discriminator 294912 view .LVU910
	movzx	r14d, BYTE PTR [r12+r10]	# *_901, *_901
	vmovaps	xmm7, xmm4	# TL_1026, TL_1026
	vcvtusi2ss	xmm4, xmm5, r14d	# tmp1601, tmp1583, *_901
# src/avx_analysis_code_ablations/opt10_abl_tile_8x256.cpp:165:                         float BL = p.SUB[ind_lbot + k];
	.loc 1 165 31 discriminator 294912 view .LVU911
	movzx	r14d, BYTE PTR [rcx+r10]	# *_1012, *_1012
# src/avx_analysis_code_ablations/opt10_abl_tile_8x256.cpp:166:                         float BR = p.SUB[ind_rbot + k];
	.loc 1 166 31 discriminator 294912 view .LVU912
	movzx	r10d, BYTE PTR [rbx+r10]	# *_1009, *_1009
.LVL149:
	.loc 1 166 31 discriminator 294912 view .LVU913
	vfmadd213ss	xmm7, xmm18, DWORD PTR 0[r13]	# TL_1026, _79, *_1006
# src/avx_analysis_code_ablations/opt10_abl_tile_8x256.cpp:165:                         float BL = p.SUB[ind_lbot + k];
	.loc 1 165 31 discriminator 294912 view .LVU914
	vcvtusi2ss	xmm6, xmm5, r14d	# tmp1602, tmp1583, *_1012
.LBE2722:
# src/avx_analysis_code_ablations/opt10_abl_tile_8x256.cpp:162:                     for (int k = 0; k < remaining; ++k) {
	.loc 1 162 39 discriminator 294914 view .LVU915
	mov	r14d, DWORD PTR 264[rsp]	# remaining, %sfp
.LBB2723:
# src/avx_analysis_code_ablations/opt10_abl_tile_8x256.cpp:167:                         vp[k] += p.A*TL + p.B*TR + p.C*BL + p.D*BR;
	.loc 1 167 55 discriminator 294912 view .LVU916
	vmulss	xmm6, xmm6, xmm16	# _1002, BL_1011, _81
	vfmadd231ss	xmm6, xmm17, xmm4	# _94, _80, TR_1120
# src/avx_analysis_code_ablations/opt10_abl_tile_8x256.cpp:166:                         float BR = p.SUB[ind_rbot + k];
	.loc 1 166 31 discriminator 294912 view .LVU917
	vcvtusi2ss	xmm4, xmm5, r10d	# tmp1603, tmp1583, *_1009
.LBE2723:
# src/avx_analysis_code_ablations/opt10_abl_tile_8x256.cpp:162:                     for (int k = 0; k < remaining; ++k) {
	.loc 1 162 21 discriminator 294913 view .LVU918
	lea	r10d, 5[r8]	#,
.LBB2724:
# src/avx_analysis_code_ablations/opt10_abl_tile_8x256.cpp:167:                         vp[k] += p.A*TL + p.B*TR + p.C*BL + p.D*BR;
	.loc 1 167 31 discriminator 294912 view .LVU919
	vfmadd132ss	xmm4, xmm7, xmm15	# tmp1446, _93, _82
	vaddss	xmm4, xmm4, xmm6	# _999, tmp1446, _94
	vmovss	DWORD PTR 0[r13], xmm4	# *_1006, _999
.LBE2724:
	.loc 1 162 21 is_stmt 1 discriminator 1 view .LVU920
.LVL150:
	.loc 1 162 39 discriminator 2 view .LVU921
# src/avx_analysis_code_ablations/opt10_abl_tile_8x256.cpp:162:                     for (int k = 0; k < remaining; ++k) {
	.loc 1 162 39 is_stmt 0 discriminator 294914 view .LVU922
	cmp	r14d, r10d	# remaining, k
	jle	.L37	#,
.LBB2725:
	.loc 1 163 25 is_stmt 1 view .LVU923
.LVL151:
	.loc 1 164 25 view .LVU924
	.loc 1 165 25 view .LVU925
	.loc 1 166 25 view .LVU926
	.loc 1 167 25 view .LVU927
# src/avx_analysis_code_ablations/opt10_abl_tile_8x256.cpp:165:                         float BL = p.SUB[ind_lbot + k];
	.loc 1 165 31 is_stmt 0 discriminator 327680 view .LVU928
	movzx	ecx, BYTE PTR [rcx+r10]	# *_248, *_248
# src/avx_analysis_code_ablations/opt10_abl_tile_8x256.cpp:163:                         float TL = p.SUB[ind_ltop + k];
	.loc 1 163 31 discriminator 327680 view .LVU929
	movzx	esi, BYTE PTR [rsi+r10]	# *_247, *_247
.LBE2725:
# src/avx_analysis_code_ablations/opt10_abl_tile_8x256.cpp:162:                     for (int k = 0; k < remaining; ++k) {
	.loc 1 162 21 discriminator 327681 view .LVU930
	add	r8d, 6	#,
.LBB2726:
# src/avx_analysis_code_ablations/opt10_abl_tile_8x256.cpp:167:                         vp[k] += p.A*TL + p.B*TR + p.C*BL + p.D*BR;
	.loc 1 167 29 discriminator 327680 view .LVU931
	mov	r9, QWORD PTR 256[rsp]	# _118, %sfp
# src/avx_analysis_code_ablations/opt10_abl_tile_8x256.cpp:165:                         float BL = p.SUB[ind_lbot + k];
	.loc 1 165 31 discriminator 327680 view .LVU932
	vcvtusi2ss	xmm6, xmm5, ecx	# tmp1606, tmp1583, *_248
# src/avx_analysis_code_ablations/opt10_abl_tile_8x256.cpp:166:                         float BR = p.SUB[ind_rbot + k];
	.loc 1 166 31 discriminator 327680 view .LVU933
	movzx	ecx, BYTE PTR [rbx+r10]	# *_1069, *_1069
# src/avx_analysis_code_ablations/opt10_abl_tile_8x256.cpp:163:                         float TL = p.SUB[ind_ltop + k];
	.loc 1 163 31 discriminator 327680 view .LVU934
	vcvtusi2ss	xmm4, xmm5, esi	# tmp1604, tmp1583, *_247
# src/avx_analysis_code_ablations/opt10_abl_tile_8x256.cpp:164:                         float TR = p.SUB[ind_rtop + k];
	.loc 1 164 31 discriminator 327680 view .LVU935
	movzx	esi, BYTE PTR [r12+r10]	# *_147, *_147
# src/avx_analysis_code_ablations/opt10_abl_tile_8x256.cpp:167:                         vp[k] += p.A*TL + p.B*TR + p.C*BL + p.D*BR;
	.loc 1 167 55 discriminator 327680 view .LVU936
	vmulss	xmm6, xmm6, xmm16	# _255, BL_1131, _81
	vmovaps	xmm7, xmm4	# TL_693, TL_693
# src/avx_analysis_code_ablations/opt10_abl_tile_8x256.cpp:164:                         float TR = p.SUB[ind_rtop + k];
	.loc 1 164 31 discriminator 327680 view .LVU937
	vcvtusi2ss	xmm4, xmm5, esi	# tmp1605, tmp1583, *_147
	vfmadd213ss	xmm7, xmm18, DWORD PTR 20[rax+r9]	# TL_693, _79, *_253
	vfmadd231ss	xmm6, xmm17, xmm4	# _100, _80, TR_384
# src/avx_analysis_code_ablations/opt10_abl_tile_8x256.cpp:166:                         float BR = p.SUB[ind_rbot + k];
	.loc 1 166 31 discriminator 327680 view .LVU938
	vcvtusi2ss	xmm4, xmm5, ecx	# tmp1607, tmp1583, *_1069
# src/avx_analysis_code_ablations/opt10_abl_tile_8x256.cpp:167:                         vp[k] += p.A*TL + p.B*TR + p.C*BL + p.D*BR;
	.loc 1 167 31 discriminator 327680 view .LVU939
	vfmadd132ss	xmm4, xmm7, xmm15	# tmp1466, _99, _82
	vaddss	xmm4, xmm4, xmm6	# _711, tmp1466, _100
	vmovss	DWORD PTR 20[rax+r9], xmm4	# *_253, _711
.LBE2726:
	.loc 1 162 21 is_stmt 1 discriminator 1 view .LVU940
.LVL152:
	.loc 1 162 39 discriminator 2 view .LVU941
# src/avx_analysis_code_ablations/opt10_abl_tile_8x256.cpp:162:                     for (int k = 0; k < remaining; ++k) {
	.loc 1 162 39 is_stmt 0 discriminator 327682 view .LVU942
	cmp	r14d, r8d	# remaining, k
	jle	.L37	#,
.LBB2727:
	.loc 1 163 25 is_stmt 1 view .LVU943
.LVL153:
	.loc 1 164 25 view .LVU944
	.loc 1 165 25 view .LVU945
	.loc 1 166 25 view .LVU946
	.loc 1 167 25 view .LVU947
# src/avx_analysis_code_ablations/opt10_abl_tile_8x256.cpp:163:                         float TL = p.SUB[ind_ltop + k];
	.loc 1 163 54 is_stmt 0 discriminator 98304 view .LVU948
	add	r8, rdi	# tmp1473, _108
.LVL154:
# src/avx_analysis_code_ablations/opt10_abl_tile_8x256.cpp:167:                         vp[k] += p.A*TL + p.B*TR + p.C*BL + p.D*BR;
	.loc 1 167 29 discriminator 98304 view .LVU949
	lea	rax, 24[rax+r9]	# _130,
.LVL155:
# src/avx_analysis_code_ablations/opt10_abl_tile_8x256.cpp:164:                         float TR = p.SUB[ind_rtop + k];
	.loc 1 164 31 discriminator 98304 view .LVU950
	mov	r9, QWORD PTR 272[rsp]	# ind_rtop, %sfp
# src/avx_analysis_code_ablations/opt10_abl_tile_8x256.cpp:163:                         float TL = p.SUB[ind_ltop + k];
	.loc 1 163 31 discriminator 98304 view .LVU951
	movzx	edx, BYTE PTR [r8+rdx]	# *_173, *_173
.LVL156:
	.loc 1 163 31 discriminator 98304 view .LVU952
	vcvtusi2ss	xmm4, xmm5, edx	# tmp1608, tmp1583, *_173
# src/avx_analysis_code_ablations/opt10_abl_tile_8x256.cpp:164:                         float TR = p.SUB[ind_rtop + k];
	.loc 1 164 31 discriminator 98304 view .LVU953
	movzx	edx, BYTE PTR [r8+r9]	# *_165, *_165
.LVL157:
	.loc 1 164 31 discriminator 98304 view .LVU954
	vmovaps	xmm7, xmm4	# TL_167, TL_167
	vcvtusi2ss	xmm4, xmm5, edx	# tmp1609, tmp1583, *_165
# src/avx_analysis_code_ablations/opt10_abl_tile_8x256.cpp:165:                         float BL = p.SUB[ind_lbot + k];
	.loc 1 165 31 discriminator 98304 view .LVU955
	mov	rdx, QWORD PTR 232[rsp]	# ind_lbot, %sfp
.LVL158:
	.loc 1 165 31 discriminator 98304 view .LVU956
	vfmadd213ss	xmm7, xmm18, DWORD PTR [rax]	# TL_167, _79, *_130
	movzx	edx, BYTE PTR [r8+rdx]	# *_161, *_161
.LVL159:
	.loc 1 165 31 discriminator 98304 view .LVU957
	vcvtusi2ss	xmm6, xmm5, edx	# tmp1610, tmp1583, *_161
# src/avx_analysis_code_ablations/opt10_abl_tile_8x256.cpp:166:                         float BR = p.SUB[ind_rbot + k];
	.loc 1 166 31 discriminator 98304 view .LVU958
	movzx	edx, BYTE PTR [r8+r15]	# *_157, *_157
.LVL160:
# src/avx_analysis_code_ablations/opt10_abl_tile_8x256.cpp:167:                         vp[k] += p.A*TL + p.B*TR + p.C*BL + p.D*BR;
	.loc 1 167 55 discriminator 98304 view .LVU959
	vmulss	xmm6, xmm6, xmm16	# _54, BL_159, _81
	vfmadd231ss	xmm6, xmm17, xmm4	# _105, _80, TR_163
# src/avx_analysis_code_ablations/opt10_abl_tile_8x256.cpp:166:                         float BR = p.SUB[ind_rbot + k];
	.loc 1 166 31 discriminator 98304 view .LVU960
	vcvtusi2ss	xmm4, xmm5, edx	# tmp1611, tmp1583, *_157
# src/avx_analysis_code_ablations/opt10_abl_tile_8x256.cpp:167:                         vp[k] += p.A*TL + p.B*TR + p.C*BL + p.D*BR;
	.loc 1 167 31 discriminator 98304 view .LVU961
	vfmadd132ss	xmm4, xmm7, xmm15	# tmp1486, _104, _82
	vaddss	xmm4, xmm4, xmm6	# _47, tmp1486, _105
	vmovss	DWORD PTR [rax], xmm4	# *_130, _47
.LBE2727:
	.loc 1 162 21 is_stmt 1 discriminator 1 view .LVU962
	.loc 1 162 39 discriminator 2 view .LVU963
.LVL161:
.L37:
	.loc 1 162 39 is_stmt 0 discriminator 2 view .LVU964
.LBE2709:
.LBE2739:
	.loc 1 122 17 is_stmt 1 discriminator 1 view .LVU965
	inc	DWORD PTR 248[rsp]	# %sfp
.LVL162:
# src/avx_analysis_code_ablations/opt10_abl_tile_8x256.cpp:122:                 for (int y = y_begin; y < y_end; ++y) {
	.loc 1 122 41 is_stmt 0 discriminator 2 view .LVU966
	mov	rdi, QWORD PTR 200[rsp]	# _605, %sfp
	add	QWORD PTR 224[rsp], rdi	# %sfp, _605
# src/avx_analysis_code_ablations/opt10_abl_tile_8x256.cpp:122:                 for (int y = y_begin; y < y_end; ++y) {
	.loc 1 122 17 discriminator 1 view .LVU967
	mov	eax, DWORD PTR 248[rsp]	# y, %sfp
.LVL163:
	.loc 1 122 41 is_stmt 1 discriminator 2 view .LVU968
	cmp	eax, DWORD PTR 216[rsp]	# y, %sfp
	jl	.L42	#,
	mov	r12d, DWORD PTR 124[rsp]	# _75, %sfp
	mov	r8d, DWORD PTR 120[rsp]	# _435, %sfp
	mov	ebx, DWORD PTR 116[rsp]	# tx, %sfp
	mov	r15d, DWORD PTR 112[rsp]	# ty, %sfp
.LVL164:
.L34:
	.loc 1 122 41 is_stmt 0 discriminator 2 view .LVU969
.LBE2783:
.LBE2788:
	.loc 1 110 13 is_stmt 1 discriminator 4 view .LVU970
	.loc 1 110 39 discriminator 5 view .LVU971
# src/avx_analysis_code_ablations/opt10_abl_tile_8x256.cpp:110:             for (const SubParams& p : params) {
	.loc 1 110 39 is_stmt 0 discriminator 6 view .LVU972
	add	QWORD PTR 240[rsp], 48	# %sfp,
.LVL165:
	.loc 1 110 39 discriminator 6 view .LVU973
	mov	rax, QWORD PTR 240[rsp]	# ivtmp.569, %sfp
	cmp	QWORD PTR 144[rsp], rax	# %sfp, ivtmp.569
	jne	.L43	#,
	mov	r13d, DWORD PTR 108[rsp]	#, %sfp
	mov	r8, QWORD PTR 96[rsp]	# _613, %sfp
.LVL166:
.L33:
	.loc 1 110 39 discriminator 6 view .LVU974
.LBE2847:
.LBB2848:
	.loc 1 173 32 is_stmt 1 discriminator 2 view .LVU975
	cmp	DWORD PTR 140[rsp], r15d	# %sfp, ty
	jle	.L44	#,
	test	r13d, r13d	# tile_w_actual
	jle	.L44	#,
	lea	r12d, 0[r13+r13*2]	# _186,
	mov	rax, QWORD PTR 80[rsp]	# _325, %sfp
	mov	rdx, QWORD PTR 152[rsp]	# ivtmp.574, %sfp
	lea	r9, 0[r13+r13*2]	# _190,
	movsxd	r12, r12d	# _183, _186
	mov	r11, QWORD PTR 56[rsp]	# ivtmp.516, %sfp
	lea	r14, 0[0+r9*4]	# tmp1498,
	mov	r10, r8	# ivtmp.514, _613
	mov	QWORD PTR 272[rsp], r12	# %sfp, _183
	lea	r13, [rax+rdx*4]	# _699,
# src/avx_analysis_code_ablations/opt10_abl_tile_8x256.cpp:173:             for (int y = ty; y < tile_y_end; ++y) {
	.loc 1 173 22 is_stmt 0 view .LVU976
	mov	ebx, r15d	# y, ty
# src/avx_analysis_code_ablations/opt10_abl_tile_8x256.cpp:173:             for (int y = ty; y < tile_y_end; ++y) {
	.loc 1 173 32 discriminator 2 view .LVU977
	xor	edi, edi	# ivtmp.513
.LVL167:
	.p2align 4,,10
	.p2align 3
.L48:
.LBB2814:
	.loc 1 174 17 is_stmt 1 view .LVU978
	.loc 1 175 17 view .LVU979
.LBB2809:
.LBI2809:
	.loc 2 1385 7 view .LVU980
	.loc 2 1385 7 is_stmt 0 view .LVU981
.LBE2809:
	.loc 1 176 17 is_stmt 1 view .LVU982
.LBB2810:
	.loc 1 176 35 discriminator 2 view .LVU983
.LBE2810:
# src/avx_analysis_code_ablations/opt10_abl_tile_8x256.cpp:175:                 unsigned char* outp = output.data.data() + (y * width + tx) * 3;
	.loc 1 175 77 is_stmt 0 discriminator 1 view .LVU984
	mov	rax, QWORD PTR 152[rsp]	# ivtmp.574, %sfp
	lea	rdx, 0[r13+r11*4]	# ivtmp.498,
	add	rax, r11	# _278, ivtmp.516
	lea	rcx, [rax+rax*2]	# _482,
# src/avx_analysis_code_ablations/opt10_abl_tile_8x256.cpp:175:                 unsigned char* outp = output.data.data() + (y * width + tx) * 3;
	.loc 1 175 79 discriminator 1 view .LVU985
	mov	rax, QWORD PTR 128[rsp]	# <retval>, %sfp
	add	rcx, QWORD PTR 16[rax]	# outp, MEM[(struct vector *)output_206(D) + 16B].D.87585._M_impl.D.86896._M_start
	xor	eax, eax	# ivtmp.506
	jmp	.L47	#
.LVL168:
	.loc 1 175 79 discriminator 1 view .LVU986
	.p2align 5
	.p2align 4,,10
	.p2align 3
.L45:
.LBB2811:
.LBB2802:
	.loc 1 179 25 is_stmt 1 view .LVU987
# src/avx_analysis_code_ablations/opt10_abl_tile_8x256.cpp:179:                         outp[x*3] = outp[x*3+1] = outp[x*3+2] = 0;
	.loc 1 179 35 is_stmt 0 view .LVU988
	xor	esi, esi	#
.LVL169:
# src/avx_analysis_code_ablations/opt10_abl_tile_8x256.cpp:179:                         outp[x*3] = outp[x*3+1] = outp[x*3+2] = 0;
	.loc 1 179 63 view .LVU989
	mov	BYTE PTR 2[rcx+rax], 0	# MEM[(unsigned char *)outp_716 + 2B + ivtmp.506_1284 * 1],
.LBE2802:
# src/avx_analysis_code_ablations/opt10_abl_tile_8x256.cpp:176:                 for (int x = 0; x < tile_w_actual; ++x) {
	.loc 1 176 35 discriminator 2 view .LVU990
	add	rdx, 4	# ivtmp.498,
.LVL170:
.LBB2803:
# src/avx_analysis_code_ablations/opt10_abl_tile_8x256.cpp:179:                         outp[x*3] = outp[x*3+1] = outp[x*3+2] = 0;
	.loc 1 179 35 view .LVU991
	mov	WORD PTR [rcx+rax], si	# MEM <vector(2) unsigned char> [(unsigned char *)outp_716 + ivtmp.506_1284 * 1],
	.loc 1 180 25 is_stmt 1 view .LVU992
.LBE2803:
	.loc 1 176 17 discriminator 1 view .LVU993
.LVL171:
	.loc 1 176 35 discriminator 2 view .LVU994
	add	rax, 3	# ivtmp.506,
.LVL172:
	.loc 1 176 35 is_stmt 0 discriminator 2 view .LVU995
	cmp	r9, rax	# _190, ivtmp.506
	je	.L140	#,
.LVL173:
.L47:
.LBB2804:
	.loc 1 177 21 is_stmt 1 view .LVU996
# src/avx_analysis_code_ablations/opt10_abl_tile_8x256.cpp:177:                     int c = counts[y * width + (tx + x)];
	.loc 1 177 56 is_stmt 0 discriminator 1 view .LVU997
	mov	esi, DWORD PTR [rdx]	# c, MEM[(value_type &)_1288]
.LVL174:
	.loc 1 178 21 is_stmt 1 view .LVU998
	test	esi, esi	# c
	je	.L45	#,
	.loc 1 182 21 view .LVU999
# src/avx_analysis_code_ablations/opt10_abl_tile_8x256.cpp:182:                     float inv_c = 1.0f / static_cast<float>(c);
	.loc 1 182 42 is_stmt 0 view .LVU1000
	vcvtsi2ss	xmm0, xmm5, esi	# tmp1612, tmp1583, c
.LBE2804:
# src/avx_analysis_code_ablations/opt10_abl_tile_8x256.cpp:176:                 for (int x = 0; x < tile_w_actual; ++x) {
	.loc 1 176 35 discriminator 2 view .LVU1001
	add	rdx, 4	# ivtmp.498,
.LBB2805:
# src/avx_analysis_code_ablations/opt10_abl_tile_8x256.cpp:182:                     float inv_c = 1.0f / static_cast<float>(c);
	.loc 1 182 27 view .LVU1002
	vdivss	xmm0, xmm23, xmm0	# inv_c, tmp1562, _941
.LVL175:
	.loc 1 183 21 is_stmt 1 view .LVU1003
.LBB2794:
	.loc 1 183 41 discriminator 2 view .LVU1004
.LBB2795:
	.loc 1 184 25 view .LVU1005
	.loc 1 185 25 view .LVU1006
# src/avx_analysis_code_ablations/opt10_abl_tile_8x256.cpp:184:                         float v = vp[x*3 + ch] * inv_c;
	.loc 1 184 31 is_stmt 0 discriminator 32768 view .LVU1007
	vmulss	xmm1, xmm0, DWORD PTR [r10+rax*4]	# v_935, inv_c, MEM[(const float *)_1179 + ivtmp.506_1284 * 4]
# src/avx_analysis_code_ablations/opt10_abl_tile_8x256.cpp:185:                         outp[x*3 + ch] = static_cast<unsigned char>(v);
	.loc 1 185 42 discriminator 32768 view .LVU1008
	vcvttss2si	esi, xmm1	# tmp1513, v_935
.LVL176:
	.loc 1 185 42 discriminator 32768 view .LVU1009
	mov	BYTE PTR [rcx+rax], sil	# MEM[(unsigned char *)outp_716 + ivtmp.506_1284 * 1], tmp1513
.LBE2795:
	.loc 1 183 21 is_stmt 1 discriminator 1 view .LVU1010
.LVL177:
	.loc 1 183 41 discriminator 2 view .LVU1011
.LBB2796:
	.loc 1 184 25 view .LVU1012
# src/avx_analysis_code_ablations/opt10_abl_tile_8x256.cpp:184:                         float v = vp[x*3 + ch] * inv_c;
	.loc 1 184 42 is_stmt 0 discriminator 65536 view .LVU1013
	lea	esi, 1[rax]	# _931,
.LVL178:
	.loc 1 185 25 is_stmt 1 view .LVU1014
# src/avx_analysis_code_ablations/opt10_abl_tile_8x256.cpp:184:                         float v = vp[x*3 + ch] * inv_c;
	.loc 1 184 46 is_stmt 0 discriminator 65536 view .LVU1015
	lea	r12, [rdi+rsi]	# tmp1515,
.LVL179:
# src/avx_analysis_code_ablations/opt10_abl_tile_8x256.cpp:184:                         float v = vp[x*3 + ch] * inv_c;
	.loc 1 184 31 discriminator 65536 view .LVU1016
	vmulss	xmm1, xmm0, DWORD PTR [r8+r12*4]	# v_926, inv_c, *_928
# src/avx_analysis_code_ablations/opt10_abl_tile_8x256.cpp:185:                         outp[x*3 + ch] = static_cast<unsigned char>(v);
	.loc 1 185 42 discriminator 65536 view .LVU1017
	vcvttss2si	r12d, xmm1	# tmp1518, v_926
.LVL180:
	.loc 1 185 42 discriminator 65536 view .LVU1018
	mov	BYTE PTR [rcx+rsi], r12b	# *_925, tmp1518
.LBE2796:
	.loc 1 183 21 is_stmt 1 discriminator 1 view .LVU1019
.LVL181:
	.loc 1 183 41 discriminator 2 view .LVU1020
.LBB2797:
	.loc 1 184 25 view .LVU1021
# src/avx_analysis_code_ablations/opt10_abl_tile_8x256.cpp:184:                         float v = vp[x*3 + ch] * inv_c;
	.loc 1 184 42 is_stmt 0 discriminator 98304 view .LVU1022
	lea	esi, 2[rax]	# _921,
.LVL182:
	.loc 1 185 25 is_stmt 1 view .LVU1023
.LBE2797:
.LBE2794:
.LBE2805:
# src/avx_analysis_code_ablations/opt10_abl_tile_8x256.cpp:176:                 for (int x = 0; x < tile_w_actual; ++x) {
	.loc 1 176 35 is_stmt 0 discriminator 2 view .LVU1024
	add	rax, 3	# ivtmp.506,
.LVL183:
.LBB2806:
.LBB2799:
.LBB2798:
# src/avx_analysis_code_ablations/opt10_abl_tile_8x256.cpp:184:                         float v = vp[x*3 + ch] * inv_c;
	.loc 1 184 46 discriminator 98304 view .LVU1025
	lea	r12, [rdi+rsi]	# tmp1520,
.LVL184:
# src/avx_analysis_code_ablations/opt10_abl_tile_8x256.cpp:184:                         float v = vp[x*3 + ch] * inv_c;
	.loc 1 184 31 discriminator 98304 view .LVU1026
	vmulss	xmm0, xmm0, DWORD PTR [r8+r12*4]	# v_916, inv_c, *_918
.LVL185:
# src/avx_analysis_code_ablations/opt10_abl_tile_8x256.cpp:185:                         outp[x*3 + ch] = static_cast<unsigned char>(v);
	.loc 1 185 42 discriminator 98304 view .LVU1027
	vcvttss2si	r12d, xmm0	# tmp1523, v_916
	.loc 1 185 42 discriminator 98304 view .LVU1028
	mov	BYTE PTR [rcx+rsi], r12b	# *_915, tmp1523
.LBE2798:
	.loc 1 183 21 is_stmt 1 discriminator 1 view .LVU1029
.LVL186:
	.loc 1 183 41 discriminator 2 view .LVU1030
.LBE2799:
.LBE2806:
	.loc 1 176 17 discriminator 1 view .LVU1031
	.loc 1 176 35 discriminator 2 view .LVU1032
	cmp	r9, rax	# _190, ivtmp.506
	jne	.L47	#,
.LVL187:
.L140:
	.loc 1 176 35 is_stmt 0 discriminator 2 view .LVU1033
.LBE2811:
.LBE2814:
	.loc 1 173 13 is_stmt 1 discriminator 1 view .LVU1034
	inc	ebx	# y
.LVL188:
	.loc 1 173 32 discriminator 2 view .LVU1035
	add	rdi, QWORD PTR 272[rsp]	# ivtmp.513, %sfp
	add	r10, r14	# ivtmp.514, tmp1498
	add	r11, QWORD PTR 160[rsp]	# ivtmp.516, %sfp
	cmp	DWORD PTR 140[rsp], ebx	# %sfp, y
	jne	.L48	#,
.LVL189:
.L44:
	.loc 1 173 32 is_stmt 0 discriminator 2 view .LVU1036
.LBE2848:
.LBE2851:
	.loc 1 100 29 is_stmt 1 discriminator 2 view .LVU1037
	add	QWORD PTR 152[rsp], 256	# %sfp,
.LVL190:
	.loc 1 100 29 is_stmt 0 discriminator 2 view .LVU1038
	mov	rax, QWORD PTR 152[rsp]	# ivtmp.574, %sfp
	cmp	DWORD PTR 104[rsp], eax	# %sfp, tmp1939
	jg	.L49	#,
.LBE2864:
.LBE2624:
# src/avx_analysis_code_ablations/opt10_abl_tile_8x256.cpp:96:     for (int ty = 0; ty < h; ty += TILE_H) {
	.loc 1 96 25 discriminator 2 view .LVU1039
	mov	r12, QWORD PTR 8[rsp]	# _1149, %sfp
	mov	rdx, QWORD PTR 56[rsp]	# ivtmp.581, %sfp
.LVL191:
	.loc 1 96 25 discriminator 2 view .LVU1040
	mov	r14d, DWORD PTR 48[rsp]	# _2, %sfp
	mov	ebx, DWORD PTR 20[rsp]	# _71, %sfp
.LVL192:
	.loc 1 96 25 is_stmt 1 discriminator 2 view .LVU1041
	add	rdx, r12	# ivtmp.581, _1149
	cmp	ebx, r14d	# _71, _2
	jl	.L50	#,
	mov	r15, QWORD PTR 32[rsp]	# _26, %sfp
	mov	rbx, QWORD PTR 24[rsp]	# _433, %sfp
.LVL193:
	.loc 1 96 25 is_stmt 0 discriminator 2 view .LVU1042
	vzeroupper
.LVL194:
.L31:
	.loc 1 96 25 discriminator 2 view .LVU1043
.LBE2623:
	.loc 1 192 5 is_stmt 1 view .LVU1044
.LBB2869:
.LBI2869:
	.loc 2 790 7 view .LVU1045
.LBB2870:
.LBI2870:
	.loc 2 307 7 view .LVU1046
	.loc 2 307 7 is_stmt 0 view .LVU1047
.LBE2870:
.LBB2871:
.LBI2871:
	.loc 8 1082 5 is_stmt 1 view .LVU1048
	.loc 8 1082 5 is_stmt 0 view .LVU1049
.LBE2871:
.LBB2872:
.LBI2872:
	.loc 2 373 7 is_stmt 1 view .LVU1050
.LBB2873:
.LBB2874:
.LBI2874:
	.loc 2 394 7 view .LVU1051
.LBB2875:
.LBB2876:
.LBI2876:
	.loc 8 688 7 view .LVU1052
.LBB2877:
.LBI2877:
	.loc 6 167 7 view .LVU1053
.LBB2878:
# /usr/include/c++/16/bits/new_allocator.h:183: 	_GLIBCXX_OPERATOR_DELETE(_GLIBCXX_SIZED_DEALLOC(__p, __n));
	.loc 6 183 59 is_stmt 0 view .LVU1054
	mov	rdi, QWORD PTR 40[rsp]	#, %sfp
	mov	esi, 24576	#,
	call	"_ZdlPvm"@PLT	#
.LVL195:
	.loc 6 183 59 view .LVU1055
.LBE2878:
.LBE2877:
.LBE2876:
.LBE2875:
.LBE2874:
.LBE2873:
.LBB2879:
.LBI2879:
	.loc 2 139 14 is_stmt 1 view .LVU1056
.LBB2880:
.LBI2880:
	.loc 5 189 7 view .LVU1057
.LBB2881:
.LBI2881:
	.loc 6 104 7 view .LVU1058
	.loc 6 104 7 is_stmt 0 view .LVU1059
.LBE2881:
.LBE2880:
.LBE2879:
.LBE2872:
.LBE2869:
.LBB2882:
.LBI2882:
	.loc 2 790 7 is_stmt 1 view .LVU1060
.LBB2883:
.LBI2883:
	.loc 2 307 7 view .LVU1061
	.loc 2 307 7 is_stmt 0 view .LVU1062
.LBE2883:
.LBB2884:
.LBI2884:
	.loc 8 1082 5 is_stmt 1 view .LVU1063
	.loc 8 1082 5 is_stmt 0 view .LVU1064
.LBE2884:
.LBB2885:
.LBI2885:
	.loc 2 373 7 is_stmt 1 view .LVU1065
.LBB2886:
.LBB2887:
.LBI2887:
	.loc 2 394 7 view .LVU1066
.LBB2888:
# /usr/include/c++/16/bits/stl_vector.h:397: 	if (__p)
	.loc 2 397 2 is_stmt 0 view .LVU1067
	test	rbx, rbx	# _433
	je	.L51	#,
.LVL196:
.LBB2889:
.LBI2889:
	.loc 8 688 7 is_stmt 1 view .LVU1068
.LBB2890:
.LBI2890:
	.loc 6 167 7 view .LVU1069
.LBB2891:
# /usr/include/c++/16/bits/new_allocator.h:183: 	_GLIBCXX_OPERATOR_DELETE(_GLIBCXX_SIZED_DEALLOC(__p, __n));
	.loc 6 183 59 is_stmt 0 view .LVU1070
	mov	rsi, r15	#, _26
	mov	rdi, rbx	#, _433
	call	"_ZdlPvm"@PLT	#
.LVL197:
	.loc 6 183 59 view .LVU1071
.LBE2891:
.LBE2890:
.LBE2889:
.LBE2888:
.LBE2887:
.LBE2886:
.LBB2892:
.LBI2892:
	.loc 2 139 14 is_stmt 1 view .LVU1072
.LBB2893:
.LBI2893:
	.loc 5 189 7 view .LVU1073
.LBB2894:
.LBI2894:
	.loc 6 104 7 view .LVU1074
	.loc 6 104 7 is_stmt 0 view .LVU1075
.LBE2894:
.LBE2893:
.LBE2892:
.LBE2885:
.LBE2882:
.LBB2895:
.LBI2895:
	.loc 2 790 7 is_stmt 1 view .LVU1076
.LBB2896:
.LBI2896:
	.loc 2 307 7 view .LVU1077
	.loc 2 307 7 is_stmt 0 view .LVU1078
.LBE2896:
.LBB2897:
.LBI2897:
	.loc 8 1082 5 is_stmt 1 view .LVU1079
	.loc 8 1082 5 is_stmt 0 view .LVU1080
.LBE2897:
.LBB2898:
.LBI2898:
	.loc 2 373 7 is_stmt 1 view .LVU1081
.L51:
.LBB2899:
.LBB2900:
.LBI2900:
	.loc 2 394 7 view .LVU1082
.LBB2901:
# /usr/include/c++/16/bits/stl_vector.h:397: 	if (__p)
	.loc 2 397 2 is_stmt 0 view .LVU1083
	mov	rax, QWORD PTR 80[rsp]	# _325, %sfp
	test	rax, rax	# _325
	je	.L52	#,
.LVL198:
.LBB2902:
.LBI2902:
	.loc 8 688 7 is_stmt 1 view .LVU1084
.LBB2903:
.LBI2903:
	.loc 6 167 7 view .LVU1085
.LBB2904:
# /usr/include/c++/16/bits/new_allocator.h:183: 	_GLIBCXX_OPERATOR_DELETE(_GLIBCXX_SIZED_DEALLOC(__p, __n));
	.loc 6 183 59 is_stmt 0 view .LVU1086
	mov	rsi, QWORD PTR 72[rsp]	#, %sfp
	mov	rdi, rax	#, _325
	call	"_ZdlPvm"@PLT	#
.LVL199:
.L52:
	.loc 6 183 59 view .LVU1087
.LBE2904:
.LBE2903:
.LBE2902:
.LBE2901:
.LBE2900:
.LBE2899:
.LBB2905:
.LBI2905:
	.loc 2 139 14 is_stmt 1 view .LVU1088
.LBB2906:
.LBI2906:
	.loc 5 189 7 view .LVU1089
.LBB2907:
.LBI2907:
	.loc 6 104 7 view .LVU1090
	.loc 6 104 7 is_stmt 0 view .LVU1091
.LBE2907:
.LBE2906:
.LBE2905:
.LBE2898:
.LBE2895:
.LBB2908:
.LBI2384:
	.loc 2 790 7 is_stmt 1 view .LVU1092
.LBB2398:
.LBI2398:
	.loc 2 307 7 view .LVU1093
	.loc 2 307 7 is_stmt 0 view .LVU1094
.LBE2398:
.LBB2399:
.LBI2399:
	.loc 8 1082 5 is_stmt 1 view .LVU1095
	.loc 8 1082 5 is_stmt 0 view .LVU1096
.LBE2399:
.LBB2400:
.LBI2385:
	.loc 2 373 7 is_stmt 1 view .LVU1097
.LBB2394:
.LBB2387:
.LBI2387:
	.loc 2 394 7 view .LVU1098
.LBB2388:
# /usr/include/c++/16/bits/stl_vector.h:397: 	if (__p)
	.loc 2 397 2 is_stmt 0 view .LVU1099
	mov	rax, QWORD PTR 88[rsp]	# __new_finish, %sfp
	test	rax, rax	# __new_finish
	je	.L1	#,
.LVL200:
.LBB2389:
.LBI2389:
	.loc 2 394 7 is_stmt 1 view .LVU1100
.LBB2390:
.LBB2391:
.LBI2391:
	.loc 8 688 7 view .LVU1101
.LBB2392:
.LBI2392:
	.loc 6 167 7 view .LVU1102
.LBB2393:
# /usr/include/c++/16/bits/new_allocator.h:183: 	_GLIBCXX_OPERATOR_DELETE(_GLIBCXX_SIZED_DEALLOC(__p, __n));
	.loc 6 183 59 is_stmt 0 view .LVU1103
	mov	rsi, QWORD PTR 64[rsp]	#, %sfp
	mov	rdi, rax	#, __new_finish
	call	"_ZdlPvm"@PLT	#
.LVL201:
	.loc 6 183 59 view .LVU1104
.LBE2393:
.LBE2392:
.LBE2391:
.LBE2390:
.LBE2389:
.LBE2388:
.LBE2387:
.LBE2394:
.LBB2395:
.LBI2395:
	.loc 2 139 14 is_stmt 1 view .LVU1105
.LBB2396:
.LBI2396:
	.loc 5 189 7 view .LVU1106
.LBB2397:
.LBI2397:
	.loc 6 104 7 view .LVU1107
.L1:
	.loc 6 104 7 is_stmt 0 view .LVU1108
.LBE2397:
.LBE2396:
.LBE2395:
.LBE2400:
.LBE2908:
# src/avx_analysis_code_ablations/opt10_abl_tile_8x256.cpp:193: }
	.loc 1 193 1 view .LVU1109
	mov	rax, QWORD PTR 128[rsp]	#, %sfp
	lea	rsp, -40[rbp]	#,
.LVL202:
	.loc 1 193 1 view .LVU1110
	pop	rbx	#
	pop	r12	#
	pop	r13	#
	pop	r14	#
	pop	r15	#
	pop	rbp	#
	.cfi_remember_state
	.cfi_def_cfa 7, 8
.LVL203:
	.loc 1 193 1 view .LVU1111
	ret	
.LVL204:
.L2:
	.cfi_restore_state
# src/avx_analysis_code_ablations/opt10_abl_tile_8x256.cpp:43:     output.data.assign(width * height * 3, 0);
	.loc 1 43 23 view .LVU1112
	lea	r14, [rdx+rdx*2]	# _5,
.LVL205:
.LBB2909:
.LBB2216:
.LBB2214:
.LBB2212:
.LBB2159:
.LBB2160:
.LBI2160:
	.loc 2 589 7 is_stmt 1 view .LVU1113
.LBB2161:
.LBI2161:
	.loc 2 2203 7 view .LVU1114
.LBB2162:
.LBB2163:
.LBI2163:
	.loc 5 172 7 view .LVU1115
.LBB2164:
.LBI2164:
	.loc 6 92 7 view .LVU1116
	.loc 6 92 7 is_stmt 0 view .LVU1117
.LBE2164:
.LBE2163:
.LBB2165:
.LBI2165:
	.loc 5 189 7 is_stmt 1 view .LVU1118
.LBB2166:
.LBI2166:
	.loc 6 104 7 view .LVU1119
.LBE2166:
.LBE2165:
# /usr/include/c++/16/bits/stl_vector.h:2205: 	if (__n > _S_max_size(_Tp_alloc_type(__a)))
	.loc 2 2205 2 is_stmt 0 discriminator 3 view .LVU1120
	test	r14, r14	# _5
	js	.L132	#,
.LVL206:
	.loc 2 2205 2 discriminator 3 view .LVU1121
.LBE2162:
.LBE2161:
.LBB2168:
.LBI2168:
	.loc 2 339 7 is_stmt 1 view .LVU1122
.LBB2169:
.LBI2169:
	.loc 2 152 2 view .LVU1123
.LBB2170:
.LBI2170:
	.loc 5 172 7 view .LVU1124
.LBB2171:
.LBI2171:
	.loc 6 92 7 view .LVU1125
	.loc 6 92 7 is_stmt 0 view .LVU1126
.LBE2171:
.LBE2170:
.LBB2172:
.LBI2172:
	.loc 2 105 2 is_stmt 1 view .LVU1127
	.loc 2 105 2 is_stmt 0 view .LVU1128
.LBE2172:
.LBE2169:
.LBB2173:
.LBI2173:
	.loc 2 405 7 is_stmt 1 view .LVU1129
.LBB2174:
.LBB2175:
.LBI2175:
	.loc 2 386 7 view .LVU1130
.LBB2176:
.LBB2177:
.LBI2177:
	.loc 8 637 7 view .LVU1131
.LBB2178:
.LBI2178:
	.loc 6 129 7 view .LVU1132
.LBB2179:
# /usr/include/c++/16/bits/new_allocator.h:162: 	  return static_cast<_Tp*>(_GLIBCXX_OPERATOR_NEW(__n * sizeof(_Tp)));
	.loc 6 162 68 is_stmt 0 view .LVU1133
	mov	rdi, r14	#, _5
.LVL207:
.LEHB4:
	.loc 6 162 68 view .LVU1134
	call	"_Znwm"@PLT	#
.LVL208:
.LEHE4:
	.loc 6 162 68 view .LVU1135
.LBE2179:
.LBE2178:
.LBE2177:
.LBE2176:
.LBE2175:
.LBE2174:
.LBE2173:
.LBE2168:
.LBB2182:
.LBB2183:
.LBB2184:
.LBB2185:
.LBB2186:
.LBB2187:
# /usr/include/c++/16/bits/stl_uninitialized.h:577: 		      __builtin_memset(__dest, (unsigned char)__x, __n);
	.loc 12 577 25 view .LVU1136
	xor	esi, esi	#
	mov	rdx, r14	#, _5
.LBE2187:
.LBE2186:
.LBE2185:
.LBE2184:
.LBE2183:
.LBE2182:
.LBB2193:
.LBB2181:
.LBB2180:
# /usr/include/c++/16/bits/stl_vector.h:409: 	this->_M_impl._M_end_of_storage = this->_M_impl._M_start + __n;
	.loc 2 409 59 view .LVU1137
	lea	r15, [rax+r14]	# _472,
.LVL209:
	.loc 2 409 59 view .LVU1138
.LBE2180:
.LBE2181:
.LBE2193:
.LBB2194:
.LBI2182:
	.loc 2 1987 7 is_stmt 1 view .LVU1139
.LBB2192:
.LBI2183:
	.loc 12 771 5 view .LVU1140
.LBB2191:
.LBI2184:
	.loc 12 550 5 view .LVU1141
.LBB2190:
.LBB2189:
.LBB2188:
# /usr/include/c++/16/bits/stl_uninitialized.h:577: 		      __builtin_memset(__dest, (unsigned char)__x, __n);
	.loc 12 577 25 is_stmt 0 view .LVU1142
	mov	rdi, rax	#,
	call	"memset"@PLT	#
.LVL210:
	.loc 12 577 25 view .LVU1143
	mov	rcx, rax	# tmp1571,
.LVL211:
	.loc 12 577 25 view .LVU1144
.LBE2188:
.LBE2189:
.LBE2190:
.LBE2191:
.LBE2192:
.LBE2194:
.LBE2160:
.LBB2196:
.LBI2196:
	.loc 2 128 2 is_stmt 1 view .LVU1145
.LBB2197:
.LBB2198:
.LBI2198:
	.loc 2 105 2 view .LVU1146
	.loc 2 105 2 is_stmt 0 view .LVU1147
.LBE2198:
.LBB2199:
.LBI2199:
	.loc 2 119 2 is_stmt 1 view .LVU1148
.LBB2200:
# /usr/include/c++/16/bits/stl_vector.h:121: 	  _M_start = __x._M_start;
	.loc 2 121 13 is_stmt 0 view .LVU1149
	mov	rax, QWORD PTR 128[rsp]	# <retval>, %sfp
.LVL212:
	.loc 2 121 13 view .LVU1150
	mov	QWORD PTR 16[rax], rcx	# MEM[(struct _Vector_impl_data *)output_206(D) + 16B]._M_start, tmp1571
# /usr/include/c++/16/bits/stl_vector.h:122: 	  _M_finish = __x._M_finish;
	.loc 2 122 14 view .LVU1151
	mov	QWORD PTR 24[rax], r15	# MEM[(struct _Vector_impl_data *)output_206(D) + 16B]._M_finish, _472
# /usr/include/c++/16/bits/stl_vector.h:123: 	  _M_end_of_storage = __x._M_end_of_storage;
	.loc 2 123 22 view .LVU1152
	mov	QWORD PTR 32[rax], r15	# MEM[(struct _Vector_impl_data *)output_206(D) + 16B]._M_end_of_storage, _472
.LVL213:
	.loc 2 123 22 view .LVU1153
.LBE2200:
.LBE2199:
.LBE2197:
.LBE2196:
.LBB2201:
.LBI2201:
	.loc 2 790 7 is_stmt 1 view .LVU1154
.LBB2202:
.LBI2202:
	.loc 2 307 7 view .LVU1155
	.loc 2 307 7 is_stmt 0 view .LVU1156
.LBE2202:
.LBB2203:
.LBI2203:
	.loc 8 1082 5 is_stmt 1 view .LVU1157
	.loc 8 1082 5 is_stmt 0 view .LVU1158
.LBE2203:
.LBB2204:
.LBI2204:
	.loc 2 373 7 is_stmt 1 view .LVU1159
.LBB2205:
.LBB2206:
.LBI2206:
	.loc 2 394 7 view .LVU1160
	.loc 2 394 7 is_stmt 0 view .LVU1161
.LBE2206:
.LBE2205:
.LBB2207:
.LBI2207:
	.loc 2 139 14 is_stmt 1 view .LVU1162
.LBB2208:
.LBI2208:
	.loc 5 189 7 view .LVU1163
.LBB2209:
.LBI2209:
	.loc 6 104 7 view .LVU1164
	.loc 6 104 7 is_stmt 0 view .LVU1165
.LBE2209:
.LBE2208:
.LBE2207:
.LBE2204:
.LBE2201:
.LBE2159:
.LBE2212:
.LBE2214:
.LBE2216:
.LBE2909:
	.loc 1 46 5 is_stmt 1 view .LVU1166
.LBB2910:
	.loc 2 551 7 view .LVU1167
.LBB2244:
	.loc 2 321 7 view .LVU1168
.LBB2238:
	.loc 2 143 2 view .LVU1169
.LBB2231:
	.loc 5 168 7 view .LVU1170
.LBB2223:
	.loc 6 88 7 view .LVU1171
	.loc 6 88 7 is_stmt 0 view .LVU1172
.LBE2223:
.LBE2231:
.LBB2232:
	.loc 2 105 2 is_stmt 1 view .LVU1173
	.loc 2 105 2 is_stmt 0 view .LVU1174
.LBE2232:
.LBE2238:
.LBE2244:
.LBE2910:
	.loc 1 47 5 is_stmt 1 view .LVU1175
.LBB2911:
	.loc 2 1107 7 view .LVU1176
.LBB2252:
# /usr/include/c++/16/bits/stl_vector.h:1109: 	ptrdiff_t __dif = this->_M_impl._M_finish - this->_M_impl._M_start;
	.loc 2 1109 34 is_stmt 0 view .LVU1177
	mov	rax, QWORD PTR 8[r13]	# _347, MEM[(const struct vector *)subapertures_201(D)].D.139286._M_impl.D.138633._M_finish
.LVL214:
	.loc 2 1109 34 view .LVU1178
.LBE2252:
.LBE2911:
.LBB2912:
	.loc 7 70 5 is_stmt 1 view .LVU1179
	.loc 7 70 5 is_stmt 0 view .LVU1180
.LBE2912:
.LBB2913:
.LBB2253:
# /usr/include/c++/16/bits/stl_vector.h:1109: 	ptrdiff_t __dif = this->_M_impl._M_finish - this->_M_impl._M_start;
	.loc 2 1109 34 view .LVU1181
	mov	QWORD PTR 272[rsp], rax	# %sfp, _347
.LBE2253:
.LBE2913:
.LBB2914:
.LBB2263:
# /usr/include/c++/16/bits/vector.tcc:75:       if (this->capacity() < __n)
	.loc 7 75 7 discriminator 1 view .LVU1182
	sub	rax, rbx	# _349, SR.299
.LVL215:
	.loc 7 75 7 discriminator 1 view .LVU1183
	mov	QWORD PTR 64[rsp], rax	# %sfp, _349
	jne	.L4	#,
.LBE2263:
.LBE2914:
.LBB2915:
.LBB2245:
.LBB2239:
.LBB2233:
.LBB2226:
# /usr/include/c++/16/bits/stl_vector.h:106: 	: _M_start(), _M_finish(), _M_end_of_storage()
	.loc 2 106 4 view .LVU1184
	mov	QWORD PTR 88[rsp], 0	# %sfp,
# /usr/include/c++/16/bits/stl_vector.h:106: 	: _M_start(), _M_finish(), _M_end_of_storage()
	.loc 2 106 29 view .LVU1185
	xor	r13d, r13d	# params$_M_end_of_storage
.LVL216:
	.loc 2 106 29 view .LVU1186
	jmp	.L8	#
.LVL217:
	.p2align 4,,10
	.p2align 3
.L69:
	.loc 2 106 29 view .LVU1187
.LBE2226:
.LBE2233:
.LBE2239:
.LBE2245:
.LBE2915:
.LBB2916:
.LBB2867:
.LBB2865:
.LBB2852:
.LBB2849:
.LBB2789:
.LBB2784:
.LBB2740:
# src/avx_analysis_code_ablations/opt10_abl_tile_8x256.cpp:124:                     size_t ind_lbot = ind_ltop + width * 3;
	.loc 1 124 28 view .LVU1188
	mov	QWORD PTR 232[rsp], r11	# %sfp, ivtmp.558
# src/avx_analysis_code_ablations/opt10_abl_tile_8x256.cpp:133:                     int x = (x_begin - tx) * 3;
	.loc 1 133 25 view .LVU1189
	mov	ecx, DWORD PTR 136[rsp]	# x, %sfp
	jmp	.L35	#
.LVL218:
.L70:
	.loc 1 133 25 view .LVU1190
	mov	rbx, QWORD PTR 232[rsp]	# ind_lbot, %sfp
.LVL219:
.LBB2729:
.LBB2728:
# src/avx_analysis_code_ablations/opt10_abl_tile_8x256.cpp:163:                         float TL = p.SUB[ind_ltop + k];
	.loc 1 163 38 view .LVU1191
	xor	r10d, r10d	# niters_vector_mult_vf.356
.LBE2728:
# src/avx_analysis_code_ablations/opt10_abl_tile_8x256.cpp:162:                     for (int k = 0; k < remaining; ++k) {
	.loc 1 162 30 view .LVU1192
	xor	r8d, r8d	# tmp.437
	lea	rsi, [rdi+rdx]	# tmp1542,
	lea	rcx, [rdi+rbx]	# tmp1540,
	jmp	.L38	#
.LVL220:
.L71:
	.loc 1 162 30 view .LVU1193
	xor	r9d, r9d	# niters_vector_mult_vf.396
	jmp	.L40	#
.LVL221:
.L139:
	.loc 1 162 30 view .LVU1194
.LBE2729:
.LBE2740:
.LBE2784:
.LBE2789:
.LBE2849:
.LBE2852:
.LBE2865:
.LBE2867:
.LBE2916:
.LBB2917:
.LBB2246:
.LBB2240:
.LBB2234:
.LBB2227:
# /usr/include/c++/16/bits/stl_vector.h:106: 	: _M_start(), _M_finish(), _M_end_of_storage()
	.loc 2 106 4 view .LVU1195
	mov	QWORD PTR 88[rsp], 0	# %sfp,
.LBE2227:
.LBE2234:
.LBE2240:
.LBE2246:
.LBE2917:
# src/avx_analysis_code_ablations/opt10_abl_tile_8x256.cpp:38:     const int h = static_cast<int>(height);
	.loc 1 38 15 view .LVU1196
	mov	r14d, ecx	# _2, _700
.LVL222:
	.loc 1 48 5 is_stmt 1 view .LVU1197
.LBB2918:
.LBB2377:
	.loc 2 988 7 view .LVU1198
.LBB2269:
	.loc 3 1058 7 view .LVU1199
	.loc 3 1058 7 is_stmt 0 view .LVU1200
.LBE2269:
.LBE2377:
.LBB2378:
	.loc 2 1008 7 is_stmt 1 view .LVU1201
.LBB2272:
	.loc 3 1058 7 view .LVU1202
	.loc 3 1058 7 is_stmt 0 view .LVU1203
.LBE2272:
.LBE2378:
	.loc 1 48 22 is_stmt 1 discriminator 5 view .LVU1204
.LBE2918:
.LBB2919:
.LBB2247:
.LBB2241:
.LBB2235:
.LBB2228:
# /usr/include/c++/16/bits/stl_vector.h:106: 	: _M_start(), _M_finish(), _M_end_of_storage()
	.loc 2 106 29 is_stmt 0 view .LVU1205
	xor	r13d, r13d	# params$_M_end_of_storage
.LBE2228:
.LBE2235:
.LBE2241:
.LBE2247:
.LBE2919:
# src/avx_analysis_code_ablations/opt10_abl_tile_8x256.cpp:37:     const int w = static_cast<int>(width);
	.loc 1 37 15 view .LVU1206
	vmovd	DWORD PTR 104[rsp], xmm0	# %sfp, tmp1743
.LBB2920:
# src/avx_analysis_code_ablations/opt10_abl_tile_8x256.cpp:48:     for (auto& sub : subapertures) {
	.loc 1 48 22 discriminator 6 view .LVU1207
	cmp	rdx, rbx	# _347, SR.299
	jne	.L5	#,
.LBE2920:
.LBB2921:
.LBB2248:
.LBB2242:
.LBB2236:
.LBB2229:
# /usr/include/c++/16/bits/stl_vector.h:106: 	: _M_start(), _M_finish(), _M_end_of_storage()
	.loc 2 106 4 view .LVU1208
	mov	QWORD PTR 144[rsp], 0	# %sfp,
.LVL223:
.L67:
	.loc 2 106 4 view .LVU1209
.LBE2229:
.LBE2236:
.LBE2242:
.LBE2248:
.LBE2921:
.LBB2922:
.LBB2453:
.LBB2433:
.LBB2431:
.LBB2429:
.LBB2427:
# /usr/include/c++/16/bits/stl_vector.h:389: 	return __n != 0 ? _Tr::allocate(_M_impl, __n) : pointer();
	.loc 2 389 58 discriminator 3 view .LVU1210
	mov	QWORD PTR 80[rsp], 0	# %sfp,
	jmp	.L18	#
.LVL224:
.L68:
	.loc 2 389 58 discriminator 3 view .LVU1211
.LBE2427:
.LBE2429:
.LBE2431:
.LBE2433:
.LBE2453:
.LBE2922:
.LBB2923:
.LBB2511:
.LBB2491:
.LBB2489:
.LBB2487:
.LBB2485:
	xor	ebx, ebx	# _433
	jmp	.L23	#
.LVL225:
.L13:
	.loc 2 389 58 discriminator 3 view .LVU1212
.LBE2485:
.LBE2487:
.LBE2489:
.LBE2491:
.LBE2511:
.LBE2923:
.LBB2924:
.LBB2379:
.LBB2373:
.LBB2369:
.LBB2296:
.LBI2296:
	.loc 7 565 7 is_stmt 1 view .LVU1213
.LBB2297:
.LBB2298:
.LBI2298:
	.loc 2 2192 7 view .LVU1214
.LBB2299:
.LBB2300:
.LBI2300:
	.loc 2 1107 7 view .LVU1215
.LBB2301:
# /usr/include/c++/16/bits/stl_vector.h:1109: 	ptrdiff_t __dif = this->_M_impl._M_finish - this->_M_impl._M_start;
	.loc 2 1109 44 is_stmt 0 view .LVU1216
	mov	rax, r13	# _542, params$_M_end_of_storage
	sub	rax, r15	# _542, params$_M_start
	mov	QWORD PTR 264[rsp], rax	# %sfp, _542
.LVL226:
# /usr/include/c++/16/bits/stl_vector.h:1109: 	ptrdiff_t __dif = this->_M_impl._M_finish - this->_M_impl._M_start;
	.loc 2 1109 12 view .LVU1217
	sar	rax, 4	# tmp851,
.LVL227:
	.loc 2 1109 12 view .LVU1218
	mov	rdx, rax	# tmp851, tmp851
	movabs	rax, -6148914691236517205	# tmp853,
	imul	rdx, rax	# __dif_543, tmp853
.LVL228:
	.loc 2 1109 12 view .LVU1219
.LBE2301:
.LBE2300:
# /usr/include/c++/16/bits/stl_vector.h:2194: 	if (max_size() - size() < __n)
	.loc 2 2194 2 discriminator 2 view .LVU1220
	movabs	rax, 192153584101141162	# tmp854,
	cmp	rdx, rax	# __dif_543, tmp854
	je	.L133	#,
.LBB2302:
.LBB2303:
# /usr/include/c++/16/bits/stl_algobase.h:261:       if (__a < __b)
	.loc 10 261 7 view .LVU1221
	test	rdx, rdx	# __dif_543
	mov	eax, 1	# tmp1622,
	mov	DWORD PTR 168[rsp], r11d	# %sfp, _466
	cmovne	rax, rdx	# __dif_543,, _545
	mov	DWORD PTR 176[rsp], ecx	# %sfp, _344
	mov	DWORD PTR 208[rsp], r9d	# %sfp, _20
.LBE2303:
.LBE2302:
# /usr/include/c++/16/bits/stl_vector.h:2197: 	const size_type __len = size() + (std::max)(size(), __n);
	.loc 2 2197 18 discriminator 3 view .LVU1222
	add	rax, rdx	# __len_546, __dif_543
# /usr/include/c++/16/bits/stl_vector.h:2198: 	return (__len < size() || __len > max_size()) ? max_size() : __len;
	.loc 2 2198 25 discriminator 3 view .LVU1223
	movabs	rdx, 192153584101141162	# tmp1623,
	mov	DWORD PTR 184[rsp], r8d	# %sfp, _16
	cmp	rax, rdx	# __len_546, tmp1623
	mov	DWORD PTR 220[rsp], esi	# %sfp, _9
	cmova	rax, rdx	# __len_546,, __len_546, tmp1623
	mov	DWORD PTR 224[rsp], r10d	# %sfp, _8
.LVL229:
.LBB2304:
.LBI2302:
	.loc 10 256 5 is_stmt 1 view .LVU1224
	.loc 10 256 5 is_stmt 0 view .LVU1225
.LBE2304:
.LBE2299:
.LBE2298:
.LBB2306:
.LBI2306:
	.loc 2 386 7 is_stmt 1 view .LVU1226
.LBB2307:
.LBB2308:
.LBI2308:
	.loc 8 637 7 view .LVU1227
.LBB2309:
.LBI2309:
	.loc 6 129 7 view .LVU1228
	.loc 6 129 7 is_stmt 0 view .LVU1229
	vmovss	DWORD PTR 192[rsp], xmm3	# %sfp, _15
.LBB2310:
# /usr/include/c++/16/bits/new_allocator.h:162: 	  return static_cast<_Tp*>(_GLIBCXX_OPERATOR_NEW(__n * sizeof(_Tp)));
	.loc 6 162 68 view .LVU1230
	lea	rax, [rax+rax*2]	# _563,
	vmovss	DWORD PTR 200[rsp], xmm0	# %sfp, _14
	sal	rax, 4	# _563,
	vmovss	DWORD PTR 212[rsp], xmm1	# %sfp, _13
	mov	rdi, rax	#, tmp861
	mov	QWORD PTR 240[rsp], rax	# %sfp, tmp861
	vmovss	DWORD PTR 216[rsp], xmm2	# %sfp, _12
.LEHB5:
	call	"_Znwm"@PLT	#
.LVL230:
.LEHE5:
	.loc 6 162 68 view .LVU1231
.LBE2310:
.LBE2309:
.LBE2308:
.LBE2307:
.LBE2306:
.LBB2319:
.LBB2320:
.LBB2321:
.LBB2322:
# /usr/include/c++/16/bits/new_allocator.h:203: 	{ ::new((void *)__p) _Up(std::forward<_Args>(__args)...); }
	.loc 6 203 4 discriminator 1 view .LVU1232
	vmovss	xmm0, DWORD PTR 200[rsp]	# _14, %sfp
	vmovss	xmm2, DWORD PTR 216[rsp]	# _12, %sfp
.LBE2322:
.LBE2321:
.LBE2320:
.LBE2319:
.LBB2361:
.LBB2317:
.LBB2315:
.LBB2313:
.LBB2311:
# /usr/include/c++/16/bits/new_allocator.h:162: 	  return static_cast<_Tp*>(_GLIBCXX_OPERATOR_NEW(__n * sizeof(_Tp)));
	.loc 6 162 68 view .LVU1233
	mov	QWORD PTR 248[rsp], rax	# %sfp, _564
.LVL231:
	.loc 6 162 68 view .LVU1234
.LBE2311:
.LBE2313:
.LBE2315:
.LBE2317:
.LBE2361:
.LBB2362:
.LBB2327:
.LBI2327:
	.loc 2 1865 2 is_stmt 1 view .LVU1235
	.loc 2 1865 2 is_stmt 0 view .LVU1236
.LBE2327:
.LBE2362:
.LBB2363:
.LBB2318:
.LBB2316:
.LBB2314:
.LBB2312:
# /usr/include/c++/16/bits/new_allocator.h:162: 	  return static_cast<_Tp*>(_GLIBCXX_OPERATOR_NEW(__n * sizeof(_Tp)));
	.loc 6 162 68 view .LVU1237
	mov	rdi, rax	# _564,
.LBE2312:
.LBE2314:
.LBE2316:
.LBE2318:
.LBE2363:
.LBB2364:
# /usr/include/c++/16/bits/vector.tcc:594: 	_Alloc_traits::construct(this->_M_impl,
	.loc 7 594 26 view .LVU1238
	mov	rdx, QWORD PTR 264[rsp]	# _542, %sfp
.LVL232:
.LBB2328:
.LBI2320:
	.loc 8 705 2 is_stmt 1 view .LVU1239
.LBB2325:
.LBI2321:
	.loc 6 201 2 view .LVU1240
.LBB2323:
# /usr/include/c++/16/bits/new_allocator.h:203: 	{ ::new((void *)__p) _Up(std::forward<_Args>(__args)...); }
	.loc 6 203 4 is_stmt 0 discriminator 1 view .LVU1241
	mov	r10d, DWORD PTR 224[rsp]	# _8, %sfp
	mov	esi, DWORD PTR 220[rsp]	# _9, %sfp
	vinsertps	xmm0, xmm0, DWORD PTR 192[rsp], 0x10	# tmp864, _14, %sfp
	vinsertps	xmm2, xmm2, DWORD PTR 212[rsp], 0x10	# tmp865, _12, %sfp
	mov	r8d, DWORD PTR 184[rsp]	# _16, %sfp
	mov	DWORD PTR [rax+rdx], r10d	# _551->sx, _8
	mov	ecx, DWORD PTR 176[rsp]	# _344, %sfp
	mov	r9d, DWORD PTR 208[rsp]	# _20, %sfp
	mov	DWORD PTR 4[rax+rdx], esi	# _551->sy, _9
	mov	r11d, DWORD PTR 168[rsp]	# _466, %sfp
	vmovlhps	xmm2, xmm2, xmm0	# _1046, tmp865, tmp864
	mov	DWORD PTR 24[rax+rdx], r8d	# _551->x_begin, _16
	mov	DWORD PTR 28[rax+rdx], ecx	# _551->x_end, _344
	mov	DWORD PTR 32[rax+rdx], r9d	# _551->y_begin, _20
	mov	DWORD PTR 36[rax+rdx], r11d	# _551->y_end, _466
	mov	QWORD PTR 40[rax+rdx], r12	# MEM <const unsigned char *> [(struct SubParams *)_551 + 40B], _354
.LVL233:
	.loc 6 203 4 discriminator 1 view .LVU1242
.LBE2323:
.LBE2325:
.LBE2328:
.LBB2329:
.LBI2329:
	.loc 12 1404 5 is_stmt 1 view .LVU1243
.LBB2330:
.LBI2330:
	.loc 12 1377 5 view .LVU1244
	.loc 12 1377 5 is_stmt 0 view .LVU1245
.LBE2330:
.LBE2329:
.LBB2333:
.LBB2326:
.LBB2324:
# /usr/include/c++/16/bits/new_allocator.h:203: 	{ ::new((void *)__p) _Up(std::forward<_Args>(__args)...); }
	.loc 6 203 4 discriminator 1 view .LVU1246
	vmovups	XMMWORD PTR 8[rax+rdx], xmm2	# MEM <vector(4) float> [(float *)_551 + 8B], _1046
.LBE2324:
.LBE2326:
.LBE2333:
.LBB2334:
.LBB2332:
.LBB2331:
# /usr/include/c++/16/bits/stl_uninitialized.h:1382:       if (__count > 0)
	.loc 12 1382 7 view .LVU1247
	test	rdx, rdx	# _542
	je	.L15	#,
# /usr/include/c++/16/bits/stl_uninitialized.h:1394: 	  __builtin_memcpy(__result, __first, __count * sizeof(_Tp));
	.loc 12 1394 20 view .LVU1248
	mov	rsi, r15	#, params$_M_start
	call	"memcpy"@PLT	#
.LVL234:
.L15:
	.loc 12 1394 20 view .LVU1249
.LBE2331:
.LBE2332:
.LBE2334:
# /usr/include/c++/16/bits/vector.tcc:610: 	    ++__new_finish;
	.loc 7 610 6 view .LVU1250
	mov	rax, QWORD PTR 248[rsp]	# _564, %sfp
	mov	rdx, QWORD PTR 264[rsp]	# _542, %sfp
	lea	rax, 48[rax+rdx]	# __new_finish,
.LVL235:
	.loc 7 610 6 view .LVU1251
	mov	QWORD PTR 88[rsp], rax	# %sfp, __new_finish
.LVL236:
.LBB2335:
.LBI2335:
	.loc 2 1870 2 is_stmt 1 view .LVU1252
.LBB2336:
# /usr/include/c++/16/bits/stl_vector.h:1872: 	  if (_M_storage)
	.loc 2 1872 4 is_stmt 0 view .LVU1253
	test	r15, r15	# params$_M_start
	je	.L16	#,
.LVL237:
.LBB2337:
.LBI2337:
	.loc 2 394 7 is_stmt 1 view .LVU1254
.LBB2338:
.LBB2339:
.LBI2339:
	.loc 2 394 7 view .LVU1255
.LBB2340:
.LBB2341:
.LBI2341:
	.loc 8 688 7 view .LVU1256
.LBB2342:
.LBI2342:
	.loc 6 167 7 view .LVU1257
.LBE2342:
.LBE2341:
.LBE2340:
.LBE2339:
.LBE2338:
.LBE2337:
.LBE2336:
.LBE2335:
# /usr/include/c++/16/bits/vector.tcc:648: 	__guard._M_len = this->_M_impl._M_end_of_storage - __old_start;
	.loc 7 648 51 is_stmt 0 view .LVU1258
	mov	rsi, r13	# params$_M_end_of_storage, params$_M_end_of_storage
.LBB2359:
.LBB2357:
.LBB2355:
.LBB2353:
.LBB2351:
.LBB2349:
.LBB2347:
.LBB2345:
.LBB2343:
# /usr/include/c++/16/bits/new_allocator.h:183: 	_GLIBCXX_OPERATOR_DELETE(_GLIBCXX_SIZED_DEALLOC(__p, __n));
	.loc 6 183 59 view .LVU1259
	mov	rdi, r15	#, params$_M_start
.LBE2343:
.LBE2345:
.LBE2347:
.LBE2349:
.LBE2351:
.LBE2353:
.LBE2355:
.LBE2357:
.LBE2359:
# /usr/include/c++/16/bits/vector.tcc:648: 	__guard._M_len = this->_M_impl._M_end_of_storage - __old_start;
	.loc 7 648 51 view .LVU1260
	sub	rsi, r15	# params$_M_end_of_storage, params$_M_start
.LBB2360:
.LBB2358:
.LBB2356:
.LBB2354:
.LBB2352:
.LBB2350:
.LBB2348:
.LBB2346:
.LBB2344:
# /usr/include/c++/16/bits/new_allocator.h:183: 	_GLIBCXX_OPERATOR_DELETE(_GLIBCXX_SIZED_DEALLOC(__p, __n));
	.loc 6 183 59 view .LVU1261
	call	"_ZdlPvm"@PLT	#
.LVL238:
.L16:
	.loc 6 183 59 view .LVU1262
.LBE2344:
.LBE2346:
.LBE2348:
.LBE2350:
.LBE2352:
.LBE2354:
.LBE2356:
.LBE2358:
.LBE2360:
.LBE2364:
# /usr/include/c++/16/bits/vector.tcc:655:       this->_M_impl._M_end_of_storage = __new_start + __len;
	.loc 7 655 53 view .LVU1263
	mov	r13, QWORD PTR 240[rsp]	# tmp861, %sfp
	mov	r15, QWORD PTR 248[rsp]	# _564, %sfp
.LVL239:
	.loc 7 655 53 view .LVU1264
	add	r13, r15	# tmp861, _564
.LVL240:
	.loc 7 655 53 view .LVU1265
	jmp	.L12	#
.LVL241:
.L64:
	.loc 7 655 53 view .LVU1266
.LBE2297:
.LBE2296:
.LBE2369:
.LBE2373:
.LBE2379:
# src/avx_analysis_code_ablations/opt10_abl_tile_8x256.cpp:48:     for (auto& sub : subapertures) {
	.loc 1 48 22 discriminator 6 view .LVU1267
	mov	rax, QWORD PTR 88[rsp]	# __new_finish, %sfp
	mov	QWORD PTR 144[rsp], rax	# %sfp, __new_finish
	jmp	.L9	#
.LVL242:
.L75:
	.loc 1 48 22 discriminator 6 view .LVU1268
.LBE2924:
.LBB2925:
.LBB2926:
.LBB2927:
.LBB2928:
.LBB2929:
# /usr/include/c++/16/bits/stl_vector.h:397: 	if (__p)
	.loc 2 397 2 view .LVU1269
	mov	r14, rax	# tmp1578,
	jmp	.L54	#
.LVL243:
.L128:
	.loc 2 397 2 view .LVU1270
	jmp	.L129	#
.LVL244:
.L76:
	.loc 2 397 2 view .LVU1271
	mov	rbx, rax	# tmp1530, tmp1575
	vzeroupper
.LVL245:
	jmp	.L21	#
.LVL246:
.L130:
	.loc 2 397 2 view .LVU1272
	jmp	.L131	#
.LVL247:
.L126:
	.loc 2 397 2 view .LVU1273
	jmp	.L127	#
.LVL248:
	.loc 2 397 2 view .LVU1274
.LBE2929:
.LBE2928:
.LBE2927:
.LBE2926:
.LBE2925:
	.section	.gcc_except_table,"a",@progbits
.LLSDA11707:
	.byte	0xff
	.byte	0xff
	.byte	0x1
	.uleb128 .LLSDACSE11707-.LLSDACSB11707
.LLSDACSB11707:
	.uleb128 .LEHB0-.LFB11707
	.uleb128 .LEHE0-.LEHB0
	.uleb128 .L126-.LFB11707
	.uleb128 0
	.uleb128 .LEHB1-.LFB11707
	.uleb128 .LEHE1-.LEHB1
	.uleb128 .L76-.LFB11707
	.uleb128 0
	.uleb128 .LEHB2-.LFB11707
	.uleb128 .LEHE2-.LEHB2
	.uleb128 .L128-.LFB11707
	.uleb128 0
	.uleb128 .LEHB3-.LFB11707
	.uleb128 .LEHE3-.LEHB3
	.uleb128 .L75-.LFB11707
	.uleb128 0
	.uleb128 .LEHB4-.LFB11707
	.uleb128 .LEHE4-.LEHB4
	.uleb128 .L126-.LFB11707
	.uleb128 0
	.uleb128 .LEHB5-.LFB11707
	.uleb128 .LEHE5-.LEHB5
	.uleb128 .L130-.LFB11707
	.uleb128 0
.LLSDACSE11707:
	.text
	.cfi_endproc
	.section	.text.unlikely
	.cfi_startproc
	.cfi_personality 0x9b,"DW.ref.__gxx_personality_v0"
	.cfi_lsda 0x1b,.LLSDAC11707
	.type	"_Z21refocus_shift_and_sumRSt6vectorI16SubApertureImageSaIS0_EEf.cold", @function
"_Z21refocus_shift_and_sumRSt6vectorI16SubApertureImageSaIS0_EEf.cold":
.LFSB11707:
.LBB2950:
.LBB2945:
.LBB2939:
.LBB2936:
.LBB2933:
.L132:
	.cfi_def_cfa 6, 16
	.cfi_offset 3, -56
	.cfi_offset 6, -16
	.cfi_offset 12, -48
	.cfi_offset 13, -40
	.cfi_offset 14, -32
	.cfi_offset 15, -24
.LBE2933:
.LBE2936:
.LBE2939:
.LBE2945:
.LBE2950:
.LBB2951:
.LBB2217:
.LBB2215:
.LBB2213:
.LBB2211:
.LBB2210:
.LBB2195:
.LBB2167:
# /usr/include/c++/16/bits/stl_vector.h:2206: 	  __throw_length_error(
	.loc 2 2206 24 view -0
	lea	rdi, .LC0[rip]	#,
.LVL249:
.LEHB6:
	.loc 2 2206 24 view .LVU1276
	call	"_ZSt20__throw_length_errorPKc"@PLT	#
.LVL250:
.LEHE6:
.L135:
	.loc 2 2206 24 view .LVU1277
.LBE2167:
.LBE2195:
.LBE2210:
.LBE2211:
.LBE2213:
.LBE2215:
.LBE2217:
.LBE2951:
.LBB2952:
.LBB2512:
.LBB2466:
	lea	rdi, .LC0[rip]	#,
.LEHB7:
	call	"_ZSt20__throw_length_errorPKc"@PLT	#
.LVL251:
.LEHE7:
.L133:
	.loc 2 2206 24 view .LVU1278
.LBE2466:
.LBE2512:
.LBE2952:
.LBB2953:
.LBB2380:
.LBB2374:
.LBB2370:
.LBB2367:
.LBB2366:
.LBB2365:
.LBB2305:
# /usr/include/c++/16/bits/stl_vector.h:2195: 	  __throw_length_error(__N(__s));
	.loc 2 2195 24 view .LVU1279
	lea	rdi, .LC2[rip]	#,
.LEHB8:
	call	"_ZSt20__throw_length_errorPKc"@PLT	#
.LVL252:
.LEHE8:
.L134:
	.loc 2 2195 24 view .LVU1280
.LBE2305:
.LBE2365:
.LBE2366:
.LBE2367:
.LBE2370:
.LBE2374:
.LBE2380:
.LBE2953:
.LBB2954:
.LBB2454:
.LBB2410:
# /usr/include/c++/16/bits/stl_vector.h:2206: 	  __throw_length_error(
	.loc 2 2206 24 view .LVU1281
	lea	rdi, .LC0[rip]	#,
.LEHB9:
	call	"_ZSt20__throw_length_errorPKc"@PLT	#
.LVL253:
.LEHE9:
.L54:
	.loc 2 2206 24 view .LVU1282
.LBE2410:
.LBE2454:
.LBE2954:
.LBB2955:
.LBI2925:
	.loc 2 790 7 is_stmt 1 view .LVU1283
.LBB2946:
.LBI2946:
	.loc 2 307 7 view .LVU1284
	.loc 2 307 7 is_stmt 0 view .LVU1285
.LBE2946:
.LBB2947:
.LBI2947:
	.loc 8 1082 5 is_stmt 1 view .LVU1286
	.loc 8 1082 5 is_stmt 0 view .LVU1287
.LBE2947:
.LBB2948:
.LBI2926:
	.loc 2 373 7 is_stmt 1 view .LVU1288
.LBB2940:
.LBB2937:
.LBI2928:
	.loc 2 394 7 view .LVU1289
.LBB2934:
# /usr/include/c++/16/bits/stl_vector.h:397: 	if (__p)
	.loc 2 397 2 is_stmt 0 view .LVU1290
	test	rbx, rbx	# _433
	jne	.L141	#,
	vzeroupper
.LVL254:
.L55:
	.loc 2 397 2 view .LVU1291
.LBE2934:
.LBE2937:
.LBE2940:
.LBB2941:
.LBI2941:
	.loc 2 139 14 is_stmt 1 view .LVU1292
.LBB2942:
.LBI2942:
	.loc 5 189 7 view .LVU1293
.LBB2943:
.LBI2943:
	.loc 6 104 7 view .LVU1294
	.loc 6 104 7 is_stmt 0 view .LVU1295
	mov	rbx, r14	# tmp1526, tmp1578
	jmp	.L56	#
.LVL255:
.L74:
.L129:
	.loc 6 104 7 view .LVU1296
.LBE2943:
.LBE2942:
.LBE2941:
.LBE2948:
.LBE2955:
.LBB2956:
.LBB2957:
.LBB2958:
.LBB2959:
.LBB2960:
# /usr/include/c++/16/bits/stl_vector.h:397: 	if (__p)
	.loc 2 397 2 view .LVU1297
	mov	rbx, rax	# tmp1526, tmp1579
	vzeroupper
.LVL256:
.L56:
	.loc 2 397 2 view .LVU1298
.LBE2960:
.LBE2959:
.LBE2958:
.LBE2957:
.LBI2956:
	.loc 2 790 7 is_stmt 1 view .LVU1299
.LBB2970:
.LBI2970:
	.loc 2 307 7 view .LVU1300
	.loc 2 307 7 is_stmt 0 view .LVU1301
.LBE2970:
.LBB2971:
.LBI2971:
	.loc 8 1082 5 is_stmt 1 view .LVU1302
	.loc 8 1082 5 is_stmt 0 view .LVU1303
.LBE2971:
.LBB2972:
.LBI2957:
	.loc 2 373 7 is_stmt 1 view .LVU1304
.LBB2966:
.LBB2965:
.LBI2959:
	.loc 2 394 7 view .LVU1305
.LBB2964:
# /usr/include/c++/16/bits/stl_vector.h:397: 	if (__p)
	.loc 2 397 2 is_stmt 0 view .LVU1306
	cmp	QWORD PTR 80[rsp], 0	# %sfp,
	je	.L21	#,
.LVL257:
.LBB2961:
.LBI2961:
	.loc 8 688 7 is_stmt 1 view .LVU1307
.LBB2962:
.LBI2962:
	.loc 6 167 7 view .LVU1308
.LBB2963:
# /usr/include/c++/16/bits/new_allocator.h:183: 	_GLIBCXX_OPERATOR_DELETE(_GLIBCXX_SIZED_DEALLOC(__p, __n));
	.loc 6 183 59 is_stmt 0 view .LVU1309
	mov	rsi, QWORD PTR 72[rsp]	#, %sfp
	mov	rdi, QWORD PTR 80[rsp]	#, %sfp
	call	"_ZdlPvm"@PLT	#
.LVL258:
	.loc 6 183 59 view .LVU1310
.LBE2963:
.LBE2962:
.LBE2961:
.LBE2964:
.LBE2965:
.LBE2966:
.LBB2967:
.LBI2967:
	.loc 2 139 14 is_stmt 1 view .LVU1311
.LBB2968:
.LBI2968:
	.loc 5 189 7 view .LVU1312
.LBB2969:
.LBI2969:
	.loc 6 104 7 view .LVU1313
.L21:
	.loc 6 104 7 is_stmt 0 view .LVU1314
.LBE2969:
.LBE2968:
.LBE2967:
.LBE2972:
.LBE2956:
.LBB2973:
.LBI2973:
	.loc 2 790 7 is_stmt 1 view .LVU1315
.LBB2974:
.LBI2974:
	.loc 2 307 7 view .LVU1316
	.loc 2 307 7 is_stmt 0 view .LVU1317
.LBE2974:
.LBB2975:
.LBI2975:
	.loc 8 1082 5 is_stmt 1 view .LVU1318
	.loc 8 1082 5 is_stmt 0 view .LVU1319
.LBE2975:
.LBB2976:
.LBI2976:
	.loc 2 373 7 is_stmt 1 view .LVU1320
.LBB2977:
.LBB2978:
.LBI2978:
	.loc 2 394 7 view .LVU1321
.LBB2979:
# /usr/include/c++/16/bits/stl_vector.h:397: 	if (__p)
	.loc 2 397 2 is_stmt 0 view .LVU1322
	cmp	QWORD PTR 88[rsp], 0	# %sfp,
	je	.L60	#,
.LVL259:
.LBB2980:
.LBI2980:
	.loc 2 394 7 is_stmt 1 view .LVU1323
.LBB2981:
.LBB2982:
.LBI2982:
	.loc 8 688 7 view .LVU1324
.LBB2983:
.LBI2983:
	.loc 6 167 7 view .LVU1325
.LBE2983:
.LBE2982:
.LBE2981:
.LBE2980:
.LBE2979:
.LBE2978:
# /usr/include/c++/16/bits/stl_vector.h:375: 	ptrdiff_t __n = _M_impl._M_end_of_storage - _M_impl._M_start;
	.loc 2 375 44 is_stmt 0 view .LVU1326
	mov	rdi, QWORD PTR 88[rsp]	# __new_finish, %sfp
	mov	rsi, r13	# params$_M_end_of_storage, params$_M_end_of_storage
	sub	rsi, rdi	# params$_M_end_of_storage, __new_finish
.LBB2991:
.LBB2989:
.LBB2988:
.LBB2987:
.LBB2986:
.LBB2985:
.LBB2984:
# /usr/include/c++/16/bits/new_allocator.h:183: 	_GLIBCXX_OPERATOR_DELETE(_GLIBCXX_SIZED_DEALLOC(__p, __n));
	.loc 6 183 59 view .LVU1327
	call	"_ZdlPvm"@PLT	#
.LVL260:
	.loc 6 183 59 view .LVU1328
.LBE2984:
.LBE2985:
.LBE2986:
.LBE2987:
.LBE2988:
.LBE2989:
.LBE2991:
.LBE2977:
.LBB2993:
.LBI2993:
	.loc 2 139 14 is_stmt 1 view .LVU1329
.LBB2994:
.LBI2994:
	.loc 5 189 7 view .LVU1330
.LBB2995:
.LBI2995:
	.loc 6 104 7 view .LVU1331
	.loc 6 104 7 is_stmt 0 view .LVU1332
	jmp	.L60	#
.LVL261:
.L72:
.L127:
	.loc 6 104 7 view .LVU1333
.LBE2995:
.LBE2994:
.LBE2993:
.LBE2976:
.LBE2973:
.LBB2998:
.LBB2999:
.LBB3000:
.LBB3001:
# /usr/include/c++/16/bits/stl_vector.h:375: 	ptrdiff_t __n = _M_impl._M_end_of_storage - _M_impl._M_start;
	.loc 2 375 54 view .LVU1334
	mov	rbx, rax	# tmp1533, tmp1582
	vzeroupper
.LVL262:
.L60:
	.loc 2 375 54 view .LVU1335
.LBE3001:
.LBE3000:
.LBE2999:
.LBI2998:
	.loc 4 11 8 is_stmt 1 view .LVU1336
.LBB3018:
.LBI2999:
	.loc 2 790 7 view .LVU1337
.LBB3015:
.LBI3015:
	.loc 2 307 7 view .LVU1338
	.loc 2 307 7 is_stmt 0 view .LVU1339
.LBE3015:
.LBB3016:
.LBI3016:
	.loc 8 1082 5 is_stmt 1 view .LVU1340
	.loc 8 1082 5 is_stmt 0 view .LVU1341
.LBE3016:
.LBB3017:
.LBI3000:
	.loc 2 373 7 is_stmt 1 view .LVU1342
.LBB3011:
# /usr/include/c++/16/bits/stl_vector.h:375: 	ptrdiff_t __n = _M_impl._M_end_of_storage - _M_impl._M_start;
	.loc 2 375 54 is_stmt 0 view .LVU1343
	mov	rax, QWORD PTR 128[rsp]	# <retval>, %sfp
	mov	rdi, QWORD PTR 16[rax]	# _416, MEM[(struct _Vector_base *)output_206(D) + 16B]._M_impl.D.86896._M_start
.LVL263:
.LBB3002:
.LBI3002:
	.loc 2 394 7 is_stmt 1 view .LVU1344
.LBB3003:
# /usr/include/c++/16/bits/stl_vector.h:397: 	if (__p)
	.loc 2 397 2 is_stmt 0 view .LVU1345
	test	rdi, rdi	# _416
	je	.L61	#,
.LVL264:
.LBB3004:
.LBI3004:
	.loc 8 688 7 is_stmt 1 view .LVU1346
.LBB3005:
.LBI3005:
	.loc 6 167 7 view .LVU1347
.LBE3005:
.LBE3004:
.LBE3003:
.LBE3002:
# /usr/include/c++/16/bits/stl_vector.h:375: 	ptrdiff_t __n = _M_impl._M_end_of_storage - _M_impl._M_start;
	.loc 2 375 12 is_stmt 0 view .LVU1348
	mov	rsi, QWORD PTR 32[rax]	# MEM[(struct _Vector_base *)output_206(D) + 16B]._M_impl.D.86896._M_end_of_storage, MEM[(struct _Vector_base *)output_206(D) + 16B]._M_impl.D.86896._M_end_of_storage
	sub	rsi, rdi	# __n_417, _416
.LBB3010:
.LBB3009:
.LBB3008:
.LBB3007:
.LBB3006:
# /usr/include/c++/16/bits/new_allocator.h:183: 	_GLIBCXX_OPERATOR_DELETE(_GLIBCXX_SIZED_DEALLOC(__p, __n));
	.loc 6 183 59 view .LVU1349
	call	"_ZdlPvm"@PLT	#
.LVL265:
.L61:
	.loc 6 183 59 view .LVU1350
.LBE3006:
.LBE3007:
.LBE3008:
.LBE3009:
.LBE3010:
.LBE3011:
.LBB3012:
.LBI3012:
	.loc 2 139 14 is_stmt 1 view .LVU1351
.LBB3013:
.LBI3013:
	.loc 5 189 7 view .LVU1352
.LBB3014:
.LBI3014:
	.loc 6 104 7 view .LVU1353
	.loc 6 104 7 is_stmt 0 view .LVU1354
	mov	rdi, rbx	#, tmp1533
.LEHB10:
	call	"_Unwind_Resume"@PLT	#
.LVL266:
.LEHE10:
.L141:
	.loc 6 104 7 view .LVU1355
.LBE3014:
.LBE3013:
.LBE3012:
.LBE3017:
.LBE3018:
.LBE2998:
.LBB3019:
.LBB2949:
.LBB2944:
.LBB2938:
.LBB2935:
.LBB2930:
.LBI2930:
	.loc 8 688 7 is_stmt 1 view .LVU1356
.LBB2931:
.LBI2931:
	.loc 6 167 7 view .LVU1357
.LBB2932:
# /usr/include/c++/16/bits/new_allocator.h:183: 	_GLIBCXX_OPERATOR_DELETE(_GLIBCXX_SIZED_DEALLOC(__p, __n));
	.loc 6 183 59 is_stmt 0 view .LVU1358
	mov	rsi, r15	#, _26
	mov	rdi, rbx	#, _433
	vzeroupper
.LVL267:
	call	"_ZdlPvm"@PLT	#
.LVL268:
	.loc 6 183 59 view .LVU1359
	jmp	.L55	#
.LVL269:
.L77:
.L131:
	.loc 6 183 59 view .LVU1360
.LBE2932:
.LBE2931:
.LBE2930:
.LBE2935:
.LBE2938:
.LBE2944:
.LBE2949:
.LBE3019:
.LBB3020:
.LBB2868:
.LBB2866:
.LBB2853:
.LBB2850:
.LBB2815:
# src/avx_analysis_code_ablations/opt10_abl_tile_8x256.cpp:175:                 unsigned char* outp = output.data.data() + (y * width + tx) * 3;
	.loc 1 175 79 discriminator 1 view .LVU1361
	mov	QWORD PTR 88[rsp], r15	# %sfp, params$_M_start
	mov	rbx, rax	# tmp1530, tmp1580
.LVL270:
	.loc 1 175 79 discriminator 1 view .LVU1362
	vzeroupper
.LVL271:
	jmp	.L21	#
.LVL272:
.L73:
	.loc 1 175 79 discriminator 1 view .LVU1363
.LBE2815:
.LBE2850:
.LBE2853:
.LBE2866:
.LBE2868:
.LBE3020:
.LBB3021:
.LBB2997:
.LBB2996:
.LBB2992:
.LBB2990:
# /usr/include/c++/16/bits/stl_vector.h:397: 	if (__p)
	.loc 2 397 2 view .LVU1364
	mov	rbx, rax	# tmp1530, tmp1581
	vzeroupper
.LVL273:
	jmp	.L21	#
.LBE2990:
.LBE2992:
.LBE2996:
.LBE2997:
.LBE3021:
	.cfi_endproc
.LFE11707:
	.section	.gcc_except_table
.LLSDAC11707:
	.byte	0xff
	.byte	0xff
	.byte	0x1
	.uleb128 .LLSDACSEC11707-.LLSDACSBC11707
.LLSDACSBC11707:
	.uleb128 .LEHB6-.LCOLDB5
	.uleb128 .LEHE6-.LEHB6
	.uleb128 .L72-.LCOLDB5
	.uleb128 0
	.uleb128 .LEHB7-.LCOLDB5
	.uleb128 .LEHE7-.LEHB7
	.uleb128 .L74-.LCOLDB5
	.uleb128 0
	.uleb128 .LEHB8-.LCOLDB5
	.uleb128 .LEHE8-.LEHB8
	.uleb128 .L77-.LCOLDB5
	.uleb128 0
	.uleb128 .LEHB9-.LCOLDB5
	.uleb128 .LEHE9-.LEHB9
	.uleb128 .L73-.LCOLDB5
	.uleb128 0
	.uleb128 .LEHB10-.LCOLDB5
	.uleb128 .LEHE10-.LEHB10
	.uleb128 0
	.uleb128 0
.LLSDACSEC11707:
	.section	.text.unlikely
	.text
	.size	"_Z21refocus_shift_and_sumRSt6vectorI16SubApertureImageSaIS0_EEf", .-"_Z21refocus_shift_and_sumRSt6vectorI16SubApertureImageSaIS0_EEf"
	.section	.text.unlikely
	.size	"_Z21refocus_shift_and_sumRSt6vectorI16SubApertureImageSaIS0_EEf.cold", .-"_Z21refocus_shift_and_sumRSt6vectorI16SubApertureImageSaIS0_EEf.cold"
.LCOLDE5:
	.text
.LHOTE5:
	.section	.rodata.cst4,"aM",@progbits,4
	.align 4
.LC1:
	.long	1065353216
	.text
.Letext0:
	.section	.text.unlikely
.Letext_cold0:
	.file 17 "/usr/include/c++/16/cwchar"
	.file 18 "/usr/include/x86_64-linux-gnu/c++/16/bits/c++config.h"
	.file 19 "/usr/include/c++/16/type_traits"
	.file 20 "/usr/include/c++/16/bits/exception_ptr.h"
	.file 21 "/usr/include/c++/16/clocale"
	.file 22 "/usr/include/c++/16/bits/stl_iterator_base_types.h"
	.file 23 "/usr/include/c++/16/debug/debug.h"
	.file 24 "/usr/include/c++/16/cstdlib"
	.file 25 "/usr/include/c++/16/cstdio"
	.file 26 "/usr/include/c++/16/cstddef"
	.file 27 "/usr/include/c++/16/cstdint"
	.file 28 "/usr/include/c++/16/ctime"
	.file 29 "/usr/include/c++/16/bits/chrono.h"
	.file 30 "/usr/include/c++/16/system_error"
	.file 31 "/usr/include/c++/16/bits/fs_fwd.h"
	.file 32 "/usr/include/c++/16/bits/fs_path.h"
	.file 33 "/usr/include/c++/16/cwctype"
	.file 34 "/usr/include/c++/16/bits/shared_ptr_base.h"
	.file 35 "/usr/include/c++/16/bits/std_abs.h"
	.file 36 "/usr/include/c++/16/initializer_list"
	.file 37 "/usr/include/c++/16/bits/new_throw.h"
	.file 38 "/usr/include/c++/16/bits/stdexcept_throwfwd.h"
	.file 39 "/usr/include/c++/16/bits/ptr_traits.h"
	.file 40 "/usr/lib/gcc/x86_64-linux-gnu/16/include/stddef.h"
	.file 41 "<built-in>"
	.file 42 "/usr/include/x86_64-linux-gnu/bits/types/wint_t.h"
	.file 43 "/usr/include/x86_64-linux-gnu/bits/types/__mbstate_t.h"
	.file 44 "/usr/include/x86_64-linux-gnu/bits/types/mbstate_t.h"
	.file 45 "/usr/include/x86_64-linux-gnu/bits/types/__FILE.h"
	.file 46 "/usr/include/x86_64-linux-gnu/bits/types/struct_FILE.h"
	.file 47 "/usr/include/x86_64-linux-gnu/bits/types/FILE.h"
	.file 48 "/usr/include/wchar.h"
	.file 49 "/usr/include/x86_64-linux-gnu/bits/types/struct_tm.h"
	.file 50 "/usr/include/c++/16/ext/alloc_traits.h"
	.file 51 "/usr/include/c++/16/ext/type_traits.h"
	.file 52 "/usr/include/locale.h"
	.file 53 "/usr/include/x86_64-linux-gnu/bits/types.h"
	.file 54 "/usr/include/stdlib.h"
	.file 55 "/usr/include/x86_64-linux-gnu/bits/types/clock_t.h"
	.file 56 "/usr/include/x86_64-linux-gnu/bits/types/time_t.h"
	.file 57 "/usr/include/x86_64-linux-gnu/bits/stdint-intn.h"
	.file 58 "/usr/include/x86_64-linux-gnu/bits/types/struct_timespec.h"
	.file 59 "/usr/include/x86_64-linux-gnu/bits/stdlib-float.h"
	.file 60 "/usr/include/x86_64-linux-gnu/bits/stdlib-bsearch.h"
	.file 61 "/usr/include/x86_64-linux-gnu/bits/types/__fpos_t.h"
	.file 62 "/usr/include/stdio.h"
	.file 63 "/usr/include/x86_64-linux-gnu/bits/stdio.h"
	.file 64 "/usr/include/x86_64-linux-gnu/bits/stdint-uintn.h"
	.file 65 "/usr/include/x86_64-linux-gnu/bits/stdint-least.h"
	.file 66 "/usr/include/stdint.h"
	.file 67 "/usr/include/time.h"
	.file 68 "/usr/include/x86_64-linux-gnu/bits/wctype-wchar.h"
	.file 69 "/usr/include/wctype.h"
	.file 70 "/usr/include/math.h"
	.file 71 "/usr/include/c++/16/pstl/execution_defs.h"
	.file 72 "/usr/lib/gcc/x86_64-linux-gnu/16/include/mmintrin.h"
	.file 73 "/usr/include/c++/16/stdlib.h"
	.file 74 "/usr/include/c++/16/new"
	.file 75 "/usr/include/c++/16/bits/memory_resource.h"
	.file 76 "/usr/include/c++/16/string_view"
	.file 77 "/usr/include/c++/16/ext/concurrence.h"
	.section	.debug_info,"",@progbits
.Ldebug_info0:
	.long	0x11933
	.value	0x5
	.byte	0x1
	.byte	0x8
	.long	.Ldebug_abbrev0
	.uleb128 0x9f
	.long	.LASF1473
	.byte	0x21
	.byte	0x4
	.long	0x313e7
	.long	.LASF0
	.long	.LASF1
	.long	.LLRL564
	.quad	0
	.long	.Ldebug_line0
	.uleb128 0x29
	.byte	0x4
	.byte	0x4
	.long	.LASF2
	.uleb128 0x29
	.byte	0x1
	.byte	0x8
	.long	.LASF3
	.uleb128 0x29
	.byte	0x8
	.byte	0x7
	.long	.LASF4
	.uleb128 0xd
	.long	0x4a
	.uleb128 0x29
	.byte	0x1
	.byte	0x6
	.long	.LASF5
	.uleb128 0x7
	.long	0x4a
	.uleb128 0xa0
	.byte	0x4
	.byte	0x5
	.string	"int"
	.uleb128 0x7
	.long	0x56
	.uleb128 0xa1
	.string	"std"
	.byte	0x12
	.value	0x156
	.byte	0xb
	.long	0x75fd
	.uleb128 0x5
	.byte	0x11
	.byte	0x42
	.byte	0xb
	.long	0x76c6
	.uleb128 0x5
	.byte	0x11
	.byte	0x8f
	.byte	0xb
	.long	0x7653
	.uleb128 0x5
	.byte	0x11
	.byte	0x91
	.byte	0xb
	.long	0x7897
	.uleb128 0x5
	.byte	0x11
	.byte	0x92
	.byte	0xb
	.long	0x78ae
	.uleb128 0x5
	.byte	0x11
	.byte	0x93
	.byte	0xb
	.long	0x78ca
	.uleb128 0x5
	.byte	0x11
	.byte	0x94
	.byte	0xb
	.long	0x78fc
	.uleb128 0x5
	.byte	0x11
	.byte	0x95
	.byte	0xb
	.long	0x7918
	.uleb128 0x5
	.byte	0x11
	.byte	0x96
	.byte	0xb
	.long	0x7939
	.uleb128 0x5
	.byte	0x11
	.byte	0x97
	.byte	0xb
	.long	0x7955
	.uleb128 0x5
	.byte	0x11
	.byte	0x98
	.byte	0xb
	.long	0x7972
	.uleb128 0x5
	.byte	0x11
	.byte	0x99
	.byte	0xb
	.long	0x7993
	.uleb128 0x5
	.byte	0x11
	.byte	0x9a
	.byte	0xb
	.long	0x79aa
	.uleb128 0x5
	.byte	0x11
	.byte	0x9b
	.byte	0xb
	.long	0x79b8
	.uleb128 0x5
	.byte	0x11
	.byte	0x9c
	.byte	0xb
	.long	0x79de
	.uleb128 0x5
	.byte	0x11
	.byte	0x9d
	.byte	0xb
	.long	0x7a04
	.uleb128 0x5
	.byte	0x11
	.byte	0x9e
	.byte	0xb
	.long	0x7a20
	.uleb128 0x5
	.byte	0x11
	.byte	0x9f
	.byte	0xb
	.long	0x7a4b
	.uleb128 0x5
	.byte	0x11
	.byte	0xa0
	.byte	0xb
	.long	0x7a67
	.uleb128 0x5
	.byte	0x11
	.byte	0xa2
	.byte	0xb
	.long	0x7a7e
	.uleb128 0x5
	.byte	0x11
	.byte	0xa4
	.byte	0xb
	.long	0x7aa0
	.uleb128 0x5
	.byte	0x11
	.byte	0xa5
	.byte	0xb
	.long	0x7ac1
	.uleb128 0x5
	.byte	0x11
	.byte	0xa6
	.byte	0xb
	.long	0x7add
	.uleb128 0x5
	.byte	0x11
	.byte	0xa8
	.byte	0xb
	.long	0x7b03
	.uleb128 0x5
	.byte	0x11
	.byte	0xab
	.byte	0xb
	.long	0x7b28
	.uleb128 0x5
	.byte	0x11
	.byte	0xae
	.byte	0xb
	.long	0x7b4e
	.uleb128 0x5
	.byte	0x11
	.byte	0xb0
	.byte	0xb
	.long	0x7b73
	.uleb128 0x5
	.byte	0x11
	.byte	0xb2
	.byte	0xb
	.long	0x7b8f
	.uleb128 0x5
	.byte	0x11
	.byte	0xb4
	.byte	0xb
	.long	0x7baf
	.uleb128 0x5
	.byte	0x11
	.byte	0xb5
	.byte	0xb
	.long	0x7bd0
	.uleb128 0x5
	.byte	0x11
	.byte	0xb6
	.byte	0xb
	.long	0x7beb
	.uleb128 0x5
	.byte	0x11
	.byte	0xb7
	.byte	0xb
	.long	0x7c06
	.uleb128 0x5
	.byte	0x11
	.byte	0xb8
	.byte	0xb
	.long	0x7c21
	.uleb128 0x5
	.byte	0x11
	.byte	0xb9
	.byte	0xb
	.long	0x7c3c
	.uleb128 0x5
	.byte	0x11
	.byte	0xba
	.byte	0xb
	.long	0x7c57
	.uleb128 0x5
	.byte	0x11
	.byte	0xbb
	.byte	0xb
	.long	0x7d24
	.uleb128 0x5
	.byte	0x11
	.byte	0xbc
	.byte	0xb
	.long	0x7d3a
	.uleb128 0x5
	.byte	0x11
	.byte	0xbd
	.byte	0xb
	.long	0x7d5a
	.uleb128 0x5
	.byte	0x11
	.byte	0xbe
	.byte	0xb
	.long	0x7d7a
	.uleb128 0x5
	.byte	0x11
	.byte	0xbf
	.byte	0xb
	.long	0x7d9a
	.uleb128 0x5
	.byte	0x11
	.byte	0xc0
	.byte	0xb
	.long	0x7dc5
	.uleb128 0x5
	.byte	0x11
	.byte	0xc1
	.byte	0xb
	.long	0x7de0
	.uleb128 0x5
	.byte	0x11
	.byte	0xc3
	.byte	0xb
	.long	0x7e08
	.uleb128 0x5
	.byte	0x11
	.byte	0xc5
	.byte	0xb
	.long	0x7e29
	.uleb128 0x5
	.byte	0x11
	.byte	0xc6
	.byte	0xb
	.long	0x7e49
	.uleb128 0x5
	.byte	0x11
	.byte	0xc7
	.byte	0xb
	.long	0x7e75
	.uleb128 0x5
	.byte	0x11
	.byte	0xc8
	.byte	0xb
	.long	0x7e9a
	.uleb128 0x5
	.byte	0x11
	.byte	0xc9
	.byte	0xb
	.long	0x7eba
	.uleb128 0x5
	.byte	0x11
	.byte	0xca
	.byte	0xb
	.long	0x7ed1
	.uleb128 0x5
	.byte	0x11
	.byte	0xcb
	.byte	0xb
	.long	0x7ef2
	.uleb128 0x5
	.byte	0x11
	.byte	0xcc
	.byte	0xb
	.long	0x7f13
	.uleb128 0x5
	.byte	0x11
	.byte	0xcd
	.byte	0xb
	.long	0x7f34
	.uleb128 0x5
	.byte	0x11
	.byte	0xce
	.byte	0xb
	.long	0x7f55
	.uleb128 0x5
	.byte	0x11
	.byte	0xcf
	.byte	0xb
	.long	0x7f6d
	.uleb128 0x5
	.byte	0x11
	.byte	0xd0
	.byte	0xb
	.long	0x7f89
	.uleb128 0x5
	.byte	0x11
	.byte	0xd0
	.byte	0xb
	.long	0x7fa8
	.uleb128 0x5
	.byte	0x11
	.byte	0xd1
	.byte	0xb
	.long	0x7fc7
	.uleb128 0x5
	.byte	0x11
	.byte	0xd1
	.byte	0xb
	.long	0x7fe6
	.uleb128 0x5
	.byte	0x11
	.byte	0xd2
	.byte	0xb
	.long	0x8005
	.uleb128 0x5
	.byte	0x11
	.byte	0xd2
	.byte	0xb
	.long	0x8024
	.uleb128 0x5
	.byte	0x11
	.byte	0xd3
	.byte	0xb
	.long	0x8043
	.uleb128 0x5
	.byte	0x11
	.byte	0xd3
	.byte	0xb
	.long	0x8062
	.uleb128 0x5
	.byte	0x11
	.byte	0xd4
	.byte	0xb
	.long	0x8081
	.uleb128 0x5
	.byte	0x11
	.byte	0xd4
	.byte	0xb
	.long	0x80a6
	.uleb128 0x19
	.byte	0x11
	.value	0x10d
	.byte	0x16
	.long	0x9207
	.uleb128 0x19
	.byte	0x11
	.value	0x10e
	.byte	0x16
	.long	0x922a
	.uleb128 0x19
	.byte	0x11
	.value	0x10f
	.byte	0x16
	.long	0x9256
	.uleb128 0x19
	.byte	0x11
	.value	0x11d
	.byte	0xe
	.long	0x7e08
	.uleb128 0x19
	.byte	0x11
	.value	0x120
	.byte	0xe
	.long	0x7b03
	.uleb128 0x19
	.byte	0x11
	.value	0x123
	.byte	0xe
	.long	0x7b4e
	.uleb128 0x19
	.byte	0x11
	.value	0x126
	.byte	0xe
	.long	0x7b8f
	.uleb128 0x19
	.byte	0x11
	.value	0x12a
	.byte	0xe
	.long	0x9207
	.uleb128 0x19
	.byte	0x11
	.value	0x12b
	.byte	0xe
	.long	0x922a
	.uleb128 0x19
	.byte	0x11
	.value	0x12c
	.byte	0xe
	.long	0x9256
	.uleb128 0x1d
	.long	.LASF6
	.byte	0x12
	.value	0x158
	.byte	0x1a
	.long	0x3e
	.uleb128 0x7
	.long	0x2c3
	.uleb128 0x1a
	.long	.LASF12
	.byte	0x1
	.byte	0x13
	.byte	0x5f
	.byte	0xc
	.long	0x33f
	.uleb128 0x8
	.long	.LASF7
	.byte	0x13
	.byte	0x62
	.byte	0xd
	.long	0x92c6
	.uleb128 0x45
	.long	.LASF8
	.byte	0x13
	.byte	0x64
	.byte	0x11
	.long	.LASF10
	.long	0x2e2
	.long	0x306
	.long	0x30c
	.uleb128 0x2
	.long	0x92d2
	.byte	0
	.uleb128 0x45
	.long	.LASF9
	.byte	0x13
	.byte	0x67
	.byte	0x1c
	.long	.LASF11
	.long	0x2e2
	.long	0x324
	.long	0x32a
	.uleb128 0x2
	.long	0x92d2
	.byte	0
	.uleb128 0xf
	.string	"_Tp"
	.long	0x92c6
	.uleb128 0x81
	.string	"__v"
	.long	0x92c6
	.byte	0x1
	.byte	0
	.uleb128 0x7
	.long	0x2d5
	.uleb128 0x1a
	.long	.LASF13
	.byte	0x1
	.byte	0x13
	.byte	0x5f
	.byte	0xc
	.long	0x3ae
	.uleb128 0x8
	.long	.LASF7
	.byte	0x13
	.byte	0x62
	.byte	0xd
	.long	0x92c6
	.uleb128 0x45
	.long	.LASF14
	.byte	0x13
	.byte	0x64
	.byte	0x11
	.long	.LASF15
	.long	0x351
	.long	0x375
	.long	0x37b
	.uleb128 0x2
	.long	0x92d7
	.byte	0
	.uleb128 0x45
	.long	.LASF9
	.byte	0x13
	.byte	0x67
	.byte	0x1c
	.long	.LASF16
	.long	0x351
	.long	0x393
	.long	0x399
	.uleb128 0x2
	.long	0x92d7
	.byte	0
	.uleb128 0xf
	.string	"_Tp"
	.long	0x92c6
	.uleb128 0x81
	.string	"__v"
	.long	0x92c6
	.byte	0
	.byte	0
	.uleb128 0x7
	.long	0x344
	.uleb128 0x8
	.long	.LASF17
	.byte	0x13
	.byte	0x7a
	.byte	0x9
	.long	0x3bf
	.uleb128 0x8
	.long	.LASF18
	.byte	0x13
	.byte	0x73
	.byte	0xb
	.long	0x344
	.uleb128 0x82
	.long	.LASF19
	.value	0xbfb
	.uleb128 0x82
	.long	.LASF20
	.value	0xc50
	.uleb128 0x6c
	.long	.LASF21
	.byte	0x14
	.byte	0x3d
	.byte	0xd
	.long	0x5f7
	.uleb128 0x3f
	.long	.LASF22
	.byte	0x8
	.byte	0x14
	.byte	0x69
	.long	0x5d0
	.uleb128 0x11
	.long	.LASF108
	.byte	0x14
	.byte	0x6b
	.byte	0xd
	.long	0x7650
	.byte	0
	.uleb128 0x83
	.long	.LASF22
	.byte	0x14
	.byte	0x7f
	.byte	0x10
	.long	.LASF23
	.long	0x415
	.long	0x420
	.uleb128 0x2
	.long	0x930b
	.uleb128 0x1
	.long	0x7650
	.byte	0
	.uleb128 0x22
	.long	.LASF24
	.byte	0x14
	.byte	0x82
	.byte	0xc
	.long	.LASF26
	.long	0x434
	.long	0x43a
	.uleb128 0x2
	.long	0x930b
	.byte	0
	.uleb128 0x22
	.long	.LASF25
	.byte	0x14
	.byte	0x83
	.byte	0xc
	.long	.LASF27
	.long	0x44e
	.long	0x454
	.uleb128 0x2
	.long	0x930b
	.byte	0
	.uleb128 0x45
	.long	.LASF28
	.byte	0x14
	.byte	0x85
	.byte	0xd
	.long	.LASF29
	.long	0x7650
	.long	0x46c
	.long	0x472
	.uleb128 0x2
	.long	0x9310
	.byte	0
	.uleb128 0x45
	.long	.LASF30
	.byte	0x14
	.byte	0x92
	.byte	0x13
	.long	.LASF31
	.long	0x9315
	.long	0x48a
	.long	0x495
	.uleb128 0x2
	.long	0x9310
	.uleb128 0x1
	.long	0x931c
	.byte	0
	.uleb128 0x23
	.long	.LASF22
	.byte	0x14
	.byte	0x96
	.byte	0x1c
	.long	.LASF32
	.byte	0x1
	.long	0x4aa
	.long	0x4b0
	.uleb128 0x2
	.long	0x930b
	.byte	0
	.uleb128 0x23
	.long	.LASF22
	.byte	0x14
	.byte	0x98
	.byte	0x1c
	.long	.LASF33
	.byte	0x1
	.long	0x4c5
	.long	0x4d0
	.uleb128 0x2
	.long	0x930b
	.uleb128 0x1
	.long	0x9321
	.byte	0
	.uleb128 0x23
	.long	.LASF22
	.byte	0x14
	.byte	0x9c
	.byte	0x1c
	.long	.LASF34
	.byte	0x1
	.long	0x4e5
	.long	0x4f0
	.uleb128 0x2
	.long	0x930b
	.uleb128 0x1
	.long	0x620
	.byte	0
	.uleb128 0x23
	.long	.LASF22
	.byte	0x14
	.byte	0xa0
	.byte	0x1c
	.long	.LASF35
	.byte	0x1
	.long	0x505
	.long	0x510
	.uleb128 0x2
	.long	0x930b
	.uleb128 0x1
	.long	0x9326
	.byte	0
	.uleb128 0x21
	.long	.LASF36
	.byte	0x14
	.byte	0xad
	.byte	0x7
	.long	.LASF37
	.long	0x932b
	.byte	0x1
	.long	0x529
	.long	0x534
	.uleb128 0x2
	.long	0x930b
	.uleb128 0x1
	.long	0x9321
	.byte	0
	.uleb128 0x21
	.long	.LASF36
	.byte	0x14
	.byte	0xb1
	.byte	0x7
	.long	.LASF38
	.long	0x932b
	.byte	0x1
	.long	0x54d
	.long	0x558
	.uleb128 0x2
	.long	0x930b
	.uleb128 0x1
	.long	0x9326
	.byte	0
	.uleb128 0x23
	.long	.LASF39
	.byte	0x14
	.byte	0xb8
	.byte	0x1c
	.long	.LASF40
	.byte	0x1
	.long	0x56d
	.long	0x573
	.uleb128 0x2
	.long	0x930b
	.byte	0
	.uleb128 0x23
	.long	.LASF41
	.byte	0x14
	.byte	0xbb
	.byte	0x7
	.long	.LASF42
	.byte	0x1
	.long	0x588
	.long	0x593
	.uleb128 0x2
	.long	0x930b
	.uleb128 0x1
	.long	0x932b
	.byte	0
	.uleb128 0xa2
	.long	.LASF68
	.byte	0x14
	.byte	0xc6
	.byte	0x25
	.long	.LASF69
	.long	0x92c6
	.byte	0x1
	.long	0x5ad
	.long	0x5b3
	.uleb128 0x2
	.long	0x9310
	.byte	0
	.uleb128 0xa3
	.long	.LASF43
	.byte	0x14
	.byte	0xdf
	.byte	0x7
	.long	.LASF44
	.long	0x9330
	.byte	0x1
	.long	0x5c9
	.uleb128 0x2
	.long	0x9310
	.byte	0
	.byte	0
	.uleb128 0x7
	.long	0x3e7
	.uleb128 0x5
	.byte	0x14
	.byte	0x5d
	.byte	0x10
	.long	0x5ff
	.uleb128 0xa4
	.long	.LASF41
	.byte	0x14
	.value	0x120
	.byte	0x5
	.long	.LASF1474
	.uleb128 0x1
	.long	0x932b
	.uleb128 0x1
	.long	0x932b
	.byte	0
	.byte	0
	.uleb128 0x5
	.byte	0x14
	.byte	0x42
	.byte	0x1a
	.long	0x3e7
	.uleb128 0x84
	.long	.LASF45
	.byte	0x14
	.byte	0x52
	.byte	0x8
	.long	.LASF46
	.long	0x616
	.uleb128 0x1
	.long	0x3e7
	.byte	0
	.uleb128 0x33
	.long	.LASF281
	.uleb128 0x7
	.long	0x616
	.uleb128 0x1d
	.long	.LASF47
	.byte	0x12
	.value	0x15c
	.byte	0x1d
	.long	0x92c0
	.uleb128 0x19
	.byte	0x14
	.value	0x12d
	.byte	0x1a
	.long	0x5dd
	.uleb128 0x1d
	.long	.LASF48
	.byte	0x12
	.value	0x159
	.byte	0x1c
	.long	0x7e6e
	.uleb128 0x8
	.long	.LASF49
	.byte	0x13
	.byte	0x77
	.byte	0x9
	.long	0x64f
	.uleb128 0x8
	.long	.LASF18
	.byte	0x13
	.byte	0x73
	.byte	0xb
	.long	0x2d5
	.uleb128 0x5
	.byte	0x15
	.byte	0x37
	.byte	0xb
	.long	0x9335
	.uleb128 0x5
	.byte	0x15
	.byte	0x38
	.byte	0xb
	.long	0x947b
	.uleb128 0x5
	.byte	0x15
	.byte	0x39
	.byte	0xb
	.long	0x9496
	.uleb128 0xa5
	.long	.LASF1475
	.byte	0x1
	.byte	0x16
	.byte	0x5f
	.byte	0xa
	.uleb128 0x1a
	.long	.LASF50
	.byte	0x1
	.byte	0x16
	.byte	0x65
	.byte	0xa
	.long	0x690
	.uleb128 0x35
	.long	0x673
	.byte	0
	.uleb128 0x1a
	.long	.LASF51
	.byte	0x1
	.byte	0x16
	.byte	0x69
	.byte	0xa
	.long	0x6a3
	.uleb128 0x35
	.long	0x67d
	.byte	0
	.uleb128 0x1a
	.long	.LASF52
	.byte	0x1
	.byte	0x16
	.byte	0x6d
	.byte	0xa
	.long	0x6b6
	.uleb128 0x35
	.long	0x690
	.byte	0
	.uleb128 0x78
	.long	.LASF53
	.byte	0x17
	.byte	0x32
	.byte	0xd
	.uleb128 0x5
	.byte	0x18
	.byte	0x89
	.byte	0xb
	.long	0x95ff
	.uleb128 0x5
	.byte	0x18
	.byte	0x8a
	.byte	0xb
	.long	0x9633
	.uleb128 0x5
	.byte	0x18
	.byte	0x90
	.byte	0xb
	.long	0x970f
	.uleb128 0x5
	.byte	0x18
	.byte	0x93
	.byte	0xb
	.long	0x972d
	.uleb128 0x5
	.byte	0x18
	.byte	0x96
	.byte	0xb
	.long	0x9748
	.uleb128 0x5
	.byte	0x18
	.byte	0x97
	.byte	0xb
	.long	0x975e
	.uleb128 0x5
	.byte	0x18
	.byte	0x98
	.byte	0xb
	.long	0x9775
	.uleb128 0x5
	.byte	0x18
	.byte	0x99
	.byte	0xb
	.long	0x978c
	.uleb128 0x5
	.byte	0x18
	.byte	0x9b
	.byte	0xb
	.long	0x97b6
	.uleb128 0x5
	.byte	0x18
	.byte	0x9e
	.byte	0xb
	.long	0x97d3
	.uleb128 0x5
	.byte	0x18
	.byte	0xa0
	.byte	0xb
	.long	0x97ea
	.uleb128 0x5
	.byte	0x18
	.byte	0xa3
	.byte	0xb
	.long	0x9806
	.uleb128 0x5
	.byte	0x18
	.byte	0xa4
	.byte	0xb
	.long	0x9822
	.uleb128 0x5
	.byte	0x18
	.byte	0xa5
	.byte	0xb
	.long	0x9843
	.uleb128 0x5
	.byte	0x18
	.byte	0xa7
	.byte	0xb
	.long	0x9864
	.uleb128 0x5
	.byte	0x18
	.byte	0xaa
	.byte	0xb
	.long	0x9885
	.uleb128 0x5
	.byte	0x18
	.byte	0xad
	.byte	0xb
	.long	0x9899
	.uleb128 0x5
	.byte	0x18
	.byte	0xaf
	.byte	0xb
	.long	0x98a7
	.uleb128 0x5
	.byte	0x18
	.byte	0xb0
	.byte	0xb
	.long	0x98b9
	.uleb128 0x5
	.byte	0x18
	.byte	0xb1
	.byte	0xb
	.long	0x98d9
	.uleb128 0x5
	.byte	0x18
	.byte	0xb2
	.byte	0xb
	.long	0x98fd
	.uleb128 0x5
	.byte	0x18
	.byte	0xb3
	.byte	0xb
	.long	0x9921
	.uleb128 0x5
	.byte	0x18
	.byte	0xb5
	.byte	0xb
	.long	0x9938
	.uleb128 0x5
	.byte	0x18
	.byte	0xb6
	.byte	0xb
	.long	0x9959
	.uleb128 0x5
	.byte	0x18
	.byte	0xfd
	.byte	0x16
	.long	0x9667
	.uleb128 0x19
	.byte	0x18
	.value	0x102
	.byte	0x16
	.long	0x812a
	.uleb128 0x19
	.byte	0x18
	.value	0x103
	.byte	0x16
	.long	0x9975
	.uleb128 0x19
	.byte	0x18
	.value	0x105
	.byte	0x16
	.long	0x9991
	.uleb128 0x19
	.byte	0x18
	.value	0x106
	.byte	0x16
	.long	0x99f0
	.uleb128 0x19
	.byte	0x18
	.value	0x107
	.byte	0x16
	.long	0x99a8
	.uleb128 0x19
	.byte	0x18
	.value	0x108
	.byte	0x16
	.long	0x99cc
	.uleb128 0x19
	.byte	0x18
	.value	0x109
	.byte	0x16
	.long	0x9a0b
	.uleb128 0x5
	.byte	0x19
	.byte	0x64
	.byte	0xb
	.long	0x787a
	.uleb128 0x5
	.byte	0x19
	.byte	0x65
	.byte	0xb
	.long	0x9ab0
	.uleb128 0x5
	.byte	0x19
	.byte	0x67
	.byte	0xb
	.long	0x9ac6
	.uleb128 0x5
	.byte	0x19
	.byte	0x68
	.byte	0xb
	.long	0x9ad8
	.uleb128 0x5
	.byte	0x19
	.byte	0x69
	.byte	0xb
	.long	0x9aee
	.uleb128 0x5
	.byte	0x19
	.byte	0x6a
	.byte	0xb
	.long	0x9b05
	.uleb128 0x5
	.byte	0x19
	.byte	0x6b
	.byte	0xb
	.long	0x9b1c
	.uleb128 0x5
	.byte	0x19
	.byte	0x6c
	.byte	0xb
	.long	0x9b32
	.uleb128 0x5
	.byte	0x19
	.byte	0x6d
	.byte	0xb
	.long	0x9b49
	.uleb128 0x5
	.byte	0x19
	.byte	0x6e
	.byte	0xb
	.long	0x9b6a
	.uleb128 0x5
	.byte	0x19
	.byte	0x6f
	.byte	0xb
	.long	0x9b8b
	.uleb128 0x5
	.byte	0x19
	.byte	0x73
	.byte	0xb
	.long	0x9ba7
	.uleb128 0x5
	.byte	0x19
	.byte	0x74
	.byte	0xb
	.long	0x9bcd
	.uleb128 0x5
	.byte	0x19
	.byte	0x76
	.byte	0xb
	.long	0x9bee
	.uleb128 0x5
	.byte	0x19
	.byte	0x77
	.byte	0xb
	.long	0x9c0f
	.uleb128 0x5
	.byte	0x19
	.byte	0x78
	.byte	0xb
	.long	0x9c30
	.uleb128 0x5
	.byte	0x19
	.byte	0x7a
	.byte	0xb
	.long	0x9c47
	.uleb128 0x5
	.byte	0x19
	.byte	0x7b
	.byte	0xb
	.long	0x9c5e
	.uleb128 0x5
	.byte	0x19
	.byte	0x80
	.byte	0xb
	.long	0x9c6a
	.uleb128 0x5
	.byte	0x19
	.byte	0x85
	.byte	0xb
	.long	0x9c7c
	.uleb128 0x5
	.byte	0x19
	.byte	0x86
	.byte	0xb
	.long	0x9c92
	.uleb128 0x5
	.byte	0x19
	.byte	0x87
	.byte	0xb
	.long	0x9cad
	.uleb128 0x5
	.byte	0x19
	.byte	0x89
	.byte	0xb
	.long	0x9cbf
	.uleb128 0x5
	.byte	0x19
	.byte	0x8a
	.byte	0xb
	.long	0x9cd6
	.uleb128 0x5
	.byte	0x19
	.byte	0x8d
	.byte	0xb
	.long	0x9cfc
	.uleb128 0x5
	.byte	0x19
	.byte	0x8f
	.byte	0xb
	.long	0x9d08
	.uleb128 0x5
	.byte	0x19
	.byte	0x91
	.byte	0xb
	.long	0x9d1e
	.uleb128 0x85
	.long	.LASF54
	.byte	0x12
	.value	0x179
	.byte	0x41
	.uleb128 0x5
	.byte	0x1a
	.byte	0x42
	.byte	0xb
	.long	0x92b1
	.uleb128 0xa6
	.string	"pmr"
	.byte	0x4b
	.byte	0x37
	.byte	0xb
	.uleb128 0x86
	.string	"_V2"
	.byte	0x1e
	.byte	0x54
	.byte	0x1
	.uleb128 0x5
	.byte	0x1b
	.byte	0x35
	.byte	0xb
	.long	0x9690
	.uleb128 0x5
	.byte	0x1b
	.byte	0x36
	.byte	0xb
	.long	0x969c
	.uleb128 0x5
	.byte	0x1b
	.byte	0x37
	.byte	0xb
	.long	0x96a8
	.uleb128 0x5
	.byte	0x1b
	.byte	0x38
	.byte	0xb
	.long	0x96b4
	.uleb128 0x5
	.byte	0x1b
	.byte	0x3a
	.byte	0xb
	.long	0x9dca
	.uleb128 0x5
	.byte	0x1b
	.byte	0x3b
	.byte	0xb
	.long	0x9dd6
	.uleb128 0x5
	.byte	0x1b
	.byte	0x3c
	.byte	0xb
	.long	0x9de2
	.uleb128 0x5
	.byte	0x1b
	.byte	0x3d
	.byte	0xb
	.long	0x9dee
	.uleb128 0x5
	.byte	0x1b
	.byte	0x3f
	.byte	0xb
	.long	0x9d6a
	.uleb128 0x5
	.byte	0x1b
	.byte	0x40
	.byte	0xb
	.long	0x9d76
	.uleb128 0x5
	.byte	0x1b
	.byte	0x41
	.byte	0xb
	.long	0x9d82
	.uleb128 0x5
	.byte	0x1b
	.byte	0x42
	.byte	0xb
	.long	0x9d8e
	.uleb128 0x5
	.byte	0x1b
	.byte	0x44
	.byte	0xb
	.long	0x9e42
	.uleb128 0x5
	.byte	0x1b
	.byte	0x45
	.byte	0xb
	.long	0x9e2a
	.uleb128 0x5
	.byte	0x1b
	.byte	0x47
	.byte	0xb
	.long	0x9d3a
	.uleb128 0x5
	.byte	0x1b
	.byte	0x48
	.byte	0xb
	.long	0x9d46
	.uleb128 0x5
	.byte	0x1b
	.byte	0x49
	.byte	0xb
	.long	0x9d52
	.uleb128 0x5
	.byte	0x1b
	.byte	0x4a
	.byte	0xb
	.long	0x9d5e
	.uleb128 0x5
	.byte	0x1b
	.byte	0x4c
	.byte	0xb
	.long	0x9dfa
	.uleb128 0x5
	.byte	0x1b
	.byte	0x4d
	.byte	0xb
	.long	0x9e06
	.uleb128 0x5
	.byte	0x1b
	.byte	0x4e
	.byte	0xb
	.long	0x9e12
	.uleb128 0x5
	.byte	0x1b
	.byte	0x4f
	.byte	0xb
	.long	0x9e1e
	.uleb128 0x5
	.byte	0x1b
	.byte	0x51
	.byte	0xb
	.long	0x9d9a
	.uleb128 0x5
	.byte	0x1b
	.byte	0x52
	.byte	0xb
	.long	0x9da6
	.uleb128 0x5
	.byte	0x1b
	.byte	0x53
	.byte	0xb
	.long	0x9db2
	.uleb128 0x5
	.byte	0x1b
	.byte	0x54
	.byte	0xb
	.long	0x9dbe
	.uleb128 0x5
	.byte	0x1b
	.byte	0x56
	.byte	0xb
	.long	0x9e4e
	.uleb128 0x5
	.byte	0x1b
	.byte	0x57
	.byte	0xb
	.long	0x9e36
	.uleb128 0x5
	.byte	0x1c
	.byte	0x3e
	.byte	0xb
	.long	0x9673
	.uleb128 0x5
	.byte	0x1c
	.byte	0x3f
	.byte	0xb
	.long	0x967f
	.uleb128 0x5
	.byte	0x1c
	.byte	0x40
	.byte	0xb
	.long	0x7c82
	.uleb128 0x5
	.byte	0x1c
	.byte	0x42
	.byte	0xb
	.long	0x9e76
	.uleb128 0x5
	.byte	0x1c
	.byte	0x43
	.byte	0xb
	.long	0x9e82
	.uleb128 0x5
	.byte	0x1c
	.byte	0x44
	.byte	0xb
	.long	0x9e9d
	.uleb128 0x5
	.byte	0x1c
	.byte	0x45
	.byte	0xb
	.long	0x9eb8
	.uleb128 0x5
	.byte	0x1c
	.byte	0x46
	.byte	0xb
	.long	0x9ed3
	.uleb128 0x5
	.byte	0x1c
	.byte	0x47
	.byte	0xb
	.long	0x9ee9
	.uleb128 0x5
	.byte	0x1c
	.byte	0x48
	.byte	0xb
	.long	0x9f04
	.uleb128 0x5
	.byte	0x1c
	.byte	0x49
	.byte	0xb
	.long	0x9f1a
	.uleb128 0x5
	.byte	0x1c
	.byte	0x51
	.byte	0xb
	.long	0x96c0
	.uleb128 0x5
	.byte	0x1c
	.byte	0x52
	.byte	0xb
	.long	0x9f30
	.uleb128 0x6c
	.long	.LASF55
	.byte	0x1d
	.byte	0x3d
	.byte	0xd
	.long	0xa2a
	.uleb128 0xa7
	.string	"_V2"
	.byte	0x1d
	.value	0x4c6
	.byte	0x1
	.uleb128 0xa8
	.byte	0x1d
	.value	0x5aa
	.byte	0x1f
	.long	0xa38
	.byte	0
	.uleb128 0xa9
	.long	.LASF1476
	.byte	0x4c
	.value	0x369
	.byte	0x14
	.long	0xa43
	.uleb128 0x85
	.long	.LASF56
	.byte	0x1d
	.value	0x54e
	.byte	0x14
	.byte	0
	.uleb128 0x6c
	.long	.LASF57
	.byte	0x1d
	.byte	0x3a
	.byte	0xd
	.long	0xa62
	.uleb128 0xaa
	.long	.LASF54
	.byte	0x1f
	.byte	0x30
	.byte	0x3f
	.uleb128 0x78
	.long	.LASF58
	.byte	0x20
	.byte	0x48
	.byte	0xb
	.byte	0
	.byte	0
	.uleb128 0x5
	.byte	0x21
	.byte	0x54
	.byte	0xb
	.long	0x9f5d
	.uleb128 0x5
	.byte	0x21
	.byte	0x55
	.byte	0xb
	.long	0x9f51
	.uleb128 0x5
	.byte	0x21
	.byte	0x56
	.byte	0xb
	.long	0x7653
	.uleb128 0x5
	.byte	0x21
	.byte	0x5e
	.byte	0xb
	.long	0x9f6e
	.uleb128 0x5
	.byte	0x21
	.byte	0x67
	.byte	0xb
	.long	0x9f89
	.uleb128 0x5
	.byte	0x21
	.byte	0x6a
	.byte	0xb
	.long	0x9fa4
	.uleb128 0x5
	.byte	0x21
	.byte	0x6b
	.byte	0xb
	.long	0x9fba
	.uleb128 0x5
	.byte	0x22
	.byte	0x61
	.byte	0x14
	.long	0x8148
	.uleb128 0x5
	.byte	0x22
	.byte	0x62
	.byte	0x14
	.long	0x9fd0
	.uleb128 0x5
	.byte	0x22
	.byte	0x63
	.byte	0x14
	.long	0x815b
	.uleb128 0x5
	.byte	0x22
	.byte	0x64
	.byte	0x14
	.long	0x8161
	.uleb128 0x5
	.byte	0x22
	.byte	0x65
	.byte	0x14
	.long	0x8167
	.uleb128 0x59
	.long	.LASF59
	.byte	0x1
	.byte	0xc
	.value	0x3a6
	.byte	0xc
	.long	0xb0d
	.uleb128 0x16
	.long	.LASF60
	.byte	0xc
	.value	0x3ab
	.byte	0x9
	.long	.LASF97
	.long	0xa7eb
	.long	0xb02
	.uleb128 0xa
	.long	.LASF61
	.long	0xa7eb
	.uleb128 0xa
	.long	.LASF62
	.long	0x3e
	.uleb128 0x1
	.long	0xa7eb
	.uleb128 0x1
	.long	0x3e
	.byte	0
	.uleb128 0x87
	.long	.LASF63
	.long	0x92c6
	.byte	0
	.uleb128 0x3f
	.long	.LASF64
	.byte	0x1
	.byte	0x6
	.byte	0x3f
	.long	0xcab
	.uleb128 0x23
	.long	.LASF65
	.byte	0x6
	.byte	0x58
	.byte	0x7
	.long	.LASF66
	.byte	0x1
	.long	0xb2e
	.long	0xb34
	.uleb128 0x2
	.long	0x9fe2
	.byte	0
	.uleb128 0x23
	.long	.LASF65
	.byte	0x6
	.byte	0x5c
	.byte	0x7
	.long	.LASF67
	.byte	0x1
	.long	0xb49
	.long	0xb54
	.uleb128 0x2
	.long	0x9fe2
	.uleb128 0x1
	.long	0x9fec
	.byte	0
	.uleb128 0x4e
	.long	.LASF36
	.byte	0x6
	.byte	0x64
	.byte	0x18
	.long	.LASF70
	.long	0x9ff1
	.long	0xb6c
	.long	0xb77
	.uleb128 0x2
	.long	0x9fe2
	.uleb128 0x1
	.long	0x9fec
	.byte	0
	.uleb128 0x23
	.long	.LASF71
	.byte	0x6
	.byte	0x68
	.byte	0x7
	.long	.LASF72
	.byte	0x1
	.long	0xb8c
	.long	0xb92
	.uleb128 0x2
	.long	0x9fe2
	.byte	0
	.uleb128 0x27
	.long	.LASF75
	.byte	0x6
	.byte	0x46
	.byte	0x1a
	.long	0x9ff6
	.uleb128 0x21
	.long	.LASF73
	.byte	0x6
	.byte	0x6b
	.byte	0x7
	.long	.LASF74
	.long	0xb92
	.byte	0x1
	.long	0xbb7
	.long	0xbc2
	.uleb128 0x2
	.long	0xa000
	.uleb128 0x1
	.long	0xbc2
	.byte	0
	.uleb128 0x27
	.long	.LASF76
	.byte	0x6
	.byte	0x48
	.byte	0x1a
	.long	0xa00a
	.uleb128 0x27
	.long	.LASF77
	.byte	0x6
	.byte	0x47
	.byte	0x1a
	.long	0xa00f
	.uleb128 0x21
	.long	.LASF73
	.byte	0x6
	.byte	0x6f
	.byte	0x7
	.long	.LASF78
	.long	0xbce
	.byte	0x1
	.long	0xbf3
	.long	0xbfe
	.uleb128 0x2
	.long	0xa000
	.uleb128 0x1
	.long	0xbfe
	.byte	0
	.uleb128 0x27
	.long	.LASF79
	.byte	0x6
	.byte	0x49
	.byte	0x1a
	.long	0xa014
	.uleb128 0x21
	.long	.LASF80
	.byte	0x6
	.byte	0x81
	.byte	0x7
	.long	.LASF81
	.long	0x9ff6
	.byte	0x1
	.long	0xc23
	.long	0xc33
	.uleb128 0x2
	.long	0x9fe2
	.uleb128 0x1
	.long	0xc33
	.uleb128 0x1
	.long	0x9315
	.byte	0
	.uleb128 0x27
	.long	.LASF82
	.byte	0x6
	.byte	0x43
	.byte	0x1f
	.long	0x2c3
	.uleb128 0x23
	.long	.LASF83
	.byte	0x6
	.byte	0xa7
	.byte	0x7
	.long	.LASF84
	.byte	0x1
	.long	0xc54
	.long	0xc64
	.uleb128 0x2
	.long	0x9fe2
	.uleb128 0x1
	.long	0x9ff6
	.uleb128 0x1
	.long	0xc33
	.byte	0
	.uleb128 0x21
	.long	.LASF85
	.byte	0x6
	.byte	0xc2
	.byte	0x7
	.long	.LASF86
	.long	0xc33
	.byte	0x1
	.long	0xc7d
	.long	0xc83
	.uleb128 0x2
	.long	0xa000
	.byte	0
	.uleb128 0x45
	.long	.LASF87
	.byte	0x6
	.byte	0xf2
	.byte	0x7
	.long	.LASF88
	.long	0xc33
	.long	0xc9b
	.long	0xca1
	.uleb128 0x2
	.long	0xa000
	.byte	0
	.uleb128 0xf
	.string	"_Tp"
	.long	0x37
	.byte	0
	.uleb128 0x7
	.long	0xb0d
	.uleb128 0x3f
	.long	.LASF89
	.byte	0x1
	.byte	0x5
	.byte	0x85
	.long	0xd34
	.uleb128 0x47
	.long	0xb0d
	.byte	0x1
	.uleb128 0x23
	.long	.LASF90
	.byte	0x5
	.byte	0xa8
	.byte	0x7
	.long	.LASF91
	.byte	0x1
	.long	0xcd7
	.long	0xcdd
	.uleb128 0x2
	.long	0xa019
	.byte	0
	.uleb128 0x23
	.long	.LASF90
	.byte	0x5
	.byte	0xac
	.byte	0x7
	.long	.LASF92
	.byte	0x1
	.long	0xcf2
	.long	0xcfd
	.uleb128 0x2
	.long	0xa019
	.uleb128 0x1
	.long	0xa023
	.byte	0
	.uleb128 0x4e
	.long	.LASF36
	.byte	0x5
	.byte	0xb1
	.byte	0x12
	.long	.LASF93
	.long	0xa028
	.long	0xd15
	.long	0xd20
	.uleb128 0x2
	.long	0xa019
	.uleb128 0x1
	.long	0xa023
	.byte	0
	.uleb128 0x6d
	.long	.LASF94
	.long	.LASF95
	.long	0xd2d
	.uleb128 0x2
	.long	0xa019
	.byte	0
	.byte	0
	.uleb128 0x7
	.long	0xcb0
	.uleb128 0x59
	.long	.LASF96
	.byte	0x1
	.byte	0x8
	.value	0x248
	.byte	0xc
	.long	0xe37
	.uleb128 0x1d
	.long	.LASF75
	.byte	0x8
	.value	0x251
	.byte	0xd
	.long	0x9ff6
	.uleb128 0x16
	.long	.LASF80
	.byte	0x8
	.value	0x27d
	.byte	0x7
	.long	.LASF98
	.long	0xd47
	.long	0xd74
	.uleb128 0x1
	.long	0xa02d
	.uleb128 0x1
	.long	0xd86
	.byte	0
	.uleb128 0x1d
	.long	.LASF99
	.byte	0x8
	.value	0x24b
	.byte	0xd
	.long	0xcb0
	.uleb128 0x7
	.long	0xd74
	.uleb128 0x1d
	.long	.LASF82
	.byte	0x8
	.value	0x260
	.byte	0xd
	.long	0x2c3
	.uleb128 0x16
	.long	.LASF80
	.byte	0x8
	.value	0x28c
	.byte	0x7
	.long	.LASF100
	.long	0xd47
	.long	0xdb8
	.uleb128 0x1
	.long	0xa02d
	.uleb128 0x1
	.long	0xd86
	.uleb128 0x1
	.long	0xdb8
	.byte	0
	.uleb128 0x1d
	.long	.LASF101
	.byte	0x8
	.value	0x25a
	.byte	0xd
	.long	0x9315
	.uleb128 0x37
	.long	.LASF83
	.byte	0x8
	.value	0x2b0
	.byte	0x7
	.long	.LASF312
	.long	0xde6
	.uleb128 0x1
	.long	0xa02d
	.uleb128 0x1
	.long	0xd47
	.uleb128 0x1
	.long	0xd86
	.byte	0
	.uleb128 0x16
	.long	.LASF85
	.byte	0x8
	.value	0x2ed
	.byte	0x7
	.long	.LASF102
	.long	0xd86
	.long	0xe01
	.uleb128 0x1
	.long	0xa032
	.byte	0
	.uleb128 0x16
	.long	.LASF103
	.byte	0x8
	.value	0x2fd
	.byte	0x7
	.long	.LASF104
	.long	0xd74
	.long	0xe1c
	.uleb128 0x1
	.long	0xa032
	.byte	0
	.uleb128 0x1d
	.long	.LASF7
	.byte	0x8
	.value	0x24e
	.byte	0xd
	.long	0x37
	.uleb128 0x1d
	.long	.LASF105
	.byte	0x8
	.value	0x26f
	.byte	0x8
	.long	0xcb0
	.byte	0
	.uleb128 0x1a
	.long	.LASF106
	.byte	0x18
	.byte	0x2
	.byte	0x5b
	.byte	0xc
	.long	0x11d8
	.uleb128 0x1a
	.long	.LASF107
	.byte	0x18
	.byte	0x2
	.byte	0x62
	.byte	0xe
	.long	0xeea
	.uleb128 0x11
	.long	.LASF109
	.byte	0x2
	.byte	0x64
	.byte	0xa
	.long	0xeef
	.byte	0
	.uleb128 0x11
	.long	.LASF110
	.byte	0x2
	.byte	0x65
	.byte	0xa
	.long	0xeef
	.byte	0x8
	.uleb128 0x11
	.long	.LASF111
	.byte	0x2
	.byte	0x66
	.byte	0xa
	.long	0xeef
	.byte	0x10
	.uleb128 0x22
	.long	.LASF107
	.byte	0x2
	.byte	0x69
	.byte	0x2
	.long	.LASF112
	.long	0xe8c
	.long	0xe92
	.uleb128 0x2
	.long	0xa041
	.byte	0
	.uleb128 0x22
	.long	.LASF107
	.byte	0x2
	.byte	0x6f
	.byte	0x2
	.long	.LASF113
	.long	0xea6
	.long	0xeb1
	.uleb128 0x2
	.long	0xa041
	.uleb128 0x1
	.long	0xa04b
	.byte	0
	.uleb128 0x22
	.long	.LASF114
	.byte	0x2
	.byte	0x77
	.byte	0x2
	.long	.LASF115
	.long	0xec5
	.long	0xed0
	.uleb128 0x2
	.long	0xa041
	.uleb128 0x1
	.long	0xa050
	.byte	0
	.uleb128 0x63
	.long	.LASF116
	.byte	0x80
	.long	.LASF320
	.long	0xede
	.uleb128 0x2
	.long	0xa041
	.uleb128 0x1
	.long	0xa055
	.byte	0
	.byte	0
	.uleb128 0x7
	.long	0xe44
	.uleb128 0x8
	.long	.LASF75
	.byte	0x2
	.byte	0x60
	.byte	0x9
	.long	0x8244
	.uleb128 0x1a
	.long	.LASF117
	.byte	0x18
	.byte	0x2
	.byte	0x8b
	.byte	0xe
	.long	0xfc1
	.uleb128 0x35
	.long	0xcb0
	.uleb128 0x35
	.long	0xe44
	.uleb128 0x22
	.long	.LASF117
	.byte	0x2
	.byte	0x8f
	.byte	0x2
	.long	.LASF118
	.long	0xf26
	.long	0xf2c
	.uleb128 0x2
	.long	0xa05a
	.byte	0
	.uleb128 0x22
	.long	.LASF117
	.byte	0x2
	.byte	0x98
	.byte	0x2
	.long	.LASF119
	.long	0xf40
	.long	0xf4b
	.uleb128 0x2
	.long	0xa05a
	.uleb128 0x1
	.long	0xa064
	.byte	0
	.uleb128 0x22
	.long	.LASF117
	.byte	0x2
	.byte	0xa0
	.byte	0x2
	.long	.LASF120
	.long	0xf5f
	.long	0xf6a
	.uleb128 0x2
	.long	0xa05a
	.uleb128 0x1
	.long	0xa069
	.byte	0
	.uleb128 0x22
	.long	.LASF117
	.byte	0x2
	.byte	0xa5
	.byte	0x2
	.long	.LASF121
	.long	0xf7e
	.long	0xf89
	.uleb128 0x2
	.long	0xa05a
	.uleb128 0x1
	.long	0xa06e
	.byte	0
	.uleb128 0x22
	.long	.LASF117
	.byte	0x2
	.byte	0xaa
	.byte	0x2
	.long	.LASF122
	.long	0xf9d
	.long	0xfad
	.uleb128 0x2
	.long	0xa05a
	.uleb128 0x1
	.long	0xa06e
	.uleb128 0x1
	.long	0xa069
	.byte	0
	.uleb128 0x6e
	.long	.LASF482
	.long	.LASF483
	.long	0xfba
	.uleb128 0x2
	.long	0xa05a
	.byte	0
	.byte	0
	.uleb128 0x8
	.long	.LASF123
	.byte	0x2
	.byte	0x5e
	.byte	0x15
	.long	0x8275
	.uleb128 0x7
	.long	0xfc1
	.uleb128 0x36
	.long	.LASF124
	.value	0x133
	.byte	0x7
	.long	.LASF125
	.long	0xa073
	.long	0xfea
	.long	0xff0
	.uleb128 0x2
	.long	0xa078
	.byte	0
	.uleb128 0x36
	.long	.LASF124
	.value	0x138
	.byte	0x7
	.long	.LASF126
	.long	0xa064
	.long	0x1008
	.long	0x100e
	.uleb128 0x2
	.long	0xa082
	.byte	0
	.uleb128 0x1d
	.long	.LASF99
	.byte	0x2
	.value	0x12f
	.byte	0x16
	.long	0xcb0
	.uleb128 0x7
	.long	0x100e
	.uleb128 0x36
	.long	.LASF127
	.value	0x13d
	.byte	0x7
	.long	.LASF128
	.long	0x100e
	.long	0x1038
	.long	0x103e
	.uleb128 0x2
	.long	0xa082
	.byte	0
	.uleb128 0x4f
	.long	.LASF129
	.value	0x141
	.long	.LASF130
	.long	0x1051
	.long	0x1057
	.uleb128 0x2
	.long	0xa078
	.byte	0
	.uleb128 0x1c
	.long	.LASF129
	.value	0x147
	.long	.LASF131
	.long	0x106a
	.long	0x1075
	.uleb128 0x2
	.long	0xa078
	.uleb128 0x1
	.long	0xa087
	.byte	0
	.uleb128 0x1c
	.long	.LASF129
	.value	0x14d
	.long	.LASF132
	.long	0x1088
	.long	0x1093
	.uleb128 0x2
	.long	0xa078
	.uleb128 0x1
	.long	0x2c3
	.byte	0
	.uleb128 0x1c
	.long	.LASF129
	.value	0x153
	.long	.LASF133
	.long	0x10a6
	.long	0x10b6
	.uleb128 0x2
	.long	0xa078
	.uleb128 0x1
	.long	0x2c3
	.uleb128 0x1
	.long	0xa087
	.byte	0
	.uleb128 0x4f
	.long	.LASF129
	.value	0x158
	.long	.LASF134
	.long	0x10c9
	.long	0x10d4
	.uleb128 0x2
	.long	0xa078
	.uleb128 0x1
	.long	0xa08c
	.byte	0
	.uleb128 0x1c
	.long	.LASF129
	.value	0x15d
	.long	.LASF135
	.long	0x10e7
	.long	0x10f2
	.uleb128 0x2
	.long	0xa078
	.uleb128 0x1
	.long	0xa06e
	.byte	0
	.uleb128 0x1c
	.long	.LASF129
	.value	0x161
	.long	.LASF136
	.long	0x1105
	.long	0x1115
	.uleb128 0x2
	.long	0xa078
	.uleb128 0x1
	.long	0xa08c
	.uleb128 0x1
	.long	0xa087
	.byte	0
	.uleb128 0x1c
	.long	.LASF129
	.value	0x16f
	.long	.LASF137
	.long	0x1128
	.long	0x1138
	.uleb128 0x2
	.long	0xa078
	.uleb128 0x1
	.long	0xa087
	.uleb128 0x1
	.long	0xa08c
	.byte	0
	.uleb128 0x1c
	.long	.LASF138
	.value	0x175
	.long	.LASF139
	.long	0x114b
	.long	0x1151
	.uleb128 0x2
	.long	0xa078
	.byte	0
	.uleb128 0x50
	.long	.LASF140
	.value	0x17e
	.byte	0x14
	.long	0xefb
	.byte	0
	.uleb128 0x36
	.long	.LASF141
	.value	0x182
	.byte	0x7
	.long	.LASF142
	.long	0xeef
	.long	0x1176
	.long	0x1181
	.uleb128 0x2
	.long	0xa078
	.uleb128 0x1
	.long	0x2c3
	.byte	0
	.uleb128 0x1c
	.long	.LASF143
	.value	0x18a
	.long	.LASF144
	.long	0x1194
	.long	0x11a4
	.uleb128 0x2
	.long	0xa078
	.uleb128 0x1
	.long	0xeef
	.uleb128 0x1
	.long	0x2c3
	.byte	0
	.uleb128 0x10
	.long	.LASF145
	.byte	0x2
	.value	0x195
	.byte	0x7
	.long	.LASF146
	.byte	0x2
	.long	0x11ba
	.long	0x11c5
	.uleb128 0x2
	.long	0xa078
	.uleb128 0x1
	.long	0x2c3
	.byte	0
	.uleb128 0xf
	.string	"_Tp"
	.long	0x37
	.uleb128 0xa
	.long	.LASF147
	.long	0xcb0
	.byte	0
	.uleb128 0x7
	.long	0xe37
	.uleb128 0x1a
	.long	.LASF148
	.byte	0x1
	.byte	0x13
	.byte	0xa9
	.byte	0xc
	.long	0x1200
	.uleb128 0x8
	.long	.LASF149
	.byte	0x13
	.byte	0xaa
	.byte	0xd
	.long	0xcb0
	.uleb128 0xa
	.long	.LASF150
	.long	0xcb0
	.byte	0
	.uleb128 0x48
	.long	.LASF151
	.byte	0x18
	.byte	0x2
	.value	0x1cc
	.long	0x1dd9
	.uleb128 0x19
	.byte	0x2
	.value	0x1cc
	.byte	0xb
	.long	0x115e
	.uleb128 0x19
	.byte	0x2
	.value	0x1cc
	.byte	0xb
	.long	0x1181
	.uleb128 0x19
	.byte	0x2
	.value	0x1cc
	.byte	0xb
	.long	0x1151
	.uleb128 0x19
	.byte	0x2
	.value	0x1cc
	.byte	0xb
	.long	0xff0
	.uleb128 0x19
	.byte	0x2
	.value	0x1cc
	.byte	0xb
	.long	0xfd2
	.uleb128 0x19
	.byte	0x2
	.value	0x1cc
	.byte	0xb
	.long	0x1020
	.uleb128 0x47
	.long	0xe37
	.byte	0x2
	.uleb128 0x16
	.long	.LASF152
	.byte	0x2
	.value	0x1f6
	.byte	0x7
	.long	.LASF153
	.long	0x92c6
	.long	0x1264
	.uleb128 0x1
	.long	0x643
	.byte	0
	.uleb128 0x16
	.long	.LASF152
	.byte	0x2
	.value	0x1ff
	.byte	0x7
	.long	.LASF154
	.long	0x92c6
	.long	0x127f
	.uleb128 0x1
	.long	0x3b3
	.byte	0
	.uleb128 0x6f
	.long	.LASF346
	.long	.LASF347
	.long	0x92c6
	.uleb128 0x14
	.long	.LASF75
	.byte	0x2
	.value	0x1e6
	.byte	0x29
	.long	0xeef
	.uleb128 0x16
	.long	.LASF155
	.byte	0x2
	.value	0x20c
	.byte	0x7
	.long	.LASF156
	.long	0x128c
	.long	0x12c3
	.uleb128 0x1
	.long	0x128c
	.uleb128 0x1
	.long	0x128c
	.uleb128 0x1
	.long	0x128c
	.uleb128 0x1
	.long	0xa091
	.byte	0
	.uleb128 0x1d
	.long	.LASF123
	.byte	0x2
	.value	0x1e1
	.byte	0x2f
	.long	0xfc1
	.uleb128 0x7
	.long	0x12c3
	.uleb128 0x51
	.long	.LASF157
	.value	0x227
	.long	.LASF158
	.long	0x12e8
	.long	0x12ee
	.uleb128 0x2
	.long	0xa096
	.byte	0
	.uleb128 0x40
	.long	.LASF157
	.byte	0x2
	.value	0x232
	.long	.LASF159
	.long	0x1302
	.long	0x130d
	.uleb128 0x2
	.long	0xa096
	.uleb128 0x1
	.long	0xa0a0
	.byte	0
	.uleb128 0x14
	.long	.LASF99
	.byte	0x2
	.value	0x1f1
	.byte	0x1a
	.long	0xcb0
	.uleb128 0x7
	.long	0x130d
	.uleb128 0x40
	.long	.LASF157
	.byte	0x2
	.value	0x240
	.long	.LASF160
	.long	0x1333
	.long	0x1343
	.uleb128 0x2
	.long	0xa096
	.uleb128 0x1
	.long	0x1343
	.uleb128 0x1
	.long	0xa0a0
	.byte	0
	.uleb128 0x14
	.long	.LASF82
	.byte	0x2
	.value	0x1ef
	.byte	0x1a
	.long	0x2c3
	.uleb128 0x7
	.long	0x1343
	.uleb128 0x10
	.long	.LASF157
	.byte	0x2
	.value	0x24d
	.byte	0x7
	.long	.LASF161
	.byte	0x1
	.long	0x136b
	.long	0x1380
	.uleb128 0x2
	.long	0xa096
	.uleb128 0x1
	.long	0x1343
	.uleb128 0x1
	.long	0xa0a5
	.uleb128 0x1
	.long	0xa0a0
	.byte	0
	.uleb128 0x14
	.long	.LASF7
	.byte	0x2
	.value	0x1e5
	.byte	0x17
	.long	0x37
	.uleb128 0x7
	.long	0x1380
	.uleb128 0x10
	.long	.LASF157
	.byte	0x2
	.value	0x26d
	.byte	0x7
	.long	.LASF162
	.byte	0x1
	.long	0x13a8
	.long	0x13b3
	.uleb128 0x2
	.long	0xa096
	.uleb128 0x1
	.long	0xa0aa
	.byte	0
	.uleb128 0x51
	.long	.LASF157
	.value	0x280
	.long	.LASF163
	.long	0x13c6
	.long	0x13d1
	.uleb128 0x2
	.long	0xa096
	.uleb128 0x1
	.long	0xa0af
	.byte	0
	.uleb128 0x10
	.long	.LASF157
	.byte	0x2
	.value	0x284
	.byte	0x7
	.long	.LASF164
	.byte	0x1
	.long	0x13e7
	.long	0x13f7
	.uleb128 0x2
	.long	0xa096
	.uleb128 0x1
	.long	0xa0aa
	.uleb128 0x1
	.long	0xa0b4
	.byte	0
	.uleb128 0x1c
	.long	.LASF157
	.value	0x28f
	.long	.LASF165
	.long	0x140a
	.long	0x141f
	.uleb128 0x2
	.long	0xa096
	.uleb128 0x1
	.long	0xa0af
	.uleb128 0x1
	.long	0xa0a0
	.uleb128 0x1
	.long	0x643
	.byte	0
	.uleb128 0x1c
	.long	.LASF157
	.value	0x294
	.long	.LASF166
	.long	0x1432
	.long	0x1447
	.uleb128 0x2
	.long	0xa096
	.uleb128 0x1
	.long	0xa0af
	.uleb128 0x1
	.long	0xa0a0
	.uleb128 0x1
	.long	0x3b3
	.byte	0
	.uleb128 0x10
	.long	.LASF157
	.byte	0x2
	.value	0x2a7
	.byte	0x7
	.long	.LASF167
	.byte	0x1
	.long	0x145d
	.long	0x146d
	.uleb128 0x2
	.long	0xa096
	.uleb128 0x1
	.long	0xa0af
	.uleb128 0x1
	.long	0xa0b4
	.byte	0
	.uleb128 0x10
	.long	.LASF157
	.byte	0x2
	.value	0x2ba
	.byte	0x7
	.long	.LASF168
	.byte	0x1
	.long	0x1483
	.long	0x1493
	.uleb128 0x2
	.long	0xa096
	.uleb128 0x1
	.long	0x1def
	.uleb128 0x1
	.long	0xa0a0
	.byte	0
	.uleb128 0x10
	.long	.LASF169
	.byte	0x2
	.value	0x316
	.byte	0x7
	.long	.LASF170
	.byte	0x1
	.long	0x14a9
	.long	0x14af
	.uleb128 0x2
	.long	0xa096
	.byte	0
	.uleb128 0x21
	.long	.LASF36
	.byte	0x7
	.byte	0xd6
	.byte	0x5
	.long	.LASF171
	.long	0xa0b9
	.byte	0x1
	.long	0x14c8
	.long	0x14d3
	.uleb128 0x2
	.long	0xa096
	.uleb128 0x1
	.long	0xa0aa
	.byte	0
	.uleb128 0x6
	.long	.LASF36
	.byte	0x2
	.value	0x337
	.byte	0x7
	.long	.LASF172
	.long	0xa0b9
	.byte	0x1
	.long	0x14ed
	.long	0x14f8
	.uleb128 0x2
	.long	0xa096
	.uleb128 0x1
	.long	0xa0af
	.byte	0
	.uleb128 0x6
	.long	.LASF36
	.byte	0x2
	.value	0x34d
	.byte	0x7
	.long	.LASF173
	.long	0xa0b9
	.byte	0x1
	.long	0x1512
	.long	0x151d
	.uleb128 0x2
	.long	0xa096
	.uleb128 0x1
	.long	0x1def
	.byte	0
	.uleb128 0x10
	.long	.LASF174
	.byte	0x2
	.value	0x361
	.byte	0x7
	.long	.LASF175
	.byte	0x1
	.long	0x1533
	.long	0x1543
	.uleb128 0x2
	.long	0xa096
	.uleb128 0x1
	.long	0x1343
	.uleb128 0x1
	.long	0xa0a5
	.byte	0
	.uleb128 0x10
	.long	.LASF174
	.byte	0x2
	.value	0x390
	.byte	0x7
	.long	.LASF176
	.byte	0x1
	.long	0x1559
	.long	0x1564
	.uleb128 0x2
	.long	0xa096
	.uleb128 0x1
	.long	0x1def
	.byte	0
	.uleb128 0x14
	.long	.LASF177
	.byte	0x2
	.value	0x1ea
	.byte	0x3d
	.long	0x8295
	.uleb128 0x6
	.long	.LASF178
	.byte	0x2
	.value	0x3dc
	.byte	0x7
	.long	.LASF179
	.long	0x1564
	.byte	0x1
	.long	0x158b
	.long	0x1591
	.uleb128 0x2
	.long	0xa096
	.byte	0
	.uleb128 0x14
	.long	.LASF180
	.byte	0x2
	.value	0x1ec
	.byte	0x7
	.long	0x84c8
	.uleb128 0x6
	.long	.LASF178
	.byte	0x2
	.value	0x3e6
	.byte	0x7
	.long	.LASF181
	.long	0x1591
	.byte	0x1
	.long	0x15b8
	.long	0x15be
	.uleb128 0x2
	.long	0xa0be
	.byte	0
	.uleb128 0x39
	.string	"end"
	.value	0x3f0
	.long	.LASF182
	.long	0x1564
	.long	0x15d5
	.long	0x15db
	.uleb128 0x2
	.long	0xa096
	.byte	0
	.uleb128 0x39
	.string	"end"
	.value	0x3fa
	.long	.LASF183
	.long	0x1591
	.long	0x15f2
	.long	0x15f8
	.uleb128 0x2
	.long	0xa0be
	.byte	0
	.uleb128 0x14
	.long	.LASF184
	.byte	0x2
	.value	0x1ee
	.byte	0x30
	.long	0x1df4
	.uleb128 0x6
	.long	.LASF185
	.byte	0x2
	.value	0x404
	.byte	0x7
	.long	.LASF186
	.long	0x15f8
	.byte	0x1
	.long	0x161f
	.long	0x1625
	.uleb128 0x2
	.long	0xa096
	.byte	0
	.uleb128 0x14
	.long	.LASF187
	.byte	0x2
	.value	0x1ed
	.byte	0x35
	.long	0x1df9
	.uleb128 0x6
	.long	.LASF185
	.byte	0x2
	.value	0x40e
	.byte	0x7
	.long	.LASF188
	.long	0x1625
	.byte	0x1
	.long	0x164c
	.long	0x1652
	.uleb128 0x2
	.long	0xa0be
	.byte	0
	.uleb128 0x6
	.long	.LASF189
	.byte	0x2
	.value	0x418
	.byte	0x7
	.long	.LASF190
	.long	0x15f8
	.byte	0x1
	.long	0x166c
	.long	0x1672
	.uleb128 0x2
	.long	0xa096
	.byte	0
	.uleb128 0x6
	.long	.LASF189
	.byte	0x2
	.value	0x422
	.byte	0x7
	.long	.LASF191
	.long	0x1625
	.byte	0x1
	.long	0x168c
	.long	0x1692
	.uleb128 0x2
	.long	0xa0be
	.byte	0
	.uleb128 0x6
	.long	.LASF192
	.byte	0x2
	.value	0x42d
	.byte	0x7
	.long	.LASF193
	.long	0x1591
	.byte	0x1
	.long	0x16ac
	.long	0x16b2
	.uleb128 0x2
	.long	0xa0be
	.byte	0
	.uleb128 0x6
	.long	.LASF194
	.byte	0x2
	.value	0x437
	.byte	0x7
	.long	.LASF195
	.long	0x1591
	.byte	0x1
	.long	0x16cc
	.long	0x16d2
	.uleb128 0x2
	.long	0xa0be
	.byte	0
	.uleb128 0x6
	.long	.LASF196
	.byte	0x2
	.value	0x441
	.byte	0x7
	.long	.LASF197
	.long	0x1625
	.byte	0x1
	.long	0x16ec
	.long	0x16f2
	.uleb128 0x2
	.long	0xa0be
	.byte	0
	.uleb128 0x6
	.long	.LASF198
	.byte	0x2
	.value	0x44b
	.byte	0x7
	.long	.LASF199
	.long	0x1625
	.byte	0x1
	.long	0x170c
	.long	0x1712
	.uleb128 0x2
	.long	0xa0be
	.byte	0
	.uleb128 0x6
	.long	.LASF200
	.byte	0x2
	.value	0x453
	.byte	0x7
	.long	.LASF201
	.long	0x1343
	.byte	0x1
	.long	0x172c
	.long	0x1732
	.uleb128 0x2
	.long	0xa0be
	.byte	0
	.uleb128 0x6
	.long	.LASF85
	.byte	0x2
	.value	0x45e
	.byte	0x7
	.long	.LASF202
	.long	0x1343
	.byte	0x1
	.long	0x174c
	.long	0x1752
	.uleb128 0x2
	.long	0xa0be
	.byte	0
	.uleb128 0x10
	.long	.LASF203
	.byte	0x2
	.value	0x46d
	.byte	0x7
	.long	.LASF204
	.byte	0x1
	.long	0x1768
	.long	0x1773
	.uleb128 0x2
	.long	0xa096
	.uleb128 0x1
	.long	0x1343
	.byte	0
	.uleb128 0x10
	.long	.LASF203
	.byte	0x2
	.value	0x482
	.byte	0x7
	.long	.LASF205
	.byte	0x1
	.long	0x1789
	.long	0x1799
	.uleb128 0x2
	.long	0xa096
	.uleb128 0x1
	.long	0x1343
	.uleb128 0x1
	.long	0xa0a5
	.byte	0
	.uleb128 0x10
	.long	.LASF206
	.byte	0x2
	.value	0x4a4
	.byte	0x7
	.long	.LASF207
	.byte	0x1
	.long	0x17af
	.long	0x17b5
	.uleb128 0x2
	.long	0xa096
	.byte	0
	.uleb128 0x6
	.long	.LASF208
	.byte	0x2
	.value	0x4ae
	.byte	0x7
	.long	.LASF209
	.long	0x1343
	.byte	0x1
	.long	0x17cf
	.long	0x17d5
	.uleb128 0x2
	.long	0xa0be
	.byte	0
	.uleb128 0x6
	.long	.LASF210
	.byte	0x2
	.value	0x4bd
	.byte	0x7
	.long	.LASF211
	.long	0x92c6
	.byte	0x1
	.long	0x17ef
	.long	0x17f5
	.uleb128 0x2
	.long	0xa0be
	.byte	0
	.uleb128 0x23
	.long	.LASF212
	.byte	0x7
	.byte	0x46
	.byte	0x5
	.long	.LASF213
	.byte	0x1
	.long	0x180a
	.long	0x1815
	.uleb128 0x2
	.long	0xa096
	.uleb128 0x1
	.long	0x1343
	.byte	0
	.uleb128 0x14
	.long	.LASF76
	.byte	0x2
	.value	0x1e8
	.byte	0x32
	.long	0x8250
	.uleb128 0x6
	.long	.LASF214
	.byte	0x2
	.value	0x4e3
	.byte	0x7
	.long	.LASF215
	.long	0x1815
	.byte	0x1
	.long	0x183c
	.long	0x1847
	.uleb128 0x2
	.long	0xa096
	.uleb128 0x1
	.long	0x1343
	.byte	0
	.uleb128 0x14
	.long	.LASF79
	.byte	0x2
	.value	0x1e9
	.byte	0x37
	.long	0x825c
	.uleb128 0x6
	.long	.LASF214
	.byte	0x2
	.value	0x4f6
	.byte	0x7
	.long	.LASF216
	.long	0x1847
	.byte	0x1
	.long	0x186e
	.long	0x1879
	.uleb128 0x2
	.long	0xa0be
	.uleb128 0x1
	.long	0x1343
	.byte	0
	.uleb128 0x10
	.long	.LASF217
	.byte	0x2
	.value	0x500
	.byte	0x7
	.long	.LASF218
	.byte	0x2
	.long	0x188f
	.long	0x189a
	.uleb128 0x2
	.long	0xa0be
	.uleb128 0x1
	.long	0x1343
	.byte	0
	.uleb128 0x39
	.string	"at"
	.value	0x517
	.long	.LASF219
	.long	0x1815
	.long	0x18b0
	.long	0x18bb
	.uleb128 0x2
	.long	0xa096
	.uleb128 0x1
	.long	0x1343
	.byte	0
	.uleb128 0x39
	.string	"at"
	.value	0x52a
	.long	.LASF220
	.long	0x1847
	.long	0x18d1
	.long	0x18dc
	.uleb128 0x2
	.long	0xa0be
	.uleb128 0x1
	.long	0x1343
	.byte	0
	.uleb128 0x6
	.long	.LASF221
	.byte	0x2
	.value	0x536
	.byte	0x7
	.long	.LASF222
	.long	0x1815
	.byte	0x1
	.long	0x18f6
	.long	0x18fc
	.uleb128 0x2
	.long	0xa096
	.byte	0
	.uleb128 0x6
	.long	.LASF221
	.byte	0x2
	.value	0x542
	.byte	0x7
	.long	.LASF223
	.long	0x1847
	.byte	0x1
	.long	0x1916
	.long	0x191c
	.uleb128 0x2
	.long	0xa0be
	.byte	0
	.uleb128 0x6
	.long	.LASF224
	.byte	0x2
	.value	0x54e
	.byte	0x7
	.long	.LASF225
	.long	0x1815
	.byte	0x1
	.long	0x1936
	.long	0x193c
	.uleb128 0x2
	.long	0xa096
	.byte	0
	.uleb128 0x6
	.long	.LASF224
	.byte	0x2
	.value	0x55a
	.byte	0x7
	.long	.LASF226
	.long	0x1847
	.byte	0x1
	.long	0x1956
	.long	0x195c
	.uleb128 0x2
	.long	0xa0be
	.byte	0
	.uleb128 0x6
	.long	.LASF227
	.byte	0x2
	.value	0x569
	.byte	0x7
	.long	.LASF228
	.long	0x9ff6
	.byte	0x1
	.long	0x1976
	.long	0x197c
	.uleb128 0x2
	.long	0xa096
	.byte	0
	.uleb128 0x6
	.long	.LASF227
	.byte	0x2
	.value	0x56e
	.byte	0x7
	.long	.LASF229
	.long	0xa00f
	.byte	0x1
	.long	0x1996
	.long	0x199c
	.uleb128 0x2
	.long	0xa0be
	.byte	0
	.uleb128 0x10
	.long	.LASF230
	.byte	0x2
	.value	0x57e
	.byte	0x7
	.long	.LASF231
	.byte	0x1
	.long	0x19b2
	.long	0x19bd
	.uleb128 0x2
	.long	0xa096
	.uleb128 0x1
	.long	0xa0a5
	.byte	0
	.uleb128 0x10
	.long	.LASF230
	.byte	0x2
	.value	0x58f
	.byte	0x7
	.long	.LASF232
	.byte	0x1
	.long	0x19d3
	.long	0x19de
	.uleb128 0x2
	.long	0xa096
	.uleb128 0x1
	.long	0xa0c8
	.byte	0
	.uleb128 0x10
	.long	.LASF233
	.byte	0x2
	.value	0x5a7
	.byte	0x7
	.long	.LASF234
	.byte	0x1
	.long	0x19f4
	.long	0x19fa
	.uleb128 0x2
	.long	0xa096
	.byte	0
	.uleb128 0x21
	.long	.LASF235
	.byte	0x7
	.byte	0x89
	.byte	0x5
	.long	.LASF236
	.long	0x1564
	.byte	0x1
	.long	0x1a13
	.long	0x1a23
	.uleb128 0x2
	.long	0xa096
	.uleb128 0x1
	.long	0x1591
	.uleb128 0x1
	.long	0xa0a5
	.byte	0
	.uleb128 0x6
	.long	.LASF235
	.byte	0x2
	.value	0x5ee
	.byte	0x7
	.long	.LASF237
	.long	0x1564
	.byte	0x1
	.long	0x1a3d
	.long	0x1a4d
	.uleb128 0x2
	.long	0xa096
	.uleb128 0x1
	.long	0x1591
	.uleb128 0x1
	.long	0xa0c8
	.byte	0
	.uleb128 0x6
	.long	.LASF235
	.byte	0x2
	.value	0x600
	.byte	0x7
	.long	.LASF238
	.long	0x1564
	.byte	0x1
	.long	0x1a67
	.long	0x1a77
	.uleb128 0x2
	.long	0xa096
	.uleb128 0x1
	.long	0x1591
	.uleb128 0x1
	.long	0x1def
	.byte	0
	.uleb128 0x6
	.long	.LASF235
	.byte	0x2
	.value	0x61a
	.byte	0x7
	.long	.LASF239
	.long	0x1564
	.byte	0x1
	.long	0x1a91
	.long	0x1aa6
	.uleb128 0x2
	.long	0xa096
	.uleb128 0x1
	.long	0x1591
	.uleb128 0x1
	.long	0x1343
	.uleb128 0x1
	.long	0xa0a5
	.byte	0
	.uleb128 0x6
	.long	.LASF240
	.byte	0x2
	.value	0x6f6
	.byte	0x7
	.long	.LASF241
	.long	0x1564
	.byte	0x1
	.long	0x1ac0
	.long	0x1acb
	.uleb128 0x2
	.long	0xa096
	.uleb128 0x1
	.long	0x1591
	.byte	0
	.uleb128 0x6
	.long	.LASF240
	.byte	0x2
	.value	0x712
	.byte	0x7
	.long	.LASF242
	.long	0x1564
	.byte	0x1
	.long	0x1ae5
	.long	0x1af5
	.uleb128 0x2
	.long	0xa096
	.uleb128 0x1
	.long	0x1591
	.uleb128 0x1
	.long	0x1591
	.byte	0
	.uleb128 0x10
	.long	.LASF41
	.byte	0x2
	.value	0x72a
	.byte	0x7
	.long	.LASF243
	.byte	0x1
	.long	0x1b0b
	.long	0x1b16
	.uleb128 0x2
	.long	0xa096
	.uleb128 0x1
	.long	0xa0b9
	.byte	0
	.uleb128 0x10
	.long	.LASF244
	.byte	0x2
	.value	0x73d
	.byte	0x7
	.long	.LASF245
	.byte	0x1
	.long	0x1b2c
	.long	0x1b32
	.uleb128 0x2
	.long	0xa096
	.byte	0
	.uleb128 0x10
	.long	.LASF246
	.byte	0x2
	.value	0x7c3
	.byte	0x7
	.long	.LASF247
	.byte	0x2
	.long	0x1b48
	.long	0x1b58
	.uleb128 0x2
	.long	0xa096
	.uleb128 0x1
	.long	0x1343
	.uleb128 0x1
	.long	0xa0a5
	.byte	0
	.uleb128 0x10
	.long	.LASF248
	.byte	0x2
	.value	0x7ce
	.byte	0x7
	.long	.LASF249
	.byte	0x2
	.long	0x1b6e
	.long	0x1b79
	.uleb128 0x2
	.long	0xa096
	.uleb128 0x1
	.long	0x1343
	.byte	0
	.uleb128 0x10
	.long	.LASF250
	.byte	0x7
	.value	0x112
	.byte	0x5
	.long	.LASF251
	.byte	0x2
	.long	0x1b8f
	.long	0x1b9f
	.uleb128 0x2
	.long	0xa096
	.uleb128 0x1
	.long	0x2c3
	.uleb128 0x1
	.long	0xa0a5
	.byte	0
	.uleb128 0x10
	.long	.LASF252
	.byte	0x7
	.value	0x296
	.byte	0x5
	.long	.LASF253
	.byte	0x2
	.long	0x1bb5
	.long	0x1bca
	.uleb128 0x2
	.long	0xa096
	.uleb128 0x1
	.long	0x1564
	.uleb128 0x1
	.long	0x1343
	.uleb128 0x1
	.long	0xa0a5
	.byte	0
	.uleb128 0x10
	.long	.LASF254
	.byte	0x7
	.value	0x300
	.byte	0x5
	.long	.LASF255
	.byte	0x2
	.long	0x1be0
	.long	0x1bf0
	.uleb128 0x2
	.long	0xa096
	.uleb128 0x1
	.long	0x1343
	.uleb128 0x1
	.long	0xa0a5
	.byte	0
	.uleb128 0x10
	.long	.LASF256
	.byte	0x7
	.value	0x339
	.byte	0x5
	.long	.LASF257
	.byte	0x2
	.long	0x1c06
	.long	0x1c11
	.uleb128 0x2
	.long	0xa096
	.uleb128 0x1
	.long	0x1343
	.byte	0
	.uleb128 0x6
	.long	.LASF258
	.byte	0x7
	.value	0x396
	.byte	0x5
	.long	.LASF259
	.long	0x92c6
	.byte	0x2
	.long	0x1c2b
	.long	0x1c31
	.uleb128 0x2
	.long	0xa096
	.byte	0
	.uleb128 0x6
	.long	.LASF260
	.byte	0x7
	.value	0x16f
	.byte	0x5
	.long	.LASF261
	.long	0x1564
	.byte	0x2
	.long	0x1c4b
	.long	0x1c5b
	.uleb128 0x2
	.long	0xa096
	.uleb128 0x1
	.long	0x1591
	.uleb128 0x1
	.long	0xa0c8
	.byte	0
	.uleb128 0x6
	.long	.LASF262
	.byte	0x2
	.value	0x889
	.byte	0x7
	.long	.LASF263
	.long	0x1564
	.byte	0x2
	.long	0x1c75
	.long	0x1c85
	.uleb128 0x2
	.long	0xa096
	.uleb128 0x1
	.long	0x1591
	.uleb128 0x1
	.long	0xa0c8
	.byte	0
	.uleb128 0x6
	.long	.LASF264
	.byte	0x2
	.value	0x890
	.byte	0x7
	.long	.LASF265
	.long	0x1343
	.byte	0x2
	.long	0x1c9f
	.long	0x1caf
	.uleb128 0x2
	.long	0xa0be
	.uleb128 0x1
	.long	0x1343
	.uleb128 0x1
	.long	0x7892
	.byte	0
	.uleb128 0x52
	.long	.LASF266
	.value	0x89b
	.long	.LASF267
	.long	0x1343
	.long	0x1ccd
	.uleb128 0x1
	.long	0x1343
	.uleb128 0x1
	.long	0xa0a0
	.byte	0
	.uleb128 0x52
	.long	.LASF268
	.value	0x8a4
	.long	.LASF269
	.long	0x1343
	.long	0x1ce6
	.uleb128 0x1
	.long	0xa0cd
	.byte	0
	.uleb128 0x10
	.long	.LASF270
	.byte	0x2
	.value	0x8b5
	.byte	0x7
	.long	.LASF271
	.byte	0x2
	.long	0x1cfc
	.long	0x1d07
	.uleb128 0x2
	.long	0xa096
	.uleb128 0x1
	.long	0x128c
	.byte	0
	.uleb128 0x21
	.long	.LASF272
	.byte	0x7
	.byte	0xb9
	.byte	0x5
	.long	.LASF273
	.long	0x1564
	.byte	0x2
	.long	0x1d20
	.long	0x1d2b
	.uleb128 0x2
	.long	0xa096
	.uleb128 0x1
	.long	0x1564
	.byte	0
	.uleb128 0x21
	.long	.LASF272
	.byte	0x7
	.byte	0xc7
	.byte	0x5
	.long	.LASF274
	.long	0x1564
	.byte	0x2
	.long	0x1d44
	.long	0x1d54
	.uleb128 0x2
	.long	0xa096
	.uleb128 0x1
	.long	0x1564
	.uleb128 0x1
	.long	0x1564
	.byte	0
	.uleb128 0x1c
	.long	.LASF275
	.value	0x8cf
	.long	.LASF276
	.long	0x1d67
	.long	0x1d77
	.uleb128 0x2
	.long	0xa096
	.uleb128 0x1
	.long	0xa0af
	.uleb128 0x1
	.long	0x643
	.byte	0
	.uleb128 0x1c
	.long	.LASF275
	.value	0x8db
	.long	.LASF277
	.long	0x1d8a
	.long	0x1d9a
	.uleb128 0x2
	.long	0xa096
	.uleb128 0x1
	.long	0xa0af
	.uleb128 0x1
	.long	0x3b3
	.byte	0
	.uleb128 0x36
	.long	.LASF278
	.value	0x8ee
	.byte	0x2
	.long	.LASF279
	.long	0x9ff6
	.long	0x1dbb
	.long	0x1dc6
	.uleb128 0xf
	.string	"_Up"
	.long	0x37
	.uleb128 0x2
	.long	0xa0be
	.uleb128 0x1
	.long	0x9ff6
	.byte	0
	.uleb128 0xf
	.string	"_Tp"
	.long	0x37
	.uleb128 0x64
	.long	.LASF147
	.long	0xcb0
	.byte	0
	.uleb128 0x7
	.long	0x1200
	.uleb128 0x8
	.long	.LASF280
	.byte	0x13
	.byte	0xad
	.byte	0xb
	.long	0x11ea
	.uleb128 0x7
	.long	0x1dde
	.uleb128 0x33
	.long	.LASF282
	.uleb128 0x33
	.long	.LASF283
	.uleb128 0x33
	.long	.LASF284
	.uleb128 0x19
	.byte	0x9
	.value	0x82c
	.byte	0xb
	.long	0xa20d
	.uleb128 0x19
	.byte	0x9
	.value	0x82d
	.byte	0xb
	.long	0xa201
	.uleb128 0x4a
	.string	"abs"
	.byte	0x23
	.byte	0x96
	.long	.LASF285
	.long	0x9e6f
	.long	0x1e29
	.uleb128 0x1
	.long	0x9e6f
	.byte	0
	.uleb128 0x4a
	.string	"abs"
	.byte	0x23
	.byte	0x6e
	.long	.LASF286
	.long	0x92f6
	.long	0x1e42
	.uleb128 0x1
	.long	0x92f6
	.byte	0
	.uleb128 0x4a
	.string	"abs"
	.byte	0x23
	.byte	0x55
	.long	.LASF287
	.long	0x9223
	.long	0x1e5b
	.uleb128 0x1
	.long	0x9223
	.byte	0
	.uleb128 0x4a
	.string	"abs"
	.byte	0x23
	.byte	0x51
	.long	.LASF288
	.long	0x30
	.long	0x1e74
	.uleb128 0x1
	.long	0x30
	.byte	0
	.uleb128 0x4a
	.string	"abs"
	.byte	0x23
	.byte	0x4d
	.long	.LASF289
	.long	0x7dfc
	.long	0x1e8d
	.uleb128 0x1
	.long	0x7dfc
	.byte	0
	.uleb128 0x4a
	.string	"abs"
	.byte	0x23
	.byte	0x43
	.long	.LASF290
	.long	0x924f
	.long	0x1ea6
	.uleb128 0x1
	.long	0x924f
	.byte	0
	.uleb128 0x4a
	.string	"abs"
	.byte	0x23
	.byte	0x3e
	.long	.LASF291
	.long	0x7e6e
	.long	0x1ebf
	.uleb128 0x1
	.long	0x7e6e
	.byte	0
	.uleb128 0x4a
	.string	"div"
	.byte	0x18
	.byte	0xbb
	.long	.LASF292
	.long	0x9633
	.long	0x1edd
	.uleb128 0x1
	.long	0x7e6e
	.uleb128 0x1
	.long	0x7e6e
	.byte	0
	.uleb128 0x3f
	.long	.LASF293
	.byte	0x1
	.byte	0x6
	.byte	0x3f
	.long	0x207b
	.uleb128 0x23
	.long	.LASF65
	.byte	0x6
	.byte	0x58
	.byte	0x7
	.long	.LASF294
	.byte	0x1
	.long	0x1efe
	.long	0x1f04
	.uleb128 0x2
	.long	0xa4df
	.byte	0
	.uleb128 0x23
	.long	.LASF65
	.byte	0x6
	.byte	0x5c
	.byte	0x7
	.long	.LASF295
	.byte	0x1
	.long	0x1f19
	.long	0x1f24
	.uleb128 0x2
	.long	0xa4df
	.uleb128 0x1
	.long	0xa4e4
	.byte	0
	.uleb128 0x4e
	.long	.LASF36
	.byte	0x6
	.byte	0x64
	.byte	0x18
	.long	.LASF296
	.long	0xa4e9
	.long	0x1f3c
	.long	0x1f47
	.uleb128 0x2
	.long	0xa4df
	.uleb128 0x1
	.long	0xa4e4
	.byte	0
	.uleb128 0x23
	.long	.LASF71
	.byte	0x6
	.byte	0x68
	.byte	0x7
	.long	.LASF297
	.byte	0x1
	.long	0x1f5c
	.long	0x1f62
	.uleb128 0x2
	.long	0xa4df
	.byte	0
	.uleb128 0x27
	.long	.LASF75
	.byte	0x6
	.byte	0x46
	.byte	0x1a
	.long	0xa4ee
	.uleb128 0x21
	.long	.LASF73
	.byte	0x6
	.byte	0x6b
	.byte	0x7
	.long	.LASF298
	.long	0x1f62
	.byte	0x1
	.long	0x1f87
	.long	0x1f92
	.uleb128 0x2
	.long	0xa4f8
	.uleb128 0x1
	.long	0x1f92
	.byte	0
	.uleb128 0x27
	.long	.LASF76
	.byte	0x6
	.byte	0x48
	.byte	0x1a
	.long	0xa4fd
	.uleb128 0x27
	.long	.LASF77
	.byte	0x6
	.byte	0x47
	.byte	0x1a
	.long	0xa502
	.uleb128 0x21
	.long	.LASF73
	.byte	0x6
	.byte	0x6f
	.byte	0x7
	.long	.LASF299
	.long	0x1f9e
	.byte	0x1
	.long	0x1fc3
	.long	0x1fce
	.uleb128 0x2
	.long	0xa4f8
	.uleb128 0x1
	.long	0x1fce
	.byte	0
	.uleb128 0x27
	.long	.LASF79
	.byte	0x6
	.byte	0x49
	.byte	0x1a
	.long	0xa50c
	.uleb128 0x21
	.long	.LASF80
	.byte	0x6
	.byte	0x81
	.byte	0x7
	.long	.LASF300
	.long	0xa4ee
	.byte	0x1
	.long	0x1ff3
	.long	0x2003
	.uleb128 0x2
	.long	0xa4df
	.uleb128 0x1
	.long	0x2003
	.uleb128 0x1
	.long	0x9315
	.byte	0
	.uleb128 0x27
	.long	.LASF82
	.byte	0x6
	.byte	0x43
	.byte	0x1f
	.long	0x2c3
	.uleb128 0x23
	.long	.LASF83
	.byte	0x6
	.byte	0xa7
	.byte	0x7
	.long	.LASF301
	.byte	0x1
	.long	0x2024
	.long	0x2034
	.uleb128 0x2
	.long	0xa4df
	.uleb128 0x1
	.long	0xa4ee
	.uleb128 0x1
	.long	0x2003
	.byte	0
	.uleb128 0x21
	.long	.LASF85
	.byte	0x6
	.byte	0xc2
	.byte	0x7
	.long	.LASF302
	.long	0x2003
	.byte	0x1
	.long	0x204d
	.long	0x2053
	.uleb128 0x2
	.long	0xa4f8
	.byte	0
	.uleb128 0x45
	.long	.LASF87
	.byte	0x6
	.byte	0xf2
	.byte	0x7
	.long	.LASF303
	.long	0x2003
	.long	0x206b
	.long	0x2071
	.uleb128 0x2
	.long	0xa4f8
	.byte	0
	.uleb128 0xf
	.string	"_Tp"
	.long	0xa1cb
	.byte	0
	.uleb128 0x7
	.long	0x1edd
	.uleb128 0x3f
	.long	.LASF304
	.byte	0x1
	.byte	0x5
	.byte	0x85
	.long	0x2104
	.uleb128 0x47
	.long	0x1edd
	.byte	0x1
	.uleb128 0x23
	.long	.LASF90
	.byte	0x5
	.byte	0xa8
	.byte	0x7
	.long	.LASF305
	.byte	0x1
	.long	0x20a7
	.long	0x20ad
	.uleb128 0x2
	.long	0xa511
	.byte	0
	.uleb128 0x23
	.long	.LASF90
	.byte	0x5
	.byte	0xac
	.byte	0x7
	.long	.LASF306
	.byte	0x1
	.long	0x20c2
	.long	0x20cd
	.uleb128 0x2
	.long	0xa511
	.uleb128 0x1
	.long	0xa516
	.byte	0
	.uleb128 0x4e
	.long	.LASF36
	.byte	0x5
	.byte	0xb1
	.byte	0x12
	.long	.LASF307
	.long	0xa51b
	.long	0x20e5
	.long	0x20f0
	.uleb128 0x2
	.long	0xa511
	.uleb128 0x1
	.long	0xa516
	.byte	0
	.uleb128 0x6d
	.long	.LASF94
	.long	.LASF308
	.long	0x20fd
	.uleb128 0x2
	.long	0xa511
	.byte	0
	.byte	0
	.uleb128 0x7
	.long	0x2080
	.uleb128 0x59
	.long	.LASF309
	.byte	0x1
	.byte	0x8
	.value	0x248
	.byte	0xc
	.long	0x2207
	.uleb128 0x1d
	.long	.LASF75
	.byte	0x8
	.value	0x251
	.byte	0xd
	.long	0xa4ee
	.uleb128 0x16
	.long	.LASF80
	.byte	0x8
	.value	0x27d
	.byte	0x7
	.long	.LASF310
	.long	0x2117
	.long	0x2144
	.uleb128 0x1
	.long	0xa520
	.uleb128 0x1
	.long	0x2156
	.byte	0
	.uleb128 0x1d
	.long	.LASF99
	.byte	0x8
	.value	0x24b
	.byte	0xd
	.long	0x2080
	.uleb128 0x7
	.long	0x2144
	.uleb128 0x1d
	.long	.LASF82
	.byte	0x8
	.value	0x260
	.byte	0xd
	.long	0x2c3
	.uleb128 0x16
	.long	.LASF80
	.byte	0x8
	.value	0x28c
	.byte	0x7
	.long	.LASF311
	.long	0x2117
	.long	0x2188
	.uleb128 0x1
	.long	0xa520
	.uleb128 0x1
	.long	0x2156
	.uleb128 0x1
	.long	0x2188
	.byte	0
	.uleb128 0x1d
	.long	.LASF101
	.byte	0x8
	.value	0x25a
	.byte	0xd
	.long	0x9315
	.uleb128 0x37
	.long	.LASF83
	.byte	0x8
	.value	0x2b0
	.byte	0x7
	.long	.LASF313
	.long	0x21b6
	.uleb128 0x1
	.long	0xa520
	.uleb128 0x1
	.long	0x2117
	.uleb128 0x1
	.long	0x2156
	.byte	0
	.uleb128 0x16
	.long	.LASF85
	.byte	0x8
	.value	0x2ed
	.byte	0x7
	.long	.LASF314
	.long	0x2156
	.long	0x21d1
	.uleb128 0x1
	.long	0xa525
	.byte	0
	.uleb128 0x16
	.long	.LASF103
	.byte	0x8
	.value	0x2fd
	.byte	0x7
	.long	.LASF315
	.long	0x2144
	.long	0x21ec
	.uleb128 0x1
	.long	0xa525
	.byte	0
	.uleb128 0x1d
	.long	.LASF7
	.byte	0x8
	.value	0x24e
	.byte	0xd
	.long	0xa1cb
	.uleb128 0x1d
	.long	.LASF105
	.byte	0x8
	.value	0x26f
	.byte	0x8
	.long	0x2080
	.byte	0
	.uleb128 0x1a
	.long	.LASF316
	.byte	0x18
	.byte	0x2
	.byte	0x5b
	.byte	0xc
	.long	0x258f
	.uleb128 0x1a
	.long	.LASF107
	.byte	0x18
	.byte	0x2
	.byte	0x62
	.byte	0xe
	.long	0x22ba
	.uleb128 0x11
	.long	.LASF109
	.byte	0x2
	.byte	0x64
	.byte	0xa
	.long	0x22bf
	.byte	0
	.uleb128 0x11
	.long	.LASF110
	.byte	0x2
	.byte	0x65
	.byte	0xa
	.long	0x22bf
	.byte	0x8
	.uleb128 0x11
	.long	.LASF111
	.byte	0x2
	.byte	0x66
	.byte	0xa
	.long	0x22bf
	.byte	0x10
	.uleb128 0x22
	.long	.LASF107
	.byte	0x2
	.byte	0x69
	.byte	0x2
	.long	.LASF317
	.long	0x225c
	.long	0x2262
	.uleb128 0x2
	.long	0xa534
	.byte	0
	.uleb128 0x22
	.long	.LASF107
	.byte	0x2
	.byte	0x6f
	.byte	0x2
	.long	.LASF318
	.long	0x2276
	.long	0x2281
	.uleb128 0x2
	.long	0xa534
	.uleb128 0x1
	.long	0xa539
	.byte	0
	.uleb128 0x22
	.long	.LASF114
	.byte	0x2
	.byte	0x77
	.byte	0x2
	.long	.LASF319
	.long	0x2295
	.long	0x22a0
	.uleb128 0x2
	.long	0xa534
	.uleb128 0x1
	.long	0xa53e
	.byte	0
	.uleb128 0x63
	.long	.LASF116
	.byte	0x80
	.long	.LASF321
	.long	0x22ae
	.uleb128 0x2
	.long	0xa534
	.uleb128 0x1
	.long	0xa543
	.byte	0
	.byte	0
	.uleb128 0x7
	.long	0x2214
	.uleb128 0x8
	.long	.LASF75
	.byte	0x2
	.byte	0x60
	.byte	0x9
	.long	0x858b
	.uleb128 0x1a
	.long	.LASF117
	.byte	0x18
	.byte	0x2
	.byte	0x8b
	.byte	0xe
	.long	0x2378
	.uleb128 0x35
	.long	0x2080
	.uleb128 0x35
	.long	0x2214
	.uleb128 0x22
	.long	.LASF117
	.byte	0x2
	.byte	0x8f
	.byte	0x2
	.long	.LASF322
	.long	0x22f6
	.long	0x22fc
	.uleb128 0x2
	.long	0xa548
	.byte	0
	.uleb128 0x22
	.long	.LASF117
	.byte	0x2
	.byte	0x98
	.byte	0x2
	.long	.LASF323
	.long	0x2310
	.long	0x231b
	.uleb128 0x2
	.long	0xa548
	.uleb128 0x1
	.long	0xa54d
	.byte	0
	.uleb128 0x22
	.long	.LASF117
	.byte	0x2
	.byte	0xa0
	.byte	0x2
	.long	.LASF324
	.long	0x232f
	.long	0x233a
	.uleb128 0x2
	.long	0xa548
	.uleb128 0x1
	.long	0xa552
	.byte	0
	.uleb128 0x22
	.long	.LASF117
	.byte	0x2
	.byte	0xa5
	.byte	0x2
	.long	.LASF325
	.long	0x234e
	.long	0x2359
	.uleb128 0x2
	.long	0xa548
	.uleb128 0x1
	.long	0xa557
	.byte	0
	.uleb128 0x63
	.long	.LASF117
	.byte	0xaa
	.long	.LASF326
	.long	0x2367
	.uleb128 0x2
	.long	0xa548
	.uleb128 0x1
	.long	0xa557
	.uleb128 0x1
	.long	0xa552
	.byte	0
	.byte	0
	.uleb128 0x8
	.long	.LASF123
	.byte	0x2
	.byte	0x5e
	.byte	0x15
	.long	0x85bc
	.uleb128 0x7
	.long	0x2378
	.uleb128 0x36
	.long	.LASF124
	.value	0x133
	.byte	0x7
	.long	.LASF327
	.long	0xa55c
	.long	0x23a1
	.long	0x23a7
	.uleb128 0x2
	.long	0xa561
	.byte	0
	.uleb128 0x36
	.long	.LASF124
	.value	0x138
	.byte	0x7
	.long	.LASF328
	.long	0xa54d
	.long	0x23bf
	.long	0x23c5
	.uleb128 0x2
	.long	0xa566
	.byte	0
	.uleb128 0x1d
	.long	.LASF99
	.byte	0x2
	.value	0x12f
	.byte	0x16
	.long	0x2080
	.uleb128 0x7
	.long	0x23c5
	.uleb128 0x36
	.long	.LASF127
	.value	0x13d
	.byte	0x7
	.long	.LASF329
	.long	0x23c5
	.long	0x23ef
	.long	0x23f5
	.uleb128 0x2
	.long	0xa566
	.byte	0
	.uleb128 0x4f
	.long	.LASF129
	.value	0x141
	.long	.LASF330
	.long	0x2408
	.long	0x240e
	.uleb128 0x2
	.long	0xa561
	.byte	0
	.uleb128 0x1c
	.long	.LASF129
	.value	0x147
	.long	.LASF331
	.long	0x2421
	.long	0x242c
	.uleb128 0x2
	.long	0xa561
	.uleb128 0x1
	.long	0xa56b
	.byte	0
	.uleb128 0x1c
	.long	.LASF129
	.value	0x14d
	.long	.LASF332
	.long	0x243f
	.long	0x244a
	.uleb128 0x2
	.long	0xa561
	.uleb128 0x1
	.long	0x2c3
	.byte	0
	.uleb128 0x1c
	.long	.LASF129
	.value	0x153
	.long	.LASF333
	.long	0x245d
	.long	0x246d
	.uleb128 0x2
	.long	0xa561
	.uleb128 0x1
	.long	0x2c3
	.uleb128 0x1
	.long	0xa56b
	.byte	0
	.uleb128 0x4f
	.long	.LASF129
	.value	0x158
	.long	.LASF334
	.long	0x2480
	.long	0x248b
	.uleb128 0x2
	.long	0xa561
	.uleb128 0x1
	.long	0xa570
	.byte	0
	.uleb128 0x1c
	.long	.LASF129
	.value	0x15d
	.long	.LASF335
	.long	0x249e
	.long	0x24a9
	.uleb128 0x2
	.long	0xa561
	.uleb128 0x1
	.long	0xa557
	.byte	0
	.uleb128 0x1c
	.long	.LASF129
	.value	0x161
	.long	.LASF336
	.long	0x24bc
	.long	0x24cc
	.uleb128 0x2
	.long	0xa561
	.uleb128 0x1
	.long	0xa570
	.uleb128 0x1
	.long	0xa56b
	.byte	0
	.uleb128 0x1c
	.long	.LASF129
	.value	0x16f
	.long	.LASF337
	.long	0x24df
	.long	0x24ef
	.uleb128 0x2
	.long	0xa561
	.uleb128 0x1
	.long	0xa56b
	.uleb128 0x1
	.long	0xa570
	.byte	0
	.uleb128 0x1c
	.long	.LASF138
	.value	0x175
	.long	.LASF338
	.long	0x2502
	.long	0x2508
	.uleb128 0x2
	.long	0xa561
	.byte	0
	.uleb128 0x50
	.long	.LASF140
	.value	0x17e
	.byte	0x14
	.long	0x22cb
	.byte	0
	.uleb128 0x36
	.long	.LASF141
	.value	0x182
	.byte	0x7
	.long	.LASF339
	.long	0x22bf
	.long	0x252d
	.long	0x2538
	.uleb128 0x2
	.long	0xa561
	.uleb128 0x1
	.long	0x2c3
	.byte	0
	.uleb128 0x1c
	.long	.LASF143
	.value	0x18a
	.long	.LASF340
	.long	0x254b
	.long	0x255b
	.uleb128 0x2
	.long	0xa561
	.uleb128 0x1
	.long	0x22bf
	.uleb128 0x1
	.long	0x2c3
	.byte	0
	.uleb128 0x10
	.long	.LASF145
	.byte	0x2
	.value	0x195
	.byte	0x7
	.long	.LASF341
	.byte	0x2
	.long	0x2571
	.long	0x257c
	.uleb128 0x2
	.long	0xa561
	.uleb128 0x1
	.long	0x2c3
	.byte	0
	.uleb128 0xf
	.string	"_Tp"
	.long	0xa1cb
	.uleb128 0xa
	.long	.LASF147
	.long	0x2080
	.byte	0
	.uleb128 0x7
	.long	0x2207
	.uleb128 0x1a
	.long	.LASF342
	.byte	0x1
	.byte	0x13
	.byte	0xa9
	.byte	0xc
	.long	0x25b7
	.uleb128 0x8
	.long	.LASF149
	.byte	0x13
	.byte	0xaa
	.byte	0xd
	.long	0x2080
	.uleb128 0xa
	.long	.LASF150
	.long	0x2080
	.byte	0
	.uleb128 0x48
	.long	.LASF343
	.byte	0x18
	.byte	0x2
	.value	0x1cc
	.long	0x315f
	.uleb128 0x19
	.byte	0x2
	.value	0x1cc
	.byte	0xb
	.long	0x2515
	.uleb128 0x19
	.byte	0x2
	.value	0x1cc
	.byte	0xb
	.long	0x2538
	.uleb128 0x19
	.byte	0x2
	.value	0x1cc
	.byte	0xb
	.long	0x2508
	.uleb128 0x19
	.byte	0x2
	.value	0x1cc
	.byte	0xb
	.long	0x23a7
	.uleb128 0x19
	.byte	0x2
	.value	0x1cc
	.byte	0xb
	.long	0x2389
	.uleb128 0x19
	.byte	0x2
	.value	0x1cc
	.byte	0xb
	.long	0x23d7
	.uleb128 0x47
	.long	0x2207
	.byte	0x2
	.uleb128 0x16
	.long	.LASF152
	.byte	0x2
	.value	0x1f6
	.byte	0x7
	.long	.LASF344
	.long	0x92c6
	.long	0x261b
	.uleb128 0x1
	.long	0x643
	.byte	0
	.uleb128 0x16
	.long	.LASF152
	.byte	0x2
	.value	0x1ff
	.byte	0x7
	.long	.LASF345
	.long	0x92c6
	.long	0x2636
	.uleb128 0x1
	.long	0x3b3
	.byte	0
	.uleb128 0x6f
	.long	.LASF346
	.long	.LASF348
	.long	0x92c6
	.uleb128 0x14
	.long	.LASF75
	.byte	0x2
	.value	0x1e6
	.byte	0x29
	.long	0x22bf
	.uleb128 0x16
	.long	.LASF155
	.byte	0x2
	.value	0x20c
	.byte	0x7
	.long	.LASF349
	.long	0x2643
	.long	0x267a
	.uleb128 0x1
	.long	0x2643
	.uleb128 0x1
	.long	0x2643
	.uleb128 0x1
	.long	0x2643
	.uleb128 0x1
	.long	0xa575
	.byte	0
	.uleb128 0x1d
	.long	.LASF123
	.byte	0x2
	.value	0x1e1
	.byte	0x2f
	.long	0x2378
	.uleb128 0x7
	.long	0x267a
	.uleb128 0x51
	.long	.LASF157
	.value	0x227
	.long	.LASF350
	.long	0x269f
	.long	0x26a5
	.uleb128 0x2
	.long	0xa57a
	.byte	0
	.uleb128 0x40
	.long	.LASF157
	.byte	0x2
	.value	0x232
	.long	.LASF351
	.long	0x26b9
	.long	0x26c4
	.uleb128 0x2
	.long	0xa57a
	.uleb128 0x1
	.long	0xa584
	.byte	0
	.uleb128 0x14
	.long	.LASF99
	.byte	0x2
	.value	0x1f1
	.byte	0x1a
	.long	0x2080
	.uleb128 0x7
	.long	0x26c4
	.uleb128 0x40
	.long	.LASF157
	.byte	0x2
	.value	0x240
	.long	.LASF352
	.long	0x26ea
	.long	0x26fa
	.uleb128 0x2
	.long	0xa57a
	.uleb128 0x1
	.long	0x26fa
	.uleb128 0x1
	.long	0xa584
	.byte	0
	.uleb128 0x14
	.long	.LASF82
	.byte	0x2
	.value	0x1ef
	.byte	0x1a
	.long	0x2c3
	.uleb128 0x10
	.long	.LASF157
	.byte	0x2
	.value	0x24d
	.byte	0x7
	.long	.LASF353
	.byte	0x1
	.long	0x271d
	.long	0x2732
	.uleb128 0x2
	.long	0xa57a
	.uleb128 0x1
	.long	0x26fa
	.uleb128 0x1
	.long	0xa589
	.uleb128 0x1
	.long	0xa584
	.byte	0
	.uleb128 0x14
	.long	.LASF7
	.byte	0x2
	.value	0x1e5
	.byte	0x17
	.long	0xa1cb
	.uleb128 0x7
	.long	0x2732
	.uleb128 0x10
	.long	.LASF157
	.byte	0x2
	.value	0x26d
	.byte	0x7
	.long	.LASF354
	.byte	0x1
	.long	0x275a
	.long	0x2765
	.uleb128 0x2
	.long	0xa57a
	.uleb128 0x1
	.long	0xa58e
	.byte	0
	.uleb128 0x51
	.long	.LASF157
	.value	0x280
	.long	.LASF355
	.long	0x2778
	.long	0x2783
	.uleb128 0x2
	.long	0xa57a
	.uleb128 0x1
	.long	0xa593
	.byte	0
	.uleb128 0x10
	.long	.LASF157
	.byte	0x2
	.value	0x284
	.byte	0x7
	.long	.LASF356
	.byte	0x1
	.long	0x2799
	.long	0x27a9
	.uleb128 0x2
	.long	0xa57a
	.uleb128 0x1
	.long	0xa58e
	.uleb128 0x1
	.long	0xa598
	.byte	0
	.uleb128 0x1c
	.long	.LASF157
	.value	0x28f
	.long	.LASF357
	.long	0x27bc
	.long	0x27d1
	.uleb128 0x2
	.long	0xa57a
	.uleb128 0x1
	.long	0xa593
	.uleb128 0x1
	.long	0xa584
	.uleb128 0x1
	.long	0x643
	.byte	0
	.uleb128 0x1c
	.long	.LASF157
	.value	0x294
	.long	.LASF358
	.long	0x27e4
	.long	0x27f9
	.uleb128 0x2
	.long	0xa57a
	.uleb128 0x1
	.long	0xa593
	.uleb128 0x1
	.long	0xa584
	.uleb128 0x1
	.long	0x3b3
	.byte	0
	.uleb128 0x10
	.long	.LASF157
	.byte	0x2
	.value	0x2a7
	.byte	0x7
	.long	.LASF359
	.byte	0x1
	.long	0x280f
	.long	0x281f
	.uleb128 0x2
	.long	0xa57a
	.uleb128 0x1
	.long	0xa593
	.uleb128 0x1
	.long	0xa598
	.byte	0
	.uleb128 0x10
	.long	.LASF157
	.byte	0x2
	.value	0x2ba
	.byte	0x7
	.long	.LASF360
	.byte	0x1
	.long	0x2835
	.long	0x2845
	.uleb128 0x2
	.long	0xa57a
	.uleb128 0x1
	.long	0x3175
	.uleb128 0x1
	.long	0xa584
	.byte	0
	.uleb128 0x10
	.long	.LASF169
	.byte	0x2
	.value	0x316
	.byte	0x7
	.long	.LASF361
	.byte	0x1
	.long	0x285b
	.long	0x2861
	.uleb128 0x2
	.long	0xa57a
	.byte	0
	.uleb128 0x21
	.long	.LASF36
	.byte	0x7
	.byte	0xd6
	.byte	0x5
	.long	.LASF362
	.long	0xa59d
	.byte	0x1
	.long	0x287a
	.long	0x2885
	.uleb128 0x2
	.long	0xa57a
	.uleb128 0x1
	.long	0xa58e
	.byte	0
	.uleb128 0x6
	.long	.LASF36
	.byte	0x2
	.value	0x337
	.byte	0x7
	.long	.LASF363
	.long	0xa59d
	.byte	0x1
	.long	0x289f
	.long	0x28aa
	.uleb128 0x2
	.long	0xa57a
	.uleb128 0x1
	.long	0xa593
	.byte	0
	.uleb128 0x6
	.long	.LASF36
	.byte	0x2
	.value	0x34d
	.byte	0x7
	.long	.LASF364
	.long	0xa59d
	.byte	0x1
	.long	0x28c4
	.long	0x28cf
	.uleb128 0x2
	.long	0xa57a
	.uleb128 0x1
	.long	0x3175
	.byte	0
	.uleb128 0x10
	.long	.LASF174
	.byte	0x2
	.value	0x361
	.byte	0x7
	.long	.LASF365
	.byte	0x1
	.long	0x28e5
	.long	0x28f5
	.uleb128 0x2
	.long	0xa57a
	.uleb128 0x1
	.long	0x26fa
	.uleb128 0x1
	.long	0xa589
	.byte	0
	.uleb128 0x10
	.long	.LASF174
	.byte	0x2
	.value	0x390
	.byte	0x7
	.long	.LASF366
	.byte	0x1
	.long	0x290b
	.long	0x2916
	.uleb128 0x2
	.long	0xa57a
	.uleb128 0x1
	.long	0x3175
	.byte	0
	.uleb128 0x14
	.long	.LASF177
	.byte	0x2
	.value	0x1ea
	.byte	0x3d
	.long	0x85dc
	.uleb128 0x6
	.long	.LASF178
	.byte	0x2
	.value	0x3dc
	.byte	0x7
	.long	.LASF367
	.long	0x2916
	.byte	0x1
	.long	0x293d
	.long	0x2943
	.uleb128 0x2
	.long	0xa57a
	.byte	0
	.uleb128 0x14
	.long	.LASF180
	.byte	0x2
	.value	0x1ec
	.byte	0x7
	.long	0x880f
	.uleb128 0x6
	.long	.LASF178
	.byte	0x2
	.value	0x3e6
	.byte	0x7
	.long	.LASF368
	.long	0x2943
	.byte	0x1
	.long	0x296a
	.long	0x2970
	.uleb128 0x2
	.long	0xa5a2
	.byte	0
	.uleb128 0x39
	.string	"end"
	.value	0x3f0
	.long	.LASF369
	.long	0x2916
	.long	0x2987
	.long	0x298d
	.uleb128 0x2
	.long	0xa57a
	.byte	0
	.uleb128 0x39
	.string	"end"
	.value	0x3fa
	.long	.LASF370
	.long	0x2943
	.long	0x29a4
	.long	0x29aa
	.uleb128 0x2
	.long	0xa5a2
	.byte	0
	.uleb128 0x14
	.long	.LASF184
	.byte	0x2
	.value	0x1ee
	.byte	0x30
	.long	0x317a
	.uleb128 0x6
	.long	.LASF185
	.byte	0x2
	.value	0x404
	.byte	0x7
	.long	.LASF371
	.long	0x29aa
	.byte	0x1
	.long	0x29d1
	.long	0x29d7
	.uleb128 0x2
	.long	0xa57a
	.byte	0
	.uleb128 0x14
	.long	.LASF187
	.byte	0x2
	.value	0x1ed
	.byte	0x35
	.long	0x317f
	.uleb128 0x6
	.long	.LASF185
	.byte	0x2
	.value	0x40e
	.byte	0x7
	.long	.LASF372
	.long	0x29d7
	.byte	0x1
	.long	0x29fe
	.long	0x2a04
	.uleb128 0x2
	.long	0xa5a2
	.byte	0
	.uleb128 0x6
	.long	.LASF189
	.byte	0x2
	.value	0x418
	.byte	0x7
	.long	.LASF373
	.long	0x29aa
	.byte	0x1
	.long	0x2a1e
	.long	0x2a24
	.uleb128 0x2
	.long	0xa57a
	.byte	0
	.uleb128 0x6
	.long	.LASF189
	.byte	0x2
	.value	0x422
	.byte	0x7
	.long	.LASF374
	.long	0x29d7
	.byte	0x1
	.long	0x2a3e
	.long	0x2a44
	.uleb128 0x2
	.long	0xa5a2
	.byte	0
	.uleb128 0x6
	.long	.LASF192
	.byte	0x2
	.value	0x42d
	.byte	0x7
	.long	.LASF375
	.long	0x2943
	.byte	0x1
	.long	0x2a5e
	.long	0x2a64
	.uleb128 0x2
	.long	0xa5a2
	.byte	0
	.uleb128 0x6
	.long	.LASF194
	.byte	0x2
	.value	0x437
	.byte	0x7
	.long	.LASF376
	.long	0x2943
	.byte	0x1
	.long	0x2a7e
	.long	0x2a84
	.uleb128 0x2
	.long	0xa5a2
	.byte	0
	.uleb128 0x6
	.long	.LASF196
	.byte	0x2
	.value	0x441
	.byte	0x7
	.long	.LASF377
	.long	0x29d7
	.byte	0x1
	.long	0x2a9e
	.long	0x2aa4
	.uleb128 0x2
	.long	0xa5a2
	.byte	0
	.uleb128 0x6
	.long	.LASF198
	.byte	0x2
	.value	0x44b
	.byte	0x7
	.long	.LASF378
	.long	0x29d7
	.byte	0x1
	.long	0x2abe
	.long	0x2ac4
	.uleb128 0x2
	.long	0xa5a2
	.byte	0
	.uleb128 0x6
	.long	.LASF200
	.byte	0x2
	.value	0x453
	.byte	0x7
	.long	.LASF379
	.long	0x26fa
	.byte	0x1
	.long	0x2ade
	.long	0x2ae4
	.uleb128 0x2
	.long	0xa5a2
	.byte	0
	.uleb128 0x6
	.long	.LASF85
	.byte	0x2
	.value	0x45e
	.byte	0x7
	.long	.LASF380
	.long	0x26fa
	.byte	0x1
	.long	0x2afe
	.long	0x2b04
	.uleb128 0x2
	.long	0xa5a2
	.byte	0
	.uleb128 0x10
	.long	.LASF203
	.byte	0x2
	.value	0x46d
	.byte	0x7
	.long	.LASF381
	.byte	0x1
	.long	0x2b1a
	.long	0x2b25
	.uleb128 0x2
	.long	0xa57a
	.uleb128 0x1
	.long	0x26fa
	.byte	0
	.uleb128 0x10
	.long	.LASF203
	.byte	0x2
	.value	0x482
	.byte	0x7
	.long	.LASF382
	.byte	0x1
	.long	0x2b3b
	.long	0x2b4b
	.uleb128 0x2
	.long	0xa57a
	.uleb128 0x1
	.long	0x26fa
	.uleb128 0x1
	.long	0xa589
	.byte	0
	.uleb128 0x10
	.long	.LASF206
	.byte	0x2
	.value	0x4a4
	.byte	0x7
	.long	.LASF383
	.byte	0x1
	.long	0x2b61
	.long	0x2b67
	.uleb128 0x2
	.long	0xa57a
	.byte	0
	.uleb128 0x6
	.long	.LASF208
	.byte	0x2
	.value	0x4ae
	.byte	0x7
	.long	.LASF384
	.long	0x26fa
	.byte	0x1
	.long	0x2b81
	.long	0x2b87
	.uleb128 0x2
	.long	0xa5a2
	.byte	0
	.uleb128 0x6
	.long	.LASF210
	.byte	0x2
	.value	0x4bd
	.byte	0x7
	.long	.LASF385
	.long	0x92c6
	.byte	0x1
	.long	0x2ba1
	.long	0x2ba7
	.uleb128 0x2
	.long	0xa5a2
	.byte	0
	.uleb128 0x23
	.long	.LASF212
	.byte	0x7
	.byte	0x46
	.byte	0x5
	.long	.LASF386
	.byte	0x1
	.long	0x2bbc
	.long	0x2bc7
	.uleb128 0x2
	.long	0xa57a
	.uleb128 0x1
	.long	0x26fa
	.byte	0
	.uleb128 0x14
	.long	.LASF76
	.byte	0x2
	.value	0x1e8
	.byte	0x32
	.long	0x8597
	.uleb128 0x6
	.long	.LASF214
	.byte	0x2
	.value	0x4e3
	.byte	0x7
	.long	.LASF387
	.long	0x2bc7
	.byte	0x1
	.long	0x2bee
	.long	0x2bf9
	.uleb128 0x2
	.long	0xa57a
	.uleb128 0x1
	.long	0x26fa
	.byte	0
	.uleb128 0x14
	.long	.LASF79
	.byte	0x2
	.value	0x1e9
	.byte	0x37
	.long	0x85a3
	.uleb128 0x6
	.long	.LASF214
	.byte	0x2
	.value	0x4f6
	.byte	0x7
	.long	.LASF388
	.long	0x2bf9
	.byte	0x1
	.long	0x2c20
	.long	0x2c2b
	.uleb128 0x2
	.long	0xa5a2
	.uleb128 0x1
	.long	0x26fa
	.byte	0
	.uleb128 0x10
	.long	.LASF217
	.byte	0x2
	.value	0x500
	.byte	0x7
	.long	.LASF389
	.byte	0x2
	.long	0x2c41
	.long	0x2c4c
	.uleb128 0x2
	.long	0xa5a2
	.uleb128 0x1
	.long	0x26fa
	.byte	0
	.uleb128 0x39
	.string	"at"
	.value	0x517
	.long	.LASF390
	.long	0x2bc7
	.long	0x2c62
	.long	0x2c6d
	.uleb128 0x2
	.long	0xa57a
	.uleb128 0x1
	.long	0x26fa
	.byte	0
	.uleb128 0x39
	.string	"at"
	.value	0x52a
	.long	.LASF391
	.long	0x2bf9
	.long	0x2c83
	.long	0x2c8e
	.uleb128 0x2
	.long	0xa5a2
	.uleb128 0x1
	.long	0x26fa
	.byte	0
	.uleb128 0x6
	.long	.LASF221
	.byte	0x2
	.value	0x536
	.byte	0x7
	.long	.LASF392
	.long	0x2bc7
	.byte	0x1
	.long	0x2ca8
	.long	0x2cae
	.uleb128 0x2
	.long	0xa57a
	.byte	0
	.uleb128 0x6
	.long	.LASF221
	.byte	0x2
	.value	0x542
	.byte	0x7
	.long	.LASF393
	.long	0x2bf9
	.byte	0x1
	.long	0x2cc8
	.long	0x2cce
	.uleb128 0x2
	.long	0xa5a2
	.byte	0
	.uleb128 0x6
	.long	.LASF224
	.byte	0x2
	.value	0x54e
	.byte	0x7
	.long	.LASF394
	.long	0x2bc7
	.byte	0x1
	.long	0x2ce8
	.long	0x2cee
	.uleb128 0x2
	.long	0xa57a
	.byte	0
	.uleb128 0x6
	.long	.LASF224
	.byte	0x2
	.value	0x55a
	.byte	0x7
	.long	.LASF395
	.long	0x2bf9
	.byte	0x1
	.long	0x2d08
	.long	0x2d0e
	.uleb128 0x2
	.long	0xa5a2
	.byte	0
	.uleb128 0x6
	.long	.LASF227
	.byte	0x2
	.value	0x569
	.byte	0x7
	.long	.LASF396
	.long	0xa4ee
	.byte	0x1
	.long	0x2d28
	.long	0x2d2e
	.uleb128 0x2
	.long	0xa57a
	.byte	0
	.uleb128 0x6
	.long	.LASF227
	.byte	0x2
	.value	0x56e
	.byte	0x7
	.long	.LASF397
	.long	0xa502
	.byte	0x1
	.long	0x2d48
	.long	0x2d4e
	.uleb128 0x2
	.long	0xa5a2
	.byte	0
	.uleb128 0x10
	.long	.LASF230
	.byte	0x2
	.value	0x57e
	.byte	0x7
	.long	.LASF398
	.byte	0x1
	.long	0x2d64
	.long	0x2d6f
	.uleb128 0x2
	.long	0xa57a
	.uleb128 0x1
	.long	0xa589
	.byte	0
	.uleb128 0x10
	.long	.LASF230
	.byte	0x2
	.value	0x58f
	.byte	0x7
	.long	.LASF399
	.byte	0x1
	.long	0x2d85
	.long	0x2d90
	.uleb128 0x2
	.long	0xa57a
	.uleb128 0x1
	.long	0xa5ac
	.byte	0
	.uleb128 0x10
	.long	.LASF233
	.byte	0x2
	.value	0x5a7
	.byte	0x7
	.long	.LASF400
	.byte	0x1
	.long	0x2da6
	.long	0x2dac
	.uleb128 0x2
	.long	0xa57a
	.byte	0
	.uleb128 0x21
	.long	.LASF235
	.byte	0x7
	.byte	0x89
	.byte	0x5
	.long	.LASF401
	.long	0x2916
	.byte	0x1
	.long	0x2dc5
	.long	0x2dd5
	.uleb128 0x2
	.long	0xa57a
	.uleb128 0x1
	.long	0x2943
	.uleb128 0x1
	.long	0xa589
	.byte	0
	.uleb128 0x6
	.long	.LASF235
	.byte	0x2
	.value	0x5ee
	.byte	0x7
	.long	.LASF402
	.long	0x2916
	.byte	0x1
	.long	0x2def
	.long	0x2dff
	.uleb128 0x2
	.long	0xa57a
	.uleb128 0x1
	.long	0x2943
	.uleb128 0x1
	.long	0xa5ac
	.byte	0
	.uleb128 0x6
	.long	.LASF235
	.byte	0x2
	.value	0x600
	.byte	0x7
	.long	.LASF403
	.long	0x2916
	.byte	0x1
	.long	0x2e19
	.long	0x2e29
	.uleb128 0x2
	.long	0xa57a
	.uleb128 0x1
	.long	0x2943
	.uleb128 0x1
	.long	0x3175
	.byte	0
	.uleb128 0x6
	.long	.LASF235
	.byte	0x2
	.value	0x61a
	.byte	0x7
	.long	.LASF404
	.long	0x2916
	.byte	0x1
	.long	0x2e43
	.long	0x2e58
	.uleb128 0x2
	.long	0xa57a
	.uleb128 0x1
	.long	0x2943
	.uleb128 0x1
	.long	0x26fa
	.uleb128 0x1
	.long	0xa589
	.byte	0
	.uleb128 0x6
	.long	.LASF240
	.byte	0x2
	.value	0x6f6
	.byte	0x7
	.long	.LASF405
	.long	0x2916
	.byte	0x1
	.long	0x2e72
	.long	0x2e7d
	.uleb128 0x2
	.long	0xa57a
	.uleb128 0x1
	.long	0x2943
	.byte	0
	.uleb128 0x6
	.long	.LASF240
	.byte	0x2
	.value	0x712
	.byte	0x7
	.long	.LASF406
	.long	0x2916
	.byte	0x1
	.long	0x2e97
	.long	0x2ea7
	.uleb128 0x2
	.long	0xa57a
	.uleb128 0x1
	.long	0x2943
	.uleb128 0x1
	.long	0x2943
	.byte	0
	.uleb128 0x10
	.long	.LASF41
	.byte	0x2
	.value	0x72a
	.byte	0x7
	.long	.LASF407
	.byte	0x1
	.long	0x2ebd
	.long	0x2ec8
	.uleb128 0x2
	.long	0xa57a
	.uleb128 0x1
	.long	0xa59d
	.byte	0
	.uleb128 0x10
	.long	.LASF244
	.byte	0x2
	.value	0x73d
	.byte	0x7
	.long	.LASF408
	.byte	0x1
	.long	0x2ede
	.long	0x2ee4
	.uleb128 0x2
	.long	0xa57a
	.byte	0
	.uleb128 0x10
	.long	.LASF246
	.byte	0x2
	.value	0x7c3
	.byte	0x7
	.long	.LASF409
	.byte	0x2
	.long	0x2efa
	.long	0x2f0a
	.uleb128 0x2
	.long	0xa57a
	.uleb128 0x1
	.long	0x26fa
	.uleb128 0x1
	.long	0xa589
	.byte	0
	.uleb128 0x10
	.long	.LASF248
	.byte	0x2
	.value	0x7ce
	.byte	0x7
	.long	.LASF410
	.byte	0x2
	.long	0x2f20
	.long	0x2f2b
	.uleb128 0x2
	.long	0xa57a
	.uleb128 0x1
	.long	0x26fa
	.byte	0
	.uleb128 0x10
	.long	.LASF250
	.byte	0x7
	.value	0x112
	.byte	0x5
	.long	.LASF411
	.byte	0x2
	.long	0x2f41
	.long	0x2f51
	.uleb128 0x2
	.long	0xa57a
	.uleb128 0x1
	.long	0x2c3
	.uleb128 0x1
	.long	0xa589
	.byte	0
	.uleb128 0x10
	.long	.LASF252
	.byte	0x7
	.value	0x296
	.byte	0x5
	.long	.LASF412
	.byte	0x2
	.long	0x2f67
	.long	0x2f7c
	.uleb128 0x2
	.long	0xa57a
	.uleb128 0x1
	.long	0x2916
	.uleb128 0x1
	.long	0x26fa
	.uleb128 0x1
	.long	0xa589
	.byte	0
	.uleb128 0x10
	.long	.LASF254
	.byte	0x7
	.value	0x300
	.byte	0x5
	.long	.LASF413
	.byte	0x2
	.long	0x2f92
	.long	0x2fa2
	.uleb128 0x2
	.long	0xa57a
	.uleb128 0x1
	.long	0x26fa
	.uleb128 0x1
	.long	0xa589
	.byte	0
	.uleb128 0x10
	.long	.LASF256
	.byte	0x7
	.value	0x339
	.byte	0x5
	.long	.LASF414
	.byte	0x2
	.long	0x2fb8
	.long	0x2fc3
	.uleb128 0x2
	.long	0xa57a
	.uleb128 0x1
	.long	0x26fa
	.byte	0
	.uleb128 0x6
	.long	.LASF258
	.byte	0x7
	.value	0x396
	.byte	0x5
	.long	.LASF415
	.long	0x92c6
	.byte	0x2
	.long	0x2fdd
	.long	0x2fe3
	.uleb128 0x2
	.long	0xa57a
	.byte	0
	.uleb128 0x6
	.long	.LASF260
	.byte	0x7
	.value	0x16f
	.byte	0x5
	.long	.LASF416
	.long	0x2916
	.byte	0x2
	.long	0x2ffd
	.long	0x300d
	.uleb128 0x2
	.long	0xa57a
	.uleb128 0x1
	.long	0x2943
	.uleb128 0x1
	.long	0xa5ac
	.byte	0
	.uleb128 0x6
	.long	.LASF262
	.byte	0x2
	.value	0x889
	.byte	0x7
	.long	.LASF417
	.long	0x2916
	.byte	0x2
	.long	0x3027
	.long	0x3037
	.uleb128 0x2
	.long	0xa57a
	.uleb128 0x1
	.long	0x2943
	.uleb128 0x1
	.long	0xa5ac
	.byte	0
	.uleb128 0x6
	.long	.LASF264
	.byte	0x2
	.value	0x890
	.byte	0x7
	.long	.LASF418
	.long	0x26fa
	.byte	0x2
	.long	0x3051
	.long	0x3061
	.uleb128 0x2
	.long	0xa5a2
	.uleb128 0x1
	.long	0x26fa
	.uleb128 0x1
	.long	0x7892
	.byte	0
	.uleb128 0x52
	.long	.LASF266
	.value	0x89b
	.long	.LASF419
	.long	0x26fa
	.long	0x307f
	.uleb128 0x1
	.long	0x26fa
	.uleb128 0x1
	.long	0xa584
	.byte	0
	.uleb128 0x52
	.long	.LASF268
	.value	0x8a4
	.long	.LASF420
	.long	0x26fa
	.long	0x3098
	.uleb128 0x1
	.long	0xa5b1
	.byte	0
	.uleb128 0x10
	.long	.LASF270
	.byte	0x2
	.value	0x8b5
	.byte	0x7
	.long	.LASF421
	.byte	0x2
	.long	0x30ae
	.long	0x30b9
	.uleb128 0x2
	.long	0xa57a
	.uleb128 0x1
	.long	0x2643
	.byte	0
	.uleb128 0x21
	.long	.LASF272
	.byte	0x7
	.byte	0xb9
	.byte	0x5
	.long	.LASF422
	.long	0x2916
	.byte	0x2
	.long	0x30d2
	.long	0x30dd
	.uleb128 0x2
	.long	0xa57a
	.uleb128 0x1
	.long	0x2916
	.byte	0
	.uleb128 0x21
	.long	.LASF272
	.byte	0x7
	.byte	0xc7
	.byte	0x5
	.long	.LASF423
	.long	0x2916
	.byte	0x2
	.long	0x30f6
	.long	0x3106
	.uleb128 0x2
	.long	0xa57a
	.uleb128 0x1
	.long	0x2916
	.uleb128 0x1
	.long	0x2916
	.byte	0
	.uleb128 0x1c
	.long	.LASF275
	.value	0x8cf
	.long	.LASF424
	.long	0x3119
	.long	0x3129
	.uleb128 0x2
	.long	0xa57a
	.uleb128 0x1
	.long	0xa593
	.uleb128 0x1
	.long	0x643
	.byte	0
	.uleb128 0x1c
	.long	.LASF275
	.value	0x8db
	.long	.LASF425
	.long	0x313c
	.long	0x314c
	.uleb128 0x2
	.long	0xa57a
	.uleb128 0x1
	.long	0xa593
	.uleb128 0x1
	.long	0x3b3
	.byte	0
	.uleb128 0xf
	.string	"_Tp"
	.long	0xa1cb
	.uleb128 0x64
	.long	.LASF147
	.long	0x2080
	.byte	0
	.uleb128 0x7
	.long	0x25b7
	.uleb128 0x8
	.long	.LASF280
	.byte	0x13
	.byte	0xad
	.byte	0xb
	.long	0x25a1
	.uleb128 0x7
	.long	0x3164
	.uleb128 0x33
	.long	.LASF426
	.uleb128 0x33
	.long	.LASF427
	.uleb128 0x33
	.long	.LASF428
	.uleb128 0x3f
	.long	.LASF429
	.byte	0x1
	.byte	0x6
	.byte	0x3f
	.long	0x3330
	.uleb128 0x53
	.long	.LASF65
	.byte	0x6
	.byte	0x58
	.byte	0x7
	.long	0x31a0
	.long	0x31a6
	.uleb128 0x2
	.long	0xa5b6
	.byte	0
	.uleb128 0x53
	.long	.LASF65
	.byte	0x6
	.byte	0x5c
	.byte	0x7
	.long	0x31b6
	.long	0x31c1
	.uleb128 0x2
	.long	0xa5b6
	.uleb128 0x1
	.long	0xa5c0
	.byte	0
	.uleb128 0x88
	.long	.LASF36
	.byte	0x6
	.byte	0x64
	.byte	0x18
	.long	0xa5c5
	.long	0x31d6
	.long	0x31e1
	.uleb128 0x2
	.long	0xa5b6
	.uleb128 0x1
	.long	0xa5c0
	.byte	0
	.uleb128 0x53
	.long	.LASF71
	.byte	0x6
	.byte	0x68
	.byte	0x7
	.long	0x31f1
	.long	0x31f7
	.uleb128 0x2
	.long	0xa5b6
	.byte	0
	.uleb128 0x27
	.long	.LASF75
	.byte	0x6
	.byte	0x46
	.byte	0x1a
	.long	0xa5ca
	.uleb128 0x54
	.long	.LASF73
	.byte	0x6
	.byte	0x6b
	.byte	0x7
	.long	0x31f7
	.byte	0x1
	.long	0x3218
	.long	0x3223
	.uleb128 0x2
	.long	0xa5d4
	.uleb128 0x1
	.long	0x3223
	.byte	0
	.uleb128 0x27
	.long	.LASF76
	.byte	0x6
	.byte	0x48
	.byte	0x1a
	.long	0xa5de
	.uleb128 0x27
	.long	.LASF77
	.byte	0x6
	.byte	0x47
	.byte	0x1a
	.long	0xa5e3
	.uleb128 0x54
	.long	.LASF73
	.byte	0x6
	.byte	0x6f
	.byte	0x7
	.long	0x322f
	.byte	0x1
	.long	0x3250
	.long	0x325b
	.uleb128 0x2
	.long	0xa5d4
	.uleb128 0x1
	.long	0x325b
	.byte	0
	.uleb128 0x27
	.long	.LASF79
	.byte	0x6
	.byte	0x49
	.byte	0x1a
	.long	0xa5e8
	.uleb128 0x54
	.long	.LASF80
	.byte	0x6
	.byte	0x81
	.byte	0x7
	.long	0xa5ca
	.byte	0x1
	.long	0x327c
	.long	0x328c
	.uleb128 0x2
	.long	0xa5b6
	.uleb128 0x1
	.long	0x328c
	.uleb128 0x1
	.long	0x9315
	.byte	0
	.uleb128 0x27
	.long	.LASF82
	.byte	0x6
	.byte	0x43
	.byte	0x1f
	.long	0x2c3
	.uleb128 0x53
	.long	.LASF83
	.byte	0x6
	.byte	0xa7
	.byte	0x7
	.long	0x32a8
	.long	0x32b8
	.uleb128 0x2
	.long	0xa5b6
	.uleb128 0x1
	.long	0xa5ca
	.uleb128 0x1
	.long	0x328c
	.byte	0
	.uleb128 0x54
	.long	.LASF85
	.byte	0x6
	.byte	0xc2
	.byte	0x7
	.long	0x328c
	.byte	0x1
	.long	0x32cd
	.long	0x32d3
	.uleb128 0x2
	.long	0xa5d4
	.byte	0
	.uleb128 0xab
	.long	.LASF87
	.byte	0x6
	.byte	0xf2
	.byte	0x7
	.long	0x328c
	.long	0x32e8
	.long	0x32ee
	.uleb128 0x2
	.long	0xa5d4
	.byte	0
	.uleb128 0x53
	.long	.LASF430
	.byte	0x6
	.byte	0xc9
	.byte	0x2
	.long	0x3316
	.long	0x3326
	.uleb128 0xf
	.string	"_Up"
	.long	0xa446
	.uleb128 0x55
	.long	.LASF433
	.long	0x3316
	.uleb128 0x56
	.long	0xa5e8
	.byte	0
	.uleb128 0x2
	.long	0xa5b6
	.uleb128 0x1
	.long	0xa5ca
	.uleb128 0x1
	.long	0xa5e8
	.byte	0
	.uleb128 0xf
	.string	"_Tp"
	.long	0xa446
	.byte	0
	.uleb128 0x7
	.long	0x3184
	.uleb128 0x3f
	.long	.LASF431
	.byte	0x1
	.byte	0x5
	.byte	0x85
	.long	0x33ad
	.uleb128 0x47
	.long	0x3184
	.byte	0x1
	.uleb128 0x53
	.long	.LASF90
	.byte	0x5
	.byte	0xa8
	.byte	0x7
	.long	0x3357
	.long	0x335d
	.uleb128 0x2
	.long	0xa5ed
	.byte	0
	.uleb128 0x53
	.long	.LASF90
	.byte	0x5
	.byte	0xac
	.byte	0x7
	.long	0x336d
	.long	0x3378
	.uleb128 0x2
	.long	0xa5ed
	.uleb128 0x1
	.long	0xa5f7
	.byte	0
	.uleb128 0x88
	.long	.LASF36
	.byte	0x5
	.byte	0xb1
	.byte	0x12
	.long	0xa5fc
	.long	0x338d
	.long	0x3398
	.uleb128 0x2
	.long	0xa5ed
	.uleb128 0x1
	.long	0xa5f7
	.byte	0
	.uleb128 0xac
	.long	.LASF94
	.byte	0x5
	.byte	0xbd
	.byte	0x7
	.byte	0x1
	.long	0x33a6
	.uleb128 0x2
	.long	0xa5ed
	.byte	0
	.byte	0
	.uleb128 0x7
	.long	0x3335
	.uleb128 0x59
	.long	.LASF432
	.byte	0x1
	.byte	0x8
	.value	0x248
	.byte	0xc
	.long	0x34ce
	.uleb128 0x1d
	.long	.LASF75
	.byte	0x8
	.value	0x251
	.byte	0xd
	.long	0xa5ca
	.uleb128 0x46
	.long	.LASF80
	.byte	0x8
	.value	0x27d
	.byte	0x7
	.long	0x33c0
	.long	0x33e9
	.uleb128 0x1
	.long	0xa601
	.uleb128 0x1
	.long	0x33fb
	.byte	0
	.uleb128 0x1d
	.long	.LASF99
	.byte	0x8
	.value	0x24b
	.byte	0xd
	.long	0x3335
	.uleb128 0x7
	.long	0x33e9
	.uleb128 0x1d
	.long	.LASF82
	.byte	0x8
	.value	0x260
	.byte	0xd
	.long	0x2c3
	.uleb128 0x46
	.long	.LASF80
	.byte	0x8
	.value	0x28c
	.byte	0x7
	.long	0x33c0
	.long	0x3429
	.uleb128 0x1
	.long	0xa601
	.uleb128 0x1
	.long	0x33fb
	.uleb128 0x1
	.long	0x3429
	.byte	0
	.uleb128 0x1d
	.long	.LASF101
	.byte	0x8
	.value	0x25a
	.byte	0xd
	.long	0x9315
	.uleb128 0x89
	.long	.LASF83
	.value	0x2b0
	.byte	0x7
	.long	0x3453
	.uleb128 0x1
	.long	0xa601
	.uleb128 0x1
	.long	0x33c0
	.uleb128 0x1
	.long	0x33fb
	.byte	0
	.uleb128 0x46
	.long	.LASF85
	.byte	0x8
	.value	0x2ed
	.byte	0x7
	.long	0x33fb
	.long	0x346a
	.uleb128 0x1
	.long	0xa606
	.byte	0
	.uleb128 0x46
	.long	.LASF103
	.byte	0x8
	.value	0x2fd
	.byte	0x7
	.long	0x33e9
	.long	0x3481
	.uleb128 0x1
	.long	0xa606
	.byte	0
	.uleb128 0x1d
	.long	.LASF7
	.byte	0x8
	.value	0x24e
	.byte	0xd
	.long	0xa446
	.uleb128 0x1d
	.long	.LASF105
	.byte	0x8
	.value	0x26f
	.byte	0x8
	.long	0x3335
	.uleb128 0xad
	.long	.LASF430
	.byte	0x8
	.value	0x2c1
	.byte	0x2
	.uleb128 0xf
	.string	"_Up"
	.long	0xa446
	.uleb128 0x55
	.long	.LASF433
	.long	0x34bd
	.uleb128 0x56
	.long	0xa5e8
	.byte	0
	.uleb128 0x1
	.long	0xa601
	.uleb128 0x1
	.long	0xa5ca
	.uleb128 0x1
	.long	0xa5e8
	.byte	0
	.byte	0
	.uleb128 0x1a
	.long	.LASF434
	.byte	0x18
	.byte	0x2
	.byte	0x5b
	.byte	0xc
	.long	0x3809
	.uleb128 0x1a
	.long	.LASF107
	.byte	0x18
	.byte	0x2
	.byte	0x62
	.byte	0xe
	.long	0x356e
	.uleb128 0x11
	.long	.LASF109
	.byte	0x2
	.byte	0x64
	.byte	0xa
	.long	0x3573
	.byte	0
	.uleb128 0x11
	.long	.LASF110
	.byte	0x2
	.byte	0x65
	.byte	0xa
	.long	0x3573
	.byte	0x8
	.uleb128 0x11
	.long	.LASF111
	.byte	0x2
	.byte	0x66
	.byte	0xa
	.long	0x3573
	.byte	0x10
	.uleb128 0x57
	.long	.LASF107
	.byte	0x69
	.long	0x351d
	.long	0x3523
	.uleb128 0x2
	.long	0xa615
	.byte	0
	.uleb128 0x57
	.long	.LASF107
	.byte	0x6f
	.long	0x3531
	.long	0x353c
	.uleb128 0x2
	.long	0xa615
	.uleb128 0x1
	.long	0xa61f
	.byte	0
	.uleb128 0x57
	.long	.LASF114
	.byte	0x77
	.long	0x354a
	.long	0x3555
	.uleb128 0x2
	.long	0xa615
	.uleb128 0x1
	.long	0xa624
	.byte	0
	.uleb128 0xae
	.long	.LASF116
	.byte	0x2
	.byte	0x80
	.byte	0x2
	.long	0x3562
	.uleb128 0x2
	.long	0xa615
	.uleb128 0x1
	.long	0xa629
	.byte	0
	.byte	0
	.uleb128 0x7
	.long	0x34db
	.uleb128 0x8
	.long	.LASF75
	.byte	0x2
	.byte	0x60
	.byte	0x9
	.long	0x8ae6
	.uleb128 0x1a
	.long	.LASF117
	.byte	0x18
	.byte	0x2
	.byte	0x8b
	.byte	0xe
	.long	0x3624
	.uleb128 0x35
	.long	0x3335
	.uleb128 0x35
	.long	0x34db
	.uleb128 0x57
	.long	.LASF117
	.byte	0x8f
	.long	0x35a4
	.long	0x35aa
	.uleb128 0x2
	.long	0xa62e
	.byte	0
	.uleb128 0x57
	.long	.LASF117
	.byte	0x98
	.long	0x35b8
	.long	0x35c3
	.uleb128 0x2
	.long	0xa62e
	.uleb128 0x1
	.long	0xa638
	.byte	0
	.uleb128 0x57
	.long	.LASF117
	.byte	0xa0
	.long	0x35d1
	.long	0x35dc
	.uleb128 0x2
	.long	0xa62e
	.uleb128 0x1
	.long	0xa63d
	.byte	0
	.uleb128 0x57
	.long	.LASF117
	.byte	0xa5
	.long	0x35ea
	.long	0x35f5
	.uleb128 0x2
	.long	0xa62e
	.uleb128 0x1
	.long	0xa642
	.byte	0
	.uleb128 0x57
	.long	.LASF117
	.byte	0xaa
	.long	0x3603
	.long	0x3613
	.uleb128 0x2
	.long	0xa62e
	.uleb128 0x1
	.long	0xa642
	.uleb128 0x1
	.long	0xa63d
	.byte	0
	.uleb128 0xaf
	.long	.LASF482
	.long	0x361d
	.uleb128 0x2
	.long	0xa62e
	.byte	0
	.byte	0
	.uleb128 0x8
	.long	.LASF123
	.byte	0x2
	.byte	0x5e
	.byte	0x15
	.long	0x8b17
	.uleb128 0x7
	.long	0x3624
	.uleb128 0x65
	.long	.LASF124
	.value	0x133
	.byte	0x7
	.long	0xa647
	.long	0x3649
	.long	0x364f
	.uleb128 0x2
	.long	0xa64c
	.byte	0
	.uleb128 0x65
	.long	.LASF124
	.value	0x138
	.byte	0x7
	.long	0xa638
	.long	0x3663
	.long	0x3669
	.uleb128 0x2
	.long	0xa656
	.byte	0
	.uleb128 0x1d
	.long	.LASF99
	.byte	0x2
	.value	0x12f
	.byte	0x16
	.long	0x3335
	.uleb128 0x7
	.long	0x3669
	.uleb128 0x65
	.long	.LASF127
	.value	0x13d
	.byte	0x7
	.long	0x3669
	.long	0x368f
	.long	0x3695
	.uleb128 0x2
	.long	0xa656
	.byte	0
	.uleb128 0x8a
	.long	.LASF129
	.value	0x141
	.long	0x36a5
	.long	0x36ab
	.uleb128 0x2
	.long	0xa64c
	.byte	0
	.uleb128 0x3b
	.long	.LASF129
	.value	0x147
	.byte	0x7
	.long	0x36bb
	.long	0x36c6
	.uleb128 0x2
	.long	0xa64c
	.uleb128 0x1
	.long	0xa660
	.byte	0
	.uleb128 0x3b
	.long	.LASF129
	.value	0x14d
	.byte	0x7
	.long	0x36d6
	.long	0x36e1
	.uleb128 0x2
	.long	0xa64c
	.uleb128 0x1
	.long	0x2c3
	.byte	0
	.uleb128 0x3b
	.long	.LASF129
	.value	0x153
	.byte	0x7
	.long	0x36f1
	.long	0x3701
	.uleb128 0x2
	.long	0xa64c
	.uleb128 0x1
	.long	0x2c3
	.uleb128 0x1
	.long	0xa660
	.byte	0
	.uleb128 0x8a
	.long	.LASF129
	.value	0x158
	.long	0x3711
	.long	0x371c
	.uleb128 0x2
	.long	0xa64c
	.uleb128 0x1
	.long	0xa665
	.byte	0
	.uleb128 0x3b
	.long	.LASF129
	.value	0x15d
	.byte	0x7
	.long	0x372c
	.long	0x3737
	.uleb128 0x2
	.long	0xa64c
	.uleb128 0x1
	.long	0xa642
	.byte	0
	.uleb128 0x3b
	.long	.LASF129
	.value	0x161
	.byte	0x7
	.long	0x3747
	.long	0x3757
	.uleb128 0x2
	.long	0xa64c
	.uleb128 0x1
	.long	0xa665
	.uleb128 0x1
	.long	0xa660
	.byte	0
	.uleb128 0x3b
	.long	.LASF129
	.value	0x16f
	.byte	0x7
	.long	0x3767
	.long	0x3777
	.uleb128 0x2
	.long	0xa64c
	.uleb128 0x1
	.long	0xa660
	.uleb128 0x1
	.long	0xa665
	.byte	0
	.uleb128 0x3b
	.long	.LASF138
	.value	0x175
	.byte	0x7
	.long	0x3787
	.long	0x378d
	.uleb128 0x2
	.long	0xa64c
	.byte	0
	.uleb128 0x50
	.long	.LASF140
	.value	0x17e
	.byte	0x14
	.long	0x357f
	.byte	0
	.uleb128 0x65
	.long	.LASF141
	.value	0x182
	.byte	0x7
	.long	0x3573
	.long	0x37ae
	.long	0x37b9
	.uleb128 0x2
	.long	0xa64c
	.uleb128 0x1
	.long	0x2c3
	.byte	0
	.uleb128 0x3b
	.long	.LASF143
	.value	0x18a
	.byte	0x7
	.long	0x37c9
	.long	0x37d9
	.uleb128 0x2
	.long	0xa64c
	.uleb128 0x1
	.long	0x3573
	.uleb128 0x1
	.long	0x2c3
	.byte	0
	.uleb128 0x2c
	.long	.LASF145
	.byte	0x2
	.value	0x195
	.byte	0x7
	.byte	0x2
	.long	0x37eb
	.long	0x37f6
	.uleb128 0x2
	.long	0xa64c
	.uleb128 0x1
	.long	0x2c3
	.byte	0
	.uleb128 0xf
	.string	"_Tp"
	.long	0xa446
	.uleb128 0xa
	.long	.LASF147
	.long	0x3335
	.byte	0
	.uleb128 0x7
	.long	0x34ce
	.uleb128 0x1a
	.long	.LASF435
	.byte	0x1
	.byte	0x13
	.byte	0xa9
	.byte	0xc
	.long	0x3831
	.uleb128 0x8
	.long	.LASF149
	.byte	0x13
	.byte	0xaa
	.byte	0xd
	.long	0x3335
	.uleb128 0xa
	.long	.LASF150
	.long	0x3335
	.byte	0
	.uleb128 0x48
	.long	.LASF436
	.byte	0x18
	.byte	0x2
	.value	0x1cc
	.long	0x438d
	.uleb128 0x19
	.byte	0x2
	.value	0x1cc
	.byte	0xb
	.long	0x379a
	.uleb128 0x19
	.byte	0x2
	.value	0x1cc
	.byte	0xb
	.long	0x37b9
	.uleb128 0x19
	.byte	0x2
	.value	0x1cc
	.byte	0xb
	.long	0x378d
	.uleb128 0x19
	.byte	0x2
	.value	0x1cc
	.byte	0xb
	.long	0x364f
	.uleb128 0x19
	.byte	0x2
	.value	0x1cc
	.byte	0xb
	.long	0x3635
	.uleb128 0x19
	.byte	0x2
	.value	0x1cc
	.byte	0xb
	.long	0x367b
	.uleb128 0x47
	.long	0x34ce
	.byte	0x2
	.uleb128 0x46
	.long	.LASF152
	.byte	0x2
	.value	0x1f6
	.byte	0x7
	.long	0x92c6
	.long	0x3891
	.uleb128 0x1
	.long	0x643
	.byte	0
	.uleb128 0x46
	.long	.LASF152
	.byte	0x2
	.value	0x1ff
	.byte	0x7
	.long	0x92c6
	.long	0x38a8
	.uleb128 0x1
	.long	0x3b3
	.byte	0
	.uleb128 0xb0
	.long	.LASF346
	.byte	0x2
	.value	0x203
	.byte	0x7
	.long	0x92c6
	.uleb128 0x14
	.long	.LASF75
	.byte	0x2
	.value	0x1e6
	.byte	0x29
	.long	0x3573
	.uleb128 0x46
	.long	.LASF155
	.byte	0x2
	.value	0x20c
	.byte	0x7
	.long	0x38b6
	.long	0x38e9
	.uleb128 0x1
	.long	0x38b6
	.uleb128 0x1
	.long	0x38b6
	.uleb128 0x1
	.long	0x38b6
	.uleb128 0x1
	.long	0xa66a
	.byte	0
	.uleb128 0x1d
	.long	.LASF123
	.byte	0x2
	.value	0x1e1
	.byte	0x2f
	.long	0x3624
	.uleb128 0x7
	.long	0x38e9
	.uleb128 0x8b
	.long	.LASF157
	.value	0x227
	.long	0x390b
	.long	0x3911
	.uleb128 0x2
	.long	0xa66f
	.byte	0
	.uleb128 0x79
	.long	.LASF157
	.byte	0x2
	.value	0x232
	.long	0x3921
	.long	0x392c
	.uleb128 0x2
	.long	0xa66f
	.uleb128 0x1
	.long	0xa679
	.byte	0
	.uleb128 0x14
	.long	.LASF99
	.byte	0x2
	.value	0x1f1
	.byte	0x1a
	.long	0x3335
	.uleb128 0x7
	.long	0x392c
	.uleb128 0x79
	.long	.LASF157
	.byte	0x2
	.value	0x240
	.long	0x394e
	.long	0x395e
	.uleb128 0x2
	.long	0xa66f
	.uleb128 0x1
	.long	0x395e
	.uleb128 0x1
	.long	0xa679
	.byte	0
	.uleb128 0x14
	.long	.LASF82
	.byte	0x2
	.value	0x1ef
	.byte	0x1a
	.long	0x2c3
	.uleb128 0x7
	.long	0x395e
	.uleb128 0x2c
	.long	.LASF157
	.byte	0x2
	.value	0x24d
	.byte	0x7
	.byte	0x1
	.long	0x3982
	.long	0x3997
	.uleb128 0x2
	.long	0xa66f
	.uleb128 0x1
	.long	0x395e
	.uleb128 0x1
	.long	0xa67e
	.uleb128 0x1
	.long	0xa679
	.byte	0
	.uleb128 0x14
	.long	.LASF7
	.byte	0x2
	.value	0x1e5
	.byte	0x17
	.long	0xa446
	.uleb128 0x7
	.long	0x3997
	.uleb128 0x2c
	.long	.LASF157
	.byte	0x2
	.value	0x26d
	.byte	0x7
	.byte	0x1
	.long	0x39bb
	.long	0x39c6
	.uleb128 0x2
	.long	0xa66f
	.uleb128 0x1
	.long	0xa683
	.byte	0
	.uleb128 0x8b
	.long	.LASF157
	.value	0x280
	.long	0x39d6
	.long	0x39e1
	.uleb128 0x2
	.long	0xa66f
	.uleb128 0x1
	.long	0xa688
	.byte	0
	.uleb128 0x2c
	.long	.LASF157
	.byte	0x2
	.value	0x284
	.byte	0x7
	.byte	0x1
	.long	0x39f3
	.long	0x3a03
	.uleb128 0x2
	.long	0xa66f
	.uleb128 0x1
	.long	0xa683
	.uleb128 0x1
	.long	0xa68d
	.byte	0
	.uleb128 0x3b
	.long	.LASF157
	.value	0x28f
	.byte	0x7
	.long	0x3a13
	.long	0x3a28
	.uleb128 0x2
	.long	0xa66f
	.uleb128 0x1
	.long	0xa688
	.uleb128 0x1
	.long	0xa679
	.uleb128 0x1
	.long	0x643
	.byte	0
	.uleb128 0x3b
	.long	.LASF157
	.value	0x294
	.byte	0x7
	.long	0x3a38
	.long	0x3a4d
	.uleb128 0x2
	.long	0xa66f
	.uleb128 0x1
	.long	0xa688
	.uleb128 0x1
	.long	0xa679
	.uleb128 0x1
	.long	0x3b3
	.byte	0
	.uleb128 0x2c
	.long	.LASF157
	.byte	0x2
	.value	0x2a7
	.byte	0x7
	.byte	0x1
	.long	0x3a5f
	.long	0x3a6f
	.uleb128 0x2
	.long	0xa66f
	.uleb128 0x1
	.long	0xa688
	.uleb128 0x1
	.long	0xa68d
	.byte	0
	.uleb128 0x2c
	.long	.LASF157
	.byte	0x2
	.value	0x2ba
	.byte	0x7
	.byte	0x1
	.long	0x3a81
	.long	0x3a91
	.uleb128 0x2
	.long	0xa66f
	.uleb128 0x1
	.long	0x43a3
	.uleb128 0x1
	.long	0xa679
	.byte	0
	.uleb128 0x2c
	.long	.LASF169
	.byte	0x2
	.value	0x316
	.byte	0x7
	.byte	0x1
	.long	0x3aa3
	.long	0x3aa9
	.uleb128 0x2
	.long	0xa66f
	.byte	0
	.uleb128 0x54
	.long	.LASF36
	.byte	0x7
	.byte	0xd6
	.byte	0x5
	.long	0xa692
	.byte	0x1
	.long	0x3abe
	.long	0x3ac9
	.uleb128 0x2
	.long	0xa66f
	.uleb128 0x1
	.long	0xa683
	.byte	0
	.uleb128 0x1e
	.long	.LASF36
	.byte	0x2
	.value	0x337
	.byte	0x7
	.long	0xa692
	.byte	0x1
	.long	0x3adf
	.long	0x3aea
	.uleb128 0x2
	.long	0xa66f
	.uleb128 0x1
	.long	0xa688
	.byte	0
	.uleb128 0x1e
	.long	.LASF36
	.byte	0x2
	.value	0x34d
	.byte	0x7
	.long	0xa692
	.byte	0x1
	.long	0x3b00
	.long	0x3b0b
	.uleb128 0x2
	.long	0xa66f
	.uleb128 0x1
	.long	0x43a3
	.byte	0
	.uleb128 0x2c
	.long	.LASF174
	.byte	0x2
	.value	0x361
	.byte	0x7
	.byte	0x1
	.long	0x3b1d
	.long	0x3b2d
	.uleb128 0x2
	.long	0xa66f
	.uleb128 0x1
	.long	0x395e
	.uleb128 0x1
	.long	0xa67e
	.byte	0
	.uleb128 0x2c
	.long	.LASF174
	.byte	0x2
	.value	0x390
	.byte	0x7
	.byte	0x1
	.long	0x3b3f
	.long	0x3b4a
	.uleb128 0x2
	.long	0xa66f
	.uleb128 0x1
	.long	0x43a3
	.byte	0
	.uleb128 0x14
	.long	.LASF177
	.byte	0x2
	.value	0x1ea
	.byte	0x3d
	.long	0x8b37
	.uleb128 0x1e
	.long	.LASF178
	.byte	0x2
	.value	0x3dc
	.byte	0x7
	.long	0x3b4a
	.byte	0x1
	.long	0x3b6d
	.long	0x3b73
	.uleb128 0x2
	.long	0xa66f
	.byte	0
	.uleb128 0x14
	.long	.LASF180
	.byte	0x2
	.value	0x1ec
	.byte	0x7
	.long	0x8d32
	.uleb128 0x1e
	.long	.LASF178
	.byte	0x2
	.value	0x3e6
	.byte	0x7
	.long	0x3b73
	.byte	0x1
	.long	0x3b96
	.long	0x3b9c
	.uleb128 0x2
	.long	0xa697
	.byte	0
	.uleb128 0x70
	.string	"end"
	.value	0x3f0
	.long	0x3b4a
	.long	0x3baf
	.long	0x3bb5
	.uleb128 0x2
	.long	0xa66f
	.byte	0
	.uleb128 0x70
	.string	"end"
	.value	0x3fa
	.long	0x3b73
	.long	0x3bc8
	.long	0x3bce
	.uleb128 0x2
	.long	0xa697
	.byte	0
	.uleb128 0x14
	.long	.LASF184
	.byte	0x2
	.value	0x1ee
	.byte	0x30
	.long	0x43a8
	.uleb128 0x1e
	.long	.LASF185
	.byte	0x2
	.value	0x404
	.byte	0x7
	.long	0x3bce
	.byte	0x1
	.long	0x3bf1
	.long	0x3bf7
	.uleb128 0x2
	.long	0xa66f
	.byte	0
	.uleb128 0x14
	.long	.LASF187
	.byte	0x2
	.value	0x1ed
	.byte	0x35
	.long	0x43ad
	.uleb128 0x1e
	.long	.LASF185
	.byte	0x2
	.value	0x40e
	.byte	0x7
	.long	0x3bf7
	.byte	0x1
	.long	0x3c1a
	.long	0x3c20
	.uleb128 0x2
	.long	0xa697
	.byte	0
	.uleb128 0x1e
	.long	.LASF189
	.byte	0x2
	.value	0x418
	.byte	0x7
	.long	0x3bce
	.byte	0x1
	.long	0x3c36
	.long	0x3c3c
	.uleb128 0x2
	.long	0xa66f
	.byte	0
	.uleb128 0x1e
	.long	.LASF189
	.byte	0x2
	.value	0x422
	.byte	0x7
	.long	0x3bf7
	.byte	0x1
	.long	0x3c52
	.long	0x3c58
	.uleb128 0x2
	.long	0xa697
	.byte	0
	.uleb128 0x1e
	.long	.LASF192
	.byte	0x2
	.value	0x42d
	.byte	0x7
	.long	0x3b73
	.byte	0x1
	.long	0x3c6e
	.long	0x3c74
	.uleb128 0x2
	.long	0xa697
	.byte	0
	.uleb128 0x1e
	.long	.LASF194
	.byte	0x2
	.value	0x437
	.byte	0x7
	.long	0x3b73
	.byte	0x1
	.long	0x3c8a
	.long	0x3c90
	.uleb128 0x2
	.long	0xa697
	.byte	0
	.uleb128 0x1e
	.long	.LASF196
	.byte	0x2
	.value	0x441
	.byte	0x7
	.long	0x3bf7
	.byte	0x1
	.long	0x3ca6
	.long	0x3cac
	.uleb128 0x2
	.long	0xa697
	.byte	0
	.uleb128 0x1e
	.long	.LASF198
	.byte	0x2
	.value	0x44b
	.byte	0x7
	.long	0x3bf7
	.byte	0x1
	.long	0x3cc2
	.long	0x3cc8
	.uleb128 0x2
	.long	0xa697
	.byte	0
	.uleb128 0x1e
	.long	.LASF200
	.byte	0x2
	.value	0x453
	.byte	0x7
	.long	0x395e
	.byte	0x1
	.long	0x3cde
	.long	0x3ce4
	.uleb128 0x2
	.long	0xa697
	.byte	0
	.uleb128 0x1e
	.long	.LASF85
	.byte	0x2
	.value	0x45e
	.byte	0x7
	.long	0x395e
	.byte	0x1
	.long	0x3cfa
	.long	0x3d00
	.uleb128 0x2
	.long	0xa697
	.byte	0
	.uleb128 0x2c
	.long	.LASF203
	.byte	0x2
	.value	0x46d
	.byte	0x7
	.byte	0x1
	.long	0x3d12
	.long	0x3d1d
	.uleb128 0x2
	.long	0xa66f
	.uleb128 0x1
	.long	0x395e
	.byte	0
	.uleb128 0x2c
	.long	.LASF203
	.byte	0x2
	.value	0x482
	.byte	0x7
	.byte	0x1
	.long	0x3d2f
	.long	0x3d3f
	.uleb128 0x2
	.long	0xa66f
	.uleb128 0x1
	.long	0x395e
	.uleb128 0x1
	.long	0xa67e
	.byte	0
	.uleb128 0x2c
	.long	.LASF206
	.byte	0x2
	.value	0x4a4
	.byte	0x7
	.byte	0x1
	.long	0x3d51
	.long	0x3d57
	.uleb128 0x2
	.long	0xa66f
	.byte	0
	.uleb128 0x1e
	.long	.LASF208
	.byte	0x2
	.value	0x4ae
	.byte	0x7
	.long	0x395e
	.byte	0x1
	.long	0x3d6d
	.long	0x3d73
	.uleb128 0x2
	.long	0xa697
	.byte	0
	.uleb128 0x1e
	.long	.LASF210
	.byte	0x2
	.value	0x4bd
	.byte	0x7
	.long	0x92c6
	.byte	0x1
	.long	0x3d89
	.long	0x3d8f
	.uleb128 0x2
	.long	0xa697
	.byte	0
	.uleb128 0x53
	.long	.LASF212
	.byte	0x7
	.byte	0x46
	.byte	0x5
	.long	0x3d9f
	.long	0x3daa
	.uleb128 0x2
	.long	0xa66f
	.uleb128 0x1
	.long	0x395e
	.byte	0
	.uleb128 0x14
	.long	.LASF76
	.byte	0x2
	.value	0x1e8
	.byte	0x32
	.long	0x8af2
	.uleb128 0x1e
	.long	.LASF214
	.byte	0x2
	.value	0x4e3
	.byte	0x7
	.long	0x3daa
	.byte	0x1
	.long	0x3dcd
	.long	0x3dd8
	.uleb128 0x2
	.long	0xa66f
	.uleb128 0x1
	.long	0x395e
	.byte	0
	.uleb128 0x14
	.long	.LASF79
	.byte	0x2
	.value	0x1e9
	.byte	0x37
	.long	0x8afe
	.uleb128 0x1e
	.long	.LASF214
	.byte	0x2
	.value	0x4f6
	.byte	0x7
	.long	0x3dd8
	.byte	0x1
	.long	0x3dfb
	.long	0x3e06
	.uleb128 0x2
	.long	0xa697
	.uleb128 0x1
	.long	0x395e
	.byte	0
	.uleb128 0x2c
	.long	.LASF217
	.byte	0x2
	.value	0x500
	.byte	0x7
	.byte	0x2
	.long	0x3e18
	.long	0x3e23
	.uleb128 0x2
	.long	0xa697
	.uleb128 0x1
	.long	0x395e
	.byte	0
	.uleb128 0x70
	.string	"at"
	.value	0x517
	.long	0x3daa
	.long	0x3e35
	.long	0x3e40
	.uleb128 0x2
	.long	0xa66f
	.uleb128 0x1
	.long	0x395e
	.byte	0
	.uleb128 0x70
	.string	"at"
	.value	0x52a
	.long	0x3dd8
	.long	0x3e52
	.long	0x3e5d
	.uleb128 0x2
	.long	0xa697
	.uleb128 0x1
	.long	0x395e
	.byte	0
	.uleb128 0x1e
	.long	.LASF221
	.byte	0x2
	.value	0x536
	.byte	0x7
	.long	0x3daa
	.byte	0x1
	.long	0x3e73
	.long	0x3e79
	.uleb128 0x2
	.long	0xa66f
	.byte	0
	.uleb128 0x1e
	.long	.LASF221
	.byte	0x2
	.value	0x542
	.byte	0x7
	.long	0x3dd8
	.byte	0x1
	.long	0x3e8f
	.long	0x3e95
	.uleb128 0x2
	.long	0xa697
	.byte	0
	.uleb128 0x1e
	.long	.LASF224
	.byte	0x2
	.value	0x54e
	.byte	0x7
	.long	0x3daa
	.byte	0x1
	.long	0x3eab
	.long	0x3eb1
	.uleb128 0x2
	.long	0xa66f
	.byte	0
	.uleb128 0x1e
	.long	.LASF224
	.byte	0x2
	.value	0x55a
	.byte	0x7
	.long	0x3dd8
	.byte	0x1
	.long	0x3ec7
	.long	0x3ecd
	.uleb128 0x2
	.long	0xa697
	.byte	0
	.uleb128 0x1e
	.long	.LASF227
	.byte	0x2
	.value	0x569
	.byte	0x7
	.long	0xa5ca
	.byte	0x1
	.long	0x3ee3
	.long	0x3ee9
	.uleb128 0x2
	.long	0xa66f
	.byte	0
	.uleb128 0x1e
	.long	.LASF227
	.byte	0x2
	.value	0x56e
	.byte	0x7
	.long	0xa5e3
	.byte	0x1
	.long	0x3eff
	.long	0x3f05
	.uleb128 0x2
	.long	0xa697
	.byte	0
	.uleb128 0x2c
	.long	.LASF230
	.byte	0x2
	.value	0x57e
	.byte	0x7
	.byte	0x1
	.long	0x3f17
	.long	0x3f22
	.uleb128 0x2
	.long	0xa66f
	.uleb128 0x1
	.long	0xa67e
	.byte	0
	.uleb128 0x2c
	.long	.LASF230
	.byte	0x2
	.value	0x58f
	.byte	0x7
	.byte	0x1
	.long	0x3f34
	.long	0x3f3f
	.uleb128 0x2
	.long	0xa66f
	.uleb128 0x1
	.long	0xa6a1
	.byte	0
	.uleb128 0x2c
	.long	.LASF233
	.byte	0x2
	.value	0x5a7
	.byte	0x7
	.byte	0x1
	.long	0x3f51
	.long	0x3f57
	.uleb128 0x2
	.long	0xa66f
	.byte	0
	.uleb128 0x54
	.long	.LASF235
	.byte	0x7
	.byte	0x89
	.byte	0x5
	.long	0x3b4a
	.byte	0x1
	.long	0x3f6c
	.long	0x3f7c
	.uleb128 0x2
	.long	0xa66f
	.uleb128 0x1
	.long	0x3b73
	.uleb128 0x1
	.long	0xa67e
	.byte	0
	.uleb128 0x1e
	.long	.LASF235
	.byte	0x2
	.value	0x5ee
	.byte	0x7
	.long	0x3b4a
	.byte	0x1
	.long	0x3f92
	.long	0x3fa2
	.uleb128 0x2
	.long	0xa66f
	.uleb128 0x1
	.long	0x3b73
	.uleb128 0x1
	.long	0xa6a1
	.byte	0
	.uleb128 0x1e
	.long	.LASF235
	.byte	0x2
	.value	0x600
	.byte	0x7
	.long	0x3b4a
	.byte	0x1
	.long	0x3fb8
	.long	0x3fc8
	.uleb128 0x2
	.long	0xa66f
	.uleb128 0x1
	.long	0x3b73
	.uleb128 0x1
	.long	0x43a3
	.byte	0
	.uleb128 0x1e
	.long	.LASF235
	.byte	0x2
	.value	0x61a
	.byte	0x7
	.long	0x3b4a
	.byte	0x1
	.long	0x3fde
	.long	0x3ff3
	.uleb128 0x2
	.long	0xa66f
	.uleb128 0x1
	.long	0x3b73
	.uleb128 0x1
	.long	0x395e
	.uleb128 0x1
	.long	0xa67e
	.byte	0
	.uleb128 0x1e
	.long	.LASF240
	.byte	0x2
	.value	0x6f6
	.byte	0x7
	.long	0x3b4a
	.byte	0x1
	.long	0x4009
	.long	0x4014
	.uleb128 0x2
	.long	0xa66f
	.uleb128 0x1
	.long	0x3b73
	.byte	0
	.uleb128 0x1e
	.long	.LASF240
	.byte	0x2
	.value	0x712
	.byte	0x7
	.long	0x3b4a
	.byte	0x1
	.long	0x402a
	.long	0x403a
	.uleb128 0x2
	.long	0xa66f
	.uleb128 0x1
	.long	0x3b73
	.uleb128 0x1
	.long	0x3b73
	.byte	0
	.uleb128 0x2c
	.long	.LASF41
	.byte	0x2
	.value	0x72a
	.byte	0x7
	.byte	0x1
	.long	0x404c
	.long	0x4057
	.uleb128 0x2
	.long	0xa66f
	.uleb128 0x1
	.long	0xa692
	.byte	0
	.uleb128 0x2c
	.long	.LASF244
	.byte	0x2
	.value	0x73d
	.byte	0x7
	.byte	0x1
	.long	0x4069
	.long	0x406f
	.uleb128 0x2
	.long	0xa66f
	.byte	0
	.uleb128 0x2c
	.long	.LASF246
	.byte	0x2
	.value	0x7c3
	.byte	0x7
	.byte	0x2
	.long	0x4081
	.long	0x4091
	.uleb128 0x2
	.long	0xa66f
	.uleb128 0x1
	.long	0x395e
	.uleb128 0x1
	.long	0xa67e
	.byte	0
	.uleb128 0x2c
	.long	.LASF248
	.byte	0x2
	.value	0x7ce
	.byte	0x7
	.byte	0x2
	.long	0x40a3
	.long	0x40ae
	.uleb128 0x2
	.long	0xa66f
	.uleb128 0x1
	.long	0x395e
	.byte	0
	.uleb128 0x2c
	.long	.LASF250
	.byte	0x7
	.value	0x112
	.byte	0x5
	.byte	0x2
	.long	0x40c0
	.long	0x40d0
	.uleb128 0x2
	.long	0xa66f
	.uleb128 0x1
	.long	0x2c3
	.uleb128 0x1
	.long	0xa67e
	.byte	0
	.uleb128 0x2c
	.long	.LASF252
	.byte	0x7
	.value	0x296
	.byte	0x5
	.byte	0x2
	.long	0x40e2
	.long	0x40f7
	.uleb128 0x2
	.long	0xa66f
	.uleb128 0x1
	.long	0x3b4a
	.uleb128 0x1
	.long	0x395e
	.uleb128 0x1
	.long	0xa67e
	.byte	0
	.uleb128 0x2c
	.long	.LASF254
	.byte	0x7
	.value	0x300
	.byte	0x5
	.byte	0x2
	.long	0x4109
	.long	0x4119
	.uleb128 0x2
	.long	0xa66f
	.uleb128 0x1
	.long	0x395e
	.uleb128 0x1
	.long	0xa67e
	.byte	0
	.uleb128 0x2c
	.long	.LASF256
	.byte	0x7
	.value	0x339
	.byte	0x5
	.byte	0x2
	.long	0x412b
	.long	0x4136
	.uleb128 0x2
	.long	0xa66f
	.uleb128 0x1
	.long	0x395e
	.byte	0
	.uleb128 0x1e
	.long	.LASF258
	.byte	0x7
	.value	0x396
	.byte	0x5
	.long	0x92c6
	.byte	0x2
	.long	0x414c
	.long	0x4152
	.uleb128 0x2
	.long	0xa66f
	.byte	0
	.uleb128 0x1e
	.long	.LASF260
	.byte	0x7
	.value	0x16f
	.byte	0x5
	.long	0x3b4a
	.byte	0x2
	.long	0x4168
	.long	0x4178
	.uleb128 0x2
	.long	0xa66f
	.uleb128 0x1
	.long	0x3b73
	.uleb128 0x1
	.long	0xa6a1
	.byte	0
	.uleb128 0x1e
	.long	.LASF262
	.byte	0x2
	.value	0x889
	.byte	0x7
	.long	0x3b4a
	.byte	0x2
	.long	0x418e
	.long	0x419e
	.uleb128 0x2
	.long	0xa66f
	.uleb128 0x1
	.long	0x3b73
	.uleb128 0x1
	.long	0xa6a1
	.byte	0
	.uleb128 0x1e
	.long	.LASF264
	.byte	0x2
	.value	0x890
	.byte	0x7
	.long	0x395e
	.byte	0x2
	.long	0x41b4
	.long	0x41c4
	.uleb128 0x2
	.long	0xa697
	.uleb128 0x1
	.long	0x395e
	.uleb128 0x1
	.long	0x7892
	.byte	0
	.uleb128 0x8c
	.long	.LASF266
	.value	0x89b
	.long	0x395e
	.long	0x41df
	.uleb128 0x1
	.long	0x395e
	.uleb128 0x1
	.long	0xa679
	.byte	0
	.uleb128 0x8c
	.long	.LASF268
	.value	0x8a4
	.long	0x395e
	.long	0x41f5
	.uleb128 0x1
	.long	0xa6a6
	.byte	0
	.uleb128 0x2c
	.long	.LASF270
	.byte	0x2
	.value	0x8b5
	.byte	0x7
	.byte	0x2
	.long	0x4207
	.long	0x4212
	.uleb128 0x2
	.long	0xa66f
	.uleb128 0x1
	.long	0x38b6
	.byte	0
	.uleb128 0x54
	.long	.LASF272
	.byte	0x7
	.byte	0xb9
	.byte	0x5
	.long	0x3b4a
	.byte	0x2
	.long	0x4227
	.long	0x4232
	.uleb128 0x2
	.long	0xa66f
	.uleb128 0x1
	.long	0x3b4a
	.byte	0
	.uleb128 0x54
	.long	.LASF272
	.byte	0x7
	.byte	0xc7
	.byte	0x5
	.long	0x3b4a
	.byte	0x2
	.long	0x4247
	.long	0x4257
	.uleb128 0x2
	.long	0xa66f
	.uleb128 0x1
	.long	0x3b4a
	.uleb128 0x1
	.long	0x3b4a
	.byte	0
	.uleb128 0x3b
	.long	.LASF275
	.value	0x8cf
	.byte	0x7
	.long	0x4267
	.long	0x4277
	.uleb128 0x2
	.long	0xa66f
	.uleb128 0x1
	.long	0xa688
	.uleb128 0x1
	.long	0x643
	.byte	0
	.uleb128 0x3b
	.long	.LASF275
	.value	0x8db
	.byte	0x7
	.long	0x4287
	.long	0x4297
	.uleb128 0x2
	.long	0xa66f
	.uleb128 0x1
	.long	0xa688
	.uleb128 0x1
	.long	0x3b3
	.byte	0
	.uleb128 0x1d
	.long	.LASF437
	.byte	0x2
	.value	0x1e0
	.byte	0x2b
	.long	0x34ce
	.uleb128 0x59
	.long	.LASF438
	.byte	0x18
	.byte	0x2
	.value	0x742
	.byte	0xe
	.long	0x4349
	.uleb128 0x50
	.long	.LASF439
	.value	0x744
	.byte	0xa
	.long	0x38b6
	.byte	0
	.uleb128 0x50
	.long	.LASF440
	.value	0x745
	.byte	0xc
	.long	0x395e
	.byte	0x8
	.uleb128 0x50
	.long	.LASF441
	.value	0x746
	.byte	0x9
	.long	0xa921
	.byte	0x10
	.uleb128 0x3b
	.long	.LASF438
	.value	0x749
	.byte	0x2
	.long	0x42e9
	.long	0x42fe
	.uleb128 0x2
	.long	0xa926
	.uleb128 0x1
	.long	0x38b6
	.uleb128 0x1
	.long	0x395e
	.uleb128 0x1
	.long	0xa921
	.byte	0
	.uleb128 0x3b
	.long	.LASF442
	.value	0x74e
	.byte	0x2
	.long	0x430e
	.long	0x4314
	.uleb128 0x2
	.long	0xa926
	.byte	0
	.uleb128 0x65
	.long	.LASF25
	.value	0x756
	.byte	0x2
	.long	0x38b6
	.long	0x4328
	.long	0x432e
	.uleb128 0x2
	.long	0xa926
	.byte	0
	.uleb128 0xb1
	.long	.LASF438
	.byte	0x2
	.value	0x75e
	.byte	0x2
	.byte	0x3
	.long	0x433d
	.uleb128 0x2
	.long	0xa926
	.uleb128 0x1
	.long	0xa930
	.byte	0
	.byte	0
	.uleb128 0x7
	.long	0x42a4
	.uleb128 0x2c
	.long	.LASF443
	.byte	0x7
	.value	0x235
	.byte	0x7
	.byte	0x2
	.long	0x436f
	.long	0x437a
	.uleb128 0x55
	.long	.LASF433
	.long	0x436f
	.uleb128 0x56
	.long	0xa5e8
	.byte	0
	.uleb128 0x2
	.long	0xa66f
	.uleb128 0x1
	.long	0xa5e8
	.byte	0
	.uleb128 0xf
	.string	"_Tp"
	.long	0xa446
	.uleb128 0x64
	.long	.LASF147
	.long	0x3335
	.byte	0
	.uleb128 0x7
	.long	0x3831
	.uleb128 0x8
	.long	.LASF280
	.byte	0x13
	.byte	0xad
	.byte	0xb
	.long	0x381b
	.uleb128 0x7
	.long	0x4392
	.uleb128 0x33
	.long	.LASF444
	.uleb128 0x33
	.long	.LASF445
	.uleb128 0x33
	.long	.LASF446
	.uleb128 0x1a
	.long	.LASF447
	.byte	0x1
	.byte	0x16
	.byte	0xd4
	.byte	0xc
	.long	0x43ed
	.uleb128 0x8
	.long	.LASF448
	.byte	0x16
	.byte	0xd8
	.byte	0x2b
	.long	0x636
	.uleb128 0x8
	.long	.LASF75
	.byte	0x16
	.byte	0xd9
	.byte	0x2b
	.long	0xa4ee
	.uleb128 0x8
	.long	.LASF76
	.byte	0x16
	.byte	0xda
	.byte	0x2b
	.long	0xa4fd
	.uleb128 0xa
	.long	.LASF449
	.long	0xa4ee
	.byte	0
	.uleb128 0x3f
	.long	.LASF450
	.byte	0x1
	.byte	0x6
	.byte	0x3f
	.long	0x458b
	.uleb128 0x23
	.long	.LASF65
	.byte	0x6
	.byte	0x58
	.byte	0x7
	.long	.LASF451
	.byte	0x1
	.long	0x440e
	.long	0x4414
	.uleb128 0x2
	.long	0xa6c9
	.byte	0
	.uleb128 0x23
	.long	.LASF65
	.byte	0x6
	.byte	0x5c
	.byte	0x7
	.long	.LASF452
	.byte	0x1
	.long	0x4429
	.long	0x4434
	.uleb128 0x2
	.long	0xa6c9
	.uleb128 0x1
	.long	0xa6d3
	.byte	0
	.uleb128 0x4e
	.long	.LASF36
	.byte	0x6
	.byte	0x64
	.byte	0x18
	.long	.LASF453
	.long	0xa6d8
	.long	0x444c
	.long	0x4457
	.uleb128 0x2
	.long	0xa6c9
	.uleb128 0x1
	.long	0xa6d3
	.byte	0
	.uleb128 0x23
	.long	.LASF71
	.byte	0x6
	.byte	0x68
	.byte	0x7
	.long	.LASF454
	.byte	0x1
	.long	0x446c
	.long	0x4472
	.uleb128 0x2
	.long	0xa6c9
	.byte	0
	.uleb128 0x27
	.long	.LASF75
	.byte	0x6
	.byte	0x46
	.byte	0x1a
	.long	0xa6dd
	.uleb128 0x21
	.long	.LASF73
	.byte	0x6
	.byte	0x6b
	.byte	0x7
	.long	.LASF455
	.long	0x4472
	.byte	0x1
	.long	0x4497
	.long	0x44a2
	.uleb128 0x2
	.long	0xa6e7
	.uleb128 0x1
	.long	0x44a2
	.byte	0
	.uleb128 0x27
	.long	.LASF76
	.byte	0x6
	.byte	0x48
	.byte	0x1a
	.long	0xa6f1
	.uleb128 0x27
	.long	.LASF77
	.byte	0x6
	.byte	0x47
	.byte	0x1a
	.long	0x788d
	.uleb128 0x21
	.long	.LASF73
	.byte	0x6
	.byte	0x6f
	.byte	0x7
	.long	.LASF456
	.long	0x44ae
	.byte	0x1
	.long	0x44d3
	.long	0x44de
	.uleb128 0x2
	.long	0xa6e7
	.uleb128 0x1
	.long	0x44de
	.byte	0
	.uleb128 0x27
	.long	.LASF79
	.byte	0x6
	.byte	0x49
	.byte	0x1a
	.long	0xa6f6
	.uleb128 0x21
	.long	.LASF80
	.byte	0x6
	.byte	0x81
	.byte	0x7
	.long	.LASF457
	.long	0xa6dd
	.byte	0x1
	.long	0x4503
	.long	0x4513
	.uleb128 0x2
	.long	0xa6c9
	.uleb128 0x1
	.long	0x4513
	.uleb128 0x1
	.long	0x9315
	.byte	0
	.uleb128 0x27
	.long	.LASF82
	.byte	0x6
	.byte	0x43
	.byte	0x1f
	.long	0x2c3
	.uleb128 0x23
	.long	.LASF83
	.byte	0x6
	.byte	0xa7
	.byte	0x7
	.long	.LASF458
	.byte	0x1
	.long	0x4534
	.long	0x4544
	.uleb128 0x2
	.long	0xa6c9
	.uleb128 0x1
	.long	0xa6dd
	.uleb128 0x1
	.long	0x4513
	.byte	0
	.uleb128 0x21
	.long	.LASF85
	.byte	0x6
	.byte	0xc2
	.byte	0x7
	.long	.LASF459
	.long	0x4513
	.byte	0x1
	.long	0x455d
	.long	0x4563
	.uleb128 0x2
	.long	0xa6e7
	.byte	0
	.uleb128 0x45
	.long	.LASF87
	.byte	0x6
	.byte	0xf2
	.byte	0x7
	.long	.LASF460
	.long	0x4513
	.long	0x457b
	.long	0x4581
	.uleb128 0x2
	.long	0xa6e7
	.byte	0
	.uleb128 0xf
	.string	"_Tp"
	.long	0x56
	.byte	0
	.uleb128 0x7
	.long	0x43ed
	.uleb128 0x3f
	.long	.LASF461
	.byte	0x1
	.byte	0x5
	.byte	0x85
	.long	0x4614
	.uleb128 0x47
	.long	0x43ed
	.byte	0x1
	.uleb128 0x23
	.long	.LASF90
	.byte	0x5
	.byte	0xa8
	.byte	0x7
	.long	.LASF462
	.byte	0x1
	.long	0x45b7
	.long	0x45bd
	.uleb128 0x2
	.long	0xa6fb
	.byte	0
	.uleb128 0x23
	.long	.LASF90
	.byte	0x5
	.byte	0xac
	.byte	0x7
	.long	.LASF463
	.byte	0x1
	.long	0x45d2
	.long	0x45dd
	.uleb128 0x2
	.long	0xa6fb
	.uleb128 0x1
	.long	0xa705
	.byte	0
	.uleb128 0x4e
	.long	.LASF36
	.byte	0x5
	.byte	0xb1
	.byte	0x12
	.long	.LASF464
	.long	0xa70a
	.long	0x45f5
	.long	0x4600
	.uleb128 0x2
	.long	0xa6fb
	.uleb128 0x1
	.long	0xa705
	.byte	0
	.uleb128 0x6d
	.long	.LASF94
	.long	.LASF465
	.long	0x460d
	.uleb128 0x2
	.long	0xa6fb
	.byte	0
	.byte	0
	.uleb128 0x7
	.long	0x4590
	.uleb128 0x59
	.long	.LASF466
	.byte	0x1
	.byte	0x8
	.value	0x248
	.byte	0xc
	.long	0x4717
	.uleb128 0x1d
	.long	.LASF75
	.byte	0x8
	.value	0x251
	.byte	0xd
	.long	0xa6dd
	.uleb128 0x16
	.long	.LASF80
	.byte	0x8
	.value	0x27d
	.byte	0x7
	.long	.LASF467
	.long	0x4627
	.long	0x4654
	.uleb128 0x1
	.long	0xa70f
	.uleb128 0x1
	.long	0x4666
	.byte	0
	.uleb128 0x1d
	.long	.LASF99
	.byte	0x8
	.value	0x24b
	.byte	0xd
	.long	0x4590
	.uleb128 0x7
	.long	0x4654
	.uleb128 0x1d
	.long	.LASF82
	.byte	0x8
	.value	0x260
	.byte	0xd
	.long	0x2c3
	.uleb128 0x16
	.long	.LASF80
	.byte	0x8
	.value	0x28c
	.byte	0x7
	.long	.LASF468
	.long	0x4627
	.long	0x4698
	.uleb128 0x1
	.long	0xa70f
	.uleb128 0x1
	.long	0x4666
	.uleb128 0x1
	.long	0x4698
	.byte	0
	.uleb128 0x1d
	.long	.LASF101
	.byte	0x8
	.value	0x25a
	.byte	0xd
	.long	0x9315
	.uleb128 0x37
	.long	.LASF83
	.byte	0x8
	.value	0x2b0
	.byte	0x7
	.long	.LASF469
	.long	0x46c6
	.uleb128 0x1
	.long	0xa70f
	.uleb128 0x1
	.long	0x4627
	.uleb128 0x1
	.long	0x4666
	.byte	0
	.uleb128 0x16
	.long	.LASF85
	.byte	0x8
	.value	0x2ed
	.byte	0x7
	.long	.LASF470
	.long	0x4666
	.long	0x46e1
	.uleb128 0x1
	.long	0xa714
	.byte	0
	.uleb128 0x16
	.long	.LASF103
	.byte	0x8
	.value	0x2fd
	.byte	0x7
	.long	.LASF471
	.long	0x4654
	.long	0x46fc
	.uleb128 0x1
	.long	0xa714
	.byte	0
	.uleb128 0x1d
	.long	.LASF7
	.byte	0x8
	.value	0x24e
	.byte	0xd
	.long	0x56
	.uleb128 0x1d
	.long	.LASF105
	.byte	0x8
	.value	0x26f
	.byte	0x8
	.long	0x4590
	.byte	0
	.uleb128 0x1a
	.long	.LASF472
	.byte	0x18
	.byte	0x2
	.byte	0x5b
	.byte	0xc
	.long	0x4ab8
	.uleb128 0x1a
	.long	.LASF107
	.byte	0x18
	.byte	0x2
	.byte	0x62
	.byte	0xe
	.long	0x47ca
	.uleb128 0x11
	.long	.LASF109
	.byte	0x2
	.byte	0x64
	.byte	0xa
	.long	0x47cf
	.byte	0
	.uleb128 0x11
	.long	.LASF110
	.byte	0x2
	.byte	0x65
	.byte	0xa
	.long	0x47cf
	.byte	0x8
	.uleb128 0x11
	.long	.LASF111
	.byte	0x2
	.byte	0x66
	.byte	0xa
	.long	0x47cf
	.byte	0x10
	.uleb128 0x22
	.long	.LASF107
	.byte	0x2
	.byte	0x69
	.byte	0x2
	.long	.LASF473
	.long	0x476c
	.long	0x4772
	.uleb128 0x2
	.long	0xa723
	.byte	0
	.uleb128 0x22
	.long	.LASF107
	.byte	0x2
	.byte	0x6f
	.byte	0x2
	.long	.LASF474
	.long	0x4786
	.long	0x4791
	.uleb128 0x2
	.long	0xa723
	.uleb128 0x1
	.long	0xa72d
	.byte	0
	.uleb128 0x22
	.long	.LASF114
	.byte	0x2
	.byte	0x77
	.byte	0x2
	.long	.LASF475
	.long	0x47a5
	.long	0x47b0
	.uleb128 0x2
	.long	0xa723
	.uleb128 0x1
	.long	0xa732
	.byte	0
	.uleb128 0x63
	.long	.LASF116
	.byte	0x80
	.long	.LASF476
	.long	0x47be
	.uleb128 0x2
	.long	0xa723
	.uleb128 0x1
	.long	0xa737
	.byte	0
	.byte	0
	.uleb128 0x7
	.long	0x4724
	.uleb128 0x8
	.long	.LASF75
	.byte	0x2
	.byte	0x60
	.byte	0x9
	.long	0x8df5
	.uleb128 0x1a
	.long	.LASF117
	.byte	0x18
	.byte	0x2
	.byte	0x8b
	.byte	0xe
	.long	0x48a1
	.uleb128 0x35
	.long	0x4590
	.uleb128 0x35
	.long	0x4724
	.uleb128 0x22
	.long	.LASF117
	.byte	0x2
	.byte	0x8f
	.byte	0x2
	.long	.LASF477
	.long	0x4806
	.long	0x480c
	.uleb128 0x2
	.long	0xa73c
	.byte	0
	.uleb128 0x22
	.long	.LASF117
	.byte	0x2
	.byte	0x98
	.byte	0x2
	.long	.LASF478
	.long	0x4820
	.long	0x482b
	.uleb128 0x2
	.long	0xa73c
	.uleb128 0x1
	.long	0xa746
	.byte	0
	.uleb128 0x22
	.long	.LASF117
	.byte	0x2
	.byte	0xa0
	.byte	0x2
	.long	.LASF479
	.long	0x483f
	.long	0x484a
	.uleb128 0x2
	.long	0xa73c
	.uleb128 0x1
	.long	0xa74b
	.byte	0
	.uleb128 0x22
	.long	.LASF117
	.byte	0x2
	.byte	0xa5
	.byte	0x2
	.long	.LASF480
	.long	0x485e
	.long	0x4869
	.uleb128 0x2
	.long	0xa73c
	.uleb128 0x1
	.long	0xa750
	.byte	0
	.uleb128 0x22
	.long	.LASF117
	.byte	0x2
	.byte	0xaa
	.byte	0x2
	.long	.LASF481
	.long	0x487d
	.long	0x488d
	.uleb128 0x2
	.long	0xa73c
	.uleb128 0x1
	.long	0xa750
	.uleb128 0x1
	.long	0xa74b
	.byte	0
	.uleb128 0x6e
	.long	.LASF482
	.long	.LASF484
	.long	0x489a
	.uleb128 0x2
	.long	0xa73c
	.byte	0
	.byte	0
	.uleb128 0x8
	.long	.LASF123
	.byte	0x2
	.byte	0x5e
	.byte	0x15
	.long	0x8e26
	.uleb128 0x7
	.long	0x48a1
	.uleb128 0x36
	.long	.LASF124
	.value	0x133
	.byte	0x7
	.long	.LASF485
	.long	0xa755
	.long	0x48ca
	.long	0x48d0
	.uleb128 0x2
	.long	0xa75a
	.byte	0
	.uleb128 0x36
	.long	.LASF124
	.value	0x138
	.byte	0x7
	.long	.LASF486
	.long	0xa746
	.long	0x48e8
	.long	0x48ee
	.uleb128 0x2
	.long	0xa764
	.byte	0
	.uleb128 0x1d
	.long	.LASF99
	.byte	0x2
	.value	0x12f
	.byte	0x16
	.long	0x4590
	.uleb128 0x7
	.long	0x48ee
	.uleb128 0x36
	.long	.LASF127
	.value	0x13d
	.byte	0x7
	.long	.LASF487
	.long	0x48ee
	.long	0x4918
	.long	0x491e
	.uleb128 0x2
	.long	0xa764
	.byte	0
	.uleb128 0x4f
	.long	.LASF129
	.value	0x141
	.long	.LASF488
	.long	0x4931
	.long	0x4937
	.uleb128 0x2
	.long	0xa75a
	.byte	0
	.uleb128 0x1c
	.long	.LASF129
	.value	0x147
	.long	.LASF489
	.long	0x494a
	.long	0x4955
	.uleb128 0x2
	.long	0xa75a
	.uleb128 0x1
	.long	0xa769
	.byte	0
	.uleb128 0x1c
	.long	.LASF129
	.value	0x14d
	.long	.LASF490
	.long	0x4968
	.long	0x4973
	.uleb128 0x2
	.long	0xa75a
	.uleb128 0x1
	.long	0x2c3
	.byte	0
	.uleb128 0x1c
	.long	.LASF129
	.value	0x153
	.long	.LASF491
	.long	0x4986
	.long	0x4996
	.uleb128 0x2
	.long	0xa75a
	.uleb128 0x1
	.long	0x2c3
	.uleb128 0x1
	.long	0xa769
	.byte	0
	.uleb128 0x4f
	.long	.LASF129
	.value	0x158
	.long	.LASF492
	.long	0x49a9
	.long	0x49b4
	.uleb128 0x2
	.long	0xa75a
	.uleb128 0x1
	.long	0xa76e
	.byte	0
	.uleb128 0x1c
	.long	.LASF129
	.value	0x15d
	.long	.LASF493
	.long	0x49c7
	.long	0x49d2
	.uleb128 0x2
	.long	0xa75a
	.uleb128 0x1
	.long	0xa750
	.byte	0
	.uleb128 0x1c
	.long	.LASF129
	.value	0x161
	.long	.LASF494
	.long	0x49e5
	.long	0x49f5
	.uleb128 0x2
	.long	0xa75a
	.uleb128 0x1
	.long	0xa76e
	.uleb128 0x1
	.long	0xa769
	.byte	0
	.uleb128 0x1c
	.long	.LASF129
	.value	0x16f
	.long	.LASF495
	.long	0x4a08
	.long	0x4a18
	.uleb128 0x2
	.long	0xa75a
	.uleb128 0x1
	.long	0xa769
	.uleb128 0x1
	.long	0xa76e
	.byte	0
	.uleb128 0x1c
	.long	.LASF138
	.value	0x175
	.long	.LASF496
	.long	0x4a2b
	.long	0x4a31
	.uleb128 0x2
	.long	0xa75a
	.byte	0
	.uleb128 0x50
	.long	.LASF140
	.value	0x17e
	.byte	0x14
	.long	0x47db
	.byte	0
	.uleb128 0x36
	.long	.LASF141
	.value	0x182
	.byte	0x7
	.long	.LASF497
	.long	0x47cf
	.long	0x4a56
	.long	0x4a61
	.uleb128 0x2
	.long	0xa75a
	.uleb128 0x1
	.long	0x2c3
	.byte	0
	.uleb128 0x1c
	.long	.LASF143
	.value	0x18a
	.long	.LASF498
	.long	0x4a74
	.long	0x4a84
	.uleb128 0x2
	.long	0xa75a
	.uleb128 0x1
	.long	0x47cf
	.uleb128 0x1
	.long	0x2c3
	.byte	0
	.uleb128 0x10
	.long	.LASF145
	.byte	0x2
	.value	0x195
	.byte	0x7
	.long	.LASF499
	.byte	0x2
	.long	0x4a9a
	.long	0x4aa5
	.uleb128 0x2
	.long	0xa75a
	.uleb128 0x1
	.long	0x2c3
	.byte	0
	.uleb128 0xf
	.string	"_Tp"
	.long	0x56
	.uleb128 0xa
	.long	.LASF147
	.long	0x4590
	.byte	0
	.uleb128 0x7
	.long	0x4717
	.uleb128 0x1a
	.long	.LASF500
	.byte	0x1
	.byte	0x13
	.byte	0xa9
	.byte	0xc
	.long	0x4ae0
	.uleb128 0x8
	.long	.LASF149
	.byte	0x13
	.byte	0xaa
	.byte	0xd
	.long	0x4590
	.uleb128 0xa
	.long	.LASF150
	.long	0x4590
	.byte	0
	.uleb128 0x48
	.long	.LASF501
	.byte	0x18
	.byte	0x2
	.value	0x1cc
	.long	0x5688
	.uleb128 0x19
	.byte	0x2
	.value	0x1cc
	.byte	0xb
	.long	0x4a3e
	.uleb128 0x19
	.byte	0x2
	.value	0x1cc
	.byte	0xb
	.long	0x4a61
	.uleb128 0x19
	.byte	0x2
	.value	0x1cc
	.byte	0xb
	.long	0x4a31
	.uleb128 0x19
	.byte	0x2
	.value	0x1cc
	.byte	0xb
	.long	0x48d0
	.uleb128 0x19
	.byte	0x2
	.value	0x1cc
	.byte	0xb
	.long	0x48b2
	.uleb128 0x19
	.byte	0x2
	.value	0x1cc
	.byte	0xb
	.long	0x4900
	.uleb128 0x47
	.long	0x4717
	.byte	0x2
	.uleb128 0x16
	.long	.LASF152
	.byte	0x2
	.value	0x1f6
	.byte	0x7
	.long	.LASF502
	.long	0x92c6
	.long	0x4b44
	.uleb128 0x1
	.long	0x643
	.byte	0
	.uleb128 0x16
	.long	.LASF152
	.byte	0x2
	.value	0x1ff
	.byte	0x7
	.long	.LASF503
	.long	0x92c6
	.long	0x4b5f
	.uleb128 0x1
	.long	0x3b3
	.byte	0
	.uleb128 0x6f
	.long	.LASF346
	.long	.LASF504
	.long	0x92c6
	.uleb128 0x14
	.long	.LASF75
	.byte	0x2
	.value	0x1e6
	.byte	0x29
	.long	0x47cf
	.uleb128 0x16
	.long	.LASF155
	.byte	0x2
	.value	0x20c
	.byte	0x7
	.long	.LASF505
	.long	0x4b6c
	.long	0x4ba3
	.uleb128 0x1
	.long	0x4b6c
	.uleb128 0x1
	.long	0x4b6c
	.uleb128 0x1
	.long	0x4b6c
	.uleb128 0x1
	.long	0xa773
	.byte	0
	.uleb128 0x1d
	.long	.LASF123
	.byte	0x2
	.value	0x1e1
	.byte	0x2f
	.long	0x48a1
	.uleb128 0x7
	.long	0x4ba3
	.uleb128 0x51
	.long	.LASF157
	.value	0x227
	.long	.LASF506
	.long	0x4bc8
	.long	0x4bce
	.uleb128 0x2
	.long	0xa778
	.byte	0
	.uleb128 0x40
	.long	.LASF157
	.byte	0x2
	.value	0x232
	.long	.LASF507
	.long	0x4be2
	.long	0x4bed
	.uleb128 0x2
	.long	0xa778
	.uleb128 0x1
	.long	0xa782
	.byte	0
	.uleb128 0x14
	.long	.LASF99
	.byte	0x2
	.value	0x1f1
	.byte	0x1a
	.long	0x4590
	.uleb128 0x7
	.long	0x4bed
	.uleb128 0x40
	.long	.LASF157
	.byte	0x2
	.value	0x240
	.long	.LASF508
	.long	0x4c13
	.long	0x4c23
	.uleb128 0x2
	.long	0xa778
	.uleb128 0x1
	.long	0x4c23
	.uleb128 0x1
	.long	0xa782
	.byte	0
	.uleb128 0x14
	.long	.LASF82
	.byte	0x2
	.value	0x1ef
	.byte	0x1a
	.long	0x2c3
	.uleb128 0x10
	.long	.LASF157
	.byte	0x2
	.value	0x24d
	.byte	0x7
	.long	.LASF509
	.byte	0x1
	.long	0x4c46
	.long	0x4c5b
	.uleb128 0x2
	.long	0xa778
	.uleb128 0x1
	.long	0x4c23
	.uleb128 0x1
	.long	0xa787
	.uleb128 0x1
	.long	0xa782
	.byte	0
	.uleb128 0x14
	.long	.LASF7
	.byte	0x2
	.value	0x1e5
	.byte	0x17
	.long	0x56
	.uleb128 0x7
	.long	0x4c5b
	.uleb128 0x10
	.long	.LASF157
	.byte	0x2
	.value	0x26d
	.byte	0x7
	.long	.LASF510
	.byte	0x1
	.long	0x4c83
	.long	0x4c8e
	.uleb128 0x2
	.long	0xa778
	.uleb128 0x1
	.long	0xa78c
	.byte	0
	.uleb128 0x51
	.long	.LASF157
	.value	0x280
	.long	.LASF511
	.long	0x4ca1
	.long	0x4cac
	.uleb128 0x2
	.long	0xa778
	.uleb128 0x1
	.long	0xa791
	.byte	0
	.uleb128 0x10
	.long	.LASF157
	.byte	0x2
	.value	0x284
	.byte	0x7
	.long	.LASF512
	.byte	0x1
	.long	0x4cc2
	.long	0x4cd2
	.uleb128 0x2
	.long	0xa778
	.uleb128 0x1
	.long	0xa78c
	.uleb128 0x1
	.long	0xa796
	.byte	0
	.uleb128 0x1c
	.long	.LASF157
	.value	0x28f
	.long	.LASF513
	.long	0x4ce5
	.long	0x4cfa
	.uleb128 0x2
	.long	0xa778
	.uleb128 0x1
	.long	0xa791
	.uleb128 0x1
	.long	0xa782
	.uleb128 0x1
	.long	0x643
	.byte	0
	.uleb128 0x1c
	.long	.LASF157
	.value	0x294
	.long	.LASF514
	.long	0x4d0d
	.long	0x4d22
	.uleb128 0x2
	.long	0xa778
	.uleb128 0x1
	.long	0xa791
	.uleb128 0x1
	.long	0xa782
	.uleb128 0x1
	.long	0x3b3
	.byte	0
	.uleb128 0x10
	.long	.LASF157
	.byte	0x2
	.value	0x2a7
	.byte	0x7
	.long	.LASF515
	.byte	0x1
	.long	0x4d38
	.long	0x4d48
	.uleb128 0x2
	.long	0xa778
	.uleb128 0x1
	.long	0xa791
	.uleb128 0x1
	.long	0xa796
	.byte	0
	.uleb128 0x10
	.long	.LASF157
	.byte	0x2
	.value	0x2ba
	.byte	0x7
	.long	.LASF516
	.byte	0x1
	.long	0x4d5e
	.long	0x4d6e
	.uleb128 0x2
	.long	0xa778
	.uleb128 0x1
	.long	0x569e
	.uleb128 0x1
	.long	0xa782
	.byte	0
	.uleb128 0x10
	.long	.LASF169
	.byte	0x2
	.value	0x316
	.byte	0x7
	.long	.LASF517
	.byte	0x1
	.long	0x4d84
	.long	0x4d8a
	.uleb128 0x2
	.long	0xa778
	.byte	0
	.uleb128 0x21
	.long	.LASF36
	.byte	0x7
	.byte	0xd6
	.byte	0x5
	.long	.LASF518
	.long	0xa79b
	.byte	0x1
	.long	0x4da3
	.long	0x4dae
	.uleb128 0x2
	.long	0xa778
	.uleb128 0x1
	.long	0xa78c
	.byte	0
	.uleb128 0x6
	.long	.LASF36
	.byte	0x2
	.value	0x337
	.byte	0x7
	.long	.LASF519
	.long	0xa79b
	.byte	0x1
	.long	0x4dc8
	.long	0x4dd3
	.uleb128 0x2
	.long	0xa778
	.uleb128 0x1
	.long	0xa791
	.byte	0
	.uleb128 0x6
	.long	.LASF36
	.byte	0x2
	.value	0x34d
	.byte	0x7
	.long	.LASF520
	.long	0xa79b
	.byte	0x1
	.long	0x4ded
	.long	0x4df8
	.uleb128 0x2
	.long	0xa778
	.uleb128 0x1
	.long	0x569e
	.byte	0
	.uleb128 0x10
	.long	.LASF174
	.byte	0x2
	.value	0x361
	.byte	0x7
	.long	.LASF521
	.byte	0x1
	.long	0x4e0e
	.long	0x4e1e
	.uleb128 0x2
	.long	0xa778
	.uleb128 0x1
	.long	0x4c23
	.uleb128 0x1
	.long	0xa787
	.byte	0
	.uleb128 0x10
	.long	.LASF174
	.byte	0x2
	.value	0x390
	.byte	0x7
	.long	.LASF522
	.byte	0x1
	.long	0x4e34
	.long	0x4e3f
	.uleb128 0x2
	.long	0xa778
	.uleb128 0x1
	.long	0x569e
	.byte	0
	.uleb128 0x14
	.long	.LASF177
	.byte	0x2
	.value	0x1ea
	.byte	0x3d
	.long	0x8e46
	.uleb128 0x6
	.long	.LASF178
	.byte	0x2
	.value	0x3dc
	.byte	0x7
	.long	.LASF523
	.long	0x4e3f
	.byte	0x1
	.long	0x4e66
	.long	0x4e6c
	.uleb128 0x2
	.long	0xa778
	.byte	0
	.uleb128 0x14
	.long	.LASF180
	.byte	0x2
	.value	0x1ec
	.byte	0x7
	.long	0x8e4b
	.uleb128 0x6
	.long	.LASF178
	.byte	0x2
	.value	0x3e6
	.byte	0x7
	.long	.LASF524
	.long	0x4e6c
	.byte	0x1
	.long	0x4e93
	.long	0x4e99
	.uleb128 0x2
	.long	0xa7a0
	.byte	0
	.uleb128 0x39
	.string	"end"
	.value	0x3f0
	.long	.LASF525
	.long	0x4e3f
	.long	0x4eb0
	.long	0x4eb6
	.uleb128 0x2
	.long	0xa778
	.byte	0
	.uleb128 0x39
	.string	"end"
	.value	0x3fa
	.long	.LASF526
	.long	0x4e6c
	.long	0x4ecd
	.long	0x4ed3
	.uleb128 0x2
	.long	0xa7a0
	.byte	0
	.uleb128 0x14
	.long	.LASF184
	.byte	0x2
	.value	0x1ee
	.byte	0x30
	.long	0x5790
	.uleb128 0x6
	.long	.LASF185
	.byte	0x2
	.value	0x404
	.byte	0x7
	.long	.LASF527
	.long	0x4ed3
	.byte	0x1
	.long	0x4efa
	.long	0x4f00
	.uleb128 0x2
	.long	0xa778
	.byte	0
	.uleb128 0x14
	.long	.LASF187
	.byte	0x2
	.value	0x1ed
	.byte	0x35
	.long	0x5795
	.uleb128 0x6
	.long	.LASF185
	.byte	0x2
	.value	0x40e
	.byte	0x7
	.long	.LASF528
	.long	0x4f00
	.byte	0x1
	.long	0x4f27
	.long	0x4f2d
	.uleb128 0x2
	.long	0xa7a0
	.byte	0
	.uleb128 0x6
	.long	.LASF189
	.byte	0x2
	.value	0x418
	.byte	0x7
	.long	.LASF529
	.long	0x4ed3
	.byte	0x1
	.long	0x4f47
	.long	0x4f4d
	.uleb128 0x2
	.long	0xa778
	.byte	0
	.uleb128 0x6
	.long	.LASF189
	.byte	0x2
	.value	0x422
	.byte	0x7
	.long	.LASF530
	.long	0x4f00
	.byte	0x1
	.long	0x4f67
	.long	0x4f6d
	.uleb128 0x2
	.long	0xa7a0
	.byte	0
	.uleb128 0x6
	.long	.LASF192
	.byte	0x2
	.value	0x42d
	.byte	0x7
	.long	.LASF531
	.long	0x4e6c
	.byte	0x1
	.long	0x4f87
	.long	0x4f8d
	.uleb128 0x2
	.long	0xa7a0
	.byte	0
	.uleb128 0x6
	.long	.LASF194
	.byte	0x2
	.value	0x437
	.byte	0x7
	.long	.LASF532
	.long	0x4e6c
	.byte	0x1
	.long	0x4fa7
	.long	0x4fad
	.uleb128 0x2
	.long	0xa7a0
	.byte	0
	.uleb128 0x6
	.long	.LASF196
	.byte	0x2
	.value	0x441
	.byte	0x7
	.long	.LASF533
	.long	0x4f00
	.byte	0x1
	.long	0x4fc7
	.long	0x4fcd
	.uleb128 0x2
	.long	0xa7a0
	.byte	0
	.uleb128 0x6
	.long	.LASF198
	.byte	0x2
	.value	0x44b
	.byte	0x7
	.long	.LASF534
	.long	0x4f00
	.byte	0x1
	.long	0x4fe7
	.long	0x4fed
	.uleb128 0x2
	.long	0xa7a0
	.byte	0
	.uleb128 0x6
	.long	.LASF200
	.byte	0x2
	.value	0x453
	.byte	0x7
	.long	.LASF535
	.long	0x4c23
	.byte	0x1
	.long	0x5007
	.long	0x500d
	.uleb128 0x2
	.long	0xa7a0
	.byte	0
	.uleb128 0x6
	.long	.LASF85
	.byte	0x2
	.value	0x45e
	.byte	0x7
	.long	.LASF536
	.long	0x4c23
	.byte	0x1
	.long	0x5027
	.long	0x502d
	.uleb128 0x2
	.long	0xa7a0
	.byte	0
	.uleb128 0x10
	.long	.LASF203
	.byte	0x2
	.value	0x46d
	.byte	0x7
	.long	.LASF537
	.byte	0x1
	.long	0x5043
	.long	0x504e
	.uleb128 0x2
	.long	0xa778
	.uleb128 0x1
	.long	0x4c23
	.byte	0
	.uleb128 0x10
	.long	.LASF203
	.byte	0x2
	.value	0x482
	.byte	0x7
	.long	.LASF538
	.byte	0x1
	.long	0x5064
	.long	0x5074
	.uleb128 0x2
	.long	0xa778
	.uleb128 0x1
	.long	0x4c23
	.uleb128 0x1
	.long	0xa787
	.byte	0
	.uleb128 0x10
	.long	.LASF206
	.byte	0x2
	.value	0x4a4
	.byte	0x7
	.long	.LASF539
	.byte	0x1
	.long	0x508a
	.long	0x5090
	.uleb128 0x2
	.long	0xa778
	.byte	0
	.uleb128 0x6
	.long	.LASF208
	.byte	0x2
	.value	0x4ae
	.byte	0x7
	.long	.LASF540
	.long	0x4c23
	.byte	0x1
	.long	0x50aa
	.long	0x50b0
	.uleb128 0x2
	.long	0xa7a0
	.byte	0
	.uleb128 0x6
	.long	.LASF210
	.byte	0x2
	.value	0x4bd
	.byte	0x7
	.long	.LASF541
	.long	0x92c6
	.byte	0x1
	.long	0x50ca
	.long	0x50d0
	.uleb128 0x2
	.long	0xa7a0
	.byte	0
	.uleb128 0x23
	.long	.LASF212
	.byte	0x7
	.byte	0x46
	.byte	0x5
	.long	.LASF542
	.byte	0x1
	.long	0x50e5
	.long	0x50f0
	.uleb128 0x2
	.long	0xa778
	.uleb128 0x1
	.long	0x4c23
	.byte	0
	.uleb128 0x14
	.long	.LASF76
	.byte	0x2
	.value	0x1e8
	.byte	0x32
	.long	0x8e01
	.uleb128 0x6
	.long	.LASF214
	.byte	0x2
	.value	0x4e3
	.byte	0x7
	.long	.LASF543
	.long	0x50f0
	.byte	0x1
	.long	0x5117
	.long	0x5122
	.uleb128 0x2
	.long	0xa778
	.uleb128 0x1
	.long	0x4c23
	.byte	0
	.uleb128 0x14
	.long	.LASF79
	.byte	0x2
	.value	0x1e9
	.byte	0x37
	.long	0x8e0d
	.uleb128 0x6
	.long	.LASF214
	.byte	0x2
	.value	0x4f6
	.byte	0x7
	.long	.LASF544
	.long	0x5122
	.byte	0x1
	.long	0x5149
	.long	0x5154
	.uleb128 0x2
	.long	0xa7a0
	.uleb128 0x1
	.long	0x4c23
	.byte	0
	.uleb128 0x10
	.long	.LASF217
	.byte	0x2
	.value	0x500
	.byte	0x7
	.long	.LASF545
	.byte	0x2
	.long	0x516a
	.long	0x5175
	.uleb128 0x2
	.long	0xa7a0
	.uleb128 0x1
	.long	0x4c23
	.byte	0
	.uleb128 0x39
	.string	"at"
	.value	0x517
	.long	.LASF546
	.long	0x50f0
	.long	0x518b
	.long	0x5196
	.uleb128 0x2
	.long	0xa778
	.uleb128 0x1
	.long	0x4c23
	.byte	0
	.uleb128 0x39
	.string	"at"
	.value	0x52a
	.long	.LASF547
	.long	0x5122
	.long	0x51ac
	.long	0x51b7
	.uleb128 0x2
	.long	0xa7a0
	.uleb128 0x1
	.long	0x4c23
	.byte	0
	.uleb128 0x6
	.long	.LASF221
	.byte	0x2
	.value	0x536
	.byte	0x7
	.long	.LASF548
	.long	0x50f0
	.byte	0x1
	.long	0x51d1
	.long	0x51d7
	.uleb128 0x2
	.long	0xa778
	.byte	0
	.uleb128 0x6
	.long	.LASF221
	.byte	0x2
	.value	0x542
	.byte	0x7
	.long	.LASF549
	.long	0x5122
	.byte	0x1
	.long	0x51f1
	.long	0x51f7
	.uleb128 0x2
	.long	0xa7a0
	.byte	0
	.uleb128 0x6
	.long	.LASF224
	.byte	0x2
	.value	0x54e
	.byte	0x7
	.long	.LASF550
	.long	0x50f0
	.byte	0x1
	.long	0x5211
	.long	0x5217
	.uleb128 0x2
	.long	0xa778
	.byte	0
	.uleb128 0x6
	.long	.LASF224
	.byte	0x2
	.value	0x55a
	.byte	0x7
	.long	.LASF551
	.long	0x5122
	.byte	0x1
	.long	0x5231
	.long	0x5237
	.uleb128 0x2
	.long	0xa7a0
	.byte	0
	.uleb128 0x6
	.long	.LASF227
	.byte	0x2
	.value	0x569
	.byte	0x7
	.long	.LASF552
	.long	0xa6dd
	.byte	0x1
	.long	0x5251
	.long	0x5257
	.uleb128 0x2
	.long	0xa778
	.byte	0
	.uleb128 0x6
	.long	.LASF227
	.byte	0x2
	.value	0x56e
	.byte	0x7
	.long	.LASF553
	.long	0x788d
	.byte	0x1
	.long	0x5271
	.long	0x5277
	.uleb128 0x2
	.long	0xa7a0
	.byte	0
	.uleb128 0x10
	.long	.LASF230
	.byte	0x2
	.value	0x57e
	.byte	0x7
	.long	.LASF554
	.byte	0x1
	.long	0x528d
	.long	0x5298
	.uleb128 0x2
	.long	0xa778
	.uleb128 0x1
	.long	0xa787
	.byte	0
	.uleb128 0x10
	.long	.LASF230
	.byte	0x2
	.value	0x58f
	.byte	0x7
	.long	.LASF555
	.byte	0x1
	.long	0x52ae
	.long	0x52b9
	.uleb128 0x2
	.long	0xa778
	.uleb128 0x1
	.long	0xa7a5
	.byte	0
	.uleb128 0x10
	.long	.LASF233
	.byte	0x2
	.value	0x5a7
	.byte	0x7
	.long	.LASF556
	.byte	0x1
	.long	0x52cf
	.long	0x52d5
	.uleb128 0x2
	.long	0xa778
	.byte	0
	.uleb128 0x21
	.long	.LASF235
	.byte	0x7
	.byte	0x89
	.byte	0x5
	.long	.LASF557
	.long	0x4e3f
	.byte	0x1
	.long	0x52ee
	.long	0x52fe
	.uleb128 0x2
	.long	0xa778
	.uleb128 0x1
	.long	0x4e6c
	.uleb128 0x1
	.long	0xa787
	.byte	0
	.uleb128 0x6
	.long	.LASF235
	.byte	0x2
	.value	0x5ee
	.byte	0x7
	.long	.LASF558
	.long	0x4e3f
	.byte	0x1
	.long	0x5318
	.long	0x5328
	.uleb128 0x2
	.long	0xa778
	.uleb128 0x1
	.long	0x4e6c
	.uleb128 0x1
	.long	0xa7a5
	.byte	0
	.uleb128 0x6
	.long	.LASF235
	.byte	0x2
	.value	0x600
	.byte	0x7
	.long	.LASF559
	.long	0x4e3f
	.byte	0x1
	.long	0x5342
	.long	0x5352
	.uleb128 0x2
	.long	0xa778
	.uleb128 0x1
	.long	0x4e6c
	.uleb128 0x1
	.long	0x569e
	.byte	0
	.uleb128 0x6
	.long	.LASF235
	.byte	0x2
	.value	0x61a
	.byte	0x7
	.long	.LASF560
	.long	0x4e3f
	.byte	0x1
	.long	0x536c
	.long	0x5381
	.uleb128 0x2
	.long	0xa778
	.uleb128 0x1
	.long	0x4e6c
	.uleb128 0x1
	.long	0x4c23
	.uleb128 0x1
	.long	0xa787
	.byte	0
	.uleb128 0x6
	.long	.LASF240
	.byte	0x2
	.value	0x6f6
	.byte	0x7
	.long	.LASF561
	.long	0x4e3f
	.byte	0x1
	.long	0x539b
	.long	0x53a6
	.uleb128 0x2
	.long	0xa778
	.uleb128 0x1
	.long	0x4e6c
	.byte	0
	.uleb128 0x6
	.long	.LASF240
	.byte	0x2
	.value	0x712
	.byte	0x7
	.long	.LASF562
	.long	0x4e3f
	.byte	0x1
	.long	0x53c0
	.long	0x53d0
	.uleb128 0x2
	.long	0xa778
	.uleb128 0x1
	.long	0x4e6c
	.uleb128 0x1
	.long	0x4e6c
	.byte	0
	.uleb128 0x10
	.long	.LASF41
	.byte	0x2
	.value	0x72a
	.byte	0x7
	.long	.LASF563
	.byte	0x1
	.long	0x53e6
	.long	0x53f1
	.uleb128 0x2
	.long	0xa778
	.uleb128 0x1
	.long	0xa79b
	.byte	0
	.uleb128 0x10
	.long	.LASF244
	.byte	0x2
	.value	0x73d
	.byte	0x7
	.long	.LASF564
	.byte	0x1
	.long	0x5407
	.long	0x540d
	.uleb128 0x2
	.long	0xa778
	.byte	0
	.uleb128 0x10
	.long	.LASF246
	.byte	0x2
	.value	0x7c3
	.byte	0x7
	.long	.LASF565
	.byte	0x2
	.long	0x5423
	.long	0x5433
	.uleb128 0x2
	.long	0xa778
	.uleb128 0x1
	.long	0x4c23
	.uleb128 0x1
	.long	0xa787
	.byte	0
	.uleb128 0x10
	.long	.LASF248
	.byte	0x2
	.value	0x7ce
	.byte	0x7
	.long	.LASF566
	.byte	0x2
	.long	0x5449
	.long	0x5454
	.uleb128 0x2
	.long	0xa778
	.uleb128 0x1
	.long	0x4c23
	.byte	0
	.uleb128 0x10
	.long	.LASF250
	.byte	0x7
	.value	0x112
	.byte	0x5
	.long	.LASF567
	.byte	0x2
	.long	0x546a
	.long	0x547a
	.uleb128 0x2
	.long	0xa778
	.uleb128 0x1
	.long	0x2c3
	.uleb128 0x1
	.long	0xa787
	.byte	0
	.uleb128 0x10
	.long	.LASF252
	.byte	0x7
	.value	0x296
	.byte	0x5
	.long	.LASF568
	.byte	0x2
	.long	0x5490
	.long	0x54a5
	.uleb128 0x2
	.long	0xa778
	.uleb128 0x1
	.long	0x4e3f
	.uleb128 0x1
	.long	0x4c23
	.uleb128 0x1
	.long	0xa787
	.byte	0
	.uleb128 0x10
	.long	.LASF254
	.byte	0x7
	.value	0x300
	.byte	0x5
	.long	.LASF569
	.byte	0x2
	.long	0x54bb
	.long	0x54cb
	.uleb128 0x2
	.long	0xa778
	.uleb128 0x1
	.long	0x4c23
	.uleb128 0x1
	.long	0xa787
	.byte	0
	.uleb128 0x10
	.long	.LASF256
	.byte	0x7
	.value	0x339
	.byte	0x5
	.long	.LASF570
	.byte	0x2
	.long	0x54e1
	.long	0x54ec
	.uleb128 0x2
	.long	0xa778
	.uleb128 0x1
	.long	0x4c23
	.byte	0
	.uleb128 0x6
	.long	.LASF258
	.byte	0x7
	.value	0x396
	.byte	0x5
	.long	.LASF571
	.long	0x92c6
	.byte	0x2
	.long	0x5506
	.long	0x550c
	.uleb128 0x2
	.long	0xa778
	.byte	0
	.uleb128 0x6
	.long	.LASF260
	.byte	0x7
	.value	0x16f
	.byte	0x5
	.long	.LASF572
	.long	0x4e3f
	.byte	0x2
	.long	0x5526
	.long	0x5536
	.uleb128 0x2
	.long	0xa778
	.uleb128 0x1
	.long	0x4e6c
	.uleb128 0x1
	.long	0xa7a5
	.byte	0
	.uleb128 0x6
	.long	.LASF262
	.byte	0x2
	.value	0x889
	.byte	0x7
	.long	.LASF573
	.long	0x4e3f
	.byte	0x2
	.long	0x5550
	.long	0x5560
	.uleb128 0x2
	.long	0xa778
	.uleb128 0x1
	.long	0x4e6c
	.uleb128 0x1
	.long	0xa7a5
	.byte	0
	.uleb128 0x6
	.long	.LASF264
	.byte	0x2
	.value	0x890
	.byte	0x7
	.long	.LASF574
	.long	0x4c23
	.byte	0x2
	.long	0x557a
	.long	0x558a
	.uleb128 0x2
	.long	0xa7a0
	.uleb128 0x1
	.long	0x4c23
	.uleb128 0x1
	.long	0x7892
	.byte	0
	.uleb128 0x52
	.long	.LASF266
	.value	0x89b
	.long	.LASF575
	.long	0x4c23
	.long	0x55a8
	.uleb128 0x1
	.long	0x4c23
	.uleb128 0x1
	.long	0xa782
	.byte	0
	.uleb128 0x52
	.long	.LASF268
	.value	0x8a4
	.long	.LASF576
	.long	0x4c23
	.long	0x55c1
	.uleb128 0x1
	.long	0xa7aa
	.byte	0
	.uleb128 0x10
	.long	.LASF270
	.byte	0x2
	.value	0x8b5
	.byte	0x7
	.long	.LASF577
	.byte	0x2
	.long	0x55d7
	.long	0x55e2
	.uleb128 0x2
	.long	0xa778
	.uleb128 0x1
	.long	0x4b6c
	.byte	0
	.uleb128 0x21
	.long	.LASF272
	.byte	0x7
	.byte	0xb9
	.byte	0x5
	.long	.LASF578
	.long	0x4e3f
	.byte	0x2
	.long	0x55fb
	.long	0x5606
	.uleb128 0x2
	.long	0xa778
	.uleb128 0x1
	.long	0x4e3f
	.byte	0
	.uleb128 0x21
	.long	.LASF272
	.byte	0x7
	.byte	0xc7
	.byte	0x5
	.long	.LASF579
	.long	0x4e3f
	.byte	0x2
	.long	0x561f
	.long	0x562f
	.uleb128 0x2
	.long	0xa778
	.uleb128 0x1
	.long	0x4e3f
	.uleb128 0x1
	.long	0x4e3f
	.byte	0
	.uleb128 0x1c
	.long	.LASF275
	.value	0x8cf
	.long	.LASF580
	.long	0x5642
	.long	0x5652
	.uleb128 0x2
	.long	0xa778
	.uleb128 0x1
	.long	0xa791
	.uleb128 0x1
	.long	0x643
	.byte	0
	.uleb128 0x1c
	.long	.LASF275
	.value	0x8db
	.long	.LASF581
	.long	0x5665
	.long	0x5675
	.uleb128 0x2
	.long	0xa778
	.uleb128 0x1
	.long	0xa791
	.uleb128 0x1
	.long	0x3b3
	.byte	0
	.uleb128 0xf
	.string	"_Tp"
	.long	0x56
	.uleb128 0x64
	.long	.LASF147
	.long	0x4590
	.byte	0
	.uleb128 0x7
	.long	0x4ae0
	.uleb128 0x8
	.long	.LASF280
	.byte	0x13
	.byte	0xad
	.byte	0xb
	.long	0x4aca
	.uleb128 0x7
	.long	0x568d
	.uleb128 0x3f
	.long	.LASF582
	.byte	0x10
	.byte	0x24
	.byte	0x2f
	.long	0x578b
	.uleb128 0x27
	.long	.LASF177
	.byte	0x24
	.byte	0x36
	.byte	0x1a
	.long	0x788d
	.uleb128 0x11
	.long	.LASF583
	.byte	0x24
	.byte	0x3a
	.byte	0x12
	.long	0x56aa
	.byte	0
	.uleb128 0x27
	.long	.LASF82
	.byte	0x24
	.byte	0x35
	.byte	0x18
	.long	0x2c3
	.uleb128 0x11
	.long	.LASF440
	.byte	0x24
	.byte	0x3b
	.byte	0x13
	.long	0x56c3
	.byte	0x8
	.uleb128 0x22
	.long	.LASF584
	.byte	0x24
	.byte	0x3e
	.byte	0x11
	.long	.LASF585
	.long	0x56f0
	.long	0x5700
	.uleb128 0x2
	.long	0xa7af
	.uleb128 0x1
	.long	0x5700
	.uleb128 0x1
	.long	0x56c3
	.byte	0
	.uleb128 0x27
	.long	.LASF180
	.byte	0x24
	.byte	0x37
	.byte	0x1a
	.long	0x788d
	.uleb128 0x23
	.long	.LASF584
	.byte	0x24
	.byte	0x42
	.byte	0x11
	.long	.LASF586
	.byte	0x1
	.long	0x5721
	.long	0x5727
	.uleb128 0x2
	.long	0xa7af
	.byte	0
	.uleb128 0x21
	.long	.LASF200
	.byte	0x24
	.byte	0x47
	.byte	0x7
	.long	.LASF587
	.long	0x56c3
	.byte	0x1
	.long	0x5740
	.long	0x5746
	.uleb128 0x2
	.long	0xa7b4
	.byte	0
	.uleb128 0x21
	.long	.LASF178
	.byte	0x24
	.byte	0x4b
	.byte	0x7
	.long	.LASF588
	.long	0x5700
	.byte	0x1
	.long	0x575f
	.long	0x5765
	.uleb128 0x2
	.long	0xa7b4
	.byte	0
	.uleb128 0x8d
	.string	"end"
	.byte	0x4f
	.long	.LASF729
	.long	0x5700
	.long	0x577c
	.long	0x5782
	.uleb128 0x2
	.long	0xa7b4
	.byte	0
	.uleb128 0xf
	.string	"_E"
	.long	0x56
	.byte	0
	.uleb128 0x7
	.long	0x569e
	.uleb128 0x33
	.long	.LASF589
	.uleb128 0x33
	.long	.LASF590
	.uleb128 0x1a
	.long	.LASF591
	.byte	0x1
	.byte	0x16
	.byte	0xd4
	.byte	0xc
	.long	0x57d5
	.uleb128 0x8
	.long	.LASF448
	.byte	0x16
	.byte	0xd8
	.byte	0x2b
	.long	0x636
	.uleb128 0x8
	.long	.LASF75
	.byte	0x16
	.byte	0xd9
	.byte	0x2b
	.long	0xa5ca
	.uleb128 0x8
	.long	.LASF76
	.byte	0x16
	.byte	0xda
	.byte	0x2b
	.long	0xa5de
	.uleb128 0xa
	.long	.LASF449
	.long	0xa5ca
	.byte	0
	.uleb128 0x3f
	.long	.LASF592
	.byte	0x1
	.byte	0x6
	.byte	0x3f
	.long	0x5973
	.uleb128 0x23
	.long	.LASF65
	.byte	0x6
	.byte	0x58
	.byte	0x7
	.long	.LASF593
	.byte	0x1
	.long	0x57f6
	.long	0x57fc
	.uleb128 0x2
	.long	0xa7d7
	.byte	0
	.uleb128 0x23
	.long	.LASF65
	.byte	0x6
	.byte	0x5c
	.byte	0x7
	.long	.LASF594
	.byte	0x1
	.long	0x5811
	.long	0x581c
	.uleb128 0x2
	.long	0xa7d7
	.uleb128 0x1
	.long	0xa7e1
	.byte	0
	.uleb128 0x4e
	.long	.LASF36
	.byte	0x6
	.byte	0x64
	.byte	0x18
	.long	.LASF595
	.long	0xa7e6
	.long	0x5834
	.long	0x583f
	.uleb128 0x2
	.long	0xa7d7
	.uleb128 0x1
	.long	0xa7e1
	.byte	0
	.uleb128 0x23
	.long	.LASF71
	.byte	0x6
	.byte	0x68
	.byte	0x7
	.long	.LASF596
	.byte	0x1
	.long	0x5854
	.long	0x585a
	.uleb128 0x2
	.long	0xa7d7
	.byte	0
	.uleb128 0x27
	.long	.LASF75
	.byte	0x6
	.byte	0x46
	.byte	0x1a
	.long	0xa7eb
	.uleb128 0x21
	.long	.LASF73
	.byte	0x6
	.byte	0x6b
	.byte	0x7
	.long	.LASF597
	.long	0x585a
	.byte	0x1
	.long	0x587f
	.long	0x588a
	.uleb128 0x2
	.long	0xa7f5
	.uleb128 0x1
	.long	0x588a
	.byte	0
	.uleb128 0x27
	.long	.LASF76
	.byte	0x6
	.byte	0x48
	.byte	0x1a
	.long	0xa7ff
	.uleb128 0x27
	.long	.LASF77
	.byte	0x6
	.byte	0x47
	.byte	0x1a
	.long	0xa804
	.uleb128 0x21
	.long	.LASF73
	.byte	0x6
	.byte	0x6f
	.byte	0x7
	.long	.LASF598
	.long	0x5896
	.byte	0x1
	.long	0x58bb
	.long	0x58c6
	.uleb128 0x2
	.long	0xa7f5
	.uleb128 0x1
	.long	0x58c6
	.byte	0
	.uleb128 0x27
	.long	.LASF79
	.byte	0x6
	.byte	0x49
	.byte	0x1a
	.long	0xa809
	.uleb128 0x21
	.long	.LASF80
	.byte	0x6
	.byte	0x81
	.byte	0x7
	.long	.LASF599
	.long	0xa7eb
	.byte	0x1
	.long	0x58eb
	.long	0x58fb
	.uleb128 0x2
	.long	0xa7d7
	.uleb128 0x1
	.long	0x58fb
	.uleb128 0x1
	.long	0x9315
	.byte	0
	.uleb128 0x27
	.long	.LASF82
	.byte	0x6
	.byte	0x43
	.byte	0x1f
	.long	0x2c3
	.uleb128 0x23
	.long	.LASF83
	.byte	0x6
	.byte	0xa7
	.byte	0x7
	.long	.LASF600
	.byte	0x1
	.long	0x591c
	.long	0x592c
	.uleb128 0x2
	.long	0xa7d7
	.uleb128 0x1
	.long	0xa7eb
	.uleb128 0x1
	.long	0x58fb
	.byte	0
	.uleb128 0x21
	.long	.LASF85
	.byte	0x6
	.byte	0xc2
	.byte	0x7
	.long	.LASF601
	.long	0x58fb
	.byte	0x1
	.long	0x5945
	.long	0x594b
	.uleb128 0x2
	.long	0xa7f5
	.byte	0
	.uleb128 0x45
	.long	.LASF87
	.byte	0x6
	.byte	0xf2
	.byte	0x7
	.long	.LASF602
	.long	0x58fb
	.long	0x5963
	.long	0x5969
	.uleb128 0x2
	.long	0xa7f5
	.byte	0
	.uleb128 0xf
	.string	"_Tp"
	.long	0x30
	.byte	0
	.uleb128 0x7
	.long	0x57d5
	.uleb128 0x3f
	.long	.LASF603
	.byte	0x1
	.byte	0x5
	.byte	0x85
	.long	0x59fc
	.uleb128 0x47
	.long	0x57d5
	.byte	0x1
	.uleb128 0x23
	.long	.LASF90
	.byte	0x5
	.byte	0xa8
	.byte	0x7
	.long	.LASF604
	.byte	0x1
	.long	0x599f
	.long	0x59a5
	.uleb128 0x2
	.long	0xa80e
	.byte	0
	.uleb128 0x23
	.long	.LASF90
	.byte	0x5
	.byte	0xac
	.byte	0x7
	.long	.LASF605
	.byte	0x1
	.long	0x59ba
	.long	0x59c5
	.uleb128 0x2
	.long	0xa80e
	.uleb128 0x1
	.long	0xa818
	.byte	0
	.uleb128 0x4e
	.long	.LASF36
	.byte	0x5
	.byte	0xb1
	.byte	0x12
	.long	.LASF606
	.long	0xa81d
	.long	0x59dd
	.long	0x59e8
	.uleb128 0x2
	.long	0xa80e
	.uleb128 0x1
	.long	0xa818
	.byte	0
	.uleb128 0x6d
	.long	.LASF94
	.long	.LASF607
	.long	0x59f5
	.uleb128 0x2
	.long	0xa80e
	.byte	0
	.byte	0
	.uleb128 0x7
	.long	0x5978
	.uleb128 0x59
	.long	.LASF608
	.byte	0x1
	.byte	0x8
	.value	0x248
	.byte	0xc
	.long	0x5aff
	.uleb128 0x1d
	.long	.LASF75
	.byte	0x8
	.value	0x251
	.byte	0xd
	.long	0xa7eb
	.uleb128 0x16
	.long	.LASF80
	.byte	0x8
	.value	0x27d
	.byte	0x7
	.long	.LASF609
	.long	0x5a0f
	.long	0x5a3c
	.uleb128 0x1
	.long	0xa822
	.uleb128 0x1
	.long	0x5a4e
	.byte	0
	.uleb128 0x1d
	.long	.LASF99
	.byte	0x8
	.value	0x24b
	.byte	0xd
	.long	0x5978
	.uleb128 0x7
	.long	0x5a3c
	.uleb128 0x1d
	.long	.LASF82
	.byte	0x8
	.value	0x260
	.byte	0xd
	.long	0x2c3
	.uleb128 0x16
	.long	.LASF80
	.byte	0x8
	.value	0x28c
	.byte	0x7
	.long	.LASF610
	.long	0x5a0f
	.long	0x5a80
	.uleb128 0x1
	.long	0xa822
	.uleb128 0x1
	.long	0x5a4e
	.uleb128 0x1
	.long	0x5a80
	.byte	0
	.uleb128 0x1d
	.long	.LASF101
	.byte	0x8
	.value	0x25a
	.byte	0xd
	.long	0x9315
	.uleb128 0x37
	.long	.LASF83
	.byte	0x8
	.value	0x2b0
	.byte	0x7
	.long	.LASF611
	.long	0x5aae
	.uleb128 0x1
	.long	0xa822
	.uleb128 0x1
	.long	0x5a0f
	.uleb128 0x1
	.long	0x5a4e
	.byte	0
	.uleb128 0x16
	.long	.LASF85
	.byte	0x8
	.value	0x2ed
	.byte	0x7
	.long	.LASF612
	.long	0x5a4e
	.long	0x5ac9
	.uleb128 0x1
	.long	0xa827
	.byte	0
	.uleb128 0x16
	.long	.LASF103
	.byte	0x8
	.value	0x2fd
	.byte	0x7
	.long	.LASF613
	.long	0x5a3c
	.long	0x5ae4
	.uleb128 0x1
	.long	0xa827
	.byte	0
	.uleb128 0x1d
	.long	.LASF7
	.byte	0x8
	.value	0x24e
	.byte	0xd
	.long	0x30
	.uleb128 0x1d
	.long	.LASF105
	.byte	0x8
	.value	0x26f
	.byte	0x8
	.long	0x5978
	.byte	0
	.uleb128 0x1a
	.long	.LASF614
	.byte	0x18
	.byte	0x2
	.byte	0x5b
	.byte	0xc
	.long	0x5ea0
	.uleb128 0x1a
	.long	.LASF107
	.byte	0x18
	.byte	0x2
	.byte	0x62
	.byte	0xe
	.long	0x5bb2
	.uleb128 0x11
	.long	.LASF109
	.byte	0x2
	.byte	0x64
	.byte	0xa
	.long	0x5bb7
	.byte	0
	.uleb128 0x11
	.long	.LASF110
	.byte	0x2
	.byte	0x65
	.byte	0xa
	.long	0x5bb7
	.byte	0x8
	.uleb128 0x11
	.long	.LASF111
	.byte	0x2
	.byte	0x66
	.byte	0xa
	.long	0x5bb7
	.byte	0x10
	.uleb128 0x22
	.long	.LASF107
	.byte	0x2
	.byte	0x69
	.byte	0x2
	.long	.LASF615
	.long	0x5b54
	.long	0x5b5a
	.uleb128 0x2
	.long	0xa836
	.byte	0
	.uleb128 0x22
	.long	.LASF107
	.byte	0x2
	.byte	0x6f
	.byte	0x2
	.long	.LASF616
	.long	0x5b6e
	.long	0x5b79
	.uleb128 0x2
	.long	0xa836
	.uleb128 0x1
	.long	0xa840
	.byte	0
	.uleb128 0x22
	.long	.LASF114
	.byte	0x2
	.byte	0x77
	.byte	0x2
	.long	.LASF617
	.long	0x5b8d
	.long	0x5b98
	.uleb128 0x2
	.long	0xa836
	.uleb128 0x1
	.long	0xa845
	.byte	0
	.uleb128 0x63
	.long	.LASF116
	.byte	0x80
	.long	.LASF618
	.long	0x5ba6
	.uleb128 0x2
	.long	0xa836
	.uleb128 0x1
	.long	0xa84a
	.byte	0
	.byte	0
	.uleb128 0x7
	.long	0x5b0c
	.uleb128 0x8
	.long	.LASF75
	.byte	0x2
	.byte	0x60
	.byte	0x9
	.long	0x8f0e
	.uleb128 0x1a
	.long	.LASF117
	.byte	0x18
	.byte	0x2
	.byte	0x8b
	.byte	0xe
	.long	0x5c89
	.uleb128 0x35
	.long	0x5978
	.uleb128 0x35
	.long	0x5b0c
	.uleb128 0x22
	.long	.LASF117
	.byte	0x2
	.byte	0x8f
	.byte	0x2
	.long	.LASF619
	.long	0x5bee
	.long	0x5bf4
	.uleb128 0x2
	.long	0xa84f
	.byte	0
	.uleb128 0x22
	.long	.LASF117
	.byte	0x2
	.byte	0x98
	.byte	0x2
	.long	.LASF620
	.long	0x5c08
	.long	0x5c13
	.uleb128 0x2
	.long	0xa84f
	.uleb128 0x1
	.long	0xa859
	.byte	0
	.uleb128 0x22
	.long	.LASF117
	.byte	0x2
	.byte	0xa0
	.byte	0x2
	.long	.LASF621
	.long	0x5c27
	.long	0x5c32
	.uleb128 0x2
	.long	0xa84f
	.uleb128 0x1
	.long	0xa85e
	.byte	0
	.uleb128 0x22
	.long	.LASF117
	.byte	0x2
	.byte	0xa5
	.byte	0x2
	.long	.LASF622
	.long	0x5c46
	.long	0x5c51
	.uleb128 0x2
	.long	0xa84f
	.uleb128 0x1
	.long	0xa863
	.byte	0
	.uleb128 0x22
	.long	.LASF117
	.byte	0x2
	.byte	0xaa
	.byte	0x2
	.long	.LASF623
	.long	0x5c65
	.long	0x5c75
	.uleb128 0x2
	.long	0xa84f
	.uleb128 0x1
	.long	0xa863
	.uleb128 0x1
	.long	0xa85e
	.byte	0
	.uleb128 0x6e
	.long	.LASF482
	.long	.LASF624
	.long	0x5c82
	.uleb128 0x2
	.long	0xa84f
	.byte	0
	.byte	0
	.uleb128 0x8
	.long	.LASF123
	.byte	0x2
	.byte	0x5e
	.byte	0x15
	.long	0x8f3f
	.uleb128 0x7
	.long	0x5c89
	.uleb128 0x36
	.long	.LASF124
	.value	0x133
	.byte	0x7
	.long	.LASF625
	.long	0xa868
	.long	0x5cb2
	.long	0x5cb8
	.uleb128 0x2
	.long	0xa86d
	.byte	0
	.uleb128 0x36
	.long	.LASF124
	.value	0x138
	.byte	0x7
	.long	.LASF626
	.long	0xa859
	.long	0x5cd0
	.long	0x5cd6
	.uleb128 0x2
	.long	0xa877
	.byte	0
	.uleb128 0x1d
	.long	.LASF99
	.byte	0x2
	.value	0x12f
	.byte	0x16
	.long	0x5978
	.uleb128 0x7
	.long	0x5cd6
	.uleb128 0x36
	.long	.LASF127
	.value	0x13d
	.byte	0x7
	.long	.LASF627
	.long	0x5cd6
	.long	0x5d00
	.long	0x5d06
	.uleb128 0x2
	.long	0xa877
	.byte	0
	.uleb128 0x4f
	.long	.LASF129
	.value	0x141
	.long	.LASF628
	.long	0x5d19
	.long	0x5d1f
	.uleb128 0x2
	.long	0xa86d
	.byte	0
	.uleb128 0x1c
	.long	.LASF129
	.value	0x147
	.long	.LASF629
	.long	0x5d32
	.long	0x5d3d
	.uleb128 0x2
	.long	0xa86d
	.uleb128 0x1
	.long	0xa87c
	.byte	0
	.uleb128 0x1c
	.long	.LASF129
	.value	0x14d
	.long	.LASF630
	.long	0x5d50
	.long	0x5d5b
	.uleb128 0x2
	.long	0xa86d
	.uleb128 0x1
	.long	0x2c3
	.byte	0
	.uleb128 0x1c
	.long	.LASF129
	.value	0x153
	.long	.LASF631
	.long	0x5d6e
	.long	0x5d7e
	.uleb128 0x2
	.long	0xa86d
	.uleb128 0x1
	.long	0x2c3
	.uleb128 0x1
	.long	0xa87c
	.byte	0
	.uleb128 0x4f
	.long	.LASF129
	.value	0x158
	.long	.LASF632
	.long	0x5d91
	.long	0x5d9c
	.uleb128 0x2
	.long	0xa86d
	.uleb128 0x1
	.long	0xa881
	.byte	0
	.uleb128 0x1c
	.long	.LASF129
	.value	0x15d
	.long	.LASF633
	.long	0x5daf
	.long	0x5dba
	.uleb128 0x2
	.long	0xa86d
	.uleb128 0x1
	.long	0xa863
	.byte	0
	.uleb128 0x1c
	.long	.LASF129
	.value	0x161
	.long	.LASF634
	.long	0x5dcd
	.long	0x5ddd
	.uleb128 0x2
	.long	0xa86d
	.uleb128 0x1
	.long	0xa881
	.uleb128 0x1
	.long	0xa87c
	.byte	0
	.uleb128 0x1c
	.long	.LASF129
	.value	0x16f
	.long	.LASF635
	.long	0x5df0
	.long	0x5e00
	.uleb128 0x2
	.long	0xa86d
	.uleb128 0x1
	.long	0xa87c
	.uleb128 0x1
	.long	0xa881
	.byte	0
	.uleb128 0x1c
	.long	.LASF138
	.value	0x175
	.long	.LASF636
	.long	0x5e13
	.long	0x5e19
	.uleb128 0x2
	.long	0xa86d
	.byte	0
	.uleb128 0x50
	.long	.LASF140
	.value	0x17e
	.byte	0x14
	.long	0x5bc3
	.byte	0
	.uleb128 0x36
	.long	.LASF141
	.value	0x182
	.byte	0x7
	.long	.LASF637
	.long	0x5bb7
	.long	0x5e3e
	.long	0x5e49
	.uleb128 0x2
	.long	0xa86d
	.uleb128 0x1
	.long	0x2c3
	.byte	0
	.uleb128 0x1c
	.long	.LASF143
	.value	0x18a
	.long	.LASF638
	.long	0x5e5c
	.long	0x5e6c
	.uleb128 0x2
	.long	0xa86d
	.uleb128 0x1
	.long	0x5bb7
	.uleb128 0x1
	.long	0x2c3
	.byte	0
	.uleb128 0x10
	.long	.LASF145
	.byte	0x2
	.value	0x195
	.byte	0x7
	.long	.LASF639
	.byte	0x2
	.long	0x5e82
	.long	0x5e8d
	.uleb128 0x2
	.long	0xa86d
	.uleb128 0x1
	.long	0x2c3
	.byte	0
	.uleb128 0xf
	.string	"_Tp"
	.long	0x30
	.uleb128 0xa
	.long	.LASF147
	.long	0x5978
	.byte	0
	.uleb128 0x7
	.long	0x5aff
	.uleb128 0x1a
	.long	.LASF640
	.byte	0x1
	.byte	0x13
	.byte	0xa9
	.byte	0xc
	.long	0x5ec8
	.uleb128 0x8
	.long	.LASF149
	.byte	0x13
	.byte	0xaa
	.byte	0xd
	.long	0x5978
	.uleb128 0xa
	.long	.LASF150
	.long	0x5978
	.byte	0
	.uleb128 0x48
	.long	.LASF641
	.byte	0x18
	.byte	0x2
	.value	0x1cc
	.long	0x6a9c
	.uleb128 0x19
	.byte	0x2
	.value	0x1cc
	.byte	0xb
	.long	0x5e26
	.uleb128 0x19
	.byte	0x2
	.value	0x1cc
	.byte	0xb
	.long	0x5e49
	.uleb128 0x19
	.byte	0x2
	.value	0x1cc
	.byte	0xb
	.long	0x5e19
	.uleb128 0x19
	.byte	0x2
	.value	0x1cc
	.byte	0xb
	.long	0x5cb8
	.uleb128 0x19
	.byte	0x2
	.value	0x1cc
	.byte	0xb
	.long	0x5c9a
	.uleb128 0x19
	.byte	0x2
	.value	0x1cc
	.byte	0xb
	.long	0x5ce8
	.uleb128 0x47
	.long	0x5aff
	.byte	0x2
	.uleb128 0x16
	.long	.LASF152
	.byte	0x2
	.value	0x1f6
	.byte	0x7
	.long	.LASF642
	.long	0x92c6
	.long	0x5f2c
	.uleb128 0x1
	.long	0x643
	.byte	0
	.uleb128 0x16
	.long	.LASF152
	.byte	0x2
	.value	0x1ff
	.byte	0x7
	.long	.LASF643
	.long	0x92c6
	.long	0x5f47
	.uleb128 0x1
	.long	0x3b3
	.byte	0
	.uleb128 0x6f
	.long	.LASF346
	.long	.LASF644
	.long	0x92c6
	.uleb128 0x14
	.long	.LASF75
	.byte	0x2
	.value	0x1e6
	.byte	0x29
	.long	0x5bb7
	.uleb128 0x16
	.long	.LASF155
	.byte	0x2
	.value	0x20c
	.byte	0x7
	.long	.LASF645
	.long	0x5f54
	.long	0x5f8b
	.uleb128 0x1
	.long	0x5f54
	.uleb128 0x1
	.long	0x5f54
	.uleb128 0x1
	.long	0x5f54
	.uleb128 0x1
	.long	0xa886
	.byte	0
	.uleb128 0x1d
	.long	.LASF123
	.byte	0x2
	.value	0x1e1
	.byte	0x2f
	.long	0x5c89
	.uleb128 0x7
	.long	0x5f8b
	.uleb128 0x51
	.long	.LASF157
	.value	0x227
	.long	.LASF646
	.long	0x5fb0
	.long	0x5fb6
	.uleb128 0x2
	.long	0xa88b
	.byte	0
	.uleb128 0x40
	.long	.LASF157
	.byte	0x2
	.value	0x232
	.long	.LASF647
	.long	0x5fca
	.long	0x5fd5
	.uleb128 0x2
	.long	0xa88b
	.uleb128 0x1
	.long	0xa895
	.byte	0
	.uleb128 0x14
	.long	.LASF99
	.byte	0x2
	.value	0x1f1
	.byte	0x1a
	.long	0x5978
	.uleb128 0x7
	.long	0x5fd5
	.uleb128 0x40
	.long	.LASF157
	.byte	0x2
	.value	0x240
	.long	.LASF648
	.long	0x5ffb
	.long	0x600b
	.uleb128 0x2
	.long	0xa88b
	.uleb128 0x1
	.long	0x600b
	.uleb128 0x1
	.long	0xa895
	.byte	0
	.uleb128 0x14
	.long	.LASF82
	.byte	0x2
	.value	0x1ef
	.byte	0x1a
	.long	0x2c3
	.uleb128 0x10
	.long	.LASF157
	.byte	0x2
	.value	0x24d
	.byte	0x7
	.long	.LASF649
	.byte	0x1
	.long	0x602e
	.long	0x6043
	.uleb128 0x2
	.long	0xa88b
	.uleb128 0x1
	.long	0x600b
	.uleb128 0x1
	.long	0xa89a
	.uleb128 0x1
	.long	0xa895
	.byte	0
	.uleb128 0x14
	.long	.LASF7
	.byte	0x2
	.value	0x1e5
	.byte	0x17
	.long	0x30
	.uleb128 0x7
	.long	0x6043
	.uleb128 0x10
	.long	.LASF157
	.byte	0x2
	.value	0x26d
	.byte	0x7
	.long	.LASF650
	.byte	0x1
	.long	0x606b
	.long	0x6076
	.uleb128 0x2
	.long	0xa88b
	.uleb128 0x1
	.long	0xa89f
	.byte	0
	.uleb128 0x51
	.long	.LASF157
	.value	0x280
	.long	.LASF651
	.long	0x6089
	.long	0x6094
	.uleb128 0x2
	.long	0xa88b
	.uleb128 0x1
	.long	0xa8a4
	.byte	0
	.uleb128 0x10
	.long	.LASF157
	.byte	0x2
	.value	0x284
	.byte	0x7
	.long	.LASF652
	.byte	0x1
	.long	0x60aa
	.long	0x60ba
	.uleb128 0x2
	.long	0xa88b
	.uleb128 0x1
	.long	0xa89f
	.uleb128 0x1
	.long	0xa8a9
	.byte	0
	.uleb128 0x1c
	.long	.LASF157
	.value	0x28f
	.long	.LASF653
	.long	0x60cd
	.long	0x60e2
	.uleb128 0x2
	.long	0xa88b
	.uleb128 0x1
	.long	0xa8a4
	.uleb128 0x1
	.long	0xa895
	.uleb128 0x1
	.long	0x643
	.byte	0
	.uleb128 0x1c
	.long	.LASF157
	.value	0x294
	.long	.LASF654
	.long	0x60f5
	.long	0x610a
	.uleb128 0x2
	.long	0xa88b
	.uleb128 0x1
	.long	0xa8a4
	.uleb128 0x1
	.long	0xa895
	.uleb128 0x1
	.long	0x3b3
	.byte	0
	.uleb128 0x10
	.long	.LASF157
	.byte	0x2
	.value	0x2a7
	.byte	0x7
	.long	.LASF655
	.byte	0x1
	.long	0x6120
	.long	0x6130
	.uleb128 0x2
	.long	0xa88b
	.uleb128 0x1
	.long	0xa8a4
	.uleb128 0x1
	.long	0xa8a9
	.byte	0
	.uleb128 0x10
	.long	.LASF157
	.byte	0x2
	.value	0x2ba
	.byte	0x7
	.long	.LASF656
	.byte	0x1
	.long	0x6146
	.long	0x6156
	.uleb128 0x2
	.long	0xa88b
	.uleb128 0x1
	.long	0x6ab2
	.uleb128 0x1
	.long	0xa895
	.byte	0
	.uleb128 0x10
	.long	.LASF169
	.byte	0x2
	.value	0x316
	.byte	0x7
	.long	.LASF657
	.byte	0x1
	.long	0x616c
	.long	0x6172
	.uleb128 0x2
	.long	0xa88b
	.byte	0
	.uleb128 0x21
	.long	.LASF36
	.byte	0x7
	.byte	0xd6
	.byte	0x5
	.long	.LASF658
	.long	0xa8ae
	.byte	0x1
	.long	0x618b
	.long	0x6196
	.uleb128 0x2
	.long	0xa88b
	.uleb128 0x1
	.long	0xa89f
	.byte	0
	.uleb128 0x6
	.long	.LASF36
	.byte	0x2
	.value	0x337
	.byte	0x7
	.long	.LASF659
	.long	0xa8ae
	.byte	0x1
	.long	0x61b0
	.long	0x61bb
	.uleb128 0x2
	.long	0xa88b
	.uleb128 0x1
	.long	0xa8a4
	.byte	0
	.uleb128 0x6
	.long	.LASF36
	.byte	0x2
	.value	0x34d
	.byte	0x7
	.long	.LASF660
	.long	0xa8ae
	.byte	0x1
	.long	0x61d5
	.long	0x61e0
	.uleb128 0x2
	.long	0xa88b
	.uleb128 0x1
	.long	0x6ab2
	.byte	0
	.uleb128 0x10
	.long	.LASF174
	.byte	0x2
	.value	0x361
	.byte	0x7
	.long	.LASF661
	.byte	0x1
	.long	0x61f6
	.long	0x6206
	.uleb128 0x2
	.long	0xa88b
	.uleb128 0x1
	.long	0x600b
	.uleb128 0x1
	.long	0xa89a
	.byte	0
	.uleb128 0x10
	.long	.LASF174
	.byte	0x2
	.value	0x390
	.byte	0x7
	.long	.LASF662
	.byte	0x1
	.long	0x621c
	.long	0x6227
	.uleb128 0x2
	.long	0xa88b
	.uleb128 0x1
	.long	0x6ab2
	.byte	0
	.uleb128 0x14
	.long	.LASF177
	.byte	0x2
	.value	0x1ea
	.byte	0x3d
	.long	0x8f5f
	.uleb128 0x6
	.long	.LASF178
	.byte	0x2
	.value	0x3dc
	.byte	0x7
	.long	.LASF663
	.long	0x6227
	.byte	0x1
	.long	0x624e
	.long	0x6254
	.uleb128 0x2
	.long	0xa88b
	.byte	0
	.uleb128 0x14
	.long	.LASF180
	.byte	0x2
	.value	0x1ec
	.byte	0x7
	.long	0x9192
	.uleb128 0x6
	.long	.LASF178
	.byte	0x2
	.value	0x3e6
	.byte	0x7
	.long	.LASF664
	.long	0x6254
	.byte	0x1
	.long	0x627b
	.long	0x6281
	.uleb128 0x2
	.long	0xa8b3
	.byte	0
	.uleb128 0x39
	.string	"end"
	.value	0x3f0
	.long	.LASF665
	.long	0x6227
	.long	0x6298
	.long	0x629e
	.uleb128 0x2
	.long	0xa88b
	.byte	0
	.uleb128 0x39
	.string	"end"
	.value	0x3fa
	.long	.LASF666
	.long	0x6254
	.long	0x62b5
	.long	0x62bb
	.uleb128 0x2
	.long	0xa8b3
	.byte	0
	.uleb128 0x14
	.long	.LASF184
	.byte	0x2
	.value	0x1ee
	.byte	0x30
	.long	0x6ba4
	.uleb128 0x6
	.long	.LASF185
	.byte	0x2
	.value	0x404
	.byte	0x7
	.long	.LASF667
	.long	0x62bb
	.byte	0x1
	.long	0x62e2
	.long	0x62e8
	.uleb128 0x2
	.long	0xa88b
	.byte	0
	.uleb128 0x14
	.long	.LASF187
	.byte	0x2
	.value	0x1ed
	.byte	0x35
	.long	0x6ba9
	.uleb128 0x6
	.long	.LASF185
	.byte	0x2
	.value	0x40e
	.byte	0x7
	.long	.LASF668
	.long	0x62e8
	.byte	0x1
	.long	0x630f
	.long	0x6315
	.uleb128 0x2
	.long	0xa8b3
	.byte	0
	.uleb128 0x6
	.long	.LASF189
	.byte	0x2
	.value	0x418
	.byte	0x7
	.long	.LASF669
	.long	0x62bb
	.byte	0x1
	.long	0x632f
	.long	0x6335
	.uleb128 0x2
	.long	0xa88b
	.byte	0
	.uleb128 0x6
	.long	.LASF189
	.byte	0x2
	.value	0x422
	.byte	0x7
	.long	.LASF670
	.long	0x62e8
	.byte	0x1
	.long	0x634f
	.long	0x6355
	.uleb128 0x2
	.long	0xa8b3
	.byte	0
	.uleb128 0x6
	.long	.LASF192
	.byte	0x2
	.value	0x42d
	.byte	0x7
	.long	.LASF671
	.long	0x6254
	.byte	0x1
	.long	0x636f
	.long	0x6375
	.uleb128 0x2
	.long	0xa8b3
	.byte	0
	.uleb128 0x6
	.long	.LASF194
	.byte	0x2
	.value	0x437
	.byte	0x7
	.long	.LASF672
	.long	0x6254
	.byte	0x1
	.long	0x638f
	.long	0x6395
	.uleb128 0x2
	.long	0xa8b3
	.byte	0
	.uleb128 0x6
	.long	.LASF196
	.byte	0x2
	.value	0x441
	.byte	0x7
	.long	.LASF673
	.long	0x62e8
	.byte	0x1
	.long	0x63af
	.long	0x63b5
	.uleb128 0x2
	.long	0xa8b3
	.byte	0
	.uleb128 0x6
	.long	.LASF198
	.byte	0x2
	.value	0x44b
	.byte	0x7
	.long	.LASF674
	.long	0x62e8
	.byte	0x1
	.long	0x63cf
	.long	0x63d5
	.uleb128 0x2
	.long	0xa8b3
	.byte	0
	.uleb128 0x6
	.long	.LASF200
	.byte	0x2
	.value	0x453
	.byte	0x7
	.long	.LASF675
	.long	0x600b
	.byte	0x1
	.long	0x63ef
	.long	0x63f5
	.uleb128 0x2
	.long	0xa8b3
	.byte	0
	.uleb128 0x6
	.long	.LASF85
	.byte	0x2
	.value	0x45e
	.byte	0x7
	.long	.LASF676
	.long	0x600b
	.byte	0x1
	.long	0x640f
	.long	0x6415
	.uleb128 0x2
	.long	0xa8b3
	.byte	0
	.uleb128 0x10
	.long	.LASF203
	.byte	0x2
	.value	0x46d
	.byte	0x7
	.long	.LASF677
	.byte	0x1
	.long	0x642b
	.long	0x6436
	.uleb128 0x2
	.long	0xa88b
	.uleb128 0x1
	.long	0x600b
	.byte	0
	.uleb128 0x10
	.long	.LASF203
	.byte	0x2
	.value	0x482
	.byte	0x7
	.long	.LASF678
	.byte	0x1
	.long	0x644c
	.long	0x645c
	.uleb128 0x2
	.long	0xa88b
	.uleb128 0x1
	.long	0x600b
	.uleb128 0x1
	.long	0xa89a
	.byte	0
	.uleb128 0x10
	.long	.LASF206
	.byte	0x2
	.value	0x4a4
	.byte	0x7
	.long	.LASF679
	.byte	0x1
	.long	0x6472
	.long	0x6478
	.uleb128 0x2
	.long	0xa88b
	.byte	0
	.uleb128 0x6
	.long	.LASF208
	.byte	0x2
	.value	0x4ae
	.byte	0x7
	.long	.LASF680
	.long	0x600b
	.byte	0x1
	.long	0x6492
	.long	0x6498
	.uleb128 0x2
	.long	0xa8b3
	.byte	0
	.uleb128 0x6
	.long	.LASF210
	.byte	0x2
	.value	0x4bd
	.byte	0x7
	.long	.LASF681
	.long	0x92c6
	.byte	0x1
	.long	0x64b2
	.long	0x64b8
	.uleb128 0x2
	.long	0xa8b3
	.byte	0
	.uleb128 0x23
	.long	.LASF212
	.byte	0x7
	.byte	0x46
	.byte	0x5
	.long	.LASF682
	.byte	0x1
	.long	0x64cd
	.long	0x64d8
	.uleb128 0x2
	.long	0xa88b
	.uleb128 0x1
	.long	0x600b
	.byte	0
	.uleb128 0x14
	.long	.LASF76
	.byte	0x2
	.value	0x1e8
	.byte	0x32
	.long	0x8f1a
	.uleb128 0x6
	.long	.LASF214
	.byte	0x2
	.value	0x4e3
	.byte	0x7
	.long	.LASF683
	.long	0x64d8
	.byte	0x1
	.long	0x64ff
	.long	0x650a
	.uleb128 0x2
	.long	0xa88b
	.uleb128 0x1
	.long	0x600b
	.byte	0
	.uleb128 0x14
	.long	.LASF79
	.byte	0x2
	.value	0x1e9
	.byte	0x37
	.long	0x8f26
	.uleb128 0x6
	.long	.LASF214
	.byte	0x2
	.value	0x4f6
	.byte	0x7
	.long	.LASF684
	.long	0x650a
	.byte	0x1
	.long	0x6531
	.long	0x653c
	.uleb128 0x2
	.long	0xa8b3
	.uleb128 0x1
	.long	0x600b
	.byte	0
	.uleb128 0x10
	.long	.LASF217
	.byte	0x2
	.value	0x500
	.byte	0x7
	.long	.LASF685
	.byte	0x2
	.long	0x6552
	.long	0x655d
	.uleb128 0x2
	.long	0xa8b3
	.uleb128 0x1
	.long	0x600b
	.byte	0
	.uleb128 0x39
	.string	"at"
	.value	0x517
	.long	.LASF686
	.long	0x64d8
	.long	0x6573
	.long	0x657e
	.uleb128 0x2
	.long	0xa88b
	.uleb128 0x1
	.long	0x600b
	.byte	0
	.uleb128 0x39
	.string	"at"
	.value	0x52a
	.long	.LASF687
	.long	0x650a
	.long	0x6594
	.long	0x659f
	.uleb128 0x2
	.long	0xa8b3
	.uleb128 0x1
	.long	0x600b
	.byte	0
	.uleb128 0x6
	.long	.LASF221
	.byte	0x2
	.value	0x536
	.byte	0x7
	.long	.LASF688
	.long	0x64d8
	.byte	0x1
	.long	0x65b9
	.long	0x65bf
	.uleb128 0x2
	.long	0xa88b
	.byte	0
	.uleb128 0x6
	.long	.LASF221
	.byte	0x2
	.value	0x542
	.byte	0x7
	.long	.LASF689
	.long	0x650a
	.byte	0x1
	.long	0x65d9
	.long	0x65df
	.uleb128 0x2
	.long	0xa8b3
	.byte	0
	.uleb128 0x6
	.long	.LASF224
	.byte	0x2
	.value	0x54e
	.byte	0x7
	.long	.LASF690
	.long	0x64d8
	.byte	0x1
	.long	0x65f9
	.long	0x65ff
	.uleb128 0x2
	.long	0xa88b
	.byte	0
	.uleb128 0x6
	.long	.LASF224
	.byte	0x2
	.value	0x55a
	.byte	0x7
	.long	.LASF691
	.long	0x650a
	.byte	0x1
	.long	0x6619
	.long	0x661f
	.uleb128 0x2
	.long	0xa8b3
	.byte	0
	.uleb128 0x6
	.long	.LASF227
	.byte	0x2
	.value	0x569
	.byte	0x7
	.long	.LASF692
	.long	0xa7eb
	.byte	0x1
	.long	0x6639
	.long	0x663f
	.uleb128 0x2
	.long	0xa88b
	.byte	0
	.uleb128 0x6
	.long	.LASF227
	.byte	0x2
	.value	0x56e
	.byte	0x7
	.long	.LASF693
	.long	0xa804
	.byte	0x1
	.long	0x6659
	.long	0x665f
	.uleb128 0x2
	.long	0xa8b3
	.byte	0
	.uleb128 0x10
	.long	.LASF230
	.byte	0x2
	.value	0x57e
	.byte	0x7
	.long	.LASF694
	.byte	0x1
	.long	0x6675
	.long	0x6680
	.uleb128 0x2
	.long	0xa88b
	.uleb128 0x1
	.long	0xa89a
	.byte	0
	.uleb128 0x10
	.long	.LASF230
	.byte	0x2
	.value	0x58f
	.byte	0x7
	.long	.LASF695
	.byte	0x1
	.long	0x6696
	.long	0x66a1
	.uleb128 0x2
	.long	0xa88b
	.uleb128 0x1
	.long	0xa8bd
	.byte	0
	.uleb128 0x10
	.long	.LASF233
	.byte	0x2
	.value	0x5a7
	.byte	0x7
	.long	.LASF696
	.byte	0x1
	.long	0x66b7
	.long	0x66bd
	.uleb128 0x2
	.long	0xa88b
	.byte	0
	.uleb128 0x21
	.long	.LASF235
	.byte	0x7
	.byte	0x89
	.byte	0x5
	.long	.LASF697
	.long	0x6227
	.byte	0x1
	.long	0x66d6
	.long	0x66e6
	.uleb128 0x2
	.long	0xa88b
	.uleb128 0x1
	.long	0x6254
	.uleb128 0x1
	.long	0xa89a
	.byte	0
	.uleb128 0x6
	.long	.LASF235
	.byte	0x2
	.value	0x5ee
	.byte	0x7
	.long	.LASF698
	.long	0x6227
	.byte	0x1
	.long	0x6700
	.long	0x6710
	.uleb128 0x2
	.long	0xa88b
	.uleb128 0x1
	.long	0x6254
	.uleb128 0x1
	.long	0xa8bd
	.byte	0
	.uleb128 0x6
	.long	.LASF235
	.byte	0x2
	.value	0x600
	.byte	0x7
	.long	.LASF699
	.long	0x6227
	.byte	0x1
	.long	0x672a
	.long	0x673a
	.uleb128 0x2
	.long	0xa88b
	.uleb128 0x1
	.long	0x6254
	.uleb128 0x1
	.long	0x6ab2
	.byte	0
	.uleb128 0x6
	.long	.LASF235
	.byte	0x2
	.value	0x61a
	.byte	0x7
	.long	.LASF700
	.long	0x6227
	.byte	0x1
	.long	0x6754
	.long	0x6769
	.uleb128 0x2
	.long	0xa88b
	.uleb128 0x1
	.long	0x6254
	.uleb128 0x1
	.long	0x600b
	.uleb128 0x1
	.long	0xa89a
	.byte	0
	.uleb128 0x6
	.long	.LASF240
	.byte	0x2
	.value	0x6f6
	.byte	0x7
	.long	.LASF701
	.long	0x6227
	.byte	0x1
	.long	0x6783
	.long	0x678e
	.uleb128 0x2
	.long	0xa88b
	.uleb128 0x1
	.long	0x6254
	.byte	0
	.uleb128 0x6
	.long	.LASF240
	.byte	0x2
	.value	0x712
	.byte	0x7
	.long	.LASF702
	.long	0x6227
	.byte	0x1
	.long	0x67a8
	.long	0x67b8
	.uleb128 0x2
	.long	0xa88b
	.uleb128 0x1
	.long	0x6254
	.uleb128 0x1
	.long	0x6254
	.byte	0
	.uleb128 0x10
	.long	.LASF41
	.byte	0x2
	.value	0x72a
	.byte	0x7
	.long	.LASF703
	.byte	0x1
	.long	0x67ce
	.long	0x67d9
	.uleb128 0x2
	.long	0xa88b
	.uleb128 0x1
	.long	0xa8ae
	.byte	0
	.uleb128 0x10
	.long	.LASF244
	.byte	0x2
	.value	0x73d
	.byte	0x7
	.long	.LASF704
	.byte	0x1
	.long	0x67ef
	.long	0x67f5
	.uleb128 0x2
	.long	0xa88b
	.byte	0
	.uleb128 0x10
	.long	.LASF246
	.byte	0x2
	.value	0x7c3
	.byte	0x7
	.long	.LASF705
	.byte	0x2
	.long	0x680b
	.long	0x681b
	.uleb128 0x2
	.long	0xa88b
	.uleb128 0x1
	.long	0x600b
	.uleb128 0x1
	.long	0xa89a
	.byte	0
	.uleb128 0x10
	.long	.LASF248
	.byte	0x2
	.value	0x7ce
	.byte	0x7
	.long	.LASF706
	.byte	0x2
	.long	0x6831
	.long	0x683c
	.uleb128 0x2
	.long	0xa88b
	.uleb128 0x1
	.long	0x600b
	.byte	0
	.uleb128 0x10
	.long	.LASF250
	.byte	0x7
	.value	0x112
	.byte	0x5
	.long	.LASF707
	.byte	0x2
	.long	0x6852
	.long	0x6862
	.uleb128 0x2
	.long	0xa88b
	.uleb128 0x1
	.long	0x2c3
	.uleb128 0x1
	.long	0xa89a
	.byte	0
	.uleb128 0x10
	.long	.LASF252
	.byte	0x7
	.value	0x296
	.byte	0x5
	.long	.LASF708
	.byte	0x2
	.long	0x6878
	.long	0x688d
	.uleb128 0x2
	.long	0xa88b
	.uleb128 0x1
	.long	0x6227
	.uleb128 0x1
	.long	0x600b
	.uleb128 0x1
	.long	0xa89a
	.byte	0
	.uleb128 0x10
	.long	.LASF254
	.byte	0x7
	.value	0x300
	.byte	0x5
	.long	.LASF709
	.byte	0x2
	.long	0x68a3
	.long	0x68b3
	.uleb128 0x2
	.long	0xa88b
	.uleb128 0x1
	.long	0x600b
	.uleb128 0x1
	.long	0xa89a
	.byte	0
	.uleb128 0x10
	.long	.LASF256
	.byte	0x7
	.value	0x339
	.byte	0x5
	.long	.LASF710
	.byte	0x2
	.long	0x68c9
	.long	0x68d4
	.uleb128 0x2
	.long	0xa88b
	.uleb128 0x1
	.long	0x600b
	.byte	0
	.uleb128 0x6
	.long	.LASF258
	.byte	0x7
	.value	0x396
	.byte	0x5
	.long	.LASF711
	.long	0x92c6
	.byte	0x2
	.long	0x68ee
	.long	0x68f4
	.uleb128 0x2
	.long	0xa88b
	.byte	0
	.uleb128 0x6
	.long	.LASF260
	.byte	0x7
	.value	0x16f
	.byte	0x5
	.long	.LASF712
	.long	0x6227
	.byte	0x2
	.long	0x690e
	.long	0x691e
	.uleb128 0x2
	.long	0xa88b
	.uleb128 0x1
	.long	0x6254
	.uleb128 0x1
	.long	0xa8bd
	.byte	0
	.uleb128 0x6
	.long	.LASF262
	.byte	0x2
	.value	0x889
	.byte	0x7
	.long	.LASF713
	.long	0x6227
	.byte	0x2
	.long	0x6938
	.long	0x6948
	.uleb128 0x2
	.long	0xa88b
	.uleb128 0x1
	.long	0x6254
	.uleb128 0x1
	.long	0xa8bd
	.byte	0
	.uleb128 0x6
	.long	.LASF264
	.byte	0x2
	.value	0x890
	.byte	0x7
	.long	.LASF714
	.long	0x600b
	.byte	0x2
	.long	0x6962
	.long	0x6972
	.uleb128 0x2
	.long	0xa8b3
	.uleb128 0x1
	.long	0x600b
	.uleb128 0x1
	.long	0x7892
	.byte	0
	.uleb128 0x52
	.long	.LASF266
	.value	0x89b
	.long	.LASF715
	.long	0x600b
	.long	0x6990
	.uleb128 0x1
	.long	0x600b
	.uleb128 0x1
	.long	0xa895
	.byte	0
	.uleb128 0x52
	.long	.LASF268
	.value	0x8a4
	.long	.LASF716
	.long	0x600b
	.long	0x69a9
	.uleb128 0x1
	.long	0xa8c2
	.byte	0
	.uleb128 0x10
	.long	.LASF270
	.byte	0x2
	.value	0x8b5
	.byte	0x7
	.long	.LASF717
	.byte	0x2
	.long	0x69bf
	.long	0x69ca
	.uleb128 0x2
	.long	0xa88b
	.uleb128 0x1
	.long	0x5f54
	.byte	0
	.uleb128 0x21
	.long	.LASF272
	.byte	0x7
	.byte	0xb9
	.byte	0x5
	.long	.LASF718
	.long	0x6227
	.byte	0x2
	.long	0x69e3
	.long	0x69ee
	.uleb128 0x2
	.long	0xa88b
	.uleb128 0x1
	.long	0x6227
	.byte	0
	.uleb128 0x21
	.long	.LASF272
	.byte	0x7
	.byte	0xc7
	.byte	0x5
	.long	.LASF719
	.long	0x6227
	.byte	0x2
	.long	0x6a07
	.long	0x6a17
	.uleb128 0x2
	.long	0xa88b
	.uleb128 0x1
	.long	0x6227
	.uleb128 0x1
	.long	0x6227
	.byte	0
	.uleb128 0x1c
	.long	.LASF275
	.value	0x8cf
	.long	.LASF720
	.long	0x6a2a
	.long	0x6a3a
	.uleb128 0x2
	.long	0xa88b
	.uleb128 0x1
	.long	0xa8a4
	.uleb128 0x1
	.long	0x643
	.byte	0
	.uleb128 0x1c
	.long	.LASF275
	.value	0x8db
	.long	.LASF721
	.long	0x6a4d
	.long	0x6a5d
	.uleb128 0x2
	.long	0xa88b
	.uleb128 0x1
	.long	0xa8a4
	.uleb128 0x1
	.long	0x3b3
	.byte	0
	.uleb128 0x36
	.long	.LASF722
	.value	0x8ee
	.byte	0x2
	.long	.LASF723
	.long	0xa7eb
	.long	0x6a7e
	.long	0x6a89
	.uleb128 0xf
	.string	"_Up"
	.long	0x30
	.uleb128 0x2
	.long	0xa8b3
	.uleb128 0x1
	.long	0xa7eb
	.byte	0
	.uleb128 0xf
	.string	"_Tp"
	.long	0x30
	.uleb128 0x64
	.long	.LASF147
	.long	0x5978
	.byte	0
	.uleb128 0x7
	.long	0x5ec8
	.uleb128 0x8
	.long	.LASF280
	.byte	0x13
	.byte	0xad
	.byte	0xb
	.long	0x5eb2
	.uleb128 0x7
	.long	0x6aa1
	.uleb128 0x3f
	.long	.LASF724
	.byte	0x10
	.byte	0x24
	.byte	0x2f
	.long	0x6b9f
	.uleb128 0x27
	.long	.LASF177
	.byte	0x24
	.byte	0x36
	.byte	0x1a
	.long	0xa804
	.uleb128 0x11
	.long	.LASF583
	.byte	0x24
	.byte	0x3a
	.byte	0x12
	.long	0x6abe
	.byte	0
	.uleb128 0x27
	.long	.LASF82
	.byte	0x24
	.byte	0x35
	.byte	0x18
	.long	0x2c3
	.uleb128 0x11
	.long	.LASF440
	.byte	0x24
	.byte	0x3b
	.byte	0x13
	.long	0x6ad7
	.byte	0x8
	.uleb128 0x22
	.long	.LASF584
	.byte	0x24
	.byte	0x3e
	.byte	0x11
	.long	.LASF725
	.long	0x6b04
	.long	0x6b14
	.uleb128 0x2
	.long	0xa8c7
	.uleb128 0x1
	.long	0x6b14
	.uleb128 0x1
	.long	0x6ad7
	.byte	0
	.uleb128 0x27
	.long	.LASF180
	.byte	0x24
	.byte	0x37
	.byte	0x1a
	.long	0xa804
	.uleb128 0x23
	.long	.LASF584
	.byte	0x24
	.byte	0x42
	.byte	0x11
	.long	.LASF726
	.byte	0x1
	.long	0x6b35
	.long	0x6b3b
	.uleb128 0x2
	.long	0xa8c7
	.byte	0
	.uleb128 0x21
	.long	.LASF200
	.byte	0x24
	.byte	0x47
	.byte	0x7
	.long	.LASF727
	.long	0x6ad7
	.byte	0x1
	.long	0x6b54
	.long	0x6b5a
	.uleb128 0x2
	.long	0xa8cc
	.byte	0
	.uleb128 0x21
	.long	.LASF178
	.byte	0x24
	.byte	0x4b
	.byte	0x7
	.long	.LASF728
	.long	0x6b14
	.byte	0x1
	.long	0x6b73
	.long	0x6b79
	.uleb128 0x2
	.long	0xa8cc
	.byte	0
	.uleb128 0x8d
	.string	"end"
	.byte	0x4f
	.long	.LASF730
	.long	0x6b14
	.long	0x6b90
	.long	0x6b96
	.uleb128 0x2
	.long	0xa8cc
	.byte	0
	.uleb128 0xf
	.string	"_E"
	.long	0x30
	.byte	0
	.uleb128 0x7
	.long	0x6ab2
	.uleb128 0x33
	.long	.LASF731
	.uleb128 0x33
	.long	.LASF732
	.uleb128 0x1a
	.long	.LASF733
	.byte	0x1
	.byte	0x16
	.byte	0xd4
	.byte	0xc
	.long	0x6bf5
	.uleb128 0x8
	.long	.LASF7
	.byte	0x16
	.byte	0xd7
	.byte	0x2b
	.long	0x30
	.uleb128 0x8
	.long	.LASF448
	.byte	0x16
	.byte	0xd8
	.byte	0x2b
	.long	0x636
	.uleb128 0x8
	.long	.LASF75
	.byte	0x16
	.byte	0xd9
	.byte	0x2b
	.long	0xa7eb
	.uleb128 0x8
	.long	.LASF76
	.byte	0x16
	.byte	0xda
	.byte	0x2b
	.long	0xa7ff
	.uleb128 0xa
	.long	.LASF449
	.long	0xa7eb
	.byte	0
	.uleb128 0x78
	.long	.LASF58
	.byte	0x13
	.byte	0xaf
	.byte	0xd
	.uleb128 0x1a
	.long	.LASF734
	.byte	0x1
	.byte	0x13
	.byte	0x8d
	.byte	0xc
	.long	0x6c20
	.uleb128 0x8
	.long	.LASF149
	.byte	0x13
	.byte	0x8e
	.byte	0xd
	.long	0xa5ca
	.uleb128 0xf
	.string	"_Tp"
	.long	0xa5ca
	.byte	0
	.uleb128 0x1a
	.long	.LASF735
	.byte	0x1
	.byte	0x16
	.byte	0xdf
	.byte	0xc
	.long	0x6c5b
	.uleb128 0x8
	.long	.LASF448
	.byte	0x16
	.byte	0xe3
	.byte	0x2b
	.long	0x636
	.uleb128 0x8
	.long	.LASF75
	.byte	0x16
	.byte	0xe4
	.byte	0x2b
	.long	0xa502
	.uleb128 0x8
	.long	.LASF76
	.byte	0x16
	.byte	0xe5
	.byte	0x2b
	.long	0xa50c
	.uleb128 0xa
	.long	.LASF449
	.long	0xa502
	.byte	0
	.uleb128 0x1a
	.long	.LASF736
	.byte	0x1
	.byte	0x16
	.byte	0xd4
	.byte	0xc
	.long	0x6c96
	.uleb128 0x8
	.long	.LASF448
	.byte	0x16
	.byte	0xd8
	.byte	0x2b
	.long	0x636
	.uleb128 0x8
	.long	.LASF75
	.byte	0x16
	.byte	0xd9
	.byte	0x2b
	.long	0x9ff6
	.uleb128 0x8
	.long	.LASF76
	.byte	0x16
	.byte	0xda
	.byte	0x2b
	.long	0xa00a
	.uleb128 0xa
	.long	.LASF449
	.long	0x9ff6
	.byte	0
	.uleb128 0x1a
	.long	.LASF737
	.byte	0x10
	.byte	0xc
	.byte	0x6d
	.byte	0xc
	.long	0x6d67
	.uleb128 0x83
	.long	.LASF738
	.byte	0xc
	.byte	0x71
	.byte	0x7
	.long	.LASF739
	.long	0x6cb8
	.long	0x6cc3
	.uleb128 0x2
	.long	0xa935
	.uleb128 0x1
	.long	0xa93f
	.byte	0
	.uleb128 0x22
	.long	.LASF740
	.byte	0xc
	.byte	0x76
	.byte	0x7
	.long	.LASF741
	.long	0x6cd7
	.long	0x6cdd
	.uleb128 0x2
	.long	0xa935
	.byte	0
	.uleb128 0x22
	.long	.LASF742
	.byte	0xc
	.byte	0x83
	.byte	0xc
	.long	.LASF743
	.long	0x6cf1
	.long	0x6cf7
	.uleb128 0x2
	.long	0xa935
	.byte	0
	.uleb128 0x11
	.long	.LASF744
	.byte	0xc
	.byte	0x85
	.byte	0x1e
	.long	0xa6e2
	.byte	0
	.uleb128 0x11
	.long	.LASF745
	.byte	0xc
	.byte	0x86
	.byte	0x19
	.long	0xa944
	.byte	0x8
	.uleb128 0x23
	.long	.LASF738
	.byte	0xc
	.byte	0x89
	.byte	0x7
	.long	.LASF746
	.byte	0x3
	.long	0x6d26
	.long	0x6d31
	.uleb128 0x2
	.long	0xa935
	.uleb128 0x1
	.long	0xa949
	.byte	0
	.uleb128 0xb2
	.long	.LASF747
	.byte	0xc
	.byte	0x8e
	.byte	0x2
	.long	.LASF748
	.byte	0x3
	.long	0x6d57
	.uleb128 0xa
	.long	.LASF749
	.long	0xa6dd
	.uleb128 0x1
	.long	0xa6dd
	.uleb128 0x1
	.long	0xa6dd
	.byte	0
	.uleb128 0xa
	.long	.LASF61
	.long	0xa6dd
	.uleb128 0xb3
	.long	.LASF147
	.byte	0
	.uleb128 0x7
	.long	0x6c96
	.uleb128 0xb4
	.long	.LASF1477
	.byte	0x13
	.value	0x6e5
	.byte	0x26
	.long	0x92cd
	.byte	0x1
	.byte	0x3
	.uleb128 0x8e
	.long	.LASF750
	.byte	0x45
	.long	.LASF752
	.uleb128 0x8e
	.long	.LASF751
	.byte	0x42
	.long	.LASF753
	.uleb128 0x84
	.long	.LASF754
	.byte	0x26
	.byte	0x4f
	.byte	0x3
	.long	.LASF755
	.long	0x6da9
	.uleb128 0x1
	.long	0x7892
	.byte	0
	.uleb128 0x37
	.long	.LASF756
	.byte	0xa
	.value	0x3d0
	.byte	0x5
	.long	.LASF757
	.long	0x6ddc
	.uleb128 0xa
	.long	.LASF758
	.long	0xa7eb
	.uleb128 0xf
	.string	"_Tp"
	.long	0x30
	.uleb128 0x1
	.long	0xa7eb
	.uleb128 0x1
	.long	0xa7eb
	.uleb128 0x1
	.long	0xa809
	.byte	0
	.uleb128 0x16
	.long	.LASF759
	.byte	0xa
	.value	0x475
	.byte	0x5
	.long	.LASF760
	.long	0xa7eb
	.long	0x6e21
	.uleb128 0xa
	.long	.LASF761
	.long	0xa7eb
	.uleb128 0xa
	.long	.LASF62
	.long	0x3e
	.uleb128 0xf
	.string	"_Tp"
	.long	0x30
	.uleb128 0x1
	.long	0xa7eb
	.uleb128 0x1
	.long	0x3e
	.uleb128 0x1
	.long	0xa809
	.uleb128 0x1
	.long	0x6a3
	.byte	0
	.uleb128 0x16
	.long	.LASF762
	.byte	0xa
	.value	0x49b
	.byte	0x5
	.long	.LASF763
	.long	0xa7eb
	.long	0x6e61
	.uleb128 0xf
	.string	"_OI"
	.long	0xa7eb
	.uleb128 0xa
	.long	.LASF62
	.long	0x3e
	.uleb128 0xf
	.string	"_Tp"
	.long	0x30
	.uleb128 0x1
	.long	0xa7eb
	.uleb128 0x1
	.long	0x3e
	.uleb128 0x1
	.long	0xa809
	.byte	0
	.uleb128 0x49
	.long	.LASF764
	.byte	0xb
	.byte	0x7b
	.byte	0x5
	.long	.LASF765
	.long	0x6e86
	.uleb128 0xf
	.string	"_Tp"
	.long	0x30
	.uleb128 0x8f
	.long	.LASF433
	.uleb128 0x1
	.long	0xa7eb
	.byte	0
	.uleb128 0x49
	.long	.LASF766
	.byte	0xb
	.byte	0x7b
	.byte	0x5
	.long	.LASF767
	.long	0x6eb9
	.uleb128 0xf
	.string	"_Tp"
	.long	0x56
	.uleb128 0x55
	.long	.LASF433
	.long	0x6eae
	.uleb128 0x56
	.long	0xa6f6
	.byte	0
	.uleb128 0x1
	.long	0xa6dd
	.uleb128 0x1
	.long	0xa6f6
	.byte	0
	.uleb128 0x37
	.long	.LASF768
	.byte	0xa
	.value	0x3a7
	.byte	0x5
	.long	.LASF769
	.long	0x6eec
	.uleb128 0xf
	.string	"_Up"
	.long	0x37
	.uleb128 0xf
	.string	"_Tp"
	.long	0x37
	.uleb128 0x1
	.long	0x9ff6
	.uleb128 0x1
	.long	0x9ff6
	.uleb128 0x1
	.long	0xa014
	.byte	0
	.uleb128 0x16
	.long	.LASF770
	.byte	0xc
	.value	0x1dd
	.byte	0x5
	.long	.LASF771
	.long	0xa6dd
	.long	0x6f2c
	.uleb128 0xa
	.long	.LASF61
	.long	0xa6dd
	.uleb128 0xa
	.long	.LASF62
	.long	0x3e
	.uleb128 0xf
	.string	"_Tp"
	.long	0x56
	.uleb128 0x1
	.long	0xa6dd
	.uleb128 0x1
	.long	0x3e
	.uleb128 0x1
	.long	0xa6f6
	.byte	0
	.uleb128 0x37
	.long	.LASF772
	.byte	0xa
	.value	0x3d0
	.byte	0x5
	.long	.LASF773
	.long	0x6f5f
	.uleb128 0xa
	.long	.LASF758
	.long	0x9ff6
	.uleb128 0xf
	.string	"_Tp"
	.long	0x37
	.uleb128 0x1
	.long	0x9ff6
	.uleb128 0x1
	.long	0x9ff6
	.uleb128 0x1
	.long	0xa014
	.byte	0
	.uleb128 0x16
	.long	.LASF774
	.byte	0x3
	.value	0xbce
	.byte	0x5
	.long	.LASF775
	.long	0x9ff6
	.long	0x6f83
	.uleb128 0xa
	.long	.LASF449
	.long	0x9ff6
	.uleb128 0x1
	.long	0x9ff6
	.byte	0
	.uleb128 0x37
	.long	.LASF776
	.byte	0xa
	.value	0x3bc
	.byte	0x5
	.long	.LASF777
	.long	0x6fbf
	.uleb128 0xa
	.long	.LASF778
	.long	0x9ff6
	.uleb128 0xa
	.long	.LASF779
	.long	0x1200
	.uleb128 0xf
	.string	"_Tp"
	.long	0x37
	.uleb128 0x1
	.long	0x8295
	.uleb128 0x1
	.long	0x8295
	.uleb128 0x1
	.long	0xa014
	.byte	0
	.uleb128 0x37
	.long	.LASF780
	.byte	0xa
	.value	0x37f
	.byte	0x5
	.long	.LASF781
	.long	0x6ff2
	.uleb128 0xa
	.long	.LASF61
	.long	0xa7eb
	.uleb128 0xf
	.string	"_Tp"
	.long	0x30
	.uleb128 0x1
	.long	0xa7eb
	.uleb128 0x1
	.long	0xa7eb
	.uleb128 0x1
	.long	0xa809
	.byte	0
	.uleb128 0x16
	.long	.LASF782
	.byte	0xc
	.value	0x3d6
	.byte	0x5
	.long	.LASF783
	.long	0xa7eb
	.long	0x7024
	.uleb128 0xa
	.long	.LASF61
	.long	0xa7eb
	.uleb128 0xa
	.long	.LASF62
	.long	0x3e
	.uleb128 0x1
	.long	0xa7eb
	.uleb128 0x1
	.long	0x3e
	.byte	0
	.uleb128 0x16
	.long	.LASF784
	.byte	0xc
	.value	0x226
	.byte	0x5
	.long	.LASF785
	.long	0xa6dd
	.long	0x7064
	.uleb128 0xa
	.long	.LASF61
	.long	0xa6dd
	.uleb128 0xa
	.long	.LASF62
	.long	0x3e
	.uleb128 0xf
	.string	"_Tp"
	.long	0x56
	.uleb128 0x1
	.long	0xa6dd
	.uleb128 0x1
	.long	0x3e
	.uleb128 0x1
	.long	0xa6f6
	.byte	0
	.uleb128 0x16
	.long	.LASF786
	.byte	0xa
	.value	0x100
	.byte	0x5
	.long	.LASF787
	.long	0xb2ff
	.long	0x708d
	.uleb128 0xf
	.string	"_Tp"
	.long	0x3e
	.uleb128 0x1
	.long	0xb2ff
	.uleb128 0x1
	.long	0xb2ff
	.byte	0
	.uleb128 0x16
	.long	.LASF788
	.byte	0xa
	.value	0x475
	.byte	0x5
	.long	.LASF789
	.long	0x9ff6
	.long	0x70d2
	.uleb128 0xa
	.long	.LASF761
	.long	0x9ff6
	.uleb128 0xa
	.long	.LASF62
	.long	0x3e
	.uleb128 0xf
	.string	"_Tp"
	.long	0x37
	.uleb128 0x1
	.long	0x9ff6
	.uleb128 0x1
	.long	0x3e
	.uleb128 0x1
	.long	0xa014
	.uleb128 0x1
	.long	0x6a3
	.byte	0
	.uleb128 0x16
	.long	.LASF790
	.byte	0xc
	.value	0x226
	.byte	0x5
	.long	.LASF791
	.long	0x9ff6
	.long	0x7112
	.uleb128 0xa
	.long	.LASF61
	.long	0x9ff6
	.uleb128 0xa
	.long	.LASF62
	.long	0x3e
	.uleb128 0xf
	.string	"_Tp"
	.long	0x37
	.uleb128 0x1
	.long	0x9ff6
	.uleb128 0x1
	.long	0x3e
	.uleb128 0x1
	.long	0xa014
	.byte	0
	.uleb128 0x37
	.long	.LASF792
	.byte	0xa
	.value	0x3d0
	.byte	0x5
	.long	.LASF793
	.long	0x7145
	.uleb128 0xa
	.long	.LASF758
	.long	0x8295
	.uleb128 0xf
	.string	"_Tp"
	.long	0x37
	.uleb128 0x1
	.long	0x8295
	.uleb128 0x1
	.long	0x8295
	.uleb128 0x1
	.long	0xa014
	.byte	0
	.uleb128 0x37
	.long	.LASF794
	.byte	0xa
	.value	0x3bc
	.byte	0x5
	.long	.LASF795
	.long	0x7181
	.uleb128 0xa
	.long	.LASF778
	.long	0xa7eb
	.uleb128 0xa
	.long	.LASF779
	.long	0x5ec8
	.uleb128 0xf
	.string	"_Tp"
	.long	0x30
	.uleb128 0x1
	.long	0x8f5f
	.uleb128 0x1
	.long	0x8f5f
	.uleb128 0x1
	.long	0xa809
	.byte	0
	.uleb128 0x49
	.long	.LASF796
	.byte	0xb
	.byte	0xdb
	.byte	0x5
	.long	.LASF797
	.long	0x71a5
	.uleb128 0xa
	.long	.LASF61
	.long	0xa7eb
	.uleb128 0x1
	.long	0xa7eb
	.uleb128 0x1
	.long	0xa7eb
	.byte	0
	.uleb128 0x16
	.long	.LASF798
	.byte	0xc
	.value	0x41b
	.byte	0x5
	.long	.LASF799
	.long	0xa7eb
	.long	0x71e5
	.uleb128 0xa
	.long	.LASF61
	.long	0xa7eb
	.uleb128 0xa
	.long	.LASF62
	.long	0x3e
	.uleb128 0xf
	.string	"_Tp"
	.long	0x30
	.uleb128 0x1
	.long	0xa7eb
	.uleb128 0x1
	.long	0x3e
	.uleb128 0x1
	.long	0xa81d
	.byte	0
	.uleb128 0x49
	.long	.LASF800
	.byte	0xb
	.byte	0xdb
	.byte	0x5
	.long	.LASF801
	.long	0x7209
	.uleb128 0xa
	.long	.LASF61
	.long	0xa6dd
	.uleb128 0x1
	.long	0xa6dd
	.uleb128 0x1
	.long	0xa6dd
	.byte	0
	.uleb128 0x16
	.long	.LASF802
	.byte	0xc
	.value	0x303
	.byte	0x5
	.long	.LASF803
	.long	0xa6dd
	.long	0x7257
	.uleb128 0xa
	.long	.LASF61
	.long	0xa6dd
	.uleb128 0xa
	.long	.LASF62
	.long	0x3e
	.uleb128 0xf
	.string	"_Tp"
	.long	0x56
	.uleb128 0xa
	.long	.LASF804
	.long	0x56
	.uleb128 0x1
	.long	0xa6dd
	.uleb128 0x1
	.long	0x3e
	.uleb128 0x1
	.long	0xa6f6
	.uleb128 0x1
	.long	0xa70a
	.byte	0
	.uleb128 0x90
	.long	.LASF805
	.byte	0x27
	.byte	0xcf
	.byte	0x5
	.long	0xa5ca
	.long	0x7277
	.uleb128 0xf
	.string	"_Tp"
	.long	0xa446
	.uleb128 0x1
	.long	0xa5ca
	.byte	0
	.uleb128 0x8
	.long	.LASF806
	.byte	0x13
	.byte	0x92
	.byte	0xb
	.long	0x6c0a
	.uleb128 0x46
	.long	.LASF807
	.byte	0xc
	.value	0x561
	.byte	0x5
	.long	0x7277
	.long	0x72bb
	.uleb128 0xf
	.string	"_Tp"
	.long	0xa446
	.uleb128 0xf
	.string	"_Up"
	.long	0xa446
	.uleb128 0x1
	.long	0xa5ca
	.uleb128 0x1
	.long	0xa5ca
	.uleb128 0x1
	.long	0xa5ca
	.uleb128 0x1
	.long	0xa5fc
	.byte	0
	.uleb128 0x46
	.long	.LASF808
	.byte	0x3
	.value	0xbce
	.byte	0x5
	.long	0xa5ca
	.long	0x72db
	.uleb128 0xa
	.long	.LASF449
	.long	0xa5ca
	.uleb128 0x1
	.long	0xa5ca
	.byte	0
	.uleb128 0x91
	.long	.LASF809
	.byte	0xb
	.byte	0xdb
	.byte	0x5
	.long	0x72fc
	.uleb128 0xa
	.long	.LASF61
	.long	0xa5ca
	.uleb128 0x1
	.long	0xa5ca
	.uleb128 0x1
	.long	0xa5ca
	.byte	0
	.uleb128 0x16
	.long	.LASF810
	.byte	0xa
	.value	0x49b
	.byte	0x5
	.long	.LASF811
	.long	0x9ff6
	.long	0x733c
	.uleb128 0xf
	.string	"_OI"
	.long	0x9ff6
	.uleb128 0xa
	.long	.LASF62
	.long	0x3e
	.uleb128 0xf
	.string	"_Tp"
	.long	0x37
	.uleb128 0x1
	.long	0x9ff6
	.uleb128 0x1
	.long	0x3e
	.uleb128 0x1
	.long	0xa014
	.byte	0
	.uleb128 0x16
	.long	.LASF812
	.byte	0xc
	.value	0x303
	.byte	0x5
	.long	.LASF813
	.long	0x9ff6
	.long	0x738a
	.uleb128 0xa
	.long	.LASF61
	.long	0x9ff6
	.uleb128 0xa
	.long	.LASF62
	.long	0x3e
	.uleb128 0xf
	.string	"_Tp"
	.long	0x37
	.uleb128 0xa
	.long	.LASF804
	.long	0x37
	.uleb128 0x1
	.long	0x9ff6
	.uleb128 0x1
	.long	0x3e
	.uleb128 0x1
	.long	0xa014
	.uleb128 0x1
	.long	0xa028
	.byte	0
	.uleb128 0x37
	.long	.LASF814
	.byte	0xa
	.value	0x3e9
	.byte	0x5
	.long	.LASF815
	.long	0x73bd
	.uleb128 0xa
	.long	.LASF61
	.long	0x8295
	.uleb128 0xf
	.string	"_Tp"
	.long	0x37
	.uleb128 0x1
	.long	0x8295
	.uleb128 0x1
	.long	0x8295
	.uleb128 0x1
	.long	0xa014
	.byte	0
	.uleb128 0x49
	.long	.LASF816
	.byte	0xb
	.byte	0xdb
	.byte	0x5
	.long	.LASF817
	.long	0x73e1
	.uleb128 0xa
	.long	.LASF61
	.long	0x9ff6
	.uleb128 0x1
	.long	0x9ff6
	.uleb128 0x1
	.long	0x9ff6
	.byte	0
	.uleb128 0x34
	.long	.LASF818
	.byte	0xa
	.byte	0xe8
	.byte	0x5
	.long	.LASF819
	.long	0xb2ff
	.long	0x7409
	.uleb128 0xf
	.string	"_Tp"
	.long	0x3e
	.uleb128 0x1
	.long	0xb2ff
	.uleb128 0x1
	.long	0xb2ff
	.byte	0
	.uleb128 0x37
	.long	.LASF820
	.byte	0xa
	.value	0x3d0
	.byte	0x5
	.long	.LASF821
	.long	0x743c
	.uleb128 0xa
	.long	.LASF758
	.long	0x8f5f
	.uleb128 0xf
	.string	"_Tp"
	.long	0x30
	.uleb128 0x1
	.long	0x8f5f
	.uleb128 0x1
	.long	0x8f5f
	.uleb128 0x1
	.long	0xa809
	.byte	0
	.uleb128 0x37
	.long	.LASF822
	.byte	0x8
	.value	0x43a
	.byte	0x5
	.long	.LASF823
	.long	0x746f
	.uleb128 0xa
	.long	.LASF61
	.long	0xa7eb
	.uleb128 0xf
	.string	"_Tp"
	.long	0x30
	.uleb128 0x1
	.long	0xa7eb
	.uleb128 0x1
	.long	0xa7eb
	.uleb128 0x1
	.long	0xa81d
	.byte	0
	.uleb128 0x37
	.long	.LASF824
	.byte	0x8
	.value	0x43a
	.byte	0x5
	.long	.LASF825
	.long	0x74a2
	.uleb128 0xa
	.long	.LASF61
	.long	0xa6dd
	.uleb128 0xf
	.string	"_Tp"
	.long	0x56
	.uleb128 0x1
	.long	0xa6dd
	.uleb128 0x1
	.long	0xa6dd
	.uleb128 0x1
	.long	0xa70a
	.byte	0
	.uleb128 0x46
	.long	.LASF826
	.byte	0xc
	.value	0x57c
	.byte	0x5
	.long	0xa5ca
	.long	0x74e3
	.uleb128 0xa
	.long	.LASF827
	.long	0xa5ca
	.uleb128 0xa
	.long	.LASF61
	.long	0xa5ca
	.uleb128 0xa
	.long	.LASF828
	.long	0x3335
	.uleb128 0x1
	.long	0xa5ca
	.uleb128 0x1
	.long	0xa5ca
	.uleb128 0x1
	.long	0xa5ca
	.uleb128 0x1
	.long	0xa5fc
	.byte	0
	.uleb128 0x89
	.long	.LASF829
	.value	0x43a
	.byte	0x5
	.long	0x7512
	.uleb128 0xa
	.long	.LASF61
	.long	0xa5ca
	.uleb128 0xf
	.string	"_Tp"
	.long	0xa446
	.uleb128 0x1
	.long	0xa5ca
	.uleb128 0x1
	.long	0xa5ca
	.uleb128 0x1
	.long	0xa5fc
	.byte	0
	.uleb128 0x37
	.long	.LASF830
	.byte	0x8
	.value	0x43a
	.byte	0x5
	.long	.LASF831
	.long	0x7545
	.uleb128 0xa
	.long	.LASF61
	.long	0x9ff6
	.uleb128 0xf
	.string	"_Tp"
	.long	0x37
	.uleb128 0x1
	.long	0x9ff6
	.uleb128 0x1
	.long	0x9ff6
	.uleb128 0x1
	.long	0xa028
	.byte	0
	.uleb128 0x37
	.long	.LASF832
	.byte	0xa
	.value	0x3e9
	.byte	0x5
	.long	.LASF833
	.long	0x7578
	.uleb128 0xa
	.long	.LASF61
	.long	0x8f5f
	.uleb128 0xf
	.string	"_Tp"
	.long	0x30
	.uleb128 0x1
	.long	0x8f5f
	.uleb128 0x1
	.long	0x8f5f
	.uleb128 0x1
	.long	0xa809
	.byte	0
	.uleb128 0x34
	.long	.LASF834
	.byte	0xa
	.byte	0xe8
	.byte	0x5
	.long	.LASF835
	.long	0xa6f6
	.long	0x75a0
	.uleb128 0xf
	.string	"_Tp"
	.long	0x56
	.uleb128 0x1
	.long	0xa6f6
	.uleb128 0x1
	.long	0xa6f6
	.byte	0
	.uleb128 0x16
	.long	.LASF836
	.byte	0xa
	.value	0x100
	.byte	0x5
	.long	.LASF837
	.long	0xa6f6
	.long	0x75c9
	.uleb128 0xf
	.string	"_Tp"
	.long	0x56
	.uleb128 0x1
	.long	0xa6f6
	.uleb128 0x1
	.long	0xa6f6
	.byte	0
	.uleb128 0x16
	.long	.LASF838
	.byte	0x9
	.value	0x108
	.byte	0x3
	.long	.LASF839
	.long	0x30
	.long	0x75e4
	.uleb128 0x1
	.long	0x30
	.byte	0
	.uleb128 0x92
	.long	.LASF840
	.byte	0xa
	.value	0x3fd
	.byte	0x3
	.long	.LASF841
	.long	0x3e
	.uleb128 0x1
	.long	0x3e
	.byte	0
	.byte	0
	.uleb128 0x8
	.long	.LASF6
	.byte	0x28
	.byte	0xe5
	.byte	0x17
	.long	0x3e
	.uleb128 0x7
	.long	0x75fd
	.uleb128 0x7
	.long	0x3e
	.uleb128 0xb5
	.long	.LASF1478
	.byte	0x18
	.byte	0x29
	.byte	0
	.long	0x7649
	.uleb128 0x71
	.long	.LASF842
	.long	0x7649
	.byte	0
	.uleb128 0x71
	.long	.LASF843
	.long	0x7649
	.byte	0x4
	.uleb128 0x71
	.long	.LASF844
	.long	0x7650
	.byte	0x8
	.uleb128 0x71
	.long	.LASF845
	.long	0x7650
	.byte	0x10
	.byte	0
	.uleb128 0x29
	.byte	0x4
	.byte	0x7
	.long	.LASF846
	.uleb128 0xb6
	.byte	0x8
	.uleb128 0x8
	.long	.LASF847
	.byte	0x2a
	.byte	0x14
	.byte	0x17
	.long	0x7649
	.uleb128 0x72
	.byte	0x8
	.byte	0x2b
	.byte	0xe
	.byte	0x1
	.long	.LASF1171
	.long	0x76aa
	.uleb128 0xb7
	.byte	0x4
	.byte	0x2b
	.byte	0x11
	.byte	0x3
	.long	0x768f
	.uleb128 0x93
	.long	.LASF848
	.byte	0x12
	.byte	0x13
	.long	0x7649
	.uleb128 0x93
	.long	.LASF849
	.byte	0x13
	.byte	0xa
	.long	0x76aa
	.byte	0
	.uleb128 0x11
	.long	.LASF850
	.byte	0x2b
	.byte	0xf
	.byte	0x7
	.long	0x56
	.byte	0
	.uleb128 0x11
	.long	.LASF851
	.byte	0x2b
	.byte	0x14
	.byte	0x5
	.long	0x766c
	.byte	0x4
	.byte	0
	.uleb128 0x7a
	.long	0x4a
	.long	0x76ba
	.uleb128 0x7b
	.long	0x3e
	.byte	0x3
	.byte	0
	.uleb128 0x8
	.long	.LASF852
	.byte	0x2b
	.byte	0x15
	.byte	0x3
	.long	0x765f
	.uleb128 0x8
	.long	.LASF853
	.byte	0x2c
	.byte	0x6
	.byte	0x15
	.long	0x76ba
	.uleb128 0x7
	.long	0x76c6
	.uleb128 0x8
	.long	.LASF854
	.byte	0x2d
	.byte	0x5
	.byte	0x19
	.long	0x76e3
	.uleb128 0x1a
	.long	.LASF855
	.byte	0xd8
	.byte	0x2e
	.byte	0x32
	.byte	0x8
	.long	0x787a
	.uleb128 0x11
	.long	.LASF856
	.byte	0x2e
	.byte	0x34
	.byte	0x7
	.long	0x56
	.byte	0
	.uleb128 0x11
	.long	.LASF857
	.byte	0x2e
	.byte	0x37
	.byte	0x9
	.long	0x45
	.byte	0x8
	.uleb128 0x11
	.long	.LASF858
	.byte	0x2e
	.byte	0x38
	.byte	0x9
	.long	0x45
	.byte	0x10
	.uleb128 0x11
	.long	.LASF859
	.byte	0x2e
	.byte	0x39
	.byte	0x9
	.long	0x45
	.byte	0x18
	.uleb128 0x11
	.long	.LASF860
	.byte	0x2e
	.byte	0x3a
	.byte	0x9
	.long	0x45
	.byte	0x20
	.uleb128 0x11
	.long	.LASF861
	.byte	0x2e
	.byte	0x3b
	.byte	0x9
	.long	0x45
	.byte	0x28
	.uleb128 0x11
	.long	.LASF862
	.byte	0x2e
	.byte	0x3c
	.byte	0x9
	.long	0x45
	.byte	0x30
	.uleb128 0x11
	.long	.LASF863
	.byte	0x2e
	.byte	0x3d
	.byte	0x9
	.long	0x45
	.byte	0x38
	.uleb128 0x11
	.long	.LASF864
	.byte	0x2e
	.byte	0x3e
	.byte	0x9
	.long	0x45
	.byte	0x40
	.uleb128 0x11
	.long	.LASF865
	.byte	0x2e
	.byte	0x41
	.byte	0x9
	.long	0x45
	.byte	0x48
	.uleb128 0x11
	.long	.LASF866
	.byte	0x2e
	.byte	0x42
	.byte	0x9
	.long	0x45
	.byte	0x50
	.uleb128 0x11
	.long	.LASF867
	.byte	0x2e
	.byte	0x43
	.byte	0x9
	.long	0x45
	.byte	0x58
	.uleb128 0x11
	.long	.LASF868
	.byte	0x2e
	.byte	0x45
	.byte	0x16
	.long	0x9a68
	.byte	0x60
	.uleb128 0x11
	.long	.LASF869
	.byte	0x2e
	.byte	0x47
	.byte	0x14
	.long	0x9a6d
	.byte	0x68
	.uleb128 0x11
	.long	.LASF870
	.byte	0x2e
	.byte	0x49
	.byte	0x7
	.long	0x56
	.byte	0x70
	.uleb128 0xb8
	.long	.LASF987
	.byte	0x2e
	.byte	0x4a
	.byte	0x7
	.long	0x56
	.byte	0x18
	.value	0x3a0
	.uleb128 0x11
	.long	.LASF871
	.byte	0x2e
	.byte	0x4c
	.byte	0x8
	.long	0x9a72
	.byte	0x77
	.uleb128 0x11
	.long	.LASF872
	.byte	0x2e
	.byte	0x4d
	.byte	0xb
	.long	0x9584
	.byte	0x78
	.uleb128 0x11
	.long	.LASF873
	.byte	0x2e
	.byte	0x50
	.byte	0x12
	.long	0x7886
	.byte	0x80
	.uleb128 0x11
	.long	.LASF874
	.byte	0x2e
	.byte	0x51
	.byte	0xf
	.long	0x92e8
	.byte	0x82
	.uleb128 0x11
	.long	.LASF875
	.byte	0x2e
	.byte	0x52
	.byte	0x8
	.long	0x9a72
	.byte	0x83
	.uleb128 0x11
	.long	.LASF876
	.byte	0x2e
	.byte	0x54
	.byte	0xf
	.long	0x9a82
	.byte	0x88
	.uleb128 0x11
	.long	.LASF877
	.byte	0x2e
	.byte	0x5c
	.byte	0xd
	.long	0x9590
	.byte	0x90
	.uleb128 0x11
	.long	.LASF878
	.byte	0x2e
	.byte	0x5e
	.byte	0x17
	.long	0x9a8c
	.byte	0x98
	.uleb128 0x11
	.long	.LASF879
	.byte	0x2e
	.byte	0x5f
	.byte	0x19
	.long	0x9a96
	.byte	0xa0
	.uleb128 0x11
	.long	.LASF880
	.byte	0x2e
	.byte	0x60
	.byte	0x14
	.long	0x9a6d
	.byte	0xa8
	.uleb128 0x11
	.long	.LASF881
	.byte	0x2e
	.byte	0x61
	.byte	0x9
	.long	0x7650
	.byte	0xb0
	.uleb128 0x11
	.long	.LASF882
	.byte	0x2e
	.byte	0x62
	.byte	0x15
	.long	0x9a9b
	.byte	0xb8
	.uleb128 0x11
	.long	.LASF883
	.byte	0x2e
	.byte	0x63
	.byte	0x7
	.long	0x56
	.byte	0xc0
	.uleb128 0x11
	.long	.LASF884
	.byte	0x2e
	.byte	0x65
	.byte	0x8
	.long	0x9aa0
	.byte	0xc4
	.byte	0
	.uleb128 0x8
	.long	.LASF885
	.byte	0x2f
	.byte	0x7
	.byte	0x19
	.long	0x76e3
	.uleb128 0x29
	.byte	0x2
	.byte	0x7
	.long	.LASF886
	.uleb128 0xd
	.long	0x5e
	.uleb128 0xd
	.long	0x51
	.uleb128 0x15
	.long	.LASF887
	.byte	0x30
	.value	0x157
	.byte	0x1
	.long	0x7653
	.long	0x78ae
	.uleb128 0x1
	.long	0x56
	.byte	0
	.uleb128 0x15
	.long	.LASF888
	.byte	0x30
	.value	0x3a7
	.byte	0xf
	.long	0x7653
	.long	0x78c5
	.uleb128 0x1
	.long	0x78c5
	.byte	0
	.uleb128 0xd
	.long	0x76d7
	.uleb128 0x15
	.long	.LASF889
	.byte	0x30
	.value	0x3c4
	.byte	0x11
	.long	0x78eb
	.long	0x78eb
	.uleb128 0x1
	.long	0x78eb
	.uleb128 0x1
	.long	0x56
	.uleb128 0x1
	.long	0x78c5
	.byte	0
	.uleb128 0xd
	.long	0x78f0
	.uleb128 0x29
	.byte	0x4
	.byte	0x5
	.long	.LASF890
	.uleb128 0x7
	.long	0x78f0
	.uleb128 0x15
	.long	.LASF891
	.byte	0x30
	.value	0x3b5
	.byte	0xf
	.long	0x7653
	.long	0x7918
	.uleb128 0x1
	.long	0x78f0
	.uleb128 0x1
	.long	0x78c5
	.byte	0
	.uleb128 0x15
	.long	.LASF892
	.byte	0x30
	.value	0x3cb
	.byte	0xc
	.long	0x56
	.long	0x7934
	.uleb128 0x1
	.long	0x7934
	.uleb128 0x1
	.long	0x78c5
	.byte	0
	.uleb128 0xd
	.long	0x78f7
	.uleb128 0x15
	.long	.LASF893
	.byte	0x30
	.value	0x2d5
	.byte	0xc
	.long	0x56
	.long	0x7955
	.uleb128 0x1
	.long	0x78c5
	.uleb128 0x1
	.long	0x56
	.byte	0
	.uleb128 0x15
	.long	.LASF894
	.byte	0x30
	.value	0x2dc
	.byte	0xc
	.long	0x56
	.long	0x7972
	.uleb128 0x1
	.long	0x78c5
	.uleb128 0x1
	.long	0x7934
	.uleb128 0x5f
	.byte	0
	.uleb128 0x16
	.long	.LASF895
	.byte	0x30
	.value	0x31b
	.byte	0xc
	.long	.LASF896
	.long	0x56
	.long	0x7993
	.uleb128 0x1
	.long	0x78c5
	.uleb128 0x1
	.long	0x7934
	.uleb128 0x5f
	.byte	0
	.uleb128 0x15
	.long	.LASF897
	.byte	0x30
	.value	0x3a8
	.byte	0xf
	.long	0x7653
	.long	0x79aa
	.uleb128 0x1
	.long	0x78c5
	.byte	0
	.uleb128 0x94
	.long	.LASF1145
	.byte	0x30
	.value	0x3ae
	.byte	0xf
	.long	0x7653
	.uleb128 0x15
	.long	.LASF898
	.byte	0x30
	.value	0x162
	.byte	0x1
	.long	0x75fd
	.long	0x79d9
	.uleb128 0x1
	.long	0x7892
	.uleb128 0x1
	.long	0x75fd
	.uleb128 0x1
	.long	0x79d9
	.byte	0
	.uleb128 0xd
	.long	0x76c6
	.uleb128 0x15
	.long	.LASF899
	.byte	0x30
	.value	0x141
	.byte	0xf
	.long	0x75fd
	.long	0x7a04
	.uleb128 0x1
	.long	0x78eb
	.uleb128 0x1
	.long	0x7892
	.uleb128 0x1
	.long	0x75fd
	.uleb128 0x1
	.long	0x79d9
	.byte	0
	.uleb128 0x15
	.long	.LASF900
	.byte	0x30
	.value	0x13d
	.byte	0xc
	.long	0x56
	.long	0x7a1b
	.uleb128 0x1
	.long	0x7a1b
	.byte	0
	.uleb128 0xd
	.long	0x76d2
	.uleb128 0x15
	.long	.LASF901
	.byte	0x30
	.value	0x16a
	.byte	0xf
	.long	0x75fd
	.long	0x7a46
	.uleb128 0x1
	.long	0x78eb
	.uleb128 0x1
	.long	0x7a46
	.uleb128 0x1
	.long	0x75fd
	.uleb128 0x1
	.long	0x79d9
	.byte	0
	.uleb128 0xd
	.long	0x7892
	.uleb128 0x15
	.long	.LASF902
	.byte	0x30
	.value	0x3b6
	.byte	0xf
	.long	0x7653
	.long	0x7a67
	.uleb128 0x1
	.long	0x78f0
	.uleb128 0x1
	.long	0x78c5
	.byte	0
	.uleb128 0x15
	.long	.LASF903
	.byte	0x30
	.value	0x3bc
	.byte	0xf
	.long	0x7653
	.long	0x7a7e
	.uleb128 0x1
	.long	0x78f0
	.byte	0
	.uleb128 0x15
	.long	.LASF904
	.byte	0x30
	.value	0x2e6
	.byte	0xc
	.long	0x56
	.long	0x7aa0
	.uleb128 0x1
	.long	0x78eb
	.uleb128 0x1
	.long	0x75fd
	.uleb128 0x1
	.long	0x7934
	.uleb128 0x5f
	.byte	0
	.uleb128 0x16
	.long	.LASF905
	.byte	0x30
	.value	0x322
	.byte	0xc
	.long	.LASF906
	.long	0x56
	.long	0x7ac1
	.uleb128 0x1
	.long	0x7934
	.uleb128 0x1
	.long	0x7934
	.uleb128 0x5f
	.byte	0
	.uleb128 0x15
	.long	.LASF907
	.byte	0x30
	.value	0x3d3
	.byte	0xf
	.long	0x7653
	.long	0x7add
	.uleb128 0x1
	.long	0x7653
	.uleb128 0x1
	.long	0x78c5
	.byte	0
	.uleb128 0x15
	.long	.LASF908
	.byte	0x30
	.value	0x2ee
	.byte	0xc
	.long	0x56
	.long	0x7afe
	.uleb128 0x1
	.long	0x78c5
	.uleb128 0x1
	.long	0x7934
	.uleb128 0x1
	.long	0x7afe
	.byte	0
	.uleb128 0xd
	.long	0x7613
	.uleb128 0x16
	.long	.LASF909
	.byte	0x30
	.value	0x36b
	.byte	0xc
	.long	.LASF910
	.long	0x56
	.long	0x7b28
	.uleb128 0x1
	.long	0x78c5
	.uleb128 0x1
	.long	0x7934
	.uleb128 0x1
	.long	0x7afe
	.byte	0
	.uleb128 0x15
	.long	.LASF911
	.byte	0x30
	.value	0x2fb
	.byte	0xc
	.long	0x56
	.long	0x7b4e
	.uleb128 0x1
	.long	0x78eb
	.uleb128 0x1
	.long	0x75fd
	.uleb128 0x1
	.long	0x7934
	.uleb128 0x1
	.long	0x7afe
	.byte	0
	.uleb128 0x16
	.long	.LASF912
	.byte	0x30
	.value	0x372
	.byte	0xc
	.long	.LASF913
	.long	0x56
	.long	0x7b73
	.uleb128 0x1
	.long	0x7934
	.uleb128 0x1
	.long	0x7934
	.uleb128 0x1
	.long	0x7afe
	.byte	0
	.uleb128 0x15
	.long	.LASF914
	.byte	0x30
	.value	0x2f6
	.byte	0xc
	.long	0x56
	.long	0x7b8f
	.uleb128 0x1
	.long	0x7934
	.uleb128 0x1
	.long	0x7afe
	.byte	0
	.uleb128 0x16
	.long	.LASF915
	.byte	0x30
	.value	0x36f
	.byte	0xc
	.long	.LASF916
	.long	0x56
	.long	0x7baf
	.uleb128 0x1
	.long	0x7934
	.uleb128 0x1
	.long	0x7afe
	.byte	0
	.uleb128 0x15
	.long	.LASF917
	.byte	0x30
	.value	0x146
	.byte	0xf
	.long	0x75fd
	.long	0x7bd0
	.uleb128 0x1
	.long	0x45
	.uleb128 0x1
	.long	0x78f0
	.uleb128 0x1
	.long	0x79d9
	.byte	0
	.uleb128 0x24
	.long	.LASF918
	.byte	0x30
	.byte	0x79
	.byte	0x11
	.long	0x78eb
	.long	0x7beb
	.uleb128 0x1
	.long	0x78eb
	.uleb128 0x1
	.long	0x7934
	.byte	0
	.uleb128 0x24
	.long	.LASF919
	.byte	0x30
	.byte	0x82
	.byte	0xc
	.long	0x56
	.long	0x7c06
	.uleb128 0x1
	.long	0x7934
	.uleb128 0x1
	.long	0x7934
	.byte	0
	.uleb128 0x24
	.long	.LASF920
	.byte	0x30
	.byte	0x9b
	.byte	0xc
	.long	0x56
	.long	0x7c21
	.uleb128 0x1
	.long	0x7934
	.uleb128 0x1
	.long	0x7934
	.byte	0
	.uleb128 0x24
	.long	.LASF921
	.byte	0x30
	.byte	0x62
	.byte	0x11
	.long	0x78eb
	.long	0x7c3c
	.uleb128 0x1
	.long	0x78eb
	.uleb128 0x1
	.long	0x7934
	.byte	0
	.uleb128 0x24
	.long	.LASF922
	.byte	0x30
	.byte	0xd4
	.byte	0xf
	.long	0x75fd
	.long	0x7c57
	.uleb128 0x1
	.long	0x7934
	.uleb128 0x1
	.long	0x7934
	.byte	0
	.uleb128 0x15
	.long	.LASF923
	.byte	0x30
	.value	0x413
	.byte	0xf
	.long	0x75fd
	.long	0x7c7d
	.uleb128 0x1
	.long	0x78eb
	.uleb128 0x1
	.long	0x75fd
	.uleb128 0x1
	.long	0x7934
	.uleb128 0x1
	.long	0x7c7d
	.byte	0
	.uleb128 0xd
	.long	0x7d1f
	.uleb128 0xb9
	.string	"tm"
	.byte	0x38
	.byte	0x31
	.byte	0x7
	.byte	0x8
	.long	0x7d1f
	.uleb128 0x11
	.long	.LASF924
	.byte	0x31
	.byte	0x9
	.byte	0x7
	.long	0x56
	.byte	0
	.uleb128 0x11
	.long	.LASF925
	.byte	0x31
	.byte	0xa
	.byte	0x7
	.long	0x56
	.byte	0x4
	.uleb128 0x11
	.long	.LASF926
	.byte	0x31
	.byte	0xb
	.byte	0x7
	.long	0x56
	.byte	0x8
	.uleb128 0x11
	.long	.LASF927
	.byte	0x31
	.byte	0xc
	.byte	0x7
	.long	0x56
	.byte	0xc
	.uleb128 0x11
	.long	.LASF928
	.byte	0x31
	.byte	0xd
	.byte	0x7
	.long	0x56
	.byte	0x10
	.uleb128 0x11
	.long	.LASF929
	.byte	0x31
	.byte	0xe
	.byte	0x7
	.long	0x56
	.byte	0x14
	.uleb128 0x11
	.long	.LASF930
	.byte	0x31
	.byte	0xf
	.byte	0x7
	.long	0x56
	.byte	0x18
	.uleb128 0x11
	.long	.LASF931
	.byte	0x31
	.byte	0x10
	.byte	0x7
	.long	0x56
	.byte	0x1c
	.uleb128 0x11
	.long	.LASF932
	.byte	0x31
	.byte	0x11
	.byte	0x7
	.long	0x56
	.byte	0x20
	.uleb128 0x11
	.long	.LASF933
	.byte	0x31
	.byte	0x14
	.byte	0xc
	.long	0x7e6e
	.byte	0x28
	.uleb128 0x11
	.long	.LASF934
	.byte	0x31
	.byte	0x15
	.byte	0xf
	.long	0x7892
	.byte	0x30
	.byte	0
	.uleb128 0x7
	.long	0x7c82
	.uleb128 0x24
	.long	.LASF935
	.byte	0x30
	.byte	0xf7
	.byte	0xf
	.long	0x75fd
	.long	0x7d3a
	.uleb128 0x1
	.long	0x7934
	.byte	0
	.uleb128 0x24
	.long	.LASF936
	.byte	0x30
	.byte	0x7d
	.byte	0x11
	.long	0x78eb
	.long	0x7d5a
	.uleb128 0x1
	.long	0x78eb
	.uleb128 0x1
	.long	0x7934
	.uleb128 0x1
	.long	0x75fd
	.byte	0
	.uleb128 0x24
	.long	.LASF937
	.byte	0x30
	.byte	0x85
	.byte	0xc
	.long	0x56
	.long	0x7d7a
	.uleb128 0x1
	.long	0x7934
	.uleb128 0x1
	.long	0x7934
	.uleb128 0x1
	.long	0x75fd
	.byte	0
	.uleb128 0x24
	.long	.LASF938
	.byte	0x30
	.byte	0x67
	.byte	0x11
	.long	0x78eb
	.long	0x7d9a
	.uleb128 0x1
	.long	0x78eb
	.uleb128 0x1
	.long	0x7934
	.uleb128 0x1
	.long	0x75fd
	.byte	0
	.uleb128 0x15
	.long	.LASF939
	.byte	0x30
	.value	0x170
	.byte	0xf
	.long	0x75fd
	.long	0x7dc0
	.uleb128 0x1
	.long	0x45
	.uleb128 0x1
	.long	0x7dc0
	.uleb128 0x1
	.long	0x75fd
	.uleb128 0x1
	.long	0x79d9
	.byte	0
	.uleb128 0xd
	.long	0x7934
	.uleb128 0x24
	.long	.LASF940
	.byte	0x30
	.byte	0xd8
	.byte	0xf
	.long	0x75fd
	.long	0x7de0
	.uleb128 0x1
	.long	0x7934
	.uleb128 0x1
	.long	0x7934
	.byte	0
	.uleb128 0x15
	.long	.LASF941
	.byte	0x30
	.value	0x192
	.byte	0xf
	.long	0x7dfc
	.long	0x7dfc
	.uleb128 0x1
	.long	0x7934
	.uleb128 0x1
	.long	0x7e03
	.byte	0
	.uleb128 0x29
	.byte	0x8
	.byte	0x4
	.long	.LASF942
	.uleb128 0xd
	.long	0x78eb
	.uleb128 0x15
	.long	.LASF943
	.byte	0x30
	.value	0x197
	.byte	0xe
	.long	0x30
	.long	0x7e24
	.uleb128 0x1
	.long	0x7934
	.uleb128 0x1
	.long	0x7e03
	.byte	0
	.uleb128 0x7
	.long	0x30
	.uleb128 0x24
	.long	.LASF944
	.byte	0x30
	.byte	0xf2
	.byte	0x11
	.long	0x78eb
	.long	0x7e49
	.uleb128 0x1
	.long	0x78eb
	.uleb128 0x1
	.long	0x7934
	.uleb128 0x1
	.long	0x7e03
	.byte	0
	.uleb128 0x16
	.long	.LASF945
	.byte	0x30
	.value	0x1f4
	.byte	0x11
	.long	.LASF946
	.long	0x7e6e
	.long	0x7e6e
	.uleb128 0x1
	.long	0x7934
	.uleb128 0x1
	.long	0x7e03
	.uleb128 0x1
	.long	0x56
	.byte	0
	.uleb128 0x29
	.byte	0x8
	.byte	0x5
	.long	.LASF947
	.uleb128 0x16
	.long	.LASF948
	.byte	0x30
	.value	0x1f7
	.byte	0x1a
	.long	.LASF949
	.long	0x3e
	.long	0x7e9a
	.uleb128 0x1
	.long	0x7934
	.uleb128 0x1
	.long	0x7e03
	.uleb128 0x1
	.long	0x56
	.byte	0
	.uleb128 0x24
	.long	.LASF950
	.byte	0x30
	.byte	0x9f
	.byte	0xf
	.long	0x75fd
	.long	0x7eba
	.uleb128 0x1
	.long	0x78eb
	.uleb128 0x1
	.long	0x7934
	.uleb128 0x1
	.long	0x75fd
	.byte	0
	.uleb128 0x15
	.long	.LASF951
	.byte	0x30
	.value	0x15d
	.byte	0x1
	.long	0x56
	.long	0x7ed1
	.uleb128 0x1
	.long	0x7653
	.byte	0
	.uleb128 0x15
	.long	.LASF952
	.byte	0x30
	.value	0x11b
	.byte	0xc
	.long	0x56
	.long	0x7ef2
	.uleb128 0x1
	.long	0x7934
	.uleb128 0x1
	.long	0x7934
	.uleb128 0x1
	.long	0x75fd
	.byte	0
	.uleb128 0x15
	.long	.LASF953
	.byte	0x30
	.value	0x11f
	.byte	0x11
	.long	0x78eb
	.long	0x7f13
	.uleb128 0x1
	.long	0x78eb
	.uleb128 0x1
	.long	0x7934
	.uleb128 0x1
	.long	0x75fd
	.byte	0
	.uleb128 0x15
	.long	.LASF954
	.byte	0x30
	.value	0x124
	.byte	0x11
	.long	0x78eb
	.long	0x7f34
	.uleb128 0x1
	.long	0x78eb
	.uleb128 0x1
	.long	0x7934
	.uleb128 0x1
	.long	0x75fd
	.byte	0
	.uleb128 0x15
	.long	.LASF955
	.byte	0x30
	.value	0x128
	.byte	0x11
	.long	0x78eb
	.long	0x7f55
	.uleb128 0x1
	.long	0x78eb
	.uleb128 0x1
	.long	0x78f0
	.uleb128 0x1
	.long	0x75fd
	.byte	0
	.uleb128 0x15
	.long	.LASF956
	.byte	0x30
	.value	0x2e3
	.byte	0xc
	.long	0x56
	.long	0x7f6d
	.uleb128 0x1
	.long	0x7934
	.uleb128 0x5f
	.byte	0
	.uleb128 0x16
	.long	.LASF957
	.byte	0x30
	.value	0x31f
	.byte	0xc
	.long	.LASF958
	.long	0x56
	.long	0x7f89
	.uleb128 0x1
	.long	0x7934
	.uleb128 0x5f
	.byte	0
	.uleb128 0x34
	.long	.LASF959
	.byte	0x30
	.byte	0xba
	.byte	0x1d
	.long	.LASF959
	.long	0x7934
	.long	0x7fa8
	.uleb128 0x1
	.long	0x7934
	.uleb128 0x1
	.long	0x78f0
	.byte	0
	.uleb128 0x34
	.long	.LASF959
	.byte	0x30
	.byte	0xb8
	.byte	0x17
	.long	.LASF959
	.long	0x78eb
	.long	0x7fc7
	.uleb128 0x1
	.long	0x78eb
	.uleb128 0x1
	.long	0x78f0
	.byte	0
	.uleb128 0x34
	.long	.LASF960
	.byte	0x30
	.byte	0xde
	.byte	0x1d
	.long	.LASF960
	.long	0x7934
	.long	0x7fe6
	.uleb128 0x1
	.long	0x7934
	.uleb128 0x1
	.long	0x7934
	.byte	0
	.uleb128 0x34
	.long	.LASF960
	.byte	0x30
	.byte	0xdc
	.byte	0x17
	.long	.LASF960
	.long	0x78eb
	.long	0x8005
	.uleb128 0x1
	.long	0x78eb
	.uleb128 0x1
	.long	0x7934
	.byte	0
	.uleb128 0x34
	.long	.LASF961
	.byte	0x30
	.byte	0xc4
	.byte	0x1d
	.long	.LASF961
	.long	0x7934
	.long	0x8024
	.uleb128 0x1
	.long	0x7934
	.uleb128 0x1
	.long	0x78f0
	.byte	0
	.uleb128 0x34
	.long	.LASF961
	.byte	0x30
	.byte	0xc2
	.byte	0x17
	.long	.LASF961
	.long	0x78eb
	.long	0x8043
	.uleb128 0x1
	.long	0x78eb
	.uleb128 0x1
	.long	0x78f0
	.byte	0
	.uleb128 0x34
	.long	.LASF962
	.byte	0x30
	.byte	0xe9
	.byte	0x1d
	.long	.LASF962
	.long	0x7934
	.long	0x8062
	.uleb128 0x1
	.long	0x7934
	.uleb128 0x1
	.long	0x7934
	.byte	0
	.uleb128 0x34
	.long	.LASF962
	.byte	0x30
	.byte	0xe7
	.byte	0x17
	.long	.LASF962
	.long	0x78eb
	.long	0x8081
	.uleb128 0x1
	.long	0x78eb
	.uleb128 0x1
	.long	0x7934
	.byte	0
	.uleb128 0x16
	.long	.LASF963
	.byte	0x30
	.value	0x112
	.byte	0x1d
	.long	.LASF963
	.long	0x7934
	.long	0x80a6
	.uleb128 0x1
	.long	0x7934
	.uleb128 0x1
	.long	0x78f0
	.uleb128 0x1
	.long	0x75fd
	.byte	0
	.uleb128 0x16
	.long	.LASF963
	.byte	0x30
	.value	0x110
	.byte	0x17
	.long	.LASF963
	.long	0x78eb
	.long	0x80cb
	.uleb128 0x1
	.long	0x78eb
	.uleb128 0x1
	.long	0x78f0
	.uleb128 0x1
	.long	0x75fd
	.byte	0
	.uleb128 0x95
	.long	.LASF964
	.byte	0x12
	.value	0x17b
	.long	0x9207
	.uleb128 0x5
	.byte	0x11
	.byte	0xfd
	.byte	0xb
	.long	0x9207
	.uleb128 0x19
	.byte	0x11
	.value	0x106
	.byte	0xb
	.long	0x922a
	.uleb128 0x19
	.byte	0x11
	.value	0x107
	.byte	0xb
	.long	0x9256
	.uleb128 0x5
	.byte	0x18
	.byte	0xd2
	.byte	0xb
	.long	0x9667
	.uleb128 0x5
	.byte	0x18
	.byte	0xe4
	.byte	0xb
	.long	0x9975
	.uleb128 0x5
	.byte	0x18
	.byte	0xf0
	.byte	0xb
	.long	0x9991
	.uleb128 0x5
	.byte	0x18
	.byte	0xf1
	.byte	0xb
	.long	0x99a8
	.uleb128 0x5
	.byte	0x18
	.byte	0xf2
	.byte	0xb
	.long	0x99cc
	.uleb128 0x5
	.byte	0x18
	.byte	0xf4
	.byte	0xb
	.long	0x99f0
	.uleb128 0x5
	.byte	0x18
	.byte	0xf5
	.byte	0xb
	.long	0x9a0b
	.uleb128 0x4a
	.string	"div"
	.byte	0x18
	.byte	0xe1
	.long	.LASF965
	.long	0x9667
	.long	0x8148
	.uleb128 0x1
	.long	0x924f
	.uleb128 0x1
	.long	0x924f
	.byte	0
	.uleb128 0xba
	.long	.LASF1479
	.byte	0x7
	.byte	0x4
	.long	0x7649
	.byte	0x4d
	.byte	0x36
	.byte	0x8
	.long	0x816e
	.uleb128 0x7c
	.long	.LASF966
	.byte	0
	.uleb128 0x7c
	.long	.LASF967
	.byte	0x1
	.uleb128 0x7c
	.long	.LASF968
	.byte	0x2
	.byte	0
	.uleb128 0x7
	.long	0x8148
	.uleb128 0xbb
	.long	.LASF1480
	.byte	0x4d
	.byte	0x3a
	.byte	0x28
	.long	.LASF1481
	.long	0x816e
	.byte	0x2
	.byte	0x3
	.uleb128 0x1a
	.long	.LASF969
	.byte	0x1
	.byte	0x32
	.byte	0x2f
	.byte	0xa
	.long	0x8295
	.uleb128 0x5
	.byte	0x32
	.byte	0x2f
	.byte	0xa
	.long	0xd93
	.uleb128 0x5
	.byte	0x32
	.byte	0x2f
	.byte	0xa
	.long	0xd54
	.uleb128 0x5
	.byte	0x32
	.byte	0x2f
	.byte	0xa
	.long	0xdc5
	.uleb128 0x5
	.byte	0x32
	.byte	0x2f
	.byte	0xa
	.long	0xde6
	.uleb128 0x35
	.long	0xd39
	.uleb128 0x34
	.long	.LASF970
	.byte	0x32
	.byte	0x63
	.byte	0x1d
	.long	.LASF971
	.long	0xcb0
	.long	0x81d2
	.uleb128 0x1
	.long	0xa023
	.byte	0
	.uleb128 0x49
	.long	.LASF972
	.byte	0x32
	.byte	0x67
	.byte	0x26
	.long	.LASF973
	.long	0x81ed
	.uleb128 0x1
	.long	0xa028
	.uleb128 0x1
	.long	0xa028
	.byte	0
	.uleb128 0x32
	.long	.LASF974
	.byte	0x6b
	.long	.LASF975
	.long	0x92c6
	.uleb128 0x32
	.long	.LASF976
	.byte	0x6f
	.long	.LASF977
	.long	0x92c6
	.uleb128 0x32
	.long	.LASF978
	.byte	0x73
	.long	.LASF979
	.long	0x92c6
	.uleb128 0x32
	.long	.LASF980
	.byte	0x77
	.long	.LASF981
	.long	0x92c6
	.uleb128 0x32
	.long	.LASF982
	.byte	0x7b
	.long	.LASF983
	.long	0x92c6
	.uleb128 0x8
	.long	.LASF7
	.byte	0x32
	.byte	0x37
	.byte	0x35
	.long	0xe1c
	.uleb128 0x7
	.long	0x8233
	.uleb128 0x8
	.long	.LASF75
	.byte	0x32
	.byte	0x38
	.byte	0x35
	.long	0xd47
	.uleb128 0x8
	.long	.LASF76
	.byte	0x32
	.byte	0x3d
	.byte	0x35
	.long	0xa037
	.uleb128 0x8
	.long	.LASF79
	.byte	0x32
	.byte	0x3e
	.byte	0x35
	.long	0xa03c
	.uleb128 0x1a
	.long	.LASF984
	.byte	0x1
	.byte	0x32
	.byte	0x7f
	.byte	0xe
	.long	0x828b
	.uleb128 0x8
	.long	.LASF985
	.byte	0x32
	.byte	0x80
	.byte	0x41
	.long	0xe29
	.uleb128 0xf
	.string	"_Tp"
	.long	0x37
	.byte	0
	.uleb128 0xa
	.long	.LASF147
	.long	0xcb0
	.byte	0
	.uleb128 0x48
	.long	.LASF986
	.byte	0x8
	.byte	0x3
	.value	0x402
	.long	0x84c3
	.uleb128 0x66
	.long	.LASF988
	.long	0x9ff6
	.uleb128 0x10
	.long	.LASF989
	.byte	0x3
	.value	0x41d
	.byte	0x7
	.long	.LASF990
	.byte	0x1
	.long	0x82c1
	.long	0x82c7
	.uleb128 0x2
	.long	0xa903
	.byte	0
	.uleb128 0x40
	.long	.LASF989
	.byte	0x3
	.value	0x422
	.long	.LASF991
	.long	0x82db
	.long	0x82e6
	.uleb128 0x2
	.long	0xa903
	.uleb128 0x1
	.long	0xa90d
	.byte	0
	.uleb128 0x14
	.long	.LASF76
	.byte	0x3
	.value	0x414
	.byte	0x32
	.long	0x6c80
	.uleb128 0x6
	.long	.LASF992
	.byte	0x3
	.value	0x441
	.byte	0x7
	.long	.LASF993
	.long	0x82e6
	.byte	0x1
	.long	0x830d
	.long	0x8313
	.uleb128 0x2
	.long	0xa912
	.byte	0
	.uleb128 0x14
	.long	.LASF75
	.byte	0x3
	.value	0x415
	.byte	0x32
	.long	0x6c74
	.uleb128 0x6
	.long	.LASF994
	.byte	0x3
	.value	0x447
	.byte	0x7
	.long	.LASF995
	.long	0x8313
	.byte	0x1
	.long	0x833a
	.long	0x8340
	.uleb128 0x2
	.long	0xa912
	.byte	0
	.uleb128 0x6
	.long	.LASF996
	.byte	0x3
	.value	0x44d
	.byte	0x7
	.long	.LASF997
	.long	0xa91c
	.byte	0x1
	.long	0x835a
	.long	0x8360
	.uleb128 0x2
	.long	0xa903
	.byte	0
	.uleb128 0x6
	.long	.LASF996
	.byte	0x3
	.value	0x456
	.byte	0x7
	.long	.LASF998
	.long	0x8295
	.byte	0x1
	.long	0x837a
	.long	0x8385
	.uleb128 0x2
	.long	0xa903
	.uleb128 0x1
	.long	0x56
	.byte	0
	.uleb128 0x6
	.long	.LASF999
	.byte	0x3
	.value	0x45e
	.byte	0x7
	.long	.LASF1000
	.long	0xa91c
	.byte	0x1
	.long	0x839f
	.long	0x83a5
	.uleb128 0x2
	.long	0xa903
	.byte	0
	.uleb128 0x6
	.long	.LASF999
	.byte	0x3
	.value	0x467
	.byte	0x7
	.long	.LASF1001
	.long	0x8295
	.byte	0x1
	.long	0x83bf
	.long	0x83ca
	.uleb128 0x2
	.long	0xa903
	.uleb128 0x1
	.long	0x56
	.byte	0
	.uleb128 0x6
	.long	.LASF214
	.byte	0x3
	.value	0x46f
	.byte	0x7
	.long	.LASF1002
	.long	0x82e6
	.byte	0x1
	.long	0x83e4
	.long	0x83ef
	.uleb128 0x2
	.long	0xa912
	.uleb128 0x1
	.long	0x83ef
	.byte	0
	.uleb128 0x14
	.long	.LASF448
	.byte	0x3
	.value	0x413
	.byte	0x38
	.long	0x6c68
	.uleb128 0x6
	.long	.LASF1003
	.byte	0x3
	.value	0x475
	.byte	0x7
	.long	.LASF1004
	.long	0xa91c
	.byte	0x1
	.long	0x8416
	.long	0x8421
	.uleb128 0x2
	.long	0xa903
	.uleb128 0x1
	.long	0x83ef
	.byte	0
	.uleb128 0x6
	.long	.LASF1005
	.byte	0x3
	.value	0x47b
	.byte	0x7
	.long	.LASF1006
	.long	0x8295
	.byte	0x1
	.long	0x843b
	.long	0x8446
	.uleb128 0x2
	.long	0xa912
	.uleb128 0x1
	.long	0x83ef
	.byte	0
	.uleb128 0x6
	.long	.LASF1007
	.byte	0x3
	.value	0x481
	.byte	0x7
	.long	.LASF1008
	.long	0xa91c
	.byte	0x1
	.long	0x8460
	.long	0x846b
	.uleb128 0x2
	.long	0xa903
	.uleb128 0x1
	.long	0x83ef
	.byte	0
	.uleb128 0x6
	.long	.LASF1009
	.byte	0x3
	.value	0x487
	.byte	0x7
	.long	.LASF1010
	.long	0x8295
	.byte	0x1
	.long	0x8485
	.long	0x8490
	.uleb128 0x2
	.long	0xa912
	.uleb128 0x1
	.long	0x83ef
	.byte	0
	.uleb128 0x6
	.long	.LASF1011
	.byte	0x3
	.value	0x48d
	.byte	0x7
	.long	.LASF1012
	.long	0xa90d
	.byte	0x1
	.long	0x84aa
	.long	0x84b0
	.uleb128 0x2
	.long	0xa912
	.byte	0
	.uleb128 0xa
	.long	.LASF449
	.long	0x9ff6
	.uleb128 0xa
	.long	.LASF1013
	.long	0x1200
	.byte	0
	.uleb128 0x7
	.long	0x8295
	.uleb128 0x33
	.long	.LASF1014
	.uleb128 0x1a
	.long	.LASF1015
	.byte	0x1
	.byte	0x32
	.byte	0x2f
	.byte	0xa
	.long	0x85dc
	.uleb128 0x5
	.byte	0x32
	.byte	0x2f
	.byte	0xa
	.long	0x2163
	.uleb128 0x5
	.byte	0x32
	.byte	0x2f
	.byte	0xa
	.long	0x2124
	.uleb128 0x5
	.byte	0x32
	.byte	0x2f
	.byte	0xa
	.long	0x2195
	.uleb128 0x5
	.byte	0x32
	.byte	0x2f
	.byte	0xa
	.long	0x21b6
	.uleb128 0x35
	.long	0x2109
	.uleb128 0x34
	.long	.LASF970
	.byte	0x32
	.byte	0x63
	.byte	0x1d
	.long	.LASF1016
	.long	0x2080
	.long	0x8519
	.uleb128 0x1
	.long	0xa516
	.byte	0
	.uleb128 0x49
	.long	.LASF972
	.byte	0x32
	.byte	0x67
	.byte	0x26
	.long	.LASF1017
	.long	0x8534
	.uleb128 0x1
	.long	0xa51b
	.uleb128 0x1
	.long	0xa51b
	.byte	0
	.uleb128 0x32
	.long	.LASF974
	.byte	0x6b
	.long	.LASF1018
	.long	0x92c6
	.uleb128 0x32
	.long	.LASF976
	.byte	0x6f
	.long	.LASF1019
	.long	0x92c6
	.uleb128 0x32
	.long	.LASF978
	.byte	0x73
	.long	.LASF1020
	.long	0x92c6
	.uleb128 0x32
	.long	.LASF980
	.byte	0x77
	.long	.LASF1021
	.long	0x92c6
	.uleb128 0x32
	.long	.LASF982
	.byte	0x7b
	.long	.LASF1022
	.long	0x92c6
	.uleb128 0x8
	.long	.LASF7
	.byte	0x32
	.byte	0x37
	.byte	0x35
	.long	0x21ec
	.uleb128 0x7
	.long	0x857a
	.uleb128 0x8
	.long	.LASF75
	.byte	0x32
	.byte	0x38
	.byte	0x35
	.long	0x2117
	.uleb128 0x8
	.long	.LASF76
	.byte	0x32
	.byte	0x3d
	.byte	0x35
	.long	0xa52a
	.uleb128 0x8
	.long	.LASF79
	.byte	0x32
	.byte	0x3e
	.byte	0x35
	.long	0xa52f
	.uleb128 0x1a
	.long	.LASF1023
	.byte	0x1
	.byte	0x32
	.byte	0x7f
	.byte	0xe
	.long	0x85d2
	.uleb128 0x8
	.long	.LASF985
	.byte	0x32
	.byte	0x80
	.byte	0x41
	.long	0x21f9
	.uleb128 0xf
	.string	"_Tp"
	.long	0xa1cb
	.byte	0
	.uleb128 0xa
	.long	.LASF147
	.long	0x2080
	.byte	0
	.uleb128 0x48
	.long	.LASF1024
	.byte	0x8
	.byte	0x3
	.value	0x402
	.long	0x880a
	.uleb128 0x66
	.long	.LASF988
	.long	0xa4ee
	.uleb128 0x10
	.long	.LASF989
	.byte	0x3
	.value	0x41d
	.byte	0x7
	.long	.LASF1025
	.byte	0x1
	.long	0x8608
	.long	0x860e
	.uleb128 0x2
	.long	0xa6ab
	.byte	0
	.uleb128 0x40
	.long	.LASF989
	.byte	0x3
	.value	0x422
	.long	.LASF1026
	.long	0x8622
	.long	0x862d
	.uleb128 0x2
	.long	0xa6ab
	.uleb128 0x1
	.long	0xa6b5
	.byte	0
	.uleb128 0x14
	.long	.LASF76
	.byte	0x3
	.value	0x414
	.byte	0x32
	.long	0x43d7
	.uleb128 0x6
	.long	.LASF992
	.byte	0x3
	.value	0x441
	.byte	0x7
	.long	.LASF1027
	.long	0x862d
	.byte	0x1
	.long	0x8654
	.long	0x865a
	.uleb128 0x2
	.long	0xa6ba
	.byte	0
	.uleb128 0x14
	.long	.LASF75
	.byte	0x3
	.value	0x415
	.byte	0x32
	.long	0x43cb
	.uleb128 0x6
	.long	.LASF994
	.byte	0x3
	.value	0x447
	.byte	0x7
	.long	.LASF1028
	.long	0x865a
	.byte	0x1
	.long	0x8681
	.long	0x8687
	.uleb128 0x2
	.long	0xa6ba
	.byte	0
	.uleb128 0x6
	.long	.LASF996
	.byte	0x3
	.value	0x44d
	.byte	0x7
	.long	.LASF1029
	.long	0xa6c4
	.byte	0x1
	.long	0x86a1
	.long	0x86a7
	.uleb128 0x2
	.long	0xa6ab
	.byte	0
	.uleb128 0x6
	.long	.LASF996
	.byte	0x3
	.value	0x456
	.byte	0x7
	.long	.LASF1030
	.long	0x85dc
	.byte	0x1
	.long	0x86c1
	.long	0x86cc
	.uleb128 0x2
	.long	0xa6ab
	.uleb128 0x1
	.long	0x56
	.byte	0
	.uleb128 0x6
	.long	.LASF999
	.byte	0x3
	.value	0x45e
	.byte	0x7
	.long	.LASF1031
	.long	0xa6c4
	.byte	0x1
	.long	0x86e6
	.long	0x86ec
	.uleb128 0x2
	.long	0xa6ab
	.byte	0
	.uleb128 0x6
	.long	.LASF999
	.byte	0x3
	.value	0x467
	.byte	0x7
	.long	.LASF1032
	.long	0x85dc
	.byte	0x1
	.long	0x8706
	.long	0x8711
	.uleb128 0x2
	.long	0xa6ab
	.uleb128 0x1
	.long	0x56
	.byte	0
	.uleb128 0x6
	.long	.LASF214
	.byte	0x3
	.value	0x46f
	.byte	0x7
	.long	.LASF1033
	.long	0x862d
	.byte	0x1
	.long	0x872b
	.long	0x8736
	.uleb128 0x2
	.long	0xa6ba
	.uleb128 0x1
	.long	0x8736
	.byte	0
	.uleb128 0x14
	.long	.LASF448
	.byte	0x3
	.value	0x413
	.byte	0x38
	.long	0x43bf
	.uleb128 0x6
	.long	.LASF1003
	.byte	0x3
	.value	0x475
	.byte	0x7
	.long	.LASF1034
	.long	0xa6c4
	.byte	0x1
	.long	0x875d
	.long	0x8768
	.uleb128 0x2
	.long	0xa6ab
	.uleb128 0x1
	.long	0x8736
	.byte	0
	.uleb128 0x6
	.long	.LASF1005
	.byte	0x3
	.value	0x47b
	.byte	0x7
	.long	.LASF1035
	.long	0x85dc
	.byte	0x1
	.long	0x8782
	.long	0x878d
	.uleb128 0x2
	.long	0xa6ba
	.uleb128 0x1
	.long	0x8736
	.byte	0
	.uleb128 0x6
	.long	.LASF1007
	.byte	0x3
	.value	0x481
	.byte	0x7
	.long	.LASF1036
	.long	0xa6c4
	.byte	0x1
	.long	0x87a7
	.long	0x87b2
	.uleb128 0x2
	.long	0xa6ab
	.uleb128 0x1
	.long	0x8736
	.byte	0
	.uleb128 0x6
	.long	.LASF1009
	.byte	0x3
	.value	0x487
	.byte	0x7
	.long	.LASF1037
	.long	0x85dc
	.byte	0x1
	.long	0x87cc
	.long	0x87d7
	.uleb128 0x2
	.long	0xa6ba
	.uleb128 0x1
	.long	0x8736
	.byte	0
	.uleb128 0x6
	.long	.LASF1011
	.byte	0x3
	.value	0x48d
	.byte	0x7
	.long	.LASF1038
	.long	0xa6b5
	.byte	0x1
	.long	0x87f1
	.long	0x87f7
	.uleb128 0x2
	.long	0xa6ba
	.byte	0
	.uleb128 0xa
	.long	.LASF449
	.long	0xa4ee
	.uleb128 0xa
	.long	.LASF1013
	.long	0x25b7
	.byte	0
	.uleb128 0x7
	.long	0x85dc
	.uleb128 0x48
	.long	.LASF1039
	.byte	0x8
	.byte	0x3
	.value	0x402
	.long	0x8a3d
	.uleb128 0x66
	.long	.LASF988
	.long	0xa502
	.uleb128 0x10
	.long	.LASF989
	.byte	0x3
	.value	0x41d
	.byte	0x7
	.long	.LASF1040
	.byte	0x1
	.long	0x883b
	.long	0x8841
	.uleb128 0x2
	.long	0xa8ef
	.byte	0
	.uleb128 0x40
	.long	.LASF989
	.byte	0x3
	.value	0x422
	.long	.LASF1041
	.long	0x8855
	.long	0x8860
	.uleb128 0x2
	.long	0xa8ef
	.uleb128 0x1
	.long	0xa8f4
	.byte	0
	.uleb128 0x14
	.long	.LASF76
	.byte	0x3
	.value	0x414
	.byte	0x32
	.long	0x6c45
	.uleb128 0x6
	.long	.LASF992
	.byte	0x3
	.value	0x441
	.byte	0x7
	.long	.LASF1042
	.long	0x8860
	.byte	0x1
	.long	0x8887
	.long	0x888d
	.uleb128 0x2
	.long	0xa8f9
	.byte	0
	.uleb128 0x14
	.long	.LASF75
	.byte	0x3
	.value	0x415
	.byte	0x32
	.long	0x6c39
	.uleb128 0x6
	.long	.LASF994
	.byte	0x3
	.value	0x447
	.byte	0x7
	.long	.LASF1043
	.long	0x888d
	.byte	0x1
	.long	0x88b4
	.long	0x88ba
	.uleb128 0x2
	.long	0xa8f9
	.byte	0
	.uleb128 0x6
	.long	.LASF996
	.byte	0x3
	.value	0x44d
	.byte	0x7
	.long	.LASF1044
	.long	0xa8fe
	.byte	0x1
	.long	0x88d4
	.long	0x88da
	.uleb128 0x2
	.long	0xa8ef
	.byte	0
	.uleb128 0x6
	.long	.LASF996
	.byte	0x3
	.value	0x456
	.byte	0x7
	.long	.LASF1045
	.long	0x880f
	.byte	0x1
	.long	0x88f4
	.long	0x88ff
	.uleb128 0x2
	.long	0xa8ef
	.uleb128 0x1
	.long	0x56
	.byte	0
	.uleb128 0x6
	.long	.LASF999
	.byte	0x3
	.value	0x45e
	.byte	0x7
	.long	.LASF1046
	.long	0xa8fe
	.byte	0x1
	.long	0x8919
	.long	0x891f
	.uleb128 0x2
	.long	0xa8ef
	.byte	0
	.uleb128 0x6
	.long	.LASF999
	.byte	0x3
	.value	0x467
	.byte	0x7
	.long	.LASF1047
	.long	0x880f
	.byte	0x1
	.long	0x8939
	.long	0x8944
	.uleb128 0x2
	.long	0xa8ef
	.uleb128 0x1
	.long	0x56
	.byte	0
	.uleb128 0x6
	.long	.LASF214
	.byte	0x3
	.value	0x46f
	.byte	0x7
	.long	.LASF1048
	.long	0x8860
	.byte	0x1
	.long	0x895e
	.long	0x8969
	.uleb128 0x2
	.long	0xa8f9
	.uleb128 0x1
	.long	0x8969
	.byte	0
	.uleb128 0x14
	.long	.LASF448
	.byte	0x3
	.value	0x413
	.byte	0x38
	.long	0x6c2d
	.uleb128 0x6
	.long	.LASF1003
	.byte	0x3
	.value	0x475
	.byte	0x7
	.long	.LASF1049
	.long	0xa8fe
	.byte	0x1
	.long	0x8990
	.long	0x899b
	.uleb128 0x2
	.long	0xa8ef
	.uleb128 0x1
	.long	0x8969
	.byte	0
	.uleb128 0x6
	.long	.LASF1005
	.byte	0x3
	.value	0x47b
	.byte	0x7
	.long	.LASF1050
	.long	0x880f
	.byte	0x1
	.long	0x89b5
	.long	0x89c0
	.uleb128 0x2
	.long	0xa8f9
	.uleb128 0x1
	.long	0x8969
	.byte	0
	.uleb128 0x6
	.long	.LASF1007
	.byte	0x3
	.value	0x481
	.byte	0x7
	.long	.LASF1051
	.long	0xa8fe
	.byte	0x1
	.long	0x89da
	.long	0x89e5
	.uleb128 0x2
	.long	0xa8ef
	.uleb128 0x1
	.long	0x8969
	.byte	0
	.uleb128 0x6
	.long	.LASF1009
	.byte	0x3
	.value	0x487
	.byte	0x7
	.long	.LASF1052
	.long	0x880f
	.byte	0x1
	.long	0x89ff
	.long	0x8a0a
	.uleb128 0x2
	.long	0xa8f9
	.uleb128 0x1
	.long	0x8969
	.byte	0
	.uleb128 0x6
	.long	.LASF1011
	.byte	0x3
	.value	0x48d
	.byte	0x7
	.long	.LASF1053
	.long	0xa8f4
	.byte	0x1
	.long	0x8a24
	.long	0x8a2a
	.uleb128 0x2
	.long	0xa8f9
	.byte	0
	.uleb128 0xa
	.long	.LASF449
	.long	0xa502
	.uleb128 0xa
	.long	.LASF1013
	.long	0x25b7
	.byte	0
	.uleb128 0x7
	.long	0x880f
	.uleb128 0x1a
	.long	.LASF1054
	.byte	0x1
	.byte	0x32
	.byte	0x2f
	.byte	0xa
	.long	0x8b37
	.uleb128 0x5
	.byte	0x32
	.byte	0x2f
	.byte	0xa
	.long	0x3408
	.uleb128 0x5
	.byte	0x32
	.byte	0x2f
	.byte	0xa
	.long	0x33cd
	.uleb128 0x5
	.byte	0x32
	.byte	0x2f
	.byte	0xa
	.long	0x3436
	.uleb128 0x5
	.byte	0x32
	.byte	0x2f
	.byte	0xa
	.long	0x3453
	.uleb128 0x35
	.long	0x33b2
	.uleb128 0x90
	.long	.LASF970
	.byte	0x32
	.byte	0x63
	.byte	0x1d
	.long	0x3335
	.long	0x8a8b
	.uleb128 0x1
	.long	0xa5f7
	.byte	0
	.uleb128 0x91
	.long	.LASF972
	.byte	0x32
	.byte	0x67
	.byte	0x26
	.long	0x8aa3
	.uleb128 0x1
	.long	0xa5fc
	.uleb128 0x1
	.long	0xa5fc
	.byte	0
	.uleb128 0x67
	.long	.LASF974
	.byte	0x6b
	.long	0x92c6
	.uleb128 0x67
	.long	.LASF976
	.byte	0x6f
	.long	0x92c6
	.uleb128 0x67
	.long	.LASF978
	.byte	0x73
	.long	0x92c6
	.uleb128 0x67
	.long	.LASF980
	.byte	0x77
	.long	0x92c6
	.uleb128 0x67
	.long	.LASF982
	.byte	0x7b
	.long	0x92c6
	.uleb128 0x8
	.long	.LASF7
	.byte	0x32
	.byte	0x37
	.byte	0x35
	.long	0x3481
	.uleb128 0x7
	.long	0x8ad5
	.uleb128 0x8
	.long	.LASF75
	.byte	0x32
	.byte	0x38
	.byte	0x35
	.long	0x33c0
	.uleb128 0x8
	.long	.LASF76
	.byte	0x32
	.byte	0x3d
	.byte	0x35
	.long	0xa60b
	.uleb128 0x8
	.long	.LASF79
	.byte	0x32
	.byte	0x3e
	.byte	0x35
	.long	0xa610
	.uleb128 0x1a
	.long	.LASF1055
	.byte	0x1
	.byte	0x32
	.byte	0x7f
	.byte	0xe
	.long	0x8b2d
	.uleb128 0x8
	.long	.LASF985
	.byte	0x32
	.byte	0x80
	.byte	0x41
	.long	0x348e
	.uleb128 0xf
	.string	"_Tp"
	.long	0xa446
	.byte	0
	.uleb128 0xa
	.long	.LASF147
	.long	0x3335
	.byte	0
	.uleb128 0x48
	.long	.LASF1056
	.byte	0x8
	.byte	0x3
	.value	0x402
	.long	0x8d2d
	.uleb128 0x66
	.long	.LASF988
	.long	0xa5ca
	.uleb128 0x2c
	.long	.LASF989
	.byte	0x3
	.value	0x41d
	.byte	0x7
	.byte	0x1
	.long	0x8b5f
	.long	0x8b65
	.uleb128 0x2
	.long	0xa7b9
	.byte	0
	.uleb128 0x79
	.long	.LASF989
	.byte	0x3
	.value	0x422
	.long	0x8b75
	.long	0x8b80
	.uleb128 0x2
	.long	0xa7b9
	.uleb128 0x1
	.long	0xa7c3
	.byte	0
	.uleb128 0x14
	.long	.LASF76
	.byte	0x3
	.value	0x414
	.byte	0x32
	.long	0x57bf
	.uleb128 0x1e
	.long	.LASF992
	.byte	0x3
	.value	0x441
	.byte	0x7
	.long	0x8b80
	.byte	0x1
	.long	0x8ba3
	.long	0x8ba9
	.uleb128 0x2
	.long	0xa7c8
	.byte	0
	.uleb128 0x14
	.long	.LASF75
	.byte	0x3
	.value	0x415
	.byte	0x32
	.long	0x57b3
	.uleb128 0x1e
	.long	.LASF994
	.byte	0x3
	.value	0x447
	.byte	0x7
	.long	0x8ba9
	.byte	0x1
	.long	0x8bcc
	.long	0x8bd2
	.uleb128 0x2
	.long	0xa7c8
	.byte	0
	.uleb128 0x1e
	.long	.LASF996
	.byte	0x3
	.value	0x44d
	.byte	0x7
	.long	0xa7d2
	.byte	0x1
	.long	0x8be8
	.long	0x8bee
	.uleb128 0x2
	.long	0xa7b9
	.byte	0
	.uleb128 0x1e
	.long	.LASF996
	.byte	0x3
	.value	0x456
	.byte	0x7
	.long	0x8b37
	.byte	0x1
	.long	0x8c04
	.long	0x8c0f
	.uleb128 0x2
	.long	0xa7b9
	.uleb128 0x1
	.long	0x56
	.byte	0
	.uleb128 0x1e
	.long	.LASF999
	.byte	0x3
	.value	0x45e
	.byte	0x7
	.long	0xa7d2
	.byte	0x1
	.long	0x8c25
	.long	0x8c2b
	.uleb128 0x2
	.long	0xa7b9
	.byte	0
	.uleb128 0x1e
	.long	.LASF999
	.byte	0x3
	.value	0x467
	.byte	0x7
	.long	0x8b37
	.byte	0x1
	.long	0x8c41
	.long	0x8c4c
	.uleb128 0x2
	.long	0xa7b9
	.uleb128 0x1
	.long	0x56
	.byte	0
	.uleb128 0x1e
	.long	.LASF214
	.byte	0x3
	.value	0x46f
	.byte	0x7
	.long	0x8b80
	.byte	0x1
	.long	0x8c62
	.long	0x8c6d
	.uleb128 0x2
	.long	0xa7c8
	.uleb128 0x1
	.long	0x8c6d
	.byte	0
	.uleb128 0x14
	.long	.LASF448
	.byte	0x3
	.value	0x413
	.byte	0x38
	.long	0x57a7
	.uleb128 0x1e
	.long	.LASF1003
	.byte	0x3
	.value	0x475
	.byte	0x7
	.long	0xa7d2
	.byte	0x1
	.long	0x8c90
	.long	0x8c9b
	.uleb128 0x2
	.long	0xa7b9
	.uleb128 0x1
	.long	0x8c6d
	.byte	0
	.uleb128 0x1e
	.long	.LASF1005
	.byte	0x3
	.value	0x47b
	.byte	0x7
	.long	0x8b37
	.byte	0x1
	.long	0x8cb1
	.long	0x8cbc
	.uleb128 0x2
	.long	0xa7c8
	.uleb128 0x1
	.long	0x8c6d
	.byte	0
	.uleb128 0x1e
	.long	.LASF1007
	.byte	0x3
	.value	0x481
	.byte	0x7
	.long	0xa7d2
	.byte	0x1
	.long	0x8cd2
	.long	0x8cdd
	.uleb128 0x2
	.long	0xa7b9
	.uleb128 0x1
	.long	0x8c6d
	.byte	0
	.uleb128 0x1e
	.long	.LASF1009
	.byte	0x3
	.value	0x487
	.byte	0x7
	.long	0x8b37
	.byte	0x1
	.long	0x8cf3
	.long	0x8cfe
	.uleb128 0x2
	.long	0xa7c8
	.uleb128 0x1
	.long	0x8c6d
	.byte	0
	.uleb128 0x1e
	.long	.LASF1011
	.byte	0x3
	.value	0x48d
	.byte	0x7
	.long	0xa7c3
	.byte	0x1
	.long	0x8d14
	.long	0x8d1a
	.uleb128 0x2
	.long	0xa7c8
	.byte	0
	.uleb128 0xa
	.long	.LASF449
	.long	0xa5ca
	.uleb128 0xa
	.long	.LASF1013
	.long	0x3831
	.byte	0
	.uleb128 0x7
	.long	0x8b37
	.uleb128 0x33
	.long	.LASF1057
	.uleb128 0x1a
	.long	.LASF1058
	.byte	0x1
	.byte	0x32
	.byte	0x2f
	.byte	0xa
	.long	0x8e46
	.uleb128 0x5
	.byte	0x32
	.byte	0x2f
	.byte	0xa
	.long	0x4673
	.uleb128 0x5
	.byte	0x32
	.byte	0x2f
	.byte	0xa
	.long	0x4634
	.uleb128 0x5
	.byte	0x32
	.byte	0x2f
	.byte	0xa
	.long	0x46a5
	.uleb128 0x5
	.byte	0x32
	.byte	0x2f
	.byte	0xa
	.long	0x46c6
	.uleb128 0x35
	.long	0x4619
	.uleb128 0x34
	.long	.LASF970
	.byte	0x32
	.byte	0x63
	.byte	0x1d
	.long	.LASF1059
	.long	0x4590
	.long	0x8d83
	.uleb128 0x1
	.long	0xa705
	.byte	0
	.uleb128 0x49
	.long	.LASF972
	.byte	0x32
	.byte	0x67
	.byte	0x26
	.long	.LASF1060
	.long	0x8d9e
	.uleb128 0x1
	.long	0xa70a
	.uleb128 0x1
	.long	0xa70a
	.byte	0
	.uleb128 0x32
	.long	.LASF974
	.byte	0x6b
	.long	.LASF1061
	.long	0x92c6
	.uleb128 0x32
	.long	.LASF976
	.byte	0x6f
	.long	.LASF1062
	.long	0x92c6
	.uleb128 0x32
	.long	.LASF978
	.byte	0x73
	.long	.LASF1063
	.long	0x92c6
	.uleb128 0x32
	.long	.LASF980
	.byte	0x77
	.long	.LASF1064
	.long	0x92c6
	.uleb128 0x32
	.long	.LASF982
	.byte	0x7b
	.long	.LASF1065
	.long	0x92c6
	.uleb128 0x8
	.long	.LASF7
	.byte	0x32
	.byte	0x37
	.byte	0x35
	.long	0x46fc
	.uleb128 0x7
	.long	0x8de4
	.uleb128 0x8
	.long	.LASF75
	.byte	0x32
	.byte	0x38
	.byte	0x35
	.long	0x4627
	.uleb128 0x8
	.long	.LASF76
	.byte	0x32
	.byte	0x3d
	.byte	0x35
	.long	0xa719
	.uleb128 0x8
	.long	.LASF79
	.byte	0x32
	.byte	0x3e
	.byte	0x35
	.long	0xa71e
	.uleb128 0x1a
	.long	.LASF1066
	.byte	0x1
	.byte	0x32
	.byte	0x7f
	.byte	0xe
	.long	0x8e3c
	.uleb128 0x8
	.long	.LASF985
	.byte	0x32
	.byte	0x80
	.byte	0x41
	.long	0x4709
	.uleb128 0xf
	.string	"_Tp"
	.long	0x56
	.byte	0
	.uleb128 0xa
	.long	.LASF147
	.long	0x4590
	.byte	0
	.uleb128 0x33
	.long	.LASF1067
	.uleb128 0x33
	.long	.LASF1068
	.uleb128 0x1a
	.long	.LASF1069
	.byte	0x1
	.byte	0x32
	.byte	0x2f
	.byte	0xa
	.long	0x8f5f
	.uleb128 0x5
	.byte	0x32
	.byte	0x2f
	.byte	0xa
	.long	0x5a5b
	.uleb128 0x5
	.byte	0x32
	.byte	0x2f
	.byte	0xa
	.long	0x5a1c
	.uleb128 0x5
	.byte	0x32
	.byte	0x2f
	.byte	0xa
	.long	0x5a8d
	.uleb128 0x5
	.byte	0x32
	.byte	0x2f
	.byte	0xa
	.long	0x5aae
	.uleb128 0x35
	.long	0x5a01
	.uleb128 0x34
	.long	.LASF970
	.byte	0x32
	.byte	0x63
	.byte	0x1d
	.long	.LASF1070
	.long	0x5978
	.long	0x8e9c
	.uleb128 0x1
	.long	0xa818
	.byte	0
	.uleb128 0x49
	.long	.LASF972
	.byte	0x32
	.byte	0x67
	.byte	0x26
	.long	.LASF1071
	.long	0x8eb7
	.uleb128 0x1
	.long	0xa81d
	.uleb128 0x1
	.long	0xa81d
	.byte	0
	.uleb128 0x32
	.long	.LASF974
	.byte	0x6b
	.long	.LASF1072
	.long	0x92c6
	.uleb128 0x32
	.long	.LASF976
	.byte	0x6f
	.long	.LASF1073
	.long	0x92c6
	.uleb128 0x32
	.long	.LASF978
	.byte	0x73
	.long	.LASF1074
	.long	0x92c6
	.uleb128 0x32
	.long	.LASF980
	.byte	0x77
	.long	.LASF1075
	.long	0x92c6
	.uleb128 0x32
	.long	.LASF982
	.byte	0x7b
	.long	.LASF1076
	.long	0x92c6
	.uleb128 0x8
	.long	.LASF7
	.byte	0x32
	.byte	0x37
	.byte	0x35
	.long	0x5ae4
	.uleb128 0x7
	.long	0x8efd
	.uleb128 0x8
	.long	.LASF75
	.byte	0x32
	.byte	0x38
	.byte	0x35
	.long	0x5a0f
	.uleb128 0x8
	.long	.LASF76
	.byte	0x32
	.byte	0x3d
	.byte	0x35
	.long	0xa82c
	.uleb128 0x8
	.long	.LASF79
	.byte	0x32
	.byte	0x3e
	.byte	0x35
	.long	0xa831
	.uleb128 0x1a
	.long	.LASF1077
	.byte	0x1
	.byte	0x32
	.byte	0x7f
	.byte	0xe
	.long	0x8f55
	.uleb128 0x8
	.long	.LASF985
	.byte	0x32
	.byte	0x80
	.byte	0x41
	.long	0x5af1
	.uleb128 0xf
	.string	"_Tp"
	.long	0x30
	.byte	0
	.uleb128 0xa
	.long	.LASF147
	.long	0x5978
	.byte	0
	.uleb128 0x48
	.long	.LASF1078
	.byte	0x8
	.byte	0x3
	.value	0x402
	.long	0x918d
	.uleb128 0x66
	.long	.LASF988
	.long	0xa7eb
	.uleb128 0x10
	.long	.LASF989
	.byte	0x3
	.value	0x41d
	.byte	0x7
	.long	.LASF1079
	.byte	0x1
	.long	0x8f8b
	.long	0x8f91
	.uleb128 0x2
	.long	0xa8d1
	.byte	0
	.uleb128 0x40
	.long	.LASF989
	.byte	0x3
	.value	0x422
	.long	.LASF1080
	.long	0x8fa5
	.long	0x8fb0
	.uleb128 0x2
	.long	0xa8d1
	.uleb128 0x1
	.long	0xa8db
	.byte	0
	.uleb128 0x14
	.long	.LASF76
	.byte	0x3
	.value	0x414
	.byte	0x32
	.long	0x6bdf
	.uleb128 0x6
	.long	.LASF992
	.byte	0x3
	.value	0x441
	.byte	0x7
	.long	.LASF1081
	.long	0x8fb0
	.byte	0x1
	.long	0x8fd7
	.long	0x8fdd
	.uleb128 0x2
	.long	0xa8e0
	.byte	0
	.uleb128 0x14
	.long	.LASF75
	.byte	0x3
	.value	0x415
	.byte	0x32
	.long	0x6bd3
	.uleb128 0x6
	.long	.LASF994
	.byte	0x3
	.value	0x447
	.byte	0x7
	.long	.LASF1082
	.long	0x8fdd
	.byte	0x1
	.long	0x9004
	.long	0x900a
	.uleb128 0x2
	.long	0xa8e0
	.byte	0
	.uleb128 0x6
	.long	.LASF996
	.byte	0x3
	.value	0x44d
	.byte	0x7
	.long	.LASF1083
	.long	0xa8ea
	.byte	0x1
	.long	0x9024
	.long	0x902a
	.uleb128 0x2
	.long	0xa8d1
	.byte	0
	.uleb128 0x6
	.long	.LASF996
	.byte	0x3
	.value	0x456
	.byte	0x7
	.long	.LASF1084
	.long	0x8f5f
	.byte	0x1
	.long	0x9044
	.long	0x904f
	.uleb128 0x2
	.long	0xa8d1
	.uleb128 0x1
	.long	0x56
	.byte	0
	.uleb128 0x6
	.long	.LASF999
	.byte	0x3
	.value	0x45e
	.byte	0x7
	.long	.LASF1085
	.long	0xa8ea
	.byte	0x1
	.long	0x9069
	.long	0x906f
	.uleb128 0x2
	.long	0xa8d1
	.byte	0
	.uleb128 0x6
	.long	.LASF999
	.byte	0x3
	.value	0x467
	.byte	0x7
	.long	.LASF1086
	.long	0x8f5f
	.byte	0x1
	.long	0x9089
	.long	0x9094
	.uleb128 0x2
	.long	0xa8d1
	.uleb128 0x1
	.long	0x56
	.byte	0
	.uleb128 0x6
	.long	.LASF214
	.byte	0x3
	.value	0x46f
	.byte	0x7
	.long	.LASF1087
	.long	0x8fb0
	.byte	0x1
	.long	0x90ae
	.long	0x90b9
	.uleb128 0x2
	.long	0xa8e0
	.uleb128 0x1
	.long	0x90b9
	.byte	0
	.uleb128 0x14
	.long	.LASF448
	.byte	0x3
	.value	0x413
	.byte	0x38
	.long	0x6bc7
	.uleb128 0x6
	.long	.LASF1003
	.byte	0x3
	.value	0x475
	.byte	0x7
	.long	.LASF1088
	.long	0xa8ea
	.byte	0x1
	.long	0x90e0
	.long	0x90eb
	.uleb128 0x2
	.long	0xa8d1
	.uleb128 0x1
	.long	0x90b9
	.byte	0
	.uleb128 0x6
	.long	.LASF1005
	.byte	0x3
	.value	0x47b
	.byte	0x7
	.long	.LASF1089
	.long	0x8f5f
	.byte	0x1
	.long	0x9105
	.long	0x9110
	.uleb128 0x2
	.long	0xa8e0
	.uleb128 0x1
	.long	0x90b9
	.byte	0
	.uleb128 0x6
	.long	.LASF1007
	.byte	0x3
	.value	0x481
	.byte	0x7
	.long	.LASF1090
	.long	0xa8ea
	.byte	0x1
	.long	0x912a
	.long	0x9135
	.uleb128 0x2
	.long	0xa8d1
	.uleb128 0x1
	.long	0x90b9
	.byte	0
	.uleb128 0x6
	.long	.LASF1009
	.byte	0x3
	.value	0x487
	.byte	0x7
	.long	.LASF1091
	.long	0x8f5f
	.byte	0x1
	.long	0x914f
	.long	0x915a
	.uleb128 0x2
	.long	0xa8e0
	.uleb128 0x1
	.long	0x90b9
	.byte	0
	.uleb128 0x6
	.long	.LASF1011
	.byte	0x3
	.value	0x48d
	.byte	0x7
	.long	.LASF1092
	.long	0xa8db
	.byte	0x1
	.long	0x9174
	.long	0x917a
	.uleb128 0x2
	.long	0xa8e0
	.byte	0
	.uleb128 0xa
	.long	.LASF449
	.long	0xa7eb
	.uleb128 0xa
	.long	.LASF1013
	.long	0x5ec8
	.byte	0
	.uleb128 0x7
	.long	0x8f5f
	.uleb128 0x33
	.long	.LASF1093
	.uleb128 0x1a
	.long	.LASF1094
	.byte	0x1
	.byte	0x33
	.byte	0x3c
	.byte	0xc
	.long	0x91cd
	.uleb128 0x8
	.long	.LASF1095
	.byte	0x33
	.byte	0x3d
	.byte	0x17
	.long	0x7e24
	.uleb128 0x87
	.long	.LASF1096
	.long	0x92c6
	.uleb128 0xa
	.long	.LASF1097
	.long	0x7e24
	.uleb128 0xa
	.long	.LASF1098
	.long	0xa809
	.byte	0
	.uleb128 0x46
	.long	.LASF1099
	.byte	0x3
	.value	0x4dd
	.byte	0x7
	.long	0x92c6
	.long	0x91e9
	.uleb128 0x1
	.long	0x11535
	.uleb128 0x1
	.long	0x11535
	.byte	0
	.uleb128 0x92
	.long	.LASF1099
	.byte	0x3
	.value	0x4dd
	.byte	0x7
	.long	.LASF1100
	.long	0x92c6
	.uleb128 0x1
	.long	0x1158f
	.uleb128 0x1
	.long	0x1158f
	.byte	0
	.byte	0
	.uleb128 0x15
	.long	.LASF1101
	.byte	0x30
	.value	0x199
	.byte	0x14
	.long	0x9223
	.long	0x9223
	.uleb128 0x1
	.long	0x7934
	.uleb128 0x1
	.long	0x7e03
	.byte	0
	.uleb128 0x29
	.byte	0x10
	.byte	0x4
	.long	.LASF1102
	.uleb128 0x16
	.long	.LASF1103
	.byte	0x30
	.value	0x1fc
	.byte	0x16
	.long	.LASF1104
	.long	0x924f
	.long	0x924f
	.uleb128 0x1
	.long	0x7934
	.uleb128 0x1
	.long	0x7e03
	.uleb128 0x1
	.long	0x56
	.byte	0
	.uleb128 0x29
	.byte	0x8
	.byte	0x5
	.long	.LASF1105
	.uleb128 0x16
	.long	.LASF1106
	.byte	0x30
	.value	0x201
	.byte	0x1f
	.long	.LASF1107
	.long	0x927b
	.long	0x927b
	.uleb128 0x1
	.long	0x7934
	.uleb128 0x1
	.long	0x7e03
	.uleb128 0x1
	.long	0x56
	.byte	0
	.uleb128 0x29
	.byte	0x8
	.byte	0x7
	.long	.LASF1108
	.uleb128 0xbc
	.byte	0x20
	.byte	0x10
	.byte	0x28
	.value	0x1b8
	.byte	0x10
	.long	.LASF1482
	.long	0x92b1
	.uleb128 0x96
	.long	.LASF1109
	.value	0x1b9
	.byte	0xd
	.long	0x924f
	.byte	0x8
	.byte	0
	.uleb128 0x96
	.long	.LASF1110
	.value	0x1ba
	.byte	0xf
	.long	0x9223
	.byte	0x10
	.byte	0x10
	.byte	0
	.uleb128 0xbd
	.long	.LASF1111
	.byte	0x28
	.value	0x1c3
	.byte	0x3
	.long	0x9282
	.byte	0x10
	.uleb128 0xbe
	.long	.LASF1483
	.uleb128 0x29
	.byte	0x1
	.byte	0x2
	.long	.LASF1112
	.uleb128 0x7
	.long	0x92c6
	.uleb128 0xd
	.long	0x33f
	.uleb128 0xd
	.long	0x3ae
	.uleb128 0x7
	.long	0x37
	.uleb128 0x29
	.byte	0x10
	.byte	0x7
	.long	.LASF1113
	.uleb128 0x29
	.byte	0x1
	.byte	0x6
	.long	.LASF1114
	.uleb128 0x29
	.byte	0x2
	.byte	0x5
	.long	.LASF1115
	.uleb128 0x29
	.byte	0x10
	.byte	0x5
	.long	.LASF1116
	.uleb128 0x29
	.byte	0x2
	.byte	0x10
	.long	.LASF1117
	.uleb128 0x29
	.byte	0x4
	.byte	0x10
	.long	.LASF1118
	.uleb128 0xd
	.long	0x3e7
	.uleb128 0xd
	.long	0x5d0
	.uleb128 0xd
	.long	0x931a
	.uleb128 0xbf
	.uleb128 0xc
	.long	0x61b
	.uleb128 0xc
	.long	0x5d0
	.uleb128 0x28
	.long	0x3e7
	.uleb128 0xc
	.long	0x3e7
	.uleb128 0xd
	.long	0x61b
	.uleb128 0x1a
	.long	.LASF1119
	.byte	0x60
	.byte	0x34
	.byte	0x33
	.byte	0x8
	.long	0x947b
	.uleb128 0x11
	.long	.LASF1120
	.byte	0x34
	.byte	0x37
	.byte	0x9
	.long	0x45
	.byte	0
	.uleb128 0x11
	.long	.LASF1121
	.byte	0x34
	.byte	0x38
	.byte	0x9
	.long	0x45
	.byte	0x8
	.uleb128 0x11
	.long	.LASF1122
	.byte	0x34
	.byte	0x3e
	.byte	0x9
	.long	0x45
	.byte	0x10
	.uleb128 0x11
	.long	.LASF1123
	.byte	0x34
	.byte	0x44
	.byte	0x9
	.long	0x45
	.byte	0x18
	.uleb128 0x11
	.long	.LASF1124
	.byte	0x34
	.byte	0x45
	.byte	0x9
	.long	0x45
	.byte	0x20
	.uleb128 0x11
	.long	.LASF1125
	.byte	0x34
	.byte	0x46
	.byte	0x9
	.long	0x45
	.byte	0x28
	.uleb128 0x11
	.long	.LASF1126
	.byte	0x34
	.byte	0x47
	.byte	0x9
	.long	0x45
	.byte	0x30
	.uleb128 0x11
	.long	.LASF1127
	.byte	0x34
	.byte	0x48
	.byte	0x9
	.long	0x45
	.byte	0x38
	.uleb128 0x11
	.long	.LASF1128
	.byte	0x34
	.byte	0x49
	.byte	0x9
	.long	0x45
	.byte	0x40
	.uleb128 0x11
	.long	.LASF1129
	.byte	0x34
	.byte	0x4a
	.byte	0x9
	.long	0x45
	.byte	0x48
	.uleb128 0x11
	.long	.LASF1130
	.byte	0x34
	.byte	0x4b
	.byte	0x8
	.long	0x4a
	.byte	0x50
	.uleb128 0x11
	.long	.LASF1131
	.byte	0x34
	.byte	0x4c
	.byte	0x8
	.long	0x4a
	.byte	0x51
	.uleb128 0x11
	.long	.LASF1132
	.byte	0x34
	.byte	0x4e
	.byte	0x8
	.long	0x4a
	.byte	0x52
	.uleb128 0x11
	.long	.LASF1133
	.byte	0x34
	.byte	0x50
	.byte	0x8
	.long	0x4a
	.byte	0x53
	.uleb128 0x11
	.long	.LASF1134
	.byte	0x34
	.byte	0x52
	.byte	0x8
	.long	0x4a
	.byte	0x54
	.uleb128 0x11
	.long	.LASF1135
	.byte	0x34
	.byte	0x54
	.byte	0x8
	.long	0x4a
	.byte	0x55
	.uleb128 0x11
	.long	.LASF1136
	.byte	0x34
	.byte	0x5b
	.byte	0x8
	.long	0x4a
	.byte	0x56
	.uleb128 0x11
	.long	.LASF1137
	.byte	0x34
	.byte	0x5c
	.byte	0x8
	.long	0x4a
	.byte	0x57
	.uleb128 0x11
	.long	.LASF1138
	.byte	0x34
	.byte	0x5f
	.byte	0x8
	.long	0x4a
	.byte	0x58
	.uleb128 0x11
	.long	.LASF1139
	.byte	0x34
	.byte	0x61
	.byte	0x8
	.long	0x4a
	.byte	0x59
	.uleb128 0x11
	.long	.LASF1140
	.byte	0x34
	.byte	0x63
	.byte	0x8
	.long	0x4a
	.byte	0x5a
	.uleb128 0x11
	.long	.LASF1141
	.byte	0x34
	.byte	0x65
	.byte	0x8
	.long	0x4a
	.byte	0x5b
	.uleb128 0x11
	.long	.LASF1142
	.byte	0x34
	.byte	0x6c
	.byte	0x8
	.long	0x4a
	.byte	0x5c
	.uleb128 0x11
	.long	.LASF1143
	.byte	0x34
	.byte	0x6d
	.byte	0x8
	.long	0x4a
	.byte	0x5d
	.byte	0
	.uleb128 0x24
	.long	.LASF1144
	.byte	0x34
	.byte	0x7a
	.byte	0xe
	.long	0x45
	.long	0x9496
	.uleb128 0x1
	.long	0x56
	.uleb128 0x1
	.long	0x7892
	.byte	0
	.uleb128 0x73
	.long	.LASF1146
	.byte	0x34
	.byte	0x7d
	.byte	0x16
	.long	0x94a2
	.uleb128 0xd
	.long	0x9335
	.uleb128 0x8
	.long	.LASF1147
	.byte	0x35
	.byte	0x25
	.byte	0x15
	.long	0x92e8
	.uleb128 0x8
	.long	.LASF1148
	.byte	0x35
	.byte	0x26
	.byte	0x17
	.long	0x37
	.uleb128 0x8
	.long	.LASF1149
	.byte	0x35
	.byte	0x27
	.byte	0x1a
	.long	0x92ef
	.uleb128 0x8
	.long	.LASF1150
	.byte	0x35
	.byte	0x28
	.byte	0x1c
	.long	0x7886
	.uleb128 0x8
	.long	.LASF1151
	.byte	0x35
	.byte	0x29
	.byte	0x14
	.long	0x56
	.uleb128 0x7
	.long	0x94d7
	.uleb128 0x8
	.long	.LASF1152
	.byte	0x35
	.byte	0x2a
	.byte	0x16
	.long	0x7649
	.uleb128 0x8
	.long	.LASF1153
	.byte	0x35
	.byte	0x2c
	.byte	0x19
	.long	0x7e6e
	.uleb128 0x8
	.long	.LASF1154
	.byte	0x35
	.byte	0x2d
	.byte	0x1b
	.long	0x3e
	.uleb128 0x8
	.long	.LASF1155
	.byte	0x35
	.byte	0x34
	.byte	0x12
	.long	0x94a7
	.uleb128 0x8
	.long	.LASF1156
	.byte	0x35
	.byte	0x35
	.byte	0x13
	.long	0x94b3
	.uleb128 0x8
	.long	.LASF1157
	.byte	0x35
	.byte	0x36
	.byte	0x13
	.long	0x94bf
	.uleb128 0x8
	.long	.LASF1158
	.byte	0x35
	.byte	0x37
	.byte	0x14
	.long	0x94cb
	.uleb128 0x8
	.long	.LASF1159
	.byte	0x35
	.byte	0x38
	.byte	0x13
	.long	0x94d7
	.uleb128 0x8
	.long	.LASF1160
	.byte	0x35
	.byte	0x39
	.byte	0x14
	.long	0x94e8
	.uleb128 0x8
	.long	.LASF1161
	.byte	0x35
	.byte	0x3a
	.byte	0x13
	.long	0x94f4
	.uleb128 0x8
	.long	.LASF1162
	.byte	0x35
	.byte	0x3b
	.byte	0x14
	.long	0x9500
	.uleb128 0x8
	.long	.LASF1163
	.byte	0x35
	.byte	0x48
	.byte	0x12
	.long	0x7e6e
	.uleb128 0x8
	.long	.LASF1164
	.byte	0x35
	.byte	0x49
	.byte	0x1b
	.long	0x3e
	.uleb128 0x8
	.long	.LASF1165
	.byte	0x35
	.byte	0x98
	.byte	0x19
	.long	0x7e6e
	.uleb128 0x8
	.long	.LASF1166
	.byte	0x35
	.byte	0x99
	.byte	0x1b
	.long	0x7e6e
	.uleb128 0x8
	.long	.LASF1167
	.byte	0x35
	.byte	0x9c
	.byte	0x1b
	.long	0x7e6e
	.uleb128 0x8
	.long	.LASF1168
	.byte	0x35
	.byte	0xa0
	.byte	0x1a
	.long	0x7e6e
	.uleb128 0x8
	.long	.LASF1169
	.byte	0x35
	.byte	0xc5
	.byte	0x21
	.long	0x7e6e
	.uleb128 0x95
	.long	.LASF1170
	.byte	0x3
	.value	0xbb4
	.long	0x95d7
	.uleb128 0xc0
	.byte	0x17
	.byte	0x3a
	.byte	0x18
	.long	0x6b6
	.byte	0
	.uleb128 0x72
	.byte	0x8
	.byte	0x36
	.byte	0x3c
	.byte	0x3
	.long	.LASF1172
	.long	0x95ff
	.uleb128 0x11
	.long	.LASF1173
	.byte	0x36
	.byte	0x3d
	.byte	0x9
	.long	0x56
	.byte	0
	.uleb128 0x41
	.string	"rem"
	.byte	0x36
	.byte	0x3e
	.byte	0x9
	.long	0x56
	.byte	0x4
	.byte	0
	.uleb128 0x8
	.long	.LASF1174
	.byte	0x36
	.byte	0x3f
	.byte	0x5
	.long	0x95d7
	.uleb128 0x72
	.byte	0x10
	.byte	0x36
	.byte	0x44
	.byte	0x3
	.long	.LASF1175
	.long	0x9633
	.uleb128 0x11
	.long	.LASF1173
	.byte	0x36
	.byte	0x45
	.byte	0xe
	.long	0x7e6e
	.byte	0
	.uleb128 0x41
	.string	"rem"
	.byte	0x36
	.byte	0x46
	.byte	0xe
	.long	0x7e6e
	.byte	0x8
	.byte	0
	.uleb128 0x8
	.long	.LASF1176
	.byte	0x36
	.byte	0x47
	.byte	0x5
	.long	0x960b
	.uleb128 0x72
	.byte	0x10
	.byte	0x36
	.byte	0x4e
	.byte	0x3
	.long	.LASF1177
	.long	0x9667
	.uleb128 0x11
	.long	.LASF1173
	.byte	0x36
	.byte	0x4f
	.byte	0x13
	.long	0x924f
	.byte	0
	.uleb128 0x41
	.string	"rem"
	.byte	0x36
	.byte	0x50
	.byte	0x13
	.long	0x924f
	.byte	0x8
	.byte	0
	.uleb128 0x8
	.long	.LASF1178
	.byte	0x36
	.byte	0x51
	.byte	0x5
	.long	0x963f
	.uleb128 0x8
	.long	.LASF1179
	.byte	0x37
	.byte	0x7
	.byte	0x13
	.long	0x959c
	.uleb128 0x8
	.long	.LASF1180
	.byte	0x38
	.byte	0xa
	.byte	0x12
	.long	0x95a8
	.uleb128 0x7
	.long	0x967f
	.uleb128 0x8
	.long	.LASF1181
	.byte	0x39
	.byte	0x18
	.byte	0x12
	.long	0x94a7
	.uleb128 0x8
	.long	.LASF1182
	.byte	0x39
	.byte	0x19
	.byte	0x13
	.long	0x94bf
	.uleb128 0x8
	.long	.LASF1183
	.byte	0x39
	.byte	0x1a
	.byte	0x13
	.long	0x94d7
	.uleb128 0x8
	.long	.LASF1184
	.byte	0x39
	.byte	0x1b
	.byte	0x13
	.long	0x94f4
	.uleb128 0x1a
	.long	.LASF1185
	.byte	0x10
	.byte	0x3a
	.byte	0xb
	.byte	0x8
	.long	0x96e8
	.uleb128 0x11
	.long	.LASF1186
	.byte	0x3a
	.byte	0x10
	.byte	0xc
	.long	0x95a8
	.byte	0
	.uleb128 0x11
	.long	.LASF1187
	.byte	0x3a
	.byte	0x15
	.byte	0x15
	.long	0x95b4
	.byte	0x8
	.byte	0
	.uleb128 0x1d
	.long	.LASF1188
	.byte	0x36
	.value	0x3b4
	.byte	0xf
	.long	0x96f5
	.uleb128 0xd
	.long	0x96fa
	.uleb128 0xc1
	.long	0x56
	.long	0x970f
	.uleb128 0x1
	.long	0x9315
	.uleb128 0x1
	.long	0x9315
	.byte	0
	.uleb128 0x15
	.long	.LASF1189
	.byte	0x36
	.value	0x2de
	.byte	0xc
	.long	0x56
	.long	0x9726
	.uleb128 0x1
	.long	0x9726
	.byte	0
	.uleb128 0xd
	.long	0x972b
	.uleb128 0xc2
	.uleb128 0x16
	.long	.LASF1190
	.byte	0x36
	.value	0x2e3
	.byte	0x12
	.long	.LASF1190
	.long	0x56
	.long	0x9748
	.uleb128 0x1
	.long	0x9726
	.byte	0
	.uleb128 0x24
	.long	.LASF1191
	.byte	0x3b
	.byte	0x19
	.byte	0x1
	.long	0x7dfc
	.long	0x975e
	.uleb128 0x1
	.long	0x7892
	.byte	0
	.uleb128 0x15
	.long	.LASF1192
	.byte	0x36
	.value	0x1e1
	.byte	0x1
	.long	0x56
	.long	0x9775
	.uleb128 0x1
	.long	0x7892
	.byte	0
	.uleb128 0x15
	.long	.LASF1193
	.byte	0x36
	.value	0x1e6
	.byte	0x1
	.long	0x7e6e
	.long	0x978c
	.uleb128 0x1
	.long	0x7892
	.byte	0
	.uleb128 0x24
	.long	.LASF1194
	.byte	0x3c
	.byte	0x14
	.byte	0x1
	.long	0x7650
	.long	0x97b6
	.uleb128 0x1
	.long	0x9315
	.uleb128 0x1
	.long	0x9315
	.uleb128 0x1
	.long	0x75fd
	.uleb128 0x1
	.long	0x75fd
	.uleb128 0x1
	.long	0x96e8
	.byte	0
	.uleb128 0xc3
	.string	"div"
	.byte	0x36
	.value	0x3e0
	.byte	0xe
	.long	0x95ff
	.long	0x97d3
	.uleb128 0x1
	.long	0x56
	.uleb128 0x1
	.long	0x56
	.byte	0
	.uleb128 0x15
	.long	.LASF1195
	.byte	0x36
	.value	0x305
	.byte	0xe
	.long	0x45
	.long	0x97ea
	.uleb128 0x1
	.long	0x7892
	.byte	0
	.uleb128 0x15
	.long	.LASF1196
	.byte	0x36
	.value	0x3e2
	.byte	0xf
	.long	0x9633
	.long	0x9806
	.uleb128 0x1
	.long	0x7e6e
	.uleb128 0x1
	.long	0x7e6e
	.byte	0
	.uleb128 0x15
	.long	.LASF1197
	.byte	0x36
	.value	0x426
	.byte	0xc
	.long	0x56
	.long	0x9822
	.uleb128 0x1
	.long	0x7892
	.uleb128 0x1
	.long	0x75fd
	.byte	0
	.uleb128 0x15
	.long	.LASF1198
	.byte	0x36
	.value	0x431
	.byte	0xf
	.long	0x75fd
	.long	0x9843
	.uleb128 0x1
	.long	0x78eb
	.uleb128 0x1
	.long	0x7892
	.uleb128 0x1
	.long	0x75fd
	.byte	0
	.uleb128 0x15
	.long	.LASF1199
	.byte	0x36
	.value	0x429
	.byte	0xc
	.long	0x56
	.long	0x9864
	.uleb128 0x1
	.long	0x78eb
	.uleb128 0x1
	.long	0x7892
	.uleb128 0x1
	.long	0x75fd
	.byte	0
	.uleb128 0x60
	.long	.LASF1200
	.byte	0x36
	.value	0x3ca
	.long	0x9885
	.uleb128 0x1
	.long	0x7650
	.uleb128 0x1
	.long	0x75fd
	.uleb128 0x1
	.long	0x75fd
	.uleb128 0x1
	.long	0x96e8
	.byte	0
	.uleb128 0xc4
	.long	.LASF1201
	.byte	0x36
	.value	0x2fa
	.byte	0xd
	.long	0x9899
	.uleb128 0x1
	.long	0x56
	.byte	0
	.uleb128 0x94
	.long	.LASF1202
	.byte	0x36
	.value	0x23d
	.byte	0xc
	.long	0x56
	.uleb128 0x60
	.long	.LASF1203
	.byte	0x36
	.value	0x23f
	.long	0x98b9
	.uleb128 0x1
	.long	0x7649
	.byte	0
	.uleb128 0x24
	.long	.LASF1204
	.byte	0x36
	.byte	0x76
	.byte	0xf
	.long	0x7dfc
	.long	0x98d4
	.uleb128 0x1
	.long	0x7892
	.uleb128 0x1
	.long	0x98d4
	.byte	0
	.uleb128 0xd
	.long	0x45
	.uleb128 0x34
	.long	.LASF1205
	.byte	0x36
	.byte	0xd7
	.byte	0x11
	.long	.LASF1206
	.long	0x7e6e
	.long	0x98fd
	.uleb128 0x1
	.long	0x7892
	.uleb128 0x1
	.long	0x98d4
	.uleb128 0x1
	.long	0x56
	.byte	0
	.uleb128 0x34
	.long	.LASF1207
	.byte	0x36
	.byte	0xdb
	.byte	0x1a
	.long	.LASF1208
	.long	0x3e
	.long	0x9921
	.uleb128 0x1
	.long	0x7892
	.uleb128 0x1
	.long	0x98d4
	.uleb128 0x1
	.long	0x56
	.byte	0
	.uleb128 0x15
	.long	.LASF1209
	.byte	0x36
	.value	0x39b
	.byte	0xc
	.long	0x56
	.long	0x9938
	.uleb128 0x1
	.long	0x7892
	.byte	0
	.uleb128 0x15
	.long	.LASF1210
	.byte	0x36
	.value	0x435
	.byte	0xf
	.long	0x75fd
	.long	0x9959
	.uleb128 0x1
	.long	0x45
	.uleb128 0x1
	.long	0x7934
	.uleb128 0x1
	.long	0x75fd
	.byte	0
	.uleb128 0x15
	.long	.LASF1211
	.byte	0x36
	.value	0x42d
	.byte	0xc
	.long	0x56
	.long	0x9975
	.uleb128 0x1
	.long	0x45
	.uleb128 0x1
	.long	0x78f0
	.byte	0
	.uleb128 0x15
	.long	.LASF1212
	.byte	0x36
	.value	0x3e6
	.byte	0x1e
	.long	0x9667
	.long	0x9991
	.uleb128 0x1
	.long	0x924f
	.uleb128 0x1
	.long	0x924f
	.byte	0
	.uleb128 0x15
	.long	.LASF1213
	.byte	0x36
	.value	0x1ed
	.byte	0x1
	.long	0x924f
	.long	0x99a8
	.uleb128 0x1
	.long	0x7892
	.byte	0
	.uleb128 0x34
	.long	.LASF1214
	.byte	0x36
	.byte	0xee
	.byte	0x16
	.long	.LASF1215
	.long	0x924f
	.long	0x99cc
	.uleb128 0x1
	.long	0x7892
	.uleb128 0x1
	.long	0x98d4
	.uleb128 0x1
	.long	0x56
	.byte	0
	.uleb128 0x34
	.long	.LASF1216
	.byte	0x36
	.byte	0xf3
	.byte	0x1f
	.long	.LASF1217
	.long	0x927b
	.long	0x99f0
	.uleb128 0x1
	.long	0x7892
	.uleb128 0x1
	.long	0x98d4
	.uleb128 0x1
	.long	0x56
	.byte	0
	.uleb128 0x24
	.long	.LASF1218
	.byte	0x36
	.byte	0x7c
	.byte	0xe
	.long	0x30
	.long	0x9a0b
	.uleb128 0x1
	.long	0x7892
	.uleb128 0x1
	.long	0x98d4
	.byte	0
	.uleb128 0x24
	.long	.LASF1219
	.byte	0x36
	.byte	0x7f
	.byte	0x14
	.long	0x9223
	.long	0x9a26
	.uleb128 0x1
	.long	0x7892
	.uleb128 0x1
	.long	0x98d4
	.byte	0
	.uleb128 0x1a
	.long	.LASF1220
	.byte	0x10
	.byte	0x3d
	.byte	0xa
	.byte	0x10
	.long	0x9a4e
	.uleb128 0x11
	.long	.LASF1221
	.byte	0x3d
	.byte	0xc
	.byte	0xb
	.long	0x9584
	.byte	0
	.uleb128 0x11
	.long	.LASF1222
	.byte	0x3d
	.byte	0xd
	.byte	0xf
	.long	0x76ba
	.byte	0x8
	.byte	0
	.uleb128 0x8
	.long	.LASF1223
	.byte	0x3d
	.byte	0xe
	.byte	0x3
	.long	0x9a26
	.uleb128 0xc5
	.long	.LASF1484
	.byte	0x2e
	.byte	0x2c
	.byte	0xe
	.uleb128 0x7d
	.long	.LASF1224
	.uleb128 0xd
	.long	0x9a63
	.uleb128 0xd
	.long	0x76e3
	.uleb128 0x7a
	.long	0x4a
	.long	0x9a82
	.uleb128 0x7b
	.long	0x3e
	.byte	0
	.byte	0
	.uleb128 0xd
	.long	0x9a5a
	.uleb128 0x7d
	.long	.LASF1225
	.uleb128 0xd
	.long	0x9a87
	.uleb128 0x7d
	.long	.LASF1226
	.uleb128 0xd
	.long	0x9a91
	.uleb128 0xd
	.long	0x9a6d
	.uleb128 0x7a
	.long	0x4a
	.long	0x9ab0
	.uleb128 0x7b
	.long	0x3e
	.byte	0x13
	.byte	0
	.uleb128 0x8
	.long	.LASF1227
	.byte	0x3e
	.byte	0x55
	.byte	0x12
	.long	0x9a4e
	.uleb128 0x7
	.long	0x9ab0
	.uleb128 0xd
	.long	0x787a
	.uleb128 0x60
	.long	.LASF1228
	.byte	0x3e
	.value	0x352
	.long	0x9ad8
	.uleb128 0x1
	.long	0x9ac1
	.byte	0
	.uleb128 0x24
	.long	.LASF1229
	.byte	0x3e
	.byte	0xb8
	.byte	0xc
	.long	0x56
	.long	0x9aee
	.uleb128 0x1
	.long	0x9ac1
	.byte	0
	.uleb128 0x15
	.long	.LASF1230
	.byte	0x3e
	.value	0x354
	.byte	0xc
	.long	0x56
	.long	0x9b05
	.uleb128 0x1
	.long	0x9ac1
	.byte	0
	.uleb128 0x15
	.long	.LASF1231
	.byte	0x3e
	.value	0x356
	.byte	0xc
	.long	0x56
	.long	0x9b1c
	.uleb128 0x1
	.long	0x9ac1
	.byte	0
	.uleb128 0x24
	.long	.LASF1232
	.byte	0x3e
	.byte	0xec
	.byte	0xc
	.long	0x56
	.long	0x9b32
	.uleb128 0x1
	.long	0x9ac1
	.byte	0
	.uleb128 0x15
	.long	.LASF1233
	.byte	0x3e
	.value	0x23f
	.byte	0xc
	.long	0x56
	.long	0x9b49
	.uleb128 0x1
	.long	0x9ac1
	.byte	0
	.uleb128 0x15
	.long	.LASF1234
	.byte	0x3e
	.value	0x333
	.byte	0xc
	.long	0x56
	.long	0x9b65
	.uleb128 0x1
	.long	0x9ac1
	.uleb128 0x1
	.long	0x9b65
	.byte	0
	.uleb128 0xd
	.long	0x9ab0
	.uleb128 0x15
	.long	.LASF1235
	.byte	0x3e
	.value	0x28e
	.byte	0xe
	.long	0x45
	.long	0x9b8b
	.uleb128 0x1
	.long	0x45
	.uleb128 0x1
	.long	0x56
	.uleb128 0x1
	.long	0x9ac1
	.byte	0
	.uleb128 0x15
	.long	.LASF1236
	.byte	0x3e
	.value	0x108
	.byte	0xe
	.long	0x9ac1
	.long	0x9ba7
	.uleb128 0x1
	.long	0x7892
	.uleb128 0x1
	.long	0x7892
	.byte	0
	.uleb128 0x15
	.long	.LASF1237
	.byte	0x3e
	.value	0x2d8
	.byte	0xf
	.long	0x75fd
	.long	0x9bcd
	.uleb128 0x1
	.long	0x7650
	.uleb128 0x1
	.long	0x75fd
	.uleb128 0x1
	.long	0x75fd
	.uleb128 0x1
	.long	0x9ac1
	.byte	0
	.uleb128 0x15
	.long	.LASF1238
	.byte	0x3e
	.value	0x10f
	.byte	0xe
	.long	0x9ac1
	.long	0x9bee
	.uleb128 0x1
	.long	0x7892
	.uleb128 0x1
	.long	0x7892
	.uleb128 0x1
	.long	0x9ac1
	.byte	0
	.uleb128 0x15
	.long	.LASF1239
	.byte	0x3e
	.value	0x301
	.byte	0xc
	.long	0x56
	.long	0x9c0f
	.uleb128 0x1
	.long	0x9ac1
	.uleb128 0x1
	.long	0x7e6e
	.uleb128 0x1
	.long	0x56
	.byte	0
	.uleb128 0x15
	.long	.LASF1240
	.byte	0x3e
	.value	0x339
	.byte	0xc
	.long	0x56
	.long	0x9c2b
	.uleb128 0x1
	.long	0x9ac1
	.uleb128 0x1
	.long	0x9c2b
	.byte	0
	.uleb128 0xd
	.long	0x9abc
	.uleb128 0x15
	.long	.LASF1241
	.byte	0x3e
	.value	0x307
	.byte	0x11
	.long	0x7e6e
	.long	0x9c47
	.uleb128 0x1
	.long	0x9ac1
	.byte	0
	.uleb128 0x15
	.long	.LASF1242
	.byte	0x3e
	.value	0x240
	.byte	0xc
	.long	0x56
	.long	0x9c5e
	.uleb128 0x1
	.long	0x9ac1
	.byte	0
	.uleb128 0x73
	.long	.LASF1243
	.byte	0x3f
	.byte	0x2f
	.byte	0x1
	.long	0x56
	.uleb128 0x60
	.long	.LASF1244
	.byte	0x3e
	.value	0x364
	.long	0x9c7c
	.uleb128 0x1
	.long	0x7892
	.byte	0
	.uleb128 0x24
	.long	.LASF1245
	.byte	0x3e
	.byte	0x9e
	.byte	0xc
	.long	0x56
	.long	0x9c92
	.uleb128 0x1
	.long	0x7892
	.byte	0
	.uleb128 0x24
	.long	.LASF1246
	.byte	0x3e
	.byte	0xa0
	.byte	0xc
	.long	0x56
	.long	0x9cad
	.uleb128 0x1
	.long	0x7892
	.uleb128 0x1
	.long	0x7892
	.byte	0
	.uleb128 0x60
	.long	.LASF1247
	.byte	0x3e
	.value	0x30c
	.long	0x9cbf
	.uleb128 0x1
	.long	0x9ac1
	.byte	0
	.uleb128 0x60
	.long	.LASF1248
	.byte	0x3e
	.value	0x14e
	.long	0x9cd6
	.uleb128 0x1
	.long	0x9ac1
	.uleb128 0x1
	.long	0x45
	.byte	0
	.uleb128 0x15
	.long	.LASF1249
	.byte	0x3e
	.value	0x153
	.byte	0xc
	.long	0x56
	.long	0x9cfc
	.uleb128 0x1
	.long	0x9ac1
	.uleb128 0x1
	.long	0x45
	.uleb128 0x1
	.long	0x56
	.uleb128 0x1
	.long	0x75fd
	.byte	0
	.uleb128 0x73
	.long	.LASF1250
	.byte	0x3e
	.byte	0xc2
	.byte	0xe
	.long	0x9ac1
	.uleb128 0x24
	.long	.LASF1251
	.byte	0x3e
	.byte	0xd3
	.byte	0xe
	.long	0x45
	.long	0x9d1e
	.uleb128 0x1
	.long	0x45
	.byte	0
	.uleb128 0x15
	.long	.LASF1252
	.byte	0x3e
	.value	0x2d1
	.byte	0xc
	.long	0x56
	.long	0x9d3a
	.uleb128 0x1
	.long	0x56
	.uleb128 0x1
	.long	0x9ac1
	.byte	0
	.uleb128 0x8
	.long	.LASF1253
	.byte	0x40
	.byte	0x18
	.byte	0x13
	.long	0x94b3
	.uleb128 0x8
	.long	.LASF1254
	.byte	0x40
	.byte	0x19
	.byte	0x14
	.long	0x94cb
	.uleb128 0x8
	.long	.LASF1255
	.byte	0x40
	.byte	0x1a
	.byte	0x14
	.long	0x94e8
	.uleb128 0x8
	.long	.LASF1256
	.byte	0x40
	.byte	0x1b
	.byte	0x14
	.long	0x9500
	.uleb128 0x8
	.long	.LASF1257
	.byte	0x41
	.byte	0x19
	.byte	0x18
	.long	0x950c
	.uleb128 0x8
	.long	.LASF1258
	.byte	0x41
	.byte	0x1a
	.byte	0x19
	.long	0x9524
	.uleb128 0x8
	.long	.LASF1259
	.byte	0x41
	.byte	0x1b
	.byte	0x19
	.long	0x953c
	.uleb128 0x8
	.long	.LASF1260
	.byte	0x41
	.byte	0x1c
	.byte	0x19
	.long	0x9554
	.uleb128 0x8
	.long	.LASF1261
	.byte	0x41
	.byte	0x1f
	.byte	0x19
	.long	0x9518
	.uleb128 0x8
	.long	.LASF1262
	.byte	0x41
	.byte	0x20
	.byte	0x1a
	.long	0x9530
	.uleb128 0x8
	.long	.LASF1263
	.byte	0x41
	.byte	0x21
	.byte	0x1a
	.long	0x9548
	.uleb128 0x8
	.long	.LASF1264
	.byte	0x41
	.byte	0x22
	.byte	0x1a
	.long	0x9560
	.uleb128 0x8
	.long	.LASF1265
	.byte	0x42
	.byte	0x2f
	.byte	0x16
	.long	0x92e8
	.uleb128 0x8
	.long	.LASF1266
	.byte	0x42
	.byte	0x31
	.byte	0x13
	.long	0x7e6e
	.uleb128 0x8
	.long	.LASF1267
	.byte	0x42
	.byte	0x32
	.byte	0x13
	.long	0x7e6e
	.uleb128 0x8
	.long	.LASF1268
	.byte	0x42
	.byte	0x33
	.byte	0x13
	.long	0x7e6e
	.uleb128 0x8
	.long	.LASF1269
	.byte	0x42
	.byte	0x3c
	.byte	0x18
	.long	0x37
	.uleb128 0x8
	.long	.LASF1270
	.byte	0x42
	.byte	0x3e
	.byte	0x1b
	.long	0x3e
	.uleb128 0x8
	.long	.LASF1271
	.byte	0x42
	.byte	0x3f
	.byte	0x1b
	.long	0x3e
	.uleb128 0x8
	.long	.LASF1272
	.byte	0x42
	.byte	0x40
	.byte	0x1b
	.long	0x3e
	.uleb128 0x8
	.long	.LASF1273
	.byte	0x42
	.byte	0x4c
	.byte	0x13
	.long	0x7e6e
	.uleb128 0x8
	.long	.LASF1274
	.byte	0x42
	.byte	0x4f
	.byte	0x1b
	.long	0x3e
	.uleb128 0x8
	.long	.LASF1275
	.byte	0x42
	.byte	0x5a
	.byte	0x15
	.long	0x956c
	.uleb128 0x8
	.long	.LASF1276
	.byte	0x42
	.byte	0x5b
	.byte	0x16
	.long	0x9578
	.uleb128 0x29
	.byte	0x4
	.byte	0x4
	.long	.LASF1277
	.uleb128 0x29
	.byte	0x8
	.byte	0x4
	.long	.LASF1278
	.uleb128 0x29
	.byte	0x10
	.byte	0x4
	.long	.LASF1279
	.uleb128 0x29
	.byte	0x10
	.byte	0x4
	.long	.LASF1280
	.uleb128 0x73
	.long	.LASF1281
	.byte	0x43
	.byte	0x48
	.byte	0x10
	.long	0x9673
	.uleb128 0x24
	.long	.LASF1282
	.byte	0x43
	.byte	0x4f
	.byte	0xf
	.long	0x7dfc
	.long	0x9e9d
	.uleb128 0x1
	.long	0x967f
	.uleb128 0x1
	.long	0x967f
	.byte	0
	.uleb128 0x24
	.long	.LASF1283
	.byte	0x43
	.byte	0x52
	.byte	0xf
	.long	0x967f
	.long	0x9eb3
	.uleb128 0x1
	.long	0x9eb3
	.byte	0
	.uleb128 0xd
	.long	0x7c82
	.uleb128 0x24
	.long	.LASF1284
	.byte	0x43
	.byte	0x4c
	.byte	0xf
	.long	0x967f
	.long	0x9ece
	.uleb128 0x1
	.long	0x9ece
	.byte	0
	.uleb128 0xd
	.long	0x967f
	.uleb128 0x24
	.long	.LASF1285
	.byte	0x43
	.byte	0xb3
	.byte	0xe
	.long	0x45
	.long	0x9ee9
	.uleb128 0x1
	.long	0x7c7d
	.byte	0
	.uleb128 0x24
	.long	.LASF1286
	.byte	0x43
	.byte	0xb7
	.byte	0xe
	.long	0x45
	.long	0x9eff
	.uleb128 0x1
	.long	0x9eff
	.byte	0
	.uleb128 0xd
	.long	0x968b
	.uleb128 0x24
	.long	.LASF1287
	.byte	0x43
	.byte	0x84
	.byte	0x13
	.long	0x9eb3
	.long	0x9f1a
	.uleb128 0x1
	.long	0x9eff
	.byte	0
	.uleb128 0x24
	.long	.LASF1288
	.byte	0x43
	.byte	0x88
	.byte	0x13
	.long	0x9eb3
	.long	0x9f30
	.uleb128 0x1
	.long	0x9eff
	.byte	0
	.uleb128 0x15
	.long	.LASF1289
	.byte	0x43
	.value	0x17f
	.byte	0xc
	.long	0x56
	.long	0x9f4c
	.uleb128 0x1
	.long	0x9f4c
	.uleb128 0x1
	.long	0x56
	.byte	0
	.uleb128 0xd
	.long	0x96c0
	.uleb128 0x8
	.long	.LASF1290
	.byte	0x44
	.byte	0x26
	.byte	0x1b
	.long	0x3e
	.uleb128 0x8
	.long	.LASF1291
	.byte	0x45
	.byte	0x30
	.byte	0x1a
	.long	0x9f69
	.uleb128 0xd
	.long	0x94e3
	.uleb128 0x24
	.long	.LASF1292
	.byte	0x44
	.byte	0x9f
	.byte	0xc
	.long	0x56
	.long	0x9f89
	.uleb128 0x1
	.long	0x7653
	.uleb128 0x1
	.long	0x9f51
	.byte	0
	.uleb128 0x24
	.long	.LASF1293
	.byte	0x45
	.byte	0x37
	.byte	0xf
	.long	0x7653
	.long	0x9fa4
	.uleb128 0x1
	.long	0x7653
	.uleb128 0x1
	.long	0x9f5d
	.byte	0
	.uleb128 0x24
	.long	.LASF1294
	.byte	0x45
	.byte	0x34
	.byte	0x12
	.long	0x9f5d
	.long	0x9fba
	.uleb128 0x1
	.long	0x7892
	.byte	0
	.uleb128 0x24
	.long	.LASF1295
	.byte	0x44
	.byte	0x9b
	.byte	0x11
	.long	0x9f51
	.long	0x9fd0
	.uleb128 0x1
	.long	0x7892
	.byte	0
	.uleb128 0x97
	.long	0x8173
	.uleb128 0xc6
	.string	"fs"
	.byte	0x4
	.byte	0x9
	.byte	0xb
	.long	0xa43
	.uleb128 0xd
	.long	0xb0d
	.uleb128 0x7
	.long	0x9fe2
	.uleb128 0xc
	.long	0xcab
	.uleb128 0xc
	.long	0xb0d
	.uleb128 0xd
	.long	0x37
	.uleb128 0x7
	.long	0x9ff6
	.uleb128 0xd
	.long	0xcab
	.uleb128 0x7
	.long	0xa000
	.uleb128 0xc
	.long	0x37
	.uleb128 0xd
	.long	0x92dc
	.uleb128 0xc
	.long	0x92dc
	.uleb128 0xd
	.long	0xcb0
	.uleb128 0x7
	.long	0xa019
	.uleb128 0xc
	.long	0xd34
	.uleb128 0xc
	.long	0xcb0
	.uleb128 0xc
	.long	0xd74
	.uleb128 0xc
	.long	0xd81
	.uleb128 0xc
	.long	0x8233
	.uleb128 0xc
	.long	0x823f
	.uleb128 0xd
	.long	0xe44
	.uleb128 0x7
	.long	0xa041
	.uleb128 0x28
	.long	0xe44
	.uleb128 0xc
	.long	0xeea
	.uleb128 0xc
	.long	0xe44
	.uleb128 0xd
	.long	0xefb
	.uleb128 0x7
	.long	0xa05a
	.uleb128 0xc
	.long	0xfcd
	.uleb128 0x28
	.long	0xefb
	.uleb128 0x28
	.long	0xfc1
	.uleb128 0xc
	.long	0xfc1
	.uleb128 0xd
	.long	0xe37
	.uleb128 0x7
	.long	0xa078
	.uleb128 0xd
	.long	0x11d8
	.uleb128 0xc
	.long	0x101b
	.uleb128 0x28
	.long	0xe37
	.uleb128 0xc
	.long	0x12c3
	.uleb128 0xd
	.long	0x1200
	.uleb128 0x7
	.long	0xa096
	.uleb128 0xc
	.long	0x131a
	.uleb128 0xc
	.long	0x138d
	.uleb128 0xc
	.long	0x1dd9
	.uleb128 0x28
	.long	0x1200
	.uleb128 0xc
	.long	0x1dea
	.uleb128 0xc
	.long	0x1200
	.uleb128 0xd
	.long	0x1dd9
	.uleb128 0x7
	.long	0xa0be
	.uleb128 0x28
	.long	0x1380
	.uleb128 0xc
	.long	0x12d0
	.uleb128 0x1a
	.long	.LASF1296
	.byte	0x28
	.byte	0x4
	.byte	0xb
	.byte	0x8
	.long	0xa1b7
	.uleb128 0x11
	.long	.LASF1297
	.byte	0x4
	.byte	0xc
	.byte	0xc
	.long	0x75fd
	.byte	0
	.uleb128 0x11
	.long	.LASF1298
	.byte	0x4
	.byte	0xd
	.byte	0xc
	.long	0x75fd
	.byte	0x8
	.uleb128 0x11
	.long	.LASF227
	.byte	0x4
	.byte	0xe
	.byte	0x20
	.long	0x1200
	.byte	0x10
	.uleb128 0x45
	.long	.LASF1299
	.byte	0x4
	.byte	0x10
	.byte	0x13
	.long	.LASF1300
	.long	0x75fd
	.long	0xa11e
	.long	0xa133
	.uleb128 0x2
	.long	0xa1bc
	.uleb128 0x1
	.long	0x75fd
	.uleb128 0x1
	.long	0x75fd
	.uleb128 0x1
	.long	0x75fd
	.byte	0
	.uleb128 0x98
	.string	"at"
	.byte	0x1d
	.byte	0x1b
	.long	.LASF1301
	.long	0xa00a
	.long	0xa14a
	.long	0xa15f
	.uleb128 0x2
	.long	0xa1c1
	.uleb128 0x1
	.long	0x75fd
	.uleb128 0x1
	.long	0x75fd
	.uleb128 0x1
	.long	0x75fd
	.byte	0
	.uleb128 0x98
	.string	"at"
	.byte	0x21
	.byte	0x21
	.long	.LASF1302
	.long	0xa014
	.long	0xa176
	.long	0xa18b
	.uleb128 0x2
	.long	0xa1bc
	.uleb128 0x1
	.long	0x75fd
	.uleb128 0x1
	.long	0x75fd
	.uleb128 0x1
	.long	0x75fd
	.byte	0
	.uleb128 0xc7
	.long	.LASF1303
	.long	.LASF1485
	.long	0xa19d
	.long	0xa1a3
	.uleb128 0x2
	.long	0xa1c1
	.byte	0
	.uleb128 0x6e
	.long	.LASF1296
	.long	.LASF1304
	.long	0xa1b0
	.uleb128 0x2
	.long	0xa1c1
	.byte	0
	.byte	0
	.uleb128 0x7
	.long	0xa0d2
	.uleb128 0xd
	.long	0xa1b7
	.uleb128 0xd
	.long	0xa0d2
	.uleb128 0x7
	.long	0xa1c1
	.uleb128 0x1a
	.long	.LASF1305
	.byte	0x30
	.byte	0x4
	.byte	0x26
	.byte	0x8
	.long	0xa1fc
	.uleb128 0x11
	.long	.LASF227
	.byte	0x4
	.byte	0x27
	.byte	0xf
	.long	0xa0d2
	.byte	0
	.uleb128 0x41
	.string	"u"
	.byte	0x4
	.byte	0x28
	.byte	0xb
	.long	0x30
	.byte	0x28
	.uleb128 0x41
	.string	"v"
	.byte	0x4
	.byte	0x29
	.byte	0xb
	.long	0x30
	.byte	0x2c
	.byte	0
	.uleb128 0x7
	.long	0xa1cb
	.uleb128 0x8
	.long	.LASF1306
	.byte	0x46
	.byte	0xa7
	.byte	0xf
	.long	0x30
	.uleb128 0x8
	.long	.LASF1307
	.byte	0x46
	.byte	0xa8
	.byte	0x10
	.long	0x7dfc
	.uleb128 0x29
	.byte	0x8
	.byte	0x4
	.long	.LASF1308
	.uleb128 0x29
	.byte	0x10
	.byte	0x4
	.long	.LASF1309
	.uleb128 0x6c
	.long	.LASF1310
	.byte	0x47
	.byte	0xf
	.byte	0xb
	.long	0xa246
	.uleb128 0xc8
	.long	.LASF1486
	.byte	0x47
	.byte	0x11
	.byte	0xb
	.uleb128 0x86
	.string	"v1"
	.byte	0x47
	.byte	0x13
	.byte	0x12
	.byte	0
	.byte	0
	.uleb128 0x8
	.long	.LASF1311
	.byte	0x48
	.byte	0x2c
	.byte	0xd
	.long	0xa252
	.uleb128 0x5a
	.long	0x56
	.long	0xa25e
	.uleb128 0x5b
	.byte	0x1
	.byte	0
	.uleb128 0x7e
	.long	.LASF1312
	.byte	0x48
	.byte	0x31
	.byte	0xd
	.long	0xa252
	.uleb128 0x5
	.byte	0x49
	.byte	0x27
	.byte	0xc
	.long	0x970f
	.uleb128 0x5
	.byte	0x49
	.byte	0x2b
	.byte	0xe
	.long	0x972d
	.uleb128 0x5
	.byte	0x49
	.byte	0x2e
	.byte	0xe
	.long	0x9885
	.uleb128 0x5
	.byte	0x49
	.byte	0x36
	.byte	0xc
	.long	0x95ff
	.uleb128 0x5
	.byte	0x49
	.byte	0x37
	.byte	0xc
	.long	0x9633
	.uleb128 0x5
	.byte	0x49
	.byte	0x39
	.byte	0xc
	.long	0x1e10
	.uleb128 0x5
	.byte	0x49
	.byte	0x39
	.byte	0xc
	.long	0x1e29
	.uleb128 0x5
	.byte	0x49
	.byte	0x39
	.byte	0xc
	.long	0x1e42
	.uleb128 0x5
	.byte	0x49
	.byte	0x39
	.byte	0xc
	.long	0x1e5b
	.uleb128 0x5
	.byte	0x49
	.byte	0x39
	.byte	0xc
	.long	0x1e74
	.uleb128 0x5
	.byte	0x49
	.byte	0x39
	.byte	0xc
	.long	0x1e8d
	.uleb128 0x5
	.byte	0x49
	.byte	0x39
	.byte	0xc
	.long	0x1ea6
	.uleb128 0x5
	.byte	0x49
	.byte	0x3a
	.byte	0xc
	.long	0x9748
	.uleb128 0x5
	.byte	0x49
	.byte	0x3b
	.byte	0xc
	.long	0x975e
	.uleb128 0x5
	.byte	0x49
	.byte	0x3c
	.byte	0xc
	.long	0x9775
	.uleb128 0x5
	.byte	0x49
	.byte	0x3d
	.byte	0xc
	.long	0x978c
	.uleb128 0x5
	.byte	0x49
	.byte	0x3f
	.byte	0xc
	.long	0x812a
	.uleb128 0x5
	.byte	0x49
	.byte	0x3f
	.byte	0xc
	.long	0x1ebf
	.uleb128 0x5
	.byte	0x49
	.byte	0x3f
	.byte	0xc
	.long	0x97b6
	.uleb128 0x5
	.byte	0x49
	.byte	0x41
	.byte	0xc
	.long	0x97d3
	.uleb128 0x5
	.byte	0x49
	.byte	0x43
	.byte	0xc
	.long	0x97ea
	.uleb128 0x5
	.byte	0x49
	.byte	0x46
	.byte	0xc
	.long	0x9806
	.uleb128 0x5
	.byte	0x49
	.byte	0x47
	.byte	0xc
	.long	0x9822
	.uleb128 0x5
	.byte	0x49
	.byte	0x48
	.byte	0xc
	.long	0x9843
	.uleb128 0x5
	.byte	0x49
	.byte	0x4a
	.byte	0xc
	.long	0x9864
	.uleb128 0x5
	.byte	0x49
	.byte	0x4b
	.byte	0xc
	.long	0x9899
	.uleb128 0x5
	.byte	0x49
	.byte	0x4d
	.byte	0xc
	.long	0x98a7
	.uleb128 0x5
	.byte	0x49
	.byte	0x4e
	.byte	0xc
	.long	0x98b9
	.uleb128 0x5
	.byte	0x49
	.byte	0x4f
	.byte	0xc
	.long	0x98d9
	.uleb128 0x5
	.byte	0x49
	.byte	0x50
	.byte	0xc
	.long	0x98fd
	.uleb128 0x5
	.byte	0x49
	.byte	0x51
	.byte	0xc
	.long	0x9921
	.uleb128 0x5
	.byte	0x49
	.byte	0x53
	.byte	0xc
	.long	0x9938
	.uleb128 0x5
	.byte	0x49
	.byte	0x54
	.byte	0xc
	.long	0x9959
	.uleb128 0x29
	.byte	0x4
	.byte	0x4
	.long	.LASF2
	.uleb128 0x8
	.long	.LASF1313
	.byte	0xe
	.byte	0x2f
	.byte	0xe
	.long	0xa385
	.uleb128 0x5a
	.long	0x4a
	.long	0xa391
	.uleb128 0x5b
	.byte	0xf
	.byte	0
	.uleb128 0x8
	.long	.LASF1314
	.byte	0xe
	.byte	0x35
	.byte	0x13
	.long	0xa39d
	.uleb128 0x5a
	.long	0x924f
	.long	0xa3a9
	.uleb128 0x5b
	.byte	0x1
	.byte	0
	.uleb128 0x7e
	.long	.LASF1315
	.byte	0xe
	.byte	0x39
	.byte	0x13
	.long	0xa39d
	.uleb128 0x7
	.long	0xa3a9
	.uleb128 0x29
	.byte	0x8
	.byte	0x4
	.long	.LASF942
	.uleb128 0x8
	.long	.LASF1316
	.byte	0xd
	.byte	0x2a
	.byte	0xf
	.long	0xa3cd
	.uleb128 0x5a
	.long	0x30
	.long	0xa3d9
	.uleb128 0x5b
	.byte	0x7
	.byte	0
	.uleb128 0x8
	.long	.LASF1317
	.byte	0xd
	.byte	0x2d
	.byte	0xd
	.long	0xa3e5
	.uleb128 0x5a
	.long	0x56
	.long	0xa3f1
	.uleb128 0x5b
	.byte	0x7
	.byte	0
	.uleb128 0x8
	.long	.LASF1318
	.byte	0xd
	.byte	0x37
	.byte	0xf
	.long	0xa402
	.uleb128 0x7
	.long	0xa3f1
	.uleb128 0x5a
	.long	0x30
	.long	0xa40e
	.uleb128 0x5b
	.byte	0x7
	.byte	0
	.uleb128 0x8
	.long	.LASF1319
	.byte	0xd
	.byte	0x39
	.byte	0x13
	.long	0xa41a
	.uleb128 0x5a
	.long	0x924f
	.long	0xa426
	.uleb128 0x5b
	.byte	0x3
	.byte	0
	.uleb128 0x7e
	.long	.LASF1320
	.byte	0xd
	.byte	0x3f
	.byte	0xf
	.long	0xa402
	.uleb128 0x29
	.byte	0x2
	.byte	0x4
	.long	.LASF1321
	.uleb128 0x29
	.byte	0x2
	.byte	0x4
	.long	.LASF1322
	.uleb128 0xc9
	.long	0xa4df
	.uleb128 0x1a
	.long	.LASF1323
	.byte	0x30
	.byte	0x1
	.byte	0x1a
	.byte	0x8
	.long	0xa4d9
	.uleb128 0x41
	.string	"sx"
	.byte	0x1
	.byte	0x1b
	.byte	0x9
	.long	0x56
	.byte	0
	.uleb128 0x41
	.string	"sy"
	.byte	0x1
	.byte	0x1b
	.byte	0xd
	.long	0x56
	.byte	0x4
	.uleb128 0x41
	.string	"A"
	.byte	0x1
	.byte	0x1c
	.byte	0xb
	.long	0x30
	.byte	0x8
	.uleb128 0x41
	.string	"B"
	.byte	0x1
	.byte	0x1c
	.byte	0xe
	.long	0x30
	.byte	0xc
	.uleb128 0x41
	.string	"C"
	.byte	0x1
	.byte	0x1c
	.byte	0x11
	.long	0x30
	.byte	0x10
	.uleb128 0x41
	.string	"D"
	.byte	0x1
	.byte	0x1c
	.byte	0x14
	.long	0x30
	.byte	0x14
	.uleb128 0x11
	.long	.LASF1324
	.byte	0x1
	.byte	0x1d
	.byte	0x9
	.long	0x56
	.byte	0x18
	.uleb128 0x11
	.long	.LASF1325
	.byte	0x1
	.byte	0x1d
	.byte	0x12
	.long	0x56
	.byte	0x1c
	.uleb128 0x11
	.long	.LASF1326
	.byte	0x1
	.byte	0x1d
	.byte	0x19
	.long	0x56
	.byte	0x20
	.uleb128 0x11
	.long	.LASF1327
	.byte	0x1
	.byte	0x1d
	.byte	0x22
	.long	0x56
	.byte	0x24
	.uleb128 0x41
	.string	"SUB"
	.byte	0x1
	.byte	0x1e
	.byte	0x1a
	.long	0xa00f
	.byte	0x28
	.byte	0
	.uleb128 0x7
	.long	0xa446
	.byte	0
	.uleb128 0xd
	.long	0x1edd
	.uleb128 0xc
	.long	0x207b
	.uleb128 0xc
	.long	0x1edd
	.uleb128 0xd
	.long	0xa1cb
	.uleb128 0x7
	.long	0xa4ee
	.uleb128 0xd
	.long	0x207b
	.uleb128 0xc
	.long	0xa1cb
	.uleb128 0xd
	.long	0xa1fc
	.uleb128 0x7
	.long	0xa502
	.uleb128 0xc
	.long	0xa1fc
	.uleb128 0xd
	.long	0x2080
	.uleb128 0xc
	.long	0x2104
	.uleb128 0xc
	.long	0x2080
	.uleb128 0xc
	.long	0x2144
	.uleb128 0xc
	.long	0x2151
	.uleb128 0xc
	.long	0x857a
	.uleb128 0xc
	.long	0x8586
	.uleb128 0xd
	.long	0x2214
	.uleb128 0x28
	.long	0x2214
	.uleb128 0xc
	.long	0x22ba
	.uleb128 0xc
	.long	0x2214
	.uleb128 0xd
	.long	0x22cb
	.uleb128 0xc
	.long	0x2384
	.uleb128 0x28
	.long	0x22cb
	.uleb128 0x28
	.long	0x2378
	.uleb128 0xc
	.long	0x2378
	.uleb128 0xd
	.long	0x2207
	.uleb128 0xd
	.long	0x258f
	.uleb128 0xc
	.long	0x23d2
	.uleb128 0x28
	.long	0x2207
	.uleb128 0xc
	.long	0x267a
	.uleb128 0xd
	.long	0x25b7
	.uleb128 0x7
	.long	0xa57a
	.uleb128 0xc
	.long	0x26d1
	.uleb128 0xc
	.long	0x273f
	.uleb128 0xc
	.long	0x315f
	.uleb128 0x28
	.long	0x25b7
	.uleb128 0xc
	.long	0x3170
	.uleb128 0xc
	.long	0x25b7
	.uleb128 0xd
	.long	0x315f
	.uleb128 0x7
	.long	0xa5a2
	.uleb128 0x28
	.long	0x2732
	.uleb128 0xc
	.long	0x2687
	.uleb128 0xd
	.long	0x3184
	.uleb128 0x7
	.long	0xa5b6
	.uleb128 0xc
	.long	0x3330
	.uleb128 0xc
	.long	0x3184
	.uleb128 0xd
	.long	0xa446
	.uleb128 0x7
	.long	0xa5ca
	.uleb128 0xd
	.long	0x3330
	.uleb128 0x7
	.long	0xa5d4
	.uleb128 0xc
	.long	0xa446
	.uleb128 0xd
	.long	0xa4d9
	.uleb128 0xc
	.long	0xa4d9
	.uleb128 0xd
	.long	0x3335
	.uleb128 0x7
	.long	0xa5ed
	.uleb128 0xc
	.long	0x33ad
	.uleb128 0xc
	.long	0x3335
	.uleb128 0xc
	.long	0x33e9
	.uleb128 0xc
	.long	0x33f6
	.uleb128 0xc
	.long	0x8ad5
	.uleb128 0xc
	.long	0x8ae1
	.uleb128 0xd
	.long	0x34db
	.uleb128 0x7
	.long	0xa615
	.uleb128 0x28
	.long	0x34db
	.uleb128 0xc
	.long	0x356e
	.uleb128 0xc
	.long	0x34db
	.uleb128 0xd
	.long	0x357f
	.uleb128 0x7
	.long	0xa62e
	.uleb128 0xc
	.long	0x3630
	.uleb128 0x28
	.long	0x357f
	.uleb128 0x28
	.long	0x3624
	.uleb128 0xc
	.long	0x3624
	.uleb128 0xd
	.long	0x34ce
	.uleb128 0x7
	.long	0xa64c
	.uleb128 0xd
	.long	0x3809
	.uleb128 0x7
	.long	0xa656
	.uleb128 0xc
	.long	0x3676
	.uleb128 0x28
	.long	0x34ce
	.uleb128 0xc
	.long	0x38e9
	.uleb128 0xd
	.long	0x3831
	.uleb128 0x7
	.long	0xa66f
	.uleb128 0xc
	.long	0x3939
	.uleb128 0xc
	.long	0x39a4
	.uleb128 0xc
	.long	0x438d
	.uleb128 0x28
	.long	0x3831
	.uleb128 0xc
	.long	0x439e
	.uleb128 0xc
	.long	0x3831
	.uleb128 0xd
	.long	0x438d
	.uleb128 0x7
	.long	0xa697
	.uleb128 0x28
	.long	0x3997
	.uleb128 0xc
	.long	0x38f6
	.uleb128 0xd
	.long	0x85dc
	.uleb128 0x7
	.long	0xa6ab
	.uleb128 0xc
	.long	0xa4f3
	.uleb128 0xd
	.long	0x880a
	.uleb128 0x7
	.long	0xa6ba
	.uleb128 0xc
	.long	0x85dc
	.uleb128 0xd
	.long	0x43ed
	.uleb128 0x7
	.long	0xa6c9
	.uleb128 0xc
	.long	0x458b
	.uleb128 0xc
	.long	0x43ed
	.uleb128 0xd
	.long	0x56
	.uleb128 0x7
	.long	0xa6dd
	.uleb128 0xd
	.long	0x458b
	.uleb128 0x7
	.long	0xa6e7
	.uleb128 0xc
	.long	0x56
	.uleb128 0xc
	.long	0x5e
	.uleb128 0xd
	.long	0x4590
	.uleb128 0x7
	.long	0xa6fb
	.uleb128 0xc
	.long	0x4614
	.uleb128 0xc
	.long	0x4590
	.uleb128 0xc
	.long	0x4654
	.uleb128 0xc
	.long	0x4661
	.uleb128 0xc
	.long	0x8de4
	.uleb128 0xc
	.long	0x8df0
	.uleb128 0xd
	.long	0x4724
	.uleb128 0x7
	.long	0xa723
	.uleb128 0x28
	.long	0x4724
	.uleb128 0xc
	.long	0x47ca
	.uleb128 0xc
	.long	0x4724
	.uleb128 0xd
	.long	0x47db
	.uleb128 0x7
	.long	0xa73c
	.uleb128 0xc
	.long	0x48ad
	.uleb128 0x28
	.long	0x47db
	.uleb128 0x28
	.long	0x48a1
	.uleb128 0xc
	.long	0x48a1
	.uleb128 0xd
	.long	0x4717
	.uleb128 0x7
	.long	0xa75a
	.uleb128 0xd
	.long	0x4ab8
	.uleb128 0xc
	.long	0x48fb
	.uleb128 0x28
	.long	0x4717
	.uleb128 0xc
	.long	0x4ba3
	.uleb128 0xd
	.long	0x4ae0
	.uleb128 0x7
	.long	0xa778
	.uleb128 0xc
	.long	0x4bfa
	.uleb128 0xc
	.long	0x4c68
	.uleb128 0xc
	.long	0x5688
	.uleb128 0x28
	.long	0x4ae0
	.uleb128 0xc
	.long	0x5699
	.uleb128 0xc
	.long	0x4ae0
	.uleb128 0xd
	.long	0x5688
	.uleb128 0x28
	.long	0x4c5b
	.uleb128 0xc
	.long	0x4bb0
	.uleb128 0xd
	.long	0x569e
	.uleb128 0xd
	.long	0x578b
	.uleb128 0xd
	.long	0x8b37
	.uleb128 0x7
	.long	0xa7b9
	.uleb128 0xc
	.long	0xa5cf
	.uleb128 0xd
	.long	0x8d2d
	.uleb128 0x7
	.long	0xa7c8
	.uleb128 0xc
	.long	0x8b37
	.uleb128 0xd
	.long	0x57d5
	.uleb128 0x7
	.long	0xa7d7
	.uleb128 0xc
	.long	0x5973
	.uleb128 0xc
	.long	0x57d5
	.uleb128 0xd
	.long	0x30
	.uleb128 0x7
	.long	0xa7eb
	.uleb128 0xd
	.long	0x5973
	.uleb128 0x7
	.long	0xa7f5
	.uleb128 0xc
	.long	0x30
	.uleb128 0xd
	.long	0x7e24
	.uleb128 0xc
	.long	0x7e24
	.uleb128 0xd
	.long	0x5978
	.uleb128 0x7
	.long	0xa80e
	.uleb128 0xc
	.long	0x59fc
	.uleb128 0xc
	.long	0x5978
	.uleb128 0xc
	.long	0x5a3c
	.uleb128 0xc
	.long	0x5a49
	.uleb128 0xc
	.long	0x8efd
	.uleb128 0xc
	.long	0x8f09
	.uleb128 0xd
	.long	0x5b0c
	.uleb128 0x7
	.long	0xa836
	.uleb128 0x28
	.long	0x5b0c
	.uleb128 0xc
	.long	0x5bb2
	.uleb128 0xc
	.long	0x5b0c
	.uleb128 0xd
	.long	0x5bc3
	.uleb128 0x7
	.long	0xa84f
	.uleb128 0xc
	.long	0x5c95
	.uleb128 0x28
	.long	0x5bc3
	.uleb128 0x28
	.long	0x5c89
	.uleb128 0xc
	.long	0x5c89
	.uleb128 0xd
	.long	0x5aff
	.uleb128 0x7
	.long	0xa86d
	.uleb128 0xd
	.long	0x5ea0
	.uleb128 0xc
	.long	0x5ce3
	.uleb128 0x28
	.long	0x5aff
	.uleb128 0xc
	.long	0x5f8b
	.uleb128 0xd
	.long	0x5ec8
	.uleb128 0x7
	.long	0xa88b
	.uleb128 0xc
	.long	0x5fe2
	.uleb128 0xc
	.long	0x6050
	.uleb128 0xc
	.long	0x6a9c
	.uleb128 0x28
	.long	0x5ec8
	.uleb128 0xc
	.long	0x6aad
	.uleb128 0xc
	.long	0x5ec8
	.uleb128 0xd
	.long	0x6a9c
	.uleb128 0x7
	.long	0xa8b3
	.uleb128 0x28
	.long	0x6043
	.uleb128 0xc
	.long	0x5f98
	.uleb128 0xd
	.long	0x6ab2
	.uleb128 0xd
	.long	0x6b9f
	.uleb128 0xd
	.long	0x8f5f
	.uleb128 0x7
	.long	0xa8d1
	.uleb128 0xc
	.long	0xa7f0
	.uleb128 0xd
	.long	0x918d
	.uleb128 0x7
	.long	0xa8e0
	.uleb128 0xc
	.long	0x8f5f
	.uleb128 0xd
	.long	0x880f
	.uleb128 0xc
	.long	0xa507
	.uleb128 0xd
	.long	0x8a3d
	.uleb128 0xc
	.long	0x880f
	.uleb128 0xd
	.long	0x8295
	.uleb128 0x7
	.long	0xa903
	.uleb128 0xc
	.long	0x9ffb
	.uleb128 0xd
	.long	0x84c3
	.uleb128 0x7
	.long	0xa912
	.uleb128 0xc
	.long	0x8295
	.uleb128 0xc
	.long	0x4297
	.uleb128 0xd
	.long	0x42a4
	.uleb128 0x7
	.long	0xa926
	.uleb128 0xc
	.long	0x4349
	.uleb128 0xd
	.long	0x6c96
	.uleb128 0x7
	.long	0xa935
	.uleb128 0xc
	.long	0xa6dd
	.uleb128 0xd
	.long	0xa6dd
	.uleb128 0xc
	.long	0x6d67
	.uleb128 0x97
	.long	0x6d6c
	.uleb128 0x49
	.long	.LASF1328
	.byte	0x4a
	.byte	0x6e
	.byte	0x6
	.long	.LASF1329
	.long	0xa96f
	.uleb128 0x1
	.long	0x7650
	.uleb128 0x1
	.long	0x2c3
	.byte	0
	.uleb128 0x34
	.long	.LASF1330
	.byte	0x4a
	.byte	0x63
	.byte	0x1a
	.long	.LASF1331
	.long	0x7650
	.long	0xa989
	.uleb128 0x1
	.long	0x2c3
	.byte	0
	.uleb128 0x13
	.long	0x6da9
	.byte	0x3
	.long	0xa9cd
	.uleb128 0xa
	.long	.LASF758
	.long	0xa7eb
	.uleb128 0xf
	.string	"_Tp"
	.long	0x30
	.uleb128 0x12
	.long	.LASF1332
	.byte	0xa
	.value	0x3d0
	.byte	0x14
	.long	0xa7eb
	.uleb128 0x12
	.long	.LASF1333
	.byte	0xa
	.value	0x3d0
	.byte	0x23
	.long	0xa7eb
	.uleb128 0x12
	.long	.LASF851
	.byte	0xa
	.value	0x3d0
	.byte	0x36
	.long	0xa809
	.byte	0
	.uleb128 0xb
	.long	0xc0a
	.long	0xa9db
	.byte	0x3
	.long	0xa9f6
	.uleb128 0x9
	.long	.LASF1334
	.long	0x9fe7
	.uleb128 0x26
	.string	"__n"
	.byte	0x6
	.byte	0x81
	.byte	0x1a
	.long	0xc33
	.uleb128 0x1
	.long	0x9315
	.byte	0
	.uleb128 0xb
	.long	0xc83
	.long	0xaa04
	.byte	0x3
	.long	0xaa0e
	.uleb128 0x9
	.long	.LASF1334
	.long	0xa005
	.byte	0
	.uleb128 0x13
	.long	0x6ddc
	.byte	0x3
	.long	0xaa7a
	.uleb128 0xa
	.long	.LASF761
	.long	0xa7eb
	.uleb128 0xa
	.long	.LASF62
	.long	0x3e
	.uleb128 0xf
	.string	"_Tp"
	.long	0x30
	.uleb128 0x12
	.long	.LASF1332
	.byte	0xa
	.value	0x475
	.byte	0x20
	.long	0xa7eb
	.uleb128 0xe
	.string	"__n"
	.byte	0xa
	.value	0x475
	.byte	0x2f
	.long	0x3e
	.uleb128 0x12
	.long	.LASF851
	.byte	0xa
	.value	0x475
	.byte	0x3f
	.long	0xa809
	.uleb128 0x1
	.long	0x6a3
	.uleb128 0x5c
	.string	"__d"
	.byte	0xa
	.value	0x47e
	.byte	0x42
	.long	0x6bc7
	.uleb128 0x25
	.long	.LASF1333
	.byte	0xa
	.value	0x481
	.byte	0x17
	.long	0xa7eb
	.byte	0
	.uleb128 0x13
	.long	0x6d31
	.byte	0x3
	.long	0xaaa6
	.uleb128 0xa
	.long	.LASF749
	.long	0xa6dd
	.uleb128 0x42
	.long	.LASF1332
	.byte	0xc
	.byte	0x8e
	.byte	0x13
	.long	0xa6dd
	.uleb128 0x42
	.long	.LASF1333
	.byte	0xc
	.byte	0x8e
	.byte	0x22
	.long	0xa6dd
	.byte	0
	.uleb128 0x13
	.long	0xd54
	.byte	0x3
	.long	0xaacb
	.uleb128 0xe
	.string	"__a"
	.byte	0x8
	.value	0x27d
	.byte	0x20
	.long	0xa02d
	.uleb128 0xe
	.string	"__n"
	.byte	0x8
	.value	0x27d
	.byte	0x2f
	.long	0xd86
	.byte	0
	.uleb128 0xb
	.long	0xc64
	.long	0xaad9
	.byte	0x3
	.long	0xaae3
	.uleb128 0x9
	.long	.LASF1334
	.long	0xa005
	.byte	0
	.uleb128 0x13
	.long	0x6e21
	.byte	0x3
	.long	0xab30
	.uleb128 0xf
	.string	"_OI"
	.long	0xa7eb
	.uleb128 0xa
	.long	.LASF62
	.long	0x3e
	.uleb128 0xf
	.string	"_Tp"
	.long	0x30
	.uleb128 0x12
	.long	.LASF1332
	.byte	0xa
	.value	0x49b
	.byte	0x10
	.long	0xa7eb
	.uleb128 0xe
	.string	"__n"
	.byte	0xa
	.value	0x49b
	.byte	0x1f
	.long	0x3e
	.uleb128 0x12
	.long	.LASF851
	.byte	0xa
	.value	0x49b
	.byte	0x2f
	.long	0xa809
	.byte	0
	.uleb128 0x13
	.long	0x6e61
	.byte	0x3
	.long	0xab5f
	.uleb128 0xf
	.string	"_Tp"
	.long	0x30
	.uleb128 0x8f
	.long	.LASF433
	.uleb128 0x26
	.string	"__p"
	.byte	0xb
	.byte	0x7b
	.byte	0x15
	.long	0xa7eb
	.uleb128 0xca
	.long	.LASF1359
	.byte	0xb
	.byte	0x7b
	.byte	0x21
	.byte	0
	.uleb128 0xb
	.long	0x58d2
	.long	0xab6d
	.byte	0x3
	.long	0xab88
	.uleb128 0x9
	.long	.LASF1334
	.long	0xa7dc
	.uleb128 0x26
	.string	"__n"
	.byte	0x6
	.byte	0x81
	.byte	0x1a
	.long	0x58fb
	.uleb128 0x1
	.long	0x9315
	.byte	0
	.uleb128 0xb
	.long	0x594b
	.long	0xab96
	.byte	0x3
	.long	0xaba0
	.uleb128 0x9
	.long	.LASF1334
	.long	0xa7fa
	.byte	0
	.uleb128 0xb
	.long	0x6cdd
	.long	0xabae
	.byte	0x3
	.long	0xabb8
	.uleb128 0x9
	.long	.LASF1334
	.long	0xa93a
	.byte	0
	.uleb128 0x13
	.long	0x6e86
	.byte	0x3
	.long	0xabf6
	.uleb128 0xf
	.string	"_Tp"
	.long	0x56
	.uleb128 0x55
	.long	.LASF433
	.long	0xabda
	.uleb128 0x56
	.long	0xa6f6
	.byte	0
	.uleb128 0x26
	.string	"__p"
	.byte	0xb
	.byte	0x7b
	.byte	0x15
	.long	0xa6dd
	.uleb128 0x99
	.long	.LASF1359
	.byte	0xb
	.byte	0x7b
	.byte	0x21
	.uleb128 0x1
	.long	0xa6f6
	.byte	0
	.byte	0
	.uleb128 0xb
	.long	0x6cc3
	.long	0xac04
	.byte	0x2
	.long	0xac0e
	.uleb128 0x9
	.long	.LASF1334
	.long	0xa93a
	.byte	0
	.uleb128 0x1b
	.long	0xabf6
	.long	.LASF1335
	.long	0xac1f
	.long	0xac25
	.uleb128 0x3
	.long	0xac04
	.byte	0
	.uleb128 0xb
	.long	0x6ca3
	.long	0xac33
	.byte	0x2
	.long	0xac49
	.uleb128 0x9
	.long	.LASF1334
	.long	0xa93a
	.uleb128 0x42
	.long	.LASF1332
	.byte	0xc
	.byte	0x71
	.byte	0x2d
	.long	0xa93f
	.byte	0
	.uleb128 0x1b
	.long	0xac25
	.long	.LASF1336
	.long	0xac5a
	.long	0xac65
	.uleb128 0x3
	.long	0xac33
	.uleb128 0x3
	.long	0xac3c
	.byte	0
	.uleb128 0xb
	.long	0x44ea
	.long	0xac73
	.byte	0x3
	.long	0xac8e
	.uleb128 0x9
	.long	.LASF1334
	.long	0xa6ce
	.uleb128 0x26
	.string	"__n"
	.byte	0x6
	.byte	0x81
	.byte	0x1a
	.long	0x4513
	.uleb128 0x1
	.long	0x9315
	.byte	0
	.uleb128 0xb
	.long	0x4563
	.long	0xac9c
	.byte	0x3
	.long	0xaca6
	.uleb128 0x9
	.long	.LASF1334
	.long	0xa6ec
	.byte	0
	.uleb128 0x13
	.long	0x6eb9
	.byte	0x3
	.long	0xad06
	.uleb128 0xf
	.string	"_Up"
	.long	0x37
	.uleb128 0xf
	.string	"_Tp"
	.long	0x37
	.uleb128 0x12
	.long	.LASF1332
	.byte	0xa
	.value	0x3a7
	.byte	0x14
	.long	0x9ff6
	.uleb128 0x12
	.long	.LASF1333
	.byte	0xa
	.value	0x3a7
	.byte	0x22
	.long	0x9ff6
	.uleb128 0xe
	.string	"__x"
	.byte	0xa
	.value	0x3a7
	.byte	0x35
	.long	0xa014
	.uleb128 0x25
	.long	.LASF1337
	.byte	0xa
	.value	0x3ab
	.byte	0x11
	.long	0x92dc
	.uleb128 0x43
	.uleb128 0x25
	.long	.LASF1338
	.byte	0xa
	.value	0x3b4
	.byte	0x18
	.long	0x2d0
	.byte	0
	.byte	0
	.uleb128 0xb
	.long	0x115e
	.long	0xad14
	.byte	0x3
	.long	0xad2b
	.uleb128 0x9
	.long	.LASF1334
	.long	0xa07d
	.uleb128 0xe
	.string	"__n"
	.byte	0x2
	.value	0x182
	.byte	0x1a
	.long	0x2c3
	.byte	0
	.uleb128 0x13
	.long	0xde6
	.byte	0x3
	.long	0xad43
	.uleb128 0xe
	.string	"__a"
	.byte	0x8
	.value	0x2ed
	.byte	0x26
	.long	0xa032
	.byte	0
	.uleb128 0x13
	.long	0xad0
	.byte	0x3
	.long	0xad89
	.uleb128 0xa
	.long	.LASF61
	.long	0xa7eb
	.uleb128 0xa
	.long	.LASF62
	.long	0x3e
	.uleb128 0x12
	.long	.LASF1332
	.byte	0xc
	.value	0x3ab
	.byte	0x2d
	.long	0xa7eb
	.uleb128 0xe
	.string	"__n"
	.byte	0xc
	.value	0x3ab
	.byte	0x3c
	.long	0x3e
	.uleb128 0x43
	.uleb128 0x25
	.long	.LASF1337
	.byte	0xc
	.value	0x3af
	.byte	0x40
	.long	0xad89
	.byte	0
	.byte	0
	.uleb128 0xd
	.long	0x6bbb
	.uleb128 0xb
	.long	0x5907
	.long	0xad9c
	.byte	0x3
	.long	0xadbe
	.uleb128 0x9
	.long	.LASF1334
	.long	0xa7dc
	.uleb128 0x26
	.string	"__p"
	.byte	0x6
	.byte	0xa7
	.byte	0x17
	.long	0xa7eb
	.uleb128 0x26
	.string	"__n"
	.byte	0x6
	.byte	0xa7
	.byte	0x26
	.long	0x58fb
	.byte	0
	.uleb128 0x13
	.long	0x5a1c
	.byte	0x3
	.long	0xade3
	.uleb128 0xe
	.string	"__a"
	.byte	0x8
	.value	0x27d
	.byte	0x20
	.long	0xa822
	.uleb128 0xe
	.string	"__n"
	.byte	0x8
	.value	0x27d
	.byte	0x2f
	.long	0x5a4e
	.byte	0
	.uleb128 0xb
	.long	0x592c
	.long	0xadf1
	.byte	0x3
	.long	0xadfb
	.uleb128 0x9
	.long	.LASF1334
	.long	0xa7fa
	.byte	0
	.uleb128 0x13
	.long	0x6eec
	.byte	0x1
	.long	0xae55
	.uleb128 0xa
	.long	.LASF61
	.long	0xa6dd
	.uleb128 0xa
	.long	.LASF62
	.long	0x3e
	.uleb128 0xf
	.string	"_Tp"
	.long	0x56
	.uleb128 0x12
	.long	.LASF1332
	.byte	0xc
	.value	0x1dd
	.byte	0x29
	.long	0xa6dd
	.uleb128 0xe
	.string	"__n"
	.byte	0xc
	.value	0x1dd
	.byte	0x38
	.long	0x3e
	.uleb128 0xe
	.string	"__x"
	.byte	0xc
	.value	0x1dd
	.byte	0x48
	.long	0xa6f6
	.uleb128 0x25
	.long	.LASF1339
	.byte	0xc
	.value	0x1df
	.byte	0x2d
	.long	0x6c96
	.byte	0
	.uleb128 0xb
	.long	0x451f
	.long	0xae63
	.byte	0x3
	.long	0xae85
	.uleb128 0x9
	.long	.LASF1334
	.long	0xa6ce
	.uleb128 0x26
	.string	"__p"
	.byte	0x6
	.byte	0xa7
	.byte	0x17
	.long	0xa6dd
	.uleb128 0x26
	.string	"__n"
	.byte	0x6
	.byte	0xa7
	.byte	0x26
	.long	0x4513
	.byte	0
	.uleb128 0x13
	.long	0x4634
	.byte	0x3
	.long	0xaeaa
	.uleb128 0xe
	.string	"__a"
	.byte	0x8
	.value	0x27d
	.byte	0x20
	.long	0xa70f
	.uleb128 0xe
	.string	"__n"
	.byte	0x8
	.value	0x27d
	.byte	0x2f
	.long	0x4666
	.byte	0
	.uleb128 0xb
	.long	0x4544
	.long	0xaeb8
	.byte	0x3
	.long	0xaec2
	.uleb128 0x9
	.long	.LASF1334
	.long	0xa6ec
	.byte	0
	.uleb128 0xb
	.long	0x32d3
	.long	0xaed0
	.byte	0x3
	.long	0xaeda
	.uleb128 0x9
	.long	.LASF1334
	.long	0xa5d9
	.byte	0
	.uleb128 0xb
	.long	0x32b8
	.long	0xaee8
	.byte	0x3
	.long	0xaef2
	.uleb128 0x9
	.long	.LASF1334
	.long	0xa5d9
	.byte	0
	.uleb128 0x13
	.long	0x6f2c
	.byte	0x3
	.long	0xaf36
	.uleb128 0xa
	.long	.LASF758
	.long	0x9ff6
	.uleb128 0xf
	.string	"_Tp"
	.long	0x37
	.uleb128 0x12
	.long	.LASF1332
	.byte	0xa
	.value	0x3d0
	.byte	0x14
	.long	0x9ff6
	.uleb128 0x12
	.long	.LASF1333
	.byte	0xa
	.value	0x3d0
	.byte	0x23
	.long	0x9ff6
	.uleb128 0x12
	.long	.LASF851
	.byte	0xa
	.value	0x3d0
	.byte	0x36
	.long	0xa014
	.byte	0
	.uleb128 0x13
	.long	0x6f5f
	.byte	0x3
	.long	0xaf57
	.uleb128 0xa
	.long	.LASF449
	.long	0x9ff6
	.uleb128 0x12
	.long	.LASF1340
	.byte	0x3
	.value	0xbce
	.byte	0x1c
	.long	0x9ff6
	.byte	0
	.uleb128 0x13
	.long	0x6f83
	.byte	0x3
	.long	0xafa4
	.uleb128 0xa
	.long	.LASF778
	.long	0x9ff6
	.uleb128 0xa
	.long	.LASF779
	.long	0x1200
	.uleb128 0xf
	.string	"_Tp"
	.long	0x37
	.uleb128 0x12
	.long	.LASF1332
	.byte	0xa
	.value	0x3bc
	.byte	0x3b
	.long	0x8295
	.uleb128 0x12
	.long	.LASF1333
	.byte	0xa
	.value	0x3bd
	.byte	0x34
	.long	0x8295
	.uleb128 0x12
	.long	.LASF851
	.byte	0xa
	.value	0x3be
	.byte	0x13
	.long	0xa014
	.byte	0
	.uleb128 0xb
	.long	0x8490
	.long	0xafb2
	.byte	0x3
	.long	0xafbc
	.uleb128 0x9
	.long	.LASF1334
	.long	0xa917
	.byte	0
	.uleb128 0xb
	.long	0x11a4
	.long	0xafca
	.byte	0x3
	.long	0xafe1
	.uleb128 0x9
	.long	.LASF1334
	.long	0xa07d
	.uleb128 0xe
	.string	"__n"
	.byte	0x2
	.value	0x195
	.byte	0x20
	.long	0x2c3
	.byte	0
	.uleb128 0xb
	.long	0xf2c
	.long	0xafef
	.byte	0x2
	.long	0xb005
	.uleb128 0x9
	.long	.LASF1334
	.long	0xa05f
	.uleb128 0x26
	.string	"__a"
	.byte	0x2
	.byte	0x98
	.byte	0x25
	.long	0xa064
	.byte	0
	.uleb128 0x1b
	.long	0xafe1
	.long	.LASF1341
	.long	0xb016
	.long	0xb021
	.uleb128 0x3
	.long	0xafef
	.uleb128 0x3
	.long	0xaff8
	.byte	0
	.uleb128 0x13
	.long	0x1ccd
	.byte	0x3
	.long	0xb053
	.uleb128 0xe
	.string	"__a"
	.byte	0x2
	.value	0x8a4
	.byte	0x29
	.long	0xa0cd
	.uleb128 0x25
	.long	.LASF1342
	.byte	0x2
	.value	0x8a9
	.byte	0xf
	.long	0x2d0
	.uleb128 0x25
	.long	.LASF1343
	.byte	0x2
	.value	0x8ab
	.byte	0xf
	.long	0x2d0
	.byte	0
	.uleb128 0x13
	.long	0x6fbf
	.byte	0x3
	.long	0xb0bf
	.uleb128 0xa
	.long	.LASF61
	.long	0xa7eb
	.uleb128 0xf
	.string	"_Tp"
	.long	0x30
	.uleb128 0x12
	.long	.LASF1332
	.byte	0xa
	.value	0x37f
	.byte	0x20
	.long	0xa7eb
	.uleb128 0x12
	.long	.LASF1333
	.byte	0xa
	.value	0x37f
	.byte	0x3a
	.long	0xa7eb
	.uleb128 0x12
	.long	.LASF851
	.byte	0xa
	.value	0x380
	.byte	0x13
	.long	0xa809
	.uleb128 0x25
	.long	.LASF1344
	.byte	0xa
	.value	0x388
	.byte	0x12
	.long	0x92cd
	.uleb128 0xcb
	.string	"_Up"
	.byte	0xa
	.value	0x398
	.byte	0x20
	.long	0x91a4
	.uleb128 0x25
	.long	.LASF1337
	.byte	0xa
	.value	0x399
	.byte	0xb
	.long	0xb0a3
	.byte	0
	.uleb128 0x13
	.long	0x6ff2
	.byte	0x3
	.long	0xb104
	.uleb128 0xa
	.long	.LASF61
	.long	0xa7eb
	.uleb128 0xa
	.long	.LASF62
	.long	0x3e
	.uleb128 0x12
	.long	.LASF1332
	.byte	0xc
	.value	0x3d6
	.byte	0x30
	.long	0xa7eb
	.uleb128 0xe
	.string	"__n"
	.byte	0xc
	.value	0x3d6
	.byte	0x3f
	.long	0x3e
	.uleb128 0xcc
	.long	.LASF1487
	.byte	0xc
	.value	0x3e1
	.byte	0x16
	.long	0x92cd
	.byte	0
	.uleb128 0x13
	.long	0x5a8d
	.byte	0x3
	.long	0xb136
	.uleb128 0xe
	.string	"__a"
	.byte	0x8
	.value	0x2b0
	.byte	0x22
	.long	0xa822
	.uleb128 0xe
	.string	"__p"
	.byte	0x8
	.value	0x2b0
	.byte	0x2f
	.long	0x5a0f
	.uleb128 0xe
	.string	"__n"
	.byte	0x8
	.value	0x2b0
	.byte	0x3e
	.long	0x5a4e
	.byte	0
	.uleb128 0xb
	.long	0x5e26
	.long	0xb144
	.byte	0x3
	.long	0xb15b
	.uleb128 0x9
	.long	.LASF1334
	.long	0xa872
	.uleb128 0xe
	.string	"__n"
	.byte	0x2
	.value	0x182
	.byte	0x1a
	.long	0x2c3
	.byte	0
	.uleb128 0xb
	.long	0x5b40
	.long	0xb169
	.byte	0x2
	.long	0xb173
	.uleb128 0x9
	.long	.LASF1334
	.long	0xa83b
	.byte	0
	.uleb128 0x1b
	.long	0xb15b
	.long	.LASF1345
	.long	0xb184
	.long	0xb18a
	.uleb128 0x3
	.long	0xb169
	.byte	0
	.uleb128 0xb
	.long	0x57fc
	.long	0xb198
	.byte	0x2
	.long	0xb1a7
	.uleb128 0x9
	.long	.LASF1334
	.long	0xa7dc
	.uleb128 0x1
	.long	0xa7e1
	.byte	0
	.uleb128 0x1b
	.long	0xb18a
	.long	.LASF1346
	.long	0xb1b8
	.long	0xb1c3
	.uleb128 0x3
	.long	0xb198
	.uleb128 0x3
	.long	0xb1a1
	.byte	0
	.uleb128 0x13
	.long	0x5aae
	.byte	0x3
	.long	0xb1db
	.uleb128 0xe
	.string	"__a"
	.byte	0x8
	.value	0x2ed
	.byte	0x26
	.long	0xa827
	.byte	0
	.uleb128 0x13
	.long	0x7024
	.byte	0x3
	.long	0xb228
	.uleb128 0xa
	.long	.LASF61
	.long	0xa6dd
	.uleb128 0xa
	.long	.LASF62
	.long	0x3e
	.uleb128 0xf
	.string	"_Tp"
	.long	0x56
	.uleb128 0x12
	.long	.LASF1332
	.byte	0xc
	.value	0x226
	.byte	0x2b
	.long	0xa6dd
	.uleb128 0xe
	.string	"__n"
	.byte	0xc
	.value	0x226
	.byte	0x3a
	.long	0x3e
	.uleb128 0xe
	.string	"__x"
	.byte	0xc
	.value	0x226
	.byte	0x4a
	.long	0xa6f6
	.byte	0
	.uleb128 0x13
	.long	0x46a5
	.byte	0x3
	.long	0xb25a
	.uleb128 0xe
	.string	"__a"
	.byte	0x8
	.value	0x2b0
	.byte	0x22
	.long	0xa70f
	.uleb128 0xe
	.string	"__p"
	.byte	0x8
	.value	0x2b0
	.byte	0x2f
	.long	0x4627
	.uleb128 0xe
	.string	"__n"
	.byte	0x8
	.value	0x2b0
	.byte	0x3e
	.long	0x4666
	.byte	0
	.uleb128 0xb
	.long	0x4a3e
	.long	0xb268
	.byte	0x3
	.long	0xb27f
	.uleb128 0x9
	.long	.LASF1334
	.long	0xa75f
	.uleb128 0xe
	.string	"__n"
	.byte	0x2
	.value	0x182
	.byte	0x1a
	.long	0x2c3
	.byte	0
	.uleb128 0xb
	.long	0x4758
	.long	0xb28d
	.byte	0x2
	.long	0xb297
	.uleb128 0x9
	.long	.LASF1334
	.long	0xa728
	.byte	0
	.uleb128 0x1b
	.long	0xb27f
	.long	.LASF1347
	.long	0xb2a8
	.long	0xb2ae
	.uleb128 0x3
	.long	0xb28d
	.byte	0
	.uleb128 0xb
	.long	0x4414
	.long	0xb2bc
	.byte	0x2
	.long	0xb2cb
	.uleb128 0x9
	.long	.LASF1334
	.long	0xa6ce
	.uleb128 0x1
	.long	0xa6d3
	.byte	0
	.uleb128 0x1b
	.long	0xb2ae
	.long	.LASF1348
	.long	0xb2dc
	.long	0xb2e7
	.uleb128 0x3
	.long	0xb2bc
	.uleb128 0x3
	.long	0xb2c5
	.byte	0
	.uleb128 0x13
	.long	0x46c6
	.byte	0x3
	.long	0xb2ff
	.uleb128 0xe
	.string	"__a"
	.byte	0x8
	.value	0x2ed
	.byte	0x26
	.long	0xa714
	.byte	0
	.uleb128 0xc
	.long	0x760e
	.uleb128 0x13
	.long	0x7064
	.byte	0x3
	.long	0xb332
	.uleb128 0xf
	.string	"_Tp"
	.long	0x3e
	.uleb128 0xe
	.string	"__a"
	.byte	0xa
	.value	0x100
	.byte	0x14
	.long	0xb2ff
	.uleb128 0xe
	.string	"__b"
	.byte	0xa
	.value	0x100
	.byte	0x24
	.long	0xb2ff
	.byte	0
	.uleb128 0xb
	.long	0x3267
	.long	0xb340
	.byte	0x3
	.long	0xb35b
	.uleb128 0x9
	.long	.LASF1334
	.long	0xa5bb
	.uleb128 0x26
	.string	"__n"
	.byte	0x6
	.byte	0x81
	.byte	0x1a
	.long	0x328c
	.uleb128 0x1
	.long	0x9315
	.byte	0
	.uleb128 0x13
	.long	0x3453
	.byte	0x3
	.long	0xb373
	.uleb128 0xe
	.string	"__a"
	.byte	0x8
	.value	0x2ed
	.byte	0x26
	.long	0xa606
	.byte	0
	.uleb128 0xb
	.long	0x3298
	.long	0xb381
	.byte	0x3
	.long	0xb3a3
	.uleb128 0x9
	.long	.LASF1334
	.long	0xa5bb
	.uleb128 0x26
	.string	"__p"
	.byte	0x6
	.byte	0xa7
	.byte	0x17
	.long	0xa5ca
	.uleb128 0x26
	.string	"__n"
	.byte	0x6
	.byte	0xa7
	.byte	0x26
	.long	0x328c
	.byte	0
	.uleb128 0x13
	.long	0x708d
	.byte	0x3
	.long	0xb40f
	.uleb128 0xa
	.long	.LASF761
	.long	0x9ff6
	.uleb128 0xa
	.long	.LASF62
	.long	0x3e
	.uleb128 0xf
	.string	"_Tp"
	.long	0x37
	.uleb128 0x12
	.long	.LASF1332
	.byte	0xa
	.value	0x475
	.byte	0x20
	.long	0x9ff6
	.uleb128 0xe
	.string	"__n"
	.byte	0xa
	.value	0x475
	.byte	0x2f
	.long	0x3e
	.uleb128 0x12
	.long	.LASF851
	.byte	0xa
	.value	0x475
	.byte	0x3f
	.long	0xa014
	.uleb128 0x1
	.long	0x6a3
	.uleb128 0x5c
	.string	"__d"
	.byte	0xa
	.value	0x47e
	.byte	0x42
	.long	0x6c68
	.uleb128 0x25
	.long	.LASF1333
	.byte	0xa
	.value	0x481
	.byte	0x17
	.long	0x9ff6
	.byte	0
	.uleb128 0x13
	.long	0x70d2
	.byte	0x3
	.long	0xb46d
	.uleb128 0xa
	.long	.LASF61
	.long	0x9ff6
	.uleb128 0xa
	.long	.LASF62
	.long	0x3e
	.uleb128 0xf
	.string	"_Tp"
	.long	0x37
	.uleb128 0x12
	.long	.LASF1332
	.byte	0xc
	.value	0x226
	.byte	0x2b
	.long	0x9ff6
	.uleb128 0xe
	.string	"__n"
	.byte	0xc
	.value	0x226
	.byte	0x3a
	.long	0x3e
	.uleb128 0xe
	.string	"__x"
	.byte	0xc
	.value	0x226
	.byte	0x4a
	.long	0xa014
	.uleb128 0x43
	.uleb128 0x43
	.uleb128 0x25
	.long	.LASF1349
	.byte	0xc
	.value	0x23e
	.byte	0xb
	.long	0x7650
	.byte	0
	.byte	0
	.byte	0
	.uleb128 0x13
	.long	0x7112
	.byte	0x3
	.long	0xb4b1
	.uleb128 0xa
	.long	.LASF758
	.long	0x8295
	.uleb128 0xf
	.string	"_Tp"
	.long	0x37
	.uleb128 0x12
	.long	.LASF1332
	.byte	0xa
	.value	0x3d0
	.byte	0x14
	.long	0x8295
	.uleb128 0x12
	.long	.LASF1333
	.byte	0xa
	.value	0x3d0
	.byte	0x23
	.long	0x8295
	.uleb128 0x12
	.long	.LASF851
	.byte	0xa
	.value	0x3d0
	.byte	0x36
	.long	0xa014
	.byte	0
	.uleb128 0xb
	.long	0x82c7
	.long	0xb4bf
	.byte	0x2
	.long	0xb4d6
	.uleb128 0x9
	.long	.LASF1334
	.long	0xa908
	.uleb128 0xe
	.string	"__i"
	.byte	0x3
	.value	0x422
	.byte	0x2a
	.long	0xa90d
	.byte	0
	.uleb128 0x1b
	.long	0xb4b1
	.long	.LASF1350
	.long	0xb4e7
	.long	0xb4f2
	.uleb128 0x3
	.long	0xb4bf
	.uleb128 0x3
	.long	0xb4c8
	.byte	0
	.uleb128 0xb
	.long	0xeb1
	.long	0xb500
	.byte	0x3
	.long	0xb516
	.uleb128 0x9
	.long	.LASF1334
	.long	0xa046
	.uleb128 0x26
	.string	"__x"
	.byte	0x2
	.byte	0x77
	.byte	0x28
	.long	0xa050
	.byte	0
	.uleb128 0xb
	.long	0x1b32
	.long	0xb524
	.byte	0x3
	.long	0xb548
	.uleb128 0x9
	.long	.LASF1334
	.long	0xa09b
	.uleb128 0xe
	.string	"__n"
	.byte	0x2
	.value	0x7c3
	.byte	0x24
	.long	0x1343
	.uleb128 0x12
	.long	.LASF851
	.byte	0x2
	.value	0x7c3
	.byte	0x3b
	.long	0xa0a5
	.byte	0
	.uleb128 0xb
	.long	0x1093
	.long	0xb556
	.byte	0x2
	.long	0xb57a
	.uleb128 0x9
	.long	.LASF1334
	.long	0xa07d
	.uleb128 0xe
	.string	"__n"
	.byte	0x2
	.value	0x153
	.byte	0x1b
	.long	0x2c3
	.uleb128 0xe
	.string	"__a"
	.byte	0x2
	.value	0x153
	.byte	0x36
	.long	0xa087
	.byte	0
	.uleb128 0x1b
	.long	0xb548
	.long	.LASF1351
	.long	0xb58b
	.long	0xb59b
	.uleb128 0x3
	.long	0xb556
	.uleb128 0x3
	.long	0xb55f
	.uleb128 0x3
	.long	0xb56c
	.byte	0
	.uleb128 0x13
	.long	0x1caf
	.byte	0x3
	.long	0xb5c0
	.uleb128 0xe
	.string	"__n"
	.byte	0x2
	.value	0x89b
	.byte	0x23
	.long	0x1343
	.uleb128 0xe
	.string	"__a"
	.byte	0x2
	.value	0x89b
	.byte	0x3e
	.long	0xa0a0
	.byte	0
	.uleb128 0xb
	.long	0xc3f
	.long	0xb5ce
	.byte	0x3
	.long	0xb5f0
	.uleb128 0x9
	.long	.LASF1334
	.long	0x9fe7
	.uleb128 0x26
	.string	"__p"
	.byte	0x6
	.byte	0xa7
	.byte	0x17
	.long	0x9ff6
	.uleb128 0x26
	.string	"__n"
	.byte	0x6
	.byte	0xa7
	.byte	0x26
	.long	0xc33
	.byte	0
	.uleb128 0xb
	.long	0xb34
	.long	0xb5fe
	.byte	0x2
	.long	0xb60d
	.uleb128 0x9
	.long	.LASF1334
	.long	0x9fe7
	.uleb128 0x1
	.long	0x9fec
	.byte	0
	.uleb128 0x1b
	.long	0xb5f0
	.long	.LASF1352
	.long	0xb61e
	.long	0xb629
	.uleb128 0x3
	.long	0xb5fe
	.uleb128 0x3
	.long	0xb607
	.byte	0
	.uleb128 0x13
	.long	0x7145
	.byte	0x3
	.long	0xb676
	.uleb128 0xa
	.long	.LASF778
	.long	0xa7eb
	.uleb128 0xa
	.long	.LASF779
	.long	0x5ec8
	.uleb128 0xf
	.string	"_Tp"
	.long	0x30
	.uleb128 0x12
	.long	.LASF1332
	.byte	0xa
	.value	0x3bc
	.byte	0x3b
	.long	0x8f5f
	.uleb128 0x12
	.long	.LASF1333
	.byte	0xa
	.value	0x3bd
	.byte	0x34
	.long	0x8f5f
	.uleb128 0x12
	.long	.LASF851
	.byte	0xa
	.value	0x3be
	.byte	0x13
	.long	0xa809
	.byte	0
	.uleb128 0xb
	.long	0x915a
	.long	0xb684
	.byte	0x3
	.long	0xb68e
	.uleb128 0x9
	.long	.LASF1334
	.long	0xa8e5
	.byte	0
	.uleb128 0x13
	.long	0x7181
	.byte	0x3
	.long	0xb6ba
	.uleb128 0xa
	.long	.LASF61
	.long	0xa7eb
	.uleb128 0x42
	.long	.LASF1332
	.byte	0xb
	.byte	0xdb
	.byte	0x1f
	.long	0xa7eb
	.uleb128 0x42
	.long	.LASF1333
	.byte	0xb
	.byte	0xdb
	.byte	0x39
	.long	0xa7eb
	.byte	0
	.uleb128 0x13
	.long	0x71a5
	.byte	0x3
	.long	0xb6ff
	.uleb128 0xa
	.long	.LASF61
	.long	0xa7eb
	.uleb128 0xa
	.long	.LASF62
	.long	0x3e
	.uleb128 0xf
	.string	"_Tp"
	.long	0x30
	.uleb128 0x12
	.long	.LASF1332
	.byte	0xc
	.value	0x41b
	.byte	0x32
	.long	0xa7eb
	.uleb128 0xe
	.string	"__n"
	.byte	0xc
	.value	0x41b
	.byte	0x41
	.long	0x3e
	.uleb128 0x1
	.long	0xa81d
	.byte	0
	.uleb128 0xb
	.long	0x5e49
	.long	0xb70d
	.byte	0x3
	.long	0xb731
	.uleb128 0x9
	.long	.LASF1334
	.long	0xa872
	.uleb128 0xe
	.string	"__p"
	.byte	0x2
	.value	0x18a
	.byte	0x1d
	.long	0x5bb7
	.uleb128 0xe
	.string	"__n"
	.byte	0x2
	.value	0x18a
	.byte	0x29
	.long	0x2c3
	.byte	0
	.uleb128 0xb
	.long	0x5e6c
	.long	0xb73f
	.byte	0x3
	.long	0xb756
	.uleb128 0x9
	.long	.LASF1334
	.long	0xa872
	.uleb128 0xe
	.string	"__n"
	.byte	0x2
	.value	0x195
	.byte	0x20
	.long	0x2c3
	.byte	0
	.uleb128 0xb
	.long	0x5bf4
	.long	0xb764
	.byte	0x2
	.long	0xb77a
	.uleb128 0x9
	.long	.LASF1334
	.long	0xa854
	.uleb128 0x26
	.string	"__a"
	.byte	0x2
	.byte	0x98
	.byte	0x25
	.long	0xa859
	.byte	0
	.uleb128 0x1b
	.long	0xb756
	.long	.LASF1353
	.long	0xb78b
	.long	0xb796
	.uleb128 0x3
	.long	0xb764
	.uleb128 0x3
	.long	0xb76d
	.byte	0
	.uleb128 0xb
	.long	0x59a5
	.long	0xb7a4
	.byte	0x2
	.long	0xb7ba
	.uleb128 0x9
	.long	.LASF1334
	.long	0xa813
	.uleb128 0x26
	.string	"__a"
	.byte	0x5
	.byte	0xac
	.byte	0x22
	.long	0xa818
	.byte	0
	.uleb128 0x1b
	.long	0xb796
	.long	.LASF1354
	.long	0xb7cb
	.long	0xb7d6
	.uleb128 0x3
	.long	0xb7a4
	.uleb128 0x3
	.long	0xb7ad
	.byte	0
	.uleb128 0x13
	.long	0x6990
	.byte	0x3
	.long	0xb808
	.uleb128 0xe
	.string	"__a"
	.byte	0x2
	.value	0x8a4
	.byte	0x29
	.long	0xa8c2
	.uleb128 0x25
	.long	.LASF1342
	.byte	0x2
	.value	0x8a9
	.byte	0xf
	.long	0x2d0
	.uleb128 0x25
	.long	.LASF1343
	.byte	0x2
	.value	0x8ab
	.byte	0xf
	.long	0x2d0
	.byte	0
	.uleb128 0x13
	.long	0x71e5
	.byte	0x3
	.long	0xb834
	.uleb128 0xa
	.long	.LASF61
	.long	0xa6dd
	.uleb128 0x42
	.long	.LASF1332
	.byte	0xb
	.byte	0xdb
	.byte	0x1f
	.long	0xa6dd
	.uleb128 0x42
	.long	.LASF1333
	.byte	0xb
	.byte	0xdb
	.byte	0x39
	.long	0xa6dd
	.byte	0
	.uleb128 0x13
	.long	0x7209
	.byte	0x3
	.long	0xb88f
	.uleb128 0xa
	.long	.LASF61
	.long	0xa6dd
	.uleb128 0xa
	.long	.LASF62
	.long	0x3e
	.uleb128 0xf
	.string	"_Tp"
	.long	0x56
	.uleb128 0xa
	.long	.LASF804
	.long	0x56
	.uleb128 0x12
	.long	.LASF1332
	.byte	0xc
	.value	0x303
	.byte	0x2f
	.long	0xa6dd
	.uleb128 0xe
	.string	"__n"
	.byte	0xc
	.value	0x303
	.byte	0x3e
	.long	0x3e
	.uleb128 0xe
	.string	"__x"
	.byte	0xc
	.value	0x304
	.byte	0x14
	.long	0xa6f6
	.uleb128 0x1
	.long	0xa70a
	.byte	0
	.uleb128 0xb
	.long	0x4a61
	.long	0xb89d
	.byte	0x3
	.long	0xb8c1
	.uleb128 0x9
	.long	.LASF1334
	.long	0xa75f
	.uleb128 0xe
	.string	"__p"
	.byte	0x2
	.value	0x18a
	.byte	0x1d
	.long	0x47cf
	.uleb128 0xe
	.string	"__n"
	.byte	0x2
	.value	0x18a
	.byte	0x29
	.long	0x2c3
	.byte	0
	.uleb128 0xb
	.long	0x4a84
	.long	0xb8cf
	.byte	0x3
	.long	0xb8e6
	.uleb128 0x9
	.long	.LASF1334
	.long	0xa75f
	.uleb128 0xe
	.string	"__n"
	.byte	0x2
	.value	0x195
	.byte	0x20
	.long	0x2c3
	.byte	0
	.uleb128 0xb
	.long	0x480c
	.long	0xb8f4
	.byte	0x2
	.long	0xb90a
	.uleb128 0x9
	.long	.LASF1334
	.long	0xa741
	.uleb128 0x26
	.string	"__a"
	.byte	0x2
	.byte	0x98
	.byte	0x25
	.long	0xa746
	.byte	0
	.uleb128 0x1b
	.long	0xb8e6
	.long	.LASF1355
	.long	0xb91b
	.long	0xb926
	.uleb128 0x3
	.long	0xb8f4
	.uleb128 0x3
	.long	0xb8fd
	.byte	0
	.uleb128 0xb
	.long	0x45bd
	.long	0xb934
	.byte	0x2
	.long	0xb94a
	.uleb128 0x9
	.long	.LASF1334
	.long	0xa700
	.uleb128 0x26
	.string	"__a"
	.byte	0x5
	.byte	0xac
	.byte	0x22
	.long	0xa705
	.byte	0
	.uleb128 0x1b
	.long	0xb926
	.long	.LASF1356
	.long	0xb95b
	.long	0xb966
	.uleb128 0x3
	.long	0xb934
	.uleb128 0x3
	.long	0xb93d
	.byte	0
	.uleb128 0x13
	.long	0x55a8
	.byte	0x3
	.long	0xb998
	.uleb128 0xe
	.string	"__a"
	.byte	0x2
	.value	0x8a4
	.byte	0x29
	.long	0xa7aa
	.uleb128 0x25
	.long	.LASF1342
	.byte	0x2
	.value	0x8a9
	.byte	0xf
	.long	0x2d0
	.uleb128 0x25
	.long	.LASF1343
	.byte	0x2
	.value	0x8ab
	.byte	0xf
	.long	0x2d0
	.byte	0
	.uleb128 0x13
	.long	0x7257
	.byte	0x3
	.long	0xb9b8
	.uleb128 0xf
	.string	"_Tp"
	.long	0xa446
	.uleb128 0x42
	.long	.LASF1357
	.byte	0x27
	.byte	0xcf
	.byte	0x17
	.long	0xa5ca
	.byte	0
	.uleb128 0xb
	.long	0x42fe
	.long	0xb9c6
	.byte	0x2
	.long	0xb9d0
	.uleb128 0x9
	.long	.LASF1334
	.long	0xa92b
	.byte	0
	.uleb128 0x3c
	.long	0xb9b8
	.long	0xb9dd
	.long	0xb9e3
	.uleb128 0x3
	.long	0xb9c6
	.byte	0
	.uleb128 0xb
	.long	0x42d9
	.long	0xb9f1
	.byte	0x2
	.long	0xba22
	.uleb128 0x9
	.long	.LASF1334
	.long	0xa92b
	.uleb128 0xe
	.string	"__s"
	.byte	0x2
	.value	0x749
	.byte	0x17
	.long	0x38b6
	.uleb128 0xe
	.string	"__l"
	.byte	0x2
	.value	0x749
	.byte	0x26
	.long	0x395e
	.uleb128 0x12
	.long	.LASF1358
	.byte	0x2
	.value	0x749
	.byte	0x32
	.long	0xa921
	.byte	0
	.uleb128 0x3c
	.long	0xb9e3
	.long	0xba2f
	.long	0xba44
	.uleb128 0x3
	.long	0xb9f1
	.uleb128 0x3
	.long	0xb9fa
	.uleb128 0x3
	.long	0xba07
	.uleb128 0x3
	.long	0xba14
	.byte	0
	.uleb128 0xb
	.long	0x419e
	.long	0xba52
	.byte	0x3
	.long	0xba83
	.uleb128 0x9
	.long	.LASF1334
	.long	0xa69c
	.uleb128 0xe
	.string	"__n"
	.byte	0x2
	.value	0x890
	.byte	0x1e
	.long	0x395e
	.uleb128 0xe
	.string	"__s"
	.byte	0x2
	.value	0x890
	.byte	0x2f
	.long	0x7892
	.uleb128 0x25
	.long	.LASF1338
	.byte	0x2
	.value	0x895
	.byte	0x12
	.long	0x396b
	.byte	0
	.uleb128 0xb
	.long	0x32ee
	.long	0xbaa9
	.byte	0x3
	.long	0xbace
	.uleb128 0xf
	.string	"_Up"
	.long	0xa446
	.uleb128 0x55
	.long	.LASF433
	.long	0xbaa9
	.uleb128 0x56
	.long	0xa5e8
	.byte	0
	.uleb128 0x9
	.long	.LASF1334
	.long	0xa5bb
	.uleb128 0x26
	.string	"__p"
	.byte	0x6
	.byte	0xc9
	.byte	0x11
	.long	0xa5ca
	.uleb128 0x99
	.long	.LASF1359
	.byte	0x6
	.byte	0xc9
	.byte	0x1d
	.uleb128 0x1
	.long	0xa5e8
	.byte	0
	.byte	0
	.uleb128 0x13
	.long	0x7283
	.byte	0x3
	.long	0xbb2c
	.uleb128 0xf
	.string	"_Tp"
	.long	0xa446
	.uleb128 0xf
	.string	"_Up"
	.long	0xa446
	.uleb128 0x12
	.long	.LASF1332
	.byte	0xc
	.value	0x561
	.byte	0x19
	.long	0xa5ca
	.uleb128 0x12
	.long	.LASF1333
	.byte	0xc
	.value	0x561
	.byte	0x27
	.long	0xa5ca
	.uleb128 0x12
	.long	.LASF1360
	.byte	0xc
	.value	0x562
	.byte	0xb
	.long	0xa5ca
	.uleb128 0x12
	.long	.LASF1361
	.byte	0xc
	.value	0x563
	.byte	0x2b
	.long	0xa5fc
	.uleb128 0x25
	.long	.LASF850
	.byte	0xc
	.value	0x565
	.byte	0x11
	.long	0x636
	.byte	0
	.uleb128 0x13
	.long	0x72bb
	.byte	0x3
	.long	0xbb4d
	.uleb128 0xa
	.long	.LASF449
	.long	0xa5ca
	.uleb128 0x12
	.long	.LASF1340
	.byte	0x3
	.value	0xbce
	.byte	0x1c
	.long	0xa5ca
	.byte	0
	.uleb128 0x13
	.long	0x33cd
	.byte	0x3
	.long	0xbb72
	.uleb128 0xe
	.string	"__a"
	.byte	0x8
	.value	0x27d
	.byte	0x20
	.long	0xa601
	.uleb128 0xe
	.string	"__n"
	.byte	0x8
	.value	0x27d
	.byte	0x2f
	.long	0x33fb
	.byte	0
	.uleb128 0xb
	.long	0x364f
	.long	0xbb80
	.byte	0x3
	.long	0xbb8a
	.uleb128 0x9
	.long	.LASF1334
	.long	0xa65b
	.byte	0
	.uleb128 0x13
	.long	0x41df
	.byte	0x3
	.long	0xbbbc
	.uleb128 0xe
	.string	"__a"
	.byte	0x2
	.value	0x8a4
	.byte	0x29
	.long	0xa6a6
	.uleb128 0x25
	.long	.LASF1342
	.byte	0x2
	.value	0x8a9
	.byte	0xf
	.long	0x2d0
	.uleb128 0x25
	.long	.LASF1343
	.byte	0x2
	.value	0x8ab
	.byte	0xf
	.long	0x2d0
	.byte	0
	.uleb128 0x13
	.long	0x72db
	.byte	0x3
	.long	0xbbe8
	.uleb128 0xa
	.long	.LASF61
	.long	0xa5ca
	.uleb128 0x42
	.long	.LASF1332
	.byte	0xb
	.byte	0xdb
	.byte	0x1f
	.long	0xa5ca
	.uleb128 0x42
	.long	.LASF1333
	.byte	0xb
	.byte	0xdb
	.byte	0x39
	.long	0xa5ca
	.byte	0
	.uleb128 0x13
	.long	0x3436
	.byte	0x3
	.long	0xbc1a
	.uleb128 0xe
	.string	"__a"
	.byte	0x8
	.value	0x2b0
	.byte	0x22
	.long	0xa601
	.uleb128 0xe
	.string	"__p"
	.byte	0x8
	.value	0x2b0
	.byte	0x2f
	.long	0x33c0
	.uleb128 0xe
	.string	"__n"
	.byte	0x8
	.value	0x2b0
	.byte	0x3e
	.long	0x33fb
	.byte	0
	.uleb128 0xb
	.long	0x3190
	.long	0xbc28
	.byte	0x2
	.long	0xbc32
	.uleb128 0x9
	.long	.LASF1334
	.long	0xa5bb
	.byte	0
	.uleb128 0x3c
	.long	0xbc1a
	.long	0xbc3f
	.long	0xbc45
	.uleb128 0x3
	.long	0xbc28
	.byte	0
	.uleb128 0x13
	.long	0x72fc
	.byte	0x3
	.long	0xbc92
	.uleb128 0xf
	.string	"_OI"
	.long	0x9ff6
	.uleb128 0xa
	.long	.LASF62
	.long	0x3e
	.uleb128 0xf
	.string	"_Tp"
	.long	0x37
	.uleb128 0x12
	.long	.LASF1332
	.byte	0xa
	.value	0x49b
	.byte	0x10
	.long	0x9ff6
	.uleb128 0xe
	.string	"__n"
	.byte	0xa
	.value	0x49b
	.byte	0x1f
	.long	0x3e
	.uleb128 0x12
	.long	.LASF851
	.byte	0xa
	.value	0x49b
	.byte	0x2f
	.long	0xa014
	.byte	0
	.uleb128 0xb
	.long	0x1ce6
	.long	0xbca0
	.byte	0x3
	.long	0xbcc6
	.uleb128 0x9
	.long	.LASF1334
	.long	0xa09b
	.uleb128 0x12
	.long	.LASF1221
	.byte	0x2
	.value	0x8b5
	.byte	0x1f
	.long	0x128c
	.uleb128 0x43
	.uleb128 0x5c
	.string	"__n"
	.byte	0x2
	.value	0x8b7
	.byte	0x10
	.long	0x1343
	.byte	0
	.byte	0
	.uleb128 0x13
	.long	0x733c
	.byte	0x3
	.long	0xbd21
	.uleb128 0xa
	.long	.LASF61
	.long	0x9ff6
	.uleb128 0xa
	.long	.LASF62
	.long	0x3e
	.uleb128 0xf
	.string	"_Tp"
	.long	0x37
	.uleb128 0xa
	.long	.LASF804
	.long	0x37
	.uleb128 0x12
	.long	.LASF1332
	.byte	0xc
	.value	0x303
	.byte	0x2f
	.long	0x9ff6
	.uleb128 0xe
	.string	"__n"
	.byte	0xc
	.value	0x303
	.byte	0x3e
	.long	0x3e
	.uleb128 0xe
	.string	"__x"
	.byte	0xc
	.value	0x304
	.byte	0x14
	.long	0xa014
	.uleb128 0x1
	.long	0xa028
	.byte	0
	.uleb128 0x13
	.long	0x738a
	.byte	0x3
	.long	0xbd65
	.uleb128 0xa
	.long	.LASF61
	.long	0x8295
	.uleb128 0xf
	.string	"_Tp"
	.long	0x37
	.uleb128 0x12
	.long	.LASF1332
	.byte	0xa
	.value	0x3e9
	.byte	0x1b
	.long	0x8295
	.uleb128 0x12
	.long	.LASF1333
	.byte	0xa
	.value	0x3e9
	.byte	0x35
	.long	0x8295
	.uleb128 0x12
	.long	.LASF851
	.byte	0xa
	.value	0x3e9
	.byte	0x48
	.long	0xa014
	.byte	0
	.uleb128 0xb
	.long	0x15be
	.long	0xbd73
	.byte	0x3
	.long	0xbd7d
	.uleb128 0x9
	.long	.LASF1334
	.long	0xa09b
	.byte	0
	.uleb128 0xb
	.long	0x1571
	.long	0xbd8b
	.byte	0x3
	.long	0xbd95
	.uleb128 0x9
	.long	.LASF1334
	.long	0xa09b
	.byte	0
	.uleb128 0xb
	.long	0xed0
	.long	0xbda3
	.byte	0x3
	.long	0xbdc5
	.uleb128 0x9
	.long	.LASF1334
	.long	0xa046
	.uleb128 0x26
	.string	"__x"
	.byte	0x2
	.byte	0x80
	.byte	0x22
	.long	0xa055
	.uleb128 0x31
	.long	.LASF1362
	.byte	0x2
	.byte	0x84
	.byte	0x16
	.long	0xe44
	.byte	0
	.uleb128 0xb
	.long	0x1355
	.long	0xbdd3
	.byte	0x2
	.long	0xbe04
	.uleb128 0x9
	.long	.LASF1334
	.long	0xa09b
	.uleb128 0xe
	.string	"__n"
	.byte	0x2
	.value	0x24d
	.byte	0x18
	.long	0x1343
	.uleb128 0x12
	.long	.LASF851
	.byte	0x2
	.value	0x24d
	.byte	0x2f
	.long	0xa0a5
	.uleb128 0xe
	.string	"__a"
	.byte	0x2
	.value	0x24e
	.byte	0x1d
	.long	0xa0a0
	.byte	0
	.uleb128 0x1b
	.long	0xbdc5
	.long	.LASF1363
	.long	0xbe15
	.long	0xbe2a
	.uleb128 0x3
	.long	0xbdd3
	.uleb128 0x3
	.long	0xbddc
	.uleb128 0x3
	.long	0xbde9
	.uleb128 0x3
	.long	0xbdf6
	.byte	0
	.uleb128 0xb
	.long	0x17b5
	.long	0xbe38
	.byte	0x3
	.long	0xbe4f
	.uleb128 0x9
	.long	.LASF1334
	.long	0xa0c3
	.uleb128 0x25
	.long	.LASF1364
	.byte	0x2
	.value	0x4b0
	.byte	0xc
	.long	0x636
	.byte	0
	.uleb128 0x13
	.long	0x73bd
	.byte	0x3
	.long	0xbe7b
	.uleb128 0xa
	.long	.LASF61
	.long	0x9ff6
	.uleb128 0x42
	.long	.LASF1332
	.byte	0xb
	.byte	0xdb
	.byte	0x1f
	.long	0x9ff6
	.uleb128 0x42
	.long	.LASF1333
	.byte	0xb
	.byte	0xdb
	.byte	0x39
	.long	0x9ff6
	.byte	0
	.uleb128 0x13
	.long	0xdc5
	.byte	0x3
	.long	0xbead
	.uleb128 0xe
	.string	"__a"
	.byte	0x8
	.value	0x2b0
	.byte	0x22
	.long	0xa02d
	.uleb128 0xe
	.string	"__p"
	.byte	0x8
	.value	0x2b0
	.byte	0x2f
	.long	0xd47
	.uleb128 0xe
	.string	"__n"
	.byte	0x8
	.value	0x2b0
	.byte	0x3e
	.long	0xd86
	.byte	0
	.uleb128 0xb
	.long	0xb19
	.long	0xbebb
	.byte	0x2
	.long	0xbec5
	.uleb128 0x9
	.long	.LASF1334
	.long	0x9fe7
	.byte	0
	.uleb128 0x1b
	.long	0xbead
	.long	.LASF1365
	.long	0xbed6
	.long	0xbedc
	.uleb128 0x3
	.long	0xbebb
	.byte	0
	.uleb128 0x13
	.long	0x73e1
	.byte	0x3
	.long	0xbf08
	.uleb128 0xf
	.string	"_Tp"
	.long	0x3e
	.uleb128 0x26
	.string	"__a"
	.byte	0xa
	.byte	0xe8
	.byte	0x14
	.long	0xb2ff
	.uleb128 0x26
	.string	"__b"
	.byte	0xa
	.byte	0xe8
	.byte	0x24
	.long	0xb2ff
	.byte	0
	.uleb128 0xb
	.long	0xcdd
	.long	0xbf16
	.byte	0x2
	.long	0xbf2c
	.uleb128 0x9
	.long	.LASF1334
	.long	0xa01e
	.uleb128 0x26
	.string	"__a"
	.byte	0x5
	.byte	0xac
	.byte	0x22
	.long	0xa023
	.byte	0
	.uleb128 0x1b
	.long	0xbf08
	.long	.LASF1366
	.long	0xbf3d
	.long	0xbf48
	.uleb128 0x3
	.long	0xbf16
	.uleb128 0x3
	.long	0xbf1f
	.byte	0
	.uleb128 0xb
	.long	0x6a5d
	.long	0xbf5f
	.byte	0x3
	.long	0xbf76
	.uleb128 0xf
	.string	"_Up"
	.long	0x30
	.uleb128 0x9
	.long	.LASF1334
	.long	0xa8b8
	.uleb128 0x12
	.long	.LASF1357
	.byte	0x2
	.value	0x8ee
	.byte	0x13
	.long	0xa7eb
	.byte	0
	.uleb128 0x13
	.long	0x7409
	.byte	0x3
	.long	0xbfba
	.uleb128 0xa
	.long	.LASF758
	.long	0x8f5f
	.uleb128 0xf
	.string	"_Tp"
	.long	0x30
	.uleb128 0x12
	.long	.LASF1332
	.byte	0xa
	.value	0x3d0
	.byte	0x14
	.long	0x8f5f
	.uleb128 0x12
	.long	.LASF1333
	.byte	0xa
	.value	0x3d0
	.byte	0x23
	.long	0x8f5f
	.uleb128 0x12
	.long	.LASF851
	.byte	0xa
	.value	0x3d0
	.byte	0x36
	.long	0xa809
	.byte	0
	.uleb128 0xb
	.long	0x8f91
	.long	0xbfc8
	.byte	0x2
	.long	0xbfdf
	.uleb128 0x9
	.long	.LASF1334
	.long	0xa8d6
	.uleb128 0xe
	.string	"__i"
	.byte	0x3
	.value	0x422
	.byte	0x2a
	.long	0xa8db
	.byte	0
	.uleb128 0x1b
	.long	0xbfba
	.long	.LASF1367
	.long	0xbff0
	.long	0xbffb
	.uleb128 0x3
	.long	0xbfc8
	.uleb128 0x3
	.long	0xbfd1
	.byte	0
	.uleb128 0x13
	.long	0x743c
	.byte	0x3
	.long	0xc037
	.uleb128 0xa
	.long	.LASF61
	.long	0xa7eb
	.uleb128 0xf
	.string	"_Tp"
	.long	0x30
	.uleb128 0x12
	.long	.LASF1332
	.byte	0x8
	.value	0x43a
	.byte	0x1f
	.long	0xa7eb
	.uleb128 0x12
	.long	.LASF1333
	.byte	0x8
	.value	0x43a
	.byte	0x39
	.long	0xa7eb
	.uleb128 0x1
	.long	0xa81d
	.byte	0
	.uleb128 0xb
	.long	0x5c9a
	.long	0xc045
	.byte	0x3
	.long	0xc04f
	.uleb128 0x9
	.long	.LASF1334
	.long	0xa872
	.byte	0
	.uleb128 0xb
	.long	0x681b
	.long	0xc05d
	.byte	0x3
	.long	0xc074
	.uleb128 0x9
	.long	.LASF1334
	.long	0xa890
	.uleb128 0xe
	.string	"__n"
	.byte	0x2
	.value	0x7ce
	.byte	0x27
	.long	0x600b
	.byte	0
	.uleb128 0xb
	.long	0x5e00
	.long	0xc082
	.byte	0x2
	.long	0xc09b
	.uleb128 0x9
	.long	.LASF1334
	.long	0xa872
	.uleb128 0x43
	.uleb128 0x5c
	.string	"__n"
	.byte	0x2
	.value	0x177
	.byte	0xc
	.long	0x636
	.byte	0
	.byte	0
	.uleb128 0x1b
	.long	0xc074
	.long	.LASF1368
	.long	0xc0ac
	.long	0xc0bd
	.uleb128 0x3
	.long	0xc082
	.uleb128 0x74
	.long	0xc08b
	.uleb128 0x3a
	.long	0xc08c
	.byte	0
	.byte	0
	.uleb128 0xb
	.long	0x5d5b
	.long	0xc0cb
	.byte	0x2
	.long	0xc0ef
	.uleb128 0x9
	.long	.LASF1334
	.long	0xa872
	.uleb128 0xe
	.string	"__n"
	.byte	0x2
	.value	0x153
	.byte	0x1b
	.long	0x2c3
	.uleb128 0xe
	.string	"__a"
	.byte	0x2
	.value	0x153
	.byte	0x36
	.long	0xa87c
	.byte	0
	.uleb128 0x1b
	.long	0xc0bd
	.long	.LASF1369
	.long	0xc100
	.long	0xc110
	.uleb128 0x3
	.long	0xc0cb
	.uleb128 0x3
	.long	0xc0d4
	.uleb128 0x3
	.long	0xc0e1
	.byte	0
	.uleb128 0x61
	.long	0x5c75
	.byte	0x2
	.byte	0x8b
	.byte	0xe
	.long	0xc120
	.long	0xc12a
	.uleb128 0x9
	.long	.LASF1334
	.long	0xa854
	.byte	0
	.uleb128 0x1b
	.long	0xc110
	.long	.LASF1370
	.long	0xc13b
	.long	0xc141
	.uleb128 0x3
	.long	0xc120
	.byte	0
	.uleb128 0x13
	.long	0x6972
	.byte	0x3
	.long	0xc166
	.uleb128 0xe
	.string	"__n"
	.byte	0x2
	.value	0x89b
	.byte	0x23
	.long	0x600b
	.uleb128 0xe
	.string	"__a"
	.byte	0x2
	.value	0x89b
	.byte	0x3e
	.long	0xa895
	.byte	0
	.uleb128 0xb
	.long	0x583f
	.long	0xc174
	.byte	0x2
	.long	0xc17e
	.uleb128 0x9
	.long	.LASF1334
	.long	0xa7dc
	.byte	0
	.uleb128 0x1b
	.long	0xc166
	.long	.LASF1371
	.long	0xc18f
	.long	0xc195
	.uleb128 0x3
	.long	0xc174
	.byte	0
	.uleb128 0xb
	.long	0x57e1
	.long	0xc1a3
	.byte	0x2
	.long	0xc1ad
	.uleb128 0x9
	.long	.LASF1334
	.long	0xa7dc
	.byte	0
	.uleb128 0x1b
	.long	0xc195
	.long	.LASF1372
	.long	0xc1be
	.long	0xc1c4
	.uleb128 0x3
	.long	0xc1a3
	.byte	0
	.uleb128 0xb
	.long	0x8b65
	.long	0xc1d2
	.byte	0x2
	.long	0xc1e9
	.uleb128 0x9
	.long	.LASF1334
	.long	0xa7be
	.uleb128 0xe
	.string	"__i"
	.byte	0x3
	.value	0x422
	.byte	0x2a
	.long	0xa7c3
	.byte	0
	.uleb128 0x3c
	.long	0xc1c4
	.long	0xc1f6
	.long	0xc201
	.uleb128 0x3
	.long	0xc1d2
	.uleb128 0x3
	.long	0xc1db
	.byte	0
	.uleb128 0x13
	.long	0x746f
	.byte	0x3
	.long	0xc23d
	.uleb128 0xa
	.long	.LASF61
	.long	0xa6dd
	.uleb128 0xf
	.string	"_Tp"
	.long	0x56
	.uleb128 0x12
	.long	.LASF1332
	.byte	0x8
	.value	0x43a
	.byte	0x1f
	.long	0xa6dd
	.uleb128 0x12
	.long	.LASF1333
	.byte	0x8
	.value	0x43a
	.byte	0x39
	.long	0xa6dd
	.uleb128 0x1
	.long	0xa70a
	.byte	0
	.uleb128 0xb
	.long	0x48b2
	.long	0xc24b
	.byte	0x3
	.long	0xc255
	.uleb128 0x9
	.long	.LASF1334
	.long	0xa75f
	.byte	0
	.uleb128 0xb
	.long	0x540d
	.long	0xc263
	.byte	0x3
	.long	0xc287
	.uleb128 0x9
	.long	.LASF1334
	.long	0xa77d
	.uleb128 0xe
	.string	"__n"
	.byte	0x2
	.value	0x7c3
	.byte	0x24
	.long	0x4c23
	.uleb128 0x12
	.long	.LASF851
	.byte	0x2
	.value	0x7c3
	.byte	0x3b
	.long	0xa787
	.byte	0
	.uleb128 0xb
	.long	0x4a18
	.long	0xc295
	.byte	0x2
	.long	0xc2ae
	.uleb128 0x9
	.long	.LASF1334
	.long	0xa75f
	.uleb128 0x43
	.uleb128 0x5c
	.string	"__n"
	.byte	0x2
	.value	0x177
	.byte	0xc
	.long	0x636
	.byte	0
	.byte	0
	.uleb128 0x1b
	.long	0xc287
	.long	.LASF1373
	.long	0xc2bf
	.long	0xc2d0
	.uleb128 0x3
	.long	0xc295
	.uleb128 0x74
	.long	0xc29e
	.uleb128 0x3a
	.long	0xc29f
	.byte	0
	.byte	0
	.uleb128 0xb
	.long	0x4973
	.long	0xc2de
	.byte	0x2
	.long	0xc302
	.uleb128 0x9
	.long	.LASF1334
	.long	0xa75f
	.uleb128 0xe
	.string	"__n"
	.byte	0x2
	.value	0x153
	.byte	0x1b
	.long	0x2c3
	.uleb128 0xe
	.string	"__a"
	.byte	0x2
	.value	0x153
	.byte	0x36
	.long	0xa769
	.byte	0
	.uleb128 0x1b
	.long	0xc2d0
	.long	.LASF1374
	.long	0xc313
	.long	0xc323
	.uleb128 0x3
	.long	0xc2de
	.uleb128 0x3
	.long	0xc2e7
	.uleb128 0x3
	.long	0xc2f4
	.byte	0
	.uleb128 0x61
	.long	0x488d
	.byte	0x2
	.byte	0x8b
	.byte	0xe
	.long	0xc333
	.long	0xc33d
	.uleb128 0x9
	.long	.LASF1334
	.long	0xa741
	.byte	0
	.uleb128 0x1b
	.long	0xc323
	.long	.LASF1375
	.long	0xc34e
	.long	0xc354
	.uleb128 0x3
	.long	0xc333
	.byte	0
	.uleb128 0x13
	.long	0x558a
	.byte	0x3
	.long	0xc379
	.uleb128 0xe
	.string	"__n"
	.byte	0x2
	.value	0x89b
	.byte	0x23
	.long	0x4c23
	.uleb128 0xe
	.string	"__a"
	.byte	0x2
	.value	0x89b
	.byte	0x3e
	.long	0xa782
	.byte	0
	.uleb128 0xb
	.long	0x4457
	.long	0xc387
	.byte	0x2
	.long	0xc391
	.uleb128 0x9
	.long	.LASF1334
	.long	0xa6ce
	.byte	0
	.uleb128 0x1b
	.long	0xc379
	.long	.LASF1376
	.long	0xc3a2
	.long	0xc3a8
	.uleb128 0x3
	.long	0xc387
	.byte	0
	.uleb128 0xb
	.long	0x43f9
	.long	0xc3b6
	.byte	0x2
	.long	0xc3c0
	.uleb128 0x9
	.long	.LASF1334
	.long	0xa6ce
	.byte	0
	.uleb128 0x1b
	.long	0xc3a8
	.long	.LASF1377
	.long	0xc3d1
	.long	0xc3d7
	.uleb128 0x3
	.long	0xc3b6
	.byte	0
	.uleb128 0xb
	.long	0x434e
	.long	0xc3f4
	.byte	0x1
	.long	0xc46f
	.uleb128 0x55
	.long	.LASF433
	.long	0xc3f4
	.uleb128 0x56
	.long	0xa5e8
	.byte	0
	.uleb128 0x9
	.long	.LASF1334
	.long	0xa674
	.uleb128 0xcd
	.long	.LASF1359
	.byte	0x7
	.value	0x236
	.byte	0x20
	.long	0xc411
	.uleb128 0x1
	.long	0xa5e8
	.byte	0
	.uleb128 0x25
	.long	.LASF1338
	.byte	0x7
	.value	0x23e
	.byte	0x17
	.long	0x396b
	.uleb128 0x25
	.long	.LASF1378
	.byte	0x7
	.value	0x241
	.byte	0xf
	.long	0x38b6
	.uleb128 0x25
	.long	.LASF1379
	.byte	0x7
	.value	0x242
	.byte	0xf
	.long	0x38b6
	.uleb128 0x25
	.long	.LASF1380
	.byte	0x7
	.value	0x243
	.byte	0x17
	.long	0x396b
	.uleb128 0x25
	.long	.LASF1381
	.byte	0x7
	.value	0x244
	.byte	0xf
	.long	0x38b6
	.uleb128 0x25
	.long	.LASF1382
	.byte	0x7
	.value	0x245
	.byte	0xf
	.long	0x38b6
	.uleb128 0x43
	.uleb128 0x25
	.long	.LASF1339
	.byte	0x7
	.value	0x248
	.byte	0xf
	.long	0x42a4
	.byte	0
	.byte	0
	.uleb128 0x13
	.long	0x349b
	.byte	0x3
	.long	0xc4bc
	.uleb128 0xf
	.string	"_Up"
	.long	0xa446
	.uleb128 0x55
	.long	.LASF433
	.long	0xc491
	.uleb128 0x56
	.long	0xa5e8
	.byte	0
	.uleb128 0xe
	.string	"__a"
	.byte	0x8
	.value	0x2c1
	.byte	0x1c
	.long	0xa601
	.uleb128 0xe
	.string	"__p"
	.byte	0x8
	.value	0x2c2
	.byte	0xa
	.long	0xa5ca
	.uleb128 0xce
	.long	.LASF1359
	.byte	0x8
	.value	0x2c2
	.byte	0x16
	.uleb128 0x1
	.long	0xa5e8
	.byte	0
	.byte	0
	.uleb128 0xb
	.long	0x1d9a
	.long	0xc4d3
	.byte	0x3
	.long	0xc4ea
	.uleb128 0xf
	.string	"_Up"
	.long	0x37
	.uleb128 0x9
	.long	.LASF1334
	.long	0xa0c3
	.uleb128 0x12
	.long	.LASF1357
	.byte	0x2
	.value	0x8ee
	.byte	0x13
	.long	0x9ff6
	.byte	0
	.uleb128 0xb
	.long	0x860e
	.long	0xc4f8
	.byte	0x2
	.long	0xc50f
	.uleb128 0x9
	.long	.LASF1334
	.long	0xa6b0
	.uleb128 0xe
	.string	"__i"
	.byte	0x3
	.value	0x422
	.byte	0x2a
	.long	0xa6b5
	.byte	0
	.uleb128 0x1b
	.long	0xc4ea
	.long	.LASF1383
	.long	0xc520
	.long	0xc52b
	.uleb128 0x3
	.long	0xc4f8
	.uleb128 0x3
	.long	0xc501
	.byte	0
	.uleb128 0x13
	.long	0x74a2
	.byte	0x3
	.long	0xc585
	.uleb128 0xa
	.long	.LASF827
	.long	0xa5ca
	.uleb128 0xa
	.long	.LASF61
	.long	0xa5ca
	.uleb128 0xa
	.long	.LASF828
	.long	0x3335
	.uleb128 0x12
	.long	.LASF1332
	.byte	0xc
	.value	0x57c
	.byte	0x21
	.long	0xa5ca
	.uleb128 0x12
	.long	.LASF1333
	.byte	0xc
	.value	0x57c
	.byte	0x39
	.long	0xa5ca
	.uleb128 0x12
	.long	.LASF1360
	.byte	0xc
	.value	0x57d
	.byte	0x15
	.long	0xa5ca
	.uleb128 0x12
	.long	.LASF1361
	.byte	0xc
	.value	0x57d
	.byte	0x2b
	.long	0xa5fc
	.byte	0
	.uleb128 0xb
	.long	0x379a
	.long	0xc593
	.byte	0x3
	.long	0xc5aa
	.uleb128 0x9
	.long	.LASF1334
	.long	0xa651
	.uleb128 0xe
	.string	"__n"
	.byte	0x2
	.value	0x182
	.byte	0x1a
	.long	0x2c3
	.byte	0
	.uleb128 0xb
	.long	0x3cc8
	.long	0xc5b8
	.byte	0x3
	.long	0xc5cf
	.uleb128 0x9
	.long	.LASF1334
	.long	0xa69c
	.uleb128 0x25
	.long	.LASF1364
	.byte	0x2
	.value	0x455
	.byte	0xc
	.long	0x636
	.byte	0
	.uleb128 0xb
	.long	0x3d57
	.long	0xc5dd
	.byte	0x3
	.long	0xc5f4
	.uleb128 0x9
	.long	.LASF1334
	.long	0xa69c
	.uleb128 0x25
	.long	.LASF1364
	.byte	0x2
	.value	0x4b0
	.byte	0xc
	.long	0x636
	.byte	0
	.uleb128 0xb
	.long	0x3ce4
	.long	0xc602
	.byte	0x3
	.long	0xc60c
	.uleb128 0x9
	.long	.LASF1334
	.long	0xa69c
	.byte	0
	.uleb128 0x13
	.long	0x74e3
	.byte	0x3
	.long	0xc648
	.uleb128 0xa
	.long	.LASF61
	.long	0xa5ca
	.uleb128 0xf
	.string	"_Tp"
	.long	0xa446
	.uleb128 0x12
	.long	.LASF1332
	.byte	0x8
	.value	0x43a
	.byte	0x1f
	.long	0xa5ca
	.uleb128 0x12
	.long	.LASF1333
	.byte	0x8
	.value	0x43a
	.byte	0x39
	.long	0xa5ca
	.uleb128 0x1
	.long	0xa5fc
	.byte	0
	.uleb128 0xb
	.long	0x3635
	.long	0xc656
	.byte	0x3
	.long	0xc660
	.uleb128 0x9
	.long	.LASF1334
	.long	0xa651
	.byte	0
	.uleb128 0xb
	.long	0x37b9
	.long	0xc66e
	.byte	0x3
	.long	0xc692
	.uleb128 0x9
	.long	.LASF1334
	.long	0xa651
	.uleb128 0xe
	.string	"__p"
	.byte	0x2
	.value	0x18a
	.byte	0x1d
	.long	0x3573
	.uleb128 0xe
	.string	"__n"
	.byte	0x2
	.value	0x18a
	.byte	0x29
	.long	0x2c3
	.byte	0
	.uleb128 0xb
	.long	0x31e1
	.long	0xc6a0
	.byte	0x2
	.long	0xc6aa
	.uleb128 0x9
	.long	.LASF1334
	.long	0xa5bb
	.byte	0
	.uleb128 0x3c
	.long	0xc692
	.long	0xc6b7
	.long	0xc6bd
	.uleb128 0x3
	.long	0xc6a0
	.byte	0
	.uleb128 0xb
	.long	0x350f
	.long	0xc6cb
	.byte	0x2
	.long	0xc6d5
	.uleb128 0x9
	.long	.LASF1334
	.long	0xa61a
	.byte	0
	.uleb128 0x3c
	.long	0xc6bd
	.long	0xc6e2
	.long	0xc6e8
	.uleb128 0x3
	.long	0xc6cb
	.byte	0
	.uleb128 0xb
	.long	0x3347
	.long	0xc6f6
	.byte	0x2
	.long	0xc700
	.uleb128 0x9
	.long	.LASF1334
	.long	0xa5f2
	.byte	0
	.uleb128 0x3c
	.long	0xc6e8
	.long	0xc70d
	.long	0xc713
	.uleb128 0x3
	.long	0xc6f6
	.byte	0
	.uleb128 0xb
	.long	0x1b79
	.long	0xc721
	.byte	0x1
	.long	0xc775
	.uleb128 0x9
	.long	.LASF1334
	.long	0xa09b
	.uleb128 0xe
	.string	"__n"
	.byte	0x7
	.value	0x113
	.byte	0x1b
	.long	0x2c3
	.uleb128 0x12
	.long	.LASF1337
	.byte	0x7
	.value	0x113
	.byte	0x32
	.long	0xa0a5
	.uleb128 0x25
	.long	.LASF1384
	.byte	0x7
	.value	0x115
	.byte	0x17
	.long	0x1350
	.uleb128 0xcf
	.long	0xc765
	.uleb128 0x25
	.long	.LASF1362
	.byte	0x7
	.value	0x11a
	.byte	0xb
	.long	0x1200
	.byte	0
	.uleb128 0x43
	.uleb128 0x25
	.long	.LASF1385
	.byte	0x7
	.value	0x120
	.byte	0x14
	.long	0x1350
	.byte	0
	.byte	0
	.uleb128 0x13
	.long	0x7512
	.byte	0x3
	.long	0xc7b1
	.uleb128 0xa
	.long	.LASF61
	.long	0x9ff6
	.uleb128 0xf
	.string	"_Tp"
	.long	0x37
	.uleb128 0x12
	.long	.LASF1332
	.byte	0x8
	.value	0x43a
	.byte	0x1f
	.long	0x9ff6
	.uleb128 0x12
	.long	.LASF1333
	.byte	0x8
	.value	0x43a
	.byte	0x39
	.long	0x9ff6
	.uleb128 0x1
	.long	0xa028
	.byte	0
	.uleb128 0xb
	.long	0xfd2
	.long	0xc7bf
	.byte	0x3
	.long	0xc7c9
	.uleb128 0x9
	.long	.LASF1334
	.long	0xa07d
	.byte	0
	.uleb128 0xb
	.long	0x1181
	.long	0xc7d7
	.byte	0x3
	.long	0xc7fb
	.uleb128 0x9
	.long	.LASF1334
	.long	0xa07d
	.uleb128 0xe
	.string	"__p"
	.byte	0x2
	.value	0x18a
	.byte	0x1d
	.long	0xeef
	.uleb128 0xe
	.string	"__n"
	.byte	0x2
	.value	0x18a
	.byte	0x29
	.long	0x2c3
	.byte	0
	.uleb128 0xb
	.long	0xb77
	.long	0xc809
	.byte	0x2
	.long	0xc813
	.uleb128 0x9
	.long	.LASF1334
	.long	0x9fe7
	.byte	0
	.uleb128 0x1b
	.long	0xc7fb
	.long	.LASF1386
	.long	0xc824
	.long	0xc82a
	.uleb128 0x3
	.long	0xc809
	.byte	0
	.uleb128 0xb
	.long	0xe78
	.long	0xc838
	.byte	0x2
	.long	0xc842
	.uleb128 0x9
	.long	.LASF1334
	.long	0xa046
	.byte	0
	.uleb128 0x1b
	.long	0xc82a
	.long	.LASF1387
	.long	0xc853
	.long	0xc859
	.uleb128 0x3
	.long	0xc838
	.byte	0
	.uleb128 0xb
	.long	0xcc2
	.long	0xc867
	.byte	0x2
	.long	0xc871
	.uleb128 0x9
	.long	.LASF1334
	.long	0xa01e
	.byte	0
	.uleb128 0x1b
	.long	0xc859
	.long	.LASF1388
	.long	0xc882
	.long	0xc888
	.uleb128 0x3
	.long	0xc867
	.byte	0
	.uleb128 0xb
	.long	0x1712
	.long	0xc896
	.byte	0x3
	.long	0xc8ad
	.uleb128 0x9
	.long	.LASF1334
	.long	0xa0c3
	.uleb128 0x25
	.long	.LASF1364
	.byte	0x2
	.value	0x455
	.byte	0xc
	.long	0x636
	.byte	0
	.uleb128 0xb
	.long	0x661f
	.long	0xc8bb
	.byte	0x3
	.long	0xc8c5
	.uleb128 0x9
	.long	.LASF1334
	.long	0xa890
	.byte	0
	.uleb128 0x13
	.long	0x7545
	.byte	0x3
	.long	0xc909
	.uleb128 0xa
	.long	.LASF61
	.long	0x8f5f
	.uleb128 0xf
	.string	"_Tp"
	.long	0x30
	.uleb128 0x12
	.long	.LASF1332
	.byte	0xa
	.value	0x3e9
	.byte	0x1b
	.long	0x8f5f
	.uleb128 0x12
	.long	.LASF1333
	.byte	0xa
	.value	0x3e9
	.byte	0x35
	.long	0x8f5f
	.uleb128 0x12
	.long	.LASF851
	.byte	0xa
	.value	0x3e9
	.byte	0x48
	.long	0xa809
	.byte	0
	.uleb128 0xb
	.long	0x90eb
	.long	0xc917
	.byte	0x3
	.long	0xc92e
	.uleb128 0x9
	.long	.LASF1334
	.long	0xa8e5
	.uleb128 0xe
	.string	"__n"
	.byte	0x3
	.value	0x47b
	.byte	0x21
	.long	0x90b9
	.byte	0
	.uleb128 0xb
	.long	0x6234
	.long	0xc93c
	.byte	0x3
	.long	0xc946
	.uleb128 0x9
	.long	.LASF1334
	.long	0xa890
	.byte	0
	.uleb128 0xb
	.long	0x6156
	.long	0xc954
	.byte	0x2
	.long	0xc95e
	.uleb128 0x9
	.long	.LASF1334
	.long	0xa890
	.byte	0
	.uleb128 0x1b
	.long	0xc946
	.long	.LASF1389
	.long	0xc96f
	.long	0xc975
	.uleb128 0x3
	.long	0xc954
	.byte	0
	.uleb128 0xb
	.long	0x5fe7
	.long	0xc983
	.byte	0x2
	.long	0xc9a7
	.uleb128 0x9
	.long	.LASF1334
	.long	0xa890
	.uleb128 0xe
	.string	"__n"
	.byte	0x2
	.value	0x240
	.byte	0x18
	.long	0x600b
	.uleb128 0xe
	.string	"__a"
	.byte	0x2
	.value	0x240
	.byte	0x33
	.long	0xa895
	.byte	0
	.uleb128 0x1b
	.long	0xc975
	.long	.LASF1390
	.long	0xc9b8
	.long	0xc9c8
	.uleb128 0x3
	.long	0xc983
	.uleb128 0x3
	.long	0xc98c
	.uleb128 0x3
	.long	0xc999
	.byte	0
	.uleb128 0xb
	.long	0x59e8
	.long	0xc9d6
	.byte	0x2
	.long	0xc9e0
	.uleb128 0x9
	.long	.LASF1334
	.long	0xa813
	.byte	0
	.uleb128 0x1b
	.long	0xc9c8
	.long	.LASF1391
	.long	0xc9f1
	.long	0xc9f7
	.uleb128 0x3
	.long	0xc9d6
	.byte	0
	.uleb128 0xb
	.long	0x598a
	.long	0xca05
	.byte	0x2
	.long	0xca0f
	.uleb128 0x9
	.long	.LASF1334
	.long	0xa813
	.byte	0
	.uleb128 0x1b
	.long	0xc9f7
	.long	.LASF1392
	.long	0xca20
	.long	0xca26
	.uleb128 0x3
	.long	0xca05
	.byte	0
	.uleb128 0xb
	.long	0x50fd
	.long	0xca34
	.byte	0x3
	.long	0xca4b
	.uleb128 0x9
	.long	.LASF1334
	.long	0xa77d
	.uleb128 0xe
	.string	"__n"
	.byte	0x2
	.value	0x4e3
	.byte	0x1c
	.long	0x4c23
	.byte	0
	.uleb128 0xb
	.long	0x3b9c
	.long	0xca59
	.byte	0x3
	.long	0xca63
	.uleb128 0x9
	.long	.LASF1334
	.long	0xa674
	.byte	0
	.uleb128 0xb
	.long	0x3b57
	.long	0xca71
	.byte	0x3
	.long	0xca7b
	.uleb128 0x9
	.long	.LASF1334
	.long	0xa674
	.byte	0
	.uleb128 0xb
	.long	0x4d6e
	.long	0xca89
	.byte	0x2
	.long	0xca93
	.uleb128 0x9
	.long	.LASF1334
	.long	0xa77d
	.byte	0
	.uleb128 0x1b
	.long	0xca7b
	.long	.LASF1393
	.long	0xcaa4
	.long	0xcaaa
	.uleb128 0x3
	.long	0xca89
	.byte	0
	.uleb128 0xb
	.long	0x4c30
	.long	0xcab8
	.byte	0x2
	.long	0xcae9
	.uleb128 0x9
	.long	.LASF1334
	.long	0xa77d
	.uleb128 0xe
	.string	"__n"
	.byte	0x2
	.value	0x24d
	.byte	0x18
	.long	0x4c23
	.uleb128 0x12
	.long	.LASF851
	.byte	0x2
	.value	0x24d
	.byte	0x2f
	.long	0xa787
	.uleb128 0xe
	.string	"__a"
	.byte	0x2
	.value	0x24e
	.byte	0x1d
	.long	0xa782
	.byte	0
	.uleb128 0x1b
	.long	0xcaaa
	.long	.LASF1394
	.long	0xcafa
	.long	0xcb0f
	.uleb128 0x3
	.long	0xcab8
	.uleb128 0x3
	.long	0xcac1
	.uleb128 0x3
	.long	0xcace
	.uleb128 0x3
	.long	0xcadb
	.byte	0
	.uleb128 0xb
	.long	0x4600
	.long	0xcb1d
	.byte	0x2
	.long	0xcb27
	.uleb128 0x9
	.long	.LASF1334
	.long	0xa700
	.byte	0
	.uleb128 0x1b
	.long	0xcb0f
	.long	.LASF1395
	.long	0xcb38
	.long	0xcb3e
	.uleb128 0x3
	.long	0xcb1d
	.byte	0
	.uleb128 0xb
	.long	0x45a2
	.long	0xcb4c
	.byte	0x2
	.long	0xcb56
	.uleb128 0x9
	.long	.LASF1334
	.long	0xa700
	.byte	0
	.uleb128 0x1b
	.long	0xcb3e
	.long	.LASF1396
	.long	0xcb67
	.long	0xcb6d
	.uleb128 0x3
	.long	0xcb4c
	.byte	0
	.uleb128 0xb
	.long	0x3f05
	.long	0xcb7b
	.byte	0x3
	.long	0xcb92
	.uleb128 0x9
	.long	.LASF1334
	.long	0xa674
	.uleb128 0xe
	.string	"__x"
	.byte	0x2
	.value	0x57e
	.byte	0x23
	.long	0xa67e
	.byte	0
	.uleb128 0xb
	.long	0x195c
	.long	0xcba0
	.byte	0x3
	.long	0xcbaa
	.uleb128 0x9
	.long	.LASF1334
	.long	0xa09b
	.byte	0
	.uleb128 0xb
	.long	0x2970
	.long	0xcbb8
	.byte	0x3
	.long	0xcbc2
	.uleb128 0x9
	.long	.LASF1334
	.long	0xa57f
	.byte	0
	.uleb128 0xb
	.long	0x2923
	.long	0xcbd0
	.byte	0x3
	.long	0xcbda
	.uleb128 0x9
	.long	.LASF1334
	.long	0xa57f
	.byte	0
	.uleb128 0xb
	.long	0x3d8f
	.long	0xcbe8
	.byte	0x1
	.long	0xcc18
	.uleb128 0x9
	.long	.LASF1334
	.long	0xa674
	.uleb128 0x26
	.string	"__n"
	.byte	0x7
	.byte	0x47
	.byte	0x17
	.long	0x395e
	.uleb128 0x43
	.uleb128 0x31
	.long	.LASF1397
	.byte	0x7
	.byte	0x4d
	.byte	0x14
	.long	0x396b
	.uleb128 0x31
	.long	.LASF1362
	.byte	0x7
	.byte	0x4e
	.byte	0xc
	.long	0x38b6
	.byte	0
	.byte	0
	.uleb128 0xb
	.long	0x2ac4
	.long	0xcc26
	.byte	0x3
	.long	0xcc3d
	.uleb128 0x9
	.long	.LASF1334
	.long	0xa5a7
	.uleb128 0x25
	.long	.LASF1364
	.byte	0x2
	.value	0x455
	.byte	0xc
	.long	0x636
	.byte	0
	.uleb128 0xb
	.long	0x3a91
	.long	0xcc4b
	.byte	0x2
	.long	0xcc55
	.uleb128 0x9
	.long	.LASF1334
	.long	0xa674
	.byte	0
	.uleb128 0x3c
	.long	0xcc3d
	.long	0xcc62
	.long	0xcc68
	.uleb128 0x3
	.long	0xcc4b
	.byte	0
	.uleb128 0xb
	.long	0x3777
	.long	0xcc76
	.byte	0x2
	.long	0xcc8f
	.uleb128 0x9
	.long	.LASF1334
	.long	0xa651
	.uleb128 0x43
	.uleb128 0x5c
	.string	"__n"
	.byte	0x2
	.value	0x177
	.byte	0xc
	.long	0x636
	.byte	0
	.byte	0
	.uleb128 0x3c
	.long	0xcc68
	.long	0xcc9c
	.long	0xccad
	.uleb128 0x3
	.long	0xcc76
	.uleb128 0x74
	.long	0xcc7f
	.uleb128 0x3a
	.long	0xcc80
	.byte	0
	.byte	0
	.uleb128 0xb
	.long	0x3398
	.long	0xccbb
	.byte	0x2
	.long	0xccc5
	.uleb128 0x9
	.long	.LASF1334
	.long	0xa5f2
	.byte	0
	.uleb128 0x3c
	.long	0xccad
	.long	0xccd2
	.long	0xccd8
	.uleb128 0x3
	.long	0xccbb
	.byte	0
	.uleb128 0xb
	.long	0x3596
	.long	0xcce6
	.byte	0x2
	.long	0xccf0
	.uleb128 0x9
	.long	.LASF1334
	.long	0xa633
	.byte	0
	.uleb128 0x3c
	.long	0xccd8
	.long	0xccfd
	.long	0xcd03
	.uleb128 0x3
	.long	0xcce6
	.byte	0
	.uleb128 0xb
	.long	0x151d
	.long	0xcd11
	.byte	0x3
	.long	0xcd35
	.uleb128 0x9
	.long	.LASF1334
	.long	0xa09b
	.uleb128 0xe
	.string	"__n"
	.byte	0x2
	.value	0x361
	.byte	0x18
	.long	0x1343
	.uleb128 0x12
	.long	.LASF1337
	.byte	0x2
	.value	0x361
	.byte	0x2f
	.long	0xa0a5
	.byte	0
	.uleb128 0xb
	.long	0x1493
	.long	0xcd43
	.byte	0x2
	.long	0xcd4d
	.uleb128 0x9
	.long	.LASF1334
	.long	0xa09b
	.byte	0
	.uleb128 0x1b
	.long	0xcd35
	.long	.LASF1398
	.long	0xcd5e
	.long	0xcd64
	.uleb128 0x3
	.long	0xcd43
	.byte	0
	.uleb128 0xb
	.long	0x1138
	.long	0xcd72
	.byte	0x2
	.long	0xcd8b
	.uleb128 0x9
	.long	.LASF1334
	.long	0xa07d
	.uleb128 0x43
	.uleb128 0x5c
	.string	"__n"
	.byte	0x2
	.value	0x177
	.byte	0xc
	.long	0x636
	.byte	0
	.byte	0
	.uleb128 0x1b
	.long	0xcd64
	.long	.LASF1399
	.long	0xcd9c
	.long	0xcdad
	.uleb128 0x3
	.long	0xcd72
	.uleb128 0x74
	.long	0xcd7b
	.uleb128 0x3a
	.long	0xcd7c
	.byte	0
	.byte	0
	.uleb128 0xb
	.long	0xd20
	.long	0xcdbb
	.byte	0x2
	.long	0xcdc5
	.uleb128 0x9
	.long	.LASF1334
	.long	0xa01e
	.byte	0
	.uleb128 0x1b
	.long	0xcdad
	.long	.LASF1400
	.long	0xcdd6
	.long	0xcddc
	.uleb128 0x3
	.long	0xcdbb
	.byte	0
	.uleb128 0xb
	.long	0xf12
	.long	0xcdea
	.byte	0x2
	.long	0xcdf4
	.uleb128 0x9
	.long	.LASF1334
	.long	0xa05f
	.byte	0
	.uleb128 0x1b
	.long	0xcddc
	.long	.LASF1401
	.long	0xce05
	.long	0xce0b
	.uleb128 0x3
	.long	0xcdea
	.byte	0
	.uleb128 0xb
	.long	0x2c8e
	.long	0xce19
	.byte	0x3
	.long	0xce23
	.uleb128 0x9
	.long	.LASF1334
	.long	0xa57f
	.byte	0
	.uleb128 0xd0
	.long	.LASF1402
	.byte	0x1
	.byte	0x22
	.byte	0xb
	.long	.LASF1403
	.long	0xa0d2
	.long	.LLRL0
	.uleb128 0x1
	.byte	0x9c
	.long	0x1147b
	.uleb128 0x9a
	.long	.LASF1404
	.byte	0x40
	.long	0xa59d
	.long	.LLST1
	.long	.LVUS1
	.uleb128 0x9a
	.long	.LASF1405
	.byte	0x54
	.long	0x30
	.long	.LLST2
	.long	.LVUS2
	.uleb128 0x31
	.long	.LASF1297
	.byte	0x1
	.byte	0x23
	.byte	0x12
	.long	0x7609
	.uleb128 0x31
	.long	.LASF1298
	.byte	0x1
	.byte	0x24
	.byte	0x12
	.long	0x7609
	.uleb128 0x75
	.string	"w"
	.byte	0x25
	.byte	0xf
	.long	0x5e
	.uleb128 0x75
	.string	"h"
	.byte	0x26
	.byte	0xf
	.long	0x5e
	.uleb128 0x38
	.long	.LASF1406
	.byte	0x28
	.byte	0xf
	.long	0xa0d2
	.long	.LLST3
	.long	.LVUS3
	.uleb128 0x38
	.long	.LASF1407
	.byte	0x2e
	.byte	0x1c
	.long	0x3831
	.long	.LLST4
	.long	.LVUS4
	.uleb128 0x31
	.long	.LASF1408
	.byte	0x1
	.byte	0x46
	.byte	0x16
	.long	0x4ae0
	.uleb128 0x31
	.long	.LASF1409
	.byte	0x1
	.byte	0x47
	.byte	0x16
	.long	0x4ae0
	.uleb128 0x38
	.long	.LASF1410
	.byte	0x5a
	.byte	0xf
	.long	0x5e
	.long	.LLST5
	.long	.LVUS5
	.uleb128 0x38
	.long	.LASF1411
	.byte	0x5b
	.byte	0xf
	.long	0x5e
	.long	.LLST6
	.long	.LVUS6
	.uleb128 0x31
	.long	.LASF1412
	.byte	0x1
	.byte	0x5e
	.byte	0x18
	.long	0x5ec8
	.uleb128 0x4b
	.long	.LLRL112
	.long	0xd700
	.uleb128 0x2a
	.string	"sub"
	.byte	0x30
	.byte	0x10
	.long	0xa4fd
	.long	.LLST113
	.long	.LVUS113
	.uleb128 0x9b
	.long	.LASF1413
	.long	0xa59d
	.long	.LLST114
	.long	.LVUS114
	.uleb128 0x5d
	.long	.LASF1414
	.long	0x2916
	.uleb128 0x5d
	.long	.LASF1415
	.long	0x2916
	.uleb128 0x4b
	.long	.LLRL121
	.long	0xd62a
	.uleb128 0x2a
	.string	"p"
	.byte	0x31
	.byte	0x13
	.long	0xa446
	.long	.LLST122
	.long	.LVUS122
	.uleb128 0x38
	.long	.LASF1416
	.byte	0x32
	.byte	0xf
	.long	0x30
	.long	.LLST123
	.long	.LVUS123
	.uleb128 0x38
	.long	.LASF1417
	.byte	0x33
	.byte	0xf
	.long	0x30
	.long	.LLST124
	.long	.LVUS124
	.uleb128 0x2a
	.string	"dx"
	.byte	0x36
	.byte	0xf
	.long	0x30
	.long	.LLST125
	.long	.LVUS125
	.uleb128 0x2a
	.string	"dy"
	.byte	0x37
	.byte	0xf
	.long	0x30
	.long	.LLST126
	.long	.LVUS126
	.uleb128 0x2b
	.long	0x118a3
	.quad	.LBI2274
	.value	.LVU93
	.quad	.LBB2274
	.quad	.LBE2274-.LBB2274
	.byte	0x1
	.byte	0x34
	.byte	0x2b
	.long	0xcfd6
	.uleb128 0x4
	.long	0x118ad
	.long	.LLST127
	.long	.LVUS127
	.byte	0
	.uleb128 0x2b
	.long	0x118a3
	.quad	.LBI2276
	.value	.LVU99
	.quad	.LBB2276
	.quad	.LBE2276-.LBB2276
	.byte	0x1
	.byte	0x35
	.byte	0x2b
	.long	0xd00a
	.uleb128 0x4
	.long	0x118ad
	.long	.LLST128
	.long	.LVUS128
	.byte	0
	.uleb128 0x2b
	.long	0x114d7
	.quad	.LBI2278
	.value	.LVU111
	.quad	.LBB2278
	.quad	.LBE2278-.LBB2278
	.byte	0x1
	.byte	0x3c
	.byte	0x1d
	.long	0xd03b
	.uleb128 0x3
	.long	0x114ea
	.uleb128 0x3
	.long	0x114f7
	.byte	0
	.uleb128 0x30
	.long	0x114ab
	.quad	.LBI2279
	.value	.LVU114
	.long	.LLRL129
	.byte	0x1
	.byte	0x3d
	.byte	0x1d
	.long	0xd068
	.uleb128 0x4
	.long	0x114be
	.long	.LLST130
	.long	.LVUS130
	.uleb128 0x3
	.long	0x114ca
	.byte	0
	.uleb128 0x2b
	.long	0x114d7
	.quad	.LBI2282
	.value	.LVU120
	.quad	.LBB2282
	.quad	.LBE2282-.LBB2282
	.byte	0x1
	.byte	0x3e
	.byte	0x1d
	.long	0xd099
	.uleb128 0x3
	.long	0x114ea
	.uleb128 0x3
	.long	0x114f7
	.byte	0
	.uleb128 0x30
	.long	0x114ab
	.quad	.LBI2283
	.value	.LVU123
	.long	.LLRL131
	.byte	0x1
	.byte	0x3f
	.byte	0x1d
	.long	0xd0c6
	.uleb128 0x4
	.long	0x114be
	.long	.LLST132
	.long	.LVUS132
	.uleb128 0x3
	.long	0x114ca
	.byte	0
	.uleb128 0x30
	.long	0xcb92
	.quad	.LBI2286
	.value	.LVU129
	.long	.LLRL133
	.byte	0x1
	.byte	0x40
	.byte	0x23
	.long	0xd0ee
	.uleb128 0x4
	.long	0xcba0
	.long	.LLST134
	.long	.LVUS134
	.byte	0
	.uleb128 0x68
	.long	0xcb6d
	.quad	.LBI2288
	.value	.LVU147
	.long	.LLRL135
	.byte	0x1
	.byte	0x42
	.byte	0x19
	.uleb128 0x4
	.long	0xcb7b
	.long	.LLST136
	.long	.LVUS136
	.uleb128 0x4
	.long	0xcb84
	.long	.LLST137
	.long	.LVUS137
	.uleb128 0x3d
	.long	0xc46f
	.quad	.LBI2290
	.value	.LVU149
	.long	.LLRL138
	.byte	0x2
	.value	0x583
	.byte	0x1e
	.long	0xd190
	.uleb128 0x4
	.long	0xc491
	.long	.LLST139
	.long	.LVUS139
	.uleb128 0x3
	.long	0xc49e
	.uleb128 0x4
	.long	0xc4b5
	.long	.LLST140
	.long	.LVUS140
	.uleb128 0x17
	.long	0xba83
	.quad	.LBI2291
	.value	.LVU150
	.long	.LLRL138
	.byte	0x8
	.value	0x2ca
	.byte	0x11
	.uleb128 0x4
	.long	0xbaa9
	.long	.LLST141
	.long	.LVUS141
	.uleb128 0x3
	.long	0xbab2
	.uleb128 0x4
	.long	0xbac7
	.long	.LLST142
	.long	.LVUS142
	.byte	0
	.byte	0
	.uleb128 0x17
	.long	0xc3d7
	.quad	.LBI2296
	.value	.LVU1213
	.long	.LLRL143
	.byte	0x2
	.value	0x589
	.byte	0x15
	.uleb128 0x4
	.long	0xc3f4
	.long	.LLST144
	.long	.LVUS144
	.uleb128 0x4
	.long	0xc40b
	.long	.LLST145
	.long	.LVUS145
	.uleb128 0x3a
	.long	0xc411
	.uleb128 0x2e
	.long	0xc41e
	.long	.LLST146
	.long	.LVUS146
	.uleb128 0x2e
	.long	0xc42b
	.long	.LLST147
	.long	.LVUS147
	.uleb128 0x2e
	.long	0xc438
	.long	.LLST148
	.long	.LVUS148
	.uleb128 0x2e
	.long	0xc445
	.long	.LLST149
	.long	.LVUS149
	.uleb128 0x2e
	.long	0xc452
	.long	.LLST150
	.long	.LVUS150
	.uleb128 0x3d
	.long	0xba44
	.quad	.LBI2298
	.value	.LVU1214
	.long	.LLRL151
	.byte	0x7
	.value	0x23e
	.byte	0x2b
	.long	0xd2db
	.uleb128 0x4
	.long	0xba52
	.long	.LLST152
	.long	.LVUS152
	.uleb128 0x4
	.long	0xba5b
	.long	.LLST153
	.long	.LVUS153
	.uleb128 0x4
	.long	0xba68
	.long	.LLST154
	.long	.LVUS154
	.uleb128 0x3a
	.long	0xba75
	.uleb128 0x76
	.long	0xc5aa
	.quad	.LBI2300
	.value	.LVU1215
	.quad	.LBB2300
	.quad	.LBE2300-.LBB2300
	.value	0x892
	.byte	0x17
	.byte	0x1
	.long	0xd290
	.uleb128 0x4
	.long	0xc5b8
	.long	.LLST155
	.long	.LVUS155
	.uleb128 0x2e
	.long	0xc5c1
	.long	.LLST156
	.long	.LVUS156
	.byte	0
	.uleb128 0x58
	.long	0xb304
	.quad	.LBI2302
	.value	.LVU1224
	.long	.LLRL157
	.byte	0x2
	.value	0x895
	.byte	0x2d
	.byte	0x2
	.long	0xd2bf
	.uleb128 0x3
	.long	0xb317
	.uleb128 0x4
	.long	0xb324
	.long	.LLST158
	.long	.LVUS158
	.byte	0
	.uleb128 0x2f
	.quad	.LVL252
	.long	0x6d92
	.uleb128 0x1f
	.uleb128 0x1
	.byte	0x55
	.uleb128 0x9
	.byte	0x3
	.quad	.LC2
	.byte	0
	.byte	0
	.uleb128 0x3d
	.long	0xc585
	.quad	.LBI2306
	.value	.LVU1226
	.long	.LLRL159
	.byte	0x7
	.value	0x244
	.byte	0x2c
	.long	0xd381
	.uleb128 0x4
	.long	0xc593
	.long	.LLST160
	.long	.LVUS160
	.uleb128 0x3
	.long	0xc59c
	.uleb128 0x62
	.long	0xbb4d
	.quad	.LBI2308
	.value	.LVU1227
	.long	.LLRL161
	.byte	0x2
	.value	0x185
	.byte	0x21
	.byte	0x1
	.uleb128 0x4
	.long	0xbb57
	.long	.LLST162
	.long	.LVUS162
	.uleb128 0x3
	.long	0xbb64
	.uleb128 0x17
	.long	0xb332
	.quad	.LBI2309
	.value	.LVU1228
	.long	.LLRL163
	.byte	0x8
	.value	0x27e
	.byte	0x1c
	.uleb128 0x4
	.long	0xb355
	.long	.LLST164
	.long	.LVUS164
	.uleb128 0x4
	.long	0xb340
	.long	.LLST165
	.long	.LVUS165
	.uleb128 0x3
	.long	0xb349
	.uleb128 0x2f
	.quad	.LVL230
	.long	0xa96f
	.uleb128 0x1f
	.uleb128 0x1
	.byte	0x55
	.uleb128 0x4
	.byte	0x77
	.sleb128 240
	.byte	0x6
	.byte	0
	.byte	0
	.byte	0
	.byte	0
	.uleb128 0x69
	.long	0xc45f
	.long	.LLRL166
	.uleb128 0x3a
	.long	0xc460
	.uleb128 0x58
	.long	0xc46f
	.quad	.LBI2320
	.value	.LVU1239
	.long	.LLRL167
	.byte	0x7
	.value	0x252
	.byte	0x1a
	.byte	0x1
	.long	0xd412
	.uleb128 0x4
	.long	0xc491
	.long	.LLST168
	.long	.LVUS168
	.uleb128 0x4
	.long	0xc49e
	.long	.LLST169
	.long	.LVUS169
	.uleb128 0x4
	.long	0xc4b5
	.long	.LLST170
	.long	.LVUS170
	.uleb128 0x17
	.long	0xba83
	.quad	.LBI2321
	.value	.LVU1240
	.long	.LLRL167
	.byte	0x8
	.value	0x2ca
	.byte	0x11
	.uleb128 0x4
	.long	0xbaa9
	.long	.LLST171
	.long	.LVUS171
	.uleb128 0x4
	.long	0xbab2
	.long	.LLST172
	.long	.LVUS172
	.uleb128 0x4
	.long	0xbac7
	.long	.LLST173
	.long	.LVUS173
	.byte	0
	.byte	0
	.uleb128 0x2d
	.long	0xb9e3
	.quad	.LBI2327
	.value	.LVU1235
	.quad	.LBB2327
	.quad	.LBE2327-.LBB2327
	.byte	0x7
	.value	0x248
	.byte	0xf
	.long	0xd466
	.uleb128 0x4
	.long	0xb9f1
	.long	.LLST174
	.long	.LVUS174
	.uleb128 0x4
	.long	0xb9fa
	.long	.LLST175
	.long	.LVUS175
	.uleb128 0x3
	.long	0xba07
	.uleb128 0x4
	.long	0xba14
	.long	.LLST176
	.long	.LVUS176
	.byte	0
	.uleb128 0x3d
	.long	0xc52b
	.quad	.LBI2329
	.value	.LVU1243
	.long	.LLRL177
	.byte	0x7
	.value	0x25f
	.byte	0x26
	.long	0xd528
	.uleb128 0x4
	.long	0xc550
	.long	.LLST178
	.long	.LVUS178
	.uleb128 0x3
	.long	0xc55d
	.uleb128 0x4
	.long	0xc56a
	.long	.LLST179
	.long	.LVUS179
	.uleb128 0x4
	.long	0xc577
	.long	.LLST180
	.long	.LVUS180
	.uleb128 0x58
	.long	0xbace
	.quad	.LBI2330
	.value	.LVU1244
	.long	.LLRL177
	.byte	0xc
	.value	0x582
	.byte	0x21
	.byte	0x3
	.long	0xd503
	.uleb128 0x4
	.long	0xbaea
	.long	.LLST181
	.long	.LVUS181
	.uleb128 0x3
	.long	0xbaf7
	.uleb128 0x4
	.long	0xbb04
	.long	.LLST182
	.long	.LVUS182
	.uleb128 0x4
	.long	0xbb11
	.long	.LLST183
	.long	.LVUS183
	.uleb128 0x2e
	.long	0xbb1e
	.long	.LLST184
	.long	.LVUS184
	.byte	0
	.uleb128 0x2f
	.quad	.LVL234
	.long	0x11918
	.uleb128 0x1f
	.uleb128 0x1
	.byte	0x55
	.uleb128 0x4
	.byte	0x77
	.sleb128 248
	.byte	0x6
	.uleb128 0x1f
	.uleb128 0x1
	.byte	0x54
	.uleb128 0x2
	.byte	0x7f
	.sleb128 0
	.uleb128 0x1f
	.uleb128 0x1
	.byte	0x51
	.uleb128 0x4
	.byte	0x77
	.sleb128 264
	.byte	0x6
	.byte	0
	.byte	0
	.uleb128 0x17
	.long	0xb9b8
	.quad	.LBI2335
	.value	.LVU1252
	.long	.LLRL185
	.byte	0x7
	.value	0x289
	.byte	0x7
	.uleb128 0x4
	.long	0xb9c6
	.long	.LLST186
	.long	.LVUS186
	.uleb128 0x17
	.long	0xc660
	.quad	.LBI2337
	.value	.LVU1254
	.long	.LLRL187
	.byte	0x2
	.value	0x751
	.byte	0x1b
	.uleb128 0x3
	.long	0xc66e
	.uleb128 0x4
	.long	0xc677
	.long	.LLST188
	.long	.LVUS188
	.uleb128 0x3
	.long	0xc684
	.uleb128 0x17
	.long	0xc660
	.quad	.LBI2339
	.value	.LVU1255
	.long	.LLRL189
	.byte	0x2
	.value	0x18a
	.byte	0x7
	.uleb128 0x3
	.long	0xc66e
	.uleb128 0x4
	.long	0xc677
	.long	.LLST190
	.long	.LVUS190
	.uleb128 0x3
	.long	0xc684
	.uleb128 0x17
	.long	0xbbe8
	.quad	.LBI2341
	.value	.LVU1256
	.long	.LLRL191
	.byte	0x2
	.value	0x18e
	.byte	0x13
	.uleb128 0x3
	.long	0xbbf2
	.uleb128 0x4
	.long	0xbbff
	.long	.LLST192
	.long	.LVUS192
	.uleb128 0x3
	.long	0xbc0c
	.uleb128 0x17
	.long	0xb373
	.quad	.LBI2342
	.value	.LVU1257
	.long	.LLRL193
	.byte	0x8
	.value	0x2b1
	.byte	0x17
	.uleb128 0x3
	.long	0xb381
	.uleb128 0x4
	.long	0xb38a
	.long	.LLST194
	.long	.LVUS194
	.uleb128 0x3
	.long	0xb396
	.uleb128 0x2f
	.quad	.LVL238
	.long	0xa954
	.uleb128 0x1f
	.uleb128 0x1
	.byte	0x55
	.uleb128 0x2
	.byte	0x7f
	.sleb128 0
	.uleb128 0x1f
	.uleb128 0x1
	.byte	0x54
	.uleb128 0x5
	.byte	0x7d
	.sleb128 0
	.byte	0x7f
	.sleb128 0
	.byte	0x1c
	.byte	0
	.byte	0
	.byte	0
	.byte	0
	.byte	0
	.byte	0
	.byte	0
	.byte	0
	.byte	0
	.byte	0
	.uleb128 0x30
	.long	0xcbc2
	.quad	.LBI2267
	.value	.LVU73
	.long	.LLRL115
	.byte	0x1
	.byte	0x30
	.byte	0x16
	.long	0xd67c
	.uleb128 0x4
	.long	0xcbd0
	.long	.LLST116
	.long	.LVUS116
	.uleb128 0x17
	.long	0xc4ea
	.quad	.LBI2268
	.value	.LVU74
	.long	.LLRL115
	.byte	0x2
	.value	0x3dd
	.byte	0x10
	.uleb128 0x3
	.long	0xc4f8
	.uleb128 0x4
	.long	0xc501
	.long	.LLST117
	.long	.LVUS117
	.byte	0
	.byte	0
	.uleb128 0x3e
	.long	0xcbaa
	.quad	.LBI2270
	.value	.LVU76
	.long	.LLRL118
	.byte	0x1
	.byte	0x30
	.byte	0x16
	.byte	0x1
	.long	0xd6cf
	.uleb128 0x4
	.long	0xcbb8
	.long	.LLST119
	.long	.LVUS119
	.uleb128 0x17
	.long	0xc4ea
	.quad	.LBI2271
	.value	.LVU77
	.long	.LLRL118
	.byte	0x2
	.value	0x3f1
	.byte	0x10
	.uleb128 0x3
	.long	0xc4f8
	.uleb128 0x4
	.long	0xc501
	.long	.LLST120
	.long	.LVUS120
	.byte	0
	.byte	0
	.uleb128 0x6a
	.long	0x11493
	.quad	.LBI2375
	.value	.LVU158
	.quad	.LBB2375
	.quad	.LBE2375-.LBB2375
	.byte	0x1
	.byte	0x30
	.byte	0x4
	.uleb128 0x4
	.long	0x114a1
	.long	.LLST195
	.long	.LVUS195
	.byte	0
	.byte	0
	.uleb128 0x9c
	.quad	.LBB2515
	.quad	.LBE2515-.LBB2515
	.long	0xd929
	.uleb128 0x2a
	.string	"p"
	.byte	0x49
	.byte	0x16
	.long	0xa5e8
	.long	.LLST295
	.long	.LVUS295
	.uleb128 0x9b
	.long	.LASF1413
	.long	0xa692
	.long	.LLST296
	.long	.LVUS296
	.uleb128 0x5d
	.long	.LASF1414
	.long	0x3b4a
	.uleb128 0x5d
	.long	.LASF1415
	.long	0x3b4a
	.uleb128 0x2b
	.long	0xca63
	.quad	.LBI2516
	.value	.LVU264
	.quad	.LBB2516
	.quad	.LBE2516-.LBB2516
	.byte	0x1
	.byte	0x49
	.byte	0x1a
	.long	0xd7b5
	.uleb128 0x4
	.long	0xca71
	.long	.LLST297
	.long	.LVUS297
	.uleb128 0x18
	.long	0xc1c4
	.quad	.LBI2517
	.value	.LVU265
	.quad	.LBB2517
	.quad	.LBE2517-.LBB2517
	.byte	0x2
	.value	0x3dd
	.byte	0x10
	.uleb128 0x3
	.long	0xc1d2
	.uleb128 0x4
	.long	0xc1db
	.long	.LLST298
	.long	.LVUS298
	.byte	0
	.byte	0
	.uleb128 0x4c
	.long	0xca4b
	.quad	.LBI2518
	.value	.LVU267
	.quad	.LBB2518
	.quad	.LBE2518-.LBB2518
	.byte	0x49
	.byte	0x1a
	.byte	0x1
	.long	0xd81f
	.uleb128 0x4
	.long	0xca59
	.long	.LLST299
	.long	.LVUS299
	.uleb128 0x18
	.long	0xc1c4
	.quad	.LBI2519
	.value	.LVU268
	.quad	.LBB2519
	.quad	.LBE2519-.LBB2519
	.byte	0x2
	.value	0x3f1
	.byte	0x10
	.uleb128 0x3
	.long	0xc1d2
	.uleb128 0x4
	.long	0xc1db
	.long	.LLST300
	.long	.LVUS300
	.byte	0
	.byte	0
	.uleb128 0x3e
	.long	0x1147b
	.quad	.LBI2520
	.value	.LVU305
	.long	.LLRL301
	.byte	0x1
	.byte	0x49
	.byte	0x1a
	.byte	0x4
	.long	0xd848
	.uleb128 0x4
	.long	0x11489
	.long	.LLST302
	.long	.LVUS302
	.byte	0
	.uleb128 0x2b
	.long	0xca26
	.quad	.LBI2522
	.value	.LVU279
	.quad	.LBB2522
	.quad	.LBE2522-.LBB2522
	.byte	0x1
	.byte	0x4a
	.byte	0x31
	.long	0xd881
	.uleb128 0x3
	.long	0xca34
	.uleb128 0x4
	.long	0xca3d
	.long	.LLST303
	.long	.LVUS303
	.byte	0
	.uleb128 0x2b
	.long	0xca26
	.quad	.LBI2524
	.value	.LVU287
	.quad	.LBB2524
	.quad	.LBE2524-.LBB2524
	.byte	0x1
	.byte	0x4b
	.byte	0x31
	.long	0xd8ba
	.uleb128 0x3
	.long	0xca34
	.uleb128 0x4
	.long	0xca3d
	.long	.LLST304
	.long	.LVUS304
	.byte	0
	.uleb128 0x2b
	.long	0xca26
	.quad	.LBI2526
	.value	.LVU293
	.quad	.LBB2526
	.quad	.LBE2526-.LBB2526
	.byte	0x1
	.byte	0x4c
	.byte	0x31
	.long	0xd8f3
	.uleb128 0x3
	.long	0xca34
	.uleb128 0x4
	.long	0xca3d
	.long	.LLST305
	.long	.LVUS305
	.byte	0
	.uleb128 0x20
	.long	0xca26
	.quad	.LBI2528
	.value	.LVU299
	.quad	.LBB2528
	.quad	.LBE2528-.LBB2528
	.byte	0x1
	.byte	0x4d
	.byte	0x31
	.uleb128 0x3
	.long	0xca34
	.uleb128 0x4
	.long	0xca3d
	.long	.LLST306
	.long	.LVUS306
	.byte	0
	.byte	0
	.uleb128 0x9c
	.quad	.LBB2531
	.quad	.LBE2531-.LBB2531
	.long	0xd981
	.uleb128 0x2a
	.string	"y"
	.byte	0x50
	.byte	0xe
	.long	0x56
	.long	.LLST307
	.long	.LVUS307
	.uleb128 0x44
	.long	.LLRL308
	.uleb128 0x2a
	.string	"row"
	.byte	0x51
	.byte	0xd
	.long	0x56
	.long	.LLST309
	.long	.LVUS309
	.uleb128 0x44
	.long	.LLRL310
	.uleb128 0x2a
	.string	"x"
	.byte	0x52
	.byte	0x12
	.long	0x56
	.long	.LLST311
	.long	.LVUS311
	.byte	0
	.byte	0
	.byte	0
	.uleb128 0x4b
	.long	.LLRL370
	.long	0xe62e
	.uleb128 0x2a
	.string	"ty"
	.byte	0x60
	.byte	0xe
	.long	0x56
	.long	.LLST371
	.long	.LVUS371
	.uleb128 0x44
	.long	.LLRL372
	.uleb128 0x31
	.long	.LASF1418
	.byte	0x1
	.byte	0x61
	.byte	0x13
	.long	0x5e
	.uleb128 0x31
	.long	.LASF1419
	.byte	0x1
	.byte	0x62
	.byte	0x13
	.long	0x5e
	.uleb128 0x4b
	.long	.LLRL373
	.long	0xe603
	.uleb128 0x2a
	.string	"tx"
	.byte	0x64
	.byte	0x12
	.long	0x56
	.long	.LLST374
	.long	.LVUS374
	.uleb128 0x44
	.long	.LLRL375
	.uleb128 0x31
	.long	.LASF1420
	.byte	0x1
	.byte	0x65
	.byte	0x17
	.long	0x5e
	.uleb128 0x38
	.long	.LASF1421
	.byte	0x66
	.byte	0x17
	.long	0x5e
	.long	.LLST376
	.long	.LVUS376
	.uleb128 0x4b
	.long	.LLRL377
	.long	0xe2fe
	.uleb128 0x2a
	.string	"p"
	.byte	0x6e
	.byte	0x23
	.long	0xa5e8
	.long	.LLST378
	.long	.LVUS378
	.uleb128 0x5d
	.long	.LASF1413
	.long	0xa692
	.uleb128 0x5d
	.long	.LASF1414
	.long	0x3b4a
	.uleb128 0x5d
	.long	.LASF1415
	.long	0x3b4a
	.uleb128 0x44
	.long	.LLRL379
	.uleb128 0x31
	.long	.LASF1326
	.byte	0x1
	.byte	0x6f
	.byte	0x1b
	.long	0x5e
	.uleb128 0x31
	.long	.LASF1327
	.byte	0x1
	.byte	0x70
	.byte	0x1b
	.long	0x5e
	.uleb128 0x31
	.long	.LASF1324
	.byte	0x1
	.byte	0x71
	.byte	0x1b
	.long	0x5e
	.uleb128 0x31
	.long	.LASF1325
	.byte	0x1
	.byte	0x72
	.byte	0x1b
	.long	0x5e
	.uleb128 0x2a
	.string	"Avx"
	.byte	0x75
	.byte	0x1e
	.long	0xa3fd
	.long	.LLST380
	.long	.LVUS380
	.uleb128 0x2a
	.string	"Bvx"
	.byte	0x76
	.byte	0x1e
	.long	0xa3fd
	.long	.LLST381
	.long	.LVUS381
	.uleb128 0x2a
	.string	"Cvx"
	.byte	0x77
	.byte	0x1e
	.long	0xa3fd
	.long	.LLST382
	.long	.LVUS382
	.uleb128 0x2a
	.string	"Dvx"
	.byte	0x78
	.byte	0x1e
	.long	0xa3fd
	.long	.LLST383
	.long	.LVUS383
	.uleb128 0x4b
	.long	.LLRL384
	.long	0xe168
	.uleb128 0x2a
	.string	"y"
	.byte	0x7a
	.byte	0x1a
	.long	0x56
	.long	.LLST385
	.long	.LVUS385
	.uleb128 0x44
	.long	.LLRL386
	.uleb128 0x38
	.long	.LASF1422
	.byte	0x7b
	.byte	0x1c
	.long	0x75fd
	.long	.LLST387
	.long	.LVUS387
	.uleb128 0x38
	.long	.LASF1423
	.byte	0x7c
	.byte	0x1c
	.long	0x75fd
	.long	.LLST388
	.long	.LVUS388
	.uleb128 0x38
	.long	.LASF1424
	.byte	0x7d
	.byte	0x1c
	.long	0x75fd
	.long	.LLST389
	.long	.LVUS389
	.uleb128 0x38
	.long	.LASF1425
	.byte	0x7e
	.byte	0x1c
	.long	0x75fd
	.long	.LLST390
	.long	.LVUS390
	.uleb128 0x2a
	.string	"vp"
	.byte	0x81
	.byte	0x1c
	.long	0xa7eb
	.long	.LLST391
	.long	.LVUS391
	.uleb128 0x75
	.string	"x"
	.byte	0x85
	.byte	0x19
	.long	0x56
	.uleb128 0x31
	.long	.LASF1426
	.byte	0x1
	.byte	0x86
	.byte	0x1f
	.long	0x5e
	.uleb128 0x38
	.long	.LASF1427
	.byte	0xa1
	.byte	0x19
	.long	0x56
	.long	.LLST392
	.long	.LVUS392
	.uleb128 0x4b
	.long	.LLRL393
	.long	0xe101
	.uleb128 0x31
	.long	.LASF1428
	.byte	0x1
	.byte	0x8a
	.byte	0x21
	.long	0xa391
	.uleb128 0x31
	.long	.LASF1429
	.byte	0x1
	.byte	0x8b
	.byte	0x21
	.long	0xa391
	.uleb128 0x31
	.long	.LASF1430
	.byte	0x1
	.byte	0x8c
	.byte	0x21
	.long	0xa391
	.uleb128 0x31
	.long	.LASF1431
	.byte	0x1
	.byte	0x8d
	.byte	0x21
	.long	0xa391
	.uleb128 0x38
	.long	.LASF1432
	.byte	0x8f
	.byte	0x20
	.long	0xa3f1
	.long	.LLST394
	.long	.LVUS394
	.uleb128 0x38
	.long	.LASF1433
	.byte	0x90
	.byte	0x20
	.long	0xa3f1
	.long	.LLST395
	.long	.LVUS395
	.uleb128 0x38
	.long	.LASF1434
	.byte	0x91
	.byte	0x20
	.long	0xa3f1
	.long	.LLST396
	.long	.LVUS396
	.uleb128 0x38
	.long	.LASF1435
	.byte	0x92
	.byte	0x20
	.long	0xa3f1
	.long	.LLST397
	.long	.LVUS397
	.uleb128 0x2a
	.string	"val"
	.byte	0x94
	.byte	0x20
	.long	0xa3f1
	.long	.LLST398
	.long	.LVUS398
	.uleb128 0x30
	.long	0x1181e
	.quad	.LBI2633
	.value	.LVU535
	.long	.LLRL399
	.byte	0x1
	.byte	0x8a
	.byte	0x39
	.long	0xdc7f
	.uleb128 0x3
	.long	0x11832
	.uleb128 0x18
	.long	0x11845
	.quad	.LBI2635
	.value	.LVU540
	.quad	.LBB2635
	.quad	.LBE2635-.LBB2635
	.byte	0xe
	.value	0x2c9
	.byte	0x18
	.uleb128 0x3
	.long	0x11859
	.uleb128 0x4
	.long	0x11866
	.long	.LLST400
	.long	.LVUS400
	.uleb128 0x18
	.long	0x11874
	.quad	.LBI2637
	.value	.LVU542
	.quad	.LBB2637
	.quad	.LBE2637-.LBB2637
	.byte	0xe
	.value	0x25a
	.byte	0x19
	.uleb128 0x4
	.long	0x11888
	.long	.LLST401
	.long	.LVUS401
	.uleb128 0x4
	.long	0x11895
	.long	.LLST402
	.long	.LVUS402
	.byte	0
	.byte	0
	.byte	0
	.uleb128 0x30
	.long	0x11768
	.quad	.LBI2640
	.value	.LVU581
	.long	.LLRL403
	.byte	0x1
	.byte	0x90
	.byte	0x3b
	.long	0xdc9f
	.uleb128 0x3
	.long	0x1177c
	.byte	0
	.uleb128 0x30
	.long	0x11768
	.quad	.LBI2643
	.value	.LVU597
	.long	.LLRL404
	.byte	0x1
	.byte	0x92
	.byte	0x3b
	.long	0xdcbf
	.uleb128 0x3
	.long	0x1177c
	.byte	0
	.uleb128 0x2b
	.long	0x1181e
	.quad	.LBI2647
	.value	.LVU546
	.quad	.LBB2647
	.quad	.LBE2647-.LBB2647
	.byte	0x1
	.byte	0x8b
	.byte	0x39
	.long	0xdd67
	.uleb128 0x4
	.long	0x11832
	.long	.LLST405
	.long	.LVUS405
	.uleb128 0x18
	.long	0x11845
	.quad	.LBI2649
	.value	.LVU548
	.quad	.LBB2649
	.quad	.LBE2649-.LBB2649
	.byte	0xe
	.value	0x2c9
	.byte	0x18
	.uleb128 0x3
	.long	0x11859
	.uleb128 0x4
	.long	0x11866
	.long	.LLST406
	.long	.LVUS406
	.uleb128 0x18
	.long	0x11874
	.quad	.LBI2651
	.value	.LVU550
	.quad	.LBB2651
	.quad	.LBE2651-.LBB2651
	.byte	0xe
	.value	0x25a
	.byte	0x19
	.uleb128 0x4
	.long	0x11888
	.long	.LLST407
	.long	.LVUS407
	.uleb128 0x4
	.long	0x11895
	.long	.LLST408
	.long	.LVUS408
	.byte	0
	.byte	0
	.byte	0
	.uleb128 0x2b
	.long	0x1181e
	.quad	.LBI2653
	.value	.LVU554
	.quad	.LBB2653
	.quad	.LBE2653-.LBB2653
	.byte	0x1
	.byte	0x8c
	.byte	0x39
	.long	0xde07
	.uleb128 0x3
	.long	0x11832
	.uleb128 0x18
	.long	0x11845
	.quad	.LBI2655
	.value	.LVU556
	.quad	.LBB2655
	.quad	.LBE2655-.LBB2655
	.byte	0xe
	.value	0x2c9
	.byte	0x18
	.uleb128 0x3
	.long	0x11859
	.uleb128 0x4
	.long	0x11866
	.long	.LLST409
	.long	.LVUS409
	.uleb128 0x18
	.long	0x11874
	.quad	.LBI2657
	.value	.LVU558
	.quad	.LBB2657
	.quad	.LBE2657-.LBB2657
	.byte	0xe
	.value	0x25a
	.byte	0x19
	.uleb128 0x4
	.long	0x11888
	.long	.LLST410
	.long	.LVUS410
	.uleb128 0x4
	.long	0x11895
	.long	.LLST411
	.long	.LVUS411
	.byte	0
	.byte	0
	.byte	0
	.uleb128 0x2b
	.long	0x1181e
	.quad	.LBI2659
	.value	.LVU562
	.quad	.LBB2659
	.quad	.LBE2659-.LBB2659
	.byte	0x1
	.byte	0x8d
	.byte	0x39
	.long	0xdeaf
	.uleb128 0x4
	.long	0x11832
	.long	.LLST412
	.long	.LVUS412
	.uleb128 0x18
	.long	0x11845
	.quad	.LBI2661
	.value	.LVU564
	.quad	.LBB2661
	.quad	.LBE2661-.LBB2661
	.byte	0xe
	.value	0x2c9
	.byte	0x18
	.uleb128 0x3
	.long	0x11859
	.uleb128 0x4
	.long	0x11866
	.long	.LLST413
	.long	.LVUS413
	.uleb128 0x18
	.long	0x11874
	.quad	.LBI2663
	.value	.LVU566
	.quad	.LBB2663
	.quad	.LBE2663-.LBB2663
	.byte	0xe
	.value	0x25a
	.byte	0x19
	.uleb128 0x4
	.long	0x11888
	.long	.LLST414
	.long	.LVUS414
	.uleb128 0x4
	.long	0x11895
	.long	.LLST415
	.long	.LVUS415
	.byte	0
	.byte	0
	.byte	0
	.uleb128 0x30
	.long	0x11768
	.quad	.LBI2665
	.value	.LVU570
	.long	.LLRL416
	.byte	0x1
	.byte	0x8f
	.byte	0x3b
	.long	0xdecf
	.uleb128 0x3
	.long	0x1177c
	.byte	0
	.uleb128 0x3e
	.long	0x117fc
	.quad	.LBI2669
	.value	.LVU575
	.long	.LLRL417
	.byte	0x1
	.byte	0x8f
	.byte	0x3b
	.byte	0x1
	.long	0xdef8
	.uleb128 0x4
	.long	0x11810
	.long	.LLST418
	.long	.LVUS418
	.byte	0
	.uleb128 0x30
	.long	0x11768
	.quad	.LBI2672
	.value	.LVU587
	.long	.LLRL419
	.byte	0x1
	.byte	0x91
	.byte	0x3b
	.long	0xdf18
	.uleb128 0x3
	.long	0x1177c
	.byte	0
	.uleb128 0x3e
	.long	0x117fc
	.quad	.LBI2675
	.value	.LVU583
	.long	.LLRL420
	.byte	0x1
	.byte	0x90
	.byte	0x3b
	.byte	0x1
	.long	0xdf39
	.uleb128 0x3
	.long	0x11810
	.byte	0
	.uleb128 0x3e
	.long	0x117fc
	.quad	.LBI2678
	.value	.LVU599
	.long	.LLRL421
	.byte	0x1
	.byte	0x92
	.byte	0x3b
	.byte	0x1
	.long	0xdf5a
	.uleb128 0x3
	.long	0x11810
	.byte	0
	.uleb128 0x3e
	.long	0x117fc
	.quad	.LBI2685
	.value	.LVU590
	.long	.LLRL422
	.byte	0x1
	.byte	0x91
	.byte	0x3b
	.byte	0x1
	.long	0xdf83
	.uleb128 0x4
	.long	0x11810
	.long	.LLST423
	.long	.LVUS423
	.byte	0
	.uleb128 0x30
	.long	0x1172d
	.quad	.LBI2688
	.value	.LVU606
	.long	.LLRL424
	.byte	0x1
	.byte	0x95
	.byte	0x2e
	.long	0xdfb5
	.uleb128 0x4
	.long	0x11743
	.long	.LLST425
	.long	.LVUS425
	.uleb128 0x3
	.long	0x1174f
	.uleb128 0x3
	.long	0x1175b
	.byte	0
	.uleb128 0x2b
	.long	0x117da
	.quad	.LBI2694
	.value	.LVU603
	.quad	.LBB2694
	.quad	.LBE2694-.LBB2694
	.byte	0x1
	.byte	0x94
	.byte	0x35
	.long	0xdfe1
	.uleb128 0x3
	.long	0x117ee
	.byte	0
	.uleb128 0x2b
	.long	0x1172d
	.quad	.LBI2697
	.value	.LVU610
	.quad	.LBB2697
	.quad	.LBE2697-.LBB2697
	.byte	0x1
	.byte	0x96
	.byte	0x2e
	.long	0xe02f
	.uleb128 0x4
	.long	0x11743
	.long	.LLST426
	.long	.LVUS426
	.uleb128 0x4
	.long	0x1174f
	.long	.LLST427
	.long	.LVUS427
	.uleb128 0x4
	.long	0x1175b
	.long	.LLST428
	.long	.LVUS428
	.byte	0
	.uleb128 0x2b
	.long	0x1172d
	.quad	.LBI2699
	.value	.LVU615
	.quad	.LBB2699
	.quad	.LBE2699-.LBB2699
	.byte	0x1
	.byte	0x97
	.byte	0x2e
	.long	0xe07d
	.uleb128 0x4
	.long	0x11743
	.long	.LLST429
	.long	.LVUS429
	.uleb128 0x4
	.long	0x1174f
	.long	.LLST430
	.long	.LVUS430
	.uleb128 0x4
	.long	0x1175b
	.long	.LLST431
	.long	.LVUS431
	.byte	0
	.uleb128 0x2b
	.long	0x1172d
	.quad	.LBI2701
	.value	.LVU620
	.quad	.LBB2701
	.quad	.LBE2701-.LBB2701
	.byte	0x1
	.byte	0x98
	.byte	0x2e
	.long	0xe0cb
	.uleb128 0x4
	.long	0x11743
	.long	.LLST432
	.long	.LVUS432
	.uleb128 0x4
	.long	0x1174f
	.long	.LLST433
	.long	.LVUS433
	.uleb128 0x4
	.long	0x1175b
	.long	.LLST434
	.long	.LVUS434
	.byte	0
	.uleb128 0x20
	.long	0x117ac
	.quad	.LBI2703
	.value	.LVU625
	.quad	.LBB2703
	.quad	.LBE2703-.LBB2703
	.byte	0x1
	.byte	0x99
	.byte	0x29
	.uleb128 0x3
	.long	0x117bf
	.uleb128 0x4
	.long	0x117cc
	.long	.LLST435
	.long	.LVUS435
	.byte	0
	.byte	0
	.uleb128 0x44
	.long	.LLRL436
	.uleb128 0x2a
	.string	"k"
	.byte	0xa2
	.byte	0x1e
	.long	0x56
	.long	.LLST437
	.long	.LVUS437
	.uleb128 0x44
	.long	.LLRL438
	.uleb128 0x2a
	.string	"TL"
	.byte	0xa3
	.byte	0x1f
	.long	0x30
	.long	.LLST439
	.long	.LVUS439
	.uleb128 0x2a
	.string	"TR"
	.byte	0xa4
	.byte	0x1f
	.long	0x30
	.long	.LLST440
	.long	.LVUS440
	.uleb128 0x2a
	.string	"BL"
	.byte	0xa5
	.byte	0x1f
	.long	0x30
	.long	.LLST441
	.long	.LVUS441
	.uleb128 0x2a
	.string	"BR"
	.byte	0xa6
	.byte	0x1f
	.long	0x30
	.long	.LLST442
	.long	.LVUS442
	.byte	0
	.byte	0
	.byte	0
	.byte	0
	.uleb128 0x30
	.long	0x114d7
	.quad	.LBI2744
	.value	.LVU453
	.long	.LLRL443
	.byte	0x1
	.byte	0x6f
	.byte	0x2d
	.long	0xe19d
	.uleb128 0x4
	.long	0x114ea
	.long	.LLST444
	.long	.LVUS444
	.uleb128 0x4
	.long	0x114f7
	.long	.LLST445
	.long	.LVUS445
	.byte	0
	.uleb128 0x30
	.long	0x114ab
	.quad	.LBI2749
	.value	.LVU472
	.long	.LLRL446
	.byte	0x1
	.byte	0x72
	.byte	0x2d
	.long	0xe1d2
	.uleb128 0x4
	.long	0x114be
	.long	.LLST447
	.long	.LVUS447
	.uleb128 0x4
	.long	0x114ca
	.long	.LLST448
	.long	.LVUS448
	.byte	0
	.uleb128 0x30
	.long	0x114ab
	.quad	.LBI2753
	.value	.LVU463
	.long	.LLRL449
	.byte	0x1
	.byte	0x70
	.byte	0x2d
	.long	0xe207
	.uleb128 0x4
	.long	0x114be
	.long	.LLST450
	.long	.LVUS450
	.uleb128 0x4
	.long	0x114ca
	.long	.LLST451
	.long	.LVUS451
	.byte	0
	.uleb128 0x30
	.long	0x114d7
	.quad	.LBI2762
	.value	.LVU467
	.long	.LLRL452
	.byte	0x1
	.byte	0x71
	.byte	0x2d
	.long	0xe23c
	.uleb128 0x4
	.long	0x114ea
	.long	.LLST453
	.long	.LVUS453
	.uleb128 0x4
	.long	0x114f7
	.long	.LLST454
	.long	.LVUS454
	.byte	0
	.uleb128 0x30
	.long	0x1178a
	.quad	.LBI2771
	.value	.LVU491
	.long	.LLRL455
	.byte	0x1
	.byte	0x75
	.byte	0x32
	.long	0xe264
	.uleb128 0x4
	.long	0x1179e
	.long	.LLST456
	.long	.LVUS456
	.byte	0
	.uleb128 0x2b
	.long	0x1178a
	.quad	.LBI2777
	.value	.LVU501
	.quad	.LBB2777
	.quad	.LBE2777-.LBB2777
	.byte	0x1
	.byte	0x76
	.byte	0x32
	.long	0xe298
	.uleb128 0x4
	.long	0x1179e
	.long	.LLST457
	.long	.LVUS457
	.byte	0
	.uleb128 0x2b
	.long	0x1178a
	.quad	.LBI2779
	.value	.LVU506
	.quad	.LBB2779
	.quad	.LBE2779-.LBB2779
	.byte	0x1
	.byte	0x77
	.byte	0x32
	.long	0xe2cc
	.uleb128 0x4
	.long	0x1179e
	.long	.LLST458
	.long	.LVUS458
	.byte	0
	.uleb128 0x20
	.long	0x1178a
	.quad	.LBI2781
	.value	.LVU511
	.quad	.LBB2781
	.quad	.LBE2781-.LBB2781
	.byte	0x1
	.byte	0x78
	.byte	0x32
	.uleb128 0x4
	.long	0x1179e
	.long	.LLST459
	.long	.LVUS459
	.byte	0
	.byte	0
	.byte	0
	.uleb128 0x4b
	.long	.LLRL460
	.long	0xe3d9
	.uleb128 0x2a
	.string	"y"
	.byte	0xad
	.byte	0x16
	.long	0x56
	.long	.LLST461
	.long	.LVUS461
	.uleb128 0x44
	.long	.LLRL462
	.uleb128 0x75
	.string	"vp"
	.byte	0xae
	.byte	0x1e
	.long	0xa804
	.uleb128 0x31
	.long	.LASF1436
	.byte	0x1
	.byte	0xaf
	.byte	0x20
	.long	0x9ff6
	.uleb128 0x4b
	.long	.LLRL463
	.long	0xe3a7
	.uleb128 0x2a
	.string	"x"
	.byte	0xb0
	.byte	0x1a
	.long	0x56
	.long	.LLST464
	.long	.LVUS464
	.uleb128 0x44
	.long	.LLRL465
	.uleb128 0x2a
	.string	"c"
	.byte	0xb1
	.byte	0x19
	.long	0x56
	.long	.LLST466
	.long	.LVUS466
	.uleb128 0x38
	.long	.LASF1437
	.byte	0xb6
	.byte	0x1b
	.long	0x30
	.long	.LLST467
	.long	.LVUS467
	.uleb128 0x44
	.long	.LLRL468
	.uleb128 0x2a
	.string	"ch"
	.byte	0xb7
	.byte	0x1e
	.long	0x56
	.long	.LLST469
	.long	.LVUS469
	.uleb128 0x44
	.long	.LLRL470
	.uleb128 0x2a
	.string	"v"
	.byte	0xb8
	.byte	0x1f
	.long	0x30
	.long	.LLST471
	.long	.LVUS471
	.byte	0
	.byte	0
	.byte	0
	.byte	0
	.uleb128 0x20
	.long	0xcb92
	.quad	.LBI2809
	.value	.LVU980
	.quad	.LBB2809
	.quad	.LBE2809-.LBB2809
	.byte	0x1
	.byte	0xaf
	.byte	0x37
	.uleb128 0x4
	.long	0xcba0
	.long	.LLST472
	.long	.LVUS472
	.byte	0
	.byte	0
	.byte	0
	.uleb128 0x30
	.long	0x114ab
	.quad	.LBI2821
	.value	.LVU420
	.long	.LLRL473
	.byte	0x1
	.byte	0x65
	.byte	0x2c
	.long	0xe406
	.uleb128 0x3
	.long	0x114be
	.uleb128 0x4
	.long	0x114ca
	.long	.LLST474
	.long	.LVUS474
	.byte	0
	.uleb128 0x2b
	.long	0xc92e
	.quad	.LBI2828
	.value	.LVU430
	.quad	.LBB2828
	.quad	.LBE2828-.LBB2828
	.byte	0x1
	.byte	0x6a
	.byte	0x26
	.long	0xe460
	.uleb128 0x3
	.long	0xc93c
	.uleb128 0x18
	.long	0xbfba
	.quad	.LBI2829
	.value	.LVU431
	.quad	.LBB2829
	.quad	.LBE2829-.LBB2829
	.byte	0x2
	.value	0x3dd
	.byte	0x10
	.uleb128 0x3
	.long	0xbfc8
	.uleb128 0x3
	.long	0xbfd1
	.byte	0
	.byte	0
	.uleb128 0x3e
	.long	0xc909
	.quad	.LBI2830
	.value	.LVU433
	.long	.LLRL475
	.byte	0x1
	.byte	0x69
	.byte	0x16
	.byte	0x1
	.long	0xe4bc
	.uleb128 0x3
	.long	0xc917
	.uleb128 0x4
	.long	0xc920
	.long	.LLST477
	.long	.LVUS477
	.uleb128 0x18
	.long	0xbfba
	.quad	.LBI2832
	.value	.LVU434
	.quad	.LBB2832
	.quad	.LBE2832-.LBB2832
	.byte	0x3
	.value	0x47c
	.byte	0x10
	.uleb128 0x3
	.long	0xbfc8
	.uleb128 0x3
	.long	0xbfd1
	.byte	0
	.byte	0
	.uleb128 0x4c
	.long	0xc92e
	.quad	.LBI2834
	.value	.LVU436
	.quad	.LBB2834
	.quad	.LBE2834-.LBB2834
	.byte	0x69
	.byte	0x16
	.byte	0x2
	.long	0xe516
	.uleb128 0x3
	.long	0xc93c
	.uleb128 0x18
	.long	0xbfba
	.quad	.LBI2835
	.value	.LVU437
	.quad	.LBB2835
	.quad	.LBE2835-.LBB2835
	.byte	0x2
	.value	0x3dd
	.byte	0x10
	.uleb128 0x3
	.long	0xbfc8
	.uleb128 0x3
	.long	0xbfd1
	.byte	0
	.byte	0
	.uleb128 0x9d
	.long	0xc8c5
	.quad	.LBI2836
	.value	.LVU439
	.long	.LLRL478
	.byte	0x1
	.byte	0x69
	.byte	0x16
	.byte	0x3
	.uleb128 0x3
	.long	0xc8e1
	.uleb128 0x3
	.long	0xc8ee
	.uleb128 0x3
	.long	0xc8fb
	.uleb128 0x17
	.long	0xbf76
	.quad	.LBI2837
	.value	.LVU440
	.long	.LLRL478
	.byte	0xa
	.value	0x3f0
	.byte	0x14
	.uleb128 0x3
	.long	0xbf92
	.uleb128 0x3
	.long	0xbf9f
	.uleb128 0x3
	.long	0xbfac
	.uleb128 0x17
	.long	0xb629
	.quad	.LBI2838
	.value	.LVU441
	.long	.LLRL478
	.byte	0xa
	.value	0x3d1
	.byte	0x15
	.uleb128 0x3
	.long	0xb64e
	.uleb128 0x3
	.long	0xb65b
	.uleb128 0x3
	.long	0xb668
	.uleb128 0x62
	.long	0xb053
	.quad	.LBI2839
	.value	.LVU442
	.long	.LLRL478
	.byte	0xa
	.value	0x3bf
	.byte	0x15
	.byte	0x2
	.uleb128 0x3
	.long	0xb06f
	.uleb128 0x3
	.long	0xb07c
	.uleb128 0x3
	.long	0xb089
	.uleb128 0x2e
	.long	0xb096
	.long	.LLST483
	.long	.LVUS483
	.uleb128 0x2e
	.long	0xb0b1
	.long	.LLST484
	.long	.LVUS484
	.uleb128 0x4d
	.quad	.LVL86
	.uleb128 0x1
	.byte	0x30
	.uleb128 0x2f
	.quad	.LVL87
	.long	0x11922
	.uleb128 0x1f
	.uleb128 0x1
	.byte	0x54
	.uleb128 0x1
	.byte	0x30
	.uleb128 0x1f
	.uleb128 0x1
	.byte	0x51
	.uleb128 0x11
	.byte	0x77
	.sleb128 52
	.byte	0x94
	.byte	0x4
	.byte	0x7d
	.sleb128 0
	.byte	0x1e
	.byte	0x33
	.byte	0x1e
	.byte	0x8
	.byte	0x20
	.byte	0x24
	.byte	0x8
	.byte	0x20
	.byte	0x26
	.byte	0x32
	.byte	0x24
	.byte	0
	.byte	0
	.byte	0
	.byte	0
	.byte	0
	.byte	0
	.byte	0
	.uleb128 0x68
	.long	0x114ab
	.quad	.LBI2854
	.value	.LVU403
	.long	.LLRL485
	.byte	0x1
	.byte	0x61
	.byte	0x28
	.uleb128 0x3
	.long	0x114be
	.uleb128 0x4
	.long	0x114ca
	.long	.LLST486
	.long	.LVUS486
	.byte	0
	.byte	0
	.byte	0
	.uleb128 0x30
	.long	0x1166d
	.quad	.LBI2126
	.value	.LVU25
	.long	.LLRL7
	.byte	0x1
	.byte	0x28
	.byte	0xf
	.long	0xe74d
	.uleb128 0x4
	.long	0x1167d
	.long	.LLST8
	.long	.LVUS8
	.uleb128 0x68
	.long	0x1169e
	.quad	.LBI2127
	.value	.LVU26
	.long	.LLRL7
	.byte	0x4
	.byte	0xb
	.byte	0x8
	.uleb128 0x4
	.long	0x116ac
	.long	.LLST9
	.long	.LVUS9
	.uleb128 0x17
	.long	0x116cd
	.quad	.LBI2128
	.value	.LVU27
	.long	.LLRL7
	.byte	0x2
	.value	0x227
	.byte	0x7
	.uleb128 0x4
	.long	0x116db
	.long	.LLST10
	.long	.LVUS10
	.uleb128 0x17
	.long	0xcddc
	.quad	.LBI2129
	.value	.LVU28
	.long	.LLRL7
	.byte	0x2
	.value	0x141
	.byte	0x7
	.uleb128 0x4
	.long	0xcdea
	.long	.LLST11
	.long	.LVUS11
	.uleb128 0x3e
	.long	0xc82a
	.quad	.LBI2130
	.value	.LVU32
	.long	.LLRL12
	.byte	0x2
	.byte	0x94
	.byte	0x13
	.byte	0x1
	.long	0xe6e9
	.uleb128 0x4
	.long	0xc838
	.long	.LLST13
	.long	.LVUS13
	.byte	0
	.uleb128 0x20
	.long	0xc859
	.quad	.LBI2134
	.value	.LVU29
	.quad	.LBB2134
	.quad	.LBE2134-.LBB2134
	.byte	0x2
	.byte	0x94
	.byte	0x13
	.uleb128 0x4
	.long	0xc867
	.long	.LLST14
	.long	.LVUS14
	.uleb128 0x20
	.long	0xbead
	.quad	.LBI2135
	.value	.LVU30
	.quad	.LBB2135
	.quad	.LBE2135-.LBB2135
	.byte	0x5
	.byte	0xa8
	.byte	0x24
	.uleb128 0x4
	.long	0xbebb
	.long	.LLST15
	.long	.LVUS15
	.byte	0
	.byte	0
	.byte	0
	.byte	0
	.byte	0
	.byte	0
	.uleb128 0x30
	.long	0xce0b
	.quad	.LBI2143
	.value	.LVU7
	.long	.LLRL16
	.byte	0x1
	.byte	0x23
	.byte	0x2d
	.long	0xe7c4
	.uleb128 0x4
	.long	0xce19
	.long	.LLST17
	.long	.LVUS17
	.uleb128 0x17
	.long	0xcbc2
	.quad	.LBI2144
	.value	.LVU9
	.long	.LLRL16
	.byte	0x2
	.value	0x539
	.byte	0xf
	.uleb128 0x4
	.long	0xcbd0
	.long	.LLST18
	.long	.LVUS18
	.uleb128 0x17
	.long	0xc4ea
	.quad	.LBI2145
	.value	.LVU10
	.long	.LLRL16
	.byte	0x2
	.value	0x3dd
	.byte	0x10
	.uleb128 0x3
	.long	0xc4f8
	.uleb128 0x4
	.long	0xc501
	.long	.LLST19
	.long	.LVUS19
	.byte	0
	.byte	0
	.byte	0
	.uleb128 0x2b
	.long	0xce0b
	.quad	.LBI2151
	.value	.LVU17
	.quad	.LBB2151
	.quad	.LBE2151-.LBB2151
	.byte	0x1
	.byte	0x24
	.byte	0x2d
	.long	0xe85f
	.uleb128 0x4
	.long	0xce19
	.long	.LLST20
	.long	.LVUS20
	.uleb128 0x18
	.long	0xcbc2
	.quad	.LBI2152
	.value	.LVU19
	.quad	.LBB2152
	.quad	.LBE2152-.LBB2152
	.byte	0x2
	.value	0x539
	.byte	0xf
	.uleb128 0x4
	.long	0xcbd0
	.long	.LLST21
	.long	.LVUS21
	.uleb128 0x18
	.long	0xc4ea
	.quad	.LBI2153
	.value	.LVU20
	.quad	.LBB2153
	.quad	.LBE2153-.LBB2153
	.byte	0x2
	.value	0x3dd
	.byte	0x10
	.uleb128 0x3
	.long	0xc4f8
	.uleb128 0x4
	.long	0xc501
	.long	.LLST22
	.long	.LVUS22
	.byte	0
	.byte	0
	.byte	0
	.uleb128 0x30
	.long	0xcd03
	.quad	.LBI2155
	.value	.LVU40
	.long	.LLRL23
	.byte	0x1
	.byte	0x2b
	.byte	0x17
	.long	0xf002
	.uleb128 0x4
	.long	0xcd11
	.long	.LLST24
	.long	.LVUS24
	.uleb128 0x4
	.long	0xcd1a
	.long	.LLST25
	.long	.LVUS25
	.uleb128 0x3
	.long	0xcd27
	.uleb128 0x17
	.long	0xc713
	.quad	.LBI2156
	.value	.LVU41
	.long	.LLRL23
	.byte	0x2
	.value	0x362
	.byte	0x17
	.uleb128 0x4
	.long	0xc721
	.long	.LLST27
	.long	.LVUS27
	.uleb128 0x4
	.long	0xc72a
	.long	.LLST28
	.long	.LVUS28
	.uleb128 0x3
	.long	0xc737
	.uleb128 0xd1
	.long	0xc744
	.byte	0
	.uleb128 0x69
	.long	0xc751
	.long	.LLRL30
	.uleb128 0x3a
	.long	0xc757
	.uleb128 0x58
	.long	0xbdc5
	.quad	.LBI2160
	.value	.LVU1113
	.long	.LLRL31
	.byte	0x7
	.value	0x11a
	.byte	0xb
	.byte	0x1
	.long	0xed6e
	.uleb128 0x4
	.long	0xbdd3
	.long	.LLST32
	.long	.LVUS32
	.uleb128 0x4
	.long	0xbddc
	.long	.LLST33
	.long	.LVUS33
	.uleb128 0x3
	.long	0xbde9
	.uleb128 0x4
	.long	0xbdf6
	.long	.LLST35
	.long	.LVUS35
	.uleb128 0x3d
	.long	0xb59b
	.quad	.LBI2161
	.value	.LVU1114
	.long	.LLRL36
	.byte	0x2
	.value	0x24f
	.byte	0x2f
	.long	0xea40
	.uleb128 0x4
	.long	0xb5a5
	.long	.LLST37
	.long	.LVUS37
	.uleb128 0x4
	.long	0xb5b2
	.long	.LLST38
	.long	.LVUS38
	.uleb128 0x2d
	.long	0xbf08
	.quad	.LBI2163
	.value	.LVU1115
	.quad	.LBB2163
	.quad	.LBE2163-.LBB2163
	.byte	0x2
	.value	0x89d
	.byte	0x18
	.long	0xe9cf
	.uleb128 0x3
	.long	0xbf16
	.uleb128 0x4
	.long	0xbf1f
	.long	.LLST39
	.long	.LVUS39
	.uleb128 0x20
	.long	0xb5f0
	.quad	.LBI2164
	.value	.LVU1116
	.quad	.LBB2164
	.quad	.LBE2164-.LBB2164
	.byte	0x5
	.byte	0xad
	.byte	0x22
	.uleb128 0x3
	.long	0xb5fe
	.uleb128 0x4
	.long	0xb607
	.long	.LLST40
	.long	.LVUS40
	.byte	0
	.byte	0
	.uleb128 0x76
	.long	0xcdad
	.quad	.LBI2165
	.value	.LVU1118
	.quad	.LBB2165
	.quad	.LBE2165-.LBB2165
	.value	0x89d
	.byte	0x18
	.byte	0x2
	.long	0xea24
	.uleb128 0x3
	.long	0xcdbb
	.uleb128 0x20
	.long	0xc7fb
	.quad	.LBI2166
	.value	.LVU1119
	.quad	.LBB2166
	.quad	.LBE2166-.LBB2166
	.byte	0x5
	.byte	0xbd
	.byte	0x27
	.uleb128 0x3
	.long	0xc809
	.byte	0
	.byte	0
	.uleb128 0x2f
	.quad	.LVL250
	.long	0x6d92
	.uleb128 0x1f
	.uleb128 0x1
	.byte	0x55
	.uleb128 0x9
	.byte	0x3
	.quad	.LC0
	.byte	0
	.byte	0
	.uleb128 0x58
	.long	0xb548
	.quad	.LBI2168
	.value	.LVU1122
	.long	.LLRL41
	.byte	0x2
	.value	0x24f
	.byte	0x2f
	.byte	0x1
	.long	0xec81
	.uleb128 0x4
	.long	0xb556
	.long	.LLST42
	.long	.LVUS42
	.uleb128 0x4
	.long	0xb55f
	.long	.LLST43
	.long	.LVUS43
	.uleb128 0x4
	.long	0xb56c
	.long	.LLST44
	.long	.LVUS44
	.uleb128 0x2d
	.long	0xafe1
	.quad	.LBI2169
	.value	.LVU1123
	.quad	.LBB2169
	.quad	.LBE2169-.LBB2169
	.byte	0x2
	.value	0x154
	.byte	0x9
	.long	0xeb73
	.uleb128 0x4
	.long	0xafef
	.long	.LLST45
	.long	.LVUS45
	.uleb128 0x4
	.long	0xaff8
	.long	.LLST46
	.long	.LVUS46
	.uleb128 0x2b
	.long	0xbf08
	.quad	.LBI2170
	.value	.LVU1124
	.quad	.LBB2170
	.quad	.LBE2170-.LBB2170
	.byte	0x2
	.byte	0x99
	.byte	0x16
	.long	0xeb42
	.uleb128 0x4
	.long	0xbf16
	.long	.LLST47
	.long	.LVUS47
	.uleb128 0x4
	.long	0xbf1f
	.long	.LLST48
	.long	.LVUS48
	.uleb128 0x20
	.long	0xb5f0
	.quad	.LBI2171
	.value	.LVU1125
	.quad	.LBB2171
	.quad	.LBE2171-.LBB2171
	.byte	0x5
	.byte	0xad
	.byte	0x22
	.uleb128 0x4
	.long	0xb5fe
	.long	.LLST49
	.long	.LVUS49
	.uleb128 0x4
	.long	0xb607
	.long	.LLST50
	.long	.LVUS50
	.byte	0
	.byte	0
	.uleb128 0x6a
	.long	0xc82a
	.quad	.LBI2172
	.value	.LVU1127
	.quad	.LBB2172
	.quad	.LBE2172-.LBB2172
	.byte	0x2
	.byte	0x99
	.byte	0x1
	.uleb128 0x4
	.long	0xc838
	.long	.LLST51
	.long	.LVUS51
	.byte	0
	.byte	0
	.uleb128 0x17
	.long	0xafbc
	.quad	.LBI2173
	.value	.LVU1129
	.long	.LLRL52
	.byte	0x2
	.value	0x155
	.byte	0x1a
	.uleb128 0x4
	.long	0xafca
	.long	.LLST53
	.long	.LVUS53
	.uleb128 0x4
	.long	0xafd3
	.long	.LLST54
	.long	.LVUS54
	.uleb128 0x18
	.long	0xad06
	.quad	.LBI2175
	.value	.LVU1130
	.quad	.LBB2175
	.quad	.LBE2175-.LBB2175
	.byte	0x2
	.value	0x197
	.byte	0x2c
	.uleb128 0x4
	.long	0xad14
	.long	.LLST55
	.long	.LVUS55
	.uleb128 0x4
	.long	0xad1d
	.long	.LLST56
	.long	.LVUS56
	.uleb128 0x7f
	.long	0xaaa6
	.quad	.LBI2177
	.value	.LVU1131
	.quad	.LBB2177
	.quad	.LBE2177-.LBB2177
	.value	0x185
	.byte	0x21
	.byte	0x1
	.uleb128 0x4
	.long	0xaab0
	.long	.LLST57
	.long	.LVUS57
	.uleb128 0x4
	.long	0xaabd
	.long	.LLST58
	.long	.LVUS58
	.uleb128 0x18
	.long	0xa9cd
	.quad	.LBI2178
	.value	.LVU1132
	.quad	.LBB2178
	.quad	.LBE2178-.LBB2178
	.byte	0x8
	.value	0x27e
	.byte	0x1c
	.uleb128 0x4
	.long	0xa9db
	.long	.LLST59
	.long	.LVUS59
	.uleb128 0x4
	.long	0xa9e4
	.long	.LLST60
	.long	.LVUS60
	.uleb128 0x4
	.long	0xa9f0
	.long	.LLST61
	.long	.LVUS61
	.uleb128 0x2f
	.quad	.LVL208
	.long	0xa96f
	.uleb128 0x1f
	.uleb128 0x1
	.byte	0x55
	.uleb128 0x2
	.byte	0x7e
	.sleb128 0
	.byte	0
	.byte	0
	.byte	0
	.byte	0
	.byte	0
	.byte	0
	.uleb128 0x17
	.long	0xb516
	.quad	.LBI2182
	.value	.LVU1139
	.long	.LLRL62
	.byte	0x2
	.value	0x250
	.byte	0x1b
	.uleb128 0x4
	.long	0xb524
	.long	.LLST63
	.long	.LVUS63
	.uleb128 0x4
	.long	0xb52d
	.long	.LLST64
	.long	.LVUS64
	.uleb128 0x3
	.long	0xb53a
	.uleb128 0x17
	.long	0xbcc6
	.quad	.LBI2183
	.value	.LVU1140
	.long	.LLRL62
	.byte	0x2
	.value	0x7c6
	.byte	0x21
	.uleb128 0x4
	.long	0xbcf4
	.long	.LLST66
	.long	.LVUS66
	.uleb128 0x4
	.long	0xbd01
	.long	.LLST67
	.long	.LVUS67
	.uleb128 0x3
	.long	0xbd0e
	.uleb128 0x4
	.long	0xbd1b
	.long	.LLST69
	.long	.LVUS69
	.uleb128 0x17
	.long	0xb40f
	.quad	.LBI2184
	.value	.LVU1141
	.long	.LLRL62
	.byte	0xc
	.value	0x30a
	.byte	0x27
	.uleb128 0x4
	.long	0xb434
	.long	.LLST70
	.long	.LVUS70
	.uleb128 0x4
	.long	0xb441
	.long	.LLST71
	.long	.LVUS71
	.uleb128 0x3
	.long	0xb44e
	.uleb128 0x69
	.long	0xb45b
	.long	.LLRL73
	.uleb128 0x69
	.long	0xb45c
	.long	.LLRL74
	.uleb128 0x2e
	.long	0xb45d
	.long	.LLST75
	.long	.LVUS75
	.uleb128 0x2f
	.quad	.LVL210
	.long	0x11922
	.uleb128 0x1f
	.uleb128 0x1
	.byte	0x54
	.uleb128 0x1
	.byte	0x30
	.uleb128 0x1f
	.uleb128 0x1
	.byte	0x51
	.uleb128 0x2
	.byte	0x7e
	.sleb128 0
	.byte	0
	.byte	0
	.byte	0
	.byte	0
	.byte	0
	.byte	0
	.byte	0
	.uleb128 0x2d
	.long	0xbd95
	.quad	.LBI2196
	.value	.LVU1145
	.quad	.LBB2196
	.quad	.LBE2196-.LBB2196
	.byte	0x7
	.value	0x11b
	.byte	0x1e
	.long	0xee26
	.uleb128 0x4
	.long	0xbda3
	.long	.LLST76
	.long	.LVUS76
	.uleb128 0x4
	.long	0xbdac
	.long	.LLST77
	.long	.LVUS77
	.uleb128 0x3a
	.long	0xbdb8
	.uleb128 0x2b
	.long	0xc82a
	.quad	.LBI2198
	.value	.LVU1146
	.quad	.LBB2198
	.quad	.LBE2198-.LBB2198
	.byte	0x2
	.byte	0x84
	.byte	0x16
	.long	0xede8
	.uleb128 0x4
	.long	0xc838
	.long	.LLST78
	.long	.LVUS78
	.byte	0
	.uleb128 0x20
	.long	0xb4f2
	.quad	.LBI2199
	.value	.LVU1148
	.quad	.LBB2199
	.quad	.LBE2199-.LBB2199
	.byte	0x2
	.byte	0x87
	.byte	0x14
	.uleb128 0x4
	.long	0xb500
	.long	.LLST79
	.long	.LVUS79
	.uleb128 0x4
	.long	0xb509
	.long	.LLST80
	.long	.LVUS80
	.byte	0
	.byte	0
	.uleb128 0x18
	.long	0xcd35
	.quad	.LBI2201
	.value	.LVU1154
	.quad	.LBB2201
	.quad	.LBE2201-.LBB2201
	.byte	0x7
	.value	0x11c
	.byte	0x2
	.uleb128 0x4
	.long	0xcd43
	.long	.LLST81
	.long	.LVUS81
	.uleb128 0x2d
	.long	0xc7b1
	.quad	.LBI2202
	.value	.LVU1155
	.quad	.LBB2202
	.quad	.LBE2202-.LBB2202
	.byte	0x2
	.value	0x319
	.byte	0x1c
	.long	0xee8b
	.uleb128 0x4
	.long	0xc7bf
	.long	.LLST82
	.long	.LVUS82
	.byte	0
	.uleb128 0x2d
	.long	0xc775
	.quad	.LBI2203
	.value	.LVU1157
	.quad	.LBB2203
	.quad	.LBE2203-.LBB2203
	.byte	0x2
	.value	0x318
	.byte	0xf
	.long	0xeeca
	.uleb128 0x3
	.long	0xc791
	.uleb128 0x3
	.long	0xc79e
	.uleb128 0x4
	.long	0xc7ab
	.long	.LLST83
	.long	.LVUS83
	.byte	0
	.uleb128 0x18
	.long	0xcd64
	.quad	.LBI2204
	.value	.LVU1159
	.quad	.LBB2204
	.quad	.LBE2204-.LBB2204
	.byte	0x2
	.value	0x31b
	.byte	0x7
	.uleb128 0x4
	.long	0xcd72
	.long	.LLST84
	.long	.LVUS84
	.uleb128 0x77
	.long	0xcd7b
	.quad	.LBB2205
	.quad	.LBE2205-.LBB2205
	.long	0xef6c
	.uleb128 0x2e
	.long	0xcd7c
	.long	.LLST85
	.long	.LVUS85
	.uleb128 0x18
	.long	0xc7c9
	.quad	.LBI2206
	.value	.LVU1160
	.quad	.LBB2206
	.quad	.LBE2206-.LBB2206
	.byte	0x2
	.value	0x17a
	.byte	0xf
	.uleb128 0x4
	.long	0xc7d7
	.long	.LLST86
	.long	.LVUS86
	.uleb128 0x4
	.long	0xc7e0
	.long	.LLST87
	.long	.LVUS87
	.uleb128 0x4
	.long	0xc7ed
	.long	.LLST87
	.long	.LVUS87
	.byte	0
	.byte	0
	.uleb128 0x18
	.long	0x116fc
	.quad	.LBI2207
	.value	.LVU1162
	.quad	.LBB2207
	.quad	.LBE2207-.LBB2207
	.byte	0x2
	.value	0x17b
	.byte	0x7
	.uleb128 0x4
	.long	0x1170c
	.long	.LLST89
	.long	.LVUS89
	.uleb128 0x20
	.long	0xcdad
	.quad	.LBI2208
	.value	.LVU1163
	.quad	.LBB2208
	.quad	.LBE2208-.LBB2208
	.byte	0x2
	.byte	0x8b
	.byte	0xe
	.uleb128 0x4
	.long	0xcdbb
	.long	.LLST90
	.long	.LVUS90
	.uleb128 0x20
	.long	0xc7fb
	.quad	.LBI2209
	.value	.LVU1164
	.quad	.LBB2209
	.quad	.LBE2209-.LBB2209
	.byte	0x5
	.byte	0xbd
	.byte	0x27
	.uleb128 0x4
	.long	0xc809
	.long	.LLST91
	.long	.LVUS91
	.byte	0
	.byte	0
	.byte	0
	.byte	0
	.byte	0
	.byte	0
	.byte	0
	.byte	0
	.uleb128 0x30
	.long	0x115b9
	.quad	.LBI2218
	.value	.LVU45
	.long	.LLRL92
	.byte	0x1
	.byte	0x2e
	.byte	0x1c
	.long	0xf0e6
	.uleb128 0x4
	.long	0x115c7
	.long	.LLST93
	.long	.LVUS93
	.uleb128 0x17
	.long	0x115e4
	.quad	.LBI2219
	.value	.LVU46
	.long	.LLRL92
	.byte	0x2
	.value	0x227
	.byte	0x7
	.uleb128 0x4
	.long	0x115f2
	.long	.LLST94
	.long	.LVUS94
	.uleb128 0x17
	.long	0xccd8
	.quad	.LBI2220
	.value	.LVU47
	.long	.LLRL92
	.byte	0x2
	.value	0x141
	.byte	0x7
	.uleb128 0x4
	.long	0xcce6
	.long	.LLST95
	.long	.LVUS95
	.uleb128 0x30
	.long	0xc6e8
	.quad	.LBI2221
	.value	.LVU48
	.long	.LLRL96
	.byte	0x2
	.byte	0x94
	.byte	0x13
	.long	0xf0bd
	.uleb128 0x4
	.long	0xc6f6
	.long	.LLST97
	.long	.LVUS97
	.uleb128 0x68
	.long	0xbc1a
	.quad	.LBI2222
	.value	.LVU49
	.long	.LLRL96
	.byte	0x5
	.byte	0xa8
	.byte	0x24
	.uleb128 0x4
	.long	0xbc28
	.long	.LLST98
	.long	.LVUS98
	.byte	0
	.byte	0
	.uleb128 0x9d
	.long	0xc6bd
	.quad	.LBI2224
	.value	.LVU51
	.long	.LLRL99
	.byte	0x2
	.byte	0x94
	.byte	0x13
	.byte	0x1
	.uleb128 0x4
	.long	0xc6cb
	.long	.LLST100
	.long	.LVUS100
	.byte	0
	.byte	0
	.byte	0
	.byte	0
	.uleb128 0x30
	.long	0xcc18
	.quad	.LBI2249
	.value	.LVU54
	.long	.LLRL101
	.byte	0x1
	.byte	0x2f
	.byte	0x13
	.long	0xf113
	.uleb128 0x4
	.long	0xcc26
	.long	.LLST102
	.long	.LVUS102
	.uleb128 0x3a
	.long	0xcc2f
	.byte	0
	.uleb128 0x3e
	.long	0xcbda
	.quad	.LBI2254
	.value	.LVU57
	.long	.LLRL103
	.byte	0x1
	.byte	0x2f
	.byte	0x13
	.byte	0x1
	.long	0xf23c
	.uleb128 0x4
	.long	0xcbe8
	.long	.LLST104
	.long	.LVUS104
	.uleb128 0x4
	.long	0xcbf1
	.long	.LLST105
	.long	.LVUS105
	.uleb128 0xd2
	.long	0xcbfd
	.quad	.LBB2256
	.quad	.LBE2256-.LBB2256
	.uleb128 0x2e
	.long	0xcbfe
	.long	.LLST106
	.long	.LVUS106
	.uleb128 0x2e
	.long	0xcc0a
	.long	.LLST107
	.long	.LVUS107
	.uleb128 0x20
	.long	0xc585
	.quad	.LBI2257
	.value	.LVU63
	.quad	.LBB2257
	.quad	.LBE2257-.LBB2257
	.byte	0x7
	.byte	0x52
	.byte	0x21
	.uleb128 0x4
	.long	0xc593
	.long	.LLST108
	.long	.LVUS108
	.uleb128 0x3
	.long	0xc59c
	.uleb128 0x7f
	.long	0xbb4d
	.quad	.LBI2259
	.value	.LVU64
	.quad	.LBB2259
	.quad	.LBE2259-.LBB2259
	.value	0x185
	.byte	0x21
	.byte	0x1
	.uleb128 0x4
	.long	0xbb57
	.long	.LLST109
	.long	.LVUS109
	.uleb128 0x3
	.long	0xbb64
	.uleb128 0x18
	.long	0xb332
	.quad	.LBI2260
	.value	.LVU65
	.quad	.LBB2260
	.quad	.LBE2260-.LBB2260
	.byte	0x8
	.value	0x27e
	.byte	0x1c
	.uleb128 0x4
	.long	0xb355
	.long	.LLST110
	.long	.LVUS110
	.uleb128 0x4
	.long	0xb340
	.long	.LLST111
	.long	.LVUS111
	.uleb128 0x3
	.long	0xb349
	.uleb128 0x2f
	.quad	.LVL10
	.long	0xa96f
	.uleb128 0x1f
	.uleb128 0x1
	.byte	0x55
	.uleb128 0x2
	.byte	0x7f
	.sleb128 0
	.byte	0
	.byte	0
	.byte	0
	.byte	0
	.byte	0
	.byte	0
	.uleb128 0x3e
	.long	0xcc3d
	.quad	.LBI2384
	.value	.LVU1092
	.long	.LLRL196
	.byte	0x1
	.byte	0xc1
	.byte	0x1
	.byte	0x3
	.long	0xf49c
	.uleb128 0x4
	.long	0xcc4b
	.long	.LLST197
	.long	.LVUS197
	.uleb128 0x3d
	.long	0xcc68
	.quad	.LBI2385
	.value	.LVU1097
	.long	.LLRL198
	.byte	0x2
	.value	0x31b
	.byte	0x7
	.long	0xf42b
	.uleb128 0x4
	.long	0xcc76
	.long	.LLST199
	.long	.LVUS199
	.uleb128 0x6b
	.long	0xcc7f
	.long	.LLRL200
	.long	0xf399
	.uleb128 0x3a
	.long	0xcc80
	.uleb128 0x18
	.long	0xc660
	.quad	.LBI2387
	.value	.LVU1098
	.quad	.LBB2387
	.quad	.LBE2387-.LBB2387
	.byte	0x2
	.value	0x17a
	.byte	0xf
	.uleb128 0x4
	.long	0xc66e
	.long	.LLST201
	.long	.LVUS201
	.uleb128 0x3
	.long	0xc677
	.uleb128 0x3
	.long	0xc684
	.uleb128 0x18
	.long	0xc660
	.quad	.LBI2389
	.value	.LVU1100
	.quad	.LBB2389
	.quad	.LBE2389-.LBB2389
	.byte	0x2
	.value	0x18a
	.byte	0x7
	.uleb128 0x4
	.long	0xc66e
	.long	.LLST202
	.long	.LVUS202
	.uleb128 0x3
	.long	0xc677
	.uleb128 0x3
	.long	0xc684
	.uleb128 0x18
	.long	0xbbe8
	.quad	.LBI2391
	.value	.LVU1101
	.quad	.LBB2391
	.quad	.LBE2391-.LBB2391
	.byte	0x2
	.value	0x18e
	.byte	0x13
	.uleb128 0x3
	.long	0xbbf2
	.uleb128 0x3
	.long	0xbbff
	.uleb128 0x3
	.long	0xbc0c
	.uleb128 0x18
	.long	0xb373
	.quad	.LBI2392
	.value	.LVU1102
	.quad	.LBB2392
	.quad	.LBE2392-.LBB2392
	.byte	0x8
	.value	0x2b1
	.byte	0x17
	.uleb128 0x3
	.long	0xb381
	.uleb128 0x3
	.long	0xb38a
	.uleb128 0x3
	.long	0xb396
	.uleb128 0x2f
	.quad	.LVL201
	.long	0xa954
	.uleb128 0x1f
	.uleb128 0x1
	.byte	0x55
	.uleb128 0x4
	.byte	0x77
	.sleb128 88
	.byte	0x6
	.uleb128 0x1f
	.uleb128 0x1
	.byte	0x54
	.uleb128 0x4
	.byte	0x77
	.sleb128 64
	.byte	0x6
	.byte	0
	.byte	0
	.byte	0
	.byte	0
	.byte	0
	.byte	0
	.uleb128 0x18
	.long	0x1160f
	.quad	.LBI2395
	.value	.LVU1105
	.quad	.LBB2395
	.quad	.LBE2395-.LBB2395
	.byte	0x2
	.value	0x17b
	.byte	0x7
	.uleb128 0x4
	.long	0x1161f
	.long	.LLST203
	.long	.LVUS203
	.uleb128 0x20
	.long	0xccad
	.quad	.LBI2396
	.value	.LVU1106
	.quad	.LBB2396
	.quad	.LBE2396-.LBB2396
	.byte	0x2
	.byte	0x8b
	.byte	0xe
	.uleb128 0x4
	.long	0xccbb
	.long	.LLST204
	.long	.LVUS204
	.uleb128 0x20
	.long	0xc692
	.quad	.LBI2397
	.value	.LVU1107
	.quad	.LBB2397
	.quad	.LBE2397-.LBB2397
	.byte	0x5
	.byte	0xbd
	.byte	0x27
	.uleb128 0x4
	.long	0xc6a0
	.long	.LLST205
	.long	.LVUS205
	.byte	0
	.byte	0
	.byte	0
	.byte	0
	.uleb128 0x2d
	.long	0xc648
	.quad	.LBI2398
	.value	.LVU1093
	.quad	.LBB2398
	.quad	.LBE2398-.LBB2398
	.byte	0x2
	.value	0x319
	.byte	0x1c
	.long	0xf460
	.uleb128 0x4
	.long	0xc656
	.long	.LLST206
	.long	.LVUS206
	.byte	0
	.uleb128 0x18
	.long	0xc60c
	.quad	.LBI2399
	.value	.LVU1095
	.quad	.LBB2399
	.quad	.LBE2399-.LBB2399
	.byte	0x2
	.value	0x318
	.byte	0xf
	.uleb128 0x3
	.long	0xc628
	.uleb128 0x3
	.long	0xc635
	.uleb128 0x4
	.long	0xc642
	.long	.LLST207
	.long	.LVUS207
	.byte	0
	.byte	0
	.uleb128 0x2b
	.long	0xcb3e
	.quad	.LBI2401
	.value	.LVU167
	.quad	.LBB2401
	.quad	.LBE2401-.LBB2401
	.byte	0x1
	.byte	0x46
	.byte	0x2e
	.long	0xf4f0
	.uleb128 0x3
	.long	0xcb4c
	.uleb128 0x20
	.long	0xc3a8
	.quad	.LBI2402
	.value	.LVU168
	.quad	.LBB2402
	.quad	.LBE2402-.LBB2402
	.byte	0x5
	.byte	0xa8
	.byte	0x24
	.uleb128 0x3
	.long	0xc3b6
	.byte	0
	.byte	0
	.uleb128 0x3e
	.long	0xcaaa
	.quad	.LBI2403
	.value	.LVU170
	.long	.LLRL210
	.byte	0x1
	.byte	0x46
	.byte	0x2e
	.byte	0x1
	.long	0xf966
	.uleb128 0x3
	.long	0xcab8
	.uleb128 0x4
	.long	0xcac1
	.long	.LLST211
	.long	.LVUS211
	.uleb128 0x3
	.long	0xcace
	.uleb128 0x3
	.long	0xcadb
	.uleb128 0x3d
	.long	0xc354
	.quad	.LBI2404
	.value	.LVU171
	.long	.LLRL214
	.byte	0x2
	.value	0x24f
	.byte	0x2f
	.long	0xf624
	.uleb128 0x4
	.long	0xc35e
	.long	.LLST215
	.long	.LVUS215
	.uleb128 0x3
	.long	0xc36b
	.uleb128 0x2d
	.long	0xb926
	.quad	.LBI2406
	.value	.LVU172
	.quad	.LBB2406
	.quad	.LBE2406-.LBB2406
	.byte	0x2
	.value	0x89d
	.byte	0x18
	.long	0xf5b3
	.uleb128 0x3
	.long	0xb934
	.uleb128 0x3
	.long	0xb93d
	.uleb128 0x20
	.long	0xb2ae
	.quad	.LBI2407
	.value	.LVU173
	.quad	.LBB2407
	.quad	.LBE2407-.LBB2407
	.byte	0x5
	.byte	0xad
	.byte	0x22
	.uleb128 0x3
	.long	0xb2bc
	.uleb128 0x3
	.long	0xb2c5
	.byte	0
	.byte	0
	.uleb128 0x76
	.long	0xcb0f
	.quad	.LBI2408
	.value	.LVU175
	.quad	.LBB2408
	.quad	.LBE2408-.LBB2408
	.value	0x89d
	.byte	0x18
	.byte	0x2
	.long	0xf608
	.uleb128 0x3
	.long	0xcb1d
	.uleb128 0x20
	.long	0xc379
	.quad	.LBI2409
	.value	.LVU176
	.quad	.LBB2409
	.quad	.LBE2409-.LBB2409
	.byte	0x5
	.byte	0xbd
	.byte	0x27
	.uleb128 0x3
	.long	0xc387
	.byte	0
	.byte	0
	.uleb128 0x2f
	.quad	.LVL253
	.long	0x6d92
	.uleb128 0x1f
	.uleb128 0x1
	.byte	0x55
	.uleb128 0x9
	.byte	0x3
	.quad	.LC0
	.byte	0
	.byte	0
	.uleb128 0x58
	.long	0xc2d0
	.quad	.LBI2411
	.value	.LVU179
	.long	.LLRL219
	.byte	0x2
	.value	0x24f
	.byte	0x2f
	.byte	0x1
	.long	0xf7da
	.uleb128 0x3
	.long	0xc2de
	.uleb128 0x4
	.long	0xc2e7
	.long	.LLST220
	.long	.LVUS220
	.uleb128 0x3
	.long	0xc2f4
	.uleb128 0x2d
	.long	0xb8e6
	.quad	.LBI2412
	.value	.LVU180
	.quad	.LBB2412
	.quad	.LBE2412-.LBB2412
	.byte	0x2
	.value	0x154
	.byte	0x9
	.long	0xf70f
	.uleb128 0x3
	.long	0xb8f4
	.uleb128 0x3
	.long	0xb8fd
	.uleb128 0x2b
	.long	0xb926
	.quad	.LBI2413
	.value	.LVU181
	.quad	.LBB2413
	.quad	.LBE2413-.LBB2413
	.byte	0x2
	.byte	0x99
	.byte	0x16
	.long	0xf6e6
	.uleb128 0x3
	.long	0xb934
	.uleb128 0x3
	.long	0xb93d
	.uleb128 0x20
	.long	0xb2ae
	.quad	.LBI2414
	.value	.LVU182
	.quad	.LBB2414
	.quad	.LBE2414-.LBB2414
	.byte	0x5
	.byte	0xad
	.byte	0x22
	.uleb128 0x3
	.long	0xb2bc
	.uleb128 0x3
	.long	0xb2c5
	.byte	0
	.byte	0
	.uleb128 0x6a
	.long	0xb27f
	.quad	.LBI2415
	.value	.LVU184
	.quad	.LBB2415
	.quad	.LBE2415-.LBB2415
	.byte	0x2
	.byte	0x99
	.byte	0x1
	.uleb128 0x3
	.long	0xb28d
	.byte	0
	.byte	0
	.uleb128 0x17
	.long	0xb8c1
	.quad	.LBI2416
	.value	.LVU186
	.long	.LLRL225
	.byte	0x2
	.value	0x155
	.byte	0x1a
	.uleb128 0x3
	.long	0xb8cf
	.uleb128 0x4
	.long	0xb8d8
	.long	.LLST226
	.long	.LVUS226
	.uleb128 0x17
	.long	0xb25a
	.quad	.LBI2418
	.value	.LVU187
	.long	.LLRL227
	.byte	0x2
	.value	0x197
	.byte	0x2c
	.uleb128 0x3
	.long	0xb268
	.uleb128 0x4
	.long	0xb271
	.long	.LLST228
	.long	.LVUS228
	.uleb128 0x62
	.long	0xae85
	.quad	.LBI2420
	.value	.LVU189
	.long	.LLRL229
	.byte	0x2
	.value	0x185
	.byte	0x21
	.byte	0x1
	.uleb128 0x3
	.long	0xae8f
	.uleb128 0x4
	.long	0xae9c
	.long	.LLST230
	.long	.LVUS230
	.uleb128 0x17
	.long	0xac65
	.quad	.LBI2421
	.value	.LVU190
	.long	.LLRL229
	.byte	0x8
	.value	0x27e
	.byte	0x1c
	.uleb128 0x3
	.long	0xac73
	.uleb128 0x4
	.long	0xac88
	.long	.LLST231
	.long	.LVUS231
	.uleb128 0x4
	.long	0xac7c
	.long	.LLST232
	.long	.LVUS232
	.uleb128 0x2f
	.quad	.LVL42
	.long	0xa96f
	.uleb128 0x1f
	.uleb128 0x1
	.byte	0x55
	.uleb128 0x2
	.byte	0x73
	.sleb128 0
	.byte	0
	.byte	0
	.byte	0
	.byte	0
	.byte	0
	.byte	0
	.uleb128 0x17
	.long	0xc255
	.quad	.LBI2434
	.value	.LVU196
	.long	.LLRL233
	.byte	0x2
	.value	0x250
	.byte	0x1b
	.uleb128 0x3
	.long	0xc263
	.uleb128 0x4
	.long	0xc26c
	.long	.LLST234
	.long	.LVUS234
	.uleb128 0x3
	.long	0xc279
	.uleb128 0x17
	.long	0xb834
	.quad	.LBI2435
	.value	.LVU197
	.long	.LLRL233
	.byte	0x2
	.value	0x7c6
	.byte	0x21
	.uleb128 0x4
	.long	0xb862
	.long	.LLST236
	.long	.LVUS236
	.uleb128 0x4
	.long	0xb86f
	.long	.LLST237
	.long	.LVUS237
	.uleb128 0x3
	.long	0xb87c
	.uleb128 0x3
	.long	0xb889
	.uleb128 0x17
	.long	0xb1db
	.quad	.LBI2436
	.value	.LVU198
	.long	.LLRL233
	.byte	0xc
	.value	0x30a
	.byte	0x27
	.uleb128 0x4
	.long	0xb200
	.long	.LLST239
	.long	.LVUS239
	.uleb128 0x4
	.long	0xb20d
	.long	.LLST240
	.long	.LVUS240
	.uleb128 0x3
	.long	0xb21a
	.uleb128 0x17
	.long	0xadfb
	.quad	.LBI2438
	.value	.LVU199
	.long	.LLRL242
	.byte	0xc
	.value	0x253
	.byte	0x25
	.uleb128 0x4
	.long	0xae20
	.long	.LLST243
	.long	.LVUS243
	.uleb128 0x4
	.long	0xae2d
	.long	.LLST244
	.long	.LVUS244
	.uleb128 0x3
	.long	0xae3a
	.uleb128 0x3a
	.long	0xae47
	.uleb128 0x9e
	.long	0xabb8
	.long	.LLRL246
	.long	0xf8ee
	.uleb128 0x3
	.long	0xabda
	.uleb128 0x3
	.long	0xabef
	.uleb128 0x2f
	.quad	.LVL44
	.long	0x11922
	.uleb128 0x1f
	.uleb128 0x1
	.byte	0x55
	.uleb128 0x4
	.byte	0x77
	.sleb128 80
	.byte	0x6
	.uleb128 0x1f
	.uleb128 0x1
	.byte	0x54
	.uleb128 0x1
	.byte	0x30
	.uleb128 0x1f
	.uleb128 0x1
	.byte	0x51
	.uleb128 0x2
	.byte	0x73
	.sleb128 0
	.byte	0
	.byte	0
	.uleb128 0x2d
	.long	0xac25
	.quad	.LBI2443
	.value	.LVU200
	.quad	.LBB2443
	.quad	.LBE2443-.LBB2443
	.byte	0xc
	.value	0x1df
	.byte	0x2d
	.long	0xf930
	.uleb128 0x4
	.long	0xac33
	.long	.LLST247
	.long	.LVUS247
	.uleb128 0x4
	.long	0xac3c
	.long	.LLST248
	.long	.LVUS248
	.byte	0
	.uleb128 0x18
	.long	0xabf6
	.quad	.LBI2445
	.value	.LVU206
	.quad	.LBB2445
	.quad	.LBE2445-.LBB2445
	.byte	0xc
	.value	0x1ef
	.byte	0x5
	.uleb128 0x4
	.long	0xac04
	.long	.LLST249
	.long	.LVUS249
	.byte	0
	.byte	0
	.byte	0
	.byte	0
	.byte	0
	.byte	0
	.uleb128 0x4c
	.long	0xcb0f
	.quad	.LBI2455
	.value	.LVU208
	.quad	.LBB2455
	.quad	.LBE2455-.LBB2455
	.byte	0x46
	.byte	0x2e
	.byte	0x2
	.long	0xf9ba
	.uleb128 0x3
	.long	0xcb1d
	.uleb128 0x20
	.long	0xc379
	.quad	.LBI2456
	.value	.LVU209
	.quad	.LBB2456
	.quad	.LBE2456-.LBB2456
	.byte	0x5
	.byte	0xbd
	.byte	0x27
	.uleb128 0x3
	.long	0xc387
	.byte	0
	.byte	0
	.uleb128 0x2b
	.long	0xcb3e
	.quad	.LBI2457
	.value	.LVU212
	.quad	.LBB2457
	.quad	.LBE2457-.LBB2457
	.byte	0x1
	.byte	0x47
	.byte	0x38
	.long	0xfa0e
	.uleb128 0x3
	.long	0xcb4c
	.uleb128 0x20
	.long	0xc3a8
	.quad	.LBI2458
	.value	.LVU213
	.quad	.LBB2458
	.quad	.LBE2458-.LBB2458
	.byte	0x5
	.byte	0xa8
	.byte	0x24
	.uleb128 0x3
	.long	0xc3b6
	.byte	0
	.byte	0
	.uleb128 0x3e
	.long	0xcaaa
	.quad	.LBI2459
	.value	.LVU218
	.long	.LLRL254
	.byte	0x1
	.byte	0x47
	.byte	0x38
	.byte	0x1
	.long	0xfe72
	.uleb128 0x3
	.long	0xcab8
	.uleb128 0x4
	.long	0xcac1
	.long	.LLST255
	.long	.LVUS255
	.uleb128 0x3
	.long	0xcace
	.uleb128 0x3
	.long	0xcadb
	.uleb128 0x3d
	.long	0xc354
	.quad	.LBI2460
	.value	.LVU219
	.long	.LLRL258
	.byte	0x2
	.value	0x24f
	.byte	0x2f
	.long	0xfb42
	.uleb128 0x4
	.long	0xc35e
	.long	.LLST259
	.long	.LVUS259
	.uleb128 0x3
	.long	0xc36b
	.uleb128 0x2d
	.long	0xb926
	.quad	.LBI2462
	.value	.LVU220
	.quad	.LBB2462
	.quad	.LBE2462-.LBB2462
	.byte	0x2
	.value	0x89d
	.byte	0x18
	.long	0xfad1
	.uleb128 0x3
	.long	0xb934
	.uleb128 0x3
	.long	0xb93d
	.uleb128 0x20
	.long	0xb2ae
	.quad	.LBI2463
	.value	.LVU221
	.quad	.LBB2463
	.quad	.LBE2463-.LBB2463
	.byte	0x5
	.byte	0xad
	.byte	0x22
	.uleb128 0x3
	.long	0xb2bc
	.uleb128 0x3
	.long	0xb2c5
	.byte	0
	.byte	0
	.uleb128 0x76
	.long	0xcb0f
	.quad	.LBI2464
	.value	.LVU223
	.quad	.LBB2464
	.quad	.LBE2464-.LBB2464
	.value	0x89d
	.byte	0x18
	.byte	0x2
	.long	0xfb26
	.uleb128 0x3
	.long	0xcb1d
	.uleb128 0x20
	.long	0xc379
	.quad	.LBI2465
	.value	.LVU224
	.quad	.LBB2465
	.quad	.LBE2465-.LBB2465
	.byte	0x5
	.byte	0xbd
	.byte	0x27
	.uleb128 0x3
	.long	0xc387
	.byte	0
	.byte	0
	.uleb128 0x2f
	.quad	.LVL251
	.long	0x6d92
	.uleb128 0x1f
	.uleb128 0x1
	.byte	0x55
	.uleb128 0x9
	.byte	0x3
	.quad	.LC0
	.byte	0
	.byte	0
	.uleb128 0x58
	.long	0xc2d0
	.quad	.LBI2467
	.value	.LVU228
	.long	.LLRL263
	.byte	0x2
	.value	0x24f
	.byte	0x2f
	.byte	0x1
	.long	0xfce8
	.uleb128 0x3
	.long	0xc2de
	.uleb128 0x4
	.long	0xc2e7
	.long	.LLST264
	.long	.LVUS264
	.uleb128 0x3
	.long	0xc2f4
	.uleb128 0x2d
	.long	0xb8e6
	.quad	.LBI2468
	.value	.LVU229
	.quad	.LBB2468
	.quad	.LBE2468-.LBB2468
	.byte	0x2
	.value	0x154
	.byte	0x9
	.long	0xfc2d
	.uleb128 0x3
	.long	0xb8f4
	.uleb128 0x3
	.long	0xb8fd
	.uleb128 0x2b
	.long	0xb926
	.quad	.LBI2469
	.value	.LVU230
	.quad	.LBB2469
	.quad	.LBE2469-.LBB2469
	.byte	0x2
	.byte	0x99
	.byte	0x16
	.long	0xfc04
	.uleb128 0x3
	.long	0xb934
	.uleb128 0x3
	.long	0xb93d
	.uleb128 0x20
	.long	0xb2ae
	.quad	.LBI2470
	.value	.LVU231
	.quad	.LBB2470
	.quad	.LBE2470-.LBB2470
	.byte	0x5
	.byte	0xad
	.byte	0x22
	.uleb128 0x3
	.long	0xb2bc
	.uleb128 0x3
	.long	0xb2c5
	.byte	0
	.byte	0
	.uleb128 0x6a
	.long	0xb27f
	.quad	.LBI2471
	.value	.LVU233
	.quad	.LBB2471
	.quad	.LBE2471-.LBB2471
	.byte	0x2
	.byte	0x99
	.byte	0x1
	.uleb128 0x3
	.long	0xb28d
	.byte	0
	.byte	0
	.uleb128 0x17
	.long	0xb8c1
	.quad	.LBI2472
	.value	.LVU235
	.long	.LLRL269
	.byte	0x2
	.value	0x155
	.byte	0x1a
	.uleb128 0x3
	.long	0xb8cf
	.uleb128 0x4
	.long	0xb8d8
	.long	.LLST270
	.long	.LVUS270
	.uleb128 0x17
	.long	0xb25a
	.quad	.LBI2474
	.value	.LVU236
	.long	.LLRL271
	.byte	0x2
	.value	0x197
	.byte	0x2c
	.uleb128 0x3
	.long	0xb268
	.uleb128 0x4
	.long	0xb271
	.long	.LLST272
	.long	.LVUS272
	.uleb128 0x62
	.long	0xae85
	.quad	.LBI2476
	.value	.LVU240
	.long	.LLRL273
	.byte	0x2
	.value	0x185
	.byte	0x21
	.byte	0x1
	.uleb128 0x3
	.long	0xae8f
	.uleb128 0x3
	.long	0xae9c
	.uleb128 0x17
	.long	0xac65
	.quad	.LBI2477
	.value	.LVU241
	.long	.LLRL274
	.byte	0x8
	.value	0x27e
	.byte	0x1c
	.uleb128 0x3
	.long	0xac73
	.uleb128 0x4
	.long	0xac88
	.long	.LLST275
	.long	.LVUS275
	.uleb128 0x3
	.long	0xac7c
	.uleb128 0x2f
	.quad	.LVL50
	.long	0xa96f
	.uleb128 0x1f
	.uleb128 0x1
	.byte	0x55
	.uleb128 0x2
	.byte	0x7f
	.sleb128 0
	.byte	0
	.byte	0
	.byte	0
	.byte	0
	.byte	0
	.byte	0
	.uleb128 0x17
	.long	0xc255
	.quad	.LBI2492
	.value	.LVU247
	.long	.LLRL276
	.byte	0x2
	.value	0x250
	.byte	0x1b
	.uleb128 0x3
	.long	0xc263
	.uleb128 0x4
	.long	0xc26c
	.long	.LLST277
	.long	.LVUS277
	.uleb128 0x3
	.long	0xc279
	.uleb128 0x17
	.long	0xb834
	.quad	.LBI2493
	.value	.LVU248
	.long	.LLRL276
	.byte	0x2
	.value	0x7c6
	.byte	0x21
	.uleb128 0x4
	.long	0xb862
	.long	.LLST279
	.long	.LVUS279
	.uleb128 0x4
	.long	0xb86f
	.long	.LLST280
	.long	.LVUS280
	.uleb128 0x3
	.long	0xb87c
	.uleb128 0x3
	.long	0xb889
	.uleb128 0x17
	.long	0xb1db
	.quad	.LBI2494
	.value	.LVU249
	.long	.LLRL276
	.byte	0xc
	.value	0x30a
	.byte	0x27
	.uleb128 0x4
	.long	0xb200
	.long	.LLST282
	.long	.LVUS282
	.uleb128 0x4
	.long	0xb20d
	.long	.LLST283
	.long	.LVUS283
	.uleb128 0x3
	.long	0xb21a
	.uleb128 0x17
	.long	0xadfb
	.quad	.LBI2496
	.value	.LVU250
	.long	.LLRL285
	.byte	0xc
	.value	0x253
	.byte	0x25
	.uleb128 0x4
	.long	0xae20
	.long	.LLST286
	.long	.LVUS286
	.uleb128 0x4
	.long	0xae2d
	.long	.LLST287
	.long	.LVUS287
	.uleb128 0x3
	.long	0xae3a
	.uleb128 0x3a
	.long	0xae47
	.uleb128 0x9e
	.long	0xabb8
	.long	.LLRL289
	.long	0xfdfa
	.uleb128 0x3
	.long	0xabda
	.uleb128 0x3
	.long	0xabef
	.uleb128 0x2f
	.quad	.LVL52
	.long	0x11922
	.uleb128 0x1f
	.uleb128 0x1
	.byte	0x55
	.uleb128 0x2
	.byte	0x73
	.sleb128 0
	.uleb128 0x1f
	.uleb128 0x1
	.byte	0x54
	.uleb128 0x1
	.byte	0x30
	.uleb128 0x1f
	.uleb128 0x1
	.byte	0x51
	.uleb128 0x2
	.byte	0x7f
	.sleb128 0
	.byte	0
	.byte	0
	.uleb128 0x2d
	.long	0xac25
	.quad	.LBI2501
	.value	.LVU251
	.quad	.LBB2501
	.quad	.LBE2501-.LBB2501
	.byte	0xc
	.value	0x1df
	.byte	0x2d
	.long	0xfe3c
	.uleb128 0x4
	.long	0xac33
	.long	.LLST290
	.long	.LVUS290
	.uleb128 0x4
	.long	0xac3c
	.long	.LLST291
	.long	.LVUS291
	.byte	0
	.uleb128 0x18
	.long	0xabf6
	.quad	.LBI2503
	.value	.LVU258
	.quad	.LBB2503
	.quad	.LBE2503-.LBB2503
	.byte	0xc
	.value	0x1ef
	.byte	0x5
	.uleb128 0x4
	.long	0xac04
	.long	.LLST292
	.long	.LVUS292
	.byte	0
	.byte	0
	.byte	0
	.byte	0
	.byte	0
	.byte	0
	.uleb128 0x4c
	.long	0xcb0f
	.quad	.LBI2513
	.value	.LVU260
	.quad	.LBB2513
	.quad	.LBE2513-.LBB2513
	.byte	0x47
	.byte	0x38
	.byte	0x2
	.long	0xfec6
	.uleb128 0x3
	.long	0xcb1d
	.uleb128 0x20
	.long	0xc379
	.quad	.LBI2514
	.value	.LVU261
	.quad	.LBB2514
	.quad	.LBE2514-.LBB2514
	.byte	0x5
	.byte	0xbd
	.byte	0x27
	.uleb128 0x3
	.long	0xc387
	.byte	0
	.byte	0
	.uleb128 0x2b
	.long	0xc9f7
	.quad	.LBI2542
	.value	.LVU348
	.quad	.LBB2542
	.quad	.LBE2542-.LBB2542
	.byte	0x1
	.byte	0x5e
	.byte	0x35
	.long	0xff1a
	.uleb128 0x3
	.long	0xca05
	.uleb128 0x20
	.long	0xc195
	.quad	.LBI2543
	.value	.LVU349
	.quad	.LBB2543
	.quad	.LBE2543-.LBB2543
	.byte	0x5
	.byte	0xa8
	.byte	0x24
	.uleb128 0x3
	.long	0xc1a3
	.byte	0
	.byte	0
	.uleb128 0x4c
	.long	0xc975
	.quad	.LBI2544
	.value	.LVU351
	.quad	.LBB2544
	.quad	.LBE2544-.LBB2544
	.byte	0x5e
	.byte	0x35
	.byte	0x1
	.long	0x10493
	.uleb128 0x3
	.long	0xc983
	.uleb128 0x4
	.long	0xc98c
	.long	.LLST314
	.long	.LVUS314
	.uleb128 0x3
	.long	0xc999
	.uleb128 0x2d
	.long	0xc141
	.quad	.LBI2545
	.value	.LVU352
	.quad	.LBB2545
	.quad	.LBE2545-.LBB2545
	.byte	0x2
	.value	0x241
	.byte	0x2f
	.long	0x10041
	.uleb128 0x4
	.long	0xc14b
	.long	.LLST316
	.long	.LVUS316
	.uleb128 0x3
	.long	0xc158
	.uleb128 0x2d
	.long	0xb796
	.quad	.LBI2546
	.value	.LVU353
	.quad	.LBB2546
	.quad	.LBE2546-.LBB2546
	.byte	0x2
	.value	0x89d
	.byte	0x18
	.long	0xffef
	.uleb128 0x3
	.long	0xb7a4
	.uleb128 0x3
	.long	0xb7ad
	.uleb128 0x20
	.long	0xb18a
	.quad	.LBI2547
	.value	.LVU354
	.quad	.LBB2547
	.quad	.LBE2547-.LBB2547
	.byte	0x5
	.byte	0xad
	.byte	0x22
	.uleb128 0x3
	.long	0xb198
	.uleb128 0x3
	.long	0xb1a1
	.byte	0
	.byte	0
	.uleb128 0x7f
	.long	0xc9c8
	.quad	.LBI2548
	.value	.LVU356
	.quad	.LBB2548
	.quad	.LBE2548-.LBB2548
	.value	0x89d
	.byte	0x18
	.byte	0x2
	.uleb128 0x3
	.long	0xc9d6
	.uleb128 0x20
	.long	0xc166
	.quad	.LBI2549
	.value	.LVU357
	.quad	.LBB2549
	.quad	.LBE2549-.LBB2549
	.byte	0x5
	.byte	0xbd
	.byte	0x27
	.uleb128 0x3
	.long	0xc174
	.byte	0
	.byte	0
	.byte	0
	.uleb128 0x58
	.long	0xc0bd
	.quad	.LBI2550
	.value	.LVU359
	.long	.LLRL320
	.byte	0x2
	.value	0x241
	.byte	0x2f
	.byte	0x1
	.long	0x101f8
	.uleb128 0x3
	.long	0xc0cb
	.uleb128 0x4
	.long	0xc0d4
	.long	.LLST321
	.long	.LVUS321
	.uleb128 0x3
	.long	0xc0e1
	.uleb128 0x2d
	.long	0xb756
	.quad	.LBI2551
	.value	.LVU360
	.quad	.LBB2551
	.quad	.LBE2551-.LBB2551
	.byte	0x2
	.value	0x154
	.byte	0x9
	.long	0x1012c
	.uleb128 0x3
	.long	0xb764
	.uleb128 0x3
	.long	0xb76d
	.uleb128 0x2b
	.long	0xb796
	.quad	.LBI2552
	.value	.LVU361
	.quad	.LBB2552
	.quad	.LBE2552-.LBB2552
	.byte	0x2
	.byte	0x99
	.byte	0x16
	.long	0x10103
	.uleb128 0x3
	.long	0xb7a4
	.uleb128 0x3
	.long	0xb7ad
	.uleb128 0x20
	.long	0xb18a
	.quad	.LBI2553
	.value	.LVU362
	.quad	.LBB2553
	.quad	.LBE2553-.LBB2553
	.byte	0x5
	.byte	0xad
	.byte	0x22
	.uleb128 0x3
	.long	0xb198
	.uleb128 0x3
	.long	0xb1a1
	.byte	0
	.byte	0
	.uleb128 0x6a
	.long	0xb15b
	.quad	.LBI2554
	.value	.LVU364
	.quad	.LBB2554
	.quad	.LBE2554-.LBB2554
	.byte	0x2
	.byte	0x99
	.byte	0x1
	.uleb128 0x3
	.long	0xb169
	.byte	0
	.byte	0
	.uleb128 0x17
	.long	0xb731
	.quad	.LBI2555
	.value	.LVU366
	.long	.LLRL326
	.byte	0x2
	.value	0x155
	.byte	0x1a
	.uleb128 0x3
	.long	0xb73f
	.uleb128 0x4
	.long	0xb748
	.long	.LLST327
	.long	.LVUS327
	.uleb128 0x17
	.long	0xb136
	.quad	.LBI2556
	.value	.LVU367
	.long	.LLRL326
	.byte	0x2
	.value	0x197
	.byte	0x2c
	.uleb128 0x3
	.long	0xb144
	.uleb128 0x4
	.long	0xb14d
	.long	.LLST328
	.long	.LVUS328
	.uleb128 0x62
	.long	0xadbe
	.quad	.LBI2558
	.value	.LVU368
	.long	.LLRL329
	.byte	0x2
	.value	0x185
	.byte	0x21
	.byte	0x1
	.uleb128 0x3
	.long	0xadc8
	.uleb128 0x4
	.long	0xadd5
	.long	.LLST330
	.long	.LVUS330
	.uleb128 0x17
	.long	0xab5f
	.quad	.LBI2559
	.value	.LVU369
	.long	.LLRL331
	.byte	0x8
	.value	0x27e
	.byte	0x1c
	.uleb128 0x3
	.long	0xab6d
	.uleb128 0x4
	.long	0xab82
	.long	.LLST332
	.long	.LVUS332
	.uleb128 0x4
	.long	0xab76
	.long	.LLST333
	.long	.LVUS333
	.uleb128 0x2f
	.quad	.LVL76
	.long	0xa96f
	.uleb128 0x1f
	.uleb128 0x1
	.byte	0x55
	.uleb128 0x3
	.byte	0xa
	.value	0x6000
	.byte	0
	.byte	0
	.byte	0
	.byte	0
	.byte	0
	.byte	0
	.uleb128 0x17
	.long	0xc04f
	.quad	.LBI2573
	.value	.LVU377
	.long	.LLRL334
	.byte	0x2
	.value	0x242
	.byte	0x1e
	.uleb128 0x3
	.long	0xc05d
	.uleb128 0x4
	.long	0xc066
	.long	.LLST335
	.long	.LVUS335
	.uleb128 0x17
	.long	0xb6ba
	.quad	.LBI2574
	.value	.LVU378
	.long	.LLRL334
	.byte	0x2
	.value	0x7d1
	.byte	0x24
	.uleb128 0x4
	.long	0xb6df
	.long	.LLST336
	.long	.LVUS336
	.uleb128 0x4
	.long	0xb6ec
	.long	.LLST337
	.long	.LVUS337
	.uleb128 0x3
	.long	0xb6f9
	.uleb128 0x17
	.long	0xb0bf
	.quad	.LBI2575
	.value	.LVU379
	.long	.LLRL334
	.byte	0xc
	.value	0x41d
	.byte	0x2c
	.uleb128 0x4
	.long	0xb0db
	.long	.LLST338
	.long	.LVUS338
	.uleb128 0x4
	.long	0xb0e8
	.long	.LLST339
	.long	.LVUS339
	.uleb128 0x2e
	.long	0xb0f5
	.long	.LLST340
	.long	.LVUS340
	.uleb128 0x17
	.long	0xad43
	.quad	.LBI2577
	.value	.LVU380
	.long	.LLRL341
	.byte	0xc
	.value	0x3e6
	.byte	0x14
	.uleb128 0x4
	.long	0xad5f
	.long	.LLST342
	.long	.LVUS342
	.uleb128 0x4
	.long	0xad6c
	.long	.LLST343
	.long	.LVUS343
	.uleb128 0x17
	.long	0xad43
	.quad	.LBI2578
	.value	.LVU381
	.long	.LLRL344
	.byte	0xc
	.value	0x3ab
	.byte	0x9
	.uleb128 0x4
	.long	0xad5f
	.long	.LLST345
	.long	.LVUS345
	.uleb128 0x4
	.long	0xad6c
	.long	.LLST346
	.long	.LVUS346
	.uleb128 0x69
	.long	0xad79
	.long	.LLRL347
	.uleb128 0x2e
	.long	0xad7a
	.long	.LLST348
	.long	.LVUS348
	.uleb128 0x3d
	.long	0xab30
	.quad	.LBI2580
	.value	.LVU382
	.long	.LLRL349
	.byte	0xc
	.value	0x3b1
	.byte	0x17
	.long	0x10336
	.uleb128 0x4
	.long	0xab49
	.long	.LLST350
	.long	.LVUS350
	.byte	0
	.uleb128 0x17
	.long	0xaae3
	.quad	.LBI2582
	.value	.LVU384
	.long	.LLRL351
	.byte	0xc
	.value	0x3b3
	.byte	0x1d
	.uleb128 0x4
	.long	0xab08
	.long	.LLST352
	.long	.LVUS352
	.uleb128 0x4
	.long	0xab15
	.long	.LLST353
	.long	.LVUS353
	.uleb128 0x4
	.long	0xab22
	.long	.LLST354
	.long	.LVUS354
	.uleb128 0x62
	.long	0xaa0e
	.quad	.LBI2583
	.value	.LVU385
	.long	.LLRL351
	.byte	0xa
	.value	0x4a0
	.byte	0x1d
	.byte	0x1
	.uleb128 0x4
	.long	0xaa33
	.long	.LLST355
	.long	.LVUS355
	.uleb128 0x4
	.long	0xaa40
	.long	.LLST356
	.long	.LVUS356
	.uleb128 0x4
	.long	0xaa4d
	.long	.LLST357
	.long	.LVUS357
	.uleb128 0x3
	.long	0xaa5a
	.uleb128 0x2e
	.long	0xaa5f
	.long	.LLST358
	.long	.LVUS358
	.uleb128 0x2e
	.long	0xaa6c
	.long	.LLST359
	.long	.LVUS359
	.uleb128 0x17
	.long	0xa989
	.quad	.LBI2585
	.value	.LVU386
	.long	.LLRL360
	.byte	0xa
	.value	0x482
	.byte	0x14
	.uleb128 0x4
	.long	0xa9a5
	.long	.LLST361
	.long	.LVUS361
	.uleb128 0x4
	.long	0xa9b2
	.long	.LLST359
	.long	.LVUS359
	.uleb128 0x4
	.long	0xa9bf
	.long	.LLST363
	.long	.LVUS363
	.uleb128 0x17
	.long	0xb053
	.quad	.LBI2586
	.value	.LVU387
	.long	.LLRL364
	.byte	0xa
	.value	0x3d1
	.byte	0x15
	.uleb128 0x4
	.long	0xb06f
	.long	.LLST365
	.long	.LVUS365
	.uleb128 0x4
	.long	0xb07c
	.long	.LLST366
	.long	.LVUS366
	.uleb128 0x4
	.long	0xb089
	.long	.LLST367
	.long	.LVUS367
	.uleb128 0x2e
	.long	0xb096
	.long	.LLST368
	.long	.LVUS368
	.uleb128 0x2e
	.long	0xb0b1
	.long	.LLST369
	.long	.LVUS369
	.uleb128 0x2f
	.quad	.LVL78
	.long	0x11922
	.uleb128 0x1f
	.uleb128 0x1
	.byte	0x55
	.uleb128 0x2
	.byte	0x7d
	.sleb128 4
	.uleb128 0x1f
	.uleb128 0x1
	.byte	0x54
	.uleb128 0x1
	.byte	0x30
	.uleb128 0x1f
	.uleb128 0x1
	.byte	0x51
	.uleb128 0x3
	.byte	0xa
	.value	0x5ffc
	.byte	0
	.byte	0
	.byte	0
	.byte	0
	.byte	0
	.byte	0
	.byte	0
	.byte	0
	.byte	0
	.byte	0
	.byte	0
	.byte	0
	.uleb128 0x2b
	.long	0xc946
	.quad	.LBI2869
	.value	.LVU1045
	.quad	.LBB2869
	.quad	.LBE2869-.LBB2869
	.byte	0x1
	.byte	0xc1
	.byte	0x1
	.long	0x106d1
	.uleb128 0x3
	.long	0xc954
	.uleb128 0x2d
	.long	0xc037
	.quad	.LBI2870
	.value	.LVU1046
	.quad	.LBB2870
	.quad	.LBE2870-.LBB2870
	.byte	0x2
	.value	0x319
	.byte	0x1c
	.long	0x104eb
	.uleb128 0x3
	.long	0xc045
	.byte	0
	.uleb128 0x2d
	.long	0xbffb
	.quad	.LBI2871
	.value	.LVU1048
	.quad	.LBB2871
	.quad	.LBE2871-.LBB2871
	.byte	0x2
	.value	0x318
	.byte	0xf
	.long	0x10522
	.uleb128 0x3
	.long	0xc017
	.uleb128 0x3
	.long	0xc024
	.uleb128 0x3
	.long	0xc031
	.byte	0
	.uleb128 0x18
	.long	0xc074
	.quad	.LBI2872
	.value	.LVU1050
	.quad	.LBB2872
	.quad	.LBE2872-.LBB2872
	.byte	0x2
	.value	0x31b
	.byte	0x7
	.uleb128 0x3
	.long	0xc082
	.uleb128 0x77
	.long	0xc08b
	.quad	.LBB2873
	.quad	.LBE2873-.LBB2873
	.long	0x10656
	.uleb128 0x2e
	.long	0xc08c
	.long	.LLST487
	.long	.LVUS487
	.uleb128 0x18
	.long	0xb6ff
	.quad	.LBI2874
	.value	.LVU1051
	.quad	.LBB2874
	.quad	.LBE2874-.LBB2874
	.byte	0x2
	.value	0x17a
	.byte	0xf
	.uleb128 0x3
	.long	0xb70d
	.uleb128 0x4
	.long	0xb716
	.long	.LLST488
	.long	.LVUS488
	.uleb128 0x4
	.long	0xb723
	.long	.LLST489
	.long	.LVUS489
	.uleb128 0x18
	.long	0xb104
	.quad	.LBI2876
	.value	.LVU1052
	.quad	.LBB2876
	.quad	.LBE2876-.LBB2876
	.byte	0x2
	.value	0x18e
	.byte	0x13
	.uleb128 0x3
	.long	0xb10e
	.uleb128 0x4
	.long	0xb11b
	.long	.LLST490
	.long	.LVUS490
	.uleb128 0x4
	.long	0xb128
	.long	.LLST491
	.long	.LVUS491
	.uleb128 0x18
	.long	0xad8e
	.quad	.LBI2877
	.value	.LVU1053
	.quad	.LBB2877
	.quad	.LBE2877-.LBB2877
	.byte	0x8
	.value	0x2b1
	.byte	0x17
	.uleb128 0x3
	.long	0xad9c
	.uleb128 0x4
	.long	0xada5
	.long	.LLST492
	.long	.LVUS492
	.uleb128 0x4
	.long	0xadb1
	.long	.LLST493
	.long	.LVUS493
	.uleb128 0x2f
	.quad	.LVL195
	.long	0xa954
	.uleb128 0x1f
	.uleb128 0x1
	.byte	0x55
	.uleb128 0x3
	.byte	0x77
	.sleb128 40
	.byte	0x6
	.uleb128 0x1f
	.uleb128 0x1
	.byte	0x54
	.uleb128 0x3
	.byte	0xa
	.value	0x6000
	.byte	0
	.byte	0
	.byte	0
	.byte	0
	.byte	0
	.uleb128 0x18
	.long	0xc110
	.quad	.LBI2879
	.value	.LVU1056
	.quad	.LBB2879
	.quad	.LBE2879-.LBB2879
	.byte	0x2
	.value	0x17b
	.byte	0x7
	.uleb128 0x3
	.long	0xc120
	.uleb128 0x20
	.long	0xc9c8
	.quad	.LBI2880
	.value	.LVU1057
	.quad	.LBB2880
	.quad	.LBE2880-.LBB2880
	.byte	0x2
	.byte	0x8b
	.byte	0xe
	.uleb128 0x3
	.long	0xc9d6
	.uleb128 0x20
	.long	0xc166
	.quad	.LBI2881
	.value	.LVU1058
	.quad	.LBB2881
	.quad	.LBE2881-.LBB2881
	.byte	0x5
	.byte	0xbd
	.byte	0x27
	.uleb128 0x3
	.long	0xc174
	.byte	0
	.byte	0
	.byte	0
	.byte	0
	.byte	0
	.uleb128 0x4c
	.long	0xca7b
	.quad	.LBI2882
	.value	.LVU1060
	.quad	.LBB2882
	.quad	.LBE2882-.LBB2882
	.byte	0xc1
	.byte	0x1
	.byte	0x1
	.long	0x1090d
	.uleb128 0x3
	.long	0xca89
	.uleb128 0x2d
	.long	0xc23d
	.quad	.LBI2883
	.value	.LVU1061
	.quad	.LBB2883
	.quad	.LBE2883-.LBB2883
	.byte	0x2
	.value	0x319
	.byte	0x1c
	.long	0x10729
	.uleb128 0x3
	.long	0xc24b
	.byte	0
	.uleb128 0x2d
	.long	0xc201
	.quad	.LBI2884
	.value	.LVU1063
	.quad	.LBB2884
	.quad	.LBE2884-.LBB2884
	.byte	0x2
	.value	0x318
	.byte	0xf
	.long	0x10760
	.uleb128 0x3
	.long	0xc21d
	.uleb128 0x3
	.long	0xc22a
	.uleb128 0x3
	.long	0xc237
	.byte	0
	.uleb128 0x18
	.long	0xc287
	.quad	.LBI2885
	.value	.LVU1065
	.quad	.LBB2885
	.quad	.LBE2885-.LBB2885
	.byte	0x2
	.value	0x31b
	.byte	0x7
	.uleb128 0x3
	.long	0xc295
	.uleb128 0x77
	.long	0xc29e
	.quad	.LBB2886
	.quad	.LBE2886-.LBB2886
	.long	0x10892
	.uleb128 0x2e
	.long	0xc29f
	.long	.LLST494
	.long	.LVUS494
	.uleb128 0x18
	.long	0xb88f
	.quad	.LBI2887
	.value	.LVU1066
	.quad	.LBB2887
	.quad	.LBE2887-.LBB2887
	.byte	0x2
	.value	0x17a
	.byte	0xf
	.uleb128 0x3
	.long	0xb89d
	.uleb128 0x4
	.long	0xb8a6
	.long	.LLST495
	.long	.LVUS495
	.uleb128 0x4
	.long	0xb8b3
	.long	.LLST496
	.long	.LVUS496
	.uleb128 0x18
	.long	0xb228
	.quad	.LBI2889
	.value	.LVU1068
	.quad	.LBB2889
	.quad	.LBE2889-.LBB2889
	.byte	0x2
	.value	0x18e
	.byte	0x13
	.uleb128 0x3
	.long	0xb232
	.uleb128 0x4
	.long	0xb23f
	.long	.LLST497
	.long	.LVUS497
	.uleb128 0x4
	.long	0xb24c
	.long	.LLST498
	.long	.LVUS498
	.uleb128 0x18
	.long	0xae55
	.quad	.LBI2890
	.value	.LVU1069
	.quad	.LBB2890
	.quad	.LBE2890-.LBB2890
	.byte	0x8
	.value	0x2b1
	.byte	0x17
	.uleb128 0x3
	.long	0xae63
	.uleb128 0x4
	.long	0xae6c
	.long	.LLST499
	.long	.LVUS499
	.uleb128 0x4
	.long	0xae78
	.long	.LLST500
	.long	.LVUS500
	.uleb128 0x2f
	.quad	.LVL197
	.long	0xa954
	.uleb128 0x1f
	.uleb128 0x1
	.byte	0x55
	.uleb128 0x2
	.byte	0x73
	.sleb128 0
	.uleb128 0x1f
	.uleb128 0x1
	.byte	0x54
	.uleb128 0x2
	.byte	0x7f
	.sleb128 0
	.byte	0
	.byte	0
	.byte	0
	.byte	0
	.byte	0
	.uleb128 0x18
	.long	0xc323
	.quad	.LBI2892
	.value	.LVU1072
	.quad	.LBB2892
	.quad	.LBE2892-.LBB2892
	.byte	0x2
	.value	0x17b
	.byte	0x7
	.uleb128 0x3
	.long	0xc333
	.uleb128 0x20
	.long	0xcb0f
	.quad	.LBI2893
	.value	.LVU1073
	.quad	.LBB2893
	.quad	.LBE2893-.LBB2893
	.byte	0x2
	.byte	0x8b
	.byte	0xe
	.uleb128 0x3
	.long	0xcb1d
	.uleb128 0x20
	.long	0xc379
	.quad	.LBI2894
	.value	.LVU1074
	.quad	.LBB2894
	.quad	.LBE2894-.LBB2894
	.byte	0x5
	.byte	0xbd
	.byte	0x27
	.uleb128 0x3
	.long	0xc387
	.byte	0
	.byte	0
	.byte	0
	.byte	0
	.byte	0
	.uleb128 0x4c
	.long	0xca7b
	.quad	.LBI2895
	.value	.LVU1076
	.quad	.LBB2895
	.quad	.LBE2895-.LBB2895
	.byte	0xc1
	.byte	0x1
	.byte	0x2
	.long	0x10b2d
	.uleb128 0x3
	.long	0xca89
	.uleb128 0x2d
	.long	0xc23d
	.quad	.LBI2896
	.value	.LVU1077
	.quad	.LBB2896
	.quad	.LBE2896-.LBB2896
	.byte	0x2
	.value	0x319
	.byte	0x1c
	.long	0x10965
	.uleb128 0x3
	.long	0xc24b
	.byte	0
	.uleb128 0x2d
	.long	0xc201
	.quad	.LBI2897
	.value	.LVU1079
	.quad	.LBB2897
	.quad	.LBE2897-.LBB2897
	.byte	0x2
	.value	0x318
	.byte	0xf
	.long	0x1099c
	.uleb128 0x3
	.long	0xc21d
	.uleb128 0x3
	.long	0xc22a
	.uleb128 0x3
	.long	0xc237
	.byte	0
	.uleb128 0x18
	.long	0xc287
	.quad	.LBI2898
	.value	.LVU1081
	.quad	.LBB2898
	.quad	.LBE2898-.LBB2898
	.byte	0x2
	.value	0x31b
	.byte	0x7
	.uleb128 0x3
	.long	0xc295
	.uleb128 0x77
	.long	0xc29e
	.quad	.LBB2899
	.quad	.LBE2899-.LBB2899
	.long	0x10ab2
	.uleb128 0x3a
	.long	0xc29f
	.uleb128 0x18
	.long	0xb88f
	.quad	.LBI2900
	.value	.LVU1082
	.quad	.LBB2900
	.quad	.LBE2900-.LBB2900
	.byte	0x2
	.value	0x17a
	.byte	0xf
	.uleb128 0x3
	.long	0xb89d
	.uleb128 0x4
	.long	0xb8a6
	.long	.LLST501
	.long	.LVUS501
	.uleb128 0x3
	.long	0xb8b3
	.uleb128 0x18
	.long	0xb228
	.quad	.LBI2902
	.value	.LVU1084
	.quad	.LBB2902
	.quad	.LBE2902-.LBB2902
	.byte	0x2
	.value	0x18e
	.byte	0x13
	.uleb128 0x3
	.long	0xb232
	.uleb128 0x4
	.long	0xb23f
	.long	.LLST502
	.long	.LVUS502
	.uleb128 0x3
	.long	0xb24c
	.uleb128 0x18
	.long	0xae55
	.quad	.LBI2903
	.value	.LVU1085
	.quad	.LBB2903
	.quad	.LBE2903-.LBB2903
	.byte	0x8
	.value	0x2b1
	.byte	0x17
	.uleb128 0x3
	.long	0xae63
	.uleb128 0x4
	.long	0xae6c
	.long	.LLST503
	.long	.LVUS503
	.uleb128 0x3
	.long	0xae78
	.uleb128 0x2f
	.quad	.LVL199
	.long	0xa954
	.uleb128 0x1f
	.uleb128 0x1
	.byte	0x55
	.uleb128 0x4
	.byte	0x77
	.sleb128 80
	.byte	0x6
	.uleb128 0x1f
	.uleb128 0x1
	.byte	0x54
	.uleb128 0x4
	.byte	0x77
	.sleb128 72
	.byte	0x6
	.byte	0
	.byte	0
	.byte	0
	.byte	0
	.byte	0
	.uleb128 0x18
	.long	0xc323
	.quad	.LBI2905
	.value	.LVU1088
	.quad	.LBB2905
	.quad	.LBE2905-.LBB2905
	.byte	0x2
	.value	0x17b
	.byte	0x7
	.uleb128 0x3
	.long	0xc333
	.uleb128 0x20
	.long	0xcb0f
	.quad	.LBI2906
	.value	.LVU1089
	.quad	.LBB2906
	.quad	.LBE2906-.LBB2906
	.byte	0x2
	.byte	0x8b
	.byte	0xe
	.uleb128 0x3
	.long	0xcb1d
	.uleb128 0x20
	.long	0xc379
	.quad	.LBI2907
	.value	.LVU1090
	.quad	.LBB2907
	.quad	.LBE2907-.LBB2907
	.byte	0x5
	.byte	0xbd
	.byte	0x27
	.uleb128 0x3
	.long	0xc387
	.byte	0
	.byte	0
	.byte	0
	.byte	0
	.byte	0
	.uleb128 0x3e
	.long	0xca7b
	.quad	.LBI2925
	.value	.LVU1283
	.long	.LLRL504
	.byte	0x1
	.byte	0xc1
	.byte	0x1
	.byte	0x5
	.long	0x10d45
	.uleb128 0x3
	.long	0xca89
	.uleb128 0x3d
	.long	0xc287
	.quad	.LBI2926
	.value	.LVU1288
	.long	.LLRL505
	.byte	0x2
	.value	0x31b
	.byte	0x7
	.long	0x10ce4
	.uleb128 0x3
	.long	0xc295
	.uleb128 0x6b
	.long	0xc29e
	.long	.LLRL506
	.long	0x10c6a
	.uleb128 0x2e
	.long	0xc29f
	.long	.LLST507
	.long	.LVUS507
	.uleb128 0x17
	.long	0xb88f
	.quad	.LBI2928
	.value	.LVU1289
	.long	.LLRL506
	.byte	0x2
	.value	0x17a
	.byte	0xf
	.uleb128 0x3
	.long	0xb89d
	.uleb128 0x4
	.long	0xb8a6
	.long	.LLST508
	.long	.LVUS508
	.uleb128 0x4
	.long	0xb8b3
	.long	.LLST509
	.long	.LVUS509
	.uleb128 0x18
	.long	0xb228
	.quad	.LBI2930
	.value	.LVU1356
	.quad	.LBB2930
	.quad	.LBE2930-.LBB2930
	.byte	0x2
	.value	0x18e
	.byte	0x13
	.uleb128 0x3
	.long	0xb232
	.uleb128 0x4
	.long	0xb23f
	.long	.LLST510
	.long	.LVUS510
	.uleb128 0x4
	.long	0xb24c
	.long	.LLST511
	.long	.LVUS511
	.uleb128 0x18
	.long	0xae55
	.quad	.LBI2931
	.value	.LVU1357
	.quad	.LBB2931
	.quad	.LBE2931-.LBB2931
	.byte	0x8
	.value	0x2b1
	.byte	0x17
	.uleb128 0x3
	.long	0xae63
	.uleb128 0x4
	.long	0xae6c
	.long	.LLST512
	.long	.LVUS512
	.uleb128 0x4
	.long	0xae78
	.long	.LLST513
	.long	.LVUS513
	.uleb128 0x4d
	.quad	.LVL267
	.uleb128 0x1
	.byte	0x30
	.uleb128 0x2f
	.quad	.LVL268
	.long	0xa954
	.uleb128 0x1f
	.uleb128 0x1
	.byte	0x55
	.uleb128 0x2
	.byte	0x73
	.sleb128 0
	.uleb128 0x1f
	.uleb128 0x1
	.byte	0x54
	.uleb128 0x2
	.byte	0x7f
	.sleb128 0
	.byte	0
	.byte	0
	.byte	0
	.byte	0
	.byte	0
	.uleb128 0x18
	.long	0xc323
	.quad	.LBI2941
	.value	.LVU1292
	.quad	.LBB2941
	.quad	.LBE2941-.LBB2941
	.byte	0x2
	.value	0x17b
	.byte	0x7
	.uleb128 0x3
	.long	0xc333
	.uleb128 0x20
	.long	0xcb0f
	.quad	.LBI2942
	.value	.LVU1293
	.quad	.LBB2942
	.quad	.LBE2942-.LBB2942
	.byte	0x2
	.byte	0x8b
	.byte	0xe
	.uleb128 0x3
	.long	0xcb1d
	.uleb128 0x20
	.long	0xc379
	.quad	.LBI2943
	.value	.LVU1294
	.quad	.LBB2943
	.quad	.LBE2943-.LBB2943
	.byte	0x5
	.byte	0xbd
	.byte	0x27
	.uleb128 0x3
	.long	0xc387
	.byte	0
	.byte	0
	.byte	0
	.byte	0
	.uleb128 0x2d
	.long	0xc23d
	.quad	.LBI2946
	.value	.LVU1284
	.quad	.LBB2946
	.quad	.LBE2946-.LBB2946
	.byte	0x2
	.value	0x319
	.byte	0x1c
	.long	0x10d11
	.uleb128 0x3
	.long	0xc24b
	.byte	0
	.uleb128 0x18
	.long	0xc201
	.quad	.LBI2947
	.value	.LVU1286
	.quad	.LBB2947
	.quad	.LBE2947-.LBB2947
	.byte	0x2
	.value	0x318
	.byte	0xf
	.uleb128 0x3
	.long	0xc21d
	.uleb128 0x3
	.long	0xc22a
	.uleb128 0x3
	.long	0xc237
	.byte	0
	.byte	0
	.uleb128 0x4c
	.long	0xca7b
	.quad	.LBI2956
	.value	.LVU1299
	.quad	.LBB2956
	.quad	.LBE2956-.LBB2956
	.byte	0xc1
	.byte	0x1
	.byte	0x6
	.long	0x10f61
	.uleb128 0x3
	.long	0xca89
	.uleb128 0x3d
	.long	0xc287
	.quad	.LBI2957
	.value	.LVU1304
	.long	.LLRL514
	.byte	0x2
	.value	0x31b
	.byte	0x7
	.long	0x10f00
	.uleb128 0x3
	.long	0xc295
	.uleb128 0x6b
	.long	0xc29e
	.long	.LLRL515
	.long	0x10e86
	.uleb128 0x2e
	.long	0xc29f
	.long	.LLST516
	.long	.LVUS516
	.uleb128 0x17
	.long	0xb88f
	.quad	.LBI2959
	.value	.LVU1305
	.long	.LLRL515
	.byte	0x2
	.value	0x17a
	.byte	0xf
	.uleb128 0x3
	.long	0xb89d
	.uleb128 0x4
	.long	0xb8a6
	.long	.LLST517
	.long	.LVUS517
	.uleb128 0x4
	.long	0xb8b3
	.long	.LLST518
	.long	.LVUS518
	.uleb128 0x18
	.long	0xb228
	.quad	.LBI2961
	.value	.LVU1307
	.quad	.LBB2961
	.quad	.LBE2961-.LBB2961
	.byte	0x2
	.value	0x18e
	.byte	0x13
	.uleb128 0x3
	.long	0xb232
	.uleb128 0x4
	.long	0xb23f
	.long	.LLST519
	.long	.LVUS519
	.uleb128 0x4
	.long	0xb24c
	.long	.LLST520
	.long	.LVUS520
	.uleb128 0x18
	.long	0xae55
	.quad	.LBI2962
	.value	.LVU1308
	.quad	.LBB2962
	.quad	.LBE2962-.LBB2962
	.byte	0x8
	.value	0x2b1
	.byte	0x17
	.uleb128 0x3
	.long	0xae63
	.uleb128 0x4
	.long	0xae6c
	.long	.LLST521
	.long	.LVUS521
	.uleb128 0x4
	.long	0xae78
	.long	.LLST522
	.long	.LVUS522
	.uleb128 0x2f
	.quad	.LVL258
	.long	0xa954
	.uleb128 0x1f
	.uleb128 0x1
	.byte	0x55
	.uleb128 0x4
	.byte	0x77
	.sleb128 80
	.byte	0x6
	.uleb128 0x1f
	.uleb128 0x1
	.byte	0x54
	.uleb128 0x4
	.byte	0x77
	.sleb128 72
	.byte	0x6
	.byte	0
	.byte	0
	.byte	0
	.byte	0
	.byte	0
	.uleb128 0x18
	.long	0xc323
	.quad	.LBI2967
	.value	.LVU1311
	.quad	.LBB2967
	.quad	.LBE2967-.LBB2967
	.byte	0x2
	.value	0x17b
	.byte	0x7
	.uleb128 0x3
	.long	0xc333
	.uleb128 0x20
	.long	0xcb0f
	.quad	.LBI2968
	.value	.LVU1312
	.quad	.LBB2968
	.quad	.LBE2968-.LBB2968
	.byte	0x2
	.byte	0x8b
	.byte	0xe
	.uleb128 0x3
	.long	0xcb1d
	.uleb128 0x20
	.long	0xc379
	.quad	.LBI2969
	.value	.LVU1313
	.quad	.LBB2969
	.quad	.LBE2969-.LBB2969
	.byte	0x5
	.byte	0xbd
	.byte	0x27
	.uleb128 0x3
	.long	0xc387
	.byte	0
	.byte	0
	.byte	0
	.byte	0
	.uleb128 0x2d
	.long	0xc23d
	.quad	.LBI2970
	.value	.LVU1300
	.quad	.LBB2970
	.quad	.LBE2970-.LBB2970
	.byte	0x2
	.value	0x319
	.byte	0x1c
	.long	0x10f2d
	.uleb128 0x3
	.long	0xc24b
	.byte	0
	.uleb128 0x18
	.long	0xc201
	.quad	.LBI2971
	.value	.LVU1302
	.quad	.LBB2971
	.quad	.LBE2971-.LBB2971
	.byte	0x2
	.value	0x318
	.byte	0xf
	.uleb128 0x3
	.long	0xc21d
	.uleb128 0x3
	.long	0xc22a
	.uleb128 0x3
	.long	0xc237
	.byte	0
	.byte	0
	.uleb128 0x3e
	.long	0xcc3d
	.quad	.LBI2973
	.value	.LVU1315
	.long	.LLRL523
	.byte	0x1
	.byte	0xc1
	.byte	0x1
	.byte	0x7
	.long	0x11198
	.uleb128 0x4
	.long	0xcc4b
	.long	.LLST524
	.long	.LVUS524
	.uleb128 0x2d
	.long	0xc648
	.quad	.LBI2974
	.value	.LVU1316
	.quad	.LBB2974
	.quad	.LBE2974-.LBB2974
	.byte	0x2
	.value	0x319
	.byte	0x1c
	.long	0x10fbe
	.uleb128 0x4
	.long	0xc656
	.long	.LLST525
	.long	.LVUS525
	.byte	0
	.uleb128 0x2d
	.long	0xc60c
	.quad	.LBI2975
	.value	.LVU1318
	.quad	.LBB2975
	.quad	.LBE2975-.LBB2975
	.byte	0x2
	.value	0x318
	.byte	0xf
	.long	0x10ffd
	.uleb128 0x3
	.long	0xc628
	.uleb128 0x3
	.long	0xc635
	.uleb128 0x4
	.long	0xc642
	.long	.LLST526
	.long	.LVUS526
	.byte	0
	.uleb128 0x17
	.long	0xcc68
	.quad	.LBI2976
	.value	.LVU1320
	.long	.LLRL527
	.byte	0x2
	.value	0x31b
	.byte	0x7
	.uleb128 0x4
	.long	0xcc76
	.long	.LLST528
	.long	.LVUS528
	.uleb128 0x6b
	.long	0xcc7f
	.long	.LLRL529
	.long	0x11105
	.uleb128 0x3a
	.long	0xcc80
	.uleb128 0x17
	.long	0xc660
	.quad	.LBI2978
	.value	.LVU1321
	.long	.LLRL530
	.byte	0x2
	.value	0x17a
	.byte	0xf
	.uleb128 0x4
	.long	0xc66e
	.long	.LLST531
	.long	.LVUS531
	.uleb128 0x3
	.long	0xc677
	.uleb128 0x3
	.long	0xc684
	.uleb128 0x17
	.long	0xc660
	.quad	.LBI2980
	.value	.LVU1323
	.long	.LLRL532
	.byte	0x2
	.value	0x18a
	.byte	0x7
	.uleb128 0x4
	.long	0xc66e
	.long	.LLST533
	.long	.LVUS533
	.uleb128 0x3
	.long	0xc677
	.uleb128 0x3
	.long	0xc684
	.uleb128 0x17
	.long	0xbbe8
	.quad	.LBI2982
	.value	.LVU1324
	.long	.LLRL534
	.byte	0x2
	.value	0x18e
	.byte	0x13
	.uleb128 0x3
	.long	0xbbf2
	.uleb128 0x3
	.long	0xbbff
	.uleb128 0x3
	.long	0xbc0c
	.uleb128 0x3d
	.long	0xb373
	.quad	.LBI2983
	.value	.LVU1325
	.long	.LLRL535
	.byte	0x8
	.value	0x2b1
	.byte	0x17
	.long	0x110e0
	.uleb128 0x3
	.long	0xb381
	.uleb128 0x3
	.long	0xb38a
	.uleb128 0x3
	.long	0xb396
	.byte	0
	.uleb128 0x2f
	.quad	.LVL260
	.long	0xa954
	.uleb128 0x1f
	.uleb128 0x1
	.byte	0x55
	.uleb128 0x4
	.byte	0x77
	.sleb128 88
	.byte	0x6
	.uleb128 0x1f
	.uleb128 0x1
	.byte	0x54
	.uleb128 0x7
	.byte	0x7d
	.sleb128 0
	.byte	0x77
	.sleb128 88
	.byte	0x6
	.byte	0x1c
	.byte	0
	.byte	0
	.byte	0
	.byte	0
	.byte	0
	.uleb128 0x18
	.long	0x1160f
	.quad	.LBI2993
	.value	.LVU1329
	.quad	.LBB2993
	.quad	.LBE2993-.LBB2993
	.byte	0x2
	.value	0x17b
	.byte	0x7
	.uleb128 0x4
	.long	0x1161f
	.long	.LLST536
	.long	.LVUS536
	.uleb128 0x20
	.long	0xccad
	.quad	.LBI2994
	.value	.LVU1330
	.quad	.LBB2994
	.quad	.LBE2994-.LBB2994
	.byte	0x2
	.byte	0x8b
	.byte	0xe
	.uleb128 0x4
	.long	0xccbb
	.long	.LLST537
	.long	.LVUS537
	.uleb128 0x20
	.long	0xc692
	.quad	.LBI2995
	.value	.LVU1331
	.quad	.LBB2995
	.quad	.LBE2995-.LBB2995
	.byte	0x5
	.byte	0xbd
	.byte	0x27
	.uleb128 0x4
	.long	0xc6a0
	.long	.LLST538
	.long	.LVUS538
	.byte	0
	.byte	0
	.byte	0
	.byte	0
	.byte	0
	.uleb128 0x4c
	.long	0x1163c
	.quad	.LBI2998
	.value	.LVU1336
	.quad	.LBB2998
	.quad	.LBE2998-.LBB2998
	.byte	0xc1
	.byte	0x1
	.byte	0x8
	.long	0x11414
	.uleb128 0x4
	.long	0x1164c
	.long	.LLST539
	.long	.LVUS539
	.uleb128 0x68
	.long	0xcd35
	.quad	.LBI2999
	.value	.LVU1337
	.long	.LLRL540
	.byte	0x4
	.byte	0xb
	.byte	0x8
	.uleb128 0x4
	.long	0xcd43
	.long	.LLST541
	.long	.LVUS541
	.uleb128 0x3d
	.long	0xcd64
	.quad	.LBI3000
	.value	.LVU1342
	.long	.LLRL542
	.byte	0x2
	.value	0x31b
	.byte	0x7
	.long	0x11392
	.uleb128 0x4
	.long	0xcd72
	.long	.LLST543
	.long	.LVUS543
	.uleb128 0x6b
	.long	0xcd7b
	.long	.LLRL544
	.long	0x11300
	.uleb128 0x2e
	.long	0xcd7c
	.long	.LLST545
	.long	.LVUS545
	.uleb128 0x17
	.long	0xc7c9
	.quad	.LBI3002
	.value	.LVU1344
	.long	.LLRL546
	.byte	0x2
	.value	0x17a
	.byte	0xf
	.uleb128 0x4
	.long	0xc7d7
	.long	.LLST547
	.long	.LVUS547
	.uleb128 0x4
	.long	0xc7e0
	.long	.LLST548
	.long	.LVUS548
	.uleb128 0x4
	.long	0xc7ed
	.long	.LLST545
	.long	.LVUS545
	.uleb128 0x17
	.long	0xbe7b
	.quad	.LBI3004
	.value	.LVU1346
	.long	.LLRL550
	.byte	0x2
	.value	0x18e
	.byte	0x13
	.uleb128 0x4
	.long	0xbe85
	.long	.LLST551
	.long	.LVUS551
	.uleb128 0x4
	.long	0xbe92
	.long	.LLST552
	.long	.LVUS552
	.uleb128 0x4
	.long	0xbe9f
	.long	.LLST553
	.long	.LVUS553
	.uleb128 0x3d
	.long	0xb5c0
	.quad	.LBI3005
	.value	.LVU1347
	.long	.LLRL550
	.byte	0x8
	.value	0x2b1
	.byte	0x17
	.long	0x112ef
	.uleb128 0x4
	.long	0xb5ce
	.long	.LLST554
	.long	.LVUS554
	.uleb128 0x4
	.long	0xb5d7
	.long	.LLST555
	.long	.LVUS555
	.uleb128 0x4
	.long	0xb5e3
	.long	.LLST556
	.long	.LVUS556
	.byte	0
	.uleb128 0xd3
	.quad	.LVL265
	.long	0xa954
	.byte	0
	.byte	0
	.byte	0
	.uleb128 0x18
	.long	0x116fc
	.quad	.LBI3012
	.value	.LVU1351
	.quad	.LBB3012
	.quad	.LBE3012-.LBB3012
	.byte	0x2
	.value	0x17b
	.byte	0x7
	.uleb128 0x4
	.long	0x1170c
	.long	.LLST557
	.long	.LVUS557
	.uleb128 0x20
	.long	0xcdad
	.quad	.LBI3013
	.value	.LVU1352
	.quad	.LBB3013
	.quad	.LBE3013-.LBB3013
	.byte	0x2
	.byte	0x8b
	.byte	0xe
	.uleb128 0x4
	.long	0xcdbb
	.long	.LLST558
	.long	.LVUS558
	.uleb128 0x20
	.long	0xc7fb
	.quad	.LBI3014
	.value	.LVU1353
	.quad	.LBB3014
	.quad	.LBE3014-.LBB3014
	.byte	0x5
	.byte	0xbd
	.byte	0x27
	.uleb128 0x4
	.long	0xc809
	.long	.LLST559
	.long	.LVUS559
	.byte	0
	.byte	0
	.byte	0
	.byte	0
	.uleb128 0x2d
	.long	0xc7b1
	.quad	.LBI3015
	.value	.LVU1338
	.quad	.LBB3015
	.quad	.LBE3015-.LBB3015
	.byte	0x2
	.value	0x319
	.byte	0x1c
	.long	0x113c7
	.uleb128 0x4
	.long	0xc7bf
	.long	.LLST560
	.long	.LVUS560
	.byte	0
	.uleb128 0x18
	.long	0xc775
	.quad	.LBI3016
	.value	.LVU1340
	.quad	.LBB3016
	.quad	.LBE3016-.LBB3016
	.byte	0x2
	.value	0x318
	.byte	0xf
	.uleb128 0x4
	.long	0xc791
	.long	.LLST561
	.long	.LVUS561
	.uleb128 0x4
	.long	0xc79e
	.long	.LLST562
	.long	.LVUS562
	.uleb128 0x4
	.long	0xc7ab
	.long	.LLST563
	.long	.LVUS563
	.byte	0
	.byte	0
	.byte	0
	.uleb128 0x4d
	.quad	.LVL194
	.uleb128 0x1
	.byte	0x30
	.uleb128 0x4d
	.quad	.LVL245
	.uleb128 0x1
	.byte	0x30
	.uleb128 0x4d
	.quad	.LVL254
	.uleb128 0x1
	.byte	0x30
	.uleb128 0x4d
	.quad	.LVL256
	.uleb128 0x1
	.byte	0x30
	.uleb128 0x4d
	.quad	.LVL262
	.uleb128 0x1
	.byte	0x30
	.uleb128 0xd4
	.quad	.LVL266
	.long	0x1192c
	.long	0x11464
	.uleb128 0x1f
	.uleb128 0x1
	.byte	0x55
	.uleb128 0x2
	.byte	0x73
	.sleb128 0
	.byte	0
	.uleb128 0x4d
	.quad	.LVL271
	.uleb128 0x1
	.byte	0x30
	.uleb128 0x4d
	.quad	.LVL273
	.uleb128 0x1
	.byte	0x30
	.byte	0
	.uleb128 0xb
	.long	0x8bd2
	.long	0x11489
	.byte	0x3
	.long	0x11493
	.uleb128 0x9
	.long	.LASF1334
	.long	0xa7be
	.byte	0
	.uleb128 0xb
	.long	0x8687
	.long	0x114a1
	.byte	0x3
	.long	0x114ab
	.uleb128 0x9
	.long	.LASF1334
	.long	0xa6b0
	.byte	0
	.uleb128 0x13
	.long	0x7578
	.byte	0x3
	.long	0x114d7
	.uleb128 0xf
	.string	"_Tp"
	.long	0x56
	.uleb128 0x26
	.string	"__a"
	.byte	0xa
	.byte	0xe8
	.byte	0x14
	.long	0xa6f6
	.uleb128 0x26
	.string	"__b"
	.byte	0xa
	.byte	0xe8
	.byte	0x24
	.long	0xa6f6
	.byte	0
	.uleb128 0x13
	.long	0x75a0
	.byte	0x3
	.long	0x11505
	.uleb128 0xf
	.string	"_Tp"
	.long	0x56
	.uleb128 0xe
	.string	"__a"
	.byte	0xa
	.value	0x100
	.byte	0x14
	.long	0xa6f6
	.uleb128 0xe
	.string	"__b"
	.byte	0xa
	.value	0x100
	.byte	0x24
	.long	0xa6f6
	.byte	0
	.uleb128 0xb
	.long	0x8b8d
	.long	0x11513
	.byte	0x3
	.long	0x1151d
	.uleb128 0x9
	.long	.LASF1334
	.long	0xa7cd
	.byte	0
	.uleb128 0xb
	.long	0x8cfe
	.long	0x1152b
	.byte	0x3
	.long	0x11535
	.uleb128 0x9
	.long	.LASF1334
	.long	0xa7cd
	.byte	0
	.uleb128 0xc
	.long	0x8d2d
	.uleb128 0x13
	.long	0x91cd
	.byte	0x3
	.long	0x1155f
	.uleb128 0x12
	.long	.LASF1438
	.byte	0x3
	.value	0x4dd
	.byte	0x2b
	.long	0x11535
	.uleb128 0x12
	.long	.LASF1439
	.byte	0x3
	.value	0x4dd
	.byte	0x4b
	.long	0x11535
	.byte	0
	.uleb128 0xb
	.long	0x863a
	.long	0x1156d
	.byte	0x3
	.long	0x11577
	.uleb128 0x9
	.long	.LASF1334
	.long	0xa6bf
	.byte	0
	.uleb128 0xb
	.long	0x87d7
	.long	0x11585
	.byte	0x3
	.long	0x1158f
	.uleb128 0x9
	.long	.LASF1334
	.long	0xa6bf
	.byte	0
	.uleb128 0xc
	.long	0x880a
	.uleb128 0x13
	.long	0x91e9
	.byte	0x3
	.long	0x115b9
	.uleb128 0x12
	.long	.LASF1438
	.byte	0x3
	.value	0x4dd
	.byte	0x2b
	.long	0x1158f
	.uleb128 0x12
	.long	.LASF1439
	.byte	0x3
	.value	0x4dd
	.byte	0x4b
	.long	0x1158f
	.byte	0
	.uleb128 0xb
	.long	0x38fb
	.long	0x115c7
	.byte	0x2
	.long	0x115d1
	.uleb128 0x9
	.long	.LASF1334
	.long	0xa674
	.byte	0
	.uleb128 0x3c
	.long	0x115b9
	.long	0x115de
	.long	0x115e4
	.uleb128 0x3
	.long	0x115c7
	.byte	0
	.uleb128 0xb
	.long	0x3695
	.long	0x115f2
	.byte	0x2
	.long	0x115fc
	.uleb128 0x9
	.long	.LASF1334
	.long	0xa651
	.byte	0
	.uleb128 0x3c
	.long	0x115e4
	.long	0x11609
	.long	0x1160f
	.uleb128 0x3
	.long	0x115f2
	.byte	0
	.uleb128 0x61
	.long	0x3613
	.byte	0x2
	.byte	0x8b
	.byte	0xe
	.long	0x1161f
	.long	0x11629
	.uleb128 0x9
	.long	.LASF1334
	.long	0xa633
	.byte	0
	.uleb128 0x3c
	.long	0x1160f
	.long	0x11636
	.long	0x1163c
	.uleb128 0x3
	.long	0x1161f
	.byte	0
	.uleb128 0x61
	.long	0xa18b
	.byte	0x4
	.byte	0xb
	.byte	0x8
	.long	0x1164c
	.long	0x11656
	.uleb128 0x9
	.long	.LASF1334
	.long	0xa1c6
	.byte	0
	.uleb128 0x1b
	.long	0x1163c
	.long	.LASF1440
	.long	0x11667
	.long	0x1166d
	.uleb128 0x3
	.long	0x1164c
	.byte	0
	.uleb128 0x61
	.long	0xa1a3
	.byte	0x4
	.byte	0xb
	.byte	0x8
	.long	0x1167d
	.long	0x11687
	.uleb128 0x9
	.long	.LASF1334
	.long	0xa1c6
	.byte	0
	.uleb128 0x1b
	.long	0x1166d
	.long	.LASF1441
	.long	0x11698
	.long	0x1169e
	.uleb128 0x3
	.long	0x1167d
	.byte	0
	.uleb128 0xb
	.long	0x12d5
	.long	0x116ac
	.byte	0x2
	.long	0x116b6
	.uleb128 0x9
	.long	.LASF1334
	.long	0xa09b
	.byte	0
	.uleb128 0x1b
	.long	0x1169e
	.long	.LASF1442
	.long	0x116c7
	.long	0x116cd
	.uleb128 0x3
	.long	0x116ac
	.byte	0
	.uleb128 0xb
	.long	0x103e
	.long	0x116db
	.byte	0x2
	.long	0x116e5
	.uleb128 0x9
	.long	.LASF1334
	.long	0xa07d
	.byte	0
	.uleb128 0x1b
	.long	0x116cd
	.long	.LASF1443
	.long	0x116f6
	.long	0x116fc
	.uleb128 0x3
	.long	0x116db
	.byte	0
	.uleb128 0x61
	.long	0xfad
	.byte	0x2
	.byte	0x8b
	.byte	0xe
	.long	0x1170c
	.long	0x11716
	.uleb128 0x9
	.long	.LASF1334
	.long	0xa05f
	.byte	0
	.uleb128 0x1b
	.long	0x116fc
	.long	.LASF1444
	.long	0x11727
	.long	0x1172d
	.uleb128 0x3
	.long	0x1170c
	.byte	0
	.uleb128 0xd5
	.long	.LASF1445
	.byte	0x10
	.byte	0x3f
	.byte	0x1
	.long	.LASF1446
	.long	0xa3f1
	.byte	0x3
	.long	0x11768
	.uleb128 0x26
	.string	"__A"
	.byte	0x10
	.byte	0x3f
	.byte	0x19
	.long	0xa3f1
	.uleb128 0x26
	.string	"__B"
	.byte	0x10
	.byte	0x3f
	.byte	0x25
	.long	0xa3f1
	.uleb128 0x26
	.string	"__C"
	.byte	0x10
	.byte	0x3f
	.byte	0x31
	.long	0xa3f1
	.byte	0
	.uleb128 0x5e
	.long	.LASF1447
	.byte	0xf
	.value	0x1e9
	.long	.LASF1448
	.long	0xa40e
	.long	0x1178a
	.uleb128 0xe
	.string	"__X"
	.byte	0xf
	.value	0x1e9
	.byte	0x1f
	.long	0xa391
	.byte	0
	.uleb128 0x5e
	.long	.LASF1449
	.byte	0xd
	.value	0x4f7
	.long	.LASF1450
	.long	0xa3f1
	.long	0x117ac
	.uleb128 0xe
	.string	"__A"
	.byte	0xd
	.value	0x4f7
	.byte	0x17
	.long	0x30
	.byte	0
	.uleb128 0xd6
	.long	.LASF1451
	.byte	0xd
	.value	0x355
	.byte	0x1
	.long	.LASF1452
	.byte	0x3
	.long	0x117da
	.uleb128 0xe
	.string	"__P"
	.byte	0xd
	.value	0x355
	.byte	0x1a
	.long	0xa7eb
	.uleb128 0xe
	.string	"__A"
	.byte	0xd
	.value	0x355
	.byte	0x26
	.long	0xa3f1
	.byte	0
	.uleb128 0x5e
	.long	.LASF1453
	.byte	0xd
	.value	0x34f
	.long	.LASF1454
	.long	0xa3f1
	.long	0x117fc
	.uleb128 0xe
	.string	"__P"
	.byte	0xd
	.value	0x34f
	.byte	0x1f
	.long	0xa804
	.byte	0
	.uleb128 0x5e
	.long	.LASF1455
	.byte	0xd
	.value	0x195
	.long	.LASF1456
	.long	0xa3f1
	.long	0x1181e
	.uleb128 0xe
	.string	"__A"
	.byte	0xd
	.value	0x195
	.byte	0x1d
	.long	0xa40e
	.byte	0
	.uleb128 0x5e
	.long	.LASF1457
	.byte	0xe
	.value	0x2c7
	.long	.LASF1458
	.long	0xa391
	.long	0x11840
	.uleb128 0xe
	.string	"__P"
	.byte	0xe
	.value	0x2c7
	.byte	0x23
	.long	0x11840
	.byte	0
	.uleb128 0xd
	.long	0xa3b5
	.uleb128 0x5e
	.long	.LASF1459
	.byte	0xe
	.value	0x258
	.long	.LASF1460
	.long	0xa391
	.long	0x11874
	.uleb128 0x12
	.long	.LASF1461
	.byte	0xe
	.value	0x258
	.byte	0x16
	.long	0xa246
	.uleb128 0x12
	.long	.LASF1462
	.byte	0xe
	.value	0x258
	.byte	0x23
	.long	0xa246
	.byte	0
	.uleb128 0x5e
	.long	.LASF1463
	.byte	0xe
	.value	0x252
	.long	.LASF1464
	.long	0xa391
	.long	0x118a3
	.uleb128 0x12
	.long	.LASF1461
	.byte	0xe
	.value	0x252
	.byte	0x1b
	.long	0x924f
	.uleb128 0x12
	.long	.LASF1462
	.byte	0xe
	.value	0x252
	.byte	0x2b
	.long	0x924f
	.byte	0
	.uleb128 0x13
	.long	0x75c9
	.byte	0x3
	.long	0x118bb
	.uleb128 0xe
	.string	"__x"
	.byte	0x9
	.value	0x108
	.byte	0xf
	.long	0x30
	.byte	0
	.uleb128 0x13
	.long	0x75e4
	.byte	0x3
	.long	0x118d3
	.uleb128 0xe
	.string	"__n"
	.byte	0xa
	.value	0x3fd
	.byte	0x23
	.long	0x3e
	.byte	0
	.uleb128 0xd7
	.long	.LASF1328
	.byte	0x4a
	.byte	0xb1
	.byte	0x23
	.long	.LASF1465
	.byte	0x3
	.long	0x118f0
	.uleb128 0x1
	.long	0x7650
	.uleb128 0x1
	.long	0x7650
	.byte	0
	.uleb128 0xd8
	.long	.LASF1330
	.byte	0x4a
	.byte	0xa8
	.byte	0x7
	.long	.LASF1466
	.long	0x7650
	.byte	0x3
	.long	0x11918
	.uleb128 0x1
	.long	0x2c3
	.uleb128 0x26
	.string	"__p"
	.byte	0x4a
	.byte	0xa8
	.byte	0x27
	.long	0x7650
	.byte	0
	.uleb128 0x80
	.long	.LASF1467
	.long	.LASF1469
	.uleb128 0x80
	.long	.LASF1468
	.long	.LASF1470
	.uleb128 0x80
	.long	.LASF1471
	.long	.LASF1472
	.byte	0
	.section	.debug_abbrev,"",@progbits
.Ldebug_abbrev0:
	.uleb128 0x1
	.uleb128 0x5
	.byte	0
	.uleb128 0x49
	.uleb128 0x13
	.byte	0
	.byte	0
	.uleb128 0x2
	.uleb128 0x5
	.byte	0
	.uleb128 0x49
	.uleb128 0x13
	.uleb128 0x34
	.uleb128 0x19
	.byte	0
	.byte	0
	.uleb128 0x3
	.uleb128 0x5
	.byte	0
	.uleb128 0x31
	.uleb128 0x13
	.byte	0
	.byte	0
	.uleb128 0x4
	.uleb128 0x5
	.byte	0
	.uleb128 0x31
	.uleb128 0x13
	.uleb128 0x2
	.uleb128 0x17
	.uleb128 0x2137
	.uleb128 0x17
	.byte	0
	.byte	0
	.uleb128 0x5
	.uleb128 0x8
	.byte	0
	.uleb128 0x3a
	.uleb128 0xb
	.uleb128 0x3b
	.uleb128 0xb
	.uleb128 0x39
	.uleb128 0xb
	.uleb128 0x18
	.uleb128 0x13
	.byte	0
	.byte	0
	.uleb128 0x6
	.uleb128 0x2e
	.byte	0x1
	.uleb128 0x3f
	.uleb128 0x19
	.uleb128 0x3
	.uleb128 0xe
	.uleb128 0x3a
	.uleb128 0xb
	.uleb128 0x3b
	.uleb128 0x5
	.uleb128 0x39
	.uleb128 0xb
	.uleb128 0x6e
	.uleb128 0xe
	.uleb128 0x49
	.uleb128 0x13
	.uleb128 0x32
	.uleb128 0xb
	.uleb128 0x3c
	.uleb128 0x19
	.uleb128 0x64
	.uleb128 0x13
	.uleb128 0x1
	.uleb128 0x13
	.byte	0
	.byte	0
	.uleb128 0x7
	.uleb128 0x26
	.byte	0
	.uleb128 0x49
	.uleb128 0x13
	.byte	0
	.byte	0
	.uleb128 0x8
	.uleb128 0x16
	.byte	0
	.uleb128 0x3
	.uleb128 0xe
	.uleb128 0x3a
	.uleb128 0xb
	.uleb128 0x3b
	.uleb128 0xb
	.uleb128 0x39
	.uleb128 0xb
	.uleb128 0x49
	.uleb128 0x13
	.byte	0
	.byte	0
	.uleb128 0x9
	.uleb128 0x5
	.byte	0
	.uleb128 0x3
	.uleb128 0xe
	.uleb128 0x49
	.uleb128 0x13
	.uleb128 0x34
	.uleb128 0x19
	.byte	0
	.byte	0
	.uleb128 0xa
	.uleb128 0x2f
	.byte	0
	.uleb128 0x3
	.uleb128 0xe
	.uleb128 0x49
	.uleb128 0x13
	.byte	0
	.byte	0
	.uleb128 0xb
	.uleb128 0x2e
	.byte	0x1
	.uleb128 0x47
	.uleb128 0x13
	.uleb128 0x64
	.uleb128 0x13
	.uleb128 0x20
	.uleb128 0xb
	.uleb128 0x1
	.uleb128 0x13
	.byte	0
	.byte	0
	.uleb128 0xc
	.uleb128 0x10
	.byte	0
	.uleb128 0xb
	.uleb128 0x21
	.sleb128 8
	.uleb128 0x49
	.uleb128 0x13
	.byte	0
	.byte	0
	.uleb128 0xd
	.uleb128 0xf
	.byte	0
	.uleb128 0xb
	.uleb128 0x21
	.sleb128 8
	.uleb128 0x49
	.uleb128 0x13
	.byte	0
	.byte	0
	.uleb128 0xe
	.uleb128 0x5
	.byte	0
	.uleb128 0x3
	.uleb128 0x8
	.uleb128 0x3a
	.uleb128 0xb
	.uleb128 0x3b
	.uleb128 0x5
	.uleb128 0x39
	.uleb128 0xb
	.uleb128 0x49
	.uleb128 0x13
	.byte	0
	.byte	0
	.uleb128 0xf
	.uleb128 0x2f
	.byte	0
	.uleb128 0x3
	.uleb128 0x8
	.uleb128 0x49
	.uleb128 0x13
	.byte	0
	.byte	0
	.uleb128 0x10
	.uleb128 0x2e
	.byte	0x1
	.uleb128 0x3f
	.uleb128 0x19
	.uleb128 0x3
	.uleb128 0xe
	.uleb128 0x3a
	.uleb128 0xb
	.uleb128 0x3b
	.uleb128 0x5
	.uleb128 0x39
	.uleb128 0xb
	.uleb128 0x6e
	.uleb128 0xe
	.uleb128 0x32
	.uleb128 0xb
	.uleb128 0x3c
	.uleb128 0x19
	.uleb128 0x64
	.uleb128 0x13
	.uleb128 0x1
	.uleb128 0x13
	.byte	0
	.byte	0
	.uleb128 0x11
	.uleb128 0xd
	.byte	0
	.uleb128 0x3
	.uleb128 0xe
	.uleb128 0x3a
	.uleb128 0xb
	.uleb128 0x3b
	.uleb128 0xb
	.uleb128 0x39
	.uleb128 0xb
	.uleb128 0x49
	.uleb128 0x13
	.uleb128 0x38
	.uleb128 0xb
	.byte	0
	.byte	0
	.uleb128 0x12
	.uleb128 0x5
	.byte	0
	.uleb128 0x3
	.uleb128 0xe
	.uleb128 0x3a
	.uleb128 0xb
	.uleb128 0x3b
	.uleb128 0x5
	.uleb128 0x39
	.uleb128 0xb
	.uleb128 0x49
	.uleb128 0x13
	.byte	0
	.byte	0
	.uleb128 0x13
	.uleb128 0x2e
	.byte	0x1
	.uleb128 0x47
	.uleb128 0x13
	.uleb128 0x20
	.uleb128 0xb
	.uleb128 0x1
	.uleb128 0x13
	.byte	0
	.byte	0
	.uleb128 0x14
	.uleb128 0x16
	.byte	0
	.uleb128 0x3
	.uleb128 0xe
	.uleb128 0x3a
	.uleb128 0xb
	.uleb128 0x3b
	.uleb128 0x5
	.uleb128 0x39
	.uleb128 0xb
	.uleb128 0x49
	.uleb128 0x13
	.uleb128 0x32
	.uleb128 0x21
	.sleb128 1
	.byte	0
	.byte	0
	.uleb128 0x15
	.uleb128 0x2e
	.byte	0x1
	.uleb128 0x3f
	.uleb128 0x19
	.uleb128 0x3
	.uleb128 0xe
	.uleb128 0x3a
	.uleb128 0xb
	.uleb128 0x3b
	.uleb128 0x5
	.uleb128 0x39
	.uleb128 0xb
	.uleb128 0x49
	.uleb128 0x13
	.uleb128 0x3c
	.uleb128 0x19
	.uleb128 0x1
	.uleb128 0x13
	.byte	0
	.byte	0
	.uleb128 0x16
	.uleb128 0x2e
	.byte	0x1
	.uleb128 0x3f
	.uleb128 0x19
	.uleb128 0x3
	.uleb128 0xe
	.uleb128 0x3a
	.uleb128 0xb
	.uleb128 0x3b
	.uleb128 0x5
	.uleb128 0x39
	.uleb128 0xb
	.uleb128 0x6e
	.uleb128 0xe
	.uleb128 0x49
	.uleb128 0x13
	.uleb128 0x3c
	.uleb128 0x19
	.uleb128 0x1
	.uleb128 0x13
	.byte	0
	.byte	0
	.uleb128 0x17
	.uleb128 0x1d
	.byte	0x1
	.uleb128 0x31
	.uleb128 0x13
	.uleb128 0x52
	.uleb128 0x1
	.uleb128 0x2138
	.uleb128 0x5
	.uleb128 0x55
	.uleb128 0x17
	.uleb128 0x58
	.uleb128 0xb
	.uleb128 0x59
	.uleb128 0x5
	.uleb128 0x57
	.uleb128 0xb
	.byte	0
	.byte	0
	.uleb128 0x18
	.uleb128 0x1d
	.byte	0x1
	.uleb128 0x31
	.uleb128 0x13
	.uleb128 0x52
	.uleb128 0x1
	.uleb128 0x2138
	.uleb128 0x5
	.uleb128 0x11
	.uleb128 0x1
	.uleb128 0x12
	.uleb128 0x7
	.uleb128 0x58
	.uleb128 0xb
	.uleb128 0x59
	.uleb128 0x5
	.uleb128 0x57
	.uleb128 0xb
	.byte	0
	.byte	0
	.uleb128 0x19
	.uleb128 0x8
	.byte	0
	.uleb128 0x3a
	.uleb128 0xb
	.uleb128 0x3b
	.uleb128 0x5
	.uleb128 0x39
	.uleb128 0xb
	.uleb128 0x18
	.uleb128 0x13
	.byte	0
	.byte	0
	.uleb128 0x1a
	.uleb128 0x13
	.byte	0x1
	.uleb128 0x3
	.uleb128 0xe
	.uleb128 0xb
	.uleb128 0xb
	.uleb128 0x3a
	.uleb128 0xb
	.uleb128 0x3b
	.uleb128 0xb
	.uleb128 0x39
	.uleb128 0xb
	.uleb128 0x1
	.uleb128 0x13
	.byte	0
	.byte	0
	.uleb128 0x1b
	.uleb128 0x2e
	.byte	0x1
	.uleb128 0x31
	.uleb128 0x13
	.uleb128 0x6e
	.uleb128 0xe
	.uleb128 0x64
	.uleb128 0x13
	.uleb128 0x1
	.uleb128 0x13
	.byte	0
	.byte	0
	.uleb128 0x1c
	.uleb128 0x2e
	.byte	0x1
	.uleb128 0x3f
	.uleb128 0x19
	.uleb128 0x3
	.uleb128 0xe
	.uleb128 0x3a
	.uleb128 0x21
	.sleb128 2
	.uleb128 0x3b
	.uleb128 0x5
	.uleb128 0x39
	.uleb128 0x21
	.sleb128 7
	.uleb128 0x6e
	.uleb128 0xe
	.uleb128 0x3c
	.uleb128 0x19
	.uleb128 0x64
	.uleb128 0x13
	.uleb128 0x1
	.uleb128 0x13
	.byte	0
	.byte	0
	.uleb128 0x1d
	.uleb128 0x16
	.byte	0
	.uleb128 0x3
	.uleb128 0xe
	.uleb128 0x3a
	.uleb128 0xb
	.uleb128 0x3b
	.uleb128 0x5
	.uleb128 0x39
	.uleb128 0xb
	.uleb128 0x49
	.uleb128 0x13
	.byte	0
	.byte	0
	.uleb128 0x1e
	.uleb128 0x2e
	.byte	0x1
	.uleb128 0x3
	.uleb128 0xe
	.uleb128 0x3a
	.uleb128 0xb
	.uleb128 0x3b
	.uleb128 0x5
	.uleb128 0x39
	.uleb128 0xb
	.uleb128 0x49
	.uleb128 0x13
	.uleb128 0x32
	.uleb128 0xb
	.uleb128 0x3c
	.uleb128 0x19
	.uleb128 0x64
	.uleb128 0x13
	.uleb128 0x1
	.uleb128 0x13
	.byte	0
	.byte	0
	.uleb128 0x1f
	.uleb128 0x49
	.byte	0
	.uleb128 0x2
	.uleb128 0x18
	.uleb128 0x7e
	.uleb128 0x18
	.byte	0
	.byte	0
	.uleb128 0x20
	.uleb128 0x1d
	.byte	0x1
	.uleb128 0x31
	.uleb128 0x13
	.uleb128 0x52
	.uleb128 0x1
	.uleb128 0x2138
	.uleb128 0x5
	.uleb128 0x11
	.uleb128 0x1
	.uleb128 0x12
	.uleb128 0x7
	.uleb128 0x58
	.uleb128 0xb
	.uleb128 0x59
	.uleb128 0xb
	.uleb128 0x57
	.uleb128 0xb
	.byte	0
	.byte	0
	.uleb128 0x21
	.uleb128 0x2e
	.byte	0x1
	.uleb128 0x3f
	.uleb128 0x19
	.uleb128 0x3
	.uleb128 0xe
	.uleb128 0x3a
	.uleb128 0xb
	.uleb128 0x3b
	.uleb128 0xb
	.uleb128 0x39
	.uleb128 0xb
	.uleb128 0x6e
	.uleb128 0xe
	.uleb128 0x49
	.uleb128 0x13
	.uleb128 0x32
	.uleb128 0xb
	.uleb128 0x3c
	.uleb128 0x19
	.uleb128 0x64
	.uleb128 0x13
	.uleb128 0x1
	.uleb128 0x13
	.byte	0
	.byte	0
	.uleb128 0x22
	.uleb128 0x2e
	.byte	0x1
	.uleb128 0x3f
	.uleb128 0x19
	.uleb128 0x3
	.uleb128 0xe
	.uleb128 0x3a
	.uleb128 0xb
	.uleb128 0x3b
	.uleb128 0xb
	.uleb128 0x39
	.uleb128 0xb
	.uleb128 0x6e
	.uleb128 0xe
	.uleb128 0x3c
	.uleb128 0x19
	.uleb128 0x64
	.uleb128 0x13
	.uleb128 0x1
	.uleb128 0x13
	.byte	0
	.byte	0
	.uleb128 0x23
	.uleb128 0x2e
	.byte	0x1
	.uleb128 0x3f
	.uleb128 0x19
	.uleb128 0x3
	.uleb128 0xe
	.uleb128 0x3a
	.uleb128 0xb
	.uleb128 0x3b
	.uleb128 0xb
	.uleb128 0x39
	.uleb128 0xb
	.uleb128 0x6e
	.uleb128 0xe
	.uleb128 0x32
	.uleb128 0xb
	.uleb128 0x3c
	.uleb128 0x19
	.uleb128 0x64
	.uleb128 0x13
	.uleb128 0x1
	.uleb128 0x13
	.byte	0
	.byte	0
	.uleb128 0x24
	.uleb128 0x2e
	.byte	0x1
	.uleb128 0x3f
	.uleb128 0x19
	.uleb128 0x3
	.uleb128 0xe
	.uleb128 0x3a
	.uleb128 0xb
	.uleb128 0x3b
	.uleb128 0xb
	.uleb128 0x39
	.uleb128 0xb
	.uleb128 0x49
	.uleb128 0x13
	.uleb128 0x3c
	.uleb128 0x19
	.uleb128 0x1
	.uleb128 0x13
	.byte	0
	.byte	0
	.uleb128 0x25
	.uleb128 0x34
	.byte	0
	.uleb128 0x3
	.uleb128 0xe
	.uleb128 0x3a
	.uleb128 0xb
	.uleb128 0x3b
	.uleb128 0x5
	.uleb128 0x39
	.uleb128 0xb
	.uleb128 0x49
	.uleb128 0x13
	.byte	0
	.byte	0
	.uleb128 0x26
	.uleb128 0x5
	.byte	0
	.uleb128 0x3
	.uleb128 0x8
	.uleb128 0x3a
	.uleb128 0xb
	.uleb128 0x3b
	.uleb128 0xb
	.uleb128 0x39
	.uleb128 0xb
	.uleb128 0x49
	.uleb128 0x13
	.byte	0
	.byte	0
	.uleb128 0x27
	.uleb128 0x16
	.byte	0
	.uleb128 0x3
	.uleb128 0xe
	.uleb128 0x3a
	.uleb128 0xb
	.uleb128 0x3b
	.uleb128 0xb
	.uleb128 0x39
	.uleb128 0xb
	.uleb128 0x49
	.uleb128 0x13
	.uleb128 0x32
	.uleb128 0x21
	.sleb128 1
	.byte	0
	.byte	0
	.uleb128 0x28
	.uleb128 0x42
	.byte	0
	.uleb128 0xb
	.uleb128 0x21
	.sleb128 8
	.uleb128 0x49
	.uleb128 0x13
	.byte	0
	.byte	0
	.uleb128 0x29
	.uleb128 0x24
	.byte	0
	.uleb128 0xb
	.uleb128 0xb
	.uleb128 0x3e
	.uleb128 0xb
	.uleb128 0x3
	.uleb128 0xe
	.byte	0
	.byte	0
	.uleb128 0x2a
	.uleb128 0x34
	.byte	0
	.uleb128 0x3
	.uleb128 0x8
	.uleb128 0x3a
	.uleb128 0x21
	.sleb128 1
	.uleb128 0x3b
	.uleb128 0xb
	.uleb128 0x39
	.uleb128 0xb
	.uleb128 0x49
	.uleb128 0x13
	.uleb128 0x2
	.uleb128 0x17
	.uleb128 0x2137
	.uleb128 0x17
	.byte	0
	.byte	0
	.uleb128 0x2b
	.uleb128 0x1d
	.byte	0x1
	.uleb128 0x31
	.uleb128 0x13
	.uleb128 0x52
	.uleb128 0x1
	.uleb128 0x2138
	.uleb128 0x5
	.uleb128 0x11
	.uleb128 0x1
	.uleb128 0x12
	.uleb128 0x7
	.uleb128 0x58
	.uleb128 0xb
	.uleb128 0x59
	.uleb128 0xb
	.uleb128 0x57
	.uleb128 0xb
	.uleb128 0x1
	.uleb128 0x13
	.byte	0
	.byte	0
	.uleb128 0x2c
	.uleb128 0x2e
	.byte	0x1
	.uleb128 0x3
	.uleb128 0xe
	.uleb128 0x3a
	.uleb128 0xb
	.uleb128 0x3b
	.uleb128 0x5
	.uleb128 0x39
	.uleb128 0xb
	.uleb128 0x32
	.uleb128 0xb
	.uleb128 0x3c
	.uleb128 0x19
	.uleb128 0x64
	.uleb128 0x13
	.uleb128 0x1
	.uleb128 0x13
	.byte	0
	.byte	0
	.uleb128 0x2d
	.uleb128 0x1d
	.byte	0x1
	.uleb128 0x31
	.uleb128 0x13
	.uleb128 0x52
	.uleb128 0x1
	.uleb128 0x2138
	.uleb128 0x5
	.uleb128 0x11
	.uleb128 0x1
	.uleb128 0x12
	.uleb128 0x7
	.uleb128 0x58
	.uleb128 0xb
	.uleb128 0x59
	.uleb128 0x5
	.uleb128 0x57
	.uleb128 0xb
	.uleb128 0x1
	.uleb128 0x13
	.byte	0
	.byte	0
	.uleb128 0x2e
	.uleb128 0x34
	.byte	0
	.uleb128 0x31
	.uleb128 0x13
	.uleb128 0x2
	.uleb128 0x17
	.uleb128 0x2137
	.uleb128 0x17
	.byte	0
	.byte	0
	.uleb128 0x2f
	.uleb128 0x48
	.byte	0x1
	.uleb128 0x7d
	.uleb128 0x1
	.uleb128 0x7f
	.uleb128 0x13
	.byte	0
	.byte	0
	.uleb128 0x30
	.uleb128 0x1d
	.byte	0x1
	.uleb128 0x31
	.uleb128 0x13
	.uleb128 0x52
	.uleb128 0x1
	.uleb128 0x2138
	.uleb128 0x5
	.uleb128 0x55
	.uleb128 0x17
	.uleb128 0x58
	.uleb128 0xb
	.uleb128 0x59
	.uleb128 0xb
	.uleb128 0x57
	.uleb128 0xb
	.uleb128 0x1
	.uleb128 0x13
	.byte	0
	.byte	0
	.uleb128 0x31
	.uleb128 0x34
	.byte	0
	.uleb128 0x3
	.uleb128 0xe
	.uleb128 0x3a
	.uleb128 0xb
	.uleb128 0x3b
	.uleb128 0xb
	.uleb128 0x39
	.uleb128 0xb
	.uleb128 0x49
	.uleb128 0x13
	.byte	0
	.byte	0
	.uleb128 0x32
	.uleb128 0x2e
	.byte	0
	.uleb128 0x3f
	.uleb128 0x19
	.uleb128 0x3
	.uleb128 0xe
	.uleb128 0x3a
	.uleb128 0x21
	.sleb128 50
	.uleb128 0x3b
	.uleb128 0xb
	.uleb128 0x39
	.uleb128 0x21
	.sleb128 27
	.uleb128 0x6e
	.uleb128 0xe
	.uleb128 0x49
	.uleb128 0x13
	.uleb128 0x3c
	.uleb128 0x19
	.byte	0
	.byte	0
	.uleb128 0x33
	.uleb128 0x2
	.byte	0
	.uleb128 0x3
	.uleb128 0xe
	.uleb128 0x3c
	.uleb128 0x19
	.byte	0
	.byte	0
	.uleb128 0x34
	.uleb128 0x2e
	.byte	0x1
	.uleb128 0x3f
	.uleb128 0x19
	.uleb128 0x3
	.uleb128 0xe
	.uleb128 0x3a
	.uleb128 0xb
	.uleb128 0x3b
	.uleb128 0xb
	.uleb128 0x39
	.uleb128 0xb
	.uleb128 0x6e
	.uleb128 0xe
	.uleb128 0x49
	.uleb128 0x13
	.uleb128 0x3c
	.uleb128 0x19
	.uleb128 0x1
	.uleb128 0x13
	.byte	0
	.byte	0
	.uleb128 0x35
	.uleb128 0x1c
	.byte	0
	.uleb128 0x49
	.uleb128 0x13
	.uleb128 0x38
	.uleb128 0x21
	.sleb128 0
	.byte	0
	.byte	0
	.uleb128 0x36
	.uleb128 0x2e
	.byte	0x1
	.uleb128 0x3f
	.uleb128 0x19
	.uleb128 0x3
	.uleb128 0xe
	.uleb128 0x3a
	.uleb128 0x21
	.sleb128 2
	.uleb128 0x3b
	.uleb128 0x5
	.uleb128 0x39
	.uleb128 0xb
	.uleb128 0x6e
	.uleb128 0xe
	.uleb128 0x49
	.uleb128 0x13
	.uleb128 0x3c
	.uleb128 0x19
	.uleb128 0x64
	.uleb128 0x13
	.uleb128 0x1
	.uleb128 0x13
	.byte	0
	.byte	0
	.uleb128 0x37
	.uleb128 0x2e
	.byte	0x1
	.uleb128 0x3f
	.uleb128 0x19
	.uleb128 0x3
	.uleb128 0xe
	.uleb128 0x3a
	.uleb128 0xb
	.uleb128 0x3b
	.uleb128 0x5
	.uleb128 0x39
	.uleb128 0xb
	.uleb128 0x6e
	.uleb128 0xe
	.uleb128 0x3c
	.uleb128 0x19
	.uleb128 0x1
	.uleb128 0x13
	.byte	0
	.byte	0
	.uleb128 0x38
	.uleb128 0x34
	.byte	0
	.uleb128 0x3
	.uleb128 0xe
	.uleb128 0x3a
	.uleb128 0x21
	.sleb128 1
	.uleb128 0x3b
	.uleb128 0xb
	.uleb128 0x39
	.uleb128 0xb
	.uleb128 0x49
	.uleb128 0x13
	.uleb128 0x2
	.uleb128 0x17
	.uleb128 0x2137
	.uleb128 0x17
	.byte	0
	.byte	0
	.uleb128 0x39
	.uleb128 0x2e
	.byte	0x1
	.uleb128 0x3f
	.uleb128 0x19
	.uleb128 0x3
	.uleb128 0x8
	.uleb128 0x3a
	.uleb128 0x21
	.sleb128 2
	.uleb128 0x3b
	.uleb128 0x5
	.uleb128 0x39
	.uleb128 0x21
	.sleb128 7
	.uleb128 0x6e
	.uleb128 0xe
	.uleb128 0x49
	.uleb128 0x13
	.uleb128 0x32
	.uleb128 0x21
	.sleb128 1
	.uleb128 0x3c
	.uleb128 0x19
	.uleb128 0x64
	.uleb128 0x13
	.uleb128 0x1
	.uleb128 0x13
	.byte	0
	.byte	0
	.uleb128 0x3a
	.uleb128 0x34
	.byte	0
	.uleb128 0x31
	.uleb128 0x13
	.byte	0
	.byte	0
	.uleb128 0x3b
	.uleb128 0x2e
	.byte	0x1
	.uleb128 0x3
	.uleb128 0xe
	.uleb128 0x3a
	.uleb128 0x21
	.sleb128 2
	.uleb128 0x3b
	.uleb128 0x5
	.uleb128 0x39
	.uleb128 0xb
	.uleb128 0x3c
	.uleb128 0x19
	.uleb128 0x64
	.uleb128 0x13
	.uleb128 0x1
	.uleb128 0x13
	.byte	0
	.byte	0
	.uleb128 0x3c
	.uleb128 0x2e
	.byte	0x1
	.uleb128 0x31
	.uleb128 0x13
	.uleb128 0x64
	.uleb128 0x13
	.uleb128 0x1
	.uleb128 0x13
	.byte	0
	.byte	0
	.uleb128 0x3d
	.uleb128 0x1d
	.byte	0x1
	.uleb128 0x31
	.uleb128 0x13
	.uleb128 0x52
	.uleb128 0x1
	.uleb128 0x2138
	.uleb128 0x5
	.uleb128 0x55
	.uleb128 0x17
	.uleb128 0x58
	.uleb128 0xb
	.uleb128 0x59
	.uleb128 0x5
	.uleb128 0x57
	.uleb128 0xb
	.uleb128 0x1
	.uleb128 0x13
	.byte	0
	.byte	0
	.uleb128 0x3e
	.uleb128 0x1d
	.byte	0x1
	.uleb128 0x31
	.uleb128 0x13
	.uleb128 0x52
	.uleb128 0x1
	.uleb128 0x2138
	.uleb128 0x5
	.uleb128 0x55
	.uleb128 0x17
	.uleb128 0x58
	.uleb128 0xb
	.uleb128 0x59
	.uleb128 0xb
	.uleb128 0x57
	.uleb128 0xb
	.uleb128 0x2136
	.uleb128 0xb
	.uleb128 0x1
	.uleb128 0x13
	.byte	0
	.byte	0
	.uleb128 0x3f
	.uleb128 0x2
	.byte	0x1
	.uleb128 0x3
	.uleb128 0xe
	.uleb128 0xb
	.uleb128 0xb
	.uleb128 0x3a
	.uleb128 0xb
	.uleb128 0x3b
	.uleb128 0xb
	.uleb128 0x39
	.uleb128 0x21
	.sleb128 11
	.uleb128 0x1
	.uleb128 0x13
	.byte	0
	.byte	0
	.uleb128 0x40
	.uleb128 0x2e
	.byte	0x1
	.uleb128 0x3f
	.uleb128 0x19
	.uleb128 0x3
	.uleb128 0xe
	.uleb128 0x3a
	.uleb128 0xb
	.uleb128 0x3b
	.uleb128 0x5
	.uleb128 0x39
	.uleb128 0x21
	.sleb128 7
	.uleb128 0x6e
	.uleb128 0xe
	.uleb128 0x32
	.uleb128 0x21
	.sleb128 1
	.uleb128 0x3c
	.uleb128 0x19
	.uleb128 0x63
	.uleb128 0x19
	.uleb128 0x64
	.uleb128 0x13
	.uleb128 0x1
	.uleb128 0x13
	.byte	0
	.byte	0
	.uleb128 0x41
	.uleb128 0xd
	.byte	0
	.uleb128 0x3
	.uleb128 0x8
	.uleb128 0x3a
	.uleb128 0xb
	.uleb128 0x3b
	.uleb128 0xb
	.uleb128 0x39
	.uleb128 0xb
	.uleb128 0x49
	.uleb128 0x13
	.uleb128 0x38
	.uleb128 0xb
	.byte	0
	.byte	0
	.uleb128 0x42
	.uleb128 0x5
	.byte	0
	.uleb128 0x3
	.uleb128 0xe
	.uleb128 0x3a
	.uleb128 0xb
	.uleb128 0x3b
	.uleb128 0xb
	.uleb128 0x39
	.uleb128 0xb
	.uleb128 0x49
	.uleb128 0x13
	.byte	0
	.byte	0
	.uleb128 0x43
	.uleb128 0xb
	.byte	0x1
	.byte	0
	.byte	0
	.uleb128 0x44
	.uleb128 0xb
	.byte	0x1
	.uleb128 0x55
	.uleb128 0x17
	.byte	0
	.byte	0
	.uleb128 0x45
	.uleb128 0x2e
	.byte	0x1
	.uleb128 0x3f
	.uleb128 0x19
	.uleb128 0x3
	.uleb128 0xe
	.uleb128 0x3a
	.uleb128 0xb
	.uleb128 0x3b
	.uleb128 0xb
	.uleb128 0x39
	.uleb128 0xb
	.uleb128 0x6e
	.uleb128 0xe
	.uleb128 0x49
	.uleb128 0x13
	.uleb128 0x3c
	.uleb128 0x19
	.uleb128 0x64
	.uleb128 0x13
	.uleb128 0x1
	.uleb128 0x13
	.byte	0
	.byte	0
	.uleb128 0x46
	.uleb128 0x2e
	.byte	0x1
	.uleb128 0x3
	.uleb128 0xe
	.uleb128 0x3a
	.uleb128 0xb
	.uleb128 0x3b
	.uleb128 0x5
	.uleb128 0x39
	.uleb128 0xb
	.uleb128 0x49
	.uleb128 0x13
	.uleb128 0x3c
	.uleb128 0x19
	.uleb128 0x1
	.uleb128 0x13
	.byte	0
	.byte	0
	.uleb128 0x47
	.uleb128 0x1c
	.byte	0
	.uleb128 0x49
	.uleb128 0x13
	.uleb128 0x38
	.uleb128 0x21
	.sleb128 0
	.uleb128 0x32
	.uleb128 0xb
	.byte	0
	.byte	0
	.uleb128 0x48
	.uleb128 0x2
	.byte	0x1
	.uleb128 0x3
	.uleb128 0xe
	.uleb128 0xb
	.uleb128 0xb
	.uleb128 0x3a
	.uleb128 0xb
	.uleb128 0x3b
	.uleb128 0x5
	.uleb128 0x39
	.uleb128 0x21
	.sleb128 11
	.uleb128 0x1
	.uleb128 0x13
	.byte	0
	.byte	0
	.uleb128 0x49
	.uleb128 0x2e
	.byte	0x1
	.uleb128 0x3f
	.uleb128 0x19
	.uleb128 0x3
	.uleb128 0xe
	.uleb128 0x3a
	.uleb128 0xb
	.uleb128 0x3b
	.uleb128 0xb
	.uleb128 0x39
	.uleb128 0xb
	.uleb128 0x6e
	.uleb128 0xe
	.uleb128 0x3c
	.uleb128 0x19
	.uleb128 0x1
	.uleb128 0x13
	.byte	0
	.byte	0
	.uleb128 0x4a
	.uleb128 0x2e
	.byte	0x1
	.uleb128 0x3f
	.uleb128 0x19
	.uleb128 0x3
	.uleb128 0x8
	.uleb128 0x3a
	.uleb128 0xb
	.uleb128 0x3b
	.uleb128 0xb
	.uleb128 0x39
	.uleb128 0x21
	.sleb128 3
	.uleb128 0x6e
	.uleb128 0xe
	.uleb128 0x49
	.uleb128 0x13
	.uleb128 0x3c
	.uleb128 0x19
	.uleb128 0x1
	.uleb128 0x13
	.byte	0
	.byte	0
	.uleb128 0x4b
	.uleb128 0xb
	.byte	0x1
	.uleb128 0x55
	.uleb128 0x17
	.uleb128 0x1
	.uleb128 0x13
	.byte	0
	.byte	0
	.uleb128 0x4c
	.uleb128 0x1d
	.byte	0x1
	.uleb128 0x31
	.uleb128 0x13
	.uleb128 0x52
	.uleb128 0x1
	.uleb128 0x2138
	.uleb128 0x5
	.uleb128 0x11
	.uleb128 0x1
	.uleb128 0x12
	.uleb128 0x7
	.uleb128 0x58
	.uleb128 0x21
	.sleb128 1
	.uleb128 0x59
	.uleb128 0xb
	.uleb128 0x57
	.uleb128 0xb
	.uleb128 0x2136
	.uleb128 0xb
	.uleb128 0x1
	.uleb128 0x13
	.byte	0
	.byte	0
	.uleb128 0x4d
	.uleb128 0x48
	.byte	0
	.uleb128 0x7d
	.uleb128 0x1
	.uleb128 0x83
	.uleb128 0x18
	.byte	0
	.byte	0
	.uleb128 0x4e
	.uleb128 0x2e
	.byte	0x1
	.uleb128 0x3f
	.uleb128 0x19
	.uleb128 0x3
	.uleb128 0xe
	.uleb128 0x3a
	.uleb128 0xb
	.uleb128 0x3b
	.uleb128 0xb
	.uleb128 0x39
	.uleb128 0xb
	.uleb128 0x6e
	.uleb128 0xe
	.uleb128 0x49
	.uleb128 0x13
	.uleb128 0x32
	.uleb128 0x21
	.sleb128 1
	.uleb128 0x3c
	.uleb128 0x19
	.uleb128 0x8b
	.uleb128 0x21
	.sleb128 1
	.uleb128 0x64
	.uleb128 0x13
	.uleb128 0x1
	.uleb128 0x13
	.byte	0
	.byte	0
	.uleb128 0x4f
	.uleb128 0x2e
	.byte	0x1
	.uleb128 0x3f
	.uleb128 0x19
	.uleb128 0x3
	.uleb128 0xe
	.uleb128 0x3a
	.uleb128 0x21
	.sleb128 2
	.uleb128 0x3b
	.uleb128 0x5
	.uleb128 0x39
	.uleb128 0x21
	.sleb128 7
	.uleb128 0x6e
	.uleb128 0xe
	.uleb128 0x3c
	.uleb128 0x19
	.uleb128 0x8b
	.uleb128 0x21
	.sleb128 1
	.uleb128 0x64
	.uleb128 0x13
	.uleb128 0x1
	.uleb128 0x13
	.byte	0
	.byte	0
	.uleb128 0x50
	.uleb128 0xd
	.byte	0
	.uleb128 0x3
	.uleb128 0xe
	.uleb128 0x3a
	.uleb128 0x21
	.sleb128 2
	.uleb128 0x3b
	.uleb128 0x5
	.uleb128 0x39
	.uleb128 0xb
	.uleb128 0x49
	.uleb128 0x13
	.uleb128 0x38
	.uleb128 0xb
	.byte	0
	.byte	0
	.uleb128 0x51
	.uleb128 0x2e
	.byte	0x1
	.uleb128 0x3f
	.uleb128 0x19
	.uleb128 0x3
	.uleb128 0xe
	.uleb128 0x3a
	.uleb128 0x21
	.sleb128 2
	.uleb128 0x3b
	.uleb128 0x5
	.uleb128 0x39
	.uleb128 0x21
	.sleb128 7
	.uleb128 0x6e
	.uleb128 0xe
	.uleb128 0x32
	.uleb128 0x21
	.sleb128 1
	.uleb128 0x3c
	.uleb128 0x19
	.uleb128 0x8b
	.uleb128 0x21
	.sleb128 1
	.uleb128 0x64
	.uleb128 0x13
	.uleb128 0x1
	.uleb128 0x13
	.byte	0
	.byte	0
	.uleb128 0x52
	.uleb128 0x2e
	.byte	0x1
	.uleb128 0x3f
	.uleb128 0x19
	.uleb128 0x3
	.uleb128 0xe
	.uleb128 0x3a
	.uleb128 0x21
	.sleb128 2
	.uleb128 0x3b
	.uleb128 0x5
	.uleb128 0x39
	.uleb128 0x21
	.sleb128 7
	.uleb128 0x6e
	.uleb128 0xe
	.uleb128 0x49
	.uleb128 0x13
	.uleb128 0x32
	.uleb128 0x21
	.sleb128 2
	.uleb128 0x3c
	.uleb128 0x19
	.uleb128 0x1
	.uleb128 0x13
	.byte	0
	.byte	0
	.uleb128 0x53
	.uleb128 0x2e
	.byte	0x1
	.uleb128 0x3
	.uleb128 0xe
	.uleb128 0x3a
	.uleb128 0xb
	.uleb128 0x3b
	.uleb128 0xb
	.uleb128 0x39
	.uleb128 0xb
	.uleb128 0x32
	.uleb128 0x21
	.sleb128 1
	.uleb128 0x3c
	.uleb128 0x19
	.uleb128 0x64
	.uleb128 0x13
	.uleb128 0x1
	.uleb128 0x13
	.byte	0
	.byte	0
	.uleb128 0x54
	.uleb128 0x2e
	.byte	0x1
	.uleb128 0x3
	.uleb128 0xe
	.uleb128 0x3a
	.uleb128 0xb
	.uleb128 0x3b
	.uleb128 0xb
	.uleb128 0x39
	.uleb128 0xb
	.uleb128 0x49
	.uleb128 0x13
	.uleb128 0x32
	.uleb128 0xb
	.uleb128 0x3c
	.uleb128 0x19
	.uleb128 0x64
	.uleb128 0x13
	.uleb128 0x1
	.uleb128 0x13
	.byte	0
	.byte	0
	.uleb128 0x55
	.uleb128 0x4107
	.byte	0x1
	.uleb128 0x3
	.uleb128 0xe
	.uleb128 0x1
	.uleb128 0x13
	.byte	0
	.byte	0
	.uleb128 0x56
	.uleb128 0x2f
	.byte	0
	.uleb128 0x49
	.uleb128 0x13
	.byte	0
	.byte	0
	.uleb128 0x57
	.uleb128 0x2e
	.byte	0x1
	.uleb128 0x3
	.uleb128 0xe
	.uleb128 0x3a
	.uleb128 0x21
	.sleb128 2
	.uleb128 0x3b
	.uleb128 0xb
	.uleb128 0x39
	.uleb128 0x21
	.sleb128 2
	.uleb128 0x3c
	.uleb128 0x19
	.uleb128 0x64
	.uleb128 0x13
	.uleb128 0x1
	.uleb128 0x13
	.byte	0
	.byte	0
	.uleb128 0x58
	.uleb128 0x1d
	.byte	0x1
	.uleb128 0x31
	.uleb128 0x13
	.uleb128 0x52
	.uleb128 0x1
	.uleb128 0x2138
	.uleb128 0x5
	.uleb128 0x55
	.uleb128 0x17
	.uleb128 0x58
	.uleb128 0xb
	.uleb128 0x59
	.uleb128 0x5
	.uleb128 0x57
	.uleb128 0xb
	.uleb128 0x2136
	.uleb128 0xb
	.uleb128 0x1
	.uleb128 0x13
	.byte	0
	.byte	0
	.uleb128 0x59
	.uleb128 0x13
	.byte	0x1
	.uleb128 0x3
	.uleb128 0xe
	.uleb128 0xb
	.uleb128 0xb
	.uleb128 0x3a
	.uleb128 0xb
	.uleb128 0x3b
	.uleb128 0x5
	.uleb128 0x39
	.uleb128 0xb
	.uleb128 0x1
	.uleb128 0x13
	.byte	0
	.byte	0
	.uleb128 0x5a
	.uleb128 0x1
	.byte	0x1
	.uleb128 0x2107
	.uleb128 0x19
	.uleb128 0x49
	.uleb128 0x13
	.uleb128 0x1
	.uleb128 0x13
	.byte	0
	.byte	0
	.uleb128 0x5b
	.uleb128 0x21
	.byte	0
	.uleb128 0x2f
	.uleb128 0xb
	.byte	0
	.byte	0
	.uleb128 0x5c
	.uleb128 0x34
	.byte	0
	.uleb128 0x3
	.uleb128 0x8
	.uleb128 0x3a
	.uleb128 0xb
	.uleb128 0x3b
	.uleb128 0x5
	.uleb128 0x39
	.uleb128 0xb
	.uleb128 0x49
	.uleb128 0x13
	.byte	0
	.byte	0
	.uleb128 0x5d
	.uleb128 0x34
	.byte	0
	.uleb128 0x3
	.uleb128 0xe
	.uleb128 0x49
	.uleb128 0x13
	.uleb128 0x34
	.uleb128 0x19
	.byte	0
	.byte	0
	.uleb128 0x5e
	.uleb128 0x2e
	.byte	0x1
	.uleb128 0x3f
	.uleb128 0x19
	.uleb128 0x3
	.uleb128 0xe
	.uleb128 0x3a
	.uleb128 0xb
	.uleb128 0x3b
	.uleb128 0x5
	.uleb128 0x39
	.uleb128 0x21
	.sleb128 1
	.uleb128 0x6e
	.uleb128 0xe
	.uleb128 0x49
	.uleb128 0x13
	.uleb128 0x20
	.uleb128 0x21
	.sleb128 3
	.uleb128 0x34
	.uleb128 0x19
	.uleb128 0x1
	.uleb128 0x13
	.byte	0
	.byte	0
	.uleb128 0x5f
	.uleb128 0x18
	.byte	0
	.byte	0
	.byte	0
	.uleb128 0x60
	.uleb128 0x2e
	.byte	0x1
	.uleb128 0x3f
	.uleb128 0x19
	.uleb128 0x3
	.uleb128 0xe
	.uleb128 0x3a
	.uleb128 0xb
	.uleb128 0x3b
	.uleb128 0x5
	.uleb128 0x39
	.uleb128 0x21
	.sleb128 13
	.uleb128 0x3c
	.uleb128 0x19
	.uleb128 0x1
	.uleb128 0x13
	.byte	0
	.byte	0
	.uleb128 0x61
	.uleb128 0x2e
	.byte	0x1
	.uleb128 0x47
	.uleb128 0x13
	.uleb128 0x3a
	.uleb128 0xb
	.uleb128 0x3b
	.uleb128 0xb
	.uleb128 0x39
	.uleb128 0xb
	.uleb128 0x64
	.uleb128 0x13
	.uleb128 0x20
	.uleb128 0x21
	.sleb128 2
	.uleb128 0x1
	.uleb128 0x13
	.byte	0
	.byte	0
	.uleb128 0x62
	.uleb128 0x1d
	.byte	0x1
	.uleb128 0x31
	.uleb128 0x13
	.uleb128 0x52
	.uleb128 0x1
	.uleb128 0x2138
	.uleb128 0x5
	.uleb128 0x55
	.uleb128 0x17
	.uleb128 0x58
	.uleb128 0xb
	.uleb128 0x59
	.uleb128 0x5
	.uleb128 0x57
	.uleb128 0xb
	.uleb128 0x2136
	.uleb128 0xb
	.byte	0
	.byte	0
	.uleb128 0x63
	.uleb128 0x2e
	.byte	0x1
	.uleb128 0x3f
	.uleb128 0x19
	.uleb128 0x3
	.uleb128 0xe
	.uleb128 0x3a
	.uleb128 0x21
	.sleb128 2
	.uleb128 0x3b
	.uleb128 0xb
	.uleb128 0x39
	.uleb128 0x21
	.sleb128 2
	.uleb128 0x6e
	.uleb128 0xe
	.uleb128 0x3c
	.uleb128 0x19
	.uleb128 0x64
	.uleb128 0x13
	.byte	0
	.byte	0
	.uleb128 0x64
	.uleb128 0x2f
	.byte	0
	.uleb128 0x3
	.uleb128 0xe
	.uleb128 0x49
	.uleb128 0x13
	.uleb128 0x1e
	.uleb128 0x19
	.byte	0
	.byte	0
	.uleb128 0x65
	.uleb128 0x2e
	.byte	0x1
	.uleb128 0x3
	.uleb128 0xe
	.uleb128 0x3a
	.uleb128 0x21
	.sleb128 2
	.uleb128 0x3b
	.uleb128 0x5
	.uleb128 0x39
	.uleb128 0xb
	.uleb128 0x49
	.uleb128 0x13
	.uleb128 0x3c
	.uleb128 0x19
	.uleb128 0x64
	.uleb128 0x13
	.uleb128 0x1
	.uleb128 0x13
	.byte	0
	.byte	0
	.uleb128 0x66
	.uleb128 0xd
	.byte	0
	.uleb128 0x3
	.uleb128 0xe
	.uleb128 0x3a
	.uleb128 0x21
	.sleb128 3
	.uleb128 0x3b
	.uleb128 0x21
	.sleb128 1029
	.uleb128 0x39
	.uleb128 0x21
	.sleb128 17
	.uleb128 0x49
	.uleb128 0x13
	.uleb128 0x38
	.uleb128 0x21
	.sleb128 0
	.uleb128 0x32
	.uleb128 0x21
	.sleb128 2
	.byte	0
	.byte	0
	.uleb128 0x67
	.uleb128 0x2e
	.byte	0
	.uleb128 0x3
	.uleb128 0xe
	.uleb128 0x3a
	.uleb128 0x21
	.sleb128 50
	.uleb128 0x3b
	.uleb128 0xb
	.uleb128 0x39
	.uleb128 0x21
	.sleb128 27
	.uleb128 0x49
	.uleb128 0x13
	.uleb128 0x3c
	.uleb128 0x19
	.byte	0
	.byte	0
	.uleb128 0x68
	.uleb128 0x1d
	.byte	0x1
	.uleb128 0x31
	.uleb128 0x13
	.uleb128 0x52
	.uleb128 0x1
	.uleb128 0x2138
	.uleb128 0x5
	.uleb128 0x55
	.uleb128 0x17
	.uleb128 0x58
	.uleb128 0xb
	.uleb128 0x59
	.uleb128 0xb
	.uleb128 0x57
	.uleb128 0xb
	.byte	0
	.byte	0
	.uleb128 0x69
	.uleb128 0xb
	.byte	0x1
	.uleb128 0x31
	.uleb128 0x13
	.uleb128 0x55
	.uleb128 0x17
	.byte	0
	.byte	0
	.uleb128 0x6a
	.uleb128 0x1d
	.byte	0x1
	.uleb128 0x31
	.uleb128 0x13
	.uleb128 0x52
	.uleb128 0x1
	.uleb128 0x2138
	.uleb128 0x5
	.uleb128 0x11
	.uleb128 0x1
	.uleb128 0x12
	.uleb128 0x7
	.uleb128 0x58
	.uleb128 0xb
	.uleb128 0x59
	.uleb128 0xb
	.uleb128 0x57
	.uleb128 0x21
	.sleb128 22
	.uleb128 0x2136
	.uleb128 0xb
	.byte	0
	.byte	0
	.uleb128 0x6b
	.uleb128 0xb
	.byte	0x1
	.uleb128 0x31
	.uleb128 0x13
	.uleb128 0x55
	.uleb128 0x17
	.uleb128 0x1
	.uleb128 0x13
	.byte	0
	.byte	0
	.uleb128 0x6c
	.uleb128 0x39
	.byte	0x1
	.uleb128 0x3
	.uleb128 0xe
	.uleb128 0x3a
	.uleb128 0xb
	.uleb128 0x3b
	.uleb128 0xb
	.uleb128 0x39
	.uleb128 0xb
	.uleb128 0x1
	.uleb128 0x13
	.byte	0
	.byte	0
	.uleb128 0x6d
	.uleb128 0x2e
	.byte	0x1
	.uleb128 0x3f
	.uleb128 0x19
	.uleb128 0x3
	.uleb128 0xe
	.uleb128 0x3a
	.uleb128 0x21
	.sleb128 5
	.uleb128 0x3b
	.uleb128 0x21
	.sleb128 189
	.uleb128 0x39
	.uleb128 0x21
	.sleb128 7
	.uleb128 0x6e
	.uleb128 0xe
	.uleb128 0x32
	.uleb128 0x21
	.sleb128 1
	.uleb128 0x3c
	.uleb128 0x19
	.uleb128 0x64
	.uleb128 0x13
	.byte	0
	.byte	0
	.uleb128 0x6e
	.uleb128 0x2e
	.byte	0x1
	.uleb128 0x3f
	.uleb128 0x19
	.uleb128 0x3
	.uleb128 0xe
	.uleb128 0x6e
	.uleb128 0xe
	.uleb128 0x34
	.uleb128 0x19
	.uleb128 0x3c
	.uleb128 0x19
	.uleb128 0x64
	.uleb128 0x13
	.byte	0
	.byte	0
	.uleb128 0x6f
	.uleb128 0x2e
	.byte	0
	.uleb128 0x3f
	.uleb128 0x19
	.uleb128 0x3
	.uleb128 0xe
	.uleb128 0x3a
	.uleb128 0x21
	.sleb128 2
	.uleb128 0x3b
	.uleb128 0x21
	.sleb128 515
	.uleb128 0x39
	.uleb128 0x21
	.sleb128 7
	.uleb128 0x6e
	.uleb128 0xe
	.uleb128 0x49
	.uleb128 0x13
	.uleb128 0x3c
	.uleb128 0x19
	.byte	0
	.byte	0
	.uleb128 0x70
	.uleb128 0x2e
	.byte	0x1
	.uleb128 0x3
	.uleb128 0x8
	.uleb128 0x3a
	.uleb128 0x21
	.sleb128 2
	.uleb128 0x3b
	.uleb128 0x5
	.uleb128 0x39
	.uleb128 0x21
	.sleb128 7
	.uleb128 0x49
	.uleb128 0x13
	.uleb128 0x32
	.uleb128 0x21
	.sleb128 1
	.uleb128 0x3c
	.uleb128 0x19
	.uleb128 0x64
	.uleb128 0x13
	.uleb128 0x1
	.uleb128 0x13
	.byte	0
	.byte	0
	.uleb128 0x71
	.uleb128 0xd
	.byte	0
	.uleb128 0x3
	.uleb128 0xe
	.uleb128 0x3a
	.uleb128 0x21
	.sleb128 41
	.uleb128 0x3b
	.uleb128 0x21
	.sleb128 0
	.uleb128 0x49
	.uleb128 0x13
	.uleb128 0x38
	.uleb128 0xb
	.byte	0
	.byte	0
	.uleb128 0x72
	.uleb128 0x13
	.byte	0x1
	.uleb128 0xb
	.uleb128 0xb
	.uleb128 0x3a
	.uleb128 0xb
	.uleb128 0x3b
	.uleb128 0xb
	.uleb128 0x39
	.uleb128 0xb
	.uleb128 0x6e
	.uleb128 0xe
	.uleb128 0x1
	.uleb128 0x13
	.byte	0
	.byte	0
	.uleb128 0x73
	.uleb128 0x2e
	.byte	0
	.uleb128 0x3f
	.uleb128 0x19
	.uleb128 0x3
	.uleb128 0xe
	.uleb128 0x3a
	.uleb128 0xb
	.uleb128 0x3b
	.uleb128 0xb
	.uleb128 0x39
	.uleb128 0xb
	.uleb128 0x49
	.uleb128 0x13
	.uleb128 0x3c
	.uleb128 0x19
	.byte	0
	.byte	0
	.uleb128 0x74
	.uleb128 0xb
	.byte	0x1
	.uleb128 0x31
	.uleb128 0x13
	.byte	0
	.byte	0
	.uleb128 0x75
	.uleb128 0x34
	.byte	0
	.uleb128 0x3
	.uleb128 0x8
	.uleb128 0x3a
	.uleb128 0x21
	.sleb128 1
	.uleb128 0x3b
	.uleb128 0xb
	.uleb128 0x39
	.uleb128 0xb
	.uleb128 0x49
	.uleb128 0x13
	.byte	0
	.byte	0
	.uleb128 0x76
	.uleb128 0x1d
	.byte	0x1
	.uleb128 0x31
	.uleb128 0x13
	.uleb128 0x52
	.uleb128 0x1
	.uleb128 0x2138
	.uleb128 0x5
	.uleb128 0x11
	.uleb128 0x1
	.uleb128 0x12
	.uleb128 0x7
	.uleb128 0x58
	.uleb128 0x21
	.sleb128 2
	.uleb128 0x59
	.uleb128 0x5
	.uleb128 0x57
	.uleb128 0xb
	.uleb128 0x2136
	.uleb128 0xb
	.uleb128 0x1
	.uleb128 0x13
	.byte	0
	.byte	0
	.uleb128 0x77
	.uleb128 0xb
	.byte	0x1
	.uleb128 0x31
	.uleb128 0x13
	.uleb128 0x11
	.uleb128 0x1
	.uleb128 0x12
	.uleb128 0x7
	.uleb128 0x1
	.uleb128 0x13
	.byte	0
	.byte	0
	.uleb128 0x78
	.uleb128 0x39
	.byte	0
	.uleb128 0x3
	.uleb128 0xe
	.uleb128 0x3a
	.uleb128 0xb
	.uleb128 0x3b
	.uleb128 0xb
	.uleb128 0x39
	.uleb128 0xb
	.byte	0
	.byte	0
	.uleb128 0x79
	.uleb128 0x2e
	.byte	0x1
	.uleb128 0x3
	.uleb128 0xe
	.uleb128 0x3a
	.uleb128 0xb
	.uleb128 0x3b
	.uleb128 0x5
	.uleb128 0x39
	.uleb128 0x21
	.sleb128 7
	.uleb128 0x32
	.uleb128 0x21
	.sleb128 1
	.uleb128 0x3c
	.uleb128 0x19
	.uleb128 0x63
	.uleb128 0x19
	.uleb128 0x64
	.uleb128 0x13
	.uleb128 0x1
	.uleb128 0x13
	.byte	0
	.byte	0
	.uleb128 0x7a
	.uleb128 0x1
	.byte	0x1
	.uleb128 0x49
	.uleb128 0x13
	.uleb128 0x1
	.uleb128 0x13
	.byte	0
	.byte	0
	.uleb128 0x7b
	.uleb128 0x21
	.byte	0
	.uleb128 0x49
	.uleb128 0x13
	.uleb128 0x2f
	.uleb128 0xb
	.byte	0
	.byte	0
	.uleb128 0x7c
	.uleb128 0x28
	.byte	0
	.uleb128 0x3
	.uleb128 0xe
	.uleb128 0x1c
	.uleb128 0xb
	.byte	0
	.byte	0
	.uleb128 0x7d
	.uleb128 0x13
	.byte	0
	.uleb128 0x3
	.uleb128 0xe
	.uleb128 0x3c
	.uleb128 0x19
	.byte	0
	.byte	0
	.uleb128 0x7e
	.uleb128 0x16
	.byte	0
	.uleb128 0x3
	.uleb128 0xe
	.uleb128 0x3a
	.uleb128 0xb
	.uleb128 0x3b
	.uleb128 0xb
	.uleb128 0x39
	.uleb128 0xb
	.uleb128 0x49
	.uleb128 0x13
	.uleb128 0x88
	.uleb128 0x21
	.sleb128 1
	.byte	0
	.byte	0
	.uleb128 0x7f
	.uleb128 0x1d
	.byte	0x1
	.uleb128 0x31
	.uleb128 0x13
	.uleb128 0x52
	.uleb128 0x1
	.uleb128 0x2138
	.uleb128 0x5
	.uleb128 0x11
	.uleb128 0x1
	.uleb128 0x12
	.uleb128 0x7
	.uleb128 0x58
	.uleb128 0x21
	.sleb128 2
	.uleb128 0x59
	.uleb128 0x5
	.uleb128 0x57
	.uleb128 0xb
	.uleb128 0x2136
	.uleb128 0xb
	.byte	0
	.byte	0
	.uleb128 0x80
	.uleb128 0x2e
	.byte	0
	.uleb128 0x3f
	.uleb128 0x19
	.uleb128 0x3c
	.uleb128 0x19
	.uleb128 0x6e
	.uleb128 0xe
	.uleb128 0x3
	.uleb128 0xe
	.byte	0
	.byte	0
	.uleb128 0x81
	.uleb128 0x30
	.byte	0
	.uleb128 0x3
	.uleb128 0x8
	.uleb128 0x49
	.uleb128 0x13
	.uleb128 0x1c
	.uleb128 0xb
	.byte	0
	.byte	0
	.uleb128 0x82
	.uleb128 0x39
	.byte	0
	.uleb128 0x3
	.uleb128 0xe
	.uleb128 0x3a
	.uleb128 0x21
	.sleb128 19
	.uleb128 0x3b
	.uleb128 0x5
	.uleb128 0x39
	.uleb128 0x21
	.sleb128 13
	.byte	0
	.byte	0
	.uleb128 0x83
	.uleb128 0x2e
	.byte	0x1
	.uleb128 0x3f
	.uleb128 0x19
	.uleb128 0x3
	.uleb128 0xe
	.uleb128 0x3a
	.uleb128 0xb
	.uleb128 0x3b
	.uleb128 0xb
	.uleb128 0x39
	.uleb128 0xb
	.uleb128 0x6e
	.uleb128 0xe
	.uleb128 0x3c
	.uleb128 0x19
	.uleb128 0x63
	.uleb128 0x19
	.uleb128 0x64
	.uleb128 0x13
	.uleb128 0x1
	.uleb128 0x13
	.byte	0
	.byte	0
	.uleb128 0x84
	.uleb128 0x2e
	.byte	0x1
	.uleb128 0x3f
	.uleb128 0x19
	.uleb128 0x3
	.uleb128 0xe
	.uleb128 0x3a
	.uleb128 0xb
	.uleb128 0x3b
	.uleb128 0xb
	.uleb128 0x39
	.uleb128 0xb
	.uleb128 0x6e
	.uleb128 0xe
	.uleb128 0x87
	.uleb128 0x19
	.uleb128 0x3c
	.uleb128 0x19
	.uleb128 0x1
	.uleb128 0x13
	.byte	0
	.byte	0
	.uleb128 0x85
	.uleb128 0x39
	.byte	0
	.uleb128 0x3
	.uleb128 0xe
	.uleb128 0x3a
	.uleb128 0xb
	.uleb128 0x3b
	.uleb128 0x5
	.uleb128 0x39
	.uleb128 0xb
	.uleb128 0x89
	.uleb128 0x19
	.byte	0
	.byte	0
	.uleb128 0x86
	.uleb128 0x39
	.byte	0
	.uleb128 0x3
	.uleb128 0x8
	.uleb128 0x3a
	.uleb128 0xb
	.uleb128 0x3b
	.uleb128 0xb
	.uleb128 0x39
	.uleb128 0xb
	.uleb128 0x89
	.uleb128 0x19
	.byte	0
	.byte	0
	.uleb128 0x87
	.uleb128 0x30
	.byte	0
	.uleb128 0x3
	.uleb128 0xe
	.uleb128 0x49
	.uleb128 0x13
	.uleb128 0x1c
	.uleb128 0x21
	.sleb128 1
	.byte	0
	.byte	0
	.uleb128 0x88
	.uleb128 0x2e
	.byte	0x1
	.uleb128 0x3
	.uleb128 0xe
	.uleb128 0x3a
	.uleb128 0xb
	.uleb128 0x3b
	.uleb128 0xb
	.uleb128 0x39
	.uleb128 0xb
	.uleb128 0x49
	.uleb128 0x13
	.uleb128 0x32
	.uleb128 0x21
	.sleb128 1
	.uleb128 0x3c
	.uleb128 0x19
	.uleb128 0x8b
	.uleb128 0x21
	.sleb128 1
	.uleb128 0x64
	.uleb128 0x13
	.uleb128 0x1
	.uleb128 0x13
	.byte	0
	.byte	0
	.uleb128 0x89
	.uleb128 0x2e
	.byte	0x1
	.uleb128 0x3
	.uleb128 0xe
	.uleb128 0x3a
	.uleb128 0x21
	.sleb128 8
	.uleb128 0x3b
	.uleb128 0x5
	.uleb128 0x39
	.uleb128 0xb
	.uleb128 0x3c
	.uleb128 0x19
	.uleb128 0x1
	.uleb128 0x13
	.byte	0
	.byte	0
	.uleb128 0x8a
	.uleb128 0x2e
	.byte	0x1
	.uleb128 0x3
	.uleb128 0xe
	.uleb128 0x3a
	.uleb128 0x21
	.sleb128 2
	.uleb128 0x3b
	.uleb128 0x5
	.uleb128 0x39
	.uleb128 0x21
	.sleb128 7
	.uleb128 0x3c
	.uleb128 0x19
	.uleb128 0x8b
	.uleb128 0x21
	.sleb128 1
	.uleb128 0x64
	.uleb128 0x13
	.uleb128 0x1
	.uleb128 0x13
	.byte	0
	.byte	0
	.uleb128 0x8b
	.uleb128 0x2e
	.byte	0x1
	.uleb128 0x3
	.uleb128 0xe
	.uleb128 0x3a
	.uleb128 0x21
	.sleb128 2
	.uleb128 0x3b
	.uleb128 0x5
	.uleb128 0x39
	.uleb128 0x21
	.sleb128 7
	.uleb128 0x32
	.uleb128 0x21
	.sleb128 1
	.uleb128 0x3c
	.uleb128 0x19
	.uleb128 0x8b
	.uleb128 0x21
	.sleb128 1
	.uleb128 0x64
	.uleb128 0x13
	.uleb128 0x1
	.uleb128 0x13
	.byte	0
	.byte	0
	.uleb128 0x8c
	.uleb128 0x2e
	.byte	0x1
	.uleb128 0x3
	.uleb128 0xe
	.uleb128 0x3a
	.uleb128 0x21
	.sleb128 2
	.uleb128 0x3b
	.uleb128 0x5
	.uleb128 0x39
	.uleb128 0x21
	.sleb128 7
	.uleb128 0x49
	.uleb128 0x13
	.uleb128 0x32
	.uleb128 0x21
	.sleb128 2
	.uleb128 0x3c
	.uleb128 0x19
	.uleb128 0x1
	.uleb128 0x13
	.byte	0
	.byte	0
	.uleb128 0x8d
	.uleb128 0x2e
	.byte	0x1
	.uleb128 0x3f
	.uleb128 0x19
	.uleb128 0x3
	.uleb128 0x8
	.uleb128 0x3a
	.uleb128 0x21
	.sleb128 36
	.uleb128 0x3b
	.uleb128 0xb
	.uleb128 0x39
	.uleb128 0x21
	.sleb128 7
	.uleb128 0x6e
	.uleb128 0xe
	.uleb128 0x49
	.uleb128 0x13
	.uleb128 0x32
	.uleb128 0x21
	.sleb128 1
	.uleb128 0x3c
	.uleb128 0x19
	.uleb128 0x64
	.uleb128 0x13
	.uleb128 0x1
	.uleb128 0x13
	.byte	0
	.byte	0
	.uleb128 0x8e
	.uleb128 0x2e
	.byte	0
	.uleb128 0x3f
	.uleb128 0x19
	.uleb128 0x3
	.uleb128 0xe
	.uleb128 0x3a
	.uleb128 0x21
	.sleb128 37
	.uleb128 0x3b
	.uleb128 0xb
	.uleb128 0x39
	.uleb128 0x21
	.sleb128 3
	.uleb128 0x6e
	.uleb128 0xe
	.uleb128 0x87
	.uleb128 0x19
	.uleb128 0x3c
	.uleb128 0x19
	.byte	0
	.byte	0
	.uleb128 0x8f
	.uleb128 0x4107
	.byte	0
	.uleb128 0x3
	.uleb128 0xe
	.byte	0
	.byte	0
	.uleb128 0x90
	.uleb128 0x2e
	.byte	0x1
	.uleb128 0x3
	.uleb128 0xe
	.uleb128 0x3a
	.uleb128 0xb
	.uleb128 0x3b
	.uleb128 0xb
	.uleb128 0x39
	.uleb128 0xb
	.uleb128 0x49
	.uleb128 0x13
	.uleb128 0x3c
	.uleb128 0x19
	.uleb128 0x1
	.uleb128 0x13
	.byte	0
	.byte	0
	.uleb128 0x91
	.uleb128 0x2e
	.byte	0x1
	.uleb128 0x3
	.uleb128 0xe
	.uleb128 0x3a
	.uleb128 0xb
	.uleb128 0x3b
	.uleb128 0xb
	.uleb128 0x39
	.uleb128 0xb
	.uleb128 0x3c
	.uleb128 0x19
	.uleb128 0x1
	.uleb128 0x13
	.byte	0
	.byte	0
	.uleb128 0x92
	.uleb128 0x2e
	.byte	0x1
	.uleb128 0x3f
	.uleb128 0x19
	.uleb128 0x3
	.uleb128 0xe
	.uleb128 0x3a
	.uleb128 0xb
	.uleb128 0x3b
	.uleb128 0x5
	.uleb128 0x39
	.uleb128 0xb
	.uleb128 0x6e
	.uleb128 0xe
	.uleb128 0x49
	.uleb128 0x13
	.uleb128 0x3c
	.uleb128 0x19
	.byte	0
	.byte	0
	.uleb128 0x93
	.uleb128 0xd
	.byte	0
	.uleb128 0x3
	.uleb128 0xe
	.uleb128 0x3a
	.uleb128 0x21
	.sleb128 43
	.uleb128 0x3b
	.uleb128 0xb
	.uleb128 0x39
	.uleb128 0xb
	.uleb128 0x49
	.uleb128 0x13
	.byte	0
	.byte	0
	.uleb128 0x94
	.uleb128 0x2e
	.byte	0
	.uleb128 0x3f
	.uleb128 0x19
	.uleb128 0x3
	.uleb128 0xe
	.uleb128 0x3a
	.uleb128 0xb
	.uleb128 0x3b
	.uleb128 0x5
	.uleb128 0x39
	.uleb128 0xb
	.uleb128 0x49
	.uleb128 0x13
	.uleb128 0x3c
	.uleb128 0x19
	.byte	0
	.byte	0
	.uleb128 0x95
	.uleb128 0x39
	.byte	0x1
	.uleb128 0x3
	.uleb128 0xe
	.uleb128 0x3a
	.uleb128 0xb
	.uleb128 0x3b
	.uleb128 0x5
	.uleb128 0x39
	.uleb128 0x21
	.sleb128 11
	.uleb128 0x1
	.uleb128 0x13
	.byte	0
	.byte	0
	.uleb128 0x96
	.uleb128 0xd
	.byte	0
	.uleb128 0x3
	.uleb128 0xe
	.uleb128 0x3a
	.uleb128 0x21
	.sleb128 40
	.uleb128 0x3b
	.uleb128 0x5
	.uleb128 0x39
	.uleb128 0xb
	.uleb128 0x49
	.uleb128 0x13
	.uleb128 0x88
	.uleb128 0xb
	.uleb128 0x38
	.uleb128 0xb
	.byte	0
	.byte	0
	.uleb128 0x97
	.uleb128 0x34
	.byte	0
	.uleb128 0x47
	.uleb128 0x13
	.byte	0
	.byte	0
	.uleb128 0x98
	.uleb128 0x2e
	.byte	0x1
	.uleb128 0x3f
	.uleb128 0x19
	.uleb128 0x3
	.uleb128 0x8
	.uleb128 0x3a
	.uleb128 0x21
	.sleb128 4
	.uleb128 0x3b
	.uleb128 0xb
	.uleb128 0x39
	.uleb128 0xb
	.uleb128 0x6e
	.uleb128 0xe
	.uleb128 0x49
	.uleb128 0x13
	.uleb128 0x3c
	.uleb128 0x19
	.uleb128 0x64
	.uleb128 0x13
	.uleb128 0x1
	.uleb128 0x13
	.byte	0
	.byte	0
	.uleb128 0x99
	.uleb128 0x4108
	.byte	0x1
	.uleb128 0x3
	.uleb128 0xe
	.uleb128 0x3a
	.uleb128 0xb
	.uleb128 0x3b
	.uleb128 0xb
	.uleb128 0x39
	.uleb128 0xb
	.byte	0
	.byte	0
	.uleb128 0x9a
	.uleb128 0x5
	.byte	0
	.uleb128 0x3
	.uleb128 0xe
	.uleb128 0x3a
	.uleb128 0x21
	.sleb128 1
	.uleb128 0x3b
	.uleb128 0x21
	.sleb128 34
	.uleb128 0x39
	.uleb128 0xb
	.uleb128 0x49
	.uleb128 0x13
	.uleb128 0x2
	.uleb128 0x17
	.uleb128 0x2137
	.uleb128 0x17
	.byte	0
	.byte	0
	.uleb128 0x9b
	.uleb128 0x34
	.byte	0
	.uleb128 0x3
	.uleb128 0xe
	.uleb128 0x49
	.uleb128 0x13
	.uleb128 0x34
	.uleb128 0x19
	.uleb128 0x2
	.uleb128 0x17
	.uleb128 0x2137
	.uleb128 0x17
	.byte	0
	.byte	0
	.uleb128 0x9c
	.uleb128 0xb
	.byte	0x1
	.uleb128 0x11
	.uleb128 0x1
	.uleb128 0x12
	.uleb128 0x7
	.uleb128 0x1
	.uleb128 0x13
	.byte	0
	.byte	0
	.uleb128 0x9d
	.uleb128 0x1d
	.byte	0x1
	.uleb128 0x31
	.uleb128 0x13
	.uleb128 0x52
	.uleb128 0x1
	.uleb128 0x2138
	.uleb128 0x5
	.uleb128 0x55
	.uleb128 0x17
	.uleb128 0x58
	.uleb128 0xb
	.uleb128 0x59
	.uleb128 0xb
	.uleb128 0x57
	.uleb128 0xb
	.uleb128 0x2136
	.uleb128 0xb
	.byte	0
	.byte	0
	.uleb128 0x9e
	.uleb128 0x1d
	.byte	0x1
	.uleb128 0x31
	.uleb128 0x13
	.uleb128 0x55
	.uleb128 0x17
	.uleb128 0x58
	.uleb128 0x21
	.sleb128 12
	.uleb128 0x59
	.uleb128 0x21
	.sleb128 492
	.uleb128 0x57
	.uleb128 0x21
	.sleb128 17
	.uleb128 0x1
	.uleb128 0x13
	.byte	0
	.byte	0
	.uleb128 0x9f
	.uleb128 0x11
	.byte	0x1
	.uleb128 0x25
	.uleb128 0xe
	.uleb128 0x13
	.uleb128 0xb
	.uleb128 0x90
	.uleb128 0xb
	.uleb128 0x91
	.uleb128 0x6
	.uleb128 0x3
	.uleb128 0x1f
	.uleb128 0x1b
	.uleb128 0x1f
	.uleb128 0x55
	.uleb128 0x17
	.uleb128 0x11
	.uleb128 0x1
	.uleb128 0x10
	.uleb128 0x17
	.byte	0
	.byte	0
	.uleb128 0xa0
	.uleb128 0x24
	.byte	0
	.uleb128 0xb
	.uleb128 0xb
	.uleb128 0x3e
	.uleb128 0xb
	.uleb128 0x3
	.uleb128 0x8
	.byte	0
	.byte	0
	.uleb128 0xa1
	.uleb128 0x39
	.byte	0x1
	.uleb128 0x3
	.uleb128 0x8
	.uleb128 0x3a
	.uleb128 0xb
	.uleb128 0x3b
	.uleb128 0x5
	.uleb128 0x39
	.uleb128 0xb
	.uleb128 0x1
	.uleb128 0x13
	.byte	0
	.byte	0
	.uleb128 0xa2
	.uleb128 0x2e
	.byte	0x1
	.uleb128 0x3f
	.uleb128 0x19
	.uleb128 0x3
	.uleb128 0xe
	.uleb128 0x3a
	.uleb128 0xb
	.uleb128 0x3b
	.uleb128 0xb
	.uleb128 0x39
	.uleb128 0xb
	.uleb128 0x6e
	.uleb128 0xe
	.uleb128 0x49
	.uleb128 0x13
	.uleb128 0x32
	.uleb128 0xb
	.uleb128 0x3c
	.uleb128 0x19
	.uleb128 0x63
	.uleb128 0x19
	.uleb128 0x64
	.uleb128 0x13
	.uleb128 0x1
	.uleb128 0x13
	.byte	0
	.byte	0
	.uleb128 0xa3
	.uleb128 0x2e
	.byte	0x1
	.uleb128 0x3f
	.uleb128 0x19
	.uleb128 0x3
	.uleb128 0xe
	.uleb128 0x3a
	.uleb128 0xb
	.uleb128 0x3b
	.uleb128 0xb
	.uleb128 0x39
	.uleb128 0xb
	.uleb128 0x6e
	.uleb128 0xe
	.uleb128 0x49
	.uleb128 0x13
	.uleb128 0x32
	.uleb128 0xb
	.uleb128 0x3c
	.uleb128 0x19
	.uleb128 0x64
	.uleb128 0x13
	.byte	0
	.byte	0
	.uleb128 0xa4
	.uleb128 0x2e
	.byte	0x1
	.uleb128 0x3f
	.uleb128 0x19
	.uleb128 0x3
	.uleb128 0xe
	.uleb128 0x3a
	.uleb128 0xb
	.uleb128 0x3b
	.uleb128 0x5
	.uleb128 0x39
	.uleb128 0xb
	.uleb128 0x6e
	.uleb128 0xe
	.uleb128 0x3c
	.uleb128 0x19
	.byte	0
	.byte	0
	.uleb128 0xa5
	.uleb128 0x13
	.byte	0
	.uleb128 0x3
	.uleb128 0xe
	.uleb128 0xb
	.uleb128 0xb
	.uleb128 0x3a
	.uleb128 0xb
	.uleb128 0x3b
	.uleb128 0xb
	.uleb128 0x39
	.uleb128 0xb
	.byte	0
	.byte	0
	.uleb128 0xa6
	.uleb128 0x39
	.byte	0
	.uleb128 0x3
	.uleb128 0x8
	.uleb128 0x3a
	.uleb128 0xb
	.uleb128 0x3b
	.uleb128 0xb
	.uleb128 0x39
	.uleb128 0xb
	.byte	0
	.byte	0
	.uleb128 0xa7
	.uleb128 0x39
	.byte	0
	.uleb128 0x3
	.uleb128 0x8
	.uleb128 0x3a
	.uleb128 0xb
	.uleb128 0x3b
	.uleb128 0x5
	.uleb128 0x39
	.uleb128 0xb
	.uleb128 0x89
	.uleb128 0x19
	.byte	0
	.byte	0
	.uleb128 0xa8
	.uleb128 0x3a
	.byte	0
	.uleb128 0x3a
	.uleb128 0xb
	.uleb128 0x3b
	.uleb128 0x5
	.uleb128 0x39
	.uleb128 0xb
	.uleb128 0x18
	.uleb128 0x13
	.byte	0
	.byte	0
	.uleb128 0xa9
	.uleb128 0x39
	.byte	0x1
	.uleb128 0x3
	.uleb128 0xe
	.uleb128 0x3a
	.uleb128 0xb
	.uleb128 0x3b
	.uleb128 0x5
	.uleb128 0x39
	.uleb128 0xb
	.uleb128 0x89
	.uleb128 0x19
	.uleb128 0x1
	.uleb128 0x13
	.byte	0
	.byte	0
	.uleb128 0xaa
	.uleb128 0x39
	.byte	0x1
	.uleb128 0x3
	.uleb128 0xe
	.uleb128 0x3a
	.uleb128 0xb
	.uleb128 0x3b
	.uleb128 0xb
	.uleb128 0x39
	.uleb128 0xb
	.uleb128 0x89
	.uleb128 0x19
	.byte	0
	.byte	0
	.uleb128 0xab
	.uleb128 0x2e
	.byte	0x1
	.uleb128 0x3
	.uleb128 0xe
	.uleb128 0x3a
	.uleb128 0xb
	.uleb128 0x3b
	.uleb128 0xb
	.uleb128 0x39
	.uleb128 0xb
	.uleb128 0x49
	.uleb128 0x13
	.uleb128 0x3c
	.uleb128 0x19
	.uleb128 0x64
	.uleb128 0x13
	.uleb128 0x1
	.uleb128 0x13
	.byte	0
	.byte	0
	.uleb128 0xac
	.uleb128 0x2e
	.byte	0x1
	.uleb128 0x3
	.uleb128 0xe
	.uleb128 0x3a
	.uleb128 0xb
	.uleb128 0x3b
	.uleb128 0xb
	.uleb128 0x39
	.uleb128 0xb
	.uleb128 0x32
	.uleb128 0xb
	.uleb128 0x3c
	.uleb128 0x19
	.uleb128 0x64
	.uleb128 0x13
	.byte	0
	.byte	0
	.uleb128 0xad
	.uleb128 0x2e
	.byte	0x1
	.uleb128 0x3
	.uleb128 0xe
	.uleb128 0x3a
	.uleb128 0xb
	.uleb128 0x3b
	.uleb128 0x5
	.uleb128 0x39
	.uleb128 0xb
	.uleb128 0x3c
	.uleb128 0x19
	.byte	0
	.byte	0
	.uleb128 0xae
	.uleb128 0x2e
	.byte	0x1
	.uleb128 0x3
	.uleb128 0xe
	.uleb128 0x3a
	.uleb128 0xb
	.uleb128 0x3b
	.uleb128 0xb
	.uleb128 0x39
	.uleb128 0xb
	.uleb128 0x3c
	.uleb128 0x19
	.uleb128 0x64
	.uleb128 0x13
	.byte	0
	.byte	0
	.uleb128 0xaf
	.uleb128 0x2e
	.byte	0x1
	.uleb128 0x3
	.uleb128 0xe
	.uleb128 0x34
	.uleb128 0x19
	.uleb128 0x3c
	.uleb128 0x19
	.uleb128 0x64
	.uleb128 0x13
	.byte	0
	.byte	0
	.uleb128 0xb0
	.uleb128 0x2e
	.byte	0
	.uleb128 0x3
	.uleb128 0xe
	.uleb128 0x3a
	.uleb128 0xb
	.uleb128 0x3b
	.uleb128 0x5
	.uleb128 0x39
	.uleb128 0xb
	.uleb128 0x49
	.uleb128 0x13
	.uleb128 0x3c
	.uleb128 0x19
	.byte	0
	.byte	0
	.uleb128 0xb1
	.uleb128 0x2e
	.byte	0x1
	.uleb128 0x3
	.uleb128 0xe
	.uleb128 0x3a
	.uleb128 0xb
	.uleb128 0x3b
	.uleb128 0x5
	.uleb128 0x39
	.uleb128 0xb
	.uleb128 0x32
	.uleb128 0xb
	.uleb128 0x3c
	.uleb128 0x19
	.uleb128 0x64
	.uleb128 0x13
	.byte	0
	.byte	0
	.uleb128 0xb2
	.uleb128 0x2e
	.byte	0x1
	.uleb128 0x3f
	.uleb128 0x19
	.uleb128 0x3
	.uleb128 0xe
	.uleb128 0x3a
	.uleb128 0xb
	.uleb128 0x3b
	.uleb128 0xb
	.uleb128 0x39
	.uleb128 0xb
	.uleb128 0x6e
	.uleb128 0xe
	.uleb128 0x32
	.uleb128 0xb
	.uleb128 0x3c
	.uleb128 0x19
	.uleb128 0x1
	.uleb128 0x13
	.byte	0
	.byte	0
	.uleb128 0xb3
	.uleb128 0x2f
	.byte	0
	.uleb128 0x3
	.uleb128 0xe
	.byte	0
	.byte	0
	.uleb128 0xb4
	.uleb128 0x34
	.byte	0
	.uleb128 0x3
	.uleb128 0xe
	.uleb128 0x3a
	.uleb128 0xb
	.uleb128 0x3b
	.uleb128 0x5
	.uleb128 0x39
	.uleb128 0xb
	.uleb128 0x49
	.uleb128 0x13
	.uleb128 0x3c
	.uleb128 0x19
	.uleb128 0x1c
	.uleb128 0xb
	.uleb128 0x6c
	.uleb128 0x19
	.uleb128 0x20
	.uleb128 0xb
	.byte	0
	.byte	0
	.uleb128 0xb5
	.uleb128 0x13
	.byte	0x1
	.uleb128 0x3
	.uleb128 0xe
	.uleb128 0xb
	.uleb128 0xb
	.uleb128 0x3a
	.uleb128 0xb
	.uleb128 0x3b
	.uleb128 0xb
	.uleb128 0x1
	.uleb128 0x13
	.byte	0
	.byte	0
	.uleb128 0xb6
	.uleb128 0xf
	.byte	0
	.uleb128 0xb
	.uleb128 0xb
	.byte	0
	.byte	0
	.uleb128 0xb7
	.uleb128 0x17
	.byte	0x1
	.uleb128 0xb
	.uleb128 0xb
	.uleb128 0x3a
	.uleb128 0xb
	.uleb128 0x3b
	.uleb128 0xb
	.uleb128 0x39
	.uleb128 0xb
	.uleb128 0x1
	.uleb128 0x13
	.byte	0
	.byte	0
	.uleb128 0xb8
	.uleb128 0xd
	.byte	0
	.uleb128 0x3
	.uleb128 0xe
	.uleb128 0x3a
	.uleb128 0xb
	.uleb128 0x3b
	.uleb128 0xb
	.uleb128 0x39
	.uleb128 0xb
	.uleb128 0x49
	.uleb128 0x13
	.uleb128 0xd
	.uleb128 0xb
	.uleb128 0x6b
	.uleb128 0x5
	.byte	0
	.byte	0
	.uleb128 0xb9
	.uleb128 0x13
	.byte	0x1
	.uleb128 0x3
	.uleb128 0x8
	.uleb128 0xb
	.uleb128 0xb
	.uleb128 0x3a
	.uleb128 0xb
	.uleb128 0x3b
	.uleb128 0xb
	.uleb128 0x39
	.uleb128 0xb
	.uleb128 0x1
	.uleb128 0x13
	.byte	0
	.byte	0
	.uleb128 0xba
	.uleb128 0x4
	.byte	0x1
	.uleb128 0x3
	.uleb128 0xe
	.uleb128 0x3e
	.uleb128 0xb
	.uleb128 0xb
	.uleb128 0xb
	.uleb128 0x49
	.uleb128 0x13
	.uleb128 0x3a
	.uleb128 0xb
	.uleb128 0x3b
	.uleb128 0xb
	.uleb128 0x39
	.uleb128 0xb
	.uleb128 0x1
	.uleb128 0x13
	.byte	0
	.byte	0
	.uleb128 0xbb
	.uleb128 0x34
	.byte	0
	.uleb128 0x3
	.uleb128 0xe
	.uleb128 0x3a
	.uleb128 0xb
	.uleb128 0x3b
	.uleb128 0xb
	.uleb128 0x39
	.uleb128 0xb
	.uleb128 0x6e
	.uleb128 0xe
	.uleb128 0x49
	.uleb128 0x13
	.uleb128 0x3f
	.uleb128 0x19
	.uleb128 0x3c
	.uleb128 0x19
	.uleb128 0x1c
	.uleb128 0xb
	.uleb128 0x20
	.uleb128 0xb
	.byte	0
	.byte	0
	.uleb128 0xbc
	.uleb128 0x13
	.byte	0x1
	.uleb128 0xb
	.uleb128 0xb
	.uleb128 0x88
	.uleb128 0xb
	.uleb128 0x3a
	.uleb128 0xb
	.uleb128 0x3b
	.uleb128 0x5
	.uleb128 0x39
	.uleb128 0xb
	.uleb128 0x6e
	.uleb128 0xe
	.uleb128 0x1
	.uleb128 0x13
	.byte	0
	.byte	0
	.uleb128 0xbd
	.uleb128 0x16
	.byte	0
	.uleb128 0x3
	.uleb128 0xe
	.uleb128 0x3a
	.uleb128 0xb
	.uleb128 0x3b
	.uleb128 0x5
	.uleb128 0x39
	.uleb128 0xb
	.uleb128 0x49
	.uleb128 0x13
	.uleb128 0x88
	.uleb128 0xb
	.byte	0
	.byte	0
	.uleb128 0xbe
	.uleb128 0x3b
	.byte	0
	.uleb128 0x3
	.uleb128 0xe
	.byte	0
	.byte	0
	.uleb128 0xbf
	.uleb128 0x26
	.byte	0
	.byte	0
	.byte	0
	.uleb128 0xc0
	.uleb128 0x3a
	.byte	0
	.uleb128 0x3a
	.uleb128 0xb
	.uleb128 0x3b
	.uleb128 0xb
	.uleb128 0x39
	.uleb128 0xb
	.uleb128 0x18
	.uleb128 0x13
	.byte	0
	.byte	0
	.uleb128 0xc1
	.uleb128 0x15
	.byte	0x1
	.uleb128 0x49
	.uleb128 0x13
	.uleb128 0x1
	.uleb128 0x13
	.byte	0
	.byte	0
	.uleb128 0xc2
	.uleb128 0x15
	.byte	0
	.byte	0
	.byte	0
	.uleb128 0xc3
	.uleb128 0x2e
	.byte	0x1
	.uleb128 0x3f
	.uleb128 0x19
	.uleb128 0x3
	.uleb128 0x8
	.uleb128 0x3a
	.uleb128 0xb
	.uleb128 0x3b
	.uleb128 0x5
	.uleb128 0x39
	.uleb128 0xb
	.uleb128 0x49
	.uleb128 0x13
	.uleb128 0x3c
	.uleb128 0x19
	.uleb128 0x1
	.uleb128 0x13
	.byte	0
	.byte	0
	.uleb128 0xc4
	.uleb128 0x2e
	.byte	0x1
	.uleb128 0x3f
	.uleb128 0x19
	.uleb128 0x3
	.uleb128 0xe
	.uleb128 0x3a
	.uleb128 0xb
	.uleb128 0x3b
	.uleb128 0x5
	.uleb128 0x39
	.uleb128 0xb
	.uleb128 0x87
	.uleb128 0x19
	.uleb128 0x3c
	.uleb128 0x19
	.uleb128 0x1
	.uleb128 0x13
	.byte	0
	.byte	0
	.uleb128 0xc5
	.uleb128 0x16
	.byte	0
	.uleb128 0x3
	.uleb128 0xe
	.uleb128 0x3a
	.uleb128 0xb
	.uleb128 0x3b
	.uleb128 0xb
	.uleb128 0x39
	.uleb128 0xb
	.byte	0
	.byte	0
	.uleb128 0xc6
	.uleb128 0x8
	.byte	0
	.uleb128 0x3
	.uleb128 0x8
	.uleb128 0x3a
	.uleb128 0xb
	.uleb128 0x3b
	.uleb128 0xb
	.uleb128 0x39
	.uleb128 0xb
	.uleb128 0x18
	.uleb128 0x13
	.byte	0
	.byte	0
	.uleb128 0xc7
	.uleb128 0x2e
	.byte	0x1
	.uleb128 0x3f
	.uleb128 0x19
	.uleb128 0x3
	.uleb128 0xe
	.uleb128 0x6e
	.uleb128 0xe
	.uleb128 0x34
	.uleb128 0x19
	.uleb128 0x3c
	.uleb128 0x19
	.uleb128 0x64
	.uleb128 0x13
	.uleb128 0x1
	.uleb128 0x13
	.byte	0
	.byte	0
	.uleb128 0xc8
	.uleb128 0x39
	.byte	0x1
	.uleb128 0x3
	.uleb128 0xe
	.uleb128 0x3a
	.uleb128 0xb
	.uleb128 0x3b
	.uleb128 0xb
	.uleb128 0x39
	.uleb128 0xb
	.byte	0
	.byte	0
	.uleb128 0xc9
	.uleb128 0x39
	.byte	0x1
	.uleb128 0x89
	.uleb128 0x19
	.uleb128 0x1
	.uleb128 0x13
	.byte	0
	.byte	0
	.uleb128 0xca
	.uleb128 0x4108
	.byte	0
	.uleb128 0x3
	.uleb128 0xe
	.uleb128 0x3a
	.uleb128 0xb
	.uleb128 0x3b
	.uleb128 0xb
	.uleb128 0x39
	.uleb128 0xb
	.byte	0
	.byte	0
	.uleb128 0xcb
	.uleb128 0x16
	.byte	0
	.uleb128 0x3
	.uleb128 0x8
	.uleb128 0x3a
	.uleb128 0xb
	.uleb128 0x3b
	.uleb128 0x5
	.uleb128 0x39
	.uleb128 0xb
	.uleb128 0x49
	.uleb128 0x13
	.byte	0
	.byte	0
	.uleb128 0xcc
	.uleb128 0x34
	.byte	0
	.uleb128 0x3
	.uleb128 0xe
	.uleb128 0x3a
	.uleb128 0xb
	.uleb128 0x3b
	.uleb128 0x5
	.uleb128 0x39
	.uleb128 0xb
	.uleb128 0x49
	.uleb128 0x13
	.uleb128 0x6c
	.uleb128 0x19
	.byte	0
	.byte	0
	.uleb128 0xcd
	.uleb128 0x4108
	.byte	0x1
	.uleb128 0x3
	.uleb128 0xe
	.uleb128 0x3a
	.uleb128 0xb
	.uleb128 0x3b
	.uleb128 0x5
	.uleb128 0x39
	.uleb128 0xb
	.uleb128 0x1
	.uleb128 0x13
	.byte	0
	.byte	0
	.uleb128 0xce
	.uleb128 0x4108
	.byte	0x1
	.uleb128 0x3
	.uleb128 0xe
	.uleb128 0x3a
	.uleb128 0xb
	.uleb128 0x3b
	.uleb128 0x5
	.uleb128 0x39
	.uleb128 0xb
	.byte	0
	.byte	0
	.uleb128 0xcf
	.uleb128 0xb
	.byte	0x1
	.uleb128 0x1
	.uleb128 0x13
	.byte	0
	.byte	0
	.uleb128 0xd0
	.uleb128 0x2e
	.byte	0x1
	.uleb128 0x3f
	.uleb128 0x19
	.uleb128 0x3
	.uleb128 0xe
	.uleb128 0x3a
	.uleb128 0xb
	.uleb128 0x3b
	.uleb128 0xb
	.uleb128 0x39
	.uleb128 0xb
	.uleb128 0x6e
	.uleb128 0xe
	.uleb128 0x49
	.uleb128 0x13
	.uleb128 0x55
	.uleb128 0x17
	.uleb128 0x40
	.uleb128 0x18
	.uleb128 0x7a
	.uleb128 0x19
	.uleb128 0x1
	.uleb128 0x13
	.byte	0
	.byte	0
	.uleb128 0xd1
	.uleb128 0x34
	.byte	0
	.uleb128 0x31
	.uleb128 0x13
	.uleb128 0x1c
	.uleb128 0xb
	.byte	0
	.byte	0
	.uleb128 0xd2
	.uleb128 0xb
	.byte	0x1
	.uleb128 0x31
	.uleb128 0x13
	.uleb128 0x11
	.uleb128 0x1
	.uleb128 0x12
	.uleb128 0x7
	.byte	0
	.byte	0
	.uleb128 0xd3
	.uleb128 0x48
	.byte	0
	.uleb128 0x7d
	.uleb128 0x1
	.uleb128 0x7f
	.uleb128 0x13
	.byte	0
	.byte	0
	.uleb128 0xd4
	.uleb128 0x48
	.byte	0x1
	.uleb128 0x7d
	.uleb128 0x1
	.uleb128 0x7f
	.uleb128 0x13
	.uleb128 0x1
	.uleb128 0x13
	.byte	0
	.byte	0
	.uleb128 0xd5
	.uleb128 0x2e
	.byte	0x1
	.uleb128 0x3f
	.uleb128 0x19
	.uleb128 0x3
	.uleb128 0xe
	.uleb128 0x3a
	.uleb128 0xb
	.uleb128 0x3b
	.uleb128 0xb
	.uleb128 0x39
	.uleb128 0xb
	.uleb128 0x6e
	.uleb128 0xe
	.uleb128 0x49
	.uleb128 0x13
	.uleb128 0x20
	.uleb128 0xb
	.uleb128 0x34
	.uleb128 0x19
	.uleb128 0x1
	.uleb128 0x13
	.byte	0
	.byte	0
	.uleb128 0xd6
	.uleb128 0x2e
	.byte	0x1
	.uleb128 0x3f
	.uleb128 0x19
	.uleb128 0x3
	.uleb128 0xe
	.uleb128 0x3a
	.uleb128 0xb
	.uleb128 0x3b
	.uleb128 0x5
	.uleb128 0x39
	.uleb128 0xb
	.uleb128 0x6e
	.uleb128 0xe
	.uleb128 0x20
	.uleb128 0xb
	.uleb128 0x34
	.uleb128 0x19
	.uleb128 0x1
	.uleb128 0x13
	.byte	0
	.byte	0
	.uleb128 0xd7
	.uleb128 0x2e
	.byte	0x1
	.uleb128 0x3f
	.uleb128 0x19
	.uleb128 0x3
	.uleb128 0xe
	.uleb128 0x3a
	.uleb128 0xb
	.uleb128 0x3b
	.uleb128 0xb
	.uleb128 0x39
	.uleb128 0xb
	.uleb128 0x6e
	.uleb128 0xe
	.uleb128 0x20
	.uleb128 0xb
	.uleb128 0x1
	.uleb128 0x13
	.byte	0
	.byte	0
	.uleb128 0xd8
	.uleb128 0x2e
	.byte	0x1
	.uleb128 0x3f
	.uleb128 0x19
	.uleb128 0x3
	.uleb128 0xe
	.uleb128 0x3a
	.uleb128 0xb
	.uleb128 0x3b
	.uleb128 0xb
	.uleb128 0x39
	.uleb128 0xb
	.uleb128 0x6e
	.uleb128 0xe
	.uleb128 0x49
	.uleb128 0x13
	.uleb128 0x20
	.uleb128 0xb
	.uleb128 0x1
	.uleb128 0x13
	.byte	0
	.byte	0
	.byte	0
	.section	.debug_loclists,"",@progbits
	.long	.Ldebug_loc3-.Ldebug_loc2
.Ldebug_loc2:
	.value	0x5
	.byte	0x8
	.byte	0
	.long	0
.Ldebug_loc0:
.LVUS1:
	.uleb128 0
	.uleb128 .LVU63
	.uleb128 .LVU63
	.uleb128 .LVU69
	.uleb128 .LVU69
	.uleb128 .LVU1112
	.uleb128 .LVU1112
	.uleb128 .LVU1135
	.uleb128 .LVU1135
	.uleb128 .LVU1186
	.uleb128 .LVU1186
	.uleb128 .LVU1194
	.uleb128 .LVU1194
	.uleb128 .LVU1209
	.uleb128 .LVU1209
	.uleb128 .LVU1273
	.uleb128 .LVU1273
	.uleb128 .LVU1274
	.uleb128 .LVU1274
	.uleb128 0
	.uleb128 0
	.uleb128 .LVU1277
	.uleb128 .LVU1277
	.uleb128 .LVU1277
	.uleb128 .LVU1277
	.uleb128 .LVU1333
	.uleb128 .LVU1333
	.uleb128 .LVU1335
	.uleb128 .LVU1335
	.uleb128 0
.LLST1:
	.byte	0x6
	.quad	.LVL0
	.byte	0x4
	.uleb128 .LVL0-.LVL0
	.uleb128 .LVL9-.LVL0
	.uleb128 0x1
	.byte	0x54
	.byte	0x4
	.uleb128 .LVL9-.LVL0
	.uleb128 .LVL12-.LVL0
	.uleb128 0x1
	.byte	0x5d
	.byte	0x4
	.uleb128 .LVL12-.LVL0
	.uleb128 .LVL204-.LVL0
	.uleb128 0x4
	.byte	0xa3
	.uleb128 0x1
	.byte	0x54
	.byte	0x9f
	.byte	0x4
	.uleb128 .LVL204-.LVL0
	.uleb128 .LVL208-1-.LVL0
	.uleb128 0x1
	.byte	0x54
	.byte	0x4
	.uleb128 .LVL208-1-.LVL0
	.uleb128 .LVL216-.LVL0
	.uleb128 0x1
	.byte	0x5d
	.byte	0x4
	.uleb128 .LVL216-.LVL0
	.uleb128 .LVL221-.LVL0
	.uleb128 0x4
	.byte	0xa3
	.uleb128 0x1
	.byte	0x54
	.byte	0x9f
	.byte	0x4
	.uleb128 .LVL221-.LVL0
	.uleb128 .LVL223-.LVL0
	.uleb128 0x1
	.byte	0x54
	.byte	0x4
	.uleb128 .LVL223-.LVL0
	.uleb128 .LVL247-.LVL0
	.uleb128 0x4
	.byte	0xa3
	.uleb128 0x1
	.byte	0x54
	.byte	0x9f
	.byte	0x4
	.uleb128 .LVL247-.LVL0
	.uleb128 .LVL248-.LVL0
	.uleb128 0x1
	.byte	0x5d
	.byte	0x4
	.uleb128 .LVL248-.LVL0
	.uleb128 .LHOTE5-.LVL0
	.uleb128 0x1
	.byte	0x54
	.byte	0x6
	.quad	.LFSB11707
	.byte	0x4
	.uleb128 .LFSB11707-.LFSB11707
	.uleb128 .LVL250-1-.LFSB11707
	.uleb128 0x1
	.byte	0x54
	.byte	0x4
	.uleb128 .LVL250-1-.LFSB11707
	.uleb128 .LVL250-.LFSB11707
	.uleb128 0x1
	.byte	0x5d
	.byte	0x4
	.uleb128 .LVL250-.LFSB11707
	.uleb128 .LVL261-.LFSB11707
	.uleb128 0x4
	.byte	0xa3
	.uleb128 0x1
	.byte	0x54
	.byte	0x9f
	.byte	0x4
	.uleb128 .LVL261-.LFSB11707
	.uleb128 .LVL262-.LFSB11707
	.uleb128 0x1
	.byte	0x5d
	.byte	0x4
	.uleb128 .LVL262-.LFSB11707
	.uleb128 .LFE11707-.LFSB11707
	.uleb128 0x4
	.byte	0xa3
	.uleb128 0x1
	.byte	0x54
	.byte	0x9f
	.byte	0
.LVUS2:
	.uleb128 0
	.uleb128 .LVU13
	.uleb128 .LVU13
	.uleb128 .LVU400
	.uleb128 .LVU400
	.uleb128 .LVU1112
	.uleb128 .LVU1112
	.uleb128 .LVU1187
	.uleb128 .LVU1187
	.uleb128 .LVU1194
	.uleb128 .LVU1194
	.uleb128 0
	.uleb128 0
	.uleb128 0
.LLST2:
	.byte	0x6
	.quad	.LVL0
	.byte	0x4
	.uleb128 .LVL0-.LVL0
	.uleb128 .LVL2-.LVL0
	.uleb128 0x1
	.byte	0x61
	.byte	0x4
	.uleb128 .LVL2-.LVL0
	.uleb128 .LVL79-.LVL0
	.uleb128 0x3
	.byte	0x77
	.sleb128 232
	.byte	0x4
	.uleb128 .LVL79-.LVL0
	.uleb128 .LVL204-.LVL0
	.uleb128 0x6
	.byte	0xa3
	.uleb128 0x3
	.byte	0xa5
	.uleb128 0x11
	.uleb128 0x30
	.byte	0x9f
	.byte	0x4
	.uleb128 .LVL204-.LVL0
	.uleb128 .LVL217-.LVL0
	.uleb128 0x3
	.byte	0x77
	.sleb128 232
	.byte	0x4
	.uleb128 .LVL217-.LVL0
	.uleb128 .LVL221-.LVL0
	.uleb128 0x6
	.byte	0xa3
	.uleb128 0x3
	.byte	0xa5
	.uleb128 0x11
	.uleb128 0x30
	.byte	0x9f
	.byte	0x4
	.uleb128 .LVL221-.LVL0
	.uleb128 .LHOTE5-.LVL0
	.uleb128 0x3
	.byte	0x77
	.sleb128 232
	.byte	0x8
	.quad	.LFSB11707
	.uleb128 .LCOLDE5-.LFSB11707
	.uleb128 0x3
	.byte	0x77
	.sleb128 232
	.byte	0
.LVUS3:
	.uleb128 0
	.uleb128 .LVU59
	.uleb128 .LVU59
	.uleb128 .LVU1110
	.uleb128 .LVU1110
	.uleb128 .LVU1111
	.uleb128 .LVU1111
	.uleb128 .LVU1112
	.uleb128 .LVU1112
	.uleb128 .LVU1134
	.uleb128 .LVU1134
	.uleb128 .LVU1274
	.uleb128 .LVU1274
	.uleb128 0
	.uleb128 0
	.uleb128 .LVU1276
	.uleb128 .LVU1276
	.uleb128 0
.LLST3:
	.byte	0x6
	.quad	.LVL0
	.byte	0x4
	.uleb128 .LVL0-.LVL0
	.uleb128 .LVL7-.LVL0
	.uleb128 0x2
	.byte	0x75
	.sleb128 0
	.byte	0x4
	.uleb128 .LVL7-.LVL0
	.uleb128 .LVL202-.LVL0
	.uleb128 0x4
	.byte	0x77
	.sleb128 128
	.byte	0x6
	.byte	0x4
	.uleb128 .LVL202-.LVL0
	.uleb128 .LVL203-.LVL0
	.uleb128 0x9
	.byte	0x76
	.sleb128 -40
	.byte	0x9
	.byte	0xe0
	.byte	0x1a
	.byte	0x8
	.byte	0xa0
	.byte	0x1c
	.byte	0x6
	.byte	0x4
	.uleb128 .LVL203-.LVL0
	.uleb128 .LVL204-.LVL0
	.uleb128 0x9
	.byte	0x77
	.sleb128 -48
	.byte	0x9
	.byte	0xe0
	.byte	0x1a
	.byte	0x8
	.byte	0xa0
	.byte	0x1c
	.byte	0x6
	.byte	0x4
	.uleb128 .LVL204-.LVL0
	.uleb128 .LVL207-.LVL0
	.uleb128 0x2
	.byte	0x75
	.sleb128 0
	.byte	0x4
	.uleb128 .LVL207-.LVL0
	.uleb128 .LVL248-.LVL0
	.uleb128 0x4
	.byte	0x77
	.sleb128 128
	.byte	0x6
	.byte	0x4
	.uleb128 .LVL248-.LVL0
	.uleb128 .LHOTE5-.LVL0
	.uleb128 0x2
	.byte	0x75
	.sleb128 0
	.byte	0x6
	.quad	.LFSB11707
	.byte	0x4
	.uleb128 .LFSB11707-.LFSB11707
	.uleb128 .LVL249-.LFSB11707
	.uleb128 0x2
	.byte	0x75
	.sleb128 0
	.byte	0x4
	.uleb128 .LVL249-.LFSB11707
	.uleb128 .LFE11707-.LFSB11707
	.uleb128 0x4
	.byte	0x77
	.sleb128 128
	.byte	0x6
	.byte	0
.LVUS4:
	.uleb128 .LVU52
	.uleb128 .LVU67
	.uleb128 .LVU67
	.uleb128 .LVU69
	.uleb128 .LVU84
	.uleb128 .LVU165
	.uleb128 .LVU165
	.uleb128 .LVU178
	.uleb128 .LVU1174
	.uleb128 .LVU1187
	.uleb128 .LVU1194
	.uleb128 .LVU1209
	.uleb128 .LVU1212
	.uleb128 .LVU1249
	.uleb128 .LVU1249
	.uleb128 .LVU1251
	.uleb128 .LVU1251
	.uleb128 .LVU1262
	.uleb128 .LVU1262
	.uleb128 .LVU1262
	.uleb128 .LVU1262
	.uleb128 .LVU1265
	.uleb128 .LVU1265
	.uleb128 .LVU1266
	.uleb128 .LVU1272
	.uleb128 .LVU1273
	.uleb128 .LVU1278
	.uleb128 .LVU1280
	.uleb128 .LVU1280
	.uleb128 .LVU1282
	.uleb128 .LVU1360
	.uleb128 .LVU1362
	.uleb128 .LVU1362
	.uleb128 .LVU1363
	.uleb128 .LVU1363
	.uleb128 0
.LLST4:
	.byte	0x6
	.quad	.LVL5
	.byte	0x4
	.uleb128 .LVL5-.LVL5
	.uleb128 .LVL11-.LVL5
	.uleb128 0xc
	.byte	0x30
	.byte	0x9f
	.byte	0x93
	.uleb128 0x8
	.byte	0x30
	.byte	0x9f
	.byte	0x93
	.uleb128 0x8
	.byte	0x30
	.byte	0x9f
	.byte	0x93
	.uleb128 0x8
	.byte	0x4
	.uleb128 .LVL11-.LVL5
	.uleb128 .LVL12-.LVL5
	.uleb128 0xa
	.byte	0x50
	.byte	0x93
	.uleb128 0x8
	.byte	0x50
	.byte	0x93
	.uleb128 0x8
	.byte	0x30
	.byte	0x9f
	.byte	0x93
	.uleb128 0x8
	.byte	0x4
	.uleb128 .LVL15-.LVL5
	.uleb128 .LVL38-.LVL5
	.uleb128 0x5
	.byte	0x5f
	.byte	0x93
	.uleb128 0x8
	.byte	0x93
	.uleb128 0x10
	.byte	0x4
	.uleb128 .LVL38-.LVL5
	.uleb128 .LVL39-.LVL5
	.uleb128 0x9
	.byte	0x93
	.uleb128 0x8
	.byte	0x77
	.sleb128 144
	.byte	0x93
	.uleb128 0x8
	.byte	0x93
	.uleb128 0x8
	.byte	0x4
	.uleb128 .LVL213-.LVL5
	.uleb128 .LVL217-.LVL5
	.uleb128 0xc
	.byte	0x30
	.byte	0x9f
	.byte	0x93
	.uleb128 0x8
	.byte	0x30
	.byte	0x9f
	.byte	0x93
	.uleb128 0x8
	.byte	0x30
	.byte	0x9f
	.byte	0x93
	.uleb128 0x8
	.byte	0x4
	.uleb128 .LVL221-.LVL5
	.uleb128 .LVL223-.LVL5
	.uleb128 0xc
	.byte	0x30
	.byte	0x9f
	.byte	0x93
	.uleb128 0x8
	.byte	0x30
	.byte	0x9f
	.byte	0x93
	.uleb128 0x8
	.byte	0x30
	.byte	0x9f
	.byte	0x93
	.uleb128 0x8
	.byte	0x4
	.uleb128 .LVL225-.LVL5
	.uleb128 .LVL234-.LVL5
	.uleb128 0x5
	.byte	0x5f
	.byte	0x93
	.uleb128 0x8
	.byte	0x93
	.uleb128 0x10
	.byte	0x4
	.uleb128 .LVL234-.LVL5
	.uleb128 .LVL235-.LVL5
	.uleb128 0x13
	.byte	0x5f
	.byte	0x93
	.uleb128 0x8
	.byte	0x77
	.sleb128 248
	.byte	0x6
	.byte	0x77
	.sleb128 264
	.byte	0x6
	.byte	0x22
	.byte	0x23
	.uleb128 0x30
	.byte	0x9f
	.byte	0x93
	.uleb128 0x8
	.byte	0x93
	.uleb128 0x8
	.byte	0x4
	.uleb128 .LVL235-.LVL5
	.uleb128 .LVL238-1-.LVL5
	.uleb128 0x8
	.byte	0x5f
	.byte	0x93
	.uleb128 0x8
	.byte	0x50
	.byte	0x93
	.uleb128 0x8
	.byte	0x93
	.uleb128 0x8
	.byte	0x4
	.uleb128 .LVL238-1-.LVL5
	.uleb128 .LVL238-.LVL5
	.uleb128 0xa
	.byte	0x5f
	.byte	0x93
	.uleb128 0x8
	.byte	0x77
	.sleb128 88
	.byte	0x93
	.uleb128 0x8
	.byte	0x93
	.uleb128 0x8
	.byte	0x4
	.uleb128 .LVL238-.LVL5
	.uleb128 .LVL240-.LVL5
	.uleb128 0x16
	.byte	0x77
	.sleb128 248
	.byte	0x93
	.uleb128 0x8
	.byte	0x77
	.sleb128 88
	.byte	0x93
	.uleb128 0x8
	.byte	0x77
	.sleb128 248
	.byte	0x6
	.byte	0x77
	.sleb128 240
	.byte	0x6
	.byte	0x22
	.byte	0x9f
	.byte	0x93
	.uleb128 0x8
	.byte	0x4
	.uleb128 .LVL240-.LVL5
	.uleb128 .LVL241-.LVL5
	.uleb128 0xd
	.byte	0x77
	.sleb128 248
	.byte	0x93
	.uleb128 0x8
	.byte	0x77
	.sleb128 88
	.byte	0x93
	.uleb128 0x8
	.byte	0x5d
	.byte	0x93
	.uleb128 0x8
	.byte	0x4
	.uleb128 .LVL246-.LVL5
	.uleb128 .LVL247-.LVL5
	.uleb128 0x5
	.byte	0x5f
	.byte	0x93
	.uleb128 0x8
	.byte	0x93
	.uleb128 0x10
	.byte	0x6
	.quad	.LVL251
	.byte	0x4
	.uleb128 .LVL251-.LVL251
	.uleb128 .LVL252-.LVL251
	.uleb128 0x5
	.byte	0x5f
	.byte	0x93
	.uleb128 0x8
	.byte	0x93
	.uleb128 0x10
	.byte	0x4
	.uleb128 .LVL252-.LVL251
	.uleb128 .LVL253-.LVL251
	.uleb128 0x9
	.byte	0x93
	.uleb128 0x8
	.byte	0x77
	.sleb128 144
	.byte	0x93
	.uleb128 0x8
	.byte	0x93
	.uleb128 0x8
	.byte	0x4
	.uleb128 .LVL269-.LVL251
	.uleb128 .LVL270-.LVL251
	.uleb128 0x5
	.byte	0x5f
	.byte	0x93
	.uleb128 0x8
	.byte	0x93
	.uleb128 0x10
	.byte	0x4
	.uleb128 .LVL270-.LVL251
	.uleb128 .LVL272-.LVL251
	.uleb128 0xa
	.byte	0x5f
	.byte	0x93
	.uleb128 0x8
	.byte	0x77
	.sleb128 88
	.byte	0x93
	.uleb128 0x8
	.byte	0x93
	.uleb128 0x8
	.byte	0x4
	.uleb128 .LVL272-.LVL251
	.uleb128 .LFE11707-.LVL251
	.uleb128 0x9
	.byte	0x93
	.uleb128 0x8
	.byte	0x77
	.sleb128 144
	.byte	0x93
	.uleb128 0x8
	.byte	0x93
	.uleb128 0x8
	.byte	0
.LVUS5:
	.uleb128 .LVU346
	.uleb128 .LVU1112
	.uleb128 .LVU1187
	.uleb128 .LVU1194
	.uleb128 .LVU1268
	.uleb128 .LVU1270
	.uleb128 .LVU1282
	.uleb128 .LVU1296
	.uleb128 .LVU1355
	.uleb128 .LVU1360
.LLST5:
	.byte	0x6
	.quad	.LVL75
	.byte	0x4
	.uleb128 .LVL75-.LVL75
	.uleb128 .LVL204-.LVL75
	.uleb128 0x2
	.byte	0x38
	.byte	0x9f
	.byte	0x4
	.uleb128 .LVL217-.LVL75
	.uleb128 .LVL221-.LVL75
	.uleb128 0x2
	.byte	0x38
	.byte	0x9f
	.byte	0x4
	.uleb128 .LVL242-.LVL75
	.uleb128 .LVL243-.LVL75
	.uleb128 0x2
	.byte	0x38
	.byte	0x9f
	.byte	0x6
	.quad	.LVL253
	.byte	0x4
	.uleb128 .LVL253-.LVL253
	.uleb128 .LVL255-.LVL253
	.uleb128 0x2
	.byte	0x38
	.byte	0x9f
	.byte	0x4
	.uleb128 .LVL266-.LVL253
	.uleb128 .LVL269-.LVL253
	.uleb128 0x2
	.byte	0x38
	.byte	0x9f
	.byte	0
.LVUS6:
	.uleb128 .LVU347
	.uleb128 .LVU1112
	.uleb128 .LVU1187
	.uleb128 .LVU1194
	.uleb128 .LVU1268
	.uleb128 .LVU1270
	.uleb128 .LVU1282
	.uleb128 .LVU1296
	.uleb128 .LVU1355
	.uleb128 .LVU1360
.LLST6:
	.byte	0x6
	.quad	.LVL75
	.byte	0x4
	.uleb128 .LVL75-.LVL75
	.uleb128 .LVL204-.LVL75
	.uleb128 0x4
	.byte	0xa
	.value	0x100
	.byte	0x9f
	.byte	0x4
	.uleb128 .LVL217-.LVL75
	.uleb128 .LVL221-.LVL75
	.uleb128 0x4
	.byte	0xa
	.value	0x100
	.byte	0x9f
	.byte	0x4
	.uleb128 .LVL242-.LVL75
	.uleb128 .LVL243-.LVL75
	.uleb128 0x4
	.byte	0xa
	.value	0x100
	.byte	0x9f
	.byte	0x6
	.quad	.LVL253
	.byte	0x4
	.uleb128 .LVL253-.LVL253
	.uleb128 .LVL255-.LVL253
	.uleb128 0x4
	.byte	0xa
	.value	0x100
	.byte	0x9f
	.byte	0x4
	.uleb128 .LVL266-.LVL253
	.uleb128 .LVL269-.LVL253
	.uleb128 0x4
	.byte	0xa
	.value	0x100
	.byte	0x9f
	.byte	0
.LVUS113:
	.uleb128 .LVU84
	.uleb128 .LVU160
	.uleb128 .LVU160
	.uleb128 .LVU165
	.uleb128 .LVU1212
	.uleb128 .LVU1266
	.uleb128 .LVU1272
	.uleb128 .LVU1273
	.uleb128 .LVU1278
	.uleb128 .LVU1280
	.uleb128 .LVU1360
	.uleb128 .LVU1362
.LLST113:
	.byte	0x6
	.quad	.LVL15
	.byte	0x4
	.uleb128 .LVL15-.LVL15
	.uleb128 .LVL37-.LVL15
	.uleb128 0x1
	.byte	0x53
	.byte	0x4
	.uleb128 .LVL37-.LVL15
	.uleb128 .LVL38-.LVL15
	.uleb128 0x3
	.byte	0x73
	.sleb128 -48
	.byte	0x9f
	.byte	0x4
	.uleb128 .LVL225-.LVL15
	.uleb128 .LVL241-.LVL15
	.uleb128 0x1
	.byte	0x53
	.byte	0x4
	.uleb128 .LVL246-.LVL15
	.uleb128 .LVL247-.LVL15
	.uleb128 0x1
	.byte	0x53
	.byte	0x6
	.quad	.LVL251
	.byte	0x4
	.uleb128 .LVL251-.LVL251
	.uleb128 .LVL252-.LVL251
	.uleb128 0x1
	.byte	0x53
	.byte	0x4
	.uleb128 .LVL269-.LVL251
	.uleb128 .LVL270-.LVL251
	.uleb128 0x1
	.byte	0x53
	.byte	0
.LVUS114:
	.uleb128 .LVU73
	.uleb128 .LVU1112
	.uleb128 .LVU1187
	.uleb128 .LVU1194
	.uleb128 .LVU1198
	.uleb128 .LVU1209
	.uleb128 .LVU1209
	.uleb128 .LVU1273
	.uleb128 .LVU1277
	.uleb128 .LVU1333
	.uleb128 .LVU1355
	.uleb128 0
.LLST114:
	.byte	0x6
	.quad	.LVL13
	.byte	0x4
	.uleb128 .LVL13-.LVL13
	.uleb128 .LVL204-.LVL13
	.uleb128 0x4
	.byte	0xa3
	.uleb128 0x1
	.byte	0x54
	.byte	0x9f
	.byte	0x4
	.uleb128 .LVL217-.LVL13
	.uleb128 .LVL221-.LVL13
	.uleb128 0x4
	.byte	0xa3
	.uleb128 0x1
	.byte	0x54
	.byte	0x9f
	.byte	0x4
	.uleb128 .LVL222-.LVL13
	.uleb128 .LVL223-.LVL13
	.uleb128 0x1
	.byte	0x54
	.byte	0x4
	.uleb128 .LVL223-.LVL13
	.uleb128 .LVL247-.LVL13
	.uleb128 0x4
	.byte	0xa3
	.uleb128 0x1
	.byte	0x54
	.byte	0x9f
	.byte	0x6
	.quad	.LVL250
	.byte	0x4
	.uleb128 .LVL250-.LVL250
	.uleb128 .LVL261-.LVL250
	.uleb128 0x4
	.byte	0xa3
	.uleb128 0x1
	.byte	0x54
	.byte	0x9f
	.byte	0x4
	.uleb128 .LVL266-.LVL250
	.uleb128 .LFE11707-.LVL250
	.uleb128 0x4
	.byte	0xa3
	.uleb128 0x1
	.byte	0x54
	.byte	0x9f
	.byte	0
.LVUS122:
	.uleb128 .LVU98
	.uleb128 .LVU104
	.uleb128 .LVU104
	.uleb128 .LVU107
	.uleb128 .LVU107
	.uleb128 .LVU108
	.uleb128 .LVU108
	.uleb128 .LVU109
	.uleb128 .LVU109
	.uleb128 .LVU110
	.uleb128 .LVU110
	.uleb128 .LVU113
	.uleb128 .LVU113
	.uleb128 .LVU118
	.uleb128 .LVU118
	.uleb128 .LVU135
	.uleb128 .LVU135
	.uleb128 .LVU136
	.uleb128 .LVU136
	.uleb128 .LVU139
	.uleb128 .LVU139
	.uleb128 .LVU140
	.uleb128 .LVU140
	.uleb128 .LVU141
	.uleb128 .LVU141
	.uleb128 .LVU142
	.uleb128 .LVU142
	.uleb128 .LVU143
	.uleb128 .LVU143
	.uleb128 .LVU146
	.uleb128 .LVU146
	.uleb128 .LVU156
	.uleb128 .LVU1212
	.uleb128 .LVU1231
	.uleb128 .LVU1231
	.uleb128 .LVU1266
	.uleb128 .LVU1272
	.uleb128 .LVU1273
	.uleb128 .LVU1278
	.uleb128 .LVU1280
.LLST122:
	.byte	0x6
	.quad	.LVL19
	.byte	0x4
	.uleb128 .LVL19-.LVL19
	.uleb128 .LVL21-.LVL19
	.uleb128 0x5
	.byte	0x5a
	.byte	0x93
	.uleb128 0x4
	.byte	0x93
	.uleb128 0x2c
	.byte	0x4
	.uleb128 .LVL21-.LVL19
	.uleb128 .LVL21-.LVL19
	.uleb128 0x8
	.byte	0x5a
	.byte	0x93
	.uleb128 0x4
	.byte	0x54
	.byte	0x93
	.uleb128 0x4
	.byte	0x93
	.uleb128 0x28
	.byte	0x4
	.uleb128 .LVL21-.LVL19
	.uleb128 .LVL21-.LVL19
	.uleb128 0x2a
	.byte	0x5a
	.byte	0x93
	.uleb128 0x4
	.byte	0x54
	.byte	0x93
	.uleb128 0x4
	.byte	0xa5
	.uleb128 0x11
	.uleb128 0x30
	.byte	0xa4
	.uleb128 0x30
	.byte	0x4
	.long	0x3f800000
	.byte	0x22
	.byte	0xa5
	.uleb128 0x15
	.uleb128 0x30
	.byte	0x1c
	.byte	0xa5
	.uleb128 0x12
	.uleb128 0x30
	.byte	0xa4
	.uleb128 0x30
	.byte	0x4
	.long	0x3f800000
	.byte	0x22
	.byte	0xa5
	.uleb128 0x13
	.uleb128 0x30
	.byte	0x1c
	.byte	0x1e
	.byte	0x9f
	.byte	0x93
	.uleb128 0x4
	.byte	0x93
	.uleb128 0x24
	.byte	0x4
	.uleb128 .LVL21-.LVL19
	.uleb128 .LVL21-.LVL19
	.uleb128 0x44
	.byte	0x5a
	.byte	0x93
	.uleb128 0x4
	.byte	0x54
	.byte	0x93
	.uleb128 0x4
	.byte	0xa5
	.uleb128 0x11
	.uleb128 0x30
	.byte	0xa4
	.uleb128 0x30
	.byte	0x4
	.long	0x3f800000
	.byte	0x22
	.byte	0xa5
	.uleb128 0x15
	.uleb128 0x30
	.byte	0x1c
	.byte	0xa5
	.uleb128 0x12
	.uleb128 0x30
	.byte	0xa4
	.uleb128 0x30
	.byte	0x4
	.long	0x3f800000
	.byte	0x22
	.byte	0xa5
	.uleb128 0x13
	.uleb128 0x30
	.byte	0x1c
	.byte	0x1e
	.byte	0x9f
	.byte	0x93
	.uleb128 0x4
	.byte	0xa5
	.uleb128 0x12
	.uleb128 0x30
	.byte	0xa4
	.uleb128 0x30
	.byte	0x4
	.long	0x3f800000
	.byte	0x22
	.byte	0xa5
	.uleb128 0x13
	.uleb128 0x30
	.byte	0x1c
	.byte	0xa5
	.uleb128 0x15
	.uleb128 0x30
	.byte	0xa5
	.uleb128 0x11
	.uleb128 0x30
	.byte	0x1c
	.byte	0x1e
	.byte	0x9f
	.byte	0x93
	.uleb128 0x4
	.byte	0x93
	.uleb128 0x20
	.byte	0x4
	.uleb128 .LVL21-.LVL19
	.uleb128 .LVL21-.LVL19
	.uleb128 0x5e
	.byte	0x5a
	.byte	0x93
	.uleb128 0x4
	.byte	0x54
	.byte	0x93
	.uleb128 0x4
	.byte	0xa5
	.uleb128 0x11
	.uleb128 0x30
	.byte	0xa4
	.uleb128 0x30
	.byte	0x4
	.long	0x3f800000
	.byte	0x22
	.byte	0xa5
	.uleb128 0x15
	.uleb128 0x30
	.byte	0x1c
	.byte	0xa5
	.uleb128 0x12
	.uleb128 0x30
	.byte	0xa4
	.uleb128 0x30
	.byte	0x4
	.long	0x3f800000
	.byte	0x22
	.byte	0xa5
	.uleb128 0x13
	.uleb128 0x30
	.byte	0x1c
	.byte	0x1e
	.byte	0x9f
	.byte	0x93
	.uleb128 0x4
	.byte	0xa5
	.uleb128 0x12
	.uleb128 0x30
	.byte	0xa4
	.uleb128 0x30
	.byte	0x4
	.long	0x3f800000
	.byte	0x22
	.byte	0xa5
	.uleb128 0x13
	.uleb128 0x30
	.byte	0x1c
	.byte	0xa5
	.uleb128 0x15
	.uleb128 0x30
	.byte	0xa5
	.uleb128 0x11
	.uleb128 0x30
	.byte	0x1c
	.byte	0x1e
	.byte	0x9f
	.byte	0x93
	.uleb128 0x4
	.byte	0xa5
	.uleb128 0x11
	.uleb128 0x30
	.byte	0xa4
	.uleb128 0x30
	.byte	0x4
	.long	0x3f800000
	.byte	0x22
	.byte	0xa5
	.uleb128 0x15
	.uleb128 0x30
	.byte	0x1c
	.byte	0xa5
	.uleb128 0x13
	.uleb128 0x30
	.byte	0xa5
	.uleb128 0x12
	.uleb128 0x30
	.byte	0x1c
	.byte	0x1e
	.byte	0x9f
	.byte	0x93
	.uleb128 0x4
	.byte	0x93
	.uleb128 0x1c
	.byte	0x4
	.uleb128 .LVL21-.LVL19
	.uleb128 .LVL22-.LVL19
	.uleb128 0x70
	.byte	0x5a
	.byte	0x93
	.uleb128 0x4
	.byte	0x54
	.byte	0x93
	.uleb128 0x4
	.byte	0xa5
	.uleb128 0x11
	.uleb128 0x30
	.byte	0xa4
	.uleb128 0x30
	.byte	0x4
	.long	0x3f800000
	.byte	0x22
	.byte	0xa5
	.uleb128 0x15
	.uleb128 0x30
	.byte	0x1c
	.byte	0xa5
	.uleb128 0x12
	.uleb128 0x30
	.byte	0xa4
	.uleb128 0x30
	.byte	0x4
	.long	0x3f800000
	.byte	0x22
	.byte	0xa5
	.uleb128 0x13
	.uleb128 0x30
	.byte	0x1c
	.byte	0x1e
	.byte	0x9f
	.byte	0x93
	.uleb128 0x4
	.byte	0xa5
	.uleb128 0x12
	.uleb128 0x30
	.byte	0xa4
	.uleb128 0x30
	.byte	0x4
	.long	0x3f800000
	.byte	0x22
	.byte	0xa5
	.uleb128 0x13
	.uleb128 0x30
	.byte	0x1c
	.byte	0xa5
	.uleb128 0x15
	.uleb128 0x30
	.byte	0xa5
	.uleb128 0x11
	.uleb128 0x30
	.byte	0x1c
	.byte	0x1e
	.byte	0x9f
	.byte	0x93
	.uleb128 0x4
	.byte	0xa5
	.uleb128 0x11
	.uleb128 0x30
	.byte	0xa4
	.uleb128 0x30
	.byte	0x4
	.long	0x3f800000
	.byte	0x22
	.byte	0xa5
	.uleb128 0x15
	.uleb128 0x30
	.byte	0x1c
	.byte	0xa5
	.uleb128 0x13
	.uleb128 0x30
	.byte	0xa5
	.uleb128 0x12
	.uleb128 0x30
	.byte	0x1c
	.byte	0x1e
	.byte	0x9f
	.byte	0x93
	.uleb128 0x4
	.byte	0xa5
	.uleb128 0x15
	.uleb128 0x30
	.byte	0xa5
	.uleb128 0x11
	.uleb128 0x30
	.byte	0x1c
	.byte	0xa5
	.uleb128 0x13
	.uleb128 0x30
	.byte	0xa5
	.uleb128 0x12
	.uleb128 0x30
	.byte	0x1c
	.byte	0x1e
	.byte	0x9f
	.byte	0x93
	.uleb128 0x4
	.byte	0x93
	.uleb128 0x18
	.byte	0x4
	.uleb128 .LVL22-.LVL19
	.uleb128 .LVL23-.LVL19
	.uleb128 0x73
	.byte	0x5a
	.byte	0x93
	.uleb128 0x4
	.byte	0x54
	.byte	0x93
	.uleb128 0x4
	.byte	0xa5
	.uleb128 0x11
	.uleb128 0x30
	.byte	0xa4
	.uleb128 0x30
	.byte	0x4
	.long	0x3f800000
	.byte	0x22
	.byte	0xa5
	.uleb128 0x15
	.uleb128 0x30
	.byte	0x1c
	.byte	0xa5
	.uleb128 0x12
	.uleb128 0x30
	.byte	0xa4
	.uleb128 0x30
	.byte	0x4
	.long	0x3f800000
	.byte	0x22
	.byte	0xa5
	.uleb128 0x13
	.uleb128 0x30
	.byte	0x1c
	.byte	0x1e
	.byte	0x9f
	.byte	0x93
	.uleb128 0x4
	.byte	0xa5
	.uleb128 0x12
	.uleb128 0x30
	.byte	0xa4
	.uleb128 0x30
	.byte	0x4
	.long	0x3f800000
	.byte	0x22
	.byte	0xa5
	.uleb128 0x13
	.uleb128 0x30
	.byte	0x1c
	.byte	0xa5
	.uleb128 0x15
	.uleb128 0x30
	.byte	0xa5
	.uleb128 0x11
	.uleb128 0x30
	.byte	0x1c
	.byte	0x1e
	.byte	0x9f
	.byte	0x93
	.uleb128 0x4
	.byte	0xa5
	.uleb128 0x11
	.uleb128 0x30
	.byte	0xa4
	.uleb128 0x30
	.byte	0x4
	.long	0x3f800000
	.byte	0x22
	.byte	0xa5
	.uleb128 0x15
	.uleb128 0x30
	.byte	0x1c
	.byte	0xa5
	.uleb128 0x13
	.uleb128 0x30
	.byte	0xa5
	.uleb128 0x12
	.uleb128 0x30
	.byte	0x1c
	.byte	0x1e
	.byte	0x9f
	.byte	0x93
	.uleb128 0x4
	.byte	0xa5
	.uleb128 0x15
	.uleb128 0x30
	.byte	0xa5
	.uleb128 0x11
	.uleb128 0x30
	.byte	0x1c
	.byte	0xa5
	.uleb128 0x13
	.uleb128 0x30
	.byte	0xa5
	.uleb128 0x12
	.uleb128 0x30
	.byte	0x1c
	.byte	0x1e
	.byte	0x9f
	.byte	0x93
	.uleb128 0x4
	.byte	0x58
	.byte	0x93
	.uleb128 0x4
	.byte	0x93
	.uleb128 0x14
	.byte	0x4
	.uleb128 .LVL23-.LVL19
	.uleb128 .LVL26-.LVL19
	.uleb128 0x76
	.byte	0x5a
	.byte	0x93
	.uleb128 0x4
	.byte	0x54
	.byte	0x93
	.uleb128 0x4
	.byte	0xa5
	.uleb128 0x11
	.uleb128 0x30
	.byte	0xa4
	.uleb128 0x30
	.byte	0x4
	.long	0x3f800000
	.byte	0x22
	.byte	0xa5
	.uleb128 0x15
	.uleb128 0x30
	.byte	0x1c
	.byte	0xa5
	.uleb128 0x12
	.uleb128 0x30
	.byte	0xa4
	.uleb128 0x30
	.byte	0x4
	.long	0x3f800000
	.byte	0x22
	.byte	0xa5
	.uleb128 0x13
	.uleb128 0x30
	.byte	0x1c
	.byte	0x1e
	.byte	0x9f
	.byte	0x93
	.uleb128 0x4
	.byte	0xa5
	.uleb128 0x12
	.uleb128 0x30
	.byte	0xa4
	.uleb128 0x30
	.byte	0x4
	.long	0x3f800000
	.byte	0x22
	.byte	0xa5
	.uleb128 0x13
	.uleb128 0x30
	.byte	0x1c
	.byte	0xa5
	.uleb128 0x15
	.uleb128 0x30
	.byte	0xa5
	.uleb128 0x11
	.uleb128 0x30
	.byte	0x1c
	.byte	0x1e
	.byte	0x9f
	.byte	0x93
	.uleb128 0x4
	.byte	0xa5
	.uleb128 0x11
	.uleb128 0x30
	.byte	0xa4
	.uleb128 0x30
	.byte	0x4
	.long	0x3f800000
	.byte	0x22
	.byte	0xa5
	.uleb128 0x15
	.uleb128 0x30
	.byte	0x1c
	.byte	0xa5
	.uleb128 0x13
	.uleb128 0x30
	.byte	0xa5
	.uleb128 0x12
	.uleb128 0x30
	.byte	0x1c
	.byte	0x1e
	.byte	0x9f
	.byte	0x93
	.uleb128 0x4
	.byte	0xa5
	.uleb128 0x15
	.uleb128 0x30
	.byte	0xa5
	.uleb128 0x11
	.uleb128 0x30
	.byte	0x1c
	.byte	0xa5
	.uleb128 0x13
	.uleb128 0x30
	.byte	0xa5
	.uleb128 0x12
	.uleb128 0x30
	.byte	0x1c
	.byte	0x1e
	.byte	0x9f
	.byte	0x93
	.uleb128 0x4
	.byte	0x58
	.byte	0x93
	.uleb128 0x4
	.byte	0x52
	.byte	0x93
	.uleb128 0x4
	.byte	0x93
	.uleb128 0x10
	.byte	0x4
	.uleb128 .LVL26-.LVL19
	.uleb128 .LVL27-.LVL19
	.uleb128 0x6e
	.byte	0x5a
	.byte	0x93
	.uleb128 0x4
	.byte	0x54
	.byte	0x93
	.uleb128 0x4
	.byte	0xa5
	.uleb128 0x11
	.uleb128 0x30
	.byte	0xa4
	.uleb128 0x30
	.byte	0x4
	.long	0x3f800000
	.byte	0x22
	.byte	0xa5
	.uleb128 0x15
	.uleb128 0x30
	.byte	0x1c
	.byte	0xa5
	.uleb128 0x12
	.uleb128 0x30
	.byte	0xa4
	.uleb128 0x30
	.byte	0x4
	.long	0x3f800000
	.byte	0x22
	.byte	0xa5
	.uleb128 0x13
	.uleb128 0x30
	.byte	0x1c
	.byte	0x1e
	.byte	0x9f
	.byte	0x93
	.uleb128 0x4
	.byte	0xa5
	.uleb128 0x12
	.uleb128 0x30
	.byte	0xa4
	.uleb128 0x30
	.byte	0x4
	.long	0x3f800000
	.byte	0x22
	.byte	0xa5
	.uleb128 0x13
	.uleb128 0x30
	.byte	0x1c
	.byte	0xa5
	.uleb128 0x15
	.uleb128 0x30
	.byte	0xa5
	.uleb128 0x11
	.uleb128 0x30
	.byte	0x1c
	.byte	0x1e
	.byte	0x9f
	.byte	0x93
	.uleb128 0x4
	.byte	0xa5
	.uleb128 0x11
	.uleb128 0x30
	.byte	0xa4
	.uleb128 0x30
	.byte	0x4
	.long	0x3f800000
	.byte	0x22
	.byte	0xa5
	.uleb128 0x15
	.uleb128 0x30
	.byte	0x1c
	.byte	0xa5
	.uleb128 0x16
	.uleb128 0x30
	.byte	0x1e
	.byte	0x9f
	.byte	0x93
	.uleb128 0x4
	.byte	0xa5
	.uleb128 0x15
	.uleb128 0x30
	.byte	0xa5
	.uleb128 0x11
	.uleb128 0x30
	.byte	0x1c
	.byte	0xa5
	.uleb128 0x16
	.uleb128 0x30
	.byte	0x1e
	.byte	0x9f
	.byte	0x93
	.uleb128 0x4
	.byte	0x58
	.byte	0x93
	.uleb128 0x4
	.byte	0x52
	.byte	0x93
	.uleb128 0x4
	.byte	0x93
	.uleb128 0x10
	.byte	0x4
	.uleb128 .LVL27-.LVL19
	.uleb128 .LVL28-.LVL19
	.uleb128 0x66
	.byte	0x5a
	.byte	0x93
	.uleb128 0x4
	.byte	0x54
	.byte	0x93
	.uleb128 0x4
	.byte	0xa5
	.uleb128 0x11
	.uleb128 0x30
	.byte	0xa4
	.uleb128 0x30
	.byte	0x4
	.long	0x3f800000
	.byte	0x22
	.byte	0xa5
	.uleb128 0x15
	.uleb128 0x30
	.byte	0x1c
	.byte	0xa5
	.uleb128 0x12
	.uleb128 0x30
	.byte	0xa4
	.uleb128 0x30
	.byte	0x4
	.long	0x3f800000
	.byte	0x22
	.byte	0xa5
	.uleb128 0x13
	.uleb128 0x30
	.byte	0x1c
	.byte	0x1e
	.byte	0x9f
	.byte	0x93
	.uleb128 0x4
	.byte	0xa5
	.uleb128 0x12
	.uleb128 0x30
	.byte	0xa4
	.uleb128 0x30
	.byte	0x4
	.long	0x3f800000
	.byte	0x22
	.byte	0xa5
	.uleb128 0x13
	.uleb128 0x30
	.byte	0x1c
	.byte	0xa5
	.uleb128 0x14
	.uleb128 0x30
	.byte	0x1e
	.byte	0x9f
	.byte	0x93
	.uleb128 0x4
	.byte	0xa5
	.uleb128 0x11
	.uleb128 0x30
	.byte	0xa4
	.uleb128 0x30
	.byte	0x4
	.long	0x3f800000
	.byte	0x22
	.byte	0xa5
	.uleb128 0x15
	.uleb128 0x30
	.byte	0x1c
	.byte	0xa5
	.uleb128 0x16
	.uleb128 0x30
	.byte	0x1e
	.byte	0x9f
	.byte	0x93
	.uleb128 0x4
	.byte	0xa5
	.uleb128 0x14
	.uleb128 0x30
	.byte	0xa5
	.uleb128 0x16
	.uleb128 0x30
	.byte	0x1e
	.byte	0x9f
	.byte	0x93
	.uleb128 0x4
	.byte	0x58
	.byte	0x93
	.uleb128 0x4
	.byte	0x52
	.byte	0x93
	.uleb128 0x4
	.byte	0x93
	.uleb128 0x10
	.byte	0x4
	.uleb128 .LVL28-.LVL19
	.uleb128 .LVL29-.LVL19
	.uleb128 0x56
	.byte	0x5a
	.byte	0x93
	.uleb128 0x4
	.byte	0x54
	.byte	0x93
	.uleb128 0x4
	.byte	0xa5
	.uleb128 0x11
	.uleb128 0x30
	.byte	0xa5
	.uleb128 0x15
	.uleb128 0x30
	.byte	0x1c
	.byte	0xa5
	.uleb128 0x12
	.uleb128 0x30
	.byte	0xa4
	.uleb128 0x30
	.byte	0x4
	.long	0x3f800000
	.byte	0x22
	.byte	0xa5
	.uleb128 0x13
	.uleb128 0x30
	.byte	0x1c
	.byte	0x1e
	.byte	0x9f
	.byte	0x93
	.uleb128 0x4
	.byte	0xa5
	.uleb128 0x12
	.uleb128 0x30
	.byte	0xa4
	.uleb128 0x30
	.byte	0x4
	.long	0x3f800000
	.byte	0x22
	.byte	0xa5
	.uleb128 0x13
	.uleb128 0x30
	.byte	0x1c
	.byte	0xa5
	.uleb128 0x14
	.uleb128 0x30
	.byte	0x1e
	.byte	0x9f
	.byte	0x93
	.uleb128 0x4
	.byte	0xa5
	.uleb128 0x11
	.uleb128 0x30
	.byte	0xa5
	.uleb128 0x15
	.uleb128 0x30
	.byte	0x1c
	.byte	0xa5
	.uleb128 0x16
	.uleb128 0x30
	.byte	0x1e
	.byte	0x9f
	.byte	0x93
	.uleb128 0x4
	.byte	0xa5
	.uleb128 0x14
	.uleb128 0x30
	.byte	0xa5
	.uleb128 0x16
	.uleb128 0x30
	.byte	0x1e
	.byte	0x9f
	.byte	0x93
	.uleb128 0x4
	.byte	0x58
	.byte	0x93
	.uleb128 0x4
	.byte	0x52
	.byte	0x93
	.uleb128 0x4
	.byte	0x93
	.uleb128 0x10
	.byte	0x4
	.uleb128 .LVL29-.LVL19
	.uleb128 .LVL30-.LVL19
	.uleb128 0x46
	.byte	0x5a
	.byte	0x93
	.uleb128 0x4
	.byte	0x54
	.byte	0x93
	.uleb128 0x4
	.byte	0xa5
	.uleb128 0x11
	.uleb128 0x30
	.byte	0xa5
	.uleb128 0x15
	.uleb128 0x30
	.byte	0x1c
	.byte	0xa5
	.uleb128 0x12
	.uleb128 0x30
	.byte	0xa5
	.uleb128 0x13
	.uleb128 0x30
	.byte	0x1c
	.byte	0x1e
	.byte	0x9f
	.byte	0x93
	.uleb128 0x4
	.byte	0xa5
	.uleb128 0x12
	.uleb128 0x30
	.byte	0xa5
	.uleb128 0x13
	.uleb128 0x30
	.byte	0x1c
	.byte	0xa5
	.uleb128 0x14
	.uleb128 0x30
	.byte	0x1e
	.byte	0x9f
	.byte	0x93
	.uleb128 0x4
	.byte	0xa5
	.uleb128 0x11
	.uleb128 0x30
	.byte	0xa5
	.uleb128 0x15
	.uleb128 0x30
	.byte	0x1c
	.byte	0xa5
	.uleb128 0x16
	.uleb128 0x30
	.byte	0x1e
	.byte	0x9f
	.byte	0x93
	.uleb128 0x4
	.byte	0xa5
	.uleb128 0x14
	.uleb128 0x30
	.byte	0xa5
	.uleb128 0x16
	.uleb128 0x30
	.byte	0x1e
	.byte	0x9f
	.byte	0x93
	.uleb128 0x4
	.byte	0x58
	.byte	0x93
	.uleb128 0x4
	.byte	0x52
	.byte	0x93
	.uleb128 0x4
	.byte	0x93
	.uleb128 0x10
	.byte	0x4
	.uleb128 .LVL30-.LVL19
	.uleb128 .LVL31-.LVL19
	.uleb128 0x2a
	.byte	0x5a
	.byte	0x93
	.uleb128 0x4
	.byte	0x54
	.byte	0x93
	.uleb128 0x4
	.byte	0x93
	.uleb128 0x4
	.byte	0xa5
	.uleb128 0x12
	.uleb128 0x30
	.byte	0xa5
	.uleb128 0x13
	.uleb128 0x30
	.byte	0x1c
	.byte	0xa5
	.uleb128 0x14
	.uleb128 0x30
	.byte	0x1e
	.byte	0x9f
	.byte	0x93
	.uleb128 0x4
	.byte	0x93
	.uleb128 0x4
	.byte	0xa5
	.uleb128 0x14
	.uleb128 0x30
	.byte	0xa5
	.uleb128 0x16
	.uleb128 0x30
	.byte	0x1e
	.byte	0x9f
	.byte	0x93
	.uleb128 0x4
	.byte	0x58
	.byte	0x93
	.uleb128 0x4
	.byte	0x52
	.byte	0x93
	.uleb128 0x4
	.byte	0x93
	.uleb128 0x10
	.byte	0x4
	.uleb128 .LVL31-.LVL19
	.uleb128 .LVL32-.LVL19
	.uleb128 0x1a
	.byte	0x5a
	.byte	0x93
	.uleb128 0x4
	.byte	0x54
	.byte	0x93
	.uleb128 0x4
	.byte	0x93
	.uleb128 0xc
	.byte	0xa5
	.uleb128 0x14
	.uleb128 0x30
	.byte	0xa5
	.uleb128 0x16
	.uleb128 0x30
	.byte	0x1e
	.byte	0x9f
	.byte	0x93
	.uleb128 0x4
	.byte	0x58
	.byte	0x93
	.uleb128 0x4
	.byte	0x52
	.byte	0x93
	.uleb128 0x4
	.byte	0x93
	.uleb128 0x10
	.byte	0x4
	.uleb128 .LVL32-.LVL19
	.uleb128 .LVL33-.LVL19
	.uleb128 0x1a
	.byte	0x5a
	.byte	0x93
	.uleb128 0x4
	.byte	0x54
	.byte	0x93
	.uleb128 0x4
	.byte	0x93
	.uleb128 0xc
	.byte	0xa5
	.uleb128 0x14
	.uleb128 0x30
	.byte	0xa5
	.uleb128 0x16
	.uleb128 0x30
	.byte	0x1e
	.byte	0x9f
	.byte	0x93
	.uleb128 0x4
	.byte	0x58
	.byte	0x93
	.uleb128 0x4
	.byte	0x52
	.byte	0x93
	.uleb128 0x4
	.byte	0x93
	.uleb128 0x10
	.byte	0x4
	.uleb128 .LVL33-.LVL19
	.uleb128 .LVL36-.LVL19
	.uleb128 0x10
	.byte	0x5a
	.byte	0x93
	.uleb128 0x4
	.byte	0x54
	.byte	0x93
	.uleb128 0x4
	.byte	0x93
	.uleb128 0x10
	.byte	0x58
	.byte	0x93
	.uleb128 0x4
	.byte	0x52
	.byte	0x93
	.uleb128 0x4
	.byte	0x93
	.uleb128 0x10
	.byte	0x4
	.uleb128 .LVL225-.LVL19
	.uleb128 .LVL230-1-.LVL19
	.uleb128 0x10
	.byte	0x5a
	.byte	0x93
	.uleb128 0x4
	.byte	0x54
	.byte	0x93
	.uleb128 0x4
	.byte	0x93
	.uleb128 0x10
	.byte	0x58
	.byte	0x93
	.uleb128 0x4
	.byte	0x52
	.byte	0x93
	.uleb128 0x4
	.byte	0x93
	.uleb128 0x10
	.byte	0x4
	.uleb128 .LVL230-1-.LVL19
	.uleb128 .LVL241-.LVL19
	.uleb128 0x18
	.byte	0x77
	.sleb128 224
	.byte	0x93
	.uleb128 0x4
	.byte	0x77
	.sleb128 220
	.byte	0x93
	.uleb128 0x4
	.byte	0x93
	.uleb128 0x10
	.byte	0x77
	.sleb128 184
	.byte	0x93
	.uleb128 0x4
	.byte	0x77
	.sleb128 176
	.byte	0x93
	.uleb128 0x4
	.byte	0x93
	.uleb128 0x10
	.byte	0x4
	.uleb128 .LVL246-.LVL19
	.uleb128 .LVL247-.LVL19
	.uleb128 0x18
	.byte	0x77
	.sleb128 224
	.byte	0x93
	.uleb128 0x4
	.byte	0x77
	.sleb128 220
	.byte	0x93
	.uleb128 0x4
	.byte	0x93
	.uleb128 0x10
	.byte	0x77
	.sleb128 184
	.byte	0x93
	.uleb128 0x4
	.byte	0x77
	.sleb128 176
	.byte	0x93
	.uleb128 0x4
	.byte	0x93
	.uleb128 0x10
	.byte	0x8
	.quad	.LVL251
	.uleb128 .LVL252-1-.LVL251
	.uleb128 0x10
	.byte	0x5a
	.byte	0x93
	.uleb128 0x4
	.byte	0x54
	.byte	0x93
	.uleb128 0x4
	.byte	0x93
	.uleb128 0x10
	.byte	0x58
	.byte	0x93
	.uleb128 0x4
	.byte	0x52
	.byte	0x93
	.uleb128 0x4
	.byte	0x93
	.uleb128 0x10
	.byte	0
.LVUS123:
	.uleb128 .LVU90
	.uleb128 .LVU156
	.uleb128 .LVU1212
	.uleb128 .LVU1231
	.uleb128 .LVU1278
	.uleb128 .LVU1280
.LLST123:
	.byte	0x6
	.quad	.LVL16
	.byte	0x4
	.uleb128 .LVL16-.LVL16
	.uleb128 .LVL36-.LVL16
	.uleb128 0x1
	.byte	0x65
	.byte	0x4
	.uleb128 .LVL225-.LVL16
	.uleb128 .LVL230-1-.LVL16
	.uleb128 0x1
	.byte	0x65
	.byte	0x8
	.quad	.LVL251
	.uleb128 .LVL252-1-.LVL251
	.uleb128 0x1
	.byte	0x65
	.byte	0
.LVUS124:
	.uleb128 .LVU92
	.uleb128 .LVU143
	.uleb128 .LVU143
	.uleb128 .LVU156
	.uleb128 .LVU1212
	.uleb128 .LVU1231
	.uleb128 .LVU1278
	.uleb128 .LVU1280
.LLST124:
	.byte	0x6
	.quad	.LVL17
	.byte	0x4
	.uleb128 .LVL17-.LVL17
	.uleb128 .LVL32-.LVL17
	.uleb128 0x1
	.byte	0x63
	.byte	0x4
	.uleb128 .LVL32-.LVL17
	.uleb128 .LVL36-.LVL17
	.uleb128 0xd
	.byte	0x77
	.sleb128 232
	.byte	0xa6
	.byte	0x4
	.uleb128 0x30
	.byte	0x73
	.sleb128 44
	.byte	0xa6
	.byte	0x4
	.uleb128 0x30
	.byte	0x1e
	.byte	0x9f
	.byte	0x4
	.uleb128 .LVL225-.LVL17
	.uleb128 .LVL230-1-.LVL17
	.uleb128 0xd
	.byte	0x77
	.sleb128 232
	.byte	0xa6
	.byte	0x4
	.uleb128 0x30
	.byte	0x73
	.sleb128 44
	.byte	0xa6
	.byte	0x4
	.uleb128 0x30
	.byte	0x1e
	.byte	0x9f
	.byte	0x8
	.quad	.LVL251
	.uleb128 .LVL252-1-.LVL251
	.uleb128 0xd
	.byte	0x77
	.sleb128 232
	.byte	0xa6
	.byte	0x4
	.uleb128 0x30
	.byte	0x73
	.sleb128 44
	.byte	0xa6
	.byte	0x4
	.uleb128 0x30
	.byte	0x1e
	.byte	0x9f
	.byte	0
.LVUS125:
	.uleb128 .LVU105
	.uleb128 .LVU136
	.uleb128 .LVU136
	.uleb128 .LVU146
.LLST125:
	.byte	0x6
	.quad	.LVL21
	.byte	0x4
	.uleb128 .LVL21-.LVL21
	.uleb128 .LVL27-.LVL21
	.uleb128 0x8
	.byte	0xa5
	.uleb128 0x15
	.uleb128 0x30
	.byte	0xa5
	.uleb128 0x11
	.uleb128 0x30
	.byte	0x1c
	.byte	0x9f
	.byte	0x4
	.uleb128 .LVL27-.LVL21
	.uleb128 .LVL33-.LVL21
	.uleb128 0x1
	.byte	0x64
	.byte	0
.LVUS126:
	.uleb128 .LVU106
	.uleb128 .LVU135
	.uleb128 .LVU135
	.uleb128 .LVU156
	.uleb128 .LVU1212
	.uleb128 .LVU1231
	.uleb128 .LVU1278
	.uleb128 .LVU1280
.LLST126:
	.byte	0x6
	.quad	.LVL21
	.byte	0x4
	.uleb128 .LVL21-.LVL21
	.uleb128 .LVL26-.LVL21
	.uleb128 0x8
	.byte	0xa5
	.uleb128 0x13
	.uleb128 0x30
	.byte	0xa5
	.uleb128 0x12
	.uleb128 0x30
	.byte	0x1c
	.byte	0x9f
	.byte	0x4
	.uleb128 .LVL26-.LVL21
	.uleb128 .LVL36-.LVL21
	.uleb128 0x1
	.byte	0x66
	.byte	0x4
	.uleb128 .LVL225-.LVL21
	.uleb128 .LVL230-1-.LVL21
	.uleb128 0x1
	.byte	0x66
	.byte	0x8
	.quad	.LVL251
	.uleb128 .LVL252-1-.LVL251
	.uleb128 0x1
	.byte	0x66
	.byte	0
.LVUS127:
	.uleb128 .LVU93
	.uleb128 .LVU96
.LLST127:
	.byte	0x8
	.quad	.LVL17
	.uleb128 .LVL18-.LVL17
	.uleb128 0x1
	.byte	0x65
	.byte	0
.LVUS128:
	.uleb128 .LVU99
	.uleb128 .LVU102
.LLST128:
	.byte	0x8
	.quad	.LVL19
	.uleb128 .LVL20-.LVL19
	.uleb128 0x1
	.byte	0x63
	.byte	0
.LVUS130:
	.uleb128 .LVU114
	.uleb128 .LVU118
.LLST130:
	.byte	0x8
	.quad	.LVL22
	.uleb128 .LVL23-.LVL22
	.uleb128 0x6
	.byte	0xa0
	.long	.Ldebug_info0+52860
	.sleb128 0
	.byte	0
.LVUS132:
	.uleb128 .LVU123
	.uleb128 .LVU127
.LLST132:
	.byte	0x8
	.quad	.LVL24
	.uleb128 .LVL25-.LVL24
	.uleb128 0x6
	.byte	0xa0
	.long	.Ldebug_info0+52869
	.sleb128 0
	.byte	0
.LVUS134:
	.uleb128 .LVU129
	.uleb128 .LVU130
.LLST134:
	.byte	0x8
	.quad	.LVL25
	.uleb128 .LVL25-.LVL25
	.uleb128 0x3
	.byte	0x73
	.sleb128 16
	.byte	0x9f
	.byte	0
.LVUS136:
	.uleb128 .LVU147
	.uleb128 .LVU156
	.uleb128 .LVU1212
	.uleb128 .LVU1266
	.uleb128 .LVU1272
	.uleb128 .LVU1273
	.uleb128 .LVU1278
	.uleb128 .LVU1280
	.uleb128 .LVU1360
	.uleb128 .LVU1363
.LLST136:
	.byte	0x6
	.quad	.LVL33
	.byte	0x4
	.uleb128 .LVL33-.LVL33
	.uleb128 .LVL36-.LVL33
	.uleb128 0x6
	.byte	0xa0
	.long	.Ldebug_info0+52897
	.sleb128 0
	.byte	0x4
	.uleb128 .LVL225-.LVL33
	.uleb128 .LVL241-.LVL33
	.uleb128 0x6
	.byte	0xa0
	.long	.Ldebug_info0+52897
	.sleb128 0
	.byte	0x4
	.uleb128 .LVL246-.LVL33
	.uleb128 .LVL247-.LVL33
	.uleb128 0x6
	.byte	0xa0
	.long	.Ldebug_info0+52897
	.sleb128 0
	.byte	0x6
	.quad	.LVL251
	.byte	0x4
	.uleb128 .LVL251-.LVL251
	.uleb128 .LVL252-.LVL251
	.uleb128 0x6
	.byte	0xa0
	.long	.Ldebug_info0+52897
	.sleb128 0
	.byte	0x4
	.uleb128 .LVL269-.LVL251
	.uleb128 .LVL272-.LVL251
	.uleb128 0x6
	.byte	0xa0
	.long	.Ldebug_info0+52897
	.sleb128 0
	.byte	0
.LVUS137:
	.uleb128 .LVU147
	.uleb128 .LVU156
	.uleb128 .LVU1212
	.uleb128 .LVU1266
	.uleb128 .LVU1272
	.uleb128 .LVU1273
	.uleb128 .LVU1278
	.uleb128 .LVU1280
	.uleb128 .LVU1360
	.uleb128 .LVU1363
.LLST137:
	.byte	0x6
	.quad	.LVL33
	.byte	0x4
	.uleb128 .LVL33-.LVL33
	.uleb128 .LVL36-.LVL33
	.uleb128 0x6
	.byte	0xa0
	.long	.Ldebug_info0+53063
	.sleb128 0
	.byte	0x4
	.uleb128 .LVL225-.LVL33
	.uleb128 .LVL241-.LVL33
	.uleb128 0x6
	.byte	0xa0
	.long	.Ldebug_info0+53063
	.sleb128 0
	.byte	0x4
	.uleb128 .LVL246-.LVL33
	.uleb128 .LVL247-.LVL33
	.uleb128 0x6
	.byte	0xa0
	.long	.Ldebug_info0+53063
	.sleb128 0
	.byte	0x6
	.quad	.LVL251
	.byte	0x4
	.uleb128 .LVL251-.LVL251
	.uleb128 .LVL252-.LVL251
	.uleb128 0x6
	.byte	0xa0
	.long	.Ldebug_info0+53063
	.sleb128 0
	.byte	0x4
	.uleb128 .LVL269-.LVL251
	.uleb128 .LVL272-.LVL251
	.uleb128 0x6
	.byte	0xa0
	.long	.Ldebug_info0+53063
	.sleb128 0
	.byte	0
.LVUS139:
	.uleb128 .LVU149
	.uleb128 .LVU154
.LLST139:
	.byte	0x8
	.quad	.LVL34
	.uleb128 .LVL35-.LVL34
	.uleb128 0x6
	.byte	0xa0
	.long	.Ldebug_info0+52897
	.sleb128 0
	.byte	0
.LVUS140:
	.uleb128 .LVU149
	.uleb128 .LVU154
.LLST140:
	.byte	0x8
	.quad	.LVL34
	.uleb128 .LVL35-.LVL34
	.uleb128 0x6
	.byte	0xa0
	.long	.Ldebug_info0+53063
	.sleb128 0
	.byte	0
.LVUS141:
	.uleb128 .LVU150
	.uleb128 .LVU154
.LLST141:
	.byte	0x8
	.quad	.LVL34
	.uleb128 .LVL35-.LVL34
	.uleb128 0x6
	.byte	0xa0
	.long	.Ldebug_info0+52897
	.sleb128 0
	.byte	0
.LVUS142:
	.uleb128 .LVU150
	.uleb128 .LVU154
.LLST142:
	.byte	0x8
	.quad	.LVL34
	.uleb128 .LVL35-.LVL34
	.uleb128 0x6
	.byte	0xa0
	.long	.Ldebug_info0+53063
	.sleb128 0
	.byte	0
.LVUS144:
	.uleb128 .LVU1212
	.uleb128 .LVU1265
	.uleb128 .LVU1272
	.uleb128 .LVU1273
	.uleb128 .LVU1278
	.uleb128 .LVU1280
	.uleb128 .LVU1360
	.uleb128 .LVU1363
.LLST144:
	.byte	0x6
	.quad	.LVL225
	.byte	0x4
	.uleb128 .LVL225-.LVL225
	.uleb128 .LVL240-.LVL225
	.uleb128 0x6
	.byte	0xa0
	.long	.Ldebug_info0+52897
	.sleb128 0
	.byte	0x4
	.uleb128 .LVL246-.LVL225
	.uleb128 .LVL247-.LVL225
	.uleb128 0x6
	.byte	0xa0
	.long	.Ldebug_info0+52897
	.sleb128 0
	.byte	0x6
	.quad	.LVL251
	.byte	0x4
	.uleb128 .LVL251-.LVL251
	.uleb128 .LVL252-.LVL251
	.uleb128 0x6
	.byte	0xa0
	.long	.Ldebug_info0+52897
	.sleb128 0
	.byte	0x4
	.uleb128 .LVL269-.LVL251
	.uleb128 .LVL272-.LVL251
	.uleb128 0x6
	.byte	0xa0
	.long	.Ldebug_info0+52897
	.sleb128 0
	.byte	0
.LVUS145:
	.uleb128 .LVU1212
	.uleb128 .LVU1265
	.uleb128 .LVU1272
	.uleb128 .LVU1273
	.uleb128 .LVU1278
	.uleb128 .LVU1280
	.uleb128 .LVU1360
	.uleb128 .LVU1363
.LLST145:
	.byte	0x6
	.quad	.LVL225
	.byte	0x4
	.uleb128 .LVL225-.LVL225
	.uleb128 .LVL240-.LVL225
	.uleb128 0x6
	.byte	0xa0
	.long	.Ldebug_info0+53063
	.sleb128 0
	.byte	0x4
	.uleb128 .LVL246-.LVL225
	.uleb128 .LVL247-.LVL225
	.uleb128 0x6
	.byte	0xa0
	.long	.Ldebug_info0+53063
	.sleb128 0
	.byte	0x6
	.quad	.LVL251
	.byte	0x4
	.uleb128 .LVL251-.LVL251
	.uleb128 .LVL252-.LVL251
	.uleb128 0x6
	.byte	0xa0
	.long	.Ldebug_info0+53063
	.sleb128 0
	.byte	0x4
	.uleb128 .LVL269-.LVL251
	.uleb128 .LVL272-.LVL251
	.uleb128 0x6
	.byte	0xa0
	.long	.Ldebug_info0+53063
	.sleb128 0
	.byte	0
.LVUS146:
	.uleb128 .LVU1225
	.uleb128 .LVU1264
	.uleb128 .LVU1272
	.uleb128 .LVU1273
.LLST146:
	.byte	0x6
	.quad	.LVL229
	.byte	0x4
	.uleb128 .LVL229-.LVL229
	.uleb128 .LVL239-.LVL229
	.uleb128 0x1
	.byte	0x5f
	.byte	0x4
	.uleb128 .LVL246-.LVL229
	.uleb128 .LVL247-.LVL229
	.uleb128 0x1
	.byte	0x5f
	.byte	0
.LVUS147:
	.uleb128 .LVU1249
	.uleb128 .LVU1251
	.uleb128 .LVU1251
	.uleb128 .LVU1262
	.uleb128 .LVU1262
	.uleb128 .LVU1266
.LLST147:
	.byte	0x6
	.quad	.LVL234
	.byte	0x4
	.uleb128 .LVL234-.LVL234
	.uleb128 .LVL235-.LVL234
	.uleb128 0xc
	.byte	0x77
	.sleb128 248
	.byte	0x6
	.byte	0x77
	.sleb128 264
	.byte	0x6
	.byte	0x22
	.byte	0x23
	.uleb128 0x30
	.byte	0x9f
	.byte	0x4
	.uleb128 .LVL235-.LVL234
	.uleb128 .LVL238-1-.LVL234
	.uleb128 0x1
	.byte	0x50
	.byte	0x4
	.uleb128 .LVL238-1-.LVL234
	.uleb128 .LVL241-.LVL234
	.uleb128 0x3
	.byte	0x77
	.sleb128 88
	.byte	0
.LVUS148:
	.uleb128 .LVU1225
	.uleb128 .LVU1266
	.uleb128 .LVU1272
	.uleb128 .LVU1273
.LLST148:
	.byte	0x6
	.quad	.LVL229
	.byte	0x4
	.uleb128 .LVL229-.LVL229
	.uleb128 .LVL241-.LVL229
	.uleb128 0x8
	.byte	0x77
	.sleb128 264
	.byte	0x6
	.byte	0x8
	.byte	0x30
	.byte	0x1b
	.byte	0x9f
	.byte	0x4
	.uleb128 .LVL246-.LVL229
	.uleb128 .LVL247-.LVL229
	.uleb128 0x8
	.byte	0x77
	.sleb128 264
	.byte	0x6
	.byte	0x8
	.byte	0x30
	.byte	0x1b
	.byte	0x9f
	.byte	0
.LVUS149:
	.uleb128 .LVU1234
	.uleb128 .LVU1249
	.uleb128 .LVU1249
	.uleb128 .LVU1266
.LLST149:
	.byte	0x6
	.quad	.LVL231
	.byte	0x4
	.uleb128 .LVL231-.LVL231
	.uleb128 .LVL234-1-.LVL231
	.uleb128 0x1
	.byte	0x50
	.byte	0x4
	.uleb128 .LVL234-1-.LVL231
	.uleb128 .LVL241-.LVL231
	.uleb128 0x3
	.byte	0x77
	.sleb128 248
	.byte	0
.LVUS150:
	.uleb128 .LVU1234
	.uleb128 .LVU1249
	.uleb128 .LVU1249
	.uleb128 .LVU1249
	.uleb128 .LVU1249
	.uleb128 .LVU1252
	.uleb128 .LVU1252
	.uleb128 .LVU1262
	.uleb128 .LVU1262
	.uleb128 .LVU1265
.LLST150:
	.byte	0x6
	.quad	.LVL231
	.byte	0x4
	.uleb128 .LVL231-.LVL231
	.uleb128 .LVL234-1-.LVL231
	.uleb128 0x1
	.byte	0x50
	.byte	0x4
	.uleb128 .LVL234-1-.LVL231
	.uleb128 .LVL234-.LVL231
	.uleb128 0x3
	.byte	0x77
	.sleb128 248
	.byte	0x4
	.uleb128 .LVL234-.LVL231
	.uleb128 .LVL236-.LVL231
	.uleb128 0xa
	.byte	0x77
	.sleb128 248
	.byte	0x6
	.byte	0x77
	.sleb128 264
	.byte	0x6
	.byte	0x22
	.byte	0x9f
	.byte	0x4
	.uleb128 .LVL236-.LVL231
	.uleb128 .LVL238-1-.LVL231
	.uleb128 0x1
	.byte	0x50
	.byte	0x4
	.uleb128 .LVL238-1-.LVL231
	.uleb128 .LVL240-.LVL231
	.uleb128 0x3
	.byte	0x77
	.sleb128 88
	.byte	0
.LVUS152:
	.uleb128 .LVU1214
	.uleb128 .LVU1225
	.uleb128 .LVU1278
	.uleb128 .LVU1280
.LLST152:
	.byte	0x8
	.quad	.LVL225
	.uleb128 .LVL229-.LVL225
	.uleb128 0x6
	.byte	0xa0
	.long	.Ldebug_info0+52897
	.sleb128 0
	.byte	0x8
	.quad	.LVL251
	.uleb128 .LVL252-.LVL251
	.uleb128 0x6
	.byte	0xa0
	.long	.Ldebug_info0+52897
	.sleb128 0
	.byte	0
.LVUS153:
	.uleb128 .LVU1214
	.uleb128 .LVU1225
	.uleb128 .LVU1278
	.uleb128 .LVU1280
.LLST153:
	.byte	0x8
	.quad	.LVL225
	.uleb128 .LVL229-.LVL225
	.uleb128 0x2
	.byte	0x31
	.byte	0x9f
	.byte	0x8
	.quad	.LVL251
	.uleb128 .LVL252-.LVL251
	.uleb128 0x2
	.byte	0x31
	.byte	0x9f
	.byte	0
.LVUS154:
	.uleb128 .LVU1214
	.uleb128 .LVU1225
	.uleb128 .LVU1278
	.uleb128 .LVU1280
.LLST154:
	.byte	0x8
	.quad	.LVL225
	.uleb128 .LVL229-.LVL225
	.uleb128 0xa
	.byte	0x3
	.quad	.LC2
	.byte	0x9f
	.byte	0x8
	.quad	.LVL251
	.uleb128 .LVL252-.LVL251
	.uleb128 0xa
	.byte	0x3
	.quad	.LC2
	.byte	0x9f
	.byte	0
.LVUS155:
	.uleb128 .LVU1215
	.uleb128 .LVU1219
.LLST155:
	.byte	0x8
	.quad	.LVL225
	.uleb128 .LVL228-.LVL225
	.uleb128 0x6
	.byte	0xa0
	.long	.Ldebug_info0+52897
	.sleb128 0
	.byte	0
.LVUS156:
	.uleb128 .LVU1217
	.uleb128 .LVU1218
	.uleb128 .LVU1218
	.uleb128 .LVU1219
.LLST156:
	.byte	0x6
	.quad	.LVL226
	.byte	0x4
	.uleb128 .LVL226-.LVL226
	.uleb128 .LVL227-.LVL226
	.uleb128 0x6
	.byte	0x70
	.sleb128 0
	.byte	0x8
	.byte	0x30
	.byte	0x1b
	.byte	0x9f
	.byte	0x4
	.uleb128 .LVL227-.LVL226
	.uleb128 .LVL228-.LVL226
	.uleb128 0x8
	.byte	0x77
	.sleb128 264
	.byte	0x6
	.byte	0x8
	.byte	0x30
	.byte	0x1b
	.byte	0x9f
	.byte	0
.LVUS158:
	.uleb128 .LVU1224
	.uleb128 .LVU1225
.LLST158:
	.byte	0x8
	.quad	.LVL229
	.uleb128 .LVL229-.LVL229
	.uleb128 0x6
	.byte	0xa0
	.long	.Ldebug_info0+53807
	.sleb128 0
	.byte	0
.LVUS160:
	.uleb128 .LVU1225
	.uleb128 .LVU1234
	.uleb128 .LVU1272
	.uleb128 .LVU1273
.LLST160:
	.byte	0x6
	.quad	.LVL229
	.byte	0x4
	.uleb128 .LVL229-.LVL229
	.uleb128 .LVL231-.LVL229
	.uleb128 0x6
	.byte	0xa0
	.long	.Ldebug_info0+52897
	.sleb128 0
	.byte	0x4
	.uleb128 .LVL246-.LVL229
	.uleb128 .LVL247-.LVL229
	.uleb128 0x6
	.byte	0xa0
	.long	.Ldebug_info0+52897
	.sleb128 0
	.byte	0
.LVUS162:
	.uleb128 .LVU1227
	.uleb128 .LVU1234
	.uleb128 .LVU1272
	.uleb128 .LVU1273
.LLST162:
	.byte	0x6
	.quad	.LVL229
	.byte	0x4
	.uleb128 .LVL229-.LVL229
	.uleb128 .LVL231-.LVL229
	.uleb128 0x6
	.byte	0xa0
	.long	.Ldebug_info0+52897
	.sleb128 0
	.byte	0x4
	.uleb128 .LVL246-.LVL229
	.uleb128 .LVL247-.LVL229
	.uleb128 0x6
	.byte	0xa0
	.long	.Ldebug_info0+52897
	.sleb128 0
	.byte	0
.LVUS164:
	.uleb128 .LVU1229
	.uleb128 .LVU1234
	.uleb128 .LVU1272
	.uleb128 .LVU1273
.LLST164:
	.byte	0x6
	.quad	.LVL229
	.byte	0x4
	.uleb128 .LVL229-.LVL229
	.uleb128 .LVL231-.LVL229
	.uleb128 0x2
	.byte	0x30
	.byte	0x9f
	.byte	0x4
	.uleb128 .LVL246-.LVL229
	.uleb128 .LVL247-.LVL229
	.uleb128 0x2
	.byte	0x30
	.byte	0x9f
	.byte	0
.LVUS165:
	.uleb128 .LVU1229
	.uleb128 .LVU1234
	.uleb128 .LVU1272
	.uleb128 .LVU1273
.LLST165:
	.byte	0x6
	.quad	.LVL229
	.byte	0x4
	.uleb128 .LVL229-.LVL229
	.uleb128 .LVL231-.LVL229
	.uleb128 0x6
	.byte	0xa0
	.long	.Ldebug_info0+52897
	.sleb128 0
	.byte	0x4
	.uleb128 .LVL246-.LVL229
	.uleb128 .LVL247-.LVL229
	.uleb128 0x6
	.byte	0xa0
	.long	.Ldebug_info0+52897
	.sleb128 0
	.byte	0
.LVUS168:
	.uleb128 .LVU1239
	.uleb128 .LVU1242
.LLST168:
	.byte	0x8
	.quad	.LVL232
	.uleb128 .LVL233-.LVL232
	.uleb128 0x6
	.byte	0xa0
	.long	.Ldebug_info0+52897
	.sleb128 0
	.byte	0
.LVUS169:
	.uleb128 .LVU1239
	.uleb128 .LVU1242
.LLST169:
	.byte	0x8
	.quad	.LVL232
	.uleb128 .LVL233-.LVL232
	.uleb128 0x6
	.byte	0x70
	.sleb128 0
	.byte	0x71
	.sleb128 0
	.byte	0x22
	.byte	0x9f
	.byte	0
.LVUS170:
	.uleb128 .LVU1239
	.uleb128 .LVU1242
.LLST170:
	.byte	0x8
	.quad	.LVL232
	.uleb128 .LVL233-.LVL232
	.uleb128 0x6
	.byte	0xa0
	.long	.Ldebug_info0+53063
	.sleb128 0
	.byte	0
.LVUS171:
	.uleb128 .LVU1240
	.uleb128 .LVU1242
.LLST171:
	.byte	0x8
	.quad	.LVL232
	.uleb128 .LVL233-.LVL232
	.uleb128 0x6
	.byte	0xa0
	.long	.Ldebug_info0+52897
	.sleb128 0
	.byte	0
.LVUS172:
	.uleb128 .LVU1240
	.uleb128 .LVU1242
.LLST172:
	.byte	0x8
	.quad	.LVL232
	.uleb128 .LVL233-.LVL232
	.uleb128 0x6
	.byte	0x70
	.sleb128 0
	.byte	0x71
	.sleb128 0
	.byte	0x22
	.byte	0x9f
	.byte	0
.LVUS173:
	.uleb128 .LVU1240
	.uleb128 .LVU1242
.LLST173:
	.byte	0x8
	.quad	.LVL232
	.uleb128 .LVL233-.LVL232
	.uleb128 0x6
	.byte	0xa0
	.long	.Ldebug_info0+53063
	.sleb128 0
	.byte	0
.LVUS174:
	.uleb128 .LVU1234
	.uleb128 .LVU1236
.LLST174:
	.byte	0x8
	.quad	.LVL231
	.uleb128 .LVL231-.LVL231
	.uleb128 0x6
	.byte	0xa0
	.long	.Ldebug_info0+54154
	.sleb128 0
	.byte	0
.LVUS175:
	.uleb128 .LVU1234
	.uleb128 .LVU1236
.LLST175:
	.byte	0x8
	.quad	.LVL231
	.uleb128 .LVL231-.LVL231
	.uleb128 0x1
	.byte	0x50
	.byte	0
.LVUS176:
	.uleb128 .LVU1234
	.uleb128 .LVU1236
.LLST176:
	.byte	0x8
	.quad	.LVL231
	.uleb128 .LVL231-.LVL231
	.uleb128 0x6
	.byte	0xa0
	.long	.Ldebug_info0+52897
	.sleb128 0
	.byte	0
.LVUS178:
	.uleb128 .LVU1242
	.uleb128 .LVU1249
.LLST178:
	.byte	0x8
	.quad	.LVL233
	.uleb128 .LVL234-.LVL233
	.uleb128 0x1
	.byte	0x5f
	.byte	0
.LVUS179:
	.uleb128 .LVU1242
	.uleb128 .LVU1249
	.uleb128 .LVU1249
	.uleb128 .LVU1249
.LLST179:
	.byte	0x6
	.quad	.LVL233
	.byte	0x4
	.uleb128 .LVL233-.LVL233
	.uleb128 .LVL234-1-.LVL233
	.uleb128 0x1
	.byte	0x50
	.byte	0x4
	.uleb128 .LVL234-1-.LVL233
	.uleb128 .LVL234-.LVL233
	.uleb128 0x3
	.byte	0x77
	.sleb128 248
	.byte	0
.LVUS180:
	.uleb128 .LVU1242
	.uleb128 .LVU1249
.LLST180:
	.byte	0x8
	.quad	.LVL233
	.uleb128 .LVL234-.LVL233
	.uleb128 0x6
	.byte	0xa0
	.long	.Ldebug_info0+52897
	.sleb128 0
	.byte	0
.LVUS181:
	.uleb128 .LVU1244
	.uleb128 .LVU1249
.LLST181:
	.byte	0x8
	.quad	.LVL233
	.uleb128 .LVL234-.LVL233
	.uleb128 0x1
	.byte	0x5f
	.byte	0
.LVUS182:
	.uleb128 .LVU1244
	.uleb128 .LVU1249
	.uleb128 .LVU1249
	.uleb128 .LVU1249
.LLST182:
	.byte	0x6
	.quad	.LVL233
	.byte	0x4
	.uleb128 .LVL233-.LVL233
	.uleb128 .LVL234-1-.LVL233
	.uleb128 0x1
	.byte	0x50
	.byte	0x4
	.uleb128 .LVL234-1-.LVL233
	.uleb128 .LVL234-.LVL233
	.uleb128 0x3
	.byte	0x77
	.sleb128 248
	.byte	0
.LVUS183:
	.uleb128 .LVU1244
	.uleb128 .LVU1249
.LLST183:
	.byte	0x8
	.quad	.LVL233
	.uleb128 .LVL234-.LVL233
	.uleb128 0x6
	.byte	0xa0
	.long	.Ldebug_info0+52897
	.sleb128 0
	.byte	0
.LVUS184:
	.uleb128 .LVU1245
	.uleb128 .LVU1249
	.uleb128 .LVU1249
	.uleb128 .LVU1266
.LLST184:
	.byte	0x6
	.quad	.LVL233
	.byte	0x4
	.uleb128 .LVL233-.LVL233
	.uleb128 .LVL234-1-.LVL233
	.uleb128 0x6
	.byte	0x71
	.sleb128 0
	.byte	0x8
	.byte	0x30
	.byte	0x1b
	.byte	0x9f
	.byte	0x4
	.uleb128 .LVL234-1-.LVL233
	.uleb128 .LVL241-.LVL233
	.uleb128 0x8
	.byte	0x77
	.sleb128 264
	.byte	0x6
	.byte	0x8
	.byte	0x30
	.byte	0x1b
	.byte	0x9f
	.byte	0
.LVUS186:
	.uleb128 .LVU1252
	.uleb128 .LVU1262
.LLST186:
	.byte	0x8
	.quad	.LVL236
	.uleb128 .LVL238-.LVL236
	.uleb128 0x6
	.byte	0xa0
	.long	.Ldebug_info0+54154
	.sleb128 0
	.byte	0
.LVUS188:
	.uleb128 .LVU1254
	.uleb128 .LVU1262
.LLST188:
	.byte	0x8
	.quad	.LVL237
	.uleb128 .LVL238-.LVL237
	.uleb128 0x1
	.byte	0x5f
	.byte	0
.LVUS190:
	.uleb128 .LVU1255
	.uleb128 .LVU1262
.LLST190:
	.byte	0x8
	.quad	.LVL237
	.uleb128 .LVL238-.LVL237
	.uleb128 0x1
	.byte	0x5f
	.byte	0
.LVUS192:
	.uleb128 .LVU1256
	.uleb128 .LVU1262
.LLST192:
	.byte	0x8
	.quad	.LVL237
	.uleb128 .LVL238-.LVL237
	.uleb128 0x1
	.byte	0x5f
	.byte	0
.LVUS194:
	.uleb128 .LVU1257
	.uleb128 .LVU1262
.LLST194:
	.byte	0x8
	.quad	.LVL237
	.uleb128 .LVL238-.LVL237
	.uleb128 0x1
	.byte	0x5f
	.byte	0
.LVUS116:
	.uleb128 .LVU73
	.uleb128 .LVU75
	.uleb128 .LVU1198
	.uleb128 .LVU1200
.LLST116:
	.byte	0x8
	.quad	.LVL13
	.uleb128 .LVL13-.LVL13
	.uleb128 0x4
	.byte	0xa3
	.uleb128 0x1
	.byte	0x54
	.byte	0x9f
	.byte	0x8
	.quad	.LVL222
	.uleb128 .LVL222-.LVL222
	.uleb128 0x1
	.byte	0x54
	.byte	0
.LVUS117:
	.uleb128 .LVU74
	.uleb128 .LVU75
	.uleb128 .LVU1199
	.uleb128 .LVU1200
.LLST117:
	.byte	0x8
	.quad	.LVL13
	.uleb128 .LVL13-.LVL13
	.uleb128 0x4
	.byte	0xa3
	.uleb128 0x1
	.byte	0x54
	.byte	0x9f
	.byte	0x8
	.quad	.LVL222
	.uleb128 .LVL222-.LVL222
	.uleb128 0x1
	.byte	0x54
	.byte	0
.LVUS119:
	.uleb128 .LVU75
	.uleb128 .LVU78
	.uleb128 .LVU1200
	.uleb128 .LVU1203
.LLST119:
	.byte	0x8
	.quad	.LVL13
	.uleb128 .LVL13-.LVL13
	.uleb128 0x4
	.byte	0xa3
	.uleb128 0x1
	.byte	0x54
	.byte	0x9f
	.byte	0x8
	.quad	.LVL222
	.uleb128 .LVL222-.LVL222
	.uleb128 0x1
	.byte	0x54
	.byte	0
.LVUS120:
	.uleb128 .LVU77
	.uleb128 .LVU78
	.uleb128 .LVU1202
	.uleb128 .LVU1203
.LLST120:
	.byte	0x8
	.quad	.LVL13
	.uleb128 .LVL13-.LVL13
	.uleb128 0x6
	.byte	0xa3
	.uleb128 0x1
	.byte	0x54
	.byte	0x23
	.uleb128 0x8
	.byte	0x9f
	.byte	0x8
	.quad	.LVL222
	.uleb128 .LVL222-.LVL222
	.uleb128 0x3
	.byte	0x74
	.sleb128 8
	.byte	0x9f
	.byte	0
.LVUS195:
	.uleb128 .LVU158
	.uleb128 .LVU160
.LLST195:
	.byte	0x8
	.quad	.LVL36
	.uleb128 .LVL37-.LVL36
	.uleb128 0x6
	.byte	0xa0
	.long	.Ldebug_info0+53036
	.sleb128 0
	.byte	0
.LVUS295:
	.uleb128 .LVU272
	.uleb128 .LVU276
	.uleb128 .LVU276
	.uleb128 .LVU309
.LLST295:
	.byte	0x6
	.quad	.LVL54
	.byte	0x4
	.uleb128 .LVL54-.LVL54
	.uleb128 .LVL55-.LVL54
	.uleb128 0x1
	.byte	0x50
	.byte	0x4
	.uleb128 .LVL55-.LVL54
	.uleb128 .LVL61-.LVL54
	.uleb128 0x3
	.byte	0x70
	.sleb128 -48
	.byte	0x9f
	.byte	0
.LVUS296:
	.uleb128 .LVU264
	.uleb128 .LVU1112
	.uleb128 .LVU1187
	.uleb128 .LVU1194
	.uleb128 .LVU1268
	.uleb128 .LVU1270
	.uleb128 .LVU1282
	.uleb128 .LVU1296
	.uleb128 .LVU1355
	.uleb128 .LVU1360
.LLST296:
	.byte	0x6
	.quad	.LVL53
	.byte	0x4
	.uleb128 .LVL53-.LVL53
	.uleb128 .LVL204-.LVL53
	.uleb128 0x6
	.byte	0xa0
	.long	.Ldebug_info0+52897
	.sleb128 0
	.byte	0x4
	.uleb128 .LVL217-.LVL53
	.uleb128 .LVL221-.LVL53
	.uleb128 0x6
	.byte	0xa0
	.long	.Ldebug_info0+52897
	.sleb128 0
	.byte	0x4
	.uleb128 .LVL242-.LVL53
	.uleb128 .LVL243-.LVL53
	.uleb128 0x6
	.byte	0xa0
	.long	.Ldebug_info0+52897
	.sleb128 0
	.byte	0x6
	.quad	.LVL253
	.byte	0x4
	.uleb128 .LVL253-.LVL253
	.uleb128 .LVL255-.LVL253
	.uleb128 0x6
	.byte	0xa0
	.long	.Ldebug_info0+52897
	.sleb128 0
	.byte	0x4
	.uleb128 .LVL266-.LVL253
	.uleb128 .LVL269-.LVL253
	.uleb128 0x6
	.byte	0xa0
	.long	.Ldebug_info0+52897
	.sleb128 0
	.byte	0
.LVUS297:
	.uleb128 .LVU264
	.uleb128 .LVU266
.LLST297:
	.byte	0x8
	.quad	.LVL53
	.uleb128 .LVL53-.LVL53
	.uleb128 0x6
	.byte	0xa0
	.long	.Ldebug_info0+52897
	.sleb128 0
	.byte	0
.LVUS298:
	.uleb128 .LVU265
	.uleb128 .LVU266
.LLST298:
	.byte	0x8
	.quad	.LVL53
	.uleb128 .LVL53-.LVL53
	.uleb128 0x6
	.byte	0xa0
	.long	.Ldebug_info0+52897
	.sleb128 0
	.byte	0
.LVUS299:
	.uleb128 .LVU266
	.uleb128 .LVU269
.LLST299:
	.byte	0x8
	.quad	.LVL53
	.uleb128 .LVL53-.LVL53
	.uleb128 0x6
	.byte	0xa0
	.long	.Ldebug_info0+52897
	.sleb128 0
	.byte	0
.LVUS300:
	.uleb128 .LVU268
	.uleb128 .LVU269
.LLST300:
	.byte	0x8
	.quad	.LVL53
	.uleb128 .LVL53-.LVL53
	.uleb128 0x6
	.byte	0xa0
	.long	.Ldebug_info0+52897
	.sleb128 8
	.byte	0
.LVUS302:
	.uleb128 .LVU305
	.uleb128 .LVU306
.LLST302:
	.byte	0x8
	.quad	.LVL60
	.uleb128 .LVL60-.LVL60
	.uleb128 0x6
	.byte	0xa0
	.long	.Ldebug_info0+55097
	.sleb128 0
	.byte	0
.LVUS303:
	.uleb128 .LVU279
	.uleb128 .LVU281
.LLST303:
	.byte	0x8
	.quad	.LVL56
	.uleb128 .LVL56-.LVL56
	.uleb128 0x6
	.byte	0x71
	.sleb128 0
	.byte	0x74
	.sleb128 0
	.byte	0x22
	.byte	0x9f
	.byte	0
.LVUS304:
	.uleb128 .LVU287
	.uleb128 .LVU289
.LLST304:
	.byte	0x8
	.quad	.LVL57
	.uleb128 .LVL57-.LVL57
	.uleb128 0x6
	.byte	0x71
	.sleb128 0
	.byte	0x72
	.sleb128 0
	.byte	0x22
	.byte	0x9f
	.byte	0
.LVUS305:
	.uleb128 .LVU293
	.uleb128 .LVU295
.LLST305:
	.byte	0x8
	.quad	.LVL58
	.uleb128 .LVL58-.LVL58
	.uleb128 0x6
	.byte	0x74
	.sleb128 0
	.byte	0x75
	.sleb128 0
	.byte	0x22
	.byte	0x9f
	.byte	0
.LVUS306:
	.uleb128 .LVU299
	.uleb128 .LVU301
.LLST306:
	.byte	0x8
	.quad	.LVL59
	.uleb128 .LVL59-.LVL59
	.uleb128 0x6
	.byte	0x72
	.sleb128 0
	.byte	0x75
	.sleb128 0
	.byte	0x22
	.byte	0x9f
	.byte	0
.LVUS307:
	.uleb128 .LVU309
	.uleb128 .LVU323
	.uleb128 .LVU323
	.uleb128 .LVU327
	.uleb128 .LVU327
	.uleb128 .LVU330
	.uleb128 .LVU330
	.uleb128 .LVU343
	.uleb128 .LVU343
	.uleb128 .LVU344
.LLST307:
	.byte	0x6
	.quad	.LVL61
	.byte	0x4
	.uleb128 .LVL61-.LVL61
	.uleb128 .LVL67-.LVL61
	.uleb128 0x2
	.byte	0x30
	.byte	0x9f
	.byte	0x4
	.uleb128 .LVL67-.LVL61
	.uleb128 .LVL69-.LVL61
	.uleb128 0x2
	.byte	0x31
	.byte	0x9f
	.byte	0x4
	.uleb128 .LVL69-.LVL61
	.uleb128 .LVL70-.LVL61
	.uleb128 0x1
	.byte	0x51
	.byte	0x4
	.uleb128 .LVL70-.LVL61
	.uleb128 .LVL74-.LVL61
	.uleb128 0x3
	.byte	0x77
	.sleb128 264
	.byte	0x4
	.uleb128 .LVL74-.LVL61
	.uleb128 .LVL75-.LVL61
	.uleb128 0x1
	.byte	0x51
	.byte	0
.LVUS309:
	.uleb128 .LVU311
	.uleb128 .LVU314
	.uleb128 .LVU314
	.uleb128 .LVU325
	.uleb128 .LVU327
	.uleb128 .LVU330
	.uleb128 .LVU330
	.uleb128 .LVU344
.LLST309:
	.byte	0x6
	.quad	.LVL62
	.byte	0x4
	.uleb128 .LVL62-.LVL62
	.uleb128 .LVL63-.LVL62
	.uleb128 0x2
	.byte	0x30
	.byte	0x9f
	.byte	0x4
	.uleb128 .LVL63-.LVL62
	.uleb128 .LVL68-.LVL62
	.uleb128 0x1
	.byte	0x54
	.byte	0x4
	.uleb128 .LVL69-.LVL62
	.uleb128 .LVL70-.LVL62
	.uleb128 0x2
	.byte	0x30
	.byte	0x9f
	.byte	0x4
	.uleb128 .LVL70-.LVL62
	.uleb128 .LVL75-.LVL62
	.uleb128 0x1
	.byte	0x55
	.byte	0
.LVUS311:
	.uleb128 .LVU311
	.uleb128 .LVU314
	.uleb128 .LVU314
	.uleb128 .LVU320
	.uleb128 .LVU320
	.uleb128 .LVU321
	.uleb128 .LVU327
	.uleb128 .LVU330
	.uleb128 .LVU330
	.uleb128 .LVU337
	.uleb128 .LVU337
	.uleb128 .LVU338
.LLST311:
	.byte	0x6
	.quad	.LVL62
	.byte	0x4
	.uleb128 .LVL62-.LVL62
	.uleb128 .LVL63-.LVL62
	.uleb128 0x2
	.byte	0x30
	.byte	0x9f
	.byte	0x4
	.uleb128 .LVL63-.LVL62
	.uleb128 .LVL65-.LVL62
	.uleb128 0x1
	.byte	0x50
	.byte	0x4
	.uleb128 .LVL65-.LVL62
	.uleb128 .LVL66-.LVL62
	.uleb128 0x3
	.byte	0x70
	.sleb128 1
	.byte	0x9f
	.byte	0x4
	.uleb128 .LVL69-.LVL62
	.uleb128 .LVL70-.LVL62
	.uleb128 0x2
	.byte	0x30
	.byte	0x9f
	.byte	0x4
	.uleb128 .LVL70-.LVL62
	.uleb128 .LVL72-.LVL62
	.uleb128 0x1
	.byte	0x50
	.byte	0x4
	.uleb128 .LVL72-.LVL62
	.uleb128 .LVL73-.LVL62
	.uleb128 0x3
	.byte	0x70
	.sleb128 1
	.byte	0x9f
	.byte	0
.LVUS371:
	.uleb128 .LVU391
	.uleb128 .LVU400
	.uleb128 .LVU400
	.uleb128 .LVU403
	.uleb128 .LVU403
	.uleb128 .LVU416
	.uleb128 .LVU416
	.uleb128 .LVU1041
	.uleb128 .LVU1041
	.uleb128 .LVU1042
	.uleb128 .LVU1042
	.uleb128 .LVU1043
	.uleb128 .LVU1187
	.uleb128 .LVU1194
.LLST371:
	.byte	0x6
	.quad	.LVL78
	.byte	0x4
	.uleb128 .LVL78-.LVL78
	.uleb128 .LVL79-.LVL78
	.uleb128 0x2
	.byte	0x30
	.byte	0x9f
	.byte	0x4
	.uleb128 .LVL79-.LVL78
	.uleb128 .LVL80-.LVL78
	.uleb128 0x1
	.byte	0x53
	.byte	0x4
	.uleb128 .LVL80-.LVL78
	.uleb128 .LVL81-.LVL78
	.uleb128 0x1
	.byte	0x5f
	.byte	0x4
	.uleb128 .LVL81-.LVL78
	.uleb128 .LVL192-.LVL78
	.uleb128 0x7
	.byte	0x77
	.sleb128 20
	.byte	0x94
	.byte	0x4
	.byte	0x38
	.byte	0x1c
	.byte	0x9f
	.byte	0x4
	.uleb128 .LVL192-.LVL78
	.uleb128 .LVL193-.LVL78
	.uleb128 0x1
	.byte	0x53
	.byte	0x4
	.uleb128 .LVL193-.LVL78
	.uleb128 .LVL194-.LVL78
	.uleb128 0x2
	.byte	0x77
	.sleb128 20
	.byte	0x4
	.uleb128 .LVL217-.LVL78
	.uleb128 .LVL221-.LVL78
	.uleb128 0x7
	.byte	0x77
	.sleb128 20
	.byte	0x94
	.byte	0x4
	.byte	0x38
	.byte	0x1c
	.byte	0x9f
	.byte	0
.LVUS374:
	.uleb128 .LVU407
	.uleb128 .LVU416
	.uleb128 .LVU418
	.uleb128 .LVU422
	.uleb128 .LVU422
	.uleb128 .LVU452
	.uleb128 .LVU452
	.uleb128 .LVU1036
	.uleb128 .LVU1036
	.uleb128 .LVU1038
	.uleb128 .LVU1187
	.uleb128 .LVU1194
.LLST374:
	.byte	0x6
	.quad	.LVL80
	.byte	0x4
	.uleb128 .LVL80-.LVL80
	.uleb128 .LVL81-.LVL80
	.uleb128 0x2
	.byte	0x30
	.byte	0x9f
	.byte	0x4
	.uleb128 .LVL82-.LVL80
	.uleb128 .LVL83-.LVL80
	.uleb128 0x1
	.byte	0x50
	.byte	0x4
	.uleb128 .LVL83-.LVL80
	.uleb128 .LVL89-.LVL80
	.uleb128 0x1
	.byte	0x53
	.byte	0x4
	.uleb128 .LVL89-.LVL80
	.uleb128 .LVL189-.LVL80
	.uleb128 0x3
	.byte	0x77
	.sleb128 152
	.byte	0x4
	.uleb128 .LVL189-.LVL80
	.uleb128 .LVL190-.LVL80
	.uleb128 0x9
	.byte	0x77
	.sleb128 152
	.byte	0x94
	.byte	0x4
	.byte	0x23
	.uleb128 0x100
	.byte	0x9f
	.byte	0x4
	.uleb128 .LVL217-.LVL80
	.uleb128 .LVL221-.LVL80
	.uleb128 0x3
	.byte	0x77
	.sleb128 152
	.byte	0
.LVUS376:
	.uleb128 .LVU429
	.uleb128 .LVU452
	.uleb128 .LVU452
	.uleb128 .LVU1038
	.uleb128 .LVU1187
	.uleb128 .LVU1194
.LLST376:
	.byte	0x6
	.quad	.LVL85
	.byte	0x4
	.uleb128 .LVL85-.LVL85
	.uleb128 .LVL89-.LVL85
	.uleb128 0x6
	.byte	0x7c
	.sleb128 0
	.byte	0x73
	.sleb128 0
	.byte	0x1c
	.byte	0x9f
	.byte	0x4
	.uleb128 .LVL89-.LVL85
	.uleb128 .LVL190-.LVL85
	.uleb128 0x2d
	.byte	0x77
	.sleb128 152
	.byte	0x94
	.byte	0x4
	.byte	0x23
	.uleb128 0x100
	.byte	0x77
	.sleb128 104
	.byte	0x94
	.byte	0x4
	.byte	0x77
	.sleb128 152
	.byte	0x94
	.byte	0x4
	.byte	0x23
	.uleb128 0x100
	.byte	0x8
	.byte	0x20
	.byte	0x24
	.byte	0x77
	.sleb128 104
	.byte	0x94
	.byte	0x4
	.byte	0x8
	.byte	0x20
	.byte	0x24
	.byte	0x2c
	.byte	0x28
	.value	0x1
	.byte	0x16
	.byte	0x13
	.byte	0x77
	.sleb128 152
	.byte	0x94
	.byte	0x4
	.byte	0x1c
	.byte	0x9f
	.byte	0x4
	.uleb128 .LVL217-.LVL85
	.uleb128 .LVL221-.LVL85
	.uleb128 0x2d
	.byte	0x77
	.sleb128 152
	.byte	0x94
	.byte	0x4
	.byte	0x23
	.uleb128 0x100
	.byte	0x77
	.sleb128 104
	.byte	0x94
	.byte	0x4
	.byte	0x77
	.sleb128 152
	.byte	0x94
	.byte	0x4
	.byte	0x23
	.uleb128 0x100
	.byte	0x8
	.byte	0x20
	.byte	0x24
	.byte	0x77
	.sleb128 104
	.byte	0x94
	.byte	0x4
	.byte	0x8
	.byte	0x20
	.byte	0x24
	.byte	0x2c
	.byte	0x28
	.value	0x1
	.byte	0x16
	.byte	0x13
	.byte	0x77
	.sleb128 152
	.byte	0x94
	.byte	0x4
	.byte	0x1c
	.byte	0x9f
	.byte	0
.LVUS378:
	.uleb128 .LVU452
	.uleb128 .LVU973
	.uleb128 .LVU1187
	.uleb128 .LVU1194
.LLST378:
	.byte	0x6
	.quad	.LVL89
	.byte	0x4
	.uleb128 .LVL89-.LVL89
	.uleb128 .LVL165-.LVL89
	.uleb128 0x3
	.byte	0x77
	.sleb128 240
	.byte	0x4
	.uleb128 .LVL217-.LVL89
	.uleb128 .LVL221-.LVL89
	.uleb128 0x3
	.byte	0x77
	.sleb128 240
	.byte	0
.LVUS380:
	.uleb128 .LVU499
	.uleb128 .LVU969
	.uleb128 .LVU1187
	.uleb128 .LVU1194
.LLST380:
	.byte	0x6
	.quad	.LVL95
	.byte	0x4
	.uleb128 .LVL95-.LVL95
	.uleb128 .LVL164-.LVL95
	.uleb128 0x1
	.byte	0x64
	.byte	0x4
	.uleb128 .LVL217-.LVL95
	.uleb128 .LVL221-.LVL95
	.uleb128 0x1
	.byte	0x64
	.byte	0
.LVUS381:
	.uleb128 .LVU504
	.uleb128 .LVU969
	.uleb128 .LVU1187
	.uleb128 .LVU1194
.LLST381:
	.byte	0x6
	.quad	.LVL96
	.byte	0x4
	.uleb128 .LVL96-.LVL96
	.uleb128 .LVL164-.LVL96
	.uleb128 0x1
	.byte	0x63
	.byte	0x4
	.uleb128 .LVL217-.LVL96
	.uleb128 .LVL221-.LVL96
	.uleb128 0x1
	.byte	0x63
	.byte	0
.LVUS382:
	.uleb128 .LVU509
	.uleb128 .LVU969
	.uleb128 .LVU1187
	.uleb128 .LVU1194
.LLST382:
	.byte	0x6
	.quad	.LVL97
	.byte	0x4
	.uleb128 .LVL97-.LVL97
	.uleb128 .LVL164-.LVL97
	.uleb128 0x1
	.byte	0x62
	.byte	0x4
	.uleb128 .LVL217-.LVL97
	.uleb128 .LVL221-.LVL97
	.uleb128 0x1
	.byte	0x62
	.byte	0
.LVUS383:
	.uleb128 .LVU514
	.uleb128 .LVU969
	.uleb128 .LVU1187
	.uleb128 .LVU1194
.LLST383:
	.byte	0x6
	.quad	.LVL98
	.byte	0x4
	.uleb128 .LVL98-.LVL98
	.uleb128 .LVL164-.LVL98
	.uleb128 0x1
	.byte	0x61
	.byte	0x4
	.uleb128 .LVL217-.LVL98
	.uleb128 .LVL221-.LVL98
	.uleb128 0x1
	.byte	0x61
	.byte	0
.LVUS385:
	.uleb128 .LVU517
	.uleb128 .LVU966
	.uleb128 .LVU968
	.uleb128 .LVU969
	.uleb128 .LVU1187
	.uleb128 .LVU1194
.LLST385:
	.byte	0x6
	.quad	.LVL99
	.byte	0x4
	.uleb128 .LVL99-.LVL99
	.uleb128 .LVL162-.LVL99
	.uleb128 0x3
	.byte	0x77
	.sleb128 248
	.byte	0x4
	.uleb128 .LVL163-.LVL99
	.uleb128 .LVL164-.LVL99
	.uleb128 0x1
	.byte	0x50
	.byte	0x4
	.uleb128 .LVL217-.LVL99
	.uleb128 .LVL221-.LVL99
	.uleb128 0x3
	.byte	0x77
	.sleb128 248
	.byte	0
.LVUS387:
	.uleb128 .LVU518
	.uleb128 .LVU523
	.uleb128 .LVU523
	.uleb128 .LVU534
	.uleb128 .LVU1187
	.uleb128 .LVU1190
.LLST387:
	.byte	0x6
	.quad	.LVL99
	.byte	0x4
	.uleb128 .LVL99-.LVL99
	.uleb128 .LVL100-.LVL99
	.uleb128 0x1
	.byte	0x5b
	.byte	0x4
	.uleb128 .LVL100-.LVL99
	.uleb128 .LVL105-.LVL99
	.uleb128 0x1
	.byte	0x51
	.byte	0x4
	.uleb128 .LVL217-.LVL99
	.uleb128 .LVL218-.LVL99
	.uleb128 0x1
	.byte	0x51
	.byte	0
.LVUS388:
	.uleb128 .LVU523
	.uleb128 .LVU534
	.uleb128 .LVU534
	.uleb128 .LVU573
	.uleb128 .LVU573
	.uleb128 .LVU635
	.uleb128 .LVU1187
	.uleb128 .LVU1190
.LLST388:
	.byte	0x6
	.quad	.LVL100
	.byte	0x4
	.uleb128 .LVL100-.LVL100
	.uleb128 .LVL105-.LVL100
	.uleb128 0x1
	.byte	0x5b
	.byte	0x4
	.uleb128 .LVL105-.LVL100
	.uleb128 .LVL108-.LVL100
	.uleb128 0x7
	.byte	0x72
	.sleb128 0
	.byte	0x73
	.sleb128 40
	.byte	0x6
	.byte	0x1c
	.byte	0x9f
	.byte	0x4
	.uleb128 .LVL108-.LVL100
	.uleb128 .LVL116-.LVL100
	.uleb128 0x9
	.byte	0x72
	.sleb128 0
	.byte	0x73
	.sleb128 40
	.byte	0x6
	.byte	0x1c
	.byte	0x38
	.byte	0x1c
	.byte	0x9f
	.byte	0x4
	.uleb128 .LVL217-.LVL100
	.uleb128 .LVL218-.LVL100
	.uleb128 0x1
	.byte	0x5b
	.byte	0
.LVUS389:
	.uleb128 .LVU525
	.uleb128 .LVU527
	.uleb128 .LVU527
	.uleb128 .LVU534
	.uleb128 .LVU1187
	.uleb128 .LVU1190
.LLST389:
	.byte	0x6
	.quad	.LVL101
	.byte	0x4
	.uleb128 .LVL101-.LVL101
	.uleb128 .LVL102-.LVL101
	.uleb128 0x1
	.byte	0x50
	.byte	0x4
	.uleb128 .LVL102-.LVL101
	.uleb128 .LVL105-.LVL101
	.uleb128 0x3
	.byte	0x77
	.sleb128 272
	.byte	0x4
	.uleb128 .LVL217-.LVL101
	.uleb128 .LVL218-.LVL101
	.uleb128 0x3
	.byte	0x77
	.sleb128 272
	.byte	0
.LVUS390:
	.uleb128 .LVU528
	.uleb128 .LVU534
	.uleb128 .LVU534
	.uleb128 .LVU573
	.uleb128 .LVU573
	.uleb128 .LVU635
	.uleb128 .LVU1187
	.uleb128 .LVU1190
.LLST390:
	.byte	0x6
	.quad	.LVL103
	.byte	0x4
	.uleb128 .LVL103-.LVL103
	.uleb128 .LVL105-.LVL103
	.uleb128 0x1
	.byte	0x5f
	.byte	0x4
	.uleb128 .LVL105-.LVL103
	.uleb128 .LVL108-.LVL103
	.uleb128 0x9
	.byte	0x72
	.sleb128 0
	.byte	0x73
	.sleb128 40
	.byte	0x6
	.byte	0x1c
	.byte	0x23
	.uleb128 0x3
	.byte	0x9f
	.byte	0x4
	.uleb128 .LVL108-.LVL103
	.uleb128 .LVL116-.LVL103
	.uleb128 0x9
	.byte	0x72
	.sleb128 0
	.byte	0x73
	.sleb128 40
	.byte	0x6
	.byte	0x1c
	.byte	0x35
	.byte	0x1c
	.byte	0x9f
	.byte	0x4
	.uleb128 .LVL217-.LVL103
	.uleb128 .LVL218-.LVL103
	.uleb128 0x1
	.byte	0x5f
	.byte	0
.LVUS391:
	.uleb128 .LVU533
	.uleb128 .LVU539
	.uleb128 .LVU539
	.uleb128 .LVU635
	.uleb128 .LVU635
	.uleb128 .LVU950
	.uleb128 .LVU1187
	.uleb128 .LVU1194
.LLST391:
	.byte	0x6
	.quad	.LVL104
	.byte	0x4
	.uleb128 .LVL104-.LVL104
	.uleb128 .LVL106-.LVL104
	.uleb128 0x1
	.byte	0x50
	.byte	0x4
	.uleb128 .LVL106-.LVL104
	.uleb128 .LVL116-.LVL104
	.uleb128 0x3
	.byte	0x70
	.sleb128 -32
	.byte	0x9f
	.byte	0x4
	.uleb128 .LVL116-.LVL104
	.uleb128 .LVL155-.LVL104
	.uleb128 0x1
	.byte	0x50
	.byte	0x4
	.uleb128 .LVL217-.LVL104
	.uleb128 .LVL221-.LVL104
	.uleb128 0x1
	.byte	0x50
	.byte	0
.LVUS392:
	.uleb128 .LVU641
	.uleb128 .LVU644
	.uleb128 .LVU644
	.uleb128 .LVU969
	.uleb128 .LVU1190
	.uleb128 .LVU1191
	.uleb128 .LVU1191
	.uleb128 .LVU1194
.LLST392:
	.byte	0x6
	.quad	.LVL120
	.byte	0x4
	.uleb128 .LVL120-.LVL120
	.uleb128 .LVL121-.LVL120
	.uleb128 0x1
	.byte	0x53
	.byte	0x4
	.uleb128 .LVL121-.LVL120
	.uleb128 .LVL164-.LVL120
	.uleb128 0x3
	.byte	0x77
	.sleb128 264
	.byte	0x4
	.uleb128 .LVL218-.LVL120
	.uleb128 .LVL219-.LVL120
	.uleb128 0x1
	.byte	0x53
	.byte	0x4
	.uleb128 .LVL219-.LVL120
	.uleb128 .LVL221-.LVL120
	.uleb128 0x3
	.byte	0x77
	.sleb128 264
	.byte	0
.LVUS394:
	.uleb128 .LVU579
	.uleb128 .LVU593
.LLST394:
	.byte	0x8
	.quad	.LVL110
	.uleb128 .LVL111-.LVL110
	.uleb128 0x1
	.byte	0x69
	.byte	0
.LVUS395:
	.uleb128 .LVU585
	.uleb128 .LVU618
.LLST395:
	.byte	0x8
	.quad	.LVL110
	.uleb128 .LVL114-.LVL110
	.uleb128 0x1
	.byte	0x67
	.byte	0
.LVUS396:
	.uleb128 .LVU595
	.uleb128 .LVU613
.LLST396:
	.byte	0x8
	.quad	.LVL112
	.uleb128 .LVL113-.LVL112
	.uleb128 0x1
	.byte	0x68
	.byte	0
.LVUS397:
	.uleb128 .LVU601
	.uleb128 .LVU623
.LLST397:
	.byte	0x8
	.quad	.LVL112
	.uleb128 .LVL115-.LVL112
	.uleb128 0x1
	.byte	0x65
	.byte	0
.LVUS398:
	.uleb128 .LVU608
	.uleb128 .LVU613
	.uleb128 .LVU613
	.uleb128 .LVU618
	.uleb128 .LVU618
	.uleb128 .LVU623
	.uleb128 .LVU623
	.uleb128 .LVU638
.LLST398:
	.byte	0x6
	.quad	.LVL112
	.byte	0x4
	.uleb128 .LVL112-.LVL112
	.uleb128 .LVL113-.LVL112
	.uleb128 0x1
	.byte	0x69
	.byte	0x4
	.uleb128 .LVL113-.LVL112
	.uleb128 .LVL114-.LVL112
	.uleb128 0x1
	.byte	0x68
	.byte	0x4
	.uleb128 .LVL114-.LVL112
	.uleb128 .LVL115-.LVL112
	.uleb128 0x1
	.byte	0x67
	.byte	0x4
	.uleb128 .LVL115-.LVL112
	.uleb128 .LVL119-.LVL112
	.uleb128 0x1
	.byte	0x65
	.byte	0
.LVUS400:
	.uleb128 .LVU540
	.uleb128 .LVU544
.LLST400:
	.byte	0x8
	.quad	.LVL107
	.uleb128 .LVL107-.LVL107
	.uleb128 0x5
	.byte	0x74
	.sleb128 0
	.byte	0x71
	.sleb128 0
	.byte	0x22
	.byte	0
.LVUS401:
	.uleb128 .LVU542
	.uleb128 .LVU544
.LLST401:
	.byte	0x8
	.quad	.LVL107
	.uleb128 .LVL107-.LVL107
	.uleb128 0x2
	.byte	0x30
	.byte	0x9f
	.byte	0
.LVUS402:
	.uleb128 .LVU542
	.uleb128 .LVU544
.LLST402:
	.byte	0x8
	.quad	.LVL107
	.uleb128 .LVL107-.LVL107
	.uleb128 0x5
	.byte	0x74
	.sleb128 0
	.byte	0x71
	.sleb128 0
	.byte	0x22
	.byte	0
.LVUS405:
	.uleb128 .LVU546
	.uleb128 .LVU552
.LLST405:
	.byte	0x8
	.quad	.LVL107
	.uleb128 .LVL107-.LVL107
	.uleb128 0x1
	.byte	0x52
	.byte	0
.LVUS406:
	.uleb128 .LVU548
	.uleb128 .LVU552
.LLST406:
	.byte	0x8
	.quad	.LVL107
	.uleb128 .LVL107-.LVL107
	.uleb128 0x2
	.byte	0x72
	.sleb128 0
	.byte	0
.LVUS407:
	.uleb128 .LVU550
	.uleb128 .LVU552
.LLST407:
	.byte	0x8
	.quad	.LVL107
	.uleb128 .LVL107-.LVL107
	.uleb128 0x2
	.byte	0x30
	.byte	0x9f
	.byte	0
.LVUS408:
	.uleb128 .LVU550
	.uleb128 .LVU552
.LLST408:
	.byte	0x8
	.quad	.LVL107
	.uleb128 .LVL107-.LVL107
	.uleb128 0x2
	.byte	0x72
	.sleb128 0
	.byte	0
.LVUS409:
	.uleb128 .LVU556
	.uleb128 .LVU560
.LLST409:
	.byte	0x8
	.quad	.LVL107
	.uleb128 .LVL107-.LVL107
	.uleb128 0x7
	.byte	0x74
	.sleb128 0
	.byte	0x71
	.sleb128 0
	.byte	0x22
	.byte	0x23
	.uleb128 0x3
	.byte	0
.LVUS410:
	.uleb128 .LVU558
	.uleb128 .LVU560
.LLST410:
	.byte	0x8
	.quad	.LVL107
	.uleb128 .LVL107-.LVL107
	.uleb128 0x2
	.byte	0x30
	.byte	0x9f
	.byte	0
.LVUS411:
	.uleb128 .LVU558
	.uleb128 .LVU560
.LLST411:
	.byte	0x8
	.quad	.LVL107
	.uleb128 .LVL107-.LVL107
	.uleb128 0x7
	.byte	0x74
	.sleb128 0
	.byte	0x71
	.sleb128 0
	.byte	0x22
	.byte	0x23
	.uleb128 0x3
	.byte	0
.LVUS412:
	.uleb128 .LVU562
	.uleb128 .LVU568
.LLST412:
	.byte	0x8
	.quad	.LVL107
	.uleb128 .LVL107-.LVL107
	.uleb128 0x3
	.byte	0x72
	.sleb128 3
	.byte	0x9f
	.byte	0
.LVUS413:
	.uleb128 .LVU564
	.uleb128 .LVU568
.LLST413:
	.byte	0x8
	.quad	.LVL107
	.uleb128 .LVL107-.LVL107
	.uleb128 0x2
	.byte	0x72
	.sleb128 3
	.byte	0
.LVUS414:
	.uleb128 .LVU566
	.uleb128 .LVU568
.LLST414:
	.byte	0x8
	.quad	.LVL107
	.uleb128 .LVL107-.LVL107
	.uleb128 0x2
	.byte	0x30
	.byte	0x9f
	.byte	0
.LVUS415:
	.uleb128 .LVU566
	.uleb128 .LVU568
.LLST415:
	.byte	0x8
	.quad	.LVL107
	.uleb128 .LVL107-.LVL107
	.uleb128 0x2
	.byte	0x72
	.sleb128 3
	.byte	0
.LVUS418:
	.uleb128 .LVU574
	.uleb128 .LVU579
.LLST418:
	.byte	0x8
	.quad	.LVL109
	.uleb128 .LVL110-.LVL109
	.uleb128 0x1
	.byte	0x69
	.byte	0
.LVUS423:
	.uleb128 .LVU589
	.uleb128 .LVU595
.LLST423:
	.byte	0x8
	.quad	.LVL110
	.uleb128 .LVL112-.LVL110
	.uleb128 0x1
	.byte	0x68
	.byte	0
.LVUS425:
	.uleb128 .LVU606
	.uleb128 .LVU608
.LLST425:
	.byte	0x8
	.quad	.LVL112
	.uleb128 .LVL112-.LVL112
	.uleb128 0x1
	.byte	0x64
	.byte	0
.LVUS426:
	.uleb128 .LVU610
	.uleb128 .LVU613
.LLST426:
	.byte	0x8
	.quad	.LVL112
	.uleb128 .LVL113-.LVL112
	.uleb128 0x1
	.byte	0x63
	.byte	0
.LVUS427:
	.uleb128 .LVU610
	.uleb128 .LVU613
.LLST427:
	.byte	0x8
	.quad	.LVL112
	.uleb128 .LVL113-.LVL112
	.uleb128 0x1
	.byte	0x68
	.byte	0
.LVUS428:
	.uleb128 .LVU610
	.uleb128 .LVU613
.LLST428:
	.byte	0x8
	.quad	.LVL112
	.uleb128 .LVL113-.LVL112
	.uleb128 0x1
	.byte	0x69
	.byte	0
.LVUS429:
	.uleb128 .LVU615
	.uleb128 .LVU618
.LLST429:
	.byte	0x8
	.quad	.LVL113
	.uleb128 .LVL114-.LVL113
	.uleb128 0x1
	.byte	0x62
	.byte	0
.LVUS430:
	.uleb128 .LVU615
	.uleb128 .LVU618
.LLST430:
	.byte	0x8
	.quad	.LVL113
	.uleb128 .LVL114-.LVL113
	.uleb128 0x1
	.byte	0x67
	.byte	0
.LVUS431:
	.uleb128 .LVU615
	.uleb128 .LVU618
.LLST431:
	.byte	0x8
	.quad	.LVL113
	.uleb128 .LVL114-.LVL113
	.uleb128 0x1
	.byte	0x68
	.byte	0
.LVUS432:
	.uleb128 .LVU620
	.uleb128 .LVU623
.LLST432:
	.byte	0x8
	.quad	.LVL114
	.uleb128 .LVL115-.LVL114
	.uleb128 0x1
	.byte	0x61
	.byte	0
.LVUS433:
	.uleb128 .LVU620
	.uleb128 .LVU623
.LLST433:
	.byte	0x8
	.quad	.LVL114
	.uleb128 .LVL115-.LVL114
	.uleb128 0x1
	.byte	0x65
	.byte	0
.LVUS434:
	.uleb128 .LVU620
	.uleb128 .LVU623
.LLST434:
	.byte	0x8
	.quad	.LVL114
	.uleb128 .LVL115-.LVL114
	.uleb128 0x1
	.byte	0x67
	.byte	0
.LVUS435:
	.uleb128 .LVU625
	.uleb128 .LVU628
.LLST435:
	.byte	0x8
	.quad	.LVL115
	.uleb128 .LVL116-.LVL115
	.uleb128 0x1
	.byte	0x65
	.byte	0
.LVUS437:
	.uleb128 .LVU642
	.uleb128 .LVU645
	.uleb128 .LVU842
	.uleb128 .LVU852
	.uleb128 .LVU852
	.uleb128 .LVU861
	.uleb128 .LVU861
	.uleb128 .LVU876
	.uleb128 .LVU876
	.uleb128 .LVU881
	.uleb128 .LVU881
	.uleb128 .LVU892
	.uleb128 .LVU892
	.uleb128 .LVU901
	.uleb128 .LVU901
	.uleb128 .LVU913
	.uleb128 .LVU913
	.uleb128 .LVU921
	.uleb128 .LVU921
	.uleb128 .LVU941
	.uleb128 .LVU941
	.uleb128 .LVU949
	.uleb128 .LVU1190
	.uleb128 .LVU1193
.LLST437:
	.byte	0x6
	.quad	.LVL120
	.byte	0x4
	.uleb128 .LVL120-.LVL120
	.uleb128 .LVL122-.LVL120
	.uleb128 0x2
	.byte	0x30
	.byte	0x9f
	.byte	0x4
	.uleb128 .LVL138-.LVL120
	.uleb128 .LVL140-.LVL120
	.uleb128 0x1
	.byte	0x5a
	.byte	0x4
	.uleb128 .LVL140-.LVL120
	.uleb128 .LVL141-.LVL120
	.uleb128 0x3
	.byte	0x78
	.sleb128 1
	.byte	0x9f
	.byte	0x4
	.uleb128 .LVL141-.LVL120
	.uleb128 .LVL143-.LVL120
	.uleb128 0x1
	.byte	0x5a
	.byte	0x4
	.uleb128 .LVL143-.LVL120
	.uleb128 .LVL144-.LVL120
	.uleb128 0x3
	.byte	0x78
	.sleb128 2
	.byte	0x9f
	.byte	0x4
	.uleb128 .LVL144-.LVL120
	.uleb128 .LVL146-.LVL120
	.uleb128 0x1
	.byte	0x5a
	.byte	0x4
	.uleb128 .LVL146-.LVL120
	.uleb128 .LVL147-.LVL120
	.uleb128 0x3
	.byte	0x78
	.sleb128 3
	.byte	0x9f
	.byte	0x4
	.uleb128 .LVL147-.LVL120
	.uleb128 .LVL149-.LVL120
	.uleb128 0x1
	.byte	0x5a
	.byte	0x4
	.uleb128 .LVL149-.LVL120
	.uleb128 .LVL150-.LVL120
	.uleb128 0x3
	.byte	0x78
	.sleb128 4
	.byte	0x9f
	.byte	0x4
	.uleb128 .LVL150-.LVL120
	.uleb128 .LVL152-.LVL120
	.uleb128 0x1
	.byte	0x5a
	.byte	0x4
	.uleb128 .LVL152-.LVL120
	.uleb128 .LVL154-.LVL120
	.uleb128 0x1
	.byte	0x58
	.byte	0x4
	.uleb128 .LVL218-.LVL120
	.uleb128 .LVL220-.LVL120
	.uleb128 0x2
	.byte	0x30
	.byte	0x9f
	.byte	0
.LVUS439:
	.uleb128 .LVU822
	.uleb128 .LVU833
	.uleb128 .LVU833
	.uleb128 .LVU845
	.uleb128 .LVU845
	.uleb128 .LVU852
	.uleb128 .LVU852
	.uleb128 .LVU864
	.uleb128 .LVU864
	.uleb128 .LVU876
	.uleb128 .LVU876
	.uleb128 .LVU884
	.uleb128 .LVU884
	.uleb128 .LVU892
	.uleb128 .LVU892
	.uleb128 .LVU904
	.uleb128 .LVU904
	.uleb128 .LVU913
	.uleb128 .LVU913
	.uleb128 .LVU924
	.uleb128 .LVU924
	.uleb128 .LVU944
	.uleb128 .LVU944
	.uleb128 .LVU949
	.uleb128 .LVU952
	.uleb128 .LVU954
.LLST439:
	.byte	0x6
	.quad	.LVL136
	.byte	0x4
	.uleb128 .LVL136-.LVL136
	.uleb128 .LVL137-.LVL136
	.uleb128 0xf
	.byte	0x75
	.sleb128 0
	.byte	0x71
	.sleb128 0
	.byte	0x22
	.byte	0x7a
	.sleb128 0
	.byte	0x22
	.byte	0x94
	.byte	0x1
	.byte	0xa8
	.uleb128 0x37
	.byte	0xa8
	.uleb128 0x30
	.byte	0x9f
	.byte	0x4
	.uleb128 .LVL137-.LVL136
	.uleb128 .LVL139-.LVL136
	.uleb128 0x15
	.byte	0x78
	.sleb128 0
	.byte	0x8
	.byte	0x20
	.byte	0x24
	.byte	0x8
	.byte	0x20
	.byte	0x26
	.byte	0x75
	.sleb128 0
	.byte	0x22
	.byte	0x71
	.sleb128 0
	.byte	0x22
	.byte	0x94
	.byte	0x1
	.byte	0xa8
	.uleb128 0x37
	.byte	0xa8
	.uleb128 0x30
	.byte	0x9f
	.byte	0x4
	.uleb128 .LVL139-.LVL136
	.uleb128 .LVL140-.LVL136
	.uleb128 0xf
	.byte	0x75
	.sleb128 0
	.byte	0x71
	.sleb128 0
	.byte	0x22
	.byte	0x7a
	.sleb128 0
	.byte	0x22
	.byte	0x94
	.byte	0x1
	.byte	0xa8
	.uleb128 0x37
	.byte	0xa8
	.uleb128 0x30
	.byte	0x9f
	.byte	0x4
	.uleb128 .LVL140-.LVL136
	.uleb128 .LVL142-.LVL136
	.uleb128 0x15
	.byte	0x78
	.sleb128 1
	.byte	0xc
	.long	0xffffffff
	.byte	0x1a
	.byte	0x75
	.sleb128 0
	.byte	0x22
	.byte	0x71
	.sleb128 0
	.byte	0x22
	.byte	0x94
	.byte	0x1
	.byte	0xa8
	.uleb128 0x37
	.byte	0xa8
	.uleb128 0x30
	.byte	0x9f
	.byte	0x4
	.uleb128 .LVL142-.LVL136
	.uleb128 .LVL143-.LVL136
	.uleb128 0xf
	.byte	0x75
	.sleb128 0
	.byte	0x71
	.sleb128 0
	.byte	0x22
	.byte	0x7a
	.sleb128 0
	.byte	0x22
	.byte	0x94
	.byte	0x1
	.byte	0xa8
	.uleb128 0x37
	.byte	0xa8
	.uleb128 0x30
	.byte	0x9f
	.byte	0x4
	.uleb128 .LVL143-.LVL136
	.uleb128 .LVL145-.LVL136
	.uleb128 0x15
	.byte	0x78
	.sleb128 2
	.byte	0xc
	.long	0xffffffff
	.byte	0x1a
	.byte	0x75
	.sleb128 0
	.byte	0x22
	.byte	0x71
	.sleb128 0
	.byte	0x22
	.byte	0x94
	.byte	0x1
	.byte	0xa8
	.uleb128 0x37
	.byte	0xa8
	.uleb128 0x30
	.byte	0x9f
	.byte	0x4
	.uleb128 .LVL145-.LVL136
	.uleb128 .LVL146-.LVL136
	.uleb128 0xf
	.byte	0x75
	.sleb128 0
	.byte	0x71
	.sleb128 0
	.byte	0x22
	.byte	0x7a
	.sleb128 0
	.byte	0x22
	.byte	0x94
	.byte	0x1
	.byte	0xa8
	.uleb128 0x37
	.byte	0xa8
	.uleb128 0x30
	.byte	0x9f
	.byte	0x4
	.uleb128 .LVL146-.LVL136
	.uleb128 .LVL148-.LVL136
	.uleb128 0x15
	.byte	0x78
	.sleb128 3
	.byte	0xc
	.long	0xffffffff
	.byte	0x1a
	.byte	0x75
	.sleb128 0
	.byte	0x22
	.byte	0x71
	.sleb128 0
	.byte	0x22
	.byte	0x94
	.byte	0x1
	.byte	0xa8
	.uleb128 0x37
	.byte	0xa8
	.uleb128 0x30
	.byte	0x9f
	.byte	0x4
	.uleb128 .LVL148-.LVL136
	.uleb128 .LVL149-.LVL136
	.uleb128 0xf
	.byte	0x75
	.sleb128 0
	.byte	0x71
	.sleb128 0
	.byte	0x22
	.byte	0x7a
	.sleb128 0
	.byte	0x22
	.byte	0x94
	.byte	0x1
	.byte	0xa8
	.uleb128 0x37
	.byte	0xa8
	.uleb128 0x30
	.byte	0x9f
	.byte	0x4
	.uleb128 .LVL149-.LVL136
	.uleb128 .LVL151-.LVL136
	.uleb128 0x15
	.byte	0x78
	.sleb128 4
	.byte	0xc
	.long	0xffffffff
	.byte	0x1a
	.byte	0x75
	.sleb128 0
	.byte	0x22
	.byte	0x71
	.sleb128 0
	.byte	0x22
	.byte	0x94
	.byte	0x1
	.byte	0xa8
	.uleb128 0x37
	.byte	0xa8
	.uleb128 0x30
	.byte	0x9f
	.byte	0x4
	.uleb128 .LVL151-.LVL136
	.uleb128 .LVL153-.LVL136
	.uleb128 0xf
	.byte	0x75
	.sleb128 0
	.byte	0x71
	.sleb128 0
	.byte	0x22
	.byte	0x7a
	.sleb128 0
	.byte	0x22
	.byte	0x94
	.byte	0x1
	.byte	0xa8
	.uleb128 0x37
	.byte	0xa8
	.uleb128 0x30
	.byte	0x9f
	.byte	0x4
	.uleb128 .LVL153-.LVL136
	.uleb128 .LVL154-.LVL136
	.uleb128 0xf
	.byte	0x75
	.sleb128 0
	.byte	0x71
	.sleb128 0
	.byte	0x22
	.byte	0x78
	.sleb128 0
	.byte	0x22
	.byte	0x94
	.byte	0x1
	.byte	0xa8
	.uleb128 0x37
	.byte	0xa8
	.uleb128 0x30
	.byte	0x9f
	.byte	0x4
	.uleb128 .LVL156-.LVL136
	.uleb128 .LVL157-.LVL136
	.uleb128 0x7
	.byte	0x71
	.sleb128 0
	.byte	0xa8
	.uleb128 0x37
	.byte	0xa8
	.uleb128 0x30
	.byte	0x9f
	.byte	0
.LVUS440:
	.uleb128 .LVU823
	.uleb128 .LVU833
	.uleb128 .LVU833
	.uleb128 .LVU846
	.uleb128 .LVU846
	.uleb128 .LVU852
	.uleb128 .LVU852
	.uleb128 .LVU865
	.uleb128 .LVU865
	.uleb128 .LVU876
	.uleb128 .LVU876
	.uleb128 .LVU885
	.uleb128 .LVU885
	.uleb128 .LVU892
	.uleb128 .LVU892
	.uleb128 .LVU905
	.uleb128 .LVU905
	.uleb128 .LVU913
	.uleb128 .LVU913
	.uleb128 .LVU925
	.uleb128 .LVU925
	.uleb128 .LVU945
	.uleb128 .LVU945
	.uleb128 .LVU949
	.uleb128 .LVU954
	.uleb128 .LVU956
.LLST440:
	.byte	0x6
	.quad	.LVL136
	.byte	0x4
	.uleb128 .LVL136-.LVL136
	.uleb128 .LVL137-.LVL136
	.uleb128 0x11
	.byte	0x75
	.sleb128 0
	.byte	0x7a
	.sleb128 0
	.byte	0x22
	.byte	0x77
	.sleb128 272
	.byte	0x6
	.byte	0x22
	.byte	0x94
	.byte	0x1
	.byte	0xa8
	.uleb128 0x37
	.byte	0xa8
	.uleb128 0x30
	.byte	0x9f
	.byte	0x4
	.uleb128 .LVL137-.LVL136
	.uleb128 .LVL139-.LVL136
	.uleb128 0x17
	.byte	0x78
	.sleb128 0
	.byte	0x8
	.byte	0x20
	.byte	0x24
	.byte	0x8
	.byte	0x20
	.byte	0x26
	.byte	0x75
	.sleb128 0
	.byte	0x22
	.byte	0x77
	.sleb128 272
	.byte	0x6
	.byte	0x22
	.byte	0x94
	.byte	0x1
	.byte	0xa8
	.uleb128 0x37
	.byte	0xa8
	.uleb128 0x30
	.byte	0x9f
	.byte	0x4
	.uleb128 .LVL139-.LVL136
	.uleb128 .LVL140-.LVL136
	.uleb128 0x11
	.byte	0x75
	.sleb128 0
	.byte	0x7a
	.sleb128 0
	.byte	0x22
	.byte	0x77
	.sleb128 272
	.byte	0x6
	.byte	0x22
	.byte	0x94
	.byte	0x1
	.byte	0xa8
	.uleb128 0x37
	.byte	0xa8
	.uleb128 0x30
	.byte	0x9f
	.byte	0x4
	.uleb128 .LVL140-.LVL136
	.uleb128 .LVL142-.LVL136
	.uleb128 0x17
	.byte	0x78
	.sleb128 1
	.byte	0xc
	.long	0xffffffff
	.byte	0x1a
	.byte	0x75
	.sleb128 0
	.byte	0x22
	.byte	0x77
	.sleb128 272
	.byte	0x6
	.byte	0x22
	.byte	0x94
	.byte	0x1
	.byte	0xa8
	.uleb128 0x37
	.byte	0xa8
	.uleb128 0x30
	.byte	0x9f
	.byte	0x4
	.uleb128 .LVL142-.LVL136
	.uleb128 .LVL143-.LVL136
	.uleb128 0x11
	.byte	0x75
	.sleb128 0
	.byte	0x7a
	.sleb128 0
	.byte	0x22
	.byte	0x77
	.sleb128 272
	.byte	0x6
	.byte	0x22
	.byte	0x94
	.byte	0x1
	.byte	0xa8
	.uleb128 0x37
	.byte	0xa8
	.uleb128 0x30
	.byte	0x9f
	.byte	0x4
	.uleb128 .LVL143-.LVL136
	.uleb128 .LVL145-.LVL136
	.uleb128 0x17
	.byte	0x78
	.sleb128 2
	.byte	0xc
	.long	0xffffffff
	.byte	0x1a
	.byte	0x75
	.sleb128 0
	.byte	0x22
	.byte	0x77
	.sleb128 272
	.byte	0x6
	.byte	0x22
	.byte	0x94
	.byte	0x1
	.byte	0xa8
	.uleb128 0x37
	.byte	0xa8
	.uleb128 0x30
	.byte	0x9f
	.byte	0x4
	.uleb128 .LVL145-.LVL136
	.uleb128 .LVL146-.LVL136
	.uleb128 0x11
	.byte	0x75
	.sleb128 0
	.byte	0x7a
	.sleb128 0
	.byte	0x22
	.byte	0x77
	.sleb128 272
	.byte	0x6
	.byte	0x22
	.byte	0x94
	.byte	0x1
	.byte	0xa8
	.uleb128 0x37
	.byte	0xa8
	.uleb128 0x30
	.byte	0x9f
	.byte	0x4
	.uleb128 .LVL146-.LVL136
	.uleb128 .LVL148-.LVL136
	.uleb128 0x17
	.byte	0x78
	.sleb128 3
	.byte	0xc
	.long	0xffffffff
	.byte	0x1a
	.byte	0x75
	.sleb128 0
	.byte	0x22
	.byte	0x77
	.sleb128 272
	.byte	0x6
	.byte	0x22
	.byte	0x94
	.byte	0x1
	.byte	0xa8
	.uleb128 0x37
	.byte	0xa8
	.uleb128 0x30
	.byte	0x9f
	.byte	0x4
	.uleb128 .LVL148-.LVL136
	.uleb128 .LVL149-.LVL136
	.uleb128 0x11
	.byte	0x75
	.sleb128 0
	.byte	0x7a
	.sleb128 0
	.byte	0x22
	.byte	0x77
	.sleb128 272
	.byte	0x6
	.byte	0x22
	.byte	0x94
	.byte	0x1
	.byte	0xa8
	.uleb128 0x37
	.byte	0xa8
	.uleb128 0x30
	.byte	0x9f
	.byte	0x4
	.uleb128 .LVL149-.LVL136
	.uleb128 .LVL151-.LVL136
	.uleb128 0x17
	.byte	0x78
	.sleb128 4
	.byte	0xc
	.long	0xffffffff
	.byte	0x1a
	.byte	0x75
	.sleb128 0
	.byte	0x22
	.byte	0x77
	.sleb128 272
	.byte	0x6
	.byte	0x22
	.byte	0x94
	.byte	0x1
	.byte	0xa8
	.uleb128 0x37
	.byte	0xa8
	.uleb128 0x30
	.byte	0x9f
	.byte	0x4
	.uleb128 .LVL151-.LVL136
	.uleb128 .LVL153-.LVL136
	.uleb128 0x11
	.byte	0x75
	.sleb128 0
	.byte	0x7a
	.sleb128 0
	.byte	0x22
	.byte	0x77
	.sleb128 272
	.byte	0x6
	.byte	0x22
	.byte	0x94
	.byte	0x1
	.byte	0xa8
	.uleb128 0x37
	.byte	0xa8
	.uleb128 0x30
	.byte	0x9f
	.byte	0x4
	.uleb128 .LVL153-.LVL136
	.uleb128 .LVL154-.LVL136
	.uleb128 0x11
	.byte	0x75
	.sleb128 0
	.byte	0x78
	.sleb128 0
	.byte	0x22
	.byte	0x77
	.sleb128 272
	.byte	0x6
	.byte	0x22
	.byte	0x94
	.byte	0x1
	.byte	0xa8
	.uleb128 0x37
	.byte	0xa8
	.uleb128 0x30
	.byte	0x9f
	.byte	0x4
	.uleb128 .LVL157-.LVL136
	.uleb128 .LVL158-.LVL136
	.uleb128 0x7
	.byte	0x71
	.sleb128 0
	.byte	0xa8
	.uleb128 0x37
	.byte	0xa8
	.uleb128 0x30
	.byte	0x9f
	.byte	0
.LVUS441:
	.uleb128 .LVU824
	.uleb128 .LVU833
	.uleb128 .LVU833
	.uleb128 .LVU847
	.uleb128 .LVU847
	.uleb128 .LVU852
	.uleb128 .LVU852
	.uleb128 .LVU866
	.uleb128 .LVU866
	.uleb128 .LVU876
	.uleb128 .LVU876
	.uleb128 .LVU886
	.uleb128 .LVU886
	.uleb128 .LVU892
	.uleb128 .LVU892
	.uleb128 .LVU906
	.uleb128 .LVU906
	.uleb128 .LVU913
	.uleb128 .LVU913
	.uleb128 .LVU926
	.uleb128 .LVU926
	.uleb128 .LVU946
	.uleb128 .LVU946
	.uleb128 .LVU949
	.uleb128 .LVU957
	.uleb128 .LVU959
.LLST441:
	.byte	0x6
	.quad	.LVL136
	.byte	0x4
	.uleb128 .LVL136-.LVL136
	.uleb128 .LVL137-.LVL136
	.uleb128 0x11
	.byte	0x75
	.sleb128 0
	.byte	0x7a
	.sleb128 0
	.byte	0x22
	.byte	0x77
	.sleb128 232
	.byte	0x6
	.byte	0x22
	.byte	0x94
	.byte	0x1
	.byte	0xa8
	.uleb128 0x37
	.byte	0xa8
	.uleb128 0x30
	.byte	0x9f
	.byte	0x4
	.uleb128 .LVL137-.LVL136
	.uleb128 .LVL139-.LVL136
	.uleb128 0x17
	.byte	0x78
	.sleb128 0
	.byte	0x8
	.byte	0x20
	.byte	0x24
	.byte	0x8
	.byte	0x20
	.byte	0x26
	.byte	0x75
	.sleb128 0
	.byte	0x22
	.byte	0x77
	.sleb128 232
	.byte	0x6
	.byte	0x22
	.byte	0x94
	.byte	0x1
	.byte	0xa8
	.uleb128 0x37
	.byte	0xa8
	.uleb128 0x30
	.byte	0x9f
	.byte	0x4
	.uleb128 .LVL139-.LVL136
	.uleb128 .LVL140-.LVL136
	.uleb128 0x11
	.byte	0x75
	.sleb128 0
	.byte	0x7a
	.sleb128 0
	.byte	0x22
	.byte	0x77
	.sleb128 232
	.byte	0x6
	.byte	0x22
	.byte	0x94
	.byte	0x1
	.byte	0xa8
	.uleb128 0x37
	.byte	0xa8
	.uleb128 0x30
	.byte	0x9f
	.byte	0x4
	.uleb128 .LVL140-.LVL136
	.uleb128 .LVL142-.LVL136
	.uleb128 0x17
	.byte	0x78
	.sleb128 1
	.byte	0xc
	.long	0xffffffff
	.byte	0x1a
	.byte	0x75
	.sleb128 0
	.byte	0x22
	.byte	0x77
	.sleb128 232
	.byte	0x6
	.byte	0x22
	.byte	0x94
	.byte	0x1
	.byte	0xa8
	.uleb128 0x37
	.byte	0xa8
	.uleb128 0x30
	.byte	0x9f
	.byte	0x4
	.uleb128 .LVL142-.LVL136
	.uleb128 .LVL143-.LVL136
	.uleb128 0x11
	.byte	0x75
	.sleb128 0
	.byte	0x7a
	.sleb128 0
	.byte	0x22
	.byte	0x77
	.sleb128 232
	.byte	0x6
	.byte	0x22
	.byte	0x94
	.byte	0x1
	.byte	0xa8
	.uleb128 0x37
	.byte	0xa8
	.uleb128 0x30
	.byte	0x9f
	.byte	0x4
	.uleb128 .LVL143-.LVL136
	.uleb128 .LVL145-.LVL136
	.uleb128 0x17
	.byte	0x78
	.sleb128 2
	.byte	0xc
	.long	0xffffffff
	.byte	0x1a
	.byte	0x75
	.sleb128 0
	.byte	0x22
	.byte	0x77
	.sleb128 232
	.byte	0x6
	.byte	0x22
	.byte	0x94
	.byte	0x1
	.byte	0xa8
	.uleb128 0x37
	.byte	0xa8
	.uleb128 0x30
	.byte	0x9f
	.byte	0x4
	.uleb128 .LVL145-.LVL136
	.uleb128 .LVL146-.LVL136
	.uleb128 0x11
	.byte	0x75
	.sleb128 0
	.byte	0x7a
	.sleb128 0
	.byte	0x22
	.byte	0x77
	.sleb128 232
	.byte	0x6
	.byte	0x22
	.byte	0x94
	.byte	0x1
	.byte	0xa8
	.uleb128 0x37
	.byte	0xa8
	.uleb128 0x30
	.byte	0x9f
	.byte	0x4
	.uleb128 .LVL146-.LVL136
	.uleb128 .LVL148-.LVL136
	.uleb128 0x17
	.byte	0x78
	.sleb128 3
	.byte	0xc
	.long	0xffffffff
	.byte	0x1a
	.byte	0x75
	.sleb128 0
	.byte	0x22
	.byte	0x77
	.sleb128 232
	.byte	0x6
	.byte	0x22
	.byte	0x94
	.byte	0x1
	.byte	0xa8
	.uleb128 0x37
	.byte	0xa8
	.uleb128 0x30
	.byte	0x9f
	.byte	0x4
	.uleb128 .LVL148-.LVL136
	.uleb128 .LVL149-.LVL136
	.uleb128 0x11
	.byte	0x75
	.sleb128 0
	.byte	0x7a
	.sleb128 0
	.byte	0x22
	.byte	0x77
	.sleb128 232
	.byte	0x6
	.byte	0x22
	.byte	0x94
	.byte	0x1
	.byte	0xa8
	.uleb128 0x37
	.byte	0xa8
	.uleb128 0x30
	.byte	0x9f
	.byte	0x4
	.uleb128 .LVL149-.LVL136
	.uleb128 .LVL151-.LVL136
	.uleb128 0x17
	.byte	0x78
	.sleb128 4
	.byte	0xc
	.long	0xffffffff
	.byte	0x1a
	.byte	0x75
	.sleb128 0
	.byte	0x22
	.byte	0x77
	.sleb128 232
	.byte	0x6
	.byte	0x22
	.byte	0x94
	.byte	0x1
	.byte	0xa8
	.uleb128 0x37
	.byte	0xa8
	.uleb128 0x30
	.byte	0x9f
	.byte	0x4
	.uleb128 .LVL151-.LVL136
	.uleb128 .LVL153-.LVL136
	.uleb128 0x11
	.byte	0x75
	.sleb128 0
	.byte	0x7a
	.sleb128 0
	.byte	0x22
	.byte	0x77
	.sleb128 232
	.byte	0x6
	.byte	0x22
	.byte	0x94
	.byte	0x1
	.byte	0xa8
	.uleb128 0x37
	.byte	0xa8
	.uleb128 0x30
	.byte	0x9f
	.byte	0x4
	.uleb128 .LVL153-.LVL136
	.uleb128 .LVL154-.LVL136
	.uleb128 0x11
	.byte	0x75
	.sleb128 0
	.byte	0x78
	.sleb128 0
	.byte	0x22
	.byte	0x77
	.sleb128 232
	.byte	0x6
	.byte	0x22
	.byte	0x94
	.byte	0x1
	.byte	0xa8
	.uleb128 0x37
	.byte	0xa8
	.uleb128 0x30
	.byte	0x9f
	.byte	0x4
	.uleb128 .LVL159-.LVL136
	.uleb128 .LVL160-.LVL136
	.uleb128 0x7
	.byte	0x71
	.sleb128 0
	.byte	0xa8
	.uleb128 0x37
	.byte	0xa8
	.uleb128 0x30
	.byte	0x9f
	.byte	0
.LVUS442:
	.uleb128 .LVU825
	.uleb128 .LVU833
	.uleb128 .LVU833
	.uleb128 .LVU848
	.uleb128 .LVU848
	.uleb128 .LVU852
	.uleb128 .LVU852
	.uleb128 .LVU867
	.uleb128 .LVU867
	.uleb128 .LVU876
	.uleb128 .LVU876
	.uleb128 .LVU887
	.uleb128 .LVU887
	.uleb128 .LVU892
	.uleb128 .LVU892
	.uleb128 .LVU907
	.uleb128 .LVU907
	.uleb128 .LVU913
	.uleb128 .LVU913
	.uleb128 .LVU927
	.uleb128 .LVU927
	.uleb128 .LVU947
	.uleb128 .LVU947
	.uleb128 .LVU949
	.uleb128 .LVU959
	.uleb128 .LVU964
.LLST442:
	.byte	0x6
	.quad	.LVL136
	.byte	0x4
	.uleb128 .LVL136-.LVL136
	.uleb128 .LVL137-.LVL136
	.uleb128 0xf
	.byte	0x75
	.sleb128 0
	.byte	0x7a
	.sleb128 0
	.byte	0x22
	.byte	0x7f
	.sleb128 0
	.byte	0x22
	.byte	0x94
	.byte	0x1
	.byte	0xa8
	.uleb128 0x37
	.byte	0xa8
	.uleb128 0x30
	.byte	0x9f
	.byte	0x4
	.uleb128 .LVL137-.LVL136
	.uleb128 .LVL139-.LVL136
	.uleb128 0x15
	.byte	0x78
	.sleb128 0
	.byte	0x8
	.byte	0x20
	.byte	0x24
	.byte	0x8
	.byte	0x20
	.byte	0x26
	.byte	0x75
	.sleb128 0
	.byte	0x22
	.byte	0x7f
	.sleb128 0
	.byte	0x22
	.byte	0x94
	.byte	0x1
	.byte	0xa8
	.uleb128 0x37
	.byte	0xa8
	.uleb128 0x30
	.byte	0x9f
	.byte	0x4
	.uleb128 .LVL139-.LVL136
	.uleb128 .LVL140-.LVL136
	.uleb128 0xf
	.byte	0x75
	.sleb128 0
	.byte	0x7a
	.sleb128 0
	.byte	0x22
	.byte	0x7f
	.sleb128 0
	.byte	0x22
	.byte	0x94
	.byte	0x1
	.byte	0xa8
	.uleb128 0x37
	.byte	0xa8
	.uleb128 0x30
	.byte	0x9f
	.byte	0x4
	.uleb128 .LVL140-.LVL136
	.uleb128 .LVL142-.LVL136
	.uleb128 0x15
	.byte	0x78
	.sleb128 1
	.byte	0xc
	.long	0xffffffff
	.byte	0x1a
	.byte	0x75
	.sleb128 0
	.byte	0x22
	.byte	0x7f
	.sleb128 0
	.byte	0x22
	.byte	0x94
	.byte	0x1
	.byte	0xa8
	.uleb128 0x37
	.byte	0xa8
	.uleb128 0x30
	.byte	0x9f
	.byte	0x4
	.uleb128 .LVL142-.LVL136
	.uleb128 .LVL143-.LVL136
	.uleb128 0xf
	.byte	0x75
	.sleb128 0
	.byte	0x7a
	.sleb128 0
	.byte	0x22
	.byte	0x7f
	.sleb128 0
	.byte	0x22
	.byte	0x94
	.byte	0x1
	.byte	0xa8
	.uleb128 0x37
	.byte	0xa8
	.uleb128 0x30
	.byte	0x9f
	.byte	0x4
	.uleb128 .LVL143-.LVL136
	.uleb128 .LVL145-.LVL136
	.uleb128 0x15
	.byte	0x78
	.sleb128 2
	.byte	0xc
	.long	0xffffffff
	.byte	0x1a
	.byte	0x75
	.sleb128 0
	.byte	0x22
	.byte	0x7f
	.sleb128 0
	.byte	0x22
	.byte	0x94
	.byte	0x1
	.byte	0xa8
	.uleb128 0x37
	.byte	0xa8
	.uleb128 0x30
	.byte	0x9f
	.byte	0x4
	.uleb128 .LVL145-.LVL136
	.uleb128 .LVL146-.LVL136
	.uleb128 0xf
	.byte	0x75
	.sleb128 0
	.byte	0x7a
	.sleb128 0
	.byte	0x22
	.byte	0x7f
	.sleb128 0
	.byte	0x22
	.byte	0x94
	.byte	0x1
	.byte	0xa8
	.uleb128 0x37
	.byte	0xa8
	.uleb128 0x30
	.byte	0x9f
	.byte	0x4
	.uleb128 .LVL146-.LVL136
	.uleb128 .LVL148-.LVL136
	.uleb128 0x15
	.byte	0x78
	.sleb128 3
	.byte	0xc
	.long	0xffffffff
	.byte	0x1a
	.byte	0x75
	.sleb128 0
	.byte	0x22
	.byte	0x7f
	.sleb128 0
	.byte	0x22
	.byte	0x94
	.byte	0x1
	.byte	0xa8
	.uleb128 0x37
	.byte	0xa8
	.uleb128 0x30
	.byte	0x9f
	.byte	0x4
	.uleb128 .LVL148-.LVL136
	.uleb128 .LVL149-.LVL136
	.uleb128 0xf
	.byte	0x75
	.sleb128 0
	.byte	0x7a
	.sleb128 0
	.byte	0x22
	.byte	0x7f
	.sleb128 0
	.byte	0x22
	.byte	0x94
	.byte	0x1
	.byte	0xa8
	.uleb128 0x37
	.byte	0xa8
	.uleb128 0x30
	.byte	0x9f
	.byte	0x4
	.uleb128 .LVL149-.LVL136
	.uleb128 .LVL151-.LVL136
	.uleb128 0x15
	.byte	0x78
	.sleb128 4
	.byte	0xc
	.long	0xffffffff
	.byte	0x1a
	.byte	0x75
	.sleb128 0
	.byte	0x22
	.byte	0x7f
	.sleb128 0
	.byte	0x22
	.byte	0x94
	.byte	0x1
	.byte	0xa8
	.uleb128 0x37
	.byte	0xa8
	.uleb128 0x30
	.byte	0x9f
	.byte	0x4
	.uleb128 .LVL151-.LVL136
	.uleb128 .LVL153-.LVL136
	.uleb128 0xf
	.byte	0x75
	.sleb128 0
	.byte	0x7a
	.sleb128 0
	.byte	0x22
	.byte	0x7f
	.sleb128 0
	.byte	0x22
	.byte	0x94
	.byte	0x1
	.byte	0xa8
	.uleb128 0x37
	.byte	0xa8
	.uleb128 0x30
	.byte	0x9f
	.byte	0x4
	.uleb128 .LVL153-.LVL136
	.uleb128 .LVL154-.LVL136
	.uleb128 0xf
	.byte	0x75
	.sleb128 0
	.byte	0x78
	.sleb128 0
	.byte	0x22
	.byte	0x7f
	.sleb128 0
	.byte	0x22
	.byte	0x94
	.byte	0x1
	.byte	0xa8
	.uleb128 0x37
	.byte	0xa8
	.uleb128 0x30
	.byte	0x9f
	.byte	0x4
	.uleb128 .LVL160-.LVL136
	.uleb128 .LVL161-.LVL136
	.uleb128 0x7
	.byte	0x71
	.sleb128 0
	.byte	0xa8
	.uleb128 0x37
	.byte	0xa8
	.uleb128 0x30
	.byte	0x9f
	.byte	0
.LVUS444:
	.uleb128 .LVU453
	.uleb128 .LVU461
.LLST444:
	.byte	0x8
	.quad	.LVL89
	.uleb128 .LVL90-.LVL89
	.uleb128 0x6
	.byte	0xa0
	.long	.Ldebug_info0+55690
	.sleb128 0
	.byte	0
.LVUS445:
	.uleb128 .LVU453
	.uleb128 .LVU461
.LLST445:
	.byte	0x8
	.quad	.LVL89
	.uleb128 .LVL90-.LVL89
	.uleb128 0x7
	.byte	0x77
	.sleb128 240
	.byte	0x6
	.byte	0x23
	.uleb128 0x20
	.byte	0x9f
	.byte	0
.LVUS447:
	.uleb128 .LVU472
	.uleb128 .LVU474
.LLST447:
	.byte	0x8
	.quad	.LVL92
	.uleb128 .LVL93-.LVL92
	.uleb128 0x6
	.byte	0xa0
	.long	.Ldebug_info0+55769
	.sleb128 0
	.byte	0
.LVUS448:
	.uleb128 .LVU472
	.uleb128 .LVU474
.LLST448:
	.byte	0x8
	.quad	.LVL92
	.uleb128 .LVL93-.LVL92
	.uleb128 0x7
	.byte	0x77
	.sleb128 240
	.byte	0x6
	.byte	0x23
	.uleb128 0x1c
	.byte	0x9f
	.byte	0
.LVUS450:
	.uleb128 .LVU463
	.uleb128 .LVU465
.LLST450:
	.byte	0x8
	.quad	.LVL90
	.uleb128 .LVL91-.LVL90
	.uleb128 0x6
	.byte	0xa0
	.long	.Ldebug_info0+55713
	.sleb128 0
	.byte	0
.LVUS451:
	.uleb128 .LVU463
	.uleb128 .LVU465
.LLST451:
	.byte	0x8
	.quad	.LVL90
	.uleb128 .LVL91-.LVL90
	.uleb128 0x7
	.byte	0x77
	.sleb128 240
	.byte	0x6
	.byte	0x23
	.uleb128 0x24
	.byte	0x9f
	.byte	0
.LVUS453:
	.uleb128 .LVU467
	.uleb128 .LVU470
.LLST453:
	.byte	0x8
	.quad	.LVL91
	.uleb128 .LVL92-.LVL91
	.uleb128 0x6
	.byte	0xa0
	.long	.Ldebug_info0+55746
	.sleb128 0
	.byte	0
.LVUS454:
	.uleb128 .LVU467
	.uleb128 .LVU470
.LLST454:
	.byte	0x8
	.quad	.LVL91
	.uleb128 .LVL92-.LVL91
	.uleb128 0x7
	.byte	0x77
	.sleb128 240
	.byte	0x6
	.byte	0x23
	.uleb128 0x18
	.byte	0x9f
	.byte	0
.LVUS456:
	.uleb128 .LVU491
	.uleb128 .LVU499
.LLST456:
	.byte	0x8
	.quad	.LVL94
	.uleb128 .LVL95-.LVL94
	.uleb128 0x2
	.byte	0x90
	.uleb128 0x45
	.byte	0
.LVUS457:
	.uleb128 .LVU501
	.uleb128 .LVU504
.LLST457:
	.byte	0x8
	.quad	.LVL95
	.uleb128 .LVL96-.LVL95
	.uleb128 0x2
	.byte	0x90
	.uleb128 0x44
	.byte	0
.LVUS458:
	.uleb128 .LVU506
	.uleb128 .LVU509
.LLST458:
	.byte	0x8
	.quad	.LVL96
	.uleb128 .LVL97-.LVL96
	.uleb128 0x2
	.byte	0x90
	.uleb128 0x43
	.byte	0
.LVUS459:
	.uleb128 .LVU511
	.uleb128 .LVU514
.LLST459:
	.byte	0x8
	.quad	.LVL97
	.uleb128 .LVL98-.LVL97
	.uleb128 0x2
	.byte	0x90
	.uleb128 0x20
	.byte	0
.LVUS461:
	.uleb128 .LVU974
	.uleb128 .LVU978
	.uleb128 .LVU978
	.uleb128 .LVU1036
.LLST461:
	.byte	0x6
	.quad	.LVL166
	.byte	0x4
	.uleb128 .LVL166-.LVL166
	.uleb128 .LVL167-.LVL166
	.uleb128 0x1
	.byte	0x5f
	.byte	0x4
	.uleb128 .LVL167-.LVL166
	.uleb128 .LVL189-.LVL166
	.uleb128 0x1
	.byte	0x53
	.byte	0
.LVUS464:
	.uleb128 .LVU983
	.uleb128 .LVU986
	.uleb128 .LVU986
	.uleb128 .LVU994
	.uleb128 .LVU994
	.uleb128 .LVU995
	.uleb128 .LVU995
	.uleb128 .LVU996
	.uleb128 .LVU996
	.uleb128 .LVU1025
	.uleb128 .LVU1025
	.uleb128 .LVU1032
.LLST464:
	.byte	0x6
	.quad	.LVL167
	.byte	0x4
	.uleb128 .LVL167-.LVL167
	.uleb128 .LVL168-.LVL167
	.uleb128 0x2
	.byte	0x30
	.byte	0x9f
	.byte	0x4
	.uleb128 .LVL168-.LVL167
	.uleb128 .LVL171-.LVL167
	.uleb128 0xb
	.byte	0x70
	.sleb128 0
	.byte	0xa8
	.uleb128 0x3e
	.byte	0x33
	.byte	0xa8
	.uleb128 0x3e
	.byte	0x1b
	.byte	0xa8
	.uleb128 0
	.byte	0x9f
	.byte	0x4
	.uleb128 .LVL171-.LVL167
	.uleb128 .LVL172-.LVL167
	.uleb128 0xd
	.byte	0x70
	.sleb128 0
	.byte	0xa8
	.uleb128 0x3e
	.byte	0x33
	.byte	0xa8
	.uleb128 0x3e
	.byte	0x1b
	.byte	0xa8
	.uleb128 0
	.byte	0x23
	.uleb128 0x1
	.byte	0x9f
	.byte	0x4
	.uleb128 .LVL172-.LVL167
	.uleb128 .LVL173-.LVL167
	.uleb128 0xd
	.byte	0x70
	.sleb128 -3
	.byte	0xa8
	.uleb128 0x3e
	.byte	0x33
	.byte	0xa8
	.uleb128 0x3e
	.byte	0x1b
	.byte	0xa8
	.uleb128 0
	.byte	0x23
	.uleb128 0x1
	.byte	0x9f
	.byte	0x4
	.uleb128 .LVL173-.LVL167
	.uleb128 .LVL183-.LVL167
	.uleb128 0xb
	.byte	0x70
	.sleb128 0
	.byte	0xa8
	.uleb128 0x3e
	.byte	0x33
	.byte	0xa8
	.uleb128 0x3e
	.byte	0x1b
	.byte	0xa8
	.uleb128 0
	.byte	0x9f
	.byte	0x4
	.uleb128 .LVL183-.LVL167
	.uleb128 .LVL186-.LVL167
	.uleb128 0xb
	.byte	0x70
	.sleb128 -3
	.byte	0xa8
	.uleb128 0x3e
	.byte	0x33
	.byte	0xa8
	.uleb128 0x3e
	.byte	0x1b
	.byte	0xa8
	.uleb128 0
	.byte	0x9f
	.byte	0
.LVUS466:
	.uleb128 .LVU986
	.uleb128 .LVU989
	.uleb128 .LVU989
	.uleb128 .LVU991
	.uleb128 .LVU991
	.uleb128 .LVU996
	.uleb128 .LVU998
	.uleb128 .LVU1009
	.uleb128 .LVU1009
	.uleb128 .LVU1033
.LLST466:
	.byte	0x6
	.quad	.LVL168
	.byte	0x4
	.uleb128 .LVL168-.LVL168
	.uleb128 .LVL169-.LVL168
	.uleb128 0x1
	.byte	0x54
	.byte	0x4
	.uleb128 .LVL169-.LVL168
	.uleb128 .LVL170-.LVL168
	.uleb128 0x2
	.byte	0x71
	.sleb128 0
	.byte	0x4
	.uleb128 .LVL170-.LVL168
	.uleb128 .LVL173-.LVL168
	.uleb128 0x2
	.byte	0x71
	.sleb128 -4
	.byte	0x4
	.uleb128 .LVL174-.LVL168
	.uleb128 .LVL176-.LVL168
	.uleb128 0x1
	.byte	0x54
	.byte	0x4
	.uleb128 .LVL176-.LVL168
	.uleb128 .LVL187-.LVL168
	.uleb128 0x2
	.byte	0x71
	.sleb128 -4
	.byte	0
.LVUS467:
	.uleb128 .LVU1003
	.uleb128 .LVU1027
.LLST467:
	.byte	0x8
	.quad	.LVL175
	.uleb128 .LVL185-.LVL175
	.uleb128 0x1
	.byte	0x61
	.byte	0
.LVUS469:
	.uleb128 .LVU1004
	.uleb128 .LVU1011
	.uleb128 .LVU1011
	.uleb128 .LVU1020
	.uleb128 .LVU1020
	.uleb128 .LVU1030
	.uleb128 .LVU1030
	.uleb128 .LVU1033
.LLST469:
	.byte	0x6
	.quad	.LVL175
	.byte	0x4
	.uleb128 .LVL175-.LVL175
	.uleb128 .LVL177-.LVL175
	.uleb128 0x2
	.byte	0x30
	.byte	0x9f
	.byte	0x4
	.uleb128 .LVL177-.LVL175
	.uleb128 .LVL181-.LVL175
	.uleb128 0x2
	.byte	0x31
	.byte	0x9f
	.byte	0x4
	.uleb128 .LVL181-.LVL175
	.uleb128 .LVL186-.LVL175
	.uleb128 0x2
	.byte	0x32
	.byte	0x9f
	.byte	0x4
	.uleb128 .LVL186-.LVL175
	.uleb128 .LVL187-.LVL175
	.uleb128 0x2
	.byte	0x33
	.byte	0x9f
	.byte	0
.LVUS471:
	.uleb128 .LVU1006
	.uleb128 .LVU1014
	.uleb128 .LVU1014
	.uleb128 .LVU1016
	.uleb128 .LVU1016
	.uleb128 .LVU1018
	.uleb128 .LVU1018
	.uleb128 .LVU1026
	.uleb128 .LVU1026
	.uleb128 .LVU1027
.LLST471:
	.byte	0x6
	.quad	.LVL175
	.byte	0x4
	.uleb128 .LVL175-.LVL175
	.uleb128 .LVL178-.LVL175
	.uleb128 0xf
	.byte	0x70
	.sleb128 0
	.byte	0x32
	.byte	0x24
	.byte	0x7a
	.sleb128 0
	.byte	0x22
	.byte	0xa6
	.byte	0x4
	.uleb128 0x30
	.byte	0xa5
	.uleb128 0x11
	.uleb128 0x30
	.byte	0x1e
	.byte	0x9f
	.byte	0x4
	.uleb128 .LVL178-.LVL175
	.uleb128 .LVL179-.LVL175
	.uleb128 0x12
	.byte	0x75
	.sleb128 0
	.byte	0x74
	.sleb128 0
	.byte	0x22
	.byte	0x32
	.byte	0x24
	.byte	0x78
	.sleb128 0
	.byte	0x22
	.byte	0xa6
	.byte	0x4
	.uleb128 0x30
	.byte	0xa5
	.uleb128 0x11
	.uleb128 0x30
	.byte	0x1e
	.byte	0x9f
	.byte	0x4
	.uleb128 .LVL179-.LVL175
	.uleb128 .LVL180-.LVL175
	.uleb128 0xf
	.byte	0x7c
	.sleb128 0
	.byte	0x32
	.byte	0x24
	.byte	0x78
	.sleb128 0
	.byte	0x22
	.byte	0xa6
	.byte	0x4
	.uleb128 0x30
	.byte	0xa5
	.uleb128 0x11
	.uleb128 0x30
	.byte	0x1e
	.byte	0x9f
	.byte	0x4
	.uleb128 .LVL180-.LVL175
	.uleb128 .LVL184-.LVL175
	.uleb128 0x12
	.byte	0x75
	.sleb128 0
	.byte	0x74
	.sleb128 0
	.byte	0x22
	.byte	0x32
	.byte	0x24
	.byte	0x78
	.sleb128 0
	.byte	0x22
	.byte	0xa6
	.byte	0x4
	.uleb128 0x30
	.byte	0xa5
	.uleb128 0x11
	.uleb128 0x30
	.byte	0x1e
	.byte	0x9f
	.byte	0x4
	.uleb128 .LVL184-.LVL175
	.uleb128 .LVL185-.LVL175
	.uleb128 0xf
	.byte	0x7c
	.sleb128 0
	.byte	0x32
	.byte	0x24
	.byte	0x78
	.sleb128 0
	.byte	0x22
	.byte	0xa6
	.byte	0x4
	.uleb128 0x30
	.byte	0xa5
	.uleb128 0x11
	.uleb128 0x30
	.byte	0x1e
	.byte	0x9f
	.byte	0
.LVUS472:
	.uleb128 .LVU980
	.uleb128 .LVU981
.LLST472:
	.byte	0x8
	.quad	.LVL167
	.uleb128 .LVL167-.LVL167
	.uleb128 0x7
	.byte	0x77
	.sleb128 128
	.byte	0x6
	.byte	0x23
	.uleb128 0x10
	.byte	0x9f
	.byte	0
.LVUS474:
	.uleb128 .LVU420
	.uleb128 .LVU425
.LLST474:
	.byte	0x8
	.quad	.LVL82
	.uleb128 .LVL84-.LVL82
	.uleb128 0x6
	.byte	0xa0
	.long	.Ldebug_info0+52860
	.sleb128 0
	.byte	0
.LVUS477:
	.uleb128 .LVU432
	.uleb128 .LVU435
.LLST477:
	.byte	0x8
	.quad	.LVL85
	.uleb128 .LVL85-.LVL85
	.uleb128 0x11
	.byte	0x7c
	.sleb128 0
	.byte	0x73
	.sleb128 0
	.byte	0x1c
	.byte	0x70
	.sleb128 0
	.byte	0x1e
	.byte	0x33
	.byte	0x1e
	.byte	0x8
	.byte	0x20
	.byte	0x24
	.byte	0x8
	.byte	0x20
	.byte	0x26
	.byte	0x9f
	.byte	0
.LVUS483:
	.uleb128 .LVU443
	.uleb128 .LVU1043
	.uleb128 .LVU1187
	.uleb128 .LVU1194
.LLST483:
	.byte	0x6
	.quad	.LVL85
	.byte	0x4
	.uleb128 .LVL85-.LVL85
	.uleb128 .LVL194-.LVL85
	.uleb128 0x2
	.byte	0x31
	.byte	0x9f
	.byte	0x4
	.uleb128 .LVL217-.LVL85
	.uleb128 .LVL221-.LVL85
	.uleb128 0x2
	.byte	0x31
	.byte	0x9f
	.byte	0
.LVUS484:
	.uleb128 .LVU443
	.uleb128 .LVU449
.LLST484:
	.byte	0x8
	.quad	.LVL85
	.uleb128 .LVL88-.LVL85
	.uleb128 0x6
	.byte	0x9e
	.uleb128 0x4
	.long	0
	.byte	0
.LVUS486:
	.uleb128 .LVU403
	.uleb128 .LVU404
.LLST486:
	.byte	0x8
	.quad	.LVL80
	.uleb128 .LVL80-.LVL80
	.uleb128 0x6
	.byte	0xa0
	.long	.Ldebug_info0+52869
	.sleb128 0
	.byte	0
.LVUS8:
	.uleb128 .LVU25
	.uleb128 .LVU33
.LLST8:
	.byte	0x8
	.quad	.LVL3
	.uleb128 .LVL3-.LVL3
	.uleb128 0x1
	.byte	0x55
	.byte	0
.LVUS9:
	.uleb128 .LVU26
	.uleb128 .LVU33
.LLST9:
	.byte	0x8
	.quad	.LVL3
	.uleb128 .LVL3-.LVL3
	.uleb128 0x3
	.byte	0x75
	.sleb128 16
	.byte	0x9f
	.byte	0
.LVUS10:
	.uleb128 .LVU27
	.uleb128 .LVU33
.LLST10:
	.byte	0x8
	.quad	.LVL3
	.uleb128 .LVL3-.LVL3
	.uleb128 0x3
	.byte	0x75
	.sleb128 16
	.byte	0x9f
	.byte	0
.LVUS11:
	.uleb128 .LVU28
	.uleb128 .LVU33
.LLST11:
	.byte	0x8
	.quad	.LVL3
	.uleb128 .LVL3-.LVL3
	.uleb128 0x3
	.byte	0x75
	.sleb128 16
	.byte	0x9f
	.byte	0
.LVUS13:
	.uleb128 .LVU31
	.uleb128 .LVU33
.LLST13:
	.byte	0x8
	.quad	.LVL3
	.uleb128 .LVL3-.LVL3
	.uleb128 0x3
	.byte	0x75
	.sleb128 16
	.byte	0x9f
	.byte	0
.LVUS14:
	.uleb128 .LVU29
	.uleb128 .LVU31
.LLST14:
	.byte	0x8
	.quad	.LVL3
	.uleb128 .LVL3-.LVL3
	.uleb128 0x3
	.byte	0x75
	.sleb128 16
	.byte	0x9f
	.byte	0
.LVUS15:
	.uleb128 .LVU30
	.uleb128 .LVU31
.LLST15:
	.byte	0x8
	.quad	.LVL3
	.uleb128 .LVL3-.LVL3
	.uleb128 0x3
	.byte	0x75
	.sleb128 16
	.byte	0x9f
	.byte	0
.LVUS17:
	.uleb128 .LVU7
	.uleb128 .LVU11
.LLST17:
	.byte	0x8
	.quad	.LVL1
	.uleb128 .LVL1-.LVL1
	.uleb128 0x1
	.byte	0x54
	.byte	0
.LVUS18:
	.uleb128 .LVU9
	.uleb128 .LVU11
.LLST18:
	.byte	0x8
	.quad	.LVL1
	.uleb128 .LVL1-.LVL1
	.uleb128 0x1
	.byte	0x54
	.byte	0
.LVUS19:
	.uleb128 .LVU10
	.uleb128 .LVU11
.LLST19:
	.byte	0x8
	.quad	.LVL1
	.uleb128 .LVL1-.LVL1
	.uleb128 0x1
	.byte	0x54
	.byte	0
.LVUS20:
	.uleb128 .LVU17
	.uleb128 .LVU21
.LLST20:
	.byte	0x8
	.quad	.LVL3
	.uleb128 .LVL3-.LVL3
	.uleb128 0x1
	.byte	0x54
	.byte	0
.LVUS21:
	.uleb128 .LVU19
	.uleb128 .LVU21
.LLST21:
	.byte	0x8
	.quad	.LVL3
	.uleb128 .LVL3-.LVL3
	.uleb128 0x1
	.byte	0x54
	.byte	0
.LVUS22:
	.uleb128 .LVU20
	.uleb128 .LVU21
.LLST22:
	.byte	0x8
	.quad	.LVL3
	.uleb128 .LVL3-.LVL3
	.uleb128 0x1
	.byte	0x54
	.byte	0
.LVUS24:
	.uleb128 .LVU40
	.uleb128 .LVU43
	.uleb128 .LVU1112
	.uleb128 .LVU1134
	.uleb128 .LVU1134
	.uleb128 .LVU1165
	.uleb128 .LVU1274
	.uleb128 0
	.uleb128 0
	.uleb128 .LVU1276
	.uleb128 .LVU1276
	.uleb128 .LVU1277
.LLST24:
	.byte	0x6
	.quad	.LVL4
	.byte	0x4
	.uleb128 .LVL4-.LVL4
	.uleb128 .LVL5-.LVL4
	.uleb128 0x3
	.byte	0x75
	.sleb128 16
	.byte	0x9f
	.byte	0x4
	.uleb128 .LVL204-.LVL4
	.uleb128 .LVL207-.LVL4
	.uleb128 0x3
	.byte	0x75
	.sleb128 16
	.byte	0x9f
	.byte	0x4
	.uleb128 .LVL207-.LVL4
	.uleb128 .LVL213-.LVL4
	.uleb128 0x7
	.byte	0x77
	.sleb128 128
	.byte	0x6
	.byte	0x23
	.uleb128 0x10
	.byte	0x9f
	.byte	0x4
	.uleb128 .LVL248-.LVL4
	.uleb128 .LHOTE5-.LVL4
	.uleb128 0x3
	.byte	0x75
	.sleb128 16
	.byte	0x9f
	.byte	0x6
	.quad	.LFSB11707
	.byte	0x4
	.uleb128 .LFSB11707-.LFSB11707
	.uleb128 .LVL249-.LFSB11707
	.uleb128 0x3
	.byte	0x75
	.sleb128 16
	.byte	0x9f
	.byte	0x4
	.uleb128 .LVL249-.LFSB11707
	.uleb128 .LVL250-.LFSB11707
	.uleb128 0x7
	.byte	0x77
	.sleb128 128
	.byte	0x6
	.byte	0x23
	.uleb128 0x10
	.byte	0x9f
	.byte	0
.LVUS25:
	.uleb128 .LVU40
	.uleb128 .LVU43
	.uleb128 .LVU1112
	.uleb128 .LVU1135
	.uleb128 .LVU1135
	.uleb128 .LVU1165
	.uleb128 .LVU1274
	.uleb128 0
	.uleb128 0
	.uleb128 .LVU1277
	.uleb128 .LVU1277
	.uleb128 .LVU1277
.LLST25:
	.byte	0x6
	.quad	.LVL4
	.byte	0x4
	.uleb128 .LVL4-.LVL4
	.uleb128 .LVL5-.LVL4
	.uleb128 0x5
	.byte	0x71
	.sleb128 0
	.byte	0x33
	.byte	0x1e
	.byte	0x9f
	.byte	0x4
	.uleb128 .LVL204-.LVL4
	.uleb128 .LVL208-1-.LVL4
	.uleb128 0x5
	.byte	0x71
	.sleb128 0
	.byte	0x33
	.byte	0x1e
	.byte	0x9f
	.byte	0x4
	.uleb128 .LVL208-1-.LVL4
	.uleb128 .LVL213-.LVL4
	.uleb128 0x7
	.byte	0x77
	.sleb128 72
	.byte	0x6
	.byte	0x33
	.byte	0x1e
	.byte	0x9f
	.byte	0x4
	.uleb128 .LVL248-.LVL4
	.uleb128 .LHOTE5-.LVL4
	.uleb128 0x5
	.byte	0x71
	.sleb128 0
	.byte	0x33
	.byte	0x1e
	.byte	0x9f
	.byte	0x6
	.quad	.LFSB11707
	.byte	0x4
	.uleb128 .LFSB11707-.LFSB11707
	.uleb128 .LVL250-1-.LFSB11707
	.uleb128 0x5
	.byte	0x71
	.sleb128 0
	.byte	0x33
	.byte	0x1e
	.byte	0x9f
	.byte	0x4
	.uleb128 .LVL250-1-.LFSB11707
	.uleb128 .LVL250-.LFSB11707
	.uleb128 0x7
	.byte	0x77
	.sleb128 72
	.byte	0x6
	.byte	0x33
	.byte	0x1e
	.byte	0x9f
	.byte	0
.LVUS27:
	.uleb128 .LVU41
	.uleb128 .LVU43
	.uleb128 .LVU1112
	.uleb128 .LVU1134
	.uleb128 .LVU1134
	.uleb128 .LVU1165
	.uleb128 .LVU1274
	.uleb128 0
	.uleb128 0
	.uleb128 .LVU1276
	.uleb128 .LVU1276
	.uleb128 .LVU1277
.LLST27:
	.byte	0x6
	.quad	.LVL4
	.byte	0x4
	.uleb128 .LVL4-.LVL4
	.uleb128 .LVL5-.LVL4
	.uleb128 0x3
	.byte	0x75
	.sleb128 16
	.byte	0x9f
	.byte	0x4
	.uleb128 .LVL204-.LVL4
	.uleb128 .LVL207-.LVL4
	.uleb128 0x3
	.byte	0x75
	.sleb128 16
	.byte	0x9f
	.byte	0x4
	.uleb128 .LVL207-.LVL4
	.uleb128 .LVL213-.LVL4
	.uleb128 0x7
	.byte	0x77
	.sleb128 128
	.byte	0x6
	.byte	0x23
	.uleb128 0x10
	.byte	0x9f
	.byte	0x4
	.uleb128 .LVL248-.LVL4
	.uleb128 .LHOTE5-.LVL4
	.uleb128 0x3
	.byte	0x75
	.sleb128 16
	.byte	0x9f
	.byte	0x6
	.quad	.LFSB11707
	.byte	0x4
	.uleb128 .LFSB11707-.LFSB11707
	.uleb128 .LVL249-.LFSB11707
	.uleb128 0x3
	.byte	0x75
	.sleb128 16
	.byte	0x9f
	.byte	0x4
	.uleb128 .LVL249-.LFSB11707
	.uleb128 .LVL250-.LFSB11707
	.uleb128 0x7
	.byte	0x77
	.sleb128 128
	.byte	0x6
	.byte	0x23
	.uleb128 0x10
	.byte	0x9f
	.byte	0
.LVUS28:
	.uleb128 .LVU41
	.uleb128 .LVU43
	.uleb128 .LVU1112
	.uleb128 .LVU1135
	.uleb128 .LVU1135
	.uleb128 .LVU1165
	.uleb128 .LVU1274
	.uleb128 0
	.uleb128 0
	.uleb128 .LVU1277
	.uleb128 .LVU1277
	.uleb128 .LVU1277
.LLST28:
	.byte	0x6
	.quad	.LVL4
	.byte	0x4
	.uleb128 .LVL4-.LVL4
	.uleb128 .LVL5-.LVL4
	.uleb128 0x5
	.byte	0x71
	.sleb128 0
	.byte	0x33
	.byte	0x1e
	.byte	0x9f
	.byte	0x4
	.uleb128 .LVL204-.LVL4
	.uleb128 .LVL208-1-.LVL4
	.uleb128 0x5
	.byte	0x71
	.sleb128 0
	.byte	0x33
	.byte	0x1e
	.byte	0x9f
	.byte	0x4
	.uleb128 .LVL208-1-.LVL4
	.uleb128 .LVL213-.LVL4
	.uleb128 0x7
	.byte	0x77
	.sleb128 72
	.byte	0x6
	.byte	0x33
	.byte	0x1e
	.byte	0x9f
	.byte	0x4
	.uleb128 .LVL248-.LVL4
	.uleb128 .LHOTE5-.LVL4
	.uleb128 0x5
	.byte	0x71
	.sleb128 0
	.byte	0x33
	.byte	0x1e
	.byte	0x9f
	.byte	0x6
	.quad	.LFSB11707
	.byte	0x4
	.uleb128 .LFSB11707-.LFSB11707
	.uleb128 .LVL250-1-.LFSB11707
	.uleb128 0x5
	.byte	0x71
	.sleb128 0
	.byte	0x33
	.byte	0x1e
	.byte	0x9f
	.byte	0x4
	.uleb128 .LVL250-1-.LFSB11707
	.uleb128 .LVL250-.LFSB11707
	.uleb128 0x7
	.byte	0x77
	.sleb128 72
	.byte	0x6
	.byte	0x33
	.byte	0x1e
	.byte	0x9f
	.byte	0
.LVUS32:
	.uleb128 .LVU1113
	.uleb128 .LVU1144
	.uleb128 .LVU1274
	.uleb128 0
	.uleb128 0
	.uleb128 .LVU1277
.LLST32:
	.byte	0x6
	.quad	.LVL205
	.byte	0x4
	.uleb128 .LVL205-.LVL205
	.uleb128 .LVL211-.LVL205
	.uleb128 0x6
	.byte	0xa0
	.long	.Ldebug_info0+59614
	.sleb128 0
	.byte	0x4
	.uleb128 .LVL248-.LVL205
	.uleb128 .LHOTE5-.LVL205
	.uleb128 0x6
	.byte	0xa0
	.long	.Ldebug_info0+59614
	.sleb128 0
	.byte	0x8
	.quad	.LFSB11707
	.uleb128 .LVL250-.LFSB11707
	.uleb128 0x6
	.byte	0xa0
	.long	.Ldebug_info0+59614
	.sleb128 0
	.byte	0
.LVUS33:
	.uleb128 .LVU1113
	.uleb128 .LVU1135
	.uleb128 .LVU1135
	.uleb128 .LVU1144
	.uleb128 .LVU1274
	.uleb128 0
	.uleb128 0
	.uleb128 .LVU1277
	.uleb128 .LVU1277
	.uleb128 .LVU1277
.LLST33:
	.byte	0x6
	.quad	.LVL205
	.byte	0x4
	.uleb128 .LVL205-.LVL205
	.uleb128 .LVL208-1-.LVL205
	.uleb128 0x5
	.byte	0x71
	.sleb128 0
	.byte	0x33
	.byte	0x1e
	.byte	0x9f
	.byte	0x4
	.uleb128 .LVL208-1-.LVL205
	.uleb128 .LVL211-.LVL205
	.uleb128 0x7
	.byte	0x77
	.sleb128 72
	.byte	0x6
	.byte	0x33
	.byte	0x1e
	.byte	0x9f
	.byte	0x4
	.uleb128 .LVL248-.LVL205
	.uleb128 .LHOTE5-.LVL205
	.uleb128 0x5
	.byte	0x71
	.sleb128 0
	.byte	0x33
	.byte	0x1e
	.byte	0x9f
	.byte	0x6
	.quad	.LFSB11707
	.byte	0x4
	.uleb128 .LFSB11707-.LFSB11707
	.uleb128 .LVL250-1-.LFSB11707
	.uleb128 0x5
	.byte	0x71
	.sleb128 0
	.byte	0x33
	.byte	0x1e
	.byte	0x9f
	.byte	0x4
	.uleb128 .LVL250-1-.LFSB11707
	.uleb128 .LVL250-.LFSB11707
	.uleb128 0x7
	.byte	0x77
	.sleb128 72
	.byte	0x6
	.byte	0x33
	.byte	0x1e
	.byte	0x9f
	.byte	0
.LVUS35:
	.uleb128 .LVU1113
	.uleb128 .LVU1144
	.uleb128 .LVU1274
	.uleb128 0
	.uleb128 0
	.uleb128 .LVU1277
.LLST35:
	.byte	0x6
	.quad	.LVL205
	.byte	0x4
	.uleb128 .LVL205-.LVL205
	.uleb128 .LVL211-.LVL205
	.uleb128 0x7
	.byte	0x77
	.sleb128 128
	.byte	0x6
	.byte	0x23
	.uleb128 0x10
	.byte	0x9f
	.byte	0x4
	.uleb128 .LVL248-.LVL205
	.uleb128 .LHOTE5-.LVL205
	.uleb128 0x7
	.byte	0x77
	.sleb128 128
	.byte	0x6
	.byte	0x23
	.uleb128 0x10
	.byte	0x9f
	.byte	0x8
	.quad	.LFSB11707
	.uleb128 .LVL250-.LFSB11707
	.uleb128 0x7
	.byte	0x77
	.sleb128 128
	.byte	0x6
	.byte	0x23
	.uleb128 0x10
	.byte	0x9f
	.byte	0
.LVUS37:
	.uleb128 .LVU1114
	.uleb128 .LVU1121
	.uleb128 .LVU1274
	.uleb128 0
	.uleb128 0
	.uleb128 .LVU1277
	.uleb128 .LVU1277
	.uleb128 .LVU1277
.LLST37:
	.byte	0x6
	.quad	.LVL205
	.byte	0x4
	.uleb128 .LVL205-.LVL205
	.uleb128 .LVL206-.LVL205
	.uleb128 0x5
	.byte	0x71
	.sleb128 0
	.byte	0x33
	.byte	0x1e
	.byte	0x9f
	.byte	0x4
	.uleb128 .LVL248-.LVL205
	.uleb128 .LHOTE5-.LVL205
	.uleb128 0x5
	.byte	0x71
	.sleb128 0
	.byte	0x33
	.byte	0x1e
	.byte	0x9f
	.byte	0x6
	.quad	.LFSB11707
	.byte	0x4
	.uleb128 .LFSB11707-.LFSB11707
	.uleb128 .LVL250-1-.LFSB11707
	.uleb128 0x5
	.byte	0x71
	.sleb128 0
	.byte	0x33
	.byte	0x1e
	.byte	0x9f
	.byte	0x4
	.uleb128 .LVL250-1-.LFSB11707
	.uleb128 .LVL250-.LFSB11707
	.uleb128 0x7
	.byte	0x77
	.sleb128 72
	.byte	0x6
	.byte	0x33
	.byte	0x1e
	.byte	0x9f
	.byte	0
.LVUS38:
	.uleb128 .LVU1114
	.uleb128 .LVU1121
	.uleb128 .LVU1274
	.uleb128 0
	.uleb128 0
	.uleb128 .LVU1277
.LLST38:
	.byte	0x6
	.quad	.LVL205
	.byte	0x4
	.uleb128 .LVL205-.LVL205
	.uleb128 .LVL206-.LVL205
	.uleb128 0x7
	.byte	0x77
	.sleb128 128
	.byte	0x6
	.byte	0x23
	.uleb128 0x10
	.byte	0x9f
	.byte	0x4
	.uleb128 .LVL248-.LVL205
	.uleb128 .LHOTE5-.LVL205
	.uleb128 0x7
	.byte	0x77
	.sleb128 128
	.byte	0x6
	.byte	0x23
	.uleb128 0x10
	.byte	0x9f
	.byte	0x8
	.quad	.LFSB11707
	.uleb128 .LVL250-.LFSB11707
	.uleb128 0x7
	.byte	0x77
	.sleb128 128
	.byte	0x6
	.byte	0x23
	.uleb128 0x10
	.byte	0x9f
	.byte	0
.LVUS39:
	.uleb128 .LVU1115
	.uleb128 .LVU1117
.LLST39:
	.byte	0x8
	.quad	.LVL205
	.uleb128 .LVL205-.LVL205
	.uleb128 0x7
	.byte	0x77
	.sleb128 128
	.byte	0x6
	.byte	0x23
	.uleb128 0x10
	.byte	0x9f
	.byte	0
.LVUS40:
	.uleb128 .LVU1116
	.uleb128 .LVU1117
.LLST40:
	.byte	0x8
	.quad	.LVL205
	.uleb128 .LVL205-.LVL205
	.uleb128 0x7
	.byte	0x77
	.sleb128 128
	.byte	0x6
	.byte	0x23
	.uleb128 0x10
	.byte	0x9f
	.byte	0
.LVUS42:
	.uleb128 .LVU1121
	.uleb128 .LVU1138
.LLST42:
	.byte	0x8
	.quad	.LVL206
	.uleb128 .LVL209-.LVL206
	.uleb128 0x6
	.byte	0xa0
	.long	.Ldebug_info0+59614
	.sleb128 0
	.byte	0
.LVUS43:
	.uleb128 .LVU1121
	.uleb128 .LVU1135
	.uleb128 .LVU1135
	.uleb128 .LVU1138
.LLST43:
	.byte	0x6
	.quad	.LVL206
	.byte	0x4
	.uleb128 .LVL206-.LVL206
	.uleb128 .LVL208-1-.LVL206
	.uleb128 0x5
	.byte	0x71
	.sleb128 0
	.byte	0x33
	.byte	0x1e
	.byte	0x9f
	.byte	0x4
	.uleb128 .LVL208-1-.LVL206
	.uleb128 .LVL209-.LVL206
	.uleb128 0x7
	.byte	0x77
	.sleb128 72
	.byte	0x6
	.byte	0x33
	.byte	0x1e
	.byte	0x9f
	.byte	0
.LVUS44:
	.uleb128 .LVU1121
	.uleb128 .LVU1138
.LLST44:
	.byte	0x8
	.quad	.LVL206
	.uleb128 .LVL209-.LVL206
	.uleb128 0x7
	.byte	0x77
	.sleb128 128
	.byte	0x6
	.byte	0x23
	.uleb128 0x10
	.byte	0x9f
	.byte	0
.LVUS45:
	.uleb128 .LVU1123
	.uleb128 .LVU1128
.LLST45:
	.byte	0x8
	.quad	.LVL206
	.uleb128 .LVL206-.LVL206
	.uleb128 0x6
	.byte	0xa0
	.long	.Ldebug_info0+59614
	.sleb128 0
	.byte	0
.LVUS46:
	.uleb128 .LVU1123
	.uleb128 .LVU1128
.LLST46:
	.byte	0x8
	.quad	.LVL206
	.uleb128 .LVL206-.LVL206
	.uleb128 0x7
	.byte	0x77
	.sleb128 128
	.byte	0x6
	.byte	0x23
	.uleb128 0x10
	.byte	0x9f
	.byte	0
.LVUS47:
	.uleb128 .LVU1124
	.uleb128 .LVU1126
.LLST47:
	.byte	0x8
	.quad	.LVL206
	.uleb128 .LVL206-.LVL206
	.uleb128 0x6
	.byte	0xa0
	.long	.Ldebug_info0+59614
	.sleb128 0
	.byte	0
.LVUS48:
	.uleb128 .LVU1124
	.uleb128 .LVU1126
.LLST48:
	.byte	0x8
	.quad	.LVL206
	.uleb128 .LVL206-.LVL206
	.uleb128 0x7
	.byte	0x77
	.sleb128 128
	.byte	0x6
	.byte	0x23
	.uleb128 0x10
	.byte	0x9f
	.byte	0
.LVUS49:
	.uleb128 .LVU1125
	.uleb128 .LVU1126
.LLST49:
	.byte	0x8
	.quad	.LVL206
	.uleb128 .LVL206-.LVL206
	.uleb128 0x6
	.byte	0xa0
	.long	.Ldebug_info0+59614
	.sleb128 0
	.byte	0
.LVUS50:
	.uleb128 .LVU1125
	.uleb128 .LVU1126
.LLST50:
	.byte	0x8
	.quad	.LVL206
	.uleb128 .LVL206-.LVL206
	.uleb128 0x7
	.byte	0x77
	.sleb128 128
	.byte	0x6
	.byte	0x23
	.uleb128 0x10
	.byte	0x9f
	.byte	0
.LVUS51:
	.uleb128 .LVU1126
	.uleb128 .LVU1128
.LLST51:
	.byte	0x8
	.quad	.LVL206
	.uleb128 .LVL206-.LVL206
	.uleb128 0x6
	.byte	0xa0
	.long	.Ldebug_info0+59614
	.sleb128 0
	.byte	0
.LVUS53:
	.uleb128 .LVU1128
	.uleb128 .LVU1138
.LLST53:
	.byte	0x8
	.quad	.LVL206
	.uleb128 .LVL209-.LVL206
	.uleb128 0x6
	.byte	0xa0
	.long	.Ldebug_info0+59614
	.sleb128 0
	.byte	0
.LVUS54:
	.uleb128 .LVU1128
	.uleb128 .LVU1135
	.uleb128 .LVU1135
	.uleb128 .LVU1138
.LLST54:
	.byte	0x6
	.quad	.LVL206
	.byte	0x4
	.uleb128 .LVL206-.LVL206
	.uleb128 .LVL208-1-.LVL206
	.uleb128 0x5
	.byte	0x71
	.sleb128 0
	.byte	0x33
	.byte	0x1e
	.byte	0x9f
	.byte	0x4
	.uleb128 .LVL208-1-.LVL206
	.uleb128 .LVL209-.LVL206
	.uleb128 0x7
	.byte	0x77
	.sleb128 72
	.byte	0x6
	.byte	0x33
	.byte	0x1e
	.byte	0x9f
	.byte	0
.LVUS55:
	.uleb128 .LVU1130
	.uleb128 .LVU1135
.LLST55:
	.byte	0x8
	.quad	.LVL206
	.uleb128 .LVL208-.LVL206
	.uleb128 0x6
	.byte	0xa0
	.long	.Ldebug_info0+59614
	.sleb128 0
	.byte	0
.LVUS56:
	.uleb128 .LVU1130
	.uleb128 .LVU1135
	.uleb128 .LVU1135
	.uleb128 .LVU1135
.LLST56:
	.byte	0x6
	.quad	.LVL206
	.byte	0x4
	.uleb128 .LVL206-.LVL206
	.uleb128 .LVL208-1-.LVL206
	.uleb128 0x5
	.byte	0x71
	.sleb128 0
	.byte	0x33
	.byte	0x1e
	.byte	0x9f
	.byte	0x4
	.uleb128 .LVL208-1-.LVL206
	.uleb128 .LVL208-.LVL206
	.uleb128 0x7
	.byte	0x77
	.sleb128 72
	.byte	0x6
	.byte	0x33
	.byte	0x1e
	.byte	0x9f
	.byte	0
.LVUS57:
	.uleb128 .LVU1131
	.uleb128 .LVU1135
.LLST57:
	.byte	0x8
	.quad	.LVL206
	.uleb128 .LVL208-.LVL206
	.uleb128 0x6
	.byte	0xa0
	.long	.Ldebug_info0+59614
	.sleb128 0
	.byte	0
.LVUS58:
	.uleb128 .LVU1131
	.uleb128 .LVU1135
	.uleb128 .LVU1135
	.uleb128 .LVU1135
.LLST58:
	.byte	0x6
	.quad	.LVL206
	.byte	0x4
	.uleb128 .LVL206-.LVL206
	.uleb128 .LVL208-1-.LVL206
	.uleb128 0x5
	.byte	0x71
	.sleb128 0
	.byte	0x33
	.byte	0x1e
	.byte	0x9f
	.byte	0x4
	.uleb128 .LVL208-1-.LVL206
	.uleb128 .LVL208-.LVL206
	.uleb128 0x7
	.byte	0x77
	.sleb128 72
	.byte	0x6
	.byte	0x33
	.byte	0x1e
	.byte	0x9f
	.byte	0
.LVUS59:
	.uleb128 .LVU1132
	.uleb128 .LVU1135
.LLST59:
	.byte	0x8
	.quad	.LVL206
	.uleb128 .LVL208-.LVL206
	.uleb128 0x6
	.byte	0xa0
	.long	.Ldebug_info0+59614
	.sleb128 0
	.byte	0
.LVUS60:
	.uleb128 .LVU1132
	.uleb128 .LVU1135
	.uleb128 .LVU1135
	.uleb128 .LVU1135
.LLST60:
	.byte	0x6
	.quad	.LVL206
	.byte	0x4
	.uleb128 .LVL206-.LVL206
	.uleb128 .LVL208-1-.LVL206
	.uleb128 0x5
	.byte	0x71
	.sleb128 0
	.byte	0x33
	.byte	0x1e
	.byte	0x9f
	.byte	0x4
	.uleb128 .LVL208-1-.LVL206
	.uleb128 .LVL208-.LVL206
	.uleb128 0x7
	.byte	0x77
	.sleb128 72
	.byte	0x6
	.byte	0x33
	.byte	0x1e
	.byte	0x9f
	.byte	0
.LVUS61:
	.uleb128 .LVU1132
	.uleb128 .LVU1135
.LLST61:
	.byte	0x8
	.quad	.LVL206
	.uleb128 .LVL208-.LVL206
	.uleb128 0x2
	.byte	0x30
	.byte	0x9f
	.byte	0
.LVUS63:
	.uleb128 .LVU1138
	.uleb128 .LVU1144
.LLST63:
	.byte	0x8
	.quad	.LVL209
	.uleb128 .LVL211-.LVL209
	.uleb128 0x6
	.byte	0xa0
	.long	.Ldebug_info0+59614
	.sleb128 0
	.byte	0
.LVUS64:
	.uleb128 .LVU1138
	.uleb128 .LVU1144
.LLST64:
	.byte	0x8
	.quad	.LVL209
	.uleb128 .LVL211-.LVL209
	.uleb128 0x7
	.byte	0x77
	.sleb128 72
	.byte	0x6
	.byte	0x33
	.byte	0x1e
	.byte	0x9f
	.byte	0
.LVUS66:
	.uleb128 .LVU1140
	.uleb128 .LVU1143
.LLST66:
	.byte	0x8
	.quad	.LVL209
	.uleb128 .LVL210-1-.LVL209
	.uleb128 0x1
	.byte	0x50
	.byte	0
.LVUS67:
	.uleb128 .LVU1140
	.uleb128 .LVU1144
.LLST67:
	.byte	0x8
	.quad	.LVL209
	.uleb128 .LVL211-.LVL209
	.uleb128 0x7
	.byte	0x77
	.sleb128 72
	.byte	0x6
	.byte	0x33
	.byte	0x1e
	.byte	0x9f
	.byte	0
.LVUS69:
	.uleb128 .LVU1140
	.uleb128 .LVU1144
.LLST69:
	.byte	0x8
	.quad	.LVL209
	.uleb128 .LVL211-.LVL209
	.uleb128 0x6
	.byte	0xa0
	.long	.Ldebug_info0+59614
	.sleb128 0
	.byte	0
.LVUS70:
	.uleb128 .LVU1141
	.uleb128 .LVU1143
.LLST70:
	.byte	0x8
	.quad	.LVL209
	.uleb128 .LVL210-1-.LVL209
	.uleb128 0x1
	.byte	0x50
	.byte	0
.LVUS71:
	.uleb128 .LVU1141
	.uleb128 .LVU1144
.LLST71:
	.byte	0x8
	.quad	.LVL209
	.uleb128 .LVL211-.LVL209
	.uleb128 0x7
	.byte	0x77
	.sleb128 72
	.byte	0x6
	.byte	0x33
	.byte	0x1e
	.byte	0x9f
	.byte	0
.LVUS75:
	.uleb128 .LVU1142
	.uleb128 .LVU1143
.LLST75:
	.byte	0x8
	.quad	.LVL209
	.uleb128 .LVL210-1-.LVL209
	.uleb128 0x1
	.byte	0x50
	.byte	0
.LVUS76:
	.uleb128 .LVU1144
	.uleb128 .LVU1153
.LLST76:
	.byte	0x8
	.quad	.LVL211
	.uleb128 .LVL213-.LVL211
	.uleb128 0x6
	.byte	0xa0
	.long	.Ldebug_info0+59614
	.sleb128 0
	.byte	0
.LVUS77:
	.uleb128 .LVU1144
	.uleb128 .LVU1153
.LLST77:
	.byte	0x8
	.quad	.LVL211
	.uleb128 .LVL213-.LVL211
	.uleb128 0x7
	.byte	0x77
	.sleb128 128
	.byte	0x6
	.byte	0x23
	.uleb128 0x10
	.byte	0x9f
	.byte	0
.LVUS78:
	.uleb128 .LVU1146
	.uleb128 .LVU1147
.LLST78:
	.byte	0x8
	.quad	.LVL211
	.uleb128 .LVL211-.LVL211
	.uleb128 0x6
	.byte	0xa0
	.long	.Ldebug_info0+60847
	.sleb128 0
	.byte	0
.LVUS79:
	.uleb128 .LVU1147
	.uleb128 .LVU1153
.LLST79:
	.byte	0x8
	.quad	.LVL211
	.uleb128 .LVL213-.LVL211
	.uleb128 0x7
	.byte	0x77
	.sleb128 128
	.byte	0x6
	.byte	0x23
	.uleb128 0x10
	.byte	0x9f
	.byte	0
.LVUS80:
	.uleb128 .LVU1147
	.uleb128 .LVU1153
.LLST80:
	.byte	0x8
	.quad	.LVL211
	.uleb128 .LVL213-.LVL211
	.uleb128 0x6
	.byte	0xa0
	.long	.Ldebug_info0+60847
	.sleb128 0
	.byte	0
.LVUS81:
	.uleb128 .LVU1153
	.uleb128 .LVU1165
.LLST81:
	.byte	0x8
	.quad	.LVL213
	.uleb128 .LVL213-.LVL213
	.uleb128 0x6
	.byte	0xa0
	.long	.Ldebug_info0+59614
	.sleb128 0
	.byte	0
.LVUS82:
	.uleb128 .LVU1155
	.uleb128 .LVU1156
.LLST82:
	.byte	0x8
	.quad	.LVL213
	.uleb128 .LVL213-.LVL213
	.uleb128 0x6
	.byte	0xa0
	.long	.Ldebug_info0+59614
	.sleb128 0
	.byte	0
.LVUS83:
	.uleb128 .LVU1156
	.uleb128 .LVU1158
.LLST83:
	.byte	0x8
	.quad	.LVL213
	.uleb128 .LVL213-.LVL213
	.uleb128 0x6
	.byte	0xa0
	.long	.Ldebug_info0+59614
	.sleb128 0
	.byte	0
.LVUS84:
	.uleb128 .LVU1158
	.uleb128 .LVU1165
.LLST84:
	.byte	0x8
	.quad	.LVL213
	.uleb128 .LVL213-.LVL213
	.uleb128 0x6
	.byte	0xa0
	.long	.Ldebug_info0+59614
	.sleb128 0
	.byte	0
.LVUS85:
	.uleb128 .LVU1160
	.uleb128 .LVU1165
.LLST85:
	.byte	0x8
	.quad	.LVL213
	.uleb128 .LVL213-.LVL213
	.uleb128 0x2
	.byte	0x30
	.byte	0x9f
	.byte	0
.LVUS86:
	.uleb128 .LVU1160
	.uleb128 .LVU1161
.LLST86:
	.byte	0x8
	.quad	.LVL213
	.uleb128 .LVL213-.LVL213
	.uleb128 0x6
	.byte	0xa0
	.long	.Ldebug_info0+59614
	.sleb128 0
	.byte	0
.LVUS87:
	.uleb128 .LVU1160
	.uleb128 .LVU1161
.LLST87:
	.byte	0x8
	.quad	.LVL213
	.uleb128 .LVL213-.LVL213
	.uleb128 0x2
	.byte	0x30
	.byte	0x9f
	.byte	0
.LVUS89:
	.uleb128 .LVU1161
	.uleb128 .LVU1165
.LLST89:
	.byte	0x8
	.quad	.LVL213
	.uleb128 .LVL213-.LVL213
	.uleb128 0x6
	.byte	0xa0
	.long	.Ldebug_info0+59614
	.sleb128 0
	.byte	0
.LVUS90:
	.uleb128 .LVU1163
	.uleb128 .LVU1165
.LLST90:
	.byte	0x8
	.quad	.LVL213
	.uleb128 .LVL213-.LVL213
	.uleb128 0x6
	.byte	0xa0
	.long	.Ldebug_info0+59614
	.sleb128 0
	.byte	0
.LVUS91:
	.uleb128 .LVU1164
	.uleb128 .LVU1165
.LLST91:
	.byte	0x8
	.quad	.LVL213
	.uleb128 .LVL213-.LVL213
	.uleb128 0x6
	.byte	0xa0
	.long	.Ldebug_info0+59614
	.sleb128 0
	.byte	0
.LVUS93:
	.uleb128 .LVU45
	.uleb128 .LVU52
	.uleb128 .LVU1167
	.uleb128 .LVU1174
.LLST93:
	.byte	0x8
	.quad	.LVL5
	.uleb128 .LVL5-.LVL5
	.uleb128 0x6
	.byte	0xa0
	.long	.Ldebug_info0+52897
	.sleb128 0
	.byte	0x8
	.quad	.LVL213
	.uleb128 .LVL213-.LVL213
	.uleb128 0x6
	.byte	0xa0
	.long	.Ldebug_info0+52897
	.sleb128 0
	.byte	0
.LVUS94:
	.uleb128 .LVU46
	.uleb128 .LVU52
	.uleb128 .LVU1168
	.uleb128 .LVU1174
.LLST94:
	.byte	0x8
	.quad	.LVL5
	.uleb128 .LVL5-.LVL5
	.uleb128 0x6
	.byte	0xa0
	.long	.Ldebug_info0+52897
	.sleb128 0
	.byte	0x8
	.quad	.LVL213
	.uleb128 .LVL213-.LVL213
	.uleb128 0x6
	.byte	0xa0
	.long	.Ldebug_info0+52897
	.sleb128 0
	.byte	0
.LVUS95:
	.uleb128 .LVU47
	.uleb128 .LVU52
	.uleb128 .LVU1169
	.uleb128 .LVU1174
.LLST95:
	.byte	0x8
	.quad	.LVL5
	.uleb128 .LVL5-.LVL5
	.uleb128 0x6
	.byte	0xa0
	.long	.Ldebug_info0+52897
	.sleb128 0
	.byte	0x8
	.quad	.LVL213
	.uleb128 .LVL213-.LVL213
	.uleb128 0x6
	.byte	0xa0
	.long	.Ldebug_info0+52897
	.sleb128 0
	.byte	0
.LVUS97:
	.uleb128 .LVU48
	.uleb128 .LVU50
	.uleb128 .LVU1170
	.uleb128 .LVU1172
.LLST97:
	.byte	0x8
	.quad	.LVL5
	.uleb128 .LVL5-.LVL5
	.uleb128 0x6
	.byte	0xa0
	.long	.Ldebug_info0+52897
	.sleb128 0
	.byte	0x8
	.quad	.LVL213
	.uleb128 .LVL213-.LVL213
	.uleb128 0x6
	.byte	0xa0
	.long	.Ldebug_info0+52897
	.sleb128 0
	.byte	0
.LVUS98:
	.uleb128 .LVU49
	.uleb128 .LVU50
	.uleb128 .LVU1171
	.uleb128 .LVU1172
.LLST98:
	.byte	0x8
	.quad	.LVL5
	.uleb128 .LVL5-.LVL5
	.uleb128 0x6
	.byte	0xa0
	.long	.Ldebug_info0+52897
	.sleb128 0
	.byte	0x8
	.quad	.LVL213
	.uleb128 .LVL213-.LVL213
	.uleb128 0x6
	.byte	0xa0
	.long	.Ldebug_info0+52897
	.sleb128 0
	.byte	0
.LVUS100:
	.uleb128 .LVU50
	.uleb128 .LVU52
	.uleb128 .LVU1172
	.uleb128 .LVU1174
.LLST100:
	.byte	0x8
	.quad	.LVL5
	.uleb128 .LVL5-.LVL5
	.uleb128 0x6
	.byte	0xa0
	.long	.Ldebug_info0+52897
	.sleb128 0
	.byte	0x8
	.quad	.LVL213
	.uleb128 .LVL213-.LVL213
	.uleb128 0x6
	.byte	0xa0
	.long	.Ldebug_info0+52897
	.sleb128 0
	.byte	0
.LVUS102:
	.uleb128 .LVU54
	.uleb128 .LVU56
	.uleb128 .LVU1176
	.uleb128 .LVU1178
.LLST102:
	.byte	0x6
	.quad	.LVL5
	.byte	0x4
	.uleb128 .LVL5-.LVL5
	.uleb128 .LVL6-.LVL5
	.uleb128 0x1
	.byte	0x54
	.byte	0x4
	.uleb128 .LVL213-.LVL5
	.uleb128 .LVL214-.LVL5
	.uleb128 0x1
	.byte	0x5d
	.byte	0
.LVUS104:
	.uleb128 .LVU56
	.uleb128 .LVU72
	.uleb128 .LVU1178
	.uleb128 .LVU1187
	.uleb128 .LVU1194
	.uleb128 .LVU1197
.LLST104:
	.byte	0x6
	.quad	.LVL6
	.byte	0x4
	.uleb128 .LVL6-.LVL6
	.uleb128 .LVL13-.LVL6
	.uleb128 0x6
	.byte	0xa0
	.long	.Ldebug_info0+52897
	.sleb128 0
	.byte	0x4
	.uleb128 .LVL214-.LVL6
	.uleb128 .LVL217-.LVL6
	.uleb128 0x6
	.byte	0xa0
	.long	.Ldebug_info0+52897
	.sleb128 0
	.byte	0x4
	.uleb128 .LVL221-.LVL6
	.uleb128 .LVL222-.LVL6
	.uleb128 0x6
	.byte	0xa0
	.long	.Ldebug_info0+52897
	.sleb128 0
	.byte	0
.LVUS105:
	.uleb128 .LVU56
	.uleb128 .LVU62
	.uleb128 .LVU62
	.uleb128 .LVU63
	.uleb128 .LVU1178
	.uleb128 .LVU1183
	.uleb128 .LVU1183
	.uleb128 .LVU1187
	.uleb128 .LVU1194
	.uleb128 .LVU1197
.LLST105:
	.byte	0x6
	.quad	.LVL6
	.byte	0x4
	.uleb128 .LVL6-.LVL6
	.uleb128 .LVL8-.LVL6
	.uleb128 0x9
	.byte	0x71
	.sleb128 0
	.byte	0x73
	.sleb128 0
	.byte	0x1c
	.byte	0x8
	.byte	0x30
	.byte	0x1b
	.byte	0x9f
	.byte	0x4
	.uleb128 .LVL8-.LVL6
	.uleb128 .LVL9-.LVL6
	.uleb128 0x6
	.byte	0x75
	.sleb128 0
	.byte	0x8
	.byte	0x30
	.byte	0x1b
	.byte	0x9f
	.byte	0x4
	.uleb128 .LVL214-.LVL6
	.uleb128 .LVL215-.LVL6
	.uleb128 0x9
	.byte	0x70
	.sleb128 0
	.byte	0x73
	.sleb128 0
	.byte	0x1c
	.byte	0x8
	.byte	0x30
	.byte	0x1b
	.byte	0x9f
	.byte	0x4
	.uleb128 .LVL215-.LVL6
	.uleb128 .LVL217-.LVL6
	.uleb128 0x6
	.byte	0x70
	.sleb128 0
	.byte	0x8
	.byte	0x30
	.byte	0x1b
	.byte	0x9f
	.byte	0x4
	.uleb128 .LVL221-.LVL6
	.uleb128 .LVL222-.LVL6
	.uleb128 0x6
	.byte	0x75
	.sleb128 0
	.byte	0x8
	.byte	0x30
	.byte	0x1b
	.byte	0x9f
	.byte	0
.LVUS106:
	.uleb128 .LVU63
	.uleb128 .LVU69
.LLST106:
	.byte	0x8
	.quad	.LVL9
	.uleb128 .LVL12-.LVL9
	.uleb128 0x2
	.byte	0x30
	.byte	0x9f
	.byte	0
.LVUS107:
	.uleb128 .LVU67
	.uleb128 .LVU69
.LLST107:
	.byte	0x8
	.quad	.LVL11
	.uleb128 .LVL12-.LVL11
	.uleb128 0x1
	.byte	0x50
	.byte	0
.LVUS108:
	.uleb128 .LVU63
	.uleb128 .LVU67
.LLST108:
	.byte	0x8
	.quad	.LVL9
	.uleb128 .LVL11-.LVL9
	.uleb128 0x6
	.byte	0xa0
	.long	.Ldebug_info0+52897
	.sleb128 0
	.byte	0
.LVUS109:
	.uleb128 .LVU64
	.uleb128 .LVU67
.LLST109:
	.byte	0x8
	.quad	.LVL9
	.uleb128 .LVL11-.LVL9
	.uleb128 0x6
	.byte	0xa0
	.long	.Ldebug_info0+52897
	.sleb128 0
	.byte	0
.LVUS110:
	.uleb128 .LVU66
	.uleb128 .LVU67
.LLST110:
	.byte	0x8
	.quad	.LVL9
	.uleb128 .LVL11-.LVL9
	.uleb128 0x2
	.byte	0x30
	.byte	0x9f
	.byte	0
.LVUS111:
	.uleb128 .LVU66
	.uleb128 .LVU67
.LLST111:
	.byte	0x8
	.quad	.LVL9
	.uleb128 .LVL11-.LVL9
	.uleb128 0x6
	.byte	0xa0
	.long	.Ldebug_info0+52897
	.sleb128 0
	.byte	0
.LVUS197:
	.uleb128 .LVU1091
	.uleb128 .LVU1108
.LLST197:
	.byte	0x8
	.quad	.LVL199
	.uleb128 .LVL201-.LVL199
	.uleb128 0x6
	.byte	0xa0
	.long	.Ldebug_info0+52897
	.sleb128 0
	.byte	0
.LVUS199:
	.uleb128 .LVU1096
	.uleb128 .LVU1108
.LLST199:
	.byte	0x8
	.quad	.LVL199
	.uleb128 .LVL201-.LVL199
	.uleb128 0x6
	.byte	0xa0
	.long	.Ldebug_info0+52897
	.sleb128 0
	.byte	0
.LVUS201:
	.uleb128 .LVU1098
	.uleb128 .LVU1104
.LLST201:
	.byte	0x8
	.quad	.LVL199
	.uleb128 .LVL201-.LVL199
	.uleb128 0x6
	.byte	0xa0
	.long	.Ldebug_info0+52897
	.sleb128 0
	.byte	0
.LVUS202:
	.uleb128 .LVU1101
	.uleb128 .LVU1104
.LLST202:
	.byte	0x8
	.quad	.LVL200
	.uleb128 .LVL201-.LVL200
	.uleb128 0x6
	.byte	0xa0
	.long	.Ldebug_info0+52897
	.sleb128 0
	.byte	0
.LVUS203:
	.uleb128 .LVU1104
	.uleb128 .LVU1108
.LLST203:
	.byte	0x8
	.quad	.LVL201
	.uleb128 .LVL201-.LVL201
	.uleb128 0x6
	.byte	0xa0
	.long	.Ldebug_info0+52897
	.sleb128 0
	.byte	0
.LVUS204:
	.uleb128 .LVU1106
	.uleb128 .LVU1108
.LLST204:
	.byte	0x8
	.quad	.LVL201
	.uleb128 .LVL201-.LVL201
	.uleb128 0x6
	.byte	0xa0
	.long	.Ldebug_info0+52897
	.sleb128 0
	.byte	0
.LVUS205:
	.uleb128 .LVU1107
	.uleb128 .LVU1108
.LLST205:
	.byte	0x8
	.quad	.LVL201
	.uleb128 .LVL201-.LVL201
	.uleb128 0x6
	.byte	0xa0
	.long	.Ldebug_info0+52897
	.sleb128 0
	.byte	0
.LVUS206:
	.uleb128 .LVU1093
	.uleb128 .LVU1094
.LLST206:
	.byte	0x8
	.quad	.LVL199
	.uleb128 .LVL199-.LVL199
	.uleb128 0x6
	.byte	0xa0
	.long	.Ldebug_info0+52897
	.sleb128 0
	.byte	0
.LVUS207:
	.uleb128 .LVU1094
	.uleb128 .LVU1096
.LLST207:
	.byte	0x8
	.quad	.LVL199
	.uleb128 .LVL199-.LVL199
	.uleb128 0x6
	.byte	0xa0
	.long	.Ldebug_info0+52897
	.sleb128 0
	.byte	0
.LVUS211:
	.uleb128 .LVU169
	.uleb128 .LVU178
	.uleb128 .LVU1280
	.uleb128 .LVU1282
	.uleb128 .LVU1363
	.uleb128 0
.LLST211:
	.byte	0x8
	.quad	.LVL38
	.uleb128 .LVL39-.LVL38
	.uleb128 0x3
	.byte	0x77
	.sleb128 72
	.byte	0x6
	.quad	.LVL252
	.byte	0x4
	.uleb128 .LVL252-.LVL252
	.uleb128 .LVL253-.LVL252
	.uleb128 0x3
	.byte	0x77
	.sleb128 72
	.byte	0x4
	.uleb128 .LVL272-.LVL252
	.uleb128 .LFE11707-.LVL252
	.uleb128 0x3
	.byte	0x77
	.sleb128 72
	.byte	0
.LVUS215:
	.uleb128 .LVU171
	.uleb128 .LVU178
	.uleb128 .LVU1280
	.uleb128 .LVU1282
	.uleb128 .LVU1363
	.uleb128 0
.LLST215:
	.byte	0x8
	.quad	.LVL38
	.uleb128 .LVL39-.LVL38
	.uleb128 0x3
	.byte	0x77
	.sleb128 72
	.byte	0x6
	.quad	.LVL252
	.byte	0x4
	.uleb128 .LVL252-.LVL252
	.uleb128 .LVL253-.LVL252
	.uleb128 0x3
	.byte	0x77
	.sleb128 72
	.byte	0x4
	.uleb128 .LVL272-.LVL252
	.uleb128 .LFE11707-.LVL252
	.uleb128 0x3
	.byte	0x77
	.sleb128 72
	.byte	0
.LVUS220:
	.uleb128 .LVU178
	.uleb128 .LVU192
.LLST220:
	.byte	0x8
	.quad	.LVL39
	.uleb128 .LVL41-.LVL39
	.uleb128 0x3
	.byte	0x77
	.sleb128 72
	.byte	0
.LVUS226:
	.uleb128 .LVU185
	.uleb128 .LVU192
.LLST226:
	.byte	0x8
	.quad	.LVL39
	.uleb128 .LVL41-.LVL39
	.uleb128 0x3
	.byte	0x77
	.sleb128 72
	.byte	0
.LVUS228:
	.uleb128 .LVU187
	.uleb128 .LVU192
.LLST228:
	.byte	0x8
	.quad	.LVL39
	.uleb128 .LVL41-.LVL39
	.uleb128 0x3
	.byte	0x77
	.sleb128 72
	.byte	0
.LVUS230:
	.uleb128 .LVU189
	.uleb128 .LVU192
.LLST230:
	.byte	0x8
	.quad	.LVL40
	.uleb128 .LVL41-.LVL40
	.uleb128 0x3
	.byte	0x77
	.sleb128 72
	.byte	0
.LVUS231:
	.uleb128 .LVU191
	.uleb128 .LVU195
	.uleb128 .LVU1271
	.uleb128 .LVU1272
.LLST231:
	.byte	0x6
	.quad	.LVL40
	.byte	0x4
	.uleb128 .LVL40-.LVL40
	.uleb128 .LVL43-.LVL40
	.uleb128 0x2
	.byte	0x30
	.byte	0x9f
	.byte	0x4
	.uleb128 .LVL244-.LVL40
	.uleb128 .LVL246-.LVL40
	.uleb128 0x2
	.byte	0x30
	.byte	0x9f
	.byte	0
.LVUS232:
	.uleb128 .LVU190
	.uleb128 .LVU192
.LLST232:
	.byte	0x8
	.quad	.LVL40
	.uleb128 .LVL41-.LVL40
	.uleb128 0x3
	.byte	0x77
	.sleb128 72
	.byte	0
.LVUS234:
	.uleb128 .LVU195
	.uleb128 .LVU205
.LLST234:
	.byte	0x8
	.quad	.LVL43
	.uleb128 .LVL44-.LVL43
	.uleb128 0x1
	.byte	0x53
	.byte	0
.LVUS236:
	.uleb128 .LVU197
	.uleb128 .LVU205
	.uleb128 .LVU205
	.uleb128 .LVU205
.LLST236:
	.byte	0x6
	.quad	.LVL43
	.byte	0x4
	.uleb128 .LVL43-.LVL43
	.uleb128 .LVL44-1-.LVL43
	.uleb128 0x1
	.byte	0x50
	.byte	0x4
	.uleb128 .LVL44-1-.LVL43
	.uleb128 .LVL44-.LVL43
	.uleb128 0x3
	.byte	0x77
	.sleb128 80
	.byte	0
.LVUS237:
	.uleb128 .LVU197
	.uleb128 .LVU205
.LLST237:
	.byte	0x8
	.quad	.LVL43
	.uleb128 .LVL44-.LVL43
	.uleb128 0x1
	.byte	0x53
	.byte	0
.LVUS239:
	.uleb128 .LVU198
	.uleb128 .LVU205
	.uleb128 .LVU205
	.uleb128 .LVU205
.LLST239:
	.byte	0x6
	.quad	.LVL43
	.byte	0x4
	.uleb128 .LVL43-.LVL43
	.uleb128 .LVL44-1-.LVL43
	.uleb128 0x1
	.byte	0x50
	.byte	0x4
	.uleb128 .LVL44-1-.LVL43
	.uleb128 .LVL44-.LVL43
	.uleb128 0x3
	.byte	0x77
	.sleb128 80
	.byte	0
.LVUS240:
	.uleb128 .LVU198
	.uleb128 .LVU205
.LLST240:
	.byte	0x8
	.quad	.LVL43
	.uleb128 .LVL44-.LVL43
	.uleb128 0x1
	.byte	0x53
	.byte	0
.LVUS243:
	.uleb128 .LVU199
	.uleb128 .LVU205
	.uleb128 .LVU205
	.uleb128 .LVU205
.LLST243:
	.byte	0x6
	.quad	.LVL43
	.byte	0x4
	.uleb128 .LVL43-.LVL43
	.uleb128 .LVL44-1-.LVL43
	.uleb128 0x1
	.byte	0x50
	.byte	0x4
	.uleb128 .LVL44-1-.LVL43
	.uleb128 .LVL44-.LVL43
	.uleb128 0x3
	.byte	0x77
	.sleb128 80
	.byte	0
.LVUS244:
	.uleb128 .LVU199
	.uleb128 .LVU204
	.uleb128 .LVU204
	.uleb128 .LVU205
.LLST244:
	.byte	0x6
	.quad	.LVL43
	.byte	0x4
	.uleb128 .LVL43-.LVL43
	.uleb128 .LVL43-.LVL43
	.uleb128 0x1
	.byte	0x53
	.byte	0x4
	.uleb128 .LVL43-.LVL43
	.uleb128 .LVL44-.LVL43
	.uleb128 0x3
	.byte	0x73
	.sleb128 -1
	.byte	0x9f
	.byte	0
.LVUS247:
	.uleb128 .LVU200
	.uleb128 .LVU201
.LLST247:
	.byte	0x8
	.quad	.LVL43
	.uleb128 .LVL43-.LVL43
	.uleb128 0x6
	.byte	0xa0
	.long	.Ldebug_info0+63663
	.sleb128 0
	.byte	0
.LVUS248:
	.uleb128 .LVU200
	.uleb128 .LVU201
.LLST248:
	.byte	0x8
	.quad	.LVL43
	.uleb128 .LVL43-.LVL43
	.uleb128 0x6
	.byte	0xa0
	.long	.Ldebug_info0+63632
	.sleb128 0
	.byte	0
.LVUS249:
	.uleb128 .LVU205
	.uleb128 .LVU207
.LLST249:
	.byte	0x8
	.quad	.LVL44
	.uleb128 .LVL44-.LVL44
	.uleb128 0x6
	.byte	0xa0
	.long	.Ldebug_info0+63663
	.sleb128 0
	.byte	0
.LVUS255:
	.uleb128 .LVU218
	.uleb128 .LVU226
	.uleb128 .LVU226
	.uleb128 .LVU239
	.uleb128 .LVU239
	.uleb128 .LVU243
	.uleb128 .LVU243
	.uleb128 .LVU257
	.uleb128 .LVU257
	.uleb128 .LVU259
	.uleb128 .LVU1211
	.uleb128 .LVU1212
	.uleb128 .LVU1270
	.uleb128 .LVU1271
	.uleb128 .LVU1277
	.uleb128 .LVU1278
	.uleb128 .LVU1296
	.uleb128 .LVU1298
.LLST255:
	.byte	0x6
	.quad	.LVL45
	.byte	0x4
	.uleb128 .LVL45-.LVL45
	.uleb128 .LVL46-.LVL45
	.uleb128 0x1
	.byte	0x50
	.byte	0x4
	.uleb128 .LVL46-.LVL45
	.uleb128 .LVL48-.LVL45
	.uleb128 0x1
	.byte	0x5f
	.byte	0x4
	.uleb128 .LVL48-.LVL45
	.uleb128 .LVL50-1-.LVL45
	.uleb128 0xa
	.byte	0x77
	.sleb128 256
	.byte	0x6
	.byte	0x23
	.uleb128 0x1
	.byte	0x7b
	.sleb128 0
	.byte	0x1e
	.byte	0x9f
	.byte	0x4
	.uleb128 .LVL50-1-.LVL45
	.uleb128 .LVL53-.LVL45
	.uleb128 0xc
	.byte	0x77
	.sleb128 256
	.byte	0x6
	.byte	0x23
	.uleb128 0x1
	.byte	0x77
	.sleb128 272
	.byte	0x6
	.byte	0x1e
	.byte	0x9f
	.byte	0x4
	.uleb128 .LVL53-.LVL45
	.uleb128 .LVL53-.LVL45
	.uleb128 0xe
	.byte	0x77
	.sleb128 256
	.byte	0x6
	.byte	0x23
	.uleb128 0x1
	.byte	0x77
	.sleb128 160
	.byte	0x6
	.byte	0x23
	.uleb128 0x1
	.byte	0x1e
	.byte	0x9f
	.byte	0x4
	.uleb128 .LVL224-.LVL45
	.uleb128 .LVL225-.LVL45
	.uleb128 0x1
	.byte	0x5f
	.byte	0x4
	.uleb128 .LVL243-.LVL45
	.uleb128 .LVL244-.LVL45
	.uleb128 0xc
	.byte	0x77
	.sleb128 256
	.byte	0x6
	.byte	0x23
	.uleb128 0x1
	.byte	0x77
	.sleb128 272
	.byte	0x6
	.byte	0x1e
	.byte	0x9f
	.byte	0x6
	.quad	.LVL250
	.byte	0x4
	.uleb128 .LVL250-.LVL250
	.uleb128 .LVL251-.LVL250
	.uleb128 0x1
	.byte	0x5f
	.byte	0x4
	.uleb128 .LVL255-.LVL250
	.uleb128 .LVL256-.LVL250
	.uleb128 0xe
	.byte	0x77
	.sleb128 256
	.byte	0x6
	.byte	0x23
	.uleb128 0x1
	.byte	0x77
	.sleb128 160
	.byte	0x6
	.byte	0x23
	.uleb128 0x1
	.byte	0x1e
	.byte	0x9f
	.byte	0
.LVUS259:
	.uleb128 .LVU219
	.uleb128 .LVU226
	.uleb128 .LVU226
	.uleb128 .LVU227
	.uleb128 .LVU1277
	.uleb128 .LVU1278
.LLST259:
	.byte	0x6
	.quad	.LVL45
	.byte	0x4
	.uleb128 .LVL45-.LVL45
	.uleb128 .LVL46-.LVL45
	.uleb128 0x1
	.byte	0x50
	.byte	0x4
	.uleb128 .LVL46-.LVL45
	.uleb128 .LVL47-.LVL45
	.uleb128 0x1
	.byte	0x5f
	.byte	0x8
	.quad	.LVL250
	.uleb128 .LVL251-.LVL250
	.uleb128 0x1
	.byte	0x5f
	.byte	0
.LVUS264:
	.uleb128 .LVU227
	.uleb128 .LVU239
	.uleb128 .LVU239
	.uleb128 .LVU243
	.uleb128 .LVU243
	.uleb128 .LVU246
	.uleb128 .LVU1211
	.uleb128 .LVU1212
	.uleb128 .LVU1270
	.uleb128 .LVU1271
.LLST264:
	.byte	0x6
	.quad	.LVL47
	.byte	0x4
	.uleb128 .LVL47-.LVL47
	.uleb128 .LVL48-.LVL47
	.uleb128 0x1
	.byte	0x5f
	.byte	0x4
	.uleb128 .LVL48-.LVL47
	.uleb128 .LVL50-1-.LVL47
	.uleb128 0xa
	.byte	0x77
	.sleb128 256
	.byte	0x6
	.byte	0x23
	.uleb128 0x1
	.byte	0x7b
	.sleb128 0
	.byte	0x1e
	.byte	0x9f
	.byte	0x4
	.uleb128 .LVL50-1-.LVL47
	.uleb128 .LVL51-.LVL47
	.uleb128 0xc
	.byte	0x77
	.sleb128 256
	.byte	0x6
	.byte	0x23
	.uleb128 0x1
	.byte	0x77
	.sleb128 272
	.byte	0x6
	.byte	0x1e
	.byte	0x9f
	.byte	0x4
	.uleb128 .LVL224-.LVL47
	.uleb128 .LVL225-.LVL47
	.uleb128 0x1
	.byte	0x5f
	.byte	0x4
	.uleb128 .LVL243-.LVL47
	.uleb128 .LVL244-.LVL47
	.uleb128 0xc
	.byte	0x77
	.sleb128 256
	.byte	0x6
	.byte	0x23
	.uleb128 0x1
	.byte	0x77
	.sleb128 272
	.byte	0x6
	.byte	0x1e
	.byte	0x9f
	.byte	0
.LVUS270:
	.uleb128 .LVU234
	.uleb128 .LVU239
	.uleb128 .LVU239
	.uleb128 .LVU243
	.uleb128 .LVU243
	.uleb128 .LVU246
	.uleb128 .LVU1211
	.uleb128 .LVU1212
	.uleb128 .LVU1270
	.uleb128 .LVU1271
.LLST270:
	.byte	0x6
	.quad	.LVL47
	.byte	0x4
	.uleb128 .LVL47-.LVL47
	.uleb128 .LVL48-.LVL47
	.uleb128 0x1
	.byte	0x5f
	.byte	0x4
	.uleb128 .LVL48-.LVL47
	.uleb128 .LVL50-1-.LVL47
	.uleb128 0xa
	.byte	0x77
	.sleb128 256
	.byte	0x6
	.byte	0x23
	.uleb128 0x1
	.byte	0x7b
	.sleb128 0
	.byte	0x1e
	.byte	0x9f
	.byte	0x4
	.uleb128 .LVL50-1-.LVL47
	.uleb128 .LVL51-.LVL47
	.uleb128 0xc
	.byte	0x77
	.sleb128 256
	.byte	0x6
	.byte	0x23
	.uleb128 0x1
	.byte	0x77
	.sleb128 272
	.byte	0x6
	.byte	0x1e
	.byte	0x9f
	.byte	0x4
	.uleb128 .LVL224-.LVL47
	.uleb128 .LVL225-.LVL47
	.uleb128 0x1
	.byte	0x5f
	.byte	0x4
	.uleb128 .LVL243-.LVL47
	.uleb128 .LVL244-.LVL47
	.uleb128 0xc
	.byte	0x77
	.sleb128 256
	.byte	0x6
	.byte	0x23
	.uleb128 0x1
	.byte	0x77
	.sleb128 272
	.byte	0x6
	.byte	0x1e
	.byte	0x9f
	.byte	0
.LVUS272:
	.uleb128 .LVU236
	.uleb128 .LVU239
	.uleb128 .LVU239
	.uleb128 .LVU243
	.uleb128 .LVU243
	.uleb128 .LVU246
	.uleb128 .LVU1211
	.uleb128 .LVU1212
	.uleb128 .LVU1270
	.uleb128 .LVU1271
.LLST272:
	.byte	0x6
	.quad	.LVL47
	.byte	0x4
	.uleb128 .LVL47-.LVL47
	.uleb128 .LVL48-.LVL47
	.uleb128 0x1
	.byte	0x5f
	.byte	0x4
	.uleb128 .LVL48-.LVL47
	.uleb128 .LVL50-1-.LVL47
	.uleb128 0xa
	.byte	0x77
	.sleb128 256
	.byte	0x6
	.byte	0x23
	.uleb128 0x1
	.byte	0x7b
	.sleb128 0
	.byte	0x1e
	.byte	0x9f
	.byte	0x4
	.uleb128 .LVL50-1-.LVL47
	.uleb128 .LVL51-.LVL47
	.uleb128 0xc
	.byte	0x77
	.sleb128 256
	.byte	0x6
	.byte	0x23
	.uleb128 0x1
	.byte	0x77
	.sleb128 272
	.byte	0x6
	.byte	0x1e
	.byte	0x9f
	.byte	0x4
	.uleb128 .LVL224-.LVL47
	.uleb128 .LVL225-.LVL47
	.uleb128 0x1
	.byte	0x5f
	.byte	0x4
	.uleb128 .LVL243-.LVL47
	.uleb128 .LVL244-.LVL47
	.uleb128 0xc
	.byte	0x77
	.sleb128 256
	.byte	0x6
	.byte	0x23
	.uleb128 0x1
	.byte	0x77
	.sleb128 272
	.byte	0x6
	.byte	0x1e
	.byte	0x9f
	.byte	0
.LVUS275:
	.uleb128 .LVU242
	.uleb128 .LVU246
	.uleb128 .LVU1270
	.uleb128 .LVU1271
.LLST275:
	.byte	0x6
	.quad	.LVL49
	.byte	0x4
	.uleb128 .LVL49-.LVL49
	.uleb128 .LVL51-.LVL49
	.uleb128 0x2
	.byte	0x30
	.byte	0x9f
	.byte	0x4
	.uleb128 .LVL243-.LVL49
	.uleb128 .LVL244-.LVL49
	.uleb128 0x2
	.byte	0x30
	.byte	0x9f
	.byte	0
.LVUS277:
	.uleb128 .LVU246
	.uleb128 .LVU257
.LLST277:
	.byte	0x8
	.quad	.LVL51
	.uleb128 .LVL53-.LVL51
	.uleb128 0x1
	.byte	0x5f
	.byte	0
.LVUS279:
	.uleb128 .LVU248
	.uleb128 .LVU256
	.uleb128 .LVU256
	.uleb128 .LVU257
.LLST279:
	.byte	0x6
	.quad	.LVL51
	.byte	0x4
	.uleb128 .LVL51-.LVL51
	.uleb128 .LVL52-1-.LVL51
	.uleb128 0x1
	.byte	0x50
	.byte	0x4
	.uleb128 .LVL52-1-.LVL51
	.uleb128 .LVL53-.LVL51
	.uleb128 0x1
	.byte	0x53
	.byte	0
.LVUS280:
	.uleb128 .LVU248
	.uleb128 .LVU257
.LLST280:
	.byte	0x8
	.quad	.LVL51
	.uleb128 .LVL53-.LVL51
	.uleb128 0x1
	.byte	0x5f
	.byte	0
.LVUS282:
	.uleb128 .LVU249
	.uleb128 .LVU256
	.uleb128 .LVU256
	.uleb128 .LVU257
.LLST282:
	.byte	0x6
	.quad	.LVL51
	.byte	0x4
	.uleb128 .LVL51-.LVL51
	.uleb128 .LVL52-1-.LVL51
	.uleb128 0x1
	.byte	0x50
	.byte	0x4
	.uleb128 .LVL52-1-.LVL51
	.uleb128 .LVL53-.LVL51
	.uleb128 0x1
	.byte	0x53
	.byte	0
.LVUS283:
	.uleb128 .LVU249
	.uleb128 .LVU257
.LLST283:
	.byte	0x8
	.quad	.LVL51
	.uleb128 .LVL53-.LVL51
	.uleb128 0x1
	.byte	0x5f
	.byte	0
.LVUS286:
	.uleb128 .LVU250
	.uleb128 .LVU256
	.uleb128 .LVU256
	.uleb128 .LVU256
.LLST286:
	.byte	0x6
	.quad	.LVL51
	.byte	0x4
	.uleb128 .LVL51-.LVL51
	.uleb128 .LVL52-1-.LVL51
	.uleb128 0x1
	.byte	0x50
	.byte	0x4
	.uleb128 .LVL52-1-.LVL51
	.uleb128 .LVL52-.LVL51
	.uleb128 0x1
	.byte	0x53
	.byte	0
.LVUS287:
	.uleb128 .LVU250
	.uleb128 .LVU255
	.uleb128 .LVU255
	.uleb128 .LVU256
.LLST287:
	.byte	0x6
	.quad	.LVL51
	.byte	0x4
	.uleb128 .LVL51-.LVL51
	.uleb128 .LVL51-.LVL51
	.uleb128 0x1
	.byte	0x5f
	.byte	0x4
	.uleb128 .LVL51-.LVL51
	.uleb128 .LVL52-.LVL51
	.uleb128 0x3
	.byte	0x7f
	.sleb128 -1
	.byte	0x9f
	.byte	0
.LVUS290:
	.uleb128 .LVU251
	.uleb128 .LVU252
.LLST290:
	.byte	0x8
	.quad	.LVL51
	.uleb128 .LVL51-.LVL51
	.uleb128 0x6
	.byte	0xa0
	.long	.Ldebug_info0+64957
	.sleb128 0
	.byte	0
.LVUS291:
	.uleb128 .LVU251
	.uleb128 .LVU252
.LLST291:
	.byte	0x8
	.quad	.LVL51
	.uleb128 .LVL51-.LVL51
	.uleb128 0x6
	.byte	0xa0
	.long	.Ldebug_info0+64926
	.sleb128 0
	.byte	0
.LVUS292:
	.uleb128 .LVU257
	.uleb128 .LVU259
.LLST292:
	.byte	0x8
	.quad	.LVL53
	.uleb128 .LVL53-.LVL53
	.uleb128 0x6
	.byte	0xa0
	.long	.Ldebug_info0+64957
	.sleb128 0
	.byte	0
.LVUS314:
	.uleb128 .LVU350
	.uleb128 .LVU391
	.uleb128 .LVU1268
	.uleb128 .LVU1270
	.uleb128 .LVU1282
	.uleb128 .LVU1296
	.uleb128 .LVU1355
	.uleb128 .LVU1360
.LLST314:
	.byte	0x6
	.quad	.LVL75
	.byte	0x4
	.uleb128 .LVL75-.LVL75
	.uleb128 .LVL78-.LVL75
	.uleb128 0x4
	.byte	0xa
	.value	0x1800
	.byte	0x9f
	.byte	0x4
	.uleb128 .LVL242-.LVL75
	.uleb128 .LVL243-.LVL75
	.uleb128 0x4
	.byte	0xa
	.value	0x1800
	.byte	0x9f
	.byte	0x6
	.quad	.LVL253
	.byte	0x4
	.uleb128 .LVL253-.LVL253
	.uleb128 .LVL255-.LVL253
	.uleb128 0x4
	.byte	0xa
	.value	0x1800
	.byte	0x9f
	.byte	0x4
	.uleb128 .LVL266-.LVL253
	.uleb128 .LVL269-.LVL253
	.uleb128 0x4
	.byte	0xa
	.value	0x1800
	.byte	0x9f
	.byte	0
.LVUS316:
	.uleb128 .LVU352
	.uleb128 .LVU358
.LLST316:
	.byte	0x8
	.quad	.LVL75
	.uleb128 .LVL75-.LVL75
	.uleb128 0x4
	.byte	0xa
	.value	0x1800
	.byte	0x9f
	.byte	0
.LVUS321:
	.uleb128 .LVU358
	.uleb128 .LVU376
	.uleb128 .LVU1268
	.uleb128 .LVU1270
	.uleb128 .LVU1282
	.uleb128 .LVU1296
	.uleb128 .LVU1355
	.uleb128 .LVU1360
.LLST321:
	.byte	0x6
	.quad	.LVL75
	.byte	0x4
	.uleb128 .LVL75-.LVL75
	.uleb128 .LVL77-.LVL75
	.uleb128 0x4
	.byte	0xa
	.value	0x1800
	.byte	0x9f
	.byte	0x4
	.uleb128 .LVL242-.LVL75
	.uleb128 .LVL243-.LVL75
	.uleb128 0x4
	.byte	0xa
	.value	0x1800
	.byte	0x9f
	.byte	0x6
	.quad	.LVL253
	.byte	0x4
	.uleb128 .LVL253-.LVL253
	.uleb128 .LVL255-.LVL253
	.uleb128 0x4
	.byte	0xa
	.value	0x1800
	.byte	0x9f
	.byte	0x4
	.uleb128 .LVL266-.LVL253
	.uleb128 .LVL269-.LVL253
	.uleb128 0x4
	.byte	0xa
	.value	0x1800
	.byte	0x9f
	.byte	0
.LVUS327:
	.uleb128 .LVU365
	.uleb128 .LVU376
	.uleb128 .LVU1268
	.uleb128 .LVU1270
	.uleb128 .LVU1282
	.uleb128 .LVU1296
	.uleb128 .LVU1355
	.uleb128 .LVU1360
.LLST327:
	.byte	0x6
	.quad	.LVL75
	.byte	0x4
	.uleb128 .LVL75-.LVL75
	.uleb128 .LVL77-.LVL75
	.uleb128 0x4
	.byte	0xa
	.value	0x1800
	.byte	0x9f
	.byte	0x4
	.uleb128 .LVL242-.LVL75
	.uleb128 .LVL243-.LVL75
	.uleb128 0x4
	.byte	0xa
	.value	0x1800
	.byte	0x9f
	.byte	0x6
	.quad	.LVL253
	.byte	0x4
	.uleb128 .LVL253-.LVL253
	.uleb128 .LVL255-.LVL253
	.uleb128 0x4
	.byte	0xa
	.value	0x1800
	.byte	0x9f
	.byte	0x4
	.uleb128 .LVL266-.LVL253
	.uleb128 .LVL269-.LVL253
	.uleb128 0x4
	.byte	0xa
	.value	0x1800
	.byte	0x9f
	.byte	0
.LVUS328:
	.uleb128 .LVU367
	.uleb128 .LVU376
	.uleb128 .LVU1268
	.uleb128 .LVU1270
	.uleb128 .LVU1282
	.uleb128 .LVU1296
	.uleb128 .LVU1355
	.uleb128 .LVU1360
.LLST328:
	.byte	0x6
	.quad	.LVL75
	.byte	0x4
	.uleb128 .LVL75-.LVL75
	.uleb128 .LVL77-.LVL75
	.uleb128 0x4
	.byte	0xa
	.value	0x1800
	.byte	0x9f
	.byte	0x4
	.uleb128 .LVL242-.LVL75
	.uleb128 .LVL243-.LVL75
	.uleb128 0x4
	.byte	0xa
	.value	0x1800
	.byte	0x9f
	.byte	0x6
	.quad	.LVL253
	.byte	0x4
	.uleb128 .LVL253-.LVL253
	.uleb128 .LVL255-.LVL253
	.uleb128 0x4
	.byte	0xa
	.value	0x1800
	.byte	0x9f
	.byte	0x4
	.uleb128 .LVL266-.LVL253
	.uleb128 .LVL269-.LVL253
	.uleb128 0x4
	.byte	0xa
	.value	0x1800
	.byte	0x9f
	.byte	0
.LVUS330:
	.uleb128 .LVU368
	.uleb128 .LVU376
	.uleb128 .LVU1268
	.uleb128 .LVU1270
.LLST330:
	.byte	0x6
	.quad	.LVL75
	.byte	0x4
	.uleb128 .LVL75-.LVL75
	.uleb128 .LVL77-.LVL75
	.uleb128 0x4
	.byte	0xa
	.value	0x1800
	.byte	0x9f
	.byte	0x4
	.uleb128 .LVL242-.LVL75
	.uleb128 .LVL243-.LVL75
	.uleb128 0x4
	.byte	0xa
	.value	0x1800
	.byte	0x9f
	.byte	0
.LVUS332:
	.uleb128 .LVU370
	.uleb128 .LVU376
	.uleb128 .LVU1268
	.uleb128 .LVU1270
	.uleb128 .LVU1282
	.uleb128 .LVU1296
	.uleb128 .LVU1355
	.uleb128 .LVU1360
.LLST332:
	.byte	0x6
	.quad	.LVL75
	.byte	0x4
	.uleb128 .LVL75-.LVL75
	.uleb128 .LVL77-.LVL75
	.uleb128 0x2
	.byte	0x30
	.byte	0x9f
	.byte	0x4
	.uleb128 .LVL242-.LVL75
	.uleb128 .LVL243-.LVL75
	.uleb128 0x2
	.byte	0x30
	.byte	0x9f
	.byte	0x6
	.quad	.LVL253
	.byte	0x4
	.uleb128 .LVL253-.LVL253
	.uleb128 .LVL255-.LVL253
	.uleb128 0x2
	.byte	0x30
	.byte	0x9f
	.byte	0x4
	.uleb128 .LVL266-.LVL253
	.uleb128 .LVL269-.LVL253
	.uleb128 0x2
	.byte	0x30
	.byte	0x9f
	.byte	0
.LVUS333:
	.uleb128 .LVU369
	.uleb128 .LVU376
	.uleb128 .LVU1268
	.uleb128 .LVU1270
	.uleb128 .LVU1282
	.uleb128 .LVU1296
	.uleb128 .LVU1355
	.uleb128 .LVU1360
.LLST333:
	.byte	0x6
	.quad	.LVL75
	.byte	0x4
	.uleb128 .LVL75-.LVL75
	.uleb128 .LVL77-.LVL75
	.uleb128 0x4
	.byte	0xa
	.value	0x1800
	.byte	0x9f
	.byte	0x4
	.uleb128 .LVL242-.LVL75
	.uleb128 .LVL243-.LVL75
	.uleb128 0x4
	.byte	0xa
	.value	0x1800
	.byte	0x9f
	.byte	0x6
	.quad	.LVL253
	.byte	0x4
	.uleb128 .LVL253-.LVL253
	.uleb128 .LVL255-.LVL253
	.uleb128 0x4
	.byte	0xa
	.value	0x1800
	.byte	0x9f
	.byte	0x4
	.uleb128 .LVL266-.LVL253
	.uleb128 .LVL269-.LVL253
	.uleb128 0x4
	.byte	0xa
	.value	0x1800
	.byte	0x9f
	.byte	0
.LVUS335:
	.uleb128 .LVU376
	.uleb128 .LVU391
.LLST335:
	.byte	0x8
	.quad	.LVL77
	.uleb128 .LVL78-.LVL77
	.uleb128 0x4
	.byte	0xa
	.value	0x1800
	.byte	0x9f
	.byte	0
.LVUS336:
	.uleb128 .LVU378
	.uleb128 .LVU391
	.uleb128 .LVU391
	.uleb128 .LVU391
.LLST336:
	.byte	0x6
	.quad	.LVL77
	.byte	0x4
	.uleb128 .LVL77-.LVL77
	.uleb128 .LVL78-1-.LVL77
	.uleb128 0x1
	.byte	0x50
	.byte	0x4
	.uleb128 .LVL78-1-.LVL77
	.uleb128 .LVL78-.LVL77
	.uleb128 0x1
	.byte	0x5d
	.byte	0
.LVUS337:
	.uleb128 .LVU378
	.uleb128 .LVU391
.LLST337:
	.byte	0x8
	.quad	.LVL77
	.uleb128 .LVL78-.LVL77
	.uleb128 0x4
	.byte	0xa
	.value	0x1800
	.byte	0x9f
	.byte	0
.LVUS338:
	.uleb128 .LVU379
	.uleb128 .LVU391
	.uleb128 .LVU391
	.uleb128 .LVU391
.LLST338:
	.byte	0x6
	.quad	.LVL77
	.byte	0x4
	.uleb128 .LVL77-.LVL77
	.uleb128 .LVL78-1-.LVL77
	.uleb128 0x1
	.byte	0x50
	.byte	0x4
	.uleb128 .LVL78-1-.LVL77
	.uleb128 .LVL78-.LVL77
	.uleb128 0x1
	.byte	0x5d
	.byte	0
.LVUS339:
	.uleb128 .LVU379
	.uleb128 .LVU391
.LLST339:
	.byte	0x8
	.quad	.LVL77
	.uleb128 .LVL78-.LVL77
	.uleb128 0x4
	.byte	0xa
	.value	0x1800
	.byte	0x9f
	.byte	0
.LVUS340:
	.uleb128 .LVU380
	.uleb128 .LVU1112
	.uleb128 .LVU1187
	.uleb128 .LVU1194
.LLST340:
	.byte	0x6
	.quad	.LVL77
	.byte	0x4
	.uleb128 .LVL77-.LVL77
	.uleb128 .LVL204-.LVL77
	.uleb128 0x2
	.byte	0x31
	.byte	0x9f
	.byte	0x4
	.uleb128 .LVL217-.LVL77
	.uleb128 .LVL221-.LVL77
	.uleb128 0x2
	.byte	0x31
	.byte	0x9f
	.byte	0
.LVUS342:
	.uleb128 .LVU380
	.uleb128 .LVU391
	.uleb128 .LVU391
	.uleb128 .LVU391
.LLST342:
	.byte	0x6
	.quad	.LVL77
	.byte	0x4
	.uleb128 .LVL77-.LVL77
	.uleb128 .LVL78-1-.LVL77
	.uleb128 0x1
	.byte	0x50
	.byte	0x4
	.uleb128 .LVL78-1-.LVL77
	.uleb128 .LVL78-.LVL77
	.uleb128 0x1
	.byte	0x5d
	.byte	0
.LVUS343:
	.uleb128 .LVU380
	.uleb128 .LVU391
.LLST343:
	.byte	0x8
	.quad	.LVL77
	.uleb128 .LVL78-.LVL77
	.uleb128 0x4
	.byte	0xa
	.value	0x1800
	.byte	0x9f
	.byte	0
.LVUS345:
	.uleb128 .LVU381
	.uleb128 .LVU383
	.uleb128 .LVU383
	.uleb128 .LVU391
	.uleb128 .LVU391
	.uleb128 .LVU391
.LLST345:
	.byte	0x6
	.quad	.LVL77
	.byte	0x4
	.uleb128 .LVL77-.LVL77
	.uleb128 .LVL77-.LVL77
	.uleb128 0x1
	.byte	0x50
	.byte	0x4
	.uleb128 .LVL77-.LVL77
	.uleb128 .LVL78-1-.LVL77
	.uleb128 0x1
	.byte	0x55
	.byte	0x4
	.uleb128 .LVL78-1-.LVL77
	.uleb128 .LVL78-.LVL77
	.uleb128 0x3
	.byte	0x7d
	.sleb128 4
	.byte	0x9f
	.byte	0
.LVUS346:
	.uleb128 .LVU381
	.uleb128 .LVU391
.LLST346:
	.byte	0x8
	.quad	.LVL77
	.uleb128 .LVL78-.LVL77
	.uleb128 0x4
	.byte	0xa
	.value	0x1800
	.byte	0x9f
	.byte	0
.LVUS348:
	.uleb128 .LVU382
	.uleb128 .LVU391
	.uleb128 .LVU391
	.uleb128 .LVU400
	.uleb128 .LVU400
	.uleb128 .LVU1110
	.uleb128 .LVU1110
	.uleb128 .LVU1111
	.uleb128 .LVU1111
	.uleb128 .LVU1112
	.uleb128 .LVU1187
	.uleb128 .LVU1194
.LLST348:
	.byte	0x6
	.quad	.LVL77
	.byte	0x4
	.uleb128 .LVL77-.LVL77
	.uleb128 .LVL78-1-.LVL77
	.uleb128 0x1
	.byte	0x50
	.byte	0x4
	.uleb128 .LVL78-1-.LVL77
	.uleb128 .LVL79-.LVL77
	.uleb128 0x1
	.byte	0x5d
	.byte	0x4
	.uleb128 .LVL79-.LVL77
	.uleb128 .LVL202-.LVL77
	.uleb128 0x2
	.byte	0x77
	.sleb128 40
	.byte	0x4
	.uleb128 .LVL202-.LVL77
	.uleb128 .LVL203-.LVL77
	.uleb128 0x8
	.byte	0x76
	.sleb128 -40
	.byte	0x9
	.byte	0xe0
	.byte	0x1a
	.byte	0x8
	.byte	0xf8
	.byte	0x1c
	.byte	0x4
	.uleb128 .LVL203-.LVL77
	.uleb128 .LVL204-.LVL77
	.uleb128 0x8
	.byte	0x77
	.sleb128 -48
	.byte	0x9
	.byte	0xe0
	.byte	0x1a
	.byte	0x8
	.byte	0xf8
	.byte	0x1c
	.byte	0x4
	.uleb128 .LVL217-.LVL77
	.uleb128 .LVL221-.LVL77
	.uleb128 0x2
	.byte	0x77
	.sleb128 40
	.byte	0
.LVUS350:
	.uleb128 .LVU382
	.uleb128 .LVU383
.LLST350:
	.byte	0x8
	.quad	.LVL77
	.uleb128 .LVL77-.LVL77
	.uleb128 0x1
	.byte	0x50
	.byte	0
.LVUS352:
	.uleb128 .LVU383
	.uleb128 .LVU391
	.uleb128 .LVU391
	.uleb128 .LVU391
.LLST352:
	.byte	0x6
	.quad	.LVL77
	.byte	0x4
	.uleb128 .LVL77-.LVL77
	.uleb128 .LVL78-1-.LVL77
	.uleb128 0x1
	.byte	0x55
	.byte	0x4
	.uleb128 .LVL78-1-.LVL77
	.uleb128 .LVL78-.LVL77
	.uleb128 0x3
	.byte	0x7d
	.sleb128 4
	.byte	0x9f
	.byte	0
.LVUS353:
	.uleb128 .LVU383
	.uleb128 .LVU391
.LLST353:
	.byte	0x8
	.quad	.LVL77
	.uleb128 .LVL78-.LVL77
	.uleb128 0x4
	.byte	0xa
	.value	0x17ff
	.byte	0x9f
	.byte	0
.LVUS354:
	.uleb128 .LVU383
	.uleb128 .LVU391
	.uleb128 .LVU391
	.uleb128 .LVU391
.LLST354:
	.byte	0x6
	.quad	.LVL77
	.byte	0x4
	.uleb128 .LVL77-.LVL77
	.uleb128 .LVL78-1-.LVL77
	.uleb128 0x1
	.byte	0x50
	.byte	0x4
	.uleb128 .LVL78-1-.LVL77
	.uleb128 .LVL78-.LVL77
	.uleb128 0x1
	.byte	0x5d
	.byte	0
.LVUS355:
	.uleb128 .LVU385
	.uleb128 .LVU391
	.uleb128 .LVU391
	.uleb128 .LVU391
.LLST355:
	.byte	0x6
	.quad	.LVL77
	.byte	0x4
	.uleb128 .LVL77-.LVL77
	.uleb128 .LVL78-1-.LVL77
	.uleb128 0x1
	.byte	0x55
	.byte	0x4
	.uleb128 .LVL78-1-.LVL77
	.uleb128 .LVL78-.LVL77
	.uleb128 0x3
	.byte	0x7d
	.sleb128 4
	.byte	0x9f
	.byte	0
.LVUS356:
	.uleb128 .LVU385
	.uleb128 .LVU391
.LLST356:
	.byte	0x8
	.quad	.LVL77
	.uleb128 .LVL78-.LVL77
	.uleb128 0x4
	.byte	0xa
	.value	0x17ff
	.byte	0x9f
	.byte	0
.LVUS357:
	.uleb128 .LVU385
	.uleb128 .LVU391
	.uleb128 .LVU391
	.uleb128 .LVU391
.LLST357:
	.byte	0x6
	.quad	.LVL77
	.byte	0x4
	.uleb128 .LVL77-.LVL77
	.uleb128 .LVL78-1-.LVL77
	.uleb128 0x1
	.byte	0x50
	.byte	0x4
	.uleb128 .LVL78-1-.LVL77
	.uleb128 .LVL78-.LVL77
	.uleb128 0x1
	.byte	0x5d
	.byte	0
.LVUS358:
	.uleb128 .LVU386
	.uleb128 .LVU1112
	.uleb128 .LVU1187
	.uleb128 .LVU1194
.LLST358:
	.byte	0x6
	.quad	.LVL77
	.byte	0x4
	.uleb128 .LVL77-.LVL77
	.uleb128 .LVL204-.LVL77
	.uleb128 0x4
	.byte	0xa
	.value	0x17ff
	.byte	0x9f
	.byte	0x4
	.uleb128 .LVL217-.LVL77
	.uleb128 .LVL221-.LVL77
	.uleb128 0x4
	.byte	0xa
	.value	0x17ff
	.byte	0x9f
	.byte	0
.LVUS359:
	.uleb128 .LVU386
	.uleb128 .LVU391
	.uleb128 .LVU391
	.uleb128 .LVU391
.LLST359:
	.byte	0x6
	.quad	.LVL77
	.byte	0x4
	.uleb128 .LVL77-.LVL77
	.uleb128 .LVL78-1-.LVL77
	.uleb128 0x5
	.byte	0x70
	.sleb128 24576
	.byte	0x9f
	.byte	0x4
	.uleb128 .LVL78-1-.LVL77
	.uleb128 .LVL78-.LVL77
	.uleb128 0x5
	.byte	0x7d
	.sleb128 24576
	.byte	0x9f
	.byte	0
.LVUS361:
	.uleb128 .LVU386
	.uleb128 .LVU391
	.uleb128 .LVU391
	.uleb128 .LVU391
.LLST361:
	.byte	0x6
	.quad	.LVL77
	.byte	0x4
	.uleb128 .LVL77-.LVL77
	.uleb128 .LVL78-1-.LVL77
	.uleb128 0x1
	.byte	0x55
	.byte	0x4
	.uleb128 .LVL78-1-.LVL77
	.uleb128 .LVL78-.LVL77
	.uleb128 0x3
	.byte	0x7d
	.sleb128 4
	.byte	0x9f
	.byte	0
.LVUS363:
	.uleb128 .LVU386
	.uleb128 .LVU391
	.uleb128 .LVU391
	.uleb128 .LVU391
.LLST363:
	.byte	0x6
	.quad	.LVL77
	.byte	0x4
	.uleb128 .LVL77-.LVL77
	.uleb128 .LVL78-1-.LVL77
	.uleb128 0x1
	.byte	0x50
	.byte	0x4
	.uleb128 .LVL78-1-.LVL77
	.uleb128 .LVL78-.LVL77
	.uleb128 0x1
	.byte	0x5d
	.byte	0
.LVUS365:
	.uleb128 .LVU387
	.uleb128 .LVU391
	.uleb128 .LVU391
	.uleb128 .LVU391
.LLST365:
	.byte	0x6
	.quad	.LVL77
	.byte	0x4
	.uleb128 .LVL77-.LVL77
	.uleb128 .LVL78-1-.LVL77
	.uleb128 0x1
	.byte	0x55
	.byte	0x4
	.uleb128 .LVL78-1-.LVL77
	.uleb128 .LVL78-.LVL77
	.uleb128 0x3
	.byte	0x7d
	.sleb128 4
	.byte	0x9f
	.byte	0
.LVUS366:
	.uleb128 .LVU387
	.uleb128 .LVU391
	.uleb128 .LVU391
	.uleb128 .LVU391
.LLST366:
	.byte	0x6
	.quad	.LVL77
	.byte	0x4
	.uleb128 .LVL77-.LVL77
	.uleb128 .LVL78-1-.LVL77
	.uleb128 0x5
	.byte	0x70
	.sleb128 24576
	.byte	0x9f
	.byte	0x4
	.uleb128 .LVL78-1-.LVL77
	.uleb128 .LVL78-.LVL77
	.uleb128 0x5
	.byte	0x7d
	.sleb128 24576
	.byte	0x9f
	.byte	0
.LVUS367:
	.uleb128 .LVU387
	.uleb128 .LVU391
	.uleb128 .LVU391
	.uleb128 .LVU391
.LLST367:
	.byte	0x6
	.quad	.LVL77
	.byte	0x4
	.uleb128 .LVL77-.LVL77
	.uleb128 .LVL78-1-.LVL77
	.uleb128 0x1
	.byte	0x50
	.byte	0x4
	.uleb128 .LVL78-1-.LVL77
	.uleb128 .LVL78-.LVL77
	.uleb128 0x1
	.byte	0x5d
	.byte	0
.LVUS368:
	.uleb128 .LVU388
	.uleb128 .LVU1112
	.uleb128 .LVU1187
	.uleb128 .LVU1194
.LLST368:
	.byte	0x6
	.quad	.LVL77
	.byte	0x4
	.uleb128 .LVL77-.LVL77
	.uleb128 .LVL204-.LVL77
	.uleb128 0x2
	.byte	0x31
	.byte	0x9f
	.byte	0x4
	.uleb128 .LVL217-.LVL77
	.uleb128 .LVL221-.LVL77
	.uleb128 0x2
	.byte	0x31
	.byte	0x9f
	.byte	0
.LVUS369:
	.uleb128 .LVU388
	.uleb128 .LVU391
.LLST369:
	.byte	0x8
	.quad	.LVL77
	.uleb128 .LVL78-.LVL77
	.uleb128 0x6
	.byte	0x9e
	.uleb128 0x4
	.long	0
	.byte	0
.LVUS487:
	.uleb128 .LVU1051
	.uleb128 .LVU1112
.LLST487:
	.byte	0x8
	.quad	.LVL194
	.uleb128 .LVL204-.LVL194
	.uleb128 0x4
	.byte	0xa
	.value	0x1800
	.byte	0x9f
	.byte	0
.LVUS488:
	.uleb128 .LVU1051
	.uleb128 .LVU1055
.LLST488:
	.byte	0x8
	.quad	.LVL194
	.uleb128 .LVL195-.LVL194
	.uleb128 0x2
	.byte	0x77
	.sleb128 40
	.byte	0
.LVUS489:
	.uleb128 .LVU1051
	.uleb128 .LVU1055
.LLST489:
	.byte	0x8
	.quad	.LVL194
	.uleb128 .LVL195-.LVL194
	.uleb128 0x4
	.byte	0xa
	.value	0x1800
	.byte	0x9f
	.byte	0
.LVUS490:
	.uleb128 .LVU1052
	.uleb128 .LVU1055
.LLST490:
	.byte	0x8
	.quad	.LVL194
	.uleb128 .LVL195-.LVL194
	.uleb128 0x2
	.byte	0x77
	.sleb128 40
	.byte	0
.LVUS491:
	.uleb128 .LVU1052
	.uleb128 .LVU1055
.LLST491:
	.byte	0x8
	.quad	.LVL194
	.uleb128 .LVL195-.LVL194
	.uleb128 0x4
	.byte	0xa
	.value	0x1800
	.byte	0x9f
	.byte	0
.LVUS492:
	.uleb128 .LVU1053
	.uleb128 .LVU1055
.LLST492:
	.byte	0x8
	.quad	.LVL194
	.uleb128 .LVL195-.LVL194
	.uleb128 0x2
	.byte	0x77
	.sleb128 40
	.byte	0
.LVUS493:
	.uleb128 .LVU1053
	.uleb128 .LVU1055
.LLST493:
	.byte	0x8
	.quad	.LVL194
	.uleb128 .LVL195-.LVL194
	.uleb128 0x4
	.byte	0xa
	.value	0x1800
	.byte	0x9f
	.byte	0
.LVUS494:
	.uleb128 .LVU1066
	.uleb128 .LVU1082
.LLST494:
	.byte	0x8
	.quad	.LVL195
	.uleb128 .LVL197-.LVL195
	.uleb128 0x5
	.byte	0x7f
	.sleb128 0
	.byte	0x34
	.byte	0x1b
	.byte	0x9f
	.byte	0
.LVUS495:
	.uleb128 .LVU1066
	.uleb128 .LVU1071
.LLST495:
	.byte	0x8
	.quad	.LVL195
	.uleb128 .LVL197-.LVL195
	.uleb128 0x1
	.byte	0x53
	.byte	0
.LVUS496:
	.uleb128 .LVU1066
	.uleb128 .LVU1071
.LLST496:
	.byte	0x8
	.quad	.LVL195
	.uleb128 .LVL197-.LVL195
	.uleb128 0x5
	.byte	0x7f
	.sleb128 0
	.byte	0x34
	.byte	0x1b
	.byte	0x9f
	.byte	0
.LVUS497:
	.uleb128 .LVU1068
	.uleb128 .LVU1071
.LLST497:
	.byte	0x8
	.quad	.LVL196
	.uleb128 .LVL197-.LVL196
	.uleb128 0x1
	.byte	0x53
	.byte	0
.LVUS498:
	.uleb128 .LVU1068
	.uleb128 .LVU1071
.LLST498:
	.byte	0x8
	.quad	.LVL196
	.uleb128 .LVL197-.LVL196
	.uleb128 0x5
	.byte	0x7f
	.sleb128 0
	.byte	0x34
	.byte	0x1b
	.byte	0x9f
	.byte	0
.LVUS499:
	.uleb128 .LVU1069
	.uleb128 .LVU1071
.LLST499:
	.byte	0x8
	.quad	.LVL196
	.uleb128 .LVL197-.LVL196
	.uleb128 0x1
	.byte	0x53
	.byte	0
.LVUS500:
	.uleb128 .LVU1069
	.uleb128 .LVU1071
.LLST500:
	.byte	0x8
	.quad	.LVL196
	.uleb128 .LVL197-.LVL196
	.uleb128 0x5
	.byte	0x7f
	.sleb128 0
	.byte	0x34
	.byte	0x1b
	.byte	0x9f
	.byte	0
.LVUS501:
	.uleb128 .LVU1082
	.uleb128 .LVU1087
.LLST501:
	.byte	0x8
	.quad	.LVL197
	.uleb128 .LVL199-.LVL197
	.uleb128 0x3
	.byte	0x77
	.sleb128 80
	.byte	0
.LVUS502:
	.uleb128 .LVU1084
	.uleb128 .LVU1087
.LLST502:
	.byte	0x8
	.quad	.LVL198
	.uleb128 .LVL199-.LVL198
	.uleb128 0x3
	.byte	0x77
	.sleb128 80
	.byte	0
.LVUS503:
	.uleb128 .LVU1085
	.uleb128 .LVU1087
.LLST503:
	.byte	0x8
	.quad	.LVL198
	.uleb128 .LVL199-.LVL198
	.uleb128 0x3
	.byte	0x77
	.sleb128 80
	.byte	0
.LVUS507:
	.uleb128 .LVU1289
	.uleb128 .LVU1296
	.uleb128 .LVU1355
	.uleb128 .LVU1360
.LLST507:
	.byte	0x6
	.quad	.LVL253
	.byte	0x4
	.uleb128 .LVL253-.LVL253
	.uleb128 .LVL255-.LVL253
	.uleb128 0x5
	.byte	0x7f
	.sleb128 0
	.byte	0x34
	.byte	0x1b
	.byte	0x9f
	.byte	0x4
	.uleb128 .LVL266-.LVL253
	.uleb128 .LVL269-.LVL253
	.uleb128 0x5
	.byte	0x7f
	.sleb128 0
	.byte	0x34
	.byte	0x1b
	.byte	0x9f
	.byte	0
.LVUS508:
	.uleb128 .LVU1289
	.uleb128 .LVU1291
	.uleb128 .LVU1355
	.uleb128 .LVU1360
.LLST508:
	.byte	0x6
	.quad	.LVL253
	.byte	0x4
	.uleb128 .LVL253-.LVL253
	.uleb128 .LVL254-.LVL253
	.uleb128 0x1
	.byte	0x53
	.byte	0x4
	.uleb128 .LVL266-.LVL253
	.uleb128 .LVL269-.LVL253
	.uleb128 0x1
	.byte	0x53
	.byte	0
.LVUS509:
	.uleb128 .LVU1289
	.uleb128 .LVU1291
	.uleb128 .LVU1355
	.uleb128 .LVU1360
.LLST509:
	.byte	0x6
	.quad	.LVL253
	.byte	0x4
	.uleb128 .LVL253-.LVL253
	.uleb128 .LVL254-.LVL253
	.uleb128 0x5
	.byte	0x7f
	.sleb128 0
	.byte	0x34
	.byte	0x1b
	.byte	0x9f
	.byte	0x4
	.uleb128 .LVL266-.LVL253
	.uleb128 .LVL269-.LVL253
	.uleb128 0x5
	.byte	0x7f
	.sleb128 0
	.byte	0x34
	.byte	0x1b
	.byte	0x9f
	.byte	0
.LVUS510:
	.uleb128 .LVU1355
	.uleb128 .LVU1359
.LLST510:
	.byte	0x8
	.quad	.LVL266
	.uleb128 .LVL268-.LVL266
	.uleb128 0x1
	.byte	0x53
	.byte	0
.LVUS511:
	.uleb128 .LVU1355
	.uleb128 .LVU1359
.LLST511:
	.byte	0x8
	.quad	.LVL266
	.uleb128 .LVL268-.LVL266
	.uleb128 0x5
	.byte	0x7f
	.sleb128 0
	.byte	0x34
	.byte	0x1b
	.byte	0x9f
	.byte	0
.LVUS512:
	.uleb128 .LVU1357
	.uleb128 .LVU1359
.LLST512:
	.byte	0x8
	.quad	.LVL266
	.uleb128 .LVL268-.LVL266
	.uleb128 0x1
	.byte	0x53
	.byte	0
.LVUS513:
	.uleb128 .LVU1357
	.uleb128 .LVU1359
.LLST513:
	.byte	0x8
	.quad	.LVL266
	.uleb128 .LVL268-.LVL266
	.uleb128 0x5
	.byte	0x7f
	.sleb128 0
	.byte	0x34
	.byte	0x1b
	.byte	0x9f
	.byte	0
.LVUS516:
	.uleb128 .LVU1305
	.uleb128 .LVU1314
.LLST516:
	.byte	0x8
	.quad	.LVL256
	.uleb128 .LVL258-.LVL256
	.uleb128 0x7
	.byte	0x77
	.sleb128 72
	.byte	0x6
	.byte	0x34
	.byte	0x1b
	.byte	0x9f
	.byte	0
.LVUS517:
	.uleb128 .LVU1305
	.uleb128 .LVU1310
.LLST517:
	.byte	0x8
	.quad	.LVL256
	.uleb128 .LVL258-.LVL256
	.uleb128 0x3
	.byte	0x77
	.sleb128 80
	.byte	0
.LVUS518:
	.uleb128 .LVU1305
	.uleb128 .LVU1310
.LLST518:
	.byte	0x8
	.quad	.LVL256
	.uleb128 .LVL258-.LVL256
	.uleb128 0x7
	.byte	0x77
	.sleb128 72
	.byte	0x6
	.byte	0x34
	.byte	0x1b
	.byte	0x9f
	.byte	0
.LVUS519:
	.uleb128 .LVU1307
	.uleb128 .LVU1310
.LLST519:
	.byte	0x8
	.quad	.LVL257
	.uleb128 .LVL258-.LVL257
	.uleb128 0x3
	.byte	0x77
	.sleb128 80
	.byte	0
.LVUS520:
	.uleb128 .LVU1307
	.uleb128 .LVU1310
.LLST520:
	.byte	0x8
	.quad	.LVL257
	.uleb128 .LVL258-.LVL257
	.uleb128 0x7
	.byte	0x77
	.sleb128 72
	.byte	0x6
	.byte	0x34
	.byte	0x1b
	.byte	0x9f
	.byte	0
.LVUS521:
	.uleb128 .LVU1308
	.uleb128 .LVU1310
.LLST521:
	.byte	0x8
	.quad	.LVL257
	.uleb128 .LVL258-.LVL257
	.uleb128 0x3
	.byte	0x77
	.sleb128 80
	.byte	0
.LVUS522:
	.uleb128 .LVU1308
	.uleb128 .LVU1310
.LLST522:
	.byte	0x8
	.quad	.LVL257
	.uleb128 .LVL258-.LVL257
	.uleb128 0x7
	.byte	0x77
	.sleb128 72
	.byte	0x6
	.byte	0x34
	.byte	0x1b
	.byte	0x9f
	.byte	0
.LVUS524:
	.uleb128 .LVU1314
	.uleb128 .LVU1332
.LLST524:
	.byte	0x8
	.quad	.LVL258
	.uleb128 .LVL260-.LVL258
	.uleb128 0x6
	.byte	0xa0
	.long	.Ldebug_info0+52897
	.sleb128 0
	.byte	0
.LVUS525:
	.uleb128 .LVU1316
	.uleb128 .LVU1317
.LLST525:
	.byte	0x8
	.quad	.LVL258
	.uleb128 .LVL258-.LVL258
	.uleb128 0x6
	.byte	0xa0
	.long	.Ldebug_info0+52897
	.sleb128 0
	.byte	0
.LVUS526:
	.uleb128 .LVU1317
	.uleb128 .LVU1319
.LLST526:
	.byte	0x8
	.quad	.LVL258
	.uleb128 .LVL258-.LVL258
	.uleb128 0x6
	.byte	0xa0
	.long	.Ldebug_info0+52897
	.sleb128 0
	.byte	0
.LVUS528:
	.uleb128 .LVU1319
	.uleb128 .LVU1332
.LLST528:
	.byte	0x8
	.quad	.LVL258
	.uleb128 .LVL260-.LVL258
	.uleb128 0x6
	.byte	0xa0
	.long	.Ldebug_info0+52897
	.sleb128 0
	.byte	0
.LVUS531:
	.uleb128 .LVU1321
	.uleb128 .LVU1328
.LLST531:
	.byte	0x8
	.quad	.LVL258
	.uleb128 .LVL260-.LVL258
	.uleb128 0x6
	.byte	0xa0
	.long	.Ldebug_info0+52897
	.sleb128 0
	.byte	0
.LVUS533:
	.uleb128 .LVU1324
	.uleb128 .LVU1328
.LLST533:
	.byte	0x8
	.quad	.LVL259
	.uleb128 .LVL260-.LVL259
	.uleb128 0x6
	.byte	0xa0
	.long	.Ldebug_info0+52897
	.sleb128 0
	.byte	0
.LVUS536:
	.uleb128 .LVU1328
	.uleb128 .LVU1332
.LLST536:
	.byte	0x8
	.quad	.LVL260
	.uleb128 .LVL260-.LVL260
	.uleb128 0x6
	.byte	0xa0
	.long	.Ldebug_info0+52897
	.sleb128 0
	.byte	0
.LVUS537:
	.uleb128 .LVU1330
	.uleb128 .LVU1332
.LLST537:
	.byte	0x8
	.quad	.LVL260
	.uleb128 .LVL260-.LVL260
	.uleb128 0x6
	.byte	0xa0
	.long	.Ldebug_info0+52897
	.sleb128 0
	.byte	0
.LVUS538:
	.uleb128 .LVU1331
	.uleb128 .LVU1332
.LLST538:
	.byte	0x8
	.quad	.LVL260
	.uleb128 .LVL260-.LVL260
	.uleb128 0x6
	.byte	0xa0
	.long	.Ldebug_info0+52897
	.sleb128 0
	.byte	0
.LVUS539:
	.uleb128 .LVU1335
	.uleb128 .LVU1354
.LLST539:
	.byte	0x8
	.quad	.LVL262
	.uleb128 .LVL265-.LVL262
	.uleb128 0x3
	.byte	0x77
	.sleb128 128
	.byte	0
.LVUS541:
	.uleb128 .LVU1337
	.uleb128 .LVU1354
.LLST541:
	.byte	0x8
	.quad	.LVL262
	.uleb128 .LVL265-.LVL262
	.uleb128 0x7
	.byte	0x77
	.sleb128 128
	.byte	0x6
	.byte	0x23
	.uleb128 0x10
	.byte	0x9f
	.byte	0
.LVUS543:
	.uleb128 .LVU1341
	.uleb128 .LVU1354
.LLST543:
	.byte	0x8
	.quad	.LVL262
	.uleb128 .LVL265-.LVL262
	.uleb128 0x7
	.byte	0x77
	.sleb128 128
	.byte	0x6
	.byte	0x23
	.uleb128 0x10
	.byte	0x9f
	.byte	0
.LVUS545:
	.uleb128 .LVU1344
	.uleb128 .LVU1350
.LLST545:
	.byte	0x8
	.quad	.LVL263
	.uleb128 .LVL265-1-.LVL263
	.uleb128 0xb
	.byte	0x77
	.sleb128 128
	.byte	0x6
	.byte	0x23
	.uleb128 0x20
	.byte	0x6
	.byte	0x75
	.sleb128 0
	.byte	0x1c
	.byte	0x9f
	.byte	0
.LVUS547:
	.uleb128 .LVU1344
	.uleb128 .LVU1350
.LLST547:
	.byte	0x8
	.quad	.LVL263
	.uleb128 .LVL265-.LVL263
	.uleb128 0x7
	.byte	0x77
	.sleb128 128
	.byte	0x6
	.byte	0x23
	.uleb128 0x10
	.byte	0x9f
	.byte	0
.LVUS548:
	.uleb128 .LVU1344
	.uleb128 .LVU1350
.LLST548:
	.byte	0x8
	.quad	.LVL263
	.uleb128 .LVL265-1-.LVL263
	.uleb128 0x1
	.byte	0x55
	.byte	0
.LVUS551:
	.uleb128 .LVU1346
	.uleb128 .LVU1350
.LLST551:
	.byte	0x8
	.quad	.LVL264
	.uleb128 .LVL265-.LVL264
	.uleb128 0x7
	.byte	0x77
	.sleb128 128
	.byte	0x6
	.byte	0x23
	.uleb128 0x10
	.byte	0x9f
	.byte	0
.LVUS552:
	.uleb128 .LVU1346
	.uleb128 .LVU1350
.LLST552:
	.byte	0x8
	.quad	.LVL264
	.uleb128 .LVL265-1-.LVL264
	.uleb128 0x1
	.byte	0x55
	.byte	0
.LVUS553:
	.uleb128 .LVU1346
	.uleb128 .LVU1350
.LLST553:
	.byte	0x8
	.quad	.LVL264
	.uleb128 .LVL265-1-.LVL264
	.uleb128 0xb
	.byte	0x77
	.sleb128 128
	.byte	0x6
	.byte	0x23
	.uleb128 0x20
	.byte	0x6
	.byte	0x75
	.sleb128 0
	.byte	0x1c
	.byte	0x9f
	.byte	0
.LVUS554:
	.uleb128 .LVU1347
	.uleb128 .LVU1350
.LLST554:
	.byte	0x8
	.quad	.LVL264
	.uleb128 .LVL265-.LVL264
	.uleb128 0x7
	.byte	0x77
	.sleb128 128
	.byte	0x6
	.byte	0x23
	.uleb128 0x10
	.byte	0x9f
	.byte	0
.LVUS555:
	.uleb128 .LVU1347
	.uleb128 .LVU1350
.LLST555:
	.byte	0x8
	.quad	.LVL264
	.uleb128 .LVL265-1-.LVL264
	.uleb128 0x1
	.byte	0x55
	.byte	0
.LVUS556:
	.uleb128 .LVU1347
	.uleb128 .LVU1350
.LLST556:
	.byte	0x8
	.quad	.LVL264
	.uleb128 .LVL265-1-.LVL264
	.uleb128 0xb
	.byte	0x77
	.sleb128 128
	.byte	0x6
	.byte	0x23
	.uleb128 0x20
	.byte	0x6
	.byte	0x75
	.sleb128 0
	.byte	0x1c
	.byte	0x9f
	.byte	0
.LVUS557:
	.uleb128 .LVU1350
	.uleb128 .LVU1354
.LLST557:
	.byte	0x8
	.quad	.LVL265
	.uleb128 .LVL265-.LVL265
	.uleb128 0x7
	.byte	0x77
	.sleb128 128
	.byte	0x6
	.byte	0x23
	.uleb128 0x10
	.byte	0x9f
	.byte	0
.LVUS558:
	.uleb128 .LVU1352
	.uleb128 .LVU1354
.LLST558:
	.byte	0x8
	.quad	.LVL265
	.uleb128 .LVL265-.LVL265
	.uleb128 0x7
	.byte	0x77
	.sleb128 128
	.byte	0x6
	.byte	0x23
	.uleb128 0x10
	.byte	0x9f
	.byte	0
.LVUS559:
	.uleb128 .LVU1353
	.uleb128 .LVU1354
.LLST559:
	.byte	0x8
	.quad	.LVL265
	.uleb128 .LVL265-.LVL265
	.uleb128 0x7
	.byte	0x77
	.sleb128 128
	.byte	0x6
	.byte	0x23
	.uleb128 0x10
	.byte	0x9f
	.byte	0
.LVUS560:
	.uleb128 .LVU1338
	.uleb128 .LVU1339
.LLST560:
	.byte	0x8
	.quad	.LVL262
	.uleb128 .LVL262-.LVL262
	.uleb128 0x7
	.byte	0x77
	.sleb128 128
	.byte	0x6
	.byte	0x23
	.uleb128 0x10
	.byte	0x9f
	.byte	0
.LVUS561:
	.uleb128 .LVU1339
	.uleb128 .LVU1341
.LLST561:
	.byte	0x8
	.quad	.LVL262
	.uleb128 .LVL262-.LVL262
	.uleb128 0x6
	.byte	0x77
	.sleb128 128
	.byte	0x6
	.byte	0x23
	.uleb128 0x10
	.byte	0
.LVUS562:
	.uleb128 .LVU1339
	.uleb128 .LVU1341
.LLST562:
	.byte	0x8
	.quad	.LVL262
	.uleb128 .LVL262-.LVL262
	.uleb128 0x6
	.byte	0x77
	.sleb128 128
	.byte	0x6
	.byte	0x23
	.uleb128 0x18
	.byte	0
.LVUS563:
	.uleb128 .LVU1339
	.uleb128 .LVU1341
.LLST563:
	.byte	0x8
	.quad	.LVL262
	.uleb128 .LVL262-.LVL262
	.uleb128 0x7
	.byte	0x77
	.sleb128 128
	.byte	0x6
	.byte	0x23
	.uleb128 0x10
	.byte	0x9f
	.byte	0
.Ldebug_loc3:
	.section	.debug_aranges,"",@progbits
	.long	0x3c
	.value	0x2
	.long	.Ldebug_info0
	.byte	0x8
	.byte	0
	.value	0
	.value	0
	.quad	.Ltext0
	.quad	.Letext0-.Ltext0
	.quad	.Ltext_cold0
	.quad	.Letext_cold0-.Ltext_cold0
	.quad	0
	.quad	0
	.section	.debug_rnglists,"",@progbits
.Ldebug_ranges0:
	.long	.Ldebug_ranges3-.Ldebug_ranges2
.Ldebug_ranges2:
	.value	0x5
	.byte	0x8
	.byte	0
	.long	0
.LLRL0:
	.byte	0x7
	.quad	.LFB11707
	.uleb128 .LHOTE5-.LFB11707
	.byte	0x7
	.quad	.LFSB11707
	.uleb128 .LCOLDE5-.LFSB11707
	.byte	0
.LLRL7:
	.byte	0x5
	.quad	.LBB2126
	.byte	0x4
	.uleb128 .LBB2126-.LBB2126
	.uleb128 .LBE2126-.LBB2126
	.byte	0x4
	.uleb128 .LBB2150-.LBB2126
	.uleb128 .LBE2150-.LBB2126
	.byte	0x4
	.uleb128 .LBB2154-.LBB2126
	.uleb128 .LBE2154-.LBB2126
	.byte	0
.LLRL12:
	.byte	0x5
	.quad	.LBB2130
	.byte	0x4
	.uleb128 .LBB2130-.LBB2130
	.uleb128 .LBE2130-.LBB2130
	.byte	0x4
	.uleb128 .LBB2133-.LBB2130
	.uleb128 .LBE2133-.LBB2130
	.byte	0x4
	.uleb128 .LBB2136-.LBB2130
	.uleb128 .LBE2136-.LBB2130
	.byte	0
.LLRL16:
	.byte	0x5
	.quad	.LBB2143
	.byte	0x4
	.uleb128 .LBB2143-.LBB2143
	.uleb128 .LBE2143-.LBB2143
	.byte	0x4
	.uleb128 .LBB2149-.LBB2143
	.uleb128 .LBE2149-.LBB2143
	.byte	0
.LLRL23:
	.byte	0x5
	.quad	.LBB2155
	.byte	0x4
	.uleb128 .LBB2155-.LBB2155
	.uleb128 .LBE2155-.LBB2155
	.byte	0x4
	.uleb128 .LBB2909-.LBB2155
	.uleb128 .LBE2909-.LBB2155
	.byte	0x7
	.quad	.LBB2951
	.uleb128 .LBE2951-.LBB2951
	.byte	0
.LLRL30:
	.byte	0x7
	.quad	.LBB2159
	.uleb128 .LBE2159-.LBB2159
	.byte	0x7
	.quad	.LBB2211
	.uleb128 .LBE2211-.LBB2211
	.byte	0
.LLRL31:
	.byte	0x7
	.quad	.LBB2160
	.uleb128 .LBE2160-.LBB2160
	.byte	0x7
	.quad	.LBB2210
	.uleb128 .LBE2210-.LBB2210
	.byte	0
.LLRL36:
	.byte	0x7
	.quad	.LBB2161
	.uleb128 .LBE2161-.LBB2161
	.byte	0x7
	.quad	.LBB2195
	.uleb128 .LBE2195-.LBB2195
	.byte	0
.LLRL41:
	.byte	0x5
	.quad	.LBB2168
	.byte	0x4
	.uleb128 .LBB2168-.LBB2168
	.uleb128 .LBE2168-.LBB2168
	.byte	0x4
	.uleb128 .LBB2193-.LBB2168
	.uleb128 .LBE2193-.LBB2168
	.byte	0
.LLRL52:
	.byte	0x5
	.quad	.LBB2173
	.byte	0x4
	.uleb128 .LBB2173-.LBB2173
	.uleb128 .LBE2173-.LBB2173
	.byte	0x4
	.uleb128 .LBB2181-.LBB2173
	.uleb128 .LBE2181-.LBB2173
	.byte	0
.LLRL62:
	.byte	0x5
	.quad	.LBB2182
	.byte	0x4
	.uleb128 .LBB2182-.LBB2182
	.uleb128 .LBE2182-.LBB2182
	.byte	0x4
	.uleb128 .LBB2194-.LBB2182
	.uleb128 .LBE2194-.LBB2182
	.byte	0
.LLRL73:
	.byte	0x5
	.quad	.LBB2186
	.byte	0x4
	.uleb128 .LBB2186-.LBB2186
	.uleb128 .LBE2186-.LBB2186
	.byte	0x4
	.uleb128 .LBB2189-.LBB2186
	.uleb128 .LBE2189-.LBB2186
	.byte	0
.LLRL74:
	.byte	0x5
	.quad	.LBB2187
	.byte	0x4
	.uleb128 .LBB2187-.LBB2187
	.uleb128 .LBE2187-.LBB2187
	.byte	0x4
	.uleb128 .LBB2188-.LBB2187
	.uleb128 .LBE2188-.LBB2187
	.byte	0
.LLRL92:
	.byte	0x5
	.quad	.LBB2218
	.byte	0x4
	.uleb128 .LBB2218-.LBB2218
	.uleb128 .LBE2218-.LBB2218
	.byte	0x4
	.uleb128 .LBB2382-.LBB2218
	.uleb128 .LBE2382-.LBB2218
	.byte	0x4
	.uleb128 .LBB2910-.LBB2218
	.uleb128 .LBE2910-.LBB2218
	.byte	0x4
	.uleb128 .LBB2915-.LBB2218
	.uleb128 .LBE2915-.LBB2218
	.byte	0x4
	.uleb128 .LBB2917-.LBB2218
	.uleb128 .LBE2917-.LBB2218
	.byte	0x4
	.uleb128 .LBB2919-.LBB2218
	.uleb128 .LBE2919-.LBB2218
	.byte	0x4
	.uleb128 .LBB2921-.LBB2218
	.uleb128 .LBE2921-.LBB2218
	.byte	0
.LLRL96:
	.byte	0x5
	.quad	.LBB2221
	.byte	0x4
	.uleb128 .LBB2221-.LBB2221
	.uleb128 .LBE2221-.LBB2221
	.byte	0x4
	.uleb128 .LBB2231-.LBB2221
	.uleb128 .LBE2231-.LBB2221
	.byte	0
.LLRL99:
	.byte	0x5
	.quad	.LBB2224
	.byte	0x4
	.uleb128 .LBB2224-.LBB2224
	.uleb128 .LBE2224-.LBB2224
	.byte	0x4
	.uleb128 .LBB2230-.LBB2224
	.uleb128 .LBE2230-.LBB2224
	.byte	0x4
	.uleb128 .LBB2232-.LBB2224
	.uleb128 .LBE2232-.LBB2224
	.byte	0x4
	.uleb128 .LBB2233-.LBB2224
	.uleb128 .LBE2233-.LBB2224
	.byte	0x4
	.uleb128 .LBB2234-.LBB2224
	.uleb128 .LBE2234-.LBB2224
	.byte	0x4
	.uleb128 .LBB2235-.LBB2224
	.uleb128 .LBE2235-.LBB2224
	.byte	0x4
	.uleb128 .LBB2236-.LBB2224
	.uleb128 .LBE2236-.LBB2224
	.byte	0
.LLRL101:
	.byte	0x5
	.quad	.LBB2249
	.byte	0x4
	.uleb128 .LBB2249-.LBB2249
	.uleb128 .LBE2249-.LBB2249
	.byte	0x4
	.uleb128 .LBB2264-.LBB2249
	.uleb128 .LBE2264-.LBB2249
	.byte	0x4
	.uleb128 .LBB2911-.LBB2249
	.uleb128 .LBE2911-.LBB2249
	.byte	0x4
	.uleb128 .LBB2913-.LBB2249
	.uleb128 .LBE2913-.LBB2249
	.byte	0
.LLRL103:
	.byte	0x5
	.quad	.LBB2254
	.byte	0x4
	.uleb128 .LBB2254-.LBB2254
	.uleb128 .LBE2254-.LBB2254
	.byte	0x4
	.uleb128 .LBB2265-.LBB2254
	.uleb128 .LBE2265-.LBB2254
	.byte	0x4
	.uleb128 .LBB2912-.LBB2254
	.uleb128 .LBE2912-.LBB2254
	.byte	0x4
	.uleb128 .LBB2914-.LBB2254
	.uleb128 .LBE2914-.LBB2254
	.byte	0
.LLRL112:
	.byte	0x5
	.quad	.LBB2266
	.byte	0x4
	.uleb128 .LBB2266-.LBB2266
	.uleb128 .LBE2266-.LBB2266
	.byte	0x4
	.uleb128 .LBB2381-.LBB2266
	.uleb128 .LBE2381-.LBB2266
	.byte	0x4
	.uleb128 .LBB2383-.LBB2266
	.uleb128 .LBE2383-.LBB2266
	.byte	0x4
	.uleb128 .LBB2918-.LBB2266
	.uleb128 .LBE2918-.LBB2266
	.byte	0x4
	.uleb128 .LBB2920-.LBB2266
	.uleb128 .LBE2920-.LBB2266
	.byte	0x4
	.uleb128 .LBB2924-.LBB2266
	.uleb128 .LBE2924-.LBB2266
	.byte	0x7
	.quad	.LBB2953
	.uleb128 .LBE2953-.LBB2953
	.byte	0
.LLRL115:
	.byte	0x5
	.quad	.LBB2267
	.byte	0x4
	.uleb128 .LBB2267-.LBB2267
	.uleb128 .LBE2267-.LBB2267
	.byte	0x4
	.uleb128 .LBB2377-.LBB2267
	.uleb128 .LBE2377-.LBB2267
	.byte	0
.LLRL118:
	.byte	0x5
	.quad	.LBB2270
	.byte	0x4
	.uleb128 .LBB2270-.LBB2270
	.uleb128 .LBE2270-.LBB2270
	.byte	0x4
	.uleb128 .LBB2378-.LBB2270
	.uleb128 .LBE2378-.LBB2270
	.byte	0
.LLRL121:
	.byte	0x5
	.quad	.LBB2273
	.byte	0x4
	.uleb128 .LBB2273-.LBB2273
	.uleb128 .LBE2273-.LBB2273
	.byte	0x4
	.uleb128 .LBB2379-.LBB2273
	.uleb128 .LBE2379-.LBB2273
	.byte	0x7
	.quad	.LBB2380
	.uleb128 .LBE2380-.LBB2380
	.byte	0
.LLRL129:
	.byte	0x5
	.quad	.LBB2279
	.byte	0x4
	.uleb128 .LBB2279-.LBB2279
	.uleb128 .LBE2279-.LBB2279
	.byte	0x4
	.uleb128 .LBB2281-.LBB2279
	.uleb128 .LBE2281-.LBB2279
	.byte	0
.LLRL131:
	.byte	0x5
	.quad	.LBB2283
	.byte	0x4
	.uleb128 .LBB2283-.LBB2283
	.uleb128 .LBE2283-.LBB2283
	.byte	0x4
	.uleb128 .LBB2285-.LBB2283
	.uleb128 .LBE2285-.LBB2283
	.byte	0
.LLRL133:
	.byte	0x5
	.quad	.LBB2286
	.byte	0x4
	.uleb128 .LBB2286-.LBB2286
	.uleb128 .LBE2286-.LBB2286
	.byte	0x4
	.uleb128 .LBB2371-.LBB2286
	.uleb128 .LBE2371-.LBB2286
	.byte	0
.LLRL135:
	.byte	0x5
	.quad	.LBB2288
	.byte	0x4
	.uleb128 .LBB2288-.LBB2288
	.uleb128 .LBE2288-.LBB2288
	.byte	0x4
	.uleb128 .LBB2372-.LBB2288
	.uleb128 .LBE2372-.LBB2288
	.byte	0x4
	.uleb128 .LBB2373-.LBB2288
	.uleb128 .LBE2373-.LBB2288
	.byte	0x7
	.quad	.LBB2374
	.uleb128 .LBE2374-.LBB2374
	.byte	0
.LLRL138:
	.byte	0x5
	.quad	.LBB2290
	.byte	0x4
	.uleb128 .LBB2290-.LBB2290
	.uleb128 .LBE2290-.LBB2290
	.byte	0x4
	.uleb128 .LBB2295-.LBB2290
	.uleb128 .LBE2295-.LBB2290
	.byte	0
.LLRL143:
	.byte	0x7
	.quad	.LBB2296
	.uleb128 .LBE2296-.LBB2296
	.byte	0x7
	.quad	.LBB2367
	.uleb128 .LBE2367-.LBB2367
	.byte	0
.LLRL151:
	.byte	0x7
	.quad	.LBB2298
	.uleb128 .LBE2298-.LBB2298
	.byte	0x7
	.quad	.LBB2365
	.uleb128 .LBE2365-.LBB2365
	.byte	0
.LLRL157:
	.byte	0x5
	.quad	.LBB2302
	.byte	0x4
	.uleb128 .LBB2302-.LBB2302
	.uleb128 .LBE2302-.LBB2302
	.byte	0x4
	.uleb128 .LBB2304-.LBB2302
	.uleb128 .LBE2304-.LBB2302
	.byte	0
.LLRL159:
	.byte	0x5
	.quad	.LBB2306
	.byte	0x4
	.uleb128 .LBB2306-.LBB2306
	.uleb128 .LBE2306-.LBB2306
	.byte	0x4
	.uleb128 .LBB2361-.LBB2306
	.uleb128 .LBE2361-.LBB2306
	.byte	0x4
	.uleb128 .LBB2363-.LBB2306
	.uleb128 .LBE2363-.LBB2306
	.byte	0
.LLRL161:
	.byte	0x5
	.quad	.LBB2308
	.byte	0x4
	.uleb128 .LBB2308-.LBB2308
	.uleb128 .LBE2308-.LBB2308
	.byte	0x4
	.uleb128 .LBB2315-.LBB2308
	.uleb128 .LBE2315-.LBB2308
	.byte	0x4
	.uleb128 .LBB2316-.LBB2308
	.uleb128 .LBE2316-.LBB2308
	.byte	0
.LLRL163:
	.byte	0x5
	.quad	.LBB2309
	.byte	0x4
	.uleb128 .LBB2309-.LBB2309
	.uleb128 .LBE2309-.LBB2309
	.byte	0x4
	.uleb128 .LBB2313-.LBB2309
	.uleb128 .LBE2313-.LBB2309
	.byte	0x4
	.uleb128 .LBB2314-.LBB2309
	.uleb128 .LBE2314-.LBB2309
	.byte	0
.LLRL166:
	.byte	0x5
	.quad	.LBB2319
	.byte	0x4
	.uleb128 .LBB2319-.LBB2319
	.uleb128 .LBE2319-.LBB2319
	.byte	0x4
	.uleb128 .LBB2362-.LBB2319
	.uleb128 .LBE2362-.LBB2319
	.byte	0x4
	.uleb128 .LBB2364-.LBB2319
	.uleb128 .LBE2364-.LBB2319
	.byte	0
.LLRL167:
	.byte	0x5
	.quad	.LBB2320
	.byte	0x4
	.uleb128 .LBB2320-.LBB2320
	.uleb128 .LBE2320-.LBB2320
	.byte	0x4
	.uleb128 .LBB2328-.LBB2320
	.uleb128 .LBE2328-.LBB2320
	.byte	0x4
	.uleb128 .LBB2333-.LBB2320
	.uleb128 .LBE2333-.LBB2320
	.byte	0
.LLRL177:
	.byte	0x5
	.quad	.LBB2329
	.byte	0x4
	.uleb128 .LBB2329-.LBB2329
	.uleb128 .LBE2329-.LBB2329
	.byte	0x4
	.uleb128 .LBB2334-.LBB2329
	.uleb128 .LBE2334-.LBB2329
	.byte	0
.LLRL185:
	.byte	0x5
	.quad	.LBB2335
	.byte	0x4
	.uleb128 .LBB2335-.LBB2335
	.uleb128 .LBE2335-.LBB2335
	.byte	0x4
	.uleb128 .LBB2359-.LBB2335
	.uleb128 .LBE2359-.LBB2335
	.byte	0x4
	.uleb128 .LBB2360-.LBB2335
	.uleb128 .LBE2360-.LBB2335
	.byte	0
.LLRL187:
	.byte	0x5
	.quad	.LBB2337
	.byte	0x4
	.uleb128 .LBB2337-.LBB2337
	.uleb128 .LBE2337-.LBB2337
	.byte	0x4
	.uleb128 .LBB2355-.LBB2337
	.uleb128 .LBE2355-.LBB2337
	.byte	0x4
	.uleb128 .LBB2356-.LBB2337
	.uleb128 .LBE2356-.LBB2337
	.byte	0
.LLRL189:
	.byte	0x5
	.quad	.LBB2339
	.byte	0x4
	.uleb128 .LBB2339-.LBB2339
	.uleb128 .LBE2339-.LBB2339
	.byte	0x4
	.uleb128 .LBB2351-.LBB2339
	.uleb128 .LBE2351-.LBB2339
	.byte	0x4
	.uleb128 .LBB2352-.LBB2339
	.uleb128 .LBE2352-.LBB2339
	.byte	0
.LLRL191:
	.byte	0x5
	.quad	.LBB2341
	.byte	0x4
	.uleb128 .LBB2341-.LBB2341
	.uleb128 .LBE2341-.LBB2341
	.byte	0x4
	.uleb128 .LBB2347-.LBB2341
	.uleb128 .LBE2347-.LBB2341
	.byte	0x4
	.uleb128 .LBB2348-.LBB2341
	.uleb128 .LBE2348-.LBB2341
	.byte	0
.LLRL193:
	.byte	0x5
	.quad	.LBB2342
	.byte	0x4
	.uleb128 .LBB2342-.LBB2342
	.uleb128 .LBE2342-.LBB2342
	.byte	0x4
	.uleb128 .LBB2345-.LBB2342
	.uleb128 .LBE2345-.LBB2342
	.byte	0x4
	.uleb128 .LBB2346-.LBB2342
	.uleb128 .LBE2346-.LBB2342
	.byte	0
.LLRL196:
	.byte	0x5
	.quad	.LBB2384
	.byte	0x4
	.uleb128 .LBB2384-.LBB2384
	.uleb128 .LBE2384-.LBB2384
	.byte	0x4
	.uleb128 .LBB2908-.LBB2384
	.uleb128 .LBE2908-.LBB2384
	.byte	0
.LLRL198:
	.byte	0x5
	.quad	.LBB2385
	.byte	0x4
	.uleb128 .LBB2385-.LBB2385
	.uleb128 .LBE2385-.LBB2385
	.byte	0x4
	.uleb128 .LBB2400-.LBB2385
	.uleb128 .LBE2400-.LBB2385
	.byte	0
.LLRL200:
	.byte	0x5
	.quad	.LBB2386
	.byte	0x4
	.uleb128 .LBB2386-.LBB2386
	.uleb128 .LBE2386-.LBB2386
	.byte	0x4
	.uleb128 .LBB2394-.LBB2386
	.uleb128 .LBE2394-.LBB2386
	.byte	0
.LLRL210:
	.byte	0x5
	.quad	.LBB2403
	.byte	0x4
	.uleb128 .LBB2403-.LBB2403
	.uleb128 .LBE2403-.LBB2403
	.byte	0x4
	.uleb128 .LBB2922-.LBB2403
	.uleb128 .LBE2922-.LBB2403
	.byte	0x7
	.quad	.LBB2954
	.uleb128 .LBE2954-.LBB2954
	.byte	0
.LLRL214:
	.byte	0x7
	.quad	.LBB2404
	.uleb128 .LBE2404-.LBB2404
	.byte	0x7
	.quad	.LBB2454
	.uleb128 .LBE2454-.LBB2454
	.byte	0
.LLRL219:
	.byte	0x5
	.quad	.LBB2411
	.byte	0x4
	.uleb128 .LBB2411-.LBB2411
	.uleb128 .LBE2411-.LBB2411
	.byte	0x4
	.uleb128 .LBB2451-.LBB2411
	.uleb128 .LBE2451-.LBB2411
	.byte	0x4
	.uleb128 .LBB2453-.LBB2411
	.uleb128 .LBE2453-.LBB2411
	.byte	0
.LLRL225:
	.byte	0x5
	.quad	.LBB2416
	.byte	0x4
	.uleb128 .LBB2416-.LBB2416
	.uleb128 .LBE2416-.LBB2416
	.byte	0x4
	.uleb128 .LBB2432-.LBB2416
	.uleb128 .LBE2432-.LBB2416
	.byte	0x4
	.uleb128 .LBB2433-.LBB2416
	.uleb128 .LBE2433-.LBB2416
	.byte	0
.LLRL227:
	.byte	0x5
	.quad	.LBB2418
	.byte	0x4
	.uleb128 .LBB2418-.LBB2418
	.uleb128 .LBE2418-.LBB2418
	.byte	0x4
	.uleb128 .LBB2428-.LBB2418
	.uleb128 .LBE2428-.LBB2418
	.byte	0x4
	.uleb128 .LBB2429-.LBB2418
	.uleb128 .LBE2429-.LBB2418
	.byte	0
.LLRL229:
	.byte	0x5
	.quad	.LBB2420
	.byte	0x4
	.uleb128 .LBB2420-.LBB2420
	.uleb128 .LBE2420-.LBB2420
	.byte	0x4
	.uleb128 .LBB2425-.LBB2420
	.uleb128 .LBE2425-.LBB2420
	.byte	0
.LLRL233:
	.byte	0x5
	.quad	.LBB2434
	.byte	0x4
	.uleb128 .LBB2434-.LBB2434
	.uleb128 .LBE2434-.LBB2434
	.byte	0x4
	.uleb128 .LBB2452-.LBB2434
	.uleb128 .LBE2452-.LBB2434
	.byte	0
.LLRL242:
	.byte	0x5
	.quad	.LBB2438
	.byte	0x4
	.uleb128 .LBB2438-.LBB2438
	.uleb128 .LBE2438-.LBB2438
	.byte	0x4
	.uleb128 .LBB2447-.LBB2438
	.uleb128 .LBE2447-.LBB2438
	.byte	0
.LLRL246:
	.byte	0x5
	.quad	.LBB2440
	.byte	0x4
	.uleb128 .LBB2440-.LBB2440
	.uleb128 .LBE2440-.LBB2440
	.byte	0x4
	.uleb128 .LBB2444-.LBB2440
	.uleb128 .LBE2444-.LBB2440
	.byte	0
.LLRL254:
	.byte	0x5
	.quad	.LBB2459
	.byte	0x4
	.uleb128 .LBB2459-.LBB2459
	.uleb128 .LBE2459-.LBB2459
	.byte	0x4
	.uleb128 .LBB2923-.LBB2459
	.uleb128 .LBE2923-.LBB2459
	.byte	0x7
	.quad	.LBB2952
	.uleb128 .LBE2952-.LBB2952
	.byte	0
.LLRL258:
	.byte	0x7
	.quad	.LBB2460
	.uleb128 .LBE2460-.LBB2460
	.byte	0x7
	.quad	.LBB2512
	.uleb128 .LBE2512-.LBB2512
	.byte	0
.LLRL263:
	.byte	0x5
	.quad	.LBB2467
	.byte	0x4
	.uleb128 .LBB2467-.LBB2467
	.uleb128 .LBE2467-.LBB2467
	.byte	0x4
	.uleb128 .LBB2509-.LBB2467
	.uleb128 .LBE2509-.LBB2467
	.byte	0x4
	.uleb128 .LBB2511-.LBB2467
	.uleb128 .LBE2511-.LBB2467
	.byte	0
.LLRL269:
	.byte	0x5
	.quad	.LBB2472
	.byte	0x4
	.uleb128 .LBB2472-.LBB2472
	.uleb128 .LBE2472-.LBB2472
	.byte	0x4
	.uleb128 .LBB2490-.LBB2472
	.uleb128 .LBE2490-.LBB2472
	.byte	0x4
	.uleb128 .LBB2491-.LBB2472
	.uleb128 .LBE2491-.LBB2472
	.byte	0
.LLRL271:
	.byte	0x5
	.quad	.LBB2474
	.byte	0x4
	.uleb128 .LBB2474-.LBB2474
	.uleb128 .LBE2474-.LBB2474
	.byte	0x4
	.uleb128 .LBB2486-.LBB2474
	.uleb128 .LBE2486-.LBB2474
	.byte	0x4
	.uleb128 .LBB2487-.LBB2474
	.uleb128 .LBE2487-.LBB2474
	.byte	0
.LLRL273:
	.byte	0x5
	.quad	.LBB2476
	.byte	0x4
	.uleb128 .LBB2476-.LBB2476
	.uleb128 .LBE2476-.LBB2476
	.byte	0x4
	.uleb128 .LBB2483-.LBB2476
	.uleb128 .LBE2483-.LBB2476
	.byte	0
.LLRL274:
	.byte	0x5
	.quad	.LBB2477
	.byte	0x4
	.uleb128 .LBB2477-.LBB2477
	.uleb128 .LBE2477-.LBB2477
	.byte	0x4
	.uleb128 .LBB2481-.LBB2477
	.uleb128 .LBE2481-.LBB2477
	.byte	0x4
	.uleb128 .LBB2482-.LBB2477
	.uleb128 .LBE2482-.LBB2477
	.byte	0
.LLRL276:
	.byte	0x5
	.quad	.LBB2492
	.byte	0x4
	.uleb128 .LBB2492-.LBB2492
	.uleb128 .LBE2492-.LBB2492
	.byte	0x4
	.uleb128 .LBB2510-.LBB2492
	.uleb128 .LBE2510-.LBB2492
	.byte	0
.LLRL285:
	.byte	0x5
	.quad	.LBB2496
	.byte	0x4
	.uleb128 .LBB2496-.LBB2496
	.uleb128 .LBE2496-.LBB2496
	.byte	0x4
	.uleb128 .LBB2505-.LBB2496
	.uleb128 .LBE2505-.LBB2496
	.byte	0
.LLRL289:
	.byte	0x5
	.quad	.LBB2498
	.byte	0x4
	.uleb128 .LBB2498-.LBB2498
	.uleb128 .LBE2498-.LBB2498
	.byte	0x4
	.uleb128 .LBB2502-.LBB2498
	.uleb128 .LBE2502-.LBB2498
	.byte	0
.LLRL301:
	.byte	0x5
	.quad	.LBB2520
	.byte	0x4
	.uleb128 .LBB2520-.LBB2520
	.uleb128 .LBE2520-.LBB2520
	.byte	0x4
	.uleb128 .LBB2530-.LBB2520
	.uleb128 .LBE2530-.LBB2520
	.byte	0
.LLRL308:
	.byte	0x5
	.quad	.LBB2532
	.byte	0x4
	.uleb128 .LBB2532-.LBB2532
	.uleb128 .LBE2532-.LBB2532
	.byte	0x4
	.uleb128 .LBB2538-.LBB2532
	.uleb128 .LBE2538-.LBB2532
	.byte	0x4
	.uleb128 .LBB2539-.LBB2532
	.uleb128 .LBE2539-.LBB2532
	.byte	0x4
	.uleb128 .LBB2540-.LBB2532
	.uleb128 .LBE2540-.LBB2532
	.byte	0x4
	.uleb128 .LBB2541-.LBB2532
	.uleb128 .LBE2541-.LBB2532
	.byte	0
.LLRL310:
	.byte	0x5
	.quad	.LBB2533
	.byte	0x4
	.uleb128 .LBB2533-.LBB2533
	.uleb128 .LBE2533-.LBB2533
	.byte	0x4
	.uleb128 .LBB2534-.LBB2533
	.uleb128 .LBE2534-.LBB2533
	.byte	0x4
	.uleb128 .LBB2535-.LBB2533
	.uleb128 .LBE2535-.LBB2533
	.byte	0x4
	.uleb128 .LBB2536-.LBB2533
	.uleb128 .LBE2536-.LBB2533
	.byte	0x4
	.uleb128 .LBB2537-.LBB2533
	.uleb128 .LBE2537-.LBB2533
	.byte	0
.LLRL320:
	.byte	0x5
	.quad	.LBB2550
	.byte	0x4
	.uleb128 .LBB2550-.LBB2550
	.uleb128 .LBE2550-.LBB2550
	.byte	0x4
	.uleb128 .LBB2619-.LBB2550
	.uleb128 .LBE2619-.LBB2550
	.byte	0x4
	.uleb128 .LBB2621-.LBB2550
	.uleb128 .LBE2621-.LBB2550
	.byte	0
.LLRL326:
	.byte	0x5
	.quad	.LBB2555
	.byte	0x4
	.uleb128 .LBB2555-.LBB2555
	.uleb128 .LBE2555-.LBB2555
	.byte	0x4
	.uleb128 .LBB2571-.LBB2555
	.uleb128 .LBE2571-.LBB2555
	.byte	0x4
	.uleb128 .LBB2572-.LBB2555
	.uleb128 .LBE2572-.LBB2555
	.byte	0
.LLRL329:
	.byte	0x5
	.quad	.LBB2558
	.byte	0x4
	.uleb128 .LBB2558-.LBB2558
	.uleb128 .LBE2558-.LBB2558
	.byte	0x4
	.uleb128 .LBB2565-.LBB2558
	.uleb128 .LBE2565-.LBB2558
	.byte	0x4
	.uleb128 .LBB2566-.LBB2558
	.uleb128 .LBE2566-.LBB2558
	.byte	0
.LLRL331:
	.byte	0x5
	.quad	.LBB2559
	.byte	0x4
	.uleb128 .LBB2559-.LBB2559
	.uleb128 .LBE2559-.LBB2559
	.byte	0x4
	.uleb128 .LBB2563-.LBB2559
	.uleb128 .LBE2563-.LBB2559
	.byte	0x4
	.uleb128 .LBB2564-.LBB2559
	.uleb128 .LBE2564-.LBB2559
	.byte	0
.LLRL334:
	.byte	0x5
	.quad	.LBB2573
	.byte	0x4
	.uleb128 .LBB2573-.LBB2573
	.uleb128 .LBE2573-.LBB2573
	.byte	0x4
	.uleb128 .LBB2620-.LBB2573
	.uleb128 .LBE2620-.LBB2573
	.byte	0x4
	.uleb128 .LBB2622-.LBB2573
	.uleb128 .LBE2622-.LBB2573
	.byte	0
.LLRL341:
	.byte	0x5
	.quad	.LBB2577
	.byte	0x4
	.uleb128 .LBB2577-.LBB2577
	.uleb128 .LBE2577-.LBB2577
	.byte	0x4
	.uleb128 .LBB2611-.LBB2577
	.uleb128 .LBE2611-.LBB2577
	.byte	0x4
	.uleb128 .LBB2612-.LBB2577
	.uleb128 .LBE2612-.LBB2577
	.byte	0
.LLRL344:
	.byte	0x5
	.quad	.LBB2578
	.byte	0x4
	.uleb128 .LBB2578-.LBB2578
	.uleb128 .LBE2578-.LBB2578
	.byte	0x4
	.uleb128 .LBB2609-.LBB2578
	.uleb128 .LBE2609-.LBB2578
	.byte	0x4
	.uleb128 .LBB2610-.LBB2578
	.uleb128 .LBE2610-.LBB2578
	.byte	0
.LLRL347:
	.byte	0x5
	.quad	.LBB2579
	.byte	0x4
	.uleb128 .LBB2579-.LBB2579
	.uleb128 .LBE2579-.LBB2579
	.byte	0x4
	.uleb128 .LBB2607-.LBB2579
	.uleb128 .LBE2607-.LBB2579
	.byte	0x4
	.uleb128 .LBB2608-.LBB2579
	.uleb128 .LBE2608-.LBB2579
	.byte	0
.LLRL349:
	.byte	0x5
	.quad	.LBB2580
	.byte	0x4
	.uleb128 .LBB2580-.LBB2580
	.uleb128 .LBE2580-.LBB2580
	.byte	0x4
	.uleb128 .LBB2604-.LBB2580
	.uleb128 .LBE2604-.LBB2580
	.byte	0
.LLRL351:
	.byte	0x5
	.quad	.LBB2582
	.byte	0x4
	.uleb128 .LBB2582-.LBB2582
	.uleb128 .LBE2582-.LBB2582
	.byte	0x4
	.uleb128 .LBB2603-.LBB2582
	.uleb128 .LBE2603-.LBB2582
	.byte	0x4
	.uleb128 .LBB2605-.LBB2582
	.uleb128 .LBE2605-.LBB2582
	.byte	0x4
	.uleb128 .LBB2606-.LBB2582
	.uleb128 .LBE2606-.LBB2582
	.byte	0
.LLRL360:
	.byte	0x5
	.quad	.LBB2585
	.byte	0x4
	.uleb128 .LBB2585-.LBB2585
	.uleb128 .LBE2585-.LBB2585
	.byte	0x4
	.uleb128 .LBB2594-.LBB2585
	.uleb128 .LBE2594-.LBB2585
	.byte	0x4
	.uleb128 .LBB2595-.LBB2585
	.uleb128 .LBE2595-.LBB2585
	.byte	0x4
	.uleb128 .LBB2596-.LBB2585
	.uleb128 .LBE2596-.LBB2585
	.byte	0
.LLRL364:
	.byte	0x5
	.quad	.LBB2586
	.byte	0x4
	.uleb128 .LBB2586-.LBB2586
	.uleb128 .LBE2586-.LBB2586
	.byte	0x4
	.uleb128 .LBB2591-.LBB2586
	.uleb128 .LBE2591-.LBB2586
	.byte	0x4
	.uleb128 .LBB2592-.LBB2586
	.uleb128 .LBE2592-.LBB2586
	.byte	0x4
	.uleb128 .LBB2593-.LBB2586
	.uleb128 .LBE2593-.LBB2586
	.byte	0
.LLRL370:
	.byte	0x5
	.quad	.LBB2623
	.byte	0x4
	.uleb128 .LBB2623-.LBB2623
	.uleb128 .LBE2623-.LBB2623
	.byte	0x4
	.uleb128 .LBB2916-.LBB2623
	.uleb128 .LBE2916-.LBB2623
	.byte	0x7
	.quad	.LBB3020
	.uleb128 .LBE3020-.LBB3020
	.byte	0
.LLRL372:
	.byte	0x5
	.quad	.LBB2624
	.byte	0x4
	.uleb128 .LBB2624-.LBB2624
	.uleb128 .LBE2624-.LBB2624
	.byte	0x4
	.uleb128 .LBB2867-.LBB2624
	.uleb128 .LBE2867-.LBB2624
	.byte	0x7
	.quad	.LBB2868
	.uleb128 .LBE2868-.LBB2868
	.byte	0
.LLRL373:
	.byte	0x5
	.quad	.LBB2625
	.byte	0x4
	.uleb128 .LBB2625-.LBB2625
	.uleb128 .LBE2625-.LBB2625
	.byte	0x4
	.uleb128 .LBB2859-.LBB2625
	.uleb128 .LBE2859-.LBB2625
	.byte	0x4
	.uleb128 .LBB2864-.LBB2625
	.uleb128 .LBE2864-.LBB2625
	.byte	0x4
	.uleb128 .LBB2865-.LBB2625
	.uleb128 .LBE2865-.LBB2625
	.byte	0x7
	.quad	.LBB2866
	.uleb128 .LBE2866-.LBB2866
	.byte	0
.LLRL375:
	.byte	0x5
	.quad	.LBB2626
	.byte	0x4
	.uleb128 .LBB2626-.LBB2626
	.uleb128 .LBE2626-.LBB2626
	.byte	0x4
	.uleb128 .LBB2851-.LBB2626
	.uleb128 .LBE2851-.LBB2626
	.byte	0x4
	.uleb128 .LBB2852-.LBB2626
	.uleb128 .LBE2852-.LBB2626
	.byte	0x7
	.quad	.LBB2853
	.uleb128 .LBE2853-.LBB2853
	.byte	0
.LLRL377:
	.byte	0x5
	.quad	.LBB2627
	.byte	0x4
	.uleb128 .LBB2627-.LBB2627
	.uleb128 .LBE2627-.LBB2627
	.byte	0x4
	.uleb128 .LBB2816-.LBB2627
	.uleb128 .LBE2816-.LBB2627
	.byte	0x4
	.uleb128 .LBB2818-.LBB2627
	.uleb128 .LBE2818-.LBB2627
	.byte	0x4
	.uleb128 .LBB2820-.LBB2627
	.uleb128 .LBE2820-.LBB2627
	.byte	0x4
	.uleb128 .LBB2847-.LBB2627
	.uleb128 .LBE2847-.LBB2627
	.byte	0x4
	.uleb128 .LBB2849-.LBB2627
	.uleb128 .LBE2849-.LBB2627
	.byte	0
.LLRL379:
	.byte	0x5
	.quad	.LBB2628
	.byte	0x4
	.uleb128 .LBB2628-.LBB2628
	.uleb128 .LBE2628-.LBB2628
	.byte	0x4
	.uleb128 .LBB2785-.LBB2628
	.uleb128 .LBE2785-.LBB2628
	.byte	0x4
	.uleb128 .LBB2786-.LBB2628
	.uleb128 .LBE2786-.LBB2628
	.byte	0x4
	.uleb128 .LBB2787-.LBB2628
	.uleb128 .LBE2787-.LBB2628
	.byte	0x4
	.uleb128 .LBB2788-.LBB2628
	.uleb128 .LBE2788-.LBB2628
	.byte	0x4
	.uleb128 .LBB2789-.LBB2628
	.uleb128 .LBE2789-.LBB2628
	.byte	0
.LLRL384:
	.byte	0x5
	.quad	.LBB2629
	.byte	0x4
	.uleb128 .LBB2629-.LBB2629
	.uleb128 .LBE2629-.LBB2629
	.byte	0x4
	.uleb128 .LBB2741-.LBB2629
	.uleb128 .LBE2741-.LBB2629
	.byte	0x4
	.uleb128 .LBB2742-.LBB2629
	.uleb128 .LBE2742-.LBB2629
	.byte	0x4
	.uleb128 .LBB2743-.LBB2629
	.uleb128 .LBE2743-.LBB2629
	.byte	0x4
	.uleb128 .LBB2767-.LBB2629
	.uleb128 .LBE2767-.LBB2629
	.byte	0x4
	.uleb128 .LBB2768-.LBB2629
	.uleb128 .LBE2768-.LBB2629
	.byte	0x4
	.uleb128 .LBB2769-.LBB2629
	.uleb128 .LBE2769-.LBB2629
	.byte	0x4
	.uleb128 .LBB2770-.LBB2629
	.uleb128 .LBE2770-.LBB2629
	.byte	0x4
	.uleb128 .LBB2774-.LBB2629
	.uleb128 .LBE2774-.LBB2629
	.byte	0x4
	.uleb128 .LBB2775-.LBB2629
	.uleb128 .LBE2775-.LBB2629
	.byte	0x4
	.uleb128 .LBB2783-.LBB2629
	.uleb128 .LBE2783-.LBB2629
	.byte	0x4
	.uleb128 .LBB2784-.LBB2629
	.uleb128 .LBE2784-.LBB2629
	.byte	0
.LLRL386:
	.byte	0x5
	.quad	.LBB2630
	.byte	0x4
	.uleb128 .LBB2630-.LBB2630
	.uleb128 .LBE2630-.LBB2630
	.byte	0x4
	.uleb128 .LBB2730-.LBB2630
	.uleb128 .LBE2730-.LBB2630
	.byte	0x4
	.uleb128 .LBB2731-.LBB2630
	.uleb128 .LBE2731-.LBB2630
	.byte	0x4
	.uleb128 .LBB2732-.LBB2630
	.uleb128 .LBE2732-.LBB2630
	.byte	0x4
	.uleb128 .LBB2733-.LBB2630
	.uleb128 .LBE2733-.LBB2630
	.byte	0x4
	.uleb128 .LBB2734-.LBB2630
	.uleb128 .LBE2734-.LBB2630
	.byte	0x4
	.uleb128 .LBB2735-.LBB2630
	.uleb128 .LBE2735-.LBB2630
	.byte	0x4
	.uleb128 .LBB2736-.LBB2630
	.uleb128 .LBE2736-.LBB2630
	.byte	0x4
	.uleb128 .LBB2737-.LBB2630
	.uleb128 .LBE2737-.LBB2630
	.byte	0x4
	.uleb128 .LBB2738-.LBB2630
	.uleb128 .LBE2738-.LBB2630
	.byte	0x4
	.uleb128 .LBB2739-.LBB2630
	.uleb128 .LBE2739-.LBB2630
	.byte	0x4
	.uleb128 .LBB2740-.LBB2630
	.uleb128 .LBE2740-.LBB2630
	.byte	0
.LLRL393:
	.byte	0x5
	.quad	.LBB2632
	.byte	0x4
	.uleb128 .LBB2632-.LBB2632
	.uleb128 .LBE2632-.LBB2632
	.byte	0x4
	.uleb128 .LBB2705-.LBB2632
	.uleb128 .LBE2705-.LBB2632
	.byte	0
.LLRL399:
	.byte	0x5
	.quad	.LBB2633
	.byte	0x4
	.uleb128 .LBB2633-.LBB2633
	.uleb128 .LBE2633-.LBB2633
	.byte	0x4
	.uleb128 .LBB2646-.LBB2633
	.uleb128 .LBE2646-.LBB2633
	.byte	0
.LLRL403:
	.byte	0x5
	.quad	.LBB2640
	.byte	0x4
	.uleb128 .LBB2640-.LBB2640
	.uleb128 .LBE2640-.LBB2640
	.byte	0x4
	.uleb128 .LBB2682-.LBB2640
	.uleb128 .LBE2682-.LBB2640
	.byte	0
.LLRL404:
	.byte	0x5
	.quad	.LBB2643
	.byte	0x4
	.uleb128 .LBB2643-.LBB2643
	.uleb128 .LBE2643-.LBB2643
	.byte	0x4
	.uleb128 .LBB2692-.LBB2643
	.uleb128 .LBE2692-.LBB2643
	.byte	0
.LLRL416:
	.byte	0x5
	.quad	.LBB2665
	.byte	0x4
	.uleb128 .LBB2665-.LBB2665
	.uleb128 .LBE2665-.LBB2665
	.byte	0x4
	.uleb128 .LBB2668-.LBB2665
	.uleb128 .LBE2668-.LBB2665
	.byte	0
.LLRL417:
	.byte	0x5
	.quad	.LBB2669
	.byte	0x4
	.uleb128 .LBB2669-.LBB2669
	.uleb128 .LBE2669-.LBB2669
	.byte	0x4
	.uleb128 .LBB2681-.LBB2669
	.uleb128 .LBE2681-.LBB2669
	.byte	0
.LLRL419:
	.byte	0x5
	.quad	.LBB2672
	.byte	0x4
	.uleb128 .LBB2672-.LBB2672
	.uleb128 .LBE2672-.LBB2672
	.byte	0x4
	.uleb128 .LBB2684-.LBB2672
	.uleb128 .LBE2684-.LBB2672
	.byte	0
.LLRL420:
	.byte	0x5
	.quad	.LBB2675
	.byte	0x4
	.uleb128 .LBB2675-.LBB2675
	.uleb128 .LBE2675-.LBB2675
	.byte	0x4
	.uleb128 .LBB2683-.LBB2675
	.uleb128 .LBE2683-.LBB2675
	.byte	0
.LLRL421:
	.byte	0x5
	.quad	.LBB2678
	.byte	0x4
	.uleb128 .LBB2678-.LBB2678
	.uleb128 .LBE2678-.LBB2678
	.byte	0x4
	.uleb128 .LBB2693-.LBB2678
	.uleb128 .LBE2693-.LBB2678
	.byte	0
.LLRL422:
	.byte	0x5
	.quad	.LBB2685
	.byte	0x4
	.uleb128 .LBB2685-.LBB2685
	.uleb128 .LBE2685-.LBB2685
	.byte	0x4
	.uleb128 .LBB2691-.LBB2685
	.uleb128 .LBE2691-.LBB2685
	.byte	0
.LLRL424:
	.byte	0x5
	.quad	.LBB2688
	.byte	0x4
	.uleb128 .LBB2688-.LBB2688
	.uleb128 .LBE2688-.LBB2688
	.byte	0x4
	.uleb128 .LBB2696-.LBB2688
	.uleb128 .LBE2696-.LBB2688
	.byte	0
.LLRL436:
	.byte	0x5
	.quad	.LBB2709
	.byte	0x4
	.uleb128 .LBB2709-.LBB2709
	.uleb128 .LBE2709-.LBB2709
	.byte	0x4
	.uleb128 .LBB2729-.LBB2709
	.uleb128 .LBE2729-.LBB2709
	.byte	0
.LLRL438:
	.byte	0x5
	.quad	.LBB2710
	.byte	0x4
	.uleb128 .LBB2710-.LBB2710
	.uleb128 .LBE2710-.LBB2710
	.byte	0x4
	.uleb128 .LBB2711-.LBB2710
	.uleb128 .LBE2711-.LBB2710
	.byte	0x4
	.uleb128 .LBB2712-.LBB2710
	.uleb128 .LBE2712-.LBB2710
	.byte	0x4
	.uleb128 .LBB2713-.LBB2710
	.uleb128 .LBE2713-.LBB2710
	.byte	0x4
	.uleb128 .LBB2714-.LBB2710
	.uleb128 .LBE2714-.LBB2710
	.byte	0x4
	.uleb128 .LBB2715-.LBB2710
	.uleb128 .LBE2715-.LBB2710
	.byte	0x4
	.uleb128 .LBB2716-.LBB2710
	.uleb128 .LBE2716-.LBB2710
	.byte	0x4
	.uleb128 .LBB2717-.LBB2710
	.uleb128 .LBE2717-.LBB2710
	.byte	0x4
	.uleb128 .LBB2718-.LBB2710
	.uleb128 .LBE2718-.LBB2710
	.byte	0x4
	.uleb128 .LBB2719-.LBB2710
	.uleb128 .LBE2719-.LBB2710
	.byte	0x4
	.uleb128 .LBB2720-.LBB2710
	.uleb128 .LBE2720-.LBB2710
	.byte	0x4
	.uleb128 .LBB2721-.LBB2710
	.uleb128 .LBE2721-.LBB2710
	.byte	0x4
	.uleb128 .LBB2722-.LBB2710
	.uleb128 .LBE2722-.LBB2710
	.byte	0x4
	.uleb128 .LBB2723-.LBB2710
	.uleb128 .LBE2723-.LBB2710
	.byte	0x4
	.uleb128 .LBB2724-.LBB2710
	.uleb128 .LBE2724-.LBB2710
	.byte	0x4
	.uleb128 .LBB2725-.LBB2710
	.uleb128 .LBE2725-.LBB2710
	.byte	0x4
	.uleb128 .LBB2726-.LBB2710
	.uleb128 .LBE2726-.LBB2710
	.byte	0x4
	.uleb128 .LBB2727-.LBB2710
	.uleb128 .LBE2727-.LBB2710
	.byte	0x4
	.uleb128 .LBB2728-.LBB2710
	.uleb128 .LBE2728-.LBB2710
	.byte	0
.LLRL443:
	.byte	0x5
	.quad	.LBB2744
	.byte	0x4
	.uleb128 .LBB2744-.LBB2744
	.uleb128 .LBE2744-.LBB2744
	.byte	0x4
	.uleb128 .LBB2752-.LBB2744
	.uleb128 .LBE2752-.LBB2744
	.byte	0x4
	.uleb128 .LBB2758-.LBB2744
	.uleb128 .LBE2758-.LBB2744
	.byte	0x4
	.uleb128 .LBB2760-.LBB2744
	.uleb128 .LBE2760-.LBB2744
	.byte	0
.LLRL446:
	.byte	0x5
	.quad	.LBB2749
	.byte	0x4
	.uleb128 .LBB2749-.LBB2749
	.uleb128 .LBE2749-.LBB2749
	.byte	0x4
	.uleb128 .LBB2766-.LBB2749
	.uleb128 .LBE2766-.LBB2749
	.byte	0
.LLRL449:
	.byte	0x5
	.quad	.LBB2753
	.byte	0x4
	.uleb128 .LBB2753-.LBB2753
	.uleb128 .LBE2753-.LBB2753
	.byte	0x4
	.uleb128 .LBB2759-.LBB2753
	.uleb128 .LBE2759-.LBB2753
	.byte	0x4
	.uleb128 .LBB2761-.LBB2753
	.uleb128 .LBE2761-.LBB2753
	.byte	0x4
	.uleb128 .LBB2764-.LBB2753
	.uleb128 .LBE2764-.LBB2753
	.byte	0
.LLRL452:
	.byte	0x5
	.quad	.LBB2762
	.byte	0x4
	.uleb128 .LBB2762-.LBB2762
	.uleb128 .LBE2762-.LBB2762
	.byte	0x4
	.uleb128 .LBB2765-.LBB2762
	.uleb128 .LBE2765-.LBB2762
	.byte	0
.LLRL455:
	.byte	0x5
	.quad	.LBB2771
	.byte	0x4
	.uleb128 .LBB2771-.LBB2771
	.uleb128 .LBE2771-.LBB2771
	.byte	0x4
	.uleb128 .LBB2776-.LBB2771
	.uleb128 .LBE2776-.LBB2771
	.byte	0
.LLRL460:
	.byte	0x5
	.quad	.LBB2790
	.byte	0x4
	.uleb128 .LBB2790-.LBB2790
	.uleb128 .LBE2790-.LBB2790
	.byte	0x4
	.uleb128 .LBB2817-.LBB2790
	.uleb128 .LBE2817-.LBB2790
	.byte	0x4
	.uleb128 .LBB2819-.LBB2790
	.uleb128 .LBE2819-.LBB2790
	.byte	0x4
	.uleb128 .LBB2848-.LBB2790
	.uleb128 .LBE2848-.LBB2790
	.byte	0x7
	.quad	.LBB2850
	.uleb128 .LBE2850-.LBB2850
	.byte	0
.LLRL462:
	.byte	0x5
	.quad	.LBB2791
	.byte	0x4
	.uleb128 .LBB2791-.LBB2791
	.uleb128 .LBE2791-.LBB2791
	.byte	0x4
	.uleb128 .LBB2812-.LBB2791
	.uleb128 .LBE2812-.LBB2791
	.byte	0x4
	.uleb128 .LBB2813-.LBB2791
	.uleb128 .LBE2813-.LBB2791
	.byte	0x4
	.uleb128 .LBB2814-.LBB2791
	.uleb128 .LBE2814-.LBB2791
	.byte	0x7
	.quad	.LBB2815
	.uleb128 .LBE2815-.LBB2815
	.byte	0
.LLRL463:
	.byte	0x5
	.quad	.LBB2792
	.byte	0x4
	.uleb128 .LBB2792-.LBB2792
	.uleb128 .LBE2792-.LBB2792
	.byte	0x4
	.uleb128 .LBB2807-.LBB2792
	.uleb128 .LBE2807-.LBB2792
	.byte	0x4
	.uleb128 .LBB2808-.LBB2792
	.uleb128 .LBE2808-.LBB2792
	.byte	0x4
	.uleb128 .LBB2810-.LBB2792
	.uleb128 .LBE2810-.LBB2792
	.byte	0x4
	.uleb128 .LBB2811-.LBB2792
	.uleb128 .LBE2811-.LBB2792
	.byte	0
.LLRL465:
	.byte	0x5
	.quad	.LBB2793
	.byte	0x4
	.uleb128 .LBB2793-.LBB2793
	.uleb128 .LBE2793-.LBB2793
	.byte	0x4
	.uleb128 .LBB2800-.LBB2793
	.uleb128 .LBE2800-.LBB2793
	.byte	0x4
	.uleb128 .LBB2801-.LBB2793
	.uleb128 .LBE2801-.LBB2793
	.byte	0x4
	.uleb128 .LBB2802-.LBB2793
	.uleb128 .LBE2802-.LBB2793
	.byte	0x4
	.uleb128 .LBB2803-.LBB2793
	.uleb128 .LBE2803-.LBB2793
	.byte	0x4
	.uleb128 .LBB2804-.LBB2793
	.uleb128 .LBE2804-.LBB2793
	.byte	0x4
	.uleb128 .LBB2805-.LBB2793
	.uleb128 .LBE2805-.LBB2793
	.byte	0x4
	.uleb128 .LBB2806-.LBB2793
	.uleb128 .LBE2806-.LBB2793
	.byte	0
.LLRL468:
	.byte	0x5
	.quad	.LBB2794
	.byte	0x4
	.uleb128 .LBB2794-.LBB2794
	.uleb128 .LBE2794-.LBB2794
	.byte	0x4
	.uleb128 .LBB2799-.LBB2794
	.uleb128 .LBE2799-.LBB2794
	.byte	0
.LLRL470:
	.byte	0x5
	.quad	.LBB2795
	.byte	0x4
	.uleb128 .LBB2795-.LBB2795
	.uleb128 .LBE2795-.LBB2795
	.byte	0x4
	.uleb128 .LBB2796-.LBB2795
	.uleb128 .LBE2796-.LBB2795
	.byte	0x4
	.uleb128 .LBB2797-.LBB2795
	.uleb128 .LBE2797-.LBB2795
	.byte	0x4
	.uleb128 .LBB2798-.LBB2795
	.uleb128 .LBE2798-.LBB2795
	.byte	0
.LLRL473:
	.byte	0x5
	.quad	.LBB2821
	.byte	0x4
	.uleb128 .LBB2821-.LBB2821
	.uleb128 .LBE2821-.LBB2821
	.byte	0x4
	.uleb128 .LBB2825-.LBB2821
	.uleb128 .LBE2825-.LBB2821
	.byte	0x4
	.uleb128 .LBB2826-.LBB2821
	.uleb128 .LBE2826-.LBB2821
	.byte	0x4
	.uleb128 .LBB2827-.LBB2821
	.uleb128 .LBE2827-.LBB2821
	.byte	0
.LLRL475:
	.byte	0x5
	.quad	.LBB2830
	.byte	0x4
	.uleb128 .LBB2830-.LBB2830
	.uleb128 .LBE2830-.LBB2830
	.byte	0x4
	.uleb128 .LBB2845-.LBB2830
	.uleb128 .LBE2845-.LBB2830
	.byte	0
.LLRL478:
	.byte	0x5
	.quad	.LBB2836
	.byte	0x4
	.uleb128 .LBB2836-.LBB2836
	.uleb128 .LBE2836-.LBB2836
	.byte	0x4
	.uleb128 .LBB2846-.LBB2836
	.uleb128 .LBE2846-.LBB2836
	.byte	0
.LLRL485:
	.byte	0x5
	.quad	.LBB2854
	.byte	0x4
	.uleb128 .LBB2854-.LBB2854
	.uleb128 .LBE2854-.LBB2854
	.byte	0x4
	.uleb128 .LBB2860-.LBB2854
	.uleb128 .LBE2860-.LBB2854
	.byte	0x4
	.uleb128 .LBB2861-.LBB2854
	.uleb128 .LBE2861-.LBB2854
	.byte	0x4
	.uleb128 .LBB2862-.LBB2854
	.uleb128 .LBE2862-.LBB2854
	.byte	0x4
	.uleb128 .LBB2863-.LBB2854
	.uleb128 .LBE2863-.LBB2854
	.byte	0
.LLRL504:
	.byte	0x7
	.quad	.LBB2925
	.uleb128 .LBE2925-.LBB2925
	.byte	0x5
	.quad	.LBB2950
	.byte	0x4
	.uleb128 .LBB2950-.LBB2950
	.uleb128 .LBE2950-.LBB2950
	.byte	0x4
	.uleb128 .LBB2955-.LBB2950
	.uleb128 .LBE2955-.LBB2950
	.byte	0x4
	.uleb128 .LBB3019-.LBB2950
	.uleb128 .LBE3019-.LBB2950
	.byte	0
.LLRL505:
	.byte	0x7
	.quad	.LBB2926
	.uleb128 .LBE2926-.LBB2926
	.byte	0x5
	.quad	.LBB2945
	.byte	0x4
	.uleb128 .LBB2945-.LBB2945
	.uleb128 .LBE2945-.LBB2945
	.byte	0x4
	.uleb128 .LBB2948-.LBB2945
	.uleb128 .LBE2948-.LBB2945
	.byte	0x4
	.uleb128 .LBB2949-.LBB2945
	.uleb128 .LBE2949-.LBB2945
	.byte	0
.LLRL506:
	.byte	0x7
	.quad	.LBB2927
	.uleb128 .LBE2927-.LBB2927
	.byte	0x5
	.quad	.LBB2939
	.byte	0x4
	.uleb128 .LBB2939-.LBB2939
	.uleb128 .LBE2939-.LBB2939
	.byte	0x4
	.uleb128 .LBB2940-.LBB2939
	.uleb128 .LBE2940-.LBB2939
	.byte	0x4
	.uleb128 .LBB2944-.LBB2939
	.uleb128 .LBE2944-.LBB2939
	.byte	0
.LLRL514:
	.byte	0x5
	.quad	.LBB2957
	.byte	0x4
	.uleb128 .LBB2957-.LBB2957
	.uleb128 .LBE2957-.LBB2957
	.byte	0x4
	.uleb128 .LBB2972-.LBB2957
	.uleb128 .LBE2972-.LBB2957
	.byte	0
.LLRL515:
	.byte	0x5
	.quad	.LBB2958
	.byte	0x4
	.uleb128 .LBB2958-.LBB2958
	.uleb128 .LBE2958-.LBB2958
	.byte	0x4
	.uleb128 .LBB2966-.LBB2958
	.uleb128 .LBE2966-.LBB2958
	.byte	0
.LLRL523:
	.byte	0x5
	.quad	.LBB2973
	.byte	0x4
	.uleb128 .LBB2973-.LBB2973
	.uleb128 .LBE2973-.LBB2973
	.byte	0x4
	.uleb128 .LBB3021-.LBB2973
	.uleb128 .LBE3021-.LBB2973
	.byte	0
.LLRL527:
	.byte	0x5
	.quad	.LBB2976
	.byte	0x4
	.uleb128 .LBB2976-.LBB2976
	.uleb128 .LBE2976-.LBB2976
	.byte	0x4
	.uleb128 .LBB2997-.LBB2976
	.uleb128 .LBE2997-.LBB2976
	.byte	0
.LLRL529:
	.byte	0x5
	.quad	.LBB2977
	.byte	0x4
	.uleb128 .LBB2977-.LBB2977
	.uleb128 .LBE2977-.LBB2977
	.byte	0x4
	.uleb128 .LBB2996-.LBB2977
	.uleb128 .LBE2996-.LBB2977
	.byte	0
.LLRL530:
	.byte	0x5
	.quad	.LBB2978
	.byte	0x4
	.uleb128 .LBB2978-.LBB2978
	.uleb128 .LBE2978-.LBB2978
	.byte	0x4
	.uleb128 .LBB2991-.LBB2978
	.uleb128 .LBE2991-.LBB2978
	.byte	0x4
	.uleb128 .LBB2992-.LBB2978
	.uleb128 .LBE2992-.LBB2978
	.byte	0
.LLRL532:
	.byte	0x5
	.quad	.LBB2980
	.byte	0x4
	.uleb128 .LBB2980-.LBB2980
	.uleb128 .LBE2980-.LBB2980
	.byte	0x4
	.uleb128 .LBB2988-.LBB2980
	.uleb128 .LBE2988-.LBB2980
	.byte	0
.LLRL534:
	.byte	0x5
	.quad	.LBB2982
	.byte	0x4
	.uleb128 .LBB2982-.LBB2982
	.uleb128 .LBE2982-.LBB2982
	.byte	0x4
	.uleb128 .LBB2986-.LBB2982
	.uleb128 .LBE2986-.LBB2982
	.byte	0
.LLRL535:
	.byte	0x5
	.quad	.LBB2983
	.byte	0x4
	.uleb128 .LBB2983-.LBB2983
	.uleb128 .LBE2983-.LBB2983
	.byte	0x4
	.uleb128 .LBB2985-.LBB2983
	.uleb128 .LBE2985-.LBB2983
	.byte	0
.LLRL540:
	.byte	0x5
	.quad	.LBB2999
	.byte	0x4
	.uleb128 .LBB2999-.LBB2999
	.uleb128 .LBE2999-.LBB2999
	.byte	0x4
	.uleb128 .LBB3018-.LBB2999
	.uleb128 .LBE3018-.LBB2999
	.byte	0
.LLRL542:
	.byte	0x5
	.quad	.LBB3000
	.byte	0x4
	.uleb128 .LBB3000-.LBB3000
	.uleb128 .LBE3000-.LBB3000
	.byte	0x4
	.uleb128 .LBB3017-.LBB3000
	.uleb128 .LBE3017-.LBB3000
	.byte	0
.LLRL544:
	.byte	0x5
	.quad	.LBB3001
	.byte	0x4
	.uleb128 .LBB3001-.LBB3001
	.uleb128 .LBE3001-.LBB3001
	.byte	0x4
	.uleb128 .LBB3011-.LBB3001
	.uleb128 .LBE3011-.LBB3001
	.byte	0
.LLRL546:
	.byte	0x5
	.quad	.LBB3002
	.byte	0x4
	.uleb128 .LBB3002-.LBB3002
	.uleb128 .LBE3002-.LBB3002
	.byte	0x4
	.uleb128 .LBB3010-.LBB3002
	.uleb128 .LBE3010-.LBB3002
	.byte	0
.LLRL550:
	.byte	0x5
	.quad	.LBB3004
	.byte	0x4
	.uleb128 .LBB3004-.LBB3004
	.uleb128 .LBE3004-.LBB3004
	.byte	0x4
	.uleb128 .LBB3008-.LBB3004
	.uleb128 .LBE3008-.LBB3004
	.byte	0
.LLRL564:
	.byte	0x7
	.quad	.Ltext0
	.uleb128 .Letext0-.Ltext0
	.byte	0x7
	.quad	.Ltext_cold0
	.uleb128 .Letext_cold0-.Ltext_cold0
	.byte	0
.Ldebug_ranges3:
	.section	.debug_line,"",@progbits
.Ldebug_line0:
	.section	.debug_str,"MS",@progbits,1
.LASF357:
	.string	"_ZNSt6vectorI16SubApertureImageSaIS0_EEC4EOS2_RKS1_St17integral_constantIbLb1EE"
.LASF1119:
	.string	"lconv"
.LASF672:
	.string	"_ZNKSt6vectorIfSaIfEE4cendEv"
.LASF153:
	.string	"_ZNSt6vectorIhSaIhEE19_S_nothrow_relocateESt17integral_constantIbLb1EE"
.LASF694:
	.string	"_ZNSt6vectorIfSaIfEE9push_backERKf"
.LASF535:
	.string	"_ZNKSt6vectorIiSaIiEE4sizeEv"
.LASF954:
	.string	"wmemmove"
.LASF582:
	.string	"initializer_list<int>"
.LASF136:
	.string	"_ZNSt12_Vector_baseIhSaIhEEC4EOS1_RKS0_"
.LASF1161:
	.string	"__int_least64_t"
.LASF1052:
	.string	"_ZNK9__gnu_cxx17__normal_iteratorIPK16SubApertureImageSt6vectorIS1_SaIS1_EEEmiEl"
.LASF420:
	.string	"_ZNSt6vectorI16SubApertureImageSaIS0_EE11_S_max_sizeERKS1_"
.LASF380:
	.string	"_ZNKSt6vectorI16SubApertureImageSaIS0_EE8max_sizeEv"
.LASF1340:
	.string	"__it"
.LASF167:
	.string	"_ZNSt6vectorIhSaIhEEC4EOS1_RKS0_"
.LASF1365:
	.string	"_ZNSt15__new_allocatorIhEC2Ev"
.LASF527:
	.string	"_ZNSt6vectorIiSaIiEE6rbeginEv"
.LASF1412:
	.string	"tile_vals"
.LASF184:
	.string	"reverse_iterator"
.LASF924:
	.string	"tm_sec"
.LASF426:
	.string	"initializer_list<SubApertureImage>"
.LASF597:
	.string	"_ZNKSt15__new_allocatorIfE7addressERf"
.LASF701:
	.string	"_ZNSt6vectorIfSaIfEE5eraseEN9__gnu_cxx17__normal_iteratorIPKfS1_EE"
.LASF423:
	.string	"_ZNSt6vectorI16SubApertureImageSaIS0_EE8_M_eraseEN9__gnu_cxx17__normal_iteratorIPS0_S2_EES6_"
.LASF1017:
	.string	"_ZN9__gnu_cxx14__alloc_traitsISaI16SubApertureImageES1_E10_S_on_swapERS2_S4_"
.LASF80:
	.string	"allocate"
.LASF364:
	.string	"_ZNSt6vectorI16SubApertureImageSaIS0_EEaSESt16initializer_listIS0_E"
.LASF1113:
	.string	"__int128 unsigned"
.LASF697:
	.string	"_ZNSt6vectorIfSaIfEE6insertEN9__gnu_cxx17__normal_iteratorIPKfS1_EERS4_"
.LASF1343:
	.string	"__allocmax"
.LASF1358:
	.string	"__vect"
.LASF893:
	.string	"fwide"
.LASF618:
	.string	"_ZNSt12_Vector_baseIfSaIfEE17_Vector_impl_data12_M_swap_dataERS2_"
.LASF1068:
	.string	"__normal_iterator<int const*, std::vector<int, std::allocator<int> > >"
.LASF1139:
	.string	"int_p_sep_by_space"
.LASF513:
	.string	"_ZNSt6vectorIiSaIiEEC4EOS1_RKS0_St17integral_constantIbLb1EE"
.LASF311:
	.string	"_ZNSt16allocator_traitsISaI16SubApertureImageEE8allocateERS1_mPKv"
.LASF216:
	.string	"_ZNKSt6vectorIhSaIhEEixEm"
.LASF323:
	.string	"_ZNSt12_Vector_baseI16SubApertureImageSaIS0_EE12_Vector_implC4ERKS1_"
.LASF1148:
	.string	"__uint8_t"
.LASF897:
	.string	"getwc"
.LASF162:
	.string	"_ZNSt6vectorIhSaIhEEC4ERKS1_"
.LASF1177:
	.string	"7lldiv_t"
.LASF649:
	.string	"_ZNSt6vectorIfSaIfEEC4EmRKfRKS0_"
.LASF975:
	.string	"_ZN9__gnu_cxx14__alloc_traitsISaIhEhE27_S_propagate_on_copy_assignEv"
.LASF1227:
	.string	"fpos_t"
.LASF305:
	.string	"_ZNSaI16SubApertureImageEC4Ev"
.LASF628:
	.string	"_ZNSt12_Vector_baseIfSaIfEEC4Ev"
.LASF1402:
	.string	"refocus_shift_and_sum"
.LASF636:
	.string	"_ZNSt12_Vector_baseIfSaIfEED4Ev"
.LASF1038:
	.string	"_ZNK9__gnu_cxx17__normal_iteratorIP16SubApertureImageSt6vectorIS1_SaIS1_EEE4baseEv"
.LASF1436:
	.string	"outp"
.LASF1305:
	.string	"SubApertureImage"
.LASF765:
	.string	"_ZSt10_ConstructIfJEEvPT_DpOT0_"
.LASF984:
	.string	"rebind<unsigned char>"
.LASF725:
	.string	"_ZNSt16initializer_listIfEC4EPKfm"
.LASF654:
	.string	"_ZNSt6vectorIfSaIfEEC4EOS1_RKS0_St17integral_constantIbLb0EE"
.LASF549:
	.string	"_ZNKSt6vectorIiSaIiEE5frontEv"
.LASF738:
	.string	"_UninitDestroyGuard"
.LASF616:
	.string	"_ZNSt12_Vector_baseIfSaIfEE17_Vector_impl_dataC4EOS2_"
.LASF452:
	.string	"_ZNSt15__new_allocatorIiEC4ERKS0_"
.LASF875:
	.string	"_shortbuf"
.LASF238:
	.string	"_ZNSt6vectorIhSaIhEE6insertEN9__gnu_cxx17__normal_iteratorIPKhS1_EESt16initializer_listIhE"
.LASF643:
	.string	"_ZNSt6vectorIfSaIfEE19_S_nothrow_relocateESt17integral_constantIbLb0EE"
.LASF804:
	.string	"_Tp2"
.LASF805:
	.string	"__to_address<(anonymous namespace)::SubParams>"
.LASF964:
	.string	"__gnu_cxx"
.LASF1373:
	.string	"_ZNSt12_Vector_baseIiSaIiEED2Ev"
.LASF170:
	.string	"_ZNSt6vectorIhSaIhEED4Ev"
.LASF1330:
	.string	"operator new"
.LASF523:
	.string	"_ZNSt6vectorIiSaIiEE5beginEv"
.LASF1047:
	.string	"_ZN9__gnu_cxx17__normal_iteratorIPK16SubApertureImageSt6vectorIS1_SaIS1_EEEmmEi"
.LASF970:
	.string	"_S_select_on_copy"
.LASF1092:
	.string	"_ZNK9__gnu_cxx17__normal_iteratorIPfSt6vectorIfSaIfEEE4baseEv"
.LASF1304:
	.string	"_ZN9ImageDataC4Ev"
.LASF1001:
	.string	"_ZN9__gnu_cxx17__normal_iteratorIPhSt6vectorIhSaIhEEEmmEi"
.LASF910:
	.string	"__isoc23_vfwscanf"
.LASF1046:
	.string	"_ZN9__gnu_cxx17__normal_iteratorIPK16SubApertureImageSt6vectorIS1_SaIS1_EEEmmEv"
.LASF937:
	.string	"wcsncmp"
.LASF245:
	.string	"_ZNSt6vectorIhSaIhEE5clearEv"
.LASF486:
	.string	"_ZNKSt12_Vector_baseIiSaIiEE19_M_get_Tp_allocatorEv"
.LASF315:
	.string	"_ZNSt16allocator_traitsISaI16SubApertureImageEE37select_on_container_copy_constructionERKS1_"
.LASF317:
	.string	"_ZNSt12_Vector_baseI16SubApertureImageSaIS0_EE17_Vector_impl_dataC4Ev"
.LASF208:
	.string	"capacity"
.LASF1342:
	.string	"__diffmax"
.LASF1094:
	.string	"__conditional_type<true, float const, float const&>"
.LASF390:
	.string	"_ZNSt6vectorI16SubApertureImageSaIS0_EE2atEm"
.LASF299:
	.string	"_ZNKSt15__new_allocatorI16SubApertureImageE7addressERKS0_"
.LASF589:
	.string	"reverse_iterator<__gnu_cxx::__normal_iterator<int*, std::vector<int, std::allocator<int> > > >"
.LASF699:
	.string	"_ZNSt6vectorIfSaIfEE6insertEN9__gnu_cxx17__normal_iteratorIPKfS1_EESt16initializer_listIfE"
.LASF204:
	.string	"_ZNSt6vectorIhSaIhEE6resizeEm"
.LASF1107:
	.string	"__isoc23_wcstoull"
.LASF1230:
	.string	"feof"
.LASF921:
	.string	"wcscpy"
.LASF1254:
	.string	"uint16_t"
.LASF1462:
	.string	"__q0"
.LASF704:
	.string	"_ZNSt6vectorIfSaIfEE5clearEv"
.LASF336:
	.string	"_ZNSt12_Vector_baseI16SubApertureImageSaIS0_EEC4EOS2_RKS1_"
.LASF601:
	.string	"_ZNKSt15__new_allocatorIfE8max_sizeEv"
.LASF1180:
	.string	"time_t"
.LASF126:
	.string	"_ZNKSt12_Vector_baseIhSaIhEE19_M_get_Tp_allocatorEv"
.LASF1447:
	.string	"_mm256_cvtepu8_epi32"
.LASF106:
	.string	"_Vector_base<unsigned char, std::allocator<unsigned char> >"
.LASF1018:
	.string	"_ZN9__gnu_cxx14__alloc_traitsISaI16SubApertureImageES1_E27_S_propagate_on_copy_assignEv"
.LASF1306:
	.string	"float_t"
.LASF1078:
	.string	"__normal_iterator<float*, std::vector<float, std::allocator<float> > >"
.LASF769:
	.string	"_ZSt9__fill_a1IhhEN9__gnu_cxx11__enable_ifIXaasrSt9__is_byteIT_E7__valueoosrSt10__are_sameIS3_T0_E7__valuesrSt20__memcpyable_integerIS6_E7__widthEvE6__typeEPS3_SC_RKS6_"
.LASF209:
	.string	"_ZNKSt6vectorIhSaIhEE8capacityEv"
.LASF845:
	.string	"reg_save_area"
.LASF1346:
	.string	"_ZNSt15__new_allocatorIfEC2ERKS0_"
.LASF1081:
	.string	"_ZNK9__gnu_cxx17__normal_iteratorIPfSt6vectorIfSaIfEEEdeEv"
.LASF1392:
	.string	"_ZNSaIfEC2Ev"
.LASF834:
	.string	"min<int>"
.LASF1165:
	.string	"__off_t"
.LASF222:
	.string	"_ZNSt6vectorIhSaIhEE5frontEv"
.LASF77:
	.string	"const_pointer"
.LASF1408:
	.string	"counts"
.LASF436:
	.string	"vector<(anonymous namespace)::SubParams, std::allocator<(anonymous namespace)::SubParams> >"
.LASF665:
	.string	"_ZNSt6vectorIfSaIfEE3endEv"
.LASF86:
	.string	"_ZNKSt15__new_allocatorIhE8max_sizeEv"
.LASF15:
	.string	"_ZNKSt17integral_constantIbLb0EEcvbEv"
.LASF163:
	.string	"_ZNSt6vectorIhSaIhEEC4EOS1_"
.LASF83:
	.string	"deallocate"
.LASF1293:
	.string	"towctrans"
.LASF145:
	.string	"_M_create_storage"
.LASF8:
	.string	"operator std::integral_constant<bool, true>::value_type"
.LASF1444:
	.string	"_ZNSt12_Vector_baseIhSaIhEE12_Vector_implD2Ev"
.LASF205:
	.string	"_ZNSt6vectorIhSaIhEE6resizeEmRKh"
.LASF688:
	.string	"_ZNSt6vectorIfSaIfEE5frontEv"
.LASF932:
	.string	"tm_isdst"
.LASF1279:
	.string	"_Float128"
.LASF1298:
	.string	"height"
.LASF212:
	.string	"reserve"
.LASF1122:
	.string	"grouping"
.LASF1336:
	.string	"_ZNSt19_UninitDestroyGuardIPivEC2ERS0_"
.LASF876:
	.string	"_lock"
.LASF90:
	.string	"allocator"
.LASF824:
	.string	"_Destroy<int*, int>"
.LASF1104:
	.string	"__isoc23_wcstoll"
.LASF1103:
	.string	"wcstoll"
.LASF137:
	.string	"_ZNSt12_Vector_baseIhSaIhEEC4ERKS0_OS1_"
.LASF528:
	.string	"_ZNKSt6vectorIiSaIiEE6rbeginEv"
.LASF1323:
	.string	"SubParams"
.LASF552:
	.string	"_ZNSt6vectorIiSaIiEE4dataEv"
.LASF68:
	.string	"operator bool"
.LASF692:
	.string	"_ZNSt6vectorIfSaIfEE4dataEv"
.LASF85:
	.string	"max_size"
.LASF132:
	.string	"_ZNSt12_Vector_baseIhSaIhEEC4Em"
.LASF1110:
	.string	"__max_align_ld"
.LASF564:
	.string	"_ZNSt6vectorIiSaIiEE5clearEv"
.LASF1112:
	.string	"bool"
.LASF727:
	.string	"_ZNKSt16initializer_listIfE4sizeEv"
.LASF130:
	.string	"_ZNSt12_Vector_baseIhSaIhEEC4Ev"
.LASF1192:
	.string	"atoi"
.LASF1109:
	.string	"__max_align_ll"
.LASF1193:
	.string	"atol"
.LASF273:
	.string	"_ZNSt6vectorIhSaIhEE8_M_eraseEN9__gnu_cxx17__normal_iteratorIPhS1_EE"
.LASF10:
	.string	"_ZNKSt17integral_constantIbLb1EEcvbEv"
.LASF536:
	.string	"_ZNKSt6vectorIiSaIiEE8max_sizeEv"
.LASF938:
	.string	"wcsncpy"
.LASF1027:
	.string	"_ZNK9__gnu_cxx17__normal_iteratorIP16SubApertureImageSt6vectorIS1_SaIS1_EEEdeEv"
.LASF940:
	.string	"wcsspn"
.LASF1425:
	.string	"ind_rbot"
.LASF1389:
	.string	"_ZNSt6vectorIfSaIfEED2Ev"
.LASF223:
	.string	"_ZNKSt6vectorIhSaIhEE5frontEv"
.LASF369:
	.string	"_ZNSt6vectorI16SubApertureImageSaIS0_EE3endEv"
.LASF16:
	.string	"_ZNKSt17integral_constantIbLb0EEclEv"
.LASF800:
	.string	"_Destroy<int*>"
.LASF619:
	.string	"_ZNSt12_Vector_baseIfSaIfEE12_Vector_implC4Ev"
.LASF1410:
	.string	"TILE_H"
.LASF265:
	.string	"_ZNKSt6vectorIhSaIhEE12_M_check_lenEmPKc"
.LASF1183:
	.string	"int32_t"
.LASF1275:
	.string	"intmax_t"
.LASF1221:
	.string	"__pos"
.LASF1411:
	.string	"TILE_W"
.LASF303:
	.string	"_ZNKSt15__new_allocatorI16SubApertureImageE11_M_max_sizeEv"
.LASF53:
	.string	"__debug"
.LASF755:
	.string	"_ZSt20__throw_length_errorPKc"
.LASF1294:
	.string	"wctrans"
.LASF503:
	.string	"_ZNSt6vectorIiSaIiEE19_S_nothrow_relocateESt17integral_constantIbLb0EE"
.LASF235:
	.string	"insert"
.LASF263:
	.string	"_ZNSt6vectorIhSaIhEE14_M_emplace_auxEN9__gnu_cxx17__normal_iteratorIPKhS1_EEOh"
.LASF511:
	.string	"_ZNSt6vectorIiSaIiEEC4EOS1_"
.LASF798:
	.string	"__uninitialized_default_n_a<float*, long unsigned int, float>"
.LASF543:
	.string	"_ZNSt6vectorIiSaIiEEixEm"
.LASF1144:
	.string	"setlocale"
.LASF1461:
	.string	"__q1"
.LASF176:
	.string	"_ZNSt6vectorIhSaIhEE6assignESt16initializer_listIhE"
.LASF1276:
	.string	"uintmax_t"
.LASF651:
	.string	"_ZNSt6vectorIfSaIfEEC4EOS1_"
.LASF1467:
	.string	"memcpy"
.LASF915:
	.string	"vwscanf"
.LASF54:
	.string	"__cxx11"
.LASF270:
	.string	"_M_erase_at_end"
.LASF493:
	.string	"_ZNSt12_Vector_baseIiSaIiEEC4EOS0_"
.LASF605:
	.string	"_ZNSaIfEC4ERKS_"
.LASF505:
	.string	"_ZNSt6vectorIiSaIiEE11_S_relocateEPiS2_S2_RS0_"
.LASF633:
	.string	"_ZNSt12_Vector_baseIfSaIfEEC4EOS0_"
.LASF66:
	.string	"_ZNSt15__new_allocatorIhEC4Ev"
.LASF1482:
	.string	"11max_align_t"
.LASF653:
	.string	"_ZNSt6vectorIfSaIfEEC4EOS1_RKS0_St17integral_constantIbLb1EE"
.LASF269:
	.string	"_ZNSt6vectorIhSaIhEE11_S_max_sizeERKS0_"
.LASF547:
	.string	"_ZNKSt6vectorIiSaIiEE2atEm"
.LASF362:
	.string	"_ZNSt6vectorI16SubApertureImageSaIS0_EEaSERKS2_"
.LASF463:
	.string	"_ZNSaIiEC4ERKS_"
.LASF1464:
	.string	"_Z14_mm_set_epi64xxx"
.LASF1160:
	.string	"__uint_least32_t"
.LASF1169:
	.string	"__syscall_slong_t"
.LASF1470:
	.string	"__builtin_memset"
.LASF896:
	.string	"__isoc23_fwscanf"
.LASF1473:
	.ascii	"GNU C++17 16.0.1 20260425 (prerelease) [gcc-16 r16-8812-gd9c"
	.ascii	"07462a22] -march=tigerlake -mmmx -mpopcnt -msse -msse2 -msse"
	.ascii	"3 -mssse3 -msse4.1 -msse4.2 -mavx -mno-sse4a -mno-fma4 -mno-"
	.ascii	"xop -mavx512f -mbmi -mbmi2 -maes -mpclmul -mavx512vl -mavx51"
	.ascii	"2bw -mavx512dq -mavx512cd -mavx512vbmi -mavx512ifma -mavx512"
	.ascii	"vpopcntdq -mavx512vbmi2 -mgfni -mvpclmulqdq -mavx512vnni -ma"
	.ascii	"vx512bitalg -mno-avx512bf16 -mavx512vp2intersect -mno-3dnow "
	.ascii	"-madx -mabm -mno-cldemote -mclflushopt -mclwb -mno-clzero -m"
	.ascii	"cx16 -mno-enqcmd -mf16c -mfsgsbase -mfxsr -mno-hle -msahf -m"
	.ascii	"no-lwp -mlzcnt -mmovbe -mmovdir64b -mmovdiri -mno-mwaitx -mn"
	.ascii	"o-pconfig -mpku -mprfchw -mno-ptwrite -mrdpid -mrdrnd -mrdse"
	.ascii	"ed -mno-rtm -mno-serialize -mno-sgx -msha -mshstk -mno-tbm -"
	.ascii	"mno-tsxldtrk -mvaes -mno-waitpkg -mno-wbnoinvd -mxsave -mxsa"
	.ascii	"vec -mxsaveopt -mxsaves -mno-amx-tile -mno-amx-int8 -mno-amx"
	.ascii	"-bf16 -mno-uintr -mno-hreset -mno-kl -mno-widekl -mno-avxvnn"
	.ascii	"i -mno-avx512fp16 -mno-avxifma -mno-avxvnniint8 -mno-avxneco"
	.ascii	"nvert -mno-cmpccxadd -mno-amx-fp16 -mno-prefetchi -mno-raoin"
	.ascii	"t -mno-amx-complex -mno-avxvnniint16 -mno-sm3 -mno-sha512 -m"
	.ascii	"no-sm4 -mno-apxf -mno-usermsr -mno-avx10.1 -mno-avx10.2 -mno"
	.ascii	"-amx-a"
	.string	"vx512 -mno-amx-tf32 -mno-amx-fp8 -mno-movrs -mno-amx-movrs -mno-avx512bmm --param=l1-cache-size=48 --param=l1-cache-line-size=64 --param=l2-cache-size=8192 -mtune=tigerlake -mavx2 -mfma -masm=intel -g -O3 -std=c++17 -ffast-math -fasynchronous-unwind-tables"
.LASF995:
	.string	"_ZNK9__gnu_cxx17__normal_iteratorIPhSt6vectorIhSaIhEEEptEv"
.LASF642:
	.string	"_ZNSt6vectorIfSaIfEE19_S_nothrow_relocateESt17integral_constantIbLb1EE"
.LASF105:
	.string	"rebind_alloc"
.LASF862:
	.string	"_IO_write_end"
.LASF1206:
	.string	"__isoc23_strtol"
.LASF84:
	.string	"_ZNSt15__new_allocatorIhE10deallocateEPhm"
.LASF465:
	.string	"_ZNSaIiED4Ev"
.LASF786:
	.string	"max<long unsigned int>"
.LASF492:
	.string	"_ZNSt12_Vector_baseIiSaIiEEC4EOS1_"
.LASF1375:
	.string	"_ZNSt12_Vector_baseIiSaIiEE12_Vector_implD2Ev"
.LASF715:
	.string	"_ZNSt6vectorIfSaIfEE17_S_check_init_lenEmRKS0_"
.LASF7:
	.string	"value_type"
.LASF1260:
	.string	"int_least64_t"
.LASF632:
	.string	"_ZNSt12_Vector_baseIfSaIfEEC4EOS1_"
.LASF1211:
	.string	"wctomb"
.LASF157:
	.string	"vector"
.LASF47:
	.string	"nullptr_t"
.LASF947:
	.string	"long int"
.LASF673:
	.string	"_ZNKSt6vectorIfSaIfEE7crbeginEv"
.LASF234:
	.string	"_ZNSt6vectorIhSaIhEE8pop_backEv"
.LASF1054:
	.string	"__alloc_traits<std::allocator<(anonymous namespace)::SubParams>, (anonymous namespace)::SubParams>"
.LASF620:
	.string	"_ZNSt12_Vector_baseIfSaIfEE12_Vector_implC4ERKS0_"
.LASF1258:
	.string	"int_least16_t"
.LASF841:
	.string	"_ZSt17__size_to_integerm"
.LASF1073:
	.string	"_ZN9__gnu_cxx14__alloc_traitsISaIfEfE27_S_propagate_on_move_assignEv"
.LASF1299:
	.string	"index"
.LASF95:
	.string	"_ZNSaIhED4Ev"
.LASF1354:
	.string	"_ZNSaIfEC2ERKS_"
.LASF268:
	.string	"_S_max_size"
.LASF1215:
	.string	"__isoc23_strtoll"
.LASF593:
	.string	"_ZNSt15__new_allocatorIfEC4Ev"
.LASF1246:
	.string	"rename"
.LASF1366:
	.string	"_ZNSaIhEC2ERKS_"
.LASF959:
	.string	"wcschr"
.LASF179:
	.string	"_ZNSt6vectorIhSaIhEE5beginEv"
.LASF29:
	.string	"_ZNKSt15__exception_ptr13exception_ptr6_M_getEv"
.LASF1356:
	.string	"_ZNSaIiEC2ERKS_"
.LASF753:
	.string	"_ZSt17__throw_bad_allocv"
.LASF1072:
	.string	"_ZN9__gnu_cxx14__alloc_traitsISaIfEfE27_S_propagate_on_copy_assignEv"
.LASF1288:
	.string	"localtime"
.LASF741:
	.string	"_ZNSt19_UninitDestroyGuardIPivED4Ev"
.LASF1257:
	.string	"int_least8_t"
.LASF962:
	.string	"wcsstr"
.LASF696:
	.string	"_ZNSt6vectorIfSaIfEE8pop_backEv"
.LASF1237:
	.string	"fread"
.LASF1130:
	.string	"int_frac_digits"
.LASF1100:
	.string	"_ZN9__gnu_cxxneERKNS_17__normal_iteratorIP16SubApertureImageSt6vectorIS1_SaIS1_EEEES8_"
.LASF1384:
	.string	"__sz"
.LASF810:
	.string	"fill_n<unsigned char*, long unsigned int, unsigned char>"
.LASF469:
	.string	"_ZNSt16allocator_traitsISaIiEE10deallocateERS0_Pim"
.LASF329:
	.string	"_ZNKSt12_Vector_baseI16SubApertureImageSaIS0_EE13get_allocatorEv"
.LASF1121:
	.string	"thousands_sep"
.LASF1378:
	.string	"__old_start"
.LASF56:
	.string	"chrono_literals"
.LASF1245:
	.string	"remove"
.LASF637:
	.string	"_ZNSt12_Vector_baseIfSaIfEE11_M_allocateEm"
.LASF941:
	.string	"wcstod"
.LASF1164:
	.string	"__uintmax_t"
.LASF943:
	.string	"wcstof"
.LASF1404:
	.string	"subapertures"
.LASF615:
	.string	"_ZNSt12_Vector_baseIfSaIfEE17_Vector_impl_dataC4Ev"
.LASF944:
	.string	"wcstok"
.LASF945:
	.string	"wcstol"
.LASF460:
	.string	"_ZNKSt15__new_allocatorIiE11_M_max_sizeEv"
.LASF116:
	.string	"_M_swap_data"
.LASF685:
	.string	"_ZNKSt6vectorIfSaIfEE14_M_range_checkEm"
.LASF418:
	.string	"_ZNKSt6vectorI16SubApertureImageSaIS0_EE12_M_check_lenEmPKc"
.LASF421:
	.string	"_ZNSt6vectorI16SubApertureImageSaIS0_EE15_M_erase_at_endEPS0_"
.LASF442:
	.string	"~_Guard_alloc"
.LASF152:
	.string	"_S_nothrow_relocate"
.LASF1332:
	.string	"__first"
.LASF833:
	.string	"_ZSt4fillIN9__gnu_cxx17__normal_iteratorIPfSt6vectorIfSaIfEEEEfEvT_S7_RKT0_"
.LASF1439:
	.string	"__rhs"
.LASF229:
	.string	"_ZNKSt6vectorIhSaIhEE4dataEv"
.LASF1178:
	.string	"lldiv_t"
.LASF1233:
	.string	"fgetc"
.LASF1212:
	.string	"lldiv"
.LASF1167:
	.string	"__clock_t"
.LASF686:
	.string	"_ZNSt6vectorIfSaIfEE2atEm"
.LASF461:
	.string	"allocator<int>"
.LASF828:
	.string	"_Allocator"
.LASF1095:
	.string	"__type"
.LASF37:
	.string	"_ZNSt15__exception_ptr13exception_ptraSERKS0_"
.LASF279:
	.string	"_ZNKSt6vectorIhSaIhEE11_M_data_ptrIhEEPT_S4_"
.LASF1088:
	.string	"_ZN9__gnu_cxx17__normal_iteratorIPfSt6vectorIfSaIfEEEpLEl"
.LASF443:
	.string	"_M_realloc_append<const (anonymous namespace)::SubParams&>"
.LASF744:
	.string	"_M_first"
.LASF1053:
	.string	"_ZNK9__gnu_cxx17__normal_iteratorIPK16SubApertureImageSt6vectorIS1_SaIS1_EEE4baseEv"
.LASF992:
	.string	"operator*"
.LASF1005:
	.string	"operator+"
.LASF1009:
	.string	"operator-"
.LASF1170:
	.string	"__gnu_debug"
.LASF400:
	.string	"_ZNSt6vectorI16SubApertureImageSaIS0_EE8pop_backEv"
.LASF823:
	.string	"_ZSt8_DestroyIPffEvT_S1_RSaIT0_E"
.LASF1149:
	.string	"__int16_t"
.LASF955:
	.string	"wmemset"
.LASF36:
	.string	"operator="
.LASF1150:
	.string	"__uint16_t"
.LASF487:
	.string	"_ZNKSt12_Vector_baseIiSaIiEE13get_allocatorEv"
.LASF887:
	.string	"btowc"
.LASF1423:
	.string	"ind_lbot"
.LASF174:
	.string	"assign"
.LASF1314:
	.string	"__m128i"
.LASF1359:
	.string	"__args"
.LASF700:
	.string	"_ZNSt6vectorIfSaIfEE6insertEN9__gnu_cxx17__normal_iteratorIPKfS1_EEmRS4_"
.LASF502:
	.string	"_ZNSt6vectorIiSaIiEE19_S_nothrow_relocateESt17integral_constantIbLb1EE"
.LASF259:
	.string	"_ZNSt6vectorIhSaIhEE16_M_shrink_to_fitEv"
.LASF903:
	.string	"putwchar"
.LASF634:
	.string	"_ZNSt12_Vector_baseIfSaIfEEC4EOS1_RKS0_"
.LASF1074:
	.string	"_ZN9__gnu_cxx14__alloc_traitsISaIfEfE20_S_propagate_on_swapEv"
.LASF506:
	.string	"_ZNSt6vectorIiSaIiEEC4Ev"
.LASF1158:
	.string	"__uint_least16_t"
.LASF567:
	.string	"_ZNSt6vectorIiSaIiEE14_M_fill_assignEmRKi"
.LASF660:
	.string	"_ZNSt6vectorIfSaIfEEaSESt16initializer_listIfE"
.LASF1124:
	.string	"currency_symbol"
.LASF1307:
	.string	"double_t"
.LASF1394:
	.string	"_ZNSt6vectorIiSaIiEEC2EmRKiRKS0_"
.LASF735:
	.string	"iterator_traits<const SubApertureImage*>"
.LASF1418:
	.string	"tile_y_end"
.LASF789:
	.string	"_ZSt10__fill_n_aIPhmhET_S1_T0_RKT1_St26random_access_iterator_tag"
.LASF575:
	.string	"_ZNSt6vectorIiSaIiEE17_S_check_init_lenEmRKS0_"
.LASF289:
	.string	"_ZSt3absd"
.LASF161:
	.string	"_ZNSt6vectorIhSaIhEEC4EmRKhRKS0_"
.LASF301:
	.string	"_ZNSt15__new_allocatorI16SubApertureImageE10deallocateEPS0_m"
.LASF799:
	.string	"_ZSt27__uninitialized_default_n_aIPfmfET_S1_T0_RSaIT1_E"
.LASF1390:
	.string	"_ZNSt6vectorIfSaIfEEC2EmRKS0_"
.LASF869:
	.string	"_chain"
.LASF121:
	.string	"_ZNSt12_Vector_baseIhSaIhEE12_Vector_implC4EOS0_"
.LASF1140:
	.string	"int_n_cs_precedes"
.LASF683:
	.string	"_ZNSt6vectorIfSaIfEEixEm"
.LASF796:
	.string	"_Destroy<float*>"
.LASF237:
	.string	"_ZNSt6vectorIhSaIhEE6insertEN9__gnu_cxx17__normal_iteratorIPKhS1_EEOh"
.LASF1022:
	.string	"_ZN9__gnu_cxx14__alloc_traitsISaI16SubApertureImageES1_E15_S_nothrow_moveEv"
.LASF584:
	.string	"initializer_list"
.LASF496:
	.string	"_ZNSt12_Vector_baseIiSaIiEED4Ev"
.LASF1449:
	.string	"_mm256_set1_ps"
.LASF706:
	.string	"_ZNSt6vectorIfSaIfEE21_M_default_initializeEm"
.LASF1171:
	.string	"11__mbstate_t"
.LASF555:
	.string	"_ZNSt6vectorIiSaIiEE9push_backEOi"
.LASF3:
	.string	"unsigned char"
.LASF656:
	.string	"_ZNSt6vectorIfSaIfEEC4ESt16initializer_listIfERKS0_"
.LASF1023:
	.string	"rebind<SubApertureImage>"
.LASF500:
	.string	"__type_identity<std::allocator<int> >"
.LASF1302:
	.string	"_ZNK9ImageData2atEmmm"
.LASF52:
	.string	"random_access_iterator_tag"
.LASF950:
	.string	"wcsxfrm"
.LASF456:
	.string	"_ZNKSt15__new_allocatorIiE7addressERKi"
.LASF1427:
	.string	"remaining"
.LASF935:
	.string	"wcslen"
.LASF485:
	.string	"_ZNSt12_Vector_baseIiSaIiEE19_M_get_Tp_allocatorEv"
.LASF1060:
	.string	"_ZN9__gnu_cxx14__alloc_traitsISaIiEiE10_S_on_swapERS1_S3_"
.LASF2:
	.string	"float"
.LASF88:
	.string	"_ZNKSt15__new_allocatorIhE11_M_max_sizeEv"
.LASF340:
	.string	"_ZNSt12_Vector_baseI16SubApertureImageSaIS0_EE13_M_deallocateEPS0_m"
.LASF693:
	.string	"_ZNKSt6vectorIfSaIfEE4dataEv"
.LASF18:
	.string	"__bool_constant"
.LASF467:
	.string	"_ZNSt16allocator_traitsISaIiEE8allocateERS0_m"
.LASF481:
	.string	"_ZNSt12_Vector_baseIiSaIiEE12_Vector_implC4EOS0_OS2_"
.LASF913:
	.string	"__isoc23_vswscanf"
.LASF435:
	.string	"__type_identity<std::allocator<(anonymous namespace)::SubParams> >"
.LASF1271:
	.string	"uint_fast32_t"
.LASF410:
	.string	"_ZNSt6vectorI16SubApertureImageSaIS0_EE21_M_default_initializeEm"
.LASF1406:
	.string	"output"
.LASF125:
	.string	"_ZNSt12_Vector_baseIhSaIhEE19_M_get_Tp_allocatorEv"
.LASF1263:
	.string	"uint_least32_t"
.LASF723:
	.string	"_ZNKSt6vectorIfSaIfEE11_M_data_ptrIfEEPT_S4_"
.LASF980:
	.string	"_S_always_equal"
.LASF321:
	.string	"_ZNSt12_Vector_baseI16SubApertureImageSaIS0_EE17_Vector_impl_data12_M_swap_dataERS3_"
.LASF825:
	.string	"_ZSt8_DestroyIPiiEvT_S1_RSaIT0_E"
.LASF1142:
	.string	"int_p_sign_posn"
.LASF604:
	.string	"_ZNSaIfEC4Ev"
.LASF695:
	.string	"_ZNSt6vectorIfSaIfEE9push_backEOf"
.LASF189:
	.string	"rend"
.LASF445:
	.string	"reverse_iterator<__gnu_cxx::__normal_iterator<(anonymous namespace)::SubParams*, std::vector<(anonymous namespace)::SubParams, std::allocator<(anonymous namespace)::SubParams> > > >"
.LASF762:
	.string	"fill_n<float*, long unsigned int, float>"
.LASF1248:
	.string	"setbuf"
.LASF1448:
	.string	"_Z20_mm256_cvtepu8_epi32Dv2_x"
.LASF508:
	.string	"_ZNSt6vectorIiSaIiEEC4EmRKS0_"
.LASF343:
	.string	"vector<SubApertureImage, std::allocator<SubApertureImage> >"
.LASF1315:
	.string	"__m128i_u"
.LASF966:
	.string	"_S_single"
.LASF776:
	.string	"__fill_a1<unsigned char*, std::vector<unsigned char>, unsigned char>"
.LASF257:
	.string	"_ZNSt6vectorIhSaIhEE17_M_default_appendEm"
.LASF644:
	.string	"_ZNSt6vectorIfSaIfEE15_S_use_relocateEv"
.LASF40:
	.string	"_ZNSt15__exception_ptr13exception_ptrD4Ev"
.LASF1458:
	.string	"_Z15_mm_loadl_epi64PKDv2_x"
.LASF483:
	.string	"_ZNSt12_Vector_baseIhSaIhEE12_Vector_implD4Ev"
.LASF934:
	.string	"tm_zone"
.LASF1256:
	.string	"uint64_t"
.LASF71:
	.string	"~__new_allocator"
.LASF895:
	.string	"fwscanf"
.LASF1040:
	.string	"_ZN9__gnu_cxx17__normal_iteratorIPK16SubApertureImageSt6vectorIS1_SaIS1_EEEC4Ev"
.LASF260:
	.string	"_M_insert_rval"
.LASF923:
	.string	"wcsftime"
.LASF1042:
	.string	"_ZNK9__gnu_cxx17__normal_iteratorIPK16SubApertureImageSt6vectorIS1_SaIS1_EEEdeEv"
.LASF990:
	.string	"_ZN9__gnu_cxx17__normal_iteratorIPhSt6vectorIhSaIhEEEC4Ev"
.LASF466:
	.string	"allocator_traits<std::allocator<int> >"
.LASF24:
	.string	"_M_addref"
.LASF625:
	.string	"_ZNSt12_Vector_baseIfSaIfEE19_M_get_Tp_allocatorEv"
.LASF529:
	.string	"_ZNSt6vectorIiSaIiEE4rendEv"
.LASF385:
	.string	"_ZNKSt6vectorI16SubApertureImageSaIS0_EE5emptyEv"
.LASF69:
	.string	"_ZNKSt15__exception_ptr13exception_ptrcvbEv"
.LASF1303:
	.string	"~ImageData"
.LASF677:
	.string	"_ZNSt6vectorIfSaIfEE6resizeEm"
.LASF669:
	.string	"_ZNSt6vectorIfSaIfEE4rendEv"
.LASF277:
	.string	"_ZNSt6vectorIhSaIhEE14_M_move_assignEOS1_St17integral_constantIbLb0EE"
.LASF82:
	.string	"size_type"
.LASF1247:
	.string	"rewind"
.LASF428:
	.string	"reverse_iterator<__gnu_cxx::__normal_iterator<const SubApertureImage*, std::vector<SubApertureImage, std::allocator<SubApertureImage> > > >"
.LASF1367:
	.string	"_ZN9__gnu_cxx17__normal_iteratorIPfSt6vectorIfSaIfEEEC2ERKS1_"
.LASF1308:
	.string	"_Float32x"
.LASF378:
	.string	"_ZNKSt6vectorI16SubApertureImageSaIS0_EE5crendEv"
.LASF622:
	.string	"_ZNSt12_Vector_baseIfSaIfEE12_Vector_implC4EOS0_"
.LASF319:
	.string	"_ZNSt12_Vector_baseI16SubApertureImageSaIS0_EE17_Vector_impl_data12_M_copy_dataERKS3_"
.LASF1325:
	.string	"x_end"
.LASF1471:
	.string	"_Unwind_Resume"
.LASF556:
	.string	"_ZNSt6vectorIiSaIiEE8pop_backEv"
.LASF494:
	.string	"_ZNSt12_Vector_baseIiSaIiEEC4EOS1_RKS0_"
.LASF657:
	.string	"_ZNSt6vectorIfSaIfEED4Ev"
.LASF671:
	.string	"_ZNKSt6vectorIfSaIfEE6cbeginEv"
.LASF177:
	.string	"iterator"
.LASF1219:
	.string	"strtold"
.LASF1021:
	.string	"_ZN9__gnu_cxx14__alloc_traitsISaI16SubApertureImageES1_E15_S_always_equalEv"
.LASF1214:
	.string	"strtoll"
.LASF1049:
	.string	"_ZN9__gnu_cxx17__normal_iteratorIPK16SubApertureImageSt6vectorIS1_SaIS1_EEEpLEl"
.LASF705:
	.string	"_ZNSt6vectorIfSaIfEE18_M_fill_initializeEmRKf"
.LASF458:
	.string	"_ZNSt15__new_allocatorIiE10deallocateEPim"
.LASF600:
	.string	"_ZNSt15__new_allocatorIfE10deallocateEPfm"
.LASF1004:
	.string	"_ZN9__gnu_cxx17__normal_iteratorIPhSt6vectorIhSaIhEEEpLEl"
.LASF296:
	.string	"_ZNSt15__new_allocatorI16SubApertureImageEaSERKS1_"
.LASF1189:
	.string	"atexit"
.LASF861:
	.string	"_IO_write_ptr"
.LASF1201:
	.string	"quick_exit"
.LASF675:
	.string	"_ZNKSt6vectorIfSaIfEE4sizeEv"
.LASF419:
	.string	"_ZNSt6vectorI16SubApertureImageSaIS0_EE17_S_check_init_lenEmRKS1_"
.LASF1472:
	.string	"__builtin_unwind_resume"
.LASF1129:
	.string	"negative_sign"
.LASF591:
	.string	"iterator_traits<(anonymous namespace)::SubParams*>"
.LASF417:
	.string	"_ZNSt6vectorI16SubApertureImageSaIS0_EE14_M_emplace_auxEN9__gnu_cxx17__normal_iteratorIPKS0_S2_EEOS0_"
.LASF519:
	.string	"_ZNSt6vectorIiSaIiEEaSEOS1_"
.LASF1082:
	.string	"_ZNK9__gnu_cxx17__normal_iteratorIPfSt6vectorIfSaIfEEEptEv"
.LASF1155:
	.string	"__int_least8_t"
.LASF918:
	.string	"wcscat"
.LASF1431:
	.string	"rbot_b"
.LASF659:
	.string	"_ZNSt6vectorIfSaIfEEaSEOS1_"
.LASF985:
	.string	"other"
.LASF811:
	.string	"_ZSt6fill_nIPhmhET_S1_T0_RKT1_"
.LASF146:
	.string	"_ZNSt12_Vector_baseIhSaIhEE17_M_create_storageEm"
.LASF641:
	.string	"vector<float, std::allocator<float> >"
.LASF438:
	.string	"_Guard_alloc"
.LASF169:
	.string	"~vector"
.LASF300:
	.string	"_ZNSt15__new_allocatorI16SubApertureImageE8allocateEmPKv"
.LASF606:
	.string	"_ZNSaIfEaSERKS_"
.LASF764:
	.string	"_Construct<float>"
.LASF1241:
	.string	"ftell"
.LASF533:
	.string	"_ZNKSt6vectorIiSaIiEE7crbeginEv"
.LASF1087:
	.string	"_ZNK9__gnu_cxx17__normal_iteratorIPfSt6vectorIfSaIfEEEixEl"
.LASF1295:
	.string	"wctype"
.LASF1123:
	.string	"int_curr_symbol"
.LASF11:
	.string	"_ZNKSt17integral_constantIbLb1EEclEv"
.LASF70:
	.string	"_ZNSt15__new_allocatorIhEaSERKS0_"
.LASF93:
	.string	"_ZNSaIhEaSERKS_"
.LASF159:
	.string	"_ZNSt6vectorIhSaIhEEC4ERKS0_"
.LASF809:
	.string	"_Destroy<(anonymous namespace)::SubParams*>"
.LASF464:
	.string	"_ZNSaIiEaSERKS_"
.LASF771:
	.string	"_ZSt18__do_uninit_fill_nIPimiET_S1_T0_RKT1_"
.LASF1025:
	.string	"_ZN9__gnu_cxx17__normal_iteratorIP16SubApertureImageSt6vectorIS1_SaIS1_EEEC4Ev"
.LASF621:
	.string	"_ZNSt12_Vector_baseIfSaIfEE12_Vector_implC4EOS2_"
.LASF534:
	.string	"_ZNKSt6vectorIiSaIiEE5crendEv"
.LASF1321:
	.string	"_Float16"
.LASF46:
	.string	"_ZSt17rethrow_exceptionNSt15__exception_ptr13exception_ptrE"
.LASF714:
	.string	"_ZNKSt6vectorIfSaIfEE12_M_check_lenEmPKc"
.LASF1034:
	.string	"_ZN9__gnu_cxx17__normal_iteratorIP16SubApertureImageSt6vectorIS1_SaIS1_EEEpLEl"
.LASF200:
	.string	"size"
.LASF525:
	.string	"_ZNSt6vectorIiSaIiEE3endEv"
.LASF1026:
	.string	"_ZN9__gnu_cxx17__normal_iteratorIP16SubApertureImageSt6vectorIS1_SaIS1_EEEC4ERKS2_"
.LASF19:
	.string	"__swappable_details"
.LASF1409:
	.string	"diff"
.LASF729:
	.string	"_ZNKSt16initializer_listIiE3endEv"
.LASF781:
	.string	"_ZSt9__fill_a1IPffEvT_S1_RKT0_"
.LASF1301:
	.string	"_ZN9ImageData2atEmmm"
.LASF885:
	.string	"FILE"
.LASF220:
	.string	"_ZNKSt6vectorIhSaIhEE2atEm"
.LASF482:
	.string	"~_Vector_impl"
.LASF484:
	.string	"_ZNSt12_Vector_baseIiSaIiEE12_Vector_implD4Ev"
.LASF1440:
	.string	"_ZN9ImageDataD2Ev"
.LASF114:
	.string	"_M_copy_data"
.LASF1281:
	.string	"clock"
.LASF244:
	.string	"clear"
.LASF128:
	.string	"_ZNKSt12_Vector_baseIhSaIhEE13get_allocatorEv"
.LASF1285:
	.string	"asctime"
.LASF1028:
	.string	"_ZNK9__gnu_cxx17__normal_iteratorIP16SubApertureImageSt6vectorIS1_SaIS1_EEEptEv"
.LASF44:
	.string	"_ZNKSt15__exception_ptr13exception_ptr20__cxa_exception_typeEv"
.LASF1250:
	.string	"tmpfile"
.LASF113:
	.string	"_ZNSt12_Vector_baseIhSaIhEE17_Vector_impl_dataC4EOS2_"
.LASF709:
	.string	"_ZNSt6vectorIfSaIfEE14_M_fill_appendEmRKf"
.LASF775:
	.string	"_ZSt12__niter_baseIPhET_S1_"
.LASF608:
	.string	"allocator_traits<std::allocator<float> >"
.LASF6:
	.string	"size_t"
.LASF813:
	.string	"_ZSt24__uninitialized_fill_n_aIPhmhhET_S1_T0_RKT1_RSaIT2_E"
.LASF630:
	.string	"_ZNSt12_Vector_baseIfSaIfEEC4Em"
.LASF1033:
	.string	"_ZNK9__gnu_cxx17__normal_iteratorIP16SubApertureImageSt6vectorIS1_SaIS1_EEEixEl"
.LASF1287:
	.string	"gmtime"
.LASF850:
	.string	"__count"
.LASF1313:
	.string	"__v16qi"
.LASF1253:
	.string	"uint8_t"
.LASF1173:
	.string	"quot"
.LASF721:
	.string	"_ZNSt6vectorIfSaIfEE14_M_move_assignEOS1_St17integral_constantIbLb0EE"
.LASF960:
	.string	"wcspbrk"
.LASF1426:
	.string	"x_stop"
.LASF221:
	.string	"front"
.LASF102:
	.string	"_ZNSt16allocator_traitsISaIhEE8max_sizeERKS0_"
.LASF306:
	.string	"_ZNSaI16SubApertureImageEC4ERKS0_"
.LASF294:
	.string	"_ZNSt15__new_allocatorI16SubApertureImageEC4Ev"
.LASF1377:
	.string	"_ZNSt15__new_allocatorIiEC2Ev"
.LASF758:
	.string	"_FIte"
.LASF1277:
	.string	"_Float32"
.LASF526:
	.string	"_ZNKSt6vectorIiSaIiEE3endEv"
.LASF1244:
	.string	"perror"
.LASF988:
	.string	"_M_current"
.LASF322:
	.string	"_ZNSt12_Vector_baseI16SubApertureImageSaIS0_EE12_Vector_implC4Ev"
.LASF348:
	.string	"_ZNSt6vectorI16SubApertureImageSaIS0_EE15_S_use_relocateEv"
.LASF795:
	.string	"_ZSt9__fill_a1IPfSt6vectorIfSaIfEEfEvN9__gnu_cxx17__normal_iteratorIT_T0_EES8_RKT1_"
.LASF1159:
	.string	"__int_least32_t"
.LASF408:
	.string	"_ZNSt6vectorI16SubApertureImageSaIS0_EE5clearEv"
.LASF731:
	.string	"reverse_iterator<__gnu_cxx::__normal_iterator<float*, std::vector<float, std::allocator<float> > > >"
.LASF1341:
	.string	"_ZNSt12_Vector_baseIhSaIhEE12_Vector_implC2ERKS0_"
.LASF252:
	.string	"_M_fill_insert"
.LASF888:
	.string	"fgetwc"
.LASF865:
	.string	"_IO_save_base"
.LASF1267:
	.string	"int_fast32_t"
.LASF371:
	.string	"_ZNSt6vectorI16SubApertureImageSaIS0_EE6rbeginEv"
.LASF716:
	.string	"_ZNSt6vectorIfSaIfEE11_S_max_sizeERKS0_"
.LASF1474:
	.string	"_ZNSt15__exception_ptr4swapERNS_13exception_ptrES1_"
.LASF663:
	.string	"_ZNSt6vectorIfSaIfEE5beginEv"
.LASF274:
	.string	"_ZNSt6vectorIhSaIhEE8_M_eraseEN9__gnu_cxx17__normal_iteratorIPhS1_EES5_"
.LASF424:
	.string	"_ZNSt6vectorI16SubApertureImageSaIS0_EE14_M_move_assignEOS2_St17integral_constantIbLb1EE"
.LASF951:
	.string	"wctob"
.LASF884:
	.string	"_unused2"
.LASF626:
	.string	"_ZNKSt12_Vector_baseIfSaIfEE19_M_get_Tp_allocatorEv"
.LASF639:
	.string	"_ZNSt12_Vector_baseIfSaIfEE17_M_create_storageEm"
.LASF313:
	.string	"_ZNSt16allocator_traitsISaI16SubApertureImageEE10deallocateERS1_PS0_m"
.LASF894:
	.string	"fwprintf"
.LASF1450:
	.string	"_Z14_mm256_set1_psf"
.LASF512:
	.string	"_ZNSt6vectorIiSaIiEEC4ERKS1_RKS0_"
.LASF144:
	.string	"_ZNSt12_Vector_baseIhSaIhEE13_M_deallocateEPhm"
.LASF441:
	.string	"_M_vect"
.LASF250:
	.string	"_M_fill_assign"
.LASF849:
	.string	"__wchb"
.LASF1296:
	.string	"ImageData"
.LASF682:
	.string	"_ZNSt6vectorIfSaIfEE7reserveEm"
.LASF820:
	.string	"__fill_a<__gnu_cxx::__normal_iterator<float*, std::vector<float> >, float>"
.LASF392:
	.string	"_ZNSt6vectorI16SubApertureImageSaIS0_EE5frontEv"
.LASF12:
	.string	"integral_constant<bool, true>"
.LASF745:
	.string	"_M_cur"
.LASF399:
	.string	"_ZNSt6vectorI16SubApertureImageSaIS0_EE9push_backEOS0_"
.LASF396:
	.string	"_ZNSt6vectorI16SubApertureImageSaIS0_EE4dataEv"
.LASF612:
	.string	"_ZNSt16allocator_traitsISaIfEE8max_sizeERKS0_"
.LASF374:
	.string	"_ZNKSt6vectorI16SubApertureImageSaIS0_EE4rendEv"
.LASF264:
	.string	"_M_check_len"
.LASF476:
	.string	"_ZNSt12_Vector_baseIiSaIiEE17_Vector_impl_data12_M_swap_dataERS2_"
.LASF847:
	.string	"wint_t"
.LASF1197:
	.string	"mblen"
.LASF123:
	.string	"_Tp_alloc_type"
.LASF1428:
	.string	"ltop_b"
.LASF908:
	.string	"vfwprintf"
.LASF752:
	.string	"_ZSt28__throw_bad_array_new_lengthv"
.LASF1415:
	.string	"__for_end"
.LASF96:
	.string	"allocator_traits<std::allocator<unsigned char> >"
.LASF471:
	.string	"_ZNSt16allocator_traitsISaIiEE37select_on_container_copy_constructionERKS0_"
.LASF72:
	.string	"_ZNSt15__new_allocatorIhED4Ev"
.LASF1370:
	.string	"_ZNSt12_Vector_baseIfSaIfEE12_Vector_implD2Ev"
.LASF595:
	.string	"_ZNSt15__new_allocatorIfEaSERKS0_"
.LASF1106:
	.string	"wcstoull"
.LASF879:
	.string	"_wide_data"
.LASF516:
	.string	"_ZNSt6vectorIiSaIiEEC4ESt16initializer_listIiERKS0_"
.LASF979:
	.string	"_ZN9__gnu_cxx14__alloc_traitsISaIhEhE20_S_propagate_on_swapEv"
.LASF191:
	.string	"_ZNKSt6vectorIhSaIhEE4rendEv"
.LASF312:
	.string	"_ZNSt16allocator_traitsISaIhEE10deallocateERS0_Phm"
.LASF398:
	.string	"_ZNSt6vectorI16SubApertureImageSaIS0_EE9push_backERKS0_"
.LASF1070:
	.string	"_ZN9__gnu_cxx14__alloc_traitsISaIfEfE17_S_select_on_copyERKS1_"
.LASF719:
	.string	"_ZNSt6vectorIfSaIfEE8_M_eraseEN9__gnu_cxx17__normal_iteratorIPfS1_EES5_"
.LASF1232:
	.string	"fflush"
.LASF292:
	.string	"_ZSt3divll"
.LASF713:
	.string	"_ZNSt6vectorIfSaIfEE14_M_emplace_auxEN9__gnu_cxx17__normal_iteratorIPKfS1_EEOf"
.LASF1064:
	.string	"_ZN9__gnu_cxx14__alloc_traitsISaIiEiE15_S_always_equalEv"
.LASF891:
	.string	"fputwc"
.LASF1369:
	.string	"_ZNSt12_Vector_baseIfSaIfEEC2EmRKS0_"
.LASF1278:
	.string	"_Float64"
.LASF1329:
	.string	"_ZdlPvm"
.LASF406:
	.string	"_ZNSt6vectorI16SubApertureImageSaIS0_EE5eraseEN9__gnu_cxx17__normal_iteratorIPKS0_S2_EES7_"
.LASF414:
	.string	"_ZNSt6vectorI16SubApertureImageSaIS0_EE17_M_default_appendEm"
.LASF892:
	.string	"fputws"
.LASF401:
	.string	"_ZNSt6vectorI16SubApertureImageSaIS0_EE6insertEN9__gnu_cxx17__normal_iteratorIPKS0_S2_EERS5_"
.LASF178:
	.string	"begin"
.LASF129:
	.string	"_Vector_base"
.LASF480:
	.string	"_ZNSt12_Vector_baseIiSaIiEE12_Vector_implC4EOS0_"
.LASF1020:
	.string	"_ZN9__gnu_cxx14__alloc_traitsISaI16SubApertureImageES1_E20_S_propagate_on_swapEv"
.LASF806:
	.string	"__enable_if_t"
.LASF784:
	.string	"uninitialized_fill_n<int*, long unsigned int, int>"
.LASF1386:
	.string	"_ZNSt15__new_allocatorIhED2Ev"
.LASF1357:
	.string	"__ptr"
.LASF104:
	.string	"_ZNSt16allocator_traitsISaIhEE37select_on_container_copy_constructionERKS0_"
.LASF1013:
	.string	"_Container"
.LASF1002:
	.string	"_ZNK9__gnu_cxx17__normal_iteratorIPhSt6vectorIhSaIhEEEixEl"
.LASF1153:
	.string	"__int64_t"
.LASF140:
	.string	"_M_impl"
.LASF808:
	.string	"__niter_base<(anonymous namespace)::SubParams*>"
.LASF1154:
	.string	"__uint64_t"
.LASF361:
	.string	"_ZNSt6vectorI16SubApertureImageSaIS0_EED4Ev"
.LASF585:
	.string	"_ZNSt16initializer_listIiEC4EPKim"
.LASF1374:
	.string	"_ZNSt12_Vector_baseIiSaIiEEC2EmRKS0_"
.LASF92:
	.string	"_ZNSaIhEC4ERKS_"
.LASF1416:
	.string	"shift_x"
.LASF1417:
	.string	"shift_y"
.LASF192:
	.string	"cbegin"
.LASF127:
	.string	"get_allocator"
.LASF293:
	.string	"__new_allocator<SubApertureImage>"
.LASF1352:
	.string	"_ZNSt15__new_allocatorIhEC2ERKS0_"
.LASF207:
	.string	"_ZNSt6vectorIhSaIhEE13shrink_to_fitEv"
.LASF1407:
	.string	"params"
.LASF195:
	.string	"_ZNKSt6vectorIhSaIhEE4cendEv"
.LASF164:
	.string	"_ZNSt6vectorIhSaIhEEC4ERKS1_RKS0_"
.LASF1120:
	.string	"decimal_point"
.LASF355:
	.string	"_ZNSt6vectorI16SubApertureImageSaIS0_EEC4EOS2_"
.LASF432:
	.string	"allocator_traits<std::allocator<(anonymous namespace)::SubParams> >"
.LASF118:
	.string	"_ZNSt12_Vector_baseIhSaIhEE12_Vector_implC4Ev"
.LASF761:
	.string	"_OutputIterator"
.LASF1065:
	.string	"_ZN9__gnu_cxx14__alloc_traitsISaIiEiE15_S_nothrow_moveEv"
.LASF566:
	.string	"_ZNSt6vectorIiSaIiEE21_M_default_initializeEm"
.LASF405:
	.string	"_ZNSt6vectorI16SubApertureImageSaIS0_EE5eraseEN9__gnu_cxx17__normal_iteratorIPKS0_S2_EE"
.LASF78:
	.string	"_ZNKSt15__new_allocatorIhE7addressERKh"
.LASF1483:
	.string	"decltype(nullptr)"
.LASF1334:
	.string	"this"
.LASF530:
	.string	"_ZNKSt6vectorIiSaIiEE4rendEv"
.LASF198:
	.string	"crend"
.LASF670:
	.string	"_ZNKSt6vectorIfSaIfEE4rendEv"
.LASF1229:
	.string	"fclose"
.LASF1207:
	.string	"strtoul"
.LASF1371:
	.string	"_ZNSt15__new_allocatorIfED2Ev"
.LASF479:
	.string	"_ZNSt12_Vector_baseIiSaIiEE12_Vector_implC4EOS2_"
.LASF981:
	.string	"_ZN9__gnu_cxx14__alloc_traitsISaIhEhE15_S_always_equalEv"
.LASF971:
	.string	"_ZN9__gnu_cxx14__alloc_traitsISaIhEhE17_S_select_on_copyERKS1_"
.LASF325:
	.string	"_ZNSt12_Vector_baseI16SubApertureImageSaIS0_EE12_Vector_implC4EOS1_"
.LASF720:
	.string	"_ZNSt6vectorIfSaIfEE14_M_move_assignEOS1_St17integral_constantIbLb1EE"
.LASF550:
	.string	"_ZNSt6vectorIiSaIiEE4backEv"
.LASF856:
	.string	"_flags"
.LASF1131:
	.string	"frac_digits"
.LASF522:
	.string	"_ZNSt6vectorIiSaIiEE6assignESt16initializer_listIiE"
.LASF1185:
	.string	"timespec"
.LASF370:
	.string	"_ZNKSt6vectorI16SubApertureImageSaIS0_EE3endEv"
.LASF579:
	.string	"_ZNSt6vectorIiSaIiEE8_M_eraseEN9__gnu_cxx17__normal_iteratorIPiS1_EES5_"
.LASF898:
	.string	"mbrlen"
.LASF690:
	.string	"_ZNSt6vectorIfSaIfEE4backEv"
.LASF1176:
	.string	"ldiv_t"
.LASF977:
	.string	"_ZN9__gnu_cxx14__alloc_traitsISaIhEhE27_S_propagate_on_move_assignEv"
.LASF214:
	.string	"operator[]"
.LASF97:
	.string	"_ZNSt27__uninitialized_default_n_1ILb1EE18__uninit_default_nIPfmEET_S3_T0_"
.LASF58:
	.string	"__detail"
.LASF717:
	.string	"_ZNSt6vectorIfSaIfEE15_M_erase_at_endEPf"
.LASF1157:
	.string	"__int_least16_t"
.LASF711:
	.string	"_ZNSt6vectorIfSaIfEE16_M_shrink_to_fitEv"
.LASF349:
	.string	"_ZNSt6vectorI16SubApertureImageSaIS0_EE11_S_relocateEPS0_S3_S3_RS1_"
.LASF1312:
	.string	"__m64_u"
.LASF570:
	.string	"_ZNSt6vectorIiSaIiEE17_M_default_appendEm"
.LASF559:
	.string	"_ZNSt6vectorIiSaIiEE6insertEN9__gnu_cxx17__normal_iteratorIPKiS1_EESt16initializer_listIiE"
.LASF1337:
	.string	"__val"
.LASF1090:
	.string	"_ZN9__gnu_cxx17__normal_iteratorIPfSt6vectorIfSaIfEEEmIEl"
.LASF1350:
	.string	"_ZN9__gnu_cxx17__normal_iteratorIPhSt6vectorIhSaIhEEEC2ERKS1_"
.LASF1015:
	.string	"__alloc_traits<std::allocator<SubApertureImage>, SubApertureImage>"
.LASF906:
	.string	"__isoc23_swscanf"
.LASF1351:
	.string	"_ZNSt12_Vector_baseIhSaIhEEC2EmRKS0_"
.LASF1210:
	.string	"wcstombs"
.LASF679:
	.string	"_ZNSt6vectorIfSaIfEE13shrink_to_fitEv"
.LASF1396:
	.string	"_ZNSaIiEC2Ev"
.LASF1362:
	.string	"__tmp"
.LASF215:
	.string	"_ZNSt6vectorIhSaIhEEixEm"
.LASF249:
	.string	"_ZNSt6vectorIhSaIhEE21_M_default_initializeEm"
.LASF180:
	.string	"const_iterator"
.LASF1397:
	.string	"__old_size"
.LASF816:
	.string	"_Destroy<unsigned char*>"
.LASF413:
	.string	"_ZNSt6vectorI16SubApertureImageSaIS0_EE14_M_fill_appendEmRKS0_"
.LASF1059:
	.string	"_ZN9__gnu_cxx14__alloc_traitsISaIiEiE17_S_select_on_copyERKS1_"
.LASF1355:
	.string	"_ZNSt12_Vector_baseIiSaIiEE12_Vector_implC2ERKS0_"
.LASF613:
	.string	"_ZNSt16allocator_traitsISaIfEE37select_on_container_copy_constructionERKS0_"
.LASF99:
	.string	"allocator_type"
.LASF491:
	.string	"_ZNSt12_Vector_baseIiSaIiEEC4EmRKS0_"
.LASF1454:
	.string	"_Z15_mm256_loadu_psPKf"
.LASF524:
	.string	"_ZNKSt6vectorIiSaIiEE5beginEv"
.LASF1486:
	.string	"execution"
.LASF233:
	.string	"pop_back"
.LASF617:
	.string	"_ZNSt12_Vector_baseIfSaIfEE17_Vector_impl_data12_M_copy_dataERKS2_"
.LASF367:
	.string	"_ZNSt6vectorI16SubApertureImageSaIS0_EE5beginEv"
.LASF1385:
	.string	"__add"
.LASF838:
	.string	"floor"
.LASF358:
	.string	"_ZNSt6vectorI16SubApertureImageSaIS0_EEC4EOS2_RKS1_St17integral_constantIbLb0EE"
.LASF1266:
	.string	"int_fast16_t"
.LASF1223:
	.string	"__fpos_t"
.LASF703:
	.string	"_ZNSt6vectorIfSaIfEE4swapERS1_"
.LASF1388:
	.string	"_ZNSaIhEC2Ev"
.LASF544:
	.string	"_ZNKSt6vectorIiSaIiEEixEm"
.LASF314:
	.string	"_ZNSt16allocator_traitsISaI16SubApertureImageEE8max_sizeERKS1_"
.LASF793:
	.string	"_ZSt8__fill_aIN9__gnu_cxx17__normal_iteratorIPhSt6vectorIhSaIhEEEEhEvT_S7_RKT0_"
.LASF186:
	.string	"_ZNSt6vectorIhSaIhEE6rbeginEv"
.LASF411:
	.string	"_ZNSt6vectorI16SubApertureImageSaIS0_EE14_M_fill_assignEmRKS0_"
.LASF166:
	.string	"_ZNSt6vectorIhSaIhEEC4EOS1_RKS0_St17integral_constantIbLb0EE"
.LASF397:
	.string	"_ZNKSt6vectorI16SubApertureImageSaIS0_EE4dataEv"
.LASF111:
	.string	"_M_end_of_storage"
.LASF783:
	.string	"_ZSt25__uninitialized_default_nIPfmET_S1_T0_"
.LASF905:
	.string	"swscanf"
.LASF531:
	.string	"_ZNKSt6vectorIiSaIiEE6cbeginEv"
.LASF35:
	.string	"_ZNSt15__exception_ptr13exception_ptrC4EOS0_"
.LASF372:
	.string	"_ZNKSt6vectorI16SubApertureImageSaIS0_EE6rbeginEv"
.LASF1468:
	.string	"memset"
.LASF1096:
	.string	"_Cond"
.LASF345:
	.string	"_ZNSt6vectorI16SubApertureImageSaIS0_EE19_S_nothrow_relocateESt17integral_constantIbLb0EE"
.LASF1455:
	.string	"_mm256_cvtepi32_ps"
.LASF766:
	.string	"_Construct<int, int const&>"
.LASF1228:
	.string	"clearerr"
.LASF450:
	.string	"__new_allocator<int>"
.LASF739:
	.string	"_ZNSt19_UninitDestroyGuardIPivEC4ERS0_"
.LASF779:
	.string	"_Cont"
.LASF541:
	.string	"_ZNKSt6vectorIiSaIiEE5emptyEv"
.LASF262:
	.string	"_M_emplace_aux"
.LASF594:
	.string	"_ZNSt15__new_allocatorIfEC4ERKS0_"
.LASF561:
	.string	"_ZNSt6vectorIiSaIiEE5eraseEN9__gnu_cxx17__normal_iteratorIPKiS1_EE"
.LASF1099:
	.string	"operator!="
.LASF1069:
	.string	"__alloc_traits<std::allocator<float>, float>"
.LASF1252:
	.string	"ungetc"
.LASF1181:
	.string	"int8_t"
.LASF499:
	.string	"_ZNSt12_Vector_baseIiSaIiEE17_M_create_storageEm"
.LASF867:
	.string	"_IO_save_end"
.LASF956:
	.string	"wprintf"
.LASF416:
	.string	"_ZNSt6vectorI16SubApertureImageSaIS0_EE14_M_insert_rvalEN9__gnu_cxx17__normal_iteratorIPKS0_S2_EEOS0_"
.LASF453:
	.string	"_ZNSt15__new_allocatorIiEaSERKS0_"
.LASF1419:
	.string	"tile_h_actual"
.LASF974:
	.string	"_S_propagate_on_copy_assign"
.LASF807:
	.string	"__relocate_a_1<(anonymous namespace)::SubParams, (anonymous namespace)::SubParams>"
.LASF1270:
	.string	"uint_fast16_t"
.LASF1259:
	.string	"int_least32_t"
.LASF1203:
	.string	"srand"
.LASF64:
	.string	"__new_allocator<unsigned char>"
.LASF1132:
	.string	"p_cs_precedes"
.LASF919:
	.string	"wcscmp"
.LASF680:
	.string	"_ZNKSt6vectorIfSaIfEE8capacityEv"
.LASF668:
	.string	"_ZNKSt6vectorIfSaIfEE6rbeginEv"
.LASF574:
	.string	"_ZNKSt6vectorIiSaIiEE12_M_check_lenEmPKc"
.LASF803:
	.string	"_ZSt24__uninitialized_fill_n_aIPimiiET_S1_T0_RKT1_RSaIT2_E"
.LASF308:
	.string	"_ZNSaI16SubApertureImageED4Ev"
.LASF843:
	.string	"fp_offset"
.LASF149:
	.string	"type"
.LASF1168:
	.string	"__time_t"
.LASF901:
	.string	"mbsrtowcs"
.LASF28:
	.string	"_M_get"
.LASF1127:
	.string	"mon_grouping"
.LASF842:
	.string	"gp_offset"
.LASF75:
	.string	"pointer"
.LASF518:
	.string	"_ZNSt6vectorIiSaIiEEaSERKS1_"
.LASF256:
	.string	"_M_default_append"
.LASF1043:
	.string	"_ZNK9__gnu_cxx17__normal_iteratorIPK16SubApertureImageSt6vectorIS1_SaIS1_EEEptEv"
.LASF1116:
	.string	"__int128"
.LASF185:
	.string	"rbegin"
.LASF1019:
	.string	"_ZN9__gnu_cxx14__alloc_traitsISaI16SubApertureImageES1_E27_S_propagate_on_move_assignEv"
.LASF788:
	.string	"__fill_n_a<unsigned char*, long unsigned int, unsigned char>"
.LASF931:
	.string	"tm_yday"
.LASF900:
	.string	"mbsinit"
.LASF1429:
	.string	"lbot_b"
.LASF201:
	.string	"_ZNKSt6vectorIhSaIhEE4sizeEv"
.LASF1048:
	.string	"_ZNK9__gnu_cxx17__normal_iteratorIPK16SubApertureImageSt6vectorIS1_SaIS1_EEEixEl"
.LASF39:
	.string	"~exception_ptr"
.LASF553:
	.string	"_ZNKSt6vectorIiSaIiEE4dataEv"
.LASF1111:
	.string	"max_align_t"
.LASF446:
	.string	"reverse_iterator<__gnu_cxx::__normal_iterator<const (anonymous namespace)::SubParams*, std::vector<(anonymous namespace)::SubParams, std::allocator<(anonymous namespace)::SubParams> > > >"
.LASF1128:
	.string	"positive_sign"
.LASF925:
	.string	"tm_min"
.LASF949:
	.string	"__isoc23_wcstoul"
.LASF1485:
	.string	"_ZN9ImageDataD4Ev"
.LASF38:
	.string	"_ZNSt15__exception_ptr13exception_ptraSEOS0_"
.LASF1209:
	.string	"system"
.LASF242:
	.string	"_ZNSt6vectorIhSaIhEE5eraseEN9__gnu_cxx17__normal_iteratorIPKhS1_EES6_"
.LASF565:
	.string	"_ZNSt6vectorIiSaIiEE18_M_fill_initializeEmRKi"
.LASF1182:
	.string	"int16_t"
.LASF1044:
	.string	"_ZN9__gnu_cxx17__normal_iteratorIPK16SubApertureImageSt6vectorIS1_SaIS1_EEEppEv"
.LASF1089:
	.string	"_ZNK9__gnu_cxx17__normal_iteratorIPfSt6vectorIfSaIfEEEplEl"
.LASF434:
	.string	"_Vector_base<(anonymous namespace)::SubParams, std::allocator<(anonymous namespace)::SubParams> >"
.LASF827:
	.string	"_InputIterator"
.LASF886:
	.string	"short unsigned int"
.LASF251:
	.string	"_ZNSt6vectorIhSaIhEE14_M_fill_assignEmRKh"
.LASF1114:
	.string	"signed char"
.LASF202:
	.string	"_ZNKSt6vectorIhSaIhEE8max_sizeEv"
.LASF384:
	.string	"_ZNKSt6vectorI16SubApertureImageSaIS0_EE8capacityEv"
.LASF743:
	.string	"_ZNSt19_UninitDestroyGuardIPivE7releaseEv"
.LASF115:
	.string	"_ZNSt12_Vector_baseIhSaIhEE17_Vector_impl_data12_M_copy_dataERKS2_"
.LASF509:
	.string	"_ZNSt6vectorIiSaIiEEC4EmRKiRKS0_"
.LASF1324:
	.string	"x_begin"
.LASF182:
	.string	"_ZNSt6vectorIhSaIhEE3endEv"
.LASF462:
	.string	"_ZNSaIiEC4Ev"
.LASF993:
	.string	"_ZNK9__gnu_cxx17__normal_iteratorIPhSt6vectorIhSaIhEEEdeEv"
.LASF448:
	.string	"difference_type"
.LASF554:
	.string	"_ZNSt6vectorIiSaIiEE9push_backERKi"
.LASF1079:
	.string	"_ZN9__gnu_cxx17__normal_iteratorIPfSt6vectorIfSaIfEEEC4Ev"
.LASF48:
	.string	"ptrdiff_t"
.LASF904:
	.string	"swprintf"
.LASF34:
	.string	"_ZNSt15__exception_ptr13exception_ptrC4EDn"
.LASF431:
	.string	"allocator<(anonymous namespace)::SubParams>"
.LASF350:
	.string	"_ZNSt6vectorI16SubApertureImageSaIS0_EEC4Ev"
.LASF98:
	.string	"_ZNSt16allocator_traitsISaIhEE8allocateERS0_m"
.LASF698:
	.string	"_ZNSt6vectorIfSaIfEE6insertEN9__gnu_cxx17__normal_iteratorIPKfS1_EEOf"
.LASF224:
	.string	"back"
.LASF722:
	.string	"_M_data_ptr<float>"
.LASF666:
	.string	"_ZNKSt6vectorIfSaIfEE3endEv"
.LASF853:
	.string	"mbstate_t"
.LASF958:
	.string	"__isoc23_wscanf"
.LASF451:
	.string	"_ZNSt15__new_allocatorIiEC4Ev"
.LASF1391:
	.string	"_ZNSaIfED2Ev"
.LASF395:
	.string	"_ZNKSt6vectorI16SubApertureImageSaIS0_EE4backEv"
.LASF631:
	.string	"_ZNSt12_Vector_baseIfSaIfEEC4EmRKS0_"
.LASF542:
	.string	"_ZNSt6vectorIiSaIiEE7reserveEm"
.LASF73:
	.string	"address"
.LASF1166:
	.string	"__off64_t"
.LASF757:
	.string	"_ZSt8__fill_aIPffEvT_S1_RKT0_"
.LASF890:
	.string	"wchar_t"
.LASF911:
	.string	"vswprintf"
.LASF1338:
	.string	"__len"
.LASF902:
	.string	"putwc"
.LASF158:
	.string	"_ZNSt6vectorIhSaIhEEC4Ev"
.LASF859:
	.string	"_IO_read_base"
.LASF1430:
	.string	"rtop_b"
.LASF188:
	.string	"_ZNKSt6vectorIhSaIhEE6rbeginEv"
.LASF383:
	.string	"_ZNSt6vectorI16SubApertureImageSaIS0_EE13shrink_to_fitEv"
.LASF1434:
	.string	"rtop_f"
.LASF877:
	.string	"_offset"
.LASF1051:
	.string	"_ZN9__gnu_cxx17__normal_iteratorIPK16SubApertureImageSt6vectorIS1_SaIS1_EEEmIEl"
.LASF1035:
	.string	"_ZNK9__gnu_cxx17__normal_iteratorIP16SubApertureImageSt6vectorIS1_SaIS1_EEEplEl"
.LASF1379:
	.string	"__old_finish"
.LASF226:
	.string	"_ZNKSt6vectorIhSaIhEE4backEv"
.LASF497:
	.string	"_ZNSt12_Vector_baseIiSaIiEE11_M_allocateEm"
.LASF284:
	.string	"reverse_iterator<__gnu_cxx::__normal_iterator<unsigned char const*, std::vector<unsigned char, std::allocator<unsigned char> > > >"
.LASF203:
	.string	"resize"
.LASF864:
	.string	"_IO_buf_end"
.LASF732:
	.string	"reverse_iterator<__gnu_cxx::__normal_iterator<float const*, std::vector<float, std::allocator<float> > > >"
.LASF183:
	.string	"_ZNKSt6vectorIhSaIhEE3endEv"
.LASF1433:
	.string	"lbot_f"
.LASF1198:
	.string	"mbstowcs"
.LASF1093:
	.string	"__normal_iterator<float const*, std::vector<float, std::allocator<float> > >"
.LASF120:
	.string	"_ZNSt12_Vector_baseIhSaIhEE12_Vector_implC4EOS2_"
.LASF472:
	.string	"_Vector_base<int, std::allocator<int> >"
.LASF1077:
	.string	"rebind<float>"
.LASF1137:
	.string	"n_sign_posn"
.LASF592:
	.string	"__new_allocator<float>"
.LASF987:
	.string	"_flags2"
.LASF831:
	.string	"_ZSt8_DestroyIPhhEvT_S1_RSaIT0_E"
.LASF55:
	.string	"chrono"
.LASF939:
	.string	"wcsrtombs"
.LASF1220:
	.string	"_G_fpos_t"
.LASF165:
	.string	"_ZNSt6vectorIhSaIhEEC4EOS1_RKS0_St17integral_constantIbLb1EE"
.LASF272:
	.string	"_M_erase"
.LASF930:
	.string	"tm_wday"
.LASF139:
	.string	"_ZNSt12_Vector_baseIhSaIhEED4Ev"
.LASF578:
	.string	"_ZNSt6vectorIiSaIiEE8_M_eraseEN9__gnu_cxx17__normal_iteratorIPiS1_EE"
.LASF922:
	.string	"wcscspn"
.LASF609:
	.string	"_ZNSt16allocator_traitsISaIfEE8allocateERS0_m"
.LASF25:
	.string	"_M_release"
.LASF883:
	.string	"_mode"
.LASF537:
	.string	"_ZNSt6vectorIiSaIiEE6resizeEm"
.LASF377:
	.string	"_ZNKSt6vectorI16SubApertureImageSaIS0_EE7crbeginEv"
.LASF142:
	.string	"_ZNSt12_Vector_baseIhSaIhEE11_M_allocateEm"
.LASF373:
	.string	"_ZNSt6vectorI16SubApertureImageSaIS0_EE4rendEv"
.LASF860:
	.string	"_IO_write_base"
.LASF1326:
	.string	"y_begin"
.LASF546:
	.string	"_ZNSt6vectorIiSaIiEE2atEm"
.LASF1466:
	.string	"_ZnwmPv"
.LASF344:
	.string	"_ZNSt6vectorI16SubApertureImageSaIS0_EE19_S_nothrow_relocateESt17integral_constantIbLb1EE"
.LASF193:
	.string	"_ZNKSt6vectorIhSaIhEE6cbeginEv"
.LASF848:
	.string	"__wch"
.LASF327:
	.string	"_ZNSt12_Vector_baseI16SubApertureImageSaIS0_EE19_M_get_Tp_allocatorEv"
.LASF822:
	.string	"_Destroy<float*, float>"
.LASF581:
	.string	"_ZNSt6vectorIiSaIiEE14_M_move_assignEOS1_St17integral_constantIbLb0EE"
.LASF624:
	.string	"_ZNSt12_Vector_baseIfSaIfEE12_Vector_implD4Ev"
.LASF587:
	.string	"_ZNKSt16initializer_listIiE4sizeEv"
.LASF197:
	.string	"_ZNKSt6vectorIhSaIhEE7crbeginEv"
.LASF1387:
	.string	"_ZNSt12_Vector_baseIhSaIhEE17_Vector_impl_dataC2Ev"
.LASF521:
	.string	"_ZNSt6vectorIiSaIiEE6assignEmRKi"
.LASF829:
	.string	"_Destroy<(anonymous namespace)::SubParams*, (anonymous namespace)::SubParams>"
.LASF912:
	.string	"vswscanf"
.LASF489:
	.string	"_ZNSt12_Vector_baseIiSaIiEEC4ERKS0_"
.LASF1349:
	.string	"__dest"
.LASF928:
	.string	"tm_mon"
.LASF507:
	.string	"_ZNSt6vectorIiSaIiEEC4ERKS0_"
.LASF1401:
	.string	"_ZNSt12_Vector_baseIhSaIhEE12_Vector_implC2Ev"
.LASF1105:
	.string	"long long int"
.LASF1284:
	.string	"time"
.LASF504:
	.string	"_ZNSt6vectorIiSaIiEE15_S_use_relocateEv"
.LASF1217:
	.string	"__isoc23_strtoull"
.LASF1274:
	.string	"uintptr_t"
.LASF302:
	.string	"_ZNKSt15__new_allocatorI16SubApertureImageE8max_sizeEv"
.LASF43:
	.string	"__cxa_exception_type"
.LASF551:
	.string	"_ZNKSt6vectorIiSaIiEE4backEv"
.LASF9:
	.string	"operator()"
.LASF1327:
	.string	"y_end"
.LASF1234:
	.string	"fgetpos"
.LASF501:
	.string	"vector<int, std::allocator<int> >"
.LASF1438:
	.string	"__lhs"
.LASF691:
	.string	"_ZNKSt6vectorIfSaIfEE4backEv"
.LASF1446:
	.string	"_Z15_mm256_fmadd_psDv8_fS_S_"
.LASF1036:
	.string	"_ZN9__gnu_cxx17__normal_iteratorIP16SubApertureImageSt6vectorIS1_SaIS1_EEEmIEl"
.LASF228:
	.string	"_ZNSt6vectorIhSaIhEE4dataEv"
.LASF393:
	.string	"_ZNKSt6vectorI16SubApertureImageSaIS0_EE5frontEv"
.LASF914:
	.string	"vwprintf"
.LASF1224:
	.string	"_IO_marker"
.LASF882:
	.string	"_prevchain"
.LASF510:
	.string	"_ZNSt6vectorIiSaIiEEC4ERKS1_"
.LASF1309:
	.string	"_Float64x"
.LASF929:
	.string	"tm_year"
.LASF1156:
	.string	"__uint_least8_t"
.LASF13:
	.string	"integral_constant<bool, false>"
.LASF326:
	.string	"_ZNSt12_Vector_baseI16SubApertureImageSaIS0_EE12_Vector_implC4EOS1_OS3_"
.LASF470:
	.string	"_ZNSt16allocator_traitsISaIiEE8max_sizeERKS0_"
.LASF1242:
	.string	"getc"
.LASF1335:
	.string	"_ZNSt19_UninitDestroyGuardIPivED2Ev"
.LASF957:
	.string	"wscanf"
.LASF363:
	.string	"_ZNSt6vectorI16SubApertureImageSaIS0_EEaSEOS2_"
.LASF718:
	.string	"_ZNSt6vectorIfSaIfEE8_M_eraseEN9__gnu_cxx17__normal_iteratorIPfS1_EE"
.LASF1339:
	.string	"__guard"
.LASF1191:
	.string	"atof"
.LASF661:
	.string	"_ZNSt6vectorIfSaIfEE6assignEmRKf"
.LASF560:
	.string	"_ZNSt6vectorIiSaIiEE6insertEN9__gnu_cxx17__normal_iteratorIPKiS1_EEmRS4_"
.LASF155:
	.string	"_S_relocate"
.LASF382:
	.string	"_ZNSt6vectorI16SubApertureImageSaIS0_EE6resizeEmRKS0_"
.LASF540:
	.string	"_ZNKSt6vectorIiSaIiEE8capacityEv"
.LASF427:
	.string	"reverse_iterator<__gnu_cxx::__normal_iterator<SubApertureImage*, std::vector<SubApertureImage, std::allocator<SubApertureImage> > > >"
.LASF1273:
	.string	"intptr_t"
.LASF736:
	.string	"iterator_traits<unsigned char*>"
.LASF852:
	.string	"__mbstate_t"
.LASF1322:
	.string	"__bf16"
.LASF1125:
	.string	"mon_decimal_point"
.LASF1126:
	.string	"mon_thousands_sep"
.LASF1331:
	.string	"_Znwm"
.LASF429:
	.string	"__new_allocator<(anonymous namespace)::SubParams>"
.LASF1255:
	.string	"uint32_t"
.LASF41:
	.string	"swap"
.LASF1006:
	.string	"_ZNK9__gnu_cxx17__normal_iteratorIPhSt6vectorIhSaIhEEEplEl"
.LASF347:
	.string	"_ZNSt6vectorIhSaIhEE15_S_use_relocateEv"
.LASF1225:
	.string	"_IO_codecvt"
.LASF774:
	.string	"__niter_base<unsigned char*>"
.LASF1368:
	.string	"_ZNSt12_Vector_baseIfSaIfEED2Ev"
.LASF819:
	.string	"_ZSt3minImERKT_S2_S2_"
.LASF596:
	.string	"_ZNSt15__new_allocatorIfED4Ev"
.LASF684:
	.string	"_ZNKSt6vectorIfSaIfEEixEm"
.LASF236:
	.string	"_ZNSt6vectorIhSaIhEE6insertEN9__gnu_cxx17__normal_iteratorIPKhS1_EERS4_"
.LASF785:
	.string	"_ZSt20uninitialized_fill_nIPimiET_S1_T0_RKT1_"
.LASF1204:
	.string	"strtod"
.LASF1218:
	.string	"strtof"
.LASF812:
	.string	"__uninitialized_fill_n_a<unsigned char*, long unsigned int, unsigned char, unsigned char>"
.LASF1205:
	.string	"strtol"
.LASF969:
	.string	"__alloc_traits<std::allocator<unsigned char>, unsigned char>"
.LASF1102:
	.string	"long double"
.LASF135:
	.string	"_ZNSt12_Vector_baseIhSaIhEEC4EOS0_"
.LASF89:
	.string	"allocator<unsigned char>"
.LASF712:
	.string	"_ZNSt6vectorIfSaIfEE14_M_insert_rvalEN9__gnu_cxx17__normal_iteratorIPKfS1_EEOf"
.LASF276:
	.string	"_ZNSt6vectorIhSaIhEE14_M_move_assignEOS1_St17integral_constantIbLb1EE"
.LASF1012:
	.string	"_ZNK9__gnu_cxx17__normal_iteratorIPhSt6vectorIhSaIhEEE4baseEv"
.LASF1024:
	.string	"__normal_iterator<SubApertureImage*, std::vector<SubApertureImage, std::allocator<SubApertureImage> > >"
.LASF1460:
	.string	"_Z13_mm_set_epi64Dv2_iS_"
.LASF351:
	.string	"_ZNSt6vectorI16SubApertureImageSaIS0_EEC4ERKS1_"
.LASF1133:
	.string	"p_sep_by_space"
.LASF751:
	.string	"__throw_bad_alloc"
.LASF4:
	.string	"long unsigned int"
.LASF707:
	.string	"_ZNSt6vectorIfSaIfEE14_M_fill_assignEmRKf"
.LASF972:
	.string	"_S_on_swap"
.LASF1459:
	.string	"_mm_set_epi64"
.LASF1003:
	.string	"operator+="
.LASF1344:
	.string	"__load_outside_loop"
.LASF734:
	.string	"enable_if<true, (anonymous namespace)::SubParams*>"
.LASF134:
	.string	"_ZNSt12_Vector_baseIhSaIhEEC4EOS1_"
.LASF1251:
	.string	"tmpnam"
.LASF425:
	.string	"_ZNSt6vectorI16SubApertureImageSaIS0_EE14_M_move_assignEOS2_St17integral_constantIbLb0EE"
.LASF17:
	.string	"false_type"
.LASF1231:
	.string	"ferror"
.LASF147:
	.string	"_Alloc"
.LASF354:
	.string	"_ZNSt6vectorI16SubApertureImageSaIS0_EEC4ERKS2_"
.LASF455:
	.string	"_ZNKSt15__new_allocatorIiE7addressERi"
.LASF253:
	.string	"_ZNSt6vectorIhSaIhEE14_M_fill_insertEN9__gnu_cxx17__normal_iteratorIPhS1_EEmRKh"
.LASF352:
	.string	"_ZNSt6vectorI16SubApertureImageSaIS0_EEC4EmRKS1_"
.LASF1442:
	.string	"_ZNSt6vectorIhSaIhEEC2Ev"
.LASF837:
	.string	"_ZSt3maxIiERKT_S2_S2_"
.LASF91:
	.string	"_ZNSaIhEC4Ev"
.LASF459:
	.string	"_ZNKSt15__new_allocatorIiE8max_sizeEv"
.LASF1290:
	.string	"wctype_t"
.LASF5:
	.string	"char"
.LASF320:
	.string	"_ZNSt12_Vector_baseIhSaIhEE17_Vector_impl_data12_M_swap_dataERS2_"
.LASF917:
	.string	"wcrtomb"
.LASF946:
	.string	"__isoc23_wcstol"
.LASF278:
	.string	"_M_data_ptr<unsigned char>"
.LASF792:
	.string	"__fill_a<__gnu_cxx::__normal_iterator<unsigned char*, std::vector<unsigned char> >, unsigned char>"
.LASF230:
	.string	"push_back"
.LASF1101:
	.string	"wcstold"
.LASF689:
	.string	"_ZNKSt6vectorIfSaIfEE5frontEv"
.LASF1098:
	.string	"_Iffalse"
.LASF780:
	.string	"__fill_a1<float*, float>"
.LASF1399:
	.string	"_ZNSt12_Vector_baseIhSaIhEED2Ev"
.LASF1084:
	.string	"_ZN9__gnu_cxx17__normal_iteratorIPfSt6vectorIfSaIfEEEppEi"
.LASF996:
	.string	"operator++"
.LASF1135:
	.string	"n_sep_by_space"
.LASF583:
	.string	"_M_array"
.LASF430:
	.string	"construct<(anonymous namespace)::SubParams, const (anonymous namespace)::SubParams&>"
.LASF872:
	.string	"_old_offset"
.LASF457:
	.string	"_ZNSt15__new_allocatorIiE8allocateEmPKv"
.LASF1382:
	.string	"__new_finish"
.LASF1083:
	.string	"_ZN9__gnu_cxx17__normal_iteratorIPfSt6vectorIfSaIfEEEppEv"
.LASF194:
	.string	"cend"
.LASF836:
	.string	"max<int>"
.LASF239:
	.string	"_ZNSt6vectorIhSaIhEE6insertEN9__gnu_cxx17__normal_iteratorIPKhS1_EEmRS4_"
.LASF863:
	.string	"_IO_buf_base"
.LASF580:
	.string	"_ZNSt6vectorIiSaIiEE14_M_move_assignEOS1_St17integral_constantIbLb1EE"
.LASF258:
	.string	"_M_shrink_to_fit"
.LASF389:
	.string	"_ZNKSt6vectorI16SubApertureImageSaIS0_EE14_M_range_checkEm"
.LASF150:
	.string	"_Type"
.LASF999:
	.string	"operator--"
.LASF750:
	.string	"__throw_bad_array_new_length"
.LASF287:
	.string	"_ZSt3abse"
.LASF288:
	.string	"_ZSt3absf"
.LASF285:
	.string	"_ZSt3absg"
.LASF586:
	.string	"_ZNSt16initializer_listIiEC4Ev"
.LASF291:
	.string	"_ZSt3absl"
.LASF286:
	.string	"_ZSt3absn"
.LASF94:
	.string	"~allocator"
.LASF1007:
	.string	"operator-="
.LASF994:
	.string	"operator->"
.LASF1282:
	.string	"difftime"
.LASF290:
	.string	"_ZSt3absx"
.LASF1163:
	.string	"__intmax_t"
.LASF31:
	.string	"_ZNKSt15__exception_ptr13exception_ptr21_M_exception_ptr_castERKSt9type_info"
.LASF858:
	.string	"_IO_read_end"
.LASF517:
	.string	"_ZNSt6vectorIiSaIiEED4Ev"
.LASF1361:
	.string	"__alloc"
.LASF368:
	.string	"_ZNKSt6vectorI16SubApertureImageSaIS0_EE5beginEv"
.LASF175:
	.string	"_ZNSt6vectorIhSaIhEE6assignEmRKh"
.LASF474:
	.string	"_ZNSt12_Vector_baseIiSaIiEE17_Vector_impl_dataC4EOS2_"
.LASF855:
	.string	"_IO_FILE"
.LASF433:
	.string	"_Args"
.LASF963:
	.string	"wmemchr"
.LASF409:
	.string	"_ZNSt6vectorI16SubApertureImageSaIS0_EE18_M_fill_initializeEmRKS0_"
.LASF1226:
	.string	"_IO_wide_data"
.LASF1066:
	.string	"rebind<int>"
.LASF648:
	.string	"_ZNSt6vectorIfSaIfEEC4EmRKS0_"
.LASF473:
	.string	"_ZNSt12_Vector_baseIiSaIiEE17_Vector_impl_dataC4Ev"
.LASF821:
	.string	"_ZSt8__fill_aIN9__gnu_cxx17__normal_iteratorIPfSt6vectorIfSaIfEEEEfEvT_S7_RKT0_"
.LASF45:
	.string	"rethrow_exception"
.LASF1481:
	.string	"_ZN9__gnu_cxx21__default_lock_policyE"
.LASF926:
	.string	"tm_hour"
.LASF1421:
	.string	"tile_w_actual"
.LASF388:
	.string	"_ZNKSt6vectorI16SubApertureImageSaIS0_EEixEm"
.LASF375:
	.string	"_ZNKSt6vectorI16SubApertureImageSaIS0_EE6cbeginEv"
.LASF1435:
	.string	"rbot_f"
.LASF27:
	.string	"_ZNSt15__exception_ptr13exception_ptr10_M_releaseEv"
.LASF768:
	.string	"__fill_a1<unsigned char, unsigned char>"
.LASF1118:
	.string	"char32_t"
.LASF1213:
	.string	"atoll"
.LASF1080:
	.string	"_ZN9__gnu_cxx17__normal_iteratorIPfSt6vectorIfSaIfEEEC4ERKS1_"
.LASF241:
	.string	"_ZNSt6vectorIhSaIhEE5eraseEN9__gnu_cxx17__normal_iteratorIPKhS1_EE"
.LASF1239:
	.string	"fseek"
.LASF112:
	.string	"_ZNSt12_Vector_baseIhSaIhEE17_Vector_impl_dataC4Ev"
.LASF254:
	.string	"_M_fill_append"
.LASF332:
	.string	"_ZNSt12_Vector_baseI16SubApertureImageSaIS0_EEC4Em"
.LASF1272:
	.string	"uint_fast64_t"
.LASF330:
	.string	"_ZNSt12_Vector_baseI16SubApertureImageSaIS0_EEC4Ev"
.LASF749:
	.string	"_Iter"
.LASF623:
	.string	"_ZNSt12_Vector_baseIfSaIfEE12_Vector_implC4EOS0_OS2_"
.LASF1194:
	.string	"bsearch"
.LASF232:
	.string	"_ZNSt6vectorIhSaIhEE9push_backEOh"
.LASF1353:
	.string	"_ZNSt12_Vector_baseIfSaIfEE12_Vector_implC2ERKS0_"
.LASF568:
	.string	"_ZNSt6vectorIiSaIiEE14_M_fill_insertEN9__gnu_cxx17__normal_iteratorIPiS1_EEmRKi"
.LASF1151:
	.string	"__int32_t"
.LASF187:
	.string	"const_reverse_iterator"
.LASF1238:
	.string	"freopen"
.LASF1145:
	.string	"getwchar"
.LASF830:
	.string	"_Destroy<unsigned char*, unsigned char>"
.LASF1032:
	.string	"_ZN9__gnu_cxx17__normal_iteratorIP16SubApertureImageSt6vectorIS1_SaIS1_EEEmmEi"
.LASF1143:
	.string	"int_n_sign_posn"
.LASF100:
	.string	"_ZNSt16allocator_traitsISaIhEE8allocateERS0_mPKv"
.LASF365:
	.string	"_ZNSt6vectorI16SubApertureImageSaIS0_EE6assignEmRKS0_"
.LASF33:
	.string	"_ZNSt15__exception_ptr13exception_ptrC4ERKS0_"
.LASF26:
	.string	"_ZNSt15__exception_ptr13exception_ptr9_M_addrefEv"
.LASF927:
	.string	"tm_mday"
.LASF726:
	.string	"_ZNSt16initializer_listIfEC4Ev"
.LASF1067:
	.string	"__normal_iterator<int*, std::vector<int, std::allocator<int> > >"
.LASF437:
	.string	"_Base"
.LASF101:
	.string	"const_void_pointer"
.LASF79:
	.string	"const_reference"
.LASF412:
	.string	"_ZNSt6vectorI16SubApertureImageSaIS0_EE14_M_fill_insertEN9__gnu_cxx17__normal_iteratorIPS0_S2_EEmRKS0_"
.LASF1031:
	.string	"_ZN9__gnu_cxx17__normal_iteratorIP16SubApertureImageSt6vectorIS1_SaIS1_EEEmmEv"
.LASF87:
	.string	"_M_max_size"
.LASF818:
	.string	"min<long unsigned int>"
.LASF1328:
	.string	"operator delete"
.LASF772:
	.string	"__fill_a<unsigned char*, unsigned char>"
.LASF687:
	.string	"_ZNKSt6vectorIfSaIfEE2atEm"
.LASF1289:
	.string	"timespec_get"
.LASF1050:
	.string	"_ZNK9__gnu_cxx17__normal_iteratorIPK16SubApertureImageSt6vectorIS1_SaIS1_EEEplEl"
.LASF23:
	.string	"_ZNSt15__exception_ptr13exception_ptrC4EPv"
.LASF1055:
	.string	"rebind<(anonymous namespace)::SubParams>"
.LASF1347:
	.string	"_ZNSt12_Vector_baseIiSaIiEE17_Vector_impl_dataC2Ev"
.LASF571:
	.string	"_ZNSt6vectorIiSaIiEE16_M_shrink_to_fitEv"
.LASF1240:
	.string	"fsetpos"
.LASF607:
	.string	"_ZNSaIfED4Ev"
.LASF1445:
	.string	"_mm256_fmadd_ps"
.LASF839:
	.string	"_ZSt5floorf"
.LASF394:
	.string	"_ZNSt6vectorI16SubApertureImageSaIS0_EE4backEv"
.LASF42:
	.string	"_ZNSt15__exception_ptr13exception_ptr4swapERS0_"
.LASF868:
	.string	"_markers"
.LASF1184:
	.string	"int64_t"
.LASF490:
	.string	"_ZNSt12_Vector_baseIiSaIiEEC4Em"
.LASF968:
	.string	"_S_atomic"
.LASF787:
	.string	"_ZSt3maxImERKT_S2_S2_"
.LASF488:
	.string	"_ZNSt12_Vector_baseIiSaIiEEC4Ev"
.LASF1480:
	.string	"__default_lock_policy"
.LASF333:
	.string	"_ZNSt12_Vector_baseI16SubApertureImageSaIS0_EEC4EmRKS1_"
.LASF61:
	.string	"_ForwardIterator"
.LASF1393:
	.string	"_ZNSt6vectorIiSaIiEED2Ev"
.LASF310:
	.string	"_ZNSt16allocator_traitsISaI16SubApertureImageEE8allocateERS1_m"
.LASF1310:
	.string	"__pstl"
.LASF814:
	.string	"fill<__gnu_cxx::__normal_iterator<unsigned char*, std::vector<unsigned char> >, unsigned char>"
.LASF627:
	.string	"_ZNKSt12_Vector_baseIfSaIfEE13get_allocatorEv"
.LASF181:
	.string	"_ZNKSt6vectorIhSaIhEE5beginEv"
.LASF878:
	.string	"_codecvt"
.LASF1261:
	.string	"uint_least8_t"
.LASF298:
	.string	"_ZNKSt15__new_allocatorI16SubApertureImageE7addressERS0_"
.LASF1196:
	.string	"ldiv"
.LASF1268:
	.string	"int_fast64_t"
.LASF151:
	.string	"vector<unsigned char, std::allocator<unsigned char> >"
.LASF160:
	.string	"_ZNSt6vectorIhSaIhEEC4EmRKS0_"
.LASF610:
	.string	"_ZNSt16allocator_traitsISaIfEE8allocateERS0_mPKv"
.LASF742:
	.string	"release"
.LASF1456:
	.string	"_Z18_mm256_cvtepi32_psDv4_x"
.LASF240:
	.string	"erase"
.LASF942:
	.string	"double"
.LASF108:
	.string	"_M_exception_object"
.LASF255:
	.string	"_ZNSt6vectorIhSaIhEE14_M_fill_appendEmRKh"
.LASF20:
	.string	"__swappable_with_details"
.LASF664:
	.string	"_ZNKSt6vectorIfSaIfEE5beginEv"
.LASF1469:
	.string	"__builtin_memcpy"
.LASF844:
	.string	"overflow_arg_area"
.LASF854:
	.string	"__FILE"
.LASF1478:
	.string	"typedef __va_list_tag __va_list_tag"
.LASF763:
	.string	"_ZSt6fill_nIPfmfET_S1_T0_RKT1_"
.LASF986:
	.string	"__normal_iterator<unsigned char*, std::vector<unsigned char, std::allocator<unsigned char> > >"
.LASF356:
	.string	"_ZNSt6vectorI16SubApertureImageSaIS0_EEC4ERKS2_RKS1_"
.LASF1162:
	.string	"__uint_least64_t"
.LASF1432:
	.string	"ltop_f"
.LASF1063:
	.string	"_ZN9__gnu_cxx14__alloc_traitsISaIiEiE20_S_propagate_on_swapEv"
.LASF439:
	.string	"_M_storage"
.LASF572:
	.string	"_ZNSt6vectorIiSaIiEE14_M_insert_rvalEN9__gnu_cxx17__normal_iteratorIPKiS1_EEOi"
.LASF1286:
	.string	"ctime"
.LASF1097:
	.string	"_Iftrue"
.LASF983:
	.string	"_ZN9__gnu_cxx14__alloc_traitsISaIhEhE15_S_nothrow_moveEv"
.LASF747:
	.string	"_S_destroy<int*>"
.LASF211:
	.string	"_ZNKSt6vectorIhSaIhEE5emptyEv"
.LASF449:
	.string	"_Iterator"
.LASF655:
	.string	"_ZNSt6vectorIfSaIfEEC4EOS1_RKS0_"
.LASF1414:
	.string	"__for_begin"
.LASF520:
	.string	"_ZNSt6vectorIiSaIiEEaSESt16initializer_listIiE"
.LASF590:
	.string	"reverse_iterator<__gnu_cxx::__normal_iterator<int const*, std::vector<int, std::allocator<int> > > >"
.LASF246:
	.string	"_M_fill_initialize"
.LASF1045:
	.string	"_ZN9__gnu_cxx17__normal_iteratorIPK16SubApertureImageSt6vectorIS1_SaIS1_EEEppEi"
.LASF702:
	.string	"_ZNSt6vectorIfSaIfEE5eraseEN9__gnu_cxx17__normal_iteratorIPKfS1_EES6_"
.LASF1152:
	.string	"__uint32_t"
.LASF1200:
	.string	"qsort"
.LASF1057:
	.string	"__normal_iterator<const (anonymous namespace)::SubParams*, std::vector<(anonymous namespace)::SubParams, std::allocator<(anonymous namespace)::SubParams> > >"
.LASF998:
	.string	"_ZN9__gnu_cxx17__normal_iteratorIPhSt6vectorIhSaIhEEEppEi"
.LASF143:
	.string	"_M_deallocate"
.LASF331:
	.string	"_ZNSt12_Vector_baseI16SubApertureImageSaIS0_EEC4ERKS1_"
.LASF199:
	.string	"_ZNKSt6vectorIhSaIhEE5crendEv"
.LASF227:
	.string	"data"
.LASF548:
	.string	"_ZNSt6vectorIiSaIiEE5frontEv"
.LASF952:
	.string	"wmemcmp"
.LASF777:
	.string	"_ZSt9__fill_a1IPhSt6vectorIhSaIhEEhEvN9__gnu_cxx17__normal_iteratorIT_T0_EES8_RKT1_"
.LASF802:
	.string	"__uninitialized_fill_n_a<int*, long unsigned int, int, int>"
.LASF316:
	.string	"_Vector_base<SubApertureImage, std::allocator<SubApertureImage> >"
.LASF997:
	.string	"_ZN9__gnu_cxx17__normal_iteratorIPhSt6vectorIhSaIhEEEppEv"
.LASF797:
	.string	"_ZSt8_DestroyIPfEvT_S1_"
.LASF219:
	.string	"_ZNSt6vectorIhSaIhEE2atEm"
.LASF851:
	.string	"__value"
.LASF681:
	.string	"_ZNKSt6vectorIfSaIfEE5emptyEv"
.LASF32:
	.string	"_ZNSt15__exception_ptr13exception_ptrC4Ev"
.LASF1437:
	.string	"inv_c"
.LASF562:
	.string	"_ZNSt6vectorIiSaIiEE5eraseEN9__gnu_cxx17__normal_iteratorIPKiS1_EES6_"
.LASF1463:
	.string	"_mm_set_epi64x"
.LASF1405:
	.string	"focus"
.LASF826:
	.string	"__relocate_a<(anonymous namespace)::SubParams*, (anonymous namespace)::SubParams*, std::allocator<(anonymous namespace)::SubParams> >"
.LASF1476:
	.string	"literals"
.LASF119:
	.string	"_ZNSt12_Vector_baseIhSaIhEE12_Vector_implC4ERKS0_"
.LASF304:
	.string	"allocator<SubApertureImage>"
.LASF1091:
	.string	"_ZNK9__gnu_cxx17__normal_iteratorIPfSt6vectorIfSaIfEEEmiEl"
.LASF1451:
	.string	"_mm256_storeu_ps"
.LASF1477:
	.string	"__is_nothrow_new_constructible"
.LASF1381:
	.string	"__new_start"
.LASF498:
	.string	"_ZNSt12_Vector_baseIiSaIiEE13_M_deallocateEPim"
.LASF247:
	.string	"_ZNSt6vectorIhSaIhEE18_M_fill_initializeEmRKh"
.LASF171:
	.string	"_ZNSt6vectorIhSaIhEEaSERKS1_"
.LASF1475:
	.string	"input_iterator_tag"
.LASF973:
	.string	"_ZN9__gnu_cxx14__alloc_traitsISaIhEhE10_S_on_swapERS1_S3_"
.LASF422:
	.string	"_ZNSt6vectorI16SubApertureImageSaIS0_EE8_M_eraseEN9__gnu_cxx17__normal_iteratorIPS0_S2_EE"
.LASF1297:
	.string	"width"
.LASF1011:
	.string	"base"
.LASF782:
	.string	"__uninitialized_default_n<float*, long unsigned int>"
.LASF328:
	.string	"_ZNKSt12_Vector_baseI16SubApertureImageSaIS0_EE19_M_get_Tp_allocatorEv"
.LASF190:
	.string	"_ZNSt6vectorIhSaIhEE4rendEv"
.LASF1029:
	.string	"_ZN9__gnu_cxx17__normal_iteratorIP16SubApertureImageSt6vectorIS1_SaIS1_EEEppEv"
.LASF391:
	.string	"_ZNKSt6vectorI16SubApertureImageSaIS0_EE2atEm"
.LASF1249:
	.string	"setvbuf"
.LASF148:
	.string	"__type_identity<std::allocator<unsigned char> >"
.LASF832:
	.string	"fill<__gnu_cxx::__normal_iterator<float*, std::vector<float> >, float>"
.LASF658:
	.string	"_ZNSt6vectorIfSaIfEEaSERKS1_"
.LASF1208:
	.string	"__isoc23_strtoul"
.LASF817:
	.string	"_ZSt8_DestroyIPhEvT_S1_"
.LASF646:
	.string	"_ZNSt6vectorIfSaIfEEC4Ev"
.LASF602:
	.string	"_ZNKSt15__new_allocatorIfE11_M_max_sizeEv"
.LASF1172:
	.string	"5div_t"
.LASF1175:
	.string	"6ldiv_t"
.LASF1174:
	.string	"div_t"
.LASF307:
	.string	"_ZNSaI16SubApertureImageEaSERKS0_"
.LASF576:
	.string	"_ZNSt6vectorIiSaIiEE11_S_max_sizeERKS0_"
.LASF359:
	.string	"_ZNSt6vectorI16SubApertureImageSaIS0_EEC4EOS2_RKS1_"
.LASF1190:
	.string	"at_quick_exit"
.LASF62:
	.string	"_Size"
.LASF1262:
	.string	"uint_least16_t"
.LASF295:
	.string	"_ZNSt15__new_allocatorI16SubApertureImageEC4ERKS1_"
.LASF210:
	.string	"empty"
.LASF881:
	.string	"_freeres_buf"
.LASF1037:
	.string	"_ZNK9__gnu_cxx17__normal_iteratorIP16SubApertureImageSt6vectorIS1_SaIS1_EEEmiEl"
.LASF678:
	.string	"_ZNSt6vectorIfSaIfEE6resizeEmRKf"
.LASF730:
	.string	"_ZNKSt16initializer_listIfE3endEv"
.LASF1199:
	.string	"mbtowc"
.LASF1030:
	.string	"_ZN9__gnu_cxx17__normal_iteratorIP16SubApertureImageSt6vectorIS1_SaIS1_EEEppEi"
.LASF172:
	.string	"_ZNSt6vectorIhSaIhEEaSEOS1_"
.LASF50:
	.string	"forward_iterator_tag"
.LASF213:
	.string	"_ZNSt6vectorIhSaIhEE7reserveEm"
.LASF1186:
	.string	"tv_sec"
.LASF110:
	.string	"_M_finish"
.LASF978:
	.string	"_S_propagate_on_swap"
.LASF248:
	.string	"_M_default_initialize"
.LASF1108:
	.string	"long long unsigned int"
.LASF801:
	.string	"_ZSt8_DestroyIPiEvT_S1_"
.LASF899:
	.string	"mbrtowc"
.LASF873:
	.string	"_cur_column"
.LASF778:
	.string	"_Ite"
.LASF30:
	.string	"_M_exception_ptr_cast"
.LASF953:
	.string	"wmemcpy"
.LASF1188:
	.string	"__compar_fn_t"
.LASF141:
	.string	"_M_allocate"
.LASF403:
	.string	"_ZNSt6vectorI16SubApertureImageSaIS0_EE6insertEN9__gnu_cxx17__normal_iteratorIPKS0_S2_EESt16initializer_listIS0_E"
.LASF297:
	.string	"_ZNSt15__new_allocatorI16SubApertureImageED4Ev"
.LASF1376:
	.string	"_ZNSt15__new_allocatorIiED2Ev"
.LASF231:
	.string	"_ZNSt6vectorIhSaIhEE9push_backERKh"
.LASF748:
	.string	"_ZNSt19_UninitDestroyGuardIPivE10_S_destroyIS0_EEvT_S3_"
.LASF598:
	.string	"_ZNKSt15__new_allocatorIfE7addressERKf"
.LASF1424:
	.string	"ind_rtop"
.LASF1179:
	.string	"clock_t"
.LASF138:
	.string	"~_Vector_base"
.LASF387:
	.string	"_ZNSt6vectorI16SubApertureImageSaIS0_EEixEm"
.LASF760:
	.string	"_ZSt10__fill_n_aIPfmfET_S1_T0_RKT1_St26random_access_iterator_tag"
.LASF1364:
	.string	"__dif"
.LASF645:
	.string	"_ZNSt6vectorIfSaIfEE11_S_relocateEPfS2_S2_RS0_"
.LASF737:
	.string	"_UninitDestroyGuard<int*, void>"
.LASF1398:
	.string	"_ZNSt6vectorIhSaIhEED2Ev"
.LASF1457:
	.string	"_mm_loadl_epi64"
.LASF475:
	.string	"_ZNSt12_Vector_baseIiSaIiEE17_Vector_impl_data12_M_copy_dataERKS2_"
.LASF477:
	.string	"_ZNSt12_Vector_baseIiSaIiEE12_Vector_implC4Ev"
.LASF342:
	.string	"__type_identity<std::allocator<SubApertureImage> >"
.LASF1441:
	.string	"_ZN9ImageDataC2Ev"
.LASF936:
	.string	"wcsncat"
.LASF122:
	.string	"_ZNSt12_Vector_baseIhSaIhEE12_Vector_implC4EOS0_OS2_"
.LASF1236:
	.string	"fopen"
.LASF558:
	.string	"_ZNSt6vectorIiSaIiEE6insertEN9__gnu_cxx17__normal_iteratorIPKiS1_EEOi"
.LASF933:
	.string	"tm_gmtoff"
.LASF67:
	.string	"_ZNSt15__new_allocatorIhEC4ERKS0_"
.LASF376:
	.string	"_ZNKSt6vectorI16SubApertureImageSaIS0_EE4cendEv"
.LASF280:
	.string	"__type_identity_t"
.LASF57:
	.string	"filesystem"
.LASF611:
	.string	"_ZNSt16allocator_traitsISaIfEE10deallocateERS0_Pfm"
.LASF866:
	.string	"_IO_backup_base"
.LASF967:
	.string	"_S_mutex"
.LASF335:
	.string	"_ZNSt12_Vector_baseI16SubApertureImageSaIS0_EEC4EOS1_"
.LASF1141:
	.string	"int_n_sep_by_space"
.LASF857:
	.string	"_IO_read_ptr"
.LASF635:
	.string	"_ZNSt12_Vector_baseIfSaIfEEC4ERKS0_OS1_"
.LASF614:
	.string	"_Vector_base<float, std::allocator<float> >"
.LASF281:
	.string	"type_info"
.LASF1235:
	.string	"fgets"
.LASF49:
	.string	"true_type"
.LASF728:
	.string	"_ZNKSt16initializer_listIfE5beginEv"
.LASF1265:
	.string	"int_fast8_t"
.LASF1195:
	.string	"getenv"
.LASF880:
	.string	"_freeres_list"
.LASF1000:
	.string	"_ZN9__gnu_cxx17__normal_iteratorIPhSt6vectorIhSaIhEEEmmEv"
.LASF1453:
	.string	"_mm256_loadu_ps"
.LASF1311:
	.string	"__m64"
.LASF1280:
	.string	"__float128"
.LASF791:
	.string	"_ZSt20uninitialized_fill_nIPhmhET_S1_T0_RKT1_"
.LASF168:
	.string	"_ZNSt6vectorIhSaIhEEC4ESt16initializer_listIhERKS0_"
.LASF386:
	.string	"_ZNSt6vectorI16SubApertureImageSaIS0_EE7reserveEm"
.LASF759:
	.string	"__fill_n_a<float*, long unsigned int, float>"
.LASF676:
	.string	"_ZNKSt6vectorIfSaIfEE8max_sizeEv"
.LASF889:
	.string	"fgetws"
.LASF1452:
	.string	"_Z16_mm256_storeu_psPfDv8_f"
.LASF334:
	.string	"_ZNSt12_Vector_baseI16SubApertureImageSaIS0_EEC4EOS2_"
.LASF1202:
	.string	"rand"
.LASF65:
	.string	"__new_allocator"
.LASF1403:
	.string	"_Z21refocus_shift_and_sumRSt6vectorI16SubApertureImageSaIS0_EEf"
.LASF767:
	.string	"_ZSt10_ConstructIiJRKiEEvPT_DpOT0_"
.LASF131:
	.string	"_ZNSt12_Vector_baseIhSaIhEEC4ERKS0_"
.LASF402:
	.string	"_ZNSt6vectorI16SubApertureImageSaIS0_EE6insertEN9__gnu_cxx17__normal_iteratorIPKS0_S2_EEOS0_"
.LASF756:
	.string	"__fill_a<float*, float>"
.LASF989:
	.string	"__normal_iterator"
.LASF770:
	.string	"__do_uninit_fill_n<int*, long unsigned int, int>"
.LASF1062:
	.string	"_ZN9__gnu_cxx14__alloc_traitsISaIiEiE27_S_propagate_on_move_assignEv"
.LASF603:
	.string	"allocator<float>"
.LASF991:
	.string	"_ZN9__gnu_cxx17__normal_iteratorIPhSt6vectorIhSaIhEEEC4ERKS1_"
.LASF920:
	.string	"wcscoll"
.LASF1465:
	.string	"_ZdlPvS_"
.LASF156:
	.string	"_ZNSt6vectorIhSaIhEE11_S_relocateEPhS2_S2_RS0_"
.LASF1291:
	.string	"wctrans_t"
.LASF103:
	.string	"select_on_container_copy_construction"
.LASF557:
	.string	"_ZNSt6vectorIiSaIiEE6insertEN9__gnu_cxx17__normal_iteratorIPKiS1_EERS4_"
.LASF59:
	.string	"__uninitialized_default_n_1<true>"
.LASF275:
	.string	"_M_move_assign"
.LASF1041:
	.string	"_ZN9__gnu_cxx17__normal_iteratorIPK16SubApertureImageSt6vectorIS1_SaIS1_EEEC4ERKS3_"
.LASF790:
	.string	"uninitialized_fill_n<unsigned char*, long unsigned int, unsigned char>"
.LASF629:
	.string	"_ZNSt12_Vector_baseIfSaIfEEC4ERKS0_"
.LASF724:
	.string	"initializer_list<float>"
.LASF647:
	.string	"_ZNSt6vectorIfSaIfEEC4ERKS0_"
.LASF271:
	.string	"_ZNSt6vectorIhSaIhEE15_M_erase_at_endEPh"
.LASF1061:
	.string	"_ZN9__gnu_cxx14__alloc_traitsISaIiEiE27_S_propagate_on_copy_assignEv"
.LASF1136:
	.string	"p_sign_posn"
.LASF478:
	.string	"_ZNSt12_Vector_baseIiSaIiEE12_Vector_implC4ERKS0_"
.LASF404:
	.string	"_ZNSt6vectorI16SubApertureImageSaIS0_EE6insertEN9__gnu_cxx17__normal_iteratorIPKS0_S2_EEmRS5_"
.LASF961:
	.string	"wcsrchr"
.LASF662:
	.string	"_ZNSt6vectorIfSaIfEE6assignESt16initializer_listIfE"
.LASF1264:
	.string	"uint_least64_t"
.LASF674:
	.string	"_ZNKSt6vectorIfSaIfEE5crendEv"
.LASF339:
	.string	"_ZNSt12_Vector_baseI16SubApertureImageSaIS0_EE11_M_allocateEm"
.LASF1010:
	.string	"_ZNK9__gnu_cxx17__normal_iteratorIPhSt6vectorIhSaIhEEEmiEl"
.LASF515:
	.string	"_ZNSt6vectorIiSaIiEEC4EOS1_RKS0_"
.LASF710:
	.string	"_ZNSt6vectorIfSaIfEE17_M_default_appendEm"
.LASF353:
	.string	"_ZNSt6vectorI16SubApertureImageSaIS0_EEC4EmRKS0_RKS1_"
.LASF1076:
	.string	"_ZN9__gnu_cxx14__alloc_traitsISaIfEfE15_S_nothrow_moveEv"
.LASF1363:
	.string	"_ZNSt6vectorIhSaIhEEC2EmRKhRKS0_"
.LASF569:
	.string	"_ZNSt6vectorIiSaIiEE14_M_fill_appendEmRKi"
.LASF346:
	.string	"_S_use_relocate"
.LASF154:
	.string	"_ZNSt6vectorIhSaIhEE19_S_nothrow_relocateESt17integral_constantIbLb0EE"
.LASF117:
	.string	"_Vector_impl"
.LASF1443:
	.string	"_ZNSt12_Vector_baseIhSaIhEEC2Ev"
.LASF1283:
	.string	"mktime"
.LASF1383:
	.string	"_ZN9__gnu_cxx17__normal_iteratorIP16SubApertureImageSt6vectorIS1_SaIS1_EEEC2ERKS2_"
.LASF1420:
	.string	"tile_x_end"
.LASF1243:
	.string	"getchar"
.LASF1187:
	.string	"tv_nsec"
.LASF740:
	.string	"~_UninitDestroyGuard"
.LASF532:
	.string	"_ZNKSt6vectorIiSaIiEE4cendEv"
.LASF650:
	.string	"_ZNSt6vectorIfSaIfEEC4ERKS1_"
.LASF840:
	.string	"__size_to_integer"
.LASF539:
	.string	"_ZNSt6vectorIiSaIiEE13shrink_to_fitEv"
.LASF1487:
	.string	"__can_fill"
.LASF1056:
	.string	"__normal_iterator<(anonymous namespace)::SubParams*, std::vector<(anonymous namespace)::SubParams, std::allocator<(anonymous namespace)::SubParams> > >"
.LASF109:
	.string	"_M_start"
.LASF563:
	.string	"_ZNSt6vectorIiSaIiEE4swapERS1_"
.LASF1333:
	.string	"__last"
.LASF337:
	.string	"_ZNSt12_Vector_baseI16SubApertureImageSaIS0_EEC4ERKS1_OS2_"
.LASF982:
	.string	"_S_nothrow_move"
.LASF907:
	.string	"ungetwc"
.LASF282:
	.string	"initializer_list<unsigned char>"
.LASF1071:
	.string	"_ZN9__gnu_cxx14__alloc_traitsISaIfEfE10_S_on_swapERS1_S3_"
.LASF1316:
	.string	"__v8sf"
.LASF1058:
	.string	"__alloc_traits<std::allocator<int>, int>"
.LASF1317:
	.string	"__v8si"
.LASF976:
	.string	"_S_propagate_on_move_assign"
.LASF243:
	.string	"_ZNSt6vectorIhSaIhEE4swapERS1_"
.LASF514:
	.string	"_ZNSt6vectorIiSaIiEEC4EOS1_RKS0_St17integral_constantIbLb0EE"
.LASF1039:
	.string	"__normal_iterator<const SubApertureImage*, std::vector<SubApertureImage, std::allocator<SubApertureImage> > >"
.LASF773:
	.string	"_ZSt8__fill_aIPhhEvT_S1_RKT0_"
.LASF1014:
	.string	"__normal_iterator<unsigned char const*, std::vector<unsigned char, std::allocator<unsigned char> > >"
.LASF640:
	.string	"__type_identity<std::allocator<float> >"
.LASF965:
	.string	"_ZN9__gnu_cxx3divExx"
.LASF733:
	.string	"iterator_traits<float*>"
.LASF909:
	.string	"vfwscanf"
.LASF1134:
	.string	"n_cs_precedes"
.LASF545:
	.string	"_ZNKSt6vectorIiSaIiEE14_M_range_checkEm"
.LASF81:
	.string	"_ZNSt15__new_allocatorIhE8allocateEmPKv"
.LASF124:
	.string	"_M_get_Tp_allocator"
.LASF794:
	.string	"__fill_a1<float*, std::vector<float>, float>"
.LASF1222:
	.string	"__state"
.LASF366:
	.string	"_ZNSt6vectorI16SubApertureImageSaIS0_EE6assignESt16initializer_listIS0_E"
.LASF444:
	.string	"initializer_list<(anonymous namespace)::SubParams>"
.LASF468:
	.string	"_ZNSt16allocator_traitsISaIiEE8allocateERS0_mPKv"
.LASF1146:
	.string	"localeconv"
.LASF76:
	.string	"reference"
.LASF21:
	.string	"__exception_ptr"
.LASF871:
	.string	"_short_backupbuf"
.LASF1117:
	.string	"char16_t"
.LASF1360:
	.string	"__result"
.LASF1086:
	.string	"_ZN9__gnu_cxx17__normal_iteratorIPfSt6vectorIfSaIfEEEmmEi"
.LASF309:
	.string	"allocator_traits<std::allocator<SubApertureImage> >"
.LASF1479:
	.string	"_Lock_policy"
.LASF133:
	.string	"_ZNSt12_Vector_baseIhSaIhEEC4EmRKS0_"
.LASF1216:
	.string	"strtoull"
.LASF1085:
	.string	"_ZN9__gnu_cxx17__normal_iteratorIPfSt6vectorIfSaIfEEEmmEv"
.LASF1395:
	.string	"_ZNSaIiED2Ev"
.LASF415:
	.string	"_ZNSt6vectorI16SubApertureImageSaIS0_EE16_M_shrink_to_fitEv"
.LASF538:
	.string	"_ZNSt6vectorIiSaIiEE6resizeEmRKi"
.LASF324:
	.string	"_ZNSt12_Vector_baseI16SubApertureImageSaIS0_EE12_Vector_implC4EOS3_"
.LASF1147:
	.string	"__int8_t"
.LASF379:
	.string	"_ZNKSt6vectorI16SubApertureImageSaIS0_EE4sizeEv"
.LASF381:
	.string	"_ZNSt6vectorI16SubApertureImageSaIS0_EE6resizeEm"
.LASF1422:
	.string	"ind_ltop"
.LASF1319:
	.string	"__m256i"
.LASF206:
	.string	"shrink_to_fit"
.LASF360:
	.string	"_ZNSt6vectorI16SubApertureImageSaIS0_EEC4ESt16initializer_listIS0_ERKS1_"
.LASF267:
	.string	"_ZNSt6vectorIhSaIhEE17_S_check_init_lenEmRKS0_"
.LASF283:
	.string	"reverse_iterator<__gnu_cxx::__normal_iterator<unsigned char*, std::vector<unsigned char, std::allocator<unsigned char> > > >"
.LASF1320:
	.string	"__m256_u"
.LASF60:
	.string	"__uninit_default_n<float*, long unsigned int>"
.LASF870:
	.string	"_fileno"
.LASF815:
	.string	"_ZSt4fillIN9__gnu_cxx17__normal_iteratorIPhSt6vectorIhSaIhEEEEhEvT_S7_RKT0_"
.LASF1400:
	.string	"_ZNSaIhED2Ev"
.LASF846:
	.string	"unsigned int"
.LASF746:
	.string	"_ZNSt19_UninitDestroyGuardIPivEC4ERKS1_"
.LASF1016:
	.string	"_ZN9__gnu_cxx14__alloc_traitsISaI16SubApertureImageES1_E17_S_select_on_copyERKS2_"
.LASF1372:
	.string	"_ZNSt15__new_allocatorIfEC2Ev"
.LASF1380:
	.string	"__elems"
.LASF338:
	.string	"_ZNSt12_Vector_baseI16SubApertureImageSaIS0_EED4Ev"
.LASF74:
	.string	"_ZNKSt15__new_allocatorIhE7addressERh"
.LASF22:
	.string	"exception_ptr"
.LASF1075:
	.string	"_ZN9__gnu_cxx14__alloc_traitsISaIfEfE15_S_always_equalEv"
.LASF1269:
	.string	"uint_fast8_t"
.LASF107:
	.string	"_Vector_impl_data"
.LASF173:
	.string	"_ZNSt6vectorIhSaIhEEaSESt16initializer_listIhE"
.LASF454:
	.string	"_ZNSt15__new_allocatorIiED4Ev"
.LASF447:
	.string	"iterator_traits<SubApertureImage*>"
.LASF1413:
	.string	"__for_range"
.LASF1008:
	.string	"_ZN9__gnu_cxx17__normal_iteratorIPhSt6vectorIhSaIhEEEmIEl"
.LASF588:
	.string	"_ZNKSt16initializer_listIiE5beginEv"
.LASF652:
	.string	"_ZNSt6vectorIfSaIfEEC4ERKS1_RKS0_"
.LASF225:
	.string	"_ZNSt6vectorIhSaIhEE4backEv"
.LASF1292:
	.string	"iswctype"
.LASF573:
	.string	"_ZNSt6vectorIiSaIiEE14_M_emplace_auxEN9__gnu_cxx17__normal_iteratorIPKiS1_EEOi"
.LASF1115:
	.string	"short int"
.LASF1318:
	.string	"__m256"
.LASF1138:
	.string	"int_p_cs_precedes"
.LASF754:
	.string	"__throw_length_error"
.LASF948:
	.string	"wcstoul"
.LASF1300:
	.string	"_ZNK9ImageData5indexEmmm"
.LASF196:
	.string	"crbegin"
.LASF261:
	.string	"_ZNSt6vectorIhSaIhEE14_M_insert_rvalEN9__gnu_cxx17__normal_iteratorIPKhS1_EEOh"
.LASF835:
	.string	"_ZSt3minIiERKT_S2_S2_"
.LASF874:
	.string	"_vtable_offset"
.LASF318:
	.string	"_ZNSt12_Vector_baseI16SubApertureImageSaIS0_EE17_Vector_impl_dataC4EOS3_"
.LASF916:
	.string	"__isoc23_vwscanf"
.LASF495:
	.string	"_ZNSt12_Vector_baseIiSaIiEEC4ERKS0_OS1_"
.LASF407:
	.string	"_ZNSt6vectorI16SubApertureImageSaIS0_EE4swapERS2_"
.LASF341:
	.string	"_ZNSt12_Vector_baseI16SubApertureImageSaIS0_EE17_M_create_storageEm"
.LASF217:
	.string	"_M_range_check"
.LASF63:
	.string	"_TrivialValueType"
.LASF638:
	.string	"_ZNSt12_Vector_baseIfSaIfEE13_M_deallocateEPfm"
.LASF266:
	.string	"_S_check_init_len"
.LASF1484:
	.string	"_IO_lock_t"
.LASF218:
	.string	"_ZNKSt6vectorIhSaIhEE14_M_range_checkEm"
.LASF1345:
	.string	"_ZNSt12_Vector_baseIfSaIfEE17_Vector_impl_dataC2Ev"
.LASF577:
	.string	"_ZNSt6vectorIiSaIiEE15_M_erase_at_endEPi"
.LASF599:
	.string	"_ZNSt15__new_allocatorIfE8allocateEmPKv"
.LASF14:
	.string	"operator std::integral_constant<bool, false>::value_type"
.LASF667:
	.string	"_ZNSt6vectorIfSaIfEE6rbeginEv"
.LASF51:
	.string	"bidirectional_iterator_tag"
.LASF708:
	.string	"_ZNSt6vectorIfSaIfEE14_M_fill_insertEN9__gnu_cxx17__normal_iteratorIPfS1_EEmRKf"
.LASF1348:
	.string	"_ZNSt15__new_allocatorIiEC2ERKS0_"
.LASF440:
	.string	"_M_len"
	.section	.debug_line_str,"MS",@progbits,1
.LASF0:
	.string	"src/avx_analysis_code_ablations/opt10_abl_tile_8x256.cpp"
.LASF1:
	.string	"/home/team15/tomasz-worktree-dir/cpp_refocus"
	.hidden	"DW.ref.__gxx_personality_v0"
	.weak	"DW.ref.__gxx_personality_v0"
	.section	.data.rel.local.DW.ref.__gxx_personality_v0,"awG",@progbits,DW.ref.__gxx_personality_v0,comdat
	.align 8
	.type	"DW.ref.__gxx_personality_v0", @object
	.size	"DW.ref.__gxx_personality_v0", 8
"DW.ref.__gxx_personality_v0":
	.quad	"__gxx_personality_v0"
	.globl	"__gxx_personality_v0"
	.ident	"GCC: (Debian 16-20260425-1) 16.0.1 20260425 (prerelease) [gcc-16 r16-8812-gd9c07462a22]"
	.section	.note.GNU-stack,"",@progbits
