	.file	"opt10_abl_tile_8x256_ilp.cpp"
	.intel_syntax noprefix
# GNU C++17 (Debian 16-20260425-1) version 16.0.1 20260425 (prerelease) [gcc-16 r16-8812-gd9c07462a22] (x86_64-linux-gnu)
#	compiled by GNU C version 16.0.1 20260425 (prerelease) [gcc-16 r16-8812-gd9c07462a22], GMP version 6.3.0, MPFR version 4.2.2, MPC version 1.3.1, isl version isl-0.27-GMP

# GGC heuristics: --param ggc-min-expand=30 --param ggc-min-heapsize=4096
# options passed: -march=tigerlake -mmmx -mpopcnt -msse -msse2 -msse3 -mssse3 -msse4.1 -msse4.2 -mavx -mno-sse4a -mno-fma4 -mno-xop -mavx512f -mbmi -mbmi2 -maes -mpclmul -mavx512vl -mavx512bw -mavx512dq -mavx512cd -mavx512vbmi -mavx512ifma -mavx512vpopcntdq -mavx512vbmi2 -mgfni -mvpclmulqdq -mavx512vnni -mavx512bitalg -mno-avx512bf16 -mavx512vp2intersect -mno-3dnow -madx -mabm -mno-cldemote -mclflushopt -mclwb -mno-clzero -mcx16 -mno-enqcmd -mf16c -mfsgsbase -mfxsr -mno-hle -msahf -mno-lwp -mlzcnt -mmovbe -mmovdir64b -mmovdiri -mno-mwaitx -mno-pconfig -mpku -mprfchw -mno-ptwrite -mrdpid -mrdrnd -mrdseed -mno-rtm -mno-serialize -mno-sgx -msha -mshstk -mno-tbm -mno-tsxldtrk -mvaes -mno-waitpkg -mno-wbnoinvd -mxsave -mxsavec -mxsaveopt -mxsaves -mno-amx-tile -mno-amx-int8 -mno-amx-bf16 -mno-uintr -mno-hreset -mno-kl -mno-widekl -mno-avxvnni -mno-avx512fp16 -mno-avxifma -mno-avxvnniint8 -mno-avxneconvert -mno-cmpccxadd -mno-amx-fp16 -mno-prefetchi -mno-raoint -mno-amx-complex -mno-avxvnniint16 -mno-sm3 -mno-sha512 -mno-sm4 -mno-apxf -mno-usermsr -mno-avx10.1 -mno-avx10.2 -mno-amx-avx512 -mno-amx-tf32 -mno-amx-fp8 -mno-movrs -mno-amx-movrs -mno-avx512bmm --param=l1-cache-size=48 --param=l1-cache-line-size=64 --param=l2-cache-size=8192 -mtune=tigerlake -mavx2 -mfma -masm=intel -g -O3 -std=c++17 -ffast-math -fasynchronous-unwind-tables
	.text
.Ltext0:
	.file 0 "/home/team15/tomasz-worktree-dir/cpp_refocus" "src/avx_analysis_code_ablations/opt10_abl_tile_8x256_ilp.cpp"
	.section	.rodata.str1.8,"aMS",@progbits,1
	.align 8
.LC0:
	.string	"cannot create std::vector larger than max_size()"
	.section	.rodata.str1.1,"aMS",@progbits,1
.LC2:
	.string	"vector::_M_realloc_append"
	.section	.text.unlikely,"ax",@progbits
.LCOLDB5:
	.text
.LHOTB5:
	.p2align 4
	.section	.text.unlikely
.Ltext_cold0:
	.text
	.globl	"_Z21refocus_shift_and_sumRSt6vectorI16SubApertureImageSaIS0_EEf"
	.type	"_Z21refocus_shift_and_sumRSt6vectorI16SubApertureImageSaIS0_EEf", @function
"_Z21refocus_shift_and_sumRSt6vectorI16SubApertureImageSaIS0_EEf":
.LVL0:
.LFB11707:
	.file 1 "src/avx_analysis_code_ablations/opt10_abl_tile_8x256_ilp.cpp"
	.loc 1 35 91 view -0
	.cfi_startproc
	.cfi_personality 0x9b,"DW.ref.__gxx_personality_v0"
	.cfi_lsda 0x1b,.LLSDA11707
	.loc 1 35 91 is_stmt 0 view .LVU1
	push	rbp	#
	.cfi_def_cfa_offset 16
	.cfi_offset 6, -16
.LBB2444:
.LBB2445:
.LBB2446:
.LBB2447:
.LBB2448:
.LBB2449:
# /usr/include/c++/16/bits/stl_vector.h:106: 	: _M_start(), _M_finish(), _M_end_of_storage()
	.file 2 "/usr/include/c++/16/bits/stl_vector.h"
	.loc 2 106 4 view .LVU2
	vpxor	xmm1, xmm1, xmm1	# tmp889
.LBE2449:
.LBE2448:
.LBE2447:
.LBE2446:
.LBE2445:
.LBE2444:
# src/avx_analysis_code_ablations/opt10_abl_tile_8x256_ilp.cpp:35: ImageData refocus_shift_and_sum(std::vector<SubApertureImage>& subapertures, float focus) {
	.loc 1 35 91 view .LVU3
	mov	rbp, rsp	#,
	.cfi_def_cfa_register 6
	push	r15	#
	push	r14	#
	push	r13	#
	push	r12	#
	.cfi_offset 15, -24
	.cfi_offset 14, -32
	.cfi_offset 13, -40
	.cfi_offset 12, -48
	mov	r12, rsi	# subapertures, subapertures
	push	rbx	#
	and	rsp, -32	#,
	sub	rsp, 256	#,
	.cfi_offset 3, -56
.LBB2461:
.LBB2462:
.LBB2463:
.LBB2464:
# /usr/include/c++/16/bits/stl_iterator.h:1059:       : _M_current(__i) { }
	.file 3 "/usr/include/c++/16/bits/stl_iterator.h"
	.loc 3 1059 9 view .LVU4
	mov	rbx, QWORD PTR [rsi]	# SR.299, MEM[(struct SubApertureImage * const &)subapertures_223(D)]
.LBE2464:
.LBE2463:
.LBE2462:
.LBE2461:
# src/avx_analysis_code_ablations/opt10_abl_tile_8x256_ilp.cpp:35: ImageData refocus_shift_and_sum(std::vector<SubApertureImage>& subapertures, float focus) {
	.loc 1 35 91 view .LVU5
	vmovss	DWORD PTR 192[rsp], xmm0	# %sfp, focus
	mov	QWORD PTR 120[rsp], rdi	# %sfp, <retval>
	.loc 1 36 5 is_stmt 1 view .LVU6
.LVL1:
.LBB2467:
.LBI2461:
	.loc 2 1334 7 view .LVU7
	.loc 2 1336 2 discriminator 2 view .LVU8
.LBB2466:
.LBI2462:
	.loc 2 988 7 view .LVU9
.LBB2465:
.LBI2463:
	.loc 3 1058 7 view .LVU10
	.loc 3 1058 7 is_stmt 0 view .LVU11
.LBE2465:
.LBE2466:
.LBE2467:
# src/avx_analysis_code_ablations/opt10_abl_tile_8x256_ilp.cpp:36:     const size_t width  = subapertures.front().data.width;
	.loc 1 36 53 discriminator 1 view .LVU12
	vmovdqu	xmm0, XMMWORD PTR [rbx]	# MEM <vector(2) long unsigned int> [(long unsigned int *)_432], MEM <vector(2) long unsigned int> [(long unsigned int *)_432]
.LVL2:
.LBB2468:
.LBB2459:
.LBB2457:
.LBB2455:
.LBB2451:
.LBB2450:
# /usr/include/c++/16/bits/stl_vector.h:106: 	: _M_start(), _M_finish(), _M_end_of_storage()
	.loc 2 106 29 view .LVU13
	mov	QWORD PTR 32[rdi], 0	# MEM[(struct _Vector_impl_data *)output_228(D) + 16B]._M_end_of_storage,
# /usr/include/c++/16/bits/stl_vector.h:106: 	: _M_start(), _M_finish(), _M_end_of_storage()
	.loc 2 106 4 view .LVU14
	vmovdqu	XMMWORD PTR 16[rdi], xmm1	# MEM <vector(2) long unsigned int> [(unsigned char * *)output_228(D) + 16B], tmp889
	vmovq	rax, xmm0	# _390, MEM <vector(2) long unsigned int> [(long unsigned int *)_432]
	vpextrq	rdx, xmm0, 1	# _920, MEM <vector(2) long unsigned int> [(long unsigned int *)_432]
	vmovq	QWORD PTR 144[rsp], xmm0	# %sfp, _390
.LVL3:
	.loc 2 106 4 view .LVU15
.LBE2450:
.LBE2451:
.LBE2455:
.LBE2457:
.LBE2459:
.LBE2468:
	.loc 1 37 5 is_stmt 1 view .LVU16
.LBB2469:
.LBI2469:
	.loc 2 1334 7 view .LVU17
	.loc 2 1336 2 discriminator 2 view .LVU18
.LBB2470:
.LBI2470:
	.loc 2 988 7 view .LVU19
.LBB2471:
.LBI2471:
	.loc 3 1058 7 view .LVU20
	.loc 3 1058 7 is_stmt 0 view .LVU21
.LBE2471:
.LBE2470:
.LBE2469:
	.loc 1 38 5 is_stmt 1 view .LVU22
	.loc 1 39 5 view .LVU23
	.loc 1 41 5 view .LVU24
.LBB2472:
.LBI2444:
	.file 4 "include/utils.hpp"
	.loc 4 11 8 view .LVU25
.LBB2460:
.LBI2445:
	.loc 2 551 7 view .LVU26
.LBB2458:
.LBI2446:
	.loc 2 321 7 view .LVU27
.LBB2456:
.LBI2447:
	.loc 2 143 2 view .LVU28
.LBB2452:
.LBI2452:
	.file 5 "/usr/include/c++/16/bits/allocator.h"
	.loc 5 168 7 view .LVU29
.LBB2453:
.LBI2453:
	.file 6 "/usr/include/c++/16/bits/new_allocator.h"
	.loc 6 88 7 view .LVU30
	.loc 6 88 7 is_stmt 0 view .LVU31
.LBE2453:
.LBE2452:
.LBB2454:
.LBI2448:
	.loc 2 105 2 is_stmt 1 view .LVU32
	.loc 2 105 2 is_stmt 0 view .LVU33
.LBE2454:
.LBE2456:
.LBE2458:
.LBE2460:
.LBE2472:
	.loc 1 42 5 is_stmt 1 view .LVU34
	.loc 1 43 5 view .LVU35
# src/avx_analysis_code_ablations/opt10_abl_tile_8x256_ilp.cpp:44:     output.data.assign(width * height * 3, 0);
	.loc 1 44 30 is_stmt 0 view .LVU36
	mov	r14, rax	# _4, _390
	mov	QWORD PTR 224[rsp], rdx	# %sfp, _920
	imul	r14, rdx	# _4, _920
# src/avx_analysis_code_ablations/opt10_abl_tile_8x256_ilp.cpp:42:     output.width = width;
	.loc 1 42 18 view .LVU37
	vmovdqu	XMMWORD PTR [rdi], xmm0	# MEM <vector(2) long unsigned int> [(long unsigned int *)output_228(D)], MEM <vector(2) long unsigned int> [(long unsigned int *)_432]
	.loc 1 44 5 is_stmt 1 view .LVU38
.LVL4:
.LBB2473:
.LBI2473:
	.loc 2 865 7 view .LVU39
.LBB2474:
.LBI2474:
	.file 7 "/usr/include/c++/16/bits/vector.tcc"
	.loc 7 274 5 view .LVU40
.LBB2475:
.LBB2476:
# /usr/include/c++/16/bits/vector.tcc:278:       if (__n > capacity())
	.loc 7 278 7 is_stmt 0 discriminator 1 view .LVU41
	test	r14, r14	# _4
	jne	.L2	#,
.LVL5:
	.loc 7 278 7 discriminator 1 view .LVU42
.LBE2476:
.LBE2475:
.LBE2474:
.LBE2473:
	.loc 1 47 5 is_stmt 1 view .LVU43
.LBB2536:
.LBI2536:
	.loc 2 551 7 view .LVU44
.LBB2537:
.LBI2537:
	.loc 2 321 7 view .LVU45
.LBB2538:
.LBI2538:
	.loc 2 143 2 view .LVU46
.LBB2539:
.LBI2539:
	.loc 5 168 7 view .LVU47
.LBB2540:
.LBI2540:
	.loc 6 88 7 view .LVU48
	.loc 6 88 7 is_stmt 0 view .LVU49
.LBE2540:
.LBE2539:
.LBB2542:
.LBI2542:
	.loc 2 105 2 is_stmt 1 view .LVU50
	.loc 2 105 2 is_stmt 0 view .LVU51
.LBE2542:
.LBE2538:
.LBE2537:
.LBE2536:
	.loc 1 48 5 is_stmt 1 view .LVU52
.LBB2567:
.LBI2567:
	.loc 2 1107 7 view .LVU53
.LBB2568:
# /usr/include/c++/16/bits/stl_vector.h:1109: 	ptrdiff_t __dif = this->_M_impl._M_finish - this->_M_impl._M_start;
	.loc 2 1109 34 is_stmt 0 view .LVU54
	mov	rdi, QWORD PTR 8[rsi]	# _433, MEM[(const struct vector *)subapertures_223(D)].D.139286._M_impl.D.138633._M_finish
.LVL6:
	.loc 2 1109 34 view .LVU55
.LBE2568:
.LBE2567:
.LBB2572:
.LBI2572:
	.loc 7 70 5 is_stmt 1 view .LVU56
.LBB2573:
# /usr/include/c++/16/bits/vector.tcc:75:       if (this->capacity() < __n)
	.loc 7 75 7 is_stmt 0 discriminator 1 view .LVU57
	mov	rcx, rdi	# _435, _433
.LBE2573:
.LBE2572:
.LBB2582:
.LBB2569:
# /usr/include/c++/16/bits/stl_vector.h:1109: 	ptrdiff_t __dif = this->_M_impl._M_finish - this->_M_impl._M_start;
	.loc 2 1109 34 view .LVU58
	mov	QWORD PTR 240[rsp], rdi	# %sfp, _433
.LBE2569:
.LBE2582:
.LBB2583:
.LBB2580:
# /usr/include/c++/16/bits/vector.tcc:75:       if (this->capacity() < __n)
	.loc 7 75 7 discriminator 1 view .LVU59
	sub	rcx, rbx	# _435, SR.299
.LVL7:
	.loc 7 75 7 discriminator 1 view .LVU60
	mov	QWORD PTR 56[rsp], rcx	# %sfp, _435
	je	.L140	#,
.LVL8:
.L4:
.LBB2574:
.LBB2575:
.LBI2575:
	.loc 2 386 7 is_stmt 1 view .LVU61
.LBB2576:
.LBB2577:
.LBI2577:
	.file 8 "/usr/include/c++/16/bits/alloc_traits.h"
	.loc 8 637 7 view .LVU62
.LBB2578:
.LBI2578:
	.loc 6 129 7 view .LVU63
.LBB2579:
# /usr/include/c++/16/bits/new_allocator.h:162: 	  return static_cast<_Tp*>(_GLIBCXX_OPERATOR_NEW(__n * sizeof(_Tp)));
	.loc 6 162 68 is_stmt 0 view .LVU64
	mov	r15, QWORD PTR 56[rsp]	# _435, %sfp
	mov	rdi, r15	#, _435
.LEHB0:
	call	"_Znwm"@PLT	#
.LVL9:
.LEHE0:
	mov	QWORD PTR 80[rsp], rax	# %sfp, __new_finish
.LVL10:
	.loc 6 162 68 view .LVU65
.LBE2579:
.LBE2578:
.LBE2577:
.LBE2576:
.LBE2575:
# /usr/include/c++/16/bits/vector.tcc:101: 	  this->_M_impl._M_end_of_storage = this->_M_impl._M_start + __n;
	.loc 7 101 61 view .LVU66
	add	r15, rax	# params$_M_end_of_storage, __new_finish
.LVL11:
.L8:
	.loc 7 101 61 view .LVU67
.LBE2574:
.LBE2580:
.LBE2583:
# src/avx_analysis_code_ablations/opt10_abl_tile_8x256_ilp.cpp:38:     const int w = static_cast<int>(width);
	.loc 1 38 15 view .LVU68
	mov	eax, DWORD PTR 144[rsp]	# tmp1875, %sfp
# src/avx_analysis_code_ablations/opt10_abl_tile_8x256_ilp.cpp:39:     const int h = static_cast<int>(height);
	.loc 1 39 15 view .LVU69
	mov	r13d, DWORD PTR 224[rsp]	# _2, %sfp
.LVL12:
	.loc 1 49 5 is_stmt 1 view .LVU70
.LBB2584:
.LBB2585:
.LBI2585:
	.loc 2 988 7 view .LVU71
.LBB2586:
.LBI2586:
	.loc 3 1058 7 view .LVU72
	.loc 3 1058 7 is_stmt 0 view .LVU73
.LBE2586:
.LBE2585:
.LBB2588:
.LBI2588:
	.loc 2 1008 7 is_stmt 1 view .LVU74
.LBB2589:
.LBI2589:
	.loc 3 1058 7 view .LVU75
	.loc 3 1058 7 is_stmt 0 view .LVU76
.LBE2589:
.LBE2588:
	.loc 1 49 22 is_stmt 1 discriminator 5 view .LVU77
.LBE2584:
# src/avx_analysis_code_ablations/opt10_abl_tile_8x256_ilp.cpp:38:     const int w = static_cast<int>(width);
	.loc 1 38 15 is_stmt 0 view .LVU78
	mov	DWORD PTR 76[rsp], eax	# %sfp, tmp1875
.LBB2703:
# src/avx_analysis_code_ablations/opt10_abl_tile_8x256_ilp.cpp:49:     for (auto& sub : subapertures) {
	.loc 1 49 22 discriminator 6 view .LVU79
	cmp	rbx, QWORD PTR 240[rsp]	# SR.299, %sfp
	je	.L65	#,
.LVL13:
.L5:
	.loc 1 49 22 discriminator 6 view .LVU80
.LBE2703:
.LBB2704:
.LBB2561:
.LBB2555:
.LBB2548:
.LBB2543:
# /usr/include/c++/16/bits/stl_vector.h:106: 	: _M_start(), _M_finish(), _M_end_of_storage()
	.loc 2 106 4 view .LVU81
	mov	r12, QWORD PTR 80[rsp]	# params$_M_start, %sfp
.LVL14:
.L19:
	.loc 2 106 4 view .LVU82
.LBE2543:
.LBE2548:
.LBE2555:
.LBE2561:
.LBE2704:
.LBB2705:
.LBB2591:
	.loc 1 50 9 is_stmt 1 view .LVU83
	.loc 1 51 9 view .LVU84
# src/avx_analysis_code_ablations/opt10_abl_tile_8x256_ilp.cpp:51:         float shift_x = focus * sub.u;
	.loc 1 51 15 is_stmt 0 view .LVU85
	vmovss	xmm5, DWORD PTR 192[rsp]	# focus, %sfp
# src/avx_analysis_code_ablations/opt10_abl_tile_8x256_ilp.cpp:61:         p.x_begin = std::max(0, -p.sx);
	.loc 1 61 33 view .LVU86
	xor	r8d, r8d	# _16
# src/avx_analysis_code_ablations/opt10_abl_tile_8x256_ilp.cpp:51:         float shift_x = focus * sub.u;
	.loc 1 51 15 view .LVU87
	vmulss	xmm4, xmm5, DWORD PTR 40[rbx]	# shift_x, focus, MEM[(float *)SR.299_582 + 40B]
.LVL15:
	.loc 1 52 9 is_stmt 1 view .LVU88
# src/avx_analysis_code_ablations/opt10_abl_tile_8x256_ilp.cpp:52:         float shift_y = focus * sub.v;
	.loc 1 52 15 is_stmt 0 view .LVU89
	vmulss	xmm2, xmm5, DWORD PTR 44[rbx]	# shift_y, focus, MEM[(float *)SR.299_582 + 44B]
.LVL16:
	.loc 1 53 9 is_stmt 1 view .LVU90
.LBB2592:
.LBI2592:
	.file 9 "/usr/include/c++/16/cmath"
	.loc 9 264 3 view .LVU91
.LBB2593:
	.loc 9 265 5 view .LVU92
# /usr/include/c++/16/cmath:265:   { return __builtin_floorf(__x); }
	.loc 9 265 28 is_stmt 0 view .LVU93
	vrndscaless	xmm0, xmm4, xmm4, 9	# _442, shift_x,
.LVL17:
	.loc 9 265 28 view .LVU94
.LBE2593:
.LBE2592:
# src/avx_analysis_code_ablations/opt10_abl_tile_8x256_ilp.cpp:53:         p.sx = static_cast<int>(std::floor(shift_x));
	.loc 1 53 16 discriminator 1 view .LVU95
	vcvttss2si	r10d, xmm0	# _8, _442
.LVL18:
	.loc 1 54 9 is_stmt 1 view .LVU96
.LBB2594:
.LBI2594:
	.loc 9 264 3 view .LVU97
.LBB2595:
	.loc 9 265 5 view .LVU98
# /usr/include/c++/16/cmath:265:   { return __builtin_floorf(__x); }
	.loc 9 265 28 is_stmt 0 view .LVU99
	vrndscaless	xmm1, xmm2, xmm2, 9	# _441, shift_y,
.LVL19:
	.loc 9 265 28 view .LVU100
.LBE2595:
.LBE2594:
# src/avx_analysis_code_ablations/opt10_abl_tile_8x256_ilp.cpp:54:         p.sy = static_cast<int>(std::floor(shift_y));
	.loc 1 54 16 discriminator 1 view .LVU101
	vcvttss2si	esi, xmm1	# _9, _441
.LVL20:
	.loc 1 55 9 is_stmt 1 view .LVU102
	.loc 1 56 9 view .LVU103
	.loc 1 57 9 view .LVU104
	.loc 1 58 9 view .LVU105
	.loc 1 59 9 view .LVU106
	.loc 1 60 9 view .LVU107
	.loc 1 61 9 view .LVU108
.LBB2596:
.LBI2596:
	.file 10 "/usr/include/c++/16/bits/stl_algobase.h"
	.loc 10 256 5 view .LVU109
.LBE2596:
# src/avx_analysis_code_ablations/opt10_abl_tile_8x256_ilp.cpp:61:         p.x_begin = std::max(0, -p.sx);
	.loc 1 61 33 is_stmt 0 view .LVU110
	mov	eax, r10d	# tmp1659, _8
	neg	eax	# tmp1659
	test	r10d, r10d	# _8
	cmovs	r8d, eax	# tmp1659,, _16
.LVL21:
	.loc 1 62 9 is_stmt 1 view .LVU111
.LBB2597:
.LBI2597:
	.loc 10 232 5 view .LVU112
.LBE2597:
# src/avx_analysis_code_ablations/opt10_abl_tile_8x256_ilp.cpp:62:         p.x_end   = std::min(w, w - p.sx - 1);
	.loc 1 62 35 is_stmt 0 view .LVU113
	mov	eax, DWORD PTR 76[rsp]	# _1, %sfp
	mov	ecx, eax	# _18, _1
	sub	ecx, r10d	# _18, _8
# src/avx_analysis_code_ablations/opt10_abl_tile_8x256_ilp.cpp:62:         p.x_end   = std::min(w, w - p.sx - 1);
	.loc 1 62 42 view .LVU114
	dec	ecx	# _19
.LBB2599:
.LBB2598:
# /usr/include/c++/16/bits/stl_algobase.h:237:       if (__b < __a)
	.loc 10 237 7 view .LVU115
	cmp	ecx, eax	# _19, _1
	cmovg	ecx, eax	# _19,, _398, _1
.LVL22:
	.loc 10 237 7 view .LVU116
.LBE2598:
.LBE2599:
	.loc 1 63 9 is_stmt 1 view .LVU117
.LBB2600:
.LBI2600:
	.loc 10 256 5 view .LVU118
.LBE2600:
# src/avx_analysis_code_ablations/opt10_abl_tile_8x256_ilp.cpp:63:         p.y_begin = std::max(0, -p.sy);
	.loc 1 63 33 is_stmt 0 view .LVU119
	mov	eax, esi	# tmp1661, _9
	xor	r9d, r9d	# _20
	neg	eax	# tmp1661
	test	esi, esi	# _9
	cmovs	r9d, eax	# tmp1661,, _20
	.loc 1 64 9 is_stmt 1 view .LVU120
.LVL23:
.LBB2601:
.LBI2601:
	.loc 10 232 5 view .LVU121
.LBE2601:
# src/avx_analysis_code_ablations/opt10_abl_tile_8x256_ilp.cpp:64:         p.y_end   = std::min(h, h - p.sy - 1);
	.loc 1 64 35 is_stmt 0 view .LVU122
	mov	eax, r13d	# _22, _2
	sub	eax, esi	# _22, _9
# src/avx_analysis_code_ablations/opt10_abl_tile_8x256_ilp.cpp:64:         p.y_end   = std::min(h, h - p.sy - 1);
	.loc 1 64 42 view .LVU123
	dec	eax	# _23
.LBB2603:
.LBB2602:
# /usr/include/c++/16/bits/stl_algobase.h:237:       if (__b < __a)
	.loc 10 237 7 view .LVU124
	cmp	eax, r13d	# _23, _2
	cmovg	eax, r13d	# _23,, _23, _2
	mov	r11d, eax	# _553, _23
.LVL24:
	.loc 10 237 7 view .LVU125
.LBE2602:
.LBE2603:
	.loc 1 65 9 is_stmt 1 view .LVU126
.LBB2604:
.LBI2604:
	.loc 2 1385 7 view .LVU127
	.loc 2 1385 7 is_stmt 0 view .LVU128
.LBE2604:
	.loc 1 66 9 is_stmt 1 view .LVU129
# src/avx_analysis_code_ablations/opt10_abl_tile_8x256_ilp.cpp:66:         if (p.x_begin >= p.x_end || p.y_begin >= p.y_end) continue;  // skip degenerate
	.loc 1 66 34 is_stmt 0 discriminator 1 view .LVU130
	cmp	r8d, ecx	# _16, _398
	jge	.L12	#,
	.loc 1 66 34 discriminator 1 view .LVU131
	cmp	r9d, eax	# _20, _553
	jge	.L12	#,
# src/avx_analysis_code_ablations/opt10_abl_tile_8x256_ilp.cpp:56:         float dy = shift_y - p.sy;
	.loc 1 56 15 view .LVU132
	vsubss	xmm5, xmm2, xmm1	# dy, shift_y, _441
.LVL25:
# src/avx_analysis_code_ablations/opt10_abl_tile_8x256_ilp.cpp:55:         float dx = shift_x - p.sx;
	.loc 1 55 15 view .LVU133
	vsubss	xmm3, xmm4, xmm0	# dx, shift_x, _442
.LVL26:
.LBB2607:
.LBB2605:
# /usr/include/c++/16/bits/stl_vector.h:1386:       { return _M_data_ptr(this->_M_impl._M_start); }
	.loc 2 1386 42 view .LVU134
	mov	rdi, QWORD PTR 16[rbx]	# _440, MEM[(unsigned char * *)SR.299_582 + 16B]
.LBE2605:
.LBE2607:
.LBB2608:
.LBB2609:
# /usr/include/c++/16/bits/stl_vector.h:1408: 	if (this->_M_impl._M_finish != this->_M_impl._M_end_of_storage)
	.loc 2 1408 2 view .LVU135
	mov	rax, QWORD PTR 80[rsp]	# __new_finish, %sfp
.LBE2609:
.LBE2608:
# src/avx_analysis_code_ablations/opt10_abl_tile_8x256_ilp.cpp:57:         p.A = (1 - dx) * (1 - dy);
	.loc 1 57 18 view .LVU136
	vaddss	xmm0, xmm0, DWORD PTR .LC1[rip]	# _770, _442,
.LVL27:
# src/avx_analysis_code_ablations/opt10_abl_tile_8x256_ilp.cpp:57:         p.A = (1 - dx) * (1 - dy);
	.loc 1 57 29 view .LVU137
	vaddss	xmm1, xmm1, DWORD PTR .LC1[rip]	# _771, _441,
.LVL28:
.LBB2693:
.LBB2606:
# /usr/include/c++/16/bits/stl_vector.h:1386:       { return _M_data_ptr(this->_M_impl._M_start); }
	.loc 2 1386 42 view .LVU138
	mov	QWORD PTR 208[rsp], rdi	# %sfp, _440
.LBE2606:
.LBE2693:
# src/avx_analysis_code_ablations/opt10_abl_tile_8x256_ilp.cpp:57:         p.A = (1 - dx) * (1 - dy);
	.loc 1 57 18 view .LVU139
	vsubss	xmm0, xmm0, xmm4	# _10, _770, shift_x
.LVL29:
# src/avx_analysis_code_ablations/opt10_abl_tile_8x256_ilp.cpp:57:         p.A = (1 - dx) * (1 - dy);
	.loc 1 57 29 view .LVU140
	vsubss	xmm1, xmm1, xmm2	# _11, _771, shift_y
.LVL30:
# src/avx_analysis_code_ablations/opt10_abl_tile_8x256_ilp.cpp:57:         p.A = (1 - dx) * (1 - dy);
	.loc 1 57 24 view .LVU141
	vmulss	xmm2, xmm0, xmm1	# _12, _10, _11
.LVL31:
# src/avx_analysis_code_ablations/opt10_abl_tile_8x256_ilp.cpp:58:         p.B = dx       * (1 - dy);
	.loc 1 58 24 view .LVU142
	vmulss	xmm1, xmm1, xmm3	# _13, _11, dx
# src/avx_analysis_code_ablations/opt10_abl_tile_8x256_ilp.cpp:59:         p.C = (1 - dx) * dy;
	.loc 1 59 24 view .LVU143
	vmulss	xmm0, xmm0, xmm5	# _14, _10, dy
# src/avx_analysis_code_ablations/opt10_abl_tile_8x256_ilp.cpp:60:         p.D = dx       * dy;
	.loc 1 60 24 view .LVU144
	vmulss	xmm3, xmm3, xmm5	# _15, dx, dy
.LVL32:
	.loc 1 67 9 is_stmt 1 view .LVU145
.LBB2694:
.LBI2608:
	.loc 2 1406 7 view .LVU146
.LBB2690:
# /usr/include/c++/16/bits/stl_vector.h:1408: 	if (this->_M_impl._M_finish != this->_M_impl._M_end_of_storage)
	.loc 2 1408 2 is_stmt 0 view .LVU147
	cmp	rax, r15	# __new_finish, params$_M_end_of_storage
	je	.L13	#,
.LVL33:
.LBB2610:
.LBI2610:
	.loc 8 705 2 is_stmt 1 view .LVU148
.LBB2611:
.LBI2611:
	.loc 6 201 2 view .LVU149
.LBB2612:
# /usr/include/c++/16/bits/new_allocator.h:203: 	{ ::new((void *)__p) _Up(std::forward<_Args>(__args)...); }
	.loc 6 203 4 is_stmt 0 discriminator 1 view .LVU150
	vunpcklps	xmm0, xmm0, xmm3	# tmp913, _14, _15
	vunpcklps	xmm2, xmm2, xmm1	# tmp914, _12, _13
	mov	DWORD PTR [rax], r10d	# params$_M_finish_216->sx, _8
.LBE2612:
.LBE2611:
.LBE2610:
# /usr/include/c++/16/bits/stl_vector.h:1413: 	    ++this->_M_impl._M_finish;
	.loc 2 1413 6 view .LVU151
	add	rax, 48	# __new_finish,
.LBB2615:
.LBB2614:
.LBB2613:
# /usr/include/c++/16/bits/new_allocator.h:203: 	{ ::new((void *)__p) _Up(std::forward<_Args>(__args)...); }
	.loc 6 203 4 discriminator 1 view .LVU152
	vmovlhps	xmm2, xmm2, xmm0	# _1253, tmp914, tmp913
	mov	DWORD PTR -44[rax], esi	# params$_M_finish_216->sy, _9
	vmovups	XMMWORD PTR -40[rax], xmm2	# MEM <vector(4) float> [(float *)params$_M_finish_216 + 8B], _1253
	mov	DWORD PTR -24[rax], r8d	# params$_M_finish_216->x_begin, _16
	mov	DWORD PTR -20[rax], ecx	# params$_M_finish_216->x_end, _398
	mov	DWORD PTR -16[rax], r9d	# params$_M_finish_216->y_begin, _20
	mov	DWORD PTR -12[rax], r11d	# params$_M_finish_216->y_end, _553
	mov	QWORD PTR -8[rax], rdi	# MEM <const unsigned char *> [(struct SubParams *)params$_M_finish_216 + 40B], _440
.LVL34:
	.loc 6 203 4 discriminator 1 view .LVU153
.LBE2613:
.LBE2614:
.LBE2615:
# /usr/include/c++/16/bits/stl_vector.h:1413: 	    ++this->_M_impl._M_finish;
	.loc 2 1413 6 view .LVU154
	mov	QWORD PTR 80[rsp], rax	# %sfp, __new_finish
.LVL35:
.L12:
	.loc 2 1413 6 view .LVU155
.LBE2690:
.LBE2694:
.LBE2591:
	.loc 1 49 5 is_stmt 1 discriminator 4 view .LVU156
.LBB2697:
.LBI2697:
	.loc 3 1101 7 view .LVU157
.LBB2698:
# /usr/include/c++/16/bits/stl_iterator.h:1103: 	++_M_current;
	.loc 3 1103 2 is_stmt 0 view .LVU158
	add	rbx, 48	# SR.299,
.LVL36:
	.loc 3 1103 2 view .LVU159
.LBE2698:
.LBE2697:
	.loc 1 49 22 is_stmt 1 discriminator 5 view .LVU160
# src/avx_analysis_code_ablations/opt10_abl_tile_8x256_ilp.cpp:49:     for (auto& sub : subapertures) {
	.loc 1 49 22 is_stmt 0 discriminator 6 view .LVU161
	cmp	rbx, QWORD PTR 240[rsp]	# SR.299, %sfp
	jne	.L19	#,
	.loc 1 49 22 discriminator 6 view .LVU162
.LBE2705:
.LBB2706:
.LBB2707:
.LBB2708:
# /usr/include/c++/16/bits/stl_vector.h:375: 	ptrdiff_t __n = _M_impl._M_end_of_storage - _M_impl._M_start;
	.loc 2 375 44 view .LVU163
	mov	rax, r15	# _435, params$_M_end_of_storage
	sub	rax, r12	# _435, params$_M_start
	mov	QWORD PTR 56[rsp], rax	# %sfp, _435
	mov	rax, QWORD PTR 80[rsp]	# __new_finish, %sfp
	mov	QWORD PTR 80[rsp], r12	# %sfp, params$_M_start
	mov	QWORD PTR 128[rsp], rax	# %sfp, __new_finish
.LVL37:
.L9:
	.loc 2 375 44 view .LVU164
.LBE2708:
.LBE2707:
.LBE2706:
	.loc 1 71 5 is_stmt 1 view .LVU165
.LBB2723:
.LBI2723:
	.loc 5 168 7 view .LVU166
.LBB2724:
.LBI2724:
	.loc 6 88 7 view .LVU167
	.loc 6 88 7 is_stmt 0 view .LVU168
.LBE2724:
.LBE2723:
.LBB2725:
.LBI2725:
	.loc 2 589 7 is_stmt 1 view .LVU169
.LBB2726:
.LBI2726:
	.loc 2 2203 7 view .LVU170
.LBB2727:
.LBB2728:
.LBI2728:
	.loc 5 172 7 view .LVU171
.LBB2729:
.LBI2729:
	.loc 6 92 7 view .LVU172
	.loc 6 92 7 is_stmt 0 view .LVU173
.LBE2729:
.LBE2728:
.LBB2730:
.LBI2730:
	.loc 5 189 7 is_stmt 1 view .LVU174
.LBB2731:
.LBI2731:
	.loc 6 104 7 view .LVU175
.LBE2731:
.LBE2730:
# /usr/include/c++/16/bits/stl_vector.h:2205: 	if (__n > _S_max_size(_Tp_alloc_type(__a)))
	.loc 2 2205 2 is_stmt 0 discriminator 3 view .LVU176
	mov	rax, r14	# tmp1739, _4
	shr	rax, 61	# tmp1739,
	jne	.L135	#,
.LVL38:
	.loc 2 2205 2 discriminator 3 view .LVU177
.LBE2727:
.LBE2726:
.LBB2733:
.LBI2733:
	.loc 2 339 7 is_stmt 1 view .LVU178
.LBB2734:
.LBI2734:
	.loc 2 152 2 view .LVU179
.LBB2735:
.LBI2735:
	.loc 5 172 7 view .LVU180
.LBB2736:
.LBI2736:
	.loc 6 92 7 view .LVU181
	.loc 6 92 7 is_stmt 0 view .LVU182
.LBE2736:
.LBE2735:
.LBB2737:
.LBI2737:
	.loc 2 105 2 is_stmt 1 view .LVU183
	.loc 2 105 2 is_stmt 0 view .LVU184
.LBE2737:
.LBE2734:
.LBB2738:
.LBI2738:
	.loc 2 405 7 is_stmt 1 view .LVU185
.LBB2739:
.LBB2740:
.LBI2740:
	.loc 2 386 7 view .LVU186
.LBB2741:
# /usr/include/c++/16/bits/stl_vector.h:389: 	return __n != 0 ? _Tr::allocate(_M_impl, __n) : pointer();
	.loc 2 389 18 is_stmt 0 view .LVU187
	test	r14, r14	# _4
	je	.L68	#,
.LVL39:
.LBB2742:
.LBI2742:
	.loc 8 637 7 is_stmt 1 view .LVU188
.LBB2743:
.LBI2743:
	.loc 6 129 7 view .LVU189
.LBB2744:
# /usr/include/c++/16/bits/new_allocator.h:162: 	  return static_cast<_Tp*>(_GLIBCXX_OPERATOR_NEW(__n * sizeof(_Tp)));
	.loc 6 162 68 is_stmt 0 view .LVU190
	sal	r14, 2	# _4,
.LVL40:
	.loc 6 162 68 view .LVU191
	mov	rdi, r14	#, _4
.LEHB1:
	call	"_Znwm"@PLT	#
.LVL41:
.LEHE1:
.LBE2744:
.LBE2743:
.LBE2742:
.LBE2741:
.LBE2740:
.LBE2739:
.LBE2738:
.LBE2733:
.LBB2756:
.LBB2757:
.LBB2758:
.LBB2759:
.LBB2760:
.LBB2761:
.LBB2762:
.LBB2763:
# /usr/include/c++/16/bits/stl_construct.h:133:       ::new(static_cast<void*>(__p)) _Tp(std::forward<_Args>(__args)...);
	.file 11 "/usr/include/c++/16/bits/stl_construct.h"
	.loc 11 133 7 discriminator 1 view .LVU192
	mov	rdx, r14	#, _4
	xor	esi, esi	#
	mov	rdi, rax	#, _379
.LBE2763:
.LBE2762:
.LBE2761:
.LBE2760:
.LBE2759:
.LBE2758:
.LBE2757:
.LBE2756:
.LBB2773:
.LBB2754:
.LBB2752:
.LBB2750:
.LBB2748:
.LBB2747:
.LBB2746:
.LBB2745:
# /usr/include/c++/16/bits/new_allocator.h:162: 	  return static_cast<_Tp*>(_GLIBCXX_OPERATOR_NEW(__n * sizeof(_Tp)));
	.loc 6 162 68 view .LVU193
	mov	QWORD PTR 64[rsp], rax	# %sfp, _379
.LVL42:
	.loc 6 162 68 view .LVU194
.LBE2745:
.LBE2746:
.LBE2747:
.LBE2748:
.LBE2750:
.LBE2752:
.LBE2754:
.LBE2773:
.LBB2774:
.LBI2756:
	.loc 2 1987 7 is_stmt 1 view .LVU195
.LBB2772:
.LBI2757:
	.file 12 "/usr/include/c++/16/bits/stl_uninitialized.h"
	.loc 12 771 5 view .LVU196
.LBB2771:
.LBI2758:
	.loc 12 550 5 view .LVU197
.LBB2770:
.LBB2769:
.LBI2760:
	.loc 12 477 5 view .LVU198
.LBB2768:
.LBB2765:
.LBI2765:
	.loc 12 113 7 view .LVU199
	.loc 12 113 7 is_stmt 0 view .LVU200
.LBE2765:
	.loc 12 485 2 is_stmt 1 discriminator 2 view .LVU201
	.loc 12 491 7 discriminator 2 view .LVU202
.LBB2766:
.LBB2764:
# /usr/include/c++/16/bits/stl_construct.h:133:       ::new(static_cast<void*>(__p)) _Tp(std::forward<_Args>(__args)...);
	.loc 11 133 7 is_stmt 0 discriminator 1 view .LVU203
	call	"memset"@PLT	#
.LVL43:
.L20:
	.loc 11 133 7 discriminator 1 view .LVU204
.LBE2764:
.LBE2766:
.LBB2767:
.LBI2767:
	.loc 12 118 7 is_stmt 1 view .LVU205
	.loc 12 118 7 is_stmt 0 view .LVU206
.LBE2767:
.LBE2768:
.LBE2769:
.LBE2770:
.LBE2771:
.LBE2772:
.LBE2774:
.LBE2725:
.LBB2777:
.LBI2777:
	.loc 5 189 7 is_stmt 1 view .LVU207
.LBB2778:
.LBI2778:
	.loc 6 104 7 view .LVU208
	.loc 6 104 7 is_stmt 0 view .LVU209
.LBE2778:
.LBE2777:
	.loc 1 72 5 is_stmt 1 view .LVU210
.LBB2779:
.LBI2779:
	.loc 5 168 7 view .LVU211
.LBB2780:
.LBI2780:
	.loc 6 88 7 view .LVU212
	.loc 6 88 7 is_stmt 0 view .LVU213
.LBE2780:
.LBE2779:
# src/avx_analysis_code_ablations/opt10_abl_tile_8x256_ilp.cpp:72:     std::vector<int> diff((width + 1) * (height + 1), 0);
	.loc 1 72 34 discriminator 1 view .LVU214
	mov	rax, QWORD PTR 144[rsp]	# _390, %sfp
	lea	r9, 1[rax]	# _24,
# src/avx_analysis_code_ablations/opt10_abl_tile_8x256_ilp.cpp:72:     std::vector<int> diff((width + 1) * (height + 1), 0);
	.loc 1 72 49 discriminator 1 view .LVU215
	mov	rax, QWORD PTR 224[rsp]	# _920, %sfp
	inc	rax	# _920
# src/avx_analysis_code_ablations/opt10_abl_tile_8x256_ilp.cpp:72:     std::vector<int> diff((width + 1) * (height + 1), 0);
	.loc 1 72 56 discriminator 1 view .LVU216
	imul	rax, r9	# _25, _24
	mov	rbx, rax	# _26, _25
.LVL44:
.LBB2781:
.LBI2781:
	.loc 2 589 7 is_stmt 1 view .LVU217
.LBB2782:
.LBI2782:
	.loc 2 2203 7 view .LVU218
.LBB2783:
.LBB2784:
.LBI2784:
	.loc 5 172 7 view .LVU219
.LBB2785:
.LBI2785:
	.loc 6 92 7 view .LVU220
	.loc 6 92 7 is_stmt 0 view .LVU221
.LBE2785:
.LBE2784:
.LBB2786:
.LBI2786:
	.loc 5 189 7 is_stmt 1 view .LVU222
.LBB2787:
.LBI2787:
	.loc 6 104 7 view .LVU223
.LBE2787:
.LBE2786:
# /usr/include/c++/16/bits/stl_vector.h:2205: 	if (__n > _S_max_size(_Tp_alloc_type(__a)))
	.loc 2 2205 2 is_stmt 0 discriminator 3 view .LVU224
	shr	rax, 61	# tmp1740,
.LVL45:
	.loc 2 2205 2 discriminator 3 view .LVU225
	jne	.L136	#,
.LVL46:
	.loc 2 2205 2 discriminator 3 view .LVU226
.LBE2783:
.LBE2782:
.LBB2789:
.LBI2789:
	.loc 2 339 7 is_stmt 1 view .LVU227
.LBB2790:
.LBI2790:
	.loc 2 152 2 view .LVU228
.LBB2791:
.LBI2791:
	.loc 5 172 7 view .LVU229
.LBB2792:
.LBI2792:
	.loc 6 92 7 view .LVU230
	.loc 6 92 7 is_stmt 0 view .LVU231
.LBE2792:
.LBE2791:
.LBB2793:
.LBI2793:
	.loc 2 105 2 is_stmt 1 view .LVU232
	.loc 2 105 2 is_stmt 0 view .LVU233
.LBE2793:
.LBE2790:
.LBB2794:
.LBI2794:
	.loc 2 405 7 is_stmt 1 view .LVU234
.LBB2795:
.LBB2796:
.LBI2796:
	.loc 2 386 7 view .LVU235
.LBB2797:
# /usr/include/c++/16/bits/stl_vector.h:389: 	return __n != 0 ? _Tr::allocate(_M_impl, __n) : pointer();
	.loc 2 389 18 is_stmt 0 view .LVU236
	test	rbx, rbx	# _26
	je	.L69	#,
.LBB2798:
.LBB2799:
.LBB2800:
# /usr/include/c++/16/bits/new_allocator.h:162: 	  return static_cast<_Tp*>(_GLIBCXX_OPERATOR_NEW(__n * sizeof(_Tp)));
	.loc 6 162 68 view .LVU237
	sal	rbx, 2	# _26,
.LVL47:
	.loc 6 162 68 view .LVU238
	mov	QWORD PTR 240[rsp], r9	# %sfp, _24
.LBE2800:
.LBE2799:
.LBI2798:
	.loc 8 637 7 is_stmt 1 view .LVU239
.LBB2803:
.LBI2799:
	.loc 6 129 7 view .LVU240
.LVL48:
.LBB2801:
# /usr/include/c++/16/bits/new_allocator.h:162: 	  return static_cast<_Tp*>(_GLIBCXX_OPERATOR_NEW(__n * sizeof(_Tp)));
	.loc 6 162 68 is_stmt 0 view .LVU241
	mov	rdi, rbx	#, _26
.LEHB2:
	call	"_Znwm"@PLT	#
.LVL49:
.LEHE2:
	.loc 6 162 68 view .LVU242
.LBE2801:
.LBE2803:
.LBE2798:
.LBE2797:
.LBE2796:
.LBE2795:
.LBE2794:
.LBE2789:
.LBB2814:
.LBB2815:
.LBB2816:
.LBB2817:
.LBB2818:
.LBB2819:
.LBB2820:
.LBB2821:
# /usr/include/c++/16/bits/stl_construct.h:133:       ::new(static_cast<void*>(__p)) _Tp(std::forward<_Args>(__args)...);
	.loc 11 133 7 discriminator 1 view .LVU243
	mov	rdx, rbx	#, _26
	xor	esi, esi	#
	mov	rdi, rax	#, _519
.LBE2821:
.LBE2820:
.LBE2819:
.LBE2818:
.LBE2817:
.LBE2816:
.LBE2815:
.LBE2814:
.LBB2831:
.LBB2812:
.LBB2810:
.LBB2808:
.LBB2806:
.LBB2805:
.LBB2804:
.LBB2802:
# /usr/include/c++/16/bits/new_allocator.h:162: 	  return static_cast<_Tp*>(_GLIBCXX_OPERATOR_NEW(__n * sizeof(_Tp)));
	.loc 6 162 68 view .LVU244
	mov	r12, rax	# _519, _519
.LVL50:
	.loc 6 162 68 view .LVU245
.LBE2802:
.LBE2804:
.LBE2805:
.LBE2806:
.LBE2808:
.LBE2810:
.LBE2812:
.LBE2831:
.LBB2832:
.LBI2814:
	.loc 2 1987 7 is_stmt 1 view .LVU246
.LBB2830:
.LBI2815:
	.loc 12 771 5 view .LVU247
.LBB2829:
.LBI2816:
	.loc 12 550 5 view .LVU248
.LBB2828:
.LBB2827:
.LBI2818:
	.loc 12 477 5 view .LVU249
.LBB2826:
.LBB2823:
.LBI2823:
	.loc 12 113 7 view .LVU250
	.loc 12 113 7 is_stmt 0 view .LVU251
.LBE2823:
	.loc 12 485 2 is_stmt 1 discriminator 2 view .LVU252
	.loc 12 491 7 discriminator 2 view .LVU253
.LBB2824:
.LBB2822:
# /usr/include/c++/16/bits/stl_construct.h:133:       ::new(static_cast<void*>(__p)) _Tp(std::forward<_Args>(__args)...);
	.loc 11 133 7 is_stmt 0 discriminator 1 view .LVU254
	call	"memset"@PLT	#
.LVL51:
	.loc 11 133 7 discriminator 1 view .LVU255
	mov	r9, QWORD PTR 240[rsp]	# _24, %sfp
.LVL52:
.L24:
	.loc 11 133 7 discriminator 1 view .LVU256
.LBE2822:
.LBE2824:
.LBB2825:
.LBI2825:
	.loc 12 118 7 is_stmt 1 view .LVU257
	.loc 12 118 7 is_stmt 0 view .LVU258
.LBE2825:
.LBE2826:
.LBE2827:
.LBE2828:
.LBE2829:
.LBE2830:
.LBE2832:
.LBE2781:
.LBB2835:
.LBI2835:
	.loc 5 189 7 is_stmt 1 view .LVU259
.LBB2836:
.LBI2836:
	.loc 6 104 7 view .LVU260
	.loc 6 104 7 is_stmt 0 view .LVU261
.LBE2836:
.LBE2835:
	.loc 1 74 5 is_stmt 1 view .LVU262
.LBB2837:
.LBB2838:
.LBI2838:
	.loc 2 988 7 view .LVU263
.LBB2839:
.LBI2839:
	.loc 3 1058 7 view .LVU264
	.loc 3 1058 7 is_stmt 0 view .LVU265
.LBE2839:
.LBE2838:
.LBB2840:
.LBI2840:
	.loc 2 1008 7 is_stmt 1 view .LVU266
.LBB2841:
.LBI2841:
	.loc 3 1058 7 view .LVU267
	.loc 3 1058 7 is_stmt 0 view .LVU268
.LBE2841:
.LBE2840:
	.loc 1 74 26 is_stmt 1 discriminator 5 view .LVU269
# src/avx_analysis_code_ablations/opt10_abl_tile_8x256_ilp.cpp:74:     for (const auto& p : params) {
	.loc 1 74 26 is_stmt 0 discriminator 6 view .LVU270
	mov	rax, QWORD PTR 80[rsp]	# __new_finish, %sfp
	cmp	rax, QWORD PTR 128[rsp]	# __new_finish, %sfp
	je	.L25	#,
.LVL53:
.L26:
	.loc 1 75 9 is_stmt 1 view .LVU271
# src/avx_analysis_code_ablations/opt10_abl_tile_8x256_ilp.cpp:75:         diff[p.y_begin * (width + 1) + p.x_begin] += 1;
	.loc 1 75 16 is_stmt 0 view .LVU272
	movsxd	rdx, DWORD PTR 32[rax]	# _28, MEM[(int *)SR.301_554 + 32B]
# src/avx_analysis_code_ablations/opt10_abl_tile_8x256_ilp.cpp:75:         diff[p.y_begin * (width + 1) + p.x_begin] += 1;
	.loc 1 75 42 view .LVU273
	movsxd	rsi, DWORD PTR 24[rax]	# _31, MEM[(int *)SR.301_554 + 24B]
.LBB2842:
.LBB2843:
# /usr/include/c++/16/bits/stl_iterator.h:1103: 	++_M_current;
	.loc 3 1103 2 view .LVU274
	add	rax, 48	# SR.301,
.LVL54:
	.loc 3 1103 2 view .LVU275
.LBE2843:
.LBE2842:
# src/avx_analysis_code_ablations/opt10_abl_tile_8x256_ilp.cpp:77:         diff[p.y_end   * (width + 1) + p.x_begin] -= 1;
	.loc 1 77 16 view .LVU276
	movsxd	rdi, DWORD PTR -12[rax]	# _44, MEM[(int *)SR.301_554 + 36B]
# src/avx_analysis_code_ablations/opt10_abl_tile_8x256_ilp.cpp:75:         diff[p.y_begin * (width + 1) + p.x_begin] += 1;
	.loc 1 75 24 view .LVU277
	imul	rdx, r9	# _29, _24
.LVL55:
.LBB2844:
.LBI2844:
	.loc 2 1251 7 is_stmt 1 view .LVU278
.LBB2845:
	.loc 2 1253 2 discriminator 2 view .LVU279
	.loc 2 1253 2 is_stmt 0 discriminator 2 view .LVU280
.LBE2845:
.LBE2844:
# src/avx_analysis_code_ablations/opt10_abl_tile_8x256_ilp.cpp:77:         diff[p.y_end   * (width + 1) + p.x_begin] -= 1;
	.loc 1 77 24 view .LVU281
	imul	rdi, r9	# _45, _24
# src/avx_analysis_code_ablations/opt10_abl_tile_8x256_ilp.cpp:75:         diff[p.y_begin * (width + 1) + p.x_begin] += 1;
	.loc 1 75 49 view .LVU282
	lea	rcx, [rdx+rsi]	# _32,
# src/avx_analysis_code_ablations/opt10_abl_tile_8x256_ilp.cpp:75:         diff[p.y_begin * (width + 1) + p.x_begin] += 1;
	.loc 1 75 51 discriminator 1 view .LVU283
	inc	DWORD PTR [r12+rcx*4]	# *_453
	.loc 1 76 9 is_stmt 1 view .LVU284
# src/avx_analysis_code_ablations/opt10_abl_tile_8x256_ilp.cpp:76:         diff[p.y_begin * (width + 1) + p.x_end  ] -= 1;
	.loc 1 76 42 is_stmt 0 view .LVU285
	movsxd	rcx, DWORD PTR -20[rax]	# _39, MEM[(int *)SR.301_554 + 28B]
.LVL56:
.LBB2846:
.LBI2846:
	.loc 2 1251 7 is_stmt 1 view .LVU286
.LBB2847:
	.loc 2 1253 2 discriminator 2 view .LVU287
	.loc 2 1253 2 is_stmt 0 discriminator 2 view .LVU288
.LBE2847:
.LBE2846:
# src/avx_analysis_code_ablations/opt10_abl_tile_8x256_ilp.cpp:76:         diff[p.y_begin * (width + 1) + p.x_end  ] -= 1;
	.loc 1 76 49 view .LVU289
	add	rdx, rcx	# _40, _39
# src/avx_analysis_code_ablations/opt10_abl_tile_8x256_ilp.cpp:76:         diff[p.y_begin * (width + 1) + p.x_end  ] -= 1;
	.loc 1 76 51 discriminator 1 view .LVU290
	dec	DWORD PTR [r12+rdx*4]	# *_450
	.loc 1 77 9 is_stmt 1 view .LVU291
.LVL57:
.LBB2848:
.LBI2848:
	.loc 2 1251 7 view .LVU292
.LBB2849:
	.loc 2 1253 2 discriminator 2 view .LVU293
	.loc 2 1253 2 is_stmt 0 discriminator 2 view .LVU294
.LBE2849:
.LBE2848:
# src/avx_analysis_code_ablations/opt10_abl_tile_8x256_ilp.cpp:77:         diff[p.y_end   * (width + 1) + p.x_begin] -= 1;
	.loc 1 77 49 view .LVU295
	lea	rdx, [rsi+rdi]	# _48,
# src/avx_analysis_code_ablations/opt10_abl_tile_8x256_ilp.cpp:77:         diff[p.y_end   * (width + 1) + p.x_begin] -= 1;
	.loc 1 77 51 discriminator 1 view .LVU296
	dec	DWORD PTR [r12+rdx*4]	# *_448
	.loc 1 78 9 is_stmt 1 view .LVU297
.LVL58:
.LBB2850:
.LBI2850:
	.loc 2 1251 7 view .LVU298
.LBB2851:
	.loc 2 1253 2 discriminator 2 view .LVU299
	.loc 2 1253 2 is_stmt 0 discriminator 2 view .LVU300
.LBE2851:
.LBE2850:
# src/avx_analysis_code_ablations/opt10_abl_tile_8x256_ilp.cpp:78:         diff[p.y_end   * (width + 1) + p.x_end  ] += 1;
	.loc 1 78 49 view .LVU301
	lea	rdx, [rcx+rdi]	# _56,
# src/avx_analysis_code_ablations/opt10_abl_tile_8x256_ilp.cpp:78:         diff[p.y_end   * (width + 1) + p.x_end  ] += 1;
	.loc 1 78 51 discriminator 1 view .LVU302
	inc	DWORD PTR [r12+rdx*4]	# *_446
	.loc 1 74 5 is_stmt 1 discriminator 4 view .LVU303
.LVL59:
.LBB2852:
.LBI2842:
	.loc 3 1101 7 view .LVU304
	.loc 3 1101 7 is_stmt 0 view .LVU305
.LBE2852:
	.loc 1 74 26 is_stmt 1 discriminator 5 view .LVU306
# src/avx_analysis_code_ablations/opt10_abl_tile_8x256_ilp.cpp:74:     for (const auto& p : params) {
	.loc 1 74 26 is_stmt 0 discriminator 6 view .LVU307
	cmp	rax, QWORD PTR 128[rsp]	# SR.301, %sfp
	jne	.L26	#,
.LVL60:
.L25:
	.loc 1 74 26 discriminator 6 view .LVU308
.LBE2837:
.LBB2853:
	.loc 1 81 23 is_stmt 1 discriminator 2 view .LVU309
	test	r13d, r13d	# _2
	jle	.L27	#,
	mov	r8d, DWORD PTR 76[rsp]	#, %sfp
	test	r8d, r8d	#
	jle	.L27	#,
.LVL61:
.LBB2854:
.LBB2855:
	.loc 1 83 27 discriminator 2 view .LVU310
	mov	rax, QWORD PTR 144[rsp]	# _390, %sfp
.LBE2855:
# src/avx_analysis_code_ablations/opt10_abl_tile_8x256_ilp.cpp:82:         int row = 0;
	.loc 1 82 13 is_stmt 0 view .LVU311
	xor	esi, esi	# row
	lea	edx, -1[rax]	# _1094,
.LBE2854:
# src/avx_analysis_code_ablations/opt10_abl_tile_8x256_ilp.cpp:81:     for (int y = 0; y < h; ++y) {
	.loc 1 81 23 discriminator 2 view .LVU312
	xor	eax, eax	# ivtmp.600
	lea	r11, 1[rdx]	# _1183,
.LVL62:
.L29:
.LBB2860:
.LBB2856:
	.loc 1 84 13 is_stmt 1 view .LVU313
# src/avx_analysis_code_ablations/opt10_abl_tile_8x256_ilp.cpp:85:             counts[y * w + x] = row + (y > 0 ? counts[(y - 1) * w + x] : 0);
	.loc 1 85 31 is_stmt 0 discriminator 5 view .LVU314
	mov	rdi, QWORD PTR 64[rsp]	# _379, %sfp
# src/avx_analysis_code_ablations/opt10_abl_tile_8x256_ilp.cpp:84:             row += diff[y * (width + 1) + x];
	.loc 1 84 17 discriminator 1 view .LVU315
	add	esi, DWORD PTR [r12+rax*4]	# row, MEM[(value_type &)_519 + ivtmp.600_1086 * 4]
.LVL63:
	.loc 1 85 13 is_stmt 1 view .LVU316
# src/avx_analysis_code_ablations/opt10_abl_tile_8x256_ilp.cpp:85:             counts[y * w + x] = row + (y > 0 ? counts[(y - 1) * w + x] : 0);
	.loc 1 85 31 is_stmt 0 discriminator 5 view .LVU317
	mov	DWORD PTR [rdi+rax*4], esi	# MEM[(value_type &)_756 + ivtmp.600_1086 * 4], row
	.loc 1 83 9 is_stmt 1 discriminator 1 view .LVU318
.LVL64:
	.loc 1 83 27 discriminator 2 view .LVU319
	inc	rax	# ivtmp.600
.LVL65:
	.loc 1 83 27 is_stmt 0 discriminator 2 view .LVU320
	cmp	rax, r11	# ivtmp.600, _1183
	jne	.L29	#,
.LBE2856:
.LBE2860:
	.loc 1 81 5 is_stmt 1 discriminator 1 view .LVU321
.LVL66:
	.loc 1 81 23 discriminator 2 view .LVU322
	cmp	r13d, 1	# _2,
	je	.L27	#,
	mov	eax, DWORD PTR 76[rsp]	# _966, %sfp
	sal	r9, 2	# _699,
.LBB2861:
.LBB2857:
# src/avx_analysis_code_ablations/opt10_abl_tile_8x256_ilp.cpp:83:         for (int x = 0; x < w; ++x) {
	.loc 1 83 27 is_stmt 0 discriminator 2 view .LVU323
	xor	r10d, r10d	# ivtmp.595
.LBE2857:
.LBE2861:
# src/avx_analysis_code_ablations/opt10_abl_tile_8x256_ilp.cpp:81:     for (int y = 0; y < h; ++y) {
	.loc 1 81 14 view .LVU324
	mov	edx, 1	# y,
	lea	rsi, [r12+r9]	# ivtmp.594,
.LVL67:
	.loc 1 81 14 view .LVU325
	lea	r8, 0[0+rax*4]	# _1083,
	lea	rcx, [rdi+r8]	# ivtmp.597,
.LVL68:
.L31:
.LBB2862:
.LBB2858:
	.loc 1 83 27 is_stmt 1 discriminator 2 view .LVU326
	mov	rdi, QWORD PTR 64[rsp]	# _379, %sfp
	movsxd	rax, r10d	# _1365, ivtmp.595
	add	r10d, DWORD PTR 144[rsp]	# ivtmp.595, %sfp
.LBE2858:
# src/avx_analysis_code_ablations/opt10_abl_tile_8x256_ilp.cpp:82:         int row = 0;
	.loc 1 82 13 is_stmt 0 view .LVU327
	mov	DWORD PTR 232[rsp], edx	# %sfp, y
	lea	rax, [rdi+rax*4]	# _875,
	xor	edi, edi	# row
	mov	QWORD PTR 240[rsp], rax	# %sfp, _875
.LBE2862:
# src/avx_analysis_code_ablations/opt10_abl_tile_8x256_ilp.cpp:81:     for (int y = 0; y < h; ++y) {
	.loc 1 81 14 view .LVU328
	xor	eax, eax	# ivtmp.581
.LVL69:
.L30:
.LBB2863:
.LBB2859:
	.loc 1 84 13 is_stmt 1 view .LVU329
# src/avx_analysis_code_ablations/opt10_abl_tile_8x256_ilp.cpp:85:             counts[y * w + x] = row + (y > 0 ? counts[(y - 1) * w + x] : 0);
	.loc 1 85 37 is_stmt 0 discriminator 4 view .LVU330
	mov	rdx, QWORD PTR 240[rsp]	# _875, %sfp
# src/avx_analysis_code_ablations/opt10_abl_tile_8x256_ilp.cpp:84:             row += diff[y * (width + 1) + x];
	.loc 1 84 17 discriminator 1 view .LVU331
	add	edi, DWORD PTR [rsi+rax*4]	# row, MEM[(value_type &)_1363 + ivtmp.581_51 * 4]
.LVL70:
	.loc 1 85 13 is_stmt 1 view .LVU332
	.loc 1 83 9 discriminator 1 view .LVU333
	.loc 1 83 27 discriminator 2 view .LVU334
# src/avx_analysis_code_ablations/opt10_abl_tile_8x256_ilp.cpp:85:             counts[y * w + x] = row + (y > 0 ? counts[(y - 1) * w + x] : 0);
	.loc 1 85 37 is_stmt 0 discriminator 4 view .LVU335
	mov	edx, DWORD PTR [rdx+rax*4]	# tmp1933, MEM[(value_type &)_875 + ivtmp.581_51 * 4]
	add	edx, edi	# tmp1933, row
	mov	DWORD PTR [rcx+rax*4], edx	# MEM[(value_type &)_855 + ivtmp.581_51 * 4], tmp1933
# src/avx_analysis_code_ablations/opt10_abl_tile_8x256_ilp.cpp:83:         for (int x = 0; x < w; ++x) {
	.loc 1 83 27 discriminator 2 view .LVU336
	inc	rax	# ivtmp.581
.LVL71:
	.loc 1 83 27 discriminator 2 view .LVU337
	cmp	rax, r11	# ivtmp.581, _1183
	jne	.L30	#,
.LBE2859:
.LBE2863:
# src/avx_analysis_code_ablations/opt10_abl_tile_8x256_ilp.cpp:81:     for (int y = 0; y < h; ++y) {
	.loc 1 81 5 discriminator 1 view .LVU338
	mov	edx, DWORD PTR 232[rsp]	# y, %sfp
	.loc 1 81 5 is_stmt 1 discriminator 1 view .LVU339
# src/avx_analysis_code_ablations/opt10_abl_tile_8x256_ilp.cpp:81:     for (int y = 0; y < h; ++y) {
	.loc 1 81 23 is_stmt 0 discriminator 2 view .LVU340
	add	rsi, r9	# ivtmp.594, _699
	add	rcx, r8	# ivtmp.597, _1083
# src/avx_analysis_code_ablations/opt10_abl_tile_8x256_ilp.cpp:81:     for (int y = 0; y < h; ++y) {
	.loc 1 81 5 discriminator 1 view .LVU341
	inc	edx	# y
.LVL72:
	.loc 1 81 23 is_stmt 1 discriminator 2 view .LVU342
	cmp	r13d, edx	# _2, y
	jg	.L31	#,
.LVL73:
.L27:
	.loc 1 81 23 is_stmt 0 discriminator 2 view .LVU343
.LBE2853:
	.loc 1 91 5 is_stmt 1 view .LVU344
	.loc 1 92 5 view .LVU345
	.loc 1 95 5 view .LVU346
.LBB2864:
.LBI2864:
	.loc 5 168 7 view .LVU347
.LBB2865:
.LBI2865:
	.loc 6 88 7 view .LVU348
	.loc 6 88 7 is_stmt 0 view .LVU349
.LBE2865:
.LBE2864:
.LBB2866:
.LBI2866:
	.loc 2 576 7 is_stmt 1 view .LVU350
.LBB2867:
.LBI2867:
	.loc 2 2203 7 view .LVU351
.LBB2868:
.LBI2868:
	.loc 5 172 7 view .LVU352
.LBB2869:
.LBI2869:
	.loc 6 92 7 view .LVU353
	.loc 6 92 7 is_stmt 0 view .LVU354
.LBE2869:
.LBE2868:
.LBB2870:
.LBI2870:
	.loc 5 189 7 is_stmt 1 view .LVU355
.LBB2871:
.LBI2871:
	.loc 6 104 7 view .LVU356
	.loc 6 104 7 is_stmt 0 view .LVU357
.LBE2871:
.LBE2870:
.LBE2867:
.LBB2872:
.LBI2872:
	.loc 2 339 7 is_stmt 1 view .LVU358
.LBB2873:
.LBI2873:
	.loc 2 152 2 view .LVU359
.LBB2874:
.LBI2874:
	.loc 5 172 7 view .LVU360
.LBB2875:
.LBI2875:
	.loc 6 92 7 view .LVU361
	.loc 6 92 7 is_stmt 0 view .LVU362
.LBE2875:
.LBE2874:
.LBB2876:
.LBI2876:
	.loc 2 105 2 is_stmt 1 view .LVU363
	.loc 2 105 2 is_stmt 0 view .LVU364
.LBE2876:
.LBE2873:
.LBB2877:
.LBI2877:
	.loc 2 405 7 is_stmt 1 view .LVU365
.LBB2878:
.LBI2878:
	.loc 2 386 7 view .LVU366
.LBB2879:
.LBB2880:
.LBI2880:
	.loc 8 637 7 view .LVU367
.LBB2881:
.LBI2881:
	.loc 6 129 7 view .LVU368
.LBB2882:
# /usr/include/c++/16/bits/new_allocator.h:162: 	  return static_cast<_Tp*>(_GLIBCXX_OPERATOR_NEW(__n * sizeof(_Tp)));
	.loc 6 162 68 is_stmt 0 view .LVU369
	mov	edi, 24576	#,
.LEHB3:
	call	"_Znwm"@PLT	#
.LVL74:
.LEHE3:
	.loc 6 162 68 view .LVU370
.LBE2882:
.LBE2881:
.LBE2880:
.LBE2879:
.LBE2878:
.LBE2877:
.LBE2872:
.LBB2883:
.LBI2883:
	.loc 2 1998 7 is_stmt 1 view .LVU371
.LBB2884:
.LBI2884:
	.loc 12 1051 5 view .LVU372
.LBB2885:
.LBI2885:
	.loc 12 982 5 view .LVU373
.LBB2886:
.LBB2887:
.LBI2887:
	.loc 12 939 9 view .LVU374
.LBB2888:
.LBI2888:
	.loc 12 939 9 view .LVU375
.LBB2889:
.LBB2890:
.LBI2890:
	.loc 11 123 5 view .LVU376
.LBB2891:
# /usr/include/c++/16/bits/stl_construct.h:133:       ::new(static_cast<void*>(__p)) _Tp(std::forward<_Args>(__args)...);
	.loc 11 133 7 is_stmt 0 discriminator 1 view .LVU377
	mov	DWORD PTR [rax], 0x00000000	# *_700,
.LVL75:
	.loc 11 133 7 discriminator 1 view .LVU378
.LBE2891:
.LBE2890:
.LBB2892:
.LBI2892:
	.loc 10 1179 5 is_stmt 1 view .LVU379
.LBB2893:
.LBI2893:
	.loc 10 1141 5 view .LVU380
.LBB2894:
.LBB2895:
.LBI2895:
	.loc 10 976 5 view .LVU381
.LBB2896:
.LBI2896:
	.loc 10 895 5 view .LVU382
.LBB2897:
	.loc 10 922 22 discriminator 2 view .LVU383
# /usr/include/c++/16/bits/stl_algobase.h:923: 	*__first = __val;
	.loc 10 923 11 is_stmt 0 view .LVU384
	xor	esi, esi	#
.LBE2897:
.LBE2896:
.LBE2895:
.LBE2894:
.LBE2893:
.LBE2892:
# /usr/include/c++/16/bits/stl_uninitialized.h:946: 	      ++__first;
	.loc 12 946 8 view .LVU385
	lea	rdi, 4[rax]	# __first_701,
.LVL76:
.LBB2908:
.LBB2906:
.LBB2904:
.LBB2902:
.LBB2900:
.LBB2898:
# /usr/include/c++/16/bits/stl_algobase.h:923: 	*__first = __val;
	.loc 10 923 11 view .LVU386
	mov	edx, 24572	#,
.LBE2898:
.LBE2900:
.LBE2902:
.LBE2904:
.LBE2906:
.LBE2908:
# /usr/include/c++/16/bits/stl_uninitialized.h:946: 	      ++__first;
	.loc 12 946 8 view .LVU387
	mov	QWORD PTR 40[rsp], rax	# %sfp, _700
.LBB2909:
.LBB2907:
.LBB2905:
.LBB2903:
.LBB2901:
.LBB2899:
# /usr/include/c++/16/bits/stl_algobase.h:923: 	*__first = __val;
	.loc 10 923 11 view .LVU388
	call	"memset"@PLT	#
.LVL77:
	.loc 10 923 11 view .LVU389
.LBE2899:
.LBE2901:
.LBE2903:
.LBE2905:
.LBE2907:
.LBE2909:
.LBE2889:
.LBE2888:
.LBE2887:
.LBE2886:
.LBE2885:
.LBE2884:
.LBE2883:
.LBE2866:
.LBB2910:
	.loc 1 97 25 is_stmt 1 discriminator 2 view .LVU390
	test	r13d, r13d	# _2
	jle	.L32	#,
	mov	edi, DWORD PTR 76[rsp]	#, %sfp
	test	edi, edi	#
	jle	.L32	#,
.LBB2911:
.LBB2912:
.LBB2913:
.LBB2914:
.LBB2915:
.LBB2916:
.LBB2917:
# src/avx_analysis_code_ablations/opt10_abl_tile_8x256_ilp.cpp:125:                     size_t ind_lbot = ind_ltop + width * 3;
	.loc 1 125 56 is_stmt 0 view .LVU391
	mov	rdi, QWORD PTR 144[rsp]	# _390, %sfp
.LBE2917:
.LBE2916:
.LBE2915:
.LBE2914:
.LBB3208:
.LBB3209:
.LBB3210:
.LBB3211:
# src/avx_analysis_code_ablations/opt10_abl_tile_8x256_ilp.cpp:227:                     float inv_c = 1.0f / static_cast<float>(c);
	.loc 1 227 27 view .LVU392
	vmovss	xmm23, DWORD PTR .LC1[rip]	# tmp1677,
	mov	QWORD PTR 32[rsp], r14	# %sfp, _4
	vxorps	xmm5, xmm5, xmm5	# tmp1698
	mov	r8, QWORD PTR 40[rsp]	# _700, %sfp
	mov	QWORD PTR 24[rsp], rbx	# %sfp, _26
.LBE3211:
.LBE3210:
.LBE3209:
.LBE3208:
.LBB3234:
.LBB3204:
.LBB3161:
.LBB3151:
# src/avx_analysis_code_ablations/opt10_abl_tile_8x256_ilp.cpp:125:                     size_t ind_lbot = ind_ltop + width * 3;
	.loc 1 125 56 view .LVU393
	xor	edx, edx	# ivtmp.579
.LBE3151:
.LBE3161:
.LBE3204:
.LBE3234:
.LBB3235:
.LBB3230:
.LBB3225:
.LBB3218:
# src/avx_analysis_code_ablations/opt10_abl_tile_8x256_ilp.cpp:227:                     float inv_c = 1.0f / static_cast<float>(c);
	.loc 1 227 27 view .LVU394
	xor	ebx, ebx	# _71
.LBE3218:
.LBE3225:
.LBE3230:
.LBE3235:
.LBB3236:
.LBB3205:
.LBB3162:
.LBB3152:
# src/avx_analysis_code_ablations/opt10_abl_tile_8x256_ilp.cpp:125:                     size_t ind_lbot = ind_ltop + width * 3;
	.loc 1 125 56 view .LVU395
	lea	rcx, [rdi+rdi*2]	# _91,
	lea	rax, 0[0+rdi*8]	# _232,
	lea	rdi, 3[rcx]	# _1330,
	mov	QWORD PTR 184[rsp], rcx	# %sfp, _91
.LBE3152:
.LBE3162:
.LBE3205:
.LBE3236:
.LBB3237:
.LBB3231:
.LBB3226:
.LBB3219:
# src/avx_analysis_code_ablations/opt10_abl_tile_8x256_ilp.cpp:227:                     float inv_c = 1.0f / static_cast<float>(c);
	.loc 1 227 27 view .LVU396
	mov	r14, rax	# _232, _232
	mov	QWORD PTR 176[rsp], rdi	# %sfp, _1330
.LVL78:
.L52:
	.loc 1 227 27 view .LVU397
.LBE3219:
.LBE3226:
.LBE3231:
.LBE3237:
.LBE2913:
.LBE2912:
	.loc 1 98 9 is_stmt 1 view .LVU398
	mov	r15d, ebx	# ty, _71
# src/avx_analysis_code_ablations/opt10_abl_tile_8x256_ilp.cpp:98:         const int tile_y_end = std::min(ty + TILE_H, h);
	.loc 1 98 44 is_stmt 0 view .LVU399
	add	ebx, 8	# _71,
.LVL79:
.LBB3271:
.LBI3271:
	.loc 10 232 5 is_stmt 1 view .LVU400
	.loc 10 232 5 is_stmt 0 view .LVU401
.LBE3271:
	.loc 1 99 9 is_stmt 1 view .LVU402
	.loc 1 101 9 view .LVU403
.LBB3276:
	.loc 1 101 29 discriminator 2 view .LVU404
.LBE3276:
.LBB3277:
.LBB3272:
# /usr/include/c++/16/bits/stl_algobase.h:237:       if (__b < __a)
	.loc 10 237 7 is_stmt 0 view .LVU405
	mov	eax, r13d	# _521, _2
.LBE3272:
.LBE3277:
# src/avx_analysis_code_ablations/opt10_abl_tile_8x256_ilp.cpp:99:         const int tile_h_actual = tile_y_end - ty;
	.loc 1 99 19 view .LVU406
	mov	QWORD PTR 136[rsp], 0	# %sfp,
.LBB3278:
.LBB3273:
# /usr/include/c++/16/bits/stl_algobase.h:237:       if (__b < __a)
	.loc 10 237 7 view .LVU407
	cmp	ebx, r13d	# _71, _2
.LBE3273:
.LBE3278:
# src/avx_analysis_code_ablations/opt10_abl_tile_8x256_ilp.cpp:99:         const int tile_h_actual = tile_y_end - ty;
	.loc 1 99 19 view .LVU408
	mov	DWORD PTR 20[rsp], r13d	# %sfp, _2
.LBB3279:
.LBB3274:
# /usr/include/c++/16/bits/stl_algobase.h:237:       if (__b < __a)
	.loc 10 237 7 view .LVU409
	cmovle	eax, ebx	# _71,, _521
.LBE3274:
.LBE3279:
# src/avx_analysis_code_ablations/opt10_abl_tile_8x256_ilp.cpp:99:         const int tile_h_actual = tile_y_end - ty;
	.loc 1 99 19 view .LVU410
	mov	DWORD PTR 16[rsp], ebx	# %sfp, _71
	mov	QWORD PTR 48[rsp], rdx	# %sfp, ivtmp.579
.LBB3280:
.LBB3275:
# /usr/include/c++/16/bits/stl_algobase.h:237:       if (__b < __a)
	.loc 10 237 7 view .LVU411
	mov	DWORD PTR 168[rsp], eax	# %sfp, _521
.LBE3275:
.LBE3280:
# src/avx_analysis_code_ablations/opt10_abl_tile_8x256_ilp.cpp:99:         const int tile_h_actual = tile_y_end - ty;
	.loc 1 99 19 view .LVU412
	sub	eax, r15d	# tile_h_actual, ty
	mov	DWORD PTR 72[rsp], eax	# %sfp, tile_h_actual
	mov	QWORD PTR 8[rsp], r14	# %sfp, _232
	mov	QWORD PTR [rsp], r12	# %sfp, _519
.LVL80:
.L51:
.LBB3281:
.LBB3268:
# src/avx_analysis_code_ablations/opt10_abl_tile_8x256_ilp.cpp:102:             const int tile_x_end = std::min(tx + TILE_W, w);
	.loc 1 102 48 view .LVU413
	mov	eax, DWORD PTR 136[rsp]	# tmp1945, %sfp
.LBB3238:
.LBB3239:
# /usr/include/c++/16/bits/stl_algobase.h:237:       if (__b < __a)
	.loc 10 237 7 view .LVU414
	mov	ecx, DWORD PTR 76[rsp]	# _1, %sfp
	mov	ebx, DWORD PTR 136[rsp]	# tx, %sfp
.LVL81:
	.loc 10 237 7 view .LVU415
.LBE3239:
.LBE3238:
	.loc 1 102 13 is_stmt 1 view .LVU416
.LBB3242:
.LBI3238:
	.loc 10 232 5 view .LVU417
.LBE3242:
# src/avx_analysis_code_ablations/opt10_abl_tile_8x256_ilp.cpp:102:             const int tile_x_end = std::min(tx + TILE_W, w);
	.loc 1 102 48 is_stmt 0 view .LVU418
	add	eax, 256	# _374,
.LVL82:
.LBB3243:
.LBB3240:
# /usr/include/c++/16/bits/stl_algobase.h:237:       if (__b < __a)
	.loc 10 237 7 view .LVU419
	cmp	eax, ecx	# _374, _1
	cmovg	eax, ecx	# _374,, _374, _1
.LBE3240:
.LBE3243:
# src/avx_analysis_code_ablations/opt10_abl_tile_8x256_ilp.cpp:103:             const int tile_w_actual = tile_x_end - tx;
	.loc 1 103 23 view .LVU420
	mov	r13d, eax	# tile_w_actual, _75
.LBB3244:
.LBB3241:
# /usr/include/c++/16/bits/stl_algobase.h:237:       if (__b < __a)
	.loc 10 237 7 view .LVU421
	mov	r12d, eax	# _75, _374
.LVL83:
	.loc 10 237 7 view .LVU422
.LBE3241:
.LBE3244:
	.loc 1 103 13 is_stmt 1 view .LVU423
# src/avx_analysis_code_ablations/opt10_abl_tile_8x256_ilp.cpp:107:                       tile_vals.begin() + tile_h_actual * tile_w_actual * 3,
	.loc 1 107 57 is_stmt 0 view .LVU424
	mov	eax, DWORD PTR 72[rsp]	# _73, %sfp
# src/avx_analysis_code_ablations/opt10_abl_tile_8x256_ilp.cpp:103:             const int tile_w_actual = tile_x_end - tx;
	.loc 1 103 23 view .LVU425
	sub	r13d, DWORD PTR 136[rsp]	#, %sfp
.LVL84:
	.loc 1 106 13 is_stmt 1 view .LVU426
.LBB3245:
.LBI3245:
	.loc 2 988 7 view .LVU427
.LBB3246:
.LBI3246:
	.loc 3 1058 7 view .LVU428
	.loc 3 1058 7 is_stmt 0 view .LVU429
.LBE3246:
.LBE3245:
.LBB3247:
.LBI3247:
	.loc 3 1147 7 is_stmt 1 view .LVU430
.LBB3248:
.LBB3249:
.LBI3249:
	.loc 3 1058 7 view .LVU431
	.loc 3 1058 7 is_stmt 0 view .LVU432
.LBE3249:
.LBE3248:
.LBE3247:
.LBB3251:
.LBI3251:
	.loc 2 988 7 is_stmt 1 view .LVU433
.LBB3252:
.LBI3252:
	.loc 3 1058 7 view .LVU434
	.loc 3 1058 7 is_stmt 0 view .LVU435
.LBE3252:
.LBE3251:
.LBB3253:
.LBI3253:
	.loc 10 1001 5 is_stmt 1 view .LVU436
.LBB3254:
.LBI3254:
	.loc 10 976 5 view .LVU437
.LBB3255:
.LBI3255:
	.loc 10 956 5 view .LVU438
.LBB3256:
.LBI3256:
	.loc 10 895 5 view .LVU439
.LBB3257:
	.loc 10 922 22 discriminator 2 view .LVU440
.LBE3257:
.LBE3256:
.LBE3255:
.LBE3254:
.LBE3253:
# src/avx_analysis_code_ablations/opt10_abl_tile_8x256_ilp.cpp:107:                       tile_vals.begin() + tile_h_actual * tile_w_actual * 3,
	.loc 1 107 57 is_stmt 0 view .LVU441
	imul	eax, r13d	# _73, tile_w_actual
# src/avx_analysis_code_ablations/opt10_abl_tile_8x256_ilp.cpp:107:                       tile_vals.begin() + tile_h_actual * tile_w_actual * 3,
	.loc 1 107 73 view .LVU442
	lea	edx, [rax+rax*2]	# _74,
.LBB3262:
.LBB3250:
# /usr/include/c++/16/bits/stl_iterator.h:1148:       { return __normal_iterator(_M_current + __n); }
	.loc 3 1148 47 view .LVU443
	movsxd	rdx, edx	# __n.55_296, _74
.LBE3250:
.LBE3262:
.LBB3263:
.LBB3261:
.LBB3260:
.LBB3259:
.LBB3258:
# /usr/include/c++/16/bits/stl_algobase.h:922:       for (; __first != __last; ++__first)
	.loc 10 922 22 discriminator 2 view .LVU444
	sal	rdx, 2	# _295,
	je	.L33	#,
	vmovaps	XMMWORD PTR 240[rsp], xmm5	# %sfp, tmp1698
# /usr/include/c++/16/bits/stl_algobase.h:923: 	*__first = __val;
	.loc 10 923 11 view .LVU445
	xor	esi, esi	#
	mov	rdi, r8	#, _700
	vzeroupper
.LVL85:
	call	"memset"@PLT	#
.LVL86:
	vmovaps	xmm5, XMMWORD PTR 240[rsp]	# tmp1698, %sfp
	vmovss	xmm23, DWORD PTR .LC1[rip]	# tmp1677,
	mov	r8, rax	# _700,
.L33:
.LVL87:
	.loc 10 923 11 view .LVU446
.LBE3258:
.LBE3259:
.LBE3260:
.LBE3261:
.LBE3263:
.LBB3264:
	.loc 1 111 39 is_stmt 1 discriminator 5 view .LVU447
# src/avx_analysis_code_ablations/opt10_abl_tile_8x256_ilp.cpp:111:             for (const SubParams& p : params) {
	.loc 1 111 39 is_stmt 0 discriminator 6 view .LVU448
	mov	rax, QWORD PTR 80[rsp]	# __new_finish, %sfp
	cmp	rax, QWORD PTR 128[rsp]	# __new_finish, %sfp
	je	.L34	#,
	mov	r14, rax	# ivtmp.567, __new_finish
	lea	eax, 0[r13+r13*2]	# _653,
	mov	DWORD PTR 96[rsp], r13d	# %sfp, tile_w_actual
	mov	r11d, r15d	# ty, ty
	cdqe
	mov	QWORD PTR 88[rsp], r8	# %sfp, _700
	mov	r8d, DWORD PTR 168[rsp]	# _521, %sfp
	mov	r15, r14	# ivtmp.567, ivtmp.567
	sal	rax, 2	# _661,
	mov	QWORD PTR 192[rsp], rax	# %sfp, _661
.LVL88:
	.p2align 4,,10
	.p2align 3
.L45:
.LBB3206:
	.loc 1 112 17 is_stmt 1 view .LVU449
.LBB3163:
.LBI3163:
	.loc 10 256 5 view .LVU450
.LBB3164:
# /usr/include/c++/16/bits/stl_algobase.h:261:       if (__a < __b)
	.loc 10 261 7 is_stmt 0 view .LVU451
	mov	eax, DWORD PTR 32[r15]	# tmp1733, MEM[(const int &)_160 + 32]
.LBE3164:
.LBE3163:
.LBB3168:
.LBB3169:
# /usr/include/c++/16/bits/stl_algobase.h:237:       if (__b < __a)
	.loc 10 237 7 view .LVU452
	mov	edx, DWORD PTR 28[r15]	# tmp1736, MEM[(const int &)_160 + 28]
.LBE3169:
.LBE3168:
.LBB3171:
.LBB3165:
# /usr/include/c++/16/bits/stl_algobase.h:261:       if (__a < __b)
	.loc 10 261 7 view .LVU453
	cmp	r11d, eax	# ty, tmp1733
	mov	edi, eax	# tmp1733, tmp1733
.LBE3165:
.LBE3171:
.LBB3172:
.LBB3173:
# /usr/include/c++/16/bits/stl_algobase.h:237:       if (__b < __a)
	.loc 10 237 7 view .LVU454
	mov	eax, DWORD PTR 36[r15]	# tmp1734, MEM[(const int &)_160 + 36]
.LBE3173:
.LBE3172:
.LBB3177:
.LBB3166:
# /usr/include/c++/16/bits/stl_algobase.h:261:       if (__a < __b)
	.loc 10 261 7 view .LVU455
	cmovge	edi, r11d	# ty,, tmp1733
.LBE3166:
.LBE3177:
.LBB3178:
.LBB3174:
# /usr/include/c++/16/bits/stl_algobase.h:237:       if (__b < __a)
	.loc 10 237 7 view .LVU456
	cmp	r8d, eax	# _521, tmp1734
	cmovle	eax, r8d	# _521,, tmp1734
.LBE3174:
.LBE3178:
.LBB3179:
.LBB3167:
# /usr/include/c++/16/bits/stl_algobase.h:261:       if (__a < __b)
	.loc 10 261 7 view .LVU457
	mov	DWORD PTR 240[rsp], edi	# %sfp, y
.LVL89:
	.loc 10 261 7 view .LVU458
.LBE3167:
.LBE3179:
	.loc 1 113 17 is_stmt 1 view .LVU459
.LBB3180:
.LBI3172:
	.loc 10 232 5 view .LVU460
.LBB3175:
# /usr/include/c++/16/bits/stl_algobase.h:237:       if (__b < __a)
	.loc 10 237 7 is_stmt 0 view .LVU461
	mov	DWORD PTR 208[rsp], eax	# %sfp, _522
.LVL90:
	.loc 10 237 7 view .LVU462
.LBE3175:
.LBE3180:
	.loc 1 114 17 is_stmt 1 view .LVU463
.LBB3181:
.LBI3181:
	.loc 10 256 5 view .LVU464
.LBE3181:
.LBB3183:
.LBB3176:
# /usr/include/c++/16/bits/stl_algobase.h:237:       if (__b < __a)
	.loc 10 237 7 is_stmt 0 view .LVU465
	mov	ecx, eax	# _522, tmp1734
.LBE3176:
.LBE3183:
.LBB3184:
.LBB3182:
# /usr/include/c++/16/bits/stl_algobase.h:261:       if (__a < __b)
	.loc 10 261 7 view .LVU466
	mov	eax, DWORD PTR 24[r15]	# tmp1735, MEM[(const int &)_160 + 24]
	cmp	ebx, eax	# tx, tmp1735
	cmovge	eax, ebx	# tx,, _155
.LVL91:
	.loc 10 261 7 view .LVU467
.LBE3182:
.LBE3184:
	.loc 1 115 17 is_stmt 1 view .LVU468
.LBB3185:
.LBI3168:
	.loc 10 232 5 view .LVU469
.LBB3170:
# /usr/include/c++/16/bits/stl_algobase.h:237:       if (__b < __a)
	.loc 10 237 7 is_stmt 0 view .LVU470
	cmp	r12d, edx	# _75, tmp1736
	cmovle	edx, r12d	# _75,, _530
.LVL92:
	.loc 10 237 7 view .LVU471
.LBE3170:
.LBE3185:
	.loc 1 116 17 is_stmt 1 view .LVU472
	cmp	eax, edx	# _155, _530
	jge	.L35	#,
	mov	r14d, edi	# y, y
	cmp	ecx, edi	# _522, y
	jle	.L35	#,
	.loc 1 118 17 view .LVU473
.LBB3186:
.LBB3153:
# src/avx_analysis_code_ablations/opt10_abl_tile_8x256_ilp.cpp:132:                                 + (x_begin - tx) * 3;
	.loc 1 132 44 is_stmt 0 view .LVU474
	mov	ecx, eax	# _96, _155
# src/avx_analysis_code_ablations/opt10_abl_tile_8x256_ilp.cpp:135:                     const int x_stop = (x_end - tx) * 3;
	.loc 1 135 47 view .LVU475
	sub	edx, ebx	# _101, tx
	mov	esi, edi	# _689, y
# src/avx_analysis_code_ablations/opt10_abl_tile_8x256_ilp.cpp:124:                     size_t ind_ltop = ((y + p.sy) * width + (x_begin + p.sx)) * 3;
	.loc 1 124 70 view .LVU476
	add	eax, DWORD PTR [r15]	# _88, MEM[(int *)_160]
# src/avx_analysis_code_ablations/opt10_abl_tile_8x256_ilp.cpp:132:                                 + (x_begin - tx) * 3;
	.loc 1 132 44 view .LVU477
	sub	ecx, ebx	# _96, tx
# src/avx_analysis_code_ablations/opt10_abl_tile_8x256_ilp.cpp:135:                     const int x_stop = (x_end - tx) * 3;
	.loc 1 135 31 view .LVU478
	lea	r10d, [rdx+rdx*2]	# x_stop_291,
# src/avx_analysis_code_ablations/opt10_abl_tile_8x256_ilp.cpp:124:                     size_t ind_ltop = ((y + p.sy) * width + (x_begin + p.sx)) * 3;
	.loc 1 124 70 view .LVU479
	cdqe
.LBE3153:
.LBE3186:
# src/avx_analysis_code_ablations/opt10_abl_tile_8x256_ilp.cpp:118:                 const __m256 Avx = _mm256_set1_ps(p.A);
	.loc 1 118 53 view .LVU480
	vmovss	xmm18, DWORD PTR 8[r15]	# _79, MEM[(float *)_160 + 8B]
.LBB3187:
.LBB3154:
# src/avx_analysis_code_ablations/opt10_abl_tile_8x256_ilp.cpp:132:                                 + (x_begin - tx) * 3;
	.loc 1 132 50 view .LVU481
	lea	r9d, [rcx+rcx*2]	# _97,
	movsxd	rcx, ecx	# _587, _96
.LBE3154:
.LBE3187:
# src/avx_analysis_code_ablations/opt10_abl_tile_8x256_ilp.cpp:119:                 const __m256 Bvx = _mm256_set1_ps(p.B);
	.loc 1 119 53 view .LVU482
	vmovss	xmm17, DWORD PTR 12[r15]	# _80, MEM[(float *)_160 + 12B]
# src/avx_analysis_code_ablations/opt10_abl_tile_8x256_ilp.cpp:120:                 const __m256 Cvx = _mm256_set1_ps(p.C);
	.loc 1 120 53 view .LVU483
	vmovss	xmm16, DWORD PTR 16[r15]	# _81, MEM[(float *)_160 + 16B]
.LBB3188:
.LBB3155:
.LBB2918:
# src/avx_analysis_code_ablations/opt10_abl_tile_8x256_ilp.cpp:139:                     for (; x + 16 <= x_stop; x += 16) {
	.loc 1 139 35 discriminator 2 view .LVU484
	lea	edx, 15[r9]	# _244,
.LBE2918:
.LBE3155:
.LBE3188:
# src/avx_analysis_code_ablations/opt10_abl_tile_8x256_ilp.cpp:121:                 const __m256 Dvx = _mm256_set1_ps(p.D);
	.loc 1 121 53 view .LVU485
	vmovss	xmm15, DWORD PTR 20[r15]	# _82, MEM[(float *)_160 + 20B]
.LBB3189:
.LBB3156:
# src/avx_analysis_code_ablations/opt10_abl_tile_8x256_ilp.cpp:132:                                 + (x_begin - tx) * 3;
	.loc 1 132 50 view .LVU486
	mov	DWORD PTR 116[rsp], r9d	# %sfp, _97
.LBE3156:
.LBE3189:
# src/avx_analysis_code_ablations/opt10_abl_tile_8x256_ilp.cpp:118:                 const __m256 Avx = _mm256_set1_ps(p.A);
	.loc 1 118 53 view .LVU487
	vbroadcastss	ymm11, xmm18	# tmp1729, _79
.LVL93:
.LBB3190:
.LBI3190:
	.file 13 "/usr/lib/gcc/x86_64-linux-gnu/16/include/avxintrin.h"
	.loc 13 1271 1 is_stmt 1 view .LVU488
.LBB3191:
	.loc 13 1273 3 view .LVU489
.LBE3191:
.LBE3190:
.LBB3193:
.LBB3157:
.LBB3061:
# src/avx_analysis_code_ablations/opt10_abl_tile_8x256_ilp.cpp:139:                     for (; x + 16 <= x_stop; x += 16) {
	.loc 1 139 35 is_stmt 0 discriminator 2 view .LVU490
	mov	DWORD PTR 200[rsp], edx	# %sfp, _244
	movsxd	rdx, DWORD PTR 4[r15]	# _692, MEM[(int *)_160 + 4B]
.LBE3061:
.LBE3157:
.LBE3193:
# src/avx_analysis_code_ablations/opt10_abl_tile_8x256_ilp.cpp:119:                 const __m256 Bvx = _mm256_set1_ps(p.B);
	.loc 1 119 53 view .LVU491
	vbroadcastss	ymm12, xmm17	# tmp1730, _80
# src/avx_analysis_code_ablations/opt10_abl_tile_8x256_ilp.cpp:120:                 const __m256 Cvx = _mm256_set1_ps(p.C);
	.loc 1 120 53 view .LVU492
	vbroadcastss	ymm13, xmm16	# tmp1731, _81
.LBB3194:
.LBB3158:
# src/avx_analysis_code_ablations/opt10_abl_tile_8x256_ilp.cpp:135:                     const int x_stop = (x_end - tx) * 3;
	.loc 1 135 31 view .LVU493
	mov	DWORD PTR 232[rsp], r10d	# %sfp, x_stop_291
.LBE3158:
.LBE3194:
# src/avx_analysis_code_ablations/opt10_abl_tile_8x256_ilp.cpp:121:                 const __m256 Dvx = _mm256_set1_ps(p.D);
	.loc 1 121 53 view .LVU494
	vbroadcastss	ymm10, xmm15	# tmp1732, _82
.LBB3195:
.LBB3192:
# /usr/lib/gcc/x86_64-linux-gnu/16/include/avxintrin.h:1274: 				 __A, __A, __A, __A };
	.loc 13 1274 25 view .LVU495
	vmovaps	ymm3, ymm11	# _337, tmp1729
.LVL94:
	.loc 13 1274 25 view .LVU496
.LBE3192:
.LBE3195:
	.loc 1 119 17 is_stmt 1 view .LVU497
.LBB3196:
.LBI3196:
	.loc 13 1271 1 view .LVU498
.LBB3197:
	.loc 13 1273 3 view .LVU499
# /usr/lib/gcc/x86_64-linux-gnu/16/include/avxintrin.h:1274: 				 __A, __A, __A, __A };
	.loc 13 1274 25 is_stmt 0 view .LVU500
	vmovaps	ymm2, ymm12	# _338, tmp1730
.LVL95:
	.loc 13 1274 25 view .LVU501
.LBE3197:
.LBE3196:
	.loc 1 120 17 is_stmt 1 view .LVU502
.LBB3198:
.LBI3198:
	.loc 13 1271 1 view .LVU503
.LBB3199:
	.loc 13 1273 3 view .LVU504
	add	rdx, rsi	# _687, _689
	mov	DWORD PTR 112[rsp], r12d	# %sfp, _75
# /usr/lib/gcc/x86_64-linux-gnu/16/include/avxintrin.h:1274: 				 __A, __A, __A, __A };
	.loc 13 1274 25 is_stmt 0 view .LVU505
	vmovaps	ymm1, ymm13	# _292, tmp1731
.LVL96:
	.loc 13 1274 25 view .LVU506
.LBE3199:
.LBE3198:
	.loc 1 121 17 is_stmt 1 view .LVU507
.LBB3200:
.LBI3200:
	.loc 13 1271 1 view .LVU508
.LBB3201:
	.loc 13 1273 3 view .LVU509
# /usr/lib/gcc/x86_64-linux-gnu/16/include/avxintrin.h:1274: 				 __A, __A, __A, __A };
	.loc 13 1274 25 is_stmt 0 view .LVU510
	vmovaps	ymm0, ymm10	# _293, tmp1732
.LVL97:
	.loc 13 1274 25 view .LVU511
.LBE3201:
.LBE3200:
	.loc 1 123 17 is_stmt 1 view .LVU512
.LBB3202:
	.loc 1 123 41 discriminator 2 view .LVU513
	imul	rdx, QWORD PTR 144[rsp]	# _1167, %sfp
	mov	QWORD PTR 224[rsp], r15	# %sfp, ivtmp.567
	mov	DWORD PTR 108[rsp], r8d	# %sfp, _521
	mov	DWORD PTR 104[rsp], ebx	# %sfp, tx
	add	rdx, rax	# _672, _89
	mov	eax, r14d	# _604, y
	mov	DWORD PTR 100[rsp], r11d	# %sfp, ty
	sub	eax, r11d	# _604, ty
	lea	rdi, [rdx+rdx*2]	# ivtmp.556,
.LVL98:
	.loc 1 123 41 is_stmt 0 discriminator 2 view .LVU514
	imul	eax, DWORD PTR 96[rsp]	# _586, %sfp
	cdqe
	add	rax, rcx	# _583, _587
	mov	rcx, QWORD PTR 88[rsp]	# _700, %sfp
	lea	rax, [rax+rax*2]	# _579,
	lea	rax, [rcx+rax*4]	# ivtmp.560,
	mov	QWORD PTR 216[rsp], rax	# %sfp, ivtmp.560
	lea	eax, -16[r10]	# _201,
	sub	eax, r9d	# _1191, _97
	mov	edx, eax	# _1225, _1191
	shr	eax, 4	# _1172,
	and	edx, -16	# _1225,
	inc	rax	# _1336
	lea	ecx, 16[r9+rdx]	# x,
	mov	DWORD PTR 172[rsp], ecx	# %sfp, x
	mov	rcx, rax	# _764, _1336
	sal	rax, 4	# _1336,
	sal	rcx, 6	# _764,
	mov	QWORD PTR 152[rsp], rax	# %sfp, _1336
	mov	QWORD PTR 160[rsp], rcx	# %sfp, _764
.LVL99:
	.p2align 4,,10
	.p2align 3
.L44:
.LBB3159:
	.loc 1 124 21 is_stmt 1 view .LVU515
	.loc 1 125 21 view .LVU516
# src/avx_analysis_code_ablations/opt10_abl_tile_8x256_ilp.cpp:127:                     size_t ind_rbot = ind_lbot + 3;
	.loc 1 127 28 is_stmt 0 view .LVU517
	mov	rax, QWORD PTR 176[rsp]	# _1330, %sfp
# src/avx_analysis_code_ablations/opt10_abl_tile_8x256_ilp.cpp:132:                                 + (x_begin - tx) * 3;
	.loc 1 132 52 view .LVU518
	mov	rbx, QWORD PTR 216[rsp]	# ivtmp.560, %sfp
	mov	rdx, rdi	# ivtmp.556, ivtmp.556
.LBB3062:
# src/avx_analysis_code_ablations/opt10_abl_tile_8x256_ilp.cpp:139:                     for (; x + 16 <= x_stop; x += 16) {
	.loc 1 139 35 discriminator 2 view .LVU519
	mov	r15d, DWORD PTR 232[rsp]	# x_stop_291, %sfp
.LBE3062:
# src/avx_analysis_code_ablations/opt10_abl_tile_8x256_ilp.cpp:125:                     size_t ind_lbot = ind_ltop + width * 3;
	.loc 1 125 28 view .LVU520
	add	rdi, QWORD PTR 184[rsp]	# ivtmp.556, %sfp
.LVL100:
	.loc 1 126 21 is_stmt 1 view .LVU521
# src/avx_analysis_code_ablations/opt10_abl_tile_8x256_ilp.cpp:126:                     size_t ind_rtop = ind_ltop + 3;
	.loc 1 126 28 is_stmt 0 view .LVU522
	lea	rcx, 3[rdx]	# ind_rtop,
.LVL101:
	.loc 1 127 21 is_stmt 1 view .LVU523
# src/avx_analysis_code_ablations/opt10_abl_tile_8x256_ilp.cpp:127:                     size_t ind_rbot = ind_lbot + 3;
	.loc 1 127 28 is_stmt 0 view .LVU524
	lea	r12, [rax+rdx]	# ind_rbot,
.LVL102:
	.loc 1 130 21 is_stmt 1 view .LVU525
# src/avx_analysis_code_ablations/opt10_abl_tile_8x256_ilp.cpp:132:                                 + (x_begin - tx) * 3;
	.loc 1 132 52 is_stmt 0 view .LVU526
	mov	rax, rbx	# vp, ivtmp.560
	.loc 1 134 21 is_stmt 1 view .LVU527
	.loc 1 135 21 view .LVU528
.LVL103:
	.loc 1 139 21 view .LVU529
.LBB3063:
	.loc 1 139 35 discriminator 2 view .LVU530
	cmp	DWORD PTR 200[rsp], r15d	# %sfp, x_stop_291
	jge	.L70	#,
	mov	r15, QWORD PTR 224[rsp]	# ivtmp.567, %sfp
	mov	rsi, QWORD PTR 40[r15]	# ivtmp.550, MEM[(const unsigned char * *)_160 + 40B]
	mov	r15, QWORD PTR 160[rsp]	# _764, %sfp
	add	rsi, rdi	# ivtmp.550, ivtmp.556
	lea	r9, [rbx+r15]	# vp,
.LVL104:
	.p2align 4,,10
	.p2align 3
.L37:
.LBB2919:
	.loc 1 140 25 view .LVU531
.LBB2920:
.LBI2920:
	.file 14 "/usr/lib/gcc/x86_64-linux-gnu/16/include/emmintrin.h"
	.loc 14 711 1 view .LVU532
.LBB2921:
	.loc 14 713 3 view .LVU533
	mov	r8, rsi	# _70, ivtmp.550
.LBE2921:
.LBE2920:
.LBB2927:
.LBB2928:
# /usr/lib/gcc/x86_64-linux-gnu/16/include/avx2intrin.h:491:   return (__m256i) __builtin_ia32_pmovzxbd256 ((__v16qi)__X);
	.file 15 "/usr/lib/gcc/x86_64-linux-gnu/16/include/avx2intrin.h"
	.loc 15 491 47 is_stmt 0 view .LVU534
	vpmovzxbd	ymm8, QWORD PTR [rsi]	# tmp1056, MEM[(__m64_u * {ref-all})_722]
.LBE2928:
.LBE2927:
.LBB2930:
.LBB2931:
	vpmovzxbd	ymm7, QWORD PTR 8[rsi]	# tmp1076, MEM[(__m64_u * {ref-all})_722 + 8B]
.LBE2931:
.LBE2930:
# src/avx_analysis_code_ablations/opt10_abl_tile_8x256_ilp.cpp:178:                         vp += 16;
	.loc 1 178 28 view .LVU535
	add	rax, 64	# vp,
.LVL105:
	.loc 1 178 28 view .LVU536
	sub	r8, rdi	# _70, ivtmp.556
.LVL106:
.LBB2933:
.LBB2926:
.LBB2922:
.LBI2922:
	.loc 14 600 1 is_stmt 1 view .LVU537
.LBB2923:
	.loc 14 602 3 view .LVU538
.LBB2924:
.LBI2924:
	.loc 14 594 1 view .LVU539
.LBB2925:
	.loc 14 596 3 view .LVU540
	.loc 14 596 3 is_stmt 0 view .LVU541
.LBE2925:
.LBE2924:
.LBE2923:
.LBE2922:
.LBE2926:
.LBE2933:
	.loc 1 141 25 is_stmt 1 view .LVU542
.LBB2934:
.LBI2934:
	.loc 14 711 1 view .LVU543
.LBB2935:
	.loc 14 713 3 view .LVU544
.LBB2936:
.LBI2936:
	.loc 14 600 1 view .LVU545
.LBB2937:
	.loc 14 602 3 view .LVU546
.LBB2938:
.LBI2938:
	.loc 14 594 1 view .LVU547
.LBB2939:
	.loc 14 596 3 view .LVU548
	.loc 14 596 3 is_stmt 0 view .LVU549
.LBE2939:
.LBE2938:
.LBE2937:
.LBE2936:
.LBE2935:
.LBE2934:
	.loc 1 142 25 is_stmt 1 view .LVU550
.LBB2940:
.LBI2940:
	.loc 14 711 1 view .LVU551
.LBB2941:
	.loc 14 713 3 view .LVU552
.LBB2942:
.LBI2942:
	.loc 14 600 1 view .LVU553
.LBB2943:
	.loc 14 602 3 view .LVU554
.LBB2944:
.LBI2944:
	.loc 14 594 1 view .LVU555
.LBB2945:
	.loc 14 596 3 view .LVU556
	.loc 14 596 3 is_stmt 0 view .LVU557
.LBE2945:
.LBE2944:
.LBE2943:
.LBE2942:
.LBE2941:
.LBE2940:
	.loc 1 143 25 is_stmt 1 view .LVU558
.LBB2946:
.LBI2946:
	.loc 14 711 1 view .LVU559
.LBB2947:
	.loc 14 713 3 view .LVU560
.LBB2948:
.LBI2948:
	.loc 14 600 1 view .LVU561
.LBB2949:
	.loc 14 602 3 view .LVU562
.LBB2950:
.LBI2950:
	.loc 14 594 1 view .LVU563
.LBB2951:
	.loc 14 596 3 view .LVU564
	.loc 14 596 3 is_stmt 0 view .LVU565
.LBE2951:
.LBE2950:
.LBE2949:
.LBE2948:
.LBE2947:
.LBE2946:
	.loc 1 145 25 is_stmt 1 view .LVU566
.LBB2952:
.LBI2952:
	.loc 14 711 1 view .LVU567
.LBB2953:
	.loc 14 713 3 view .LVU568
.LBB2954:
.LBI2954:
	.loc 14 600 1 view .LVU569
.LBB2955:
	.loc 14 602 3 view .LVU570
.LBB2956:
.LBI2956:
	.loc 14 594 1 view .LVU571
.LBB2957:
	.loc 14 596 3 view .LVU572
	.loc 14 596 3 is_stmt 0 view .LVU573
.LBE2957:
.LBE2956:
.LBE2955:
.LBE2954:
.LBE2953:
.LBE2952:
	.loc 1 146 25 is_stmt 1 view .LVU574
.LBB2958:
.LBI2958:
	.loc 14 711 1 view .LVU575
.LBB2959:
	.loc 14 713 3 view .LVU576
.LBB2960:
.LBI2960:
	.loc 14 600 1 view .LVU577
.LBB2961:
	.loc 14 602 3 view .LVU578
.LBB2962:
.LBI2962:
	.loc 14 594 1 view .LVU579
.LBB2963:
	.loc 14 596 3 view .LVU580
	.loc 14 596 3 is_stmt 0 view .LVU581
.LBE2963:
.LBE2962:
.LBE2961:
.LBE2960:
.LBE2959:
.LBE2958:
	.loc 1 147 25 is_stmt 1 view .LVU582
.LBB2964:
.LBI2964:
	.loc 14 711 1 view .LVU583
.LBB2965:
	.loc 14 713 3 view .LVU584
.LBB2966:
.LBI2966:
	.loc 14 600 1 view .LVU585
.LBB2967:
	.loc 14 602 3 view .LVU586
.LBB2968:
.LBI2968:
	.loc 14 594 1 view .LVU587
.LBB2969:
	.loc 14 596 3 view .LVU588
	.loc 14 596 3 is_stmt 0 view .LVU589
.LBE2969:
.LBE2968:
.LBE2967:
.LBE2966:
.LBE2965:
.LBE2964:
	.loc 1 148 25 is_stmt 1 view .LVU590
.LBB2970:
.LBI2970:
	.loc 14 711 1 view .LVU591
.LBB2971:
	.loc 14 713 3 view .LVU592
.LBB2972:
.LBI2972:
	.loc 14 600 1 view .LVU593
.LBB2973:
	.loc 14 602 3 view .LVU594
.LBB2974:
.LBI2974:
	.loc 14 594 1 view .LVU595
.LBB2975:
	.loc 14 596 3 view .LVU596
	.loc 14 596 3 is_stmt 0 view .LVU597
.LBE2975:
.LBE2974:
.LBE2973:
.LBE2972:
.LBE2971:
.LBE2970:
	.loc 1 150 25 is_stmt 1 view .LVU598
.LBB2976:
.LBI2976:
	.loc 15 489 1 view .LVU599
.LBB2977:
	.loc 15 491 3 view .LVU600
.LBE2977:
.LBE2976:
.LBB2979:
.LBB2980:
# /usr/lib/gcc/x86_64-linux-gnu/16/include/avx2intrin.h:491:   return (__m256i) __builtin_ia32_pmovzxbd256 ((__v16qi)__X);
	.loc 15 491 47 is_stmt 0 view .LVU601
	vpmovzxbd	ymm6, QWORD PTR 3[rsi]	# tmp1066, MEM[(__m64_u * {ref-all})_722 + 3B]
.LBE2980:
.LBE2979:
.LBB2982:
.LBB2983:
	vpmovzxbd	ymm4, QWORD PTR 11[rsi]	# tmp1086, MEM[(__m64_u * {ref-all})_722 + 11B]
.LBE2983:
.LBE2982:
.LBE2919:
# src/avx_analysis_code_ablations/opt10_abl_tile_8x256_ilp.cpp:139:                     for (; x + 16 <= x_stop; x += 16) {
	.loc 1 139 35 discriminator 2 view .LVU602
	add	rsi, 16	# ivtmp.550,
.LVL107:
.LBB3060:
.LBB2985:
.LBB2978:
# /usr/lib/gcc/x86_64-linux-gnu/16/include/avx2intrin.h:491:   return (__m256i) __builtin_ia32_pmovzxbd256 ((__v16qi)__X);
	.loc 15 491 47 view .LVU603
	vpmovzxbd	ymm20, QWORD PTR [r8+rdx]	# tmp1051, MEM[(__m64_u * {ref-all})_70 + ivtmp.556_1187 * 1]
.LVL108:
	.loc 15 491 47 view .LVU604
.LBE2978:
.LBE2985:
.LBB2986:
.LBI2986:
	.loc 13 405 1 is_stmt 1 view .LVU605
.LBB2987:
	.loc 13 407 3 view .LVU606
.LBE2987:
.LBE2986:
.LBB2989:
.LBB2990:
# /usr/lib/gcc/x86_64-linux-gnu/16/include/avx2intrin.h:491:   return (__m256i) __builtin_ia32_pmovzxbd256 ((__v16qi)__X);
	.loc 15 491 47 is_stmt 0 view .LVU607
	vpmovzxbd	ymm19, QWORD PTR 8[r8+rdx]	# tmp1071, MEM[(__m64_u * {ref-all})_70 + 8B + ivtmp.556_1187 * 1]
.LBE2990:
.LBE2989:
.LBB2992:
.LBB2993:
# /usr/lib/gcc/x86_64-linux-gnu/16/include/avxintrin.h:407:   return (__m256)__builtin_ia32_cvtdq2ps256 ((__v8si) __A);
	.loc 13 407 10 view .LVU608
	vcvtdq2ps	ymm8, ymm8	# tmp1060, tmp1056
.LBE2993:
.LBE2992:
.LBB2995:
.LBB2996:
	vcvtdq2ps	ymm7, ymm7	# tmp1080, tmp1076
.LBE2996:
.LBE2995:
.LBB2998:
.LBB2999:
# /usr/lib/gcc/x86_64-linux-gnu/16/include/avx2intrin.h:491:   return (__m256i) __builtin_ia32_pmovzxbd256 ((__v16qi)__X);
	.loc 15 491 47 view .LVU609
	vpmovzxbd	ymm14, QWORD PTR 3[r8+rdx]	# tmp1061, MEM[(__m64_u * {ref-all})_70 + 3B + ivtmp.556_1187 * 1]
.LBE2999:
.LBE2998:
.LBB3001:
.LBB3002:
	vpmovzxbd	ymm9, QWORD PTR 11[r8+rdx]	# tmp1081, MEM[(__m64_u * {ref-all})_70 + 11B + ivtmp.556_1187 * 1]
.LBE3002:
.LBE3001:
.LBB3004:
.LBB3005:
# /usr/lib/gcc/x86_64-linux-gnu/16/include/avxintrin.h:407:   return (__m256)__builtin_ia32_cvtdq2ps256 ((__v8si) __A);
	.loc 13 407 10 view .LVU610
	vcvtdq2ps	ymm6, ymm6	# tmp1070, tmp1066
.LBE3005:
.LBE3004:
.LBB3007:
.LBB3008:
	vcvtdq2ps	ymm4, ymm4	# tmp1090, tmp1086
.LBE3008:
.LBE3007:
.LBB3010:
.LBB2988:
	vcvtdq2ps	ymm20, ymm20	# tmp1055, tmp1051
.LVL109:
	.loc 13 407 10 view .LVU611
.LBE2988:
.LBE3010:
	.loc 1 151 25 is_stmt 1 view .LVU612
.LBB3011:
.LBI2927:
	.loc 15 489 1 view .LVU613
.LBB2929:
	.loc 15 491 3 view .LVU614
.LBE2929:
.LBE3011:
.LBB3012:
.LBI2992:
	.loc 13 405 1 view .LVU615
.LBB2994:
	.loc 13 407 3 view .LVU616
	.loc 13 407 3 is_stmt 0 view .LVU617
.LBE2994:
.LBE3012:
	.loc 1 152 25 is_stmt 1 view .LVU618
.LBB3013:
.LBI2998:
	.loc 15 489 1 view .LVU619
.LBB3000:
	.loc 15 491 3 view .LVU620
	.loc 15 491 3 is_stmt 0 view .LVU621
.LBE3000:
.LBE3013:
.LBB3014:
.LBI3014:
	.loc 13 405 1 is_stmt 1 view .LVU622
.LBB3015:
	.loc 13 407 3 view .LVU623
.LBE3015:
.LBE3014:
.LBB3017:
.LBB3018:
# /usr/lib/gcc/x86_64-linux-gnu/16/include/avxintrin.h:407:   return (__m256)__builtin_ia32_cvtdq2ps256 ((__v8si) __A);
	.loc 13 407 10 is_stmt 0 view .LVU624
	vcvtdq2ps	ymm19, ymm19	# tmp1075, tmp1071
.LBE3018:
.LBE3017:
.LBB3020:
.LBB3021:
# /usr/lib/gcc/x86_64-linux-gnu/16/include/fmaintrin.h:65:   return (__m256)__builtin_ia32_vfmaddps256 ((__v8sf)__A, (__v8sf)__B,
	.file 16 "/usr/lib/gcc/x86_64-linux-gnu/16/include/fmaintrin.h"
	.loc 16 65 10 view .LVU625
	vfmadd213ps	ymm20, ymm3, YMMWORD PTR -64[rax]	# tmp1091, _337, MEM[(__m256_u * {ref-all})vp_773]
.LVL110:
	.loc 16 65 10 view .LVU626
.LBE3021:
.LBE3020:
.LBB3023:
.LBB3024:
	vfmadd213ps	ymm19, ymm3, YMMWORD PTR -32[rax]	# tmp1093, _337, MEM[(__m256_u * {ref-all})vp_773 + 32B]
.LBE3024:
.LBE3023:
.LBB3026:
.LBB3016:
# /usr/lib/gcc/x86_64-linux-gnu/16/include/avxintrin.h:407:   return (__m256)__builtin_ia32_cvtdq2ps256 ((__v8si) __A);
	.loc 13 407 10 view .LVU627
	vcvtdq2ps	ymm14, ymm14	# tmp1065, tmp1061
.LVL111:
	.loc 13 407 10 view .LVU628
.LBE3016:
.LBE3026:
	.loc 1 153 25 is_stmt 1 view .LVU629
.LBB3027:
.LBI2979:
	.loc 15 489 1 view .LVU630
.LBB2981:
	.loc 15 491 3 view .LVU631
.LBE2981:
.LBE3027:
.LBB3028:
.LBI3004:
	.loc 13 405 1 view .LVU632
.LBB3006:
	.loc 13 407 3 view .LVU633
	.loc 13 407 3 is_stmt 0 view .LVU634
.LBE3006:
.LBE3028:
	.loc 1 155 25 is_stmt 1 view .LVU635
.LBB3029:
.LBI2989:
	.loc 15 489 1 view .LVU636
.LBB2991:
	.loc 15 491 3 view .LVU637
	.loc 15 491 3 is_stmt 0 view .LVU638
.LBE2991:
.LBE3029:
.LBB3030:
.LBI3017:
	.loc 13 405 1 is_stmt 1 view .LVU639
.LBB3019:
	.loc 13 407 3 view .LVU640
.LBE3019:
.LBE3030:
	.loc 1 156 25 view .LVU641
.LBB3031:
.LBI2930:
	.loc 15 489 1 view .LVU642
.LBB2932:
	.loc 15 491 3 view .LVU643
.LBE2932:
.LBE3031:
.LBB3032:
.LBI2995:
	.loc 13 405 1 view .LVU644
.LBB2997:
	.loc 13 407 3 view .LVU645
	.loc 13 407 3 is_stmt 0 view .LVU646
.LBE2997:
.LBE3032:
	.loc 1 157 25 is_stmt 1 view .LVU647
.LBB3033:
.LBI3001:
	.loc 15 489 1 view .LVU648
.LBB3003:
	.loc 15 491 3 view .LVU649
	.loc 15 491 3 is_stmt 0 view .LVU650
.LBE3003:
.LBE3033:
.LBB3034:
.LBI3034:
	.loc 13 405 1 is_stmt 1 view .LVU651
.LBB3035:
	.loc 13 407 3 view .LVU652
# /usr/lib/gcc/x86_64-linux-gnu/16/include/avxintrin.h:407:   return (__m256)__builtin_ia32_cvtdq2ps256 ((__v8si) __A);
	.loc 13 407 10 is_stmt 0 view .LVU653
	vcvtdq2ps	ymm9, ymm9	# tmp1085, tmp1081
.LVL112:
	.loc 13 407 10 view .LVU654
.LBE3035:
.LBE3034:
	.loc 1 158 25 is_stmt 1 view .LVU655
.LBB3036:
.LBI2982:
	.loc 15 489 1 view .LVU656
.LBB2984:
	.loc 15 491 3 view .LVU657
.LBE2984:
.LBE3036:
.LBB3037:
.LBI3007:
	.loc 13 405 1 view .LVU658
.LBB3009:
	.loc 13 407 3 view .LVU659
	.loc 13 407 3 is_stmt 0 view .LVU660
.LBE3009:
.LBE3037:
	.loc 1 160 25 is_stmt 1 view .LVU661
.LBB3038:
.LBI3038:
	.loc 13 847 1 view .LVU662
.LBB3039:
	.loc 13 849 3 view .LVU663
.LBE3039:
.LBE3038:
	.loc 1 161 25 view .LVU664
.LBB3040:
.LBI3040:
	.loc 13 847 1 view .LVU665
.LBB3041:
	.loc 13 849 3 view .LVU666
.LBE3041:
.LBE3040:
	.loc 1 163 25 view .LVU667
.LBB3042:
.LBI3020:
	.loc 16 63 1 view .LVU668
.LBB3022:
	.loc 16 65 3 view .LVU669
	.loc 16 65 3 is_stmt 0 view .LVU670
.LBE3022:
.LBE3042:
	.loc 1 164 25 is_stmt 1 view .LVU671
.LBB3043:
.LBI3023:
	.loc 16 63 1 view .LVU672
.LBB3025:
	.loc 16 65 3 view .LVU673
	.loc 16 65 3 is_stmt 0 view .LVU674
.LBE3025:
.LBE3043:
	.loc 1 166 25 is_stmt 1 view .LVU675
.LBB3044:
.LBI3044:
	.loc 16 63 1 view .LVU676
.LBB3045:
	.loc 16 65 3 view .LVU677
# /usr/lib/gcc/x86_64-linux-gnu/16/include/fmaintrin.h:65:   return (__m256)__builtin_ia32_vfmaddps256 ((__v8sf)__A, (__v8sf)__B,
	.loc 16 65 10 is_stmt 0 view .LVU678
	vfmadd132ps	ymm14, ymm20, ymm2	# tmp1095, tmp1091, _338
.LVL113:
	.loc 16 65 10 view .LVU679
.LBE3045:
.LBE3044:
	.loc 1 167 25 is_stmt 1 view .LVU680
.LBB3046:
.LBI3046:
	.loc 16 63 1 view .LVU681
.LBB3047:
	.loc 16 65 3 view .LVU682
# /usr/lib/gcc/x86_64-linux-gnu/16/include/fmaintrin.h:65:   return (__m256)__builtin_ia32_vfmaddps256 ((__v8sf)__A, (__v8sf)__B,
	.loc 16 65 10 is_stmt 0 view .LVU683
	vfmadd132ps	ymm9, ymm19, ymm2	# tmp1096, tmp1093, _338
.LVL114:
	.loc 16 65 10 view .LVU684
.LBE3047:
.LBE3046:
	.loc 1 169 25 is_stmt 1 view .LVU685
.LBB3048:
.LBI3048:
	.loc 16 63 1 view .LVU686
.LBB3049:
	.loc 16 65 3 view .LVU687
# /usr/lib/gcc/x86_64-linux-gnu/16/include/fmaintrin.h:65:   return (__m256)__builtin_ia32_vfmaddps256 ((__v8sf)__A, (__v8sf)__B,
	.loc 16 65 10 is_stmt 0 view .LVU688
	vfmadd132ps	ymm8, ymm14, ymm1	# tmp1097, tmp1095, _292
.LVL115:
	.loc 16 65 10 view .LVU689
.LBE3049:
.LBE3048:
	.loc 1 170 25 is_stmt 1 view .LVU690
.LBB3050:
.LBI3050:
	.loc 16 63 1 view .LVU691
.LBB3051:
	.loc 16 65 3 view .LVU692
# /usr/lib/gcc/x86_64-linux-gnu/16/include/fmaintrin.h:65:   return (__m256)__builtin_ia32_vfmaddps256 ((__v8sf)__A, (__v8sf)__B,
	.loc 16 65 10 is_stmt 0 view .LVU693
	vfmadd132ps	ymm7, ymm9, ymm1	# tmp1098, tmp1096, _292
.LVL116:
	.loc 16 65 10 view .LVU694
.LBE3051:
.LBE3050:
	.loc 1 172 25 is_stmt 1 view .LVU695
.LBB3052:
.LBI3052:
	.loc 16 63 1 view .LVU696
.LBB3053:
	.loc 16 65 3 view .LVU697
# /usr/lib/gcc/x86_64-linux-gnu/16/include/fmaintrin.h:65:   return (__m256)__builtin_ia32_vfmaddps256 ((__v8sf)__A, (__v8sf)__B,
	.loc 16 65 10 is_stmt 0 view .LVU698
	vfmadd132ps	ymm6, ymm8, ymm0	# tmp1099, tmp1097, _293
.LVL117:
	.loc 16 65 10 view .LVU699
.LBE3053:
.LBE3052:
	.loc 1 173 25 is_stmt 1 view .LVU700
.LBB3054:
.LBI3054:
	.loc 16 63 1 view .LVU701
.LBB3055:
	.loc 16 65 3 view .LVU702
# /usr/lib/gcc/x86_64-linux-gnu/16/include/fmaintrin.h:65:   return (__m256)__builtin_ia32_vfmaddps256 ((__v8sf)__A, (__v8sf)__B,
	.loc 16 65 10 is_stmt 0 view .LVU703
	vfmadd132ps	ymm4, ymm7, ymm0	# tmp1100, tmp1098, _293
.LVL118:
	.loc 16 65 10 view .LVU704
.LBE3055:
.LBE3054:
	.loc 1 175 25 is_stmt 1 view .LVU705
.LBB3056:
.LBI3056:
	.loc 13 853 1 view .LVU706
.LBB3057:
	.loc 13 855 3 view .LVU707
# /usr/lib/gcc/x86_64-linux-gnu/16/include/avxintrin.h:855:   *(__m256_u *)__P = __A;
	.loc 13 855 20 is_stmt 0 view .LVU708
	vmovups	YMMWORD PTR -64[rax], ymm6	# MEM[(__m256_u * {ref-all})vp_773], tmp1099
.LVL119:
	.loc 13 855 20 view .LVU709
.LBE3057:
.LBE3056:
	.loc 1 176 25 is_stmt 1 view .LVU710
.LBB3058:
.LBI3058:
	.loc 13 853 1 view .LVU711
.LBB3059:
	.loc 13 855 3 view .LVU712
# /usr/lib/gcc/x86_64-linux-gnu/16/include/avxintrin.h:855:   *(__m256_u *)__P = __A;
	.loc 13 855 20 is_stmt 0 view .LVU713
	vmovups	YMMWORD PTR -32[rax], ymm4	# MEM[(__m256_u * {ref-all})vp_773 + 32B], tmp1100
.LVL120:
	.loc 13 855 20 view .LVU714
.LBE3059:
.LBE3058:
	.loc 1 178 25 is_stmt 1 view .LVU715
	.loc 1 179 25 view .LVU716
	.loc 1 179 41 view .LVU717
	.loc 1 180 25 view .LVU718
	.loc 1 180 41 view .LVU719
.LBE3060:
	.loc 1 139 21 discriminator 1 view .LVU720
	.loc 1 139 35 discriminator 2 view .LVU721
	cmp	rax, r9	# vp, vp
	jne	.L37	#,
	mov	rbx, QWORD PTR 152[rsp]	# _1044, %sfp
	mov	r8d, DWORD PTR 172[rsp]	# x, %sfp
.LVL121:
	.loc 1 139 35 is_stmt 0 discriminator 2 view .LVU722
	add	r12, rbx	# ind_rbot, _1044
	add	rcx, rbx	# ind_rtop, _1044
	lea	rsi, [rdi+rbx]	# ind_lbot,
.LVL122:
	.loc 1 139 35 discriminator 2 view .LVU723
	add	rdx, rbx	# ivtmp.556, _1044
.LVL123:
.L36:
	.loc 1 139 35 discriminator 2 view .LVU724
.LBE3063:
	.loc 1 182 21 is_stmt 1 view .LVU725
.LBB3064:
# src/avx_analysis_code_ablations/opt10_abl_tile_8x256_ilp.cpp:182:                     if(x + 8 <= x_stop) {
	.loc 1 182 30 is_stmt 0 view .LVU726
	lea	r9d, 7[r8]	# _116,
# src/avx_analysis_code_ablations/opt10_abl_tile_8x256_ilp.cpp:182:                     if(x + 8 <= x_stop) {
	.loc 1 182 21 view .LVU727
	cmp	r9d, DWORD PTR 232[rsp]	# _116, %sfp
	jge	.L38	#,
.LBB3065:
	.loc 1 183 25 is_stmt 1 view .LVU728
# src/avx_analysis_code_ablations/opt10_abl_tile_8x256_ilp.cpp:183:                         __m128i ltop_b = _mm_loadl_epi64(reinterpret_cast<const __m128i*>(p.SUB + ind_ltop));
	.loc 1 183 93 is_stmt 0 view .LVU729
	mov	rbx, QWORD PTR 224[rsp]	# ivtmp.567, %sfp
# src/avx_analysis_code_ablations/opt10_abl_tile_8x256_ilp.cpp:200:                         vp += 8;
	.loc 1 200 28 view .LVU730
	add	rax, 32	# vp,
.LVL124:
# src/avx_analysis_code_ablations/opt10_abl_tile_8x256_ilp.cpp:203:                         x += 8;
	.loc 1 203 27 view .LVU731
	add	r8d, 8	# x,
# src/avx_analysis_code_ablations/opt10_abl_tile_8x256_ilp.cpp:183:                         __m128i ltop_b = _mm_loadl_epi64(reinterpret_cast<const __m128i*>(p.SUB + ind_ltop));
	.loc 1 183 93 view .LVU732
	mov	r9, QWORD PTR 40[rbx]	# _117, MEM[(const unsigned char * *)_160 + 40B]
.LVL125:
.LBB3066:
.LBI3066:
	.loc 14 711 1 is_stmt 1 view .LVU733
.LBB3067:
	.loc 14 713 3 view .LVU734
.LBB3068:
.LBI3068:
	.loc 14 600 1 view .LVU735
.LBB3069:
	.loc 14 602 3 view .LVU736
.LBB3070:
.LBI3070:
	.loc 14 594 1 view .LVU737
.LBB3071:
	.loc 14 596 3 view .LVU738
	.loc 14 596 3 is_stmt 0 view .LVU739
.LBE3071:
.LBE3070:
.LBE3069:
.LBE3068:
.LBE3067:
.LBE3066:
	.loc 1 184 25 is_stmt 1 view .LVU740
.LBB3072:
.LBI3072:
	.loc 14 711 1 view .LVU741
.LBB3073:
	.loc 14 713 3 view .LVU742
.LBB3074:
.LBI3074:
	.loc 14 600 1 view .LVU743
.LBB3075:
	.loc 14 602 3 view .LVU744
.LBB3076:
.LBI3076:
	.loc 14 594 1 view .LVU745
.LBB3077:
	.loc 14 596 3 view .LVU746
	.loc 14 596 3 is_stmt 0 view .LVU747
.LBE3077:
.LBE3076:
.LBE3075:
.LBE3074:
.LBE3073:
.LBE3072:
	.loc 1 185 25 is_stmt 1 view .LVU748
.LBB3078:
.LBI3078:
	.loc 14 711 1 view .LVU749
.LBB3079:
	.loc 14 713 3 view .LVU750
.LBB3080:
.LBI3080:
	.loc 14 600 1 view .LVU751
.LBB3081:
	.loc 14 602 3 view .LVU752
.LBB3082:
.LBI3082:
	.loc 14 594 1 view .LVU753
.LBB3083:
	.loc 14 596 3 view .LVU754
	.loc 14 596 3 is_stmt 0 view .LVU755
.LBE3083:
.LBE3082:
.LBE3081:
.LBE3080:
.LBE3079:
.LBE3078:
	.loc 1 186 25 is_stmt 1 view .LVU756
.LBB3084:
.LBI3084:
	.loc 14 711 1 view .LVU757
.LBB3085:
	.loc 14 713 3 view .LVU758
.LBB3086:
.LBI3086:
	.loc 14 600 1 view .LVU759
.LBB3087:
	.loc 14 602 3 view .LVU760
.LBB3088:
.LBI3088:
	.loc 14 594 1 view .LVU761
.LBB3089:
	.loc 14 596 3 view .LVU762
	.loc 14 596 3 is_stmt 0 view .LVU763
.LBE3089:
.LBE3088:
.LBE3087:
.LBE3086:
.LBE3085:
.LBE3084:
	.loc 1 188 25 is_stmt 1 view .LVU764
.LBB3090:
.LBI3090:
	.loc 15 489 1 view .LVU765
.LBB3091:
	.loc 15 491 3 view .LVU766
# /usr/lib/gcc/x86_64-linux-gnu/16/include/avx2intrin.h:491:   return (__m256i) __builtin_ia32_pmovzxbd256 ((__v16qi)__X);
	.loc 15 491 47 is_stmt 0 view .LVU767
	vpmovzxbd	ymm8, QWORD PTR [r9+rdx]	# tmp1103, MEM[(__m64_u * {ref-all})_118]
.LVL126:
	.loc 15 491 47 view .LVU768
.LBE3091:
.LBE3090:
.LBB3092:
.LBI3092:
	.loc 13 405 1 is_stmt 1 view .LVU769
.LBB3093:
	.loc 13 407 3 view .LVU770
.LBE3093:
.LBE3092:
.LBB3095:
.LBB3096:
# /usr/lib/gcc/x86_64-linux-gnu/16/include/avx2intrin.h:491:   return (__m256i) __builtin_ia32_pmovzxbd256 ((__v16qi)__X);
	.loc 15 491 47 is_stmt 0 view .LVU771
	vpmovzxbd	ymm7, QWORD PTR [r9+rcx]	# tmp1113, MEM[(__m64_u * {ref-all})_120]
.LBE3096:
.LBE3095:
# src/avx_analysis_code_ablations/opt10_abl_tile_8x256_ilp.cpp:201:                         ind_ltop += 8; ind_lbot += 8;
	.loc 1 201 34 view .LVU772
	add	rdx, 8	# ivtmp.556,
# src/avx_analysis_code_ablations/opt10_abl_tile_8x256_ilp.cpp:202:                         ind_rtop += 8; ind_rbot += 8;
	.loc 1 202 34 view .LVU773
	add	rcx, 8	# ind_rtop,
.LBB3098:
.LBB3099:
# /usr/lib/gcc/x86_64-linux-gnu/16/include/avx2intrin.h:491:   return (__m256i) __builtin_ia32_pmovzxbd256 ((__v16qi)__X);
	.loc 15 491 47 view .LVU774
	vpmovzxbd	ymm6, QWORD PTR [r9+rsi]	# tmp1108, MEM[(__m64_u * {ref-all})_119]
.LBE3099:
.LBE3098:
.LBB3101:
.LBB3102:
	vpmovzxbd	ymm4, QWORD PTR [r9+r12]	# tmp1118, MEM[(__m64_u * {ref-all})_121]
.LBE3102:
.LBE3101:
# src/avx_analysis_code_ablations/opt10_abl_tile_8x256_ilp.cpp:201:                         ind_ltop += 8; ind_lbot += 8;
	.loc 1 201 49 view .LVU775
	add	rsi, 8	# ind_lbot,
# src/avx_analysis_code_ablations/opt10_abl_tile_8x256_ilp.cpp:202:                         ind_rtop += 8; ind_rbot += 8;
	.loc 1 202 49 view .LVU776
	add	r12, 8	# ind_rbot,
.LBB3104:
.LBB3094:
# /usr/lib/gcc/x86_64-linux-gnu/16/include/avxintrin.h:407:   return (__m256)__builtin_ia32_cvtdq2ps256 ((__v8si) __A);
	.loc 13 407 10 view .LVU777
	vcvtdq2ps	ymm8, ymm8	# tmp1107, tmp1103
.LVL127:
	.loc 13 407 10 view .LVU778
.LBE3094:
.LBE3104:
	.loc 1 189 25 is_stmt 1 view .LVU779
.LBB3105:
.LBI3098:
	.loc 15 489 1 view .LVU780
.LBB3100:
	.loc 15 491 3 view .LVU781
	.loc 15 491 3 is_stmt 0 view .LVU782
.LBE3100:
.LBE3105:
.LBB3106:
.LBI3106:
	.loc 13 405 1 is_stmt 1 view .LVU783
.LBB3107:
	.loc 13 407 3 view .LVU784
.LBE3107:
.LBE3106:
.LBB3109:
.LBB3110:
# /usr/lib/gcc/x86_64-linux-gnu/16/include/fmaintrin.h:65:   return (__m256)__builtin_ia32_vfmaddps256 ((__v8sf)__A, (__v8sf)__B,
	.loc 16 65 10 is_stmt 0 view .LVU785
	vfmadd213ps	ymm8, ymm3, YMMWORD PTR -32[rax]	# tmp1123, _337, MEM[(__m256_u * {ref-all})vp_774]
.LVL128:
	.loc 16 65 10 view .LVU786
.LBE3110:
.LBE3109:
.LBB3112:
.LBB3113:
# /usr/lib/gcc/x86_64-linux-gnu/16/include/avxintrin.h:407:   return (__m256)__builtin_ia32_cvtdq2ps256 ((__v8si) __A);
	.loc 13 407 10 view .LVU787
	vcvtdq2ps	ymm7, ymm7	# tmp1117, tmp1113
.LBE3113:
.LBE3112:
.LBB3115:
.LBB3108:
	vcvtdq2ps	ymm6, ymm6	# tmp1112, tmp1108
.LVL129:
	.loc 13 407 10 view .LVU788
.LBE3108:
.LBE3115:
	.loc 1 190 25 is_stmt 1 view .LVU789
.LBB3116:
.LBI3095:
	.loc 15 489 1 view .LVU790
.LBB3097:
	.loc 15 491 3 view .LVU791
	.loc 15 491 3 is_stmt 0 view .LVU792
.LBE3097:
.LBE3116:
.LBB3117:
.LBI3112:
	.loc 13 405 1 is_stmt 1 view .LVU793
.LBB3114:
	.loc 13 407 3 view .LVU794
	.loc 13 407 3 is_stmt 0 view .LVU795
.LBE3114:
.LBE3117:
	.loc 1 191 25 is_stmt 1 view .LVU796
.LBB3118:
.LBI3101:
	.loc 15 489 1 view .LVU797
.LBB3103:
	.loc 15 491 3 view .LVU798
	.loc 15 491 3 is_stmt 0 view .LVU799
.LBE3103:
.LBE3118:
.LBB3119:
.LBI3119:
	.loc 13 405 1 is_stmt 1 view .LVU800
.LBB3120:
	.loc 13 407 3 view .LVU801
# /usr/lib/gcc/x86_64-linux-gnu/16/include/avxintrin.h:407:   return (__m256)__builtin_ia32_cvtdq2ps256 ((__v8si) __A);
	.loc 13 407 10 is_stmt 0 view .LVU802
	vcvtdq2ps	ymm4, ymm4	# tmp1122, tmp1118
.LVL130:
	.loc 13 407 10 view .LVU803
.LBE3120:
.LBE3119:
	.loc 1 193 25 is_stmt 1 view .LVU804
.LBB3121:
.LBI3121:
	.loc 13 847 1 view .LVU805
.LBB3122:
	.loc 13 849 3 view .LVU806
.LBE3122:
.LBE3121:
	.loc 1 194 25 view .LVU807
.LBB3123:
.LBI3109:
	.loc 16 63 1 view .LVU808
.LBB3111:
	.loc 16 65 3 view .LVU809
	.loc 16 65 3 is_stmt 0 view .LVU810
.LBE3111:
.LBE3123:
	.loc 1 195 25 is_stmt 1 view .LVU811
.LBB3124:
.LBI3124:
	.loc 16 63 1 view .LVU812
.LBB3125:
	.loc 16 65 3 view .LVU813
# /usr/lib/gcc/x86_64-linux-gnu/16/include/fmaintrin.h:65:   return (__m256)__builtin_ia32_vfmaddps256 ((__v8sf)__A, (__v8sf)__B,
	.loc 16 65 10 is_stmt 0 view .LVU814
	vfmadd132ps	ymm7, ymm8, ymm2	# tmp1125, tmp1123, _338
.LVL131:
	.loc 16 65 10 view .LVU815
.LBE3125:
.LBE3124:
	.loc 1 196 25 is_stmt 1 view .LVU816
.LBB3126:
.LBI3126:
	.loc 16 63 1 view .LVU817
.LBB3127:
	.loc 16 65 3 view .LVU818
# /usr/lib/gcc/x86_64-linux-gnu/16/include/fmaintrin.h:65:   return (__m256)__builtin_ia32_vfmaddps256 ((__v8sf)__A, (__v8sf)__B,
	.loc 16 65 10 is_stmt 0 view .LVU819
	vfmadd132ps	ymm6, ymm7, ymm1	# tmp1126, tmp1125, _292
.LVL132:
	.loc 16 65 10 view .LVU820
.LBE3127:
.LBE3126:
	.loc 1 197 25 is_stmt 1 view .LVU821
.LBB3128:
.LBI3128:
	.loc 16 63 1 view .LVU822
.LBB3129:
	.loc 16 65 3 view .LVU823
# /usr/lib/gcc/x86_64-linux-gnu/16/include/fmaintrin.h:65:   return (__m256)__builtin_ia32_vfmaddps256 ((__v8sf)__A, (__v8sf)__B,
	.loc 16 65 10 is_stmt 0 view .LVU824
	vfmadd132ps	ymm4, ymm6, ymm0	# tmp1127, tmp1126, _293
.LVL133:
	.loc 16 65 10 view .LVU825
.LBE3129:
.LBE3128:
	.loc 1 198 25 is_stmt 1 view .LVU826
.LBB3130:
.LBI3130:
	.loc 13 853 1 view .LVU827
.LBB3131:
	.loc 13 855 3 view .LVU828
# /usr/lib/gcc/x86_64-linux-gnu/16/include/avxintrin.h:855:   *(__m256_u *)__P = __A;
	.loc 13 855 20 is_stmt 0 view .LVU829
	vmovups	YMMWORD PTR -32[rax], ymm4	# MEM[(__m256_u * {ref-all})vp_774], tmp1127
.LVL134:
	.loc 13 855 20 view .LVU830
.LBE3131:
.LBE3130:
	.loc 1 200 25 is_stmt 1 view .LVU831
	.loc 1 201 25 view .LVU832
	.loc 1 201 40 view .LVU833
	.loc 1 202 25 view .LVU834
	.loc 1 202 40 view .LVU835
	.loc 1 203 25 view .LVU836
.L38:
	.loc 1 203 25 is_stmt 0 view .LVU837
.LBE3065:
.LBE3064:
	.loc 1 206 21 is_stmt 1 view .LVU838
# src/avx_analysis_code_ablations/opt10_abl_tile_8x256_ilp.cpp:206:                     int remaining = x_stop - x;
	.loc 1 206 25 is_stmt 0 view .LVU839
	mov	ebx, DWORD PTR 232[rsp]	# remaining, %sfp
	sub	ebx, r8d	# remaining, x
.LVL135:
	.loc 1 207 21 is_stmt 1 view .LVU840
.LBB3132:
	.loc 1 207 39 discriminator 2 view .LVU841
	test	ebx, ebx	# remaining
	jle	.L39	#,
.LBB3133:
# src/avx_analysis_code_ablations/opt10_abl_tile_8x256_ilp.cpp:208:                         float TL = p.SUB[ind_ltop + k];
	.loc 1 208 38 is_stmt 0 view .LVU842
	mov	r15, QWORD PTR 224[rsp]	# ivtmp.567, %sfp
	lea	r9d, -1[rbx]	# _1041,
	mov	r8, QWORD PTR 40[r15]	# _122, MEM[(const unsigned char * *)_160 + 40B]
.LVL136:
	.loc 1 208 38 view .LVU843
	cmp	r9d, 30	# _1041,
	jbe	.L71	#,
	mov	r11d, ebx	# bnd.355, remaining
	lea	r14, [r8+r12]	# vectp.359,
	add	rsi, r8	# tmp1656, _122
	add	rcx, r8	# tmp1657, _122
	shr	r11d, 5	# bnd.355,
	add	rdx, r8	# tmp1655, _122
	mov	r9, rax	# ivtmp.522, vp
	xor	r10d, r10d	# ivtmp.524
	mov	r13d, r11d	# _62, bnd.355
	sal	r13, 5	# _1255,
.LVL137:
	.p2align 4,,10
	.p2align 3
.L41:
	.loc 1 208 25 is_stmt 1 view .LVU844
# src/avx_analysis_code_ablations/opt10_abl_tile_8x256_ilp.cpp:210:                         float BL = p.SUB[ind_lbot + k];
	.loc 1 210 54 is_stmt 0 discriminator 40960 view .LVU845
	vmovdqu	ymm8, YMMWORD PTR [rsi+r10]	# MEM <const vector(32) unsigned char> [(const unsigned char *)vectp.365_1011 + ivtmp.524_1307 * 1], MEM <const vector(32) unsigned char> [(const unsigned char *)vectp.365_1011 + ivtmp.524_1307 * 1]
# src/avx_analysis_code_ablations/opt10_abl_tile_8x256_ilp.cpp:209:                         float TR = p.SUB[ind_rtop + k];
	.loc 1 209 54 discriminator 40960 view .LVU846
	vmovdqu	ymm4, YMMWORD PTR [rcx+r10]	# MEM <const vector(32) unsigned char> [(const unsigned char *)vectp.371_992 + ivtmp.524_1307 * 1], MEM <const vector(32) unsigned char> [(const unsigned char *)vectp.371_992 + ivtmp.524_1307 * 1]
	sub	r9, -128	# ivtmp.522,
# src/avx_analysis_code_ablations/opt10_abl_tile_8x256_ilp.cpp:208:                         float TL = p.SUB[ind_ltop + k];
	.loc 1 208 54 discriminator 40960 view .LVU847
	vmovdqu	ymm7, YMMWORD PTR [rdx+r10]	# MEM <const vector(32) unsigned char> [(const unsigned char *)vectp.383_965 + ivtmp.524_1307 * 1], MEM <const vector(32) unsigned char> [(const unsigned char *)vectp.383_965 + ivtmp.524_1307 * 1]
# src/avx_analysis_code_ablations/opt10_abl_tile_8x256_ilp.cpp:210:                         float BL = p.SUB[ind_lbot + k];
	.loc 1 210 31 discriminator 40960 view .LVU848
	vpmovzxbw	ymm6, xmm8	#, MEM <const vector(32) unsigned char> [(const unsigned char *)vectp.365_1011 + ivtmp.524_1307 * 1]
# src/avx_analysis_code_ablations/opt10_abl_tile_8x256_ilp.cpp:209:                         float TR = p.SUB[ind_rtop + k];
	.loc 1 209 31 discriminator 40960 view .LVU849
	vpmovzxbw	ymm9, xmm4	#, MEM <const vector(32) unsigned char> [(const unsigned char *)vectp.371_992 + ivtmp.524_1307 * 1]
# src/avx_analysis_code_ablations/opt10_abl_tile_8x256_ilp.cpp:210:                         float BL = p.SUB[ind_lbot + k];
	.loc 1 210 31 discriminator 40960 view .LVU850
	vextracti32x4	xmm8, ymm8, 0x1	# tmp1139, MEM <const vector(32) unsigned char> [(const unsigned char *)vectp.365_1011 + ivtmp.524_1307 * 1]
	vpmovsxwd	ymm19, xmm6	#, vect_BL_310.368
	vextracti32x4	xmm6, ymm6, 0x1	# tmp1152, vect_BL_310.368
# src/avx_analysis_code_ablations/opt10_abl_tile_8x256_ilp.cpp:209:                         float TR = p.SUB[ind_rtop + k];
	.loc 1 209 31 discriminator 40960 view .LVU851
	vpmovsxwd	ymm14, xmm9	#, vect_TR_309.374
# src/avx_analysis_code_ablations/opt10_abl_tile_8x256_ilp.cpp:210:                         float BL = p.SUB[ind_lbot + k];
	.loc 1 210 31 discriminator 40960 view .LVU852
	vpmovsxwd	ymm6, xmm6	# tmp1151, tmp1152
# src/avx_analysis_code_ablations/opt10_abl_tile_8x256_ilp.cpp:209:                         float TR = p.SUB[ind_rtop + k];
	.loc 1 209 31 discriminator 40960 view .LVU853
	vextracti32x4	xmm9, ymm9, 0x1	# tmp1149, vect_TR_309.374
# src/avx_analysis_code_ablations/opt10_abl_tile_8x256_ilp.cpp:210:                         float BL = p.SUB[ind_lbot + k];
	.loc 1 210 31 discriminator 40960 view .LVU854
	vpmovzxbw	ymm8, xmm8	# vect_BL_310.368, tmp1139
	vcvtdq2ps	ymm19, ymm19	# vect_BL_310.367_1005, tmp1144
# src/avx_analysis_code_ablations/opt10_abl_tile_8x256_ilp.cpp:209:                         float TR = p.SUB[ind_rtop + k];
	.loc 1 209 31 discriminator 40960 view .LVU855
	vcvtdq2ps	ymm14, ymm14	# vect_TR_309.373_986, tmp1141
# src/avx_analysis_code_ablations/opt10_abl_tile_8x256_ilp.cpp:210:                         float BL = p.SUB[ind_lbot + k];
	.loc 1 210 31 discriminator 40960 view .LVU856
	vcvtdq2ps	ymm6, ymm6	# vect_BL_310.367_1004, tmp1151
# src/avx_analysis_code_ablations/opt10_abl_tile_8x256_ilp.cpp:212:                         vp[k] += p.A*TL + p.B*TR + p.C*BL + p.D*BR;
	.loc 1 212 55 discriminator 40960 view .LVU857
	vmulps	ymm6, ymm6, ymm1	# vect__145.369_1000, vect_BL_310.367_1004, _292
# src/avx_analysis_code_ablations/opt10_abl_tile_8x256_ilp.cpp:209:                         float TR = p.SUB[ind_rtop + k];
	.loc 1 209 31 discriminator 40960 view .LVU858
	vpmovsxwd	ymm9, xmm9	# tmp1148, tmp1149
# src/avx_analysis_code_ablations/opt10_abl_tile_8x256_ilp.cpp:210:                         float BL = p.SUB[ind_lbot + k];
	.loc 1 210 31 discriminator 40960 view .LVU859
	vextracti32x4	xmm20, ymm8, 0x1	# tmp1166, vect_BL_310.368
# src/avx_analysis_code_ablations/opt10_abl_tile_8x256_ilp.cpp:212:                         vp[k] += p.A*TL + p.B*TR + p.C*BL + p.D*BR;
	.loc 1 212 55 discriminator 40960 view .LVU860
	vmulps	ymm19, ymm19, ymm1	# vect__145.369_1001, vect_BL_310.367_1005, _292
# src/avx_analysis_code_ablations/opt10_abl_tile_8x256_ilp.cpp:209:                         float TR = p.SUB[ind_rtop + k];
	.loc 1 209 31 discriminator 40960 view .LVU861
	vcvtdq2ps	ymm9, ymm9	# vect_TR_309.373_985, tmp1148
# src/avx_analysis_code_ablations/opt10_abl_tile_8x256_ilp.cpp:208:                         float TL = p.SUB[ind_ltop + k];
	.loc 1 208 31 discriminator 40960 view .LVU862
	vpmovzxbw	ymm22, xmm7	#, MEM <const vector(32) unsigned char> [(const unsigned char *)vectp.383_965 + ivtmp.524_1307 * 1]
# src/avx_analysis_code_ablations/opt10_abl_tile_8x256_ilp.cpp:209:                         float TR = p.SUB[ind_rtop + k];
	.loc 1 209 31 discriminator 40960 view .LVU863
	vextracti32x4	xmm4, ymm4, 0x1	# tmp1136, MEM <const vector(32) unsigned char> [(const unsigned char *)vectp.371_992 + ivtmp.524_1307 * 1]
# src/avx_analysis_code_ablations/opt10_abl_tile_8x256_ilp.cpp:210:                         float BL = p.SUB[ind_lbot + k];
	.loc 1 210 31 discriminator 40960 view .LVU864
	vpmovsxwd	ymm20, xmm20	# tmp1165, tmp1166
# src/avx_analysis_code_ablations/opt10_abl_tile_8x256_ilp.cpp:209:                         float TR = p.SUB[ind_rtop + k];
	.loc 1 209 31 discriminator 40960 view .LVU865
	vpmovzxbw	ymm4, xmm4	# vect_TR_309.374, tmp1136
# src/avx_analysis_code_ablations/opt10_abl_tile_8x256_ilp.cpp:208:                         float TL = p.SUB[ind_ltop + k];
	.loc 1 208 31 discriminator 40960 view .LVU866
	vextracti32x4	xmm7, ymm7, 0x1	# tmp1133, MEM <const vector(32) unsigned char> [(const unsigned char *)vectp.383_965 + ivtmp.524_1307 * 1]
# src/avx_analysis_code_ablations/opt10_abl_tile_8x256_ilp.cpp:210:                         float BL = p.SUB[ind_lbot + k];
	.loc 1 210 31 discriminator 40960 view .LVU867
	vcvtdq2ps	ymm20, ymm20	# vect_BL_310.367_1002, tmp1165
# src/avx_analysis_code_ablations/opt10_abl_tile_8x256_ilp.cpp:212:                         vp[k] += p.A*TL + p.B*TR + p.C*BL + p.D*BR;
	.loc 1 212 55 discriminator 40960 view .LVU868
	vmulps	ymm20, ymm20, ymm1	# vect__145.369_998, vect_BL_310.367_1002, _292
# src/avx_analysis_code_ablations/opt10_abl_tile_8x256_ilp.cpp:208:                         float TL = p.SUB[ind_ltop + k];
	.loc 1 208 31 discriminator 40960 view .LVU869
	vpmovzxbw	ymm7, xmm7	# vect_TL_308.386, tmp1133
.LVL138:
	.loc 1 209 25 is_stmt 1 view .LVU870
	.loc 1 210 25 view .LVU871
	vfmadd132ps	ymm9, ymm6, ymm2	# _1151, vect__145.369_1000, _338
# src/avx_analysis_code_ablations/opt10_abl_tile_8x256_ilp.cpp:210:                         float BL = p.SUB[ind_lbot + k];
	.loc 1 210 31 is_stmt 0 discriminator 40960 view .LVU872
	vpmovsxwd	ymm6, xmm8	#, vect_BL_310.368
# src/avx_analysis_code_ablations/opt10_abl_tile_8x256_ilp.cpp:208:                         float TL = p.SUB[ind_ltop + k];
	.loc 1 208 31 discriminator 40960 view .LVU873
	vpmovsxwd	ymm8, xmm22	#, vect_TL_308.386
# src/avx_analysis_code_ablations/opt10_abl_tile_8x256_ilp.cpp:210:                         float BL = p.SUB[ind_lbot + k];
	.loc 1 210 31 discriminator 40960 view .LVU874
	vcvtdq2ps	ymm6, ymm6	# vect_BL_310.367_1003, tmp1158
# src/avx_analysis_code_ablations/opt10_abl_tile_8x256_ilp.cpp:212:                         vp[k] += p.A*TL + p.B*TR + p.C*BL + p.D*BR;
	.loc 1 212 55 discriminator 40960 view .LVU875
	vmulps	ymm6, ymm6, ymm1	# vect__145.369_999, vect_BL_310.367_1003, _292
	vfmadd132ps	ymm14, ymm19, ymm2	# _1282, vect__145.369_1001, _338
# src/avx_analysis_code_ablations/opt10_abl_tile_8x256_ilp.cpp:208:                         float TL = p.SUB[ind_ltop + k];
	.loc 1 208 31 discriminator 40960 view .LVU876
	vcvtdq2ps	ymm8, ymm8	# vect_TL_308.385_959, tmp1176
# src/avx_analysis_code_ablations/opt10_abl_tile_8x256_ilp.cpp:209:                         float TR = p.SUB[ind_rtop + k];
	.loc 1 209 31 discriminator 40960 view .LVU877
	vpmovsxwd	ymm19, xmm4	#, vect_TR_309.374
	vfmadd213ps	ymm8, ymm3, YMMWORD PTR -128[r9]	# tmp1174, _337, MEM <vector(8) float> [(float *)_459]
	vcvtdq2ps	ymm19, ymm19	# vect_TR_309.373_984, tmp1155
	vfmadd132ps	ymm19, ymm6, ymm2	# _1302, vect__145.369_999, _338
	vextracti32x4	xmm6, ymm4, 0x1	# tmp1163, vect_TR_309.374
# src/avx_analysis_code_ablations/opt10_abl_tile_8x256_ilp.cpp:211:                         float BR = p.SUB[ind_rbot + k];
	.loc 1 211 54 discriminator 40960 view .LVU878
	vmovdqu	ymm4, YMMWORD PTR [r14+r10]	# MEM <const vector(32) unsigned char> [(const unsigned char *)vectp.359_1029 + ivtmp.524_1307 * 1], MEM <const vector(32) unsigned char> [(const unsigned char *)vectp.359_1029 + ivtmp.524_1307 * 1]
	add	r10, 32	# ivtmp.524,
# src/avx_analysis_code_ablations/opt10_abl_tile_8x256_ilp.cpp:209:                         float TR = p.SUB[ind_rtop + k];
	.loc 1 209 31 discriminator 40960 view .LVU879
	vpmovsxwd	ymm6, xmm6	# tmp1162, tmp1163
# src/avx_analysis_code_ablations/opt10_abl_tile_8x256_ilp.cpp:211:                         float BR = p.SUB[ind_rbot + k];
	.loc 1 211 31 discriminator 40960 view .LVU880
	vpmovzxbw	ymm21, xmm4	#, MEM <const vector(32) unsigned char> [(const unsigned char *)vectp.359_1029 + ivtmp.524_1307 * 1]
# src/avx_analysis_code_ablations/opt10_abl_tile_8x256_ilp.cpp:209:                         float TR = p.SUB[ind_rtop + k];
	.loc 1 209 31 discriminator 40960 view .LVU881
	vcvtdq2ps	ymm6, ymm6	# vect_TR_309.373_983, tmp1162
	vfmadd132ps	ymm6, ymm20, ymm2	# _1277, vect__145.369_998, _338
.LVL139:
	.loc 1 211 25 is_stmt 1 view .LVU882
# src/avx_analysis_code_ablations/opt10_abl_tile_8x256_ilp.cpp:211:                         float BR = p.SUB[ind_rbot + k];
	.loc 1 211 31 is_stmt 0 discriminator 40960 view .LVU883
	vextracti32x4	xmm4, ymm4, 0x1	# tmp1170, MEM <const vector(32) unsigned char> [(const unsigned char *)vectp.359_1029 + ivtmp.524_1307 * 1]
	vpmovsxwd	ymm20, xmm21	#, vect_BR_311.362
	vextracti32x4	xmm21, ymm21, 0x1	# tmp1181, vect_BR_311.362
	vpmovzxbw	ymm4, xmm4	# vect_BR_311.362, tmp1170
.LVL140:
	.loc 1 212 25 is_stmt 1 view .LVU884
# src/avx_analysis_code_ablations/opt10_abl_tile_8x256_ilp.cpp:211:                         float BR = p.SUB[ind_rbot + k];
	.loc 1 211 31 is_stmt 0 discriminator 40960 view .LVU885
	vcvtdq2ps	ymm20, ymm20	# vect_BR_311.361_1023, tmp1172
	vfmadd132ps	ymm20, ymm8, ymm0	# _1288, tmp1174, _293
# src/avx_analysis_code_ablations/opt10_abl_tile_8x256_ilp.cpp:208:                         float TL = p.SUB[ind_ltop + k];
	.loc 1 208 31 discriminator 40960 view .LVU886
	vextracti32x4	xmm8, ymm22, 0x1	# tmp1185, vect_TL_308.386
# src/avx_analysis_code_ablations/opt10_abl_tile_8x256_ilp.cpp:211:                         float BR = p.SUB[ind_rbot + k];
	.loc 1 211 31 discriminator 40960 view .LVU887
	vpmovsxwd	ymm21, xmm21	# tmp1180, tmp1181
# src/avx_analysis_code_ablations/opt10_abl_tile_8x256_ilp.cpp:208:                         float TL = p.SUB[ind_ltop + k];
	.loc 1 208 31 discriminator 40960 view .LVU888
	vpmovsxwd	ymm8, xmm8	# tmp1184, tmp1185
# src/avx_analysis_code_ablations/opt10_abl_tile_8x256_ilp.cpp:211:                         float BR = p.SUB[ind_rbot + k];
	.loc 1 211 31 discriminator 40960 view .LVU889
	vcvtdq2ps	ymm21, ymm21	# vect_BR_311.361_1022, tmp1180
	vpmovsxwd	ymm22, xmm4	#, vect_BR_311.362
	vextracti32x4	xmm4, ymm4, 0x1	# tmp1198, vect_BR_311.362
# src/avx_analysis_code_ablations/opt10_abl_tile_8x256_ilp.cpp:208:                         float TL = p.SUB[ind_ltop + k];
	.loc 1 208 31 discriminator 40960 view .LVU890
	vcvtdq2ps	ymm8, ymm8	# vect_TL_308.385_958, tmp1184
	vfmadd213ps	ymm8, ymm3, YMMWORD PTR -96[r9]	# tmp1182, _337, MEM <vector(8) float> [(float *)_459 + 32B]
# src/avx_analysis_code_ablations/opt10_abl_tile_8x256_ilp.cpp:211:                         float BR = p.SUB[ind_rbot + k];
	.loc 1 211 31 discriminator 40960 view .LVU891
	vpmovsxwd	ymm4, xmm4	# tmp1197, tmp1198
	vcvtdq2ps	ymm22, ymm22	# vect_BR_311.361_1021, tmp1188
	vcvtdq2ps	ymm4, ymm4	# vect_BR_311.361_1020, tmp1197
# src/avx_analysis_code_ablations/opt10_abl_tile_8x256_ilp.cpp:212:                         vp[k] += p.A*TL + p.B*TR + p.C*BL + p.D*BR;
	.loc 1 212 31 discriminator 40960 view .LVU892
	vaddps	ymm14, ymm14, ymm20	# vect__150.391_939, _1282, _1288
	vfmadd132ps	ymm21, ymm8, ymm0	# _1270, tmp1182, _293
# src/avx_analysis_code_ablations/opt10_abl_tile_8x256_ilp.cpp:208:                         float TL = p.SUB[ind_ltop + k];
	.loc 1 208 31 discriminator 40960 view .LVU893
	vpmovsxwd	ymm8, xmm7	#, vect_TL_308.386
	vextracti32x4	xmm7, ymm7, 0x1	# tmp1202, vect_TL_308.386
	vpmovsxwd	ymm7, xmm7	# tmp1201, tmp1202
	vcvtdq2ps	ymm8, ymm8	# vect_TL_308.385_957, tmp1192
	vfmadd213ps	ymm8, ymm3, YMMWORD PTR -64[r9]	# tmp1190, _337, MEM <vector(8) float> [(float *)_459 + 64B]
# src/avx_analysis_code_ablations/opt10_abl_tile_8x256_ilp.cpp:212:                         vp[k] += p.A*TL + p.B*TR + p.C*BL + p.D*BR;
	.loc 1 212 31 discriminator 40960 view .LVU894
	vmovups	YMMWORD PTR -128[r9], ymm14	# MEM <vector(8) float> [(float *)_459], vect__150.391_939
# src/avx_analysis_code_ablations/opt10_abl_tile_8x256_ilp.cpp:208:                         float TL = p.SUB[ind_ltop + k];
	.loc 1 208 31 discriminator 40960 view .LVU895
	vcvtdq2ps	ymm7, ymm7	# vect_TL_308.385_956, tmp1201
# src/avx_analysis_code_ablations/opt10_abl_tile_8x256_ilp.cpp:212:                         vp[k] += p.A*TL + p.B*TR + p.C*BL + p.D*BR;
	.loc 1 212 31 discriminator 40960 view .LVU896
	vfmadd213ps	ymm7, ymm3, YMMWORD PTR -32[r9]	# tmp1199, _337, MEM <vector(8) float> [(float *)_459 + 96B]
	vaddps	ymm9, ymm9, ymm21	# vect__150.391_938, _1151, _1270
	vfmadd132ps	ymm22, ymm8, ymm0	# _346, tmp1190, _293
	vfmadd132ps	ymm4, ymm7, ymm0	# tmp1195, tmp1199, _293
	vmovups	YMMWORD PTR -96[r9], ymm9	# MEM <vector(8) float> [(float *)_459 + 32B], vect__150.391_938
	vaddps	ymm22, ymm22, ymm19	# vect__150.391_937, _346, _1302
	vaddps	ymm4, ymm4, ymm6	# vect__150.391, tmp1195, _1277
	vmovups	YMMWORD PTR -64[r9], ymm22	# MEM <vector(8) float> [(float *)_459 + 64B], vect__150.391_937
	vmovups	YMMWORD PTR -32[r9], ymm4	# MEM <vector(8) float> [(float *)_459 + 96B], vect__150.391
.LBE3133:
	.loc 1 207 21 is_stmt 1 discriminator 1 view .LVU897
	.loc 1 207 39 discriminator 2 view .LVU898
	cmp	r13, r10	# _1255, ivtmp.524
	jne	.L41	#,
	sal	r11d, 5	# niters_vector_mult_vf.356,
	cmp	r11d, ebx	# niters_vector_mult_vf.356, remaining
	je	.L39	#,
	mov	r14d, ebx	# niters.394, remaining
	mov	r9d, r11d	# tmp.357, niters_vector_mult_vf.356
	sub	r14d, r11d	# niters.394, niters_vector_mult_vf.356
	lea	r10d, -1[r14]	# _885,
	cmp	r10d, 14	# _885,
	jbe	.L72	#,
.LVL141:
.L142:
	.loc 1 207 39 is_stmt 0 discriminator 2 view .LVU899
	mov	r13d, r11d	# _871, niters_vector_mult_vf.356
.LBB3134:
# src/avx_analysis_code_ablations/opt10_abl_tile_8x256_ilp.cpp:210:                         float BL = p.SUB[ind_lbot + k];
	.loc 1 210 54 discriminator 69632 view .LVU900
	vmovdqu	xmm8, XMMWORD PTR [rsi+r13]	# MEM <const vector(16) unsigned char> [(const unsigned char *)vectp.405_852], MEM <const vector(16) unsigned char> [(const unsigned char *)vectp.405_852]
# src/avx_analysis_code_ablations/opt10_abl_tile_8x256_ilp.cpp:209:                         float TR = p.SUB[ind_rtop + k];
	.loc 1 209 54 discriminator 69632 view .LVU901
	vmovdqu	xmm4, XMMWORD PTR [rcx+r13]	# MEM <const vector(16) unsigned char> [(const unsigned char *)vectp.411_832], MEM <const vector(16) unsigned char> [(const unsigned char *)vectp.411_832]
	lea	r10, [rax+r13*4]	# vectp_vp.417,
	.loc 1 208 25 is_stmt 1 view .LVU902
	lea	r15, [r12+r13]	# _870,
# src/avx_analysis_code_ablations/opt10_abl_tile_8x256_ilp.cpp:208:                         float TL = p.SUB[ind_ltop + k];
	.loc 1 208 54 is_stmt 0 discriminator 69632 view .LVU903
	vmovdqu	xmm7, XMMWORD PTR [rdx+r13]	# MEM <const vector(16) unsigned char> [(const unsigned char *)vectp.423_704], MEM <const vector(16) unsigned char> [(const unsigned char *)vectp.423_704]
# src/avx_analysis_code_ablations/opt10_abl_tile_8x256_ilp.cpp:210:                         float BL = p.SUB[ind_lbot + k];
	.loc 1 210 31 discriminator 69632 view .LVU904
	vpmovzxbw	xmm6, xmm8	# vect_BL_1064.408, MEM <const vector(16) unsigned char> [(const unsigned char *)vectp.405_852]
	vpsrldq	xmm8, xmm8, 8	# tmp1225, MEM <const vector(16) unsigned char> [(const unsigned char *)vectp.405_852],
# src/avx_analysis_code_ablations/opt10_abl_tile_8x256_ilp.cpp:209:                         float TR = p.SUB[ind_rtop + k];
	.loc 1 209 31 discriminator 69632 view .LVU905
	vpmovzxbw	xmm9, xmm4	# vect_TR_1068.414, MEM <const vector(16) unsigned char> [(const unsigned char *)vectp.411_832]
# src/avx_analysis_code_ablations/opt10_abl_tile_8x256_ilp.cpp:210:                         float BL = p.SUB[ind_lbot + k];
	.loc 1 210 31 discriminator 69632 view .LVU906
	vpmovsxwd	xmm14, xmm6	# tmp1229, vect_BL_1064.408
	vpsrldq	xmm6, xmm6, 8	# tmp1236, vect_BL_1064.408,
# src/avx_analysis_code_ablations/opt10_abl_tile_8x256_ilp.cpp:209:                         float TR = p.SUB[ind_rtop + k];
	.loc 1 209 31 discriminator 69632 view .LVU907
	vpmovsxwd	xmm19, xmm9	# tmp1227, vect_TR_1068.414
# src/avx_analysis_code_ablations/opt10_abl_tile_8x256_ilp.cpp:210:                         float BL = p.SUB[ind_lbot + k];
	.loc 1 210 31 discriminator 69632 view .LVU908
	vpmovsxwd	xmm6, xmm6	# tmp1235, tmp1236
# src/avx_analysis_code_ablations/opt10_abl_tile_8x256_ilp.cpp:209:                         float TR = p.SUB[ind_rtop + k];
	.loc 1 209 31 discriminator 69632 view .LVU909
	vpsrldq	xmm9, xmm9, 8	# tmp1233, vect_TR_1068.414,
# src/avx_analysis_code_ablations/opt10_abl_tile_8x256_ilp.cpp:210:                         float BL = p.SUB[ind_lbot + k];
	.loc 1 210 31 discriminator 69632 view .LVU910
	vpmovzxbw	xmm8, xmm8	# vect_BL_1064.408, tmp1225
	vcvtdq2ps	xmm14, xmm14	# vect_BL_1064.407_844, tmp1229
# src/avx_analysis_code_ablations/opt10_abl_tile_8x256_ilp.cpp:209:                         float TR = p.SUB[ind_rtop + k];
	.loc 1 209 31 discriminator 69632 view .LVU911
	vcvtdq2ps	xmm19, xmm19	# vect_TR_1068.413_824, tmp1227
# src/avx_analysis_code_ablations/opt10_abl_tile_8x256_ilp.cpp:210:                         float BL = p.SUB[ind_lbot + k];
	.loc 1 210 31 discriminator 69632 view .LVU912
	vcvtdq2ps	xmm6, xmm6	# vect_BL_1064.407_843, tmp1235
# src/avx_analysis_code_ablations/opt10_abl_tile_8x256_ilp.cpp:212:                         vp[k] += p.A*TL + p.B*TR + p.C*BL + p.D*BR;
	.loc 1 212 55 discriminator 69632 view .LVU913
	vmulps	xmm6, xmm6, xmm13	# vect__1053.409_839, vect_BL_1064.407_843, _384
# src/avx_analysis_code_ablations/opt10_abl_tile_8x256_ilp.cpp:209:                         float TR = p.SUB[ind_rtop + k];
	.loc 1 209 31 discriminator 69632 view .LVU914
	vpmovsxwd	xmm9, xmm9	# tmp1232, tmp1233
# src/avx_analysis_code_ablations/opt10_abl_tile_8x256_ilp.cpp:208:                         float TL = p.SUB[ind_ltop + k];
	.loc 1 208 31 discriminator 69632 view .LVU915
	vpmovzxbw	xmm21, xmm7	# vect_TL_1072.426, MEM <const vector(16) unsigned char> [(const unsigned char *)vectp.423_704]
# src/avx_analysis_code_ablations/opt10_abl_tile_8x256_ilp.cpp:212:                         vp[k] += p.A*TL + p.B*TR + p.C*BL + p.D*BR;
	.loc 1 212 55 discriminator 69632 view .LVU916
	vmulps	xmm14, xmm14, xmm13	# vect__1053.409_840, vect_BL_1064.407_844, _384
# src/avx_analysis_code_ablations/opt10_abl_tile_8x256_ilp.cpp:209:                         float TR = p.SUB[ind_rtop + k];
	.loc 1 209 31 discriminator 69632 view .LVU917
	vcvtdq2ps	xmm9, xmm9	# vect_TR_1068.413_823, tmp1232
# src/avx_analysis_code_ablations/opt10_abl_tile_8x256_ilp.cpp:210:                         float BL = p.SUB[ind_lbot + k];
	.loc 1 210 31 discriminator 69632 view .LVU918
	vpsrldq	xmm20, xmm8, 8	# tmp1248, vect_BL_1064.408,
# src/avx_analysis_code_ablations/opt10_abl_tile_8x256_ilp.cpp:208:                         float TL = p.SUB[ind_ltop + k];
	.loc 1 208 31 discriminator 69632 view .LVU919
	vpmovsxwd	xmm22, xmm21	# tmp1256, vect_TL_1072.426
# src/avx_analysis_code_ablations/opt10_abl_tile_8x256_ilp.cpp:209:                         float TR = p.SUB[ind_rtop + k];
	.loc 1 209 31 discriminator 69632 view .LVU920
	vpsrldq	xmm4, xmm4, 8	# tmp1221, MEM <const vector(16) unsigned char> [(const unsigned char *)vectp.411_832],
# src/avx_analysis_code_ablations/opt10_abl_tile_8x256_ilp.cpp:208:                         float TL = p.SUB[ind_ltop + k];
	.loc 1 208 31 discriminator 69632 view .LVU921
	vcvtdq2ps	xmm22, xmm22	# vect_TL_1072.425_688, tmp1256
	vfmadd213ps	xmm22, xmm11, XMMWORD PTR [r10]	# tmp1254, _54, MEM <vector(4) float> [(float *)vectp_vp.417_810]
# src/avx_analysis_code_ablations/opt10_abl_tile_8x256_ilp.cpp:210:                         float BL = p.SUB[ind_lbot + k];
	.loc 1 210 31 discriminator 69632 view .LVU922
	vpmovsxwd	xmm20, xmm20	# tmp1247, tmp1248
# src/avx_analysis_code_ablations/opt10_abl_tile_8x256_ilp.cpp:209:                         float TR = p.SUB[ind_rtop + k];
	.loc 1 209 31 discriminator 69632 view .LVU923
	vpmovzxbw	xmm4, xmm4	# vect_TR_1068.414, tmp1221
# src/avx_analysis_code_ablations/opt10_abl_tile_8x256_ilp.cpp:210:                         float BL = p.SUB[ind_lbot + k];
	.loc 1 210 31 discriminator 69632 view .LVU924
	vcvtdq2ps	xmm20, xmm20	# vect_BL_1064.407_841, tmp1247
# src/avx_analysis_code_ablations/opt10_abl_tile_8x256_ilp.cpp:208:                         float TL = p.SUB[ind_ltop + k];
	.loc 1 208 31 discriminator 69632 view .LVU925
	vpsrldq	xmm7, xmm7, 8	# tmp1217, MEM <const vector(16) unsigned char> [(const unsigned char *)vectp.423_704],
# src/avx_analysis_code_ablations/opt10_abl_tile_8x256_ilp.cpp:212:                         vp[k] += p.A*TL + p.B*TR + p.C*BL + p.D*BR;
	.loc 1 212 55 discriminator 69632 view .LVU926
	vmulps	xmm20, xmm20, xmm13	# vect__1053.409_837, vect_BL_1064.407_841, _384
# src/avx_analysis_code_ablations/opt10_abl_tile_8x256_ilp.cpp:208:                         float TL = p.SUB[ind_ltop + k];
	.loc 1 208 31 discriminator 69632 view .LVU927
	vpmovzxbw	xmm7, xmm7	# vect_TL_1072.426, tmp1217
.LVL142:
	.loc 1 209 25 is_stmt 1 view .LVU928
	.loc 1 210 25 view .LVU929
	vfmadd132ps	xmm9, xmm6, xmm12	# _744, vect__1053.409_839, _243
# src/avx_analysis_code_ablations/opt10_abl_tile_8x256_ilp.cpp:210:                         float BL = p.SUB[ind_lbot + k];
	.loc 1 210 31 is_stmt 0 discriminator 69632 view .LVU930
	vpmovsxwd	xmm6, xmm8	# tmp1241, vect_BL_1064.408
	vcvtdq2ps	xmm6, xmm6	# vect_BL_1064.407_842, tmp1241
# src/avx_analysis_code_ablations/opt10_abl_tile_8x256_ilp.cpp:212:                         vp[k] += p.A*TL + p.B*TR + p.C*BL + p.D*BR;
	.loc 1 212 55 discriminator 69632 view .LVU931
	vmulps	xmm6, xmm6, xmm13	# vect__1053.409_838, vect_BL_1064.407_842, _384
	vfmadd132ps	xmm19, xmm14, xmm12	# _926, vect__1053.409_840, _243
# src/avx_analysis_code_ablations/opt10_abl_tile_8x256_ilp.cpp:209:                         float TR = p.SUB[ind_rtop + k];
	.loc 1 209 31 discriminator 69632 view .LVU932
	vpmovsxwd	xmm14, xmm4	# tmp1239, vect_TR_1068.414
	vcvtdq2ps	xmm14, xmm14	# vect_TR_1068.413_821, tmp1239
	vfmadd132ps	xmm14, xmm6, xmm12	# _560, vect__1053.409_838, _243
	vpsrldq	xmm6, xmm4, 8	# tmp1245, vect_TR_1068.414,
# src/avx_analysis_code_ablations/opt10_abl_tile_8x256_ilp.cpp:211:                         float BR = p.SUB[ind_rbot + k];
	.loc 1 211 54 discriminator 69632 view .LVU933
	vmovdqu	xmm4, XMMWORD PTR [r8+r15]	# MEM <const vector(16) unsigned char> [(const unsigned char *)vectp.399_872], MEM <const vector(16) unsigned char> [(const unsigned char *)vectp.399_872]
# src/avx_analysis_code_ablations/opt10_abl_tile_8x256_ilp.cpp:209:                         float TR = p.SUB[ind_rtop + k];
	.loc 1 209 31 discriminator 69632 view .LVU934
	vpmovsxwd	xmm6, xmm6	# tmp1244, tmp1245
# src/avx_analysis_code_ablations/opt10_abl_tile_8x256_ilp.cpp:211:                         float BR = p.SUB[ind_rbot + k];
	.loc 1 211 31 discriminator 69632 view .LVU935
	vpmovzxbw	xmm8, xmm4	# vect_BR_1060.402, MEM <const vector(16) unsigned char> [(const unsigned char *)vectp.399_872]
# src/avx_analysis_code_ablations/opt10_abl_tile_8x256_ilp.cpp:209:                         float TR = p.SUB[ind_rtop + k];
	.loc 1 209 31 discriminator 69632 view .LVU936
	vcvtdq2ps	xmm6, xmm6	# vect_TR_1068.413_819, tmp1244
	vfmadd132ps	xmm6, xmm20, xmm12	# _1321, vect__1053.409_837, _243
.LVL143:
	.loc 1 211 25 is_stmt 1 view .LVU937
# src/avx_analysis_code_ablations/opt10_abl_tile_8x256_ilp.cpp:211:                         float BR = p.SUB[ind_rbot + k];
	.loc 1 211 31 is_stmt 0 discriminator 69632 view .LVU938
	vpmovsxwd	xmm20, xmm8	# tmp1253, vect_BR_1060.402
	vpsrldq	xmm4, xmm4, 8	# tmp1251, MEM <const vector(16) unsigned char> [(const unsigned char *)vectp.399_872],
	vcvtdq2ps	xmm20, xmm20	# vect_BR_1060.401_864, tmp1253
	vfmadd132ps	xmm20, xmm22, xmm10	# _935, tmp1254, _476
	vpsrldq	xmm22, xmm8, 8	# tmp1260, vect_BR_1060.402,
	vpmovzxbw	xmm4, xmm4	# vect_BR_1060.402, tmp1251
.LVL144:
	.loc 1 212 25 is_stmt 1 view .LVU939
# src/avx_analysis_code_ablations/opt10_abl_tile_8x256_ilp.cpp:208:                         float TL = p.SUB[ind_ltop + k];
	.loc 1 208 31 is_stmt 0 discriminator 69632 view .LVU940
	vpsrldq	xmm8, xmm21, 8	# tmp1264, vect_TL_1072.426,
	vpmovsxwd	xmm21, xmm7	# tmp1270, vect_TL_1072.426
# src/avx_analysis_code_ablations/opt10_abl_tile_8x256_ilp.cpp:211:                         float BR = p.SUB[ind_rbot + k];
	.loc 1 211 31 discriminator 69632 view .LVU941
	vpmovsxwd	xmm22, xmm22	# tmp1259, tmp1260
# src/avx_analysis_code_ablations/opt10_abl_tile_8x256_ilp.cpp:208:                         float TL = p.SUB[ind_ltop + k];
	.loc 1 208 31 discriminator 69632 view .LVU942
	vpmovsxwd	xmm8, xmm8	# tmp1263, tmp1264
	vpsrldq	xmm7, xmm7, 8	# tmp1279, vect_TL_1072.426,
	vcvtdq2ps	xmm21, xmm21	# vect_TL_1072.425_685, tmp1270
# src/avx_analysis_code_ablations/opt10_abl_tile_8x256_ilp.cpp:211:                         float BR = p.SUB[ind_rbot + k];
	.loc 1 211 31 discriminator 69632 view .LVU943
	vcvtdq2ps	xmm22, xmm22	# vect_BR_1060.401_863, tmp1259
# src/avx_analysis_code_ablations/opt10_abl_tile_8x256_ilp.cpp:208:                         float TL = p.SUB[ind_ltop + k];
	.loc 1 208 31 discriminator 69632 view .LVU944
	vcvtdq2ps	xmm8, xmm8	# vect_TL_1072.425_686, tmp1263
	vfmadd213ps	xmm8, xmm11, XMMWORD PTR 16[r10]	# tmp1261, _54, MEM <vector(4) float> [(float *)vectp_vp.417_810 + 16B]
	vfmadd213ps	xmm21, xmm11, XMMWORD PTR 32[r10]	# tmp1268, _54, MEM <vector(4) float> [(float *)vectp_vp.417_810 + 32B]
	vpmovsxwd	xmm7, xmm7	# tmp1278, tmp1279
	vcvtdq2ps	xmm7, xmm7	# vect_TL_1072.425_684, tmp1278
# src/avx_analysis_code_ablations/opt10_abl_tile_8x256_ilp.cpp:212:                         vp[k] += p.A*TL + p.B*TR + p.C*BL + p.D*BR;
	.loc 1 212 31 discriminator 69632 view .LVU945
	vfmadd213ps	xmm7, xmm11, XMMWORD PTR 48[r10]	# tmp1276, _54, MEM <vector(4) float> [(float *)vectp_vp.417_810 + 48B]
	vaddps	xmm19, xmm19, xmm20	# vect__1049.431_648, _926, _935
	vfmadd132ps	xmm22, xmm8, xmm10	# _775, tmp1261, _476
# src/avx_analysis_code_ablations/opt10_abl_tile_8x256_ilp.cpp:211:                         float BR = p.SUB[ind_rbot + k];
	.loc 1 211 31 discriminator 69632 view .LVU946
	vpmovsxwd	xmm8, xmm4	# tmp1267, vect_BR_1060.402
# src/avx_analysis_code_ablations/opt10_abl_tile_8x256_ilp.cpp:212:                         vp[k] += p.A*TL + p.B*TR + p.C*BL + p.D*BR;
	.loc 1 212 31 discriminator 69632 view .LVU947
	vmovups	XMMWORD PTR [r10], xmm19	# MEM <vector(4) float> [(float *)vectp_vp.417_810], vect__1049.431_648
# src/avx_analysis_code_ablations/opt10_abl_tile_8x256_ilp.cpp:211:                         float BR = p.SUB[ind_rbot + k];
	.loc 1 211 31 discriminator 69632 view .LVU948
	vpsrldq	xmm4, xmm4, 8	# tmp1275, vect_BR_1060.402,
	vcvtdq2ps	xmm8, xmm8	# vect_BR_1060.401_862, tmp1267
	vfmadd132ps	xmm8, xmm21, xmm10	# _716, tmp1268, _476
	vpmovsxwd	xmm4, xmm4	# tmp1274, tmp1275
	vcvtdq2ps	xmm4, xmm4	# vect_BR_1060.401_861, tmp1274
# src/avx_analysis_code_ablations/opt10_abl_tile_8x256_ilp.cpp:212:                         vp[k] += p.A*TL + p.B*TR + p.C*BL + p.D*BR;
	.loc 1 212 31 discriminator 69632 view .LVU949
	vfmadd132ps	xmm4, xmm7, xmm10	# tmp1272, tmp1276, _476
	vaddps	xmm9, xmm9, xmm22	# vect__1049.431_647, _744, _775
	vaddps	xmm14, xmm14, xmm8	# vect__1049.431_645, _560, _716
	vaddps	xmm4, xmm4, xmm6	# vect__1049.431, tmp1272, _1321
	vmovups	XMMWORD PTR 16[r10], xmm9	# MEM <vector(4) float> [(float *)vectp_vp.417_810 + 16B], vect__1049.431_647
	vmovups	XMMWORD PTR 32[r10], xmm14	# MEM <vector(4) float> [(float *)vectp_vp.417_810 + 32B], vect__1049.431_645
	vmovups	XMMWORD PTR 48[r10], xmm4	# MEM <vector(4) float> [(float *)vectp_vp.417_810 + 48B], vect__1049.431
.LBE3134:
	.loc 1 207 21 is_stmt 1 discriminator 1 view .LVU950
	.loc 1 207 39 discriminator 2 view .LVU951
	mov	r10d, r14d	# niters_vector_mult_vf.396, niters.394
	and	r10d, -16	# niters_vector_mult_vf.396,
	test	r14b, 15	# niters.394,
	je	.L39	#,
	add	r9d, r10d	# tmp.357, niters_vector_mult_vf.396
.LVL145:
.L42:
	.loc 1 207 39 is_stmt 0 discriminator 2 view .LVU952
	sub	r14d, r10d	# niters.434, niters_vector_mult_vf.396
	lea	r13d, -1[r14]	# _487,
	cmp	r13d, 6	# _487,
	jbe	.L43	#,
	add	r10d, r11d	# _460, niters_vector_mult_vf.356
	mov	r10d, r10d	# _460, _460
.LBB3135:
# src/avx_analysis_code_ablations/opt10_abl_tile_8x256_ilp.cpp:208:                         float TL = p.SUB[ind_ltop + k];
	.loc 1 208 54 discriminator 133120 view .LVU953
	vmovq	xmm4, QWORD PTR [rdx+r10]	# MEM <const vector(8) unsigned char> [(const unsigned char *)vectp.466_47], MEM <const vector(8) unsigned char> [(const unsigned char *)vectp.466_47]
	lea	r15, [r12+r10]	# _457,
	lea	r13, [rax+r10*4]	# vectp_vp.460,
	.loc 1 208 25 is_stmt 1 view .LVU954
# src/avx_analysis_code_ablations/opt10_abl_tile_8x256_ilp.cpp:208:                         float TL = p.SUB[ind_ltop + k];
	.loc 1 208 31 is_stmt 0 discriminator 133120 view .LVU955
	vpmovzxbw	xmm7, xmm4	# vect_TL_915.469, MEM <const vector(8) unsigned char> [(const unsigned char *)vectp.466_47]
	vpsrlq	xmm4, xmm4, 32	# tmp1296, MEM <const vector(8) unsigned char> [(const unsigned char *)vectp.466_47],
	vpmovzxbw	xmm6, xmm4	# vect_TL_915.469, tmp1296
# src/avx_analysis_code_ablations/opt10_abl_tile_8x256_ilp.cpp:209:                         float TR = p.SUB[ind_rtop + k];
	.loc 1 209 54 discriminator 133120 view .LVU956
	vmovq	xmm4, QWORD PTR [rcx+r10]	# MEM <const vector(8) unsigned char> [(const unsigned char *)vectp.453_235], MEM <const vector(8) unsigned char> [(const unsigned char *)vectp.453_235]
# src/avx_analysis_code_ablations/opt10_abl_tile_8x256_ilp.cpp:208:                         float TL = p.SUB[ind_ltop + k];
	.loc 1 208 31 discriminator 133120 view .LVU957
	vmovq	r11, xmm6	# vect_TL_915.469, vect_TL_915.469
.LVL146:
	.loc 1 209 25 is_stmt 1 view .LVU958
# src/avx_analysis_code_ablations/opt10_abl_tile_8x256_ilp.cpp:210:                         float BL = p.SUB[ind_lbot + k];
	.loc 1 210 54 is_stmt 0 discriminator 133120 view .LVU959
	vmovq	xmm6, QWORD PTR [rsi+r10]	# MEM <const vector(8) unsigned char> [(const unsigned char *)vectp.446_368], MEM <const vector(8) unsigned char> [(const unsigned char *)vectp.446_368]
	mov	r10d, r14d	# niters_vector_mult_vf.436, niters.434
# src/avx_analysis_code_ablations/opt10_abl_tile_8x256_ilp.cpp:209:                         float TR = p.SUB[ind_rtop + k];
	.loc 1 209 31 discriminator 133120 view .LVU960
	vpmovzxbw	xmm9, xmm4	# vect_TR_911.456, MEM <const vector(8) unsigned char> [(const unsigned char *)vectp.453_235]
	vpsrlq	xmm4, xmm4, 32	# tmp1300, MEM <const vector(8) unsigned char> [(const unsigned char *)vectp.453_235],
	and	r10d, -8	# niters_vector_mult_vf.436,
	and	r14d, 7	# niters.434,
	vpmovzxwd	xmm14, xmm9	# vect_TR_911.455_198, vect_TR_911.456
# src/avx_analysis_code_ablations/opt10_abl_tile_8x256_ilp.cpp:210:                         float BL = p.SUB[ind_lbot + k];
	.loc 1 210 31 discriminator 133120 view .LVU961
	vpmovzxbw	xmm8, xmm6	# vect_BL_907.449, MEM <const vector(8) unsigned char> [(const unsigned char *)vectp.446_368]
# src/avx_analysis_code_ablations/opt10_abl_tile_8x256_ilp.cpp:209:                         float TR = p.SUB[ind_rtop + k];
	.loc 1 209 31 discriminator 133120 view .LVU962
	vpmovzxbw	xmm4, xmm4	# vect_TR_911.456, tmp1300
.LVL147:
	.loc 1 210 25 is_stmt 1 view .LVU963
# src/avx_analysis_code_ablations/opt10_abl_tile_8x256_ilp.cpp:209:                         float TR = p.SUB[ind_rtop + k];
	.loc 1 209 31 is_stmt 0 discriminator 133120 view .LVU964
	vpsrlq	xmm9, xmm9, 32	# tmp1322, vect_TR_911.456,
# src/avx_analysis_code_ablations/opt10_abl_tile_8x256_ilp.cpp:210:                         float BL = p.SUB[ind_lbot + k];
	.loc 1 210 31 discriminator 133120 view .LVU965
	vpsrlq	xmm6, xmm6, 32	# tmp1304, MEM <const vector(8) unsigned char> [(const unsigned char *)vectp.446_368],
# src/avx_analysis_code_ablations/opt10_abl_tile_8x256_ilp.cpp:209:                         float TR = p.SUB[ind_rtop + k];
	.loc 1 209 31 discriminator 133120 view .LVU966
	vmovq	xmm14, xmm14	# tmp1307, vect_TR_911.455_198
	vcvtdq2ps	xmm20, xmm14	# tmp1308, tmp1307
# src/avx_analysis_code_ablations/opt10_abl_tile_8x256_ilp.cpp:210:                         float BL = p.SUB[ind_lbot + k];
	.loc 1 210 31 discriminator 133120 view .LVU967
	vpmovzxwd	xmm14, xmm8	# vect_BL_907.448_264, vect_BL_907.449
	vpsrlq	xmm8, xmm8, 32	# tmp1327, vect_BL_907.449,
# src/avx_analysis_code_ablations/opt10_abl_tile_8x256_ilp.cpp:209:                         float TR = p.SUB[ind_rtop + k];
	.loc 1 209 31 discriminator 133120 view .LVU968
	vpmovzxwd	xmm9, xmm9	# vect_TR_911.455_197, tmp1322
# src/avx_analysis_code_ablations/opt10_abl_tile_8x256_ilp.cpp:210:                         float BL = p.SUB[ind_lbot + k];
	.loc 1 210 31 discriminator 133120 view .LVU969
	vpmovzxwd	xmm8, xmm8	# vect_BL_907.448_263, tmp1327
# src/avx_analysis_code_ablations/opt10_abl_tile_8x256_ilp.cpp:209:                         float TR = p.SUB[ind_rtop + k];
	.loc 1 209 31 discriminator 133120 view .LVU970
	vmovq	xmm9, xmm9	# tmp1324, vect_TR_911.455_197
# src/avx_analysis_code_ablations/opt10_abl_tile_8x256_ilp.cpp:210:                         float BL = p.SUB[ind_lbot + k];
	.loc 1 210 31 discriminator 133120 view .LVU971
	vpmovzxbw	xmm6, xmm6	# vect_BL_907.449, tmp1304
	vmovq	xmm8, xmm8	# tmp1329, vect_BL_907.448_263
# src/avx_analysis_code_ablations/opt10_abl_tile_8x256_ilp.cpp:209:                         float TR = p.SUB[ind_rtop + k];
	.loc 1 209 31 discriminator 133120 view .LVU972
	vcvtdq2ps	xmm9, xmm9	# tmp1325, tmp1324
# src/avx_analysis_code_ablations/opt10_abl_tile_8x256_ilp.cpp:210:                         float BL = p.SUB[ind_lbot + k];
	.loc 1 210 31 discriminator 133120 view .LVU973
	vmovq	xmm19, xmm14	# tmp1311, vect_BL_907.448_264
	vcvtdq2ps	xmm8, xmm8	# tmp1330, tmp1329
# src/avx_analysis_code_ablations/opt10_abl_tile_8x256_ilp.cpp:212:                         vp[k] += p.A*TL + p.B*TR + p.C*BL + p.D*BR;
	.loc 1 212 55 discriminator 133120 view .LVU974
	vmulps	xmm8, xmm8, xmm13	# tmp1334, tmp1330, _384
# src/avx_analysis_code_ablations/opt10_abl_tile_8x256_ilp.cpp:210:                         float BL = p.SUB[ind_lbot + k];
	.loc 1 210 31 discriminator 133120 view .LVU975
	vcvtdq2ps	xmm19, xmm19	# tmp1312, tmp1311
# src/avx_analysis_code_ablations/opt10_abl_tile_8x256_ilp.cpp:212:                         vp[k] += p.A*TL + p.B*TR + p.C*BL + p.D*BR;
	.loc 1 212 55 discriminator 133120 view .LVU976
	vmulps	xmm19, xmm19, xmm13	# tmp1316, tmp1312, _384
	vfmadd132ps	xmm9, xmm8, xmm12	# tmp1325, tmp1334, _243
# src/avx_analysis_code_ablations/opt10_abl_tile_8x256_ilp.cpp:209:                         float TR = p.SUB[ind_rtop + k];
	.loc 1 209 31 discriminator 133120 view .LVU977
	vpmovzxwd	xmm8, xmm4	# vect_TR_911.455_195, vect_TR_911.456
	vmovq	xmm8, xmm8	# tmp1341, vect_TR_911.455_195
	vfmadd231ps	xmm19, xmm20, xmm12	# tmp1320, tmp1308, _243
	vcvtdq2ps	xmm14, xmm8	# tmp1342, tmp1341
	vmovaps	xmm21, xmm9	# tmp1338, tmp1325
# src/avx_analysis_code_ablations/opt10_abl_tile_8x256_ilp.cpp:210:                         float BL = p.SUB[ind_lbot + k];
	.loc 1 210 31 discriminator 133120 view .LVU978
	vpmovzxwd	xmm9, xmm6	# vect_BL_907.448_262, vect_BL_907.449
	vmovq	xmm9, xmm9	# tmp1345, vect_BL_907.448_262
	vpsrlq	xmm6, xmm6, 32	# tmp1361, vect_BL_907.449,
	vcvtdq2ps	xmm9, xmm9	# tmp1346, tmp1345
# src/avx_analysis_code_ablations/opt10_abl_tile_8x256_ilp.cpp:212:                         vp[k] += p.A*TL + p.B*TR + p.C*BL + p.D*BR;
	.loc 1 212 55 discriminator 133120 view .LVU979
	vmulps	xmm9, xmm9, xmm13	# tmp1350, tmp1346, _384
# src/avx_analysis_code_ablations/opt10_abl_tile_8x256_ilp.cpp:210:                         float BL = p.SUB[ind_lbot + k];
	.loc 1 210 31 discriminator 133120 view .LVU980
	vpmovzxwd	xmm6, xmm6	# vect_BL_907.448_259, tmp1361
	vmovq	xmm6, xmm6	# tmp1363, vect_BL_907.448_259
	vcvtdq2ps	xmm6, xmm6	# tmp1364, tmp1363
# src/avx_analysis_code_ablations/opt10_abl_tile_8x256_ilp.cpp:212:                         vp[k] += p.A*TL + p.B*TR + p.C*BL + p.D*BR;
	.loc 1 212 55 discriminator 133120 view .LVU981
	vmulps	xmm6, xmm6, xmm13	# tmp1368, tmp1364, _384
	vfmadd132ps	xmm14, xmm9, xmm12	# tmp1342, tmp1350, _243
# src/avx_analysis_code_ablations/opt10_abl_tile_8x256_ilp.cpp:212:                         vp[k] += p.A*TL + p.B*TR + p.C*BL + p.D*BR;
	.loc 1 212 29 discriminator 133120 view .LVU982
	vmovq	xmm9, QWORD PTR 0[r13]	# vect__900.461_147, MEM <vector(2) float> [(float *)vectp_vp.460_176]
	vmovaps	xmm22, xmm14	# tmp1354, tmp1342
# src/avx_analysis_code_ablations/opt10_abl_tile_8x256_ilp.cpp:209:                         float TR = p.SUB[ind_rtop + k];
	.loc 1 209 31 discriminator 133120 view .LVU983
	vpsrlq	xmm14, xmm4, 32	# tmp1356, vect_TR_911.456,
# src/avx_analysis_code_ablations/opt10_abl_tile_8x256_ilp.cpp:211:                         float BR = p.SUB[ind_rbot + k];
	.loc 1 211 54 discriminator 133120 view .LVU984
	vmovq	xmm4, QWORD PTR [r8+r15]	# MEM <const vector(8) unsigned char> [(const unsigned char *)vectp.439_469], MEM <const vector(8) unsigned char> [(const unsigned char *)vectp.439_469]
# src/avx_analysis_code_ablations/opt10_abl_tile_8x256_ilp.cpp:209:                         float TR = p.SUB[ind_rtop + k];
	.loc 1 209 31 discriminator 133120 view .LVU985
	vpmovzxwd	xmm14, xmm14	# vect_TR_911.455_193, tmp1356
	vmovq	xmm14, xmm14	# tmp1358, vect_TR_911.455_193
	vcvtdq2ps	xmm14, xmm14	# tmp1359, tmp1358
	vfmadd132ps	xmm14, xmm6, xmm12	# tmp1372, tmp1368, _243
.LVL148:
	.loc 1 211 25 is_stmt 1 view .LVU986
# src/avx_analysis_code_ablations/opt10_abl_tile_8x256_ilp.cpp:211:                         float BR = p.SUB[ind_rbot + k];
	.loc 1 211 31 is_stmt 0 discriminator 133120 view .LVU987
	vpmovzxbw	xmm6, xmm4	# vect_BR_903.442, MEM <const vector(8) unsigned char> [(const unsigned char *)vectp.439_469]
	vpmovzxwd	xmm8, xmm6	# vect_BR_903.441_438, vect_BR_903.442
	vpsrlq	xmm6, xmm6, 32	# tmp1394, vect_BR_903.442,
	vmovq	xmm8, xmm8	# tmp1377, vect_BR_903.441_438
	vpsrlq	xmm4, xmm4, 32	# tmp1374, MEM <const vector(8) unsigned char> [(const unsigned char *)vectp.439_469],
	vpmovzxwd	xmm6, xmm6	# vect_BR_903.441_437, tmp1394
	vcvtdq2ps	xmm20, xmm8	# tmp1378, tmp1377
# src/avx_analysis_code_ablations/opt10_abl_tile_8x256_ilp.cpp:208:                         float TL = p.SUB[ind_ltop + k];
	.loc 1 208 31 discriminator 133120 view .LVU988
	vpmovzxwd	xmm8, xmm7	# vect_TL_915.468_164, vect_TL_915.469
	vpsrlq	xmm7, xmm7, 32	# tmp1400, vect_TL_915.469,
# src/avx_analysis_code_ablations/opt10_abl_tile_8x256_ilp.cpp:211:                         float BR = p.SUB[ind_rbot + k];
	.loc 1 211 31 discriminator 133120 view .LVU989
	vpmovzxbw	xmm4, xmm4	# vect_BR_903.442, tmp1374
.LVL149:
	.loc 1 212 25 is_stmt 1 view .LVU990
# src/avx_analysis_code_ablations/opt10_abl_tile_8x256_ilp.cpp:208:                         float TL = p.SUB[ind_ltop + k];
	.loc 1 208 31 is_stmt 0 discriminator 133120 view .LVU991
	vmovq	xmm8, xmm8	# tmp1382, vect_TL_915.468_164
	vpmovzxwd	xmm7, xmm7	# vect_TL_915.468_165, tmp1400
# src/avx_analysis_code_ablations/opt10_abl_tile_8x256_ilp.cpp:211:                         float BR = p.SUB[ind_rbot + k];
	.loc 1 211 31 discriminator 133120 view .LVU992
	vmovq	xmm6, xmm6	# tmp1396, vect_BR_903.441_437
# src/avx_analysis_code_ablations/opt10_abl_tile_8x256_ilp.cpp:208:                         float TL = p.SUB[ind_ltop + k];
	.loc 1 208 31 discriminator 133120 view .LVU993
	vcvtdq2ps	xmm8, xmm8	# tmp1383, tmp1382
	vfmadd231ps	xmm9, xmm11, xmm8	# tmp1388, _54, tmp1383
# src/avx_analysis_code_ablations/opt10_abl_tile_8x256_ilp.cpp:212:                         vp[k] += p.A*TL + p.B*TR + p.C*BL + p.D*BR;
	.loc 1 212 29 discriminator 133120 view .LVU994
	vmovq	xmm8, QWORD PTR 8[r13]	# vect__900.462_144, MEM <vector(2) float> [(float *)vectp_vp.460_176 + 8B]
# src/avx_analysis_code_ablations/opt10_abl_tile_8x256_ilp.cpp:208:                         float TL = p.SUB[ind_ltop + k];
	.loc 1 208 31 discriminator 133120 view .LVU995
	vmovq	xmm7, xmm7	# tmp1402, vect_TL_915.468_165
# src/avx_analysis_code_ablations/opt10_abl_tile_8x256_ilp.cpp:211:                         float BR = p.SUB[ind_rbot + k];
	.loc 1 211 31 discriminator 133120 view .LVU996
	vcvtdq2ps	xmm6, xmm6	# tmp1397, tmp1396
# src/avx_analysis_code_ablations/opt10_abl_tile_8x256_ilp.cpp:208:                         float TL = p.SUB[ind_ltop + k];
	.loc 1 208 31 discriminator 133120 view .LVU997
	vcvtdq2ps	xmm7, xmm7	# tmp1403, tmp1402
	vfmadd132ps	xmm7, xmm8, xmm11	# tmp1408, vect__900.462_144, _54
	vfmadd132ps	xmm20, xmm9, xmm10	# tmp1392, tmp1388, _476
	vmovq	xmm9, r11	# vect_TL_915.469, vect_TL_915.469
	vpmovzxwd	xmm8, xmm9	# vect_TL_915.468_170, vect_TL_915.469
# src/avx_analysis_code_ablations/opt10_abl_tile_8x256_ilp.cpp:212:                         vp[k] += p.A*TL + p.B*TR + p.C*BL + p.D*BR;
	.loc 1 212 29 discriminator 133120 view .LVU998
	vmovq	xmm9, QWORD PTR 16[r13]	# vect__900.463_141, MEM <vector(2) float> [(float *)vectp_vp.460_176 + 16B]
# src/avx_analysis_code_ablations/opt10_abl_tile_8x256_ilp.cpp:208:                         float TL = p.SUB[ind_ltop + k];
	.loc 1 208 31 discriminator 133120 view .LVU999
	vmovq	xmm8, xmm8	# tmp1420, vect_TL_915.468_170
	vfmadd132ps	xmm6, xmm7, xmm10	# tmp1412, tmp1408, _476
# src/avx_analysis_code_ablations/opt10_abl_tile_8x256_ilp.cpp:211:                         float BR = p.SUB[ind_rbot + k];
	.loc 1 211 31 discriminator 133120 view .LVU1000
	vpmovzxwd	xmm7, xmm4	# vect_BR_903.441_436, vect_BR_903.442
# src/avx_analysis_code_ablations/opt10_abl_tile_8x256_ilp.cpp:208:                         float TL = p.SUB[ind_ltop + k];
	.loc 1 208 31 discriminator 133120 view .LVU1001
	vcvtdq2ps	xmm8, xmm8	# tmp1421, tmp1420
	vfmadd132ps	xmm8, xmm9, xmm11	# tmp1426, vect__900.463_141, _54
# src/avx_analysis_code_ablations/opt10_abl_tile_8x256_ilp.cpp:211:                         float BR = p.SUB[ind_rbot + k];
	.loc 1 211 31 discriminator 133120 view .LVU1002
	vmovq	xmm7, xmm7	# tmp1415, vect_BR_903.441_436
# src/avx_analysis_code_ablations/opt10_abl_tile_8x256_ilp.cpp:208:                         float TL = p.SUB[ind_ltop + k];
	.loc 1 208 31 discriminator 133120 view .LVU1003
	vmovq	xmm9, r11	# tmp2001, vect_TL_915.469
# src/avx_analysis_code_ablations/opt10_abl_tile_8x256_ilp.cpp:211:                         float BR = p.SUB[ind_rbot + k];
	.loc 1 211 31 discriminator 133120 view .LVU1004
	vcvtdq2ps	xmm7, xmm7	# tmp1416, tmp1415
	vpsrlq	xmm4, xmm4, 32	# tmp1433, vect_BR_903.442,
	vpmovzxwd	xmm4, xmm4	# vect_BR_903.441_434, tmp1433
	vmovq	xmm4, xmm4	# tmp1435, vect_BR_903.441_434
	vcvtdq2ps	xmm4, xmm4	# tmp1436, tmp1435
# src/avx_analysis_code_ablations/opt10_abl_tile_8x256_ilp.cpp:212:                         vp[k] += p.A*TL + p.B*TR + p.C*BL + p.D*BR;
	.loc 1 212 31 discriminator 133120 view .LVU1005
	vaddps	xmm6, xmm21, xmm6	# tmp1462, tmp1338, tmp1412
	vfmadd132ps	xmm7, xmm8, xmm10	# tmp1430, tmp1426, _476
# src/avx_analysis_code_ablations/opt10_abl_tile_8x256_ilp.cpp:208:                         float TL = p.SUB[ind_ltop + k];
	.loc 1 208 31 discriminator 133120 view .LVU1006
	vpsrlq	xmm8, xmm9, 32	# tmp1439, tmp2001,
# src/avx_analysis_code_ablations/opt10_abl_tile_8x256_ilp.cpp:212:                         vp[k] += p.A*TL + p.B*TR + p.C*BL + p.D*BR;
	.loc 1 212 29 discriminator 133120 view .LVU1007
	vmovq	xmm9, QWORD PTR 24[r13]	# vect__900.464_55, MEM <vector(2) float> [(float *)vectp_vp.460_176 + 24B]
# src/avx_analysis_code_ablations/opt10_abl_tile_8x256_ilp.cpp:208:                         float TL = p.SUB[ind_ltop + k];
	.loc 1 208 31 discriminator 133120 view .LVU1008
	vpmovzxwd	xmm8, xmm8	# vect_TL_915.468_473, tmp1439
	vmovq	xmm8, xmm8	# tmp1441, vect_TL_915.468_473
# src/avx_analysis_code_ablations/opt10_abl_tile_8x256_ilp.cpp:212:                         vp[k] += p.A*TL + p.B*TR + p.C*BL + p.D*BR;
	.loc 1 212 31 discriminator 133120 view .LVU1009
	vmovlps	QWORD PTR 8[r13], xmm6	# MEM <vector(2) float> [(float *)vectp_vp.460_176 + 8B], tmp1462
# src/avx_analysis_code_ablations/opt10_abl_tile_8x256_ilp.cpp:208:                         float TL = p.SUB[ind_ltop + k];
	.loc 1 208 31 discriminator 133120 view .LVU1010
	vcvtdq2ps	xmm8, xmm8	# tmp1442, tmp1441
# src/avx_analysis_code_ablations/opt10_abl_tile_8x256_ilp.cpp:212:                         vp[k] += p.A*TL + p.B*TR + p.C*BL + p.D*BR;
	.loc 1 212 31 discriminator 133120 view .LVU1011
	vfmadd132ps	xmm8, xmm9, xmm11	# tmp1447, vect__900.464_55, _54
	vaddps	xmm6, xmm22, xmm7	# tmp1466, tmp1354, tmp1430
	vfmadd132ps	xmm4, xmm8, xmm10	# tmp1451, tmp1447, _476
	vaddps	xmm8, xmm19, xmm20	# tmp1458, tmp1320, tmp1392
	vmovlps	QWORD PTR 16[r13], xmm6	# MEM <vector(2) float> [(float *)vectp_vp.460_176 + 16B], tmp1466
	vmovlps	QWORD PTR 0[r13], xmm8	# MEM <vector(2) float> [(float *)vectp_vp.460_176], tmp1458
	vaddps	xmm4, xmm4, xmm14	# tmp1454, tmp1451, tmp1372
	vmovlps	QWORD PTR 24[r13], xmm4	# MEM <vector(2) float> [(float *)vectp_vp.460_176 + 24B], tmp1454
.LBE3135:
	.loc 1 207 21 is_stmt 1 discriminator 1 view .LVU1012
	.loc 1 207 39 discriminator 2 view .LVU1013
	je	.L39	#,
	add	r9d, r10d	# tmp.357, niters_vector_mult_vf.436
.LVL150:
.L43:
.LBB3136:
	.loc 1 208 25 view .LVU1014
# src/avx_analysis_code_ablations/opt10_abl_tile_8x256_ilp.cpp:208:                         float TL = p.SUB[ind_ltop + k];
	.loc 1 208 53 is_stmt 0 discriminator 163840 view .LVU1015
	movsxd	r10, r9d	# _695, tmp.357
.LVL151:
	.loc 1 209 25 is_stmt 1 view .LVU1016
	.loc 1 210 25 view .LVU1017
	.loc 1 211 25 view .LVU1018
	.loc 1 212 25 view .LVU1019
# src/avx_analysis_code_ablations/opt10_abl_tile_8x256_ilp.cpp:211:                         float BR = p.SUB[ind_rbot + k];
	.loc 1 211 54 is_stmt 0 discriminator 163840 view .LVU1020
	add	r8, r12	# tmp1482, ind_rbot
# src/avx_analysis_code_ablations/opt10_abl_tile_8x256_ilp.cpp:208:                         float TL = p.SUB[ind_ltop + k];
	.loc 1 208 31 discriminator 163840 view .LVU1021
	movzx	r14d, BYTE PTR [rdx+r10]	# *_1104, *_1104
# src/avx_analysis_code_ablations/opt10_abl_tile_8x256_ilp.cpp:212:                         vp[k] += p.A*TL + p.B*TR + p.C*BL + p.D*BR;
	.loc 1 212 29 discriminator 163840 view .LVU1022
	lea	r11, 0[0+r10*4]	# _132,
# src/avx_analysis_code_ablations/opt10_abl_tile_8x256_ilp.cpp:208:                         float TL = p.SUB[ind_ltop + k];
	.loc 1 208 31 discriminator 163840 view .LVU1023
	vcvtusi2ss	xmm4, xmm5, r14d	# tmp1699, tmp1698, *_1104
# src/avx_analysis_code_ablations/opt10_abl_tile_8x256_ilp.cpp:209:                         float TR = p.SUB[ind_rtop + k];
	.loc 1 209 31 discriminator 163840 view .LVU1024
	movzx	r14d, BYTE PTR [rcx+r10]	# *_123, *_123
	vmovaps	xmm7, xmm4	# TL_1156, TL_1156
	vcvtusi2ss	xmm4, xmm5, r14d	# tmp1700, tmp1698, *_123
# src/avx_analysis_code_ablations/opt10_abl_tile_8x256_ilp.cpp:210:                         float BL = p.SUB[ind_lbot + k];
	.loc 1 210 31 discriminator 163840 view .LVU1025
	movzx	r14d, BYTE PTR [rsi+r10]	# *_308, *_308
# src/avx_analysis_code_ablations/opt10_abl_tile_8x256_ilp.cpp:211:                         float BR = p.SUB[ind_rbot + k];
	.loc 1 211 31 discriminator 163840 view .LVU1026
	movzx	r10d, BYTE PTR [r8+r10]	# *_309, *_309
	vfmadd213ss	xmm7, xmm18, DWORD PTR [rax+r11]	# TL_1156, _79, *_310
# src/avx_analysis_code_ablations/opt10_abl_tile_8x256_ilp.cpp:210:                         float BL = p.SUB[ind_lbot + k];
	.loc 1 210 31 discriminator 163840 view .LVU1027
	vcvtusi2ss	xmm6, xmm5, r14d	# tmp1701, tmp1698, *_308
# src/avx_analysis_code_ablations/opt10_abl_tile_8x256_ilp.cpp:212:                         vp[k] += p.A*TL + p.B*TR + p.C*BL + p.D*BR;
	.loc 1 212 55 discriminator 163840 view .LVU1028
	vmulss	xmm6, xmm6, xmm16	# _136, BL_128, _81
	vfmadd231ss	xmm6, xmm17, xmm4	# _1281, _80, TR_125
# src/avx_analysis_code_ablations/opt10_abl_tile_8x256_ilp.cpp:211:                         float BR = p.SUB[ind_rbot + k];
	.loc 1 211 31 discriminator 163840 view .LVU1029
	vcvtusi2ss	xmm4, xmm5, r10d	# tmp1702, tmp1698, *_309
.LBE3136:
# src/avx_analysis_code_ablations/opt10_abl_tile_8x256_ilp.cpp:207:                     for (int k = 0; k < remaining; ++k) {
	.loc 1 207 21 discriminator 163841 view .LVU1030
	lea	r10d, 1[r9]	#,
.LBB3137:
# src/avx_analysis_code_ablations/opt10_abl_tile_8x256_ilp.cpp:212:                         vp[k] += p.A*TL + p.B*TR + p.C*BL + p.D*BR;
	.loc 1 212 31 discriminator 163840 view .LVU1031
	vfmadd132ss	xmm4, xmm7, xmm15	# tmp1481, _1275, _82
	vaddss	xmm4, xmm4, xmm6	# _142, tmp1481, _1281
	vmovss	DWORD PTR [rax+r11], xmm4	# *_310, _142
.LBE3137:
	.loc 1 207 21 is_stmt 1 discriminator 1 view .LVU1032
.LVL152:
	.loc 1 207 39 discriminator 2 view .LVU1033
# src/avx_analysis_code_ablations/opt10_abl_tile_8x256_ilp.cpp:207:                     for (int k = 0; k < remaining; ++k) {
	.loc 1 207 39 is_stmt 0 discriminator 163842 view .LVU1034
	cmp	r10d, ebx	# k, remaining
	jge	.L39	#,
.LBB3138:
	.loc 1 208 25 is_stmt 1 view .LVU1035
	.loc 1 209 25 view .LVU1036
	.loc 1 210 25 view .LVU1037
	.loc 1 211 25 view .LVU1038
	.loc 1 212 25 view .LVU1039
# src/avx_analysis_code_ablations/opt10_abl_tile_8x256_ilp.cpp:208:                         float TL = p.SUB[ind_ltop + k];
	.loc 1 208 31 is_stmt 0 discriminator 196608 view .LVU1040
	movzx	r13d, BYTE PTR [rdx+r10]	# *_313, *_313
	vcvtusi2ss	xmm4, xmm5, r13d	# tmp1703, tmp1698, *_313
# src/avx_analysis_code_ablations/opt10_abl_tile_8x256_ilp.cpp:209:                         float TR = p.SUB[ind_rtop + k];
	.loc 1 209 31 discriminator 196608 view .LVU1041
	movzx	r13d, BYTE PTR [rcx+r10]	# *_1074, *_1074
	vmovaps	xmm7, xmm4	# TL_1076, TL_1076
	vcvtusi2ss	xmm4, xmm5, r13d	# tmp1704, tmp1698, *_1074
# src/avx_analysis_code_ablations/opt10_abl_tile_8x256_ilp.cpp:210:                         float BL = p.SUB[ind_lbot + k];
	.loc 1 210 31 discriminator 196608 view .LVU1042
	movzx	r13d, BYTE PTR [rsi+r10]	# *_1070, *_1070
# src/avx_analysis_code_ablations/opt10_abl_tile_8x256_ilp.cpp:211:                         float BR = p.SUB[ind_rbot + k];
	.loc 1 211 31 discriminator 196608 view .LVU1043
	movzx	r10d, BYTE PTR [r8+r10]	# *_1066, *_1066
.LVL153:
	.loc 1 211 31 discriminator 196608 view .LVU1044
	vfmadd213ss	xmm7, xmm18, DWORD PTR 4[rax+r11]	# TL_1076, _79, *_1062
# src/avx_analysis_code_ablations/opt10_abl_tile_8x256_ilp.cpp:210:                         float BL = p.SUB[ind_lbot + k];
	.loc 1 210 31 discriminator 196608 view .LVU1045
	vcvtusi2ss	xmm6, xmm5, r13d	# tmp1705, tmp1698, *_1070
# src/avx_analysis_code_ablations/opt10_abl_tile_8x256_ilp.cpp:212:                         vp[k] += p.A*TL + p.B*TR + p.C*BL + p.D*BR;
	.loc 1 212 55 discriminator 196608 view .LVU1046
	vmulss	xmm6, xmm6, xmm16	# _1057, BL_1068, _81
	vfmadd231ss	xmm6, xmm17, xmm4	# _1320, _80, TR_1072
# src/avx_analysis_code_ablations/opt10_abl_tile_8x256_ilp.cpp:211:                         float BR = p.SUB[ind_rbot + k];
	.loc 1 211 31 discriminator 196608 view .LVU1047
	vcvtusi2ss	xmm4, xmm5, r10d	# tmp1706, tmp1698, *_1066
.LBE3138:
# src/avx_analysis_code_ablations/opt10_abl_tile_8x256_ilp.cpp:207:                     for (int k = 0; k < remaining; ++k) {
	.loc 1 207 21 discriminator 196609 view .LVU1048
	lea	r10d, 2[r9]	#,
.LBB3139:
# src/avx_analysis_code_ablations/opt10_abl_tile_8x256_ilp.cpp:212:                         vp[k] += p.A*TL + p.B*TR + p.C*BL + p.D*BR;
	.loc 1 212 31 discriminator 196608 view .LVU1049
	vfmadd132ss	xmm4, xmm7, xmm15	# tmp1501, _1300, _82
	vaddss	xmm4, xmm4, xmm6	# _1053, tmp1501, _1320
	vmovss	DWORD PTR 4[rax+r11], xmm4	# *_1062, _1053
.LBE3139:
	.loc 1 207 21 is_stmt 1 discriminator 1 view .LVU1050
.LVL154:
	.loc 1 207 39 discriminator 2 view .LVU1051
# src/avx_analysis_code_ablations/opt10_abl_tile_8x256_ilp.cpp:207:                     for (int k = 0; k < remaining; ++k) {
	.loc 1 207 39 is_stmt 0 discriminator 196610 view .LVU1052
	cmp	ebx, r10d	# remaining, k
	jle	.L39	#,
.LBB3140:
	.loc 1 208 25 is_stmt 1 view .LVU1053
	.loc 1 209 25 view .LVU1054
	.loc 1 210 25 view .LVU1055
	.loc 1 211 25 view .LVU1056
	.loc 1 212 25 view .LVU1057
# src/avx_analysis_code_ablations/opt10_abl_tile_8x256_ilp.cpp:208:                         float TL = p.SUB[ind_ltop + k];
	.loc 1 208 31 is_stmt 0 discriminator 229376 view .LVU1058
	movzx	r13d, BYTE PTR [rdx+r10]	# *_921, *_921
	vcvtusi2ss	xmm4, xmm5, r13d	# tmp1707, tmp1698, *_921
# src/avx_analysis_code_ablations/opt10_abl_tile_8x256_ilp.cpp:209:                         float TR = p.SUB[ind_rtop + k];
	.loc 1 209 31 discriminator 229376 view .LVU1059
	movzx	r13d, BYTE PTR [rcx+r10]	# *_916, *_916
	vmovaps	xmm7, xmm4	# TL_918, TL_918
	vcvtusi2ss	xmm4, xmm5, r13d	# tmp1708, tmp1698, *_916
# src/avx_analysis_code_ablations/opt10_abl_tile_8x256_ilp.cpp:210:                         float BL = p.SUB[ind_lbot + k];
	.loc 1 210 31 discriminator 229376 view .LVU1060
	movzx	r13d, BYTE PTR [rsi+r10]	# *_912, *_912
# src/avx_analysis_code_ablations/opt10_abl_tile_8x256_ilp.cpp:211:                         float BR = p.SUB[ind_rbot + k];
	.loc 1 211 31 discriminator 229376 view .LVU1061
	movzx	r10d, BYTE PTR [r8+r10]	# *_908, *_908
.LVL155:
	.loc 1 211 31 discriminator 229376 view .LVU1062
	vfmadd213ss	xmm7, xmm18, DWORD PTR 8[rax+r11]	# TL_918, _79, *_904
# src/avx_analysis_code_ablations/opt10_abl_tile_8x256_ilp.cpp:210:                         float BL = p.SUB[ind_lbot + k];
	.loc 1 210 31 discriminator 229376 view .LVU1063
	vcvtusi2ss	xmm6, xmm5, r13d	# tmp1709, tmp1698, *_912
# src/avx_analysis_code_ablations/opt10_abl_tile_8x256_ilp.cpp:212:                         vp[k] += p.A*TL + p.B*TR + p.C*BL + p.D*BR;
	.loc 1 212 55 discriminator 229376 view .LVU1064
	vmulss	xmm6, xmm6, xmm16	# _899, BL_910, _81
	vfmadd231ss	xmm6, xmm17, xmm4	# _59, _80, TR_914
# src/avx_analysis_code_ablations/opt10_abl_tile_8x256_ilp.cpp:211:                         float BR = p.SUB[ind_rbot + k];
	.loc 1 211 31 discriminator 229376 view .LVU1065
	vcvtusi2ss	xmm4, xmm5, r10d	# tmp1710, tmp1698, *_908
.LBE3140:
# src/avx_analysis_code_ablations/opt10_abl_tile_8x256_ilp.cpp:207:                     for (int k = 0; k < remaining; ++k) {
	.loc 1 207 21 discriminator 229377 view .LVU1066
	lea	r10d, 3[r9]	#,
.LBB3141:
# src/avx_analysis_code_ablations/opt10_abl_tile_8x256_ilp.cpp:212:                         vp[k] += p.A*TL + p.B*TR + p.C*BL + p.D*BR;
	.loc 1 212 31 discriminator 229376 view .LVU1067
	vfmadd132ss	xmm4, xmm7, xmm15	# tmp1521, _37, _82
	vaddss	xmm4, xmm4, xmm6	# _895, tmp1521, _59
	vmovss	DWORD PTR 8[rax+r11], xmm4	# *_904, _895
.LBE3141:
	.loc 1 207 21 is_stmt 1 discriminator 1 view .LVU1068
.LVL156:
	.loc 1 207 39 discriminator 2 view .LVU1069
# src/avx_analysis_code_ablations/opt10_abl_tile_8x256_ilp.cpp:207:                     for (int k = 0; k < remaining; ++k) {
	.loc 1 207 39 is_stmt 0 discriminator 229378 view .LVU1070
	cmp	ebx, r10d	# remaining, k
	jle	.L39	#,
.LBB3142:
	.loc 1 208 25 is_stmt 1 view .LVU1071
	.loc 1 209 25 view .LVU1072
	.loc 1 210 25 view .LVU1073
	.loc 1 211 25 view .LVU1074
	.loc 1 212 25 view .LVU1075
# src/avx_analysis_code_ablations/opt10_abl_tile_8x256_ilp.cpp:208:                         float TL = p.SUB[ind_ltop + k];
	.loc 1 208 31 is_stmt 0 discriminator 262144 view .LVU1076
	movzx	r13d, BYTE PTR [rdx+r10]	# *_613, *_613
# src/avx_analysis_code_ablations/opt10_abl_tile_8x256_ilp.cpp:212:                         vp[k] += p.A*TL + p.B*TR + p.C*BL + p.D*BR;
	.loc 1 212 29 discriminator 262144 view .LVU1077
	lea	r12, 12[rax+r11]	# _1103,
# src/avx_analysis_code_ablations/opt10_abl_tile_8x256_ilp.cpp:208:                         float TL = p.SUB[ind_ltop + k];
	.loc 1 208 31 discriminator 262144 view .LVU1078
	vcvtusi2ss	xmm4, xmm5, r13d	# tmp1711, tmp1698, *_613
# src/avx_analysis_code_ablations/opt10_abl_tile_8x256_ilp.cpp:209:                         float TR = p.SUB[ind_rtop + k];
	.loc 1 209 31 discriminator 262144 view .LVU1079
	movzx	r13d, BYTE PTR [rcx+r10]	# *_706, *_706
	vmovaps	xmm7, xmm4	# TL_1080, TL_1080
	vcvtusi2ss	xmm4, xmm5, r13d	# tmp1712, tmp1698, *_706
# src/avx_analysis_code_ablations/opt10_abl_tile_8x256_ilp.cpp:210:                         float BL = p.SUB[ind_lbot + k];
	.loc 1 210 31 discriminator 262144 view .LVU1080
	movzx	r13d, BYTE PTR [rsi+r10]	# *_792, *_792
# src/avx_analysis_code_ablations/opt10_abl_tile_8x256_ilp.cpp:211:                         float BR = p.SUB[ind_rbot + k];
	.loc 1 211 31 discriminator 262144 view .LVU1081
	movzx	r10d, BYTE PTR [r8+r10]	# *_566, *_566
.LVL157:
	.loc 1 211 31 discriminator 262144 view .LVU1082
	vfmadd213ss	xmm7, xmm18, DWORD PTR [r12]	# TL_1080, _79, *_1103
# src/avx_analysis_code_ablations/opt10_abl_tile_8x256_ilp.cpp:210:                         float BL = p.SUB[ind_lbot + k];
	.loc 1 210 31 discriminator 262144 view .LVU1083
	vcvtusi2ss	xmm6, xmm5, r13d	# tmp1713, tmp1698, *_792
# src/avx_analysis_code_ablations/opt10_abl_tile_8x256_ilp.cpp:212:                         vp[k] += p.A*TL + p.B*TR + p.C*BL + p.D*BR;
	.loc 1 212 55 discriminator 262144 view .LVU1084
	vmulss	xmm6, xmm6, xmm16	# _1185, BL_676, _81
	vfmadd231ss	xmm6, xmm17, xmm4	# _86, _80, TR_568
# src/avx_analysis_code_ablations/opt10_abl_tile_8x256_ilp.cpp:211:                         float BR = p.SUB[ind_rbot + k];
	.loc 1 211 31 discriminator 262144 view .LVU1085
	vcvtusi2ss	xmm4, xmm5, r10d	# tmp1714, tmp1698, *_566
.LBE3142:
# src/avx_analysis_code_ablations/opt10_abl_tile_8x256_ilp.cpp:207:                     for (int k = 0; k < remaining; ++k) {
	.loc 1 207 21 discriminator 262145 view .LVU1086
	lea	r10d, 4[r9]	#,
.LBB3143:
# src/avx_analysis_code_ablations/opt10_abl_tile_8x256_ilp.cpp:212:                         vp[k] += p.A*TL + p.B*TR + p.C*BL + p.D*BR;
	.loc 1 212 31 discriminator 262144 view .LVU1087
	vfmadd132ss	xmm4, xmm7, xmm15	# tmp1541, _85, _82
	vaddss	xmm4, xmm4, xmm6	# _657, tmp1541, _86
	vmovss	DWORD PTR [r12], xmm4	# *_1103, _657
.LBE3143:
	.loc 1 207 21 is_stmt 1 discriminator 1 view .LVU1088
.LVL158:
	.loc 1 207 39 discriminator 2 view .LVU1089
# src/avx_analysis_code_ablations/opt10_abl_tile_8x256_ilp.cpp:207:                     for (int k = 0; k < remaining; ++k) {
	.loc 1 207 39 is_stmt 0 discriminator 262146 view .LVU1090
	cmp	ebx, r10d	# remaining, k
	jle	.L39	#,
.LBB3144:
	.loc 1 208 25 is_stmt 1 view .LVU1091
	.loc 1 209 25 view .LVU1092
	.loc 1 210 25 view .LVU1093
	.loc 1 211 25 view .LVU1094
	.loc 1 212 25 view .LVU1095
# src/avx_analysis_code_ablations/opt10_abl_tile_8x256_ilp.cpp:208:                         float TL = p.SUB[ind_ltop + k];
	.loc 1 208 31 is_stmt 0 discriminator 294912 view .LVU1096
	movzx	r13d, BYTE PTR [rdx+r10]	# *_297, *_297
	vcvtusi2ss	xmm4, xmm5, r13d	# tmp1715, tmp1698, *_297
# src/avx_analysis_code_ablations/opt10_abl_tile_8x256_ilp.cpp:209:                         float TR = p.SUB[ind_rtop + k];
	.loc 1 209 31 discriminator 294912 view .LVU1097
	movzx	r13d, BYTE PTR [rcx+r10]	# *_1095, *_1095
	vmovaps	xmm7, xmm4	# TL_1220, TL_1220
	vcvtusi2ss	xmm4, xmm5, r13d	# tmp1716, tmp1698, *_1095
# src/avx_analysis_code_ablations/opt10_abl_tile_8x256_ilp.cpp:210:                         float BL = p.SUB[ind_lbot + k];
	.loc 1 210 31 discriminator 294912 view .LVU1098
	movzx	r13d, BYTE PTR [rsi+r10]	# *_1206, *_1206
# src/avx_analysis_code_ablations/opt10_abl_tile_8x256_ilp.cpp:211:                         float BR = p.SUB[ind_rbot + k];
	.loc 1 211 31 discriminator 294912 view .LVU1099
	movzx	r10d, BYTE PTR [r8+r10]	# *_1203, *_1203
.LVL159:
	.loc 1 211 31 discriminator 294912 view .LVU1100
	vfmadd213ss	xmm7, xmm18, DWORD PTR 16[rax+r11]	# TL_1220, _79, *_1200
# src/avx_analysis_code_ablations/opt10_abl_tile_8x256_ilp.cpp:210:                         float BL = p.SUB[ind_lbot + k];
	.loc 1 210 31 discriminator 294912 view .LVU1101
	vcvtusi2ss	xmm6, xmm5, r13d	# tmp1717, tmp1698, *_1206
# src/avx_analysis_code_ablations/opt10_abl_tile_8x256_ilp.cpp:212:                         vp[k] += p.A*TL + p.B*TR + p.C*BL + p.D*BR;
	.loc 1 212 55 discriminator 294912 view .LVU1102
	vmulss	xmm6, xmm6, xmm16	# _1196, BL_1205, _81
	vfmadd231ss	xmm6, xmm17, xmm4	# _93, _80, TR_1314
# src/avx_analysis_code_ablations/opt10_abl_tile_8x256_ilp.cpp:211:                         float BR = p.SUB[ind_rbot + k];
	.loc 1 211 31 discriminator 294912 view .LVU1103
	vcvtusi2ss	xmm4, xmm5, r10d	# tmp1718, tmp1698, *_1203
.LBE3144:
# src/avx_analysis_code_ablations/opt10_abl_tile_8x256_ilp.cpp:207:                     for (int k = 0; k < remaining; ++k) {
	.loc 1 207 21 discriminator 294913 view .LVU1104
	lea	r10d, 5[r9]	#,
.LBB3145:
# src/avx_analysis_code_ablations/opt10_abl_tile_8x256_ilp.cpp:212:                         vp[k] += p.A*TL + p.B*TR + p.C*BL + p.D*BR;
	.loc 1 212 31 discriminator 294912 view .LVU1105
	vfmadd132ss	xmm4, xmm7, xmm15	# tmp1561, _92, _82
	vaddss	xmm4, xmm4, xmm6	# _1193, tmp1561, _93
	vmovss	DWORD PTR 16[rax+r11], xmm4	# *_1200, _1193
.LBE3145:
	.loc 1 207 21 is_stmt 1 discriminator 1 view .LVU1106
.LVL160:
	.loc 1 207 39 discriminator 2 view .LVU1107
# src/avx_analysis_code_ablations/opt10_abl_tile_8x256_ilp.cpp:207:                     for (int k = 0; k < remaining; ++k) {
	.loc 1 207 39 is_stmt 0 discriminator 294914 view .LVU1108
	cmp	ebx, r10d	# remaining, k
	jle	.L39	#,
.LBB3146:
	.loc 1 208 25 is_stmt 1 view .LVU1109
	.loc 1 209 25 view .LVU1110
	.loc 1 210 25 view .LVU1111
	.loc 1 211 25 view .LVU1112
	.loc 1 212 25 view .LVU1113
# src/avx_analysis_code_ablations/opt10_abl_tile_8x256_ilp.cpp:208:                         float TL = p.SUB[ind_ltop + k];
	.loc 1 208 31 is_stmt 0 discriminator 327680 view .LVU1114
	movzx	r13d, BYTE PTR [rdx+r10]	# *_270, *_270
.LBE3146:
# src/avx_analysis_code_ablations/opt10_abl_tile_8x256_ilp.cpp:207:                     for (int k = 0; k < remaining; ++k) {
	.loc 1 207 21 discriminator 327681 view .LVU1115
	add	r9d, 6	#,
.LBB3147:
# src/avx_analysis_code_ablations/opt10_abl_tile_8x256_ilp.cpp:208:                         float TL = p.SUB[ind_ltop + k];
	.loc 1 208 31 discriminator 327680 view .LVU1116
	vcvtusi2ss	xmm4, xmm5, r13d	# tmp1719, tmp1698, *_270
# src/avx_analysis_code_ablations/opt10_abl_tile_8x256_ilp.cpp:209:                         float TR = p.SUB[ind_rtop + k];
	.loc 1 209 31 discriminator 327680 view .LVU1117
	movzx	r13d, BYTE PTR [rcx+r10]	# *_162, *_162
	vmovaps	xmm7, xmm4	# TL_780, TL_780
	vcvtusi2ss	xmm4, xmm5, r13d	# tmp1720, tmp1698, *_162
# src/avx_analysis_code_ablations/opt10_abl_tile_8x256_ilp.cpp:210:                         float BL = p.SUB[ind_lbot + k];
	.loc 1 210 31 discriminator 327680 view .LVU1118
	movzx	r13d, BYTE PTR [rsi+r10]	# *_271, *_271
# src/avx_analysis_code_ablations/opt10_abl_tile_8x256_ilp.cpp:211:                         float BR = p.SUB[ind_rbot + k];
	.loc 1 211 31 discriminator 327680 view .LVU1119
	movzx	r10d, BYTE PTR [r8+r10]	# *_1263, *_1263
.LVL161:
	.loc 1 211 31 discriminator 327680 view .LVU1120
	vfmadd213ss	xmm7, xmm18, DWORD PTR 20[rax+r11]	# TL_780, _79, *_276
# src/avx_analysis_code_ablations/opt10_abl_tile_8x256_ilp.cpp:210:                         float BL = p.SUB[ind_lbot + k];
	.loc 1 210 31 discriminator 327680 view .LVU1121
	vcvtusi2ss	xmm6, xmm5, r13d	# tmp1721, tmp1698, *_271
# src/avx_analysis_code_ablations/opt10_abl_tile_8x256_ilp.cpp:212:                         vp[k] += p.A*TL + p.B*TR + p.C*BL + p.D*BR;
	.loc 1 212 55 discriminator 327680 view .LVU1122
	vmulss	xmm6, xmm6, xmm16	# _278, BL_1325, _81
	vfmadd231ss	xmm6, xmm17, xmm4	# _99, _80, TR_470
# src/avx_analysis_code_ablations/opt10_abl_tile_8x256_ilp.cpp:211:                         float BR = p.SUB[ind_rbot + k];
	.loc 1 211 31 discriminator 327680 view .LVU1123
	vcvtusi2ss	xmm4, xmm5, r10d	# tmp1722, tmp1698, *_1263
# src/avx_analysis_code_ablations/opt10_abl_tile_8x256_ilp.cpp:212:                         vp[k] += p.A*TL + p.B*TR + p.C*BL + p.D*BR;
	.loc 1 212 31 discriminator 327680 view .LVU1124
	vfmadd132ss	xmm4, xmm7, xmm15	# tmp1581, _95, _82
	vaddss	xmm4, xmm4, xmm6	# _798, tmp1581, _99
	vmovss	DWORD PTR 20[rax+r11], xmm4	# *_276, _798
.LBE3147:
	.loc 1 207 21 is_stmt 1 discriminator 1 view .LVU1125
.LVL162:
	.loc 1 207 39 discriminator 2 view .LVU1126
# src/avx_analysis_code_ablations/opt10_abl_tile_8x256_ilp.cpp:207:                     for (int k = 0; k < remaining; ++k) {
	.loc 1 207 39 is_stmt 0 discriminator 327682 view .LVU1127
	cmp	ebx, r9d	# remaining, k
	jle	.L39	#,
.LBB3148:
	.loc 1 208 25 is_stmt 1 view .LVU1128
	.loc 1 209 25 view .LVU1129
	.loc 1 210 25 view .LVU1130
	.loc 1 211 25 view .LVU1131
	.loc 1 212 25 view .LVU1132
# src/avx_analysis_code_ablations/opt10_abl_tile_8x256_ilp.cpp:208:                         float TL = p.SUB[ind_ltop + k];
	.loc 1 208 31 is_stmt 0 discriminator 98304 view .LVU1133
	movzx	edx, BYTE PTR [rdx+r9]	# *_601, *_601
	vcvtusi2ss	xmm4, xmm5, edx	# tmp1723, tmp1698, *_601
# src/avx_analysis_code_ablations/opt10_abl_tile_8x256_ilp.cpp:209:                         float TR = p.SUB[ind_rtop + k];
	.loc 1 209 31 discriminator 98304 view .LVU1134
	movzx	edx, BYTE PTR [rcx+r9]	# *_592, *_592
	vmovaps	xmm7, xmm4	# TL_595, TL_595
	vcvtusi2ss	xmm4, xmm5, edx	# tmp1724, tmp1698, *_592
# src/avx_analysis_code_ablations/opt10_abl_tile_8x256_ilp.cpp:210:                         float BL = p.SUB[ind_lbot + k];
	.loc 1 210 31 discriminator 98304 view .LVU1135
	movzx	edx, BYTE PTR [rsi+r9]	# *_577, *_577
	vfmadd213ss	xmm7, xmm18, DWORD PTR 24[rax+r11]	# TL_595, _79, *_543
	vcvtusi2ss	xmm6, xmm5, edx	# tmp1725, tmp1698, *_577
# src/avx_analysis_code_ablations/opt10_abl_tile_8x256_ilp.cpp:211:                         float BR = p.SUB[ind_rbot + k];
	.loc 1 211 31 discriminator 98304 view .LVU1136
	movzx	edx, BYTE PTR [r8+r9]	# *_571, *_571
# src/avx_analysis_code_ablations/opt10_abl_tile_8x256_ilp.cpp:212:                         vp[k] += p.A*TL + p.B*TR + p.C*BL + p.D*BR;
	.loc 1 212 55 discriminator 98304 view .LVU1137
	vmulss	xmm6, xmm6, xmm16	# _534, BL_573, _81
	vfmadd231ss	xmm6, xmm17, xmm4	# _104, _80, TR_589
# src/avx_analysis_code_ablations/opt10_abl_tile_8x256_ilp.cpp:211:                         float BR = p.SUB[ind_rbot + k];
	.loc 1 211 31 discriminator 98304 view .LVU1138
	vcvtusi2ss	xmm4, xmm5, edx	# tmp1726, tmp1698, *_571
# src/avx_analysis_code_ablations/opt10_abl_tile_8x256_ilp.cpp:212:                         vp[k] += p.A*TL + p.B*TR + p.C*BL + p.D*BR;
	.loc 1 212 31 discriminator 98304 view .LVU1139
	vfmadd132ss	xmm4, xmm7, xmm15	# tmp1601, _103, _82
	vaddss	xmm4, xmm4, xmm6	# _499, tmp1601, _104
	vmovss	DWORD PTR 24[rax+r11], xmm4	# *_543, _499
.LBE3148:
	.loc 1 207 21 is_stmt 1 discriminator 1 view .LVU1140
.LVL163:
	.loc 1 207 39 discriminator 2 view .LVU1141
.L39:
	.loc 1 207 39 is_stmt 0 discriminator 2 view .LVU1142
.LBE3132:
.LBE3159:
	.loc 1 123 17 is_stmt 1 discriminator 1 view .LVU1143
	inc	DWORD PTR 240[rsp]	# %sfp
.LVL164:
# src/avx_analysis_code_ablations/opt10_abl_tile_8x256_ilp.cpp:123:                 for (int y = y_begin; y < y_end; ++y) {
	.loc 1 123 41 is_stmt 0 discriminator 2 view .LVU1144
	mov	rbx, QWORD PTR 192[rsp]	# _661, %sfp
.LVL165:
	.loc 1 123 41 discriminator 2 view .LVU1145
	add	QWORD PTR 216[rsp], rbx	# %sfp, _661
# src/avx_analysis_code_ablations/opt10_abl_tile_8x256_ilp.cpp:123:                 for (int y = y_begin; y < y_end; ++y) {
	.loc 1 123 17 discriminator 1 view .LVU1146
	mov	eax, DWORD PTR 240[rsp]	# y, %sfp
.LVL166:
	.loc 1 123 41 is_stmt 1 discriminator 2 view .LVU1147
	cmp	eax, DWORD PTR 208[rsp]	# y, %sfp
	jl	.L44	#,
	mov	r12d, DWORD PTR 112[rsp]	# _75, %sfp
	mov	r15, QWORD PTR 224[rsp]	# ivtmp.567, %sfp
	mov	r8d, DWORD PTR 108[rsp]	# _521, %sfp
	mov	ebx, DWORD PTR 104[rsp]	# tx, %sfp
	mov	r11d, DWORD PTR 100[rsp]	# ty, %sfp
.LVL167:
.L35:
	.loc 1 123 41 is_stmt 0 discriminator 2 view .LVU1148
.LBE3202:
.LBE3206:
	.loc 1 111 13 is_stmt 1 discriminator 4 view .LVU1149
	.loc 1 111 39 discriminator 5 view .LVU1150
# src/avx_analysis_code_ablations/opt10_abl_tile_8x256_ilp.cpp:111:             for (const SubParams& p : params) {
	.loc 1 111 39 is_stmt 0 discriminator 6 view .LVU1151
	add	r15, 48	# ivtmp.567,
.LVL168:
	.loc 1 111 39 discriminator 6 view .LVU1152
	cmp	QWORD PTR 128[rsp], r15	# %sfp, ivtmp.567
	jne	.L45	#,
	mov	r13d, DWORD PTR 96[rsp]	#, %sfp
	mov	r8, QWORD PTR 88[rsp]	# _700, %sfp
	mov	r15d, r11d	# ty, ty
.LVL169:
.L34:
	.loc 1 111 39 discriminator 6 view .LVU1153
.LBE3264:
.LBB3265:
	.loc 1 218 32 is_stmt 1 discriminator 2 view .LVU1154
	cmp	DWORD PTR 168[rsp], r15d	# %sfp, ty
	jle	.L46	#,
	test	r13d, r13d	# tile_w_actual
	jle	.L46	#,
	lea	r12d, 0[r13+r13*2]	# _614,
	mov	rdi, QWORD PTR 136[rsp]	# ivtmp.572, %sfp
	mov	rax, QWORD PTR 64[rsp]	# _379, %sfp
	lea	r9, 0[r13+r13*2]	# _615,
	movsxd	r12, r12d	# _611, _614
	mov	r11, QWORD PTR 48[rsp]	# ivtmp.516, %sfp
	lea	r14, 0[0+r9*4]	# tmp1613,
	mov	r10, r8	# ivtmp.514, _700
	mov	QWORD PTR 240[rsp], r12	# %sfp, _611
	lea	r13, [rax+rdi*4]	# _786,
# src/avx_analysis_code_ablations/opt10_abl_tile_8x256_ilp.cpp:218:             for (int y = ty; y < tile_y_end; ++y) {
	.loc 1 218 22 is_stmt 0 view .LVU1155
	mov	ebx, r15d	# y, ty
# src/avx_analysis_code_ablations/opt10_abl_tile_8x256_ilp.cpp:218:             for (int y = ty; y < tile_y_end; ++y) {
	.loc 1 218 32 discriminator 2 view .LVU1156
	xor	edi, edi	# ivtmp.513
.LVL170:
	.p2align 4,,10
	.p2align 3
.L50:
.LBB3232:
	.loc 1 219 17 is_stmt 1 view .LVU1157
	.loc 1 220 17 view .LVU1158
.LBB3227:
.LBI3227:
	.loc 2 1385 7 view .LVU1159
	.loc 2 1385 7 is_stmt 0 view .LVU1160
.LBE3227:
	.loc 1 221 17 is_stmt 1 view .LVU1161
.LBB3228:
	.loc 1 221 35 discriminator 2 view .LVU1162
.LBE3228:
# src/avx_analysis_code_ablations/opt10_abl_tile_8x256_ilp.cpp:220:                 unsigned char* outp = output.data.data() + (y * width + tx) * 3;
	.loc 1 220 77 is_stmt 0 discriminator 1 view .LVU1163
	mov	rax, QWORD PTR 136[rsp]	# ivtmp.572, %sfp
	lea	rdx, 0[r13+r11*4]	# ivtmp.498,
	add	rax, r11	# _1176, ivtmp.516
	lea	rcx, [rax+rax*2]	# _569,
# src/avx_analysis_code_ablations/opt10_abl_tile_8x256_ilp.cpp:220:                 unsigned char* outp = output.data.data() + (y * width + tx) * 3;
	.loc 1 220 79 discriminator 1 view .LVU1164
	mov	rax, QWORD PTR 120[rsp]	# <retval>, %sfp
	add	rcx, QWORD PTR 16[rax]	# outp, MEM[(struct vector *)output_228(D) + 16B].D.87585._M_impl.D.86896._M_start
	xor	eax, eax	# ivtmp.506
	jmp	.L49	#
.LVL171:
	.loc 1 220 79 discriminator 1 view .LVU1165
	.p2align 5
	.p2align 4,,10
	.p2align 3
.L47:
.LBB3229:
.LBB3220:
	.loc 1 224 25 is_stmt 1 view .LVU1166
# src/avx_analysis_code_ablations/opt10_abl_tile_8x256_ilp.cpp:224:                         outp[x*3] = outp[x*3+1] = outp[x*3+2] = 0;
	.loc 1 224 35 is_stmt 0 view .LVU1167
	xor	esi, esi	#
.LVL172:
# src/avx_analysis_code_ablations/opt10_abl_tile_8x256_ilp.cpp:224:                         outp[x*3] = outp[x*3+1] = outp[x*3+2] = 0;
	.loc 1 224 63 view .LVU1168
	mov	BYTE PTR 2[rcx+rax], 0	# MEM[(unsigned char *)outp_803 + 2B + ivtmp.506_1371 * 1],
.LBE3220:
# src/avx_analysis_code_ablations/opt10_abl_tile_8x256_ilp.cpp:221:                 for (int x = 0; x < tile_w_actual; ++x) {
	.loc 1 221 35 discriminator 2 view .LVU1169
	add	rdx, 4	# ivtmp.498,
.LVL173:
.LBB3221:
# src/avx_analysis_code_ablations/opt10_abl_tile_8x256_ilp.cpp:224:                         outp[x*3] = outp[x*3+1] = outp[x*3+2] = 0;
	.loc 1 224 35 view .LVU1170
	mov	WORD PTR [rcx+rax], si	# MEM <vector(2) unsigned char> [(unsigned char *)outp_803 + ivtmp.506_1371 * 1],
	.loc 1 225 25 is_stmt 1 view .LVU1171
.LBE3221:
	.loc 1 221 17 discriminator 1 view .LVU1172
.LVL174:
	.loc 1 221 35 discriminator 2 view .LVU1173
	add	rax, 3	# ivtmp.506,
.LVL175:
	.loc 1 221 35 is_stmt 0 discriminator 2 view .LVU1174
	cmp	r9, rax	# _615, ivtmp.506
	je	.L141	#,
.LVL176:
.L49:
.LBB3222:
	.loc 1 222 21 is_stmt 1 view .LVU1175
# src/avx_analysis_code_ablations/opt10_abl_tile_8x256_ilp.cpp:222:                     int c = counts[y * width + (tx + x)];
	.loc 1 222 56 is_stmt 0 discriminator 1 view .LVU1176
	mov	esi, DWORD PTR [rdx]	# c, MEM[(value_type &)_1375]
.LVL177:
	.loc 1 223 21 is_stmt 1 view .LVU1177
	test	esi, esi	# c
	je	.L47	#,
	.loc 1 227 21 view .LVU1178
# src/avx_analysis_code_ablations/opt10_abl_tile_8x256_ilp.cpp:227:                     float inv_c = 1.0f / static_cast<float>(c);
	.loc 1 227 42 is_stmt 0 view .LVU1179
	vcvtsi2ss	xmm0, xmm5, esi	# tmp1727, tmp1698, c
.LBE3222:
# src/avx_analysis_code_ablations/opt10_abl_tile_8x256_ilp.cpp:221:                 for (int x = 0; x < tile_w_actual; ++x) {
	.loc 1 221 35 discriminator 2 view .LVU1180
	add	rdx, 4	# ivtmp.498,
.LBB3223:
# src/avx_analysis_code_ablations/opt10_abl_tile_8x256_ilp.cpp:227:                     float inv_c = 1.0f / static_cast<float>(c);
	.loc 1 227 27 view .LVU1181
	vdivss	xmm0, xmm23, xmm0	# inv_c, tmp1677, _1137
.LVL178:
	.loc 1 228 21 is_stmt 1 view .LVU1182
.LBB3212:
	.loc 1 228 41 discriminator 2 view .LVU1183
.LBB3213:
	.loc 1 229 25 view .LVU1184
	.loc 1 230 25 view .LVU1185
# src/avx_analysis_code_ablations/opt10_abl_tile_8x256_ilp.cpp:229:                         float v = vp[x*3 + ch] * inv_c;
	.loc 1 229 31 is_stmt 0 discriminator 32768 view .LVU1186
	vmulss	xmm1, xmm0, DWORD PTR [r10+rax*4]	# v_1131, inv_c, MEM[(const float *)_345 + ivtmp.506_1371 * 4]
# src/avx_analysis_code_ablations/opt10_abl_tile_8x256_ilp.cpp:230:                         outp[x*3 + ch] = static_cast<unsigned char>(v);
	.loc 1 230 42 discriminator 32768 view .LVU1187
	vcvttss2si	esi, xmm1	# tmp1628, v_1131
.LVL179:
	.loc 1 230 42 discriminator 32768 view .LVU1188
	mov	BYTE PTR [rcx+rax], sil	# MEM[(unsigned char *)outp_803 + ivtmp.506_1371 * 1], tmp1628
.LBE3213:
	.loc 1 228 21 is_stmt 1 discriminator 1 view .LVU1189
.LVL180:
	.loc 1 228 41 discriminator 2 view .LVU1190
.LBB3214:
	.loc 1 229 25 view .LVU1191
# src/avx_analysis_code_ablations/opt10_abl_tile_8x256_ilp.cpp:229:                         float v = vp[x*3 + ch] * inv_c;
	.loc 1 229 42 is_stmt 0 discriminator 65536 view .LVU1192
	lea	esi, 1[rax]	# _1127,
.LVL181:
	.loc 1 230 25 is_stmt 1 view .LVU1193
# src/avx_analysis_code_ablations/opt10_abl_tile_8x256_ilp.cpp:229:                         float v = vp[x*3 + ch] * inv_c;
	.loc 1 229 46 is_stmt 0 discriminator 65536 view .LVU1194
	lea	r12, [rdi+rsi]	# tmp1630,
.LVL182:
# src/avx_analysis_code_ablations/opt10_abl_tile_8x256_ilp.cpp:229:                         float v = vp[x*3 + ch] * inv_c;
	.loc 1 229 31 discriminator 65536 view .LVU1195
	vmulss	xmm1, xmm0, DWORD PTR [r8+r12*4]	# v_1122, inv_c, *_1124
# src/avx_analysis_code_ablations/opt10_abl_tile_8x256_ilp.cpp:230:                         outp[x*3 + ch] = static_cast<unsigned char>(v);
	.loc 1 230 42 discriminator 65536 view .LVU1196
	vcvttss2si	r12d, xmm1	# tmp1633, v_1122
.LVL183:
	.loc 1 230 42 discriminator 65536 view .LVU1197
	mov	BYTE PTR [rcx+rsi], r12b	# *_1121, tmp1633
.LBE3214:
	.loc 1 228 21 is_stmt 1 discriminator 1 view .LVU1198
.LVL184:
	.loc 1 228 41 discriminator 2 view .LVU1199
.LBB3215:
	.loc 1 229 25 view .LVU1200
# src/avx_analysis_code_ablations/opt10_abl_tile_8x256_ilp.cpp:229:                         float v = vp[x*3 + ch] * inv_c;
	.loc 1 229 42 is_stmt 0 discriminator 98304 view .LVU1201
	lea	esi, 2[rax]	# _1117,
.LVL185:
	.loc 1 230 25 is_stmt 1 view .LVU1202
.LBE3215:
.LBE3212:
.LBE3223:
# src/avx_analysis_code_ablations/opt10_abl_tile_8x256_ilp.cpp:221:                 for (int x = 0; x < tile_w_actual; ++x) {
	.loc 1 221 35 is_stmt 0 discriminator 2 view .LVU1203
	add	rax, 3	# ivtmp.506,
.LVL186:
.LBB3224:
.LBB3217:
.LBB3216:
# src/avx_analysis_code_ablations/opt10_abl_tile_8x256_ilp.cpp:229:                         float v = vp[x*3 + ch] * inv_c;
	.loc 1 229 46 discriminator 98304 view .LVU1204
	lea	r12, [rdi+rsi]	# tmp1635,
.LVL187:
# src/avx_analysis_code_ablations/opt10_abl_tile_8x256_ilp.cpp:229:                         float v = vp[x*3 + ch] * inv_c;
	.loc 1 229 31 discriminator 98304 view .LVU1205
	vmulss	xmm0, xmm0, DWORD PTR [r8+r12*4]	# v_1112, inv_c, *_1114
.LVL188:
# src/avx_analysis_code_ablations/opt10_abl_tile_8x256_ilp.cpp:230:                         outp[x*3 + ch] = static_cast<unsigned char>(v);
	.loc 1 230 42 discriminator 98304 view .LVU1206
	vcvttss2si	r12d, xmm0	# tmp1638, v_1112
	.loc 1 230 42 discriminator 98304 view .LVU1207
	mov	BYTE PTR [rcx+rsi], r12b	# *_1111, tmp1638
.LBE3216:
	.loc 1 228 21 is_stmt 1 discriminator 1 view .LVU1208
.LVL189:
	.loc 1 228 41 discriminator 2 view .LVU1209
.LBE3217:
.LBE3224:
	.loc 1 221 17 discriminator 1 view .LVU1210
	.loc 1 221 35 discriminator 2 view .LVU1211
	cmp	r9, rax	# _615, ivtmp.506
	jne	.L49	#,
.LVL190:
.L141:
	.loc 1 221 35 is_stmt 0 discriminator 2 view .LVU1212
.LBE3229:
.LBE3232:
	.loc 1 218 13 is_stmt 1 discriminator 1 view .LVU1213
	inc	ebx	# y
.LVL191:
	.loc 1 218 32 discriminator 2 view .LVU1214
	add	rdi, QWORD PTR 240[rsp]	# ivtmp.513, %sfp
	add	r10, r14	# ivtmp.514, tmp1613
	add	r11, QWORD PTR 144[rsp]	# ivtmp.516, %sfp
	cmp	DWORD PTR 168[rsp], ebx	# %sfp, y
	jne	.L50	#,
.LVL192:
.L46:
	.loc 1 218 32 is_stmt 0 discriminator 2 view .LVU1215
.LBE3265:
.LBE3268:
	.loc 1 101 29 is_stmt 1 discriminator 2 view .LVU1216
	add	QWORD PTR 136[rsp], 256	# %sfp,
.LVL193:
	.loc 1 101 29 is_stmt 0 discriminator 2 view .LVU1217
	mov	rax, QWORD PTR 136[rsp]	# ivtmp.572, %sfp
	cmp	DWORD PTR 76[rsp], eax	# %sfp, tmp2026
	jg	.L51	#,
.LBE3281:
.LBE2911:
# src/avx_analysis_code_ablations/opt10_abl_tile_8x256_ilp.cpp:97:     for (int ty = 0; ty < h; ty += TILE_H) {
	.loc 1 97 25 discriminator 2 view .LVU1218
	mov	rdx, QWORD PTR 48[rsp]	# ivtmp.579, %sfp
	mov	r14, QWORD PTR 8[rsp]	# _232, %sfp
	mov	r13d, DWORD PTR 20[rsp]	# _2, %sfp
	mov	ebx, DWORD PTR 16[rsp]	# _71, %sfp
	mov	r12, QWORD PTR [rsp]	# _519, %sfp
.LVL194:
	.loc 1 97 25 is_stmt 1 discriminator 2 view .LVU1219
	add	rdx, r14	# ivtmp.579, _232
	cmp	ebx, r13d	# _71, _2
	jl	.L52	#,
	mov	r14, QWORD PTR 32[rsp]	# _4, %sfp
	mov	rbx, QWORD PTR 24[rsp]	# _26, %sfp
.LVL195:
	.loc 1 97 25 is_stmt 0 discriminator 2 view .LVU1220
	vzeroupper
.LVL196:
.L32:
	.loc 1 97 25 discriminator 2 view .LVU1221
.LBE2910:
	.loc 1 237 5 is_stmt 1 view .LVU1222
.LBB3286:
.LBI3286:
	.loc 2 790 7 view .LVU1223
.LBB3287:
.LBI3287:
	.loc 2 307 7 view .LVU1224
	.loc 2 307 7 is_stmt 0 view .LVU1225
.LBE3287:
.LBB3288:
.LBI3288:
	.loc 8 1082 5 is_stmt 1 view .LVU1226
	.loc 8 1082 5 is_stmt 0 view .LVU1227
.LBE3288:
.LBB3289:
.LBI3289:
	.loc 2 373 7 is_stmt 1 view .LVU1228
.LBB3290:
.LBB3291:
.LBI3291:
	.loc 2 394 7 view .LVU1229
.LBB3292:
.LBB3293:
.LBI3293:
	.loc 8 688 7 view .LVU1230
.LBB3294:
.LBI3294:
	.loc 6 167 7 view .LVU1231
.LBB3295:
# /usr/include/c++/16/bits/new_allocator.h:183: 	_GLIBCXX_OPERATOR_DELETE(_GLIBCXX_SIZED_DEALLOC(__p, __n));
	.loc 6 183 59 is_stmt 0 view .LVU1232
	mov	rdi, QWORD PTR 40[rsp]	#, %sfp
	mov	esi, 24576	#,
	call	"_ZdlPvm"@PLT	#
.LVL197:
	.loc 6 183 59 view .LVU1233
.LBE3295:
.LBE3294:
.LBE3293:
.LBE3292:
.LBE3291:
.LBE3290:
.LBB3296:
.LBI3296:
	.loc 2 139 14 is_stmt 1 view .LVU1234
.LBB3297:
.LBI3297:
	.loc 5 189 7 view .LVU1235
.LBB3298:
.LBI3298:
	.loc 6 104 7 view .LVU1236
	.loc 6 104 7 is_stmt 0 view .LVU1237
.LBE3298:
.LBE3297:
.LBE3296:
.LBE3289:
.LBE3286:
.LBB3299:
.LBI3299:
	.loc 2 790 7 is_stmt 1 view .LVU1238
.LBB3300:
.LBI3300:
	.loc 2 307 7 view .LVU1239
	.loc 2 307 7 is_stmt 0 view .LVU1240
.LBE3300:
.LBB3301:
.LBI3301:
	.loc 8 1082 5 is_stmt 1 view .LVU1241
	.loc 8 1082 5 is_stmt 0 view .LVU1242
.LBE3301:
.LBB3302:
.LBI3302:
	.loc 2 373 7 is_stmt 1 view .LVU1243
.LBB3303:
.LBB3304:
.LBI3304:
	.loc 2 394 7 view .LVU1244
.LBB3305:
# /usr/include/c++/16/bits/stl_vector.h:397: 	if (__p)
	.loc 2 397 2 is_stmt 0 view .LVU1245
	test	r12, r12	# _519
	je	.L53	#,
.LVL198:
.LBB3306:
.LBI3306:
	.loc 8 688 7 is_stmt 1 view .LVU1246
.LBB3307:
.LBI3307:
	.loc 6 167 7 view .LVU1247
.LBB3308:
# /usr/include/c++/16/bits/new_allocator.h:183: 	_GLIBCXX_OPERATOR_DELETE(_GLIBCXX_SIZED_DEALLOC(__p, __n));
	.loc 6 183 59 is_stmt 0 view .LVU1248
	mov	rsi, rbx	#, _26
	mov	rdi, r12	#, _519
	call	"_ZdlPvm"@PLT	#
.LVL199:
	.loc 6 183 59 view .LVU1249
.LBE3308:
.LBE3307:
.LBE3306:
.LBE3305:
.LBE3304:
.LBE3303:
.LBB3309:
.LBI3309:
	.loc 2 139 14 is_stmt 1 view .LVU1250
.LBB3310:
.LBI3310:
	.loc 5 189 7 view .LVU1251
.LBB3311:
.LBI3311:
	.loc 6 104 7 view .LVU1252
	.loc 6 104 7 is_stmt 0 view .LVU1253
.LBE3311:
.LBE3310:
.LBE3309:
.LBE3302:
.LBE3299:
.LBB3312:
.LBI3312:
	.loc 2 790 7 is_stmt 1 view .LVU1254
.LBB3313:
.LBI3313:
	.loc 2 307 7 view .LVU1255
	.loc 2 307 7 is_stmt 0 view .LVU1256
.LBE3313:
.LBB3314:
.LBI3314:
	.loc 8 1082 5 is_stmt 1 view .LVU1257
	.loc 8 1082 5 is_stmt 0 view .LVU1258
.LBE3314:
.LBB3315:
.LBI3315:
	.loc 2 373 7 is_stmt 1 view .LVU1259
.L53:
.LBB3316:
.LBB3317:
.LBI3317:
	.loc 2 394 7 view .LVU1260
.LBB3318:
# /usr/include/c++/16/bits/stl_vector.h:397: 	if (__p)
	.loc 2 397 2 is_stmt 0 view .LVU1261
	mov	rax, QWORD PTR 64[rsp]	# _379, %sfp
	test	rax, rax	# _379
	je	.L54	#,
.LVL200:
.LBB3319:
.LBI3319:
	.loc 8 688 7 is_stmt 1 view .LVU1262
.LBB3320:
.LBI3320:
	.loc 6 167 7 view .LVU1263
.LBB3321:
# /usr/include/c++/16/bits/new_allocator.h:183: 	_GLIBCXX_OPERATOR_DELETE(_GLIBCXX_SIZED_DEALLOC(__p, __n));
	.loc 6 183 59 is_stmt 0 view .LVU1264
	mov	rsi, r14	#, _4
	mov	rdi, rax	#, _379
	call	"_ZdlPvm"@PLT	#
.LVL201:
.L54:
	.loc 6 183 59 view .LVU1265
.LBE3321:
.LBE3320:
.LBE3319:
.LBE3318:
.LBE3317:
.LBE3316:
.LBB3322:
.LBI3322:
	.loc 2 139 14 is_stmt 1 view .LVU1266
.LBB3323:
.LBI3323:
	.loc 5 189 7 view .LVU1267
.LBB3324:
.LBI3324:
	.loc 6 104 7 view .LVU1268
	.loc 6 104 7 is_stmt 0 view .LVU1269
.LBE3324:
.LBE3323:
.LBE3322:
.LBE3315:
.LBE3312:
.LBB3325:
.LBI2706:
	.loc 2 790 7 is_stmt 1 view .LVU1270
.LBB2720:
.LBI2720:
	.loc 2 307 7 view .LVU1271
	.loc 2 307 7 is_stmt 0 view .LVU1272
.LBE2720:
.LBB2721:
.LBI2721:
	.loc 8 1082 5 is_stmt 1 view .LVU1273
	.loc 8 1082 5 is_stmt 0 view .LVU1274
.LBE2721:
.LBB2722:
.LBI2707:
	.loc 2 373 7 is_stmt 1 view .LVU1275
.LBB2716:
.LBB2709:
.LBI2709:
	.loc 2 394 7 view .LVU1276
.LBB2710:
# /usr/include/c++/16/bits/stl_vector.h:397: 	if (__p)
	.loc 2 397 2 is_stmt 0 view .LVU1277
	mov	rax, QWORD PTR 80[rsp]	# __new_finish, %sfp
	test	rax, rax	# __new_finish
	je	.L1	#,
.LVL202:
.LBB2711:
.LBI2711:
	.loc 2 394 7 is_stmt 1 view .LVU1278
.LBB2712:
.LBB2713:
.LBI2713:
	.loc 8 688 7 view .LVU1279
.LBB2714:
.LBI2714:
	.loc 6 167 7 view .LVU1280
.LBB2715:
# /usr/include/c++/16/bits/new_allocator.h:183: 	_GLIBCXX_OPERATOR_DELETE(_GLIBCXX_SIZED_DEALLOC(__p, __n));
	.loc 6 183 59 is_stmt 0 view .LVU1281
	mov	rsi, QWORD PTR 56[rsp]	#, %sfp
	mov	rdi, rax	#, __new_finish
	call	"_ZdlPvm"@PLT	#
.LVL203:
	.loc 6 183 59 view .LVU1282
.LBE2715:
.LBE2714:
.LBE2713:
.LBE2712:
.LBE2711:
.LBE2710:
.LBE2709:
.LBE2716:
.LBB2717:
.LBI2717:
	.loc 2 139 14 is_stmt 1 view .LVU1283
.LBB2718:
.LBI2718:
	.loc 5 189 7 view .LVU1284
.LBB2719:
.LBI2719:
	.loc 6 104 7 view .LVU1285
.L1:
	.loc 6 104 7 is_stmt 0 view .LVU1286
.LBE2719:
.LBE2718:
.LBE2717:
.LBE2722:
.LBE3325:
# src/avx_analysis_code_ablations/opt10_abl_tile_8x256_ilp.cpp:238: }
	.loc 1 238 1 view .LVU1287
	mov	rax, QWORD PTR 120[rsp]	#, %sfp
	lea	rsp, -40[rbp]	#,
.LVL204:
	.loc 1 238 1 view .LVU1288
	pop	rbx	#
	pop	r12	#
	pop	r13	#
	pop	r14	#
	pop	r15	#
	pop	rbp	#
	.cfi_remember_state
	.cfi_def_cfa 7, 8
.LVL205:
	.loc 1 238 1 view .LVU1289
	ret	
.LVL206:
.L2:
	.cfi_restore_state
# src/avx_analysis_code_ablations/opt10_abl_tile_8x256_ilp.cpp:44:     output.data.assign(width * height * 3, 0);
	.loc 1 44 23 view .LVU1290
	lea	r13, [r14+r14*2]	# _5,
.LVL207:
.LBB3326:
.LBB2534:
.LBB2532:
.LBB2530:
.LBB2477:
.LBB2478:
.LBI2478:
	.loc 2 589 7 is_stmt 1 view .LVU1291
.LBB2479:
.LBI2479:
	.loc 2 2203 7 view .LVU1292
.LBB2480:
.LBB2481:
.LBI2481:
	.loc 5 172 7 view .LVU1293
.LBB2482:
.LBI2482:
	.loc 6 92 7 view .LVU1294
	.loc 6 92 7 is_stmt 0 view .LVU1295
.LBE2482:
.LBE2481:
.LBB2483:
.LBI2483:
	.loc 5 189 7 is_stmt 1 view .LVU1296
.LBB2484:
.LBI2484:
	.loc 6 104 7 view .LVU1297
.LBE2484:
.LBE2483:
# /usr/include/c++/16/bits/stl_vector.h:2205: 	if (__n > _S_max_size(_Tp_alloc_type(__a)))
	.loc 2 2205 2 is_stmt 0 discriminator 3 view .LVU1298
	test	r13, r13	# _5
	js	.L133	#,
.LVL208:
	.loc 2 2205 2 discriminator 3 view .LVU1299
.LBE2480:
.LBE2479:
.LBB2486:
.LBI2486:
	.loc 2 339 7 is_stmt 1 view .LVU1300
.LBB2487:
.LBI2487:
	.loc 2 152 2 view .LVU1301
.LBB2488:
.LBI2488:
	.loc 5 172 7 view .LVU1302
.LBB2489:
.LBI2489:
	.loc 6 92 7 view .LVU1303
	.loc 6 92 7 is_stmt 0 view .LVU1304
.LBE2489:
.LBE2488:
.LBB2490:
.LBI2490:
	.loc 2 105 2 is_stmt 1 view .LVU1305
	.loc 2 105 2 is_stmt 0 view .LVU1306
.LBE2490:
.LBE2487:
.LBB2491:
.LBI2491:
	.loc 2 405 7 is_stmt 1 view .LVU1307
.LBB2492:
.LBB2493:
.LBI2493:
	.loc 2 386 7 view .LVU1308
.LBB2494:
.LBB2495:
.LBI2495:
	.loc 8 637 7 view .LVU1309
.LBB2496:
.LBI2496:
	.loc 6 129 7 view .LVU1310
.LBB2497:
# /usr/include/c++/16/bits/new_allocator.h:162: 	  return static_cast<_Tp*>(_GLIBCXX_OPERATOR_NEW(__n * sizeof(_Tp)));
	.loc 6 162 68 is_stmt 0 view .LVU1311
	mov	rdi, r13	#, _5
.LVL209:
.LEHB4:
	.loc 6 162 68 view .LVU1312
	call	"_Znwm"@PLT	#
.LVL210:
.LEHE4:
	.loc 6 162 68 view .LVU1313
.LBE2497:
.LBE2496:
.LBE2495:
.LBE2494:
.LBE2493:
.LBE2492:
.LBE2491:
.LBE2486:
.LBB2500:
.LBB2501:
.LBB2502:
.LBB2503:
.LBB2504:
.LBB2505:
# /usr/include/c++/16/bits/stl_uninitialized.h:577: 		      __builtin_memset(__dest, (unsigned char)__x, __n);
	.loc 12 577 25 view .LVU1314
	xor	esi, esi	#
	mov	rdx, r13	#, _5
.LBE2505:
.LBE2504:
.LBE2503:
.LBE2502:
.LBE2501:
.LBE2500:
.LBB2511:
.LBB2499:
.LBB2498:
# /usr/include/c++/16/bits/stl_vector.h:409: 	this->_M_impl._M_end_of_storage = this->_M_impl._M_start + __n;
	.loc 2 409 59 view .LVU1315
	lea	r15, [rax+r13]	# _559,
.LVL211:
	.loc 2 409 59 view .LVU1316
.LBE2498:
.LBE2499:
.LBE2511:
.LBB2512:
.LBI2500:
	.loc 2 1987 7 is_stmt 1 view .LVU1317
.LBB2510:
.LBI2501:
	.loc 12 771 5 view .LVU1318
.LBB2509:
.LBI2502:
	.loc 12 550 5 view .LVU1319
.LBB2508:
.LBB2507:
.LBB2506:
# /usr/include/c++/16/bits/stl_uninitialized.h:577: 		      __builtin_memset(__dest, (unsigned char)__x, __n);
	.loc 12 577 25 is_stmt 0 view .LVU1320
	mov	rdi, rax	#,
	call	"memset"@PLT	#
.LVL212:
	.loc 12 577 25 view .LVU1321
	mov	rcx, rax	# tmp1686,
.LVL213:
	.loc 12 577 25 view .LVU1322
.LBE2506:
.LBE2507:
.LBE2508:
.LBE2509:
.LBE2510:
.LBE2512:
.LBE2478:
.LBB2514:
.LBI2514:
	.loc 2 128 2 is_stmt 1 view .LVU1323
.LBB2515:
.LBB2516:
.LBI2516:
	.loc 2 105 2 view .LVU1324
	.loc 2 105 2 is_stmt 0 view .LVU1325
.LBE2516:
.LBB2517:
.LBI2517:
	.loc 2 119 2 is_stmt 1 view .LVU1326
.LBB2518:
# /usr/include/c++/16/bits/stl_vector.h:121: 	  _M_start = __x._M_start;
	.loc 2 121 13 is_stmt 0 view .LVU1327
	mov	rax, QWORD PTR 120[rsp]	# <retval>, %sfp
.LVL214:
	.loc 2 121 13 view .LVU1328
	mov	QWORD PTR 16[rax], rcx	# MEM[(struct _Vector_impl_data *)output_228(D) + 16B]._M_start, tmp1686
# /usr/include/c++/16/bits/stl_vector.h:122: 	  _M_finish = __x._M_finish;
	.loc 2 122 14 view .LVU1329
	mov	QWORD PTR 24[rax], r15	# MEM[(struct _Vector_impl_data *)output_228(D) + 16B]._M_finish, _559
# /usr/include/c++/16/bits/stl_vector.h:123: 	  _M_end_of_storage = __x._M_end_of_storage;
	.loc 2 123 22 view .LVU1330
	mov	QWORD PTR 32[rax], r15	# MEM[(struct _Vector_impl_data *)output_228(D) + 16B]._M_end_of_storage, _559
.LVL215:
	.loc 2 123 22 view .LVU1331
.LBE2518:
.LBE2517:
.LBE2515:
.LBE2514:
.LBB2519:
.LBI2519:
	.loc 2 790 7 is_stmt 1 view .LVU1332
.LBB2520:
.LBI2520:
	.loc 2 307 7 view .LVU1333
	.loc 2 307 7 is_stmt 0 view .LVU1334
.LBE2520:
.LBB2521:
.LBI2521:
	.loc 8 1082 5 is_stmt 1 view .LVU1335
	.loc 8 1082 5 is_stmt 0 view .LVU1336
.LBE2521:
.LBB2522:
.LBI2522:
	.loc 2 373 7 is_stmt 1 view .LVU1337
.LBB2523:
.LBB2524:
.LBI2524:
	.loc 2 394 7 view .LVU1338
	.loc 2 394 7 is_stmt 0 view .LVU1339
.LBE2524:
.LBE2523:
.LBB2525:
.LBI2525:
	.loc 2 139 14 is_stmt 1 view .LVU1340
.LBB2526:
.LBI2526:
	.loc 5 189 7 view .LVU1341
.LBB2527:
.LBI2527:
	.loc 6 104 7 view .LVU1342
	.loc 6 104 7 is_stmt 0 view .LVU1343
.LBE2527:
.LBE2526:
.LBE2525:
.LBE2522:
.LBE2519:
.LBE2477:
.LBE2530:
.LBE2532:
.LBE2534:
.LBE3326:
	.loc 1 47 5 is_stmt 1 view .LVU1344
.LBB3327:
	.loc 2 551 7 view .LVU1345
.LBB2562:
	.loc 2 321 7 view .LVU1346
.LBB2556:
	.loc 2 143 2 view .LVU1347
.LBB2549:
	.loc 5 168 7 view .LVU1348
.LBB2541:
	.loc 6 88 7 view .LVU1349
	.loc 6 88 7 is_stmt 0 view .LVU1350
.LBE2541:
.LBE2549:
.LBB2550:
	.loc 2 105 2 is_stmt 1 view .LVU1351
	.loc 2 105 2 is_stmt 0 view .LVU1352
.LBE2550:
.LBE2556:
.LBE2562:
.LBE3327:
	.loc 1 48 5 is_stmt 1 view .LVU1353
.LBB3328:
	.loc 2 1107 7 view .LVU1354
.LBB2570:
# /usr/include/c++/16/bits/stl_vector.h:1109: 	ptrdiff_t __dif = this->_M_impl._M_finish - this->_M_impl._M_start;
	.loc 2 1109 34 is_stmt 0 view .LVU1355
	mov	rax, QWORD PTR 8[r12]	# _433, MEM[(const struct vector *)subapertures_223(D)].D.139286._M_impl.D.138633._M_finish
.LVL216:
	.loc 2 1109 34 view .LVU1356
.LBE2570:
.LBE3328:
.LBB3329:
	.loc 7 70 5 is_stmt 1 view .LVU1357
	.loc 7 70 5 is_stmt 0 view .LVU1358
.LBE3329:
.LBB3330:
.LBB2571:
# /usr/include/c++/16/bits/stl_vector.h:1109: 	ptrdiff_t __dif = this->_M_impl._M_finish - this->_M_impl._M_start;
	.loc 2 1109 34 view .LVU1359
	mov	QWORD PTR 240[rsp], rax	# %sfp, _433
.LBE2571:
.LBE3330:
.LBB3331:
.LBB2581:
# /usr/include/c++/16/bits/vector.tcc:75:       if (this->capacity() < __n)
	.loc 7 75 7 discriminator 1 view .LVU1360
	sub	rax, rbx	# _435, SR.299
.LVL217:
	.loc 7 75 7 discriminator 1 view .LVU1361
	mov	QWORD PTR 56[rsp], rax	# %sfp, _435
	jne	.L4	#,
.LBE2581:
.LBE3331:
.LBB3332:
.LBB2563:
.LBB2557:
.LBB2551:
.LBB2544:
# /usr/include/c++/16/bits/stl_vector.h:106: 	: _M_start(), _M_finish(), _M_end_of_storage()
	.loc 2 106 4 view .LVU1362
	mov	QWORD PTR 80[rsp], 0	# %sfp,
# /usr/include/c++/16/bits/stl_vector.h:106: 	: _M_start(), _M_finish(), _M_end_of_storage()
	.loc 2 106 29 view .LVU1363
	xor	r15d, r15d	# params$_M_end_of_storage
.LVL218:
	.loc 2 106 29 view .LVU1364
	jmp	.L8	#
.LVL219:
	.p2align 4,,10
	.p2align 3
.L70:
	.loc 2 106 29 view .LVU1365
.LBE2544:
.LBE2551:
.LBE2557:
.LBE2563:
.LBE3332:
.LBB3333:
.LBB3284:
.LBB3282:
.LBB3269:
.LBB3266:
.LBB3207:
.LBB3203:
.LBB3160:
# src/avx_analysis_code_ablations/opt10_abl_tile_8x256_ilp.cpp:134:                     int x = (x_begin - tx) * 3;
	.loc 1 134 25 view .LVU1366
	mov	r8d, DWORD PTR 116[rsp]	# x, %sfp
# src/avx_analysis_code_ablations/opt10_abl_tile_8x256_ilp.cpp:125:                     size_t ind_lbot = ind_ltop + width * 3;
	.loc 1 125 28 view .LVU1367
	mov	rsi, rdi	# ind_lbot, ivtmp.556
	jmp	.L36	#
.LVL220:
.L71:
.LBB3150:
.LBB3149:
# src/avx_analysis_code_ablations/opt10_abl_tile_8x256_ilp.cpp:208:                         float TL = p.SUB[ind_ltop + k];
	.loc 1 208 38 view .LVU1368
	xor	r11d, r11d	# niters_vector_mult_vf.356
	mov	r14d, ebx	# niters.394, remaining
.LBE3149:
# src/avx_analysis_code_ablations/opt10_abl_tile_8x256_ilp.cpp:207:                     for (int k = 0; k < remaining; ++k) {
	.loc 1 207 30 view .LVU1369
	xor	r9d, r9d	# tmp.357
	add	rsi, r8	# tmp1656, _122
	sub	r14d, r11d	# niters.394, niters_vector_mult_vf.356
	add	rcx, r8	# tmp1657, _122
	add	rdx, r8	# tmp1655, _122
	lea	r10d, -1[r14]	# _885,
	cmp	r10d, 14	# _885,
	ja	.L142	#,
.LVL221:
.L72:
	.loc 1 207 30 view .LVU1370
	xor	r10d, r10d	# niters_vector_mult_vf.396
	jmp	.L42	#
.LVL222:
.L140:
	.loc 1 207 30 view .LVU1371
.LBE3150:
.LBE3160:
.LBE3203:
.LBE3207:
.LBE3266:
.LBE3269:
.LBE3282:
.LBE3284:
.LBE3333:
.LBB3334:
.LBB2564:
.LBB2558:
.LBB2552:
.LBB2545:
# /usr/include/c++/16/bits/stl_vector.h:106: 	: _M_start(), _M_finish(), _M_end_of_storage()
	.loc 2 106 4 view .LVU1372
	mov	QWORD PTR 80[rsp], 0	# %sfp,
.LBE2545:
.LBE2552:
.LBE2558:
.LBE2564:
.LBE3334:
# src/avx_analysis_code_ablations/opt10_abl_tile_8x256_ilp.cpp:39:     const int h = static_cast<int>(height);
	.loc 1 39 15 view .LVU1373
	mov	r13d, edx	# _2, _920
.LVL223:
	.loc 1 49 5 is_stmt 1 view .LVU1374
.LBB3335:
.LBB2699:
	.loc 2 988 7 view .LVU1375
.LBB2587:
	.loc 3 1058 7 view .LVU1376
	.loc 3 1058 7 is_stmt 0 view .LVU1377
.LBE2587:
.LBE2699:
.LBB2700:
	.loc 2 1008 7 is_stmt 1 view .LVU1378
.LBB2590:
	.loc 3 1058 7 view .LVU1379
	.loc 3 1058 7 is_stmt 0 view .LVU1380
.LBE2590:
.LBE2700:
	.loc 1 49 22 is_stmt 1 discriminator 5 view .LVU1381
.LBE3335:
.LBB3336:
.LBB2565:
.LBB2559:
.LBB2553:
.LBB2546:
# /usr/include/c++/16/bits/stl_vector.h:106: 	: _M_start(), _M_finish(), _M_end_of_storage()
	.loc 2 106 29 is_stmt 0 view .LVU1382
	xor	r15d, r15d	# params$_M_end_of_storage
.LBE2546:
.LBE2553:
.LBE2559:
.LBE2565:
.LBE3336:
# src/avx_analysis_code_ablations/opt10_abl_tile_8x256_ilp.cpp:38:     const int w = static_cast<int>(width);
	.loc 1 38 15 view .LVU1383
	vmovd	DWORD PTR 76[rsp], xmm0	# %sfp, tmp1866
.LBB3337:
# src/avx_analysis_code_ablations/opt10_abl_tile_8x256_ilp.cpp:49:     for (auto& sub : subapertures) {
	.loc 1 49 22 discriminator 6 view .LVU1384
	cmp	rbx, rdi	# SR.299, _433
	jne	.L5	#,
.LBE3337:
.LBB3338:
.LBB2566:
.LBB2560:
.LBB2554:
.LBB2547:
# /usr/include/c++/16/bits/stl_vector.h:106: 	: _M_start(), _M_finish(), _M_end_of_storage()
	.loc 2 106 4 view .LVU1385
	mov	QWORD PTR 128[rsp], 0	# %sfp,
.LVL224:
.L68:
	.loc 2 106 4 view .LVU1386
.LBE2547:
.LBE2554:
.LBE2560:
.LBE2566:
.LBE3338:
.LBB3339:
.LBB2775:
.LBB2755:
.LBB2753:
.LBB2751:
.LBB2749:
# /usr/include/c++/16/bits/stl_vector.h:389: 	return __n != 0 ? _Tr::allocate(_M_impl, __n) : pointer();
	.loc 2 389 58 discriminator 3 view .LVU1387
	mov	QWORD PTR 64[rsp], 0	# %sfp,
	jmp	.L20	#
.LVL225:
.L69:
	.loc 2 389 58 discriminator 3 view .LVU1388
.LBE2749:
.LBE2751:
.LBE2753:
.LBE2755:
.LBE2775:
.LBE3339:
.LBB3340:
.LBB2833:
.LBB2813:
.LBB2811:
.LBB2809:
.LBB2807:
	xor	r12d, r12d	# _519
	jmp	.L24	#
.LVL226:
.L13:
	.loc 2 389 58 discriminator 3 view .LVU1389
.LBE2807:
.LBE2809:
.LBE2811:
.LBE2813:
.LBE2833:
.LBE3340:
.LBB3341:
.LBB2701:
.LBB2695:
.LBB2691:
.LBB2616:
.LBI2616:
	.loc 7 565 7 is_stmt 1 view .LVU1390
.LBB2617:
.LBB2618:
.LBI2618:
	.loc 2 2192 7 view .LVU1391
.LBB2619:
.LBB2620:
.LBI2620:
	.loc 2 1107 7 view .LVU1392
.LBB2621:
# /usr/include/c++/16/bits/stl_vector.h:1109: 	ptrdiff_t __dif = this->_M_impl._M_finish - this->_M_impl._M_start;
	.loc 2 1109 44 is_stmt 0 view .LVU1393
	mov	rax, r15	# _629, params$_M_end_of_storage
	sub	rax, r12	# _629, params$_M_start
	mov	QWORD PTR 232[rsp], rax	# %sfp, _629
.LVL227:
# /usr/include/c++/16/bits/stl_vector.h:1109: 	ptrdiff_t __dif = this->_M_impl._M_finish - this->_M_impl._M_start;
	.loc 2 1109 12 view .LVU1394
	sar	rax, 4	# tmp915,
.LVL228:
	.loc 2 1109 12 view .LVU1395
	mov	rdx, rax	# tmp915, tmp915
	movabs	rax, -6148914691236517205	# tmp917,
	imul	rdx, rax	# __dif_630, tmp917
.LVL229:
	.loc 2 1109 12 view .LVU1396
.LBE2621:
.LBE2620:
# /usr/include/c++/16/bits/stl_vector.h:2194: 	if (max_size() - size() < __n)
	.loc 2 2194 2 discriminator 2 view .LVU1397
	movabs	rax, 192153584101141162	# tmp918,
	cmp	rdx, rax	# __dif_630, tmp918
	je	.L134	#,
.LBB2622:
.LBB2623:
# /usr/include/c++/16/bits/stl_algobase.h:261:       if (__a < __b)
	.loc 10 261 7 view .LVU1398
	test	rdx, rdx	# __dif_630
	mov	eax, 1	# tmp1737,
	mov	DWORD PTR 112[rsp], r11d	# %sfp, _553
	cmovne	rax, rdx	# __dif_630,, _632
	mov	DWORD PTR 116[rsp], ecx	# %sfp, _398
	mov	DWORD PTR 168[rsp], r9d	# %sfp, _20
.LBE2623:
.LBE2622:
# /usr/include/c++/16/bits/stl_vector.h:2197: 	const size_type __len = size() + (std::max)(size(), __n);
	.loc 2 2197 18 discriminator 3 view .LVU1399
	add	rax, rdx	# __len_633, __dif_630
# /usr/include/c++/16/bits/stl_vector.h:2198: 	return (__len < size() || __len > max_size()) ? max_size() : __len;
	.loc 2 2198 25 discriminator 3 view .LVU1400
	movabs	rdx, 192153584101141162	# tmp1738,
	mov	DWORD PTR 128[rsp], r8d	# %sfp, _16
	cmp	rax, rdx	# __len_633, tmp1738
	mov	DWORD PTR 176[rsp], esi	# %sfp, _9
	cmova	rax, rdx	# __len_633,, __len_633, tmp1738
	mov	DWORD PTR 184[rsp], r10d	# %sfp, _8
.LVL230:
.LBB2624:
.LBI2622:
	.loc 10 256 5 is_stmt 1 view .LVU1401
	.loc 10 256 5 is_stmt 0 view .LVU1402
.LBE2624:
.LBE2619:
.LBE2618:
.LBB2626:
.LBI2626:
	.loc 2 386 7 is_stmt 1 view .LVU1403
.LBB2627:
.LBB2628:
.LBI2628:
	.loc 8 637 7 view .LVU1404
.LBB2629:
.LBI2629:
	.loc 6 129 7 view .LVU1405
	.loc 6 129 7 is_stmt 0 view .LVU1406
	vmovss	DWORD PTR 136[rsp], xmm3	# %sfp, _15
.LBB2630:
# /usr/include/c++/16/bits/new_allocator.h:162: 	  return static_cast<_Tp*>(_GLIBCXX_OPERATOR_NEW(__n * sizeof(_Tp)));
	.loc 6 162 68 view .LVU1407
	lea	rax, [rax+rax*2]	# _650,
	vmovss	DWORD PTR 152[rsp], xmm0	# %sfp, _14
	sal	rax, 4	# _650,
	vmovss	DWORD PTR 160[rsp], xmm1	# %sfp, _13
	mov	rdi, rax	#, tmp925
	mov	QWORD PTR 200[rsp], rax	# %sfp, tmp925
	vmovss	DWORD PTR 172[rsp], xmm2	# %sfp, _12
.LEHB5:
	call	"_Znwm"@PLT	#
.LVL231:
.LEHE5:
	.loc 6 162 68 view .LVU1408
.LBE2630:
.LBE2629:
.LBE2628:
.LBE2627:
.LBE2626:
.LBB2639:
# /usr/include/c++/16/bits/vector.tcc:594: 	_Alloc_traits::construct(this->_M_impl,
	.loc 7 594 26 view .LVU1409
	mov	rdx, QWORD PTR 232[rsp]	# _629, %sfp
.LBB2640:
.LBB2641:
.LBB2642:
# /usr/include/c++/16/bits/new_allocator.h:203: 	{ ::new((void *)__p) _Up(std::forward<_Args>(__args)...); }
	.loc 6 203 4 discriminator 1 view .LVU1410
	mov	ecx, DWORD PTR 116[rsp]	# _398, %sfp
.LBE2642:
.LBE2641:
.LBE2640:
.LBE2639:
.LBB2683:
.LBB2637:
.LBB2635:
.LBB2633:
.LBB2631:
# /usr/include/c++/16/bits/new_allocator.h:162: 	  return static_cast<_Tp*>(_GLIBCXX_OPERATOR_NEW(__n * sizeof(_Tp)));
	.loc 6 162 68 view .LVU1411
	mov	QWORD PTR 216[rsp], rax	# %sfp, _651
.LVL232:
	.loc 6 162 68 view .LVU1412
.LBE2631:
.LBE2633:
.LBE2635:
.LBE2637:
.LBE2683:
.LBB2684:
.LBB2648:
.LBI2648:
	.loc 2 1865 2 is_stmt 1 view .LVU1413
	.loc 2 1865 2 is_stmt 0 view .LVU1414
.LBE2648:
.LBB2649:
.LBI2640:
	.loc 8 705 2 is_stmt 1 view .LVU1415
.LBB2645:
.LBI2641:
	.loc 6 201 2 view .LVU1416
.LBE2645:
.LBE2649:
.LBE2684:
.LBB2685:
.LBB2638:
.LBB2636:
.LBB2634:
.LBB2632:
# /usr/include/c++/16/bits/new_allocator.h:162: 	  return static_cast<_Tp*>(_GLIBCXX_OPERATOR_NEW(__n * sizeof(_Tp)));
	.loc 6 162 68 is_stmt 0 view .LVU1417
	mov	rdi, rax	# _651,
.LBE2632:
.LBE2634:
.LBE2636:
.LBE2638:
.LBE2685:
.LBB2686:
.LBB2650:
.LBB2646:
.LBB2643:
# /usr/include/c++/16/bits/new_allocator.h:203: 	{ ::new((void *)__p) _Up(std::forward<_Args>(__args)...); }
	.loc 6 203 4 discriminator 1 view .LVU1418
	vmovss	xmm0, DWORD PTR 152[rsp]	# _14, %sfp
	vmovss	xmm2, DWORD PTR 172[rsp]	# _12, %sfp
	mov	r10d, DWORD PTR 184[rsp]	# _8, %sfp
	mov	esi, DWORD PTR 176[rsp]	# _9, %sfp
	mov	DWORD PTR 28[rax+rdx], ecx	# _638->x_end, _398
	vinsertps	xmm0, xmm0, DWORD PTR 136[rsp], 0x10	# tmp928, _14, %sfp
	vinsertps	xmm2, xmm2, DWORD PTR 160[rsp], 0x10	# tmp929, _12, %sfp
	mov	r8d, DWORD PTR 128[rsp]	# _16, %sfp
	mov	r9d, DWORD PTR 168[rsp]	# _20, %sfp
	mov	DWORD PTR [rax+rdx], r10d	# _638->sx, _8
	mov	r11d, DWORD PTR 112[rsp]	# _553, %sfp
	mov	rcx, QWORD PTR 208[rsp]	# _440, %sfp
	vmovlhps	xmm2, xmm2, xmm0	# _1240, tmp929, tmp928
	mov	DWORD PTR 4[rax+rdx], esi	# _638->sy, _9
	mov	DWORD PTR 24[rax+rdx], r8d	# _638->x_begin, _16
	mov	DWORD PTR 32[rax+rdx], r9d	# _638->y_begin, _20
	mov	DWORD PTR 36[rax+rdx], r11d	# _638->y_end, _553
	mov	QWORD PTR 40[rax+rdx], rcx	# MEM <const unsigned char *> [(struct SubParams *)_638 + 40B], _440
.LVL233:
	.loc 6 203 4 discriminator 1 view .LVU1419
.LBE2643:
.LBE2646:
.LBE2650:
.LBB2651:
.LBI2651:
	.loc 12 1404 5 is_stmt 1 view .LVU1420
.LBB2652:
.LBI2652:
	.loc 12 1377 5 view .LVU1421
	.loc 12 1377 5 is_stmt 0 view .LVU1422
.LBE2652:
.LBE2651:
.LBB2655:
.LBB2647:
.LBB2644:
# /usr/include/c++/16/bits/new_allocator.h:203: 	{ ::new((void *)__p) _Up(std::forward<_Args>(__args)...); }
	.loc 6 203 4 discriminator 1 view .LVU1423
	vmovups	XMMWORD PTR 8[rax+rdx], xmm2	# MEM <vector(4) float> [(float *)_638 + 8B], _1240
.LBE2644:
.LBE2647:
.LBE2655:
.LBB2656:
.LBB2654:
.LBB2653:
# /usr/include/c++/16/bits/stl_uninitialized.h:1382:       if (__count > 0)
	.loc 12 1382 7 view .LVU1424
	test	rdx, rdx	# _629
	je	.L17	#,
# /usr/include/c++/16/bits/stl_uninitialized.h:1394: 	  __builtin_memcpy(__result, __first, __count * sizeof(_Tp));
	.loc 12 1394 20 view .LVU1425
	mov	rsi, r12	#, params$_M_start
	call	"memcpy"@PLT	#
.LVL234:
.L17:
	.loc 12 1394 20 view .LVU1426
.LBE2653:
.LBE2654:
.LBE2656:
# /usr/include/c++/16/bits/vector.tcc:610: 	    ++__new_finish;
	.loc 7 610 6 view .LVU1427
	mov	rax, QWORD PTR 216[rsp]	# _651, %sfp
	mov	rdi, QWORD PTR 232[rsp]	# _629, %sfp
	lea	rax, 48[rax+rdi]	# __new_finish,
.LVL235:
	.loc 7 610 6 view .LVU1428
	mov	QWORD PTR 80[rsp], rax	# %sfp, __new_finish
.LVL236:
.LBB2657:
.LBI2657:
	.loc 2 1870 2 is_stmt 1 view .LVU1429
.LBB2658:
# /usr/include/c++/16/bits/stl_vector.h:1872: 	  if (_M_storage)
	.loc 2 1872 4 is_stmt 0 view .LVU1430
	test	r12, r12	# params$_M_start
	je	.L18	#,
.LVL237:
.LBB2659:
.LBI2659:
	.loc 2 394 7 is_stmt 1 view .LVU1431
.LBB2660:
.LBB2661:
.LBI2661:
	.loc 2 394 7 view .LVU1432
.LBB2662:
.LBB2663:
.LBI2663:
	.loc 8 688 7 view .LVU1433
.LBB2664:
.LBI2664:
	.loc 6 167 7 view .LVU1434
.LBE2664:
.LBE2663:
.LBE2662:
.LBE2661:
.LBE2660:
.LBE2659:
.LBE2658:
.LBE2657:
# /usr/include/c++/16/bits/vector.tcc:648: 	__guard._M_len = this->_M_impl._M_end_of_storage - __old_start;
	.loc 7 648 51 is_stmt 0 view .LVU1435
	mov	rsi, r15	# params$_M_end_of_storage, params$_M_end_of_storage
.LBB2681:
.LBB2679:
.LBB2677:
.LBB2675:
.LBB2673:
.LBB2671:
.LBB2669:
.LBB2667:
.LBB2665:
# /usr/include/c++/16/bits/new_allocator.h:183: 	_GLIBCXX_OPERATOR_DELETE(_GLIBCXX_SIZED_DEALLOC(__p, __n));
	.loc 6 183 59 view .LVU1436
	mov	rdi, r12	#, params$_M_start
.LBE2665:
.LBE2667:
.LBE2669:
.LBE2671:
.LBE2673:
.LBE2675:
.LBE2677:
.LBE2679:
.LBE2681:
# /usr/include/c++/16/bits/vector.tcc:648: 	__guard._M_len = this->_M_impl._M_end_of_storage - __old_start;
	.loc 7 648 51 view .LVU1437
	sub	rsi, r12	# params$_M_end_of_storage, params$_M_start
.LBB2682:
.LBB2680:
.LBB2678:
.LBB2676:
.LBB2674:
.LBB2672:
.LBB2670:
.LBB2668:
.LBB2666:
# /usr/include/c++/16/bits/new_allocator.h:183: 	_GLIBCXX_OPERATOR_DELETE(_GLIBCXX_SIZED_DEALLOC(__p, __n));
	.loc 6 183 59 view .LVU1438
	call	"_ZdlPvm"@PLT	#
.LVL238:
.L18:
	.loc 6 183 59 view .LVU1439
.LBE2666:
.LBE2668:
.LBE2670:
.LBE2672:
.LBE2674:
.LBE2676:
.LBE2678:
.LBE2680:
.LBE2682:
.LBE2686:
# /usr/include/c++/16/bits/vector.tcc:655:       this->_M_impl._M_end_of_storage = __new_start + __len;
	.loc 7 655 53 view .LVU1440
	mov	r15, QWORD PTR 200[rsp]	# tmp925, %sfp
	mov	r12, QWORD PTR 216[rsp]	# _651, %sfp
.LVL239:
	.loc 7 655 53 view .LVU1441
	add	r15, r12	# tmp925, _651
.LVL240:
	.loc 7 655 53 view .LVU1442
	jmp	.L12	#
.LVL241:
.L65:
	.loc 7 655 53 view .LVU1443
.LBE2617:
.LBE2616:
.LBE2691:
.LBE2695:
.LBE2701:
# src/avx_analysis_code_ablations/opt10_abl_tile_8x256_ilp.cpp:49:     for (auto& sub : subapertures) {
	.loc 1 49 22 discriminator 6 view .LVU1444
	mov	rax, QWORD PTR 80[rsp]	# __new_finish, %sfp
	mov	QWORD PTR 128[rsp], rax	# %sfp, __new_finish
	jmp	.L9	#
.LVL242:
.L76:
	.loc 1 49 22 discriminator 6 view .LVU1445
.LBE3341:
.LBB3342:
.LBB3343:
.LBB3344:
.LBB3345:
.LBB3346:
# /usr/include/c++/16/bits/stl_vector.h:397: 	if (__p)
	.loc 2 397 2 view .LVU1446
	mov	r13, rax	# tmp1694,
	jmp	.L56	#
.LVL243:
.L129:
	.loc 2 397 2 view .LVU1447
	jmp	.L130	#
.LVL244:
.L78:
	.loc 2 397 2 view .LVU1448
	mov	rbx, rax	# tmp1645, tmp1691
	vzeroupper
.LVL245:
	jmp	.L16	#
.LVL246:
.L131:
	.loc 2 397 2 view .LVU1449
	jmp	.L132	#
.LVL247:
.L127:
	.loc 2 397 2 view .LVU1450
	jmp	.L128	#
.LVL248:
	.loc 2 397 2 view .LVU1451
.LBE3346:
.LBE3345:
.LBE3344:
.LBE3343:
.LBE3342:
	.section	.gcc_except_table,"a",@progbits
.LLSDA11707:
	.byte	0xff
	.byte	0xff
	.byte	0x1
	.uleb128 .LLSDACSE11707-.LLSDACSB11707
.LLSDACSB11707:
	.uleb128 .LEHB0-.LFB11707
	.uleb128 .LEHE0-.LEHB0
	.uleb128 .L127-.LFB11707
	.uleb128 0
	.uleb128 .LEHB1-.LFB11707
	.uleb128 .LEHE1-.LEHB1
	.uleb128 .L78-.LFB11707
	.uleb128 0
	.uleb128 .LEHB2-.LFB11707
	.uleb128 .LEHE2-.LEHB2
	.uleb128 .L129-.LFB11707
	.uleb128 0
	.uleb128 .LEHB3-.LFB11707
	.uleb128 .LEHE3-.LEHB3
	.uleb128 .L76-.LFB11707
	.uleb128 0
	.uleb128 .LEHB4-.LFB11707
	.uleb128 .LEHE4-.LEHB4
	.uleb128 .L127-.LFB11707
	.uleb128 0
	.uleb128 .LEHB5-.LFB11707
	.uleb128 .LEHE5-.LEHB5
	.uleb128 .L131-.LFB11707
	.uleb128 0
.LLSDACSE11707:
	.text
	.cfi_endproc
	.section	.text.unlikely
	.cfi_startproc
	.cfi_personality 0x9b,"DW.ref.__gxx_personality_v0"
	.cfi_lsda 0x1b,.LLSDAC11707
	.type	"_Z21refocus_shift_and_sumRSt6vectorI16SubApertureImageSaIS0_EEf.cold", @function
"_Z21refocus_shift_and_sumRSt6vectorI16SubApertureImageSaIS0_EEf.cold":
.LFSB11707:
.LBB3367:
.LBB3362:
.LBB3356:
.LBB3353:
.LBB3350:
.L133:
	.cfi_def_cfa 6, 16
	.cfi_offset 3, -56
	.cfi_offset 6, -16
	.cfi_offset 12, -48
	.cfi_offset 13, -40
	.cfi_offset 14, -32
	.cfi_offset 15, -24
.LBE3350:
.LBE3353:
.LBE3356:
.LBE3362:
.LBE3367:
.LBB3368:
.LBB2535:
.LBB2533:
.LBB2531:
.LBB2529:
.LBB2528:
.LBB2513:
.LBB2485:
# /usr/include/c++/16/bits/stl_vector.h:2206: 	  __throw_length_error(
	.loc 2 2206 24 view -0
	lea	rdi, .LC0[rip]	#,
.LVL249:
.LEHB6:
	.loc 2 2206 24 view .LVU1453
	call	"_ZSt20__throw_length_errorPKc"@PLT	#
.LVL250:
.LEHE6:
.L136:
	.loc 2 2206 24 view .LVU1454
.LBE2485:
.LBE2513:
.LBE2528:
.LBE2529:
.LBE2531:
.LBE2533:
.LBE2535:
.LBE3368:
.LBB3369:
.LBB2834:
.LBB2788:
	lea	rdi, .LC0[rip]	#,
.LEHB7:
	call	"_ZSt20__throw_length_errorPKc"@PLT	#
.LVL251:
.LEHE7:
.L134:
	.loc 2 2206 24 view .LVU1455
.LBE2788:
.LBE2834:
.LBE3369:
.LBB3370:
.LBB2702:
.LBB2696:
.LBB2692:
.LBB2689:
.LBB2688:
.LBB2687:
.LBB2625:
# /usr/include/c++/16/bits/stl_vector.h:2195: 	  __throw_length_error(__N(__s));
	.loc 2 2195 24 view .LVU1456
	lea	rdi, .LC2[rip]	#,
.LEHB8:
	call	"_ZSt20__throw_length_errorPKc"@PLT	#
.LVL252:
.LEHE8:
.L135:
	.loc 2 2195 24 view .LVU1457
.LBE2625:
.LBE2687:
.LBE2688:
.LBE2689:
.LBE2692:
.LBE2696:
.LBE2702:
.LBE3370:
.LBB3371:
.LBB2776:
.LBB2732:
# /usr/include/c++/16/bits/stl_vector.h:2206: 	  __throw_length_error(
	.loc 2 2206 24 view .LVU1458
	lea	rdi, .LC0[rip]	#,
.LEHB9:
	call	"_ZSt20__throw_length_errorPKc"@PLT	#
.LVL253:
.LEHE9:
.L56:
	.loc 2 2206 24 view .LVU1459
.LBE2732:
.LBE2776:
.LBE3371:
.LBB3372:
.LBI3342:
	.loc 2 790 7 is_stmt 1 view .LVU1460
.LBB3363:
.LBI3363:
	.loc 2 307 7 view .LVU1461
	.loc 2 307 7 is_stmt 0 view .LVU1462
.LBE3363:
.LBB3364:
.LBI3364:
	.loc 8 1082 5 is_stmt 1 view .LVU1463
	.loc 8 1082 5 is_stmt 0 view .LVU1464
.LBE3364:
.LBB3365:
.LBI3343:
	.loc 2 373 7 is_stmt 1 view .LVU1465
.LBB3357:
.LBB3354:
.LBI3345:
	.loc 2 394 7 view .LVU1466
.LBB3351:
# /usr/include/c++/16/bits/stl_vector.h:397: 	if (__p)
	.loc 2 397 2 is_stmt 0 view .LVU1467
	test	r12, r12	# _519
	jne	.L143	#,
	vzeroupper
.LVL254:
.L57:
	.loc 2 397 2 view .LVU1468
.LBE3351:
.LBE3354:
.LBE3357:
.LBB3358:
.LBI3358:
	.loc 2 139 14 is_stmt 1 view .LVU1469
.LBB3359:
.LBI3359:
	.loc 5 189 7 view .LVU1470
.LBB3360:
.LBI3360:
	.loc 6 104 7 view .LVU1471
	.loc 6 104 7 is_stmt 0 view .LVU1472
	mov	rbx, r13	# tmp1641, tmp1694
.LVL255:
	.loc 6 104 7 view .LVU1473
	jmp	.L58	#
.LVL256:
.L75:
.L130:
	.loc 6 104 7 view .LVU1474
.LBE3360:
.LBE3359:
.LBE3358:
.LBE3365:
.LBE3372:
.LBB3373:
.LBB3374:
.LBB3375:
.LBB3376:
.LBB3377:
# /usr/include/c++/16/bits/stl_vector.h:397: 	if (__p)
	.loc 2 397 2 view .LVU1475
	mov	rbx, rax	# tmp1641, tmp1695
	vzeroupper
.LVL257:
.L58:
	.loc 2 397 2 view .LVU1476
.LBE3377:
.LBE3376:
.LBE3375:
.LBE3374:
.LBI3373:
	.loc 2 790 7 is_stmt 1 view .LVU1477
.LBB3387:
.LBI3387:
	.loc 2 307 7 view .LVU1478
	.loc 2 307 7 is_stmt 0 view .LVU1479
.LBE3387:
.LBB3388:
.LBI3388:
	.loc 8 1082 5 is_stmt 1 view .LVU1480
	.loc 8 1082 5 is_stmt 0 view .LVU1481
.LBE3388:
.LBB3389:
.LBI3374:
	.loc 2 373 7 is_stmt 1 view .LVU1482
.LBB3383:
.LBB3382:
.LBI3376:
	.loc 2 394 7 view .LVU1483
.LBB3381:
# /usr/include/c++/16/bits/stl_vector.h:397: 	if (__p)
	.loc 2 397 2 is_stmt 0 view .LVU1484
	cmp	QWORD PTR 64[rsp], 0	# %sfp,
	je	.L16	#,
.LVL258:
.LBB3378:
.LBI3378:
	.loc 8 688 7 is_stmt 1 view .LVU1485
.LBB3379:
.LBI3379:
	.loc 6 167 7 view .LVU1486
.LBB3380:
# /usr/include/c++/16/bits/new_allocator.h:183: 	_GLIBCXX_OPERATOR_DELETE(_GLIBCXX_SIZED_DEALLOC(__p, __n));
	.loc 6 183 59 is_stmt 0 view .LVU1487
	mov	rdi, QWORD PTR 64[rsp]	#, %sfp
	mov	rsi, r14	#, _4
	call	"_ZdlPvm"@PLT	#
.LVL259:
	.loc 6 183 59 view .LVU1488
.LBE3380:
.LBE3379:
.LBE3378:
.LBE3381:
.LBE3382:
.LBE3383:
.LBB3384:
.LBI3384:
	.loc 2 139 14 is_stmt 1 view .LVU1489
.LBB3385:
.LBI3385:
	.loc 5 189 7 view .LVU1490
.LBB3386:
.LBI3386:
	.loc 6 104 7 view .LVU1491
.L16:
	.loc 6 104 7 is_stmt 0 view .LVU1492
.LBE3386:
.LBE3385:
.LBE3384:
.LBE3389:
.LBE3373:
.LBB3390:
.LBI3390:
	.loc 2 790 7 is_stmt 1 view .LVU1493
.LBB3391:
.LBI3391:
	.loc 2 307 7 view .LVU1494
	.loc 2 307 7 is_stmt 0 view .LVU1495
.LBE3391:
.LBB3392:
.LBI3392:
	.loc 8 1082 5 is_stmt 1 view .LVU1496
	.loc 8 1082 5 is_stmt 0 view .LVU1497
.LBE3392:
.LBB3393:
.LBI3393:
	.loc 2 373 7 is_stmt 1 view .LVU1498
.LBB3394:
.LBB3395:
.LBI3395:
	.loc 2 394 7 view .LVU1499
.LBB3396:
# /usr/include/c++/16/bits/stl_vector.h:397: 	if (__p)
	.loc 2 397 2 is_stmt 0 view .LVU1500
	cmp	QWORD PTR 80[rsp], 0	# %sfp,
	je	.L61	#,
.LVL260:
.LBB3397:
.LBI3397:
	.loc 2 394 7 is_stmt 1 view .LVU1501
.LBB3398:
.LBB3399:
.LBI3399:
	.loc 8 688 7 view .LVU1502
.LBB3400:
.LBI3400:
	.loc 6 167 7 view .LVU1503
.LBE3400:
.LBE3399:
.LBE3398:
.LBE3397:
.LBE3396:
.LBE3395:
# /usr/include/c++/16/bits/stl_vector.h:375: 	ptrdiff_t __n = _M_impl._M_end_of_storage - _M_impl._M_start;
	.loc 2 375 44 is_stmt 0 view .LVU1504
	mov	rdi, QWORD PTR 80[rsp]	# __new_finish, %sfp
	mov	rsi, r15	# params$_M_end_of_storage, params$_M_end_of_storage
	sub	rsi, rdi	# params$_M_end_of_storage, __new_finish
.LBB3408:
.LBB3406:
.LBB3405:
.LBB3404:
.LBB3403:
.LBB3402:
.LBB3401:
# /usr/include/c++/16/bits/new_allocator.h:183: 	_GLIBCXX_OPERATOR_DELETE(_GLIBCXX_SIZED_DEALLOC(__p, __n));
	.loc 6 183 59 view .LVU1505
	call	"_ZdlPvm"@PLT	#
.LVL261:
	.loc 6 183 59 view .LVU1506
.LBE3401:
.LBE3402:
.LBE3403:
.LBE3404:
.LBE3405:
.LBE3406:
.LBE3408:
.LBE3394:
.LBB3410:
.LBI3410:
	.loc 2 139 14 is_stmt 1 view .LVU1507
.LBB3411:
.LBI3411:
	.loc 5 189 7 view .LVU1508
.LBB3412:
.LBI3412:
	.loc 6 104 7 view .LVU1509
	.loc 6 104 7 is_stmt 0 view .LVU1510
	jmp	.L61	#
.LVL262:
.L73:
.L128:
	.loc 6 104 7 view .LVU1511
.LBE3412:
.LBE3411:
.LBE3410:
.LBE3393:
.LBE3390:
.LBB3415:
.LBB3416:
.LBB3417:
.LBB3418:
# /usr/include/c++/16/bits/stl_vector.h:375: 	ptrdiff_t __n = _M_impl._M_end_of_storage - _M_impl._M_start;
	.loc 2 375 54 view .LVU1512
	mov	rbx, rax	# tmp1648, tmp1697
	vzeroupper
.LVL263:
.L61:
	.loc 2 375 54 view .LVU1513
.LBE3418:
.LBE3417:
.LBE3416:
.LBI3415:
	.loc 4 11 8 is_stmt 1 view .LVU1514
.LBB3435:
.LBI3416:
	.loc 2 790 7 view .LVU1515
.LBB3432:
.LBI3432:
	.loc 2 307 7 view .LVU1516
	.loc 2 307 7 is_stmt 0 view .LVU1517
.LBE3432:
.LBB3433:
.LBI3433:
	.loc 8 1082 5 is_stmt 1 view .LVU1518
	.loc 8 1082 5 is_stmt 0 view .LVU1519
.LBE3433:
.LBB3434:
.LBI3417:
	.loc 2 373 7 is_stmt 1 view .LVU1520
.LBB3428:
# /usr/include/c++/16/bits/stl_vector.h:375: 	ptrdiff_t __n = _M_impl._M_end_of_storage - _M_impl._M_start;
	.loc 2 375 54 is_stmt 0 view .LVU1521
	mov	rax, QWORD PTR 120[rsp]	# <retval>, %sfp
	mov	rdi, QWORD PTR 16[rax]	# _502, MEM[(struct _Vector_base *)output_228(D) + 16B]._M_impl.D.86896._M_start
.LVL264:
.LBB3419:
.LBI3419:
	.loc 2 394 7 is_stmt 1 view .LVU1522
.LBB3420:
# /usr/include/c++/16/bits/stl_vector.h:397: 	if (__p)
	.loc 2 397 2 is_stmt 0 view .LVU1523
	test	rdi, rdi	# _502
	je	.L62	#,
.LVL265:
.LBB3421:
.LBI3421:
	.loc 8 688 7 is_stmt 1 view .LVU1524
.LBB3422:
.LBI3422:
	.loc 6 167 7 view .LVU1525
.LBE3422:
.LBE3421:
.LBE3420:
.LBE3419:
# /usr/include/c++/16/bits/stl_vector.h:375: 	ptrdiff_t __n = _M_impl._M_end_of_storage - _M_impl._M_start;
	.loc 2 375 12 is_stmt 0 view .LVU1526
	mov	rsi, QWORD PTR 32[rax]	# MEM[(struct _Vector_base *)output_228(D) + 16B]._M_impl.D.86896._M_end_of_storage, MEM[(struct _Vector_base *)output_228(D) + 16B]._M_impl.D.86896._M_end_of_storage
	sub	rsi, rdi	# __n_503, _502
.LBB3427:
.LBB3426:
.LBB3425:
.LBB3424:
.LBB3423:
# /usr/include/c++/16/bits/new_allocator.h:183: 	_GLIBCXX_OPERATOR_DELETE(_GLIBCXX_SIZED_DEALLOC(__p, __n));
	.loc 6 183 59 view .LVU1527
	call	"_ZdlPvm"@PLT	#
.LVL266:
.L62:
	.loc 6 183 59 view .LVU1528
.LBE3423:
.LBE3424:
.LBE3425:
.LBE3426:
.LBE3427:
.LBE3428:
.LBB3429:
.LBI3429:
	.loc 2 139 14 is_stmt 1 view .LVU1529
.LBB3430:
.LBI3430:
	.loc 5 189 7 view .LVU1530
.LBB3431:
.LBI3431:
	.loc 6 104 7 view .LVU1531
	.loc 6 104 7 is_stmt 0 view .LVU1532
	mov	rdi, rbx	#, tmp1648
.LEHB10:
	call	"_Unwind_Resume"@PLT	#
.LVL267:
.LEHE10:
.L143:
	.loc 6 104 7 view .LVU1533
.LBE3431:
.LBE3430:
.LBE3429:
.LBE3434:
.LBE3435:
.LBE3415:
.LBB3436:
.LBB3366:
.LBB3361:
.LBB3355:
.LBB3352:
.LBB3347:
.LBI3347:
	.loc 8 688 7 is_stmt 1 view .LVU1534
.LBB3348:
.LBI3348:
	.loc 6 167 7 view .LVU1535
.LBB3349:
# /usr/include/c++/16/bits/new_allocator.h:183: 	_GLIBCXX_OPERATOR_DELETE(_GLIBCXX_SIZED_DEALLOC(__p, __n));
	.loc 6 183 59 is_stmt 0 view .LVU1536
	mov	rsi, rbx	#, _26
	mov	rdi, r12	#, _519
	vzeroupper
.LVL268:
	call	"_ZdlPvm"@PLT	#
.LVL269:
	.loc 6 183 59 view .LVU1537
	jmp	.L57	#
.LVL270:
.L77:
.L132:
	.loc 6 183 59 view .LVU1538
.LBE3349:
.LBE3348:
.LBE3347:
.LBE3352:
.LBE3355:
.LBE3361:
.LBE3366:
.LBE3436:
.LBB3437:
.LBB3285:
.LBB3283:
.LBB3270:
.LBB3267:
.LBB3233:
# src/avx_analysis_code_ablations/opt10_abl_tile_8x256_ilp.cpp:220:                 unsigned char* outp = output.data.data() + (y * width + tx) * 3;
	.loc 1 220 79 discriminator 1 view .LVU1539
	mov	QWORD PTR 80[rsp], r12	# %sfp, params$_M_start
	mov	rbx, rax	# tmp1645, tmp1688
.LVL271:
	.loc 1 220 79 discriminator 1 view .LVU1540
	vzeroupper
.LVL272:
	jmp	.L16	#
.LVL273:
.L74:
	.loc 1 220 79 discriminator 1 view .LVU1541
.LBE3233:
.LBE3267:
.LBE3270:
.LBE3283:
.LBE3285:
.LBE3437:
.LBB3438:
.LBB3414:
.LBB3413:
.LBB3409:
.LBB3407:
# /usr/include/c++/16/bits/stl_vector.h:397: 	if (__p)
	.loc 2 397 2 view .LVU1542
	mov	rbx, rax	# tmp1645, tmp1696
	vzeroupper
.LVL274:
	jmp	.L16	#
.LBE3407:
.LBE3409:
.LBE3413:
.LBE3414:
.LBE3438:
	.cfi_endproc
.LFE11707:
	.section	.gcc_except_table
.LLSDAC11707:
	.byte	0xff
	.byte	0xff
	.byte	0x1
	.uleb128 .LLSDACSEC11707-.LLSDACSBC11707
.LLSDACSBC11707:
	.uleb128 .LEHB6-.LCOLDB5
	.uleb128 .LEHE6-.LEHB6
	.uleb128 .L73-.LCOLDB5
	.uleb128 0
	.uleb128 .LEHB7-.LCOLDB5
	.uleb128 .LEHE7-.LEHB7
	.uleb128 .L75-.LCOLDB5
	.uleb128 0
	.uleb128 .LEHB8-.LCOLDB5
	.uleb128 .LEHE8-.LEHB8
	.uleb128 .L77-.LCOLDB5
	.uleb128 0
	.uleb128 .LEHB9-.LCOLDB5
	.uleb128 .LEHE9-.LEHB9
	.uleb128 .L74-.LCOLDB5
	.uleb128 0
	.uleb128 .LEHB10-.LCOLDB5
	.uleb128 .LEHE10-.LEHB10
	.uleb128 0
	.uleb128 0
.LLSDACSEC11707:
	.section	.text.unlikely
	.text
	.size	"_Z21refocus_shift_and_sumRSt6vectorI16SubApertureImageSaIS0_EEf", .-"_Z21refocus_shift_and_sumRSt6vectorI16SubApertureImageSaIS0_EEf"
	.section	.text.unlikely
	.size	"_Z21refocus_shift_and_sumRSt6vectorI16SubApertureImageSaIS0_EEf.cold", .-"_Z21refocus_shift_and_sumRSt6vectorI16SubApertureImageSaIS0_EEf.cold"
.LCOLDE5:
	.text
.LHOTE5:
	.section	.rodata.cst4,"aM",@progbits,4
	.align 4
.LC1:
	.long	1065353216
	.text
.Letext0:
	.section	.text.unlikely
.Letext_cold0:
	.file 17 "/usr/include/c++/16/cwchar"
	.file 18 "/usr/include/x86_64-linux-gnu/c++/16/bits/c++config.h"
	.file 19 "/usr/include/c++/16/type_traits"
	.file 20 "/usr/include/c++/16/bits/exception_ptr.h"
	.file 21 "/usr/include/c++/16/clocale"
	.file 22 "/usr/include/c++/16/bits/stl_iterator_base_types.h"
	.file 23 "/usr/include/c++/16/debug/debug.h"
	.file 24 "/usr/include/c++/16/cstdlib"
	.file 25 "/usr/include/c++/16/cstdio"
	.file 26 "/usr/include/c++/16/cstddef"
	.file 27 "/usr/include/c++/16/cstdint"
	.file 28 "/usr/include/c++/16/ctime"
	.file 29 "/usr/include/c++/16/bits/chrono.h"
	.file 30 "/usr/include/c++/16/system_error"
	.file 31 "/usr/include/c++/16/bits/fs_fwd.h"
	.file 32 "/usr/include/c++/16/bits/fs_path.h"
	.file 33 "/usr/include/c++/16/cwctype"
	.file 34 "/usr/include/c++/16/bits/shared_ptr_base.h"
	.file 35 "/usr/include/c++/16/bits/std_abs.h"
	.file 36 "/usr/include/c++/16/initializer_list"
	.file 37 "/usr/include/c++/16/bits/new_throw.h"
	.file 38 "/usr/include/c++/16/bits/stdexcept_throwfwd.h"
	.file 39 "/usr/include/c++/16/bits/ptr_traits.h"
	.file 40 "/usr/lib/gcc/x86_64-linux-gnu/16/include/stddef.h"
	.file 41 "<built-in>"
	.file 42 "/usr/include/x86_64-linux-gnu/bits/types/wint_t.h"
	.file 43 "/usr/include/x86_64-linux-gnu/bits/types/__mbstate_t.h"
	.file 44 "/usr/include/x86_64-linux-gnu/bits/types/mbstate_t.h"
	.file 45 "/usr/include/x86_64-linux-gnu/bits/types/__FILE.h"
	.file 46 "/usr/include/x86_64-linux-gnu/bits/types/struct_FILE.h"
	.file 47 "/usr/include/x86_64-linux-gnu/bits/types/FILE.h"
	.file 48 "/usr/include/wchar.h"
	.file 49 "/usr/include/x86_64-linux-gnu/bits/types/struct_tm.h"
	.file 50 "/usr/include/c++/16/ext/alloc_traits.h"
	.file 51 "/usr/include/c++/16/ext/type_traits.h"
	.file 52 "/usr/include/locale.h"
	.file 53 "/usr/include/x86_64-linux-gnu/bits/types.h"
	.file 54 "/usr/include/stdlib.h"
	.file 55 "/usr/include/x86_64-linux-gnu/bits/types/clock_t.h"
	.file 56 "/usr/include/x86_64-linux-gnu/bits/types/time_t.h"
	.file 57 "/usr/include/x86_64-linux-gnu/bits/stdint-intn.h"
	.file 58 "/usr/include/x86_64-linux-gnu/bits/types/struct_timespec.h"
	.file 59 "/usr/include/x86_64-linux-gnu/bits/stdlib-float.h"
	.file 60 "/usr/include/x86_64-linux-gnu/bits/stdlib-bsearch.h"
	.file 61 "/usr/include/x86_64-linux-gnu/bits/types/__fpos_t.h"
	.file 62 "/usr/include/stdio.h"
	.file 63 "/usr/include/x86_64-linux-gnu/bits/stdio.h"
	.file 64 "/usr/include/x86_64-linux-gnu/bits/stdint-uintn.h"
	.file 65 "/usr/include/x86_64-linux-gnu/bits/stdint-least.h"
	.file 66 "/usr/include/stdint.h"
	.file 67 "/usr/include/time.h"
	.file 68 "/usr/include/x86_64-linux-gnu/bits/wctype-wchar.h"
	.file 69 "/usr/include/wctype.h"
	.file 70 "/usr/include/math.h"
	.file 71 "/usr/include/c++/16/pstl/execution_defs.h"
	.file 72 "/usr/lib/gcc/x86_64-linux-gnu/16/include/mmintrin.h"
	.file 73 "/usr/include/c++/16/stdlib.h"
	.file 74 "/usr/include/c++/16/new"
	.file 75 "/usr/include/c++/16/bits/memory_resource.h"
	.file 76 "/usr/include/c++/16/string_view"
	.file 77 "/usr/include/c++/16/ext/concurrence.h"
	.section	.debug_info,"",@progbits
.Ldebug_info0:
	.long	0x124ef
	.value	0x5
	.byte	0x1
	.byte	0x8
	.long	.Ldebug_abbrev0
	.uleb128 0xa0
	.long	.LASF1491
	.byte	0x21
	.byte	0x4
	.long	0x313e7
	.long	.LASF0
	.long	.LASF1
	.long	.LLRL620
	.quad	0
	.long	.Ldebug_line0
	.uleb128 0x2c
	.byte	0x4
	.byte	0x4
	.long	.LASF2
	.uleb128 0x2c
	.byte	0x8
	.byte	0x7
	.long	.LASF3
	.uleb128 0xd
	.long	0x43
	.uleb128 0x2c
	.byte	0x1
	.byte	0x6
	.long	.LASF4
	.uleb128 0x7
	.long	0x43
	.uleb128 0xa1
	.byte	0x4
	.byte	0x5
	.string	"int"
	.uleb128 0x7
	.long	0x4f
	.uleb128 0xa2
	.string	"std"
	.byte	0x12
	.value	0x156
	.byte	0xb
	.long	0x75f6
	.uleb128 0x5
	.byte	0x11
	.byte	0x42
	.byte	0xb
	.long	0x76bf
	.uleb128 0x5
	.byte	0x11
	.byte	0x8f
	.byte	0xb
	.long	0x764c
	.uleb128 0x5
	.byte	0x11
	.byte	0x91
	.byte	0xb
	.long	0x7890
	.uleb128 0x5
	.byte	0x11
	.byte	0x92
	.byte	0xb
	.long	0x78a7
	.uleb128 0x5
	.byte	0x11
	.byte	0x93
	.byte	0xb
	.long	0x78c3
	.uleb128 0x5
	.byte	0x11
	.byte	0x94
	.byte	0xb
	.long	0x78f5
	.uleb128 0x5
	.byte	0x11
	.byte	0x95
	.byte	0xb
	.long	0x7911
	.uleb128 0x5
	.byte	0x11
	.byte	0x96
	.byte	0xb
	.long	0x7932
	.uleb128 0x5
	.byte	0x11
	.byte	0x97
	.byte	0xb
	.long	0x794e
	.uleb128 0x5
	.byte	0x11
	.byte	0x98
	.byte	0xb
	.long	0x796b
	.uleb128 0x5
	.byte	0x11
	.byte	0x99
	.byte	0xb
	.long	0x798c
	.uleb128 0x5
	.byte	0x11
	.byte	0x9a
	.byte	0xb
	.long	0x79a3
	.uleb128 0x5
	.byte	0x11
	.byte	0x9b
	.byte	0xb
	.long	0x79b1
	.uleb128 0x5
	.byte	0x11
	.byte	0x9c
	.byte	0xb
	.long	0x79d7
	.uleb128 0x5
	.byte	0x11
	.byte	0x9d
	.byte	0xb
	.long	0x79fd
	.uleb128 0x5
	.byte	0x11
	.byte	0x9e
	.byte	0xb
	.long	0x7a19
	.uleb128 0x5
	.byte	0x11
	.byte	0x9f
	.byte	0xb
	.long	0x7a44
	.uleb128 0x5
	.byte	0x11
	.byte	0xa0
	.byte	0xb
	.long	0x7a60
	.uleb128 0x5
	.byte	0x11
	.byte	0xa2
	.byte	0xb
	.long	0x7a77
	.uleb128 0x5
	.byte	0x11
	.byte	0xa4
	.byte	0xb
	.long	0x7a99
	.uleb128 0x5
	.byte	0x11
	.byte	0xa5
	.byte	0xb
	.long	0x7aba
	.uleb128 0x5
	.byte	0x11
	.byte	0xa6
	.byte	0xb
	.long	0x7ad6
	.uleb128 0x5
	.byte	0x11
	.byte	0xa8
	.byte	0xb
	.long	0x7afc
	.uleb128 0x5
	.byte	0x11
	.byte	0xab
	.byte	0xb
	.long	0x7b21
	.uleb128 0x5
	.byte	0x11
	.byte	0xae
	.byte	0xb
	.long	0x7b47
	.uleb128 0x5
	.byte	0x11
	.byte	0xb0
	.byte	0xb
	.long	0x7b6c
	.uleb128 0x5
	.byte	0x11
	.byte	0xb2
	.byte	0xb
	.long	0x7b88
	.uleb128 0x5
	.byte	0x11
	.byte	0xb4
	.byte	0xb
	.long	0x7ba8
	.uleb128 0x5
	.byte	0x11
	.byte	0xb5
	.byte	0xb
	.long	0x7bc9
	.uleb128 0x5
	.byte	0x11
	.byte	0xb6
	.byte	0xb
	.long	0x7be4
	.uleb128 0x5
	.byte	0x11
	.byte	0xb7
	.byte	0xb
	.long	0x7bff
	.uleb128 0x5
	.byte	0x11
	.byte	0xb8
	.byte	0xb
	.long	0x7c1a
	.uleb128 0x5
	.byte	0x11
	.byte	0xb9
	.byte	0xb
	.long	0x7c35
	.uleb128 0x5
	.byte	0x11
	.byte	0xba
	.byte	0xb
	.long	0x7c50
	.uleb128 0x5
	.byte	0x11
	.byte	0xbb
	.byte	0xb
	.long	0x7d1d
	.uleb128 0x5
	.byte	0x11
	.byte	0xbc
	.byte	0xb
	.long	0x7d33
	.uleb128 0x5
	.byte	0x11
	.byte	0xbd
	.byte	0xb
	.long	0x7d53
	.uleb128 0x5
	.byte	0x11
	.byte	0xbe
	.byte	0xb
	.long	0x7d73
	.uleb128 0x5
	.byte	0x11
	.byte	0xbf
	.byte	0xb
	.long	0x7d93
	.uleb128 0x5
	.byte	0x11
	.byte	0xc0
	.byte	0xb
	.long	0x7dbe
	.uleb128 0x5
	.byte	0x11
	.byte	0xc1
	.byte	0xb
	.long	0x7dd9
	.uleb128 0x5
	.byte	0x11
	.byte	0xc3
	.byte	0xb
	.long	0x7e01
	.uleb128 0x5
	.byte	0x11
	.byte	0xc5
	.byte	0xb
	.long	0x7e22
	.uleb128 0x5
	.byte	0x11
	.byte	0xc6
	.byte	0xb
	.long	0x7e42
	.uleb128 0x5
	.byte	0x11
	.byte	0xc7
	.byte	0xb
	.long	0x7e6e
	.uleb128 0x5
	.byte	0x11
	.byte	0xc8
	.byte	0xb
	.long	0x7e93
	.uleb128 0x5
	.byte	0x11
	.byte	0xc9
	.byte	0xb
	.long	0x7eb3
	.uleb128 0x5
	.byte	0x11
	.byte	0xca
	.byte	0xb
	.long	0x7eca
	.uleb128 0x5
	.byte	0x11
	.byte	0xcb
	.byte	0xb
	.long	0x7eeb
	.uleb128 0x5
	.byte	0x11
	.byte	0xcc
	.byte	0xb
	.long	0x7f0c
	.uleb128 0x5
	.byte	0x11
	.byte	0xcd
	.byte	0xb
	.long	0x7f2d
	.uleb128 0x5
	.byte	0x11
	.byte	0xce
	.byte	0xb
	.long	0x7f4e
	.uleb128 0x5
	.byte	0x11
	.byte	0xcf
	.byte	0xb
	.long	0x7f66
	.uleb128 0x5
	.byte	0x11
	.byte	0xd0
	.byte	0xb
	.long	0x7f82
	.uleb128 0x5
	.byte	0x11
	.byte	0xd0
	.byte	0xb
	.long	0x7fa1
	.uleb128 0x5
	.byte	0x11
	.byte	0xd1
	.byte	0xb
	.long	0x7fc0
	.uleb128 0x5
	.byte	0x11
	.byte	0xd1
	.byte	0xb
	.long	0x7fdf
	.uleb128 0x5
	.byte	0x11
	.byte	0xd2
	.byte	0xb
	.long	0x7ffe
	.uleb128 0x5
	.byte	0x11
	.byte	0xd2
	.byte	0xb
	.long	0x801d
	.uleb128 0x5
	.byte	0x11
	.byte	0xd3
	.byte	0xb
	.long	0x803c
	.uleb128 0x5
	.byte	0x11
	.byte	0xd3
	.byte	0xb
	.long	0x805b
	.uleb128 0x5
	.byte	0x11
	.byte	0xd4
	.byte	0xb
	.long	0x807a
	.uleb128 0x5
	.byte	0x11
	.byte	0xd4
	.byte	0xb
	.long	0x809f
	.uleb128 0x18
	.byte	0x11
	.value	0x10d
	.byte	0x16
	.long	0x9200
	.uleb128 0x18
	.byte	0x11
	.value	0x10e
	.byte	0x16
	.long	0x9223
	.uleb128 0x18
	.byte	0x11
	.value	0x10f
	.byte	0x16
	.long	0x924f
	.uleb128 0x18
	.byte	0x11
	.value	0x11d
	.byte	0xe
	.long	0x7e01
	.uleb128 0x18
	.byte	0x11
	.value	0x120
	.byte	0xe
	.long	0x7afc
	.uleb128 0x18
	.byte	0x11
	.value	0x123
	.byte	0xe
	.long	0x7b47
	.uleb128 0x18
	.byte	0x11
	.value	0x126
	.byte	0xe
	.long	0x7b88
	.uleb128 0x18
	.byte	0x11
	.value	0x12a
	.byte	0xe
	.long	0x9200
	.uleb128 0x18
	.byte	0x11
	.value	0x12b
	.byte	0xe
	.long	0x9223
	.uleb128 0x18
	.byte	0x11
	.value	0x12c
	.byte	0xe
	.long	0x924f
	.uleb128 0x1e
	.long	.LASF5
	.byte	0x12
	.value	0x158
	.byte	0x1a
	.long	0x37
	.uleb128 0x7
	.long	0x2bc
	.uleb128 0x19
	.long	.LASF11
	.byte	0x1
	.byte	0x13
	.byte	0x5f
	.byte	0xc
	.long	0x338
	.uleb128 0x8
	.long	.LASF6
	.byte	0x13
	.byte	0x62
	.byte	0xd
	.long	0x92bf
	.uleb128 0x45
	.long	.LASF7
	.byte	0x13
	.byte	0x64
	.byte	0x11
	.long	.LASF9
	.long	0x2db
	.long	0x2ff
	.long	0x305
	.uleb128 0x2
	.long	0x92cb
	.byte	0
	.uleb128 0x45
	.long	.LASF8
	.byte	0x13
	.byte	0x67
	.byte	0x1c
	.long	.LASF10
	.long	0x2db
	.long	0x31d
	.long	0x323
	.uleb128 0x2
	.long	0x92cb
	.byte	0
	.uleb128 0xf
	.string	"_Tp"
	.long	0x92bf
	.uleb128 0x82
	.string	"__v"
	.long	0x92bf
	.byte	0x1
	.byte	0
	.uleb128 0x7
	.long	0x2ce
	.uleb128 0x19
	.long	.LASF12
	.byte	0x1
	.byte	0x13
	.byte	0x5f
	.byte	0xc
	.long	0x3a7
	.uleb128 0x8
	.long	.LASF6
	.byte	0x13
	.byte	0x62
	.byte	0xd
	.long	0x92bf
	.uleb128 0x45
	.long	.LASF13
	.byte	0x13
	.byte	0x64
	.byte	0x11
	.long	.LASF14
	.long	0x34a
	.long	0x36e
	.long	0x374
	.uleb128 0x2
	.long	0x92d0
	.byte	0
	.uleb128 0x45
	.long	.LASF8
	.byte	0x13
	.byte	0x67
	.byte	0x1c
	.long	.LASF15
	.long	0x34a
	.long	0x38c
	.long	0x392
	.uleb128 0x2
	.long	0x92d0
	.byte	0
	.uleb128 0xf
	.string	"_Tp"
	.long	0x92bf
	.uleb128 0x82
	.string	"__v"
	.long	0x92bf
	.byte	0
	.byte	0
	.uleb128 0x7
	.long	0x33d
	.uleb128 0x8
	.long	.LASF16
	.byte	0x13
	.byte	0x7a
	.byte	0x9
	.long	0x3b8
	.uleb128 0x8
	.long	.LASF17
	.byte	0x13
	.byte	0x73
	.byte	0xb
	.long	0x33d
	.uleb128 0x83
	.long	.LASF18
	.value	0xbfb
	.uleb128 0x83
	.long	.LASF19
	.value	0xc50
	.uleb128 0x6d
	.long	.LASF20
	.byte	0x14
	.byte	0x3d
	.byte	0xd
	.long	0x5f0
	.uleb128 0x3e
	.long	.LASF21
	.byte	0x8
	.byte	0x14
	.byte	0x69
	.long	0x5c9
	.uleb128 0x11
	.long	.LASF107
	.byte	0x14
	.byte	0x6b
	.byte	0xd
	.long	0x7649
	.byte	0
	.uleb128 0x84
	.long	.LASF21
	.byte	0x14
	.byte	0x7f
	.byte	0x10
	.long	.LASF22
	.long	0x40e
	.long	0x419
	.uleb128 0x2
	.long	0x930b
	.uleb128 0x1
	.long	0x7649
	.byte	0
	.uleb128 0x23
	.long	.LASF23
	.byte	0x14
	.byte	0x82
	.byte	0xc
	.long	.LASF25
	.long	0x42d
	.long	0x433
	.uleb128 0x2
	.long	0x930b
	.byte	0
	.uleb128 0x23
	.long	.LASF24
	.byte	0x14
	.byte	0x83
	.byte	0xc
	.long	.LASF26
	.long	0x447
	.long	0x44d
	.uleb128 0x2
	.long	0x930b
	.byte	0
	.uleb128 0x45
	.long	.LASF27
	.byte	0x14
	.byte	0x85
	.byte	0xd
	.long	.LASF28
	.long	0x7649
	.long	0x465
	.long	0x46b
	.uleb128 0x2
	.long	0x9310
	.byte	0
	.uleb128 0x45
	.long	.LASF29
	.byte	0x14
	.byte	0x92
	.byte	0x13
	.long	.LASF30
	.long	0x9315
	.long	0x483
	.long	0x48e
	.uleb128 0x2
	.long	0x9310
	.uleb128 0x1
	.long	0x931c
	.byte	0
	.uleb128 0x24
	.long	.LASF21
	.byte	0x14
	.byte	0x96
	.byte	0x1c
	.long	.LASF31
	.byte	0x1
	.long	0x4a3
	.long	0x4a9
	.uleb128 0x2
	.long	0x930b
	.byte	0
	.uleb128 0x24
	.long	.LASF21
	.byte	0x14
	.byte	0x98
	.byte	0x1c
	.long	.LASF32
	.byte	0x1
	.long	0x4be
	.long	0x4c9
	.uleb128 0x2
	.long	0x930b
	.uleb128 0x1
	.long	0x9321
	.byte	0
	.uleb128 0x24
	.long	.LASF21
	.byte	0x14
	.byte	0x9c
	.byte	0x1c
	.long	.LASF33
	.byte	0x1
	.long	0x4de
	.long	0x4e9
	.uleb128 0x2
	.long	0x930b
	.uleb128 0x1
	.long	0x619
	.byte	0
	.uleb128 0x24
	.long	.LASF21
	.byte	0x14
	.byte	0xa0
	.byte	0x1c
	.long	.LASF34
	.byte	0x1
	.long	0x4fe
	.long	0x509
	.uleb128 0x2
	.long	0x930b
	.uleb128 0x1
	.long	0x9326
	.byte	0
	.uleb128 0x22
	.long	.LASF35
	.byte	0x14
	.byte	0xad
	.byte	0x7
	.long	.LASF36
	.long	0x932b
	.byte	0x1
	.long	0x522
	.long	0x52d
	.uleb128 0x2
	.long	0x930b
	.uleb128 0x1
	.long	0x9321
	.byte	0
	.uleb128 0x22
	.long	.LASF35
	.byte	0x14
	.byte	0xb1
	.byte	0x7
	.long	.LASF37
	.long	0x932b
	.byte	0x1
	.long	0x546
	.long	0x551
	.uleb128 0x2
	.long	0x930b
	.uleb128 0x1
	.long	0x9326
	.byte	0
	.uleb128 0x24
	.long	.LASF38
	.byte	0x14
	.byte	0xb8
	.byte	0x1c
	.long	.LASF39
	.byte	0x1
	.long	0x566
	.long	0x56c
	.uleb128 0x2
	.long	0x930b
	.byte	0
	.uleb128 0x24
	.long	.LASF40
	.byte	0x14
	.byte	0xbb
	.byte	0x7
	.long	.LASF41
	.byte	0x1
	.long	0x581
	.long	0x58c
	.uleb128 0x2
	.long	0x930b
	.uleb128 0x1
	.long	0x932b
	.byte	0
	.uleb128 0xa3
	.long	.LASF67
	.byte	0x14
	.byte	0xc6
	.byte	0x25
	.long	.LASF68
	.long	0x92bf
	.byte	0x1
	.long	0x5a6
	.long	0x5ac
	.uleb128 0x2
	.long	0x9310
	.byte	0
	.uleb128 0xa4
	.long	.LASF42
	.byte	0x14
	.byte	0xdf
	.byte	0x7
	.long	.LASF43
	.long	0x9330
	.byte	0x1
	.long	0x5c2
	.uleb128 0x2
	.long	0x9310
	.byte	0
	.byte	0
	.uleb128 0x7
	.long	0x3e0
	.uleb128 0x5
	.byte	0x14
	.byte	0x5d
	.byte	0x10
	.long	0x5f8
	.uleb128 0xa5
	.long	.LASF40
	.byte	0x14
	.value	0x120
	.byte	0x5
	.long	.LASF1492
	.uleb128 0x1
	.long	0x932b
	.uleb128 0x1
	.long	0x932b
	.byte	0
	.byte	0
	.uleb128 0x5
	.byte	0x14
	.byte	0x42
	.byte	0x1a
	.long	0x3e0
	.uleb128 0x85
	.long	.LASF44
	.byte	0x14
	.byte	0x52
	.byte	0x8
	.long	.LASF45
	.long	0x60f
	.uleb128 0x1
	.long	0x3e0
	.byte	0
	.uleb128 0x35
	.long	.LASF280
	.uleb128 0x7
	.long	0x60f
	.uleb128 0x1e
	.long	.LASF46
	.byte	0x12
	.value	0x15c
	.byte	0x1d
	.long	0x92b9
	.uleb128 0x18
	.byte	0x14
	.value	0x12d
	.byte	0x1a
	.long	0x5d6
	.uleb128 0x1e
	.long	.LASF47
	.byte	0x12
	.value	0x159
	.byte	0x1c
	.long	0x7e67
	.uleb128 0x8
	.long	.LASF48
	.byte	0x13
	.byte	0x77
	.byte	0x9
	.long	0x648
	.uleb128 0x8
	.long	.LASF17
	.byte	0x13
	.byte	0x73
	.byte	0xb
	.long	0x2ce
	.uleb128 0x5
	.byte	0x15
	.byte	0x37
	.byte	0xb
	.long	0x9335
	.uleb128 0x5
	.byte	0x15
	.byte	0x38
	.byte	0xb
	.long	0x947b
	.uleb128 0x5
	.byte	0x15
	.byte	0x39
	.byte	0xb
	.long	0x9496
	.uleb128 0xa6
	.long	.LASF1493
	.byte	0x1
	.byte	0x16
	.byte	0x5f
	.byte	0xa
	.uleb128 0x19
	.long	.LASF49
	.byte	0x1
	.byte	0x16
	.byte	0x65
	.byte	0xa
	.long	0x689
	.uleb128 0x37
	.long	0x66c
	.byte	0
	.uleb128 0x19
	.long	.LASF50
	.byte	0x1
	.byte	0x16
	.byte	0x69
	.byte	0xa
	.long	0x69c
	.uleb128 0x37
	.long	0x676
	.byte	0
	.uleb128 0x19
	.long	.LASF51
	.byte	0x1
	.byte	0x16
	.byte	0x6d
	.byte	0xa
	.long	0x6af
	.uleb128 0x37
	.long	0x689
	.byte	0
	.uleb128 0x79
	.long	.LASF52
	.byte	0x17
	.byte	0x32
	.byte	0xd
	.uleb128 0x5
	.byte	0x18
	.byte	0x89
	.byte	0xb
	.long	0x95ff
	.uleb128 0x5
	.byte	0x18
	.byte	0x8a
	.byte	0xb
	.long	0x9633
	.uleb128 0x5
	.byte	0x18
	.byte	0x90
	.byte	0xb
	.long	0x970f
	.uleb128 0x5
	.byte	0x18
	.byte	0x93
	.byte	0xb
	.long	0x972d
	.uleb128 0x5
	.byte	0x18
	.byte	0x96
	.byte	0xb
	.long	0x9748
	.uleb128 0x5
	.byte	0x18
	.byte	0x97
	.byte	0xb
	.long	0x975e
	.uleb128 0x5
	.byte	0x18
	.byte	0x98
	.byte	0xb
	.long	0x9775
	.uleb128 0x5
	.byte	0x18
	.byte	0x99
	.byte	0xb
	.long	0x978c
	.uleb128 0x5
	.byte	0x18
	.byte	0x9b
	.byte	0xb
	.long	0x97b6
	.uleb128 0x5
	.byte	0x18
	.byte	0x9e
	.byte	0xb
	.long	0x97d3
	.uleb128 0x5
	.byte	0x18
	.byte	0xa0
	.byte	0xb
	.long	0x97ea
	.uleb128 0x5
	.byte	0x18
	.byte	0xa3
	.byte	0xb
	.long	0x9806
	.uleb128 0x5
	.byte	0x18
	.byte	0xa4
	.byte	0xb
	.long	0x9822
	.uleb128 0x5
	.byte	0x18
	.byte	0xa5
	.byte	0xb
	.long	0x9843
	.uleb128 0x5
	.byte	0x18
	.byte	0xa7
	.byte	0xb
	.long	0x9864
	.uleb128 0x5
	.byte	0x18
	.byte	0xaa
	.byte	0xb
	.long	0x9885
	.uleb128 0x5
	.byte	0x18
	.byte	0xad
	.byte	0xb
	.long	0x9899
	.uleb128 0x5
	.byte	0x18
	.byte	0xaf
	.byte	0xb
	.long	0x98a7
	.uleb128 0x5
	.byte	0x18
	.byte	0xb0
	.byte	0xb
	.long	0x98b9
	.uleb128 0x5
	.byte	0x18
	.byte	0xb1
	.byte	0xb
	.long	0x98d9
	.uleb128 0x5
	.byte	0x18
	.byte	0xb2
	.byte	0xb
	.long	0x98fd
	.uleb128 0x5
	.byte	0x18
	.byte	0xb3
	.byte	0xb
	.long	0x9921
	.uleb128 0x5
	.byte	0x18
	.byte	0xb5
	.byte	0xb
	.long	0x9938
	.uleb128 0x5
	.byte	0x18
	.byte	0xb6
	.byte	0xb
	.long	0x9959
	.uleb128 0x5
	.byte	0x18
	.byte	0xfd
	.byte	0x16
	.long	0x9667
	.uleb128 0x18
	.byte	0x18
	.value	0x102
	.byte	0x16
	.long	0x8123
	.uleb128 0x18
	.byte	0x18
	.value	0x103
	.byte	0x16
	.long	0x9975
	.uleb128 0x18
	.byte	0x18
	.value	0x105
	.byte	0x16
	.long	0x9991
	.uleb128 0x18
	.byte	0x18
	.value	0x106
	.byte	0x16
	.long	0x99f0
	.uleb128 0x18
	.byte	0x18
	.value	0x107
	.byte	0x16
	.long	0x99a8
	.uleb128 0x18
	.byte	0x18
	.value	0x108
	.byte	0x16
	.long	0x99cc
	.uleb128 0x18
	.byte	0x18
	.value	0x109
	.byte	0x16
	.long	0x9a0b
	.uleb128 0x5
	.byte	0x19
	.byte	0x64
	.byte	0xb
	.long	0x7873
	.uleb128 0x5
	.byte	0x19
	.byte	0x65
	.byte	0xb
	.long	0x9ab0
	.uleb128 0x5
	.byte	0x19
	.byte	0x67
	.byte	0xb
	.long	0x9ac6
	.uleb128 0x5
	.byte	0x19
	.byte	0x68
	.byte	0xb
	.long	0x9ad8
	.uleb128 0x5
	.byte	0x19
	.byte	0x69
	.byte	0xb
	.long	0x9aee
	.uleb128 0x5
	.byte	0x19
	.byte	0x6a
	.byte	0xb
	.long	0x9b05
	.uleb128 0x5
	.byte	0x19
	.byte	0x6b
	.byte	0xb
	.long	0x9b1c
	.uleb128 0x5
	.byte	0x19
	.byte	0x6c
	.byte	0xb
	.long	0x9b32
	.uleb128 0x5
	.byte	0x19
	.byte	0x6d
	.byte	0xb
	.long	0x9b49
	.uleb128 0x5
	.byte	0x19
	.byte	0x6e
	.byte	0xb
	.long	0x9b6a
	.uleb128 0x5
	.byte	0x19
	.byte	0x6f
	.byte	0xb
	.long	0x9b8b
	.uleb128 0x5
	.byte	0x19
	.byte	0x73
	.byte	0xb
	.long	0x9ba7
	.uleb128 0x5
	.byte	0x19
	.byte	0x74
	.byte	0xb
	.long	0x9bcd
	.uleb128 0x5
	.byte	0x19
	.byte	0x76
	.byte	0xb
	.long	0x9bee
	.uleb128 0x5
	.byte	0x19
	.byte	0x77
	.byte	0xb
	.long	0x9c0f
	.uleb128 0x5
	.byte	0x19
	.byte	0x78
	.byte	0xb
	.long	0x9c30
	.uleb128 0x5
	.byte	0x19
	.byte	0x7a
	.byte	0xb
	.long	0x9c47
	.uleb128 0x5
	.byte	0x19
	.byte	0x7b
	.byte	0xb
	.long	0x9c5e
	.uleb128 0x5
	.byte	0x19
	.byte	0x80
	.byte	0xb
	.long	0x9c6a
	.uleb128 0x5
	.byte	0x19
	.byte	0x85
	.byte	0xb
	.long	0x9c7c
	.uleb128 0x5
	.byte	0x19
	.byte	0x86
	.byte	0xb
	.long	0x9c92
	.uleb128 0x5
	.byte	0x19
	.byte	0x87
	.byte	0xb
	.long	0x9cad
	.uleb128 0x5
	.byte	0x19
	.byte	0x89
	.byte	0xb
	.long	0x9cbf
	.uleb128 0x5
	.byte	0x19
	.byte	0x8a
	.byte	0xb
	.long	0x9cd6
	.uleb128 0x5
	.byte	0x19
	.byte	0x8d
	.byte	0xb
	.long	0x9cfc
	.uleb128 0x5
	.byte	0x19
	.byte	0x8f
	.byte	0xb
	.long	0x9d08
	.uleb128 0x5
	.byte	0x19
	.byte	0x91
	.byte	0xb
	.long	0x9d1e
	.uleb128 0x86
	.long	.LASF53
	.byte	0x12
	.value	0x179
	.byte	0x41
	.uleb128 0x5
	.byte	0x1a
	.byte	0x42
	.byte	0xb
	.long	0x92aa
	.uleb128 0xa7
	.string	"pmr"
	.byte	0x4b
	.byte	0x37
	.byte	0xb
	.uleb128 0x87
	.string	"_V2"
	.byte	0x1e
	.byte	0x54
	.byte	0x1
	.uleb128 0x5
	.byte	0x1b
	.byte	0x35
	.byte	0xb
	.long	0x9690
	.uleb128 0x5
	.byte	0x1b
	.byte	0x36
	.byte	0xb
	.long	0x969c
	.uleb128 0x5
	.byte	0x1b
	.byte	0x37
	.byte	0xb
	.long	0x96a8
	.uleb128 0x5
	.byte	0x1b
	.byte	0x38
	.byte	0xb
	.long	0x96b4
	.uleb128 0x5
	.byte	0x1b
	.byte	0x3a
	.byte	0xb
	.long	0x9dca
	.uleb128 0x5
	.byte	0x1b
	.byte	0x3b
	.byte	0xb
	.long	0x9dd6
	.uleb128 0x5
	.byte	0x1b
	.byte	0x3c
	.byte	0xb
	.long	0x9de2
	.uleb128 0x5
	.byte	0x1b
	.byte	0x3d
	.byte	0xb
	.long	0x9dee
	.uleb128 0x5
	.byte	0x1b
	.byte	0x3f
	.byte	0xb
	.long	0x9d6a
	.uleb128 0x5
	.byte	0x1b
	.byte	0x40
	.byte	0xb
	.long	0x9d76
	.uleb128 0x5
	.byte	0x1b
	.byte	0x41
	.byte	0xb
	.long	0x9d82
	.uleb128 0x5
	.byte	0x1b
	.byte	0x42
	.byte	0xb
	.long	0x9d8e
	.uleb128 0x5
	.byte	0x1b
	.byte	0x44
	.byte	0xb
	.long	0x9e42
	.uleb128 0x5
	.byte	0x1b
	.byte	0x45
	.byte	0xb
	.long	0x9e2a
	.uleb128 0x5
	.byte	0x1b
	.byte	0x47
	.byte	0xb
	.long	0x9d3a
	.uleb128 0x5
	.byte	0x1b
	.byte	0x48
	.byte	0xb
	.long	0x9d46
	.uleb128 0x5
	.byte	0x1b
	.byte	0x49
	.byte	0xb
	.long	0x9d52
	.uleb128 0x5
	.byte	0x1b
	.byte	0x4a
	.byte	0xb
	.long	0x9d5e
	.uleb128 0x5
	.byte	0x1b
	.byte	0x4c
	.byte	0xb
	.long	0x9dfa
	.uleb128 0x5
	.byte	0x1b
	.byte	0x4d
	.byte	0xb
	.long	0x9e06
	.uleb128 0x5
	.byte	0x1b
	.byte	0x4e
	.byte	0xb
	.long	0x9e12
	.uleb128 0x5
	.byte	0x1b
	.byte	0x4f
	.byte	0xb
	.long	0x9e1e
	.uleb128 0x5
	.byte	0x1b
	.byte	0x51
	.byte	0xb
	.long	0x9d9a
	.uleb128 0x5
	.byte	0x1b
	.byte	0x52
	.byte	0xb
	.long	0x9da6
	.uleb128 0x5
	.byte	0x1b
	.byte	0x53
	.byte	0xb
	.long	0x9db2
	.uleb128 0x5
	.byte	0x1b
	.byte	0x54
	.byte	0xb
	.long	0x9dbe
	.uleb128 0x5
	.byte	0x1b
	.byte	0x56
	.byte	0xb
	.long	0x9e4e
	.uleb128 0x5
	.byte	0x1b
	.byte	0x57
	.byte	0xb
	.long	0x9e36
	.uleb128 0x5
	.byte	0x1c
	.byte	0x3e
	.byte	0xb
	.long	0x9673
	.uleb128 0x5
	.byte	0x1c
	.byte	0x3f
	.byte	0xb
	.long	0x967f
	.uleb128 0x5
	.byte	0x1c
	.byte	0x40
	.byte	0xb
	.long	0x7c7b
	.uleb128 0x5
	.byte	0x1c
	.byte	0x42
	.byte	0xb
	.long	0x9e76
	.uleb128 0x5
	.byte	0x1c
	.byte	0x43
	.byte	0xb
	.long	0x9e82
	.uleb128 0x5
	.byte	0x1c
	.byte	0x44
	.byte	0xb
	.long	0x9e9d
	.uleb128 0x5
	.byte	0x1c
	.byte	0x45
	.byte	0xb
	.long	0x9eb8
	.uleb128 0x5
	.byte	0x1c
	.byte	0x46
	.byte	0xb
	.long	0x9ed3
	.uleb128 0x5
	.byte	0x1c
	.byte	0x47
	.byte	0xb
	.long	0x9ee9
	.uleb128 0x5
	.byte	0x1c
	.byte	0x48
	.byte	0xb
	.long	0x9f04
	.uleb128 0x5
	.byte	0x1c
	.byte	0x49
	.byte	0xb
	.long	0x9f1a
	.uleb128 0x5
	.byte	0x1c
	.byte	0x51
	.byte	0xb
	.long	0x96c0
	.uleb128 0x5
	.byte	0x1c
	.byte	0x52
	.byte	0xb
	.long	0x9f30
	.uleb128 0x6d
	.long	.LASF54
	.byte	0x1d
	.byte	0x3d
	.byte	0xd
	.long	0xa23
	.uleb128 0xa8
	.string	"_V2"
	.byte	0x1d
	.value	0x4c6
	.byte	0x1
	.uleb128 0xa9
	.byte	0x1d
	.value	0x5aa
	.byte	0x1f
	.long	0xa31
	.byte	0
	.uleb128 0xaa
	.long	.LASF1494
	.byte	0x4c
	.value	0x369
	.byte	0x14
	.long	0xa3c
	.uleb128 0x86
	.long	.LASF55
	.byte	0x1d
	.value	0x54e
	.byte	0x14
	.byte	0
	.uleb128 0x6d
	.long	.LASF56
	.byte	0x1d
	.byte	0x3a
	.byte	0xd
	.long	0xa5b
	.uleb128 0xab
	.long	.LASF53
	.byte	0x1f
	.byte	0x30
	.byte	0x3f
	.uleb128 0x79
	.long	.LASF57
	.byte	0x20
	.byte	0x48
	.byte	0xb
	.byte	0
	.byte	0
	.uleb128 0x5
	.byte	0x21
	.byte	0x54
	.byte	0xb
	.long	0x9f5d
	.uleb128 0x5
	.byte	0x21
	.byte	0x55
	.byte	0xb
	.long	0x9f51
	.uleb128 0x5
	.byte	0x21
	.byte	0x56
	.byte	0xb
	.long	0x764c
	.uleb128 0x5
	.byte	0x21
	.byte	0x5e
	.byte	0xb
	.long	0x9f6e
	.uleb128 0x5
	.byte	0x21
	.byte	0x67
	.byte	0xb
	.long	0x9f89
	.uleb128 0x5
	.byte	0x21
	.byte	0x6a
	.byte	0xb
	.long	0x9fa4
	.uleb128 0x5
	.byte	0x21
	.byte	0x6b
	.byte	0xb
	.long	0x9fba
	.uleb128 0x5
	.byte	0x22
	.byte	0x61
	.byte	0x14
	.long	0x8141
	.uleb128 0x5
	.byte	0x22
	.byte	0x62
	.byte	0x14
	.long	0x9fd0
	.uleb128 0x5
	.byte	0x22
	.byte	0x63
	.byte	0x14
	.long	0x8154
	.uleb128 0x5
	.byte	0x22
	.byte	0x64
	.byte	0x14
	.long	0x815a
	.uleb128 0x5
	.byte	0x22
	.byte	0x65
	.byte	0x14
	.long	0x8160
	.uleb128 0x58
	.long	.LASF58
	.byte	0x1
	.byte	0xc
	.value	0x3a6
	.byte	0xc
	.long	0xb06
	.uleb128 0x17
	.long	.LASF59
	.byte	0xc
	.value	0x3ab
	.byte	0x9
	.long	.LASF96
	.long	0xa7eb
	.long	0xafb
	.uleb128 0xa
	.long	.LASF60
	.long	0xa7eb
	.uleb128 0xa
	.long	.LASF61
	.long	0x37
	.uleb128 0x1
	.long	0xa7eb
	.uleb128 0x1
	.long	0x37
	.byte	0
	.uleb128 0x88
	.long	.LASF62
	.long	0x92bf
	.byte	0
	.uleb128 0x3e
	.long	.LASF63
	.byte	0x1
	.byte	0x6
	.byte	0x3f
	.long	0xca4
	.uleb128 0x24
	.long	.LASF64
	.byte	0x6
	.byte	0x58
	.byte	0x7
	.long	.LASF65
	.byte	0x1
	.long	0xb27
	.long	0xb2d
	.uleb128 0x2
	.long	0x9fe2
	.byte	0
	.uleb128 0x24
	.long	.LASF64
	.byte	0x6
	.byte	0x5c
	.byte	0x7
	.long	.LASF66
	.byte	0x1
	.long	0xb42
	.long	0xb4d
	.uleb128 0x2
	.long	0x9fe2
	.uleb128 0x1
	.long	0x9fec
	.byte	0
	.uleb128 0x4e
	.long	.LASF35
	.byte	0x6
	.byte	0x64
	.byte	0x18
	.long	.LASF69
	.long	0x9ff1
	.long	0xb65
	.long	0xb70
	.uleb128 0x2
	.long	0x9fe2
	.uleb128 0x1
	.long	0x9fec
	.byte	0
	.uleb128 0x24
	.long	.LASF70
	.byte	0x6
	.byte	0x68
	.byte	0x7
	.long	.LASF71
	.byte	0x1
	.long	0xb85
	.long	0xb8b
	.uleb128 0x2
	.long	0x9fe2
	.byte	0
	.uleb128 0x28
	.long	.LASF74
	.byte	0x6
	.byte	0x46
	.byte	0x1a
	.long	0x9ff6
	.uleb128 0x22
	.long	.LASF72
	.byte	0x6
	.byte	0x6b
	.byte	0x7
	.long	.LASF73
	.long	0xb8b
	.byte	0x1
	.long	0xbb0
	.long	0xbbb
	.uleb128 0x2
	.long	0xa000
	.uleb128 0x1
	.long	0xbbb
	.byte	0
	.uleb128 0x28
	.long	.LASF75
	.byte	0x6
	.byte	0x48
	.byte	0x1a
	.long	0xa00a
	.uleb128 0x28
	.long	.LASF76
	.byte	0x6
	.byte	0x47
	.byte	0x1a
	.long	0xa00f
	.uleb128 0x22
	.long	.LASF72
	.byte	0x6
	.byte	0x6f
	.byte	0x7
	.long	.LASF77
	.long	0xbc7
	.byte	0x1
	.long	0xbec
	.long	0xbf7
	.uleb128 0x2
	.long	0xa000
	.uleb128 0x1
	.long	0xbf7
	.byte	0
	.uleb128 0x28
	.long	.LASF78
	.byte	0x6
	.byte	0x49
	.byte	0x1a
	.long	0xa014
	.uleb128 0x22
	.long	.LASF79
	.byte	0x6
	.byte	0x81
	.byte	0x7
	.long	.LASF80
	.long	0x9ff6
	.byte	0x1
	.long	0xc1c
	.long	0xc2c
	.uleb128 0x2
	.long	0x9fe2
	.uleb128 0x1
	.long	0xc2c
	.uleb128 0x1
	.long	0x9315
	.byte	0
	.uleb128 0x28
	.long	.LASF81
	.byte	0x6
	.byte	0x43
	.byte	0x1f
	.long	0x2bc
	.uleb128 0x24
	.long	.LASF82
	.byte	0x6
	.byte	0xa7
	.byte	0x7
	.long	.LASF83
	.byte	0x1
	.long	0xc4d
	.long	0xc5d
	.uleb128 0x2
	.long	0x9fe2
	.uleb128 0x1
	.long	0x9ff6
	.uleb128 0x1
	.long	0xc2c
	.byte	0
	.uleb128 0x22
	.long	.LASF84
	.byte	0x6
	.byte	0xc2
	.byte	0x7
	.long	.LASF85
	.long	0xc2c
	.byte	0x1
	.long	0xc76
	.long	0xc7c
	.uleb128 0x2
	.long	0xa000
	.byte	0
	.uleb128 0x45
	.long	.LASF86
	.byte	0x6
	.byte	0xf2
	.byte	0x7
	.long	.LASF87
	.long	0xc2c
	.long	0xc94
	.long	0xc9a
	.uleb128 0x2
	.long	0xa000
	.byte	0
	.uleb128 0xf
	.string	"_Tp"
	.long	0x92d5
	.byte	0
	.uleb128 0x7
	.long	0xb06
	.uleb128 0x3e
	.long	.LASF88
	.byte	0x1
	.byte	0x5
	.byte	0x85
	.long	0xd2d
	.uleb128 0x48
	.long	0xb06
	.byte	0x1
	.uleb128 0x24
	.long	.LASF89
	.byte	0x5
	.byte	0xa8
	.byte	0x7
	.long	.LASF90
	.byte	0x1
	.long	0xcd0
	.long	0xcd6
	.uleb128 0x2
	.long	0xa019
	.byte	0
	.uleb128 0x24
	.long	.LASF89
	.byte	0x5
	.byte	0xac
	.byte	0x7
	.long	.LASF91
	.byte	0x1
	.long	0xceb
	.long	0xcf6
	.uleb128 0x2
	.long	0xa019
	.uleb128 0x1
	.long	0xa023
	.byte	0
	.uleb128 0x4e
	.long	.LASF35
	.byte	0x5
	.byte	0xb1
	.byte	0x12
	.long	.LASF92
	.long	0xa028
	.long	0xd0e
	.long	0xd19
	.uleb128 0x2
	.long	0xa019
	.uleb128 0x1
	.long	0xa023
	.byte	0
	.uleb128 0x6e
	.long	.LASF93
	.long	.LASF94
	.long	0xd26
	.uleb128 0x2
	.long	0xa019
	.byte	0
	.byte	0
	.uleb128 0x7
	.long	0xca9
	.uleb128 0x58
	.long	.LASF95
	.byte	0x1
	.byte	0x8
	.value	0x248
	.byte	0xc
	.long	0xe30
	.uleb128 0x1e
	.long	.LASF74
	.byte	0x8
	.value	0x251
	.byte	0xd
	.long	0x9ff6
	.uleb128 0x17
	.long	.LASF79
	.byte	0x8
	.value	0x27d
	.byte	0x7
	.long	.LASF97
	.long	0xd40
	.long	0xd6d
	.uleb128 0x1
	.long	0xa02d
	.uleb128 0x1
	.long	0xd7f
	.byte	0
	.uleb128 0x1e
	.long	.LASF98
	.byte	0x8
	.value	0x24b
	.byte	0xd
	.long	0xca9
	.uleb128 0x7
	.long	0xd6d
	.uleb128 0x1e
	.long	.LASF81
	.byte	0x8
	.value	0x260
	.byte	0xd
	.long	0x2bc
	.uleb128 0x17
	.long	.LASF79
	.byte	0x8
	.value	0x28c
	.byte	0x7
	.long	.LASF99
	.long	0xd40
	.long	0xdb1
	.uleb128 0x1
	.long	0xa02d
	.uleb128 0x1
	.long	0xd7f
	.uleb128 0x1
	.long	0xdb1
	.byte	0
	.uleb128 0x1e
	.long	.LASF100
	.byte	0x8
	.value	0x25a
	.byte	0xd
	.long	0x9315
	.uleb128 0x39
	.long	.LASF82
	.byte	0x8
	.value	0x2b0
	.byte	0x7
	.long	.LASF311
	.long	0xddf
	.uleb128 0x1
	.long	0xa02d
	.uleb128 0x1
	.long	0xd40
	.uleb128 0x1
	.long	0xd7f
	.byte	0
	.uleb128 0x17
	.long	.LASF84
	.byte	0x8
	.value	0x2ed
	.byte	0x7
	.long	.LASF101
	.long	0xd7f
	.long	0xdfa
	.uleb128 0x1
	.long	0xa032
	.byte	0
	.uleb128 0x17
	.long	.LASF102
	.byte	0x8
	.value	0x2fd
	.byte	0x7
	.long	.LASF103
	.long	0xd6d
	.long	0xe15
	.uleb128 0x1
	.long	0xa032
	.byte	0
	.uleb128 0x1e
	.long	.LASF6
	.byte	0x8
	.value	0x24e
	.byte	0xd
	.long	0x92d5
	.uleb128 0x1e
	.long	.LASF104
	.byte	0x8
	.value	0x26f
	.byte	0x8
	.long	0xca9
	.byte	0
	.uleb128 0x19
	.long	.LASF105
	.byte	0x18
	.byte	0x2
	.byte	0x5b
	.byte	0xc
	.long	0x11d1
	.uleb128 0x19
	.long	.LASF106
	.byte	0x18
	.byte	0x2
	.byte	0x62
	.byte	0xe
	.long	0xee3
	.uleb128 0x11
	.long	.LASF108
	.byte	0x2
	.byte	0x64
	.byte	0xa
	.long	0xee8
	.byte	0
	.uleb128 0x11
	.long	.LASF109
	.byte	0x2
	.byte	0x65
	.byte	0xa
	.long	0xee8
	.byte	0x8
	.uleb128 0x11
	.long	.LASF110
	.byte	0x2
	.byte	0x66
	.byte	0xa
	.long	0xee8
	.byte	0x10
	.uleb128 0x23
	.long	.LASF106
	.byte	0x2
	.byte	0x69
	.byte	0x2
	.long	.LASF111
	.long	0xe85
	.long	0xe8b
	.uleb128 0x2
	.long	0xa041
	.byte	0
	.uleb128 0x23
	.long	.LASF106
	.byte	0x2
	.byte	0x6f
	.byte	0x2
	.long	.LASF112
	.long	0xe9f
	.long	0xeaa
	.uleb128 0x2
	.long	0xa041
	.uleb128 0x1
	.long	0xa04b
	.byte	0
	.uleb128 0x23
	.long	.LASF113
	.byte	0x2
	.byte	0x77
	.byte	0x2
	.long	.LASF114
	.long	0xebe
	.long	0xec9
	.uleb128 0x2
	.long	0xa041
	.uleb128 0x1
	.long	0xa050
	.byte	0
	.uleb128 0x63
	.long	.LASF115
	.byte	0x80
	.long	.LASF319
	.long	0xed7
	.uleb128 0x2
	.long	0xa041
	.uleb128 0x1
	.long	0xa055
	.byte	0
	.byte	0
	.uleb128 0x7
	.long	0xe3d
	.uleb128 0x8
	.long	.LASF74
	.byte	0x2
	.byte	0x60
	.byte	0x9
	.long	0x823d
	.uleb128 0x19
	.long	.LASF116
	.byte	0x18
	.byte	0x2
	.byte	0x8b
	.byte	0xe
	.long	0xfba
	.uleb128 0x37
	.long	0xca9
	.uleb128 0x37
	.long	0xe3d
	.uleb128 0x23
	.long	.LASF116
	.byte	0x2
	.byte	0x8f
	.byte	0x2
	.long	.LASF117
	.long	0xf1f
	.long	0xf25
	.uleb128 0x2
	.long	0xa05a
	.byte	0
	.uleb128 0x23
	.long	.LASF116
	.byte	0x2
	.byte	0x98
	.byte	0x2
	.long	.LASF118
	.long	0xf39
	.long	0xf44
	.uleb128 0x2
	.long	0xa05a
	.uleb128 0x1
	.long	0xa064
	.byte	0
	.uleb128 0x23
	.long	.LASF116
	.byte	0x2
	.byte	0xa0
	.byte	0x2
	.long	.LASF119
	.long	0xf58
	.long	0xf63
	.uleb128 0x2
	.long	0xa05a
	.uleb128 0x1
	.long	0xa069
	.byte	0
	.uleb128 0x23
	.long	.LASF116
	.byte	0x2
	.byte	0xa5
	.byte	0x2
	.long	.LASF120
	.long	0xf77
	.long	0xf82
	.uleb128 0x2
	.long	0xa05a
	.uleb128 0x1
	.long	0xa06e
	.byte	0
	.uleb128 0x23
	.long	.LASF116
	.byte	0x2
	.byte	0xaa
	.byte	0x2
	.long	.LASF121
	.long	0xf96
	.long	0xfa6
	.uleb128 0x2
	.long	0xa05a
	.uleb128 0x1
	.long	0xa06e
	.uleb128 0x1
	.long	0xa069
	.byte	0
	.uleb128 0x6f
	.long	.LASF481
	.long	.LASF482
	.long	0xfb3
	.uleb128 0x2
	.long	0xa05a
	.byte	0
	.byte	0
	.uleb128 0x8
	.long	.LASF122
	.byte	0x2
	.byte	0x5e
	.byte	0x15
	.long	0x826e
	.uleb128 0x7
	.long	0xfba
	.uleb128 0x38
	.long	.LASF123
	.value	0x133
	.byte	0x7
	.long	.LASF124
	.long	0xa073
	.long	0xfe3
	.long	0xfe9
	.uleb128 0x2
	.long	0xa078
	.byte	0
	.uleb128 0x38
	.long	.LASF123
	.value	0x138
	.byte	0x7
	.long	.LASF125
	.long	0xa064
	.long	0x1001
	.long	0x1007
	.uleb128 0x2
	.long	0xa082
	.byte	0
	.uleb128 0x1e
	.long	.LASF98
	.byte	0x2
	.value	0x12f
	.byte	0x16
	.long	0xca9
	.uleb128 0x7
	.long	0x1007
	.uleb128 0x38
	.long	.LASF126
	.value	0x13d
	.byte	0x7
	.long	.LASF127
	.long	0x1007
	.long	0x1031
	.long	0x1037
	.uleb128 0x2
	.long	0xa082
	.byte	0
	.uleb128 0x4f
	.long	.LASF128
	.value	0x141
	.long	.LASF129
	.long	0x104a
	.long	0x1050
	.uleb128 0x2
	.long	0xa078
	.byte	0
	.uleb128 0x1c
	.long	.LASF128
	.value	0x147
	.long	.LASF130
	.long	0x1063
	.long	0x106e
	.uleb128 0x2
	.long	0xa078
	.uleb128 0x1
	.long	0xa087
	.byte	0
	.uleb128 0x1c
	.long	.LASF128
	.value	0x14d
	.long	.LASF131
	.long	0x1081
	.long	0x108c
	.uleb128 0x2
	.long	0xa078
	.uleb128 0x1
	.long	0x2bc
	.byte	0
	.uleb128 0x1c
	.long	.LASF128
	.value	0x153
	.long	.LASF132
	.long	0x109f
	.long	0x10af
	.uleb128 0x2
	.long	0xa078
	.uleb128 0x1
	.long	0x2bc
	.uleb128 0x1
	.long	0xa087
	.byte	0
	.uleb128 0x4f
	.long	.LASF128
	.value	0x158
	.long	.LASF133
	.long	0x10c2
	.long	0x10cd
	.uleb128 0x2
	.long	0xa078
	.uleb128 0x1
	.long	0xa08c
	.byte	0
	.uleb128 0x1c
	.long	.LASF128
	.value	0x15d
	.long	.LASF134
	.long	0x10e0
	.long	0x10eb
	.uleb128 0x2
	.long	0xa078
	.uleb128 0x1
	.long	0xa06e
	.byte	0
	.uleb128 0x1c
	.long	.LASF128
	.value	0x161
	.long	.LASF135
	.long	0x10fe
	.long	0x110e
	.uleb128 0x2
	.long	0xa078
	.uleb128 0x1
	.long	0xa08c
	.uleb128 0x1
	.long	0xa087
	.byte	0
	.uleb128 0x1c
	.long	.LASF128
	.value	0x16f
	.long	.LASF136
	.long	0x1121
	.long	0x1131
	.uleb128 0x2
	.long	0xa078
	.uleb128 0x1
	.long	0xa087
	.uleb128 0x1
	.long	0xa08c
	.byte	0
	.uleb128 0x1c
	.long	.LASF137
	.value	0x175
	.long	.LASF138
	.long	0x1144
	.long	0x114a
	.uleb128 0x2
	.long	0xa078
	.byte	0
	.uleb128 0x50
	.long	.LASF139
	.value	0x17e
	.byte	0x14
	.long	0xef4
	.byte	0
	.uleb128 0x38
	.long	.LASF140
	.value	0x182
	.byte	0x7
	.long	.LASF141
	.long	0xee8
	.long	0x116f
	.long	0x117a
	.uleb128 0x2
	.long	0xa078
	.uleb128 0x1
	.long	0x2bc
	.byte	0
	.uleb128 0x1c
	.long	.LASF142
	.value	0x18a
	.long	.LASF143
	.long	0x118d
	.long	0x119d
	.uleb128 0x2
	.long	0xa078
	.uleb128 0x1
	.long	0xee8
	.uleb128 0x1
	.long	0x2bc
	.byte	0
	.uleb128 0x10
	.long	.LASF144
	.byte	0x2
	.value	0x195
	.byte	0x7
	.long	.LASF145
	.byte	0x2
	.long	0x11b3
	.long	0x11be
	.uleb128 0x2
	.long	0xa078
	.uleb128 0x1
	.long	0x2bc
	.byte	0
	.uleb128 0xf
	.string	"_Tp"
	.long	0x92d5
	.uleb128 0xa
	.long	.LASF146
	.long	0xca9
	.byte	0
	.uleb128 0x7
	.long	0xe30
	.uleb128 0x19
	.long	.LASF147
	.byte	0x1
	.byte	0x13
	.byte	0xa9
	.byte	0xc
	.long	0x11f9
	.uleb128 0x8
	.long	.LASF148
	.byte	0x13
	.byte	0xaa
	.byte	0xd
	.long	0xca9
	.uleb128 0xa
	.long	.LASF149
	.long	0xca9
	.byte	0
	.uleb128 0x49
	.long	.LASF150
	.byte	0x18
	.byte	0x2
	.value	0x1cc
	.long	0x1dd2
	.uleb128 0x18
	.byte	0x2
	.value	0x1cc
	.byte	0xb
	.long	0x1157
	.uleb128 0x18
	.byte	0x2
	.value	0x1cc
	.byte	0xb
	.long	0x117a
	.uleb128 0x18
	.byte	0x2
	.value	0x1cc
	.byte	0xb
	.long	0x114a
	.uleb128 0x18
	.byte	0x2
	.value	0x1cc
	.byte	0xb
	.long	0xfe9
	.uleb128 0x18
	.byte	0x2
	.value	0x1cc
	.byte	0xb
	.long	0xfcb
	.uleb128 0x18
	.byte	0x2
	.value	0x1cc
	.byte	0xb
	.long	0x1019
	.uleb128 0x48
	.long	0xe30
	.byte	0x2
	.uleb128 0x17
	.long	.LASF151
	.byte	0x2
	.value	0x1f6
	.byte	0x7
	.long	.LASF152
	.long	0x92bf
	.long	0x125d
	.uleb128 0x1
	.long	0x63c
	.byte	0
	.uleb128 0x17
	.long	.LASF151
	.byte	0x2
	.value	0x1ff
	.byte	0x7
	.long	.LASF153
	.long	0x92bf
	.long	0x1278
	.uleb128 0x1
	.long	0x3ac
	.byte	0
	.uleb128 0x70
	.long	.LASF345
	.long	.LASF346
	.long	0x92bf
	.uleb128 0x15
	.long	.LASF74
	.byte	0x2
	.value	0x1e6
	.byte	0x29
	.long	0xee8
	.uleb128 0x17
	.long	.LASF154
	.byte	0x2
	.value	0x20c
	.byte	0x7
	.long	.LASF155
	.long	0x1285
	.long	0x12bc
	.uleb128 0x1
	.long	0x1285
	.uleb128 0x1
	.long	0x1285
	.uleb128 0x1
	.long	0x1285
	.uleb128 0x1
	.long	0xa091
	.byte	0
	.uleb128 0x1e
	.long	.LASF122
	.byte	0x2
	.value	0x1e1
	.byte	0x2f
	.long	0xfba
	.uleb128 0x7
	.long	0x12bc
	.uleb128 0x51
	.long	.LASF156
	.value	0x227
	.long	.LASF157
	.long	0x12e1
	.long	0x12e7
	.uleb128 0x2
	.long	0xa096
	.byte	0
	.uleb128 0x40
	.long	.LASF156
	.byte	0x2
	.value	0x232
	.long	.LASF158
	.long	0x12fb
	.long	0x1306
	.uleb128 0x2
	.long	0xa096
	.uleb128 0x1
	.long	0xa0a0
	.byte	0
	.uleb128 0x15
	.long	.LASF98
	.byte	0x2
	.value	0x1f1
	.byte	0x1a
	.long	0xca9
	.uleb128 0x7
	.long	0x1306
	.uleb128 0x40
	.long	.LASF156
	.byte	0x2
	.value	0x240
	.long	.LASF159
	.long	0x132c
	.long	0x133c
	.uleb128 0x2
	.long	0xa096
	.uleb128 0x1
	.long	0x133c
	.uleb128 0x1
	.long	0xa0a0
	.byte	0
	.uleb128 0x15
	.long	.LASF81
	.byte	0x2
	.value	0x1ef
	.byte	0x1a
	.long	0x2bc
	.uleb128 0x7
	.long	0x133c
	.uleb128 0x10
	.long	.LASF156
	.byte	0x2
	.value	0x24d
	.byte	0x7
	.long	.LASF160
	.byte	0x1
	.long	0x1364
	.long	0x1379
	.uleb128 0x2
	.long	0xa096
	.uleb128 0x1
	.long	0x133c
	.uleb128 0x1
	.long	0xa0a5
	.uleb128 0x1
	.long	0xa0a0
	.byte	0
	.uleb128 0x15
	.long	.LASF6
	.byte	0x2
	.value	0x1e5
	.byte	0x17
	.long	0x92d5
	.uleb128 0x7
	.long	0x1379
	.uleb128 0x10
	.long	.LASF156
	.byte	0x2
	.value	0x26d
	.byte	0x7
	.long	.LASF161
	.byte	0x1
	.long	0x13a1
	.long	0x13ac
	.uleb128 0x2
	.long	0xa096
	.uleb128 0x1
	.long	0xa0aa
	.byte	0
	.uleb128 0x51
	.long	.LASF156
	.value	0x280
	.long	.LASF162
	.long	0x13bf
	.long	0x13ca
	.uleb128 0x2
	.long	0xa096
	.uleb128 0x1
	.long	0xa0af
	.byte	0
	.uleb128 0x10
	.long	.LASF156
	.byte	0x2
	.value	0x284
	.byte	0x7
	.long	.LASF163
	.byte	0x1
	.long	0x13e0
	.long	0x13f0
	.uleb128 0x2
	.long	0xa096
	.uleb128 0x1
	.long	0xa0aa
	.uleb128 0x1
	.long	0xa0b4
	.byte	0
	.uleb128 0x1c
	.long	.LASF156
	.value	0x28f
	.long	.LASF164
	.long	0x1403
	.long	0x1418
	.uleb128 0x2
	.long	0xa096
	.uleb128 0x1
	.long	0xa0af
	.uleb128 0x1
	.long	0xa0a0
	.uleb128 0x1
	.long	0x63c
	.byte	0
	.uleb128 0x1c
	.long	.LASF156
	.value	0x294
	.long	.LASF165
	.long	0x142b
	.long	0x1440
	.uleb128 0x2
	.long	0xa096
	.uleb128 0x1
	.long	0xa0af
	.uleb128 0x1
	.long	0xa0a0
	.uleb128 0x1
	.long	0x3ac
	.byte	0
	.uleb128 0x10
	.long	.LASF156
	.byte	0x2
	.value	0x2a7
	.byte	0x7
	.long	.LASF166
	.byte	0x1
	.long	0x1456
	.long	0x1466
	.uleb128 0x2
	.long	0xa096
	.uleb128 0x1
	.long	0xa0af
	.uleb128 0x1
	.long	0xa0b4
	.byte	0
	.uleb128 0x10
	.long	.LASF156
	.byte	0x2
	.value	0x2ba
	.byte	0x7
	.long	.LASF167
	.byte	0x1
	.long	0x147c
	.long	0x148c
	.uleb128 0x2
	.long	0xa096
	.uleb128 0x1
	.long	0x1de8
	.uleb128 0x1
	.long	0xa0a0
	.byte	0
	.uleb128 0x10
	.long	.LASF168
	.byte	0x2
	.value	0x316
	.byte	0x7
	.long	.LASF169
	.byte	0x1
	.long	0x14a2
	.long	0x14a8
	.uleb128 0x2
	.long	0xa096
	.byte	0
	.uleb128 0x22
	.long	.LASF35
	.byte	0x7
	.byte	0xd6
	.byte	0x5
	.long	.LASF170
	.long	0xa0b9
	.byte	0x1
	.long	0x14c1
	.long	0x14cc
	.uleb128 0x2
	.long	0xa096
	.uleb128 0x1
	.long	0xa0aa
	.byte	0
	.uleb128 0x6
	.long	.LASF35
	.byte	0x2
	.value	0x337
	.byte	0x7
	.long	.LASF171
	.long	0xa0b9
	.byte	0x1
	.long	0x14e6
	.long	0x14f1
	.uleb128 0x2
	.long	0xa096
	.uleb128 0x1
	.long	0xa0af
	.byte	0
	.uleb128 0x6
	.long	.LASF35
	.byte	0x2
	.value	0x34d
	.byte	0x7
	.long	.LASF172
	.long	0xa0b9
	.byte	0x1
	.long	0x150b
	.long	0x1516
	.uleb128 0x2
	.long	0xa096
	.uleb128 0x1
	.long	0x1de8
	.byte	0
	.uleb128 0x10
	.long	.LASF173
	.byte	0x2
	.value	0x361
	.byte	0x7
	.long	.LASF174
	.byte	0x1
	.long	0x152c
	.long	0x153c
	.uleb128 0x2
	.long	0xa096
	.uleb128 0x1
	.long	0x133c
	.uleb128 0x1
	.long	0xa0a5
	.byte	0
	.uleb128 0x10
	.long	.LASF173
	.byte	0x2
	.value	0x390
	.byte	0x7
	.long	.LASF175
	.byte	0x1
	.long	0x1552
	.long	0x155d
	.uleb128 0x2
	.long	0xa096
	.uleb128 0x1
	.long	0x1de8
	.byte	0
	.uleb128 0x15
	.long	.LASF176
	.byte	0x2
	.value	0x1ea
	.byte	0x3d
	.long	0x828e
	.uleb128 0x6
	.long	.LASF177
	.byte	0x2
	.value	0x3dc
	.byte	0x7
	.long	.LASF178
	.long	0x155d
	.byte	0x1
	.long	0x1584
	.long	0x158a
	.uleb128 0x2
	.long	0xa096
	.byte	0
	.uleb128 0x15
	.long	.LASF179
	.byte	0x2
	.value	0x1ec
	.byte	0x7
	.long	0x84c1
	.uleb128 0x6
	.long	.LASF177
	.byte	0x2
	.value	0x3e6
	.byte	0x7
	.long	.LASF180
	.long	0x158a
	.byte	0x1
	.long	0x15b1
	.long	0x15b7
	.uleb128 0x2
	.long	0xa0be
	.byte	0
	.uleb128 0x3a
	.string	"end"
	.value	0x3f0
	.long	.LASF181
	.long	0x155d
	.long	0x15ce
	.long	0x15d4
	.uleb128 0x2
	.long	0xa096
	.byte	0
	.uleb128 0x3a
	.string	"end"
	.value	0x3fa
	.long	.LASF182
	.long	0x158a
	.long	0x15eb
	.long	0x15f1
	.uleb128 0x2
	.long	0xa0be
	.byte	0
	.uleb128 0x15
	.long	.LASF183
	.byte	0x2
	.value	0x1ee
	.byte	0x30
	.long	0x1ded
	.uleb128 0x6
	.long	.LASF184
	.byte	0x2
	.value	0x404
	.byte	0x7
	.long	.LASF185
	.long	0x15f1
	.byte	0x1
	.long	0x1618
	.long	0x161e
	.uleb128 0x2
	.long	0xa096
	.byte	0
	.uleb128 0x15
	.long	.LASF186
	.byte	0x2
	.value	0x1ed
	.byte	0x35
	.long	0x1df2
	.uleb128 0x6
	.long	.LASF184
	.byte	0x2
	.value	0x40e
	.byte	0x7
	.long	.LASF187
	.long	0x161e
	.byte	0x1
	.long	0x1645
	.long	0x164b
	.uleb128 0x2
	.long	0xa0be
	.byte	0
	.uleb128 0x6
	.long	.LASF188
	.byte	0x2
	.value	0x418
	.byte	0x7
	.long	.LASF189
	.long	0x15f1
	.byte	0x1
	.long	0x1665
	.long	0x166b
	.uleb128 0x2
	.long	0xa096
	.byte	0
	.uleb128 0x6
	.long	.LASF188
	.byte	0x2
	.value	0x422
	.byte	0x7
	.long	.LASF190
	.long	0x161e
	.byte	0x1
	.long	0x1685
	.long	0x168b
	.uleb128 0x2
	.long	0xa0be
	.byte	0
	.uleb128 0x6
	.long	.LASF191
	.byte	0x2
	.value	0x42d
	.byte	0x7
	.long	.LASF192
	.long	0x158a
	.byte	0x1
	.long	0x16a5
	.long	0x16ab
	.uleb128 0x2
	.long	0xa0be
	.byte	0
	.uleb128 0x6
	.long	.LASF193
	.byte	0x2
	.value	0x437
	.byte	0x7
	.long	.LASF194
	.long	0x158a
	.byte	0x1
	.long	0x16c5
	.long	0x16cb
	.uleb128 0x2
	.long	0xa0be
	.byte	0
	.uleb128 0x6
	.long	.LASF195
	.byte	0x2
	.value	0x441
	.byte	0x7
	.long	.LASF196
	.long	0x161e
	.byte	0x1
	.long	0x16e5
	.long	0x16eb
	.uleb128 0x2
	.long	0xa0be
	.byte	0
	.uleb128 0x6
	.long	.LASF197
	.byte	0x2
	.value	0x44b
	.byte	0x7
	.long	.LASF198
	.long	0x161e
	.byte	0x1
	.long	0x1705
	.long	0x170b
	.uleb128 0x2
	.long	0xa0be
	.byte	0
	.uleb128 0x6
	.long	.LASF199
	.byte	0x2
	.value	0x453
	.byte	0x7
	.long	.LASF200
	.long	0x133c
	.byte	0x1
	.long	0x1725
	.long	0x172b
	.uleb128 0x2
	.long	0xa0be
	.byte	0
	.uleb128 0x6
	.long	.LASF84
	.byte	0x2
	.value	0x45e
	.byte	0x7
	.long	.LASF201
	.long	0x133c
	.byte	0x1
	.long	0x1745
	.long	0x174b
	.uleb128 0x2
	.long	0xa0be
	.byte	0
	.uleb128 0x10
	.long	.LASF202
	.byte	0x2
	.value	0x46d
	.byte	0x7
	.long	.LASF203
	.byte	0x1
	.long	0x1761
	.long	0x176c
	.uleb128 0x2
	.long	0xa096
	.uleb128 0x1
	.long	0x133c
	.byte	0
	.uleb128 0x10
	.long	.LASF202
	.byte	0x2
	.value	0x482
	.byte	0x7
	.long	.LASF204
	.byte	0x1
	.long	0x1782
	.long	0x1792
	.uleb128 0x2
	.long	0xa096
	.uleb128 0x1
	.long	0x133c
	.uleb128 0x1
	.long	0xa0a5
	.byte	0
	.uleb128 0x10
	.long	.LASF205
	.byte	0x2
	.value	0x4a4
	.byte	0x7
	.long	.LASF206
	.byte	0x1
	.long	0x17a8
	.long	0x17ae
	.uleb128 0x2
	.long	0xa096
	.byte	0
	.uleb128 0x6
	.long	.LASF207
	.byte	0x2
	.value	0x4ae
	.byte	0x7
	.long	.LASF208
	.long	0x133c
	.byte	0x1
	.long	0x17c8
	.long	0x17ce
	.uleb128 0x2
	.long	0xa0be
	.byte	0
	.uleb128 0x6
	.long	.LASF209
	.byte	0x2
	.value	0x4bd
	.byte	0x7
	.long	.LASF210
	.long	0x92bf
	.byte	0x1
	.long	0x17e8
	.long	0x17ee
	.uleb128 0x2
	.long	0xa0be
	.byte	0
	.uleb128 0x24
	.long	.LASF211
	.byte	0x7
	.byte	0x46
	.byte	0x5
	.long	.LASF212
	.byte	0x1
	.long	0x1803
	.long	0x180e
	.uleb128 0x2
	.long	0xa096
	.uleb128 0x1
	.long	0x133c
	.byte	0
	.uleb128 0x15
	.long	.LASF75
	.byte	0x2
	.value	0x1e8
	.byte	0x32
	.long	0x8249
	.uleb128 0x6
	.long	.LASF213
	.byte	0x2
	.value	0x4e3
	.byte	0x7
	.long	.LASF214
	.long	0x180e
	.byte	0x1
	.long	0x1835
	.long	0x1840
	.uleb128 0x2
	.long	0xa096
	.uleb128 0x1
	.long	0x133c
	.byte	0
	.uleb128 0x15
	.long	.LASF78
	.byte	0x2
	.value	0x1e9
	.byte	0x37
	.long	0x8255
	.uleb128 0x6
	.long	.LASF213
	.byte	0x2
	.value	0x4f6
	.byte	0x7
	.long	.LASF215
	.long	0x1840
	.byte	0x1
	.long	0x1867
	.long	0x1872
	.uleb128 0x2
	.long	0xa0be
	.uleb128 0x1
	.long	0x133c
	.byte	0
	.uleb128 0x10
	.long	.LASF216
	.byte	0x2
	.value	0x500
	.byte	0x7
	.long	.LASF217
	.byte	0x2
	.long	0x1888
	.long	0x1893
	.uleb128 0x2
	.long	0xa0be
	.uleb128 0x1
	.long	0x133c
	.byte	0
	.uleb128 0x3a
	.string	"at"
	.value	0x517
	.long	.LASF218
	.long	0x180e
	.long	0x18a9
	.long	0x18b4
	.uleb128 0x2
	.long	0xa096
	.uleb128 0x1
	.long	0x133c
	.byte	0
	.uleb128 0x3a
	.string	"at"
	.value	0x52a
	.long	.LASF219
	.long	0x1840
	.long	0x18ca
	.long	0x18d5
	.uleb128 0x2
	.long	0xa0be
	.uleb128 0x1
	.long	0x133c
	.byte	0
	.uleb128 0x6
	.long	.LASF220
	.byte	0x2
	.value	0x536
	.byte	0x7
	.long	.LASF221
	.long	0x180e
	.byte	0x1
	.long	0x18ef
	.long	0x18f5
	.uleb128 0x2
	.long	0xa096
	.byte	0
	.uleb128 0x6
	.long	.LASF220
	.byte	0x2
	.value	0x542
	.byte	0x7
	.long	.LASF222
	.long	0x1840
	.byte	0x1
	.long	0x190f
	.long	0x1915
	.uleb128 0x2
	.long	0xa0be
	.byte	0
	.uleb128 0x6
	.long	.LASF223
	.byte	0x2
	.value	0x54e
	.byte	0x7
	.long	.LASF224
	.long	0x180e
	.byte	0x1
	.long	0x192f
	.long	0x1935
	.uleb128 0x2
	.long	0xa096
	.byte	0
	.uleb128 0x6
	.long	.LASF223
	.byte	0x2
	.value	0x55a
	.byte	0x7
	.long	.LASF225
	.long	0x1840
	.byte	0x1
	.long	0x194f
	.long	0x1955
	.uleb128 0x2
	.long	0xa0be
	.byte	0
	.uleb128 0x6
	.long	.LASF226
	.byte	0x2
	.value	0x569
	.byte	0x7
	.long	.LASF227
	.long	0x9ff6
	.byte	0x1
	.long	0x196f
	.long	0x1975
	.uleb128 0x2
	.long	0xa096
	.byte	0
	.uleb128 0x6
	.long	.LASF226
	.byte	0x2
	.value	0x56e
	.byte	0x7
	.long	.LASF228
	.long	0xa00f
	.byte	0x1
	.long	0x198f
	.long	0x1995
	.uleb128 0x2
	.long	0xa0be
	.byte	0
	.uleb128 0x10
	.long	.LASF229
	.byte	0x2
	.value	0x57e
	.byte	0x7
	.long	.LASF230
	.byte	0x1
	.long	0x19ab
	.long	0x19b6
	.uleb128 0x2
	.long	0xa096
	.uleb128 0x1
	.long	0xa0a5
	.byte	0
	.uleb128 0x10
	.long	.LASF229
	.byte	0x2
	.value	0x58f
	.byte	0x7
	.long	.LASF231
	.byte	0x1
	.long	0x19cc
	.long	0x19d7
	.uleb128 0x2
	.long	0xa096
	.uleb128 0x1
	.long	0xa0c8
	.byte	0
	.uleb128 0x10
	.long	.LASF232
	.byte	0x2
	.value	0x5a7
	.byte	0x7
	.long	.LASF233
	.byte	0x1
	.long	0x19ed
	.long	0x19f3
	.uleb128 0x2
	.long	0xa096
	.byte	0
	.uleb128 0x22
	.long	.LASF234
	.byte	0x7
	.byte	0x89
	.byte	0x5
	.long	.LASF235
	.long	0x155d
	.byte	0x1
	.long	0x1a0c
	.long	0x1a1c
	.uleb128 0x2
	.long	0xa096
	.uleb128 0x1
	.long	0x158a
	.uleb128 0x1
	.long	0xa0a5
	.byte	0
	.uleb128 0x6
	.long	.LASF234
	.byte	0x2
	.value	0x5ee
	.byte	0x7
	.long	.LASF236
	.long	0x155d
	.byte	0x1
	.long	0x1a36
	.long	0x1a46
	.uleb128 0x2
	.long	0xa096
	.uleb128 0x1
	.long	0x158a
	.uleb128 0x1
	.long	0xa0c8
	.byte	0
	.uleb128 0x6
	.long	.LASF234
	.byte	0x2
	.value	0x600
	.byte	0x7
	.long	.LASF237
	.long	0x155d
	.byte	0x1
	.long	0x1a60
	.long	0x1a70
	.uleb128 0x2
	.long	0xa096
	.uleb128 0x1
	.long	0x158a
	.uleb128 0x1
	.long	0x1de8
	.byte	0
	.uleb128 0x6
	.long	.LASF234
	.byte	0x2
	.value	0x61a
	.byte	0x7
	.long	.LASF238
	.long	0x155d
	.byte	0x1
	.long	0x1a8a
	.long	0x1a9f
	.uleb128 0x2
	.long	0xa096
	.uleb128 0x1
	.long	0x158a
	.uleb128 0x1
	.long	0x133c
	.uleb128 0x1
	.long	0xa0a5
	.byte	0
	.uleb128 0x6
	.long	.LASF239
	.byte	0x2
	.value	0x6f6
	.byte	0x7
	.long	.LASF240
	.long	0x155d
	.byte	0x1
	.long	0x1ab9
	.long	0x1ac4
	.uleb128 0x2
	.long	0xa096
	.uleb128 0x1
	.long	0x158a
	.byte	0
	.uleb128 0x6
	.long	.LASF239
	.byte	0x2
	.value	0x712
	.byte	0x7
	.long	.LASF241
	.long	0x155d
	.byte	0x1
	.long	0x1ade
	.long	0x1aee
	.uleb128 0x2
	.long	0xa096
	.uleb128 0x1
	.long	0x158a
	.uleb128 0x1
	.long	0x158a
	.byte	0
	.uleb128 0x10
	.long	.LASF40
	.byte	0x2
	.value	0x72a
	.byte	0x7
	.long	.LASF242
	.byte	0x1
	.long	0x1b04
	.long	0x1b0f
	.uleb128 0x2
	.long	0xa096
	.uleb128 0x1
	.long	0xa0b9
	.byte	0
	.uleb128 0x10
	.long	.LASF243
	.byte	0x2
	.value	0x73d
	.byte	0x7
	.long	.LASF244
	.byte	0x1
	.long	0x1b25
	.long	0x1b2b
	.uleb128 0x2
	.long	0xa096
	.byte	0
	.uleb128 0x10
	.long	.LASF245
	.byte	0x2
	.value	0x7c3
	.byte	0x7
	.long	.LASF246
	.byte	0x2
	.long	0x1b41
	.long	0x1b51
	.uleb128 0x2
	.long	0xa096
	.uleb128 0x1
	.long	0x133c
	.uleb128 0x1
	.long	0xa0a5
	.byte	0
	.uleb128 0x10
	.long	.LASF247
	.byte	0x2
	.value	0x7ce
	.byte	0x7
	.long	.LASF248
	.byte	0x2
	.long	0x1b67
	.long	0x1b72
	.uleb128 0x2
	.long	0xa096
	.uleb128 0x1
	.long	0x133c
	.byte	0
	.uleb128 0x10
	.long	.LASF249
	.byte	0x7
	.value	0x112
	.byte	0x5
	.long	.LASF250
	.byte	0x2
	.long	0x1b88
	.long	0x1b98
	.uleb128 0x2
	.long	0xa096
	.uleb128 0x1
	.long	0x2bc
	.uleb128 0x1
	.long	0xa0a5
	.byte	0
	.uleb128 0x10
	.long	.LASF251
	.byte	0x7
	.value	0x296
	.byte	0x5
	.long	.LASF252
	.byte	0x2
	.long	0x1bae
	.long	0x1bc3
	.uleb128 0x2
	.long	0xa096
	.uleb128 0x1
	.long	0x155d
	.uleb128 0x1
	.long	0x133c
	.uleb128 0x1
	.long	0xa0a5
	.byte	0
	.uleb128 0x10
	.long	.LASF253
	.byte	0x7
	.value	0x300
	.byte	0x5
	.long	.LASF254
	.byte	0x2
	.long	0x1bd9
	.long	0x1be9
	.uleb128 0x2
	.long	0xa096
	.uleb128 0x1
	.long	0x133c
	.uleb128 0x1
	.long	0xa0a5
	.byte	0
	.uleb128 0x10
	.long	.LASF255
	.byte	0x7
	.value	0x339
	.byte	0x5
	.long	.LASF256
	.byte	0x2
	.long	0x1bff
	.long	0x1c0a
	.uleb128 0x2
	.long	0xa096
	.uleb128 0x1
	.long	0x133c
	.byte	0
	.uleb128 0x6
	.long	.LASF257
	.byte	0x7
	.value	0x396
	.byte	0x5
	.long	.LASF258
	.long	0x92bf
	.byte	0x2
	.long	0x1c24
	.long	0x1c2a
	.uleb128 0x2
	.long	0xa096
	.byte	0
	.uleb128 0x6
	.long	.LASF259
	.byte	0x7
	.value	0x16f
	.byte	0x5
	.long	.LASF260
	.long	0x155d
	.byte	0x2
	.long	0x1c44
	.long	0x1c54
	.uleb128 0x2
	.long	0xa096
	.uleb128 0x1
	.long	0x158a
	.uleb128 0x1
	.long	0xa0c8
	.byte	0
	.uleb128 0x6
	.long	.LASF261
	.byte	0x2
	.value	0x889
	.byte	0x7
	.long	.LASF262
	.long	0x155d
	.byte	0x2
	.long	0x1c6e
	.long	0x1c7e
	.uleb128 0x2
	.long	0xa096
	.uleb128 0x1
	.long	0x158a
	.uleb128 0x1
	.long	0xa0c8
	.byte	0
	.uleb128 0x6
	.long	.LASF263
	.byte	0x2
	.value	0x890
	.byte	0x7
	.long	.LASF264
	.long	0x133c
	.byte	0x2
	.long	0x1c98
	.long	0x1ca8
	.uleb128 0x2
	.long	0xa0be
	.uleb128 0x1
	.long	0x133c
	.uleb128 0x1
	.long	0x788b
	.byte	0
	.uleb128 0x52
	.long	.LASF265
	.value	0x89b
	.long	.LASF266
	.long	0x133c
	.long	0x1cc6
	.uleb128 0x1
	.long	0x133c
	.uleb128 0x1
	.long	0xa0a0
	.byte	0
	.uleb128 0x52
	.long	.LASF267
	.value	0x8a4
	.long	.LASF268
	.long	0x133c
	.long	0x1cdf
	.uleb128 0x1
	.long	0xa0cd
	.byte	0
	.uleb128 0x10
	.long	.LASF269
	.byte	0x2
	.value	0x8b5
	.byte	0x7
	.long	.LASF270
	.byte	0x2
	.long	0x1cf5
	.long	0x1d00
	.uleb128 0x2
	.long	0xa096
	.uleb128 0x1
	.long	0x1285
	.byte	0
	.uleb128 0x22
	.long	.LASF271
	.byte	0x7
	.byte	0xb9
	.byte	0x5
	.long	.LASF272
	.long	0x155d
	.byte	0x2
	.long	0x1d19
	.long	0x1d24
	.uleb128 0x2
	.long	0xa096
	.uleb128 0x1
	.long	0x155d
	.byte	0
	.uleb128 0x22
	.long	.LASF271
	.byte	0x7
	.byte	0xc7
	.byte	0x5
	.long	.LASF273
	.long	0x155d
	.byte	0x2
	.long	0x1d3d
	.long	0x1d4d
	.uleb128 0x2
	.long	0xa096
	.uleb128 0x1
	.long	0x155d
	.uleb128 0x1
	.long	0x155d
	.byte	0
	.uleb128 0x1c
	.long	.LASF274
	.value	0x8cf
	.long	.LASF275
	.long	0x1d60
	.long	0x1d70
	.uleb128 0x2
	.long	0xa096
	.uleb128 0x1
	.long	0xa0af
	.uleb128 0x1
	.long	0x63c
	.byte	0
	.uleb128 0x1c
	.long	.LASF274
	.value	0x8db
	.long	.LASF276
	.long	0x1d83
	.long	0x1d93
	.uleb128 0x2
	.long	0xa096
	.uleb128 0x1
	.long	0xa0af
	.uleb128 0x1
	.long	0x3ac
	.byte	0
	.uleb128 0x38
	.long	.LASF277
	.value	0x8ee
	.byte	0x2
	.long	.LASF278
	.long	0x9ff6
	.long	0x1db4
	.long	0x1dbf
	.uleb128 0xf
	.string	"_Up"
	.long	0x92d5
	.uleb128 0x2
	.long	0xa0be
	.uleb128 0x1
	.long	0x9ff6
	.byte	0
	.uleb128 0xf
	.string	"_Tp"
	.long	0x92d5
	.uleb128 0x64
	.long	.LASF146
	.long	0xca9
	.byte	0
	.uleb128 0x7
	.long	0x11f9
	.uleb128 0x8
	.long	.LASF279
	.byte	0x13
	.byte	0xad
	.byte	0xb
	.long	0x11e3
	.uleb128 0x7
	.long	0x1dd7
	.uleb128 0x35
	.long	.LASF281
	.uleb128 0x35
	.long	.LASF282
	.uleb128 0x35
	.long	.LASF283
	.uleb128 0x18
	.byte	0x9
	.value	0x82c
	.byte	0xb
	.long	0xa20d
	.uleb128 0x18
	.byte	0x9
	.value	0x82d
	.byte	0xb
	.long	0xa201
	.uleb128 0x4b
	.string	"abs"
	.byte	0x23
	.byte	0x96
	.long	.LASF284
	.long	0x9e6f
	.long	0x1e22
	.uleb128 0x1
	.long	0x9e6f
	.byte	0
	.uleb128 0x4b
	.string	"abs"
	.byte	0x23
	.byte	0x6e
	.long	.LASF285
	.long	0x92f6
	.long	0x1e3b
	.uleb128 0x1
	.long	0x92f6
	.byte	0
	.uleb128 0x4b
	.string	"abs"
	.byte	0x23
	.byte	0x55
	.long	.LASF286
	.long	0x921c
	.long	0x1e54
	.uleb128 0x1
	.long	0x921c
	.byte	0
	.uleb128 0x4b
	.string	"abs"
	.byte	0x23
	.byte	0x51
	.long	.LASF287
	.long	0x30
	.long	0x1e6d
	.uleb128 0x1
	.long	0x30
	.byte	0
	.uleb128 0x4b
	.string	"abs"
	.byte	0x23
	.byte	0x4d
	.long	.LASF288
	.long	0x7df5
	.long	0x1e86
	.uleb128 0x1
	.long	0x7df5
	.byte	0
	.uleb128 0x4b
	.string	"abs"
	.byte	0x23
	.byte	0x43
	.long	.LASF289
	.long	0x9248
	.long	0x1e9f
	.uleb128 0x1
	.long	0x9248
	.byte	0
	.uleb128 0x4b
	.string	"abs"
	.byte	0x23
	.byte	0x3e
	.long	.LASF290
	.long	0x7e67
	.long	0x1eb8
	.uleb128 0x1
	.long	0x7e67
	.byte	0
	.uleb128 0x4b
	.string	"div"
	.byte	0x18
	.byte	0xbb
	.long	.LASF291
	.long	0x9633
	.long	0x1ed6
	.uleb128 0x1
	.long	0x7e67
	.uleb128 0x1
	.long	0x7e67
	.byte	0
	.uleb128 0x3e
	.long	.LASF292
	.byte	0x1
	.byte	0x6
	.byte	0x3f
	.long	0x2074
	.uleb128 0x24
	.long	.LASF64
	.byte	0x6
	.byte	0x58
	.byte	0x7
	.long	.LASF293
	.byte	0x1
	.long	0x1ef7
	.long	0x1efd
	.uleb128 0x2
	.long	0xa4df
	.byte	0
	.uleb128 0x24
	.long	.LASF64
	.byte	0x6
	.byte	0x5c
	.byte	0x7
	.long	.LASF294
	.byte	0x1
	.long	0x1f12
	.long	0x1f1d
	.uleb128 0x2
	.long	0xa4df
	.uleb128 0x1
	.long	0xa4e4
	.byte	0
	.uleb128 0x4e
	.long	.LASF35
	.byte	0x6
	.byte	0x64
	.byte	0x18
	.long	.LASF295
	.long	0xa4e9
	.long	0x1f35
	.long	0x1f40
	.uleb128 0x2
	.long	0xa4df
	.uleb128 0x1
	.long	0xa4e4
	.byte	0
	.uleb128 0x24
	.long	.LASF70
	.byte	0x6
	.byte	0x68
	.byte	0x7
	.long	.LASF296
	.byte	0x1
	.long	0x1f55
	.long	0x1f5b
	.uleb128 0x2
	.long	0xa4df
	.byte	0
	.uleb128 0x28
	.long	.LASF74
	.byte	0x6
	.byte	0x46
	.byte	0x1a
	.long	0xa4ee
	.uleb128 0x22
	.long	.LASF72
	.byte	0x6
	.byte	0x6b
	.byte	0x7
	.long	.LASF297
	.long	0x1f5b
	.byte	0x1
	.long	0x1f80
	.long	0x1f8b
	.uleb128 0x2
	.long	0xa4f8
	.uleb128 0x1
	.long	0x1f8b
	.byte	0
	.uleb128 0x28
	.long	.LASF75
	.byte	0x6
	.byte	0x48
	.byte	0x1a
	.long	0xa4fd
	.uleb128 0x28
	.long	.LASF76
	.byte	0x6
	.byte	0x47
	.byte	0x1a
	.long	0xa502
	.uleb128 0x22
	.long	.LASF72
	.byte	0x6
	.byte	0x6f
	.byte	0x7
	.long	.LASF298
	.long	0x1f97
	.byte	0x1
	.long	0x1fbc
	.long	0x1fc7
	.uleb128 0x2
	.long	0xa4f8
	.uleb128 0x1
	.long	0x1fc7
	.byte	0
	.uleb128 0x28
	.long	.LASF78
	.byte	0x6
	.byte	0x49
	.byte	0x1a
	.long	0xa50c
	.uleb128 0x22
	.long	.LASF79
	.byte	0x6
	.byte	0x81
	.byte	0x7
	.long	.LASF299
	.long	0xa4ee
	.byte	0x1
	.long	0x1fec
	.long	0x1ffc
	.uleb128 0x2
	.long	0xa4df
	.uleb128 0x1
	.long	0x1ffc
	.uleb128 0x1
	.long	0x9315
	.byte	0
	.uleb128 0x28
	.long	.LASF81
	.byte	0x6
	.byte	0x43
	.byte	0x1f
	.long	0x2bc
	.uleb128 0x24
	.long	.LASF82
	.byte	0x6
	.byte	0xa7
	.byte	0x7
	.long	.LASF300
	.byte	0x1
	.long	0x201d
	.long	0x202d
	.uleb128 0x2
	.long	0xa4df
	.uleb128 0x1
	.long	0xa4ee
	.uleb128 0x1
	.long	0x1ffc
	.byte	0
	.uleb128 0x22
	.long	.LASF84
	.byte	0x6
	.byte	0xc2
	.byte	0x7
	.long	.LASF301
	.long	0x1ffc
	.byte	0x1
	.long	0x2046
	.long	0x204c
	.uleb128 0x2
	.long	0xa4f8
	.byte	0
	.uleb128 0x45
	.long	.LASF86
	.byte	0x6
	.byte	0xf2
	.byte	0x7
	.long	.LASF302
	.long	0x1ffc
	.long	0x2064
	.long	0x206a
	.uleb128 0x2
	.long	0xa4f8
	.byte	0
	.uleb128 0xf
	.string	"_Tp"
	.long	0xa1cb
	.byte	0
	.uleb128 0x7
	.long	0x1ed6
	.uleb128 0x3e
	.long	.LASF303
	.byte	0x1
	.byte	0x5
	.byte	0x85
	.long	0x20fd
	.uleb128 0x48
	.long	0x1ed6
	.byte	0x1
	.uleb128 0x24
	.long	.LASF89
	.byte	0x5
	.byte	0xa8
	.byte	0x7
	.long	.LASF304
	.byte	0x1
	.long	0x20a0
	.long	0x20a6
	.uleb128 0x2
	.long	0xa511
	.byte	0
	.uleb128 0x24
	.long	.LASF89
	.byte	0x5
	.byte	0xac
	.byte	0x7
	.long	.LASF305
	.byte	0x1
	.long	0x20bb
	.long	0x20c6
	.uleb128 0x2
	.long	0xa511
	.uleb128 0x1
	.long	0xa516
	.byte	0
	.uleb128 0x4e
	.long	.LASF35
	.byte	0x5
	.byte	0xb1
	.byte	0x12
	.long	.LASF306
	.long	0xa51b
	.long	0x20de
	.long	0x20e9
	.uleb128 0x2
	.long	0xa511
	.uleb128 0x1
	.long	0xa516
	.byte	0
	.uleb128 0x6e
	.long	.LASF93
	.long	.LASF307
	.long	0x20f6
	.uleb128 0x2
	.long	0xa511
	.byte	0
	.byte	0
	.uleb128 0x7
	.long	0x2079
	.uleb128 0x58
	.long	.LASF308
	.byte	0x1
	.byte	0x8
	.value	0x248
	.byte	0xc
	.long	0x2200
	.uleb128 0x1e
	.long	.LASF74
	.byte	0x8
	.value	0x251
	.byte	0xd
	.long	0xa4ee
	.uleb128 0x17
	.long	.LASF79
	.byte	0x8
	.value	0x27d
	.byte	0x7
	.long	.LASF309
	.long	0x2110
	.long	0x213d
	.uleb128 0x1
	.long	0xa520
	.uleb128 0x1
	.long	0x214f
	.byte	0
	.uleb128 0x1e
	.long	.LASF98
	.byte	0x8
	.value	0x24b
	.byte	0xd
	.long	0x2079
	.uleb128 0x7
	.long	0x213d
	.uleb128 0x1e
	.long	.LASF81
	.byte	0x8
	.value	0x260
	.byte	0xd
	.long	0x2bc
	.uleb128 0x17
	.long	.LASF79
	.byte	0x8
	.value	0x28c
	.byte	0x7
	.long	.LASF310
	.long	0x2110
	.long	0x2181
	.uleb128 0x1
	.long	0xa520
	.uleb128 0x1
	.long	0x214f
	.uleb128 0x1
	.long	0x2181
	.byte	0
	.uleb128 0x1e
	.long	.LASF100
	.byte	0x8
	.value	0x25a
	.byte	0xd
	.long	0x9315
	.uleb128 0x39
	.long	.LASF82
	.byte	0x8
	.value	0x2b0
	.byte	0x7
	.long	.LASF312
	.long	0x21af
	.uleb128 0x1
	.long	0xa520
	.uleb128 0x1
	.long	0x2110
	.uleb128 0x1
	.long	0x214f
	.byte	0
	.uleb128 0x17
	.long	.LASF84
	.byte	0x8
	.value	0x2ed
	.byte	0x7
	.long	.LASF313
	.long	0x214f
	.long	0x21ca
	.uleb128 0x1
	.long	0xa525
	.byte	0
	.uleb128 0x17
	.long	.LASF102
	.byte	0x8
	.value	0x2fd
	.byte	0x7
	.long	.LASF314
	.long	0x213d
	.long	0x21e5
	.uleb128 0x1
	.long	0xa525
	.byte	0
	.uleb128 0x1e
	.long	.LASF6
	.byte	0x8
	.value	0x24e
	.byte	0xd
	.long	0xa1cb
	.uleb128 0x1e
	.long	.LASF104
	.byte	0x8
	.value	0x26f
	.byte	0x8
	.long	0x2079
	.byte	0
	.uleb128 0x19
	.long	.LASF315
	.byte	0x18
	.byte	0x2
	.byte	0x5b
	.byte	0xc
	.long	0x2588
	.uleb128 0x19
	.long	.LASF106
	.byte	0x18
	.byte	0x2
	.byte	0x62
	.byte	0xe
	.long	0x22b3
	.uleb128 0x11
	.long	.LASF108
	.byte	0x2
	.byte	0x64
	.byte	0xa
	.long	0x22b8
	.byte	0
	.uleb128 0x11
	.long	.LASF109
	.byte	0x2
	.byte	0x65
	.byte	0xa
	.long	0x22b8
	.byte	0x8
	.uleb128 0x11
	.long	.LASF110
	.byte	0x2
	.byte	0x66
	.byte	0xa
	.long	0x22b8
	.byte	0x10
	.uleb128 0x23
	.long	.LASF106
	.byte	0x2
	.byte	0x69
	.byte	0x2
	.long	.LASF316
	.long	0x2255
	.long	0x225b
	.uleb128 0x2
	.long	0xa534
	.byte	0
	.uleb128 0x23
	.long	.LASF106
	.byte	0x2
	.byte	0x6f
	.byte	0x2
	.long	.LASF317
	.long	0x226f
	.long	0x227a
	.uleb128 0x2
	.long	0xa534
	.uleb128 0x1
	.long	0xa539
	.byte	0
	.uleb128 0x23
	.long	.LASF113
	.byte	0x2
	.byte	0x77
	.byte	0x2
	.long	.LASF318
	.long	0x228e
	.long	0x2299
	.uleb128 0x2
	.long	0xa534
	.uleb128 0x1
	.long	0xa53e
	.byte	0
	.uleb128 0x63
	.long	.LASF115
	.byte	0x80
	.long	.LASF320
	.long	0x22a7
	.uleb128 0x2
	.long	0xa534
	.uleb128 0x1
	.long	0xa543
	.byte	0
	.byte	0
	.uleb128 0x7
	.long	0x220d
	.uleb128 0x8
	.long	.LASF74
	.byte	0x2
	.byte	0x60
	.byte	0x9
	.long	0x8584
	.uleb128 0x19
	.long	.LASF116
	.byte	0x18
	.byte	0x2
	.byte	0x8b
	.byte	0xe
	.long	0x2371
	.uleb128 0x37
	.long	0x2079
	.uleb128 0x37
	.long	0x220d
	.uleb128 0x23
	.long	.LASF116
	.byte	0x2
	.byte	0x8f
	.byte	0x2
	.long	.LASF321
	.long	0x22ef
	.long	0x22f5
	.uleb128 0x2
	.long	0xa548
	.byte	0
	.uleb128 0x23
	.long	.LASF116
	.byte	0x2
	.byte	0x98
	.byte	0x2
	.long	.LASF322
	.long	0x2309
	.long	0x2314
	.uleb128 0x2
	.long	0xa548
	.uleb128 0x1
	.long	0xa54d
	.byte	0
	.uleb128 0x23
	.long	.LASF116
	.byte	0x2
	.byte	0xa0
	.byte	0x2
	.long	.LASF323
	.long	0x2328
	.long	0x2333
	.uleb128 0x2
	.long	0xa548
	.uleb128 0x1
	.long	0xa552
	.byte	0
	.uleb128 0x23
	.long	.LASF116
	.byte	0x2
	.byte	0xa5
	.byte	0x2
	.long	.LASF324
	.long	0x2347
	.long	0x2352
	.uleb128 0x2
	.long	0xa548
	.uleb128 0x1
	.long	0xa557
	.byte	0
	.uleb128 0x63
	.long	.LASF116
	.byte	0xaa
	.long	.LASF325
	.long	0x2360
	.uleb128 0x2
	.long	0xa548
	.uleb128 0x1
	.long	0xa557
	.uleb128 0x1
	.long	0xa552
	.byte	0
	.byte	0
	.uleb128 0x8
	.long	.LASF122
	.byte	0x2
	.byte	0x5e
	.byte	0x15
	.long	0x85b5
	.uleb128 0x7
	.long	0x2371
	.uleb128 0x38
	.long	.LASF123
	.value	0x133
	.byte	0x7
	.long	.LASF326
	.long	0xa55c
	.long	0x239a
	.long	0x23a0
	.uleb128 0x2
	.long	0xa561
	.byte	0
	.uleb128 0x38
	.long	.LASF123
	.value	0x138
	.byte	0x7
	.long	.LASF327
	.long	0xa54d
	.long	0x23b8
	.long	0x23be
	.uleb128 0x2
	.long	0xa566
	.byte	0
	.uleb128 0x1e
	.long	.LASF98
	.byte	0x2
	.value	0x12f
	.byte	0x16
	.long	0x2079
	.uleb128 0x7
	.long	0x23be
	.uleb128 0x38
	.long	.LASF126
	.value	0x13d
	.byte	0x7
	.long	.LASF328
	.long	0x23be
	.long	0x23e8
	.long	0x23ee
	.uleb128 0x2
	.long	0xa566
	.byte	0
	.uleb128 0x4f
	.long	.LASF128
	.value	0x141
	.long	.LASF329
	.long	0x2401
	.long	0x2407
	.uleb128 0x2
	.long	0xa561
	.byte	0
	.uleb128 0x1c
	.long	.LASF128
	.value	0x147
	.long	.LASF330
	.long	0x241a
	.long	0x2425
	.uleb128 0x2
	.long	0xa561
	.uleb128 0x1
	.long	0xa56b
	.byte	0
	.uleb128 0x1c
	.long	.LASF128
	.value	0x14d
	.long	.LASF331
	.long	0x2438
	.long	0x2443
	.uleb128 0x2
	.long	0xa561
	.uleb128 0x1
	.long	0x2bc
	.byte	0
	.uleb128 0x1c
	.long	.LASF128
	.value	0x153
	.long	.LASF332
	.long	0x2456
	.long	0x2466
	.uleb128 0x2
	.long	0xa561
	.uleb128 0x1
	.long	0x2bc
	.uleb128 0x1
	.long	0xa56b
	.byte	0
	.uleb128 0x4f
	.long	.LASF128
	.value	0x158
	.long	.LASF333
	.long	0x2479
	.long	0x2484
	.uleb128 0x2
	.long	0xa561
	.uleb128 0x1
	.long	0xa570
	.byte	0
	.uleb128 0x1c
	.long	.LASF128
	.value	0x15d
	.long	.LASF334
	.long	0x2497
	.long	0x24a2
	.uleb128 0x2
	.long	0xa561
	.uleb128 0x1
	.long	0xa557
	.byte	0
	.uleb128 0x1c
	.long	.LASF128
	.value	0x161
	.long	.LASF335
	.long	0x24b5
	.long	0x24c5
	.uleb128 0x2
	.long	0xa561
	.uleb128 0x1
	.long	0xa570
	.uleb128 0x1
	.long	0xa56b
	.byte	0
	.uleb128 0x1c
	.long	.LASF128
	.value	0x16f
	.long	.LASF336
	.long	0x24d8
	.long	0x24e8
	.uleb128 0x2
	.long	0xa561
	.uleb128 0x1
	.long	0xa56b
	.uleb128 0x1
	.long	0xa570
	.byte	0
	.uleb128 0x1c
	.long	.LASF137
	.value	0x175
	.long	.LASF337
	.long	0x24fb
	.long	0x2501
	.uleb128 0x2
	.long	0xa561
	.byte	0
	.uleb128 0x50
	.long	.LASF139
	.value	0x17e
	.byte	0x14
	.long	0x22c4
	.byte	0
	.uleb128 0x38
	.long	.LASF140
	.value	0x182
	.byte	0x7
	.long	.LASF338
	.long	0x22b8
	.long	0x2526
	.long	0x2531
	.uleb128 0x2
	.long	0xa561
	.uleb128 0x1
	.long	0x2bc
	.byte	0
	.uleb128 0x1c
	.long	.LASF142
	.value	0x18a
	.long	.LASF339
	.long	0x2544
	.long	0x2554
	.uleb128 0x2
	.long	0xa561
	.uleb128 0x1
	.long	0x22b8
	.uleb128 0x1
	.long	0x2bc
	.byte	0
	.uleb128 0x10
	.long	.LASF144
	.byte	0x2
	.value	0x195
	.byte	0x7
	.long	.LASF340
	.byte	0x2
	.long	0x256a
	.long	0x2575
	.uleb128 0x2
	.long	0xa561
	.uleb128 0x1
	.long	0x2bc
	.byte	0
	.uleb128 0xf
	.string	"_Tp"
	.long	0xa1cb
	.uleb128 0xa
	.long	.LASF146
	.long	0x2079
	.byte	0
	.uleb128 0x7
	.long	0x2200
	.uleb128 0x19
	.long	.LASF341
	.byte	0x1
	.byte	0x13
	.byte	0xa9
	.byte	0xc
	.long	0x25b0
	.uleb128 0x8
	.long	.LASF148
	.byte	0x13
	.byte	0xaa
	.byte	0xd
	.long	0x2079
	.uleb128 0xa
	.long	.LASF149
	.long	0x2079
	.byte	0
	.uleb128 0x49
	.long	.LASF342
	.byte	0x18
	.byte	0x2
	.value	0x1cc
	.long	0x3158
	.uleb128 0x18
	.byte	0x2
	.value	0x1cc
	.byte	0xb
	.long	0x250e
	.uleb128 0x18
	.byte	0x2
	.value	0x1cc
	.byte	0xb
	.long	0x2531
	.uleb128 0x18
	.byte	0x2
	.value	0x1cc
	.byte	0xb
	.long	0x2501
	.uleb128 0x18
	.byte	0x2
	.value	0x1cc
	.byte	0xb
	.long	0x23a0
	.uleb128 0x18
	.byte	0x2
	.value	0x1cc
	.byte	0xb
	.long	0x2382
	.uleb128 0x18
	.byte	0x2
	.value	0x1cc
	.byte	0xb
	.long	0x23d0
	.uleb128 0x48
	.long	0x2200
	.byte	0x2
	.uleb128 0x17
	.long	.LASF151
	.byte	0x2
	.value	0x1f6
	.byte	0x7
	.long	.LASF343
	.long	0x92bf
	.long	0x2614
	.uleb128 0x1
	.long	0x63c
	.byte	0
	.uleb128 0x17
	.long	.LASF151
	.byte	0x2
	.value	0x1ff
	.byte	0x7
	.long	.LASF344
	.long	0x92bf
	.long	0x262f
	.uleb128 0x1
	.long	0x3ac
	.byte	0
	.uleb128 0x70
	.long	.LASF345
	.long	.LASF347
	.long	0x92bf
	.uleb128 0x15
	.long	.LASF74
	.byte	0x2
	.value	0x1e6
	.byte	0x29
	.long	0x22b8
	.uleb128 0x17
	.long	.LASF154
	.byte	0x2
	.value	0x20c
	.byte	0x7
	.long	.LASF348
	.long	0x263c
	.long	0x2673
	.uleb128 0x1
	.long	0x263c
	.uleb128 0x1
	.long	0x263c
	.uleb128 0x1
	.long	0x263c
	.uleb128 0x1
	.long	0xa575
	.byte	0
	.uleb128 0x1e
	.long	.LASF122
	.byte	0x2
	.value	0x1e1
	.byte	0x2f
	.long	0x2371
	.uleb128 0x7
	.long	0x2673
	.uleb128 0x51
	.long	.LASF156
	.value	0x227
	.long	.LASF349
	.long	0x2698
	.long	0x269e
	.uleb128 0x2
	.long	0xa57a
	.byte	0
	.uleb128 0x40
	.long	.LASF156
	.byte	0x2
	.value	0x232
	.long	.LASF350
	.long	0x26b2
	.long	0x26bd
	.uleb128 0x2
	.long	0xa57a
	.uleb128 0x1
	.long	0xa584
	.byte	0
	.uleb128 0x15
	.long	.LASF98
	.byte	0x2
	.value	0x1f1
	.byte	0x1a
	.long	0x2079
	.uleb128 0x7
	.long	0x26bd
	.uleb128 0x40
	.long	.LASF156
	.byte	0x2
	.value	0x240
	.long	.LASF351
	.long	0x26e3
	.long	0x26f3
	.uleb128 0x2
	.long	0xa57a
	.uleb128 0x1
	.long	0x26f3
	.uleb128 0x1
	.long	0xa584
	.byte	0
	.uleb128 0x15
	.long	.LASF81
	.byte	0x2
	.value	0x1ef
	.byte	0x1a
	.long	0x2bc
	.uleb128 0x10
	.long	.LASF156
	.byte	0x2
	.value	0x24d
	.byte	0x7
	.long	.LASF352
	.byte	0x1
	.long	0x2716
	.long	0x272b
	.uleb128 0x2
	.long	0xa57a
	.uleb128 0x1
	.long	0x26f3
	.uleb128 0x1
	.long	0xa589
	.uleb128 0x1
	.long	0xa584
	.byte	0
	.uleb128 0x15
	.long	.LASF6
	.byte	0x2
	.value	0x1e5
	.byte	0x17
	.long	0xa1cb
	.uleb128 0x7
	.long	0x272b
	.uleb128 0x10
	.long	.LASF156
	.byte	0x2
	.value	0x26d
	.byte	0x7
	.long	.LASF353
	.byte	0x1
	.long	0x2753
	.long	0x275e
	.uleb128 0x2
	.long	0xa57a
	.uleb128 0x1
	.long	0xa58e
	.byte	0
	.uleb128 0x51
	.long	.LASF156
	.value	0x280
	.long	.LASF354
	.long	0x2771
	.long	0x277c
	.uleb128 0x2
	.long	0xa57a
	.uleb128 0x1
	.long	0xa593
	.byte	0
	.uleb128 0x10
	.long	.LASF156
	.byte	0x2
	.value	0x284
	.byte	0x7
	.long	.LASF355
	.byte	0x1
	.long	0x2792
	.long	0x27a2
	.uleb128 0x2
	.long	0xa57a
	.uleb128 0x1
	.long	0xa58e
	.uleb128 0x1
	.long	0xa598
	.byte	0
	.uleb128 0x1c
	.long	.LASF156
	.value	0x28f
	.long	.LASF356
	.long	0x27b5
	.long	0x27ca
	.uleb128 0x2
	.long	0xa57a
	.uleb128 0x1
	.long	0xa593
	.uleb128 0x1
	.long	0xa584
	.uleb128 0x1
	.long	0x63c
	.byte	0
	.uleb128 0x1c
	.long	.LASF156
	.value	0x294
	.long	.LASF357
	.long	0x27dd
	.long	0x27f2
	.uleb128 0x2
	.long	0xa57a
	.uleb128 0x1
	.long	0xa593
	.uleb128 0x1
	.long	0xa584
	.uleb128 0x1
	.long	0x3ac
	.byte	0
	.uleb128 0x10
	.long	.LASF156
	.byte	0x2
	.value	0x2a7
	.byte	0x7
	.long	.LASF358
	.byte	0x1
	.long	0x2808
	.long	0x2818
	.uleb128 0x2
	.long	0xa57a
	.uleb128 0x1
	.long	0xa593
	.uleb128 0x1
	.long	0xa598
	.byte	0
	.uleb128 0x10
	.long	.LASF156
	.byte	0x2
	.value	0x2ba
	.byte	0x7
	.long	.LASF359
	.byte	0x1
	.long	0x282e
	.long	0x283e
	.uleb128 0x2
	.long	0xa57a
	.uleb128 0x1
	.long	0x316e
	.uleb128 0x1
	.long	0xa584
	.byte	0
	.uleb128 0x10
	.long	.LASF168
	.byte	0x2
	.value	0x316
	.byte	0x7
	.long	.LASF360
	.byte	0x1
	.long	0x2854
	.long	0x285a
	.uleb128 0x2
	.long	0xa57a
	.byte	0
	.uleb128 0x22
	.long	.LASF35
	.byte	0x7
	.byte	0xd6
	.byte	0x5
	.long	.LASF361
	.long	0xa59d
	.byte	0x1
	.long	0x2873
	.long	0x287e
	.uleb128 0x2
	.long	0xa57a
	.uleb128 0x1
	.long	0xa58e
	.byte	0
	.uleb128 0x6
	.long	.LASF35
	.byte	0x2
	.value	0x337
	.byte	0x7
	.long	.LASF362
	.long	0xa59d
	.byte	0x1
	.long	0x2898
	.long	0x28a3
	.uleb128 0x2
	.long	0xa57a
	.uleb128 0x1
	.long	0xa593
	.byte	0
	.uleb128 0x6
	.long	.LASF35
	.byte	0x2
	.value	0x34d
	.byte	0x7
	.long	.LASF363
	.long	0xa59d
	.byte	0x1
	.long	0x28bd
	.long	0x28c8
	.uleb128 0x2
	.long	0xa57a
	.uleb128 0x1
	.long	0x316e
	.byte	0
	.uleb128 0x10
	.long	.LASF173
	.byte	0x2
	.value	0x361
	.byte	0x7
	.long	.LASF364
	.byte	0x1
	.long	0x28de
	.long	0x28ee
	.uleb128 0x2
	.long	0xa57a
	.uleb128 0x1
	.long	0x26f3
	.uleb128 0x1
	.long	0xa589
	.byte	0
	.uleb128 0x10
	.long	.LASF173
	.byte	0x2
	.value	0x390
	.byte	0x7
	.long	.LASF365
	.byte	0x1
	.long	0x2904
	.long	0x290f
	.uleb128 0x2
	.long	0xa57a
	.uleb128 0x1
	.long	0x316e
	.byte	0
	.uleb128 0x15
	.long	.LASF176
	.byte	0x2
	.value	0x1ea
	.byte	0x3d
	.long	0x85d5
	.uleb128 0x6
	.long	.LASF177
	.byte	0x2
	.value	0x3dc
	.byte	0x7
	.long	.LASF366
	.long	0x290f
	.byte	0x1
	.long	0x2936
	.long	0x293c
	.uleb128 0x2
	.long	0xa57a
	.byte	0
	.uleb128 0x15
	.long	.LASF179
	.byte	0x2
	.value	0x1ec
	.byte	0x7
	.long	0x8808
	.uleb128 0x6
	.long	.LASF177
	.byte	0x2
	.value	0x3e6
	.byte	0x7
	.long	.LASF367
	.long	0x293c
	.byte	0x1
	.long	0x2963
	.long	0x2969
	.uleb128 0x2
	.long	0xa5a2
	.byte	0
	.uleb128 0x3a
	.string	"end"
	.value	0x3f0
	.long	.LASF368
	.long	0x290f
	.long	0x2980
	.long	0x2986
	.uleb128 0x2
	.long	0xa57a
	.byte	0
	.uleb128 0x3a
	.string	"end"
	.value	0x3fa
	.long	.LASF369
	.long	0x293c
	.long	0x299d
	.long	0x29a3
	.uleb128 0x2
	.long	0xa5a2
	.byte	0
	.uleb128 0x15
	.long	.LASF183
	.byte	0x2
	.value	0x1ee
	.byte	0x30
	.long	0x3173
	.uleb128 0x6
	.long	.LASF184
	.byte	0x2
	.value	0x404
	.byte	0x7
	.long	.LASF370
	.long	0x29a3
	.byte	0x1
	.long	0x29ca
	.long	0x29d0
	.uleb128 0x2
	.long	0xa57a
	.byte	0
	.uleb128 0x15
	.long	.LASF186
	.byte	0x2
	.value	0x1ed
	.byte	0x35
	.long	0x3178
	.uleb128 0x6
	.long	.LASF184
	.byte	0x2
	.value	0x40e
	.byte	0x7
	.long	.LASF371
	.long	0x29d0
	.byte	0x1
	.long	0x29f7
	.long	0x29fd
	.uleb128 0x2
	.long	0xa5a2
	.byte	0
	.uleb128 0x6
	.long	.LASF188
	.byte	0x2
	.value	0x418
	.byte	0x7
	.long	.LASF372
	.long	0x29a3
	.byte	0x1
	.long	0x2a17
	.long	0x2a1d
	.uleb128 0x2
	.long	0xa57a
	.byte	0
	.uleb128 0x6
	.long	.LASF188
	.byte	0x2
	.value	0x422
	.byte	0x7
	.long	.LASF373
	.long	0x29d0
	.byte	0x1
	.long	0x2a37
	.long	0x2a3d
	.uleb128 0x2
	.long	0xa5a2
	.byte	0
	.uleb128 0x6
	.long	.LASF191
	.byte	0x2
	.value	0x42d
	.byte	0x7
	.long	.LASF374
	.long	0x293c
	.byte	0x1
	.long	0x2a57
	.long	0x2a5d
	.uleb128 0x2
	.long	0xa5a2
	.byte	0
	.uleb128 0x6
	.long	.LASF193
	.byte	0x2
	.value	0x437
	.byte	0x7
	.long	.LASF375
	.long	0x293c
	.byte	0x1
	.long	0x2a77
	.long	0x2a7d
	.uleb128 0x2
	.long	0xa5a2
	.byte	0
	.uleb128 0x6
	.long	.LASF195
	.byte	0x2
	.value	0x441
	.byte	0x7
	.long	.LASF376
	.long	0x29d0
	.byte	0x1
	.long	0x2a97
	.long	0x2a9d
	.uleb128 0x2
	.long	0xa5a2
	.byte	0
	.uleb128 0x6
	.long	.LASF197
	.byte	0x2
	.value	0x44b
	.byte	0x7
	.long	.LASF377
	.long	0x29d0
	.byte	0x1
	.long	0x2ab7
	.long	0x2abd
	.uleb128 0x2
	.long	0xa5a2
	.byte	0
	.uleb128 0x6
	.long	.LASF199
	.byte	0x2
	.value	0x453
	.byte	0x7
	.long	.LASF378
	.long	0x26f3
	.byte	0x1
	.long	0x2ad7
	.long	0x2add
	.uleb128 0x2
	.long	0xa5a2
	.byte	0
	.uleb128 0x6
	.long	.LASF84
	.byte	0x2
	.value	0x45e
	.byte	0x7
	.long	.LASF379
	.long	0x26f3
	.byte	0x1
	.long	0x2af7
	.long	0x2afd
	.uleb128 0x2
	.long	0xa5a2
	.byte	0
	.uleb128 0x10
	.long	.LASF202
	.byte	0x2
	.value	0x46d
	.byte	0x7
	.long	.LASF380
	.byte	0x1
	.long	0x2b13
	.long	0x2b1e
	.uleb128 0x2
	.long	0xa57a
	.uleb128 0x1
	.long	0x26f3
	.byte	0
	.uleb128 0x10
	.long	.LASF202
	.byte	0x2
	.value	0x482
	.byte	0x7
	.long	.LASF381
	.byte	0x1
	.long	0x2b34
	.long	0x2b44
	.uleb128 0x2
	.long	0xa57a
	.uleb128 0x1
	.long	0x26f3
	.uleb128 0x1
	.long	0xa589
	.byte	0
	.uleb128 0x10
	.long	.LASF205
	.byte	0x2
	.value	0x4a4
	.byte	0x7
	.long	.LASF382
	.byte	0x1
	.long	0x2b5a
	.long	0x2b60
	.uleb128 0x2
	.long	0xa57a
	.byte	0
	.uleb128 0x6
	.long	.LASF207
	.byte	0x2
	.value	0x4ae
	.byte	0x7
	.long	.LASF383
	.long	0x26f3
	.byte	0x1
	.long	0x2b7a
	.long	0x2b80
	.uleb128 0x2
	.long	0xa5a2
	.byte	0
	.uleb128 0x6
	.long	.LASF209
	.byte	0x2
	.value	0x4bd
	.byte	0x7
	.long	.LASF384
	.long	0x92bf
	.byte	0x1
	.long	0x2b9a
	.long	0x2ba0
	.uleb128 0x2
	.long	0xa5a2
	.byte	0
	.uleb128 0x24
	.long	.LASF211
	.byte	0x7
	.byte	0x46
	.byte	0x5
	.long	.LASF385
	.byte	0x1
	.long	0x2bb5
	.long	0x2bc0
	.uleb128 0x2
	.long	0xa57a
	.uleb128 0x1
	.long	0x26f3
	.byte	0
	.uleb128 0x15
	.long	.LASF75
	.byte	0x2
	.value	0x1e8
	.byte	0x32
	.long	0x8590
	.uleb128 0x6
	.long	.LASF213
	.byte	0x2
	.value	0x4e3
	.byte	0x7
	.long	.LASF386
	.long	0x2bc0
	.byte	0x1
	.long	0x2be7
	.long	0x2bf2
	.uleb128 0x2
	.long	0xa57a
	.uleb128 0x1
	.long	0x26f3
	.byte	0
	.uleb128 0x15
	.long	.LASF78
	.byte	0x2
	.value	0x1e9
	.byte	0x37
	.long	0x859c
	.uleb128 0x6
	.long	.LASF213
	.byte	0x2
	.value	0x4f6
	.byte	0x7
	.long	.LASF387
	.long	0x2bf2
	.byte	0x1
	.long	0x2c19
	.long	0x2c24
	.uleb128 0x2
	.long	0xa5a2
	.uleb128 0x1
	.long	0x26f3
	.byte	0
	.uleb128 0x10
	.long	.LASF216
	.byte	0x2
	.value	0x500
	.byte	0x7
	.long	.LASF388
	.byte	0x2
	.long	0x2c3a
	.long	0x2c45
	.uleb128 0x2
	.long	0xa5a2
	.uleb128 0x1
	.long	0x26f3
	.byte	0
	.uleb128 0x3a
	.string	"at"
	.value	0x517
	.long	.LASF389
	.long	0x2bc0
	.long	0x2c5b
	.long	0x2c66
	.uleb128 0x2
	.long	0xa57a
	.uleb128 0x1
	.long	0x26f3
	.byte	0
	.uleb128 0x3a
	.string	"at"
	.value	0x52a
	.long	.LASF390
	.long	0x2bf2
	.long	0x2c7c
	.long	0x2c87
	.uleb128 0x2
	.long	0xa5a2
	.uleb128 0x1
	.long	0x26f3
	.byte	0
	.uleb128 0x6
	.long	.LASF220
	.byte	0x2
	.value	0x536
	.byte	0x7
	.long	.LASF391
	.long	0x2bc0
	.byte	0x1
	.long	0x2ca1
	.long	0x2ca7
	.uleb128 0x2
	.long	0xa57a
	.byte	0
	.uleb128 0x6
	.long	.LASF220
	.byte	0x2
	.value	0x542
	.byte	0x7
	.long	.LASF392
	.long	0x2bf2
	.byte	0x1
	.long	0x2cc1
	.long	0x2cc7
	.uleb128 0x2
	.long	0xa5a2
	.byte	0
	.uleb128 0x6
	.long	.LASF223
	.byte	0x2
	.value	0x54e
	.byte	0x7
	.long	.LASF393
	.long	0x2bc0
	.byte	0x1
	.long	0x2ce1
	.long	0x2ce7
	.uleb128 0x2
	.long	0xa57a
	.byte	0
	.uleb128 0x6
	.long	.LASF223
	.byte	0x2
	.value	0x55a
	.byte	0x7
	.long	.LASF394
	.long	0x2bf2
	.byte	0x1
	.long	0x2d01
	.long	0x2d07
	.uleb128 0x2
	.long	0xa5a2
	.byte	0
	.uleb128 0x6
	.long	.LASF226
	.byte	0x2
	.value	0x569
	.byte	0x7
	.long	.LASF395
	.long	0xa4ee
	.byte	0x1
	.long	0x2d21
	.long	0x2d27
	.uleb128 0x2
	.long	0xa57a
	.byte	0
	.uleb128 0x6
	.long	.LASF226
	.byte	0x2
	.value	0x56e
	.byte	0x7
	.long	.LASF396
	.long	0xa502
	.byte	0x1
	.long	0x2d41
	.long	0x2d47
	.uleb128 0x2
	.long	0xa5a2
	.byte	0
	.uleb128 0x10
	.long	.LASF229
	.byte	0x2
	.value	0x57e
	.byte	0x7
	.long	.LASF397
	.byte	0x1
	.long	0x2d5d
	.long	0x2d68
	.uleb128 0x2
	.long	0xa57a
	.uleb128 0x1
	.long	0xa589
	.byte	0
	.uleb128 0x10
	.long	.LASF229
	.byte	0x2
	.value	0x58f
	.byte	0x7
	.long	.LASF398
	.byte	0x1
	.long	0x2d7e
	.long	0x2d89
	.uleb128 0x2
	.long	0xa57a
	.uleb128 0x1
	.long	0xa5ac
	.byte	0
	.uleb128 0x10
	.long	.LASF232
	.byte	0x2
	.value	0x5a7
	.byte	0x7
	.long	.LASF399
	.byte	0x1
	.long	0x2d9f
	.long	0x2da5
	.uleb128 0x2
	.long	0xa57a
	.byte	0
	.uleb128 0x22
	.long	.LASF234
	.byte	0x7
	.byte	0x89
	.byte	0x5
	.long	.LASF400
	.long	0x290f
	.byte	0x1
	.long	0x2dbe
	.long	0x2dce
	.uleb128 0x2
	.long	0xa57a
	.uleb128 0x1
	.long	0x293c
	.uleb128 0x1
	.long	0xa589
	.byte	0
	.uleb128 0x6
	.long	.LASF234
	.byte	0x2
	.value	0x5ee
	.byte	0x7
	.long	.LASF401
	.long	0x290f
	.byte	0x1
	.long	0x2de8
	.long	0x2df8
	.uleb128 0x2
	.long	0xa57a
	.uleb128 0x1
	.long	0x293c
	.uleb128 0x1
	.long	0xa5ac
	.byte	0
	.uleb128 0x6
	.long	.LASF234
	.byte	0x2
	.value	0x600
	.byte	0x7
	.long	.LASF402
	.long	0x290f
	.byte	0x1
	.long	0x2e12
	.long	0x2e22
	.uleb128 0x2
	.long	0xa57a
	.uleb128 0x1
	.long	0x293c
	.uleb128 0x1
	.long	0x316e
	.byte	0
	.uleb128 0x6
	.long	.LASF234
	.byte	0x2
	.value	0x61a
	.byte	0x7
	.long	.LASF403
	.long	0x290f
	.byte	0x1
	.long	0x2e3c
	.long	0x2e51
	.uleb128 0x2
	.long	0xa57a
	.uleb128 0x1
	.long	0x293c
	.uleb128 0x1
	.long	0x26f3
	.uleb128 0x1
	.long	0xa589
	.byte	0
	.uleb128 0x6
	.long	.LASF239
	.byte	0x2
	.value	0x6f6
	.byte	0x7
	.long	.LASF404
	.long	0x290f
	.byte	0x1
	.long	0x2e6b
	.long	0x2e76
	.uleb128 0x2
	.long	0xa57a
	.uleb128 0x1
	.long	0x293c
	.byte	0
	.uleb128 0x6
	.long	.LASF239
	.byte	0x2
	.value	0x712
	.byte	0x7
	.long	.LASF405
	.long	0x290f
	.byte	0x1
	.long	0x2e90
	.long	0x2ea0
	.uleb128 0x2
	.long	0xa57a
	.uleb128 0x1
	.long	0x293c
	.uleb128 0x1
	.long	0x293c
	.byte	0
	.uleb128 0x10
	.long	.LASF40
	.byte	0x2
	.value	0x72a
	.byte	0x7
	.long	.LASF406
	.byte	0x1
	.long	0x2eb6
	.long	0x2ec1
	.uleb128 0x2
	.long	0xa57a
	.uleb128 0x1
	.long	0xa59d
	.byte	0
	.uleb128 0x10
	.long	.LASF243
	.byte	0x2
	.value	0x73d
	.byte	0x7
	.long	.LASF407
	.byte	0x1
	.long	0x2ed7
	.long	0x2edd
	.uleb128 0x2
	.long	0xa57a
	.byte	0
	.uleb128 0x10
	.long	.LASF245
	.byte	0x2
	.value	0x7c3
	.byte	0x7
	.long	.LASF408
	.byte	0x2
	.long	0x2ef3
	.long	0x2f03
	.uleb128 0x2
	.long	0xa57a
	.uleb128 0x1
	.long	0x26f3
	.uleb128 0x1
	.long	0xa589
	.byte	0
	.uleb128 0x10
	.long	.LASF247
	.byte	0x2
	.value	0x7ce
	.byte	0x7
	.long	.LASF409
	.byte	0x2
	.long	0x2f19
	.long	0x2f24
	.uleb128 0x2
	.long	0xa57a
	.uleb128 0x1
	.long	0x26f3
	.byte	0
	.uleb128 0x10
	.long	.LASF249
	.byte	0x7
	.value	0x112
	.byte	0x5
	.long	.LASF410
	.byte	0x2
	.long	0x2f3a
	.long	0x2f4a
	.uleb128 0x2
	.long	0xa57a
	.uleb128 0x1
	.long	0x2bc
	.uleb128 0x1
	.long	0xa589
	.byte	0
	.uleb128 0x10
	.long	.LASF251
	.byte	0x7
	.value	0x296
	.byte	0x5
	.long	.LASF411
	.byte	0x2
	.long	0x2f60
	.long	0x2f75
	.uleb128 0x2
	.long	0xa57a
	.uleb128 0x1
	.long	0x290f
	.uleb128 0x1
	.long	0x26f3
	.uleb128 0x1
	.long	0xa589
	.byte	0
	.uleb128 0x10
	.long	.LASF253
	.byte	0x7
	.value	0x300
	.byte	0x5
	.long	.LASF412
	.byte	0x2
	.long	0x2f8b
	.long	0x2f9b
	.uleb128 0x2
	.long	0xa57a
	.uleb128 0x1
	.long	0x26f3
	.uleb128 0x1
	.long	0xa589
	.byte	0
	.uleb128 0x10
	.long	.LASF255
	.byte	0x7
	.value	0x339
	.byte	0x5
	.long	.LASF413
	.byte	0x2
	.long	0x2fb1
	.long	0x2fbc
	.uleb128 0x2
	.long	0xa57a
	.uleb128 0x1
	.long	0x26f3
	.byte	0
	.uleb128 0x6
	.long	.LASF257
	.byte	0x7
	.value	0x396
	.byte	0x5
	.long	.LASF414
	.long	0x92bf
	.byte	0x2
	.long	0x2fd6
	.long	0x2fdc
	.uleb128 0x2
	.long	0xa57a
	.byte	0
	.uleb128 0x6
	.long	.LASF259
	.byte	0x7
	.value	0x16f
	.byte	0x5
	.long	.LASF415
	.long	0x290f
	.byte	0x2
	.long	0x2ff6
	.long	0x3006
	.uleb128 0x2
	.long	0xa57a
	.uleb128 0x1
	.long	0x293c
	.uleb128 0x1
	.long	0xa5ac
	.byte	0
	.uleb128 0x6
	.long	.LASF261
	.byte	0x2
	.value	0x889
	.byte	0x7
	.long	.LASF416
	.long	0x290f
	.byte	0x2
	.long	0x3020
	.long	0x3030
	.uleb128 0x2
	.long	0xa57a
	.uleb128 0x1
	.long	0x293c
	.uleb128 0x1
	.long	0xa5ac
	.byte	0
	.uleb128 0x6
	.long	.LASF263
	.byte	0x2
	.value	0x890
	.byte	0x7
	.long	.LASF417
	.long	0x26f3
	.byte	0x2
	.long	0x304a
	.long	0x305a
	.uleb128 0x2
	.long	0xa5a2
	.uleb128 0x1
	.long	0x26f3
	.uleb128 0x1
	.long	0x788b
	.byte	0
	.uleb128 0x52
	.long	.LASF265
	.value	0x89b
	.long	.LASF418
	.long	0x26f3
	.long	0x3078
	.uleb128 0x1
	.long	0x26f3
	.uleb128 0x1
	.long	0xa584
	.byte	0
	.uleb128 0x52
	.long	.LASF267
	.value	0x8a4
	.long	.LASF419
	.long	0x26f3
	.long	0x3091
	.uleb128 0x1
	.long	0xa5b1
	.byte	0
	.uleb128 0x10
	.long	.LASF269
	.byte	0x2
	.value	0x8b5
	.byte	0x7
	.long	.LASF420
	.byte	0x2
	.long	0x30a7
	.long	0x30b2
	.uleb128 0x2
	.long	0xa57a
	.uleb128 0x1
	.long	0x263c
	.byte	0
	.uleb128 0x22
	.long	.LASF271
	.byte	0x7
	.byte	0xb9
	.byte	0x5
	.long	.LASF421
	.long	0x290f
	.byte	0x2
	.long	0x30cb
	.long	0x30d6
	.uleb128 0x2
	.long	0xa57a
	.uleb128 0x1
	.long	0x290f
	.byte	0
	.uleb128 0x22
	.long	.LASF271
	.byte	0x7
	.byte	0xc7
	.byte	0x5
	.long	.LASF422
	.long	0x290f
	.byte	0x2
	.long	0x30ef
	.long	0x30ff
	.uleb128 0x2
	.long	0xa57a
	.uleb128 0x1
	.long	0x290f
	.uleb128 0x1
	.long	0x290f
	.byte	0
	.uleb128 0x1c
	.long	.LASF274
	.value	0x8cf
	.long	.LASF423
	.long	0x3112
	.long	0x3122
	.uleb128 0x2
	.long	0xa57a
	.uleb128 0x1
	.long	0xa593
	.uleb128 0x1
	.long	0x63c
	.byte	0
	.uleb128 0x1c
	.long	.LASF274
	.value	0x8db
	.long	.LASF424
	.long	0x3135
	.long	0x3145
	.uleb128 0x2
	.long	0xa57a
	.uleb128 0x1
	.long	0xa593
	.uleb128 0x1
	.long	0x3ac
	.byte	0
	.uleb128 0xf
	.string	"_Tp"
	.long	0xa1cb
	.uleb128 0x64
	.long	.LASF146
	.long	0x2079
	.byte	0
	.uleb128 0x7
	.long	0x25b0
	.uleb128 0x8
	.long	.LASF279
	.byte	0x13
	.byte	0xad
	.byte	0xb
	.long	0x259a
	.uleb128 0x7
	.long	0x315d
	.uleb128 0x35
	.long	.LASF425
	.uleb128 0x35
	.long	.LASF426
	.uleb128 0x35
	.long	.LASF427
	.uleb128 0x3e
	.long	.LASF428
	.byte	0x1
	.byte	0x6
	.byte	0x3f
	.long	0x3329
	.uleb128 0x53
	.long	.LASF64
	.byte	0x6
	.byte	0x58
	.byte	0x7
	.long	0x3199
	.long	0x319f
	.uleb128 0x2
	.long	0xa5b6
	.byte	0
	.uleb128 0x53
	.long	.LASF64
	.byte	0x6
	.byte	0x5c
	.byte	0x7
	.long	0x31af
	.long	0x31ba
	.uleb128 0x2
	.long	0xa5b6
	.uleb128 0x1
	.long	0xa5c0
	.byte	0
	.uleb128 0x89
	.long	.LASF35
	.byte	0x6
	.byte	0x64
	.byte	0x18
	.long	0xa5c5
	.long	0x31cf
	.long	0x31da
	.uleb128 0x2
	.long	0xa5b6
	.uleb128 0x1
	.long	0xa5c0
	.byte	0
	.uleb128 0x53
	.long	.LASF70
	.byte	0x6
	.byte	0x68
	.byte	0x7
	.long	0x31ea
	.long	0x31f0
	.uleb128 0x2
	.long	0xa5b6
	.byte	0
	.uleb128 0x28
	.long	.LASF74
	.byte	0x6
	.byte	0x46
	.byte	0x1a
	.long	0xa5ca
	.uleb128 0x54
	.long	.LASF72
	.byte	0x6
	.byte	0x6b
	.byte	0x7
	.long	0x31f0
	.byte	0x1
	.long	0x3211
	.long	0x321c
	.uleb128 0x2
	.long	0xa5d4
	.uleb128 0x1
	.long	0x321c
	.byte	0
	.uleb128 0x28
	.long	.LASF75
	.byte	0x6
	.byte	0x48
	.byte	0x1a
	.long	0xa5de
	.uleb128 0x28
	.long	.LASF76
	.byte	0x6
	.byte	0x47
	.byte	0x1a
	.long	0xa5e3
	.uleb128 0x54
	.long	.LASF72
	.byte	0x6
	.byte	0x6f
	.byte	0x7
	.long	0x3228
	.byte	0x1
	.long	0x3249
	.long	0x3254
	.uleb128 0x2
	.long	0xa5d4
	.uleb128 0x1
	.long	0x3254
	.byte	0
	.uleb128 0x28
	.long	.LASF78
	.byte	0x6
	.byte	0x49
	.byte	0x1a
	.long	0xa5e8
	.uleb128 0x54
	.long	.LASF79
	.byte	0x6
	.byte	0x81
	.byte	0x7
	.long	0xa5ca
	.byte	0x1
	.long	0x3275
	.long	0x3285
	.uleb128 0x2
	.long	0xa5b6
	.uleb128 0x1
	.long	0x3285
	.uleb128 0x1
	.long	0x9315
	.byte	0
	.uleb128 0x28
	.long	.LASF81
	.byte	0x6
	.byte	0x43
	.byte	0x1f
	.long	0x2bc
	.uleb128 0x53
	.long	.LASF82
	.byte	0x6
	.byte	0xa7
	.byte	0x7
	.long	0x32a1
	.long	0x32b1
	.uleb128 0x2
	.long	0xa5b6
	.uleb128 0x1
	.long	0xa5ca
	.uleb128 0x1
	.long	0x3285
	.byte	0
	.uleb128 0x54
	.long	.LASF84
	.byte	0x6
	.byte	0xc2
	.byte	0x7
	.long	0x3285
	.byte	0x1
	.long	0x32c6
	.long	0x32cc
	.uleb128 0x2
	.long	0xa5d4
	.byte	0
	.uleb128 0xac
	.long	.LASF86
	.byte	0x6
	.byte	0xf2
	.byte	0x7
	.long	0x3285
	.long	0x32e1
	.long	0x32e7
	.uleb128 0x2
	.long	0xa5d4
	.byte	0
	.uleb128 0x53
	.long	.LASF429
	.byte	0x6
	.byte	0xc9
	.byte	0x2
	.long	0x330f
	.long	0x331f
	.uleb128 0xf
	.string	"_Up"
	.long	0xa446
	.uleb128 0x55
	.long	.LASF432
	.long	0x330f
	.uleb128 0x56
	.long	0xa5e8
	.byte	0
	.uleb128 0x2
	.long	0xa5b6
	.uleb128 0x1
	.long	0xa5ca
	.uleb128 0x1
	.long	0xa5e8
	.byte	0
	.uleb128 0xf
	.string	"_Tp"
	.long	0xa446
	.byte	0
	.uleb128 0x7
	.long	0x317d
	.uleb128 0x3e
	.long	.LASF430
	.byte	0x1
	.byte	0x5
	.byte	0x85
	.long	0x33a6
	.uleb128 0x48
	.long	0x317d
	.byte	0x1
	.uleb128 0x53
	.long	.LASF89
	.byte	0x5
	.byte	0xa8
	.byte	0x7
	.long	0x3350
	.long	0x3356
	.uleb128 0x2
	.long	0xa5ed
	.byte	0
	.uleb128 0x53
	.long	.LASF89
	.byte	0x5
	.byte	0xac
	.byte	0x7
	.long	0x3366
	.long	0x3371
	.uleb128 0x2
	.long	0xa5ed
	.uleb128 0x1
	.long	0xa5f7
	.byte	0
	.uleb128 0x89
	.long	.LASF35
	.byte	0x5
	.byte	0xb1
	.byte	0x12
	.long	0xa5fc
	.long	0x3386
	.long	0x3391
	.uleb128 0x2
	.long	0xa5ed
	.uleb128 0x1
	.long	0xa5f7
	.byte	0
	.uleb128 0xad
	.long	.LASF93
	.byte	0x5
	.byte	0xbd
	.byte	0x7
	.byte	0x1
	.long	0x339f
	.uleb128 0x2
	.long	0xa5ed
	.byte	0
	.byte	0
	.uleb128 0x7
	.long	0x332e
	.uleb128 0x58
	.long	.LASF431
	.byte	0x1
	.byte	0x8
	.value	0x248
	.byte	0xc
	.long	0x34c7
	.uleb128 0x1e
	.long	.LASF74
	.byte	0x8
	.value	0x251
	.byte	0xd
	.long	0xa5ca
	.uleb128 0x46
	.long	.LASF79
	.byte	0x8
	.value	0x27d
	.byte	0x7
	.long	0x33b9
	.long	0x33e2
	.uleb128 0x1
	.long	0xa601
	.uleb128 0x1
	.long	0x33f4
	.byte	0
	.uleb128 0x1e
	.long	.LASF98
	.byte	0x8
	.value	0x24b
	.byte	0xd
	.long	0x332e
	.uleb128 0x7
	.long	0x33e2
	.uleb128 0x1e
	.long	.LASF81
	.byte	0x8
	.value	0x260
	.byte	0xd
	.long	0x2bc
	.uleb128 0x46
	.long	.LASF79
	.byte	0x8
	.value	0x28c
	.byte	0x7
	.long	0x33b9
	.long	0x3422
	.uleb128 0x1
	.long	0xa601
	.uleb128 0x1
	.long	0x33f4
	.uleb128 0x1
	.long	0x3422
	.byte	0
	.uleb128 0x1e
	.long	.LASF100
	.byte	0x8
	.value	0x25a
	.byte	0xd
	.long	0x9315
	.uleb128 0x8a
	.long	.LASF82
	.value	0x2b0
	.byte	0x7
	.long	0x344c
	.uleb128 0x1
	.long	0xa601
	.uleb128 0x1
	.long	0x33b9
	.uleb128 0x1
	.long	0x33f4
	.byte	0
	.uleb128 0x46
	.long	.LASF84
	.byte	0x8
	.value	0x2ed
	.byte	0x7
	.long	0x33f4
	.long	0x3463
	.uleb128 0x1
	.long	0xa606
	.byte	0
	.uleb128 0x46
	.long	.LASF102
	.byte	0x8
	.value	0x2fd
	.byte	0x7
	.long	0x33e2
	.long	0x347a
	.uleb128 0x1
	.long	0xa606
	.byte	0
	.uleb128 0x1e
	.long	.LASF6
	.byte	0x8
	.value	0x24e
	.byte	0xd
	.long	0xa446
	.uleb128 0x1e
	.long	.LASF104
	.byte	0x8
	.value	0x26f
	.byte	0x8
	.long	0x332e
	.uleb128 0xae
	.long	.LASF429
	.byte	0x8
	.value	0x2c1
	.byte	0x2
	.uleb128 0xf
	.string	"_Up"
	.long	0xa446
	.uleb128 0x55
	.long	.LASF432
	.long	0x34b6
	.uleb128 0x56
	.long	0xa5e8
	.byte	0
	.uleb128 0x1
	.long	0xa601
	.uleb128 0x1
	.long	0xa5ca
	.uleb128 0x1
	.long	0xa5e8
	.byte	0
	.byte	0
	.uleb128 0x19
	.long	.LASF433
	.byte	0x18
	.byte	0x2
	.byte	0x5b
	.byte	0xc
	.long	0x3802
	.uleb128 0x19
	.long	.LASF106
	.byte	0x18
	.byte	0x2
	.byte	0x62
	.byte	0xe
	.long	0x3567
	.uleb128 0x11
	.long	.LASF108
	.byte	0x2
	.byte	0x64
	.byte	0xa
	.long	0x356c
	.byte	0
	.uleb128 0x11
	.long	.LASF109
	.byte	0x2
	.byte	0x65
	.byte	0xa
	.long	0x356c
	.byte	0x8
	.uleb128 0x11
	.long	.LASF110
	.byte	0x2
	.byte	0x66
	.byte	0xa
	.long	0x356c
	.byte	0x10
	.uleb128 0x57
	.long	.LASF106
	.byte	0x69
	.long	0x3516
	.long	0x351c
	.uleb128 0x2
	.long	0xa615
	.byte	0
	.uleb128 0x57
	.long	.LASF106
	.byte	0x6f
	.long	0x352a
	.long	0x3535
	.uleb128 0x2
	.long	0xa615
	.uleb128 0x1
	.long	0xa61f
	.byte	0
	.uleb128 0x57
	.long	.LASF113
	.byte	0x77
	.long	0x3543
	.long	0x354e
	.uleb128 0x2
	.long	0xa615
	.uleb128 0x1
	.long	0xa624
	.byte	0
	.uleb128 0xaf
	.long	.LASF115
	.byte	0x2
	.byte	0x80
	.byte	0x2
	.long	0x355b
	.uleb128 0x2
	.long	0xa615
	.uleb128 0x1
	.long	0xa629
	.byte	0
	.byte	0
	.uleb128 0x7
	.long	0x34d4
	.uleb128 0x8
	.long	.LASF74
	.byte	0x2
	.byte	0x60
	.byte	0x9
	.long	0x8adf
	.uleb128 0x19
	.long	.LASF116
	.byte	0x18
	.byte	0x2
	.byte	0x8b
	.byte	0xe
	.long	0x361d
	.uleb128 0x37
	.long	0x332e
	.uleb128 0x37
	.long	0x34d4
	.uleb128 0x57
	.long	.LASF116
	.byte	0x8f
	.long	0x359d
	.long	0x35a3
	.uleb128 0x2
	.long	0xa62e
	.byte	0
	.uleb128 0x57
	.long	.LASF116
	.byte	0x98
	.long	0x35b1
	.long	0x35bc
	.uleb128 0x2
	.long	0xa62e
	.uleb128 0x1
	.long	0xa638
	.byte	0
	.uleb128 0x57
	.long	.LASF116
	.byte	0xa0
	.long	0x35ca
	.long	0x35d5
	.uleb128 0x2
	.long	0xa62e
	.uleb128 0x1
	.long	0xa63d
	.byte	0
	.uleb128 0x57
	.long	.LASF116
	.byte	0xa5
	.long	0x35e3
	.long	0x35ee
	.uleb128 0x2
	.long	0xa62e
	.uleb128 0x1
	.long	0xa642
	.byte	0
	.uleb128 0x57
	.long	.LASF116
	.byte	0xaa
	.long	0x35fc
	.long	0x360c
	.uleb128 0x2
	.long	0xa62e
	.uleb128 0x1
	.long	0xa642
	.uleb128 0x1
	.long	0xa63d
	.byte	0
	.uleb128 0xb0
	.long	.LASF481
	.long	0x3616
	.uleb128 0x2
	.long	0xa62e
	.byte	0
	.byte	0
	.uleb128 0x8
	.long	.LASF122
	.byte	0x2
	.byte	0x5e
	.byte	0x15
	.long	0x8b10
	.uleb128 0x7
	.long	0x361d
	.uleb128 0x65
	.long	.LASF123
	.value	0x133
	.byte	0x7
	.long	0xa647
	.long	0x3642
	.long	0x3648
	.uleb128 0x2
	.long	0xa64c
	.byte	0
	.uleb128 0x65
	.long	.LASF123
	.value	0x138
	.byte	0x7
	.long	0xa638
	.long	0x365c
	.long	0x3662
	.uleb128 0x2
	.long	0xa656
	.byte	0
	.uleb128 0x1e
	.long	.LASF98
	.byte	0x2
	.value	0x12f
	.byte	0x16
	.long	0x332e
	.uleb128 0x7
	.long	0x3662
	.uleb128 0x65
	.long	.LASF126
	.value	0x13d
	.byte	0x7
	.long	0x3662
	.long	0x3688
	.long	0x368e
	.uleb128 0x2
	.long	0xa656
	.byte	0
	.uleb128 0x8b
	.long	.LASF128
	.value	0x141
	.long	0x369e
	.long	0x36a4
	.uleb128 0x2
	.long	0xa64c
	.byte	0
	.uleb128 0x3c
	.long	.LASF128
	.value	0x147
	.byte	0x7
	.long	0x36b4
	.long	0x36bf
	.uleb128 0x2
	.long	0xa64c
	.uleb128 0x1
	.long	0xa660
	.byte	0
	.uleb128 0x3c
	.long	.LASF128
	.value	0x14d
	.byte	0x7
	.long	0x36cf
	.long	0x36da
	.uleb128 0x2
	.long	0xa64c
	.uleb128 0x1
	.long	0x2bc
	.byte	0
	.uleb128 0x3c
	.long	.LASF128
	.value	0x153
	.byte	0x7
	.long	0x36ea
	.long	0x36fa
	.uleb128 0x2
	.long	0xa64c
	.uleb128 0x1
	.long	0x2bc
	.uleb128 0x1
	.long	0xa660
	.byte	0
	.uleb128 0x8b
	.long	.LASF128
	.value	0x158
	.long	0x370a
	.long	0x3715
	.uleb128 0x2
	.long	0xa64c
	.uleb128 0x1
	.long	0xa665
	.byte	0
	.uleb128 0x3c
	.long	.LASF128
	.value	0x15d
	.byte	0x7
	.long	0x3725
	.long	0x3730
	.uleb128 0x2
	.long	0xa64c
	.uleb128 0x1
	.long	0xa642
	.byte	0
	.uleb128 0x3c
	.long	.LASF128
	.value	0x161
	.byte	0x7
	.long	0x3740
	.long	0x3750
	.uleb128 0x2
	.long	0xa64c
	.uleb128 0x1
	.long	0xa665
	.uleb128 0x1
	.long	0xa660
	.byte	0
	.uleb128 0x3c
	.long	.LASF128
	.value	0x16f
	.byte	0x7
	.long	0x3760
	.long	0x3770
	.uleb128 0x2
	.long	0xa64c
	.uleb128 0x1
	.long	0xa660
	.uleb128 0x1
	.long	0xa665
	.byte	0
	.uleb128 0x3c
	.long	.LASF137
	.value	0x175
	.byte	0x7
	.long	0x3780
	.long	0x3786
	.uleb128 0x2
	.long	0xa64c
	.byte	0
	.uleb128 0x50
	.long	.LASF139
	.value	0x17e
	.byte	0x14
	.long	0x3578
	.byte	0
	.uleb128 0x65
	.long	.LASF140
	.value	0x182
	.byte	0x7
	.long	0x356c
	.long	0x37a7
	.long	0x37b2
	.uleb128 0x2
	.long	0xa64c
	.uleb128 0x1
	.long	0x2bc
	.byte	0
	.uleb128 0x3c
	.long	.LASF142
	.value	0x18a
	.byte	0x7
	.long	0x37c2
	.long	0x37d2
	.uleb128 0x2
	.long	0xa64c
	.uleb128 0x1
	.long	0x356c
	.uleb128 0x1
	.long	0x2bc
	.byte	0
	.uleb128 0x2e
	.long	.LASF144
	.byte	0x2
	.value	0x195
	.byte	0x7
	.byte	0x2
	.long	0x37e4
	.long	0x37ef
	.uleb128 0x2
	.long	0xa64c
	.uleb128 0x1
	.long	0x2bc
	.byte	0
	.uleb128 0xf
	.string	"_Tp"
	.long	0xa446
	.uleb128 0xa
	.long	.LASF146
	.long	0x332e
	.byte	0
	.uleb128 0x7
	.long	0x34c7
	.uleb128 0x19
	.long	.LASF434
	.byte	0x1
	.byte	0x13
	.byte	0xa9
	.byte	0xc
	.long	0x382a
	.uleb128 0x8
	.long	.LASF148
	.byte	0x13
	.byte	0xaa
	.byte	0xd
	.long	0x332e
	.uleb128 0xa
	.long	.LASF149
	.long	0x332e
	.byte	0
	.uleb128 0x49
	.long	.LASF435
	.byte	0x18
	.byte	0x2
	.value	0x1cc
	.long	0x4386
	.uleb128 0x18
	.byte	0x2
	.value	0x1cc
	.byte	0xb
	.long	0x3793
	.uleb128 0x18
	.byte	0x2
	.value	0x1cc
	.byte	0xb
	.long	0x37b2
	.uleb128 0x18
	.byte	0x2
	.value	0x1cc
	.byte	0xb
	.long	0x3786
	.uleb128 0x18
	.byte	0x2
	.value	0x1cc
	.byte	0xb
	.long	0x3648
	.uleb128 0x18
	.byte	0x2
	.value	0x1cc
	.byte	0xb
	.long	0x362e
	.uleb128 0x18
	.byte	0x2
	.value	0x1cc
	.byte	0xb
	.long	0x3674
	.uleb128 0x48
	.long	0x34c7
	.byte	0x2
	.uleb128 0x46
	.long	.LASF151
	.byte	0x2
	.value	0x1f6
	.byte	0x7
	.long	0x92bf
	.long	0x388a
	.uleb128 0x1
	.long	0x63c
	.byte	0
	.uleb128 0x46
	.long	.LASF151
	.byte	0x2
	.value	0x1ff
	.byte	0x7
	.long	0x92bf
	.long	0x38a1
	.uleb128 0x1
	.long	0x3ac
	.byte	0
	.uleb128 0xb1
	.long	.LASF345
	.byte	0x2
	.value	0x203
	.byte	0x7
	.long	0x92bf
	.uleb128 0x15
	.long	.LASF74
	.byte	0x2
	.value	0x1e6
	.byte	0x29
	.long	0x356c
	.uleb128 0x46
	.long	.LASF154
	.byte	0x2
	.value	0x20c
	.byte	0x7
	.long	0x38af
	.long	0x38e2
	.uleb128 0x1
	.long	0x38af
	.uleb128 0x1
	.long	0x38af
	.uleb128 0x1
	.long	0x38af
	.uleb128 0x1
	.long	0xa66a
	.byte	0
	.uleb128 0x1e
	.long	.LASF122
	.byte	0x2
	.value	0x1e1
	.byte	0x2f
	.long	0x361d
	.uleb128 0x7
	.long	0x38e2
	.uleb128 0x8c
	.long	.LASF156
	.value	0x227
	.long	0x3904
	.long	0x390a
	.uleb128 0x2
	.long	0xa66f
	.byte	0
	.uleb128 0x7a
	.long	.LASF156
	.byte	0x2
	.value	0x232
	.long	0x391a
	.long	0x3925
	.uleb128 0x2
	.long	0xa66f
	.uleb128 0x1
	.long	0xa679
	.byte	0
	.uleb128 0x15
	.long	.LASF98
	.byte	0x2
	.value	0x1f1
	.byte	0x1a
	.long	0x332e
	.uleb128 0x7
	.long	0x3925
	.uleb128 0x7a
	.long	.LASF156
	.byte	0x2
	.value	0x240
	.long	0x3947
	.long	0x3957
	.uleb128 0x2
	.long	0xa66f
	.uleb128 0x1
	.long	0x3957
	.uleb128 0x1
	.long	0xa679
	.byte	0
	.uleb128 0x15
	.long	.LASF81
	.byte	0x2
	.value	0x1ef
	.byte	0x1a
	.long	0x2bc
	.uleb128 0x7
	.long	0x3957
	.uleb128 0x2e
	.long	.LASF156
	.byte	0x2
	.value	0x24d
	.byte	0x7
	.byte	0x1
	.long	0x397b
	.long	0x3990
	.uleb128 0x2
	.long	0xa66f
	.uleb128 0x1
	.long	0x3957
	.uleb128 0x1
	.long	0xa67e
	.uleb128 0x1
	.long	0xa679
	.byte	0
	.uleb128 0x15
	.long	.LASF6
	.byte	0x2
	.value	0x1e5
	.byte	0x17
	.long	0xa446
	.uleb128 0x7
	.long	0x3990
	.uleb128 0x2e
	.long	.LASF156
	.byte	0x2
	.value	0x26d
	.byte	0x7
	.byte	0x1
	.long	0x39b4
	.long	0x39bf
	.uleb128 0x2
	.long	0xa66f
	.uleb128 0x1
	.long	0xa683
	.byte	0
	.uleb128 0x8c
	.long	.LASF156
	.value	0x280
	.long	0x39cf
	.long	0x39da
	.uleb128 0x2
	.long	0xa66f
	.uleb128 0x1
	.long	0xa688
	.byte	0
	.uleb128 0x2e
	.long	.LASF156
	.byte	0x2
	.value	0x284
	.byte	0x7
	.byte	0x1
	.long	0x39ec
	.long	0x39fc
	.uleb128 0x2
	.long	0xa66f
	.uleb128 0x1
	.long	0xa683
	.uleb128 0x1
	.long	0xa68d
	.byte	0
	.uleb128 0x3c
	.long	.LASF156
	.value	0x28f
	.byte	0x7
	.long	0x3a0c
	.long	0x3a21
	.uleb128 0x2
	.long	0xa66f
	.uleb128 0x1
	.long	0xa688
	.uleb128 0x1
	.long	0xa679
	.uleb128 0x1
	.long	0x63c
	.byte	0
	.uleb128 0x3c
	.long	.LASF156
	.value	0x294
	.byte	0x7
	.long	0x3a31
	.long	0x3a46
	.uleb128 0x2
	.long	0xa66f
	.uleb128 0x1
	.long	0xa688
	.uleb128 0x1
	.long	0xa679
	.uleb128 0x1
	.long	0x3ac
	.byte	0
	.uleb128 0x2e
	.long	.LASF156
	.byte	0x2
	.value	0x2a7
	.byte	0x7
	.byte	0x1
	.long	0x3a58
	.long	0x3a68
	.uleb128 0x2
	.long	0xa66f
	.uleb128 0x1
	.long	0xa688
	.uleb128 0x1
	.long	0xa68d
	.byte	0
	.uleb128 0x2e
	.long	.LASF156
	.byte	0x2
	.value	0x2ba
	.byte	0x7
	.byte	0x1
	.long	0x3a7a
	.long	0x3a8a
	.uleb128 0x2
	.long	0xa66f
	.uleb128 0x1
	.long	0x439c
	.uleb128 0x1
	.long	0xa679
	.byte	0
	.uleb128 0x2e
	.long	.LASF168
	.byte	0x2
	.value	0x316
	.byte	0x7
	.byte	0x1
	.long	0x3a9c
	.long	0x3aa2
	.uleb128 0x2
	.long	0xa66f
	.byte	0
	.uleb128 0x54
	.long	.LASF35
	.byte	0x7
	.byte	0xd6
	.byte	0x5
	.long	0xa692
	.byte	0x1
	.long	0x3ab7
	.long	0x3ac2
	.uleb128 0x2
	.long	0xa66f
	.uleb128 0x1
	.long	0xa683
	.byte	0
	.uleb128 0x1f
	.long	.LASF35
	.byte	0x2
	.value	0x337
	.byte	0x7
	.long	0xa692
	.byte	0x1
	.long	0x3ad8
	.long	0x3ae3
	.uleb128 0x2
	.long	0xa66f
	.uleb128 0x1
	.long	0xa688
	.byte	0
	.uleb128 0x1f
	.long	.LASF35
	.byte	0x2
	.value	0x34d
	.byte	0x7
	.long	0xa692
	.byte	0x1
	.long	0x3af9
	.long	0x3b04
	.uleb128 0x2
	.long	0xa66f
	.uleb128 0x1
	.long	0x439c
	.byte	0
	.uleb128 0x2e
	.long	.LASF173
	.byte	0x2
	.value	0x361
	.byte	0x7
	.byte	0x1
	.long	0x3b16
	.long	0x3b26
	.uleb128 0x2
	.long	0xa66f
	.uleb128 0x1
	.long	0x3957
	.uleb128 0x1
	.long	0xa67e
	.byte	0
	.uleb128 0x2e
	.long	.LASF173
	.byte	0x2
	.value	0x390
	.byte	0x7
	.byte	0x1
	.long	0x3b38
	.long	0x3b43
	.uleb128 0x2
	.long	0xa66f
	.uleb128 0x1
	.long	0x439c
	.byte	0
	.uleb128 0x15
	.long	.LASF176
	.byte	0x2
	.value	0x1ea
	.byte	0x3d
	.long	0x8b30
	.uleb128 0x1f
	.long	.LASF177
	.byte	0x2
	.value	0x3dc
	.byte	0x7
	.long	0x3b43
	.byte	0x1
	.long	0x3b66
	.long	0x3b6c
	.uleb128 0x2
	.long	0xa66f
	.byte	0
	.uleb128 0x15
	.long	.LASF179
	.byte	0x2
	.value	0x1ec
	.byte	0x7
	.long	0x8d2b
	.uleb128 0x1f
	.long	.LASF177
	.byte	0x2
	.value	0x3e6
	.byte	0x7
	.long	0x3b6c
	.byte	0x1
	.long	0x3b8f
	.long	0x3b95
	.uleb128 0x2
	.long	0xa697
	.byte	0
	.uleb128 0x71
	.string	"end"
	.value	0x3f0
	.long	0x3b43
	.long	0x3ba8
	.long	0x3bae
	.uleb128 0x2
	.long	0xa66f
	.byte	0
	.uleb128 0x71
	.string	"end"
	.value	0x3fa
	.long	0x3b6c
	.long	0x3bc1
	.long	0x3bc7
	.uleb128 0x2
	.long	0xa697
	.byte	0
	.uleb128 0x15
	.long	.LASF183
	.byte	0x2
	.value	0x1ee
	.byte	0x30
	.long	0x43a1
	.uleb128 0x1f
	.long	.LASF184
	.byte	0x2
	.value	0x404
	.byte	0x7
	.long	0x3bc7
	.byte	0x1
	.long	0x3bea
	.long	0x3bf0
	.uleb128 0x2
	.long	0xa66f
	.byte	0
	.uleb128 0x15
	.long	.LASF186
	.byte	0x2
	.value	0x1ed
	.byte	0x35
	.long	0x43a6
	.uleb128 0x1f
	.long	.LASF184
	.byte	0x2
	.value	0x40e
	.byte	0x7
	.long	0x3bf0
	.byte	0x1
	.long	0x3c13
	.long	0x3c19
	.uleb128 0x2
	.long	0xa697
	.byte	0
	.uleb128 0x1f
	.long	.LASF188
	.byte	0x2
	.value	0x418
	.byte	0x7
	.long	0x3bc7
	.byte	0x1
	.long	0x3c2f
	.long	0x3c35
	.uleb128 0x2
	.long	0xa66f
	.byte	0
	.uleb128 0x1f
	.long	.LASF188
	.byte	0x2
	.value	0x422
	.byte	0x7
	.long	0x3bf0
	.byte	0x1
	.long	0x3c4b
	.long	0x3c51
	.uleb128 0x2
	.long	0xa697
	.byte	0
	.uleb128 0x1f
	.long	.LASF191
	.byte	0x2
	.value	0x42d
	.byte	0x7
	.long	0x3b6c
	.byte	0x1
	.long	0x3c67
	.long	0x3c6d
	.uleb128 0x2
	.long	0xa697
	.byte	0
	.uleb128 0x1f
	.long	.LASF193
	.byte	0x2
	.value	0x437
	.byte	0x7
	.long	0x3b6c
	.byte	0x1
	.long	0x3c83
	.long	0x3c89
	.uleb128 0x2
	.long	0xa697
	.byte	0
	.uleb128 0x1f
	.long	.LASF195
	.byte	0x2
	.value	0x441
	.byte	0x7
	.long	0x3bf0
	.byte	0x1
	.long	0x3c9f
	.long	0x3ca5
	.uleb128 0x2
	.long	0xa697
	.byte	0
	.uleb128 0x1f
	.long	.LASF197
	.byte	0x2
	.value	0x44b
	.byte	0x7
	.long	0x3bf0
	.byte	0x1
	.long	0x3cbb
	.long	0x3cc1
	.uleb128 0x2
	.long	0xa697
	.byte	0
	.uleb128 0x1f
	.long	.LASF199
	.byte	0x2
	.value	0x453
	.byte	0x7
	.long	0x3957
	.byte	0x1
	.long	0x3cd7
	.long	0x3cdd
	.uleb128 0x2
	.long	0xa697
	.byte	0
	.uleb128 0x1f
	.long	.LASF84
	.byte	0x2
	.value	0x45e
	.byte	0x7
	.long	0x3957
	.byte	0x1
	.long	0x3cf3
	.long	0x3cf9
	.uleb128 0x2
	.long	0xa697
	.byte	0
	.uleb128 0x2e
	.long	.LASF202
	.byte	0x2
	.value	0x46d
	.byte	0x7
	.byte	0x1
	.long	0x3d0b
	.long	0x3d16
	.uleb128 0x2
	.long	0xa66f
	.uleb128 0x1
	.long	0x3957
	.byte	0
	.uleb128 0x2e
	.long	.LASF202
	.byte	0x2
	.value	0x482
	.byte	0x7
	.byte	0x1
	.long	0x3d28
	.long	0x3d38
	.uleb128 0x2
	.long	0xa66f
	.uleb128 0x1
	.long	0x3957
	.uleb128 0x1
	.long	0xa67e
	.byte	0
	.uleb128 0x2e
	.long	.LASF205
	.byte	0x2
	.value	0x4a4
	.byte	0x7
	.byte	0x1
	.long	0x3d4a
	.long	0x3d50
	.uleb128 0x2
	.long	0xa66f
	.byte	0
	.uleb128 0x1f
	.long	.LASF207
	.byte	0x2
	.value	0x4ae
	.byte	0x7
	.long	0x3957
	.byte	0x1
	.long	0x3d66
	.long	0x3d6c
	.uleb128 0x2
	.long	0xa697
	.byte	0
	.uleb128 0x1f
	.long	.LASF209
	.byte	0x2
	.value	0x4bd
	.byte	0x7
	.long	0x92bf
	.byte	0x1
	.long	0x3d82
	.long	0x3d88
	.uleb128 0x2
	.long	0xa697
	.byte	0
	.uleb128 0x53
	.long	.LASF211
	.byte	0x7
	.byte	0x46
	.byte	0x5
	.long	0x3d98
	.long	0x3da3
	.uleb128 0x2
	.long	0xa66f
	.uleb128 0x1
	.long	0x3957
	.byte	0
	.uleb128 0x15
	.long	.LASF75
	.byte	0x2
	.value	0x1e8
	.byte	0x32
	.long	0x8aeb
	.uleb128 0x1f
	.long	.LASF213
	.byte	0x2
	.value	0x4e3
	.byte	0x7
	.long	0x3da3
	.byte	0x1
	.long	0x3dc6
	.long	0x3dd1
	.uleb128 0x2
	.long	0xa66f
	.uleb128 0x1
	.long	0x3957
	.byte	0
	.uleb128 0x15
	.long	.LASF78
	.byte	0x2
	.value	0x1e9
	.byte	0x37
	.long	0x8af7
	.uleb128 0x1f
	.long	.LASF213
	.byte	0x2
	.value	0x4f6
	.byte	0x7
	.long	0x3dd1
	.byte	0x1
	.long	0x3df4
	.long	0x3dff
	.uleb128 0x2
	.long	0xa697
	.uleb128 0x1
	.long	0x3957
	.byte	0
	.uleb128 0x2e
	.long	.LASF216
	.byte	0x2
	.value	0x500
	.byte	0x7
	.byte	0x2
	.long	0x3e11
	.long	0x3e1c
	.uleb128 0x2
	.long	0xa697
	.uleb128 0x1
	.long	0x3957
	.byte	0
	.uleb128 0x71
	.string	"at"
	.value	0x517
	.long	0x3da3
	.long	0x3e2e
	.long	0x3e39
	.uleb128 0x2
	.long	0xa66f
	.uleb128 0x1
	.long	0x3957
	.byte	0
	.uleb128 0x71
	.string	"at"
	.value	0x52a
	.long	0x3dd1
	.long	0x3e4b
	.long	0x3e56
	.uleb128 0x2
	.long	0xa697
	.uleb128 0x1
	.long	0x3957
	.byte	0
	.uleb128 0x1f
	.long	.LASF220
	.byte	0x2
	.value	0x536
	.byte	0x7
	.long	0x3da3
	.byte	0x1
	.long	0x3e6c
	.long	0x3e72
	.uleb128 0x2
	.long	0xa66f
	.byte	0
	.uleb128 0x1f
	.long	.LASF220
	.byte	0x2
	.value	0x542
	.byte	0x7
	.long	0x3dd1
	.byte	0x1
	.long	0x3e88
	.long	0x3e8e
	.uleb128 0x2
	.long	0xa697
	.byte	0
	.uleb128 0x1f
	.long	.LASF223
	.byte	0x2
	.value	0x54e
	.byte	0x7
	.long	0x3da3
	.byte	0x1
	.long	0x3ea4
	.long	0x3eaa
	.uleb128 0x2
	.long	0xa66f
	.byte	0
	.uleb128 0x1f
	.long	.LASF223
	.byte	0x2
	.value	0x55a
	.byte	0x7
	.long	0x3dd1
	.byte	0x1
	.long	0x3ec0
	.long	0x3ec6
	.uleb128 0x2
	.long	0xa697
	.byte	0
	.uleb128 0x1f
	.long	.LASF226
	.byte	0x2
	.value	0x569
	.byte	0x7
	.long	0xa5ca
	.byte	0x1
	.long	0x3edc
	.long	0x3ee2
	.uleb128 0x2
	.long	0xa66f
	.byte	0
	.uleb128 0x1f
	.long	.LASF226
	.byte	0x2
	.value	0x56e
	.byte	0x7
	.long	0xa5e3
	.byte	0x1
	.long	0x3ef8
	.long	0x3efe
	.uleb128 0x2
	.long	0xa697
	.byte	0
	.uleb128 0x2e
	.long	.LASF229
	.byte	0x2
	.value	0x57e
	.byte	0x7
	.byte	0x1
	.long	0x3f10
	.long	0x3f1b
	.uleb128 0x2
	.long	0xa66f
	.uleb128 0x1
	.long	0xa67e
	.byte	0
	.uleb128 0x2e
	.long	.LASF229
	.byte	0x2
	.value	0x58f
	.byte	0x7
	.byte	0x1
	.long	0x3f2d
	.long	0x3f38
	.uleb128 0x2
	.long	0xa66f
	.uleb128 0x1
	.long	0xa6a1
	.byte	0
	.uleb128 0x2e
	.long	.LASF232
	.byte	0x2
	.value	0x5a7
	.byte	0x7
	.byte	0x1
	.long	0x3f4a
	.long	0x3f50
	.uleb128 0x2
	.long	0xa66f
	.byte	0
	.uleb128 0x54
	.long	.LASF234
	.byte	0x7
	.byte	0x89
	.byte	0x5
	.long	0x3b43
	.byte	0x1
	.long	0x3f65
	.long	0x3f75
	.uleb128 0x2
	.long	0xa66f
	.uleb128 0x1
	.long	0x3b6c
	.uleb128 0x1
	.long	0xa67e
	.byte	0
	.uleb128 0x1f
	.long	.LASF234
	.byte	0x2
	.value	0x5ee
	.byte	0x7
	.long	0x3b43
	.byte	0x1
	.long	0x3f8b
	.long	0x3f9b
	.uleb128 0x2
	.long	0xa66f
	.uleb128 0x1
	.long	0x3b6c
	.uleb128 0x1
	.long	0xa6a1
	.byte	0
	.uleb128 0x1f
	.long	.LASF234
	.byte	0x2
	.value	0x600
	.byte	0x7
	.long	0x3b43
	.byte	0x1
	.long	0x3fb1
	.long	0x3fc1
	.uleb128 0x2
	.long	0xa66f
	.uleb128 0x1
	.long	0x3b6c
	.uleb128 0x1
	.long	0x439c
	.byte	0
	.uleb128 0x1f
	.long	.LASF234
	.byte	0x2
	.value	0x61a
	.byte	0x7
	.long	0x3b43
	.byte	0x1
	.long	0x3fd7
	.long	0x3fec
	.uleb128 0x2
	.long	0xa66f
	.uleb128 0x1
	.long	0x3b6c
	.uleb128 0x1
	.long	0x3957
	.uleb128 0x1
	.long	0xa67e
	.byte	0
	.uleb128 0x1f
	.long	.LASF239
	.byte	0x2
	.value	0x6f6
	.byte	0x7
	.long	0x3b43
	.byte	0x1
	.long	0x4002
	.long	0x400d
	.uleb128 0x2
	.long	0xa66f
	.uleb128 0x1
	.long	0x3b6c
	.byte	0
	.uleb128 0x1f
	.long	.LASF239
	.byte	0x2
	.value	0x712
	.byte	0x7
	.long	0x3b43
	.byte	0x1
	.long	0x4023
	.long	0x4033
	.uleb128 0x2
	.long	0xa66f
	.uleb128 0x1
	.long	0x3b6c
	.uleb128 0x1
	.long	0x3b6c
	.byte	0
	.uleb128 0x2e
	.long	.LASF40
	.byte	0x2
	.value	0x72a
	.byte	0x7
	.byte	0x1
	.long	0x4045
	.long	0x4050
	.uleb128 0x2
	.long	0xa66f
	.uleb128 0x1
	.long	0xa692
	.byte	0
	.uleb128 0x2e
	.long	.LASF243
	.byte	0x2
	.value	0x73d
	.byte	0x7
	.byte	0x1
	.long	0x4062
	.long	0x4068
	.uleb128 0x2
	.long	0xa66f
	.byte	0
	.uleb128 0x2e
	.long	.LASF245
	.byte	0x2
	.value	0x7c3
	.byte	0x7
	.byte	0x2
	.long	0x407a
	.long	0x408a
	.uleb128 0x2
	.long	0xa66f
	.uleb128 0x1
	.long	0x3957
	.uleb128 0x1
	.long	0xa67e
	.byte	0
	.uleb128 0x2e
	.long	.LASF247
	.byte	0x2
	.value	0x7ce
	.byte	0x7
	.byte	0x2
	.long	0x409c
	.long	0x40a7
	.uleb128 0x2
	.long	0xa66f
	.uleb128 0x1
	.long	0x3957
	.byte	0
	.uleb128 0x2e
	.long	.LASF249
	.byte	0x7
	.value	0x112
	.byte	0x5
	.byte	0x2
	.long	0x40b9
	.long	0x40c9
	.uleb128 0x2
	.long	0xa66f
	.uleb128 0x1
	.long	0x2bc
	.uleb128 0x1
	.long	0xa67e
	.byte	0
	.uleb128 0x2e
	.long	.LASF251
	.byte	0x7
	.value	0x296
	.byte	0x5
	.byte	0x2
	.long	0x40db
	.long	0x40f0
	.uleb128 0x2
	.long	0xa66f
	.uleb128 0x1
	.long	0x3b43
	.uleb128 0x1
	.long	0x3957
	.uleb128 0x1
	.long	0xa67e
	.byte	0
	.uleb128 0x2e
	.long	.LASF253
	.byte	0x7
	.value	0x300
	.byte	0x5
	.byte	0x2
	.long	0x4102
	.long	0x4112
	.uleb128 0x2
	.long	0xa66f
	.uleb128 0x1
	.long	0x3957
	.uleb128 0x1
	.long	0xa67e
	.byte	0
	.uleb128 0x2e
	.long	.LASF255
	.byte	0x7
	.value	0x339
	.byte	0x5
	.byte	0x2
	.long	0x4124
	.long	0x412f
	.uleb128 0x2
	.long	0xa66f
	.uleb128 0x1
	.long	0x3957
	.byte	0
	.uleb128 0x1f
	.long	.LASF257
	.byte	0x7
	.value	0x396
	.byte	0x5
	.long	0x92bf
	.byte	0x2
	.long	0x4145
	.long	0x414b
	.uleb128 0x2
	.long	0xa66f
	.byte	0
	.uleb128 0x1f
	.long	.LASF259
	.byte	0x7
	.value	0x16f
	.byte	0x5
	.long	0x3b43
	.byte	0x2
	.long	0x4161
	.long	0x4171
	.uleb128 0x2
	.long	0xa66f
	.uleb128 0x1
	.long	0x3b6c
	.uleb128 0x1
	.long	0xa6a1
	.byte	0
	.uleb128 0x1f
	.long	.LASF261
	.byte	0x2
	.value	0x889
	.byte	0x7
	.long	0x3b43
	.byte	0x2
	.long	0x4187
	.long	0x4197
	.uleb128 0x2
	.long	0xa66f
	.uleb128 0x1
	.long	0x3b6c
	.uleb128 0x1
	.long	0xa6a1
	.byte	0
	.uleb128 0x1f
	.long	.LASF263
	.byte	0x2
	.value	0x890
	.byte	0x7
	.long	0x3957
	.byte	0x2
	.long	0x41ad
	.long	0x41bd
	.uleb128 0x2
	.long	0xa697
	.uleb128 0x1
	.long	0x3957
	.uleb128 0x1
	.long	0x788b
	.byte	0
	.uleb128 0x8d
	.long	.LASF265
	.value	0x89b
	.long	0x3957
	.long	0x41d8
	.uleb128 0x1
	.long	0x3957
	.uleb128 0x1
	.long	0xa679
	.byte	0
	.uleb128 0x8d
	.long	.LASF267
	.value	0x8a4
	.long	0x3957
	.long	0x41ee
	.uleb128 0x1
	.long	0xa6a6
	.byte	0
	.uleb128 0x2e
	.long	.LASF269
	.byte	0x2
	.value	0x8b5
	.byte	0x7
	.byte	0x2
	.long	0x4200
	.long	0x420b
	.uleb128 0x2
	.long	0xa66f
	.uleb128 0x1
	.long	0x38af
	.byte	0
	.uleb128 0x54
	.long	.LASF271
	.byte	0x7
	.byte	0xb9
	.byte	0x5
	.long	0x3b43
	.byte	0x2
	.long	0x4220
	.long	0x422b
	.uleb128 0x2
	.long	0xa66f
	.uleb128 0x1
	.long	0x3b43
	.byte	0
	.uleb128 0x54
	.long	.LASF271
	.byte	0x7
	.byte	0xc7
	.byte	0x5
	.long	0x3b43
	.byte	0x2
	.long	0x4240
	.long	0x4250
	.uleb128 0x2
	.long	0xa66f
	.uleb128 0x1
	.long	0x3b43
	.uleb128 0x1
	.long	0x3b43
	.byte	0
	.uleb128 0x3c
	.long	.LASF274
	.value	0x8cf
	.byte	0x7
	.long	0x4260
	.long	0x4270
	.uleb128 0x2
	.long	0xa66f
	.uleb128 0x1
	.long	0xa688
	.uleb128 0x1
	.long	0x63c
	.byte	0
	.uleb128 0x3c
	.long	.LASF274
	.value	0x8db
	.byte	0x7
	.long	0x4280
	.long	0x4290
	.uleb128 0x2
	.long	0xa66f
	.uleb128 0x1
	.long	0xa688
	.uleb128 0x1
	.long	0x3ac
	.byte	0
	.uleb128 0x1e
	.long	.LASF436
	.byte	0x2
	.value	0x1e0
	.byte	0x2b
	.long	0x34c7
	.uleb128 0x58
	.long	.LASF437
	.byte	0x18
	.byte	0x2
	.value	0x742
	.byte	0xe
	.long	0x4342
	.uleb128 0x50
	.long	.LASF438
	.value	0x744
	.byte	0xa
	.long	0x38af
	.byte	0
	.uleb128 0x50
	.long	.LASF439
	.value	0x745
	.byte	0xc
	.long	0x3957
	.byte	0x8
	.uleb128 0x50
	.long	.LASF440
	.value	0x746
	.byte	0x9
	.long	0xa921
	.byte	0x10
	.uleb128 0x3c
	.long	.LASF437
	.value	0x749
	.byte	0x2
	.long	0x42e2
	.long	0x42f7
	.uleb128 0x2
	.long	0xa926
	.uleb128 0x1
	.long	0x38af
	.uleb128 0x1
	.long	0x3957
	.uleb128 0x1
	.long	0xa921
	.byte	0
	.uleb128 0x3c
	.long	.LASF441
	.value	0x74e
	.byte	0x2
	.long	0x4307
	.long	0x430d
	.uleb128 0x2
	.long	0xa926
	.byte	0
	.uleb128 0x65
	.long	.LASF24
	.value	0x756
	.byte	0x2
	.long	0x38af
	.long	0x4321
	.long	0x4327
	.uleb128 0x2
	.long	0xa926
	.byte	0
	.uleb128 0xb2
	.long	.LASF437
	.byte	0x2
	.value	0x75e
	.byte	0x2
	.byte	0x3
	.long	0x4336
	.uleb128 0x2
	.long	0xa926
	.uleb128 0x1
	.long	0xa930
	.byte	0
	.byte	0
	.uleb128 0x7
	.long	0x429d
	.uleb128 0x2e
	.long	.LASF442
	.byte	0x7
	.value	0x235
	.byte	0x7
	.byte	0x2
	.long	0x4368
	.long	0x4373
	.uleb128 0x55
	.long	.LASF432
	.long	0x4368
	.uleb128 0x56
	.long	0xa5e8
	.byte	0
	.uleb128 0x2
	.long	0xa66f
	.uleb128 0x1
	.long	0xa5e8
	.byte	0
	.uleb128 0xf
	.string	"_Tp"
	.long	0xa446
	.uleb128 0x64
	.long	.LASF146
	.long	0x332e
	.byte	0
	.uleb128 0x7
	.long	0x382a
	.uleb128 0x8
	.long	.LASF279
	.byte	0x13
	.byte	0xad
	.byte	0xb
	.long	0x3814
	.uleb128 0x7
	.long	0x438b
	.uleb128 0x35
	.long	.LASF443
	.uleb128 0x35
	.long	.LASF444
	.uleb128 0x35
	.long	.LASF445
	.uleb128 0x19
	.long	.LASF446
	.byte	0x1
	.byte	0x16
	.byte	0xd4
	.byte	0xc
	.long	0x43e6
	.uleb128 0x8
	.long	.LASF447
	.byte	0x16
	.byte	0xd8
	.byte	0x2b
	.long	0x62f
	.uleb128 0x8
	.long	.LASF74
	.byte	0x16
	.byte	0xd9
	.byte	0x2b
	.long	0xa4ee
	.uleb128 0x8
	.long	.LASF75
	.byte	0x16
	.byte	0xda
	.byte	0x2b
	.long	0xa4fd
	.uleb128 0xa
	.long	.LASF448
	.long	0xa4ee
	.byte	0
	.uleb128 0x3e
	.long	.LASF449
	.byte	0x1
	.byte	0x6
	.byte	0x3f
	.long	0x4584
	.uleb128 0x24
	.long	.LASF64
	.byte	0x6
	.byte	0x58
	.byte	0x7
	.long	.LASF450
	.byte	0x1
	.long	0x4407
	.long	0x440d
	.uleb128 0x2
	.long	0xa6c9
	.byte	0
	.uleb128 0x24
	.long	.LASF64
	.byte	0x6
	.byte	0x5c
	.byte	0x7
	.long	.LASF451
	.byte	0x1
	.long	0x4422
	.long	0x442d
	.uleb128 0x2
	.long	0xa6c9
	.uleb128 0x1
	.long	0xa6d3
	.byte	0
	.uleb128 0x4e
	.long	.LASF35
	.byte	0x6
	.byte	0x64
	.byte	0x18
	.long	.LASF452
	.long	0xa6d8
	.long	0x4445
	.long	0x4450
	.uleb128 0x2
	.long	0xa6c9
	.uleb128 0x1
	.long	0xa6d3
	.byte	0
	.uleb128 0x24
	.long	.LASF70
	.byte	0x6
	.byte	0x68
	.byte	0x7
	.long	.LASF453
	.byte	0x1
	.long	0x4465
	.long	0x446b
	.uleb128 0x2
	.long	0xa6c9
	.byte	0
	.uleb128 0x28
	.long	.LASF74
	.byte	0x6
	.byte	0x46
	.byte	0x1a
	.long	0xa6dd
	.uleb128 0x22
	.long	.LASF72
	.byte	0x6
	.byte	0x6b
	.byte	0x7
	.long	.LASF454
	.long	0x446b
	.byte	0x1
	.long	0x4490
	.long	0x449b
	.uleb128 0x2
	.long	0xa6e7
	.uleb128 0x1
	.long	0x449b
	.byte	0
	.uleb128 0x28
	.long	.LASF75
	.byte	0x6
	.byte	0x48
	.byte	0x1a
	.long	0xa6f1
	.uleb128 0x28
	.long	.LASF76
	.byte	0x6
	.byte	0x47
	.byte	0x1a
	.long	0x7886
	.uleb128 0x22
	.long	.LASF72
	.byte	0x6
	.byte	0x6f
	.byte	0x7
	.long	.LASF455
	.long	0x44a7
	.byte	0x1
	.long	0x44cc
	.long	0x44d7
	.uleb128 0x2
	.long	0xa6e7
	.uleb128 0x1
	.long	0x44d7
	.byte	0
	.uleb128 0x28
	.long	.LASF78
	.byte	0x6
	.byte	0x49
	.byte	0x1a
	.long	0xa6f6
	.uleb128 0x22
	.long	.LASF79
	.byte	0x6
	.byte	0x81
	.byte	0x7
	.long	.LASF456
	.long	0xa6dd
	.byte	0x1
	.long	0x44fc
	.long	0x450c
	.uleb128 0x2
	.long	0xa6c9
	.uleb128 0x1
	.long	0x450c
	.uleb128 0x1
	.long	0x9315
	.byte	0
	.uleb128 0x28
	.long	.LASF81
	.byte	0x6
	.byte	0x43
	.byte	0x1f
	.long	0x2bc
	.uleb128 0x24
	.long	.LASF82
	.byte	0x6
	.byte	0xa7
	.byte	0x7
	.long	.LASF457
	.byte	0x1
	.long	0x452d
	.long	0x453d
	.uleb128 0x2
	.long	0xa6c9
	.uleb128 0x1
	.long	0xa6dd
	.uleb128 0x1
	.long	0x450c
	.byte	0
	.uleb128 0x22
	.long	.LASF84
	.byte	0x6
	.byte	0xc2
	.byte	0x7
	.long	.LASF458
	.long	0x450c
	.byte	0x1
	.long	0x4556
	.long	0x455c
	.uleb128 0x2
	.long	0xa6e7
	.byte	0
	.uleb128 0x45
	.long	.LASF86
	.byte	0x6
	.byte	0xf2
	.byte	0x7
	.long	.LASF459
	.long	0x450c
	.long	0x4574
	.long	0x457a
	.uleb128 0x2
	.long	0xa6e7
	.byte	0
	.uleb128 0xf
	.string	"_Tp"
	.long	0x4f
	.byte	0
	.uleb128 0x7
	.long	0x43e6
	.uleb128 0x3e
	.long	.LASF460
	.byte	0x1
	.byte	0x5
	.byte	0x85
	.long	0x460d
	.uleb128 0x48
	.long	0x43e6
	.byte	0x1
	.uleb128 0x24
	.long	.LASF89
	.byte	0x5
	.byte	0xa8
	.byte	0x7
	.long	.LASF461
	.byte	0x1
	.long	0x45b0
	.long	0x45b6
	.uleb128 0x2
	.long	0xa6fb
	.byte	0
	.uleb128 0x24
	.long	.LASF89
	.byte	0x5
	.byte	0xac
	.byte	0x7
	.long	.LASF462
	.byte	0x1
	.long	0x45cb
	.long	0x45d6
	.uleb128 0x2
	.long	0xa6fb
	.uleb128 0x1
	.long	0xa705
	.byte	0
	.uleb128 0x4e
	.long	.LASF35
	.byte	0x5
	.byte	0xb1
	.byte	0x12
	.long	.LASF463
	.long	0xa70a
	.long	0x45ee
	.long	0x45f9
	.uleb128 0x2
	.long	0xa6fb
	.uleb128 0x1
	.long	0xa705
	.byte	0
	.uleb128 0x6e
	.long	.LASF93
	.long	.LASF464
	.long	0x4606
	.uleb128 0x2
	.long	0xa6fb
	.byte	0
	.byte	0
	.uleb128 0x7
	.long	0x4589
	.uleb128 0x58
	.long	.LASF465
	.byte	0x1
	.byte	0x8
	.value	0x248
	.byte	0xc
	.long	0x4710
	.uleb128 0x1e
	.long	.LASF74
	.byte	0x8
	.value	0x251
	.byte	0xd
	.long	0xa6dd
	.uleb128 0x17
	.long	.LASF79
	.byte	0x8
	.value	0x27d
	.byte	0x7
	.long	.LASF466
	.long	0x4620
	.long	0x464d
	.uleb128 0x1
	.long	0xa70f
	.uleb128 0x1
	.long	0x465f
	.byte	0
	.uleb128 0x1e
	.long	.LASF98
	.byte	0x8
	.value	0x24b
	.byte	0xd
	.long	0x4589
	.uleb128 0x7
	.long	0x464d
	.uleb128 0x1e
	.long	.LASF81
	.byte	0x8
	.value	0x260
	.byte	0xd
	.long	0x2bc
	.uleb128 0x17
	.long	.LASF79
	.byte	0x8
	.value	0x28c
	.byte	0x7
	.long	.LASF467
	.long	0x4620
	.long	0x4691
	.uleb128 0x1
	.long	0xa70f
	.uleb128 0x1
	.long	0x465f
	.uleb128 0x1
	.long	0x4691
	.byte	0
	.uleb128 0x1e
	.long	.LASF100
	.byte	0x8
	.value	0x25a
	.byte	0xd
	.long	0x9315
	.uleb128 0x39
	.long	.LASF82
	.byte	0x8
	.value	0x2b0
	.byte	0x7
	.long	.LASF468
	.long	0x46bf
	.uleb128 0x1
	.long	0xa70f
	.uleb128 0x1
	.long	0x4620
	.uleb128 0x1
	.long	0x465f
	.byte	0
	.uleb128 0x17
	.long	.LASF84
	.byte	0x8
	.value	0x2ed
	.byte	0x7
	.long	.LASF469
	.long	0x465f
	.long	0x46da
	.uleb128 0x1
	.long	0xa714
	.byte	0
	.uleb128 0x17
	.long	.LASF102
	.byte	0x8
	.value	0x2fd
	.byte	0x7
	.long	.LASF470
	.long	0x464d
	.long	0x46f5
	.uleb128 0x1
	.long	0xa714
	.byte	0
	.uleb128 0x1e
	.long	.LASF6
	.byte	0x8
	.value	0x24e
	.byte	0xd
	.long	0x4f
	.uleb128 0x1e
	.long	.LASF104
	.byte	0x8
	.value	0x26f
	.byte	0x8
	.long	0x4589
	.byte	0
	.uleb128 0x19
	.long	.LASF471
	.byte	0x18
	.byte	0x2
	.byte	0x5b
	.byte	0xc
	.long	0x4ab1
	.uleb128 0x19
	.long	.LASF106
	.byte	0x18
	.byte	0x2
	.byte	0x62
	.byte	0xe
	.long	0x47c3
	.uleb128 0x11
	.long	.LASF108
	.byte	0x2
	.byte	0x64
	.byte	0xa
	.long	0x47c8
	.byte	0
	.uleb128 0x11
	.long	.LASF109
	.byte	0x2
	.byte	0x65
	.byte	0xa
	.long	0x47c8
	.byte	0x8
	.uleb128 0x11
	.long	.LASF110
	.byte	0x2
	.byte	0x66
	.byte	0xa
	.long	0x47c8
	.byte	0x10
	.uleb128 0x23
	.long	.LASF106
	.byte	0x2
	.byte	0x69
	.byte	0x2
	.long	.LASF472
	.long	0x4765
	.long	0x476b
	.uleb128 0x2
	.long	0xa723
	.byte	0
	.uleb128 0x23
	.long	.LASF106
	.byte	0x2
	.byte	0x6f
	.byte	0x2
	.long	.LASF473
	.long	0x477f
	.long	0x478a
	.uleb128 0x2
	.long	0xa723
	.uleb128 0x1
	.long	0xa72d
	.byte	0
	.uleb128 0x23
	.long	.LASF113
	.byte	0x2
	.byte	0x77
	.byte	0x2
	.long	.LASF474
	.long	0x479e
	.long	0x47a9
	.uleb128 0x2
	.long	0xa723
	.uleb128 0x1
	.long	0xa732
	.byte	0
	.uleb128 0x63
	.long	.LASF115
	.byte	0x80
	.long	.LASF475
	.long	0x47b7
	.uleb128 0x2
	.long	0xa723
	.uleb128 0x1
	.long	0xa737
	.byte	0
	.byte	0
	.uleb128 0x7
	.long	0x471d
	.uleb128 0x8
	.long	.LASF74
	.byte	0x2
	.byte	0x60
	.byte	0x9
	.long	0x8dee
	.uleb128 0x19
	.long	.LASF116
	.byte	0x18
	.byte	0x2
	.byte	0x8b
	.byte	0xe
	.long	0x489a
	.uleb128 0x37
	.long	0x4589
	.uleb128 0x37
	.long	0x471d
	.uleb128 0x23
	.long	.LASF116
	.byte	0x2
	.byte	0x8f
	.byte	0x2
	.long	.LASF476
	.long	0x47ff
	.long	0x4805
	.uleb128 0x2
	.long	0xa73c
	.byte	0
	.uleb128 0x23
	.long	.LASF116
	.byte	0x2
	.byte	0x98
	.byte	0x2
	.long	.LASF477
	.long	0x4819
	.long	0x4824
	.uleb128 0x2
	.long	0xa73c
	.uleb128 0x1
	.long	0xa746
	.byte	0
	.uleb128 0x23
	.long	.LASF116
	.byte	0x2
	.byte	0xa0
	.byte	0x2
	.long	.LASF478
	.long	0x4838
	.long	0x4843
	.uleb128 0x2
	.long	0xa73c
	.uleb128 0x1
	.long	0xa74b
	.byte	0
	.uleb128 0x23
	.long	.LASF116
	.byte	0x2
	.byte	0xa5
	.byte	0x2
	.long	.LASF479
	.long	0x4857
	.long	0x4862
	.uleb128 0x2
	.long	0xa73c
	.uleb128 0x1
	.long	0xa750
	.byte	0
	.uleb128 0x23
	.long	.LASF116
	.byte	0x2
	.byte	0xaa
	.byte	0x2
	.long	.LASF480
	.long	0x4876
	.long	0x4886
	.uleb128 0x2
	.long	0xa73c
	.uleb128 0x1
	.long	0xa750
	.uleb128 0x1
	.long	0xa74b
	.byte	0
	.uleb128 0x6f
	.long	.LASF481
	.long	.LASF483
	.long	0x4893
	.uleb128 0x2
	.long	0xa73c
	.byte	0
	.byte	0
	.uleb128 0x8
	.long	.LASF122
	.byte	0x2
	.byte	0x5e
	.byte	0x15
	.long	0x8e1f
	.uleb128 0x7
	.long	0x489a
	.uleb128 0x38
	.long	.LASF123
	.value	0x133
	.byte	0x7
	.long	.LASF484
	.long	0xa755
	.long	0x48c3
	.long	0x48c9
	.uleb128 0x2
	.long	0xa75a
	.byte	0
	.uleb128 0x38
	.long	.LASF123
	.value	0x138
	.byte	0x7
	.long	.LASF485
	.long	0xa746
	.long	0x48e1
	.long	0x48e7
	.uleb128 0x2
	.long	0xa764
	.byte	0
	.uleb128 0x1e
	.long	.LASF98
	.byte	0x2
	.value	0x12f
	.byte	0x16
	.long	0x4589
	.uleb128 0x7
	.long	0x48e7
	.uleb128 0x38
	.long	.LASF126
	.value	0x13d
	.byte	0x7
	.long	.LASF486
	.long	0x48e7
	.long	0x4911
	.long	0x4917
	.uleb128 0x2
	.long	0xa764
	.byte	0
	.uleb128 0x4f
	.long	.LASF128
	.value	0x141
	.long	.LASF487
	.long	0x492a
	.long	0x4930
	.uleb128 0x2
	.long	0xa75a
	.byte	0
	.uleb128 0x1c
	.long	.LASF128
	.value	0x147
	.long	.LASF488
	.long	0x4943
	.long	0x494e
	.uleb128 0x2
	.long	0xa75a
	.uleb128 0x1
	.long	0xa769
	.byte	0
	.uleb128 0x1c
	.long	.LASF128
	.value	0x14d
	.long	.LASF489
	.long	0x4961
	.long	0x496c
	.uleb128 0x2
	.long	0xa75a
	.uleb128 0x1
	.long	0x2bc
	.byte	0
	.uleb128 0x1c
	.long	.LASF128
	.value	0x153
	.long	.LASF490
	.long	0x497f
	.long	0x498f
	.uleb128 0x2
	.long	0xa75a
	.uleb128 0x1
	.long	0x2bc
	.uleb128 0x1
	.long	0xa769
	.byte	0
	.uleb128 0x4f
	.long	.LASF128
	.value	0x158
	.long	.LASF491
	.long	0x49a2
	.long	0x49ad
	.uleb128 0x2
	.long	0xa75a
	.uleb128 0x1
	.long	0xa76e
	.byte	0
	.uleb128 0x1c
	.long	.LASF128
	.value	0x15d
	.long	.LASF492
	.long	0x49c0
	.long	0x49cb
	.uleb128 0x2
	.long	0xa75a
	.uleb128 0x1
	.long	0xa750
	.byte	0
	.uleb128 0x1c
	.long	.LASF128
	.value	0x161
	.long	.LASF493
	.long	0x49de
	.long	0x49ee
	.uleb128 0x2
	.long	0xa75a
	.uleb128 0x1
	.long	0xa76e
	.uleb128 0x1
	.long	0xa769
	.byte	0
	.uleb128 0x1c
	.long	.LASF128
	.value	0x16f
	.long	.LASF494
	.long	0x4a01
	.long	0x4a11
	.uleb128 0x2
	.long	0xa75a
	.uleb128 0x1
	.long	0xa769
	.uleb128 0x1
	.long	0xa76e
	.byte	0
	.uleb128 0x1c
	.long	.LASF137
	.value	0x175
	.long	.LASF495
	.long	0x4a24
	.long	0x4a2a
	.uleb128 0x2
	.long	0xa75a
	.byte	0
	.uleb128 0x50
	.long	.LASF139
	.value	0x17e
	.byte	0x14
	.long	0x47d4
	.byte	0
	.uleb128 0x38
	.long	.LASF140
	.value	0x182
	.byte	0x7
	.long	.LASF496
	.long	0x47c8
	.long	0x4a4f
	.long	0x4a5a
	.uleb128 0x2
	.long	0xa75a
	.uleb128 0x1
	.long	0x2bc
	.byte	0
	.uleb128 0x1c
	.long	.LASF142
	.value	0x18a
	.long	.LASF497
	.long	0x4a6d
	.long	0x4a7d
	.uleb128 0x2
	.long	0xa75a
	.uleb128 0x1
	.long	0x47c8
	.uleb128 0x1
	.long	0x2bc
	.byte	0
	.uleb128 0x10
	.long	.LASF144
	.byte	0x2
	.value	0x195
	.byte	0x7
	.long	.LASF498
	.byte	0x2
	.long	0x4a93
	.long	0x4a9e
	.uleb128 0x2
	.long	0xa75a
	.uleb128 0x1
	.long	0x2bc
	.byte	0
	.uleb128 0xf
	.string	"_Tp"
	.long	0x4f
	.uleb128 0xa
	.long	.LASF146
	.long	0x4589
	.byte	0
	.uleb128 0x7
	.long	0x4710
	.uleb128 0x19
	.long	.LASF499
	.byte	0x1
	.byte	0x13
	.byte	0xa9
	.byte	0xc
	.long	0x4ad9
	.uleb128 0x8
	.long	.LASF148
	.byte	0x13
	.byte	0xaa
	.byte	0xd
	.long	0x4589
	.uleb128 0xa
	.long	.LASF149
	.long	0x4589
	.byte	0
	.uleb128 0x49
	.long	.LASF500
	.byte	0x18
	.byte	0x2
	.value	0x1cc
	.long	0x5681
	.uleb128 0x18
	.byte	0x2
	.value	0x1cc
	.byte	0xb
	.long	0x4a37
	.uleb128 0x18
	.byte	0x2
	.value	0x1cc
	.byte	0xb
	.long	0x4a5a
	.uleb128 0x18
	.byte	0x2
	.value	0x1cc
	.byte	0xb
	.long	0x4a2a
	.uleb128 0x18
	.byte	0x2
	.value	0x1cc
	.byte	0xb
	.long	0x48c9
	.uleb128 0x18
	.byte	0x2
	.value	0x1cc
	.byte	0xb
	.long	0x48ab
	.uleb128 0x18
	.byte	0x2
	.value	0x1cc
	.byte	0xb
	.long	0x48f9
	.uleb128 0x48
	.long	0x4710
	.byte	0x2
	.uleb128 0x17
	.long	.LASF151
	.byte	0x2
	.value	0x1f6
	.byte	0x7
	.long	.LASF501
	.long	0x92bf
	.long	0x4b3d
	.uleb128 0x1
	.long	0x63c
	.byte	0
	.uleb128 0x17
	.long	.LASF151
	.byte	0x2
	.value	0x1ff
	.byte	0x7
	.long	.LASF502
	.long	0x92bf
	.long	0x4b58
	.uleb128 0x1
	.long	0x3ac
	.byte	0
	.uleb128 0x70
	.long	.LASF345
	.long	.LASF503
	.long	0x92bf
	.uleb128 0x15
	.long	.LASF74
	.byte	0x2
	.value	0x1e6
	.byte	0x29
	.long	0x47c8
	.uleb128 0x17
	.long	.LASF154
	.byte	0x2
	.value	0x20c
	.byte	0x7
	.long	.LASF504
	.long	0x4b65
	.long	0x4b9c
	.uleb128 0x1
	.long	0x4b65
	.uleb128 0x1
	.long	0x4b65
	.uleb128 0x1
	.long	0x4b65
	.uleb128 0x1
	.long	0xa773
	.byte	0
	.uleb128 0x1e
	.long	.LASF122
	.byte	0x2
	.value	0x1e1
	.byte	0x2f
	.long	0x489a
	.uleb128 0x7
	.long	0x4b9c
	.uleb128 0x51
	.long	.LASF156
	.value	0x227
	.long	.LASF505
	.long	0x4bc1
	.long	0x4bc7
	.uleb128 0x2
	.long	0xa778
	.byte	0
	.uleb128 0x40
	.long	.LASF156
	.byte	0x2
	.value	0x232
	.long	.LASF506
	.long	0x4bdb
	.long	0x4be6
	.uleb128 0x2
	.long	0xa778
	.uleb128 0x1
	.long	0xa782
	.byte	0
	.uleb128 0x15
	.long	.LASF98
	.byte	0x2
	.value	0x1f1
	.byte	0x1a
	.long	0x4589
	.uleb128 0x7
	.long	0x4be6
	.uleb128 0x40
	.long	.LASF156
	.byte	0x2
	.value	0x240
	.long	.LASF507
	.long	0x4c0c
	.long	0x4c1c
	.uleb128 0x2
	.long	0xa778
	.uleb128 0x1
	.long	0x4c1c
	.uleb128 0x1
	.long	0xa782
	.byte	0
	.uleb128 0x15
	.long	.LASF81
	.byte	0x2
	.value	0x1ef
	.byte	0x1a
	.long	0x2bc
	.uleb128 0x10
	.long	.LASF156
	.byte	0x2
	.value	0x24d
	.byte	0x7
	.long	.LASF508
	.byte	0x1
	.long	0x4c3f
	.long	0x4c54
	.uleb128 0x2
	.long	0xa778
	.uleb128 0x1
	.long	0x4c1c
	.uleb128 0x1
	.long	0xa787
	.uleb128 0x1
	.long	0xa782
	.byte	0
	.uleb128 0x15
	.long	.LASF6
	.byte	0x2
	.value	0x1e5
	.byte	0x17
	.long	0x4f
	.uleb128 0x7
	.long	0x4c54
	.uleb128 0x10
	.long	.LASF156
	.byte	0x2
	.value	0x26d
	.byte	0x7
	.long	.LASF509
	.byte	0x1
	.long	0x4c7c
	.long	0x4c87
	.uleb128 0x2
	.long	0xa778
	.uleb128 0x1
	.long	0xa78c
	.byte	0
	.uleb128 0x51
	.long	.LASF156
	.value	0x280
	.long	.LASF510
	.long	0x4c9a
	.long	0x4ca5
	.uleb128 0x2
	.long	0xa778
	.uleb128 0x1
	.long	0xa791
	.byte	0
	.uleb128 0x10
	.long	.LASF156
	.byte	0x2
	.value	0x284
	.byte	0x7
	.long	.LASF511
	.byte	0x1
	.long	0x4cbb
	.long	0x4ccb
	.uleb128 0x2
	.long	0xa778
	.uleb128 0x1
	.long	0xa78c
	.uleb128 0x1
	.long	0xa796
	.byte	0
	.uleb128 0x1c
	.long	.LASF156
	.value	0x28f
	.long	.LASF512
	.long	0x4cde
	.long	0x4cf3
	.uleb128 0x2
	.long	0xa778
	.uleb128 0x1
	.long	0xa791
	.uleb128 0x1
	.long	0xa782
	.uleb128 0x1
	.long	0x63c
	.byte	0
	.uleb128 0x1c
	.long	.LASF156
	.value	0x294
	.long	.LASF513
	.long	0x4d06
	.long	0x4d1b
	.uleb128 0x2
	.long	0xa778
	.uleb128 0x1
	.long	0xa791
	.uleb128 0x1
	.long	0xa782
	.uleb128 0x1
	.long	0x3ac
	.byte	0
	.uleb128 0x10
	.long	.LASF156
	.byte	0x2
	.value	0x2a7
	.byte	0x7
	.long	.LASF514
	.byte	0x1
	.long	0x4d31
	.long	0x4d41
	.uleb128 0x2
	.long	0xa778
	.uleb128 0x1
	.long	0xa791
	.uleb128 0x1
	.long	0xa796
	.byte	0
	.uleb128 0x10
	.long	.LASF156
	.byte	0x2
	.value	0x2ba
	.byte	0x7
	.long	.LASF515
	.byte	0x1
	.long	0x4d57
	.long	0x4d67
	.uleb128 0x2
	.long	0xa778
	.uleb128 0x1
	.long	0x5697
	.uleb128 0x1
	.long	0xa782
	.byte	0
	.uleb128 0x10
	.long	.LASF168
	.byte	0x2
	.value	0x316
	.byte	0x7
	.long	.LASF516
	.byte	0x1
	.long	0x4d7d
	.long	0x4d83
	.uleb128 0x2
	.long	0xa778
	.byte	0
	.uleb128 0x22
	.long	.LASF35
	.byte	0x7
	.byte	0xd6
	.byte	0x5
	.long	.LASF517
	.long	0xa79b
	.byte	0x1
	.long	0x4d9c
	.long	0x4da7
	.uleb128 0x2
	.long	0xa778
	.uleb128 0x1
	.long	0xa78c
	.byte	0
	.uleb128 0x6
	.long	.LASF35
	.byte	0x2
	.value	0x337
	.byte	0x7
	.long	.LASF518
	.long	0xa79b
	.byte	0x1
	.long	0x4dc1
	.long	0x4dcc
	.uleb128 0x2
	.long	0xa778
	.uleb128 0x1
	.long	0xa791
	.byte	0
	.uleb128 0x6
	.long	.LASF35
	.byte	0x2
	.value	0x34d
	.byte	0x7
	.long	.LASF519
	.long	0xa79b
	.byte	0x1
	.long	0x4de6
	.long	0x4df1
	.uleb128 0x2
	.long	0xa778
	.uleb128 0x1
	.long	0x5697
	.byte	0
	.uleb128 0x10
	.long	.LASF173
	.byte	0x2
	.value	0x361
	.byte	0x7
	.long	.LASF520
	.byte	0x1
	.long	0x4e07
	.long	0x4e17
	.uleb128 0x2
	.long	0xa778
	.uleb128 0x1
	.long	0x4c1c
	.uleb128 0x1
	.long	0xa787
	.byte	0
	.uleb128 0x10
	.long	.LASF173
	.byte	0x2
	.value	0x390
	.byte	0x7
	.long	.LASF521
	.byte	0x1
	.long	0x4e2d
	.long	0x4e38
	.uleb128 0x2
	.long	0xa778
	.uleb128 0x1
	.long	0x5697
	.byte	0
	.uleb128 0x15
	.long	.LASF176
	.byte	0x2
	.value	0x1ea
	.byte	0x3d
	.long	0x8e3f
	.uleb128 0x6
	.long	.LASF177
	.byte	0x2
	.value	0x3dc
	.byte	0x7
	.long	.LASF522
	.long	0x4e38
	.byte	0x1
	.long	0x4e5f
	.long	0x4e65
	.uleb128 0x2
	.long	0xa778
	.byte	0
	.uleb128 0x15
	.long	.LASF179
	.byte	0x2
	.value	0x1ec
	.byte	0x7
	.long	0x8e44
	.uleb128 0x6
	.long	.LASF177
	.byte	0x2
	.value	0x3e6
	.byte	0x7
	.long	.LASF523
	.long	0x4e65
	.byte	0x1
	.long	0x4e8c
	.long	0x4e92
	.uleb128 0x2
	.long	0xa7a0
	.byte	0
	.uleb128 0x3a
	.string	"end"
	.value	0x3f0
	.long	.LASF524
	.long	0x4e38
	.long	0x4ea9
	.long	0x4eaf
	.uleb128 0x2
	.long	0xa778
	.byte	0
	.uleb128 0x3a
	.string	"end"
	.value	0x3fa
	.long	.LASF525
	.long	0x4e65
	.long	0x4ec6
	.long	0x4ecc
	.uleb128 0x2
	.long	0xa7a0
	.byte	0
	.uleb128 0x15
	.long	.LASF183
	.byte	0x2
	.value	0x1ee
	.byte	0x30
	.long	0x5789
	.uleb128 0x6
	.long	.LASF184
	.byte	0x2
	.value	0x404
	.byte	0x7
	.long	.LASF526
	.long	0x4ecc
	.byte	0x1
	.long	0x4ef3
	.long	0x4ef9
	.uleb128 0x2
	.long	0xa778
	.byte	0
	.uleb128 0x15
	.long	.LASF186
	.byte	0x2
	.value	0x1ed
	.byte	0x35
	.long	0x578e
	.uleb128 0x6
	.long	.LASF184
	.byte	0x2
	.value	0x40e
	.byte	0x7
	.long	.LASF527
	.long	0x4ef9
	.byte	0x1
	.long	0x4f20
	.long	0x4f26
	.uleb128 0x2
	.long	0xa7a0
	.byte	0
	.uleb128 0x6
	.long	.LASF188
	.byte	0x2
	.value	0x418
	.byte	0x7
	.long	.LASF528
	.long	0x4ecc
	.byte	0x1
	.long	0x4f40
	.long	0x4f46
	.uleb128 0x2
	.long	0xa778
	.byte	0
	.uleb128 0x6
	.long	.LASF188
	.byte	0x2
	.value	0x422
	.byte	0x7
	.long	.LASF529
	.long	0x4ef9
	.byte	0x1
	.long	0x4f60
	.long	0x4f66
	.uleb128 0x2
	.long	0xa7a0
	.byte	0
	.uleb128 0x6
	.long	.LASF191
	.byte	0x2
	.value	0x42d
	.byte	0x7
	.long	.LASF530
	.long	0x4e65
	.byte	0x1
	.long	0x4f80
	.long	0x4f86
	.uleb128 0x2
	.long	0xa7a0
	.byte	0
	.uleb128 0x6
	.long	.LASF193
	.byte	0x2
	.value	0x437
	.byte	0x7
	.long	.LASF531
	.long	0x4e65
	.byte	0x1
	.long	0x4fa0
	.long	0x4fa6
	.uleb128 0x2
	.long	0xa7a0
	.byte	0
	.uleb128 0x6
	.long	.LASF195
	.byte	0x2
	.value	0x441
	.byte	0x7
	.long	.LASF532
	.long	0x4ef9
	.byte	0x1
	.long	0x4fc0
	.long	0x4fc6
	.uleb128 0x2
	.long	0xa7a0
	.byte	0
	.uleb128 0x6
	.long	.LASF197
	.byte	0x2
	.value	0x44b
	.byte	0x7
	.long	.LASF533
	.long	0x4ef9
	.byte	0x1
	.long	0x4fe0
	.long	0x4fe6
	.uleb128 0x2
	.long	0xa7a0
	.byte	0
	.uleb128 0x6
	.long	.LASF199
	.byte	0x2
	.value	0x453
	.byte	0x7
	.long	.LASF534
	.long	0x4c1c
	.byte	0x1
	.long	0x5000
	.long	0x5006
	.uleb128 0x2
	.long	0xa7a0
	.byte	0
	.uleb128 0x6
	.long	.LASF84
	.byte	0x2
	.value	0x45e
	.byte	0x7
	.long	.LASF535
	.long	0x4c1c
	.byte	0x1
	.long	0x5020
	.long	0x5026
	.uleb128 0x2
	.long	0xa7a0
	.byte	0
	.uleb128 0x10
	.long	.LASF202
	.byte	0x2
	.value	0x46d
	.byte	0x7
	.long	.LASF536
	.byte	0x1
	.long	0x503c
	.long	0x5047
	.uleb128 0x2
	.long	0xa778
	.uleb128 0x1
	.long	0x4c1c
	.byte	0
	.uleb128 0x10
	.long	.LASF202
	.byte	0x2
	.value	0x482
	.byte	0x7
	.long	.LASF537
	.byte	0x1
	.long	0x505d
	.long	0x506d
	.uleb128 0x2
	.long	0xa778
	.uleb128 0x1
	.long	0x4c1c
	.uleb128 0x1
	.long	0xa787
	.byte	0
	.uleb128 0x10
	.long	.LASF205
	.byte	0x2
	.value	0x4a4
	.byte	0x7
	.long	.LASF538
	.byte	0x1
	.long	0x5083
	.long	0x5089
	.uleb128 0x2
	.long	0xa778
	.byte	0
	.uleb128 0x6
	.long	.LASF207
	.byte	0x2
	.value	0x4ae
	.byte	0x7
	.long	.LASF539
	.long	0x4c1c
	.byte	0x1
	.long	0x50a3
	.long	0x50a9
	.uleb128 0x2
	.long	0xa7a0
	.byte	0
	.uleb128 0x6
	.long	.LASF209
	.byte	0x2
	.value	0x4bd
	.byte	0x7
	.long	.LASF540
	.long	0x92bf
	.byte	0x1
	.long	0x50c3
	.long	0x50c9
	.uleb128 0x2
	.long	0xa7a0
	.byte	0
	.uleb128 0x24
	.long	.LASF211
	.byte	0x7
	.byte	0x46
	.byte	0x5
	.long	.LASF541
	.byte	0x1
	.long	0x50de
	.long	0x50e9
	.uleb128 0x2
	.long	0xa778
	.uleb128 0x1
	.long	0x4c1c
	.byte	0
	.uleb128 0x15
	.long	.LASF75
	.byte	0x2
	.value	0x1e8
	.byte	0x32
	.long	0x8dfa
	.uleb128 0x6
	.long	.LASF213
	.byte	0x2
	.value	0x4e3
	.byte	0x7
	.long	.LASF542
	.long	0x50e9
	.byte	0x1
	.long	0x5110
	.long	0x511b
	.uleb128 0x2
	.long	0xa778
	.uleb128 0x1
	.long	0x4c1c
	.byte	0
	.uleb128 0x15
	.long	.LASF78
	.byte	0x2
	.value	0x1e9
	.byte	0x37
	.long	0x8e06
	.uleb128 0x6
	.long	.LASF213
	.byte	0x2
	.value	0x4f6
	.byte	0x7
	.long	.LASF543
	.long	0x511b
	.byte	0x1
	.long	0x5142
	.long	0x514d
	.uleb128 0x2
	.long	0xa7a0
	.uleb128 0x1
	.long	0x4c1c
	.byte	0
	.uleb128 0x10
	.long	.LASF216
	.byte	0x2
	.value	0x500
	.byte	0x7
	.long	.LASF544
	.byte	0x2
	.long	0x5163
	.long	0x516e
	.uleb128 0x2
	.long	0xa7a0
	.uleb128 0x1
	.long	0x4c1c
	.byte	0
	.uleb128 0x3a
	.string	"at"
	.value	0x517
	.long	.LASF545
	.long	0x50e9
	.long	0x5184
	.long	0x518f
	.uleb128 0x2
	.long	0xa778
	.uleb128 0x1
	.long	0x4c1c
	.byte	0
	.uleb128 0x3a
	.string	"at"
	.value	0x52a
	.long	.LASF546
	.long	0x511b
	.long	0x51a5
	.long	0x51b0
	.uleb128 0x2
	.long	0xa7a0
	.uleb128 0x1
	.long	0x4c1c
	.byte	0
	.uleb128 0x6
	.long	.LASF220
	.byte	0x2
	.value	0x536
	.byte	0x7
	.long	.LASF547
	.long	0x50e9
	.byte	0x1
	.long	0x51ca
	.long	0x51d0
	.uleb128 0x2
	.long	0xa778
	.byte	0
	.uleb128 0x6
	.long	.LASF220
	.byte	0x2
	.value	0x542
	.byte	0x7
	.long	.LASF548
	.long	0x511b
	.byte	0x1
	.long	0x51ea
	.long	0x51f0
	.uleb128 0x2
	.long	0xa7a0
	.byte	0
	.uleb128 0x6
	.long	.LASF223
	.byte	0x2
	.value	0x54e
	.byte	0x7
	.long	.LASF549
	.long	0x50e9
	.byte	0x1
	.long	0x520a
	.long	0x5210
	.uleb128 0x2
	.long	0xa778
	.byte	0
	.uleb128 0x6
	.long	.LASF223
	.byte	0x2
	.value	0x55a
	.byte	0x7
	.long	.LASF550
	.long	0x511b
	.byte	0x1
	.long	0x522a
	.long	0x5230
	.uleb128 0x2
	.long	0xa7a0
	.byte	0
	.uleb128 0x6
	.long	.LASF226
	.byte	0x2
	.value	0x569
	.byte	0x7
	.long	.LASF551
	.long	0xa6dd
	.byte	0x1
	.long	0x524a
	.long	0x5250
	.uleb128 0x2
	.long	0xa778
	.byte	0
	.uleb128 0x6
	.long	.LASF226
	.byte	0x2
	.value	0x56e
	.byte	0x7
	.long	.LASF552
	.long	0x7886
	.byte	0x1
	.long	0x526a
	.long	0x5270
	.uleb128 0x2
	.long	0xa7a0
	.byte	0
	.uleb128 0x10
	.long	.LASF229
	.byte	0x2
	.value	0x57e
	.byte	0x7
	.long	.LASF553
	.byte	0x1
	.long	0x5286
	.long	0x5291
	.uleb128 0x2
	.long	0xa778
	.uleb128 0x1
	.long	0xa787
	.byte	0
	.uleb128 0x10
	.long	.LASF229
	.byte	0x2
	.value	0x58f
	.byte	0x7
	.long	.LASF554
	.byte	0x1
	.long	0x52a7
	.long	0x52b2
	.uleb128 0x2
	.long	0xa778
	.uleb128 0x1
	.long	0xa7a5
	.byte	0
	.uleb128 0x10
	.long	.LASF232
	.byte	0x2
	.value	0x5a7
	.byte	0x7
	.long	.LASF555
	.byte	0x1
	.long	0x52c8
	.long	0x52ce
	.uleb128 0x2
	.long	0xa778
	.byte	0
	.uleb128 0x22
	.long	.LASF234
	.byte	0x7
	.byte	0x89
	.byte	0x5
	.long	.LASF556
	.long	0x4e38
	.byte	0x1
	.long	0x52e7
	.long	0x52f7
	.uleb128 0x2
	.long	0xa778
	.uleb128 0x1
	.long	0x4e65
	.uleb128 0x1
	.long	0xa787
	.byte	0
	.uleb128 0x6
	.long	.LASF234
	.byte	0x2
	.value	0x5ee
	.byte	0x7
	.long	.LASF557
	.long	0x4e38
	.byte	0x1
	.long	0x5311
	.long	0x5321
	.uleb128 0x2
	.long	0xa778
	.uleb128 0x1
	.long	0x4e65
	.uleb128 0x1
	.long	0xa7a5
	.byte	0
	.uleb128 0x6
	.long	.LASF234
	.byte	0x2
	.value	0x600
	.byte	0x7
	.long	.LASF558
	.long	0x4e38
	.byte	0x1
	.long	0x533b
	.long	0x534b
	.uleb128 0x2
	.long	0xa778
	.uleb128 0x1
	.long	0x4e65
	.uleb128 0x1
	.long	0x5697
	.byte	0
	.uleb128 0x6
	.long	.LASF234
	.byte	0x2
	.value	0x61a
	.byte	0x7
	.long	.LASF559
	.long	0x4e38
	.byte	0x1
	.long	0x5365
	.long	0x537a
	.uleb128 0x2
	.long	0xa778
	.uleb128 0x1
	.long	0x4e65
	.uleb128 0x1
	.long	0x4c1c
	.uleb128 0x1
	.long	0xa787
	.byte	0
	.uleb128 0x6
	.long	.LASF239
	.byte	0x2
	.value	0x6f6
	.byte	0x7
	.long	.LASF560
	.long	0x4e38
	.byte	0x1
	.long	0x5394
	.long	0x539f
	.uleb128 0x2
	.long	0xa778
	.uleb128 0x1
	.long	0x4e65
	.byte	0
	.uleb128 0x6
	.long	.LASF239
	.byte	0x2
	.value	0x712
	.byte	0x7
	.long	.LASF561
	.long	0x4e38
	.byte	0x1
	.long	0x53b9
	.long	0x53c9
	.uleb128 0x2
	.long	0xa778
	.uleb128 0x1
	.long	0x4e65
	.uleb128 0x1
	.long	0x4e65
	.byte	0
	.uleb128 0x10
	.long	.LASF40
	.byte	0x2
	.value	0x72a
	.byte	0x7
	.long	.LASF562
	.byte	0x1
	.long	0x53df
	.long	0x53ea
	.uleb128 0x2
	.long	0xa778
	.uleb128 0x1
	.long	0xa79b
	.byte	0
	.uleb128 0x10
	.long	.LASF243
	.byte	0x2
	.value	0x73d
	.byte	0x7
	.long	.LASF563
	.byte	0x1
	.long	0x5400
	.long	0x5406
	.uleb128 0x2
	.long	0xa778
	.byte	0
	.uleb128 0x10
	.long	.LASF245
	.byte	0x2
	.value	0x7c3
	.byte	0x7
	.long	.LASF564
	.byte	0x2
	.long	0x541c
	.long	0x542c
	.uleb128 0x2
	.long	0xa778
	.uleb128 0x1
	.long	0x4c1c
	.uleb128 0x1
	.long	0xa787
	.byte	0
	.uleb128 0x10
	.long	.LASF247
	.byte	0x2
	.value	0x7ce
	.byte	0x7
	.long	.LASF565
	.byte	0x2
	.long	0x5442
	.long	0x544d
	.uleb128 0x2
	.long	0xa778
	.uleb128 0x1
	.long	0x4c1c
	.byte	0
	.uleb128 0x10
	.long	.LASF249
	.byte	0x7
	.value	0x112
	.byte	0x5
	.long	.LASF566
	.byte	0x2
	.long	0x5463
	.long	0x5473
	.uleb128 0x2
	.long	0xa778
	.uleb128 0x1
	.long	0x2bc
	.uleb128 0x1
	.long	0xa787
	.byte	0
	.uleb128 0x10
	.long	.LASF251
	.byte	0x7
	.value	0x296
	.byte	0x5
	.long	.LASF567
	.byte	0x2
	.long	0x5489
	.long	0x549e
	.uleb128 0x2
	.long	0xa778
	.uleb128 0x1
	.long	0x4e38
	.uleb128 0x1
	.long	0x4c1c
	.uleb128 0x1
	.long	0xa787
	.byte	0
	.uleb128 0x10
	.long	.LASF253
	.byte	0x7
	.value	0x300
	.byte	0x5
	.long	.LASF568
	.byte	0x2
	.long	0x54b4
	.long	0x54c4
	.uleb128 0x2
	.long	0xa778
	.uleb128 0x1
	.long	0x4c1c
	.uleb128 0x1
	.long	0xa787
	.byte	0
	.uleb128 0x10
	.long	.LASF255
	.byte	0x7
	.value	0x339
	.byte	0x5
	.long	.LASF569
	.byte	0x2
	.long	0x54da
	.long	0x54e5
	.uleb128 0x2
	.long	0xa778
	.uleb128 0x1
	.long	0x4c1c
	.byte	0
	.uleb128 0x6
	.long	.LASF257
	.byte	0x7
	.value	0x396
	.byte	0x5
	.long	.LASF570
	.long	0x92bf
	.byte	0x2
	.long	0x54ff
	.long	0x5505
	.uleb128 0x2
	.long	0xa778
	.byte	0
	.uleb128 0x6
	.long	.LASF259
	.byte	0x7
	.value	0x16f
	.byte	0x5
	.long	.LASF571
	.long	0x4e38
	.byte	0x2
	.long	0x551f
	.long	0x552f
	.uleb128 0x2
	.long	0xa778
	.uleb128 0x1
	.long	0x4e65
	.uleb128 0x1
	.long	0xa7a5
	.byte	0
	.uleb128 0x6
	.long	.LASF261
	.byte	0x2
	.value	0x889
	.byte	0x7
	.long	.LASF572
	.long	0x4e38
	.byte	0x2
	.long	0x5549
	.long	0x5559
	.uleb128 0x2
	.long	0xa778
	.uleb128 0x1
	.long	0x4e65
	.uleb128 0x1
	.long	0xa7a5
	.byte	0
	.uleb128 0x6
	.long	.LASF263
	.byte	0x2
	.value	0x890
	.byte	0x7
	.long	.LASF573
	.long	0x4c1c
	.byte	0x2
	.long	0x5573
	.long	0x5583
	.uleb128 0x2
	.long	0xa7a0
	.uleb128 0x1
	.long	0x4c1c
	.uleb128 0x1
	.long	0x788b
	.byte	0
	.uleb128 0x52
	.long	.LASF265
	.value	0x89b
	.long	.LASF574
	.long	0x4c1c
	.long	0x55a1
	.uleb128 0x1
	.long	0x4c1c
	.uleb128 0x1
	.long	0xa782
	.byte	0
	.uleb128 0x52
	.long	.LASF267
	.value	0x8a4
	.long	.LASF575
	.long	0x4c1c
	.long	0x55ba
	.uleb128 0x1
	.long	0xa7aa
	.byte	0
	.uleb128 0x10
	.long	.LASF269
	.byte	0x2
	.value	0x8b5
	.byte	0x7
	.long	.LASF576
	.byte	0x2
	.long	0x55d0
	.long	0x55db
	.uleb128 0x2
	.long	0xa778
	.uleb128 0x1
	.long	0x4b65
	.byte	0
	.uleb128 0x22
	.long	.LASF271
	.byte	0x7
	.byte	0xb9
	.byte	0x5
	.long	.LASF577
	.long	0x4e38
	.byte	0x2
	.long	0x55f4
	.long	0x55ff
	.uleb128 0x2
	.long	0xa778
	.uleb128 0x1
	.long	0x4e38
	.byte	0
	.uleb128 0x22
	.long	.LASF271
	.byte	0x7
	.byte	0xc7
	.byte	0x5
	.long	.LASF578
	.long	0x4e38
	.byte	0x2
	.long	0x5618
	.long	0x5628
	.uleb128 0x2
	.long	0xa778
	.uleb128 0x1
	.long	0x4e38
	.uleb128 0x1
	.long	0x4e38
	.byte	0
	.uleb128 0x1c
	.long	.LASF274
	.value	0x8cf
	.long	.LASF579
	.long	0x563b
	.long	0x564b
	.uleb128 0x2
	.long	0xa778
	.uleb128 0x1
	.long	0xa791
	.uleb128 0x1
	.long	0x63c
	.byte	0
	.uleb128 0x1c
	.long	.LASF274
	.value	0x8db
	.long	.LASF580
	.long	0x565e
	.long	0x566e
	.uleb128 0x2
	.long	0xa778
	.uleb128 0x1
	.long	0xa791
	.uleb128 0x1
	.long	0x3ac
	.byte	0
	.uleb128 0xf
	.string	"_Tp"
	.long	0x4f
	.uleb128 0x64
	.long	.LASF146
	.long	0x4589
	.byte	0
	.uleb128 0x7
	.long	0x4ad9
	.uleb128 0x8
	.long	.LASF279
	.byte	0x13
	.byte	0xad
	.byte	0xb
	.long	0x4ac3
	.uleb128 0x7
	.long	0x5686
	.uleb128 0x3e
	.long	.LASF581
	.byte	0x10
	.byte	0x24
	.byte	0x2f
	.long	0x5784
	.uleb128 0x28
	.long	.LASF176
	.byte	0x24
	.byte	0x36
	.byte	0x1a
	.long	0x7886
	.uleb128 0x11
	.long	.LASF582
	.byte	0x24
	.byte	0x3a
	.byte	0x12
	.long	0x56a3
	.byte	0
	.uleb128 0x28
	.long	.LASF81
	.byte	0x24
	.byte	0x35
	.byte	0x18
	.long	0x2bc
	.uleb128 0x11
	.long	.LASF439
	.byte	0x24
	.byte	0x3b
	.byte	0x13
	.long	0x56bc
	.byte	0x8
	.uleb128 0x23
	.long	.LASF583
	.byte	0x24
	.byte	0x3e
	.byte	0x11
	.long	.LASF584
	.long	0x56e9
	.long	0x56f9
	.uleb128 0x2
	.long	0xa7af
	.uleb128 0x1
	.long	0x56f9
	.uleb128 0x1
	.long	0x56bc
	.byte	0
	.uleb128 0x28
	.long	.LASF179
	.byte	0x24
	.byte	0x37
	.byte	0x1a
	.long	0x7886
	.uleb128 0x24
	.long	.LASF583
	.byte	0x24
	.byte	0x42
	.byte	0x11
	.long	.LASF585
	.byte	0x1
	.long	0x571a
	.long	0x5720
	.uleb128 0x2
	.long	0xa7af
	.byte	0
	.uleb128 0x22
	.long	.LASF199
	.byte	0x24
	.byte	0x47
	.byte	0x7
	.long	.LASF586
	.long	0x56bc
	.byte	0x1
	.long	0x5739
	.long	0x573f
	.uleb128 0x2
	.long	0xa7b4
	.byte	0
	.uleb128 0x22
	.long	.LASF177
	.byte	0x24
	.byte	0x4b
	.byte	0x7
	.long	.LASF587
	.long	0x56f9
	.byte	0x1
	.long	0x5758
	.long	0x575e
	.uleb128 0x2
	.long	0xa7b4
	.byte	0
	.uleb128 0x8e
	.string	"end"
	.byte	0x4f
	.long	.LASF728
	.long	0x56f9
	.long	0x5775
	.long	0x577b
	.uleb128 0x2
	.long	0xa7b4
	.byte	0
	.uleb128 0xf
	.string	"_E"
	.long	0x4f
	.byte	0
	.uleb128 0x7
	.long	0x5697
	.uleb128 0x35
	.long	.LASF588
	.uleb128 0x35
	.long	.LASF589
	.uleb128 0x19
	.long	.LASF590
	.byte	0x1
	.byte	0x16
	.byte	0xd4
	.byte	0xc
	.long	0x57ce
	.uleb128 0x8
	.long	.LASF447
	.byte	0x16
	.byte	0xd8
	.byte	0x2b
	.long	0x62f
	.uleb128 0x8
	.long	.LASF74
	.byte	0x16
	.byte	0xd9
	.byte	0x2b
	.long	0xa5ca
	.uleb128 0x8
	.long	.LASF75
	.byte	0x16
	.byte	0xda
	.byte	0x2b
	.long	0xa5de
	.uleb128 0xa
	.long	.LASF448
	.long	0xa5ca
	.byte	0
	.uleb128 0x3e
	.long	.LASF591
	.byte	0x1
	.byte	0x6
	.byte	0x3f
	.long	0x596c
	.uleb128 0x24
	.long	.LASF64
	.byte	0x6
	.byte	0x58
	.byte	0x7
	.long	.LASF592
	.byte	0x1
	.long	0x57ef
	.long	0x57f5
	.uleb128 0x2
	.long	0xa7d7
	.byte	0
	.uleb128 0x24
	.long	.LASF64
	.byte	0x6
	.byte	0x5c
	.byte	0x7
	.long	.LASF593
	.byte	0x1
	.long	0x580a
	.long	0x5815
	.uleb128 0x2
	.long	0xa7d7
	.uleb128 0x1
	.long	0xa7e1
	.byte	0
	.uleb128 0x4e
	.long	.LASF35
	.byte	0x6
	.byte	0x64
	.byte	0x18
	.long	.LASF594
	.long	0xa7e6
	.long	0x582d
	.long	0x5838
	.uleb128 0x2
	.long	0xa7d7
	.uleb128 0x1
	.long	0xa7e1
	.byte	0
	.uleb128 0x24
	.long	.LASF70
	.byte	0x6
	.byte	0x68
	.byte	0x7
	.long	.LASF595
	.byte	0x1
	.long	0x584d
	.long	0x5853
	.uleb128 0x2
	.long	0xa7d7
	.byte	0
	.uleb128 0x28
	.long	.LASF74
	.byte	0x6
	.byte	0x46
	.byte	0x1a
	.long	0xa7eb
	.uleb128 0x22
	.long	.LASF72
	.byte	0x6
	.byte	0x6b
	.byte	0x7
	.long	.LASF596
	.long	0x5853
	.byte	0x1
	.long	0x5878
	.long	0x5883
	.uleb128 0x2
	.long	0xa7f5
	.uleb128 0x1
	.long	0x5883
	.byte	0
	.uleb128 0x28
	.long	.LASF75
	.byte	0x6
	.byte	0x48
	.byte	0x1a
	.long	0xa7ff
	.uleb128 0x28
	.long	.LASF76
	.byte	0x6
	.byte	0x47
	.byte	0x1a
	.long	0xa804
	.uleb128 0x22
	.long	.LASF72
	.byte	0x6
	.byte	0x6f
	.byte	0x7
	.long	.LASF597
	.long	0x588f
	.byte	0x1
	.long	0x58b4
	.long	0x58bf
	.uleb128 0x2
	.long	0xa7f5
	.uleb128 0x1
	.long	0x58bf
	.byte	0
	.uleb128 0x28
	.long	.LASF78
	.byte	0x6
	.byte	0x49
	.byte	0x1a
	.long	0xa809
	.uleb128 0x22
	.long	.LASF79
	.byte	0x6
	.byte	0x81
	.byte	0x7
	.long	.LASF598
	.long	0xa7eb
	.byte	0x1
	.long	0x58e4
	.long	0x58f4
	.uleb128 0x2
	.long	0xa7d7
	.uleb128 0x1
	.long	0x58f4
	.uleb128 0x1
	.long	0x9315
	.byte	0
	.uleb128 0x28
	.long	.LASF81
	.byte	0x6
	.byte	0x43
	.byte	0x1f
	.long	0x2bc
	.uleb128 0x24
	.long	.LASF82
	.byte	0x6
	.byte	0xa7
	.byte	0x7
	.long	.LASF599
	.byte	0x1
	.long	0x5915
	.long	0x5925
	.uleb128 0x2
	.long	0xa7d7
	.uleb128 0x1
	.long	0xa7eb
	.uleb128 0x1
	.long	0x58f4
	.byte	0
	.uleb128 0x22
	.long	.LASF84
	.byte	0x6
	.byte	0xc2
	.byte	0x7
	.long	.LASF600
	.long	0x58f4
	.byte	0x1
	.long	0x593e
	.long	0x5944
	.uleb128 0x2
	.long	0xa7f5
	.byte	0
	.uleb128 0x45
	.long	.LASF86
	.byte	0x6
	.byte	0xf2
	.byte	0x7
	.long	.LASF601
	.long	0x58f4
	.long	0x595c
	.long	0x5962
	.uleb128 0x2
	.long	0xa7f5
	.byte	0
	.uleb128 0xf
	.string	"_Tp"
	.long	0x30
	.byte	0
	.uleb128 0x7
	.long	0x57ce
	.uleb128 0x3e
	.long	.LASF602
	.byte	0x1
	.byte	0x5
	.byte	0x85
	.long	0x59f5
	.uleb128 0x48
	.long	0x57ce
	.byte	0x1
	.uleb128 0x24
	.long	.LASF89
	.byte	0x5
	.byte	0xa8
	.byte	0x7
	.long	.LASF603
	.byte	0x1
	.long	0x5998
	.long	0x599e
	.uleb128 0x2
	.long	0xa80e
	.byte	0
	.uleb128 0x24
	.long	.LASF89
	.byte	0x5
	.byte	0xac
	.byte	0x7
	.long	.LASF604
	.byte	0x1
	.long	0x59b3
	.long	0x59be
	.uleb128 0x2
	.long	0xa80e
	.uleb128 0x1
	.long	0xa818
	.byte	0
	.uleb128 0x4e
	.long	.LASF35
	.byte	0x5
	.byte	0xb1
	.byte	0x12
	.long	.LASF605
	.long	0xa81d
	.long	0x59d6
	.long	0x59e1
	.uleb128 0x2
	.long	0xa80e
	.uleb128 0x1
	.long	0xa818
	.byte	0
	.uleb128 0x6e
	.long	.LASF93
	.long	.LASF606
	.long	0x59ee
	.uleb128 0x2
	.long	0xa80e
	.byte	0
	.byte	0
	.uleb128 0x7
	.long	0x5971
	.uleb128 0x58
	.long	.LASF607
	.byte	0x1
	.byte	0x8
	.value	0x248
	.byte	0xc
	.long	0x5af8
	.uleb128 0x1e
	.long	.LASF74
	.byte	0x8
	.value	0x251
	.byte	0xd
	.long	0xa7eb
	.uleb128 0x17
	.long	.LASF79
	.byte	0x8
	.value	0x27d
	.byte	0x7
	.long	.LASF608
	.long	0x5a08
	.long	0x5a35
	.uleb128 0x1
	.long	0xa822
	.uleb128 0x1
	.long	0x5a47
	.byte	0
	.uleb128 0x1e
	.long	.LASF98
	.byte	0x8
	.value	0x24b
	.byte	0xd
	.long	0x5971
	.uleb128 0x7
	.long	0x5a35
	.uleb128 0x1e
	.long	.LASF81
	.byte	0x8
	.value	0x260
	.byte	0xd
	.long	0x2bc
	.uleb128 0x17
	.long	.LASF79
	.byte	0x8
	.value	0x28c
	.byte	0x7
	.long	.LASF609
	.long	0x5a08
	.long	0x5a79
	.uleb128 0x1
	.long	0xa822
	.uleb128 0x1
	.long	0x5a47
	.uleb128 0x1
	.long	0x5a79
	.byte	0
	.uleb128 0x1e
	.long	.LASF100
	.byte	0x8
	.value	0x25a
	.byte	0xd
	.long	0x9315
	.uleb128 0x39
	.long	.LASF82
	.byte	0x8
	.value	0x2b0
	.byte	0x7
	.long	.LASF610
	.long	0x5aa7
	.uleb128 0x1
	.long	0xa822
	.uleb128 0x1
	.long	0x5a08
	.uleb128 0x1
	.long	0x5a47
	.byte	0
	.uleb128 0x17
	.long	.LASF84
	.byte	0x8
	.value	0x2ed
	.byte	0x7
	.long	.LASF611
	.long	0x5a47
	.long	0x5ac2
	.uleb128 0x1
	.long	0xa827
	.byte	0
	.uleb128 0x17
	.long	.LASF102
	.byte	0x8
	.value	0x2fd
	.byte	0x7
	.long	.LASF612
	.long	0x5a35
	.long	0x5add
	.uleb128 0x1
	.long	0xa827
	.byte	0
	.uleb128 0x1e
	.long	.LASF6
	.byte	0x8
	.value	0x24e
	.byte	0xd
	.long	0x30
	.uleb128 0x1e
	.long	.LASF104
	.byte	0x8
	.value	0x26f
	.byte	0x8
	.long	0x5971
	.byte	0
	.uleb128 0x19
	.long	.LASF613
	.byte	0x18
	.byte	0x2
	.byte	0x5b
	.byte	0xc
	.long	0x5e99
	.uleb128 0x19
	.long	.LASF106
	.byte	0x18
	.byte	0x2
	.byte	0x62
	.byte	0xe
	.long	0x5bab
	.uleb128 0x11
	.long	.LASF108
	.byte	0x2
	.byte	0x64
	.byte	0xa
	.long	0x5bb0
	.byte	0
	.uleb128 0x11
	.long	.LASF109
	.byte	0x2
	.byte	0x65
	.byte	0xa
	.long	0x5bb0
	.byte	0x8
	.uleb128 0x11
	.long	.LASF110
	.byte	0x2
	.byte	0x66
	.byte	0xa
	.long	0x5bb0
	.byte	0x10
	.uleb128 0x23
	.long	.LASF106
	.byte	0x2
	.byte	0x69
	.byte	0x2
	.long	.LASF614
	.long	0x5b4d
	.long	0x5b53
	.uleb128 0x2
	.long	0xa836
	.byte	0
	.uleb128 0x23
	.long	.LASF106
	.byte	0x2
	.byte	0x6f
	.byte	0x2
	.long	.LASF615
	.long	0x5b67
	.long	0x5b72
	.uleb128 0x2
	.long	0xa836
	.uleb128 0x1
	.long	0xa840
	.byte	0
	.uleb128 0x23
	.long	.LASF113
	.byte	0x2
	.byte	0x77
	.byte	0x2
	.long	.LASF616
	.long	0x5b86
	.long	0x5b91
	.uleb128 0x2
	.long	0xa836
	.uleb128 0x1
	.long	0xa845
	.byte	0
	.uleb128 0x63
	.long	.LASF115
	.byte	0x80
	.long	.LASF617
	.long	0x5b9f
	.uleb128 0x2
	.long	0xa836
	.uleb128 0x1
	.long	0xa84a
	.byte	0
	.byte	0
	.uleb128 0x7
	.long	0x5b05
	.uleb128 0x8
	.long	.LASF74
	.byte	0x2
	.byte	0x60
	.byte	0x9
	.long	0x8f07
	.uleb128 0x19
	.long	.LASF116
	.byte	0x18
	.byte	0x2
	.byte	0x8b
	.byte	0xe
	.long	0x5c82
	.uleb128 0x37
	.long	0x5971
	.uleb128 0x37
	.long	0x5b05
	.uleb128 0x23
	.long	.LASF116
	.byte	0x2
	.byte	0x8f
	.byte	0x2
	.long	.LASF618
	.long	0x5be7
	.long	0x5bed
	.uleb128 0x2
	.long	0xa84f
	.byte	0
	.uleb128 0x23
	.long	.LASF116
	.byte	0x2
	.byte	0x98
	.byte	0x2
	.long	.LASF619
	.long	0x5c01
	.long	0x5c0c
	.uleb128 0x2
	.long	0xa84f
	.uleb128 0x1
	.long	0xa859
	.byte	0
	.uleb128 0x23
	.long	.LASF116
	.byte	0x2
	.byte	0xa0
	.byte	0x2
	.long	.LASF620
	.long	0x5c20
	.long	0x5c2b
	.uleb128 0x2
	.long	0xa84f
	.uleb128 0x1
	.long	0xa85e
	.byte	0
	.uleb128 0x23
	.long	.LASF116
	.byte	0x2
	.byte	0xa5
	.byte	0x2
	.long	.LASF621
	.long	0x5c3f
	.long	0x5c4a
	.uleb128 0x2
	.long	0xa84f
	.uleb128 0x1
	.long	0xa863
	.byte	0
	.uleb128 0x23
	.long	.LASF116
	.byte	0x2
	.byte	0xaa
	.byte	0x2
	.long	.LASF622
	.long	0x5c5e
	.long	0x5c6e
	.uleb128 0x2
	.long	0xa84f
	.uleb128 0x1
	.long	0xa863
	.uleb128 0x1
	.long	0xa85e
	.byte	0
	.uleb128 0x6f
	.long	.LASF481
	.long	.LASF623
	.long	0x5c7b
	.uleb128 0x2
	.long	0xa84f
	.byte	0
	.byte	0
	.uleb128 0x8
	.long	.LASF122
	.byte	0x2
	.byte	0x5e
	.byte	0x15
	.long	0x8f38
	.uleb128 0x7
	.long	0x5c82
	.uleb128 0x38
	.long	.LASF123
	.value	0x133
	.byte	0x7
	.long	.LASF624
	.long	0xa868
	.long	0x5cab
	.long	0x5cb1
	.uleb128 0x2
	.long	0xa86d
	.byte	0
	.uleb128 0x38
	.long	.LASF123
	.value	0x138
	.byte	0x7
	.long	.LASF625
	.long	0xa859
	.long	0x5cc9
	.long	0x5ccf
	.uleb128 0x2
	.long	0xa877
	.byte	0
	.uleb128 0x1e
	.long	.LASF98
	.byte	0x2
	.value	0x12f
	.byte	0x16
	.long	0x5971
	.uleb128 0x7
	.long	0x5ccf
	.uleb128 0x38
	.long	.LASF126
	.value	0x13d
	.byte	0x7
	.long	.LASF626
	.long	0x5ccf
	.long	0x5cf9
	.long	0x5cff
	.uleb128 0x2
	.long	0xa877
	.byte	0
	.uleb128 0x4f
	.long	.LASF128
	.value	0x141
	.long	.LASF627
	.long	0x5d12
	.long	0x5d18
	.uleb128 0x2
	.long	0xa86d
	.byte	0
	.uleb128 0x1c
	.long	.LASF128
	.value	0x147
	.long	.LASF628
	.long	0x5d2b
	.long	0x5d36
	.uleb128 0x2
	.long	0xa86d
	.uleb128 0x1
	.long	0xa87c
	.byte	0
	.uleb128 0x1c
	.long	.LASF128
	.value	0x14d
	.long	.LASF629
	.long	0x5d49
	.long	0x5d54
	.uleb128 0x2
	.long	0xa86d
	.uleb128 0x1
	.long	0x2bc
	.byte	0
	.uleb128 0x1c
	.long	.LASF128
	.value	0x153
	.long	.LASF630
	.long	0x5d67
	.long	0x5d77
	.uleb128 0x2
	.long	0xa86d
	.uleb128 0x1
	.long	0x2bc
	.uleb128 0x1
	.long	0xa87c
	.byte	0
	.uleb128 0x4f
	.long	.LASF128
	.value	0x158
	.long	.LASF631
	.long	0x5d8a
	.long	0x5d95
	.uleb128 0x2
	.long	0xa86d
	.uleb128 0x1
	.long	0xa881
	.byte	0
	.uleb128 0x1c
	.long	.LASF128
	.value	0x15d
	.long	.LASF632
	.long	0x5da8
	.long	0x5db3
	.uleb128 0x2
	.long	0xa86d
	.uleb128 0x1
	.long	0xa863
	.byte	0
	.uleb128 0x1c
	.long	.LASF128
	.value	0x161
	.long	.LASF633
	.long	0x5dc6
	.long	0x5dd6
	.uleb128 0x2
	.long	0xa86d
	.uleb128 0x1
	.long	0xa881
	.uleb128 0x1
	.long	0xa87c
	.byte	0
	.uleb128 0x1c
	.long	.LASF128
	.value	0x16f
	.long	.LASF634
	.long	0x5de9
	.long	0x5df9
	.uleb128 0x2
	.long	0xa86d
	.uleb128 0x1
	.long	0xa87c
	.uleb128 0x1
	.long	0xa881
	.byte	0
	.uleb128 0x1c
	.long	.LASF137
	.value	0x175
	.long	.LASF635
	.long	0x5e0c
	.long	0x5e12
	.uleb128 0x2
	.long	0xa86d
	.byte	0
	.uleb128 0x50
	.long	.LASF139
	.value	0x17e
	.byte	0x14
	.long	0x5bbc
	.byte	0
	.uleb128 0x38
	.long	.LASF140
	.value	0x182
	.byte	0x7
	.long	.LASF636
	.long	0x5bb0
	.long	0x5e37
	.long	0x5e42
	.uleb128 0x2
	.long	0xa86d
	.uleb128 0x1
	.long	0x2bc
	.byte	0
	.uleb128 0x1c
	.long	.LASF142
	.value	0x18a
	.long	.LASF637
	.long	0x5e55
	.long	0x5e65
	.uleb128 0x2
	.long	0xa86d
	.uleb128 0x1
	.long	0x5bb0
	.uleb128 0x1
	.long	0x2bc
	.byte	0
	.uleb128 0x10
	.long	.LASF144
	.byte	0x2
	.value	0x195
	.byte	0x7
	.long	.LASF638
	.byte	0x2
	.long	0x5e7b
	.long	0x5e86
	.uleb128 0x2
	.long	0xa86d
	.uleb128 0x1
	.long	0x2bc
	.byte	0
	.uleb128 0xf
	.string	"_Tp"
	.long	0x30
	.uleb128 0xa
	.long	.LASF146
	.long	0x5971
	.byte	0
	.uleb128 0x7
	.long	0x5af8
	.uleb128 0x19
	.long	.LASF639
	.byte	0x1
	.byte	0x13
	.byte	0xa9
	.byte	0xc
	.long	0x5ec1
	.uleb128 0x8
	.long	.LASF148
	.byte	0x13
	.byte	0xaa
	.byte	0xd
	.long	0x5971
	.uleb128 0xa
	.long	.LASF149
	.long	0x5971
	.byte	0
	.uleb128 0x49
	.long	.LASF640
	.byte	0x18
	.byte	0x2
	.value	0x1cc
	.long	0x6a95
	.uleb128 0x18
	.byte	0x2
	.value	0x1cc
	.byte	0xb
	.long	0x5e1f
	.uleb128 0x18
	.byte	0x2
	.value	0x1cc
	.byte	0xb
	.long	0x5e42
	.uleb128 0x18
	.byte	0x2
	.value	0x1cc
	.byte	0xb
	.long	0x5e12
	.uleb128 0x18
	.byte	0x2
	.value	0x1cc
	.byte	0xb
	.long	0x5cb1
	.uleb128 0x18
	.byte	0x2
	.value	0x1cc
	.byte	0xb
	.long	0x5c93
	.uleb128 0x18
	.byte	0x2
	.value	0x1cc
	.byte	0xb
	.long	0x5ce1
	.uleb128 0x48
	.long	0x5af8
	.byte	0x2
	.uleb128 0x17
	.long	.LASF151
	.byte	0x2
	.value	0x1f6
	.byte	0x7
	.long	.LASF641
	.long	0x92bf
	.long	0x5f25
	.uleb128 0x1
	.long	0x63c
	.byte	0
	.uleb128 0x17
	.long	.LASF151
	.byte	0x2
	.value	0x1ff
	.byte	0x7
	.long	.LASF642
	.long	0x92bf
	.long	0x5f40
	.uleb128 0x1
	.long	0x3ac
	.byte	0
	.uleb128 0x70
	.long	.LASF345
	.long	.LASF643
	.long	0x92bf
	.uleb128 0x15
	.long	.LASF74
	.byte	0x2
	.value	0x1e6
	.byte	0x29
	.long	0x5bb0
	.uleb128 0x17
	.long	.LASF154
	.byte	0x2
	.value	0x20c
	.byte	0x7
	.long	.LASF644
	.long	0x5f4d
	.long	0x5f84
	.uleb128 0x1
	.long	0x5f4d
	.uleb128 0x1
	.long	0x5f4d
	.uleb128 0x1
	.long	0x5f4d
	.uleb128 0x1
	.long	0xa886
	.byte	0
	.uleb128 0x1e
	.long	.LASF122
	.byte	0x2
	.value	0x1e1
	.byte	0x2f
	.long	0x5c82
	.uleb128 0x7
	.long	0x5f84
	.uleb128 0x51
	.long	.LASF156
	.value	0x227
	.long	.LASF645
	.long	0x5fa9
	.long	0x5faf
	.uleb128 0x2
	.long	0xa88b
	.byte	0
	.uleb128 0x40
	.long	.LASF156
	.byte	0x2
	.value	0x232
	.long	.LASF646
	.long	0x5fc3
	.long	0x5fce
	.uleb128 0x2
	.long	0xa88b
	.uleb128 0x1
	.long	0xa895
	.byte	0
	.uleb128 0x15
	.long	.LASF98
	.byte	0x2
	.value	0x1f1
	.byte	0x1a
	.long	0x5971
	.uleb128 0x7
	.long	0x5fce
	.uleb128 0x40
	.long	.LASF156
	.byte	0x2
	.value	0x240
	.long	.LASF647
	.long	0x5ff4
	.long	0x6004
	.uleb128 0x2
	.long	0xa88b
	.uleb128 0x1
	.long	0x6004
	.uleb128 0x1
	.long	0xa895
	.byte	0
	.uleb128 0x15
	.long	.LASF81
	.byte	0x2
	.value	0x1ef
	.byte	0x1a
	.long	0x2bc
	.uleb128 0x10
	.long	.LASF156
	.byte	0x2
	.value	0x24d
	.byte	0x7
	.long	.LASF648
	.byte	0x1
	.long	0x6027
	.long	0x603c
	.uleb128 0x2
	.long	0xa88b
	.uleb128 0x1
	.long	0x6004
	.uleb128 0x1
	.long	0xa89a
	.uleb128 0x1
	.long	0xa895
	.byte	0
	.uleb128 0x15
	.long	.LASF6
	.byte	0x2
	.value	0x1e5
	.byte	0x17
	.long	0x30
	.uleb128 0x7
	.long	0x603c
	.uleb128 0x10
	.long	.LASF156
	.byte	0x2
	.value	0x26d
	.byte	0x7
	.long	.LASF649
	.byte	0x1
	.long	0x6064
	.long	0x606f
	.uleb128 0x2
	.long	0xa88b
	.uleb128 0x1
	.long	0xa89f
	.byte	0
	.uleb128 0x51
	.long	.LASF156
	.value	0x280
	.long	.LASF650
	.long	0x6082
	.long	0x608d
	.uleb128 0x2
	.long	0xa88b
	.uleb128 0x1
	.long	0xa8a4
	.byte	0
	.uleb128 0x10
	.long	.LASF156
	.byte	0x2
	.value	0x284
	.byte	0x7
	.long	.LASF651
	.byte	0x1
	.long	0x60a3
	.long	0x60b3
	.uleb128 0x2
	.long	0xa88b
	.uleb128 0x1
	.long	0xa89f
	.uleb128 0x1
	.long	0xa8a9
	.byte	0
	.uleb128 0x1c
	.long	.LASF156
	.value	0x28f
	.long	.LASF652
	.long	0x60c6
	.long	0x60db
	.uleb128 0x2
	.long	0xa88b
	.uleb128 0x1
	.long	0xa8a4
	.uleb128 0x1
	.long	0xa895
	.uleb128 0x1
	.long	0x63c
	.byte	0
	.uleb128 0x1c
	.long	.LASF156
	.value	0x294
	.long	.LASF653
	.long	0x60ee
	.long	0x6103
	.uleb128 0x2
	.long	0xa88b
	.uleb128 0x1
	.long	0xa8a4
	.uleb128 0x1
	.long	0xa895
	.uleb128 0x1
	.long	0x3ac
	.byte	0
	.uleb128 0x10
	.long	.LASF156
	.byte	0x2
	.value	0x2a7
	.byte	0x7
	.long	.LASF654
	.byte	0x1
	.long	0x6119
	.long	0x6129
	.uleb128 0x2
	.long	0xa88b
	.uleb128 0x1
	.long	0xa8a4
	.uleb128 0x1
	.long	0xa8a9
	.byte	0
	.uleb128 0x10
	.long	.LASF156
	.byte	0x2
	.value	0x2ba
	.byte	0x7
	.long	.LASF655
	.byte	0x1
	.long	0x613f
	.long	0x614f
	.uleb128 0x2
	.long	0xa88b
	.uleb128 0x1
	.long	0x6aab
	.uleb128 0x1
	.long	0xa895
	.byte	0
	.uleb128 0x10
	.long	.LASF168
	.byte	0x2
	.value	0x316
	.byte	0x7
	.long	.LASF656
	.byte	0x1
	.long	0x6165
	.long	0x616b
	.uleb128 0x2
	.long	0xa88b
	.byte	0
	.uleb128 0x22
	.long	.LASF35
	.byte	0x7
	.byte	0xd6
	.byte	0x5
	.long	.LASF657
	.long	0xa8ae
	.byte	0x1
	.long	0x6184
	.long	0x618f
	.uleb128 0x2
	.long	0xa88b
	.uleb128 0x1
	.long	0xa89f
	.byte	0
	.uleb128 0x6
	.long	.LASF35
	.byte	0x2
	.value	0x337
	.byte	0x7
	.long	.LASF658
	.long	0xa8ae
	.byte	0x1
	.long	0x61a9
	.long	0x61b4
	.uleb128 0x2
	.long	0xa88b
	.uleb128 0x1
	.long	0xa8a4
	.byte	0
	.uleb128 0x6
	.long	.LASF35
	.byte	0x2
	.value	0x34d
	.byte	0x7
	.long	.LASF659
	.long	0xa8ae
	.byte	0x1
	.long	0x61ce
	.long	0x61d9
	.uleb128 0x2
	.long	0xa88b
	.uleb128 0x1
	.long	0x6aab
	.byte	0
	.uleb128 0x10
	.long	.LASF173
	.byte	0x2
	.value	0x361
	.byte	0x7
	.long	.LASF660
	.byte	0x1
	.long	0x61ef
	.long	0x61ff
	.uleb128 0x2
	.long	0xa88b
	.uleb128 0x1
	.long	0x6004
	.uleb128 0x1
	.long	0xa89a
	.byte	0
	.uleb128 0x10
	.long	.LASF173
	.byte	0x2
	.value	0x390
	.byte	0x7
	.long	.LASF661
	.byte	0x1
	.long	0x6215
	.long	0x6220
	.uleb128 0x2
	.long	0xa88b
	.uleb128 0x1
	.long	0x6aab
	.byte	0
	.uleb128 0x15
	.long	.LASF176
	.byte	0x2
	.value	0x1ea
	.byte	0x3d
	.long	0x8f58
	.uleb128 0x6
	.long	.LASF177
	.byte	0x2
	.value	0x3dc
	.byte	0x7
	.long	.LASF662
	.long	0x6220
	.byte	0x1
	.long	0x6247
	.long	0x624d
	.uleb128 0x2
	.long	0xa88b
	.byte	0
	.uleb128 0x15
	.long	.LASF179
	.byte	0x2
	.value	0x1ec
	.byte	0x7
	.long	0x918b
	.uleb128 0x6
	.long	.LASF177
	.byte	0x2
	.value	0x3e6
	.byte	0x7
	.long	.LASF663
	.long	0x624d
	.byte	0x1
	.long	0x6274
	.long	0x627a
	.uleb128 0x2
	.long	0xa8b3
	.byte	0
	.uleb128 0x3a
	.string	"end"
	.value	0x3f0
	.long	.LASF664
	.long	0x6220
	.long	0x6291
	.long	0x6297
	.uleb128 0x2
	.long	0xa88b
	.byte	0
	.uleb128 0x3a
	.string	"end"
	.value	0x3fa
	.long	.LASF665
	.long	0x624d
	.long	0x62ae
	.long	0x62b4
	.uleb128 0x2
	.long	0xa8b3
	.byte	0
	.uleb128 0x15
	.long	.LASF183
	.byte	0x2
	.value	0x1ee
	.byte	0x30
	.long	0x6b9d
	.uleb128 0x6
	.long	.LASF184
	.byte	0x2
	.value	0x404
	.byte	0x7
	.long	.LASF666
	.long	0x62b4
	.byte	0x1
	.long	0x62db
	.long	0x62e1
	.uleb128 0x2
	.long	0xa88b
	.byte	0
	.uleb128 0x15
	.long	.LASF186
	.byte	0x2
	.value	0x1ed
	.byte	0x35
	.long	0x6ba2
	.uleb128 0x6
	.long	.LASF184
	.byte	0x2
	.value	0x40e
	.byte	0x7
	.long	.LASF667
	.long	0x62e1
	.byte	0x1
	.long	0x6308
	.long	0x630e
	.uleb128 0x2
	.long	0xa8b3
	.byte	0
	.uleb128 0x6
	.long	.LASF188
	.byte	0x2
	.value	0x418
	.byte	0x7
	.long	.LASF668
	.long	0x62b4
	.byte	0x1
	.long	0x6328
	.long	0x632e
	.uleb128 0x2
	.long	0xa88b
	.byte	0
	.uleb128 0x6
	.long	.LASF188
	.byte	0x2
	.value	0x422
	.byte	0x7
	.long	.LASF669
	.long	0x62e1
	.byte	0x1
	.long	0x6348
	.long	0x634e
	.uleb128 0x2
	.long	0xa8b3
	.byte	0
	.uleb128 0x6
	.long	.LASF191
	.byte	0x2
	.value	0x42d
	.byte	0x7
	.long	.LASF670
	.long	0x624d
	.byte	0x1
	.long	0x6368
	.long	0x636e
	.uleb128 0x2
	.long	0xa8b3
	.byte	0
	.uleb128 0x6
	.long	.LASF193
	.byte	0x2
	.value	0x437
	.byte	0x7
	.long	.LASF671
	.long	0x624d
	.byte	0x1
	.long	0x6388
	.long	0x638e
	.uleb128 0x2
	.long	0xa8b3
	.byte	0
	.uleb128 0x6
	.long	.LASF195
	.byte	0x2
	.value	0x441
	.byte	0x7
	.long	.LASF672
	.long	0x62e1
	.byte	0x1
	.long	0x63a8
	.long	0x63ae
	.uleb128 0x2
	.long	0xa8b3
	.byte	0
	.uleb128 0x6
	.long	.LASF197
	.byte	0x2
	.value	0x44b
	.byte	0x7
	.long	.LASF673
	.long	0x62e1
	.byte	0x1
	.long	0x63c8
	.long	0x63ce
	.uleb128 0x2
	.long	0xa8b3
	.byte	0
	.uleb128 0x6
	.long	.LASF199
	.byte	0x2
	.value	0x453
	.byte	0x7
	.long	.LASF674
	.long	0x6004
	.byte	0x1
	.long	0x63e8
	.long	0x63ee
	.uleb128 0x2
	.long	0xa8b3
	.byte	0
	.uleb128 0x6
	.long	.LASF84
	.byte	0x2
	.value	0x45e
	.byte	0x7
	.long	.LASF675
	.long	0x6004
	.byte	0x1
	.long	0x6408
	.long	0x640e
	.uleb128 0x2
	.long	0xa8b3
	.byte	0
	.uleb128 0x10
	.long	.LASF202
	.byte	0x2
	.value	0x46d
	.byte	0x7
	.long	.LASF676
	.byte	0x1
	.long	0x6424
	.long	0x642f
	.uleb128 0x2
	.long	0xa88b
	.uleb128 0x1
	.long	0x6004
	.byte	0
	.uleb128 0x10
	.long	.LASF202
	.byte	0x2
	.value	0x482
	.byte	0x7
	.long	.LASF677
	.byte	0x1
	.long	0x6445
	.long	0x6455
	.uleb128 0x2
	.long	0xa88b
	.uleb128 0x1
	.long	0x6004
	.uleb128 0x1
	.long	0xa89a
	.byte	0
	.uleb128 0x10
	.long	.LASF205
	.byte	0x2
	.value	0x4a4
	.byte	0x7
	.long	.LASF678
	.byte	0x1
	.long	0x646b
	.long	0x6471
	.uleb128 0x2
	.long	0xa88b
	.byte	0
	.uleb128 0x6
	.long	.LASF207
	.byte	0x2
	.value	0x4ae
	.byte	0x7
	.long	.LASF679
	.long	0x6004
	.byte	0x1
	.long	0x648b
	.long	0x6491
	.uleb128 0x2
	.long	0xa8b3
	.byte	0
	.uleb128 0x6
	.long	.LASF209
	.byte	0x2
	.value	0x4bd
	.byte	0x7
	.long	.LASF680
	.long	0x92bf
	.byte	0x1
	.long	0x64ab
	.long	0x64b1
	.uleb128 0x2
	.long	0xa8b3
	.byte	0
	.uleb128 0x24
	.long	.LASF211
	.byte	0x7
	.byte	0x46
	.byte	0x5
	.long	.LASF681
	.byte	0x1
	.long	0x64c6
	.long	0x64d1
	.uleb128 0x2
	.long	0xa88b
	.uleb128 0x1
	.long	0x6004
	.byte	0
	.uleb128 0x15
	.long	.LASF75
	.byte	0x2
	.value	0x1e8
	.byte	0x32
	.long	0x8f13
	.uleb128 0x6
	.long	.LASF213
	.byte	0x2
	.value	0x4e3
	.byte	0x7
	.long	.LASF682
	.long	0x64d1
	.byte	0x1
	.long	0x64f8
	.long	0x6503
	.uleb128 0x2
	.long	0xa88b
	.uleb128 0x1
	.long	0x6004
	.byte	0
	.uleb128 0x15
	.long	.LASF78
	.byte	0x2
	.value	0x1e9
	.byte	0x37
	.long	0x8f1f
	.uleb128 0x6
	.long	.LASF213
	.byte	0x2
	.value	0x4f6
	.byte	0x7
	.long	.LASF683
	.long	0x6503
	.byte	0x1
	.long	0x652a
	.long	0x6535
	.uleb128 0x2
	.long	0xa8b3
	.uleb128 0x1
	.long	0x6004
	.byte	0
	.uleb128 0x10
	.long	.LASF216
	.byte	0x2
	.value	0x500
	.byte	0x7
	.long	.LASF684
	.byte	0x2
	.long	0x654b
	.long	0x6556
	.uleb128 0x2
	.long	0xa8b3
	.uleb128 0x1
	.long	0x6004
	.byte	0
	.uleb128 0x3a
	.string	"at"
	.value	0x517
	.long	.LASF685
	.long	0x64d1
	.long	0x656c
	.long	0x6577
	.uleb128 0x2
	.long	0xa88b
	.uleb128 0x1
	.long	0x6004
	.byte	0
	.uleb128 0x3a
	.string	"at"
	.value	0x52a
	.long	.LASF686
	.long	0x6503
	.long	0x658d
	.long	0x6598
	.uleb128 0x2
	.long	0xa8b3
	.uleb128 0x1
	.long	0x6004
	.byte	0
	.uleb128 0x6
	.long	.LASF220
	.byte	0x2
	.value	0x536
	.byte	0x7
	.long	.LASF687
	.long	0x64d1
	.byte	0x1
	.long	0x65b2
	.long	0x65b8
	.uleb128 0x2
	.long	0xa88b
	.byte	0
	.uleb128 0x6
	.long	.LASF220
	.byte	0x2
	.value	0x542
	.byte	0x7
	.long	.LASF688
	.long	0x6503
	.byte	0x1
	.long	0x65d2
	.long	0x65d8
	.uleb128 0x2
	.long	0xa8b3
	.byte	0
	.uleb128 0x6
	.long	.LASF223
	.byte	0x2
	.value	0x54e
	.byte	0x7
	.long	.LASF689
	.long	0x64d1
	.byte	0x1
	.long	0x65f2
	.long	0x65f8
	.uleb128 0x2
	.long	0xa88b
	.byte	0
	.uleb128 0x6
	.long	.LASF223
	.byte	0x2
	.value	0x55a
	.byte	0x7
	.long	.LASF690
	.long	0x6503
	.byte	0x1
	.long	0x6612
	.long	0x6618
	.uleb128 0x2
	.long	0xa8b3
	.byte	0
	.uleb128 0x6
	.long	.LASF226
	.byte	0x2
	.value	0x569
	.byte	0x7
	.long	.LASF691
	.long	0xa7eb
	.byte	0x1
	.long	0x6632
	.long	0x6638
	.uleb128 0x2
	.long	0xa88b
	.byte	0
	.uleb128 0x6
	.long	.LASF226
	.byte	0x2
	.value	0x56e
	.byte	0x7
	.long	.LASF692
	.long	0xa804
	.byte	0x1
	.long	0x6652
	.long	0x6658
	.uleb128 0x2
	.long	0xa8b3
	.byte	0
	.uleb128 0x10
	.long	.LASF229
	.byte	0x2
	.value	0x57e
	.byte	0x7
	.long	.LASF693
	.byte	0x1
	.long	0x666e
	.long	0x6679
	.uleb128 0x2
	.long	0xa88b
	.uleb128 0x1
	.long	0xa89a
	.byte	0
	.uleb128 0x10
	.long	.LASF229
	.byte	0x2
	.value	0x58f
	.byte	0x7
	.long	.LASF694
	.byte	0x1
	.long	0x668f
	.long	0x669a
	.uleb128 0x2
	.long	0xa88b
	.uleb128 0x1
	.long	0xa8bd
	.byte	0
	.uleb128 0x10
	.long	.LASF232
	.byte	0x2
	.value	0x5a7
	.byte	0x7
	.long	.LASF695
	.byte	0x1
	.long	0x66b0
	.long	0x66b6
	.uleb128 0x2
	.long	0xa88b
	.byte	0
	.uleb128 0x22
	.long	.LASF234
	.byte	0x7
	.byte	0x89
	.byte	0x5
	.long	.LASF696
	.long	0x6220
	.byte	0x1
	.long	0x66cf
	.long	0x66df
	.uleb128 0x2
	.long	0xa88b
	.uleb128 0x1
	.long	0x624d
	.uleb128 0x1
	.long	0xa89a
	.byte	0
	.uleb128 0x6
	.long	.LASF234
	.byte	0x2
	.value	0x5ee
	.byte	0x7
	.long	.LASF697
	.long	0x6220
	.byte	0x1
	.long	0x66f9
	.long	0x6709
	.uleb128 0x2
	.long	0xa88b
	.uleb128 0x1
	.long	0x624d
	.uleb128 0x1
	.long	0xa8bd
	.byte	0
	.uleb128 0x6
	.long	.LASF234
	.byte	0x2
	.value	0x600
	.byte	0x7
	.long	.LASF698
	.long	0x6220
	.byte	0x1
	.long	0x6723
	.long	0x6733
	.uleb128 0x2
	.long	0xa88b
	.uleb128 0x1
	.long	0x624d
	.uleb128 0x1
	.long	0x6aab
	.byte	0
	.uleb128 0x6
	.long	.LASF234
	.byte	0x2
	.value	0x61a
	.byte	0x7
	.long	.LASF699
	.long	0x6220
	.byte	0x1
	.long	0x674d
	.long	0x6762
	.uleb128 0x2
	.long	0xa88b
	.uleb128 0x1
	.long	0x624d
	.uleb128 0x1
	.long	0x6004
	.uleb128 0x1
	.long	0xa89a
	.byte	0
	.uleb128 0x6
	.long	.LASF239
	.byte	0x2
	.value	0x6f6
	.byte	0x7
	.long	.LASF700
	.long	0x6220
	.byte	0x1
	.long	0x677c
	.long	0x6787
	.uleb128 0x2
	.long	0xa88b
	.uleb128 0x1
	.long	0x624d
	.byte	0
	.uleb128 0x6
	.long	.LASF239
	.byte	0x2
	.value	0x712
	.byte	0x7
	.long	.LASF701
	.long	0x6220
	.byte	0x1
	.long	0x67a1
	.long	0x67b1
	.uleb128 0x2
	.long	0xa88b
	.uleb128 0x1
	.long	0x624d
	.uleb128 0x1
	.long	0x624d
	.byte	0
	.uleb128 0x10
	.long	.LASF40
	.byte	0x2
	.value	0x72a
	.byte	0x7
	.long	.LASF702
	.byte	0x1
	.long	0x67c7
	.long	0x67d2
	.uleb128 0x2
	.long	0xa88b
	.uleb128 0x1
	.long	0xa8ae
	.byte	0
	.uleb128 0x10
	.long	.LASF243
	.byte	0x2
	.value	0x73d
	.byte	0x7
	.long	.LASF703
	.byte	0x1
	.long	0x67e8
	.long	0x67ee
	.uleb128 0x2
	.long	0xa88b
	.byte	0
	.uleb128 0x10
	.long	.LASF245
	.byte	0x2
	.value	0x7c3
	.byte	0x7
	.long	.LASF704
	.byte	0x2
	.long	0x6804
	.long	0x6814
	.uleb128 0x2
	.long	0xa88b
	.uleb128 0x1
	.long	0x6004
	.uleb128 0x1
	.long	0xa89a
	.byte	0
	.uleb128 0x10
	.long	.LASF247
	.byte	0x2
	.value	0x7ce
	.byte	0x7
	.long	.LASF705
	.byte	0x2
	.long	0x682a
	.long	0x6835
	.uleb128 0x2
	.long	0xa88b
	.uleb128 0x1
	.long	0x6004
	.byte	0
	.uleb128 0x10
	.long	.LASF249
	.byte	0x7
	.value	0x112
	.byte	0x5
	.long	.LASF706
	.byte	0x2
	.long	0x684b
	.long	0x685b
	.uleb128 0x2
	.long	0xa88b
	.uleb128 0x1
	.long	0x2bc
	.uleb128 0x1
	.long	0xa89a
	.byte	0
	.uleb128 0x10
	.long	.LASF251
	.byte	0x7
	.value	0x296
	.byte	0x5
	.long	.LASF707
	.byte	0x2
	.long	0x6871
	.long	0x6886
	.uleb128 0x2
	.long	0xa88b
	.uleb128 0x1
	.long	0x6220
	.uleb128 0x1
	.long	0x6004
	.uleb128 0x1
	.long	0xa89a
	.byte	0
	.uleb128 0x10
	.long	.LASF253
	.byte	0x7
	.value	0x300
	.byte	0x5
	.long	.LASF708
	.byte	0x2
	.long	0x689c
	.long	0x68ac
	.uleb128 0x2
	.long	0xa88b
	.uleb128 0x1
	.long	0x6004
	.uleb128 0x1
	.long	0xa89a
	.byte	0
	.uleb128 0x10
	.long	.LASF255
	.byte	0x7
	.value	0x339
	.byte	0x5
	.long	.LASF709
	.byte	0x2
	.long	0x68c2
	.long	0x68cd
	.uleb128 0x2
	.long	0xa88b
	.uleb128 0x1
	.long	0x6004
	.byte	0
	.uleb128 0x6
	.long	.LASF257
	.byte	0x7
	.value	0x396
	.byte	0x5
	.long	.LASF710
	.long	0x92bf
	.byte	0x2
	.long	0x68e7
	.long	0x68ed
	.uleb128 0x2
	.long	0xa88b
	.byte	0
	.uleb128 0x6
	.long	.LASF259
	.byte	0x7
	.value	0x16f
	.byte	0x5
	.long	.LASF711
	.long	0x6220
	.byte	0x2
	.long	0x6907
	.long	0x6917
	.uleb128 0x2
	.long	0xa88b
	.uleb128 0x1
	.long	0x624d
	.uleb128 0x1
	.long	0xa8bd
	.byte	0
	.uleb128 0x6
	.long	.LASF261
	.byte	0x2
	.value	0x889
	.byte	0x7
	.long	.LASF712
	.long	0x6220
	.byte	0x2
	.long	0x6931
	.long	0x6941
	.uleb128 0x2
	.long	0xa88b
	.uleb128 0x1
	.long	0x624d
	.uleb128 0x1
	.long	0xa8bd
	.byte	0
	.uleb128 0x6
	.long	.LASF263
	.byte	0x2
	.value	0x890
	.byte	0x7
	.long	.LASF713
	.long	0x6004
	.byte	0x2
	.long	0x695b
	.long	0x696b
	.uleb128 0x2
	.long	0xa8b3
	.uleb128 0x1
	.long	0x6004
	.uleb128 0x1
	.long	0x788b
	.byte	0
	.uleb128 0x52
	.long	.LASF265
	.value	0x89b
	.long	.LASF714
	.long	0x6004
	.long	0x6989
	.uleb128 0x1
	.long	0x6004
	.uleb128 0x1
	.long	0xa895
	.byte	0
	.uleb128 0x52
	.long	.LASF267
	.value	0x8a4
	.long	.LASF715
	.long	0x6004
	.long	0x69a2
	.uleb128 0x1
	.long	0xa8c2
	.byte	0
	.uleb128 0x10
	.long	.LASF269
	.byte	0x2
	.value	0x8b5
	.byte	0x7
	.long	.LASF716
	.byte	0x2
	.long	0x69b8
	.long	0x69c3
	.uleb128 0x2
	.long	0xa88b
	.uleb128 0x1
	.long	0x5f4d
	.byte	0
	.uleb128 0x22
	.long	.LASF271
	.byte	0x7
	.byte	0xb9
	.byte	0x5
	.long	.LASF717
	.long	0x6220
	.byte	0x2
	.long	0x69dc
	.long	0x69e7
	.uleb128 0x2
	.long	0xa88b
	.uleb128 0x1
	.long	0x6220
	.byte	0
	.uleb128 0x22
	.long	.LASF271
	.byte	0x7
	.byte	0xc7
	.byte	0x5
	.long	.LASF718
	.long	0x6220
	.byte	0x2
	.long	0x6a00
	.long	0x6a10
	.uleb128 0x2
	.long	0xa88b
	.uleb128 0x1
	.long	0x6220
	.uleb128 0x1
	.long	0x6220
	.byte	0
	.uleb128 0x1c
	.long	.LASF274
	.value	0x8cf
	.long	.LASF719
	.long	0x6a23
	.long	0x6a33
	.uleb128 0x2
	.long	0xa88b
	.uleb128 0x1
	.long	0xa8a4
	.uleb128 0x1
	.long	0x63c
	.byte	0
	.uleb128 0x1c
	.long	.LASF274
	.value	0x8db
	.long	.LASF720
	.long	0x6a46
	.long	0x6a56
	.uleb128 0x2
	.long	0xa88b
	.uleb128 0x1
	.long	0xa8a4
	.uleb128 0x1
	.long	0x3ac
	.byte	0
	.uleb128 0x38
	.long	.LASF721
	.value	0x8ee
	.byte	0x2
	.long	.LASF722
	.long	0xa7eb
	.long	0x6a77
	.long	0x6a82
	.uleb128 0xf
	.string	"_Up"
	.long	0x30
	.uleb128 0x2
	.long	0xa8b3
	.uleb128 0x1
	.long	0xa7eb
	.byte	0
	.uleb128 0xf
	.string	"_Tp"
	.long	0x30
	.uleb128 0x64
	.long	.LASF146
	.long	0x5971
	.byte	0
	.uleb128 0x7
	.long	0x5ec1
	.uleb128 0x8
	.long	.LASF279
	.byte	0x13
	.byte	0xad
	.byte	0xb
	.long	0x5eab
	.uleb128 0x7
	.long	0x6a9a
	.uleb128 0x3e
	.long	.LASF723
	.byte	0x10
	.byte	0x24
	.byte	0x2f
	.long	0x6b98
	.uleb128 0x28
	.long	.LASF176
	.byte	0x24
	.byte	0x36
	.byte	0x1a
	.long	0xa804
	.uleb128 0x11
	.long	.LASF582
	.byte	0x24
	.byte	0x3a
	.byte	0x12
	.long	0x6ab7
	.byte	0
	.uleb128 0x28
	.long	.LASF81
	.byte	0x24
	.byte	0x35
	.byte	0x18
	.long	0x2bc
	.uleb128 0x11
	.long	.LASF439
	.byte	0x24
	.byte	0x3b
	.byte	0x13
	.long	0x6ad0
	.byte	0x8
	.uleb128 0x23
	.long	.LASF583
	.byte	0x24
	.byte	0x3e
	.byte	0x11
	.long	.LASF724
	.long	0x6afd
	.long	0x6b0d
	.uleb128 0x2
	.long	0xa8c7
	.uleb128 0x1
	.long	0x6b0d
	.uleb128 0x1
	.long	0x6ad0
	.byte	0
	.uleb128 0x28
	.long	.LASF179
	.byte	0x24
	.byte	0x37
	.byte	0x1a
	.long	0xa804
	.uleb128 0x24
	.long	.LASF583
	.byte	0x24
	.byte	0x42
	.byte	0x11
	.long	.LASF725
	.byte	0x1
	.long	0x6b2e
	.long	0x6b34
	.uleb128 0x2
	.long	0xa8c7
	.byte	0
	.uleb128 0x22
	.long	.LASF199
	.byte	0x24
	.byte	0x47
	.byte	0x7
	.long	.LASF726
	.long	0x6ad0
	.byte	0x1
	.long	0x6b4d
	.long	0x6b53
	.uleb128 0x2
	.long	0xa8cc
	.byte	0
	.uleb128 0x22
	.long	.LASF177
	.byte	0x24
	.byte	0x4b
	.byte	0x7
	.long	.LASF727
	.long	0x6b0d
	.byte	0x1
	.long	0x6b6c
	.long	0x6b72
	.uleb128 0x2
	.long	0xa8cc
	.byte	0
	.uleb128 0x8e
	.string	"end"
	.byte	0x4f
	.long	.LASF729
	.long	0x6b0d
	.long	0x6b89
	.long	0x6b8f
	.uleb128 0x2
	.long	0xa8cc
	.byte	0
	.uleb128 0xf
	.string	"_E"
	.long	0x30
	.byte	0
	.uleb128 0x7
	.long	0x6aab
	.uleb128 0x35
	.long	.LASF730
	.uleb128 0x35
	.long	.LASF731
	.uleb128 0x19
	.long	.LASF732
	.byte	0x1
	.byte	0x16
	.byte	0xd4
	.byte	0xc
	.long	0x6bee
	.uleb128 0x8
	.long	.LASF6
	.byte	0x16
	.byte	0xd7
	.byte	0x2b
	.long	0x30
	.uleb128 0x8
	.long	.LASF447
	.byte	0x16
	.byte	0xd8
	.byte	0x2b
	.long	0x62f
	.uleb128 0x8
	.long	.LASF74
	.byte	0x16
	.byte	0xd9
	.byte	0x2b
	.long	0xa7eb
	.uleb128 0x8
	.long	.LASF75
	.byte	0x16
	.byte	0xda
	.byte	0x2b
	.long	0xa7ff
	.uleb128 0xa
	.long	.LASF448
	.long	0xa7eb
	.byte	0
	.uleb128 0x79
	.long	.LASF57
	.byte	0x13
	.byte	0xaf
	.byte	0xd
	.uleb128 0x19
	.long	.LASF733
	.byte	0x1
	.byte	0x13
	.byte	0x8d
	.byte	0xc
	.long	0x6c19
	.uleb128 0x8
	.long	.LASF148
	.byte	0x13
	.byte	0x8e
	.byte	0xd
	.long	0xa5ca
	.uleb128 0xf
	.string	"_Tp"
	.long	0xa5ca
	.byte	0
	.uleb128 0x19
	.long	.LASF734
	.byte	0x1
	.byte	0x16
	.byte	0xdf
	.byte	0xc
	.long	0x6c54
	.uleb128 0x8
	.long	.LASF447
	.byte	0x16
	.byte	0xe3
	.byte	0x2b
	.long	0x62f
	.uleb128 0x8
	.long	.LASF74
	.byte	0x16
	.byte	0xe4
	.byte	0x2b
	.long	0xa502
	.uleb128 0x8
	.long	.LASF75
	.byte	0x16
	.byte	0xe5
	.byte	0x2b
	.long	0xa50c
	.uleb128 0xa
	.long	.LASF448
	.long	0xa502
	.byte	0
	.uleb128 0x19
	.long	.LASF735
	.byte	0x1
	.byte	0x16
	.byte	0xd4
	.byte	0xc
	.long	0x6c8f
	.uleb128 0x8
	.long	.LASF447
	.byte	0x16
	.byte	0xd8
	.byte	0x2b
	.long	0x62f
	.uleb128 0x8
	.long	.LASF74
	.byte	0x16
	.byte	0xd9
	.byte	0x2b
	.long	0x9ff6
	.uleb128 0x8
	.long	.LASF75
	.byte	0x16
	.byte	0xda
	.byte	0x2b
	.long	0xa00a
	.uleb128 0xa
	.long	.LASF448
	.long	0x9ff6
	.byte	0
	.uleb128 0x19
	.long	.LASF736
	.byte	0x10
	.byte	0xc
	.byte	0x6d
	.byte	0xc
	.long	0x6d60
	.uleb128 0x84
	.long	.LASF737
	.byte	0xc
	.byte	0x71
	.byte	0x7
	.long	.LASF738
	.long	0x6cb1
	.long	0x6cbc
	.uleb128 0x2
	.long	0xa935
	.uleb128 0x1
	.long	0xa93f
	.byte	0
	.uleb128 0x23
	.long	.LASF739
	.byte	0xc
	.byte	0x76
	.byte	0x7
	.long	.LASF740
	.long	0x6cd0
	.long	0x6cd6
	.uleb128 0x2
	.long	0xa935
	.byte	0
	.uleb128 0x23
	.long	.LASF741
	.byte	0xc
	.byte	0x83
	.byte	0xc
	.long	.LASF742
	.long	0x6cea
	.long	0x6cf0
	.uleb128 0x2
	.long	0xa935
	.byte	0
	.uleb128 0x11
	.long	.LASF743
	.byte	0xc
	.byte	0x85
	.byte	0x1e
	.long	0xa6e2
	.byte	0
	.uleb128 0x11
	.long	.LASF744
	.byte	0xc
	.byte	0x86
	.byte	0x19
	.long	0xa944
	.byte	0x8
	.uleb128 0x24
	.long	.LASF737
	.byte	0xc
	.byte	0x89
	.byte	0x7
	.long	.LASF745
	.byte	0x3
	.long	0x6d1f
	.long	0x6d2a
	.uleb128 0x2
	.long	0xa935
	.uleb128 0x1
	.long	0xa949
	.byte	0
	.uleb128 0xb3
	.long	.LASF746
	.byte	0xc
	.byte	0x8e
	.byte	0x2
	.long	.LASF747
	.byte	0x3
	.long	0x6d50
	.uleb128 0xa
	.long	.LASF748
	.long	0xa6dd
	.uleb128 0x1
	.long	0xa6dd
	.uleb128 0x1
	.long	0xa6dd
	.byte	0
	.uleb128 0xa
	.long	.LASF60
	.long	0xa6dd
	.uleb128 0xb4
	.long	.LASF146
	.byte	0
	.uleb128 0x7
	.long	0x6c8f
	.uleb128 0xb5
	.long	.LASF1495
	.byte	0x13
	.value	0x6e5
	.byte	0x26
	.long	0x92c6
	.byte	0x1
	.byte	0x3
	.uleb128 0x8f
	.long	.LASF749
	.byte	0x45
	.long	.LASF751
	.uleb128 0x8f
	.long	.LASF750
	.byte	0x42
	.long	.LASF752
	.uleb128 0x85
	.long	.LASF753
	.byte	0x26
	.byte	0x4f
	.byte	0x3
	.long	.LASF754
	.long	0x6da2
	.uleb128 0x1
	.long	0x788b
	.byte	0
	.uleb128 0x39
	.long	.LASF755
	.byte	0xa
	.value	0x3d0
	.byte	0x5
	.long	.LASF756
	.long	0x6dd5
	.uleb128 0xa
	.long	.LASF757
	.long	0xa7eb
	.uleb128 0xf
	.string	"_Tp"
	.long	0x30
	.uleb128 0x1
	.long	0xa7eb
	.uleb128 0x1
	.long	0xa7eb
	.uleb128 0x1
	.long	0xa809
	.byte	0
	.uleb128 0x17
	.long	.LASF758
	.byte	0xa
	.value	0x475
	.byte	0x5
	.long	.LASF759
	.long	0xa7eb
	.long	0x6e1a
	.uleb128 0xa
	.long	.LASF760
	.long	0xa7eb
	.uleb128 0xa
	.long	.LASF61
	.long	0x37
	.uleb128 0xf
	.string	"_Tp"
	.long	0x30
	.uleb128 0x1
	.long	0xa7eb
	.uleb128 0x1
	.long	0x37
	.uleb128 0x1
	.long	0xa809
	.uleb128 0x1
	.long	0x69c
	.byte	0
	.uleb128 0x17
	.long	.LASF761
	.byte	0xa
	.value	0x49b
	.byte	0x5
	.long	.LASF762
	.long	0xa7eb
	.long	0x6e5a
	.uleb128 0xf
	.string	"_OI"
	.long	0xa7eb
	.uleb128 0xa
	.long	.LASF61
	.long	0x37
	.uleb128 0xf
	.string	"_Tp"
	.long	0x30
	.uleb128 0x1
	.long	0xa7eb
	.uleb128 0x1
	.long	0x37
	.uleb128 0x1
	.long	0xa809
	.byte	0
	.uleb128 0x4a
	.long	.LASF763
	.byte	0xb
	.byte	0x7b
	.byte	0x5
	.long	.LASF764
	.long	0x6e7f
	.uleb128 0xf
	.string	"_Tp"
	.long	0x30
	.uleb128 0x90
	.long	.LASF432
	.uleb128 0x1
	.long	0xa7eb
	.byte	0
	.uleb128 0x4a
	.long	.LASF765
	.byte	0xb
	.byte	0x7b
	.byte	0x5
	.long	.LASF766
	.long	0x6eb2
	.uleb128 0xf
	.string	"_Tp"
	.long	0x4f
	.uleb128 0x55
	.long	.LASF432
	.long	0x6ea7
	.uleb128 0x56
	.long	0xa6f6
	.byte	0
	.uleb128 0x1
	.long	0xa6dd
	.uleb128 0x1
	.long	0xa6f6
	.byte	0
	.uleb128 0x39
	.long	.LASF767
	.byte	0xa
	.value	0x3a7
	.byte	0x5
	.long	.LASF768
	.long	0x6ee5
	.uleb128 0xf
	.string	"_Up"
	.long	0x92d5
	.uleb128 0xf
	.string	"_Tp"
	.long	0x92d5
	.uleb128 0x1
	.long	0x9ff6
	.uleb128 0x1
	.long	0x9ff6
	.uleb128 0x1
	.long	0xa014
	.byte	0
	.uleb128 0x17
	.long	.LASF769
	.byte	0xc
	.value	0x1dd
	.byte	0x5
	.long	.LASF770
	.long	0xa6dd
	.long	0x6f25
	.uleb128 0xa
	.long	.LASF60
	.long	0xa6dd
	.uleb128 0xa
	.long	.LASF61
	.long	0x37
	.uleb128 0xf
	.string	"_Tp"
	.long	0x4f
	.uleb128 0x1
	.long	0xa6dd
	.uleb128 0x1
	.long	0x37
	.uleb128 0x1
	.long	0xa6f6
	.byte	0
	.uleb128 0x39
	.long	.LASF771
	.byte	0xa
	.value	0x3d0
	.byte	0x5
	.long	.LASF772
	.long	0x6f58
	.uleb128 0xa
	.long	.LASF757
	.long	0x9ff6
	.uleb128 0xf
	.string	"_Tp"
	.long	0x92d5
	.uleb128 0x1
	.long	0x9ff6
	.uleb128 0x1
	.long	0x9ff6
	.uleb128 0x1
	.long	0xa014
	.byte	0
	.uleb128 0x17
	.long	.LASF773
	.byte	0x3
	.value	0xbce
	.byte	0x5
	.long	.LASF774
	.long	0x9ff6
	.long	0x6f7c
	.uleb128 0xa
	.long	.LASF448
	.long	0x9ff6
	.uleb128 0x1
	.long	0x9ff6
	.byte	0
	.uleb128 0x39
	.long	.LASF775
	.byte	0xa
	.value	0x3bc
	.byte	0x5
	.long	.LASF776
	.long	0x6fb8
	.uleb128 0xa
	.long	.LASF777
	.long	0x9ff6
	.uleb128 0xa
	.long	.LASF778
	.long	0x11f9
	.uleb128 0xf
	.string	"_Tp"
	.long	0x92d5
	.uleb128 0x1
	.long	0x828e
	.uleb128 0x1
	.long	0x828e
	.uleb128 0x1
	.long	0xa014
	.byte	0
	.uleb128 0x39
	.long	.LASF779
	.byte	0xa
	.value	0x37f
	.byte	0x5
	.long	.LASF780
	.long	0x6feb
	.uleb128 0xa
	.long	.LASF60
	.long	0xa7eb
	.uleb128 0xf
	.string	"_Tp"
	.long	0x30
	.uleb128 0x1
	.long	0xa7eb
	.uleb128 0x1
	.long	0xa7eb
	.uleb128 0x1
	.long	0xa809
	.byte	0
	.uleb128 0x17
	.long	.LASF781
	.byte	0xc
	.value	0x3d6
	.byte	0x5
	.long	.LASF782
	.long	0xa7eb
	.long	0x701d
	.uleb128 0xa
	.long	.LASF60
	.long	0xa7eb
	.uleb128 0xa
	.long	.LASF61
	.long	0x37
	.uleb128 0x1
	.long	0xa7eb
	.uleb128 0x1
	.long	0x37
	.byte	0
	.uleb128 0x17
	.long	.LASF783
	.byte	0xc
	.value	0x226
	.byte	0x5
	.long	.LASF784
	.long	0xa6dd
	.long	0x705d
	.uleb128 0xa
	.long	.LASF60
	.long	0xa6dd
	.uleb128 0xa
	.long	.LASF61
	.long	0x37
	.uleb128 0xf
	.string	"_Tp"
	.long	0x4f
	.uleb128 0x1
	.long	0xa6dd
	.uleb128 0x1
	.long	0x37
	.uleb128 0x1
	.long	0xa6f6
	.byte	0
	.uleb128 0x17
	.long	.LASF785
	.byte	0xa
	.value	0x100
	.byte	0x5
	.long	.LASF786
	.long	0xb2ff
	.long	0x7086
	.uleb128 0xf
	.string	"_Tp"
	.long	0x37
	.uleb128 0x1
	.long	0xb2ff
	.uleb128 0x1
	.long	0xb2ff
	.byte	0
	.uleb128 0x17
	.long	.LASF787
	.byte	0xa
	.value	0x475
	.byte	0x5
	.long	.LASF788
	.long	0x9ff6
	.long	0x70cb
	.uleb128 0xa
	.long	.LASF760
	.long	0x9ff6
	.uleb128 0xa
	.long	.LASF61
	.long	0x37
	.uleb128 0xf
	.string	"_Tp"
	.long	0x92d5
	.uleb128 0x1
	.long	0x9ff6
	.uleb128 0x1
	.long	0x37
	.uleb128 0x1
	.long	0xa014
	.uleb128 0x1
	.long	0x69c
	.byte	0
	.uleb128 0x17
	.long	.LASF789
	.byte	0xc
	.value	0x226
	.byte	0x5
	.long	.LASF790
	.long	0x9ff6
	.long	0x710b
	.uleb128 0xa
	.long	.LASF60
	.long	0x9ff6
	.uleb128 0xa
	.long	.LASF61
	.long	0x37
	.uleb128 0xf
	.string	"_Tp"
	.long	0x92d5
	.uleb128 0x1
	.long	0x9ff6
	.uleb128 0x1
	.long	0x37
	.uleb128 0x1
	.long	0xa014
	.byte	0
	.uleb128 0x39
	.long	.LASF791
	.byte	0xa
	.value	0x3d0
	.byte	0x5
	.long	.LASF792
	.long	0x713e
	.uleb128 0xa
	.long	.LASF757
	.long	0x828e
	.uleb128 0xf
	.string	"_Tp"
	.long	0x92d5
	.uleb128 0x1
	.long	0x828e
	.uleb128 0x1
	.long	0x828e
	.uleb128 0x1
	.long	0xa014
	.byte	0
	.uleb128 0x39
	.long	.LASF793
	.byte	0xa
	.value	0x3bc
	.byte	0x5
	.long	.LASF794
	.long	0x717a
	.uleb128 0xa
	.long	.LASF777
	.long	0xa7eb
	.uleb128 0xa
	.long	.LASF778
	.long	0x5ec1
	.uleb128 0xf
	.string	"_Tp"
	.long	0x30
	.uleb128 0x1
	.long	0x8f58
	.uleb128 0x1
	.long	0x8f58
	.uleb128 0x1
	.long	0xa809
	.byte	0
	.uleb128 0x4a
	.long	.LASF795
	.byte	0xb
	.byte	0xdb
	.byte	0x5
	.long	.LASF796
	.long	0x719e
	.uleb128 0xa
	.long	.LASF60
	.long	0xa7eb
	.uleb128 0x1
	.long	0xa7eb
	.uleb128 0x1
	.long	0xa7eb
	.byte	0
	.uleb128 0x17
	.long	.LASF797
	.byte	0xc
	.value	0x41b
	.byte	0x5
	.long	.LASF798
	.long	0xa7eb
	.long	0x71de
	.uleb128 0xa
	.long	.LASF60
	.long	0xa7eb
	.uleb128 0xa
	.long	.LASF61
	.long	0x37
	.uleb128 0xf
	.string	"_Tp"
	.long	0x30
	.uleb128 0x1
	.long	0xa7eb
	.uleb128 0x1
	.long	0x37
	.uleb128 0x1
	.long	0xa81d
	.byte	0
	.uleb128 0x4a
	.long	.LASF799
	.byte	0xb
	.byte	0xdb
	.byte	0x5
	.long	.LASF800
	.long	0x7202
	.uleb128 0xa
	.long	.LASF60
	.long	0xa6dd
	.uleb128 0x1
	.long	0xa6dd
	.uleb128 0x1
	.long	0xa6dd
	.byte	0
	.uleb128 0x17
	.long	.LASF801
	.byte	0xc
	.value	0x303
	.byte	0x5
	.long	.LASF802
	.long	0xa6dd
	.long	0x7250
	.uleb128 0xa
	.long	.LASF60
	.long	0xa6dd
	.uleb128 0xa
	.long	.LASF61
	.long	0x37
	.uleb128 0xf
	.string	"_Tp"
	.long	0x4f
	.uleb128 0xa
	.long	.LASF803
	.long	0x4f
	.uleb128 0x1
	.long	0xa6dd
	.uleb128 0x1
	.long	0x37
	.uleb128 0x1
	.long	0xa6f6
	.uleb128 0x1
	.long	0xa70a
	.byte	0
	.uleb128 0x91
	.long	.LASF804
	.byte	0x27
	.byte	0xcf
	.byte	0x5
	.long	0xa5ca
	.long	0x7270
	.uleb128 0xf
	.string	"_Tp"
	.long	0xa446
	.uleb128 0x1
	.long	0xa5ca
	.byte	0
	.uleb128 0x8
	.long	.LASF805
	.byte	0x13
	.byte	0x92
	.byte	0xb
	.long	0x6c03
	.uleb128 0x46
	.long	.LASF806
	.byte	0xc
	.value	0x561
	.byte	0x5
	.long	0x7270
	.long	0x72b4
	.uleb128 0xf
	.string	"_Tp"
	.long	0xa446
	.uleb128 0xf
	.string	"_Up"
	.long	0xa446
	.uleb128 0x1
	.long	0xa5ca
	.uleb128 0x1
	.long	0xa5ca
	.uleb128 0x1
	.long	0xa5ca
	.uleb128 0x1
	.long	0xa5fc
	.byte	0
	.uleb128 0x46
	.long	.LASF807
	.byte	0x3
	.value	0xbce
	.byte	0x5
	.long	0xa5ca
	.long	0x72d4
	.uleb128 0xa
	.long	.LASF448
	.long	0xa5ca
	.uleb128 0x1
	.long	0xa5ca
	.byte	0
	.uleb128 0x92
	.long	.LASF808
	.byte	0xb
	.byte	0xdb
	.byte	0x5
	.long	0x72f5
	.uleb128 0xa
	.long	.LASF60
	.long	0xa5ca
	.uleb128 0x1
	.long	0xa5ca
	.uleb128 0x1
	.long	0xa5ca
	.byte	0
	.uleb128 0x17
	.long	.LASF809
	.byte	0xa
	.value	0x49b
	.byte	0x5
	.long	.LASF810
	.long	0x9ff6
	.long	0x7335
	.uleb128 0xf
	.string	"_OI"
	.long	0x9ff6
	.uleb128 0xa
	.long	.LASF61
	.long	0x37
	.uleb128 0xf
	.string	"_Tp"
	.long	0x92d5
	.uleb128 0x1
	.long	0x9ff6
	.uleb128 0x1
	.long	0x37
	.uleb128 0x1
	.long	0xa014
	.byte	0
	.uleb128 0x17
	.long	.LASF811
	.byte	0xc
	.value	0x303
	.byte	0x5
	.long	.LASF812
	.long	0x9ff6
	.long	0x7383
	.uleb128 0xa
	.long	.LASF60
	.long	0x9ff6
	.uleb128 0xa
	.long	.LASF61
	.long	0x37
	.uleb128 0xf
	.string	"_Tp"
	.long	0x92d5
	.uleb128 0xa
	.long	.LASF803
	.long	0x92d5
	.uleb128 0x1
	.long	0x9ff6
	.uleb128 0x1
	.long	0x37
	.uleb128 0x1
	.long	0xa014
	.uleb128 0x1
	.long	0xa028
	.byte	0
	.uleb128 0x39
	.long	.LASF813
	.byte	0xa
	.value	0x3e9
	.byte	0x5
	.long	.LASF814
	.long	0x73b6
	.uleb128 0xa
	.long	.LASF60
	.long	0x828e
	.uleb128 0xf
	.string	"_Tp"
	.long	0x92d5
	.uleb128 0x1
	.long	0x828e
	.uleb128 0x1
	.long	0x828e
	.uleb128 0x1
	.long	0xa014
	.byte	0
	.uleb128 0x4a
	.long	.LASF815
	.byte	0xb
	.byte	0xdb
	.byte	0x5
	.long	.LASF816
	.long	0x73da
	.uleb128 0xa
	.long	.LASF60
	.long	0x9ff6
	.uleb128 0x1
	.long	0x9ff6
	.uleb128 0x1
	.long	0x9ff6
	.byte	0
	.uleb128 0x36
	.long	.LASF817
	.byte	0xa
	.byte	0xe8
	.byte	0x5
	.long	.LASF818
	.long	0xb2ff
	.long	0x7402
	.uleb128 0xf
	.string	"_Tp"
	.long	0x37
	.uleb128 0x1
	.long	0xb2ff
	.uleb128 0x1
	.long	0xb2ff
	.byte	0
	.uleb128 0x39
	.long	.LASF819
	.byte	0xa
	.value	0x3d0
	.byte	0x5
	.long	.LASF820
	.long	0x7435
	.uleb128 0xa
	.long	.LASF757
	.long	0x8f58
	.uleb128 0xf
	.string	"_Tp"
	.long	0x30
	.uleb128 0x1
	.long	0x8f58
	.uleb128 0x1
	.long	0x8f58
	.uleb128 0x1
	.long	0xa809
	.byte	0
	.uleb128 0x39
	.long	.LASF821
	.byte	0x8
	.value	0x43a
	.byte	0x5
	.long	.LASF822
	.long	0x7468
	.uleb128 0xa
	.long	.LASF60
	.long	0xa7eb
	.uleb128 0xf
	.string	"_Tp"
	.long	0x30
	.uleb128 0x1
	.long	0xa7eb
	.uleb128 0x1
	.long	0xa7eb
	.uleb128 0x1
	.long	0xa81d
	.byte	0
	.uleb128 0x39
	.long	.LASF823
	.byte	0x8
	.value	0x43a
	.byte	0x5
	.long	.LASF824
	.long	0x749b
	.uleb128 0xa
	.long	.LASF60
	.long	0xa6dd
	.uleb128 0xf
	.string	"_Tp"
	.long	0x4f
	.uleb128 0x1
	.long	0xa6dd
	.uleb128 0x1
	.long	0xa6dd
	.uleb128 0x1
	.long	0xa70a
	.byte	0
	.uleb128 0x46
	.long	.LASF825
	.byte	0xc
	.value	0x57c
	.byte	0x5
	.long	0xa5ca
	.long	0x74dc
	.uleb128 0xa
	.long	.LASF826
	.long	0xa5ca
	.uleb128 0xa
	.long	.LASF60
	.long	0xa5ca
	.uleb128 0xa
	.long	.LASF827
	.long	0x332e
	.uleb128 0x1
	.long	0xa5ca
	.uleb128 0x1
	.long	0xa5ca
	.uleb128 0x1
	.long	0xa5ca
	.uleb128 0x1
	.long	0xa5fc
	.byte	0
	.uleb128 0x8a
	.long	.LASF828
	.value	0x43a
	.byte	0x5
	.long	0x750b
	.uleb128 0xa
	.long	.LASF60
	.long	0xa5ca
	.uleb128 0xf
	.string	"_Tp"
	.long	0xa446
	.uleb128 0x1
	.long	0xa5ca
	.uleb128 0x1
	.long	0xa5ca
	.uleb128 0x1
	.long	0xa5fc
	.byte	0
	.uleb128 0x39
	.long	.LASF829
	.byte	0x8
	.value	0x43a
	.byte	0x5
	.long	.LASF830
	.long	0x753e
	.uleb128 0xa
	.long	.LASF60
	.long	0x9ff6
	.uleb128 0xf
	.string	"_Tp"
	.long	0x92d5
	.uleb128 0x1
	.long	0x9ff6
	.uleb128 0x1
	.long	0x9ff6
	.uleb128 0x1
	.long	0xa028
	.byte	0
	.uleb128 0x39
	.long	.LASF831
	.byte	0xa
	.value	0x3e9
	.byte	0x5
	.long	.LASF832
	.long	0x7571
	.uleb128 0xa
	.long	.LASF60
	.long	0x8f58
	.uleb128 0xf
	.string	"_Tp"
	.long	0x30
	.uleb128 0x1
	.long	0x8f58
	.uleb128 0x1
	.long	0x8f58
	.uleb128 0x1
	.long	0xa809
	.byte	0
	.uleb128 0x36
	.long	.LASF833
	.byte	0xa
	.byte	0xe8
	.byte	0x5
	.long	.LASF834
	.long	0xa6f6
	.long	0x7599
	.uleb128 0xf
	.string	"_Tp"
	.long	0x4f
	.uleb128 0x1
	.long	0xa6f6
	.uleb128 0x1
	.long	0xa6f6
	.byte	0
	.uleb128 0x17
	.long	.LASF835
	.byte	0xa
	.value	0x100
	.byte	0x5
	.long	.LASF836
	.long	0xa6f6
	.long	0x75c2
	.uleb128 0xf
	.string	"_Tp"
	.long	0x4f
	.uleb128 0x1
	.long	0xa6f6
	.uleb128 0x1
	.long	0xa6f6
	.byte	0
	.uleb128 0x17
	.long	.LASF837
	.byte	0x9
	.value	0x108
	.byte	0x3
	.long	.LASF838
	.long	0x30
	.long	0x75dd
	.uleb128 0x1
	.long	0x30
	.byte	0
	.uleb128 0x93
	.long	.LASF839
	.byte	0xa
	.value	0x3fd
	.byte	0x3
	.long	.LASF840
	.long	0x37
	.uleb128 0x1
	.long	0x37
	.byte	0
	.byte	0
	.uleb128 0x8
	.long	.LASF5
	.byte	0x28
	.byte	0xe5
	.byte	0x17
	.long	0x37
	.uleb128 0x7
	.long	0x75f6
	.uleb128 0x7
	.long	0x37
	.uleb128 0xb6
	.long	.LASF1496
	.byte	0x18
	.byte	0x29
	.byte	0
	.long	0x7642
	.uleb128 0x72
	.long	.LASF841
	.long	0x7642
	.byte	0
	.uleb128 0x72
	.long	.LASF842
	.long	0x7642
	.byte	0x4
	.uleb128 0x72
	.long	.LASF843
	.long	0x7649
	.byte	0x8
	.uleb128 0x72
	.long	.LASF844
	.long	0x7649
	.byte	0x10
	.byte	0
	.uleb128 0x2c
	.byte	0x4
	.byte	0x7
	.long	.LASF845
	.uleb128 0xb7
	.byte	0x8
	.uleb128 0x8
	.long	.LASF846
	.byte	0x2a
	.byte	0x14
	.byte	0x17
	.long	0x7642
	.uleb128 0x73
	.byte	0x8
	.byte	0x2b
	.byte	0xe
	.byte	0x1
	.long	.LASF1171
	.long	0x76a3
	.uleb128 0xb8
	.byte	0x4
	.byte	0x2b
	.byte	0x11
	.byte	0x3
	.long	0x7688
	.uleb128 0x94
	.long	.LASF847
	.byte	0x12
	.byte	0x13
	.long	0x7642
	.uleb128 0x94
	.long	.LASF848
	.byte	0x13
	.byte	0xa
	.long	0x76a3
	.byte	0
	.uleb128 0x11
	.long	.LASF849
	.byte	0x2b
	.byte	0xf
	.byte	0x7
	.long	0x4f
	.byte	0
	.uleb128 0x11
	.long	.LASF850
	.byte	0x2b
	.byte	0x14
	.byte	0x5
	.long	0x7665
	.byte	0x4
	.byte	0
	.uleb128 0x7b
	.long	0x43
	.long	0x76b3
	.uleb128 0x7c
	.long	0x37
	.byte	0x3
	.byte	0
	.uleb128 0x8
	.long	.LASF851
	.byte	0x2b
	.byte	0x15
	.byte	0x3
	.long	0x7658
	.uleb128 0x8
	.long	.LASF852
	.byte	0x2c
	.byte	0x6
	.byte	0x15
	.long	0x76b3
	.uleb128 0x7
	.long	0x76bf
	.uleb128 0x8
	.long	.LASF853
	.byte	0x2d
	.byte	0x5
	.byte	0x19
	.long	0x76dc
	.uleb128 0x19
	.long	.LASF854
	.byte	0xd8
	.byte	0x2e
	.byte	0x32
	.byte	0x8
	.long	0x7873
	.uleb128 0x11
	.long	.LASF855
	.byte	0x2e
	.byte	0x34
	.byte	0x7
	.long	0x4f
	.byte	0
	.uleb128 0x11
	.long	.LASF856
	.byte	0x2e
	.byte	0x37
	.byte	0x9
	.long	0x3e
	.byte	0x8
	.uleb128 0x11
	.long	.LASF857
	.byte	0x2e
	.byte	0x38
	.byte	0x9
	.long	0x3e
	.byte	0x10
	.uleb128 0x11
	.long	.LASF858
	.byte	0x2e
	.byte	0x39
	.byte	0x9
	.long	0x3e
	.byte	0x18
	.uleb128 0x11
	.long	.LASF859
	.byte	0x2e
	.byte	0x3a
	.byte	0x9
	.long	0x3e
	.byte	0x20
	.uleb128 0x11
	.long	.LASF860
	.byte	0x2e
	.byte	0x3b
	.byte	0x9
	.long	0x3e
	.byte	0x28
	.uleb128 0x11
	.long	.LASF861
	.byte	0x2e
	.byte	0x3c
	.byte	0x9
	.long	0x3e
	.byte	0x30
	.uleb128 0x11
	.long	.LASF862
	.byte	0x2e
	.byte	0x3d
	.byte	0x9
	.long	0x3e
	.byte	0x38
	.uleb128 0x11
	.long	.LASF863
	.byte	0x2e
	.byte	0x3e
	.byte	0x9
	.long	0x3e
	.byte	0x40
	.uleb128 0x11
	.long	.LASF864
	.byte	0x2e
	.byte	0x41
	.byte	0x9
	.long	0x3e
	.byte	0x48
	.uleb128 0x11
	.long	.LASF865
	.byte	0x2e
	.byte	0x42
	.byte	0x9
	.long	0x3e
	.byte	0x50
	.uleb128 0x11
	.long	.LASF866
	.byte	0x2e
	.byte	0x43
	.byte	0x9
	.long	0x3e
	.byte	0x58
	.uleb128 0x11
	.long	.LASF867
	.byte	0x2e
	.byte	0x45
	.byte	0x16
	.long	0x9a68
	.byte	0x60
	.uleb128 0x11
	.long	.LASF868
	.byte	0x2e
	.byte	0x47
	.byte	0x14
	.long	0x9a6d
	.byte	0x68
	.uleb128 0x11
	.long	.LASF869
	.byte	0x2e
	.byte	0x49
	.byte	0x7
	.long	0x4f
	.byte	0x70
	.uleb128 0xb9
	.long	.LASF986
	.byte	0x2e
	.byte	0x4a
	.byte	0x7
	.long	0x4f
	.byte	0x18
	.value	0x3a0
	.uleb128 0x11
	.long	.LASF870
	.byte	0x2e
	.byte	0x4c
	.byte	0x8
	.long	0x9a72
	.byte	0x77
	.uleb128 0x11
	.long	.LASF871
	.byte	0x2e
	.byte	0x4d
	.byte	0xb
	.long	0x9584
	.byte	0x78
	.uleb128 0x11
	.long	.LASF872
	.byte	0x2e
	.byte	0x50
	.byte	0x12
	.long	0x787f
	.byte	0x80
	.uleb128 0x11
	.long	.LASF873
	.byte	0x2e
	.byte	0x51
	.byte	0xf
	.long	0x92e8
	.byte	0x82
	.uleb128 0x11
	.long	.LASF874
	.byte	0x2e
	.byte	0x52
	.byte	0x8
	.long	0x9a72
	.byte	0x83
	.uleb128 0x11
	.long	.LASF875
	.byte	0x2e
	.byte	0x54
	.byte	0xf
	.long	0x9a82
	.byte	0x88
	.uleb128 0x11
	.long	.LASF876
	.byte	0x2e
	.byte	0x5c
	.byte	0xd
	.long	0x9590
	.byte	0x90
	.uleb128 0x11
	.long	.LASF877
	.byte	0x2e
	.byte	0x5e
	.byte	0x17
	.long	0x9a8c
	.byte	0x98
	.uleb128 0x11
	.long	.LASF878
	.byte	0x2e
	.byte	0x5f
	.byte	0x19
	.long	0x9a96
	.byte	0xa0
	.uleb128 0x11
	.long	.LASF879
	.byte	0x2e
	.byte	0x60
	.byte	0x14
	.long	0x9a6d
	.byte	0xa8
	.uleb128 0x11
	.long	.LASF880
	.byte	0x2e
	.byte	0x61
	.byte	0x9
	.long	0x7649
	.byte	0xb0
	.uleb128 0x11
	.long	.LASF881
	.byte	0x2e
	.byte	0x62
	.byte	0x15
	.long	0x9a9b
	.byte	0xb8
	.uleb128 0x11
	.long	.LASF882
	.byte	0x2e
	.byte	0x63
	.byte	0x7
	.long	0x4f
	.byte	0xc0
	.uleb128 0x11
	.long	.LASF883
	.byte	0x2e
	.byte	0x65
	.byte	0x8
	.long	0x9aa0
	.byte	0xc4
	.byte	0
	.uleb128 0x8
	.long	.LASF884
	.byte	0x2f
	.byte	0x7
	.byte	0x19
	.long	0x76dc
	.uleb128 0x2c
	.byte	0x2
	.byte	0x7
	.long	.LASF885
	.uleb128 0xd
	.long	0x57
	.uleb128 0xd
	.long	0x4a
	.uleb128 0x16
	.long	.LASF886
	.byte	0x30
	.value	0x157
	.byte	0x1
	.long	0x764c
	.long	0x78a7
	.uleb128 0x1
	.long	0x4f
	.byte	0
	.uleb128 0x16
	.long	.LASF887
	.byte	0x30
	.value	0x3a7
	.byte	0xf
	.long	0x764c
	.long	0x78be
	.uleb128 0x1
	.long	0x78be
	.byte	0
	.uleb128 0xd
	.long	0x76d0
	.uleb128 0x16
	.long	.LASF888
	.byte	0x30
	.value	0x3c4
	.byte	0x11
	.long	0x78e4
	.long	0x78e4
	.uleb128 0x1
	.long	0x78e4
	.uleb128 0x1
	.long	0x4f
	.uleb128 0x1
	.long	0x78be
	.byte	0
	.uleb128 0xd
	.long	0x78e9
	.uleb128 0x2c
	.byte	0x4
	.byte	0x5
	.long	.LASF889
	.uleb128 0x7
	.long	0x78e9
	.uleb128 0x16
	.long	.LASF890
	.byte	0x30
	.value	0x3b5
	.byte	0xf
	.long	0x764c
	.long	0x7911
	.uleb128 0x1
	.long	0x78e9
	.uleb128 0x1
	.long	0x78be
	.byte	0
	.uleb128 0x16
	.long	.LASF891
	.byte	0x30
	.value	0x3cb
	.byte	0xc
	.long	0x4f
	.long	0x792d
	.uleb128 0x1
	.long	0x792d
	.uleb128 0x1
	.long	0x78be
	.byte	0
	.uleb128 0xd
	.long	0x78f0
	.uleb128 0x16
	.long	.LASF892
	.byte	0x30
	.value	0x2d5
	.byte	0xc
	.long	0x4f
	.long	0x794e
	.uleb128 0x1
	.long	0x78be
	.uleb128 0x1
	.long	0x4f
	.byte	0
	.uleb128 0x16
	.long	.LASF893
	.byte	0x30
	.value	0x2dc
	.byte	0xc
	.long	0x4f
	.long	0x796b
	.uleb128 0x1
	.long	0x78be
	.uleb128 0x1
	.long	0x792d
	.uleb128 0x60
	.byte	0
	.uleb128 0x17
	.long	.LASF894
	.byte	0x30
	.value	0x31b
	.byte	0xc
	.long	.LASF895
	.long	0x4f
	.long	0x798c
	.uleb128 0x1
	.long	0x78be
	.uleb128 0x1
	.long	0x792d
	.uleb128 0x60
	.byte	0
	.uleb128 0x16
	.long	.LASF896
	.byte	0x30
	.value	0x3a8
	.byte	0xf
	.long	0x764c
	.long	0x79a3
	.uleb128 0x1
	.long	0x78be
	.byte	0
	.uleb128 0x95
	.long	.LASF1145
	.byte	0x30
	.value	0x3ae
	.byte	0xf
	.long	0x764c
	.uleb128 0x16
	.long	.LASF897
	.byte	0x30
	.value	0x162
	.byte	0x1
	.long	0x75f6
	.long	0x79d2
	.uleb128 0x1
	.long	0x788b
	.uleb128 0x1
	.long	0x75f6
	.uleb128 0x1
	.long	0x79d2
	.byte	0
	.uleb128 0xd
	.long	0x76bf
	.uleb128 0x16
	.long	.LASF898
	.byte	0x30
	.value	0x141
	.byte	0xf
	.long	0x75f6
	.long	0x79fd
	.uleb128 0x1
	.long	0x78e4
	.uleb128 0x1
	.long	0x788b
	.uleb128 0x1
	.long	0x75f6
	.uleb128 0x1
	.long	0x79d2
	.byte	0
	.uleb128 0x16
	.long	.LASF899
	.byte	0x30
	.value	0x13d
	.byte	0xc
	.long	0x4f
	.long	0x7a14
	.uleb128 0x1
	.long	0x7a14
	.byte	0
	.uleb128 0xd
	.long	0x76cb
	.uleb128 0x16
	.long	.LASF900
	.byte	0x30
	.value	0x16a
	.byte	0xf
	.long	0x75f6
	.long	0x7a3f
	.uleb128 0x1
	.long	0x78e4
	.uleb128 0x1
	.long	0x7a3f
	.uleb128 0x1
	.long	0x75f6
	.uleb128 0x1
	.long	0x79d2
	.byte	0
	.uleb128 0xd
	.long	0x788b
	.uleb128 0x16
	.long	.LASF901
	.byte	0x30
	.value	0x3b6
	.byte	0xf
	.long	0x764c
	.long	0x7a60
	.uleb128 0x1
	.long	0x78e9
	.uleb128 0x1
	.long	0x78be
	.byte	0
	.uleb128 0x16
	.long	.LASF902
	.byte	0x30
	.value	0x3bc
	.byte	0xf
	.long	0x764c
	.long	0x7a77
	.uleb128 0x1
	.long	0x78e9
	.byte	0
	.uleb128 0x16
	.long	.LASF903
	.byte	0x30
	.value	0x2e6
	.byte	0xc
	.long	0x4f
	.long	0x7a99
	.uleb128 0x1
	.long	0x78e4
	.uleb128 0x1
	.long	0x75f6
	.uleb128 0x1
	.long	0x792d
	.uleb128 0x60
	.byte	0
	.uleb128 0x17
	.long	.LASF904
	.byte	0x30
	.value	0x322
	.byte	0xc
	.long	.LASF905
	.long	0x4f
	.long	0x7aba
	.uleb128 0x1
	.long	0x792d
	.uleb128 0x1
	.long	0x792d
	.uleb128 0x60
	.byte	0
	.uleb128 0x16
	.long	.LASF906
	.byte	0x30
	.value	0x3d3
	.byte	0xf
	.long	0x764c
	.long	0x7ad6
	.uleb128 0x1
	.long	0x764c
	.uleb128 0x1
	.long	0x78be
	.byte	0
	.uleb128 0x16
	.long	.LASF907
	.byte	0x30
	.value	0x2ee
	.byte	0xc
	.long	0x4f
	.long	0x7af7
	.uleb128 0x1
	.long	0x78be
	.uleb128 0x1
	.long	0x792d
	.uleb128 0x1
	.long	0x7af7
	.byte	0
	.uleb128 0xd
	.long	0x760c
	.uleb128 0x17
	.long	.LASF908
	.byte	0x30
	.value	0x36b
	.byte	0xc
	.long	.LASF909
	.long	0x4f
	.long	0x7b21
	.uleb128 0x1
	.long	0x78be
	.uleb128 0x1
	.long	0x792d
	.uleb128 0x1
	.long	0x7af7
	.byte	0
	.uleb128 0x16
	.long	.LASF910
	.byte	0x30
	.value	0x2fb
	.byte	0xc
	.long	0x4f
	.long	0x7b47
	.uleb128 0x1
	.long	0x78e4
	.uleb128 0x1
	.long	0x75f6
	.uleb128 0x1
	.long	0x792d
	.uleb128 0x1
	.long	0x7af7
	.byte	0
	.uleb128 0x17
	.long	.LASF911
	.byte	0x30
	.value	0x372
	.byte	0xc
	.long	.LASF912
	.long	0x4f
	.long	0x7b6c
	.uleb128 0x1
	.long	0x792d
	.uleb128 0x1
	.long	0x792d
	.uleb128 0x1
	.long	0x7af7
	.byte	0
	.uleb128 0x16
	.long	.LASF913
	.byte	0x30
	.value	0x2f6
	.byte	0xc
	.long	0x4f
	.long	0x7b88
	.uleb128 0x1
	.long	0x792d
	.uleb128 0x1
	.long	0x7af7
	.byte	0
	.uleb128 0x17
	.long	.LASF914
	.byte	0x30
	.value	0x36f
	.byte	0xc
	.long	.LASF915
	.long	0x4f
	.long	0x7ba8
	.uleb128 0x1
	.long	0x792d
	.uleb128 0x1
	.long	0x7af7
	.byte	0
	.uleb128 0x16
	.long	.LASF916
	.byte	0x30
	.value	0x146
	.byte	0xf
	.long	0x75f6
	.long	0x7bc9
	.uleb128 0x1
	.long	0x3e
	.uleb128 0x1
	.long	0x78e9
	.uleb128 0x1
	.long	0x79d2
	.byte	0
	.uleb128 0x25
	.long	.LASF917
	.byte	0x30
	.byte	0x79
	.byte	0x11
	.long	0x78e4
	.long	0x7be4
	.uleb128 0x1
	.long	0x78e4
	.uleb128 0x1
	.long	0x792d
	.byte	0
	.uleb128 0x25
	.long	.LASF918
	.byte	0x30
	.byte	0x82
	.byte	0xc
	.long	0x4f
	.long	0x7bff
	.uleb128 0x1
	.long	0x792d
	.uleb128 0x1
	.long	0x792d
	.byte	0
	.uleb128 0x25
	.long	.LASF919
	.byte	0x30
	.byte	0x9b
	.byte	0xc
	.long	0x4f
	.long	0x7c1a
	.uleb128 0x1
	.long	0x792d
	.uleb128 0x1
	.long	0x792d
	.byte	0
	.uleb128 0x25
	.long	.LASF920
	.byte	0x30
	.byte	0x62
	.byte	0x11
	.long	0x78e4
	.long	0x7c35
	.uleb128 0x1
	.long	0x78e4
	.uleb128 0x1
	.long	0x792d
	.byte	0
	.uleb128 0x25
	.long	.LASF921
	.byte	0x30
	.byte	0xd4
	.byte	0xf
	.long	0x75f6
	.long	0x7c50
	.uleb128 0x1
	.long	0x792d
	.uleb128 0x1
	.long	0x792d
	.byte	0
	.uleb128 0x16
	.long	.LASF922
	.byte	0x30
	.value	0x413
	.byte	0xf
	.long	0x75f6
	.long	0x7c76
	.uleb128 0x1
	.long	0x78e4
	.uleb128 0x1
	.long	0x75f6
	.uleb128 0x1
	.long	0x792d
	.uleb128 0x1
	.long	0x7c76
	.byte	0
	.uleb128 0xd
	.long	0x7d18
	.uleb128 0xba
	.string	"tm"
	.byte	0x38
	.byte	0x31
	.byte	0x7
	.byte	0x8
	.long	0x7d18
	.uleb128 0x11
	.long	.LASF923
	.byte	0x31
	.byte	0x9
	.byte	0x7
	.long	0x4f
	.byte	0
	.uleb128 0x11
	.long	.LASF924
	.byte	0x31
	.byte	0xa
	.byte	0x7
	.long	0x4f
	.byte	0x4
	.uleb128 0x11
	.long	.LASF925
	.byte	0x31
	.byte	0xb
	.byte	0x7
	.long	0x4f
	.byte	0x8
	.uleb128 0x11
	.long	.LASF926
	.byte	0x31
	.byte	0xc
	.byte	0x7
	.long	0x4f
	.byte	0xc
	.uleb128 0x11
	.long	.LASF927
	.byte	0x31
	.byte	0xd
	.byte	0x7
	.long	0x4f
	.byte	0x10
	.uleb128 0x11
	.long	.LASF928
	.byte	0x31
	.byte	0xe
	.byte	0x7
	.long	0x4f
	.byte	0x14
	.uleb128 0x11
	.long	.LASF929
	.byte	0x31
	.byte	0xf
	.byte	0x7
	.long	0x4f
	.byte	0x18
	.uleb128 0x11
	.long	.LASF930
	.byte	0x31
	.byte	0x10
	.byte	0x7
	.long	0x4f
	.byte	0x1c
	.uleb128 0x11
	.long	.LASF931
	.byte	0x31
	.byte	0x11
	.byte	0x7
	.long	0x4f
	.byte	0x20
	.uleb128 0x11
	.long	.LASF932
	.byte	0x31
	.byte	0x14
	.byte	0xc
	.long	0x7e67
	.byte	0x28
	.uleb128 0x11
	.long	.LASF933
	.byte	0x31
	.byte	0x15
	.byte	0xf
	.long	0x788b
	.byte	0x30
	.byte	0
	.uleb128 0x7
	.long	0x7c7b
	.uleb128 0x25
	.long	.LASF934
	.byte	0x30
	.byte	0xf7
	.byte	0xf
	.long	0x75f6
	.long	0x7d33
	.uleb128 0x1
	.long	0x792d
	.byte	0
	.uleb128 0x25
	.long	.LASF935
	.byte	0x30
	.byte	0x7d
	.byte	0x11
	.long	0x78e4
	.long	0x7d53
	.uleb128 0x1
	.long	0x78e4
	.uleb128 0x1
	.long	0x792d
	.uleb128 0x1
	.long	0x75f6
	.byte	0
	.uleb128 0x25
	.long	.LASF936
	.byte	0x30
	.byte	0x85
	.byte	0xc
	.long	0x4f
	.long	0x7d73
	.uleb128 0x1
	.long	0x792d
	.uleb128 0x1
	.long	0x792d
	.uleb128 0x1
	.long	0x75f6
	.byte	0
	.uleb128 0x25
	.long	.LASF937
	.byte	0x30
	.byte	0x67
	.byte	0x11
	.long	0x78e4
	.long	0x7d93
	.uleb128 0x1
	.long	0x78e4
	.uleb128 0x1
	.long	0x792d
	.uleb128 0x1
	.long	0x75f6
	.byte	0
	.uleb128 0x16
	.long	.LASF938
	.byte	0x30
	.value	0x170
	.byte	0xf
	.long	0x75f6
	.long	0x7db9
	.uleb128 0x1
	.long	0x3e
	.uleb128 0x1
	.long	0x7db9
	.uleb128 0x1
	.long	0x75f6
	.uleb128 0x1
	.long	0x79d2
	.byte	0
	.uleb128 0xd
	.long	0x792d
	.uleb128 0x25
	.long	.LASF939
	.byte	0x30
	.byte	0xd8
	.byte	0xf
	.long	0x75f6
	.long	0x7dd9
	.uleb128 0x1
	.long	0x792d
	.uleb128 0x1
	.long	0x792d
	.byte	0
	.uleb128 0x16
	.long	.LASF940
	.byte	0x30
	.value	0x192
	.byte	0xf
	.long	0x7df5
	.long	0x7df5
	.uleb128 0x1
	.long	0x792d
	.uleb128 0x1
	.long	0x7dfc
	.byte	0
	.uleb128 0x2c
	.byte	0x8
	.byte	0x4
	.long	.LASF941
	.uleb128 0xd
	.long	0x78e4
	.uleb128 0x16
	.long	.LASF942
	.byte	0x30
	.value	0x197
	.byte	0xe
	.long	0x30
	.long	0x7e1d
	.uleb128 0x1
	.long	0x792d
	.uleb128 0x1
	.long	0x7dfc
	.byte	0
	.uleb128 0x7
	.long	0x30
	.uleb128 0x25
	.long	.LASF943
	.byte	0x30
	.byte	0xf2
	.byte	0x11
	.long	0x78e4
	.long	0x7e42
	.uleb128 0x1
	.long	0x78e4
	.uleb128 0x1
	.long	0x792d
	.uleb128 0x1
	.long	0x7dfc
	.byte	0
	.uleb128 0x17
	.long	.LASF944
	.byte	0x30
	.value	0x1f4
	.byte	0x11
	.long	.LASF945
	.long	0x7e67
	.long	0x7e67
	.uleb128 0x1
	.long	0x792d
	.uleb128 0x1
	.long	0x7dfc
	.uleb128 0x1
	.long	0x4f
	.byte	0
	.uleb128 0x2c
	.byte	0x8
	.byte	0x5
	.long	.LASF946
	.uleb128 0x17
	.long	.LASF947
	.byte	0x30
	.value	0x1f7
	.byte	0x1a
	.long	.LASF948
	.long	0x37
	.long	0x7e93
	.uleb128 0x1
	.long	0x792d
	.uleb128 0x1
	.long	0x7dfc
	.uleb128 0x1
	.long	0x4f
	.byte	0
	.uleb128 0x25
	.long	.LASF949
	.byte	0x30
	.byte	0x9f
	.byte	0xf
	.long	0x75f6
	.long	0x7eb3
	.uleb128 0x1
	.long	0x78e4
	.uleb128 0x1
	.long	0x792d
	.uleb128 0x1
	.long	0x75f6
	.byte	0
	.uleb128 0x16
	.long	.LASF950
	.byte	0x30
	.value	0x15d
	.byte	0x1
	.long	0x4f
	.long	0x7eca
	.uleb128 0x1
	.long	0x764c
	.byte	0
	.uleb128 0x16
	.long	.LASF951
	.byte	0x30
	.value	0x11b
	.byte	0xc
	.long	0x4f
	.long	0x7eeb
	.uleb128 0x1
	.long	0x792d
	.uleb128 0x1
	.long	0x792d
	.uleb128 0x1
	.long	0x75f6
	.byte	0
	.uleb128 0x16
	.long	.LASF952
	.byte	0x30
	.value	0x11f
	.byte	0x11
	.long	0x78e4
	.long	0x7f0c
	.uleb128 0x1
	.long	0x78e4
	.uleb128 0x1
	.long	0x792d
	.uleb128 0x1
	.long	0x75f6
	.byte	0
	.uleb128 0x16
	.long	.LASF953
	.byte	0x30
	.value	0x124
	.byte	0x11
	.long	0x78e4
	.long	0x7f2d
	.uleb128 0x1
	.long	0x78e4
	.uleb128 0x1
	.long	0x792d
	.uleb128 0x1
	.long	0x75f6
	.byte	0
	.uleb128 0x16
	.long	.LASF954
	.byte	0x30
	.value	0x128
	.byte	0x11
	.long	0x78e4
	.long	0x7f4e
	.uleb128 0x1
	.long	0x78e4
	.uleb128 0x1
	.long	0x78e9
	.uleb128 0x1
	.long	0x75f6
	.byte	0
	.uleb128 0x16
	.long	.LASF955
	.byte	0x30
	.value	0x2e3
	.byte	0xc
	.long	0x4f
	.long	0x7f66
	.uleb128 0x1
	.long	0x792d
	.uleb128 0x60
	.byte	0
	.uleb128 0x17
	.long	.LASF956
	.byte	0x30
	.value	0x31f
	.byte	0xc
	.long	.LASF957
	.long	0x4f
	.long	0x7f82
	.uleb128 0x1
	.long	0x792d
	.uleb128 0x60
	.byte	0
	.uleb128 0x36
	.long	.LASF958
	.byte	0x30
	.byte	0xba
	.byte	0x1d
	.long	.LASF958
	.long	0x792d
	.long	0x7fa1
	.uleb128 0x1
	.long	0x792d
	.uleb128 0x1
	.long	0x78e9
	.byte	0
	.uleb128 0x36
	.long	.LASF958
	.byte	0x30
	.byte	0xb8
	.byte	0x17
	.long	.LASF958
	.long	0x78e4
	.long	0x7fc0
	.uleb128 0x1
	.long	0x78e4
	.uleb128 0x1
	.long	0x78e9
	.byte	0
	.uleb128 0x36
	.long	.LASF959
	.byte	0x30
	.byte	0xde
	.byte	0x1d
	.long	.LASF959
	.long	0x792d
	.long	0x7fdf
	.uleb128 0x1
	.long	0x792d
	.uleb128 0x1
	.long	0x792d
	.byte	0
	.uleb128 0x36
	.long	.LASF959
	.byte	0x30
	.byte	0xdc
	.byte	0x17
	.long	.LASF959
	.long	0x78e4
	.long	0x7ffe
	.uleb128 0x1
	.long	0x78e4
	.uleb128 0x1
	.long	0x792d
	.byte	0
	.uleb128 0x36
	.long	.LASF960
	.byte	0x30
	.byte	0xc4
	.byte	0x1d
	.long	.LASF960
	.long	0x792d
	.long	0x801d
	.uleb128 0x1
	.long	0x792d
	.uleb128 0x1
	.long	0x78e9
	.byte	0
	.uleb128 0x36
	.long	.LASF960
	.byte	0x30
	.byte	0xc2
	.byte	0x17
	.long	.LASF960
	.long	0x78e4
	.long	0x803c
	.uleb128 0x1
	.long	0x78e4
	.uleb128 0x1
	.long	0x78e9
	.byte	0
	.uleb128 0x36
	.long	.LASF961
	.byte	0x30
	.byte	0xe9
	.byte	0x1d
	.long	.LASF961
	.long	0x792d
	.long	0x805b
	.uleb128 0x1
	.long	0x792d
	.uleb128 0x1
	.long	0x792d
	.byte	0
	.uleb128 0x36
	.long	.LASF961
	.byte	0x30
	.byte	0xe7
	.byte	0x17
	.long	.LASF961
	.long	0x78e4
	.long	0x807a
	.uleb128 0x1
	.long	0x78e4
	.uleb128 0x1
	.long	0x792d
	.byte	0
	.uleb128 0x17
	.long	.LASF962
	.byte	0x30
	.value	0x112
	.byte	0x1d
	.long	.LASF962
	.long	0x792d
	.long	0x809f
	.uleb128 0x1
	.long	0x792d
	.uleb128 0x1
	.long	0x78e9
	.uleb128 0x1
	.long	0x75f6
	.byte	0
	.uleb128 0x17
	.long	.LASF962
	.byte	0x30
	.value	0x110
	.byte	0x17
	.long	.LASF962
	.long	0x78e4
	.long	0x80c4
	.uleb128 0x1
	.long	0x78e4
	.uleb128 0x1
	.long	0x78e9
	.uleb128 0x1
	.long	0x75f6
	.byte	0
	.uleb128 0x96
	.long	.LASF963
	.byte	0x12
	.value	0x17b
	.long	0x9200
	.uleb128 0x5
	.byte	0x11
	.byte	0xfd
	.byte	0xb
	.long	0x9200
	.uleb128 0x18
	.byte	0x11
	.value	0x106
	.byte	0xb
	.long	0x9223
	.uleb128 0x18
	.byte	0x11
	.value	0x107
	.byte	0xb
	.long	0x924f
	.uleb128 0x5
	.byte	0x18
	.byte	0xd2
	.byte	0xb
	.long	0x9667
	.uleb128 0x5
	.byte	0x18
	.byte	0xe4
	.byte	0xb
	.long	0x9975
	.uleb128 0x5
	.byte	0x18
	.byte	0xf0
	.byte	0xb
	.long	0x9991
	.uleb128 0x5
	.byte	0x18
	.byte	0xf1
	.byte	0xb
	.long	0x99a8
	.uleb128 0x5
	.byte	0x18
	.byte	0xf2
	.byte	0xb
	.long	0x99cc
	.uleb128 0x5
	.byte	0x18
	.byte	0xf4
	.byte	0xb
	.long	0x99f0
	.uleb128 0x5
	.byte	0x18
	.byte	0xf5
	.byte	0xb
	.long	0x9a0b
	.uleb128 0x4b
	.string	"div"
	.byte	0x18
	.byte	0xe1
	.long	.LASF964
	.long	0x9667
	.long	0x8141
	.uleb128 0x1
	.long	0x9248
	.uleb128 0x1
	.long	0x9248
	.byte	0
	.uleb128 0xbb
	.long	.LASF1497
	.byte	0x7
	.byte	0x4
	.long	0x7642
	.byte	0x4d
	.byte	0x36
	.byte	0x8
	.long	0x8167
	.uleb128 0x7d
	.long	.LASF965
	.byte	0
	.uleb128 0x7d
	.long	.LASF966
	.byte	0x1
	.uleb128 0x7d
	.long	.LASF967
	.byte	0x2
	.byte	0
	.uleb128 0x7
	.long	0x8141
	.uleb128 0xbc
	.long	.LASF1498
	.byte	0x4d
	.byte	0x3a
	.byte	0x28
	.long	.LASF1499
	.long	0x8167
	.byte	0x2
	.byte	0x3
	.uleb128 0x19
	.long	.LASF968
	.byte	0x1
	.byte	0x32
	.byte	0x2f
	.byte	0xa
	.long	0x828e
	.uleb128 0x5
	.byte	0x32
	.byte	0x2f
	.byte	0xa
	.long	0xd8c
	.uleb128 0x5
	.byte	0x32
	.byte	0x2f
	.byte	0xa
	.long	0xd4d
	.uleb128 0x5
	.byte	0x32
	.byte	0x2f
	.byte	0xa
	.long	0xdbe
	.uleb128 0x5
	.byte	0x32
	.byte	0x2f
	.byte	0xa
	.long	0xddf
	.uleb128 0x37
	.long	0xd32
	.uleb128 0x36
	.long	.LASF969
	.byte	0x32
	.byte	0x63
	.byte	0x1d
	.long	.LASF970
	.long	0xca9
	.long	0x81cb
	.uleb128 0x1
	.long	0xa023
	.byte	0
	.uleb128 0x4a
	.long	.LASF971
	.byte	0x32
	.byte	0x67
	.byte	0x26
	.long	.LASF972
	.long	0x81e6
	.uleb128 0x1
	.long	0xa028
	.uleb128 0x1
	.long	0xa028
	.byte	0
	.uleb128 0x33
	.long	.LASF973
	.byte	0x6b
	.long	.LASF974
	.long	0x92bf
	.uleb128 0x33
	.long	.LASF975
	.byte	0x6f
	.long	.LASF976
	.long	0x92bf
	.uleb128 0x33
	.long	.LASF977
	.byte	0x73
	.long	.LASF978
	.long	0x92bf
	.uleb128 0x33
	.long	.LASF979
	.byte	0x77
	.long	.LASF980
	.long	0x92bf
	.uleb128 0x33
	.long	.LASF981
	.byte	0x7b
	.long	.LASF982
	.long	0x92bf
	.uleb128 0x8
	.long	.LASF6
	.byte	0x32
	.byte	0x37
	.byte	0x35
	.long	0xe15
	.uleb128 0x7
	.long	0x822c
	.uleb128 0x8
	.long	.LASF74
	.byte	0x32
	.byte	0x38
	.byte	0x35
	.long	0xd40
	.uleb128 0x8
	.long	.LASF75
	.byte	0x32
	.byte	0x3d
	.byte	0x35
	.long	0xa037
	.uleb128 0x8
	.long	.LASF78
	.byte	0x32
	.byte	0x3e
	.byte	0x35
	.long	0xa03c
	.uleb128 0x19
	.long	.LASF983
	.byte	0x1
	.byte	0x32
	.byte	0x7f
	.byte	0xe
	.long	0x8284
	.uleb128 0x8
	.long	.LASF984
	.byte	0x32
	.byte	0x80
	.byte	0x41
	.long	0xe22
	.uleb128 0xf
	.string	"_Tp"
	.long	0x92d5
	.byte	0
	.uleb128 0xa
	.long	.LASF146
	.long	0xca9
	.byte	0
	.uleb128 0x49
	.long	.LASF985
	.byte	0x8
	.byte	0x3
	.value	0x402
	.long	0x84bc
	.uleb128 0x66
	.long	.LASF987
	.long	0x9ff6
	.uleb128 0x10
	.long	.LASF988
	.byte	0x3
	.value	0x41d
	.byte	0x7
	.long	.LASF989
	.byte	0x1
	.long	0x82ba
	.long	0x82c0
	.uleb128 0x2
	.long	0xa903
	.byte	0
	.uleb128 0x40
	.long	.LASF988
	.byte	0x3
	.value	0x422
	.long	.LASF990
	.long	0x82d4
	.long	0x82df
	.uleb128 0x2
	.long	0xa903
	.uleb128 0x1
	.long	0xa90d
	.byte	0
	.uleb128 0x15
	.long	.LASF75
	.byte	0x3
	.value	0x414
	.byte	0x32
	.long	0x6c79
	.uleb128 0x6
	.long	.LASF991
	.byte	0x3
	.value	0x441
	.byte	0x7
	.long	.LASF992
	.long	0x82df
	.byte	0x1
	.long	0x8306
	.long	0x830c
	.uleb128 0x2
	.long	0xa912
	.byte	0
	.uleb128 0x15
	.long	.LASF74
	.byte	0x3
	.value	0x415
	.byte	0x32
	.long	0x6c6d
	.uleb128 0x6
	.long	.LASF993
	.byte	0x3
	.value	0x447
	.byte	0x7
	.long	.LASF994
	.long	0x830c
	.byte	0x1
	.long	0x8333
	.long	0x8339
	.uleb128 0x2
	.long	0xa912
	.byte	0
	.uleb128 0x6
	.long	.LASF995
	.byte	0x3
	.value	0x44d
	.byte	0x7
	.long	.LASF996
	.long	0xa91c
	.byte	0x1
	.long	0x8353
	.long	0x8359
	.uleb128 0x2
	.long	0xa903
	.byte	0
	.uleb128 0x6
	.long	.LASF995
	.byte	0x3
	.value	0x456
	.byte	0x7
	.long	.LASF997
	.long	0x828e
	.byte	0x1
	.long	0x8373
	.long	0x837e
	.uleb128 0x2
	.long	0xa903
	.uleb128 0x1
	.long	0x4f
	.byte	0
	.uleb128 0x6
	.long	.LASF998
	.byte	0x3
	.value	0x45e
	.byte	0x7
	.long	.LASF999
	.long	0xa91c
	.byte	0x1
	.long	0x8398
	.long	0x839e
	.uleb128 0x2
	.long	0xa903
	.byte	0
	.uleb128 0x6
	.long	.LASF998
	.byte	0x3
	.value	0x467
	.byte	0x7
	.long	.LASF1000
	.long	0x828e
	.byte	0x1
	.long	0x83b8
	.long	0x83c3
	.uleb128 0x2
	.long	0xa903
	.uleb128 0x1
	.long	0x4f
	.byte	0
	.uleb128 0x6
	.long	.LASF213
	.byte	0x3
	.value	0x46f
	.byte	0x7
	.long	.LASF1001
	.long	0x82df
	.byte	0x1
	.long	0x83dd
	.long	0x83e8
	.uleb128 0x2
	.long	0xa912
	.uleb128 0x1
	.long	0x83e8
	.byte	0
	.uleb128 0x15
	.long	.LASF447
	.byte	0x3
	.value	0x413
	.byte	0x38
	.long	0x6c61
	.uleb128 0x6
	.long	.LASF1002
	.byte	0x3
	.value	0x475
	.byte	0x7
	.long	.LASF1003
	.long	0xa91c
	.byte	0x1
	.long	0x840f
	.long	0x841a
	.uleb128 0x2
	.long	0xa903
	.uleb128 0x1
	.long	0x83e8
	.byte	0
	.uleb128 0x6
	.long	.LASF1004
	.byte	0x3
	.value	0x47b
	.byte	0x7
	.long	.LASF1005
	.long	0x828e
	.byte	0x1
	.long	0x8434
	.long	0x843f
	.uleb128 0x2
	.long	0xa912
	.uleb128 0x1
	.long	0x83e8
	.byte	0
	.uleb128 0x6
	.long	.LASF1006
	.byte	0x3
	.value	0x481
	.byte	0x7
	.long	.LASF1007
	.long	0xa91c
	.byte	0x1
	.long	0x8459
	.long	0x8464
	.uleb128 0x2
	.long	0xa903
	.uleb128 0x1
	.long	0x83e8
	.byte	0
	.uleb128 0x6
	.long	.LASF1008
	.byte	0x3
	.value	0x487
	.byte	0x7
	.long	.LASF1009
	.long	0x828e
	.byte	0x1
	.long	0x847e
	.long	0x8489
	.uleb128 0x2
	.long	0xa912
	.uleb128 0x1
	.long	0x83e8
	.byte	0
	.uleb128 0x6
	.long	.LASF1010
	.byte	0x3
	.value	0x48d
	.byte	0x7
	.long	.LASF1011
	.long	0xa90d
	.byte	0x1
	.long	0x84a3
	.long	0x84a9
	.uleb128 0x2
	.long	0xa912
	.byte	0
	.uleb128 0xa
	.long	.LASF448
	.long	0x9ff6
	.uleb128 0xa
	.long	.LASF1012
	.long	0x11f9
	.byte	0
	.uleb128 0x7
	.long	0x828e
	.uleb128 0x35
	.long	.LASF1013
	.uleb128 0x19
	.long	.LASF1014
	.byte	0x1
	.byte	0x32
	.byte	0x2f
	.byte	0xa
	.long	0x85d5
	.uleb128 0x5
	.byte	0x32
	.byte	0x2f
	.byte	0xa
	.long	0x215c
	.uleb128 0x5
	.byte	0x32
	.byte	0x2f
	.byte	0xa
	.long	0x211d
	.uleb128 0x5
	.byte	0x32
	.byte	0x2f
	.byte	0xa
	.long	0x218e
	.uleb128 0x5
	.byte	0x32
	.byte	0x2f
	.byte	0xa
	.long	0x21af
	.uleb128 0x37
	.long	0x2102
	.uleb128 0x36
	.long	.LASF969
	.byte	0x32
	.byte	0x63
	.byte	0x1d
	.long	.LASF1015
	.long	0x2079
	.long	0x8512
	.uleb128 0x1
	.long	0xa516
	.byte	0
	.uleb128 0x4a
	.long	.LASF971
	.byte	0x32
	.byte	0x67
	.byte	0x26
	.long	.LASF1016
	.long	0x852d
	.uleb128 0x1
	.long	0xa51b
	.uleb128 0x1
	.long	0xa51b
	.byte	0
	.uleb128 0x33
	.long	.LASF973
	.byte	0x6b
	.long	.LASF1017
	.long	0x92bf
	.uleb128 0x33
	.long	.LASF975
	.byte	0x6f
	.long	.LASF1018
	.long	0x92bf
	.uleb128 0x33
	.long	.LASF977
	.byte	0x73
	.long	.LASF1019
	.long	0x92bf
	.uleb128 0x33
	.long	.LASF979
	.byte	0x77
	.long	.LASF1020
	.long	0x92bf
	.uleb128 0x33
	.long	.LASF981
	.byte	0x7b
	.long	.LASF1021
	.long	0x92bf
	.uleb128 0x8
	.long	.LASF6
	.byte	0x32
	.byte	0x37
	.byte	0x35
	.long	0x21e5
	.uleb128 0x7
	.long	0x8573
	.uleb128 0x8
	.long	.LASF74
	.byte	0x32
	.byte	0x38
	.byte	0x35
	.long	0x2110
	.uleb128 0x8
	.long	.LASF75
	.byte	0x32
	.byte	0x3d
	.byte	0x35
	.long	0xa52a
	.uleb128 0x8
	.long	.LASF78
	.byte	0x32
	.byte	0x3e
	.byte	0x35
	.long	0xa52f
	.uleb128 0x19
	.long	.LASF1022
	.byte	0x1
	.byte	0x32
	.byte	0x7f
	.byte	0xe
	.long	0x85cb
	.uleb128 0x8
	.long	.LASF984
	.byte	0x32
	.byte	0x80
	.byte	0x41
	.long	0x21f2
	.uleb128 0xf
	.string	"_Tp"
	.long	0xa1cb
	.byte	0
	.uleb128 0xa
	.long	.LASF146
	.long	0x2079
	.byte	0
	.uleb128 0x49
	.long	.LASF1023
	.byte	0x8
	.byte	0x3
	.value	0x402
	.long	0x8803
	.uleb128 0x66
	.long	.LASF987
	.long	0xa4ee
	.uleb128 0x10
	.long	.LASF988
	.byte	0x3
	.value	0x41d
	.byte	0x7
	.long	.LASF1024
	.byte	0x1
	.long	0x8601
	.long	0x8607
	.uleb128 0x2
	.long	0xa6ab
	.byte	0
	.uleb128 0x40
	.long	.LASF988
	.byte	0x3
	.value	0x422
	.long	.LASF1025
	.long	0x861b
	.long	0x8626
	.uleb128 0x2
	.long	0xa6ab
	.uleb128 0x1
	.long	0xa6b5
	.byte	0
	.uleb128 0x15
	.long	.LASF75
	.byte	0x3
	.value	0x414
	.byte	0x32
	.long	0x43d0
	.uleb128 0x6
	.long	.LASF991
	.byte	0x3
	.value	0x441
	.byte	0x7
	.long	.LASF1026
	.long	0x8626
	.byte	0x1
	.long	0x864d
	.long	0x8653
	.uleb128 0x2
	.long	0xa6ba
	.byte	0
	.uleb128 0x15
	.long	.LASF74
	.byte	0x3
	.value	0x415
	.byte	0x32
	.long	0x43c4
	.uleb128 0x6
	.long	.LASF993
	.byte	0x3
	.value	0x447
	.byte	0x7
	.long	.LASF1027
	.long	0x8653
	.byte	0x1
	.long	0x867a
	.long	0x8680
	.uleb128 0x2
	.long	0xa6ba
	.byte	0
	.uleb128 0x6
	.long	.LASF995
	.byte	0x3
	.value	0x44d
	.byte	0x7
	.long	.LASF1028
	.long	0xa6c4
	.byte	0x1
	.long	0x869a
	.long	0x86a0
	.uleb128 0x2
	.long	0xa6ab
	.byte	0
	.uleb128 0x6
	.long	.LASF995
	.byte	0x3
	.value	0x456
	.byte	0x7
	.long	.LASF1029
	.long	0x85d5
	.byte	0x1
	.long	0x86ba
	.long	0x86c5
	.uleb128 0x2
	.long	0xa6ab
	.uleb128 0x1
	.long	0x4f
	.byte	0
	.uleb128 0x6
	.long	.LASF998
	.byte	0x3
	.value	0x45e
	.byte	0x7
	.long	.LASF1030
	.long	0xa6c4
	.byte	0x1
	.long	0x86df
	.long	0x86e5
	.uleb128 0x2
	.long	0xa6ab
	.byte	0
	.uleb128 0x6
	.long	.LASF998
	.byte	0x3
	.value	0x467
	.byte	0x7
	.long	.LASF1031
	.long	0x85d5
	.byte	0x1
	.long	0x86ff
	.long	0x870a
	.uleb128 0x2
	.long	0xa6ab
	.uleb128 0x1
	.long	0x4f
	.byte	0
	.uleb128 0x6
	.long	.LASF213
	.byte	0x3
	.value	0x46f
	.byte	0x7
	.long	.LASF1032
	.long	0x8626
	.byte	0x1
	.long	0x8724
	.long	0x872f
	.uleb128 0x2
	.long	0xa6ba
	.uleb128 0x1
	.long	0x872f
	.byte	0
	.uleb128 0x15
	.long	.LASF447
	.byte	0x3
	.value	0x413
	.byte	0x38
	.long	0x43b8
	.uleb128 0x6
	.long	.LASF1002
	.byte	0x3
	.value	0x475
	.byte	0x7
	.long	.LASF1033
	.long	0xa6c4
	.byte	0x1
	.long	0x8756
	.long	0x8761
	.uleb128 0x2
	.long	0xa6ab
	.uleb128 0x1
	.long	0x872f
	.byte	0
	.uleb128 0x6
	.long	.LASF1004
	.byte	0x3
	.value	0x47b
	.byte	0x7
	.long	.LASF1034
	.long	0x85d5
	.byte	0x1
	.long	0x877b
	.long	0x8786
	.uleb128 0x2
	.long	0xa6ba
	.uleb128 0x1
	.long	0x872f
	.byte	0
	.uleb128 0x6
	.long	.LASF1006
	.byte	0x3
	.value	0x481
	.byte	0x7
	.long	.LASF1035
	.long	0xa6c4
	.byte	0x1
	.long	0x87a0
	.long	0x87ab
	.uleb128 0x2
	.long	0xa6ab
	.uleb128 0x1
	.long	0x872f
	.byte	0
	.uleb128 0x6
	.long	.LASF1008
	.byte	0x3
	.value	0x487
	.byte	0x7
	.long	.LASF1036
	.long	0x85d5
	.byte	0x1
	.long	0x87c5
	.long	0x87d0
	.uleb128 0x2
	.long	0xa6ba
	.uleb128 0x1
	.long	0x872f
	.byte	0
	.uleb128 0x6
	.long	.LASF1010
	.byte	0x3
	.value	0x48d
	.byte	0x7
	.long	.LASF1037
	.long	0xa6b5
	.byte	0x1
	.long	0x87ea
	.long	0x87f0
	.uleb128 0x2
	.long	0xa6ba
	.byte	0
	.uleb128 0xa
	.long	.LASF448
	.long	0xa4ee
	.uleb128 0xa
	.long	.LASF1012
	.long	0x25b0
	.byte	0
	.uleb128 0x7
	.long	0x85d5
	.uleb128 0x49
	.long	.LASF1038
	.byte	0x8
	.byte	0x3
	.value	0x402
	.long	0x8a36
	.uleb128 0x66
	.long	.LASF987
	.long	0xa502
	.uleb128 0x10
	.long	.LASF988
	.byte	0x3
	.value	0x41d
	.byte	0x7
	.long	.LASF1039
	.byte	0x1
	.long	0x8834
	.long	0x883a
	.uleb128 0x2
	.long	0xa8ef
	.byte	0
	.uleb128 0x40
	.long	.LASF988
	.byte	0x3
	.value	0x422
	.long	.LASF1040
	.long	0x884e
	.long	0x8859
	.uleb128 0x2
	.long	0xa8ef
	.uleb128 0x1
	.long	0xa8f4
	.byte	0
	.uleb128 0x15
	.long	.LASF75
	.byte	0x3
	.value	0x414
	.byte	0x32
	.long	0x6c3e
	.uleb128 0x6
	.long	.LASF991
	.byte	0x3
	.value	0x441
	.byte	0x7
	.long	.LASF1041
	.long	0x8859
	.byte	0x1
	.long	0x8880
	.long	0x8886
	.uleb128 0x2
	.long	0xa8f9
	.byte	0
	.uleb128 0x15
	.long	.LASF74
	.byte	0x3
	.value	0x415
	.byte	0x32
	.long	0x6c32
	.uleb128 0x6
	.long	.LASF993
	.byte	0x3
	.value	0x447
	.byte	0x7
	.long	.LASF1042
	.long	0x8886
	.byte	0x1
	.long	0x88ad
	.long	0x88b3
	.uleb128 0x2
	.long	0xa8f9
	.byte	0
	.uleb128 0x6
	.long	.LASF995
	.byte	0x3
	.value	0x44d
	.byte	0x7
	.long	.LASF1043
	.long	0xa8fe
	.byte	0x1
	.long	0x88cd
	.long	0x88d3
	.uleb128 0x2
	.long	0xa8ef
	.byte	0
	.uleb128 0x6
	.long	.LASF995
	.byte	0x3
	.value	0x456
	.byte	0x7
	.long	.LASF1044
	.long	0x8808
	.byte	0x1
	.long	0x88ed
	.long	0x88f8
	.uleb128 0x2
	.long	0xa8ef
	.uleb128 0x1
	.long	0x4f
	.byte	0
	.uleb128 0x6
	.long	.LASF998
	.byte	0x3
	.value	0x45e
	.byte	0x7
	.long	.LASF1045
	.long	0xa8fe
	.byte	0x1
	.long	0x8912
	.long	0x8918
	.uleb128 0x2
	.long	0xa8ef
	.byte	0
	.uleb128 0x6
	.long	.LASF998
	.byte	0x3
	.value	0x467
	.byte	0x7
	.long	.LASF1046
	.long	0x8808
	.byte	0x1
	.long	0x8932
	.long	0x893d
	.uleb128 0x2
	.long	0xa8ef
	.uleb128 0x1
	.long	0x4f
	.byte	0
	.uleb128 0x6
	.long	.LASF213
	.byte	0x3
	.value	0x46f
	.byte	0x7
	.long	.LASF1047
	.long	0x8859
	.byte	0x1
	.long	0x8957
	.long	0x8962
	.uleb128 0x2
	.long	0xa8f9
	.uleb128 0x1
	.long	0x8962
	.byte	0
	.uleb128 0x15
	.long	.LASF447
	.byte	0x3
	.value	0x413
	.byte	0x38
	.long	0x6c26
	.uleb128 0x6
	.long	.LASF1002
	.byte	0x3
	.value	0x475
	.byte	0x7
	.long	.LASF1048
	.long	0xa8fe
	.byte	0x1
	.long	0x8989
	.long	0x8994
	.uleb128 0x2
	.long	0xa8ef
	.uleb128 0x1
	.long	0x8962
	.byte	0
	.uleb128 0x6
	.long	.LASF1004
	.byte	0x3
	.value	0x47b
	.byte	0x7
	.long	.LASF1049
	.long	0x8808
	.byte	0x1
	.long	0x89ae
	.long	0x89b9
	.uleb128 0x2
	.long	0xa8f9
	.uleb128 0x1
	.long	0x8962
	.byte	0
	.uleb128 0x6
	.long	.LASF1006
	.byte	0x3
	.value	0x481
	.byte	0x7
	.long	.LASF1050
	.long	0xa8fe
	.byte	0x1
	.long	0x89d3
	.long	0x89de
	.uleb128 0x2
	.long	0xa8ef
	.uleb128 0x1
	.long	0x8962
	.byte	0
	.uleb128 0x6
	.long	.LASF1008
	.byte	0x3
	.value	0x487
	.byte	0x7
	.long	.LASF1051
	.long	0x8808
	.byte	0x1
	.long	0x89f8
	.long	0x8a03
	.uleb128 0x2
	.long	0xa8f9
	.uleb128 0x1
	.long	0x8962
	.byte	0
	.uleb128 0x6
	.long	.LASF1010
	.byte	0x3
	.value	0x48d
	.byte	0x7
	.long	.LASF1052
	.long	0xa8f4
	.byte	0x1
	.long	0x8a1d
	.long	0x8a23
	.uleb128 0x2
	.long	0xa8f9
	.byte	0
	.uleb128 0xa
	.long	.LASF448
	.long	0xa502
	.uleb128 0xa
	.long	.LASF1012
	.long	0x25b0
	.byte	0
	.uleb128 0x7
	.long	0x8808
	.uleb128 0x19
	.long	.LASF1053
	.byte	0x1
	.byte	0x32
	.byte	0x2f
	.byte	0xa
	.long	0x8b30
	.uleb128 0x5
	.byte	0x32
	.byte	0x2f
	.byte	0xa
	.long	0x3401
	.uleb128 0x5
	.byte	0x32
	.byte	0x2f
	.byte	0xa
	.long	0x33c6
	.uleb128 0x5
	.byte	0x32
	.byte	0x2f
	.byte	0xa
	.long	0x342f
	.uleb128 0x5
	.byte	0x32
	.byte	0x2f
	.byte	0xa
	.long	0x344c
	.uleb128 0x37
	.long	0x33ab
	.uleb128 0x91
	.long	.LASF969
	.byte	0x32
	.byte	0x63
	.byte	0x1d
	.long	0x332e
	.long	0x8a84
	.uleb128 0x1
	.long	0xa5f7
	.byte	0
	.uleb128 0x92
	.long	.LASF971
	.byte	0x32
	.byte	0x67
	.byte	0x26
	.long	0x8a9c
	.uleb128 0x1
	.long	0xa5fc
	.uleb128 0x1
	.long	0xa5fc
	.byte	0
	.uleb128 0x67
	.long	.LASF973
	.byte	0x6b
	.long	0x92bf
	.uleb128 0x67
	.long	.LASF975
	.byte	0x6f
	.long	0x92bf
	.uleb128 0x67
	.long	.LASF977
	.byte	0x73
	.long	0x92bf
	.uleb128 0x67
	.long	.LASF979
	.byte	0x77
	.long	0x92bf
	.uleb128 0x67
	.long	.LASF981
	.byte	0x7b
	.long	0x92bf
	.uleb128 0x8
	.long	.LASF6
	.byte	0x32
	.byte	0x37
	.byte	0x35
	.long	0x347a
	.uleb128 0x7
	.long	0x8ace
	.uleb128 0x8
	.long	.LASF74
	.byte	0x32
	.byte	0x38
	.byte	0x35
	.long	0x33b9
	.uleb128 0x8
	.long	.LASF75
	.byte	0x32
	.byte	0x3d
	.byte	0x35
	.long	0xa60b
	.uleb128 0x8
	.long	.LASF78
	.byte	0x32
	.byte	0x3e
	.byte	0x35
	.long	0xa610
	.uleb128 0x19
	.long	.LASF1054
	.byte	0x1
	.byte	0x32
	.byte	0x7f
	.byte	0xe
	.long	0x8b26
	.uleb128 0x8
	.long	.LASF984
	.byte	0x32
	.byte	0x80
	.byte	0x41
	.long	0x3487
	.uleb128 0xf
	.string	"_Tp"
	.long	0xa446
	.byte	0
	.uleb128 0xa
	.long	.LASF146
	.long	0x332e
	.byte	0
	.uleb128 0x49
	.long	.LASF1055
	.byte	0x8
	.byte	0x3
	.value	0x402
	.long	0x8d26
	.uleb128 0x66
	.long	.LASF987
	.long	0xa5ca
	.uleb128 0x2e
	.long	.LASF988
	.byte	0x3
	.value	0x41d
	.byte	0x7
	.byte	0x1
	.long	0x8b58
	.long	0x8b5e
	.uleb128 0x2
	.long	0xa7b9
	.byte	0
	.uleb128 0x7a
	.long	.LASF988
	.byte	0x3
	.value	0x422
	.long	0x8b6e
	.long	0x8b79
	.uleb128 0x2
	.long	0xa7b9
	.uleb128 0x1
	.long	0xa7c3
	.byte	0
	.uleb128 0x15
	.long	.LASF75
	.byte	0x3
	.value	0x414
	.byte	0x32
	.long	0x57b8
	.uleb128 0x1f
	.long	.LASF991
	.byte	0x3
	.value	0x441
	.byte	0x7
	.long	0x8b79
	.byte	0x1
	.long	0x8b9c
	.long	0x8ba2
	.uleb128 0x2
	.long	0xa7c8
	.byte	0
	.uleb128 0x15
	.long	.LASF74
	.byte	0x3
	.value	0x415
	.byte	0x32
	.long	0x57ac
	.uleb128 0x1f
	.long	.LASF993
	.byte	0x3
	.value	0x447
	.byte	0x7
	.long	0x8ba2
	.byte	0x1
	.long	0x8bc5
	.long	0x8bcb
	.uleb128 0x2
	.long	0xa7c8
	.byte	0
	.uleb128 0x1f
	.long	.LASF995
	.byte	0x3
	.value	0x44d
	.byte	0x7
	.long	0xa7d2
	.byte	0x1
	.long	0x8be1
	.long	0x8be7
	.uleb128 0x2
	.long	0xa7b9
	.byte	0
	.uleb128 0x1f
	.long	.LASF995
	.byte	0x3
	.value	0x456
	.byte	0x7
	.long	0x8b30
	.byte	0x1
	.long	0x8bfd
	.long	0x8c08
	.uleb128 0x2
	.long	0xa7b9
	.uleb128 0x1
	.long	0x4f
	.byte	0
	.uleb128 0x1f
	.long	.LASF998
	.byte	0x3
	.value	0x45e
	.byte	0x7
	.long	0xa7d2
	.byte	0x1
	.long	0x8c1e
	.long	0x8c24
	.uleb128 0x2
	.long	0xa7b9
	.byte	0
	.uleb128 0x1f
	.long	.LASF998
	.byte	0x3
	.value	0x467
	.byte	0x7
	.long	0x8b30
	.byte	0x1
	.long	0x8c3a
	.long	0x8c45
	.uleb128 0x2
	.long	0xa7b9
	.uleb128 0x1
	.long	0x4f
	.byte	0
	.uleb128 0x1f
	.long	.LASF213
	.byte	0x3
	.value	0x46f
	.byte	0x7
	.long	0x8b79
	.byte	0x1
	.long	0x8c5b
	.long	0x8c66
	.uleb128 0x2
	.long	0xa7c8
	.uleb128 0x1
	.long	0x8c66
	.byte	0
	.uleb128 0x15
	.long	.LASF447
	.byte	0x3
	.value	0x413
	.byte	0x38
	.long	0x57a0
	.uleb128 0x1f
	.long	.LASF1002
	.byte	0x3
	.value	0x475
	.byte	0x7
	.long	0xa7d2
	.byte	0x1
	.long	0x8c89
	.long	0x8c94
	.uleb128 0x2
	.long	0xa7b9
	.uleb128 0x1
	.long	0x8c66
	.byte	0
	.uleb128 0x1f
	.long	.LASF1004
	.byte	0x3
	.value	0x47b
	.byte	0x7
	.long	0x8b30
	.byte	0x1
	.long	0x8caa
	.long	0x8cb5
	.uleb128 0x2
	.long	0xa7c8
	.uleb128 0x1
	.long	0x8c66
	.byte	0
	.uleb128 0x1f
	.long	.LASF1006
	.byte	0x3
	.value	0x481
	.byte	0x7
	.long	0xa7d2
	.byte	0x1
	.long	0x8ccb
	.long	0x8cd6
	.uleb128 0x2
	.long	0xa7b9
	.uleb128 0x1
	.long	0x8c66
	.byte	0
	.uleb128 0x1f
	.long	.LASF1008
	.byte	0x3
	.value	0x487
	.byte	0x7
	.long	0x8b30
	.byte	0x1
	.long	0x8cec
	.long	0x8cf7
	.uleb128 0x2
	.long	0xa7c8
	.uleb128 0x1
	.long	0x8c66
	.byte	0
	.uleb128 0x1f
	.long	.LASF1010
	.byte	0x3
	.value	0x48d
	.byte	0x7
	.long	0xa7c3
	.byte	0x1
	.long	0x8d0d
	.long	0x8d13
	.uleb128 0x2
	.long	0xa7c8
	.byte	0
	.uleb128 0xa
	.long	.LASF448
	.long	0xa5ca
	.uleb128 0xa
	.long	.LASF1012
	.long	0x382a
	.byte	0
	.uleb128 0x7
	.long	0x8b30
	.uleb128 0x35
	.long	.LASF1056
	.uleb128 0x19
	.long	.LASF1057
	.byte	0x1
	.byte	0x32
	.byte	0x2f
	.byte	0xa
	.long	0x8e3f
	.uleb128 0x5
	.byte	0x32
	.byte	0x2f
	.byte	0xa
	.long	0x466c
	.uleb128 0x5
	.byte	0x32
	.byte	0x2f
	.byte	0xa
	.long	0x462d
	.uleb128 0x5
	.byte	0x32
	.byte	0x2f
	.byte	0xa
	.long	0x469e
	.uleb128 0x5
	.byte	0x32
	.byte	0x2f
	.byte	0xa
	.long	0x46bf
	.uleb128 0x37
	.long	0x4612
	.uleb128 0x36
	.long	.LASF969
	.byte	0x32
	.byte	0x63
	.byte	0x1d
	.long	.LASF1058
	.long	0x4589
	.long	0x8d7c
	.uleb128 0x1
	.long	0xa705
	.byte	0
	.uleb128 0x4a
	.long	.LASF971
	.byte	0x32
	.byte	0x67
	.byte	0x26
	.long	.LASF1059
	.long	0x8d97
	.uleb128 0x1
	.long	0xa70a
	.uleb128 0x1
	.long	0xa70a
	.byte	0
	.uleb128 0x33
	.long	.LASF973
	.byte	0x6b
	.long	.LASF1060
	.long	0x92bf
	.uleb128 0x33
	.long	.LASF975
	.byte	0x6f
	.long	.LASF1061
	.long	0x92bf
	.uleb128 0x33
	.long	.LASF977
	.byte	0x73
	.long	.LASF1062
	.long	0x92bf
	.uleb128 0x33
	.long	.LASF979
	.byte	0x77
	.long	.LASF1063
	.long	0x92bf
	.uleb128 0x33
	.long	.LASF981
	.byte	0x7b
	.long	.LASF1064
	.long	0x92bf
	.uleb128 0x8
	.long	.LASF6
	.byte	0x32
	.byte	0x37
	.byte	0x35
	.long	0x46f5
	.uleb128 0x7
	.long	0x8ddd
	.uleb128 0x8
	.long	.LASF74
	.byte	0x32
	.byte	0x38
	.byte	0x35
	.long	0x4620
	.uleb128 0x8
	.long	.LASF75
	.byte	0x32
	.byte	0x3d
	.byte	0x35
	.long	0xa719
	.uleb128 0x8
	.long	.LASF78
	.byte	0x32
	.byte	0x3e
	.byte	0x35
	.long	0xa71e
	.uleb128 0x19
	.long	.LASF1065
	.byte	0x1
	.byte	0x32
	.byte	0x7f
	.byte	0xe
	.long	0x8e35
	.uleb128 0x8
	.long	.LASF984
	.byte	0x32
	.byte	0x80
	.byte	0x41
	.long	0x4702
	.uleb128 0xf
	.string	"_Tp"
	.long	0x4f
	.byte	0
	.uleb128 0xa
	.long	.LASF146
	.long	0x4589
	.byte	0
	.uleb128 0x35
	.long	.LASF1066
	.uleb128 0x35
	.long	.LASF1067
	.uleb128 0x19
	.long	.LASF1068
	.byte	0x1
	.byte	0x32
	.byte	0x2f
	.byte	0xa
	.long	0x8f58
	.uleb128 0x5
	.byte	0x32
	.byte	0x2f
	.byte	0xa
	.long	0x5a54
	.uleb128 0x5
	.byte	0x32
	.byte	0x2f
	.byte	0xa
	.long	0x5a15
	.uleb128 0x5
	.byte	0x32
	.byte	0x2f
	.byte	0xa
	.long	0x5a86
	.uleb128 0x5
	.byte	0x32
	.byte	0x2f
	.byte	0xa
	.long	0x5aa7
	.uleb128 0x37
	.long	0x59fa
	.uleb128 0x36
	.long	.LASF969
	.byte	0x32
	.byte	0x63
	.byte	0x1d
	.long	.LASF1069
	.long	0x5971
	.long	0x8e95
	.uleb128 0x1
	.long	0xa818
	.byte	0
	.uleb128 0x4a
	.long	.LASF971
	.byte	0x32
	.byte	0x67
	.byte	0x26
	.long	.LASF1070
	.long	0x8eb0
	.uleb128 0x1
	.long	0xa81d
	.uleb128 0x1
	.long	0xa81d
	.byte	0
	.uleb128 0x33
	.long	.LASF973
	.byte	0x6b
	.long	.LASF1071
	.long	0x92bf
	.uleb128 0x33
	.long	.LASF975
	.byte	0x6f
	.long	.LASF1072
	.long	0x92bf
	.uleb128 0x33
	.long	.LASF977
	.byte	0x73
	.long	.LASF1073
	.long	0x92bf
	.uleb128 0x33
	.long	.LASF979
	.byte	0x77
	.long	.LASF1074
	.long	0x92bf
	.uleb128 0x33
	.long	.LASF981
	.byte	0x7b
	.long	.LASF1075
	.long	0x92bf
	.uleb128 0x8
	.long	.LASF6
	.byte	0x32
	.byte	0x37
	.byte	0x35
	.long	0x5add
	.uleb128 0x7
	.long	0x8ef6
	.uleb128 0x8
	.long	.LASF74
	.byte	0x32
	.byte	0x38
	.byte	0x35
	.long	0x5a08
	.uleb128 0x8
	.long	.LASF75
	.byte	0x32
	.byte	0x3d
	.byte	0x35
	.long	0xa82c
	.uleb128 0x8
	.long	.LASF78
	.byte	0x32
	.byte	0x3e
	.byte	0x35
	.long	0xa831
	.uleb128 0x19
	.long	.LASF1076
	.byte	0x1
	.byte	0x32
	.byte	0x7f
	.byte	0xe
	.long	0x8f4e
	.uleb128 0x8
	.long	.LASF984
	.byte	0x32
	.byte	0x80
	.byte	0x41
	.long	0x5aea
	.uleb128 0xf
	.string	"_Tp"
	.long	0x30
	.byte	0
	.uleb128 0xa
	.long	.LASF146
	.long	0x5971
	.byte	0
	.uleb128 0x49
	.long	.LASF1077
	.byte	0x8
	.byte	0x3
	.value	0x402
	.long	0x9186
	.uleb128 0x66
	.long	.LASF987
	.long	0xa7eb
	.uleb128 0x10
	.long	.LASF988
	.byte	0x3
	.value	0x41d
	.byte	0x7
	.long	.LASF1078
	.byte	0x1
	.long	0x8f84
	.long	0x8f8a
	.uleb128 0x2
	.long	0xa8d1
	.byte	0
	.uleb128 0x40
	.long	.LASF988
	.byte	0x3
	.value	0x422
	.long	.LASF1079
	.long	0x8f9e
	.long	0x8fa9
	.uleb128 0x2
	.long	0xa8d1
	.uleb128 0x1
	.long	0xa8db
	.byte	0
	.uleb128 0x15
	.long	.LASF75
	.byte	0x3
	.value	0x414
	.byte	0x32
	.long	0x6bd8
	.uleb128 0x6
	.long	.LASF991
	.byte	0x3
	.value	0x441
	.byte	0x7
	.long	.LASF1080
	.long	0x8fa9
	.byte	0x1
	.long	0x8fd0
	.long	0x8fd6
	.uleb128 0x2
	.long	0xa8e0
	.byte	0
	.uleb128 0x15
	.long	.LASF74
	.byte	0x3
	.value	0x415
	.byte	0x32
	.long	0x6bcc
	.uleb128 0x6
	.long	.LASF993
	.byte	0x3
	.value	0x447
	.byte	0x7
	.long	.LASF1081
	.long	0x8fd6
	.byte	0x1
	.long	0x8ffd
	.long	0x9003
	.uleb128 0x2
	.long	0xa8e0
	.byte	0
	.uleb128 0x6
	.long	.LASF995
	.byte	0x3
	.value	0x44d
	.byte	0x7
	.long	.LASF1082
	.long	0xa8ea
	.byte	0x1
	.long	0x901d
	.long	0x9023
	.uleb128 0x2
	.long	0xa8d1
	.byte	0
	.uleb128 0x6
	.long	.LASF995
	.byte	0x3
	.value	0x456
	.byte	0x7
	.long	.LASF1083
	.long	0x8f58
	.byte	0x1
	.long	0x903d
	.long	0x9048
	.uleb128 0x2
	.long	0xa8d1
	.uleb128 0x1
	.long	0x4f
	.byte	0
	.uleb128 0x6
	.long	.LASF998
	.byte	0x3
	.value	0x45e
	.byte	0x7
	.long	.LASF1084
	.long	0xa8ea
	.byte	0x1
	.long	0x9062
	.long	0x9068
	.uleb128 0x2
	.long	0xa8d1
	.byte	0
	.uleb128 0x6
	.long	.LASF998
	.byte	0x3
	.value	0x467
	.byte	0x7
	.long	.LASF1085
	.long	0x8f58
	.byte	0x1
	.long	0x9082
	.long	0x908d
	.uleb128 0x2
	.long	0xa8d1
	.uleb128 0x1
	.long	0x4f
	.byte	0
	.uleb128 0x6
	.long	.LASF213
	.byte	0x3
	.value	0x46f
	.byte	0x7
	.long	.LASF1086
	.long	0x8fa9
	.byte	0x1
	.long	0x90a7
	.long	0x90b2
	.uleb128 0x2
	.long	0xa8e0
	.uleb128 0x1
	.long	0x90b2
	.byte	0
	.uleb128 0x15
	.long	.LASF447
	.byte	0x3
	.value	0x413
	.byte	0x38
	.long	0x6bc0
	.uleb128 0x6
	.long	.LASF1002
	.byte	0x3
	.value	0x475
	.byte	0x7
	.long	.LASF1087
	.long	0xa8ea
	.byte	0x1
	.long	0x90d9
	.long	0x90e4
	.uleb128 0x2
	.long	0xa8d1
	.uleb128 0x1
	.long	0x90b2
	.byte	0
	.uleb128 0x6
	.long	.LASF1004
	.byte	0x3
	.value	0x47b
	.byte	0x7
	.long	.LASF1088
	.long	0x8f58
	.byte	0x1
	.long	0x90fe
	.long	0x9109
	.uleb128 0x2
	.long	0xa8e0
	.uleb128 0x1
	.long	0x90b2
	.byte	0
	.uleb128 0x6
	.long	.LASF1006
	.byte	0x3
	.value	0x481
	.byte	0x7
	.long	.LASF1089
	.long	0xa8ea
	.byte	0x1
	.long	0x9123
	.long	0x912e
	.uleb128 0x2
	.long	0xa8d1
	.uleb128 0x1
	.long	0x90b2
	.byte	0
	.uleb128 0x6
	.long	.LASF1008
	.byte	0x3
	.value	0x487
	.byte	0x7
	.long	.LASF1090
	.long	0x8f58
	.byte	0x1
	.long	0x9148
	.long	0x9153
	.uleb128 0x2
	.long	0xa8e0
	.uleb128 0x1
	.long	0x90b2
	.byte	0
	.uleb128 0x6
	.long	.LASF1010
	.byte	0x3
	.value	0x48d
	.byte	0x7
	.long	.LASF1091
	.long	0xa8db
	.byte	0x1
	.long	0x916d
	.long	0x9173
	.uleb128 0x2
	.long	0xa8e0
	.byte	0
	.uleb128 0xa
	.long	.LASF448
	.long	0xa7eb
	.uleb128 0xa
	.long	.LASF1012
	.long	0x5ec1
	.byte	0
	.uleb128 0x7
	.long	0x8f58
	.uleb128 0x35
	.long	.LASF1092
	.uleb128 0x19
	.long	.LASF1093
	.byte	0x1
	.byte	0x33
	.byte	0x3c
	.byte	0xc
	.long	0x91c6
	.uleb128 0x8
	.long	.LASF1094
	.byte	0x33
	.byte	0x3d
	.byte	0x17
	.long	0x7e1d
	.uleb128 0x88
	.long	.LASF1095
	.long	0x92bf
	.uleb128 0xa
	.long	.LASF1096
	.long	0x7e1d
	.uleb128 0xa
	.long	.LASF1097
	.long	0xa809
	.byte	0
	.uleb128 0x46
	.long	.LASF1098
	.byte	0x3
	.value	0x4dd
	.byte	0x7
	.long	0x92bf
	.long	0x91e2
	.uleb128 0x1
	.long	0x120f1
	.uleb128 0x1
	.long	0x120f1
	.byte	0
	.uleb128 0x93
	.long	.LASF1098
	.byte	0x3
	.value	0x4dd
	.byte	0x7
	.long	.LASF1099
	.long	0x92bf
	.uleb128 0x1
	.long	0x1214b
	.uleb128 0x1
	.long	0x1214b
	.byte	0
	.byte	0
	.uleb128 0x16
	.long	.LASF1100
	.byte	0x30
	.value	0x199
	.byte	0x14
	.long	0x921c
	.long	0x921c
	.uleb128 0x1
	.long	0x792d
	.uleb128 0x1
	.long	0x7dfc
	.byte	0
	.uleb128 0x2c
	.byte	0x10
	.byte	0x4
	.long	.LASF1101
	.uleb128 0x17
	.long	.LASF1102
	.byte	0x30
	.value	0x1fc
	.byte	0x16
	.long	.LASF1103
	.long	0x9248
	.long	0x9248
	.uleb128 0x1
	.long	0x792d
	.uleb128 0x1
	.long	0x7dfc
	.uleb128 0x1
	.long	0x4f
	.byte	0
	.uleb128 0x2c
	.byte	0x8
	.byte	0x5
	.long	.LASF1104
	.uleb128 0x17
	.long	.LASF1105
	.byte	0x30
	.value	0x201
	.byte	0x1f
	.long	.LASF1106
	.long	0x9274
	.long	0x9274
	.uleb128 0x1
	.long	0x792d
	.uleb128 0x1
	.long	0x7dfc
	.uleb128 0x1
	.long	0x4f
	.byte	0
	.uleb128 0x2c
	.byte	0x8
	.byte	0x7
	.long	.LASF1107
	.uleb128 0xbd
	.byte	0x20
	.byte	0x10
	.byte	0x28
	.value	0x1b8
	.byte	0x10
	.long	.LASF1500
	.long	0x92aa
	.uleb128 0x97
	.long	.LASF1108
	.value	0x1b9
	.byte	0xd
	.long	0x9248
	.byte	0x8
	.byte	0
	.uleb128 0x97
	.long	.LASF1109
	.value	0x1ba
	.byte	0xf
	.long	0x921c
	.byte	0x10
	.byte	0x10
	.byte	0
	.uleb128 0xbe
	.long	.LASF1110
	.byte	0x28
	.value	0x1c3
	.byte	0x3
	.long	0x927b
	.byte	0x10
	.uleb128 0xbf
	.long	.LASF1501
	.uleb128 0x2c
	.byte	0x1
	.byte	0x2
	.long	.LASF1111
	.uleb128 0x7
	.long	0x92bf
	.uleb128 0xd
	.long	0x338
	.uleb128 0xd
	.long	0x3a7
	.uleb128 0x2c
	.byte	0x1
	.byte	0x8
	.long	.LASF1112
	.uleb128 0x7
	.long	0x92d5
	.uleb128 0x2c
	.byte	0x10
	.byte	0x7
	.long	.LASF1113
	.uleb128 0x2c
	.byte	0x1
	.byte	0x6
	.long	.LASF1114
	.uleb128 0x2c
	.byte	0x2
	.byte	0x5
	.long	.LASF1115
	.uleb128 0x2c
	.byte	0x10
	.byte	0x5
	.long	.LASF1116
	.uleb128 0x2c
	.byte	0x2
	.byte	0x10
	.long	.LASF1117
	.uleb128 0x2c
	.byte	0x4
	.byte	0x10
	.long	.LASF1118
	.uleb128 0xd
	.long	0x3e0
	.uleb128 0xd
	.long	0x5c9
	.uleb128 0xd
	.long	0x931a
	.uleb128 0xc0
	.uleb128 0xc
	.long	0x614
	.uleb128 0xc
	.long	0x5c9
	.uleb128 0x29
	.long	0x3e0
	.uleb128 0xc
	.long	0x3e0
	.uleb128 0xd
	.long	0x614
	.uleb128 0x19
	.long	.LASF1119
	.byte	0x60
	.byte	0x34
	.byte	0x33
	.byte	0x8
	.long	0x947b
	.uleb128 0x11
	.long	.LASF1120
	.byte	0x34
	.byte	0x37
	.byte	0x9
	.long	0x3e
	.byte	0
	.uleb128 0x11
	.long	.LASF1121
	.byte	0x34
	.byte	0x38
	.byte	0x9
	.long	0x3e
	.byte	0x8
	.uleb128 0x11
	.long	.LASF1122
	.byte	0x34
	.byte	0x3e
	.byte	0x9
	.long	0x3e
	.byte	0x10
	.uleb128 0x11
	.long	.LASF1123
	.byte	0x34
	.byte	0x44
	.byte	0x9
	.long	0x3e
	.byte	0x18
	.uleb128 0x11
	.long	.LASF1124
	.byte	0x34
	.byte	0x45
	.byte	0x9
	.long	0x3e
	.byte	0x20
	.uleb128 0x11
	.long	.LASF1125
	.byte	0x34
	.byte	0x46
	.byte	0x9
	.long	0x3e
	.byte	0x28
	.uleb128 0x11
	.long	.LASF1126
	.byte	0x34
	.byte	0x47
	.byte	0x9
	.long	0x3e
	.byte	0x30
	.uleb128 0x11
	.long	.LASF1127
	.byte	0x34
	.byte	0x48
	.byte	0x9
	.long	0x3e
	.byte	0x38
	.uleb128 0x11
	.long	.LASF1128
	.byte	0x34
	.byte	0x49
	.byte	0x9
	.long	0x3e
	.byte	0x40
	.uleb128 0x11
	.long	.LASF1129
	.byte	0x34
	.byte	0x4a
	.byte	0x9
	.long	0x3e
	.byte	0x48
	.uleb128 0x11
	.long	.LASF1130
	.byte	0x34
	.byte	0x4b
	.byte	0x8
	.long	0x43
	.byte	0x50
	.uleb128 0x11
	.long	.LASF1131
	.byte	0x34
	.byte	0x4c
	.byte	0x8
	.long	0x43
	.byte	0x51
	.uleb128 0x11
	.long	.LASF1132
	.byte	0x34
	.byte	0x4e
	.byte	0x8
	.long	0x43
	.byte	0x52
	.uleb128 0x11
	.long	.LASF1133
	.byte	0x34
	.byte	0x50
	.byte	0x8
	.long	0x43
	.byte	0x53
	.uleb128 0x11
	.long	.LASF1134
	.byte	0x34
	.byte	0x52
	.byte	0x8
	.long	0x43
	.byte	0x54
	.uleb128 0x11
	.long	.LASF1135
	.byte	0x34
	.byte	0x54
	.byte	0x8
	.long	0x43
	.byte	0x55
	.uleb128 0x11
	.long	.LASF1136
	.byte	0x34
	.byte	0x5b
	.byte	0x8
	.long	0x43
	.byte	0x56
	.uleb128 0x11
	.long	.LASF1137
	.byte	0x34
	.byte	0x5c
	.byte	0x8
	.long	0x43
	.byte	0x57
	.uleb128 0x11
	.long	.LASF1138
	.byte	0x34
	.byte	0x5f
	.byte	0x8
	.long	0x43
	.byte	0x58
	.uleb128 0x11
	.long	.LASF1139
	.byte	0x34
	.byte	0x61
	.byte	0x8
	.long	0x43
	.byte	0x59
	.uleb128 0x11
	.long	.LASF1140
	.byte	0x34
	.byte	0x63
	.byte	0x8
	.long	0x43
	.byte	0x5a
	.uleb128 0x11
	.long	.LASF1141
	.byte	0x34
	.byte	0x65
	.byte	0x8
	.long	0x43
	.byte	0x5b
	.uleb128 0x11
	.long	.LASF1142
	.byte	0x34
	.byte	0x6c
	.byte	0x8
	.long	0x43
	.byte	0x5c
	.uleb128 0x11
	.long	.LASF1143
	.byte	0x34
	.byte	0x6d
	.byte	0x8
	.long	0x43
	.byte	0x5d
	.byte	0
	.uleb128 0x25
	.long	.LASF1144
	.byte	0x34
	.byte	0x7a
	.byte	0xe
	.long	0x3e
	.long	0x9496
	.uleb128 0x1
	.long	0x4f
	.uleb128 0x1
	.long	0x788b
	.byte	0
	.uleb128 0x74
	.long	.LASF1146
	.byte	0x34
	.byte	0x7d
	.byte	0x16
	.long	0x94a2
	.uleb128 0xd
	.long	0x9335
	.uleb128 0x8
	.long	.LASF1147
	.byte	0x35
	.byte	0x25
	.byte	0x15
	.long	0x92e8
	.uleb128 0x8
	.long	.LASF1148
	.byte	0x35
	.byte	0x26
	.byte	0x17
	.long	0x92d5
	.uleb128 0x8
	.long	.LASF1149
	.byte	0x35
	.byte	0x27
	.byte	0x1a
	.long	0x92ef
	.uleb128 0x8
	.long	.LASF1150
	.byte	0x35
	.byte	0x28
	.byte	0x1c
	.long	0x787f
	.uleb128 0x8
	.long	.LASF1151
	.byte	0x35
	.byte	0x29
	.byte	0x14
	.long	0x4f
	.uleb128 0x7
	.long	0x94d7
	.uleb128 0x8
	.long	.LASF1152
	.byte	0x35
	.byte	0x2a
	.byte	0x16
	.long	0x7642
	.uleb128 0x8
	.long	.LASF1153
	.byte	0x35
	.byte	0x2c
	.byte	0x19
	.long	0x7e67
	.uleb128 0x8
	.long	.LASF1154
	.byte	0x35
	.byte	0x2d
	.byte	0x1b
	.long	0x37
	.uleb128 0x8
	.long	.LASF1155
	.byte	0x35
	.byte	0x34
	.byte	0x12
	.long	0x94a7
	.uleb128 0x8
	.long	.LASF1156
	.byte	0x35
	.byte	0x35
	.byte	0x13
	.long	0x94b3
	.uleb128 0x8
	.long	.LASF1157
	.byte	0x35
	.byte	0x36
	.byte	0x13
	.long	0x94bf
	.uleb128 0x8
	.long	.LASF1158
	.byte	0x35
	.byte	0x37
	.byte	0x14
	.long	0x94cb
	.uleb128 0x8
	.long	.LASF1159
	.byte	0x35
	.byte	0x38
	.byte	0x13
	.long	0x94d7
	.uleb128 0x8
	.long	.LASF1160
	.byte	0x35
	.byte	0x39
	.byte	0x14
	.long	0x94e8
	.uleb128 0x8
	.long	.LASF1161
	.byte	0x35
	.byte	0x3a
	.byte	0x13
	.long	0x94f4
	.uleb128 0x8
	.long	.LASF1162
	.byte	0x35
	.byte	0x3b
	.byte	0x14
	.long	0x9500
	.uleb128 0x8
	.long	.LASF1163
	.byte	0x35
	.byte	0x48
	.byte	0x12
	.long	0x7e67
	.uleb128 0x8
	.long	.LASF1164
	.byte	0x35
	.byte	0x49
	.byte	0x1b
	.long	0x37
	.uleb128 0x8
	.long	.LASF1165
	.byte	0x35
	.byte	0x98
	.byte	0x19
	.long	0x7e67
	.uleb128 0x8
	.long	.LASF1166
	.byte	0x35
	.byte	0x99
	.byte	0x1b
	.long	0x7e67
	.uleb128 0x8
	.long	.LASF1167
	.byte	0x35
	.byte	0x9c
	.byte	0x1b
	.long	0x7e67
	.uleb128 0x8
	.long	.LASF1168
	.byte	0x35
	.byte	0xa0
	.byte	0x1a
	.long	0x7e67
	.uleb128 0x8
	.long	.LASF1169
	.byte	0x35
	.byte	0xc5
	.byte	0x21
	.long	0x7e67
	.uleb128 0x96
	.long	.LASF1170
	.byte	0x3
	.value	0xbb4
	.long	0x95d7
	.uleb128 0xc1
	.byte	0x17
	.byte	0x3a
	.byte	0x18
	.long	0x6af
	.byte	0
	.uleb128 0x73
	.byte	0x8
	.byte	0x36
	.byte	0x3c
	.byte	0x3
	.long	.LASF1172
	.long	0x95ff
	.uleb128 0x11
	.long	.LASF1173
	.byte	0x36
	.byte	0x3d
	.byte	0x9
	.long	0x4f
	.byte	0
	.uleb128 0x41
	.string	"rem"
	.byte	0x36
	.byte	0x3e
	.byte	0x9
	.long	0x4f
	.byte	0x4
	.byte	0
	.uleb128 0x8
	.long	.LASF1174
	.byte	0x36
	.byte	0x3f
	.byte	0x5
	.long	0x95d7
	.uleb128 0x73
	.byte	0x10
	.byte	0x36
	.byte	0x44
	.byte	0x3
	.long	.LASF1175
	.long	0x9633
	.uleb128 0x11
	.long	.LASF1173
	.byte	0x36
	.byte	0x45
	.byte	0xe
	.long	0x7e67
	.byte	0
	.uleb128 0x41
	.string	"rem"
	.byte	0x36
	.byte	0x46
	.byte	0xe
	.long	0x7e67
	.byte	0x8
	.byte	0
	.uleb128 0x8
	.long	.LASF1176
	.byte	0x36
	.byte	0x47
	.byte	0x5
	.long	0x960b
	.uleb128 0x73
	.byte	0x10
	.byte	0x36
	.byte	0x4e
	.byte	0x3
	.long	.LASF1177
	.long	0x9667
	.uleb128 0x11
	.long	.LASF1173
	.byte	0x36
	.byte	0x4f
	.byte	0x13
	.long	0x9248
	.byte	0
	.uleb128 0x41
	.string	"rem"
	.byte	0x36
	.byte	0x50
	.byte	0x13
	.long	0x9248
	.byte	0x8
	.byte	0
	.uleb128 0x8
	.long	.LASF1178
	.byte	0x36
	.byte	0x51
	.byte	0x5
	.long	0x963f
	.uleb128 0x8
	.long	.LASF1179
	.byte	0x37
	.byte	0x7
	.byte	0x13
	.long	0x959c
	.uleb128 0x8
	.long	.LASF1180
	.byte	0x38
	.byte	0xa
	.byte	0x12
	.long	0x95a8
	.uleb128 0x7
	.long	0x967f
	.uleb128 0x8
	.long	.LASF1181
	.byte	0x39
	.byte	0x18
	.byte	0x12
	.long	0x94a7
	.uleb128 0x8
	.long	.LASF1182
	.byte	0x39
	.byte	0x19
	.byte	0x13
	.long	0x94bf
	.uleb128 0x8
	.long	.LASF1183
	.byte	0x39
	.byte	0x1a
	.byte	0x13
	.long	0x94d7
	.uleb128 0x8
	.long	.LASF1184
	.byte	0x39
	.byte	0x1b
	.byte	0x13
	.long	0x94f4
	.uleb128 0x19
	.long	.LASF1185
	.byte	0x10
	.byte	0x3a
	.byte	0xb
	.byte	0x8
	.long	0x96e8
	.uleb128 0x11
	.long	.LASF1186
	.byte	0x3a
	.byte	0x10
	.byte	0xc
	.long	0x95a8
	.byte	0
	.uleb128 0x11
	.long	.LASF1187
	.byte	0x3a
	.byte	0x15
	.byte	0x15
	.long	0x95b4
	.byte	0x8
	.byte	0
	.uleb128 0x1e
	.long	.LASF1188
	.byte	0x36
	.value	0x3b4
	.byte	0xf
	.long	0x96f5
	.uleb128 0xd
	.long	0x96fa
	.uleb128 0xc2
	.long	0x4f
	.long	0x970f
	.uleb128 0x1
	.long	0x9315
	.uleb128 0x1
	.long	0x9315
	.byte	0
	.uleb128 0x16
	.long	.LASF1189
	.byte	0x36
	.value	0x2de
	.byte	0xc
	.long	0x4f
	.long	0x9726
	.uleb128 0x1
	.long	0x9726
	.byte	0
	.uleb128 0xd
	.long	0x972b
	.uleb128 0xc3
	.uleb128 0x17
	.long	.LASF1190
	.byte	0x36
	.value	0x2e3
	.byte	0x12
	.long	.LASF1190
	.long	0x4f
	.long	0x9748
	.uleb128 0x1
	.long	0x9726
	.byte	0
	.uleb128 0x25
	.long	.LASF1191
	.byte	0x3b
	.byte	0x19
	.byte	0x1
	.long	0x7df5
	.long	0x975e
	.uleb128 0x1
	.long	0x788b
	.byte	0
	.uleb128 0x16
	.long	.LASF1192
	.byte	0x36
	.value	0x1e1
	.byte	0x1
	.long	0x4f
	.long	0x9775
	.uleb128 0x1
	.long	0x788b
	.byte	0
	.uleb128 0x16
	.long	.LASF1193
	.byte	0x36
	.value	0x1e6
	.byte	0x1
	.long	0x7e67
	.long	0x978c
	.uleb128 0x1
	.long	0x788b
	.byte	0
	.uleb128 0x25
	.long	.LASF1194
	.byte	0x3c
	.byte	0x14
	.byte	0x1
	.long	0x7649
	.long	0x97b6
	.uleb128 0x1
	.long	0x9315
	.uleb128 0x1
	.long	0x9315
	.uleb128 0x1
	.long	0x75f6
	.uleb128 0x1
	.long	0x75f6
	.uleb128 0x1
	.long	0x96e8
	.byte	0
	.uleb128 0xc4
	.string	"div"
	.byte	0x36
	.value	0x3e0
	.byte	0xe
	.long	0x95ff
	.long	0x97d3
	.uleb128 0x1
	.long	0x4f
	.uleb128 0x1
	.long	0x4f
	.byte	0
	.uleb128 0x16
	.long	.LASF1195
	.byte	0x36
	.value	0x305
	.byte	0xe
	.long	0x3e
	.long	0x97ea
	.uleb128 0x1
	.long	0x788b
	.byte	0
	.uleb128 0x16
	.long	.LASF1196
	.byte	0x36
	.value	0x3e2
	.byte	0xf
	.long	0x9633
	.long	0x9806
	.uleb128 0x1
	.long	0x7e67
	.uleb128 0x1
	.long	0x7e67
	.byte	0
	.uleb128 0x16
	.long	.LASF1197
	.byte	0x36
	.value	0x426
	.byte	0xc
	.long	0x4f
	.long	0x9822
	.uleb128 0x1
	.long	0x788b
	.uleb128 0x1
	.long	0x75f6
	.byte	0
	.uleb128 0x16
	.long	.LASF1198
	.byte	0x36
	.value	0x431
	.byte	0xf
	.long	0x75f6
	.long	0x9843
	.uleb128 0x1
	.long	0x78e4
	.uleb128 0x1
	.long	0x788b
	.uleb128 0x1
	.long	0x75f6
	.byte	0
	.uleb128 0x16
	.long	.LASF1199
	.byte	0x36
	.value	0x429
	.byte	0xc
	.long	0x4f
	.long	0x9864
	.uleb128 0x1
	.long	0x78e4
	.uleb128 0x1
	.long	0x788b
	.uleb128 0x1
	.long	0x75f6
	.byte	0
	.uleb128 0x61
	.long	.LASF1200
	.byte	0x36
	.value	0x3ca
	.long	0x9885
	.uleb128 0x1
	.long	0x7649
	.uleb128 0x1
	.long	0x75f6
	.uleb128 0x1
	.long	0x75f6
	.uleb128 0x1
	.long	0x96e8
	.byte	0
	.uleb128 0xc5
	.long	.LASF1201
	.byte	0x36
	.value	0x2fa
	.byte	0xd
	.long	0x9899
	.uleb128 0x1
	.long	0x4f
	.byte	0
	.uleb128 0x95
	.long	.LASF1202
	.byte	0x36
	.value	0x23d
	.byte	0xc
	.long	0x4f
	.uleb128 0x61
	.long	.LASF1203
	.byte	0x36
	.value	0x23f
	.long	0x98b9
	.uleb128 0x1
	.long	0x7642
	.byte	0
	.uleb128 0x25
	.long	.LASF1204
	.byte	0x36
	.byte	0x76
	.byte	0xf
	.long	0x7df5
	.long	0x98d4
	.uleb128 0x1
	.long	0x788b
	.uleb128 0x1
	.long	0x98d4
	.byte	0
	.uleb128 0xd
	.long	0x3e
	.uleb128 0x36
	.long	.LASF1205
	.byte	0x36
	.byte	0xd7
	.byte	0x11
	.long	.LASF1206
	.long	0x7e67
	.long	0x98fd
	.uleb128 0x1
	.long	0x788b
	.uleb128 0x1
	.long	0x98d4
	.uleb128 0x1
	.long	0x4f
	.byte	0
	.uleb128 0x36
	.long	.LASF1207
	.byte	0x36
	.byte	0xdb
	.byte	0x1a
	.long	.LASF1208
	.long	0x37
	.long	0x9921
	.uleb128 0x1
	.long	0x788b
	.uleb128 0x1
	.long	0x98d4
	.uleb128 0x1
	.long	0x4f
	.byte	0
	.uleb128 0x16
	.long	.LASF1209
	.byte	0x36
	.value	0x39b
	.byte	0xc
	.long	0x4f
	.long	0x9938
	.uleb128 0x1
	.long	0x788b
	.byte	0
	.uleb128 0x16
	.long	.LASF1210
	.byte	0x36
	.value	0x435
	.byte	0xf
	.long	0x75f6
	.long	0x9959
	.uleb128 0x1
	.long	0x3e
	.uleb128 0x1
	.long	0x792d
	.uleb128 0x1
	.long	0x75f6
	.byte	0
	.uleb128 0x16
	.long	.LASF1211
	.byte	0x36
	.value	0x42d
	.byte	0xc
	.long	0x4f
	.long	0x9975
	.uleb128 0x1
	.long	0x3e
	.uleb128 0x1
	.long	0x78e9
	.byte	0
	.uleb128 0x16
	.long	.LASF1212
	.byte	0x36
	.value	0x3e6
	.byte	0x1e
	.long	0x9667
	.long	0x9991
	.uleb128 0x1
	.long	0x9248
	.uleb128 0x1
	.long	0x9248
	.byte	0
	.uleb128 0x16
	.long	.LASF1213
	.byte	0x36
	.value	0x1ed
	.byte	0x1
	.long	0x9248
	.long	0x99a8
	.uleb128 0x1
	.long	0x788b
	.byte	0
	.uleb128 0x36
	.long	.LASF1214
	.byte	0x36
	.byte	0xee
	.byte	0x16
	.long	.LASF1215
	.long	0x9248
	.long	0x99cc
	.uleb128 0x1
	.long	0x788b
	.uleb128 0x1
	.long	0x98d4
	.uleb128 0x1
	.long	0x4f
	.byte	0
	.uleb128 0x36
	.long	.LASF1216
	.byte	0x36
	.byte	0xf3
	.byte	0x1f
	.long	.LASF1217
	.long	0x9274
	.long	0x99f0
	.uleb128 0x1
	.long	0x788b
	.uleb128 0x1
	.long	0x98d4
	.uleb128 0x1
	.long	0x4f
	.byte	0
	.uleb128 0x25
	.long	.LASF1218
	.byte	0x36
	.byte	0x7c
	.byte	0xe
	.long	0x30
	.long	0x9a0b
	.uleb128 0x1
	.long	0x788b
	.uleb128 0x1
	.long	0x98d4
	.byte	0
	.uleb128 0x25
	.long	.LASF1219
	.byte	0x36
	.byte	0x7f
	.byte	0x14
	.long	0x921c
	.long	0x9a26
	.uleb128 0x1
	.long	0x788b
	.uleb128 0x1
	.long	0x98d4
	.byte	0
	.uleb128 0x19
	.long	.LASF1220
	.byte	0x10
	.byte	0x3d
	.byte	0xa
	.byte	0x10
	.long	0x9a4e
	.uleb128 0x11
	.long	.LASF1221
	.byte	0x3d
	.byte	0xc
	.byte	0xb
	.long	0x9584
	.byte	0
	.uleb128 0x11
	.long	.LASF1222
	.byte	0x3d
	.byte	0xd
	.byte	0xf
	.long	0x76b3
	.byte	0x8
	.byte	0
	.uleb128 0x8
	.long	.LASF1223
	.byte	0x3d
	.byte	0xe
	.byte	0x3
	.long	0x9a26
	.uleb128 0xc6
	.long	.LASF1502
	.byte	0x2e
	.byte	0x2c
	.byte	0xe
	.uleb128 0x7e
	.long	.LASF1224
	.uleb128 0xd
	.long	0x9a63
	.uleb128 0xd
	.long	0x76dc
	.uleb128 0x7b
	.long	0x43
	.long	0x9a82
	.uleb128 0x7c
	.long	0x37
	.byte	0
	.byte	0
	.uleb128 0xd
	.long	0x9a5a
	.uleb128 0x7e
	.long	.LASF1225
	.uleb128 0xd
	.long	0x9a87
	.uleb128 0x7e
	.long	.LASF1226
	.uleb128 0xd
	.long	0x9a91
	.uleb128 0xd
	.long	0x9a6d
	.uleb128 0x7b
	.long	0x43
	.long	0x9ab0
	.uleb128 0x7c
	.long	0x37
	.byte	0x13
	.byte	0
	.uleb128 0x8
	.long	.LASF1227
	.byte	0x3e
	.byte	0x55
	.byte	0x12
	.long	0x9a4e
	.uleb128 0x7
	.long	0x9ab0
	.uleb128 0xd
	.long	0x7873
	.uleb128 0x61
	.long	.LASF1228
	.byte	0x3e
	.value	0x352
	.long	0x9ad8
	.uleb128 0x1
	.long	0x9ac1
	.byte	0
	.uleb128 0x25
	.long	.LASF1229
	.byte	0x3e
	.byte	0xb8
	.byte	0xc
	.long	0x4f
	.long	0x9aee
	.uleb128 0x1
	.long	0x9ac1
	.byte	0
	.uleb128 0x16
	.long	.LASF1230
	.byte	0x3e
	.value	0x354
	.byte	0xc
	.long	0x4f
	.long	0x9b05
	.uleb128 0x1
	.long	0x9ac1
	.byte	0
	.uleb128 0x16
	.long	.LASF1231
	.byte	0x3e
	.value	0x356
	.byte	0xc
	.long	0x4f
	.long	0x9b1c
	.uleb128 0x1
	.long	0x9ac1
	.byte	0
	.uleb128 0x25
	.long	.LASF1232
	.byte	0x3e
	.byte	0xec
	.byte	0xc
	.long	0x4f
	.long	0x9b32
	.uleb128 0x1
	.long	0x9ac1
	.byte	0
	.uleb128 0x16
	.long	.LASF1233
	.byte	0x3e
	.value	0x23f
	.byte	0xc
	.long	0x4f
	.long	0x9b49
	.uleb128 0x1
	.long	0x9ac1
	.byte	0
	.uleb128 0x16
	.long	.LASF1234
	.byte	0x3e
	.value	0x333
	.byte	0xc
	.long	0x4f
	.long	0x9b65
	.uleb128 0x1
	.long	0x9ac1
	.uleb128 0x1
	.long	0x9b65
	.byte	0
	.uleb128 0xd
	.long	0x9ab0
	.uleb128 0x16
	.long	.LASF1235
	.byte	0x3e
	.value	0x28e
	.byte	0xe
	.long	0x3e
	.long	0x9b8b
	.uleb128 0x1
	.long	0x3e
	.uleb128 0x1
	.long	0x4f
	.uleb128 0x1
	.long	0x9ac1
	.byte	0
	.uleb128 0x16
	.long	.LASF1236
	.byte	0x3e
	.value	0x108
	.byte	0xe
	.long	0x9ac1
	.long	0x9ba7
	.uleb128 0x1
	.long	0x788b
	.uleb128 0x1
	.long	0x788b
	.byte	0
	.uleb128 0x16
	.long	.LASF1237
	.byte	0x3e
	.value	0x2d8
	.byte	0xf
	.long	0x75f6
	.long	0x9bcd
	.uleb128 0x1
	.long	0x7649
	.uleb128 0x1
	.long	0x75f6
	.uleb128 0x1
	.long	0x75f6
	.uleb128 0x1
	.long	0x9ac1
	.byte	0
	.uleb128 0x16
	.long	.LASF1238
	.byte	0x3e
	.value	0x10f
	.byte	0xe
	.long	0x9ac1
	.long	0x9bee
	.uleb128 0x1
	.long	0x788b
	.uleb128 0x1
	.long	0x788b
	.uleb128 0x1
	.long	0x9ac1
	.byte	0
	.uleb128 0x16
	.long	.LASF1239
	.byte	0x3e
	.value	0x301
	.byte	0xc
	.long	0x4f
	.long	0x9c0f
	.uleb128 0x1
	.long	0x9ac1
	.uleb128 0x1
	.long	0x7e67
	.uleb128 0x1
	.long	0x4f
	.byte	0
	.uleb128 0x16
	.long	.LASF1240
	.byte	0x3e
	.value	0x339
	.byte	0xc
	.long	0x4f
	.long	0x9c2b
	.uleb128 0x1
	.long	0x9ac1
	.uleb128 0x1
	.long	0x9c2b
	.byte	0
	.uleb128 0xd
	.long	0x9abc
	.uleb128 0x16
	.long	.LASF1241
	.byte	0x3e
	.value	0x307
	.byte	0x11
	.long	0x7e67
	.long	0x9c47
	.uleb128 0x1
	.long	0x9ac1
	.byte	0
	.uleb128 0x16
	.long	.LASF1242
	.byte	0x3e
	.value	0x240
	.byte	0xc
	.long	0x4f
	.long	0x9c5e
	.uleb128 0x1
	.long	0x9ac1
	.byte	0
	.uleb128 0x74
	.long	.LASF1243
	.byte	0x3f
	.byte	0x2f
	.byte	0x1
	.long	0x4f
	.uleb128 0x61
	.long	.LASF1244
	.byte	0x3e
	.value	0x364
	.long	0x9c7c
	.uleb128 0x1
	.long	0x788b
	.byte	0
	.uleb128 0x25
	.long	.LASF1245
	.byte	0x3e
	.byte	0x9e
	.byte	0xc
	.long	0x4f
	.long	0x9c92
	.uleb128 0x1
	.long	0x788b
	.byte	0
	.uleb128 0x25
	.long	.LASF1246
	.byte	0x3e
	.byte	0xa0
	.byte	0xc
	.long	0x4f
	.long	0x9cad
	.uleb128 0x1
	.long	0x788b
	.uleb128 0x1
	.long	0x788b
	.byte	0
	.uleb128 0x61
	.long	.LASF1247
	.byte	0x3e
	.value	0x30c
	.long	0x9cbf
	.uleb128 0x1
	.long	0x9ac1
	.byte	0
	.uleb128 0x61
	.long	.LASF1248
	.byte	0x3e
	.value	0x14e
	.long	0x9cd6
	.uleb128 0x1
	.long	0x9ac1
	.uleb128 0x1
	.long	0x3e
	.byte	0
	.uleb128 0x16
	.long	.LASF1249
	.byte	0x3e
	.value	0x153
	.byte	0xc
	.long	0x4f
	.long	0x9cfc
	.uleb128 0x1
	.long	0x9ac1
	.uleb128 0x1
	.long	0x3e
	.uleb128 0x1
	.long	0x4f
	.uleb128 0x1
	.long	0x75f6
	.byte	0
	.uleb128 0x74
	.long	.LASF1250
	.byte	0x3e
	.byte	0xc2
	.byte	0xe
	.long	0x9ac1
	.uleb128 0x25
	.long	.LASF1251
	.byte	0x3e
	.byte	0xd3
	.byte	0xe
	.long	0x3e
	.long	0x9d1e
	.uleb128 0x1
	.long	0x3e
	.byte	0
	.uleb128 0x16
	.long	.LASF1252
	.byte	0x3e
	.value	0x2d1
	.byte	0xc
	.long	0x4f
	.long	0x9d3a
	.uleb128 0x1
	.long	0x4f
	.uleb128 0x1
	.long	0x9ac1
	.byte	0
	.uleb128 0x8
	.long	.LASF1253
	.byte	0x40
	.byte	0x18
	.byte	0x13
	.long	0x94b3
	.uleb128 0x8
	.long	.LASF1254
	.byte	0x40
	.byte	0x19
	.byte	0x14
	.long	0x94cb
	.uleb128 0x8
	.long	.LASF1255
	.byte	0x40
	.byte	0x1a
	.byte	0x14
	.long	0x94e8
	.uleb128 0x8
	.long	.LASF1256
	.byte	0x40
	.byte	0x1b
	.byte	0x14
	.long	0x9500
	.uleb128 0x8
	.long	.LASF1257
	.byte	0x41
	.byte	0x19
	.byte	0x18
	.long	0x950c
	.uleb128 0x8
	.long	.LASF1258
	.byte	0x41
	.byte	0x1a
	.byte	0x19
	.long	0x9524
	.uleb128 0x8
	.long	.LASF1259
	.byte	0x41
	.byte	0x1b
	.byte	0x19
	.long	0x953c
	.uleb128 0x8
	.long	.LASF1260
	.byte	0x41
	.byte	0x1c
	.byte	0x19
	.long	0x9554
	.uleb128 0x8
	.long	.LASF1261
	.byte	0x41
	.byte	0x1f
	.byte	0x19
	.long	0x9518
	.uleb128 0x8
	.long	.LASF1262
	.byte	0x41
	.byte	0x20
	.byte	0x1a
	.long	0x9530
	.uleb128 0x8
	.long	.LASF1263
	.byte	0x41
	.byte	0x21
	.byte	0x1a
	.long	0x9548
	.uleb128 0x8
	.long	.LASF1264
	.byte	0x41
	.byte	0x22
	.byte	0x1a
	.long	0x9560
	.uleb128 0x8
	.long	.LASF1265
	.byte	0x42
	.byte	0x2f
	.byte	0x16
	.long	0x92e8
	.uleb128 0x8
	.long	.LASF1266
	.byte	0x42
	.byte	0x31
	.byte	0x13
	.long	0x7e67
	.uleb128 0x8
	.long	.LASF1267
	.byte	0x42
	.byte	0x32
	.byte	0x13
	.long	0x7e67
	.uleb128 0x8
	.long	.LASF1268
	.byte	0x42
	.byte	0x33
	.byte	0x13
	.long	0x7e67
	.uleb128 0x8
	.long	.LASF1269
	.byte	0x42
	.byte	0x3c
	.byte	0x18
	.long	0x92d5
	.uleb128 0x8
	.long	.LASF1270
	.byte	0x42
	.byte	0x3e
	.byte	0x1b
	.long	0x37
	.uleb128 0x8
	.long	.LASF1271
	.byte	0x42
	.byte	0x3f
	.byte	0x1b
	.long	0x37
	.uleb128 0x8
	.long	.LASF1272
	.byte	0x42
	.byte	0x40
	.byte	0x1b
	.long	0x37
	.uleb128 0x8
	.long	.LASF1273
	.byte	0x42
	.byte	0x4c
	.byte	0x13
	.long	0x7e67
	.uleb128 0x8
	.long	.LASF1274
	.byte	0x42
	.byte	0x4f
	.byte	0x1b
	.long	0x37
	.uleb128 0x8
	.long	.LASF1275
	.byte	0x42
	.byte	0x5a
	.byte	0x15
	.long	0x956c
	.uleb128 0x8
	.long	.LASF1276
	.byte	0x42
	.byte	0x5b
	.byte	0x16
	.long	0x9578
	.uleb128 0x2c
	.byte	0x4
	.byte	0x4
	.long	.LASF1277
	.uleb128 0x2c
	.byte	0x8
	.byte	0x4
	.long	.LASF1278
	.uleb128 0x2c
	.byte	0x10
	.byte	0x4
	.long	.LASF1279
	.uleb128 0x2c
	.byte	0x10
	.byte	0x4
	.long	.LASF1280
	.uleb128 0x74
	.long	.LASF1281
	.byte	0x43
	.byte	0x48
	.byte	0x10
	.long	0x9673
	.uleb128 0x25
	.long	.LASF1282
	.byte	0x43
	.byte	0x4f
	.byte	0xf
	.long	0x7df5
	.long	0x9e9d
	.uleb128 0x1
	.long	0x967f
	.uleb128 0x1
	.long	0x967f
	.byte	0
	.uleb128 0x25
	.long	.LASF1283
	.byte	0x43
	.byte	0x52
	.byte	0xf
	.long	0x967f
	.long	0x9eb3
	.uleb128 0x1
	.long	0x9eb3
	.byte	0
	.uleb128 0xd
	.long	0x7c7b
	.uleb128 0x25
	.long	.LASF1284
	.byte	0x43
	.byte	0x4c
	.byte	0xf
	.long	0x967f
	.long	0x9ece
	.uleb128 0x1
	.long	0x9ece
	.byte	0
	.uleb128 0xd
	.long	0x967f
	.uleb128 0x25
	.long	.LASF1285
	.byte	0x43
	.byte	0xb3
	.byte	0xe
	.long	0x3e
	.long	0x9ee9
	.uleb128 0x1
	.long	0x7c76
	.byte	0
	.uleb128 0x25
	.long	.LASF1286
	.byte	0x43
	.byte	0xb7
	.byte	0xe
	.long	0x3e
	.long	0x9eff
	.uleb128 0x1
	.long	0x9eff
	.byte	0
	.uleb128 0xd
	.long	0x968b
	.uleb128 0x25
	.long	.LASF1287
	.byte	0x43
	.byte	0x84
	.byte	0x13
	.long	0x9eb3
	.long	0x9f1a
	.uleb128 0x1
	.long	0x9eff
	.byte	0
	.uleb128 0x25
	.long	.LASF1288
	.byte	0x43
	.byte	0x88
	.byte	0x13
	.long	0x9eb3
	.long	0x9f30
	.uleb128 0x1
	.long	0x9eff
	.byte	0
	.uleb128 0x16
	.long	.LASF1289
	.byte	0x43
	.value	0x17f
	.byte	0xc
	.long	0x4f
	.long	0x9f4c
	.uleb128 0x1
	.long	0x9f4c
	.uleb128 0x1
	.long	0x4f
	.byte	0
	.uleb128 0xd
	.long	0x96c0
	.uleb128 0x8
	.long	.LASF1290
	.byte	0x44
	.byte	0x26
	.byte	0x1b
	.long	0x37
	.uleb128 0x8
	.long	.LASF1291
	.byte	0x45
	.byte	0x30
	.byte	0x1a
	.long	0x9f69
	.uleb128 0xd
	.long	0x94e3
	.uleb128 0x25
	.long	.LASF1292
	.byte	0x44
	.byte	0x9f
	.byte	0xc
	.long	0x4f
	.long	0x9f89
	.uleb128 0x1
	.long	0x764c
	.uleb128 0x1
	.long	0x9f51
	.byte	0
	.uleb128 0x25
	.long	.LASF1293
	.byte	0x45
	.byte	0x37
	.byte	0xf
	.long	0x764c
	.long	0x9fa4
	.uleb128 0x1
	.long	0x764c
	.uleb128 0x1
	.long	0x9f5d
	.byte	0
	.uleb128 0x25
	.long	.LASF1294
	.byte	0x45
	.byte	0x34
	.byte	0x12
	.long	0x9f5d
	.long	0x9fba
	.uleb128 0x1
	.long	0x788b
	.byte	0
	.uleb128 0x25
	.long	.LASF1295
	.byte	0x44
	.byte	0x9b
	.byte	0x11
	.long	0x9f51
	.long	0x9fd0
	.uleb128 0x1
	.long	0x788b
	.byte	0
	.uleb128 0x98
	.long	0x816c
	.uleb128 0xc7
	.string	"fs"
	.byte	0x4
	.byte	0x9
	.byte	0xb
	.long	0xa3c
	.uleb128 0xd
	.long	0xb06
	.uleb128 0x7
	.long	0x9fe2
	.uleb128 0xc
	.long	0xca4
	.uleb128 0xc
	.long	0xb06
	.uleb128 0xd
	.long	0x92d5
	.uleb128 0x7
	.long	0x9ff6
	.uleb128 0xd
	.long	0xca4
	.uleb128 0x7
	.long	0xa000
	.uleb128 0xc
	.long	0x92d5
	.uleb128 0xd
	.long	0x92dc
	.uleb128 0xc
	.long	0x92dc
	.uleb128 0xd
	.long	0xca9
	.uleb128 0x7
	.long	0xa019
	.uleb128 0xc
	.long	0xd2d
	.uleb128 0xc
	.long	0xca9
	.uleb128 0xc
	.long	0xd6d
	.uleb128 0xc
	.long	0xd7a
	.uleb128 0xc
	.long	0x822c
	.uleb128 0xc
	.long	0x8238
	.uleb128 0xd
	.long	0xe3d
	.uleb128 0x7
	.long	0xa041
	.uleb128 0x29
	.long	0xe3d
	.uleb128 0xc
	.long	0xee3
	.uleb128 0xc
	.long	0xe3d
	.uleb128 0xd
	.long	0xef4
	.uleb128 0x7
	.long	0xa05a
	.uleb128 0xc
	.long	0xfc6
	.uleb128 0x29
	.long	0xef4
	.uleb128 0x29
	.long	0xfba
	.uleb128 0xc
	.long	0xfba
	.uleb128 0xd
	.long	0xe30
	.uleb128 0x7
	.long	0xa078
	.uleb128 0xd
	.long	0x11d1
	.uleb128 0xc
	.long	0x1014
	.uleb128 0x29
	.long	0xe30
	.uleb128 0xc
	.long	0x12bc
	.uleb128 0xd
	.long	0x11f9
	.uleb128 0x7
	.long	0xa096
	.uleb128 0xc
	.long	0x1313
	.uleb128 0xc
	.long	0x1386
	.uleb128 0xc
	.long	0x1dd2
	.uleb128 0x29
	.long	0x11f9
	.uleb128 0xc
	.long	0x1de3
	.uleb128 0xc
	.long	0x11f9
	.uleb128 0xd
	.long	0x1dd2
	.uleb128 0x7
	.long	0xa0be
	.uleb128 0x29
	.long	0x1379
	.uleb128 0xc
	.long	0x12c9
	.uleb128 0x19
	.long	.LASF1296
	.byte	0x28
	.byte	0x4
	.byte	0xb
	.byte	0x8
	.long	0xa1b7
	.uleb128 0x11
	.long	.LASF1297
	.byte	0x4
	.byte	0xc
	.byte	0xc
	.long	0x75f6
	.byte	0
	.uleb128 0x11
	.long	.LASF1298
	.byte	0x4
	.byte	0xd
	.byte	0xc
	.long	0x75f6
	.byte	0x8
	.uleb128 0x11
	.long	.LASF226
	.byte	0x4
	.byte	0xe
	.byte	0x20
	.long	0x11f9
	.byte	0x10
	.uleb128 0x45
	.long	.LASF1299
	.byte	0x4
	.byte	0x10
	.byte	0x13
	.long	.LASF1300
	.long	0x75f6
	.long	0xa11e
	.long	0xa133
	.uleb128 0x2
	.long	0xa1bc
	.uleb128 0x1
	.long	0x75f6
	.uleb128 0x1
	.long	0x75f6
	.uleb128 0x1
	.long	0x75f6
	.byte	0
	.uleb128 0x99
	.string	"at"
	.byte	0x1d
	.byte	0x1b
	.long	.LASF1301
	.long	0xa00a
	.long	0xa14a
	.long	0xa15f
	.uleb128 0x2
	.long	0xa1c1
	.uleb128 0x1
	.long	0x75f6
	.uleb128 0x1
	.long	0x75f6
	.uleb128 0x1
	.long	0x75f6
	.byte	0
	.uleb128 0x99
	.string	"at"
	.byte	0x21
	.byte	0x21
	.long	.LASF1302
	.long	0xa014
	.long	0xa176
	.long	0xa18b
	.uleb128 0x2
	.long	0xa1bc
	.uleb128 0x1
	.long	0x75f6
	.uleb128 0x1
	.long	0x75f6
	.uleb128 0x1
	.long	0x75f6
	.byte	0
	.uleb128 0xc8
	.long	.LASF1303
	.long	.LASF1503
	.long	0xa19d
	.long	0xa1a3
	.uleb128 0x2
	.long	0xa1c1
	.byte	0
	.uleb128 0x6f
	.long	.LASF1296
	.long	.LASF1304
	.long	0xa1b0
	.uleb128 0x2
	.long	0xa1c1
	.byte	0
	.byte	0
	.uleb128 0x7
	.long	0xa0d2
	.uleb128 0xd
	.long	0xa1b7
	.uleb128 0xd
	.long	0xa0d2
	.uleb128 0x7
	.long	0xa1c1
	.uleb128 0x19
	.long	.LASF1305
	.byte	0x30
	.byte	0x4
	.byte	0x26
	.byte	0x8
	.long	0xa1fc
	.uleb128 0x11
	.long	.LASF226
	.byte	0x4
	.byte	0x27
	.byte	0xf
	.long	0xa0d2
	.byte	0
	.uleb128 0x41
	.string	"u"
	.byte	0x4
	.byte	0x28
	.byte	0xb
	.long	0x30
	.byte	0x28
	.uleb128 0x41
	.string	"v"
	.byte	0x4
	.byte	0x29
	.byte	0xb
	.long	0x30
	.byte	0x2c
	.byte	0
	.uleb128 0x7
	.long	0xa1cb
	.uleb128 0x8
	.long	.LASF1306
	.byte	0x46
	.byte	0xa7
	.byte	0xf
	.long	0x30
	.uleb128 0x8
	.long	.LASF1307
	.byte	0x46
	.byte	0xa8
	.byte	0x10
	.long	0x7df5
	.uleb128 0x2c
	.byte	0x8
	.byte	0x4
	.long	.LASF1308
	.uleb128 0x2c
	.byte	0x10
	.byte	0x4
	.long	.LASF1309
	.uleb128 0x6d
	.long	.LASF1310
	.byte	0x47
	.byte	0xf
	.byte	0xb
	.long	0xa246
	.uleb128 0xc9
	.long	.LASF1504
	.byte	0x47
	.byte	0x11
	.byte	0xb
	.uleb128 0x87
	.string	"v1"
	.byte	0x47
	.byte	0x13
	.byte	0x12
	.byte	0
	.byte	0
	.uleb128 0x8
	.long	.LASF1311
	.byte	0x48
	.byte	0x2c
	.byte	0xd
	.long	0xa252
	.uleb128 0x59
	.long	0x4f
	.long	0xa25e
	.uleb128 0x5a
	.byte	0x1
	.byte	0
	.uleb128 0x7f
	.long	.LASF1312
	.byte	0x48
	.byte	0x31
	.byte	0xd
	.long	0xa252
	.uleb128 0x5
	.byte	0x49
	.byte	0x27
	.byte	0xc
	.long	0x970f
	.uleb128 0x5
	.byte	0x49
	.byte	0x2b
	.byte	0xe
	.long	0x972d
	.uleb128 0x5
	.byte	0x49
	.byte	0x2e
	.byte	0xe
	.long	0x9885
	.uleb128 0x5
	.byte	0x49
	.byte	0x36
	.byte	0xc
	.long	0x95ff
	.uleb128 0x5
	.byte	0x49
	.byte	0x37
	.byte	0xc
	.long	0x9633
	.uleb128 0x5
	.byte	0x49
	.byte	0x39
	.byte	0xc
	.long	0x1e09
	.uleb128 0x5
	.byte	0x49
	.byte	0x39
	.byte	0xc
	.long	0x1e22
	.uleb128 0x5
	.byte	0x49
	.byte	0x39
	.byte	0xc
	.long	0x1e3b
	.uleb128 0x5
	.byte	0x49
	.byte	0x39
	.byte	0xc
	.long	0x1e54
	.uleb128 0x5
	.byte	0x49
	.byte	0x39
	.byte	0xc
	.long	0x1e6d
	.uleb128 0x5
	.byte	0x49
	.byte	0x39
	.byte	0xc
	.long	0x1e86
	.uleb128 0x5
	.byte	0x49
	.byte	0x39
	.byte	0xc
	.long	0x1e9f
	.uleb128 0x5
	.byte	0x49
	.byte	0x3a
	.byte	0xc
	.long	0x9748
	.uleb128 0x5
	.byte	0x49
	.byte	0x3b
	.byte	0xc
	.long	0x975e
	.uleb128 0x5
	.byte	0x49
	.byte	0x3c
	.byte	0xc
	.long	0x9775
	.uleb128 0x5
	.byte	0x49
	.byte	0x3d
	.byte	0xc
	.long	0x978c
	.uleb128 0x5
	.byte	0x49
	.byte	0x3f
	.byte	0xc
	.long	0x8123
	.uleb128 0x5
	.byte	0x49
	.byte	0x3f
	.byte	0xc
	.long	0x1eb8
	.uleb128 0x5
	.byte	0x49
	.byte	0x3f
	.byte	0xc
	.long	0x97b6
	.uleb128 0x5
	.byte	0x49
	.byte	0x41
	.byte	0xc
	.long	0x97d3
	.uleb128 0x5
	.byte	0x49
	.byte	0x43
	.byte	0xc
	.long	0x97ea
	.uleb128 0x5
	.byte	0x49
	.byte	0x46
	.byte	0xc
	.long	0x9806
	.uleb128 0x5
	.byte	0x49
	.byte	0x47
	.byte	0xc
	.long	0x9822
	.uleb128 0x5
	.byte	0x49
	.byte	0x48
	.byte	0xc
	.long	0x9843
	.uleb128 0x5
	.byte	0x49
	.byte	0x4a
	.byte	0xc
	.long	0x9864
	.uleb128 0x5
	.byte	0x49
	.byte	0x4b
	.byte	0xc
	.long	0x9899
	.uleb128 0x5
	.byte	0x49
	.byte	0x4d
	.byte	0xc
	.long	0x98a7
	.uleb128 0x5
	.byte	0x49
	.byte	0x4e
	.byte	0xc
	.long	0x98b9
	.uleb128 0x5
	.byte	0x49
	.byte	0x4f
	.byte	0xc
	.long	0x98d9
	.uleb128 0x5
	.byte	0x49
	.byte	0x50
	.byte	0xc
	.long	0x98fd
	.uleb128 0x5
	.byte	0x49
	.byte	0x51
	.byte	0xc
	.long	0x9921
	.uleb128 0x5
	.byte	0x49
	.byte	0x53
	.byte	0xc
	.long	0x9938
	.uleb128 0x5
	.byte	0x49
	.byte	0x54
	.byte	0xc
	.long	0x9959
	.uleb128 0x2c
	.byte	0x4
	.byte	0x4
	.long	.LASF2
	.uleb128 0x8
	.long	.LASF1313
	.byte	0xe
	.byte	0x2f
	.byte	0xe
	.long	0xa385
	.uleb128 0x59
	.long	0x43
	.long	0xa391
	.uleb128 0x5a
	.byte	0xf
	.byte	0
	.uleb128 0x8
	.long	.LASF1314
	.byte	0xe
	.byte	0x35
	.byte	0x13
	.long	0xa39d
	.uleb128 0x59
	.long	0x9248
	.long	0xa3a9
	.uleb128 0x5a
	.byte	0x1
	.byte	0
	.uleb128 0x7f
	.long	.LASF1315
	.byte	0xe
	.byte	0x39
	.byte	0x13
	.long	0xa39d
	.uleb128 0x7
	.long	0xa3a9
	.uleb128 0x2c
	.byte	0x8
	.byte	0x4
	.long	.LASF941
	.uleb128 0x8
	.long	.LASF1316
	.byte	0xd
	.byte	0x2a
	.byte	0xf
	.long	0xa3cd
	.uleb128 0x59
	.long	0x30
	.long	0xa3d9
	.uleb128 0x5a
	.byte	0x7
	.byte	0
	.uleb128 0x8
	.long	.LASF1317
	.byte	0xd
	.byte	0x2d
	.byte	0xd
	.long	0xa3e5
	.uleb128 0x59
	.long	0x4f
	.long	0xa3f1
	.uleb128 0x5a
	.byte	0x7
	.byte	0
	.uleb128 0x8
	.long	.LASF1318
	.byte	0xd
	.byte	0x37
	.byte	0xf
	.long	0xa402
	.uleb128 0x7
	.long	0xa3f1
	.uleb128 0x59
	.long	0x30
	.long	0xa40e
	.uleb128 0x5a
	.byte	0x7
	.byte	0
	.uleb128 0x8
	.long	.LASF1319
	.byte	0xd
	.byte	0x39
	.byte	0x13
	.long	0xa41a
	.uleb128 0x59
	.long	0x9248
	.long	0xa426
	.uleb128 0x5a
	.byte	0x3
	.byte	0
	.uleb128 0x7f
	.long	.LASF1320
	.byte	0xd
	.byte	0x3f
	.byte	0xf
	.long	0xa402
	.uleb128 0x2c
	.byte	0x2
	.byte	0x4
	.long	.LASF1321
	.uleb128 0x2c
	.byte	0x2
	.byte	0x4
	.long	.LASF1322
	.uleb128 0xca
	.long	0xa4df
	.uleb128 0x19
	.long	.LASF1323
	.byte	0x30
	.byte	0x1
	.byte	0x1b
	.byte	0x8
	.long	0xa4d9
	.uleb128 0x41
	.string	"sx"
	.byte	0x1
	.byte	0x1c
	.byte	0x9
	.long	0x4f
	.byte	0
	.uleb128 0x41
	.string	"sy"
	.byte	0x1
	.byte	0x1c
	.byte	0xd
	.long	0x4f
	.byte	0x4
	.uleb128 0x41
	.string	"A"
	.byte	0x1
	.byte	0x1d
	.byte	0xb
	.long	0x30
	.byte	0x8
	.uleb128 0x41
	.string	"B"
	.byte	0x1
	.byte	0x1d
	.byte	0xe
	.long	0x30
	.byte	0xc
	.uleb128 0x41
	.string	"C"
	.byte	0x1
	.byte	0x1d
	.byte	0x11
	.long	0x30
	.byte	0x10
	.uleb128 0x41
	.string	"D"
	.byte	0x1
	.byte	0x1d
	.byte	0x14
	.long	0x30
	.byte	0x14
	.uleb128 0x11
	.long	.LASF1324
	.byte	0x1
	.byte	0x1e
	.byte	0x9
	.long	0x4f
	.byte	0x18
	.uleb128 0x11
	.long	.LASF1325
	.byte	0x1
	.byte	0x1e
	.byte	0x12
	.long	0x4f
	.byte	0x1c
	.uleb128 0x11
	.long	.LASF1326
	.byte	0x1
	.byte	0x1e
	.byte	0x19
	.long	0x4f
	.byte	0x20
	.uleb128 0x11
	.long	.LASF1327
	.byte	0x1
	.byte	0x1e
	.byte	0x22
	.long	0x4f
	.byte	0x24
	.uleb128 0x41
	.string	"SUB"
	.byte	0x1
	.byte	0x1f
	.byte	0x1a
	.long	0xa00f
	.byte	0x28
	.byte	0
	.uleb128 0x7
	.long	0xa446
	.byte	0
	.uleb128 0xd
	.long	0x1ed6
	.uleb128 0xc
	.long	0x2074
	.uleb128 0xc
	.long	0x1ed6
	.uleb128 0xd
	.long	0xa1cb
	.uleb128 0x7
	.long	0xa4ee
	.uleb128 0xd
	.long	0x2074
	.uleb128 0xc
	.long	0xa1cb
	.uleb128 0xd
	.long	0xa1fc
	.uleb128 0x7
	.long	0xa502
	.uleb128 0xc
	.long	0xa1fc
	.uleb128 0xd
	.long	0x2079
	.uleb128 0xc
	.long	0x20fd
	.uleb128 0xc
	.long	0x2079
	.uleb128 0xc
	.long	0x213d
	.uleb128 0xc
	.long	0x214a
	.uleb128 0xc
	.long	0x8573
	.uleb128 0xc
	.long	0x857f
	.uleb128 0xd
	.long	0x220d
	.uleb128 0x29
	.long	0x220d
	.uleb128 0xc
	.long	0x22b3
	.uleb128 0xc
	.long	0x220d
	.uleb128 0xd
	.long	0x22c4
	.uleb128 0xc
	.long	0x237d
	.uleb128 0x29
	.long	0x22c4
	.uleb128 0x29
	.long	0x2371
	.uleb128 0xc
	.long	0x2371
	.uleb128 0xd
	.long	0x2200
	.uleb128 0xd
	.long	0x2588
	.uleb128 0xc
	.long	0x23cb
	.uleb128 0x29
	.long	0x2200
	.uleb128 0xc
	.long	0x2673
	.uleb128 0xd
	.long	0x25b0
	.uleb128 0x7
	.long	0xa57a
	.uleb128 0xc
	.long	0x26ca
	.uleb128 0xc
	.long	0x2738
	.uleb128 0xc
	.long	0x3158
	.uleb128 0x29
	.long	0x25b0
	.uleb128 0xc
	.long	0x3169
	.uleb128 0xc
	.long	0x25b0
	.uleb128 0xd
	.long	0x3158
	.uleb128 0x7
	.long	0xa5a2
	.uleb128 0x29
	.long	0x272b
	.uleb128 0xc
	.long	0x2680
	.uleb128 0xd
	.long	0x317d
	.uleb128 0x7
	.long	0xa5b6
	.uleb128 0xc
	.long	0x3329
	.uleb128 0xc
	.long	0x317d
	.uleb128 0xd
	.long	0xa446
	.uleb128 0x7
	.long	0xa5ca
	.uleb128 0xd
	.long	0x3329
	.uleb128 0x7
	.long	0xa5d4
	.uleb128 0xc
	.long	0xa446
	.uleb128 0xd
	.long	0xa4d9
	.uleb128 0xc
	.long	0xa4d9
	.uleb128 0xd
	.long	0x332e
	.uleb128 0x7
	.long	0xa5ed
	.uleb128 0xc
	.long	0x33a6
	.uleb128 0xc
	.long	0x332e
	.uleb128 0xc
	.long	0x33e2
	.uleb128 0xc
	.long	0x33ef
	.uleb128 0xc
	.long	0x8ace
	.uleb128 0xc
	.long	0x8ada
	.uleb128 0xd
	.long	0x34d4
	.uleb128 0x7
	.long	0xa615
	.uleb128 0x29
	.long	0x34d4
	.uleb128 0xc
	.long	0x3567
	.uleb128 0xc
	.long	0x34d4
	.uleb128 0xd
	.long	0x3578
	.uleb128 0x7
	.long	0xa62e
	.uleb128 0xc
	.long	0x3629
	.uleb128 0x29
	.long	0x3578
	.uleb128 0x29
	.long	0x361d
	.uleb128 0xc
	.long	0x361d
	.uleb128 0xd
	.long	0x34c7
	.uleb128 0x7
	.long	0xa64c
	.uleb128 0xd
	.long	0x3802
	.uleb128 0x7
	.long	0xa656
	.uleb128 0xc
	.long	0x366f
	.uleb128 0x29
	.long	0x34c7
	.uleb128 0xc
	.long	0x38e2
	.uleb128 0xd
	.long	0x382a
	.uleb128 0x7
	.long	0xa66f
	.uleb128 0xc
	.long	0x3932
	.uleb128 0xc
	.long	0x399d
	.uleb128 0xc
	.long	0x4386
	.uleb128 0x29
	.long	0x382a
	.uleb128 0xc
	.long	0x4397
	.uleb128 0xc
	.long	0x382a
	.uleb128 0xd
	.long	0x4386
	.uleb128 0x7
	.long	0xa697
	.uleb128 0x29
	.long	0x3990
	.uleb128 0xc
	.long	0x38ef
	.uleb128 0xd
	.long	0x85d5
	.uleb128 0x7
	.long	0xa6ab
	.uleb128 0xc
	.long	0xa4f3
	.uleb128 0xd
	.long	0x8803
	.uleb128 0x7
	.long	0xa6ba
	.uleb128 0xc
	.long	0x85d5
	.uleb128 0xd
	.long	0x43e6
	.uleb128 0x7
	.long	0xa6c9
	.uleb128 0xc
	.long	0x4584
	.uleb128 0xc
	.long	0x43e6
	.uleb128 0xd
	.long	0x4f
	.uleb128 0x7
	.long	0xa6dd
	.uleb128 0xd
	.long	0x4584
	.uleb128 0x7
	.long	0xa6e7
	.uleb128 0xc
	.long	0x4f
	.uleb128 0xc
	.long	0x57
	.uleb128 0xd
	.long	0x4589
	.uleb128 0x7
	.long	0xa6fb
	.uleb128 0xc
	.long	0x460d
	.uleb128 0xc
	.long	0x4589
	.uleb128 0xc
	.long	0x464d
	.uleb128 0xc
	.long	0x465a
	.uleb128 0xc
	.long	0x8ddd
	.uleb128 0xc
	.long	0x8de9
	.uleb128 0xd
	.long	0x471d
	.uleb128 0x7
	.long	0xa723
	.uleb128 0x29
	.long	0x471d
	.uleb128 0xc
	.long	0x47c3
	.uleb128 0xc
	.long	0x471d
	.uleb128 0xd
	.long	0x47d4
	.uleb128 0x7
	.long	0xa73c
	.uleb128 0xc
	.long	0x48a6
	.uleb128 0x29
	.long	0x47d4
	.uleb128 0x29
	.long	0x489a
	.uleb128 0xc
	.long	0x489a
	.uleb128 0xd
	.long	0x4710
	.uleb128 0x7
	.long	0xa75a
	.uleb128 0xd
	.long	0x4ab1
	.uleb128 0xc
	.long	0x48f4
	.uleb128 0x29
	.long	0x4710
	.uleb128 0xc
	.long	0x4b9c
	.uleb128 0xd
	.long	0x4ad9
	.uleb128 0x7
	.long	0xa778
	.uleb128 0xc
	.long	0x4bf3
	.uleb128 0xc
	.long	0x4c61
	.uleb128 0xc
	.long	0x5681
	.uleb128 0x29
	.long	0x4ad9
	.uleb128 0xc
	.long	0x5692
	.uleb128 0xc
	.long	0x4ad9
	.uleb128 0xd
	.long	0x5681
	.uleb128 0x29
	.long	0x4c54
	.uleb128 0xc
	.long	0x4ba9
	.uleb128 0xd
	.long	0x5697
	.uleb128 0xd
	.long	0x5784
	.uleb128 0xd
	.long	0x8b30
	.uleb128 0x7
	.long	0xa7b9
	.uleb128 0xc
	.long	0xa5cf
	.uleb128 0xd
	.long	0x8d26
	.uleb128 0x7
	.long	0xa7c8
	.uleb128 0xc
	.long	0x8b30
	.uleb128 0xd
	.long	0x57ce
	.uleb128 0x7
	.long	0xa7d7
	.uleb128 0xc
	.long	0x596c
	.uleb128 0xc
	.long	0x57ce
	.uleb128 0xd
	.long	0x30
	.uleb128 0x7
	.long	0xa7eb
	.uleb128 0xd
	.long	0x596c
	.uleb128 0x7
	.long	0xa7f5
	.uleb128 0xc
	.long	0x30
	.uleb128 0xd
	.long	0x7e1d
	.uleb128 0xc
	.long	0x7e1d
	.uleb128 0xd
	.long	0x5971
	.uleb128 0x7
	.long	0xa80e
	.uleb128 0xc
	.long	0x59f5
	.uleb128 0xc
	.long	0x5971
	.uleb128 0xc
	.long	0x5a35
	.uleb128 0xc
	.long	0x5a42
	.uleb128 0xc
	.long	0x8ef6
	.uleb128 0xc
	.long	0x8f02
	.uleb128 0xd
	.long	0x5b05
	.uleb128 0x7
	.long	0xa836
	.uleb128 0x29
	.long	0x5b05
	.uleb128 0xc
	.long	0x5bab
	.uleb128 0xc
	.long	0x5b05
	.uleb128 0xd
	.long	0x5bbc
	.uleb128 0x7
	.long	0xa84f
	.uleb128 0xc
	.long	0x5c8e
	.uleb128 0x29
	.long	0x5bbc
	.uleb128 0x29
	.long	0x5c82
	.uleb128 0xc
	.long	0x5c82
	.uleb128 0xd
	.long	0x5af8
	.uleb128 0x7
	.long	0xa86d
	.uleb128 0xd
	.long	0x5e99
	.uleb128 0xc
	.long	0x5cdc
	.uleb128 0x29
	.long	0x5af8
	.uleb128 0xc
	.long	0x5f84
	.uleb128 0xd
	.long	0x5ec1
	.uleb128 0x7
	.long	0xa88b
	.uleb128 0xc
	.long	0x5fdb
	.uleb128 0xc
	.long	0x6049
	.uleb128 0xc
	.long	0x6a95
	.uleb128 0x29
	.long	0x5ec1
	.uleb128 0xc
	.long	0x6aa6
	.uleb128 0xc
	.long	0x5ec1
	.uleb128 0xd
	.long	0x6a95
	.uleb128 0x7
	.long	0xa8b3
	.uleb128 0x29
	.long	0x603c
	.uleb128 0xc
	.long	0x5f91
	.uleb128 0xd
	.long	0x6aab
	.uleb128 0xd
	.long	0x6b98
	.uleb128 0xd
	.long	0x8f58
	.uleb128 0x7
	.long	0xa8d1
	.uleb128 0xc
	.long	0xa7f0
	.uleb128 0xd
	.long	0x9186
	.uleb128 0x7
	.long	0xa8e0
	.uleb128 0xc
	.long	0x8f58
	.uleb128 0xd
	.long	0x8808
	.uleb128 0xc
	.long	0xa507
	.uleb128 0xd
	.long	0x8a36
	.uleb128 0xc
	.long	0x8808
	.uleb128 0xd
	.long	0x828e
	.uleb128 0x7
	.long	0xa903
	.uleb128 0xc
	.long	0x9ffb
	.uleb128 0xd
	.long	0x84bc
	.uleb128 0x7
	.long	0xa912
	.uleb128 0xc
	.long	0x828e
	.uleb128 0xc
	.long	0x4290
	.uleb128 0xd
	.long	0x429d
	.uleb128 0x7
	.long	0xa926
	.uleb128 0xc
	.long	0x4342
	.uleb128 0xd
	.long	0x6c8f
	.uleb128 0x7
	.long	0xa935
	.uleb128 0xc
	.long	0xa6dd
	.uleb128 0xd
	.long	0xa6dd
	.uleb128 0xc
	.long	0x6d60
	.uleb128 0x98
	.long	0x6d65
	.uleb128 0x4a
	.long	.LASF1328
	.byte	0x4a
	.byte	0x6e
	.byte	0x6
	.long	.LASF1329
	.long	0xa96f
	.uleb128 0x1
	.long	0x7649
	.uleb128 0x1
	.long	0x2bc
	.byte	0
	.uleb128 0x36
	.long	.LASF1330
	.byte	0x4a
	.byte	0x63
	.byte	0x1a
	.long	.LASF1331
	.long	0x7649
	.long	0xa989
	.uleb128 0x1
	.long	0x2bc
	.byte	0
	.uleb128 0x14
	.long	0x6da2
	.byte	0x3
	.long	0xa9cd
	.uleb128 0xa
	.long	.LASF757
	.long	0xa7eb
	.uleb128 0xf
	.string	"_Tp"
	.long	0x30
	.uleb128 0x12
	.long	.LASF1332
	.byte	0xa
	.value	0x3d0
	.byte	0x14
	.long	0xa7eb
	.uleb128 0x12
	.long	.LASF1333
	.byte	0xa
	.value	0x3d0
	.byte	0x23
	.long	0xa7eb
	.uleb128 0x12
	.long	.LASF850
	.byte	0xa
	.value	0x3d0
	.byte	0x36
	.long	0xa809
	.byte	0
	.uleb128 0xb
	.long	0xc03
	.long	0xa9db
	.byte	0x3
	.long	0xa9f6
	.uleb128 0x9
	.long	.LASF1334
	.long	0x9fe7
	.uleb128 0x27
	.string	"__n"
	.byte	0x6
	.byte	0x81
	.byte	0x1a
	.long	0xc2c
	.uleb128 0x1
	.long	0x9315
	.byte	0
	.uleb128 0xb
	.long	0xc7c
	.long	0xaa04
	.byte	0x3
	.long	0xaa0e
	.uleb128 0x9
	.long	.LASF1334
	.long	0xa005
	.byte	0
	.uleb128 0x14
	.long	0x6dd5
	.byte	0x3
	.long	0xaa7a
	.uleb128 0xa
	.long	.LASF760
	.long	0xa7eb
	.uleb128 0xa
	.long	.LASF61
	.long	0x37
	.uleb128 0xf
	.string	"_Tp"
	.long	0x30
	.uleb128 0x12
	.long	.LASF1332
	.byte	0xa
	.value	0x475
	.byte	0x20
	.long	0xa7eb
	.uleb128 0xe
	.string	"__n"
	.byte	0xa
	.value	0x475
	.byte	0x2f
	.long	0x37
	.uleb128 0x12
	.long	.LASF850
	.byte	0xa
	.value	0x475
	.byte	0x3f
	.long	0xa809
	.uleb128 0x1
	.long	0x69c
	.uleb128 0x5b
	.string	"__d"
	.byte	0xa
	.value	0x47e
	.byte	0x42
	.long	0x6bc0
	.uleb128 0x26
	.long	.LASF1333
	.byte	0xa
	.value	0x481
	.byte	0x17
	.long	0xa7eb
	.byte	0
	.uleb128 0x14
	.long	0x6d2a
	.byte	0x3
	.long	0xaaa6
	.uleb128 0xa
	.long	.LASF748
	.long	0xa6dd
	.uleb128 0x42
	.long	.LASF1332
	.byte	0xc
	.byte	0x8e
	.byte	0x13
	.long	0xa6dd
	.uleb128 0x42
	.long	.LASF1333
	.byte	0xc
	.byte	0x8e
	.byte	0x22
	.long	0xa6dd
	.byte	0
	.uleb128 0x14
	.long	0xd4d
	.byte	0x3
	.long	0xaacb
	.uleb128 0xe
	.string	"__a"
	.byte	0x8
	.value	0x27d
	.byte	0x20
	.long	0xa02d
	.uleb128 0xe
	.string	"__n"
	.byte	0x8
	.value	0x27d
	.byte	0x2f
	.long	0xd7f
	.byte	0
	.uleb128 0xb
	.long	0xc5d
	.long	0xaad9
	.byte	0x3
	.long	0xaae3
	.uleb128 0x9
	.long	.LASF1334
	.long	0xa005
	.byte	0
	.uleb128 0x14
	.long	0x6e1a
	.byte	0x3
	.long	0xab30
	.uleb128 0xf
	.string	"_OI"
	.long	0xa7eb
	.uleb128 0xa
	.long	.LASF61
	.long	0x37
	.uleb128 0xf
	.string	"_Tp"
	.long	0x30
	.uleb128 0x12
	.long	.LASF1332
	.byte	0xa
	.value	0x49b
	.byte	0x10
	.long	0xa7eb
	.uleb128 0xe
	.string	"__n"
	.byte	0xa
	.value	0x49b
	.byte	0x1f
	.long	0x37
	.uleb128 0x12
	.long	.LASF850
	.byte	0xa
	.value	0x49b
	.byte	0x2f
	.long	0xa809
	.byte	0
	.uleb128 0x14
	.long	0x6e5a
	.byte	0x3
	.long	0xab5f
	.uleb128 0xf
	.string	"_Tp"
	.long	0x30
	.uleb128 0x90
	.long	.LASF432
	.uleb128 0x27
	.string	"__p"
	.byte	0xb
	.byte	0x7b
	.byte	0x15
	.long	0xa7eb
	.uleb128 0xcb
	.long	.LASF1359
	.byte	0xb
	.byte	0x7b
	.byte	0x21
	.byte	0
	.uleb128 0xb
	.long	0x58cb
	.long	0xab6d
	.byte	0x3
	.long	0xab88
	.uleb128 0x9
	.long	.LASF1334
	.long	0xa7dc
	.uleb128 0x27
	.string	"__n"
	.byte	0x6
	.byte	0x81
	.byte	0x1a
	.long	0x58f4
	.uleb128 0x1
	.long	0x9315
	.byte	0
	.uleb128 0xb
	.long	0x5944
	.long	0xab96
	.byte	0x3
	.long	0xaba0
	.uleb128 0x9
	.long	.LASF1334
	.long	0xa7fa
	.byte	0
	.uleb128 0xb
	.long	0x6cd6
	.long	0xabae
	.byte	0x3
	.long	0xabb8
	.uleb128 0x9
	.long	.LASF1334
	.long	0xa93a
	.byte	0
	.uleb128 0x14
	.long	0x6e7f
	.byte	0x3
	.long	0xabf6
	.uleb128 0xf
	.string	"_Tp"
	.long	0x4f
	.uleb128 0x55
	.long	.LASF432
	.long	0xabda
	.uleb128 0x56
	.long	0xa6f6
	.byte	0
	.uleb128 0x27
	.string	"__p"
	.byte	0xb
	.byte	0x7b
	.byte	0x15
	.long	0xa6dd
	.uleb128 0x9a
	.long	.LASF1359
	.byte	0xb
	.byte	0x7b
	.byte	0x21
	.uleb128 0x1
	.long	0xa6f6
	.byte	0
	.byte	0
	.uleb128 0xb
	.long	0x6cbc
	.long	0xac04
	.byte	0x2
	.long	0xac0e
	.uleb128 0x9
	.long	.LASF1334
	.long	0xa93a
	.byte	0
	.uleb128 0x1a
	.long	0xabf6
	.long	.LASF1335
	.long	0xac1f
	.long	0xac25
	.uleb128 0x3
	.long	0xac04
	.byte	0
	.uleb128 0xb
	.long	0x6c9c
	.long	0xac33
	.byte	0x2
	.long	0xac49
	.uleb128 0x9
	.long	.LASF1334
	.long	0xa93a
	.uleb128 0x42
	.long	.LASF1332
	.byte	0xc
	.byte	0x71
	.byte	0x2d
	.long	0xa93f
	.byte	0
	.uleb128 0x1a
	.long	0xac25
	.long	.LASF1336
	.long	0xac5a
	.long	0xac65
	.uleb128 0x3
	.long	0xac33
	.uleb128 0x3
	.long	0xac3c
	.byte	0
	.uleb128 0xb
	.long	0x44e3
	.long	0xac73
	.byte	0x3
	.long	0xac8e
	.uleb128 0x9
	.long	.LASF1334
	.long	0xa6ce
	.uleb128 0x27
	.string	"__n"
	.byte	0x6
	.byte	0x81
	.byte	0x1a
	.long	0x450c
	.uleb128 0x1
	.long	0x9315
	.byte	0
	.uleb128 0xb
	.long	0x455c
	.long	0xac9c
	.byte	0x3
	.long	0xaca6
	.uleb128 0x9
	.long	.LASF1334
	.long	0xa6ec
	.byte	0
	.uleb128 0x14
	.long	0x6eb2
	.byte	0x3
	.long	0xad06
	.uleb128 0xf
	.string	"_Up"
	.long	0x92d5
	.uleb128 0xf
	.string	"_Tp"
	.long	0x92d5
	.uleb128 0x12
	.long	.LASF1332
	.byte	0xa
	.value	0x3a7
	.byte	0x14
	.long	0x9ff6
	.uleb128 0x12
	.long	.LASF1333
	.byte	0xa
	.value	0x3a7
	.byte	0x22
	.long	0x9ff6
	.uleb128 0xe
	.string	"__x"
	.byte	0xa
	.value	0x3a7
	.byte	0x35
	.long	0xa014
	.uleb128 0x26
	.long	.LASF1337
	.byte	0xa
	.value	0x3ab
	.byte	0x11
	.long	0x92dc
	.uleb128 0x43
	.uleb128 0x26
	.long	.LASF1338
	.byte	0xa
	.value	0x3b4
	.byte	0x18
	.long	0x2c9
	.byte	0
	.byte	0
	.uleb128 0xb
	.long	0x1157
	.long	0xad14
	.byte	0x3
	.long	0xad2b
	.uleb128 0x9
	.long	.LASF1334
	.long	0xa07d
	.uleb128 0xe
	.string	"__n"
	.byte	0x2
	.value	0x182
	.byte	0x1a
	.long	0x2bc
	.byte	0
	.uleb128 0x14
	.long	0xddf
	.byte	0x3
	.long	0xad43
	.uleb128 0xe
	.string	"__a"
	.byte	0x8
	.value	0x2ed
	.byte	0x26
	.long	0xa032
	.byte	0
	.uleb128 0x14
	.long	0xac9
	.byte	0x3
	.long	0xad89
	.uleb128 0xa
	.long	.LASF60
	.long	0xa7eb
	.uleb128 0xa
	.long	.LASF61
	.long	0x37
	.uleb128 0x12
	.long	.LASF1332
	.byte	0xc
	.value	0x3ab
	.byte	0x2d
	.long	0xa7eb
	.uleb128 0xe
	.string	"__n"
	.byte	0xc
	.value	0x3ab
	.byte	0x3c
	.long	0x37
	.uleb128 0x43
	.uleb128 0x26
	.long	.LASF1337
	.byte	0xc
	.value	0x3af
	.byte	0x40
	.long	0xad89
	.byte	0
	.byte	0
	.uleb128 0xd
	.long	0x6bb4
	.uleb128 0xb
	.long	0x5900
	.long	0xad9c
	.byte	0x3
	.long	0xadbe
	.uleb128 0x9
	.long	.LASF1334
	.long	0xa7dc
	.uleb128 0x27
	.string	"__p"
	.byte	0x6
	.byte	0xa7
	.byte	0x17
	.long	0xa7eb
	.uleb128 0x27
	.string	"__n"
	.byte	0x6
	.byte	0xa7
	.byte	0x26
	.long	0x58f4
	.byte	0
	.uleb128 0x14
	.long	0x5a15
	.byte	0x3
	.long	0xade3
	.uleb128 0xe
	.string	"__a"
	.byte	0x8
	.value	0x27d
	.byte	0x20
	.long	0xa822
	.uleb128 0xe
	.string	"__n"
	.byte	0x8
	.value	0x27d
	.byte	0x2f
	.long	0x5a47
	.byte	0
	.uleb128 0xb
	.long	0x5925
	.long	0xadf1
	.byte	0x3
	.long	0xadfb
	.uleb128 0x9
	.long	.LASF1334
	.long	0xa7fa
	.byte	0
	.uleb128 0x14
	.long	0x6ee5
	.byte	0x1
	.long	0xae55
	.uleb128 0xa
	.long	.LASF60
	.long	0xa6dd
	.uleb128 0xa
	.long	.LASF61
	.long	0x37
	.uleb128 0xf
	.string	"_Tp"
	.long	0x4f
	.uleb128 0x12
	.long	.LASF1332
	.byte	0xc
	.value	0x1dd
	.byte	0x29
	.long	0xa6dd
	.uleb128 0xe
	.string	"__n"
	.byte	0xc
	.value	0x1dd
	.byte	0x38
	.long	0x37
	.uleb128 0xe
	.string	"__x"
	.byte	0xc
	.value	0x1dd
	.byte	0x48
	.long	0xa6f6
	.uleb128 0x26
	.long	.LASF1339
	.byte	0xc
	.value	0x1df
	.byte	0x2d
	.long	0x6c8f
	.byte	0
	.uleb128 0xb
	.long	0x4518
	.long	0xae63
	.byte	0x3
	.long	0xae85
	.uleb128 0x9
	.long	.LASF1334
	.long	0xa6ce
	.uleb128 0x27
	.string	"__p"
	.byte	0x6
	.byte	0xa7
	.byte	0x17
	.long	0xa6dd
	.uleb128 0x27
	.string	"__n"
	.byte	0x6
	.byte	0xa7
	.byte	0x26
	.long	0x450c
	.byte	0
	.uleb128 0x14
	.long	0x462d
	.byte	0x3
	.long	0xaeaa
	.uleb128 0xe
	.string	"__a"
	.byte	0x8
	.value	0x27d
	.byte	0x20
	.long	0xa70f
	.uleb128 0xe
	.string	"__n"
	.byte	0x8
	.value	0x27d
	.byte	0x2f
	.long	0x465f
	.byte	0
	.uleb128 0xb
	.long	0x453d
	.long	0xaeb8
	.byte	0x3
	.long	0xaec2
	.uleb128 0x9
	.long	.LASF1334
	.long	0xa6ec
	.byte	0
	.uleb128 0xb
	.long	0x32cc
	.long	0xaed0
	.byte	0x3
	.long	0xaeda
	.uleb128 0x9
	.long	.LASF1334
	.long	0xa5d9
	.byte	0
	.uleb128 0xb
	.long	0x32b1
	.long	0xaee8
	.byte	0x3
	.long	0xaef2
	.uleb128 0x9
	.long	.LASF1334
	.long	0xa5d9
	.byte	0
	.uleb128 0x14
	.long	0x6f25
	.byte	0x3
	.long	0xaf36
	.uleb128 0xa
	.long	.LASF757
	.long	0x9ff6
	.uleb128 0xf
	.string	"_Tp"
	.long	0x92d5
	.uleb128 0x12
	.long	.LASF1332
	.byte	0xa
	.value	0x3d0
	.byte	0x14
	.long	0x9ff6
	.uleb128 0x12
	.long	.LASF1333
	.byte	0xa
	.value	0x3d0
	.byte	0x23
	.long	0x9ff6
	.uleb128 0x12
	.long	.LASF850
	.byte	0xa
	.value	0x3d0
	.byte	0x36
	.long	0xa014
	.byte	0
	.uleb128 0x14
	.long	0x6f58
	.byte	0x3
	.long	0xaf57
	.uleb128 0xa
	.long	.LASF448
	.long	0x9ff6
	.uleb128 0x12
	.long	.LASF1340
	.byte	0x3
	.value	0xbce
	.byte	0x1c
	.long	0x9ff6
	.byte	0
	.uleb128 0x14
	.long	0x6f7c
	.byte	0x3
	.long	0xafa4
	.uleb128 0xa
	.long	.LASF777
	.long	0x9ff6
	.uleb128 0xa
	.long	.LASF778
	.long	0x11f9
	.uleb128 0xf
	.string	"_Tp"
	.long	0x92d5
	.uleb128 0x12
	.long	.LASF1332
	.byte	0xa
	.value	0x3bc
	.byte	0x3b
	.long	0x828e
	.uleb128 0x12
	.long	.LASF1333
	.byte	0xa
	.value	0x3bd
	.byte	0x34
	.long	0x828e
	.uleb128 0x12
	.long	.LASF850
	.byte	0xa
	.value	0x3be
	.byte	0x13
	.long	0xa014
	.byte	0
	.uleb128 0xb
	.long	0x8489
	.long	0xafb2
	.byte	0x3
	.long	0xafbc
	.uleb128 0x9
	.long	.LASF1334
	.long	0xa917
	.byte	0
	.uleb128 0xb
	.long	0x119d
	.long	0xafca
	.byte	0x3
	.long	0xafe1
	.uleb128 0x9
	.long	.LASF1334
	.long	0xa07d
	.uleb128 0xe
	.string	"__n"
	.byte	0x2
	.value	0x195
	.byte	0x20
	.long	0x2bc
	.byte	0
	.uleb128 0xb
	.long	0xf25
	.long	0xafef
	.byte	0x2
	.long	0xb005
	.uleb128 0x9
	.long	.LASF1334
	.long	0xa05f
	.uleb128 0x27
	.string	"__a"
	.byte	0x2
	.byte	0x98
	.byte	0x25
	.long	0xa064
	.byte	0
	.uleb128 0x1a
	.long	0xafe1
	.long	.LASF1341
	.long	0xb016
	.long	0xb021
	.uleb128 0x3
	.long	0xafef
	.uleb128 0x3
	.long	0xaff8
	.byte	0
	.uleb128 0x14
	.long	0x1cc6
	.byte	0x3
	.long	0xb053
	.uleb128 0xe
	.string	"__a"
	.byte	0x2
	.value	0x8a4
	.byte	0x29
	.long	0xa0cd
	.uleb128 0x26
	.long	.LASF1342
	.byte	0x2
	.value	0x8a9
	.byte	0xf
	.long	0x2c9
	.uleb128 0x26
	.long	.LASF1343
	.byte	0x2
	.value	0x8ab
	.byte	0xf
	.long	0x2c9
	.byte	0
	.uleb128 0x14
	.long	0x6fb8
	.byte	0x3
	.long	0xb0bf
	.uleb128 0xa
	.long	.LASF60
	.long	0xa7eb
	.uleb128 0xf
	.string	"_Tp"
	.long	0x30
	.uleb128 0x12
	.long	.LASF1332
	.byte	0xa
	.value	0x37f
	.byte	0x20
	.long	0xa7eb
	.uleb128 0x12
	.long	.LASF1333
	.byte	0xa
	.value	0x37f
	.byte	0x3a
	.long	0xa7eb
	.uleb128 0x12
	.long	.LASF850
	.byte	0xa
	.value	0x380
	.byte	0x13
	.long	0xa809
	.uleb128 0x26
	.long	.LASF1344
	.byte	0xa
	.value	0x388
	.byte	0x12
	.long	0x92c6
	.uleb128 0xcc
	.string	"_Up"
	.byte	0xa
	.value	0x398
	.byte	0x20
	.long	0x919d
	.uleb128 0x26
	.long	.LASF1337
	.byte	0xa
	.value	0x399
	.byte	0xb
	.long	0xb0a3
	.byte	0
	.uleb128 0x14
	.long	0x6feb
	.byte	0x3
	.long	0xb104
	.uleb128 0xa
	.long	.LASF60
	.long	0xa7eb
	.uleb128 0xa
	.long	.LASF61
	.long	0x37
	.uleb128 0x12
	.long	.LASF1332
	.byte	0xc
	.value	0x3d6
	.byte	0x30
	.long	0xa7eb
	.uleb128 0xe
	.string	"__n"
	.byte	0xc
	.value	0x3d6
	.byte	0x3f
	.long	0x37
	.uleb128 0xcd
	.long	.LASF1505
	.byte	0xc
	.value	0x3e1
	.byte	0x16
	.long	0x92c6
	.byte	0
	.uleb128 0x14
	.long	0x5a86
	.byte	0x3
	.long	0xb136
	.uleb128 0xe
	.string	"__a"
	.byte	0x8
	.value	0x2b0
	.byte	0x22
	.long	0xa822
	.uleb128 0xe
	.string	"__p"
	.byte	0x8
	.value	0x2b0
	.byte	0x2f
	.long	0x5a08
	.uleb128 0xe
	.string	"__n"
	.byte	0x8
	.value	0x2b0
	.byte	0x3e
	.long	0x5a47
	.byte	0
	.uleb128 0xb
	.long	0x5e1f
	.long	0xb144
	.byte	0x3
	.long	0xb15b
	.uleb128 0x9
	.long	.LASF1334
	.long	0xa872
	.uleb128 0xe
	.string	"__n"
	.byte	0x2
	.value	0x182
	.byte	0x1a
	.long	0x2bc
	.byte	0
	.uleb128 0xb
	.long	0x5b39
	.long	0xb169
	.byte	0x2
	.long	0xb173
	.uleb128 0x9
	.long	.LASF1334
	.long	0xa83b
	.byte	0
	.uleb128 0x1a
	.long	0xb15b
	.long	.LASF1345
	.long	0xb184
	.long	0xb18a
	.uleb128 0x3
	.long	0xb169
	.byte	0
	.uleb128 0xb
	.long	0x57f5
	.long	0xb198
	.byte	0x2
	.long	0xb1a7
	.uleb128 0x9
	.long	.LASF1334
	.long	0xa7dc
	.uleb128 0x1
	.long	0xa7e1
	.byte	0
	.uleb128 0x1a
	.long	0xb18a
	.long	.LASF1346
	.long	0xb1b8
	.long	0xb1c3
	.uleb128 0x3
	.long	0xb198
	.uleb128 0x3
	.long	0xb1a1
	.byte	0
	.uleb128 0x14
	.long	0x5aa7
	.byte	0x3
	.long	0xb1db
	.uleb128 0xe
	.string	"__a"
	.byte	0x8
	.value	0x2ed
	.byte	0x26
	.long	0xa827
	.byte	0
	.uleb128 0x14
	.long	0x701d
	.byte	0x3
	.long	0xb228
	.uleb128 0xa
	.long	.LASF60
	.long	0xa6dd
	.uleb128 0xa
	.long	.LASF61
	.long	0x37
	.uleb128 0xf
	.string	"_Tp"
	.long	0x4f
	.uleb128 0x12
	.long	.LASF1332
	.byte	0xc
	.value	0x226
	.byte	0x2b
	.long	0xa6dd
	.uleb128 0xe
	.string	"__n"
	.byte	0xc
	.value	0x226
	.byte	0x3a
	.long	0x37
	.uleb128 0xe
	.string	"__x"
	.byte	0xc
	.value	0x226
	.byte	0x4a
	.long	0xa6f6
	.byte	0
	.uleb128 0x14
	.long	0x469e
	.byte	0x3
	.long	0xb25a
	.uleb128 0xe
	.string	"__a"
	.byte	0x8
	.value	0x2b0
	.byte	0x22
	.long	0xa70f
	.uleb128 0xe
	.string	"__p"
	.byte	0x8
	.value	0x2b0
	.byte	0x2f
	.long	0x4620
	.uleb128 0xe
	.string	"__n"
	.byte	0x8
	.value	0x2b0
	.byte	0x3e
	.long	0x465f
	.byte	0
	.uleb128 0xb
	.long	0x4a37
	.long	0xb268
	.byte	0x3
	.long	0xb27f
	.uleb128 0x9
	.long	.LASF1334
	.long	0xa75f
	.uleb128 0xe
	.string	"__n"
	.byte	0x2
	.value	0x182
	.byte	0x1a
	.long	0x2bc
	.byte	0
	.uleb128 0xb
	.long	0x4751
	.long	0xb28d
	.byte	0x2
	.long	0xb297
	.uleb128 0x9
	.long	.LASF1334
	.long	0xa728
	.byte	0
	.uleb128 0x1a
	.long	0xb27f
	.long	.LASF1347
	.long	0xb2a8
	.long	0xb2ae
	.uleb128 0x3
	.long	0xb28d
	.byte	0
	.uleb128 0xb
	.long	0x440d
	.long	0xb2bc
	.byte	0x2
	.long	0xb2cb
	.uleb128 0x9
	.long	.LASF1334
	.long	0xa6ce
	.uleb128 0x1
	.long	0xa6d3
	.byte	0
	.uleb128 0x1a
	.long	0xb2ae
	.long	.LASF1348
	.long	0xb2dc
	.long	0xb2e7
	.uleb128 0x3
	.long	0xb2bc
	.uleb128 0x3
	.long	0xb2c5
	.byte	0
	.uleb128 0x14
	.long	0x46bf
	.byte	0x3
	.long	0xb2ff
	.uleb128 0xe
	.string	"__a"
	.byte	0x8
	.value	0x2ed
	.byte	0x26
	.long	0xa714
	.byte	0
	.uleb128 0xc
	.long	0x7607
	.uleb128 0x14
	.long	0x705d
	.byte	0x3
	.long	0xb332
	.uleb128 0xf
	.string	"_Tp"
	.long	0x37
	.uleb128 0xe
	.string	"__a"
	.byte	0xa
	.value	0x100
	.byte	0x14
	.long	0xb2ff
	.uleb128 0xe
	.string	"__b"
	.byte	0xa
	.value	0x100
	.byte	0x24
	.long	0xb2ff
	.byte	0
	.uleb128 0xb
	.long	0x3260
	.long	0xb340
	.byte	0x3
	.long	0xb35b
	.uleb128 0x9
	.long	.LASF1334
	.long	0xa5bb
	.uleb128 0x27
	.string	"__n"
	.byte	0x6
	.byte	0x81
	.byte	0x1a
	.long	0x3285
	.uleb128 0x1
	.long	0x9315
	.byte	0
	.uleb128 0x14
	.long	0x344c
	.byte	0x3
	.long	0xb373
	.uleb128 0xe
	.string	"__a"
	.byte	0x8
	.value	0x2ed
	.byte	0x26
	.long	0xa606
	.byte	0
	.uleb128 0xb
	.long	0x3291
	.long	0xb381
	.byte	0x3
	.long	0xb3a3
	.uleb128 0x9
	.long	.LASF1334
	.long	0xa5bb
	.uleb128 0x27
	.string	"__p"
	.byte	0x6
	.byte	0xa7
	.byte	0x17
	.long	0xa5ca
	.uleb128 0x27
	.string	"__n"
	.byte	0x6
	.byte	0xa7
	.byte	0x26
	.long	0x3285
	.byte	0
	.uleb128 0x14
	.long	0x7086
	.byte	0x3
	.long	0xb40f
	.uleb128 0xa
	.long	.LASF760
	.long	0x9ff6
	.uleb128 0xa
	.long	.LASF61
	.long	0x37
	.uleb128 0xf
	.string	"_Tp"
	.long	0x92d5
	.uleb128 0x12
	.long	.LASF1332
	.byte	0xa
	.value	0x475
	.byte	0x20
	.long	0x9ff6
	.uleb128 0xe
	.string	"__n"
	.byte	0xa
	.value	0x475
	.byte	0x2f
	.long	0x37
	.uleb128 0x12
	.long	.LASF850
	.byte	0xa
	.value	0x475
	.byte	0x3f
	.long	0xa014
	.uleb128 0x1
	.long	0x69c
	.uleb128 0x5b
	.string	"__d"
	.byte	0xa
	.value	0x47e
	.byte	0x42
	.long	0x6c61
	.uleb128 0x26
	.long	.LASF1333
	.byte	0xa
	.value	0x481
	.byte	0x17
	.long	0x9ff6
	.byte	0
	.uleb128 0x14
	.long	0x70cb
	.byte	0x3
	.long	0xb46d
	.uleb128 0xa
	.long	.LASF60
	.long	0x9ff6
	.uleb128 0xa
	.long	.LASF61
	.long	0x37
	.uleb128 0xf
	.string	"_Tp"
	.long	0x92d5
	.uleb128 0x12
	.long	.LASF1332
	.byte	0xc
	.value	0x226
	.byte	0x2b
	.long	0x9ff6
	.uleb128 0xe
	.string	"__n"
	.byte	0xc
	.value	0x226
	.byte	0x3a
	.long	0x37
	.uleb128 0xe
	.string	"__x"
	.byte	0xc
	.value	0x226
	.byte	0x4a
	.long	0xa014
	.uleb128 0x43
	.uleb128 0x43
	.uleb128 0x26
	.long	.LASF1349
	.byte	0xc
	.value	0x23e
	.byte	0xb
	.long	0x7649
	.byte	0
	.byte	0
	.byte	0
	.uleb128 0x14
	.long	0x710b
	.byte	0x3
	.long	0xb4b1
	.uleb128 0xa
	.long	.LASF757
	.long	0x828e
	.uleb128 0xf
	.string	"_Tp"
	.long	0x92d5
	.uleb128 0x12
	.long	.LASF1332
	.byte	0xa
	.value	0x3d0
	.byte	0x14
	.long	0x828e
	.uleb128 0x12
	.long	.LASF1333
	.byte	0xa
	.value	0x3d0
	.byte	0x23
	.long	0x828e
	.uleb128 0x12
	.long	.LASF850
	.byte	0xa
	.value	0x3d0
	.byte	0x36
	.long	0xa014
	.byte	0
	.uleb128 0xb
	.long	0x82c0
	.long	0xb4bf
	.byte	0x2
	.long	0xb4d6
	.uleb128 0x9
	.long	.LASF1334
	.long	0xa908
	.uleb128 0xe
	.string	"__i"
	.byte	0x3
	.value	0x422
	.byte	0x2a
	.long	0xa90d
	.byte	0
	.uleb128 0x1a
	.long	0xb4b1
	.long	.LASF1350
	.long	0xb4e7
	.long	0xb4f2
	.uleb128 0x3
	.long	0xb4bf
	.uleb128 0x3
	.long	0xb4c8
	.byte	0
	.uleb128 0xb
	.long	0xeaa
	.long	0xb500
	.byte	0x3
	.long	0xb516
	.uleb128 0x9
	.long	.LASF1334
	.long	0xa046
	.uleb128 0x27
	.string	"__x"
	.byte	0x2
	.byte	0x77
	.byte	0x28
	.long	0xa050
	.byte	0
	.uleb128 0xb
	.long	0x1b2b
	.long	0xb524
	.byte	0x3
	.long	0xb548
	.uleb128 0x9
	.long	.LASF1334
	.long	0xa09b
	.uleb128 0xe
	.string	"__n"
	.byte	0x2
	.value	0x7c3
	.byte	0x24
	.long	0x133c
	.uleb128 0x12
	.long	.LASF850
	.byte	0x2
	.value	0x7c3
	.byte	0x3b
	.long	0xa0a5
	.byte	0
	.uleb128 0xb
	.long	0x108c
	.long	0xb556
	.byte	0x2
	.long	0xb57a
	.uleb128 0x9
	.long	.LASF1334
	.long	0xa07d
	.uleb128 0xe
	.string	"__n"
	.byte	0x2
	.value	0x153
	.byte	0x1b
	.long	0x2bc
	.uleb128 0xe
	.string	"__a"
	.byte	0x2
	.value	0x153
	.byte	0x36
	.long	0xa087
	.byte	0
	.uleb128 0x1a
	.long	0xb548
	.long	.LASF1351
	.long	0xb58b
	.long	0xb59b
	.uleb128 0x3
	.long	0xb556
	.uleb128 0x3
	.long	0xb55f
	.uleb128 0x3
	.long	0xb56c
	.byte	0
	.uleb128 0x14
	.long	0x1ca8
	.byte	0x3
	.long	0xb5c0
	.uleb128 0xe
	.string	"__n"
	.byte	0x2
	.value	0x89b
	.byte	0x23
	.long	0x133c
	.uleb128 0xe
	.string	"__a"
	.byte	0x2
	.value	0x89b
	.byte	0x3e
	.long	0xa0a0
	.byte	0
	.uleb128 0xb
	.long	0xc38
	.long	0xb5ce
	.byte	0x3
	.long	0xb5f0
	.uleb128 0x9
	.long	.LASF1334
	.long	0x9fe7
	.uleb128 0x27
	.string	"__p"
	.byte	0x6
	.byte	0xa7
	.byte	0x17
	.long	0x9ff6
	.uleb128 0x27
	.string	"__n"
	.byte	0x6
	.byte	0xa7
	.byte	0x26
	.long	0xc2c
	.byte	0
	.uleb128 0xb
	.long	0xb2d
	.long	0xb5fe
	.byte	0x2
	.long	0xb60d
	.uleb128 0x9
	.long	.LASF1334
	.long	0x9fe7
	.uleb128 0x1
	.long	0x9fec
	.byte	0
	.uleb128 0x1a
	.long	0xb5f0
	.long	.LASF1352
	.long	0xb61e
	.long	0xb629
	.uleb128 0x3
	.long	0xb5fe
	.uleb128 0x3
	.long	0xb607
	.byte	0
	.uleb128 0x14
	.long	0x713e
	.byte	0x3
	.long	0xb676
	.uleb128 0xa
	.long	.LASF777
	.long	0xa7eb
	.uleb128 0xa
	.long	.LASF778
	.long	0x5ec1
	.uleb128 0xf
	.string	"_Tp"
	.long	0x30
	.uleb128 0x12
	.long	.LASF1332
	.byte	0xa
	.value	0x3bc
	.byte	0x3b
	.long	0x8f58
	.uleb128 0x12
	.long	.LASF1333
	.byte	0xa
	.value	0x3bd
	.byte	0x34
	.long	0x8f58
	.uleb128 0x12
	.long	.LASF850
	.byte	0xa
	.value	0x3be
	.byte	0x13
	.long	0xa809
	.byte	0
	.uleb128 0xb
	.long	0x9153
	.long	0xb684
	.byte	0x3
	.long	0xb68e
	.uleb128 0x9
	.long	.LASF1334
	.long	0xa8e5
	.byte	0
	.uleb128 0x14
	.long	0x717a
	.byte	0x3
	.long	0xb6ba
	.uleb128 0xa
	.long	.LASF60
	.long	0xa7eb
	.uleb128 0x42
	.long	.LASF1332
	.byte	0xb
	.byte	0xdb
	.byte	0x1f
	.long	0xa7eb
	.uleb128 0x42
	.long	.LASF1333
	.byte	0xb
	.byte	0xdb
	.byte	0x39
	.long	0xa7eb
	.byte	0
	.uleb128 0x14
	.long	0x719e
	.byte	0x3
	.long	0xb6ff
	.uleb128 0xa
	.long	.LASF60
	.long	0xa7eb
	.uleb128 0xa
	.long	.LASF61
	.long	0x37
	.uleb128 0xf
	.string	"_Tp"
	.long	0x30
	.uleb128 0x12
	.long	.LASF1332
	.byte	0xc
	.value	0x41b
	.byte	0x32
	.long	0xa7eb
	.uleb128 0xe
	.string	"__n"
	.byte	0xc
	.value	0x41b
	.byte	0x41
	.long	0x37
	.uleb128 0x1
	.long	0xa81d
	.byte	0
	.uleb128 0xb
	.long	0x5e42
	.long	0xb70d
	.byte	0x3
	.long	0xb731
	.uleb128 0x9
	.long	.LASF1334
	.long	0xa872
	.uleb128 0xe
	.string	"__p"
	.byte	0x2
	.value	0x18a
	.byte	0x1d
	.long	0x5bb0
	.uleb128 0xe
	.string	"__n"
	.byte	0x2
	.value	0x18a
	.byte	0x29
	.long	0x2bc
	.byte	0
	.uleb128 0xb
	.long	0x5e65
	.long	0xb73f
	.byte	0x3
	.long	0xb756
	.uleb128 0x9
	.long	.LASF1334
	.long	0xa872
	.uleb128 0xe
	.string	"__n"
	.byte	0x2
	.value	0x195
	.byte	0x20
	.long	0x2bc
	.byte	0
	.uleb128 0xb
	.long	0x5bed
	.long	0xb764
	.byte	0x2
	.long	0xb77a
	.uleb128 0x9
	.long	.LASF1334
	.long	0xa854
	.uleb128 0x27
	.string	"__a"
	.byte	0x2
	.byte	0x98
	.byte	0x25
	.long	0xa859
	.byte	0
	.uleb128 0x1a
	.long	0xb756
	.long	.LASF1353
	.long	0xb78b
	.long	0xb796
	.uleb128 0x3
	.long	0xb764
	.uleb128 0x3
	.long	0xb76d
	.byte	0
	.uleb128 0xb
	.long	0x599e
	.long	0xb7a4
	.byte	0x2
	.long	0xb7ba
	.uleb128 0x9
	.long	.LASF1334
	.long	0xa813
	.uleb128 0x27
	.string	"__a"
	.byte	0x5
	.byte	0xac
	.byte	0x22
	.long	0xa818
	.byte	0
	.uleb128 0x1a
	.long	0xb796
	.long	.LASF1354
	.long	0xb7cb
	.long	0xb7d6
	.uleb128 0x3
	.long	0xb7a4
	.uleb128 0x3
	.long	0xb7ad
	.byte	0
	.uleb128 0x14
	.long	0x6989
	.byte	0x3
	.long	0xb808
	.uleb128 0xe
	.string	"__a"
	.byte	0x2
	.value	0x8a4
	.byte	0x29
	.long	0xa8c2
	.uleb128 0x26
	.long	.LASF1342
	.byte	0x2
	.value	0x8a9
	.byte	0xf
	.long	0x2c9
	.uleb128 0x26
	.long	.LASF1343
	.byte	0x2
	.value	0x8ab
	.byte	0xf
	.long	0x2c9
	.byte	0
	.uleb128 0x14
	.long	0x71de
	.byte	0x3
	.long	0xb834
	.uleb128 0xa
	.long	.LASF60
	.long	0xa6dd
	.uleb128 0x42
	.long	.LASF1332
	.byte	0xb
	.byte	0xdb
	.byte	0x1f
	.long	0xa6dd
	.uleb128 0x42
	.long	.LASF1333
	.byte	0xb
	.byte	0xdb
	.byte	0x39
	.long	0xa6dd
	.byte	0
	.uleb128 0x14
	.long	0x7202
	.byte	0x3
	.long	0xb88f
	.uleb128 0xa
	.long	.LASF60
	.long	0xa6dd
	.uleb128 0xa
	.long	.LASF61
	.long	0x37
	.uleb128 0xf
	.string	"_Tp"
	.long	0x4f
	.uleb128 0xa
	.long	.LASF803
	.long	0x4f
	.uleb128 0x12
	.long	.LASF1332
	.byte	0xc
	.value	0x303
	.byte	0x2f
	.long	0xa6dd
	.uleb128 0xe
	.string	"__n"
	.byte	0xc
	.value	0x303
	.byte	0x3e
	.long	0x37
	.uleb128 0xe
	.string	"__x"
	.byte	0xc
	.value	0x304
	.byte	0x14
	.long	0xa6f6
	.uleb128 0x1
	.long	0xa70a
	.byte	0
	.uleb128 0xb
	.long	0x4a5a
	.long	0xb89d
	.byte	0x3
	.long	0xb8c1
	.uleb128 0x9
	.long	.LASF1334
	.long	0xa75f
	.uleb128 0xe
	.string	"__p"
	.byte	0x2
	.value	0x18a
	.byte	0x1d
	.long	0x47c8
	.uleb128 0xe
	.string	"__n"
	.byte	0x2
	.value	0x18a
	.byte	0x29
	.long	0x2bc
	.byte	0
	.uleb128 0xb
	.long	0x4a7d
	.long	0xb8cf
	.byte	0x3
	.long	0xb8e6
	.uleb128 0x9
	.long	.LASF1334
	.long	0xa75f
	.uleb128 0xe
	.string	"__n"
	.byte	0x2
	.value	0x195
	.byte	0x20
	.long	0x2bc
	.byte	0
	.uleb128 0xb
	.long	0x4805
	.long	0xb8f4
	.byte	0x2
	.long	0xb90a
	.uleb128 0x9
	.long	.LASF1334
	.long	0xa741
	.uleb128 0x27
	.string	"__a"
	.byte	0x2
	.byte	0x98
	.byte	0x25
	.long	0xa746
	.byte	0
	.uleb128 0x1a
	.long	0xb8e6
	.long	.LASF1355
	.long	0xb91b
	.long	0xb926
	.uleb128 0x3
	.long	0xb8f4
	.uleb128 0x3
	.long	0xb8fd
	.byte	0
	.uleb128 0xb
	.long	0x45b6
	.long	0xb934
	.byte	0x2
	.long	0xb94a
	.uleb128 0x9
	.long	.LASF1334
	.long	0xa700
	.uleb128 0x27
	.string	"__a"
	.byte	0x5
	.byte	0xac
	.byte	0x22
	.long	0xa705
	.byte	0
	.uleb128 0x1a
	.long	0xb926
	.long	.LASF1356
	.long	0xb95b
	.long	0xb966
	.uleb128 0x3
	.long	0xb934
	.uleb128 0x3
	.long	0xb93d
	.byte	0
	.uleb128 0x14
	.long	0x55a1
	.byte	0x3
	.long	0xb998
	.uleb128 0xe
	.string	"__a"
	.byte	0x2
	.value	0x8a4
	.byte	0x29
	.long	0xa7aa
	.uleb128 0x26
	.long	.LASF1342
	.byte	0x2
	.value	0x8a9
	.byte	0xf
	.long	0x2c9
	.uleb128 0x26
	.long	.LASF1343
	.byte	0x2
	.value	0x8ab
	.byte	0xf
	.long	0x2c9
	.byte	0
	.uleb128 0x14
	.long	0x7250
	.byte	0x3
	.long	0xb9b8
	.uleb128 0xf
	.string	"_Tp"
	.long	0xa446
	.uleb128 0x42
	.long	.LASF1357
	.byte	0x27
	.byte	0xcf
	.byte	0x17
	.long	0xa5ca
	.byte	0
	.uleb128 0xb
	.long	0x42f7
	.long	0xb9c6
	.byte	0x2
	.long	0xb9d0
	.uleb128 0x9
	.long	.LASF1334
	.long	0xa92b
	.byte	0
	.uleb128 0x3d
	.long	0xb9b8
	.long	0xb9dd
	.long	0xb9e3
	.uleb128 0x3
	.long	0xb9c6
	.byte	0
	.uleb128 0xb
	.long	0x42d2
	.long	0xb9f1
	.byte	0x2
	.long	0xba22
	.uleb128 0x9
	.long	.LASF1334
	.long	0xa92b
	.uleb128 0xe
	.string	"__s"
	.byte	0x2
	.value	0x749
	.byte	0x17
	.long	0x38af
	.uleb128 0xe
	.string	"__l"
	.byte	0x2
	.value	0x749
	.byte	0x26
	.long	0x3957
	.uleb128 0x12
	.long	.LASF1358
	.byte	0x2
	.value	0x749
	.byte	0x32
	.long	0xa921
	.byte	0
	.uleb128 0x3d
	.long	0xb9e3
	.long	0xba2f
	.long	0xba44
	.uleb128 0x3
	.long	0xb9f1
	.uleb128 0x3
	.long	0xb9fa
	.uleb128 0x3
	.long	0xba07
	.uleb128 0x3
	.long	0xba14
	.byte	0
	.uleb128 0xb
	.long	0x4197
	.long	0xba52
	.byte	0x3
	.long	0xba83
	.uleb128 0x9
	.long	.LASF1334
	.long	0xa69c
	.uleb128 0xe
	.string	"__n"
	.byte	0x2
	.value	0x890
	.byte	0x1e
	.long	0x3957
	.uleb128 0xe
	.string	"__s"
	.byte	0x2
	.value	0x890
	.byte	0x2f
	.long	0x788b
	.uleb128 0x26
	.long	.LASF1338
	.byte	0x2
	.value	0x895
	.byte	0x12
	.long	0x3964
	.byte	0
	.uleb128 0xb
	.long	0x32e7
	.long	0xbaa9
	.byte	0x3
	.long	0xbace
	.uleb128 0xf
	.string	"_Up"
	.long	0xa446
	.uleb128 0x55
	.long	.LASF432
	.long	0xbaa9
	.uleb128 0x56
	.long	0xa5e8
	.byte	0
	.uleb128 0x9
	.long	.LASF1334
	.long	0xa5bb
	.uleb128 0x27
	.string	"__p"
	.byte	0x6
	.byte	0xc9
	.byte	0x11
	.long	0xa5ca
	.uleb128 0x9a
	.long	.LASF1359
	.byte	0x6
	.byte	0xc9
	.byte	0x1d
	.uleb128 0x1
	.long	0xa5e8
	.byte	0
	.byte	0
	.uleb128 0x14
	.long	0x727c
	.byte	0x3
	.long	0xbb2c
	.uleb128 0xf
	.string	"_Tp"
	.long	0xa446
	.uleb128 0xf
	.string	"_Up"
	.long	0xa446
	.uleb128 0x12
	.long	.LASF1332
	.byte	0xc
	.value	0x561
	.byte	0x19
	.long	0xa5ca
	.uleb128 0x12
	.long	.LASF1333
	.byte	0xc
	.value	0x561
	.byte	0x27
	.long	0xa5ca
	.uleb128 0x12
	.long	.LASF1360
	.byte	0xc
	.value	0x562
	.byte	0xb
	.long	0xa5ca
	.uleb128 0x12
	.long	.LASF1361
	.byte	0xc
	.value	0x563
	.byte	0x2b
	.long	0xa5fc
	.uleb128 0x26
	.long	.LASF849
	.byte	0xc
	.value	0x565
	.byte	0x11
	.long	0x62f
	.byte	0
	.uleb128 0x14
	.long	0x72b4
	.byte	0x3
	.long	0xbb4d
	.uleb128 0xa
	.long	.LASF448
	.long	0xa5ca
	.uleb128 0x12
	.long	.LASF1340
	.byte	0x3
	.value	0xbce
	.byte	0x1c
	.long	0xa5ca
	.byte	0
	.uleb128 0x14
	.long	0x33c6
	.byte	0x3
	.long	0xbb72
	.uleb128 0xe
	.string	"__a"
	.byte	0x8
	.value	0x27d
	.byte	0x20
	.long	0xa601
	.uleb128 0xe
	.string	"__n"
	.byte	0x8
	.value	0x27d
	.byte	0x2f
	.long	0x33f4
	.byte	0
	.uleb128 0xb
	.long	0x3648
	.long	0xbb80
	.byte	0x3
	.long	0xbb8a
	.uleb128 0x9
	.long	.LASF1334
	.long	0xa65b
	.byte	0
	.uleb128 0x14
	.long	0x41d8
	.byte	0x3
	.long	0xbbbc
	.uleb128 0xe
	.string	"__a"
	.byte	0x2
	.value	0x8a4
	.byte	0x29
	.long	0xa6a6
	.uleb128 0x26
	.long	.LASF1342
	.byte	0x2
	.value	0x8a9
	.byte	0xf
	.long	0x2c9
	.uleb128 0x26
	.long	.LASF1343
	.byte	0x2
	.value	0x8ab
	.byte	0xf
	.long	0x2c9
	.byte	0
	.uleb128 0x14
	.long	0x72d4
	.byte	0x3
	.long	0xbbe8
	.uleb128 0xa
	.long	.LASF60
	.long	0xa5ca
	.uleb128 0x42
	.long	.LASF1332
	.byte	0xb
	.byte	0xdb
	.byte	0x1f
	.long	0xa5ca
	.uleb128 0x42
	.long	.LASF1333
	.byte	0xb
	.byte	0xdb
	.byte	0x39
	.long	0xa5ca
	.byte	0
	.uleb128 0x14
	.long	0x342f
	.byte	0x3
	.long	0xbc1a
	.uleb128 0xe
	.string	"__a"
	.byte	0x8
	.value	0x2b0
	.byte	0x22
	.long	0xa601
	.uleb128 0xe
	.string	"__p"
	.byte	0x8
	.value	0x2b0
	.byte	0x2f
	.long	0x33b9
	.uleb128 0xe
	.string	"__n"
	.byte	0x8
	.value	0x2b0
	.byte	0x3e
	.long	0x33f4
	.byte	0
	.uleb128 0xb
	.long	0x3189
	.long	0xbc28
	.byte	0x2
	.long	0xbc32
	.uleb128 0x9
	.long	.LASF1334
	.long	0xa5bb
	.byte	0
	.uleb128 0x3d
	.long	0xbc1a
	.long	0xbc3f
	.long	0xbc45
	.uleb128 0x3
	.long	0xbc28
	.byte	0
	.uleb128 0x14
	.long	0x72f5
	.byte	0x3
	.long	0xbc92
	.uleb128 0xf
	.string	"_OI"
	.long	0x9ff6
	.uleb128 0xa
	.long	.LASF61
	.long	0x37
	.uleb128 0xf
	.string	"_Tp"
	.long	0x92d5
	.uleb128 0x12
	.long	.LASF1332
	.byte	0xa
	.value	0x49b
	.byte	0x10
	.long	0x9ff6
	.uleb128 0xe
	.string	"__n"
	.byte	0xa
	.value	0x49b
	.byte	0x1f
	.long	0x37
	.uleb128 0x12
	.long	.LASF850
	.byte	0xa
	.value	0x49b
	.byte	0x2f
	.long	0xa014
	.byte	0
	.uleb128 0xb
	.long	0x1cdf
	.long	0xbca0
	.byte	0x3
	.long	0xbcc6
	.uleb128 0x9
	.long	.LASF1334
	.long	0xa09b
	.uleb128 0x12
	.long	.LASF1221
	.byte	0x2
	.value	0x8b5
	.byte	0x1f
	.long	0x1285
	.uleb128 0x43
	.uleb128 0x5b
	.string	"__n"
	.byte	0x2
	.value	0x8b7
	.byte	0x10
	.long	0x133c
	.byte	0
	.byte	0
	.uleb128 0x14
	.long	0x7335
	.byte	0x3
	.long	0xbd21
	.uleb128 0xa
	.long	.LASF60
	.long	0x9ff6
	.uleb128 0xa
	.long	.LASF61
	.long	0x37
	.uleb128 0xf
	.string	"_Tp"
	.long	0x92d5
	.uleb128 0xa
	.long	.LASF803
	.long	0x92d5
	.uleb128 0x12
	.long	.LASF1332
	.byte	0xc
	.value	0x303
	.byte	0x2f
	.long	0x9ff6
	.uleb128 0xe
	.string	"__n"
	.byte	0xc
	.value	0x303
	.byte	0x3e
	.long	0x37
	.uleb128 0xe
	.string	"__x"
	.byte	0xc
	.value	0x304
	.byte	0x14
	.long	0xa014
	.uleb128 0x1
	.long	0xa028
	.byte	0
	.uleb128 0x14
	.long	0x7383
	.byte	0x3
	.long	0xbd65
	.uleb128 0xa
	.long	.LASF60
	.long	0x828e
	.uleb128 0xf
	.string	"_Tp"
	.long	0x92d5
	.uleb128 0x12
	.long	.LASF1332
	.byte	0xa
	.value	0x3e9
	.byte	0x1b
	.long	0x828e
	.uleb128 0x12
	.long	.LASF1333
	.byte	0xa
	.value	0x3e9
	.byte	0x35
	.long	0x828e
	.uleb128 0x12
	.long	.LASF850
	.byte	0xa
	.value	0x3e9
	.byte	0x48
	.long	0xa014
	.byte	0
	.uleb128 0xb
	.long	0x15b7
	.long	0xbd73
	.byte	0x3
	.long	0xbd7d
	.uleb128 0x9
	.long	.LASF1334
	.long	0xa09b
	.byte	0
	.uleb128 0xb
	.long	0x156a
	.long	0xbd8b
	.byte	0x3
	.long	0xbd95
	.uleb128 0x9
	.long	.LASF1334
	.long	0xa09b
	.byte	0
	.uleb128 0xb
	.long	0xec9
	.long	0xbda3
	.byte	0x3
	.long	0xbdc5
	.uleb128 0x9
	.long	.LASF1334
	.long	0xa046
	.uleb128 0x27
	.string	"__x"
	.byte	0x2
	.byte	0x80
	.byte	0x22
	.long	0xa055
	.uleb128 0x2b
	.long	.LASF1362
	.byte	0x2
	.byte	0x84
	.byte	0x16
	.long	0xe3d
	.byte	0
	.uleb128 0xb
	.long	0x134e
	.long	0xbdd3
	.byte	0x2
	.long	0xbe04
	.uleb128 0x9
	.long	.LASF1334
	.long	0xa09b
	.uleb128 0xe
	.string	"__n"
	.byte	0x2
	.value	0x24d
	.byte	0x18
	.long	0x133c
	.uleb128 0x12
	.long	.LASF850
	.byte	0x2
	.value	0x24d
	.byte	0x2f
	.long	0xa0a5
	.uleb128 0xe
	.string	"__a"
	.byte	0x2
	.value	0x24e
	.byte	0x1d
	.long	0xa0a0
	.byte	0
	.uleb128 0x1a
	.long	0xbdc5
	.long	.LASF1363
	.long	0xbe15
	.long	0xbe2a
	.uleb128 0x3
	.long	0xbdd3
	.uleb128 0x3
	.long	0xbddc
	.uleb128 0x3
	.long	0xbde9
	.uleb128 0x3
	.long	0xbdf6
	.byte	0
	.uleb128 0xb
	.long	0x17ae
	.long	0xbe38
	.byte	0x3
	.long	0xbe4f
	.uleb128 0x9
	.long	.LASF1334
	.long	0xa0c3
	.uleb128 0x26
	.long	.LASF1364
	.byte	0x2
	.value	0x4b0
	.byte	0xc
	.long	0x62f
	.byte	0
	.uleb128 0x14
	.long	0x73b6
	.byte	0x3
	.long	0xbe7b
	.uleb128 0xa
	.long	.LASF60
	.long	0x9ff6
	.uleb128 0x42
	.long	.LASF1332
	.byte	0xb
	.byte	0xdb
	.byte	0x1f
	.long	0x9ff6
	.uleb128 0x42
	.long	.LASF1333
	.byte	0xb
	.byte	0xdb
	.byte	0x39
	.long	0x9ff6
	.byte	0
	.uleb128 0x14
	.long	0xdbe
	.byte	0x3
	.long	0xbead
	.uleb128 0xe
	.string	"__a"
	.byte	0x8
	.value	0x2b0
	.byte	0x22
	.long	0xa02d
	.uleb128 0xe
	.string	"__p"
	.byte	0x8
	.value	0x2b0
	.byte	0x2f
	.long	0xd40
	.uleb128 0xe
	.string	"__n"
	.byte	0x8
	.value	0x2b0
	.byte	0x3e
	.long	0xd7f
	.byte	0
	.uleb128 0xb
	.long	0xb12
	.long	0xbebb
	.byte	0x2
	.long	0xbec5
	.uleb128 0x9
	.long	.LASF1334
	.long	0x9fe7
	.byte	0
	.uleb128 0x1a
	.long	0xbead
	.long	.LASF1365
	.long	0xbed6
	.long	0xbedc
	.uleb128 0x3
	.long	0xbebb
	.byte	0
	.uleb128 0x14
	.long	0x73da
	.byte	0x3
	.long	0xbf08
	.uleb128 0xf
	.string	"_Tp"
	.long	0x37
	.uleb128 0x27
	.string	"__a"
	.byte	0xa
	.byte	0xe8
	.byte	0x14
	.long	0xb2ff
	.uleb128 0x27
	.string	"__b"
	.byte	0xa
	.byte	0xe8
	.byte	0x24
	.long	0xb2ff
	.byte	0
	.uleb128 0xb
	.long	0xcd6
	.long	0xbf16
	.byte	0x2
	.long	0xbf2c
	.uleb128 0x9
	.long	.LASF1334
	.long	0xa01e
	.uleb128 0x27
	.string	"__a"
	.byte	0x5
	.byte	0xac
	.byte	0x22
	.long	0xa023
	.byte	0
	.uleb128 0x1a
	.long	0xbf08
	.long	.LASF1366
	.long	0xbf3d
	.long	0xbf48
	.uleb128 0x3
	.long	0xbf16
	.uleb128 0x3
	.long	0xbf1f
	.byte	0
	.uleb128 0xb
	.long	0x6a56
	.long	0xbf5f
	.byte	0x3
	.long	0xbf76
	.uleb128 0xf
	.string	"_Up"
	.long	0x30
	.uleb128 0x9
	.long	.LASF1334
	.long	0xa8b8
	.uleb128 0x12
	.long	.LASF1357
	.byte	0x2
	.value	0x8ee
	.byte	0x13
	.long	0xa7eb
	.byte	0
	.uleb128 0x14
	.long	0x7402
	.byte	0x3
	.long	0xbfba
	.uleb128 0xa
	.long	.LASF757
	.long	0x8f58
	.uleb128 0xf
	.string	"_Tp"
	.long	0x30
	.uleb128 0x12
	.long	.LASF1332
	.byte	0xa
	.value	0x3d0
	.byte	0x14
	.long	0x8f58
	.uleb128 0x12
	.long	.LASF1333
	.byte	0xa
	.value	0x3d0
	.byte	0x23
	.long	0x8f58
	.uleb128 0x12
	.long	.LASF850
	.byte	0xa
	.value	0x3d0
	.byte	0x36
	.long	0xa809
	.byte	0
	.uleb128 0xb
	.long	0x8f8a
	.long	0xbfc8
	.byte	0x2
	.long	0xbfdf
	.uleb128 0x9
	.long	.LASF1334
	.long	0xa8d6
	.uleb128 0xe
	.string	"__i"
	.byte	0x3
	.value	0x422
	.byte	0x2a
	.long	0xa8db
	.byte	0
	.uleb128 0x1a
	.long	0xbfba
	.long	.LASF1367
	.long	0xbff0
	.long	0xbffb
	.uleb128 0x3
	.long	0xbfc8
	.uleb128 0x3
	.long	0xbfd1
	.byte	0
	.uleb128 0x14
	.long	0x7435
	.byte	0x3
	.long	0xc037
	.uleb128 0xa
	.long	.LASF60
	.long	0xa7eb
	.uleb128 0xf
	.string	"_Tp"
	.long	0x30
	.uleb128 0x12
	.long	.LASF1332
	.byte	0x8
	.value	0x43a
	.byte	0x1f
	.long	0xa7eb
	.uleb128 0x12
	.long	.LASF1333
	.byte	0x8
	.value	0x43a
	.byte	0x39
	.long	0xa7eb
	.uleb128 0x1
	.long	0xa81d
	.byte	0
	.uleb128 0xb
	.long	0x5c93
	.long	0xc045
	.byte	0x3
	.long	0xc04f
	.uleb128 0x9
	.long	.LASF1334
	.long	0xa872
	.byte	0
	.uleb128 0xb
	.long	0x6814
	.long	0xc05d
	.byte	0x3
	.long	0xc074
	.uleb128 0x9
	.long	.LASF1334
	.long	0xa890
	.uleb128 0xe
	.string	"__n"
	.byte	0x2
	.value	0x7ce
	.byte	0x27
	.long	0x6004
	.byte	0
	.uleb128 0xb
	.long	0x5df9
	.long	0xc082
	.byte	0x2
	.long	0xc09b
	.uleb128 0x9
	.long	.LASF1334
	.long	0xa872
	.uleb128 0x43
	.uleb128 0x5b
	.string	"__n"
	.byte	0x2
	.value	0x177
	.byte	0xc
	.long	0x62f
	.byte	0
	.byte	0
	.uleb128 0x1a
	.long	0xc074
	.long	.LASF1368
	.long	0xc0ac
	.long	0xc0bd
	.uleb128 0x3
	.long	0xc082
	.uleb128 0x75
	.long	0xc08b
	.uleb128 0x3b
	.long	0xc08c
	.byte	0
	.byte	0
	.uleb128 0xb
	.long	0x5d54
	.long	0xc0cb
	.byte	0x2
	.long	0xc0ef
	.uleb128 0x9
	.long	.LASF1334
	.long	0xa872
	.uleb128 0xe
	.string	"__n"
	.byte	0x2
	.value	0x153
	.byte	0x1b
	.long	0x2bc
	.uleb128 0xe
	.string	"__a"
	.byte	0x2
	.value	0x153
	.byte	0x36
	.long	0xa87c
	.byte	0
	.uleb128 0x1a
	.long	0xc0bd
	.long	.LASF1369
	.long	0xc100
	.long	0xc110
	.uleb128 0x3
	.long	0xc0cb
	.uleb128 0x3
	.long	0xc0d4
	.uleb128 0x3
	.long	0xc0e1
	.byte	0
	.uleb128 0x62
	.long	0x5c6e
	.byte	0x2
	.byte	0x8b
	.byte	0xe
	.long	0xc120
	.long	0xc12a
	.uleb128 0x9
	.long	.LASF1334
	.long	0xa854
	.byte	0
	.uleb128 0x1a
	.long	0xc110
	.long	.LASF1370
	.long	0xc13b
	.long	0xc141
	.uleb128 0x3
	.long	0xc120
	.byte	0
	.uleb128 0x14
	.long	0x696b
	.byte	0x3
	.long	0xc166
	.uleb128 0xe
	.string	"__n"
	.byte	0x2
	.value	0x89b
	.byte	0x23
	.long	0x6004
	.uleb128 0xe
	.string	"__a"
	.byte	0x2
	.value	0x89b
	.byte	0x3e
	.long	0xa895
	.byte	0
	.uleb128 0xb
	.long	0x5838
	.long	0xc174
	.byte	0x2
	.long	0xc17e
	.uleb128 0x9
	.long	.LASF1334
	.long	0xa7dc
	.byte	0
	.uleb128 0x1a
	.long	0xc166
	.long	.LASF1371
	.long	0xc18f
	.long	0xc195
	.uleb128 0x3
	.long	0xc174
	.byte	0
	.uleb128 0xb
	.long	0x57da
	.long	0xc1a3
	.byte	0x2
	.long	0xc1ad
	.uleb128 0x9
	.long	.LASF1334
	.long	0xa7dc
	.byte	0
	.uleb128 0x1a
	.long	0xc195
	.long	.LASF1372
	.long	0xc1be
	.long	0xc1c4
	.uleb128 0x3
	.long	0xc1a3
	.byte	0
	.uleb128 0xb
	.long	0x8b5e
	.long	0xc1d2
	.byte	0x2
	.long	0xc1e9
	.uleb128 0x9
	.long	.LASF1334
	.long	0xa7be
	.uleb128 0xe
	.string	"__i"
	.byte	0x3
	.value	0x422
	.byte	0x2a
	.long	0xa7c3
	.byte	0
	.uleb128 0x3d
	.long	0xc1c4
	.long	0xc1f6
	.long	0xc201
	.uleb128 0x3
	.long	0xc1d2
	.uleb128 0x3
	.long	0xc1db
	.byte	0
	.uleb128 0x14
	.long	0x7468
	.byte	0x3
	.long	0xc23d
	.uleb128 0xa
	.long	.LASF60
	.long	0xa6dd
	.uleb128 0xf
	.string	"_Tp"
	.long	0x4f
	.uleb128 0x12
	.long	.LASF1332
	.byte	0x8
	.value	0x43a
	.byte	0x1f
	.long	0xa6dd
	.uleb128 0x12
	.long	.LASF1333
	.byte	0x8
	.value	0x43a
	.byte	0x39
	.long	0xa6dd
	.uleb128 0x1
	.long	0xa70a
	.byte	0
	.uleb128 0xb
	.long	0x48ab
	.long	0xc24b
	.byte	0x3
	.long	0xc255
	.uleb128 0x9
	.long	.LASF1334
	.long	0xa75f
	.byte	0
	.uleb128 0xb
	.long	0x5406
	.long	0xc263
	.byte	0x3
	.long	0xc287
	.uleb128 0x9
	.long	.LASF1334
	.long	0xa77d
	.uleb128 0xe
	.string	"__n"
	.byte	0x2
	.value	0x7c3
	.byte	0x24
	.long	0x4c1c
	.uleb128 0x12
	.long	.LASF850
	.byte	0x2
	.value	0x7c3
	.byte	0x3b
	.long	0xa787
	.byte	0
	.uleb128 0xb
	.long	0x4a11
	.long	0xc295
	.byte	0x2
	.long	0xc2ae
	.uleb128 0x9
	.long	.LASF1334
	.long	0xa75f
	.uleb128 0x43
	.uleb128 0x5b
	.string	"__n"
	.byte	0x2
	.value	0x177
	.byte	0xc
	.long	0x62f
	.byte	0
	.byte	0
	.uleb128 0x1a
	.long	0xc287
	.long	.LASF1373
	.long	0xc2bf
	.long	0xc2d0
	.uleb128 0x3
	.long	0xc295
	.uleb128 0x75
	.long	0xc29e
	.uleb128 0x3b
	.long	0xc29f
	.byte	0
	.byte	0
	.uleb128 0xb
	.long	0x496c
	.long	0xc2de
	.byte	0x2
	.long	0xc302
	.uleb128 0x9
	.long	.LASF1334
	.long	0xa75f
	.uleb128 0xe
	.string	"__n"
	.byte	0x2
	.value	0x153
	.byte	0x1b
	.long	0x2bc
	.uleb128 0xe
	.string	"__a"
	.byte	0x2
	.value	0x153
	.byte	0x36
	.long	0xa769
	.byte	0
	.uleb128 0x1a
	.long	0xc2d0
	.long	.LASF1374
	.long	0xc313
	.long	0xc323
	.uleb128 0x3
	.long	0xc2de
	.uleb128 0x3
	.long	0xc2e7
	.uleb128 0x3
	.long	0xc2f4
	.byte	0
	.uleb128 0x62
	.long	0x4886
	.byte	0x2
	.byte	0x8b
	.byte	0xe
	.long	0xc333
	.long	0xc33d
	.uleb128 0x9
	.long	.LASF1334
	.long	0xa741
	.byte	0
	.uleb128 0x1a
	.long	0xc323
	.long	.LASF1375
	.long	0xc34e
	.long	0xc354
	.uleb128 0x3
	.long	0xc333
	.byte	0
	.uleb128 0x14
	.long	0x5583
	.byte	0x3
	.long	0xc379
	.uleb128 0xe
	.string	"__n"
	.byte	0x2
	.value	0x89b
	.byte	0x23
	.long	0x4c1c
	.uleb128 0xe
	.string	"__a"
	.byte	0x2
	.value	0x89b
	.byte	0x3e
	.long	0xa782
	.byte	0
	.uleb128 0xb
	.long	0x4450
	.long	0xc387
	.byte	0x2
	.long	0xc391
	.uleb128 0x9
	.long	.LASF1334
	.long	0xa6ce
	.byte	0
	.uleb128 0x1a
	.long	0xc379
	.long	.LASF1376
	.long	0xc3a2
	.long	0xc3a8
	.uleb128 0x3
	.long	0xc387
	.byte	0
	.uleb128 0xb
	.long	0x43f2
	.long	0xc3b6
	.byte	0x2
	.long	0xc3c0
	.uleb128 0x9
	.long	.LASF1334
	.long	0xa6ce
	.byte	0
	.uleb128 0x1a
	.long	0xc3a8
	.long	.LASF1377
	.long	0xc3d1
	.long	0xc3d7
	.uleb128 0x3
	.long	0xc3b6
	.byte	0
	.uleb128 0xb
	.long	0x4347
	.long	0xc3f4
	.byte	0x1
	.long	0xc46f
	.uleb128 0x55
	.long	.LASF432
	.long	0xc3f4
	.uleb128 0x56
	.long	0xa5e8
	.byte	0
	.uleb128 0x9
	.long	.LASF1334
	.long	0xa674
	.uleb128 0xce
	.long	.LASF1359
	.byte	0x7
	.value	0x236
	.byte	0x20
	.long	0xc411
	.uleb128 0x1
	.long	0xa5e8
	.byte	0
	.uleb128 0x26
	.long	.LASF1338
	.byte	0x7
	.value	0x23e
	.byte	0x17
	.long	0x3964
	.uleb128 0x26
	.long	.LASF1378
	.byte	0x7
	.value	0x241
	.byte	0xf
	.long	0x38af
	.uleb128 0x26
	.long	.LASF1379
	.byte	0x7
	.value	0x242
	.byte	0xf
	.long	0x38af
	.uleb128 0x26
	.long	.LASF1380
	.byte	0x7
	.value	0x243
	.byte	0x17
	.long	0x3964
	.uleb128 0x26
	.long	.LASF1381
	.byte	0x7
	.value	0x244
	.byte	0xf
	.long	0x38af
	.uleb128 0x26
	.long	.LASF1382
	.byte	0x7
	.value	0x245
	.byte	0xf
	.long	0x38af
	.uleb128 0x43
	.uleb128 0x26
	.long	.LASF1339
	.byte	0x7
	.value	0x248
	.byte	0xf
	.long	0x429d
	.byte	0
	.byte	0
	.uleb128 0x14
	.long	0x3494
	.byte	0x3
	.long	0xc4bc
	.uleb128 0xf
	.string	"_Up"
	.long	0xa446
	.uleb128 0x55
	.long	.LASF432
	.long	0xc491
	.uleb128 0x56
	.long	0xa5e8
	.byte	0
	.uleb128 0xe
	.string	"__a"
	.byte	0x8
	.value	0x2c1
	.byte	0x1c
	.long	0xa601
	.uleb128 0xe
	.string	"__p"
	.byte	0x8
	.value	0x2c2
	.byte	0xa
	.long	0xa5ca
	.uleb128 0xcf
	.long	.LASF1359
	.byte	0x8
	.value	0x2c2
	.byte	0x16
	.uleb128 0x1
	.long	0xa5e8
	.byte	0
	.byte	0
	.uleb128 0xb
	.long	0x1d93
	.long	0xc4d3
	.byte	0x3
	.long	0xc4ea
	.uleb128 0xf
	.string	"_Up"
	.long	0x92d5
	.uleb128 0x9
	.long	.LASF1334
	.long	0xa0c3
	.uleb128 0x12
	.long	.LASF1357
	.byte	0x2
	.value	0x8ee
	.byte	0x13
	.long	0x9ff6
	.byte	0
	.uleb128 0xb
	.long	0x8607
	.long	0xc4f8
	.byte	0x2
	.long	0xc50f
	.uleb128 0x9
	.long	.LASF1334
	.long	0xa6b0
	.uleb128 0xe
	.string	"__i"
	.byte	0x3
	.value	0x422
	.byte	0x2a
	.long	0xa6b5
	.byte	0
	.uleb128 0x1a
	.long	0xc4ea
	.long	.LASF1383
	.long	0xc520
	.long	0xc52b
	.uleb128 0x3
	.long	0xc4f8
	.uleb128 0x3
	.long	0xc501
	.byte	0
	.uleb128 0x14
	.long	0x749b
	.byte	0x3
	.long	0xc585
	.uleb128 0xa
	.long	.LASF826
	.long	0xa5ca
	.uleb128 0xa
	.long	.LASF60
	.long	0xa5ca
	.uleb128 0xa
	.long	.LASF827
	.long	0x332e
	.uleb128 0x12
	.long	.LASF1332
	.byte	0xc
	.value	0x57c
	.byte	0x21
	.long	0xa5ca
	.uleb128 0x12
	.long	.LASF1333
	.byte	0xc
	.value	0x57c
	.byte	0x39
	.long	0xa5ca
	.uleb128 0x12
	.long	.LASF1360
	.byte	0xc
	.value	0x57d
	.byte	0x15
	.long	0xa5ca
	.uleb128 0x12
	.long	.LASF1361
	.byte	0xc
	.value	0x57d
	.byte	0x2b
	.long	0xa5fc
	.byte	0
	.uleb128 0xb
	.long	0x3793
	.long	0xc593
	.byte	0x3
	.long	0xc5aa
	.uleb128 0x9
	.long	.LASF1334
	.long	0xa651
	.uleb128 0xe
	.string	"__n"
	.byte	0x2
	.value	0x182
	.byte	0x1a
	.long	0x2bc
	.byte	0
	.uleb128 0xb
	.long	0x3cc1
	.long	0xc5b8
	.byte	0x3
	.long	0xc5cf
	.uleb128 0x9
	.long	.LASF1334
	.long	0xa69c
	.uleb128 0x26
	.long	.LASF1364
	.byte	0x2
	.value	0x455
	.byte	0xc
	.long	0x62f
	.byte	0
	.uleb128 0xb
	.long	0x3d50
	.long	0xc5dd
	.byte	0x3
	.long	0xc5f4
	.uleb128 0x9
	.long	.LASF1334
	.long	0xa69c
	.uleb128 0x26
	.long	.LASF1364
	.byte	0x2
	.value	0x4b0
	.byte	0xc
	.long	0x62f
	.byte	0
	.uleb128 0xb
	.long	0x3cdd
	.long	0xc602
	.byte	0x3
	.long	0xc60c
	.uleb128 0x9
	.long	.LASF1334
	.long	0xa69c
	.byte	0
	.uleb128 0x14
	.long	0x74dc
	.byte	0x3
	.long	0xc648
	.uleb128 0xa
	.long	.LASF60
	.long	0xa5ca
	.uleb128 0xf
	.string	"_Tp"
	.long	0xa446
	.uleb128 0x12
	.long	.LASF1332
	.byte	0x8
	.value	0x43a
	.byte	0x1f
	.long	0xa5ca
	.uleb128 0x12
	.long	.LASF1333
	.byte	0x8
	.value	0x43a
	.byte	0x39
	.long	0xa5ca
	.uleb128 0x1
	.long	0xa5fc
	.byte	0
	.uleb128 0xb
	.long	0x362e
	.long	0xc656
	.byte	0x3
	.long	0xc660
	.uleb128 0x9
	.long	.LASF1334
	.long	0xa651
	.byte	0
	.uleb128 0xb
	.long	0x37b2
	.long	0xc66e
	.byte	0x3
	.long	0xc692
	.uleb128 0x9
	.long	.LASF1334
	.long	0xa651
	.uleb128 0xe
	.string	"__p"
	.byte	0x2
	.value	0x18a
	.byte	0x1d
	.long	0x356c
	.uleb128 0xe
	.string	"__n"
	.byte	0x2
	.value	0x18a
	.byte	0x29
	.long	0x2bc
	.byte	0
	.uleb128 0xb
	.long	0x31da
	.long	0xc6a0
	.byte	0x2
	.long	0xc6aa
	.uleb128 0x9
	.long	.LASF1334
	.long	0xa5bb
	.byte	0
	.uleb128 0x3d
	.long	0xc692
	.long	0xc6b7
	.long	0xc6bd
	.uleb128 0x3
	.long	0xc6a0
	.byte	0
	.uleb128 0xb
	.long	0x3508
	.long	0xc6cb
	.byte	0x2
	.long	0xc6d5
	.uleb128 0x9
	.long	.LASF1334
	.long	0xa61a
	.byte	0
	.uleb128 0x3d
	.long	0xc6bd
	.long	0xc6e2
	.long	0xc6e8
	.uleb128 0x3
	.long	0xc6cb
	.byte	0
	.uleb128 0xb
	.long	0x3340
	.long	0xc6f6
	.byte	0x2
	.long	0xc700
	.uleb128 0x9
	.long	.LASF1334
	.long	0xa5f2
	.byte	0
	.uleb128 0x3d
	.long	0xc6e8
	.long	0xc70d
	.long	0xc713
	.uleb128 0x3
	.long	0xc6f6
	.byte	0
	.uleb128 0xb
	.long	0x1b72
	.long	0xc721
	.byte	0x1
	.long	0xc775
	.uleb128 0x9
	.long	.LASF1334
	.long	0xa09b
	.uleb128 0xe
	.string	"__n"
	.byte	0x7
	.value	0x113
	.byte	0x1b
	.long	0x2bc
	.uleb128 0x12
	.long	.LASF1337
	.byte	0x7
	.value	0x113
	.byte	0x32
	.long	0xa0a5
	.uleb128 0x26
	.long	.LASF1384
	.byte	0x7
	.value	0x115
	.byte	0x17
	.long	0x1349
	.uleb128 0xd0
	.long	0xc765
	.uleb128 0x26
	.long	.LASF1362
	.byte	0x7
	.value	0x11a
	.byte	0xb
	.long	0x11f9
	.byte	0
	.uleb128 0x43
	.uleb128 0x26
	.long	.LASF1385
	.byte	0x7
	.value	0x120
	.byte	0x14
	.long	0x1349
	.byte	0
	.byte	0
	.uleb128 0x14
	.long	0x750b
	.byte	0x3
	.long	0xc7b1
	.uleb128 0xa
	.long	.LASF60
	.long	0x9ff6
	.uleb128 0xf
	.string	"_Tp"
	.long	0x92d5
	.uleb128 0x12
	.long	.LASF1332
	.byte	0x8
	.value	0x43a
	.byte	0x1f
	.long	0x9ff6
	.uleb128 0x12
	.long	.LASF1333
	.byte	0x8
	.value	0x43a
	.byte	0x39
	.long	0x9ff6
	.uleb128 0x1
	.long	0xa028
	.byte	0
	.uleb128 0xb
	.long	0xfcb
	.long	0xc7bf
	.byte	0x3
	.long	0xc7c9
	.uleb128 0x9
	.long	.LASF1334
	.long	0xa07d
	.byte	0
	.uleb128 0xb
	.long	0x117a
	.long	0xc7d7
	.byte	0x3
	.long	0xc7fb
	.uleb128 0x9
	.long	.LASF1334
	.long	0xa07d
	.uleb128 0xe
	.string	"__p"
	.byte	0x2
	.value	0x18a
	.byte	0x1d
	.long	0xee8
	.uleb128 0xe
	.string	"__n"
	.byte	0x2
	.value	0x18a
	.byte	0x29
	.long	0x2bc
	.byte	0
	.uleb128 0xb
	.long	0xb70
	.long	0xc809
	.byte	0x2
	.long	0xc813
	.uleb128 0x9
	.long	.LASF1334
	.long	0x9fe7
	.byte	0
	.uleb128 0x1a
	.long	0xc7fb
	.long	.LASF1386
	.long	0xc824
	.long	0xc82a
	.uleb128 0x3
	.long	0xc809
	.byte	0
	.uleb128 0xb
	.long	0xe71
	.long	0xc838
	.byte	0x2
	.long	0xc842
	.uleb128 0x9
	.long	.LASF1334
	.long	0xa046
	.byte	0
	.uleb128 0x1a
	.long	0xc82a
	.long	.LASF1387
	.long	0xc853
	.long	0xc859
	.uleb128 0x3
	.long	0xc838
	.byte	0
	.uleb128 0xb
	.long	0xcbb
	.long	0xc867
	.byte	0x2
	.long	0xc871
	.uleb128 0x9
	.long	.LASF1334
	.long	0xa01e
	.byte	0
	.uleb128 0x1a
	.long	0xc859
	.long	.LASF1388
	.long	0xc882
	.long	0xc888
	.uleb128 0x3
	.long	0xc867
	.byte	0
	.uleb128 0xb
	.long	0x170b
	.long	0xc896
	.byte	0x3
	.long	0xc8ad
	.uleb128 0x9
	.long	.LASF1334
	.long	0xa0c3
	.uleb128 0x26
	.long	.LASF1364
	.byte	0x2
	.value	0x455
	.byte	0xc
	.long	0x62f
	.byte	0
	.uleb128 0xb
	.long	0x6618
	.long	0xc8bb
	.byte	0x3
	.long	0xc8c5
	.uleb128 0x9
	.long	.LASF1334
	.long	0xa890
	.byte	0
	.uleb128 0x14
	.long	0x753e
	.byte	0x3
	.long	0xc909
	.uleb128 0xa
	.long	.LASF60
	.long	0x8f58
	.uleb128 0xf
	.string	"_Tp"
	.long	0x30
	.uleb128 0x12
	.long	.LASF1332
	.byte	0xa
	.value	0x3e9
	.byte	0x1b
	.long	0x8f58
	.uleb128 0x12
	.long	.LASF1333
	.byte	0xa
	.value	0x3e9
	.byte	0x35
	.long	0x8f58
	.uleb128 0x12
	.long	.LASF850
	.byte	0xa
	.value	0x3e9
	.byte	0x48
	.long	0xa809
	.byte	0
	.uleb128 0xb
	.long	0x90e4
	.long	0xc917
	.byte	0x3
	.long	0xc92e
	.uleb128 0x9
	.long	.LASF1334
	.long	0xa8e5
	.uleb128 0xe
	.string	"__n"
	.byte	0x3
	.value	0x47b
	.byte	0x21
	.long	0x90b2
	.byte	0
	.uleb128 0xb
	.long	0x622d
	.long	0xc93c
	.byte	0x3
	.long	0xc946
	.uleb128 0x9
	.long	.LASF1334
	.long	0xa890
	.byte	0
	.uleb128 0xb
	.long	0x614f
	.long	0xc954
	.byte	0x2
	.long	0xc95e
	.uleb128 0x9
	.long	.LASF1334
	.long	0xa890
	.byte	0
	.uleb128 0x1a
	.long	0xc946
	.long	.LASF1389
	.long	0xc96f
	.long	0xc975
	.uleb128 0x3
	.long	0xc954
	.byte	0
	.uleb128 0xb
	.long	0x5fe0
	.long	0xc983
	.byte	0x2
	.long	0xc9a7
	.uleb128 0x9
	.long	.LASF1334
	.long	0xa890
	.uleb128 0xe
	.string	"__n"
	.byte	0x2
	.value	0x240
	.byte	0x18
	.long	0x6004
	.uleb128 0xe
	.string	"__a"
	.byte	0x2
	.value	0x240
	.byte	0x33
	.long	0xa895
	.byte	0
	.uleb128 0x1a
	.long	0xc975
	.long	.LASF1390
	.long	0xc9b8
	.long	0xc9c8
	.uleb128 0x3
	.long	0xc983
	.uleb128 0x3
	.long	0xc98c
	.uleb128 0x3
	.long	0xc999
	.byte	0
	.uleb128 0xb
	.long	0x59e1
	.long	0xc9d6
	.byte	0x2
	.long	0xc9e0
	.uleb128 0x9
	.long	.LASF1334
	.long	0xa813
	.byte	0
	.uleb128 0x1a
	.long	0xc9c8
	.long	.LASF1391
	.long	0xc9f1
	.long	0xc9f7
	.uleb128 0x3
	.long	0xc9d6
	.byte	0
	.uleb128 0xb
	.long	0x5983
	.long	0xca05
	.byte	0x2
	.long	0xca0f
	.uleb128 0x9
	.long	.LASF1334
	.long	0xa813
	.byte	0
	.uleb128 0x1a
	.long	0xc9f7
	.long	.LASF1392
	.long	0xca20
	.long	0xca26
	.uleb128 0x3
	.long	0xca05
	.byte	0
	.uleb128 0xb
	.long	0x50f6
	.long	0xca34
	.byte	0x3
	.long	0xca4b
	.uleb128 0x9
	.long	.LASF1334
	.long	0xa77d
	.uleb128 0xe
	.string	"__n"
	.byte	0x2
	.value	0x4e3
	.byte	0x1c
	.long	0x4c1c
	.byte	0
	.uleb128 0xb
	.long	0x3b95
	.long	0xca59
	.byte	0x3
	.long	0xca63
	.uleb128 0x9
	.long	.LASF1334
	.long	0xa674
	.byte	0
	.uleb128 0xb
	.long	0x3b50
	.long	0xca71
	.byte	0x3
	.long	0xca7b
	.uleb128 0x9
	.long	.LASF1334
	.long	0xa674
	.byte	0
	.uleb128 0xb
	.long	0x4d67
	.long	0xca89
	.byte	0x2
	.long	0xca93
	.uleb128 0x9
	.long	.LASF1334
	.long	0xa77d
	.byte	0
	.uleb128 0x1a
	.long	0xca7b
	.long	.LASF1393
	.long	0xcaa4
	.long	0xcaaa
	.uleb128 0x3
	.long	0xca89
	.byte	0
	.uleb128 0xb
	.long	0x4c29
	.long	0xcab8
	.byte	0x2
	.long	0xcae9
	.uleb128 0x9
	.long	.LASF1334
	.long	0xa77d
	.uleb128 0xe
	.string	"__n"
	.byte	0x2
	.value	0x24d
	.byte	0x18
	.long	0x4c1c
	.uleb128 0x12
	.long	.LASF850
	.byte	0x2
	.value	0x24d
	.byte	0x2f
	.long	0xa787
	.uleb128 0xe
	.string	"__a"
	.byte	0x2
	.value	0x24e
	.byte	0x1d
	.long	0xa782
	.byte	0
	.uleb128 0x1a
	.long	0xcaaa
	.long	.LASF1394
	.long	0xcafa
	.long	0xcb0f
	.uleb128 0x3
	.long	0xcab8
	.uleb128 0x3
	.long	0xcac1
	.uleb128 0x3
	.long	0xcace
	.uleb128 0x3
	.long	0xcadb
	.byte	0
	.uleb128 0xb
	.long	0x45f9
	.long	0xcb1d
	.byte	0x2
	.long	0xcb27
	.uleb128 0x9
	.long	.LASF1334
	.long	0xa700
	.byte	0
	.uleb128 0x1a
	.long	0xcb0f
	.long	.LASF1395
	.long	0xcb38
	.long	0xcb3e
	.uleb128 0x3
	.long	0xcb1d
	.byte	0
	.uleb128 0xb
	.long	0x459b
	.long	0xcb4c
	.byte	0x2
	.long	0xcb56
	.uleb128 0x9
	.long	.LASF1334
	.long	0xa700
	.byte	0
	.uleb128 0x1a
	.long	0xcb3e
	.long	.LASF1396
	.long	0xcb67
	.long	0xcb6d
	.uleb128 0x3
	.long	0xcb4c
	.byte	0
	.uleb128 0xb
	.long	0x3efe
	.long	0xcb7b
	.byte	0x3
	.long	0xcb92
	.uleb128 0x9
	.long	.LASF1334
	.long	0xa674
	.uleb128 0xe
	.string	"__x"
	.byte	0x2
	.value	0x57e
	.byte	0x23
	.long	0xa67e
	.byte	0
	.uleb128 0xb
	.long	0x1955
	.long	0xcba0
	.byte	0x3
	.long	0xcbaa
	.uleb128 0x9
	.long	.LASF1334
	.long	0xa09b
	.byte	0
	.uleb128 0xb
	.long	0x2969
	.long	0xcbb8
	.byte	0x3
	.long	0xcbc2
	.uleb128 0x9
	.long	.LASF1334
	.long	0xa57f
	.byte	0
	.uleb128 0xb
	.long	0x291c
	.long	0xcbd0
	.byte	0x3
	.long	0xcbda
	.uleb128 0x9
	.long	.LASF1334
	.long	0xa57f
	.byte	0
	.uleb128 0xb
	.long	0x3d88
	.long	0xcbe8
	.byte	0x1
	.long	0xcc18
	.uleb128 0x9
	.long	.LASF1334
	.long	0xa674
	.uleb128 0x27
	.string	"__n"
	.byte	0x7
	.byte	0x47
	.byte	0x17
	.long	0x3957
	.uleb128 0x43
	.uleb128 0x2b
	.long	.LASF1397
	.byte	0x7
	.byte	0x4d
	.byte	0x14
	.long	0x3964
	.uleb128 0x2b
	.long	.LASF1362
	.byte	0x7
	.byte	0x4e
	.byte	0xc
	.long	0x38af
	.byte	0
	.byte	0
	.uleb128 0xb
	.long	0x2abd
	.long	0xcc26
	.byte	0x3
	.long	0xcc3d
	.uleb128 0x9
	.long	.LASF1334
	.long	0xa5a7
	.uleb128 0x26
	.long	.LASF1364
	.byte	0x2
	.value	0x455
	.byte	0xc
	.long	0x62f
	.byte	0
	.uleb128 0xb
	.long	0x3a8a
	.long	0xcc4b
	.byte	0x2
	.long	0xcc55
	.uleb128 0x9
	.long	.LASF1334
	.long	0xa674
	.byte	0
	.uleb128 0x3d
	.long	0xcc3d
	.long	0xcc62
	.long	0xcc68
	.uleb128 0x3
	.long	0xcc4b
	.byte	0
	.uleb128 0xb
	.long	0x3770
	.long	0xcc76
	.byte	0x2
	.long	0xcc8f
	.uleb128 0x9
	.long	.LASF1334
	.long	0xa651
	.uleb128 0x43
	.uleb128 0x5b
	.string	"__n"
	.byte	0x2
	.value	0x177
	.byte	0xc
	.long	0x62f
	.byte	0
	.byte	0
	.uleb128 0x3d
	.long	0xcc68
	.long	0xcc9c
	.long	0xccad
	.uleb128 0x3
	.long	0xcc76
	.uleb128 0x75
	.long	0xcc7f
	.uleb128 0x3b
	.long	0xcc80
	.byte	0
	.byte	0
	.uleb128 0xb
	.long	0x3391
	.long	0xccbb
	.byte	0x2
	.long	0xccc5
	.uleb128 0x9
	.long	.LASF1334
	.long	0xa5f2
	.byte	0
	.uleb128 0x3d
	.long	0xccad
	.long	0xccd2
	.long	0xccd8
	.uleb128 0x3
	.long	0xccbb
	.byte	0
	.uleb128 0xb
	.long	0x358f
	.long	0xcce6
	.byte	0x2
	.long	0xccf0
	.uleb128 0x9
	.long	.LASF1334
	.long	0xa633
	.byte	0
	.uleb128 0x3d
	.long	0xccd8
	.long	0xccfd
	.long	0xcd03
	.uleb128 0x3
	.long	0xcce6
	.byte	0
	.uleb128 0xb
	.long	0x1516
	.long	0xcd11
	.byte	0x3
	.long	0xcd35
	.uleb128 0x9
	.long	.LASF1334
	.long	0xa09b
	.uleb128 0xe
	.string	"__n"
	.byte	0x2
	.value	0x361
	.byte	0x18
	.long	0x133c
	.uleb128 0x12
	.long	.LASF1337
	.byte	0x2
	.value	0x361
	.byte	0x2f
	.long	0xa0a5
	.byte	0
	.uleb128 0xb
	.long	0x148c
	.long	0xcd43
	.byte	0x2
	.long	0xcd4d
	.uleb128 0x9
	.long	.LASF1334
	.long	0xa09b
	.byte	0
	.uleb128 0x1a
	.long	0xcd35
	.long	.LASF1398
	.long	0xcd5e
	.long	0xcd64
	.uleb128 0x3
	.long	0xcd43
	.byte	0
	.uleb128 0xb
	.long	0x1131
	.long	0xcd72
	.byte	0x2
	.long	0xcd8b
	.uleb128 0x9
	.long	.LASF1334
	.long	0xa07d
	.uleb128 0x43
	.uleb128 0x5b
	.string	"__n"
	.byte	0x2
	.value	0x177
	.byte	0xc
	.long	0x62f
	.byte	0
	.byte	0
	.uleb128 0x1a
	.long	0xcd64
	.long	.LASF1399
	.long	0xcd9c
	.long	0xcdad
	.uleb128 0x3
	.long	0xcd72
	.uleb128 0x75
	.long	0xcd7b
	.uleb128 0x3b
	.long	0xcd7c
	.byte	0
	.byte	0
	.uleb128 0xb
	.long	0xd19
	.long	0xcdbb
	.byte	0x2
	.long	0xcdc5
	.uleb128 0x9
	.long	.LASF1334
	.long	0xa01e
	.byte	0
	.uleb128 0x1a
	.long	0xcdad
	.long	.LASF1400
	.long	0xcdd6
	.long	0xcddc
	.uleb128 0x3
	.long	0xcdbb
	.byte	0
	.uleb128 0xb
	.long	0xf0b
	.long	0xcdea
	.byte	0x2
	.long	0xcdf4
	.uleb128 0x9
	.long	.LASF1334
	.long	0xa05f
	.byte	0
	.uleb128 0x1a
	.long	0xcddc
	.long	.LASF1401
	.long	0xce05
	.long	0xce0b
	.uleb128 0x3
	.long	0xcdea
	.byte	0
	.uleb128 0xb
	.long	0x2c87
	.long	0xce19
	.byte	0x3
	.long	0xce23
	.uleb128 0x9
	.long	.LASF1334
	.long	0xa57f
	.byte	0
	.uleb128 0xd1
	.long	.LASF1402
	.byte	0x1
	.byte	0x23
	.byte	0xb
	.long	.LASF1403
	.long	0xa0d2
	.long	.LLRL0
	.uleb128 0x1
	.byte	0x9c
	.long	0x12037
	.uleb128 0x9b
	.long	.LASF1404
	.byte	0x40
	.long	0xa59d
	.long	.LLST1
	.long	.LVUS1
	.uleb128 0x9b
	.long	.LASF1405
	.byte	0x54
	.long	0x30
	.long	.LLST2
	.long	.LVUS2
	.uleb128 0x2b
	.long	.LASF1297
	.byte	0x1
	.byte	0x24
	.byte	0x12
	.long	0x7602
	.uleb128 0x2b
	.long	.LASF1298
	.byte	0x1
	.byte	0x25
	.byte	0x12
	.long	0x7602
	.uleb128 0x5c
	.string	"w"
	.byte	0x26
	.byte	0xf
	.long	0x57
	.uleb128 0x5c
	.string	"h"
	.byte	0x27
	.byte	0xf
	.long	0x57
	.uleb128 0x2f
	.long	.LASF1406
	.byte	0x29
	.byte	0xf
	.long	0xa0d2
	.long	.LLST3
	.long	.LVUS3
	.uleb128 0x2f
	.long	.LASF1407
	.byte	0x2f
	.byte	0x1c
	.long	0x382a
	.long	.LLST4
	.long	.LVUS4
	.uleb128 0x2b
	.long	.LASF1408
	.byte	0x1
	.byte	0x47
	.byte	0x16
	.long	0x4ad9
	.uleb128 0x2b
	.long	.LASF1409
	.byte	0x1
	.byte	0x48
	.byte	0x16
	.long	0x4ad9
	.uleb128 0x2f
	.long	.LASF1410
	.byte	0x5b
	.byte	0xf
	.long	0x57
	.long	.LLST5
	.long	.LVUS5
	.uleb128 0x2f
	.long	.LASF1411
	.byte	0x5c
	.byte	0xf
	.long	0x57
	.long	.LLST6
	.long	.LVUS6
	.uleb128 0x2b
	.long	.LASF1412
	.byte	0x1
	.byte	0x5f
	.byte	0x18
	.long	0x5ec1
	.uleb128 0x4c
	.long	.LLRL112
	.long	0xd700
	.uleb128 0x30
	.string	"sub"
	.byte	0x31
	.byte	0x10
	.long	0xa4fd
	.long	.LLST113
	.long	.LVUS113
	.uleb128 0x9c
	.long	.LASF1413
	.long	0xa59d
	.long	.LLST114
	.long	.LVUS114
	.uleb128 0x5d
	.long	.LASF1414
	.long	0x290f
	.uleb128 0x5d
	.long	.LASF1415
	.long	0x290f
	.uleb128 0x4c
	.long	.LLRL121
	.long	0xd62a
	.uleb128 0x30
	.string	"p"
	.byte	0x32
	.byte	0x13
	.long	0xa446
	.long	.LLST122
	.long	.LVUS122
	.uleb128 0x2f
	.long	.LASF1416
	.byte	0x33
	.byte	0xf
	.long	0x30
	.long	.LLST123
	.long	.LVUS123
	.uleb128 0x2f
	.long	.LASF1417
	.byte	0x34
	.byte	0xf
	.long	0x30
	.long	.LLST124
	.long	.LVUS124
	.uleb128 0x30
	.string	"dx"
	.byte	0x37
	.byte	0xf
	.long	0x30
	.long	.LLST125
	.long	.LVUS125
	.uleb128 0x30
	.string	"dy"
	.byte	0x38
	.byte	0xf
	.long	0x30
	.long	.LLST126
	.long	.LVUS126
	.uleb128 0x1d
	.long	0x1245f
	.quad	.LBI2592
	.value	.LVU91
	.quad	.LBB2592
	.quad	.LBE2592-.LBB2592
	.byte	0x1
	.byte	0x35
	.byte	0x2b
	.long	0xcfd6
	.uleb128 0x4
	.long	0x12469
	.long	.LLST127
	.long	.LVUS127
	.byte	0
	.uleb128 0x1d
	.long	0x1245f
	.quad	.LBI2594
	.value	.LVU97
	.quad	.LBB2594
	.quad	.LBE2594-.LBB2594
	.byte	0x1
	.byte	0x36
	.byte	0x2b
	.long	0xd00a
	.uleb128 0x4
	.long	0x12469
	.long	.LLST128
	.long	.LVUS128
	.byte	0
	.uleb128 0x1d
	.long	0x12093
	.quad	.LBI2596
	.value	.LVU109
	.quad	.LBB2596
	.quad	.LBE2596-.LBB2596
	.byte	0x1
	.byte	0x3d
	.byte	0x1d
	.long	0xd03b
	.uleb128 0x3
	.long	0x120a6
	.uleb128 0x3
	.long	0x120b3
	.byte	0
	.uleb128 0x2a
	.long	0x12067
	.quad	.LBI2597
	.value	.LVU112
	.long	.LLRL129
	.byte	0x1
	.byte	0x3e
	.byte	0x1d
	.long	0xd068
	.uleb128 0x4
	.long	0x1207a
	.long	.LLST130
	.long	.LVUS130
	.uleb128 0x3
	.long	0x12086
	.byte	0
	.uleb128 0x1d
	.long	0x12093
	.quad	.LBI2600
	.value	.LVU118
	.quad	.LBB2600
	.quad	.LBE2600-.LBB2600
	.byte	0x1
	.byte	0x3f
	.byte	0x1d
	.long	0xd099
	.uleb128 0x3
	.long	0x120a6
	.uleb128 0x3
	.long	0x120b3
	.byte	0
	.uleb128 0x2a
	.long	0x12067
	.quad	.LBI2601
	.value	.LVU121
	.long	.LLRL131
	.byte	0x1
	.byte	0x40
	.byte	0x1d
	.long	0xd0c6
	.uleb128 0x4
	.long	0x1207a
	.long	.LLST132
	.long	.LVUS132
	.uleb128 0x3
	.long	0x12086
	.byte	0
	.uleb128 0x2a
	.long	0xcb92
	.quad	.LBI2604
	.value	.LVU127
	.long	.LLRL133
	.byte	0x1
	.byte	0x41
	.byte	0x23
	.long	0xd0ee
	.uleb128 0x4
	.long	0xcba0
	.long	.LLST134
	.long	.LVUS134
	.byte	0
	.uleb128 0x68
	.long	0xcb6d
	.quad	.LBI2608
	.value	.LVU146
	.long	.LLRL135
	.byte	0x1
	.byte	0x43
	.byte	0x19
	.uleb128 0x4
	.long	0xcb7b
	.long	.LLST136
	.long	.LVUS136
	.uleb128 0x4
	.long	0xcb84
	.long	.LLST137
	.long	.LVUS137
	.uleb128 0x3f
	.long	0xc46f
	.quad	.LBI2610
	.value	.LVU148
	.long	.LLRL138
	.byte	0x2
	.value	0x583
	.byte	0x1e
	.long	0xd190
	.uleb128 0x4
	.long	0xc491
	.long	.LLST139
	.long	.LVUS139
	.uleb128 0x3
	.long	0xc49e
	.uleb128 0x4
	.long	0xc4b5
	.long	.LLST140
	.long	.LVUS140
	.uleb128 0x1b
	.long	0xba83
	.quad	.LBI2611
	.value	.LVU149
	.long	.LLRL138
	.byte	0x8
	.value	0x2ca
	.byte	0x11
	.uleb128 0x4
	.long	0xbaa9
	.long	.LLST141
	.long	.LVUS141
	.uleb128 0x3
	.long	0xbab2
	.uleb128 0x4
	.long	0xbac7
	.long	.LLST142
	.long	.LVUS142
	.byte	0
	.byte	0
	.uleb128 0x1b
	.long	0xc3d7
	.quad	.LBI2616
	.value	.LVU1390
	.long	.LLRL143
	.byte	0x2
	.value	0x589
	.byte	0x15
	.uleb128 0x4
	.long	0xc3f4
	.long	.LLST144
	.long	.LVUS144
	.uleb128 0x4
	.long	0xc40b
	.long	.LLST145
	.long	.LVUS145
	.uleb128 0x3b
	.long	0xc411
	.uleb128 0x31
	.long	0xc41e
	.long	.LLST146
	.long	.LVUS146
	.uleb128 0x31
	.long	0xc42b
	.long	.LLST147
	.long	.LVUS147
	.uleb128 0x31
	.long	0xc438
	.long	.LLST148
	.long	.LVUS148
	.uleb128 0x31
	.long	0xc445
	.long	.LLST149
	.long	.LVUS149
	.uleb128 0x31
	.long	0xc452
	.long	.LLST150
	.long	.LVUS150
	.uleb128 0x3f
	.long	0xba44
	.quad	.LBI2618
	.value	.LVU1391
	.long	.LLRL151
	.byte	0x7
	.value	0x23e
	.byte	0x2b
	.long	0xd2db
	.uleb128 0x4
	.long	0xba52
	.long	.LLST152
	.long	.LVUS152
	.uleb128 0x4
	.long	0xba5b
	.long	.LLST153
	.long	.LVUS153
	.uleb128 0x4
	.long	0xba68
	.long	.LLST154
	.long	.LVUS154
	.uleb128 0x3b
	.long	0xba75
	.uleb128 0x69
	.long	0xc5aa
	.quad	.LBI2620
	.value	.LVU1392
	.quad	.LBB2620
	.quad	.LBE2620-.LBB2620
	.value	0x892
	.byte	0x17
	.byte	0x1
	.long	0xd290
	.uleb128 0x4
	.long	0xc5b8
	.long	.LLST155
	.long	.LVUS155
	.uleb128 0x31
	.long	0xc5c1
	.long	.LLST156
	.long	.LVUS156
	.byte	0
	.uleb128 0x5e
	.long	0xb304
	.quad	.LBI2622
	.value	.LVU1401
	.long	.LLRL157
	.byte	0x2
	.value	0x895
	.byte	0x2d
	.byte	0x2
	.long	0xd2bf
	.uleb128 0x3
	.long	0xb317
	.uleb128 0x4
	.long	0xb324
	.long	.LLST158
	.long	.LVUS158
	.byte	0
	.uleb128 0x32
	.quad	.LVL252
	.long	0x6d8b
	.uleb128 0x21
	.uleb128 0x1
	.byte	0x55
	.uleb128 0x9
	.byte	0x3
	.quad	.LC2
	.byte	0
	.byte	0
	.uleb128 0x3f
	.long	0xc585
	.quad	.LBI2626
	.value	.LVU1403
	.long	.LLRL159
	.byte	0x7
	.value	0x244
	.byte	0x2c
	.long	0xd381
	.uleb128 0x4
	.long	0xc593
	.long	.LLST160
	.long	.LVUS160
	.uleb128 0x3
	.long	0xc59c
	.uleb128 0x6a
	.long	0xbb4d
	.quad	.LBI2628
	.value	.LVU1404
	.long	.LLRL161
	.byte	0x2
	.value	0x185
	.byte	0x21
	.byte	0x1
	.uleb128 0x4
	.long	0xbb57
	.long	.LLST162
	.long	.LVUS162
	.uleb128 0x3
	.long	0xbb64
	.uleb128 0x1b
	.long	0xb332
	.quad	.LBI2629
	.value	.LVU1405
	.long	.LLRL163
	.byte	0x8
	.value	0x27e
	.byte	0x1c
	.uleb128 0x4
	.long	0xb355
	.long	.LLST164
	.long	.LVUS164
	.uleb128 0x4
	.long	0xb340
	.long	.LLST165
	.long	.LVUS165
	.uleb128 0x3
	.long	0xb349
	.uleb128 0x32
	.quad	.LVL231
	.long	0xa96f
	.uleb128 0x21
	.uleb128 0x1
	.byte	0x55
	.uleb128 0x4
	.byte	0x77
	.sleb128 200
	.byte	0x6
	.byte	0
	.byte	0
	.byte	0
	.byte	0
	.uleb128 0x76
	.long	0xc45f
	.long	.LLRL166
	.uleb128 0x3b
	.long	0xc460
	.uleb128 0x5e
	.long	0xc46f
	.quad	.LBI2640
	.value	.LVU1415
	.long	.LLRL167
	.byte	0x7
	.value	0x252
	.byte	0x1a
	.byte	0x1
	.long	0xd412
	.uleb128 0x4
	.long	0xc491
	.long	.LLST168
	.long	.LVUS168
	.uleb128 0x4
	.long	0xc49e
	.long	.LLST169
	.long	.LVUS169
	.uleb128 0x4
	.long	0xc4b5
	.long	.LLST170
	.long	.LVUS170
	.uleb128 0x1b
	.long	0xba83
	.quad	.LBI2641
	.value	.LVU1416
	.long	.LLRL167
	.byte	0x8
	.value	0x2ca
	.byte	0x11
	.uleb128 0x4
	.long	0xbaa9
	.long	.LLST171
	.long	.LVUS171
	.uleb128 0x4
	.long	0xbab2
	.long	.LLST172
	.long	.LVUS172
	.uleb128 0x4
	.long	0xbac7
	.long	.LLST173
	.long	.LVUS173
	.byte	0
	.byte	0
	.uleb128 0x2d
	.long	0xb9e3
	.quad	.LBI2648
	.value	.LVU1413
	.quad	.LBB2648
	.quad	.LBE2648-.LBB2648
	.byte	0x7
	.value	0x248
	.byte	0xf
	.long	0xd466
	.uleb128 0x4
	.long	0xb9f1
	.long	.LLST174
	.long	.LVUS174
	.uleb128 0x4
	.long	0xb9fa
	.long	.LLST175
	.long	.LVUS175
	.uleb128 0x3
	.long	0xba07
	.uleb128 0x4
	.long	0xba14
	.long	.LLST176
	.long	.LVUS176
	.byte	0
	.uleb128 0x3f
	.long	0xc52b
	.quad	.LBI2651
	.value	.LVU1420
	.long	.LLRL177
	.byte	0x7
	.value	0x25f
	.byte	0x26
	.long	0xd528
	.uleb128 0x4
	.long	0xc550
	.long	.LLST178
	.long	.LVUS178
	.uleb128 0x3
	.long	0xc55d
	.uleb128 0x4
	.long	0xc56a
	.long	.LLST179
	.long	.LVUS179
	.uleb128 0x4
	.long	0xc577
	.long	.LLST180
	.long	.LVUS180
	.uleb128 0x5e
	.long	0xbace
	.quad	.LBI2652
	.value	.LVU1421
	.long	.LLRL177
	.byte	0xc
	.value	0x582
	.byte	0x21
	.byte	0x3
	.long	0xd503
	.uleb128 0x4
	.long	0xbaea
	.long	.LLST181
	.long	.LVUS181
	.uleb128 0x3
	.long	0xbaf7
	.uleb128 0x4
	.long	0xbb04
	.long	.LLST182
	.long	.LVUS182
	.uleb128 0x4
	.long	0xbb11
	.long	.LLST183
	.long	.LVUS183
	.uleb128 0x31
	.long	0xbb1e
	.long	.LLST184
	.long	.LVUS184
	.byte	0
	.uleb128 0x32
	.quad	.LVL234
	.long	0x124d4
	.uleb128 0x21
	.uleb128 0x1
	.byte	0x55
	.uleb128 0x4
	.byte	0x77
	.sleb128 216
	.byte	0x6
	.uleb128 0x21
	.uleb128 0x1
	.byte	0x54
	.uleb128 0x2
	.byte	0x7c
	.sleb128 0
	.uleb128 0x21
	.uleb128 0x1
	.byte	0x51
	.uleb128 0x4
	.byte	0x77
	.sleb128 232
	.byte	0x6
	.byte	0
	.byte	0
	.uleb128 0x1b
	.long	0xb9b8
	.quad	.LBI2657
	.value	.LVU1429
	.long	.LLRL185
	.byte	0x7
	.value	0x289
	.byte	0x7
	.uleb128 0x4
	.long	0xb9c6
	.long	.LLST186
	.long	.LVUS186
	.uleb128 0x1b
	.long	0xc660
	.quad	.LBI2659
	.value	.LVU1431
	.long	.LLRL187
	.byte	0x2
	.value	0x751
	.byte	0x1b
	.uleb128 0x3
	.long	0xc66e
	.uleb128 0x4
	.long	0xc677
	.long	.LLST188
	.long	.LVUS188
	.uleb128 0x3
	.long	0xc684
	.uleb128 0x1b
	.long	0xc660
	.quad	.LBI2661
	.value	.LVU1432
	.long	.LLRL189
	.byte	0x2
	.value	0x18a
	.byte	0x7
	.uleb128 0x3
	.long	0xc66e
	.uleb128 0x4
	.long	0xc677
	.long	.LLST190
	.long	.LVUS190
	.uleb128 0x3
	.long	0xc684
	.uleb128 0x1b
	.long	0xbbe8
	.quad	.LBI2663
	.value	.LVU1433
	.long	.LLRL191
	.byte	0x2
	.value	0x18e
	.byte	0x13
	.uleb128 0x3
	.long	0xbbf2
	.uleb128 0x4
	.long	0xbbff
	.long	.LLST192
	.long	.LVUS192
	.uleb128 0x3
	.long	0xbc0c
	.uleb128 0x1b
	.long	0xb373
	.quad	.LBI2664
	.value	.LVU1434
	.long	.LLRL193
	.byte	0x8
	.value	0x2b1
	.byte	0x17
	.uleb128 0x3
	.long	0xb381
	.uleb128 0x4
	.long	0xb38a
	.long	.LLST194
	.long	.LVUS194
	.uleb128 0x3
	.long	0xb396
	.uleb128 0x32
	.quad	.LVL238
	.long	0xa954
	.uleb128 0x21
	.uleb128 0x1
	.byte	0x55
	.uleb128 0x2
	.byte	0x7c
	.sleb128 0
	.uleb128 0x21
	.uleb128 0x1
	.byte	0x54
	.uleb128 0x5
	.byte	0x7f
	.sleb128 0
	.byte	0x7c
	.sleb128 0
	.byte	0x1c
	.byte	0
	.byte	0
	.byte	0
	.byte	0
	.byte	0
	.byte	0
	.byte	0
	.byte	0
	.byte	0
	.byte	0
	.uleb128 0x2a
	.long	0xcbc2
	.quad	.LBI2585
	.value	.LVU71
	.long	.LLRL115
	.byte	0x1
	.byte	0x31
	.byte	0x16
	.long	0xd67c
	.uleb128 0x4
	.long	0xcbd0
	.long	.LLST116
	.long	.LVUS116
	.uleb128 0x1b
	.long	0xc4ea
	.quad	.LBI2586
	.value	.LVU72
	.long	.LLRL115
	.byte	0x2
	.value	0x3dd
	.byte	0x10
	.uleb128 0x3
	.long	0xc4f8
	.uleb128 0x4
	.long	0xc501
	.long	.LLST117
	.long	.LVUS117
	.byte	0
	.byte	0
	.uleb128 0x34
	.long	0xcbaa
	.quad	.LBI2588
	.value	.LVU74
	.long	.LLRL118
	.byte	0x1
	.byte	0x31
	.byte	0x16
	.byte	0x1
	.long	0xd6cf
	.uleb128 0x4
	.long	0xcbb8
	.long	.LLST119
	.long	.LVUS119
	.uleb128 0x1b
	.long	0xc4ea
	.quad	.LBI2589
	.value	.LVU75
	.long	.LLRL118
	.byte	0x2
	.value	0x3f1
	.byte	0x10
	.uleb128 0x3
	.long	0xc4f8
	.uleb128 0x4
	.long	0xc501
	.long	.LLST120
	.long	.LVUS120
	.byte	0
	.byte	0
	.uleb128 0x6b
	.long	0x1204f
	.quad	.LBI2697
	.value	.LVU157
	.quad	.LBB2697
	.quad	.LBE2697-.LBB2697
	.byte	0x1
	.byte	0x31
	.byte	0x4
	.uleb128 0x4
	.long	0x1205d
	.long	.LLST195
	.long	.LVUS195
	.byte	0
	.byte	0
	.uleb128 0x80
	.quad	.LBB2837
	.quad	.LBE2837-.LBB2837
	.long	0xd929
	.uleb128 0x30
	.string	"p"
	.byte	0x4a
	.byte	0x16
	.long	0xa5e8
	.long	.LLST295
	.long	.LVUS295
	.uleb128 0x9c
	.long	.LASF1413
	.long	0xa692
	.long	.LLST296
	.long	.LVUS296
	.uleb128 0x5d
	.long	.LASF1414
	.long	0x3b43
	.uleb128 0x5d
	.long	.LASF1415
	.long	0x3b43
	.uleb128 0x1d
	.long	0xca63
	.quad	.LBI2838
	.value	.LVU263
	.quad	.LBB2838
	.quad	.LBE2838-.LBB2838
	.byte	0x1
	.byte	0x4a
	.byte	0x1a
	.long	0xd7b5
	.uleb128 0x4
	.long	0xca71
	.long	.LLST297
	.long	.LVUS297
	.uleb128 0x13
	.long	0xc1c4
	.quad	.LBI2839
	.value	.LVU264
	.quad	.LBB2839
	.quad	.LBE2839-.LBB2839
	.byte	0x2
	.value	0x3dd
	.byte	0x10
	.uleb128 0x3
	.long	0xc1d2
	.uleb128 0x4
	.long	0xc1db
	.long	.LLST298
	.long	.LVUS298
	.byte	0
	.byte	0
	.uleb128 0x47
	.long	0xca4b
	.quad	.LBI2840
	.value	.LVU266
	.quad	.LBB2840
	.quad	.LBE2840-.LBB2840
	.byte	0x4a
	.byte	0x1a
	.byte	0x1
	.long	0xd81f
	.uleb128 0x4
	.long	0xca59
	.long	.LLST299
	.long	.LVUS299
	.uleb128 0x13
	.long	0xc1c4
	.quad	.LBI2841
	.value	.LVU267
	.quad	.LBB2841
	.quad	.LBE2841-.LBB2841
	.byte	0x2
	.value	0x3f1
	.byte	0x10
	.uleb128 0x3
	.long	0xc1d2
	.uleb128 0x4
	.long	0xc1db
	.long	.LLST300
	.long	.LVUS300
	.byte	0
	.byte	0
	.uleb128 0x34
	.long	0x12037
	.quad	.LBI2842
	.value	.LVU304
	.long	.LLRL301
	.byte	0x1
	.byte	0x4a
	.byte	0x1a
	.byte	0x4
	.long	0xd848
	.uleb128 0x4
	.long	0x12045
	.long	.LLST302
	.long	.LVUS302
	.byte	0
	.uleb128 0x1d
	.long	0xca26
	.quad	.LBI2844
	.value	.LVU278
	.quad	.LBB2844
	.quad	.LBE2844-.LBB2844
	.byte	0x1
	.byte	0x4b
	.byte	0x31
	.long	0xd881
	.uleb128 0x3
	.long	0xca34
	.uleb128 0x4
	.long	0xca3d
	.long	.LLST303
	.long	.LVUS303
	.byte	0
	.uleb128 0x1d
	.long	0xca26
	.quad	.LBI2846
	.value	.LVU286
	.quad	.LBB2846
	.quad	.LBE2846-.LBB2846
	.byte	0x1
	.byte	0x4c
	.byte	0x31
	.long	0xd8ba
	.uleb128 0x3
	.long	0xca34
	.uleb128 0x4
	.long	0xca3d
	.long	.LLST304
	.long	.LVUS304
	.byte	0
	.uleb128 0x1d
	.long	0xca26
	.quad	.LBI2848
	.value	.LVU292
	.quad	.LBB2848
	.quad	.LBE2848-.LBB2848
	.byte	0x1
	.byte	0x4d
	.byte	0x31
	.long	0xd8f3
	.uleb128 0x3
	.long	0xca34
	.uleb128 0x4
	.long	0xca3d
	.long	.LLST305
	.long	.LVUS305
	.byte	0
	.uleb128 0x20
	.long	0xca26
	.quad	.LBI2850
	.value	.LVU298
	.quad	.LBB2850
	.quad	.LBE2850-.LBB2850
	.byte	0x1
	.byte	0x4e
	.byte	0x31
	.uleb128 0x3
	.long	0xca34
	.uleb128 0x4
	.long	0xca3d
	.long	.LLST306
	.long	.LVUS306
	.byte	0
	.byte	0
	.uleb128 0x80
	.quad	.LBB2853
	.quad	.LBE2853-.LBB2853
	.long	0xd981
	.uleb128 0x30
	.string	"y"
	.byte	0x51
	.byte	0xe
	.long	0x4f
	.long	.LLST307
	.long	.LVUS307
	.uleb128 0x44
	.long	.LLRL308
	.uleb128 0x30
	.string	"row"
	.byte	0x52
	.byte	0xd
	.long	0x4f
	.long	.LLST309
	.long	.LVUS309
	.uleb128 0x44
	.long	.LLRL310
	.uleb128 0x30
	.string	"x"
	.byte	0x53
	.byte	0x12
	.long	0x4f
	.long	.LLST311
	.long	.LVUS311
	.byte	0
	.byte	0
	.byte	0
	.uleb128 0x4c
	.long	.LLRL361
	.long	0xf15d
	.uleb128 0x30
	.string	"ty"
	.byte	0x61
	.byte	0xe
	.long	0x4f
	.long	.LLST362
	.long	.LVUS362
	.uleb128 0x44
	.long	.LLRL363
	.uleb128 0x2b
	.long	.LASF1418
	.byte	0x1
	.byte	0x62
	.byte	0x13
	.long	0x57
	.uleb128 0x2b
	.long	.LASF1419
	.byte	0x1
	.byte	0x63
	.byte	0x13
	.long	0x57
	.uleb128 0x4c
	.long	.LLRL364
	.long	0xf132
	.uleb128 0x30
	.string	"tx"
	.byte	0x65
	.byte	0x12
	.long	0x4f
	.long	.LLST365
	.long	.LVUS365
	.uleb128 0x44
	.long	.LLRL366
	.uleb128 0x2b
	.long	.LASF1420
	.byte	0x1
	.byte	0x66
	.byte	0x17
	.long	0x57
	.uleb128 0x2f
	.long	.LASF1421
	.byte	0x67
	.byte	0x17
	.long	0x57
	.long	.LLST367
	.long	.LVUS367
	.uleb128 0x4c
	.long	.LLRL368
	.long	0xee2c
	.uleb128 0x30
	.string	"p"
	.byte	0x6f
	.byte	0x23
	.long	0xa5e8
	.long	.LLST369
	.long	.LVUS369
	.uleb128 0x5d
	.long	.LASF1413
	.long	0xa692
	.uleb128 0x5d
	.long	.LASF1414
	.long	0x3b43
	.uleb128 0x5d
	.long	.LASF1415
	.long	0x3b43
	.uleb128 0x44
	.long	.LLRL370
	.uleb128 0x2b
	.long	.LASF1326
	.byte	0x1
	.byte	0x70
	.byte	0x1b
	.long	0x57
	.uleb128 0x2b
	.long	.LASF1327
	.byte	0x1
	.byte	0x71
	.byte	0x1b
	.long	0x57
	.uleb128 0x2b
	.long	.LASF1324
	.byte	0x1
	.byte	0x72
	.byte	0x1b
	.long	0x57
	.uleb128 0x2b
	.long	.LASF1325
	.byte	0x1
	.byte	0x73
	.byte	0x1b
	.long	0x57
	.uleb128 0x30
	.string	"Avx"
	.byte	0x76
	.byte	0x1e
	.long	0xa3fd
	.long	.LLST371
	.long	.LVUS371
	.uleb128 0x30
	.string	"Bvx"
	.byte	0x77
	.byte	0x1e
	.long	0xa3fd
	.long	.LLST372
	.long	.LVUS372
	.uleb128 0x30
	.string	"Cvx"
	.byte	0x78
	.byte	0x1e
	.long	0xa3fd
	.long	.LLST373
	.long	.LVUS373
	.uleb128 0x30
	.string	"Dvx"
	.byte	0x79
	.byte	0x1e
	.long	0xa3fd
	.long	.LLST374
	.long	.LVUS374
	.uleb128 0x4c
	.long	.LLRL375
	.long	0xec96
	.uleb128 0x30
	.string	"y"
	.byte	0x7b
	.byte	0x1a
	.long	0x4f
	.long	.LLST376
	.long	.LVUS376
	.uleb128 0x44
	.long	.LLRL377
	.uleb128 0x2f
	.long	.LASF1422
	.byte	0x7c
	.byte	0x1c
	.long	0x75f6
	.long	.LLST378
	.long	.LVUS378
	.uleb128 0x2f
	.long	.LASF1423
	.byte	0x7d
	.byte	0x1c
	.long	0x75f6
	.long	.LLST379
	.long	.LVUS379
	.uleb128 0x2f
	.long	.LASF1424
	.byte	0x7e
	.byte	0x1c
	.long	0x75f6
	.long	.LLST380
	.long	.LVUS380
	.uleb128 0x2f
	.long	.LASF1425
	.byte	0x7f
	.byte	0x1c
	.long	0x75f6
	.long	.LLST381
	.long	.LVUS381
	.uleb128 0x30
	.string	"vp"
	.byte	0x82
	.byte	0x1c
	.long	0xa7eb
	.long	.LLST382
	.long	.LVUS382
	.uleb128 0x30
	.string	"x"
	.byte	0x86
	.byte	0x19
	.long	0x4f
	.long	.LLST383
	.long	.LVUS383
	.uleb128 0x2b
	.long	.LASF1426
	.byte	0x1
	.byte	0x87
	.byte	0x1f
	.long	0x57
	.uleb128 0x2f
	.long	.LASF1427
	.byte	0xce
	.byte	0x19
	.long	0x4f
	.long	.LLST384
	.long	.LVUS384
	.uleb128 0x4c
	.long	.LLRL385
	.long	0xe6b9
	.uleb128 0x2b
	.long	.LASF1428
	.byte	0x1
	.byte	0x8c
	.byte	0x21
	.long	0xa391
	.uleb128 0x2b
	.long	.LASF1429
	.byte	0x1
	.byte	0x8d
	.byte	0x21
	.long	0xa391
	.uleb128 0x2b
	.long	.LASF1430
	.byte	0x1
	.byte	0x8e
	.byte	0x21
	.long	0xa391
	.uleb128 0x2b
	.long	.LASF1431
	.byte	0x1
	.byte	0x8f
	.byte	0x21
	.long	0xa391
	.uleb128 0x2b
	.long	.LASF1432
	.byte	0x1
	.byte	0x91
	.byte	0x21
	.long	0xa391
	.uleb128 0x2b
	.long	.LASF1433
	.byte	0x1
	.byte	0x92
	.byte	0x21
	.long	0xa391
	.uleb128 0x2b
	.long	.LASF1434
	.byte	0x1
	.byte	0x93
	.byte	0x21
	.long	0xa391
	.uleb128 0x2b
	.long	.LASF1435
	.byte	0x1
	.byte	0x94
	.byte	0x21
	.long	0xa391
	.uleb128 0x2f
	.long	.LASF1436
	.byte	0x96
	.byte	0x20
	.long	0xa3f1
	.long	.LLST386
	.long	.LVUS386
	.uleb128 0x2f
	.long	.LASF1437
	.byte	0x97
	.byte	0x20
	.long	0xa3f1
	.long	.LLST387
	.long	.LVUS387
	.uleb128 0x2f
	.long	.LASF1438
	.byte	0x98
	.byte	0x20
	.long	0xa3f1
	.long	.LLST388
	.long	.LVUS388
	.uleb128 0x2f
	.long	.LASF1439
	.byte	0x99
	.byte	0x20
	.long	0xa3f1
	.long	.LLST389
	.long	.LVUS389
	.uleb128 0x2b
	.long	.LASF1440
	.byte	0x1
	.byte	0x9b
	.byte	0x20
	.long	0xa3f1
	.uleb128 0x2f
	.long	.LASF1441
	.byte	0x9c
	.byte	0x20
	.long	0xa3f1
	.long	.LLST390
	.long	.LVUS390
	.uleb128 0x2f
	.long	.LASF1442
	.byte	0x9d
	.byte	0x20
	.long	0xa3f1
	.long	.LLST391
	.long	.LVUS391
	.uleb128 0x2f
	.long	.LASF1443
	.byte	0x9e
	.byte	0x20
	.long	0xa3f1
	.long	.LLST392
	.long	.LVUS392
	.uleb128 0x2f
	.long	.LASF1444
	.byte	0xa0
	.byte	0x20
	.long	0xa3f1
	.long	.LLST393
	.long	.LVUS393
	.uleb128 0x2f
	.long	.LASF1445
	.byte	0xa1
	.byte	0x20
	.long	0xa3f1
	.long	.LLST394
	.long	.LVUS394
	.uleb128 0x2a
	.long	0x123da
	.quad	.LBI2920
	.value	.LVU532
	.long	.LLRL395
	.byte	0x1
	.byte	0x8c
	.byte	0x3b
	.long	0xdd0f
	.uleb128 0x3
	.long	0x123ee
	.uleb128 0x13
	.long	0x12401
	.quad	.LBI2922
	.value	.LVU537
	.quad	.LBB2922
	.quad	.LBE2922-.LBB2922
	.byte	0xe
	.value	0x2c9
	.byte	0x18
	.uleb128 0x3
	.long	0x12415
	.uleb128 0x4
	.long	0x12422
	.long	.LLST396
	.long	.LVUS396
	.uleb128 0x13
	.long	0x12430
	.quad	.LBI2924
	.value	.LVU539
	.quad	.LBB2924
	.quad	.LBE2924-.LBB2924
	.byte	0xe
	.value	0x25a
	.byte	0x19
	.uleb128 0x4
	.long	0x12444
	.long	.LLST397
	.long	.LVUS397
	.uleb128 0x4
	.long	0x12451
	.long	.LLST398
	.long	.LVUS398
	.byte	0
	.byte	0
	.byte	0
	.uleb128 0x2a
	.long	0x12324
	.quad	.LBI2927
	.value	.LVU613
	.long	.LLRL399
	.byte	0x1
	.byte	0x97
	.byte	0x3d
	.long	0xdd2f
	.uleb128 0x3
	.long	0x12338
	.byte	0
	.uleb128 0x2a
	.long	0x12324
	.quad	.LBI2930
	.value	.LVU642
	.long	.LLRL400
	.byte	0x1
	.byte	0x9c
	.byte	0x3d
	.long	0xdd4f
	.uleb128 0x3
	.long	0x12338
	.byte	0
	.uleb128 0x1d
	.long	0x123da
	.quad	.LBI2934
	.value	.LVU543
	.quad	.LBB2934
	.quad	.LBE2934-.LBB2934
	.byte	0x1
	.byte	0x8d
	.byte	0x3b
	.long	0xddf7
	.uleb128 0x4
	.long	0x123ee
	.long	.LLST401
	.long	.LVUS401
	.uleb128 0x13
	.long	0x12401
	.quad	.LBI2936
	.value	.LVU545
	.quad	.LBB2936
	.quad	.LBE2936-.LBB2936
	.byte	0xe
	.value	0x2c9
	.byte	0x18
	.uleb128 0x3
	.long	0x12415
	.uleb128 0x4
	.long	0x12422
	.long	.LLST402
	.long	.LVUS402
	.uleb128 0x13
	.long	0x12430
	.quad	.LBI2938
	.value	.LVU547
	.quad	.LBB2938
	.quad	.LBE2938-.LBB2938
	.byte	0xe
	.value	0x25a
	.byte	0x19
	.uleb128 0x4
	.long	0x12444
	.long	.LLST403
	.long	.LVUS403
	.uleb128 0x4
	.long	0x12451
	.long	.LLST404
	.long	.LVUS404
	.byte	0
	.byte	0
	.byte	0
	.uleb128 0x1d
	.long	0x123da
	.quad	.LBI2940
	.value	.LVU551
	.quad	.LBB2940
	.quad	.LBE2940-.LBB2940
	.byte	0x1
	.byte	0x8e
	.byte	0x3b
	.long	0xde97
	.uleb128 0x3
	.long	0x123ee
	.uleb128 0x13
	.long	0x12401
	.quad	.LBI2942
	.value	.LVU553
	.quad	.LBB2942
	.quad	.LBE2942-.LBB2942
	.byte	0xe
	.value	0x2c9
	.byte	0x18
	.uleb128 0x3
	.long	0x12415
	.uleb128 0x4
	.long	0x12422
	.long	.LLST405
	.long	.LVUS405
	.uleb128 0x13
	.long	0x12430
	.quad	.LBI2944
	.value	.LVU555
	.quad	.LBB2944
	.quad	.LBE2944-.LBB2944
	.byte	0xe
	.value	0x25a
	.byte	0x19
	.uleb128 0x4
	.long	0x12444
	.long	.LLST406
	.long	.LVUS406
	.uleb128 0x4
	.long	0x12451
	.long	.LLST407
	.long	.LVUS407
	.byte	0
	.byte	0
	.byte	0
	.uleb128 0x1d
	.long	0x123da
	.quad	.LBI2946
	.value	.LVU559
	.quad	.LBB2946
	.quad	.LBE2946-.LBB2946
	.byte	0x1
	.byte	0x8f
	.byte	0x3b
	.long	0xdf3f
	.uleb128 0x4
	.long	0x123ee
	.long	.LLST408
	.long	.LVUS408
	.uleb128 0x13
	.long	0x12401
	.quad	.LBI2948
	.value	.LVU561
	.quad	.LBB2948
	.quad	.LBE2948-.LBB2948
	.byte	0xe
	.value	0x2c9
	.byte	0x18
	.uleb128 0x3
	.long	0x12415
	.uleb128 0x4
	.long	0x12422
	.long	.LLST409
	.long	.LVUS409
	.uleb128 0x13
	.long	0x12430
	.quad	.LBI2950
	.value	.LVU563
	.quad	.LBB2950
	.quad	.LBE2950-.LBB2950
	.byte	0xe
	.value	0x25a
	.byte	0x19
	.uleb128 0x4
	.long	0x12444
	.long	.LLST410
	.long	.LVUS410
	.uleb128 0x4
	.long	0x12451
	.long	.LLST411
	.long	.LVUS411
	.byte	0
	.byte	0
	.byte	0
	.uleb128 0x1d
	.long	0x123da
	.quad	.LBI2952
	.value	.LVU567
	.quad	.LBB2952
	.quad	.LBE2952-.LBB2952
	.byte	0x1
	.byte	0x91
	.byte	0x3b
	.long	0xdfdf
	.uleb128 0x3
	.long	0x123ee
	.uleb128 0x13
	.long	0x12401
	.quad	.LBI2954
	.value	.LVU569
	.quad	.LBB2954
	.quad	.LBE2954-.LBB2954
	.byte	0xe
	.value	0x2c9
	.byte	0x18
	.uleb128 0x3
	.long	0x12415
	.uleb128 0x4
	.long	0x12422
	.long	.LLST412
	.long	.LVUS412
	.uleb128 0x13
	.long	0x12430
	.quad	.LBI2956
	.value	.LVU571
	.quad	.LBB2956
	.quad	.LBE2956-.LBB2956
	.byte	0xe
	.value	0x25a
	.byte	0x19
	.uleb128 0x4
	.long	0x12444
	.long	.LLST413
	.long	.LVUS413
	.uleb128 0x4
	.long	0x12451
	.long	.LLST414
	.long	.LVUS414
	.byte	0
	.byte	0
	.byte	0
	.uleb128 0x1d
	.long	0x123da
	.quad	.LBI2958
	.value	.LVU575
	.quad	.LBB2958
	.quad	.LBE2958-.LBB2958
	.byte	0x1
	.byte	0x92
	.byte	0x3b
	.long	0xe087
	.uleb128 0x4
	.long	0x123ee
	.long	.LLST415
	.long	.LVUS415
	.uleb128 0x13
	.long	0x12401
	.quad	.LBI2960
	.value	.LVU577
	.quad	.LBB2960
	.quad	.LBE2960-.LBB2960
	.byte	0xe
	.value	0x2c9
	.byte	0x18
	.uleb128 0x3
	.long	0x12415
	.uleb128 0x4
	.long	0x12422
	.long	.LLST416
	.long	.LVUS416
	.uleb128 0x13
	.long	0x12430
	.quad	.LBI2962
	.value	.LVU579
	.quad	.LBB2962
	.quad	.LBE2962-.LBB2962
	.byte	0xe
	.value	0x25a
	.byte	0x19
	.uleb128 0x4
	.long	0x12444
	.long	.LLST417
	.long	.LVUS417
	.uleb128 0x4
	.long	0x12451
	.long	.LLST418
	.long	.LVUS418
	.byte	0
	.byte	0
	.byte	0
	.uleb128 0x1d
	.long	0x123da
	.quad	.LBI2964
	.value	.LVU583
	.quad	.LBB2964
	.quad	.LBE2964-.LBB2964
	.byte	0x1
	.byte	0x93
	.byte	0x3b
	.long	0xe127
	.uleb128 0x3
	.long	0x123ee
	.uleb128 0x13
	.long	0x12401
	.quad	.LBI2966
	.value	.LVU585
	.quad	.LBB2966
	.quad	.LBE2966-.LBB2966
	.byte	0xe
	.value	0x2c9
	.byte	0x18
	.uleb128 0x3
	.long	0x12415
	.uleb128 0x4
	.long	0x12422
	.long	.LLST419
	.long	.LVUS419
	.uleb128 0x13
	.long	0x12430
	.quad	.LBI2968
	.value	.LVU587
	.quad	.LBB2968
	.quad	.LBE2968-.LBB2968
	.byte	0xe
	.value	0x25a
	.byte	0x19
	.uleb128 0x4
	.long	0x12444
	.long	.LLST420
	.long	.LVUS420
	.uleb128 0x4
	.long	0x12451
	.long	.LLST421
	.long	.LVUS421
	.byte	0
	.byte	0
	.byte	0
	.uleb128 0x1d
	.long	0x123da
	.quad	.LBI2970
	.value	.LVU591
	.quad	.LBB2970
	.quad	.LBE2970-.LBB2970
	.byte	0x1
	.byte	0x94
	.byte	0x3b
	.long	0xe1cf
	.uleb128 0x4
	.long	0x123ee
	.long	.LLST422
	.long	.LVUS422
	.uleb128 0x13
	.long	0x12401
	.quad	.LBI2972
	.value	.LVU593
	.quad	.LBB2972
	.quad	.LBE2972-.LBB2972
	.byte	0xe
	.value	0x2c9
	.byte	0x18
	.uleb128 0x3
	.long	0x12415
	.uleb128 0x4
	.long	0x12422
	.long	.LLST423
	.long	.LVUS423
	.uleb128 0x13
	.long	0x12430
	.quad	.LBI2974
	.value	.LVU595
	.quad	.LBB2974
	.quad	.LBE2974-.LBB2974
	.byte	0xe
	.value	0x25a
	.byte	0x19
	.uleb128 0x4
	.long	0x12444
	.long	.LLST424
	.long	.LVUS424
	.uleb128 0x4
	.long	0x12451
	.long	.LLST425
	.long	.LVUS425
	.byte	0
	.byte	0
	.byte	0
	.uleb128 0x2a
	.long	0x12324
	.quad	.LBI2976
	.value	.LVU599
	.long	.LLRL426
	.byte	0x1
	.byte	0x96
	.byte	0x3d
	.long	0xe1ef
	.uleb128 0x3
	.long	0x12338
	.byte	0
	.uleb128 0x2a
	.long	0x12324
	.quad	.LBI2979
	.value	.LVU630
	.long	.LLRL427
	.byte	0x1
	.byte	0x99
	.byte	0x3d
	.long	0xe20f
	.uleb128 0x3
	.long	0x12338
	.byte	0
	.uleb128 0x2a
	.long	0x12324
	.quad	.LBI2982
	.value	.LVU656
	.long	.LLRL428
	.byte	0x1
	.byte	0x9e
	.byte	0x3d
	.long	0xe22f
	.uleb128 0x3
	.long	0x12338
	.byte	0
	.uleb128 0x34
	.long	0x123b8
	.quad	.LBI2986
	.value	.LVU605
	.long	.LLRL429
	.byte	0x1
	.byte	0x96
	.byte	0x3d
	.byte	0x1
	.long	0xe258
	.uleb128 0x4
	.long	0x123cc
	.long	.LLST430
	.long	.LVUS430
	.byte	0
	.uleb128 0x2a
	.long	0x12324
	.quad	.LBI2989
	.value	.LVU636
	.long	.LLRL431
	.byte	0x1
	.byte	0x9b
	.byte	0x3d
	.long	0xe278
	.uleb128 0x3
	.long	0x12338
	.byte	0
	.uleb128 0x34
	.long	0x123b8
	.quad	.LBI2992
	.value	.LVU615
	.long	.LLRL432
	.byte	0x1
	.byte	0x97
	.byte	0x3d
	.byte	0x1
	.long	0xe299
	.uleb128 0x3
	.long	0x123cc
	.byte	0
	.uleb128 0x34
	.long	0x123b8
	.quad	.LBI2995
	.value	.LVU644
	.long	.LLRL433
	.byte	0x1
	.byte	0x9c
	.byte	0x3d
	.byte	0x1
	.long	0xe2ba
	.uleb128 0x3
	.long	0x123cc
	.byte	0
	.uleb128 0x2a
	.long	0x12324
	.quad	.LBI2998
	.value	.LVU619
	.long	.LLRL434
	.byte	0x1
	.byte	0x98
	.byte	0x3d
	.long	0xe2da
	.uleb128 0x3
	.long	0x12338
	.byte	0
	.uleb128 0x2a
	.long	0x12324
	.quad	.LBI3001
	.value	.LVU648
	.long	.LLRL435
	.byte	0x1
	.byte	0x9d
	.byte	0x3d
	.long	0xe2fa
	.uleb128 0x3
	.long	0x12338
	.byte	0
	.uleb128 0x34
	.long	0x123b8
	.quad	.LBI3004
	.value	.LVU632
	.long	.LLRL436
	.byte	0x1
	.byte	0x99
	.byte	0x3d
	.byte	0x1
	.long	0xe31b
	.uleb128 0x3
	.long	0x123cc
	.byte	0
	.uleb128 0x34
	.long	0x123b8
	.quad	.LBI3007
	.value	.LVU658
	.long	.LLRL437
	.byte	0x1
	.byte	0x9e
	.byte	0x3d
	.byte	0x1
	.long	0xe33c
	.uleb128 0x3
	.long	0x123cc
	.byte	0
	.uleb128 0x34
	.long	0x123b8
	.quad	.LBI3014
	.value	.LVU622
	.long	.LLRL438
	.byte	0x1
	.byte	0x98
	.byte	0x3d
	.byte	0x1
	.long	0xe365
	.uleb128 0x4
	.long	0x123cc
	.long	.LLST439
	.long	.LVUS439
	.byte	0
	.uleb128 0x34
	.long	0x123b8
	.quad	.LBI3017
	.value	.LVU639
	.long	.LLRL440
	.byte	0x1
	.byte	0x9b
	.byte	0x3d
	.byte	0x1
	.long	0xe386
	.uleb128 0x3
	.long	0x123cc
	.byte	0
	.uleb128 0x2a
	.long	0x122e9
	.quad	.LBI3020
	.value	.LVU668
	.long	.LLRL441
	.byte	0x1
	.byte	0xa3
	.byte	0x30
	.long	0xe3b8
	.uleb128 0x4
	.long	0x122ff
	.long	.LLST442
	.long	.LVUS442
	.uleb128 0x3
	.long	0x1230b
	.uleb128 0x3
	.long	0x12317
	.byte	0
	.uleb128 0x2a
	.long	0x122e9
	.quad	.LBI3023
	.value	.LVU672
	.long	.LLRL443
	.byte	0x1
	.byte	0xa4
	.byte	0x30
	.long	0xe3ea
	.uleb128 0x4
	.long	0x122ff
	.long	.LLST444
	.long	.LVUS444
	.uleb128 0x3
	.long	0x1230b
	.uleb128 0x3
	.long	0x12317
	.byte	0
	.uleb128 0x47
	.long	0x123b8
	.quad	.LBI3034
	.value	.LVU651
	.quad	.LBB3034
	.quad	.LBE3034-.LBB3034
	.byte	0x9d
	.byte	0x3d
	.byte	0x1
	.long	0xe41e
	.uleb128 0x4
	.long	0x123cc
	.long	.LLST445
	.long	.LVUS445
	.byte	0
	.uleb128 0x1d
	.long	0x12396
	.quad	.LBI3038
	.value	.LVU662
	.quad	.LBB3038
	.quad	.LBE3038-.LBB3038
	.byte	0x1
	.byte	0xa0
	.byte	0x37
	.long	0xe44a
	.uleb128 0x3
	.long	0x123aa
	.byte	0
	.uleb128 0x1d
	.long	0x12396
	.quad	.LBI3040
	.value	.LVU665
	.quad	.LBB3040
	.quad	.LBE3040-.LBB3040
	.byte	0x1
	.byte	0xa1
	.byte	0x37
	.long	0xe476
	.uleb128 0x3
	.long	0x123aa
	.byte	0
	.uleb128 0x1d
	.long	0x122e9
	.quad	.LBI3044
	.value	.LVU676
	.quad	.LBB3044
	.quad	.LBE3044-.LBB3044
	.byte	0x1
	.byte	0xa6
	.byte	0x30
	.long	0xe4c4
	.uleb128 0x4
	.long	0x122ff
	.long	.LLST446
	.long	.LVUS446
	.uleb128 0x4
	.long	0x1230b
	.long	.LLST447
	.long	.LVUS447
	.uleb128 0x4
	.long	0x12317
	.long	.LLST448
	.long	.LVUS448
	.byte	0
	.uleb128 0x1d
	.long	0x122e9
	.quad	.LBI3046
	.value	.LVU681
	.quad	.LBB3046
	.quad	.LBE3046-.LBB3046
	.byte	0x1
	.byte	0xa7
	.byte	0x30
	.long	0xe512
	.uleb128 0x4
	.long	0x122ff
	.long	.LLST449
	.long	.LVUS449
	.uleb128 0x4
	.long	0x1230b
	.long	.LLST450
	.long	.LVUS450
	.uleb128 0x4
	.long	0x12317
	.long	.LLST451
	.long	.LVUS451
	.byte	0
	.uleb128 0x1d
	.long	0x122e9
	.quad	.LBI3048
	.value	.LVU686
	.quad	.LBB3048
	.quad	.LBE3048-.LBB3048
	.byte	0x1
	.byte	0xa9
	.byte	0x30
	.long	0xe560
	.uleb128 0x4
	.long	0x122ff
	.long	.LLST452
	.long	.LVUS452
	.uleb128 0x4
	.long	0x1230b
	.long	.LLST453
	.long	.LVUS453
	.uleb128 0x4
	.long	0x12317
	.long	.LLST454
	.long	.LVUS454
	.byte	0
	.uleb128 0x1d
	.long	0x122e9
	.quad	.LBI3050
	.value	.LVU691
	.quad	.LBB3050
	.quad	.LBE3050-.LBB3050
	.byte	0x1
	.byte	0xaa
	.byte	0x30
	.long	0xe5ae
	.uleb128 0x4
	.long	0x122ff
	.long	.LLST455
	.long	.LVUS455
	.uleb128 0x4
	.long	0x1230b
	.long	.LLST456
	.long	.LVUS456
	.uleb128 0x4
	.long	0x12317
	.long	.LLST457
	.long	.LVUS457
	.byte	0
	.uleb128 0x1d
	.long	0x122e9
	.quad	.LBI3052
	.value	.LVU696
	.quad	.LBB3052
	.quad	.LBE3052-.LBB3052
	.byte	0x1
	.byte	0xac
	.byte	0x30
	.long	0xe5fc
	.uleb128 0x4
	.long	0x122ff
	.long	.LLST458
	.long	.LVUS458
	.uleb128 0x4
	.long	0x1230b
	.long	.LLST459
	.long	.LVUS459
	.uleb128 0x4
	.long	0x12317
	.long	.LLST460
	.long	.LVUS460
	.byte	0
	.uleb128 0x1d
	.long	0x122e9
	.quad	.LBI3054
	.value	.LVU701
	.quad	.LBB3054
	.quad	.LBE3054-.LBB3054
	.byte	0x1
	.byte	0xad
	.byte	0x30
	.long	0xe64a
	.uleb128 0x4
	.long	0x122ff
	.long	.LLST461
	.long	.LVUS461
	.uleb128 0x4
	.long	0x1230b
	.long	.LLST462
	.long	.LVUS462
	.uleb128 0x4
	.long	0x12317
	.long	.LLST463
	.long	.LVUS463
	.byte	0
	.uleb128 0x1d
	.long	0x12368
	.quad	.LBI3056
	.value	.LVU706
	.quad	.LBB3056
	.quad	.LBE3056-.LBB3056
	.byte	0x1
	.byte	0xaf
	.byte	0x29
	.long	0xe683
	.uleb128 0x3
	.long	0x1237b
	.uleb128 0x4
	.long	0x12388
	.long	.LLST464
	.long	.LVUS464
	.byte	0
	.uleb128 0x20
	.long	0x12368
	.quad	.LBI3058
	.value	.LVU711
	.quad	.LBB3058
	.quad	.LBE3058-.LBB3058
	.byte	0x1
	.byte	0xb0
	.byte	0x29
	.uleb128 0x3
	.long	0x1237b
	.uleb128 0x4
	.long	0x12388
	.long	.LLST465
	.long	.LVUS465
	.byte	0
	.byte	0
	.uleb128 0x80
	.quad	.LBB3065
	.quad	.LBE3065-.LBB3065
	.long	0xec4f
	.uleb128 0x2b
	.long	.LASF1446
	.byte	0x1
	.byte	0xb7
	.byte	0x21
	.long	0xa391
	.uleb128 0x2b
	.long	.LASF1447
	.byte	0x1
	.byte	0xb8
	.byte	0x21
	.long	0xa391
	.uleb128 0x2b
	.long	.LASF1448
	.byte	0x1
	.byte	0xb9
	.byte	0x21
	.long	0xa391
	.uleb128 0x2b
	.long	.LASF1449
	.byte	0x1
	.byte	0xba
	.byte	0x21
	.long	0xa391
	.uleb128 0x2f
	.long	.LASF1450
	.byte	0xbc
	.byte	0x20
	.long	0xa3f1
	.long	.LLST466
	.long	.LVUS466
	.uleb128 0x2f
	.long	.LASF1451
	.byte	0xbd
	.byte	0x20
	.long	0xa3f1
	.long	.LLST467
	.long	.LVUS467
	.uleb128 0x2f
	.long	.LASF1452
	.byte	0xbe
	.byte	0x20
	.long	0xa3f1
	.long	.LLST468
	.long	.LVUS468
	.uleb128 0x2f
	.long	.LASF1453
	.byte	0xbf
	.byte	0x20
	.long	0xa3f1
	.long	.LLST469
	.long	.LVUS469
	.uleb128 0x30
	.string	"val"
	.byte	0xc1
	.byte	0x20
	.long	0xa3f1
	.long	.LLST470
	.long	.LVUS470
	.uleb128 0x1d
	.long	0x123da
	.quad	.LBI3066
	.value	.LVU733
	.quad	.LBB3066
	.quad	.LBE3066-.LBB3066
	.byte	0x1
	.byte	0xb7
	.byte	0x39
	.long	0xe7ee
	.uleb128 0x3
	.long	0x123ee
	.uleb128 0x13
	.long	0x12401
	.quad	.LBI3068
	.value	.LVU735
	.quad	.LBB3068
	.quad	.LBE3068-.LBB3068
	.byte	0xe
	.value	0x2c9
	.byte	0x18
	.uleb128 0x3
	.long	0x12415
	.uleb128 0x3
	.long	0x12422
	.uleb128 0x13
	.long	0x12430
	.quad	.LBI3070
	.value	.LVU737
	.quad	.LBB3070
	.quad	.LBE3070-.LBB3070
	.byte	0xe
	.value	0x25a
	.byte	0x19
	.uleb128 0x4
	.long	0x12444
	.long	.LLST471
	.long	.LVUS471
	.uleb128 0x3
	.long	0x12451
	.byte	0
	.byte	0
	.byte	0
	.uleb128 0x1d
	.long	0x123da
	.quad	.LBI3072
	.value	.LVU741
	.quad	.LBB3072
	.quad	.LBE3072-.LBB3072
	.byte	0x1
	.byte	0xb8
	.byte	0x39
	.long	0xe87e
	.uleb128 0x3
	.long	0x123ee
	.uleb128 0x13
	.long	0x12401
	.quad	.LBI3074
	.value	.LVU743
	.quad	.LBB3074
	.quad	.LBE3074-.LBB3074
	.byte	0xe
	.value	0x2c9
	.byte	0x18
	.uleb128 0x3
	.long	0x12415
	.uleb128 0x3
	.long	0x12422
	.uleb128 0x13
	.long	0x12430
	.quad	.LBI3076
	.value	.LVU745
	.quad	.LBB3076
	.quad	.LBE3076-.LBB3076
	.byte	0xe
	.value	0x25a
	.byte	0x19
	.uleb128 0x4
	.long	0x12444
	.long	.LLST472
	.long	.LVUS472
	.uleb128 0x3
	.long	0x12451
	.byte	0
	.byte	0
	.byte	0
	.uleb128 0x1d
	.long	0x123da
	.quad	.LBI3078
	.value	.LVU749
	.quad	.LBB3078
	.quad	.LBE3078-.LBB3078
	.byte	0x1
	.byte	0xb9
	.byte	0x39
	.long	0xe90e
	.uleb128 0x3
	.long	0x123ee
	.uleb128 0x13
	.long	0x12401
	.quad	.LBI3080
	.value	.LVU751
	.quad	.LBB3080
	.quad	.LBE3080-.LBB3080
	.byte	0xe
	.value	0x2c9
	.byte	0x18
	.uleb128 0x3
	.long	0x12415
	.uleb128 0x3
	.long	0x12422
	.uleb128 0x13
	.long	0x12430
	.quad	.LBI3082
	.value	.LVU753
	.quad	.LBB3082
	.quad	.LBE3082-.LBB3082
	.byte	0xe
	.value	0x25a
	.byte	0x19
	.uleb128 0x4
	.long	0x12444
	.long	.LLST473
	.long	.LVUS473
	.uleb128 0x3
	.long	0x12451
	.byte	0
	.byte	0
	.byte	0
	.uleb128 0x1d
	.long	0x123da
	.quad	.LBI3084
	.value	.LVU757
	.quad	.LBB3084
	.quad	.LBE3084-.LBB3084
	.byte	0x1
	.byte	0xba
	.byte	0x39
	.long	0xe99e
	.uleb128 0x3
	.long	0x123ee
	.uleb128 0x13
	.long	0x12401
	.quad	.LBI3086
	.value	.LVU759
	.quad	.LBB3086
	.quad	.LBE3086-.LBB3086
	.byte	0xe
	.value	0x2c9
	.byte	0x18
	.uleb128 0x3
	.long	0x12415
	.uleb128 0x3
	.long	0x12422
	.uleb128 0x13
	.long	0x12430
	.quad	.LBI3088
	.value	.LVU761
	.quad	.LBB3088
	.quad	.LBE3088-.LBB3088
	.byte	0xe
	.value	0x25a
	.byte	0x19
	.uleb128 0x4
	.long	0x12444
	.long	.LLST474
	.long	.LVUS474
	.uleb128 0x3
	.long	0x12451
	.byte	0
	.byte	0
	.byte	0
	.uleb128 0x1d
	.long	0x12324
	.quad	.LBI3090
	.value	.LVU765
	.quad	.LBB3090
	.quad	.LBE3090-.LBB3090
	.byte	0x1
	.byte	0xbc
	.byte	0x3b
	.long	0xe9ca
	.uleb128 0x3
	.long	0x12338
	.byte	0
	.uleb128 0x34
	.long	0x123b8
	.quad	.LBI3092
	.value	.LVU769
	.long	.LLRL475
	.byte	0x1
	.byte	0xbc
	.byte	0x3b
	.byte	0x1
	.long	0xe9f3
	.uleb128 0x4
	.long	0x123cc
	.long	.LLST476
	.long	.LVUS476
	.byte	0
	.uleb128 0x2a
	.long	0x12324
	.quad	.LBI3095
	.value	.LVU790
	.long	.LLRL477
	.byte	0x1
	.byte	0xbe
	.byte	0x3b
	.long	0xea13
	.uleb128 0x3
	.long	0x12338
	.byte	0
	.uleb128 0x2a
	.long	0x12324
	.quad	.LBI3098
	.value	.LVU780
	.long	.LLRL478
	.byte	0x1
	.byte	0xbd
	.byte	0x3b
	.long	0xea33
	.uleb128 0x3
	.long	0x12338
	.byte	0
	.uleb128 0x2a
	.long	0x12324
	.quad	.LBI3101
	.value	.LVU797
	.long	.LLRL479
	.byte	0x1
	.byte	0xbf
	.byte	0x3b
	.long	0xea53
	.uleb128 0x3
	.long	0x12338
	.byte	0
	.uleb128 0x34
	.long	0x123b8
	.quad	.LBI3106
	.value	.LVU783
	.long	.LLRL480
	.byte	0x1
	.byte	0xbd
	.byte	0x3b
	.byte	0x1
	.long	0xea7c
	.uleb128 0x4
	.long	0x123cc
	.long	.LLST481
	.long	.LVUS481
	.byte	0
	.uleb128 0x2a
	.long	0x122e9
	.quad	.LBI3109
	.value	.LVU808
	.long	.LLRL482
	.byte	0x1
	.byte	0xc2
	.byte	0x2e
	.long	0xeaae
	.uleb128 0x4
	.long	0x122ff
	.long	.LLST483
	.long	.LVUS483
	.uleb128 0x3
	.long	0x1230b
	.uleb128 0x3
	.long	0x12317
	.byte	0
	.uleb128 0x34
	.long	0x123b8
	.quad	.LBI3112
	.value	.LVU793
	.long	.LLRL484
	.byte	0x1
	.byte	0xbe
	.byte	0x3b
	.byte	0x1
	.long	0xeacf
	.uleb128 0x3
	.long	0x123cc
	.byte	0
	.uleb128 0x47
	.long	0x123b8
	.quad	.LBI3119
	.value	.LVU800
	.quad	.LBB3119
	.quad	.LBE3119-.LBB3119
	.byte	0xbf
	.byte	0x3b
	.byte	0x1
	.long	0xeb03
	.uleb128 0x4
	.long	0x123cc
	.long	.LLST485
	.long	.LVUS485
	.byte	0
	.uleb128 0x1d
	.long	0x12396
	.quad	.LBI3121
	.value	.LVU805
	.quad	.LBB3121
	.quad	.LBE3121-.LBB3121
	.byte	0x1
	.byte	0xc1
	.byte	0x35
	.long	0xeb2f
	.uleb128 0x3
	.long	0x123aa
	.byte	0
	.uleb128 0x1d
	.long	0x122e9
	.quad	.LBI3124
	.value	.LVU812
	.quad	.LBB3124
	.quad	.LBE3124-.LBB3124
	.byte	0x1
	.byte	0xc3
	.byte	0x2e
	.long	0xeb7d
	.uleb128 0x4
	.long	0x122ff
	.long	.LLST486
	.long	.LVUS486
	.uleb128 0x4
	.long	0x1230b
	.long	.LLST487
	.long	.LVUS487
	.uleb128 0x4
	.long	0x12317
	.long	.LLST488
	.long	.LVUS488
	.byte	0
	.uleb128 0x1d
	.long	0x122e9
	.quad	.LBI3126
	.value	.LVU817
	.quad	.LBB3126
	.quad	.LBE3126-.LBB3126
	.byte	0x1
	.byte	0xc4
	.byte	0x2e
	.long	0xebcb
	.uleb128 0x4
	.long	0x122ff
	.long	.LLST489
	.long	.LVUS489
	.uleb128 0x4
	.long	0x1230b
	.long	.LLST490
	.long	.LVUS490
	.uleb128 0x4
	.long	0x12317
	.long	.LLST491
	.long	.LVUS491
	.byte	0
	.uleb128 0x1d
	.long	0x122e9
	.quad	.LBI3128
	.value	.LVU822
	.quad	.LBB3128
	.quad	.LBE3128-.LBB3128
	.byte	0x1
	.byte	0xc5
	.byte	0x2e
	.long	0xec19
	.uleb128 0x4
	.long	0x122ff
	.long	.LLST492
	.long	.LVUS492
	.uleb128 0x4
	.long	0x1230b
	.long	.LLST493
	.long	.LVUS493
	.uleb128 0x4
	.long	0x12317
	.long	.LLST494
	.long	.LVUS494
	.byte	0
	.uleb128 0x20
	.long	0x12368
	.quad	.LBI3130
	.value	.LVU827
	.quad	.LBB3130
	.quad	.LBE3130-.LBB3130
	.byte	0x1
	.byte	0xc6
	.byte	0x29
	.uleb128 0x3
	.long	0x1237b
	.uleb128 0x4
	.long	0x12388
	.long	.LLST495
	.long	.LVUS495
	.byte	0
	.byte	0
	.uleb128 0x44
	.long	.LLRL496
	.uleb128 0x30
	.string	"k"
	.byte	0xcf
	.byte	0x1e
	.long	0x4f
	.long	.LLST497
	.long	.LVUS497
	.uleb128 0x44
	.long	.LLRL498
	.uleb128 0x5c
	.string	"TL"
	.byte	0xd0
	.byte	0x1f
	.long	0x30
	.uleb128 0x5c
	.string	"TR"
	.byte	0xd1
	.byte	0x1f
	.long	0x30
	.uleb128 0x5c
	.string	"BL"
	.byte	0xd2
	.byte	0x1f
	.long	0x30
	.uleb128 0x5c
	.string	"BR"
	.byte	0xd3
	.byte	0x1f
	.long	0x30
	.byte	0
	.byte	0
	.byte	0
	.byte	0
	.uleb128 0x2a
	.long	0x12093
	.quad	.LBI3163
	.value	.LVU450
	.long	.LLRL499
	.byte	0x1
	.byte	0x70
	.byte	0x2d
	.long	0xeccb
	.uleb128 0x4
	.long	0x120a6
	.long	.LLST500
	.long	.LVUS500
	.uleb128 0x4
	.long	0x120b3
	.long	.LLST501
	.long	.LVUS501
	.byte	0
	.uleb128 0x2a
	.long	0x12067
	.quad	.LBI3168
	.value	.LVU469
	.long	.LLRL502
	.byte	0x1
	.byte	0x73
	.byte	0x2d
	.long	0xed00
	.uleb128 0x4
	.long	0x1207a
	.long	.LLST503
	.long	.LVUS503
	.uleb128 0x4
	.long	0x12086
	.long	.LLST504
	.long	.LVUS504
	.byte	0
	.uleb128 0x2a
	.long	0x12067
	.quad	.LBI3172
	.value	.LVU460
	.long	.LLRL505
	.byte	0x1
	.byte	0x71
	.byte	0x2d
	.long	0xed35
	.uleb128 0x4
	.long	0x1207a
	.long	.LLST506
	.long	.LVUS506
	.uleb128 0x4
	.long	0x12086
	.long	.LLST507
	.long	.LVUS507
	.byte	0
	.uleb128 0x2a
	.long	0x12093
	.quad	.LBI3181
	.value	.LVU464
	.long	.LLRL508
	.byte	0x1
	.byte	0x72
	.byte	0x2d
	.long	0xed6a
	.uleb128 0x4
	.long	0x120a6
	.long	.LLST509
	.long	.LVUS509
	.uleb128 0x4
	.long	0x120b3
	.long	.LLST510
	.long	.LVUS510
	.byte	0
	.uleb128 0x2a
	.long	0x12346
	.quad	.LBI3190
	.value	.LVU488
	.long	.LLRL511
	.byte	0x1
	.byte	0x76
	.byte	0x32
	.long	0xed92
	.uleb128 0x4
	.long	0x1235a
	.long	.LLST512
	.long	.LVUS512
	.byte	0
	.uleb128 0x1d
	.long	0x12346
	.quad	.LBI3196
	.value	.LVU498
	.quad	.LBB3196
	.quad	.LBE3196-.LBB3196
	.byte	0x1
	.byte	0x77
	.byte	0x32
	.long	0xedc6
	.uleb128 0x4
	.long	0x1235a
	.long	.LLST513
	.long	.LVUS513
	.byte	0
	.uleb128 0x1d
	.long	0x12346
	.quad	.LBI3198
	.value	.LVU503
	.quad	.LBB3198
	.quad	.LBE3198-.LBB3198
	.byte	0x1
	.byte	0x78
	.byte	0x32
	.long	0xedfa
	.uleb128 0x4
	.long	0x1235a
	.long	.LLST514
	.long	.LVUS514
	.byte	0
	.uleb128 0x20
	.long	0x12346
	.quad	.LBI3200
	.value	.LVU508
	.quad	.LBB3200
	.quad	.LBE3200-.LBB3200
	.byte	0x1
	.byte	0x79
	.byte	0x32
	.uleb128 0x4
	.long	0x1235a
	.long	.LLST515
	.long	.LVUS515
	.byte	0
	.byte	0
	.byte	0
	.uleb128 0x4c
	.long	.LLRL516
	.long	0xef07
	.uleb128 0x30
	.string	"y"
	.byte	0xda
	.byte	0x16
	.long	0x4f
	.long	.LLST517
	.long	.LVUS517
	.uleb128 0x44
	.long	.LLRL518
	.uleb128 0x5c
	.string	"vp"
	.byte	0xdb
	.byte	0x1e
	.long	0xa804
	.uleb128 0x2b
	.long	.LASF1454
	.byte	0x1
	.byte	0xdc
	.byte	0x20
	.long	0x9ff6
	.uleb128 0x4c
	.long	.LLRL519
	.long	0xeed5
	.uleb128 0x30
	.string	"x"
	.byte	0xdd
	.byte	0x1a
	.long	0x4f
	.long	.LLST520
	.long	.LVUS520
	.uleb128 0x44
	.long	.LLRL521
	.uleb128 0x30
	.string	"c"
	.byte	0xde
	.byte	0x19
	.long	0x4f
	.long	.LLST522
	.long	.LVUS522
	.uleb128 0x2f
	.long	.LASF1455
	.byte	0xe3
	.byte	0x1b
	.long	0x30
	.long	.LLST523
	.long	.LVUS523
	.uleb128 0x44
	.long	.LLRL524
	.uleb128 0x30
	.string	"ch"
	.byte	0xe4
	.byte	0x1e
	.long	0x4f
	.long	.LLST525
	.long	.LVUS525
	.uleb128 0x44
	.long	.LLRL526
	.uleb128 0x30
	.string	"v"
	.byte	0xe5
	.byte	0x1f
	.long	0x30
	.long	.LLST527
	.long	.LVUS527
	.byte	0
	.byte	0
	.byte	0
	.byte	0
	.uleb128 0x20
	.long	0xcb92
	.quad	.LBI3227
	.value	.LVU1159
	.quad	.LBB3227
	.quad	.LBE3227-.LBB3227
	.byte	0x1
	.byte	0xdc
	.byte	0x37
	.uleb128 0x4
	.long	0xcba0
	.long	.LLST528
	.long	.LVUS528
	.byte	0
	.byte	0
	.byte	0
	.uleb128 0x2a
	.long	0x12067
	.quad	.LBI3238
	.value	.LVU417
	.long	.LLRL529
	.byte	0x1
	.byte	0x66
	.byte	0x2c
	.long	0xef34
	.uleb128 0x3
	.long	0x1207a
	.uleb128 0x4
	.long	0x12086
	.long	.LLST530
	.long	.LVUS530
	.byte	0
	.uleb128 0x1d
	.long	0xc92e
	.quad	.LBI3245
	.value	.LVU427
	.quad	.LBB3245
	.quad	.LBE3245-.LBB3245
	.byte	0x1
	.byte	0x6b
	.byte	0x26
	.long	0xef8e
	.uleb128 0x3
	.long	0xc93c
	.uleb128 0x13
	.long	0xbfba
	.quad	.LBI3246
	.value	.LVU428
	.quad	.LBB3246
	.quad	.LBE3246-.LBB3246
	.byte	0x2
	.value	0x3dd
	.byte	0x10
	.uleb128 0x3
	.long	0xbfc8
	.uleb128 0x3
	.long	0xbfd1
	.byte	0
	.byte	0
	.uleb128 0x34
	.long	0xc909
	.quad	.LBI3247
	.value	.LVU430
	.long	.LLRL531
	.byte	0x1
	.byte	0x6a
	.byte	0x16
	.byte	0x1
	.long	0xefea
	.uleb128 0x3
	.long	0xc917
	.uleb128 0x4
	.long	0xc920
	.long	.LLST533
	.long	.LVUS533
	.uleb128 0x13
	.long	0xbfba
	.quad	.LBI3249
	.value	.LVU431
	.quad	.LBB3249
	.quad	.LBE3249-.LBB3249
	.byte	0x3
	.value	0x47c
	.byte	0x10
	.uleb128 0x3
	.long	0xbfc8
	.uleb128 0x3
	.long	0xbfd1
	.byte	0
	.byte	0
	.uleb128 0x47
	.long	0xc92e
	.quad	.LBI3251
	.value	.LVU433
	.quad	.LBB3251
	.quad	.LBE3251-.LBB3251
	.byte	0x6a
	.byte	0x16
	.byte	0x2
	.long	0xf044
	.uleb128 0x3
	.long	0xc93c
	.uleb128 0x13
	.long	0xbfba
	.quad	.LBI3252
	.value	.LVU434
	.quad	.LBB3252
	.quad	.LBE3252-.LBB3252
	.byte	0x2
	.value	0x3dd
	.byte	0x10
	.uleb128 0x3
	.long	0xbfc8
	.uleb128 0x3
	.long	0xbfd1
	.byte	0
	.byte	0
	.uleb128 0x9d
	.long	0xc8c5
	.quad	.LBI3253
	.value	.LVU436
	.long	.LLRL534
	.byte	0x1
	.byte	0x6a
	.byte	0x16
	.byte	0x3
	.uleb128 0x3
	.long	0xc8e1
	.uleb128 0x3
	.long	0xc8ee
	.uleb128 0x3
	.long	0xc8fb
	.uleb128 0x1b
	.long	0xbf76
	.quad	.LBI3254
	.value	.LVU437
	.long	.LLRL534
	.byte	0xa
	.value	0x3f0
	.byte	0x14
	.uleb128 0x3
	.long	0xbf92
	.uleb128 0x3
	.long	0xbf9f
	.uleb128 0x3
	.long	0xbfac
	.uleb128 0x1b
	.long	0xb629
	.quad	.LBI3255
	.value	.LVU438
	.long	.LLRL534
	.byte	0xa
	.value	0x3d1
	.byte	0x15
	.uleb128 0x3
	.long	0xb64e
	.uleb128 0x3
	.long	0xb65b
	.uleb128 0x3
	.long	0xb668
	.uleb128 0x6a
	.long	0xb053
	.quad	.LBI3256
	.value	.LVU439
	.long	.LLRL534
	.byte	0xa
	.value	0x3bf
	.byte	0x15
	.byte	0x2
	.uleb128 0x3
	.long	0xb06f
	.uleb128 0x3
	.long	0xb07c
	.uleb128 0x3
	.long	0xb089
	.uleb128 0x31
	.long	0xb096
	.long	.LLST539
	.long	.LVUS539
	.uleb128 0x31
	.long	0xb0b1
	.long	.LLST540
	.long	.LVUS540
	.uleb128 0x4d
	.quad	.LVL85
	.uleb128 0x1
	.byte	0x30
	.uleb128 0x32
	.quad	.LVL86
	.long	0x124de
	.uleb128 0x21
	.uleb128 0x1
	.byte	0x54
	.uleb128 0x1
	.byte	0x30
	.uleb128 0x21
	.uleb128 0x1
	.byte	0x51
	.uleb128 0x12
	.byte	0x77
	.sleb128 72
	.byte	0x94
	.byte	0x4
	.byte	0x7d
	.sleb128 0
	.byte	0x1e
	.byte	0x33
	.byte	0x1e
	.byte	0x8
	.byte	0x20
	.byte	0x24
	.byte	0x8
	.byte	0x20
	.byte	0x26
	.byte	0x32
	.byte	0x24
	.byte	0
	.byte	0
	.byte	0
	.byte	0
	.byte	0
	.byte	0
	.byte	0
	.uleb128 0x68
	.long	0x12067
	.quad	.LBI3271
	.value	.LVU400
	.long	.LLRL541
	.byte	0x1
	.byte	0x62
	.byte	0x28
	.uleb128 0x3
	.long	0x1207a
	.uleb128 0x4
	.long	0x12086
	.long	.LLST542
	.long	.LVUS542
	.byte	0
	.byte	0
	.byte	0
	.uleb128 0x2a
	.long	0x12229
	.quad	.LBI2444
	.value	.LVU25
	.long	.LLRL7
	.byte	0x1
	.byte	0x29
	.byte	0xf
	.long	0xf27c
	.uleb128 0x4
	.long	0x12239
	.long	.LLST8
	.long	.LVUS8
	.uleb128 0x68
	.long	0x1225a
	.quad	.LBI2445
	.value	.LVU26
	.long	.LLRL7
	.byte	0x4
	.byte	0xb
	.byte	0x8
	.uleb128 0x4
	.long	0x12268
	.long	.LLST9
	.long	.LVUS9
	.uleb128 0x1b
	.long	0x12289
	.quad	.LBI2446
	.value	.LVU27
	.long	.LLRL7
	.byte	0x2
	.value	0x227
	.byte	0x7
	.uleb128 0x4
	.long	0x12297
	.long	.LLST10
	.long	.LVUS10
	.uleb128 0x1b
	.long	0xcddc
	.quad	.LBI2447
	.value	.LVU28
	.long	.LLRL7
	.byte	0x2
	.value	0x141
	.byte	0x7
	.uleb128 0x4
	.long	0xcdea
	.long	.LLST11
	.long	.LVUS11
	.uleb128 0x34
	.long	0xc82a
	.quad	.LBI2448
	.value	.LVU32
	.long	.LLRL12
	.byte	0x2
	.byte	0x94
	.byte	0x13
	.byte	0x1
	.long	0xf218
	.uleb128 0x4
	.long	0xc838
	.long	.LLST13
	.long	.LVUS13
	.byte	0
	.uleb128 0x20
	.long	0xc859
	.quad	.LBI2452
	.value	.LVU29
	.quad	.LBB2452
	.quad	.LBE2452-.LBB2452
	.byte	0x2
	.byte	0x94
	.byte	0x13
	.uleb128 0x4
	.long	0xc867
	.long	.LLST14
	.long	.LVUS14
	.uleb128 0x20
	.long	0xbead
	.quad	.LBI2453
	.value	.LVU30
	.quad	.LBB2453
	.quad	.LBE2453-.LBB2453
	.byte	0x5
	.byte	0xa8
	.byte	0x24
	.uleb128 0x4
	.long	0xbebb
	.long	.LLST15
	.long	.LVUS15
	.byte	0
	.byte	0
	.byte	0
	.byte	0
	.byte	0
	.byte	0
	.uleb128 0x2a
	.long	0xce0b
	.quad	.LBI2461
	.value	.LVU7
	.long	.LLRL16
	.byte	0x1
	.byte	0x24
	.byte	0x2d
	.long	0xf2f3
	.uleb128 0x4
	.long	0xce19
	.long	.LLST17
	.long	.LVUS17
	.uleb128 0x1b
	.long	0xcbc2
	.quad	.LBI2462
	.value	.LVU9
	.long	.LLRL16
	.byte	0x2
	.value	0x539
	.byte	0xf
	.uleb128 0x4
	.long	0xcbd0
	.long	.LLST18
	.long	.LVUS18
	.uleb128 0x1b
	.long	0xc4ea
	.quad	.LBI2463
	.value	.LVU10
	.long	.LLRL16
	.byte	0x2
	.value	0x3dd
	.byte	0x10
	.uleb128 0x3
	.long	0xc4f8
	.uleb128 0x4
	.long	0xc501
	.long	.LLST19
	.long	.LVUS19
	.byte	0
	.byte	0
	.byte	0
	.uleb128 0x1d
	.long	0xce0b
	.quad	.LBI2469
	.value	.LVU17
	.quad	.LBB2469
	.quad	.LBE2469-.LBB2469
	.byte	0x1
	.byte	0x25
	.byte	0x2d
	.long	0xf38e
	.uleb128 0x4
	.long	0xce19
	.long	.LLST20
	.long	.LVUS20
	.uleb128 0x13
	.long	0xcbc2
	.quad	.LBI2470
	.value	.LVU19
	.quad	.LBB2470
	.quad	.LBE2470-.LBB2470
	.byte	0x2
	.value	0x539
	.byte	0xf
	.uleb128 0x4
	.long	0xcbd0
	.long	.LLST21
	.long	.LVUS21
	.uleb128 0x13
	.long	0xc4ea
	.quad	.LBI2471
	.value	.LVU20
	.quad	.LBB2471
	.quad	.LBE2471-.LBB2471
	.byte	0x2
	.value	0x3dd
	.byte	0x10
	.uleb128 0x3
	.long	0xc4f8
	.uleb128 0x4
	.long	0xc501
	.long	.LLST22
	.long	.LVUS22
	.byte	0
	.byte	0
	.byte	0
	.uleb128 0x2a
	.long	0xcd03
	.quad	.LBI2473
	.value	.LVU39
	.long	.LLRL23
	.byte	0x1
	.byte	0x2c
	.byte	0x17
	.long	0xfb31
	.uleb128 0x4
	.long	0xcd11
	.long	.LLST24
	.long	.LVUS24
	.uleb128 0x4
	.long	0xcd1a
	.long	.LLST25
	.long	.LVUS25
	.uleb128 0x3
	.long	0xcd27
	.uleb128 0x1b
	.long	0xc713
	.quad	.LBI2474
	.value	.LVU40
	.long	.LLRL23
	.byte	0x2
	.value	0x362
	.byte	0x17
	.uleb128 0x4
	.long	0xc721
	.long	.LLST27
	.long	.LVUS27
	.uleb128 0x4
	.long	0xc72a
	.long	.LLST28
	.long	.LVUS28
	.uleb128 0x3
	.long	0xc737
	.uleb128 0xd2
	.long	0xc744
	.byte	0
	.uleb128 0x76
	.long	0xc751
	.long	.LLRL30
	.uleb128 0x3b
	.long	0xc757
	.uleb128 0x5e
	.long	0xbdc5
	.quad	.LBI2478
	.value	.LVU1291
	.long	.LLRL31
	.byte	0x7
	.value	0x11a
	.byte	0xb
	.byte	0x1
	.long	0xf89d
	.uleb128 0x4
	.long	0xbdd3
	.long	.LLST32
	.long	.LVUS32
	.uleb128 0x4
	.long	0xbddc
	.long	.LLST33
	.long	.LVUS33
	.uleb128 0x3
	.long	0xbde9
	.uleb128 0x4
	.long	0xbdf6
	.long	.LLST35
	.long	.LVUS35
	.uleb128 0x3f
	.long	0xb59b
	.quad	.LBI2479
	.value	.LVU1292
	.long	.LLRL36
	.byte	0x2
	.value	0x24f
	.byte	0x2f
	.long	0xf56f
	.uleb128 0x4
	.long	0xb5a5
	.long	.LLST37
	.long	.LVUS37
	.uleb128 0x4
	.long	0xb5b2
	.long	.LLST38
	.long	.LVUS38
	.uleb128 0x2d
	.long	0xbf08
	.quad	.LBI2481
	.value	.LVU1293
	.quad	.LBB2481
	.quad	.LBE2481-.LBB2481
	.byte	0x2
	.value	0x89d
	.byte	0x18
	.long	0xf4fe
	.uleb128 0x3
	.long	0xbf16
	.uleb128 0x4
	.long	0xbf1f
	.long	.LLST39
	.long	.LVUS39
	.uleb128 0x20
	.long	0xb5f0
	.quad	.LBI2482
	.value	.LVU1294
	.quad	.LBB2482
	.quad	.LBE2482-.LBB2482
	.byte	0x5
	.byte	0xad
	.byte	0x22
	.uleb128 0x3
	.long	0xb5fe
	.uleb128 0x4
	.long	0xb607
	.long	.LLST40
	.long	.LVUS40
	.byte	0
	.byte	0
	.uleb128 0x69
	.long	0xcdad
	.quad	.LBI2483
	.value	.LVU1296
	.quad	.LBB2483
	.quad	.LBE2483-.LBB2483
	.value	0x89d
	.byte	0x18
	.byte	0x2
	.long	0xf553
	.uleb128 0x3
	.long	0xcdbb
	.uleb128 0x20
	.long	0xc7fb
	.quad	.LBI2484
	.value	.LVU1297
	.quad	.LBB2484
	.quad	.LBE2484-.LBB2484
	.byte	0x5
	.byte	0xbd
	.byte	0x27
	.uleb128 0x3
	.long	0xc809
	.byte	0
	.byte	0
	.uleb128 0x32
	.quad	.LVL250
	.long	0x6d8b
	.uleb128 0x21
	.uleb128 0x1
	.byte	0x55
	.uleb128 0x9
	.byte	0x3
	.quad	.LC0
	.byte	0
	.byte	0
	.uleb128 0x5e
	.long	0xb548
	.quad	.LBI2486
	.value	.LVU1300
	.long	.LLRL41
	.byte	0x2
	.value	0x24f
	.byte	0x2f
	.byte	0x1
	.long	0xf7b0
	.uleb128 0x4
	.long	0xb556
	.long	.LLST42
	.long	.LVUS42
	.uleb128 0x4
	.long	0xb55f
	.long	.LLST43
	.long	.LVUS43
	.uleb128 0x4
	.long	0xb56c
	.long	.LLST44
	.long	.LVUS44
	.uleb128 0x2d
	.long	0xafe1
	.quad	.LBI2487
	.value	.LVU1301
	.quad	.LBB2487
	.quad	.LBE2487-.LBB2487
	.byte	0x2
	.value	0x154
	.byte	0x9
	.long	0xf6a2
	.uleb128 0x4
	.long	0xafef
	.long	.LLST45
	.long	.LVUS45
	.uleb128 0x4
	.long	0xaff8
	.long	.LLST46
	.long	.LVUS46
	.uleb128 0x1d
	.long	0xbf08
	.quad	.LBI2488
	.value	.LVU1302
	.quad	.LBB2488
	.quad	.LBE2488-.LBB2488
	.byte	0x2
	.byte	0x99
	.byte	0x16
	.long	0xf671
	.uleb128 0x4
	.long	0xbf16
	.long	.LLST47
	.long	.LVUS47
	.uleb128 0x4
	.long	0xbf1f
	.long	.LLST48
	.long	.LVUS48
	.uleb128 0x20
	.long	0xb5f0
	.quad	.LBI2489
	.value	.LVU1303
	.quad	.LBB2489
	.quad	.LBE2489-.LBB2489
	.byte	0x5
	.byte	0xad
	.byte	0x22
	.uleb128 0x4
	.long	0xb5fe
	.long	.LLST49
	.long	.LVUS49
	.uleb128 0x4
	.long	0xb607
	.long	.LLST50
	.long	.LVUS50
	.byte	0
	.byte	0
	.uleb128 0x6b
	.long	0xc82a
	.quad	.LBI2490
	.value	.LVU1305
	.quad	.LBB2490
	.quad	.LBE2490-.LBB2490
	.byte	0x2
	.byte	0x99
	.byte	0x1
	.uleb128 0x4
	.long	0xc838
	.long	.LLST51
	.long	.LVUS51
	.byte	0
	.byte	0
	.uleb128 0x1b
	.long	0xafbc
	.quad	.LBI2491
	.value	.LVU1307
	.long	.LLRL52
	.byte	0x2
	.value	0x155
	.byte	0x1a
	.uleb128 0x4
	.long	0xafca
	.long	.LLST53
	.long	.LVUS53
	.uleb128 0x4
	.long	0xafd3
	.long	.LLST54
	.long	.LVUS54
	.uleb128 0x13
	.long	0xad06
	.quad	.LBI2493
	.value	.LVU1308
	.quad	.LBB2493
	.quad	.LBE2493-.LBB2493
	.byte	0x2
	.value	0x197
	.byte	0x2c
	.uleb128 0x4
	.long	0xad14
	.long	.LLST55
	.long	.LVUS55
	.uleb128 0x4
	.long	0xad1d
	.long	.LLST56
	.long	.LVUS56
	.uleb128 0x77
	.long	0xaaa6
	.quad	.LBI2495
	.value	.LVU1309
	.quad	.LBB2495
	.quad	.LBE2495-.LBB2495
	.value	0x185
	.byte	0x21
	.byte	0x1
	.uleb128 0x4
	.long	0xaab0
	.long	.LLST57
	.long	.LVUS57
	.uleb128 0x4
	.long	0xaabd
	.long	.LLST58
	.long	.LVUS58
	.uleb128 0x13
	.long	0xa9cd
	.quad	.LBI2496
	.value	.LVU1310
	.quad	.LBB2496
	.quad	.LBE2496-.LBB2496
	.byte	0x8
	.value	0x27e
	.byte	0x1c
	.uleb128 0x4
	.long	0xa9db
	.long	.LLST59
	.long	.LVUS59
	.uleb128 0x4
	.long	0xa9e4
	.long	.LLST60
	.long	.LVUS60
	.uleb128 0x4
	.long	0xa9f0
	.long	.LLST61
	.long	.LVUS61
	.uleb128 0x32
	.quad	.LVL210
	.long	0xa96f
	.uleb128 0x21
	.uleb128 0x1
	.byte	0x55
	.uleb128 0x2
	.byte	0x7d
	.sleb128 0
	.byte	0
	.byte	0
	.byte	0
	.byte	0
	.byte	0
	.byte	0
	.uleb128 0x1b
	.long	0xb516
	.quad	.LBI2500
	.value	.LVU1317
	.long	.LLRL62
	.byte	0x2
	.value	0x250
	.byte	0x1b
	.uleb128 0x4
	.long	0xb524
	.long	.LLST63
	.long	.LVUS63
	.uleb128 0x4
	.long	0xb52d
	.long	.LLST64
	.long	.LVUS64
	.uleb128 0x3
	.long	0xb53a
	.uleb128 0x1b
	.long	0xbcc6
	.quad	.LBI2501
	.value	.LVU1318
	.long	.LLRL62
	.byte	0x2
	.value	0x7c6
	.byte	0x21
	.uleb128 0x4
	.long	0xbcf4
	.long	.LLST66
	.long	.LVUS66
	.uleb128 0x4
	.long	0xbd01
	.long	.LLST67
	.long	.LVUS67
	.uleb128 0x3
	.long	0xbd0e
	.uleb128 0x4
	.long	0xbd1b
	.long	.LLST69
	.long	.LVUS69
	.uleb128 0x1b
	.long	0xb40f
	.quad	.LBI2502
	.value	.LVU1319
	.long	.LLRL62
	.byte	0xc
	.value	0x30a
	.byte	0x27
	.uleb128 0x4
	.long	0xb434
	.long	.LLST70
	.long	.LVUS70
	.uleb128 0x4
	.long	0xb441
	.long	.LLST71
	.long	.LVUS71
	.uleb128 0x3
	.long	0xb44e
	.uleb128 0x76
	.long	0xb45b
	.long	.LLRL73
	.uleb128 0x76
	.long	0xb45c
	.long	.LLRL74
	.uleb128 0x31
	.long	0xb45d
	.long	.LLST75
	.long	.LVUS75
	.uleb128 0x32
	.quad	.LVL212
	.long	0x124de
	.uleb128 0x21
	.uleb128 0x1
	.byte	0x54
	.uleb128 0x1
	.byte	0x30
	.uleb128 0x21
	.uleb128 0x1
	.byte	0x51
	.uleb128 0x2
	.byte	0x7d
	.sleb128 0
	.byte	0
	.byte	0
	.byte	0
	.byte	0
	.byte	0
	.byte	0
	.byte	0
	.uleb128 0x2d
	.long	0xbd95
	.quad	.LBI2514
	.value	.LVU1323
	.quad	.LBB2514
	.quad	.LBE2514-.LBB2514
	.byte	0x7
	.value	0x11b
	.byte	0x1e
	.long	0xf955
	.uleb128 0x4
	.long	0xbda3
	.long	.LLST76
	.long	.LVUS76
	.uleb128 0x4
	.long	0xbdac
	.long	.LLST77
	.long	.LVUS77
	.uleb128 0x3b
	.long	0xbdb8
	.uleb128 0x1d
	.long	0xc82a
	.quad	.LBI2516
	.value	.LVU1324
	.quad	.LBB2516
	.quad	.LBE2516-.LBB2516
	.byte	0x2
	.byte	0x84
	.byte	0x16
	.long	0xf917
	.uleb128 0x4
	.long	0xc838
	.long	.LLST78
	.long	.LVUS78
	.byte	0
	.uleb128 0x20
	.long	0xb4f2
	.quad	.LBI2517
	.value	.LVU1326
	.quad	.LBB2517
	.quad	.LBE2517-.LBB2517
	.byte	0x2
	.byte	0x87
	.byte	0x14
	.uleb128 0x4
	.long	0xb500
	.long	.LLST79
	.long	.LVUS79
	.uleb128 0x4
	.long	0xb509
	.long	.LLST80
	.long	.LVUS80
	.byte	0
	.byte	0
	.uleb128 0x13
	.long	0xcd35
	.quad	.LBI2519
	.value	.LVU1332
	.quad	.LBB2519
	.quad	.LBE2519-.LBB2519
	.byte	0x7
	.value	0x11c
	.byte	0x2
	.uleb128 0x4
	.long	0xcd43
	.long	.LLST81
	.long	.LVUS81
	.uleb128 0x2d
	.long	0xc7b1
	.quad	.LBI2520
	.value	.LVU1333
	.quad	.LBB2520
	.quad	.LBE2520-.LBB2520
	.byte	0x2
	.value	0x319
	.byte	0x1c
	.long	0xf9ba
	.uleb128 0x4
	.long	0xc7bf
	.long	.LLST82
	.long	.LVUS82
	.byte	0
	.uleb128 0x2d
	.long	0xc775
	.quad	.LBI2521
	.value	.LVU1335
	.quad	.LBB2521
	.quad	.LBE2521-.LBB2521
	.byte	0x2
	.value	0x318
	.byte	0xf
	.long	0xf9f9
	.uleb128 0x3
	.long	0xc791
	.uleb128 0x3
	.long	0xc79e
	.uleb128 0x4
	.long	0xc7ab
	.long	.LLST83
	.long	.LVUS83
	.byte	0
	.uleb128 0x13
	.long	0xcd64
	.quad	.LBI2522
	.value	.LVU1337
	.quad	.LBB2522
	.quad	.LBE2522-.LBB2522
	.byte	0x2
	.value	0x31b
	.byte	0x7
	.uleb128 0x4
	.long	0xcd72
	.long	.LLST84
	.long	.LVUS84
	.uleb128 0x78
	.long	0xcd7b
	.quad	.LBB2523
	.quad	.LBE2523-.LBB2523
	.long	0xfa9b
	.uleb128 0x31
	.long	0xcd7c
	.long	.LLST85
	.long	.LVUS85
	.uleb128 0x13
	.long	0xc7c9
	.quad	.LBI2524
	.value	.LVU1338
	.quad	.LBB2524
	.quad	.LBE2524-.LBB2524
	.byte	0x2
	.value	0x17a
	.byte	0xf
	.uleb128 0x4
	.long	0xc7d7
	.long	.LLST86
	.long	.LVUS86
	.uleb128 0x4
	.long	0xc7e0
	.long	.LLST87
	.long	.LVUS87
	.uleb128 0x4
	.long	0xc7ed
	.long	.LLST87
	.long	.LVUS87
	.byte	0
	.byte	0
	.uleb128 0x13
	.long	0x122b8
	.quad	.LBI2525
	.value	.LVU1340
	.quad	.LBB2525
	.quad	.LBE2525-.LBB2525
	.byte	0x2
	.value	0x17b
	.byte	0x7
	.uleb128 0x4
	.long	0x122c8
	.long	.LLST89
	.long	.LVUS89
	.uleb128 0x20
	.long	0xcdad
	.quad	.LBI2526
	.value	.LVU1341
	.quad	.LBB2526
	.quad	.LBE2526-.LBB2526
	.byte	0x2
	.byte	0x8b
	.byte	0xe
	.uleb128 0x4
	.long	0xcdbb
	.long	.LLST90
	.long	.LVUS90
	.uleb128 0x20
	.long	0xc7fb
	.quad	.LBI2527
	.value	.LVU1342
	.quad	.LBB2527
	.quad	.LBE2527-.LBB2527
	.byte	0x5
	.byte	0xbd
	.byte	0x27
	.uleb128 0x4
	.long	0xc809
	.long	.LLST91
	.long	.LVUS91
	.byte	0
	.byte	0
	.byte	0
	.byte	0
	.byte	0
	.byte	0
	.byte	0
	.byte	0
	.uleb128 0x2a
	.long	0x12175
	.quad	.LBI2536
	.value	.LVU44
	.long	.LLRL92
	.byte	0x1
	.byte	0x2f
	.byte	0x1c
	.long	0xfc15
	.uleb128 0x4
	.long	0x12183
	.long	.LLST93
	.long	.LVUS93
	.uleb128 0x1b
	.long	0x121a0
	.quad	.LBI2537
	.value	.LVU45
	.long	.LLRL92
	.byte	0x2
	.value	0x227
	.byte	0x7
	.uleb128 0x4
	.long	0x121ae
	.long	.LLST94
	.long	.LVUS94
	.uleb128 0x1b
	.long	0xccd8
	.quad	.LBI2538
	.value	.LVU46
	.long	.LLRL92
	.byte	0x2
	.value	0x141
	.byte	0x7
	.uleb128 0x4
	.long	0xcce6
	.long	.LLST95
	.long	.LVUS95
	.uleb128 0x2a
	.long	0xc6e8
	.quad	.LBI2539
	.value	.LVU47
	.long	.LLRL96
	.byte	0x2
	.byte	0x94
	.byte	0x13
	.long	0xfbec
	.uleb128 0x4
	.long	0xc6f6
	.long	.LLST97
	.long	.LVUS97
	.uleb128 0x68
	.long	0xbc1a
	.quad	.LBI2540
	.value	.LVU48
	.long	.LLRL96
	.byte	0x5
	.byte	0xa8
	.byte	0x24
	.uleb128 0x4
	.long	0xbc28
	.long	.LLST98
	.long	.LVUS98
	.byte	0
	.byte	0
	.uleb128 0x9d
	.long	0xc6bd
	.quad	.LBI2542
	.value	.LVU50
	.long	.LLRL99
	.byte	0x2
	.byte	0x94
	.byte	0x13
	.byte	0x1
	.uleb128 0x4
	.long	0xc6cb
	.long	.LLST100
	.long	.LVUS100
	.byte	0
	.byte	0
	.byte	0
	.byte	0
	.uleb128 0x2a
	.long	0xcc18
	.quad	.LBI2567
	.value	.LVU53
	.long	.LLRL101
	.byte	0x1
	.byte	0x30
	.byte	0x13
	.long	0xfc42
	.uleb128 0x4
	.long	0xcc26
	.long	.LLST102
	.long	.LVUS102
	.uleb128 0x3b
	.long	0xcc2f
	.byte	0
	.uleb128 0x34
	.long	0xcbda
	.quad	.LBI2572
	.value	.LVU56
	.long	.LLRL103
	.byte	0x1
	.byte	0x30
	.byte	0x13
	.byte	0x1
	.long	0xfd6b
	.uleb128 0x4
	.long	0xcbe8
	.long	.LLST104
	.long	.LVUS104
	.uleb128 0x4
	.long	0xcbf1
	.long	.LLST105
	.long	.LVUS105
	.uleb128 0x9e
	.long	0xcbfd
	.quad	.LBB2574
	.quad	.LBE2574-.LBB2574
	.uleb128 0x31
	.long	0xcbfe
	.long	.LLST106
	.long	.LVUS106
	.uleb128 0x31
	.long	0xcc0a
	.long	.LLST107
	.long	.LVUS107
	.uleb128 0x20
	.long	0xc585
	.quad	.LBI2575
	.value	.LVU61
	.quad	.LBB2575
	.quad	.LBE2575-.LBB2575
	.byte	0x7
	.byte	0x52
	.byte	0x21
	.uleb128 0x4
	.long	0xc593
	.long	.LLST108
	.long	.LVUS108
	.uleb128 0x3
	.long	0xc59c
	.uleb128 0x77
	.long	0xbb4d
	.quad	.LBI2577
	.value	.LVU62
	.quad	.LBB2577
	.quad	.LBE2577-.LBB2577
	.value	0x185
	.byte	0x21
	.byte	0x1
	.uleb128 0x4
	.long	0xbb57
	.long	.LLST109
	.long	.LVUS109
	.uleb128 0x3
	.long	0xbb64
	.uleb128 0x13
	.long	0xb332
	.quad	.LBI2578
	.value	.LVU63
	.quad	.LBB2578
	.quad	.LBE2578-.LBB2578
	.byte	0x8
	.value	0x27e
	.byte	0x1c
	.uleb128 0x4
	.long	0xb355
	.long	.LLST110
	.long	.LVUS110
	.uleb128 0x4
	.long	0xb340
	.long	.LLST111
	.long	.LVUS111
	.uleb128 0x3
	.long	0xb349
	.uleb128 0x32
	.quad	.LVL9
	.long	0xa96f
	.uleb128 0x21
	.uleb128 0x1
	.byte	0x55
	.uleb128 0x2
	.byte	0x7f
	.sleb128 0
	.byte	0
	.byte	0
	.byte	0
	.byte	0
	.byte	0
	.byte	0
	.uleb128 0x34
	.long	0xcc3d
	.quad	.LBI2706
	.value	.LVU1270
	.long	.LLRL196
	.byte	0x1
	.byte	0xee
	.byte	0x1
	.byte	0x3
	.long	0xffca
	.uleb128 0x4
	.long	0xcc4b
	.long	.LLST197
	.long	.LVUS197
	.uleb128 0x3f
	.long	0xcc68
	.quad	.LBI2707
	.value	.LVU1275
	.long	.LLRL198
	.byte	0x2
	.value	0x31b
	.byte	0x7
	.long	0xff59
	.uleb128 0x4
	.long	0xcc76
	.long	.LLST199
	.long	.LVUS199
	.uleb128 0x6c
	.long	0xcc7f
	.long	.LLRL200
	.long	0xfec7
	.uleb128 0x3b
	.long	0xcc80
	.uleb128 0x13
	.long	0xc660
	.quad	.LBI2709
	.value	.LVU1276
	.quad	.LBB2709
	.quad	.LBE2709-.LBB2709
	.byte	0x2
	.value	0x17a
	.byte	0xf
	.uleb128 0x4
	.long	0xc66e
	.long	.LLST201
	.long	.LVUS201
	.uleb128 0x3
	.long	0xc677
	.uleb128 0x3
	.long	0xc684
	.uleb128 0x13
	.long	0xc660
	.quad	.LBI2711
	.value	.LVU1278
	.quad	.LBB2711
	.quad	.LBE2711-.LBB2711
	.byte	0x2
	.value	0x18a
	.byte	0x7
	.uleb128 0x4
	.long	0xc66e
	.long	.LLST202
	.long	.LVUS202
	.uleb128 0x3
	.long	0xc677
	.uleb128 0x3
	.long	0xc684
	.uleb128 0x13
	.long	0xbbe8
	.quad	.LBI2713
	.value	.LVU1279
	.quad	.LBB2713
	.quad	.LBE2713-.LBB2713
	.byte	0x2
	.value	0x18e
	.byte	0x13
	.uleb128 0x3
	.long	0xbbf2
	.uleb128 0x3
	.long	0xbbff
	.uleb128 0x3
	.long	0xbc0c
	.uleb128 0x13
	.long	0xb373
	.quad	.LBI2714
	.value	.LVU1280
	.quad	.LBB2714
	.quad	.LBE2714-.LBB2714
	.byte	0x8
	.value	0x2b1
	.byte	0x17
	.uleb128 0x3
	.long	0xb381
	.uleb128 0x3
	.long	0xb38a
	.uleb128 0x3
	.long	0xb396
	.uleb128 0x32
	.quad	.LVL203
	.long	0xa954
	.uleb128 0x21
	.uleb128 0x1
	.byte	0x55
	.uleb128 0x4
	.byte	0x77
	.sleb128 80
	.byte	0x6
	.uleb128 0x21
	.uleb128 0x1
	.byte	0x54
	.uleb128 0x3
	.byte	0x77
	.sleb128 56
	.byte	0x6
	.byte	0
	.byte	0
	.byte	0
	.byte	0
	.byte	0
	.byte	0
	.uleb128 0x13
	.long	0x121cb
	.quad	.LBI2717
	.value	.LVU1283
	.quad	.LBB2717
	.quad	.LBE2717-.LBB2717
	.byte	0x2
	.value	0x17b
	.byte	0x7
	.uleb128 0x4
	.long	0x121db
	.long	.LLST203
	.long	.LVUS203
	.uleb128 0x20
	.long	0xccad
	.quad	.LBI2718
	.value	.LVU1284
	.quad	.LBB2718
	.quad	.LBE2718-.LBB2718
	.byte	0x2
	.byte	0x8b
	.byte	0xe
	.uleb128 0x4
	.long	0xccbb
	.long	.LLST204
	.long	.LVUS204
	.uleb128 0x20
	.long	0xc692
	.quad	.LBI2719
	.value	.LVU1285
	.quad	.LBB2719
	.quad	.LBE2719-.LBB2719
	.byte	0x5
	.byte	0xbd
	.byte	0x27
	.uleb128 0x4
	.long	0xc6a0
	.long	.LLST205
	.long	.LVUS205
	.byte	0
	.byte	0
	.byte	0
	.byte	0
	.uleb128 0x2d
	.long	0xc648
	.quad	.LBI2720
	.value	.LVU1271
	.quad	.LBB2720
	.quad	.LBE2720-.LBB2720
	.byte	0x2
	.value	0x319
	.byte	0x1c
	.long	0xff8e
	.uleb128 0x4
	.long	0xc656
	.long	.LLST206
	.long	.LVUS206
	.byte	0
	.uleb128 0x13
	.long	0xc60c
	.quad	.LBI2721
	.value	.LVU1273
	.quad	.LBB2721
	.quad	.LBE2721-.LBB2721
	.byte	0x2
	.value	0x318
	.byte	0xf
	.uleb128 0x3
	.long	0xc628
	.uleb128 0x3
	.long	0xc635
	.uleb128 0x4
	.long	0xc642
	.long	.LLST207
	.long	.LVUS207
	.byte	0
	.byte	0
	.uleb128 0x1d
	.long	0xcb3e
	.quad	.LBI2723
	.value	.LVU166
	.quad	.LBB2723
	.quad	.LBE2723-.LBB2723
	.byte	0x1
	.byte	0x47
	.byte	0x2e
	.long	0x1001e
	.uleb128 0x3
	.long	0xcb4c
	.uleb128 0x20
	.long	0xc3a8
	.quad	.LBI2724
	.value	.LVU167
	.quad	.LBB2724
	.quad	.LBE2724-.LBB2724
	.byte	0x5
	.byte	0xa8
	.byte	0x24
	.uleb128 0x3
	.long	0xc3b6
	.byte	0
	.byte	0
	.uleb128 0x34
	.long	0xcaaa
	.quad	.LBI2725
	.value	.LVU169
	.long	.LLRL210
	.byte	0x1
	.byte	0x47
	.byte	0x2e
	.byte	0x1
	.long	0x10494
	.uleb128 0x3
	.long	0xcab8
	.uleb128 0x4
	.long	0xcac1
	.long	.LLST211
	.long	.LVUS211
	.uleb128 0x3
	.long	0xcace
	.uleb128 0x3
	.long	0xcadb
	.uleb128 0x3f
	.long	0xc354
	.quad	.LBI2726
	.value	.LVU170
	.long	.LLRL214
	.byte	0x2
	.value	0x24f
	.byte	0x2f
	.long	0x10152
	.uleb128 0x4
	.long	0xc35e
	.long	.LLST215
	.long	.LVUS215
	.uleb128 0x3
	.long	0xc36b
	.uleb128 0x2d
	.long	0xb926
	.quad	.LBI2728
	.value	.LVU171
	.quad	.LBB2728
	.quad	.LBE2728-.LBB2728
	.byte	0x2
	.value	0x89d
	.byte	0x18
	.long	0x100e1
	.uleb128 0x3
	.long	0xb934
	.uleb128 0x3
	.long	0xb93d
	.uleb128 0x20
	.long	0xb2ae
	.quad	.LBI2729
	.value	.LVU172
	.quad	.LBB2729
	.quad	.LBE2729-.LBB2729
	.byte	0x5
	.byte	0xad
	.byte	0x22
	.uleb128 0x3
	.long	0xb2bc
	.uleb128 0x3
	.long	0xb2c5
	.byte	0
	.byte	0
	.uleb128 0x69
	.long	0xcb0f
	.quad	.LBI2730
	.value	.LVU174
	.quad	.LBB2730
	.quad	.LBE2730-.LBB2730
	.value	0x89d
	.byte	0x18
	.byte	0x2
	.long	0x10136
	.uleb128 0x3
	.long	0xcb1d
	.uleb128 0x20
	.long	0xc379
	.quad	.LBI2731
	.value	.LVU175
	.quad	.LBB2731
	.quad	.LBE2731-.LBB2731
	.byte	0x5
	.byte	0xbd
	.byte	0x27
	.uleb128 0x3
	.long	0xc387
	.byte	0
	.byte	0
	.uleb128 0x32
	.quad	.LVL253
	.long	0x6d8b
	.uleb128 0x21
	.uleb128 0x1
	.byte	0x55
	.uleb128 0x9
	.byte	0x3
	.quad	.LC0
	.byte	0
	.byte	0
	.uleb128 0x5e
	.long	0xc2d0
	.quad	.LBI2733
	.value	.LVU178
	.long	.LLRL219
	.byte	0x2
	.value	0x24f
	.byte	0x2f
	.byte	0x1
	.long	0x10308
	.uleb128 0x3
	.long	0xc2de
	.uleb128 0x4
	.long	0xc2e7
	.long	.LLST220
	.long	.LVUS220
	.uleb128 0x3
	.long	0xc2f4
	.uleb128 0x2d
	.long	0xb8e6
	.quad	.LBI2734
	.value	.LVU179
	.quad	.LBB2734
	.quad	.LBE2734-.LBB2734
	.byte	0x2
	.value	0x154
	.byte	0x9
	.long	0x1023d
	.uleb128 0x3
	.long	0xb8f4
	.uleb128 0x3
	.long	0xb8fd
	.uleb128 0x1d
	.long	0xb926
	.quad	.LBI2735
	.value	.LVU180
	.quad	.LBB2735
	.quad	.LBE2735-.LBB2735
	.byte	0x2
	.byte	0x99
	.byte	0x16
	.long	0x10214
	.uleb128 0x3
	.long	0xb934
	.uleb128 0x3
	.long	0xb93d
	.uleb128 0x20
	.long	0xb2ae
	.quad	.LBI2736
	.value	.LVU181
	.quad	.LBB2736
	.quad	.LBE2736-.LBB2736
	.byte	0x5
	.byte	0xad
	.byte	0x22
	.uleb128 0x3
	.long	0xb2bc
	.uleb128 0x3
	.long	0xb2c5
	.byte	0
	.byte	0
	.uleb128 0x6b
	.long	0xb27f
	.quad	.LBI2737
	.value	.LVU183
	.quad	.LBB2737
	.quad	.LBE2737-.LBB2737
	.byte	0x2
	.byte	0x99
	.byte	0x1
	.uleb128 0x3
	.long	0xb28d
	.byte	0
	.byte	0
	.uleb128 0x1b
	.long	0xb8c1
	.quad	.LBI2738
	.value	.LVU185
	.long	.LLRL225
	.byte	0x2
	.value	0x155
	.byte	0x1a
	.uleb128 0x3
	.long	0xb8cf
	.uleb128 0x4
	.long	0xb8d8
	.long	.LLST226
	.long	.LVUS226
	.uleb128 0x1b
	.long	0xb25a
	.quad	.LBI2740
	.value	.LVU186
	.long	.LLRL227
	.byte	0x2
	.value	0x197
	.byte	0x2c
	.uleb128 0x3
	.long	0xb268
	.uleb128 0x4
	.long	0xb271
	.long	.LLST228
	.long	.LVUS228
	.uleb128 0x6a
	.long	0xae85
	.quad	.LBI2742
	.value	.LVU188
	.long	.LLRL229
	.byte	0x2
	.value	0x185
	.byte	0x21
	.byte	0x1
	.uleb128 0x3
	.long	0xae8f
	.uleb128 0x4
	.long	0xae9c
	.long	.LLST230
	.long	.LVUS230
	.uleb128 0x1b
	.long	0xac65
	.quad	.LBI2743
	.value	.LVU189
	.long	.LLRL229
	.byte	0x8
	.value	0x27e
	.byte	0x1c
	.uleb128 0x3
	.long	0xac73
	.uleb128 0x4
	.long	0xac88
	.long	.LLST231
	.long	.LVUS231
	.uleb128 0x4
	.long	0xac7c
	.long	.LLST232
	.long	.LVUS232
	.uleb128 0x32
	.quad	.LVL41
	.long	0xa96f
	.uleb128 0x21
	.uleb128 0x1
	.byte	0x55
	.uleb128 0x2
	.byte	0x7e
	.sleb128 0
	.byte	0
	.byte	0
	.byte	0
	.byte	0
	.byte	0
	.byte	0
	.uleb128 0x1b
	.long	0xc255
	.quad	.LBI2756
	.value	.LVU195
	.long	.LLRL233
	.byte	0x2
	.value	0x250
	.byte	0x1b
	.uleb128 0x3
	.long	0xc263
	.uleb128 0x4
	.long	0xc26c
	.long	.LLST234
	.long	.LVUS234
	.uleb128 0x3
	.long	0xc279
	.uleb128 0x1b
	.long	0xb834
	.quad	.LBI2757
	.value	.LVU196
	.long	.LLRL233
	.byte	0x2
	.value	0x7c6
	.byte	0x21
	.uleb128 0x4
	.long	0xb862
	.long	.LLST236
	.long	.LVUS236
	.uleb128 0x4
	.long	0xb86f
	.long	.LLST237
	.long	.LVUS237
	.uleb128 0x3
	.long	0xb87c
	.uleb128 0x3
	.long	0xb889
	.uleb128 0x1b
	.long	0xb1db
	.quad	.LBI2758
	.value	.LVU197
	.long	.LLRL233
	.byte	0xc
	.value	0x30a
	.byte	0x27
	.uleb128 0x4
	.long	0xb200
	.long	.LLST239
	.long	.LVUS239
	.uleb128 0x4
	.long	0xb20d
	.long	.LLST240
	.long	.LVUS240
	.uleb128 0x3
	.long	0xb21a
	.uleb128 0x1b
	.long	0xadfb
	.quad	.LBI2760
	.value	.LVU198
	.long	.LLRL242
	.byte	0xc
	.value	0x253
	.byte	0x25
	.uleb128 0x4
	.long	0xae20
	.long	.LLST243
	.long	.LVUS243
	.uleb128 0x4
	.long	0xae2d
	.long	.LLST244
	.long	.LVUS244
	.uleb128 0x3
	.long	0xae3a
	.uleb128 0x3b
	.long	0xae47
	.uleb128 0x9f
	.long	0xabb8
	.long	.LLRL246
	.long	0x1041c
	.uleb128 0x3
	.long	0xabda
	.uleb128 0x3
	.long	0xabef
	.uleb128 0x32
	.quad	.LVL43
	.long	0x124de
	.uleb128 0x21
	.uleb128 0x1
	.byte	0x55
	.uleb128 0x4
	.byte	0x77
	.sleb128 64
	.byte	0x6
	.uleb128 0x21
	.uleb128 0x1
	.byte	0x54
	.uleb128 0x1
	.byte	0x30
	.uleb128 0x21
	.uleb128 0x1
	.byte	0x51
	.uleb128 0x2
	.byte	0x7e
	.sleb128 0
	.byte	0
	.byte	0
	.uleb128 0x2d
	.long	0xac25
	.quad	.LBI2765
	.value	.LVU199
	.quad	.LBB2765
	.quad	.LBE2765-.LBB2765
	.byte	0xc
	.value	0x1df
	.byte	0x2d
	.long	0x1045e
	.uleb128 0x4
	.long	0xac33
	.long	.LLST247
	.long	.LVUS247
	.uleb128 0x4
	.long	0xac3c
	.long	.LLST248
	.long	.LVUS248
	.byte	0
	.uleb128 0x13
	.long	0xabf6
	.quad	.LBI2767
	.value	.LVU205
	.quad	.LBB2767
	.quad	.LBE2767-.LBB2767
	.byte	0xc
	.value	0x1ef
	.byte	0x5
	.uleb128 0x4
	.long	0xac04
	.long	.LLST249
	.long	.LVUS249
	.byte	0
	.byte	0
	.byte	0
	.byte	0
	.byte	0
	.byte	0
	.uleb128 0x47
	.long	0xcb0f
	.quad	.LBI2777
	.value	.LVU207
	.quad	.LBB2777
	.quad	.LBE2777-.LBB2777
	.byte	0x47
	.byte	0x2e
	.byte	0x2
	.long	0x104e8
	.uleb128 0x3
	.long	0xcb1d
	.uleb128 0x20
	.long	0xc379
	.quad	.LBI2778
	.value	.LVU208
	.quad	.LBB2778
	.quad	.LBE2778-.LBB2778
	.byte	0x5
	.byte	0xbd
	.byte	0x27
	.uleb128 0x3
	.long	0xc387
	.byte	0
	.byte	0
	.uleb128 0x1d
	.long	0xcb3e
	.quad	.LBI2779
	.value	.LVU211
	.quad	.LBB2779
	.quad	.LBE2779-.LBB2779
	.byte	0x1
	.byte	0x48
	.byte	0x38
	.long	0x1053c
	.uleb128 0x3
	.long	0xcb4c
	.uleb128 0x20
	.long	0xc3a8
	.quad	.LBI2780
	.value	.LVU212
	.quad	.LBB2780
	.quad	.LBE2780-.LBB2780
	.byte	0x5
	.byte	0xa8
	.byte	0x24
	.uleb128 0x3
	.long	0xc3b6
	.byte	0
	.byte	0
	.uleb128 0x34
	.long	0xcaaa
	.quad	.LBI2781
	.value	.LVU217
	.long	.LLRL254
	.byte	0x1
	.byte	0x48
	.byte	0x38
	.byte	0x1
	.long	0x109a0
	.uleb128 0x3
	.long	0xcab8
	.uleb128 0x4
	.long	0xcac1
	.long	.LLST255
	.long	.LVUS255
	.uleb128 0x3
	.long	0xcace
	.uleb128 0x3
	.long	0xcadb
	.uleb128 0x3f
	.long	0xc354
	.quad	.LBI2782
	.value	.LVU218
	.long	.LLRL258
	.byte	0x2
	.value	0x24f
	.byte	0x2f
	.long	0x10670
	.uleb128 0x4
	.long	0xc35e
	.long	.LLST259
	.long	.LVUS259
	.uleb128 0x3
	.long	0xc36b
	.uleb128 0x2d
	.long	0xb926
	.quad	.LBI2784
	.value	.LVU219
	.quad	.LBB2784
	.quad	.LBE2784-.LBB2784
	.byte	0x2
	.value	0x89d
	.byte	0x18
	.long	0x105ff
	.uleb128 0x3
	.long	0xb934
	.uleb128 0x3
	.long	0xb93d
	.uleb128 0x20
	.long	0xb2ae
	.quad	.LBI2785
	.value	.LVU220
	.quad	.LBB2785
	.quad	.LBE2785-.LBB2785
	.byte	0x5
	.byte	0xad
	.byte	0x22
	.uleb128 0x3
	.long	0xb2bc
	.uleb128 0x3
	.long	0xb2c5
	.byte	0
	.byte	0
	.uleb128 0x69
	.long	0xcb0f
	.quad	.LBI2786
	.value	.LVU222
	.quad	.LBB2786
	.quad	.LBE2786-.LBB2786
	.value	0x89d
	.byte	0x18
	.byte	0x2
	.long	0x10654
	.uleb128 0x3
	.long	0xcb1d
	.uleb128 0x20
	.long	0xc379
	.quad	.LBI2787
	.value	.LVU223
	.quad	.LBB2787
	.quad	.LBE2787-.LBB2787
	.byte	0x5
	.byte	0xbd
	.byte	0x27
	.uleb128 0x3
	.long	0xc387
	.byte	0
	.byte	0
	.uleb128 0x32
	.quad	.LVL251
	.long	0x6d8b
	.uleb128 0x21
	.uleb128 0x1
	.byte	0x55
	.uleb128 0x9
	.byte	0x3
	.quad	.LC0
	.byte	0
	.byte	0
	.uleb128 0x5e
	.long	0xc2d0
	.quad	.LBI2789
	.value	.LVU227
	.long	.LLRL263
	.byte	0x2
	.value	0x24f
	.byte	0x2f
	.byte	0x1
	.long	0x10816
	.uleb128 0x3
	.long	0xc2de
	.uleb128 0x4
	.long	0xc2e7
	.long	.LLST264
	.long	.LVUS264
	.uleb128 0x3
	.long	0xc2f4
	.uleb128 0x2d
	.long	0xb8e6
	.quad	.LBI2790
	.value	.LVU228
	.quad	.LBB2790
	.quad	.LBE2790-.LBB2790
	.byte	0x2
	.value	0x154
	.byte	0x9
	.long	0x1075b
	.uleb128 0x3
	.long	0xb8f4
	.uleb128 0x3
	.long	0xb8fd
	.uleb128 0x1d
	.long	0xb926
	.quad	.LBI2791
	.value	.LVU229
	.quad	.LBB2791
	.quad	.LBE2791-.LBB2791
	.byte	0x2
	.byte	0x99
	.byte	0x16
	.long	0x10732
	.uleb128 0x3
	.long	0xb934
	.uleb128 0x3
	.long	0xb93d
	.uleb128 0x20
	.long	0xb2ae
	.quad	.LBI2792
	.value	.LVU230
	.quad	.LBB2792
	.quad	.LBE2792-.LBB2792
	.byte	0x5
	.byte	0xad
	.byte	0x22
	.uleb128 0x3
	.long	0xb2bc
	.uleb128 0x3
	.long	0xb2c5
	.byte	0
	.byte	0
	.uleb128 0x6b
	.long	0xb27f
	.quad	.LBI2793
	.value	.LVU232
	.quad	.LBB2793
	.quad	.LBE2793-.LBB2793
	.byte	0x2
	.byte	0x99
	.byte	0x1
	.uleb128 0x3
	.long	0xb28d
	.byte	0
	.byte	0
	.uleb128 0x1b
	.long	0xb8c1
	.quad	.LBI2794
	.value	.LVU234
	.long	.LLRL269
	.byte	0x2
	.value	0x155
	.byte	0x1a
	.uleb128 0x3
	.long	0xb8cf
	.uleb128 0x4
	.long	0xb8d8
	.long	.LLST270
	.long	.LVUS270
	.uleb128 0x1b
	.long	0xb25a
	.quad	.LBI2796
	.value	.LVU235
	.long	.LLRL271
	.byte	0x2
	.value	0x197
	.byte	0x2c
	.uleb128 0x3
	.long	0xb268
	.uleb128 0x4
	.long	0xb271
	.long	.LLST272
	.long	.LVUS272
	.uleb128 0x6a
	.long	0xae85
	.quad	.LBI2798
	.value	.LVU239
	.long	.LLRL273
	.byte	0x2
	.value	0x185
	.byte	0x21
	.byte	0x1
	.uleb128 0x3
	.long	0xae8f
	.uleb128 0x3
	.long	0xae9c
	.uleb128 0x1b
	.long	0xac65
	.quad	.LBI2799
	.value	.LVU240
	.long	.LLRL274
	.byte	0x8
	.value	0x27e
	.byte	0x1c
	.uleb128 0x3
	.long	0xac73
	.uleb128 0x4
	.long	0xac88
	.long	.LLST275
	.long	.LVUS275
	.uleb128 0x3
	.long	0xac7c
	.uleb128 0x32
	.quad	.LVL49
	.long	0xa96f
	.uleb128 0x21
	.uleb128 0x1
	.byte	0x55
	.uleb128 0x2
	.byte	0x73
	.sleb128 0
	.byte	0
	.byte	0
	.byte	0
	.byte	0
	.byte	0
	.byte	0
	.uleb128 0x1b
	.long	0xc255
	.quad	.LBI2814
	.value	.LVU246
	.long	.LLRL276
	.byte	0x2
	.value	0x250
	.byte	0x1b
	.uleb128 0x3
	.long	0xc263
	.uleb128 0x4
	.long	0xc26c
	.long	.LLST277
	.long	.LVUS277
	.uleb128 0x3
	.long	0xc279
	.uleb128 0x1b
	.long	0xb834
	.quad	.LBI2815
	.value	.LVU247
	.long	.LLRL276
	.byte	0x2
	.value	0x7c6
	.byte	0x21
	.uleb128 0x4
	.long	0xb862
	.long	.LLST279
	.long	.LVUS279
	.uleb128 0x4
	.long	0xb86f
	.long	.LLST280
	.long	.LVUS280
	.uleb128 0x3
	.long	0xb87c
	.uleb128 0x3
	.long	0xb889
	.uleb128 0x1b
	.long	0xb1db
	.quad	.LBI2816
	.value	.LVU248
	.long	.LLRL276
	.byte	0xc
	.value	0x30a
	.byte	0x27
	.uleb128 0x4
	.long	0xb200
	.long	.LLST282
	.long	.LVUS282
	.uleb128 0x4
	.long	0xb20d
	.long	.LLST283
	.long	.LVUS283
	.uleb128 0x3
	.long	0xb21a
	.uleb128 0x1b
	.long	0xadfb
	.quad	.LBI2818
	.value	.LVU249
	.long	.LLRL285
	.byte	0xc
	.value	0x253
	.byte	0x25
	.uleb128 0x4
	.long	0xae20
	.long	.LLST286
	.long	.LVUS286
	.uleb128 0x4
	.long	0xae2d
	.long	.LLST287
	.long	.LVUS287
	.uleb128 0x3
	.long	0xae3a
	.uleb128 0x3b
	.long	0xae47
	.uleb128 0x9f
	.long	0xabb8
	.long	.LLRL289
	.long	0x10928
	.uleb128 0x3
	.long	0xabda
	.uleb128 0x3
	.long	0xabef
	.uleb128 0x32
	.quad	.LVL51
	.long	0x124de
	.uleb128 0x21
	.uleb128 0x1
	.byte	0x55
	.uleb128 0x2
	.byte	0x7c
	.sleb128 0
	.uleb128 0x21
	.uleb128 0x1
	.byte	0x54
	.uleb128 0x1
	.byte	0x30
	.uleb128 0x21
	.uleb128 0x1
	.byte	0x51
	.uleb128 0x2
	.byte	0x73
	.sleb128 0
	.byte	0
	.byte	0
	.uleb128 0x2d
	.long	0xac25
	.quad	.LBI2823
	.value	.LVU250
	.quad	.LBB2823
	.quad	.LBE2823-.LBB2823
	.byte	0xc
	.value	0x1df
	.byte	0x2d
	.long	0x1096a
	.uleb128 0x4
	.long	0xac33
	.long	.LLST290
	.long	.LVUS290
	.uleb128 0x4
	.long	0xac3c
	.long	.LLST291
	.long	.LVUS291
	.byte	0
	.uleb128 0x13
	.long	0xabf6
	.quad	.LBI2825
	.value	.LVU257
	.quad	.LBB2825
	.quad	.LBE2825-.LBB2825
	.byte	0xc
	.value	0x1ef
	.byte	0x5
	.uleb128 0x4
	.long	0xac04
	.long	.LLST292
	.long	.LVUS292
	.byte	0
	.byte	0
	.byte	0
	.byte	0
	.byte	0
	.byte	0
	.uleb128 0x47
	.long	0xcb0f
	.quad	.LBI2835
	.value	.LVU259
	.quad	.LBB2835
	.quad	.LBE2835-.LBB2835
	.byte	0x48
	.byte	0x38
	.byte	0x2
	.long	0x109f4
	.uleb128 0x3
	.long	0xcb1d
	.uleb128 0x20
	.long	0xc379
	.quad	.LBI2836
	.value	.LVU260
	.quad	.LBB2836
	.quad	.LBE2836-.LBB2836
	.byte	0x5
	.byte	0xbd
	.byte	0x27
	.uleb128 0x3
	.long	0xc387
	.byte	0
	.byte	0
	.uleb128 0x1d
	.long	0xc9f7
	.quad	.LBI2864
	.value	.LVU347
	.quad	.LBB2864
	.quad	.LBE2864-.LBB2864
	.byte	0x1
	.byte	0x5f
	.byte	0x35
	.long	0x10a48
	.uleb128 0x3
	.long	0xca05
	.uleb128 0x20
	.long	0xc195
	.quad	.LBI2865
	.value	.LVU348
	.quad	.LBB2865
	.quad	.LBE2865-.LBB2865
	.byte	0x5
	.byte	0xa8
	.byte	0x24
	.uleb128 0x3
	.long	0xc1a3
	.byte	0
	.byte	0
	.uleb128 0x47
	.long	0xc975
	.quad	.LBI2866
	.value	.LVU350
	.quad	.LBB2866
	.quad	.LBE2866-.LBB2866
	.byte	0x5f
	.byte	0x35
	.byte	0x1
	.long	0x11053
	.uleb128 0x3
	.long	0xc983
	.uleb128 0x4
	.long	0xc98c
	.long	.LLST314
	.long	.LVUS314
	.uleb128 0x3
	.long	0xc999
	.uleb128 0x2d
	.long	0xc141
	.quad	.LBI2867
	.value	.LVU351
	.quad	.LBB2867
	.quad	.LBE2867-.LBB2867
	.byte	0x2
	.value	0x241
	.byte	0x2f
	.long	0x10b6f
	.uleb128 0x4
	.long	0xc14b
	.long	.LLST316
	.long	.LVUS316
	.uleb128 0x3
	.long	0xc158
	.uleb128 0x2d
	.long	0xb796
	.quad	.LBI2868
	.value	.LVU352
	.quad	.LBB2868
	.quad	.LBE2868-.LBB2868
	.byte	0x2
	.value	0x89d
	.byte	0x18
	.long	0x10b1d
	.uleb128 0x3
	.long	0xb7a4
	.uleb128 0x3
	.long	0xb7ad
	.uleb128 0x20
	.long	0xb18a
	.quad	.LBI2869
	.value	.LVU353
	.quad	.LBB2869
	.quad	.LBE2869-.LBB2869
	.byte	0x5
	.byte	0xad
	.byte	0x22
	.uleb128 0x3
	.long	0xb198
	.uleb128 0x3
	.long	0xb1a1
	.byte	0
	.byte	0
	.uleb128 0x77
	.long	0xc9c8
	.quad	.LBI2870
	.value	.LVU355
	.quad	.LBB2870
	.quad	.LBE2870-.LBB2870
	.value	0x89d
	.byte	0x18
	.byte	0x2
	.uleb128 0x3
	.long	0xc9d6
	.uleb128 0x20
	.long	0xc166
	.quad	.LBI2871
	.value	.LVU356
	.quad	.LBB2871
	.quad	.LBE2871-.LBB2871
	.byte	0x5
	.byte	0xbd
	.byte	0x27
	.uleb128 0x3
	.long	0xc174
	.byte	0
	.byte	0
	.byte	0
	.uleb128 0x69
	.long	0xc0bd
	.quad	.LBI2872
	.value	.LVU358
	.quad	.LBB2872
	.quad	.LBE2872-.LBB2872
	.value	0x241
	.byte	0x2f
	.byte	0x1
	.long	0x10d60
	.uleb128 0x3
	.long	0xc0cb
	.uleb128 0x4
	.long	0xc0d4
	.long	.LLST320
	.long	.LVUS320
	.uleb128 0x3
	.long	0xc0e1
	.uleb128 0x2d
	.long	0xb756
	.quad	.LBI2873
	.value	.LVU359
	.quad	.LBB2873
	.quad	.LBE2873-.LBB2873
	.byte	0x2
	.value	0x154
	.byte	0x9
	.long	0x10c65
	.uleb128 0x3
	.long	0xb764
	.uleb128 0x3
	.long	0xb76d
	.uleb128 0x1d
	.long	0xb796
	.quad	.LBI2874
	.value	.LVU360
	.quad	.LBB2874
	.quad	.LBE2874-.LBB2874
	.byte	0x2
	.byte	0x99
	.byte	0x16
	.long	0x10c3c
	.uleb128 0x3
	.long	0xb7a4
	.uleb128 0x3
	.long	0xb7ad
	.uleb128 0x20
	.long	0xb18a
	.quad	.LBI2875
	.value	.LVU361
	.quad	.LBB2875
	.quad	.LBE2875-.LBB2875
	.byte	0x5
	.byte	0xad
	.byte	0x22
	.uleb128 0x3
	.long	0xb198
	.uleb128 0x3
	.long	0xb1a1
	.byte	0
	.byte	0
	.uleb128 0x6b
	.long	0xb15b
	.quad	.LBI2876
	.value	.LVU363
	.quad	.LBB2876
	.quad	.LBE2876-.LBB2876
	.byte	0x2
	.byte	0x99
	.byte	0x1
	.uleb128 0x3
	.long	0xb169
	.byte	0
	.byte	0
	.uleb128 0x13
	.long	0xb731
	.quad	.LBI2877
	.value	.LVU365
	.quad	.LBB2877
	.quad	.LBE2877-.LBB2877
	.byte	0x2
	.value	0x155
	.byte	0x1a
	.uleb128 0x3
	.long	0xb73f
	.uleb128 0x4
	.long	0xb748
	.long	.LLST325
	.long	.LVUS325
	.uleb128 0x13
	.long	0xb136
	.quad	.LBI2878
	.value	.LVU366
	.quad	.LBB2878
	.quad	.LBE2878-.LBB2878
	.byte	0x2
	.value	0x197
	.byte	0x2c
	.uleb128 0x3
	.long	0xb144
	.uleb128 0x4
	.long	0xb14d
	.long	.LLST326
	.long	.LVUS326
	.uleb128 0x77
	.long	0xadbe
	.quad	.LBI2880
	.value	.LVU367
	.quad	.LBB2880
	.quad	.LBE2880-.LBB2880
	.value	0x185
	.byte	0x21
	.byte	0x1
	.uleb128 0x3
	.long	0xadc8
	.uleb128 0x4
	.long	0xadd5
	.long	.LLST327
	.long	.LVUS327
	.uleb128 0x13
	.long	0xab5f
	.quad	.LBI2881
	.value	.LVU368
	.quad	.LBB2881
	.quad	.LBE2881-.LBB2881
	.byte	0x8
	.value	0x27e
	.byte	0x1c
	.uleb128 0x3
	.long	0xab6d
	.uleb128 0x4
	.long	0xab82
	.long	.LLST328
	.long	.LVUS328
	.uleb128 0x4
	.long	0xab76
	.long	.LLST329
	.long	.LVUS329
	.uleb128 0x32
	.quad	.LVL74
	.long	0xa96f
	.uleb128 0x21
	.uleb128 0x1
	.byte	0x55
	.uleb128 0x3
	.byte	0xa
	.value	0x6000
	.byte	0
	.byte	0
	.byte	0
	.byte	0
	.byte	0
	.byte	0
	.uleb128 0x13
	.long	0xc04f
	.quad	.LBI2883
	.value	.LVU371
	.quad	.LBB2883
	.quad	.LBE2883-.LBB2883
	.byte	0x2
	.value	0x242
	.byte	0x1e
	.uleb128 0x3
	.long	0xc05d
	.uleb128 0x4
	.long	0xc066
	.long	.LLST330
	.long	.LVUS330
	.uleb128 0x13
	.long	0xb6ba
	.quad	.LBI2884
	.value	.LVU372
	.quad	.LBB2884
	.quad	.LBE2884-.LBB2884
	.byte	0x2
	.value	0x7d1
	.byte	0x24
	.uleb128 0x4
	.long	0xb6df
	.long	.LLST331
	.long	.LVUS331
	.uleb128 0x4
	.long	0xb6ec
	.long	.LLST332
	.long	.LVUS332
	.uleb128 0x3
	.long	0xb6f9
	.uleb128 0x13
	.long	0xb0bf
	.quad	.LBI2885
	.value	.LVU373
	.quad	.LBB2885
	.quad	.LBE2885-.LBB2885
	.byte	0xc
	.value	0x41d
	.byte	0x2c
	.uleb128 0x4
	.long	0xb0db
	.long	.LLST333
	.long	.LVUS333
	.uleb128 0x4
	.long	0xb0e8
	.long	.LLST334
	.long	.LVUS334
	.uleb128 0x31
	.long	0xb0f5
	.long	.LLST335
	.long	.LVUS335
	.uleb128 0x13
	.long	0xad43
	.quad	.LBI2887
	.value	.LVU374
	.quad	.LBB2887
	.quad	.LBE2887-.LBB2887
	.byte	0xc
	.value	0x3e6
	.byte	0x14
	.uleb128 0x4
	.long	0xad5f
	.long	.LLST336
	.long	.LVUS336
	.uleb128 0x4
	.long	0xad6c
	.long	.LLST337
	.long	.LVUS337
	.uleb128 0x13
	.long	0xad43
	.quad	.LBI2888
	.value	.LVU375
	.quad	.LBB2888
	.quad	.LBE2888-.LBB2888
	.byte	0xc
	.value	0x3ab
	.byte	0x9
	.uleb128 0x4
	.long	0xad5f
	.long	.LLST338
	.long	.LVUS338
	.uleb128 0x4
	.long	0xad6c
	.long	.LLST339
	.long	.LVUS339
	.uleb128 0x9e
	.long	0xad79
	.quad	.LBB2889
	.quad	.LBE2889-.LBB2889
	.uleb128 0x31
	.long	0xad7a
	.long	.LLST340
	.long	.LVUS340
	.uleb128 0x2d
	.long	0xab30
	.quad	.LBI2890
	.value	.LVU376
	.quad	.LBB2890
	.quad	.LBE2890-.LBB2890
	.byte	0xc
	.value	0x3b1
	.byte	0x17
	.long	0x10ef3
	.uleb128 0x4
	.long	0xab49
	.long	.LLST341
	.long	.LVUS341
	.byte	0
	.uleb128 0x1b
	.long	0xaae3
	.quad	.LBI2892
	.value	.LVU379
	.long	.LLRL342
	.byte	0xc
	.value	0x3b3
	.byte	0x1d
	.uleb128 0x4
	.long	0xab08
	.long	.LLST343
	.long	.LVUS343
	.uleb128 0x4
	.long	0xab15
	.long	.LLST344
	.long	.LVUS344
	.uleb128 0x4
	.long	0xab22
	.long	.LLST345
	.long	.LVUS345
	.uleb128 0x6a
	.long	0xaa0e
	.quad	.LBI2893
	.value	.LVU380
	.long	.LLRL342
	.byte	0xa
	.value	0x4a0
	.byte	0x1d
	.byte	0x1
	.uleb128 0x4
	.long	0xaa33
	.long	.LLST346
	.long	.LVUS346
	.uleb128 0x4
	.long	0xaa40
	.long	.LLST347
	.long	.LVUS347
	.uleb128 0x4
	.long	0xaa4d
	.long	.LLST348
	.long	.LVUS348
	.uleb128 0x3
	.long	0xaa5a
	.uleb128 0x31
	.long	0xaa5f
	.long	.LLST349
	.long	.LVUS349
	.uleb128 0x31
	.long	0xaa6c
	.long	.LLST350
	.long	.LVUS350
	.uleb128 0x1b
	.long	0xa989
	.quad	.LBI2895
	.value	.LVU381
	.long	.LLRL351
	.byte	0xa
	.value	0x482
	.byte	0x14
	.uleb128 0x4
	.long	0xa9a5
	.long	.LLST352
	.long	.LVUS352
	.uleb128 0x4
	.long	0xa9b2
	.long	.LLST350
	.long	.LVUS350
	.uleb128 0x4
	.long	0xa9bf
	.long	.LLST354
	.long	.LVUS354
	.uleb128 0x1b
	.long	0xb053
	.quad	.LBI2896
	.value	.LVU382
	.long	.LLRL355
	.byte	0xa
	.value	0x3d1
	.byte	0x15
	.uleb128 0x4
	.long	0xb06f
	.long	.LLST356
	.long	.LVUS356
	.uleb128 0x4
	.long	0xb07c
	.long	.LLST357
	.long	.LVUS357
	.uleb128 0x4
	.long	0xb089
	.long	.LLST358
	.long	.LVUS358
	.uleb128 0x31
	.long	0xb096
	.long	.LLST359
	.long	.LVUS359
	.uleb128 0x31
	.long	0xb0b1
	.long	.LLST360
	.long	.LVUS360
	.uleb128 0x32
	.quad	.LVL77
	.long	0x124de
	.uleb128 0x21
	.uleb128 0x1
	.byte	0x55
	.uleb128 0x5
	.byte	0x77
	.sleb128 40
	.byte	0x6
	.byte	0x23
	.uleb128 0x4
	.uleb128 0x21
	.uleb128 0x1
	.byte	0x54
	.uleb128 0x1
	.byte	0x30
	.uleb128 0x21
	.uleb128 0x1
	.byte	0x51
	.uleb128 0x3
	.byte	0xa
	.value	0x5ffc
	.byte	0
	.byte	0
	.byte	0
	.byte	0
	.byte	0
	.byte	0
	.byte	0
	.byte	0
	.byte	0
	.byte	0
	.byte	0
	.byte	0
	.uleb128 0x1d
	.long	0xc946
	.quad	.LBI3286
	.value	.LVU1223
	.quad	.LBB3286
	.quad	.LBE3286-.LBB3286
	.byte	0x1
	.byte	0xee
	.byte	0x1
	.long	0x11291
	.uleb128 0x3
	.long	0xc954
	.uleb128 0x2d
	.long	0xc037
	.quad	.LBI3287
	.value	.LVU1224
	.quad	.LBB3287
	.quad	.LBE3287-.LBB3287
	.byte	0x2
	.value	0x319
	.byte	0x1c
	.long	0x110ab
	.uleb128 0x3
	.long	0xc045
	.byte	0
	.uleb128 0x2d
	.long	0xbffb
	.quad	.LBI3288
	.value	.LVU1226
	.quad	.LBB3288
	.quad	.LBE3288-.LBB3288
	.byte	0x2
	.value	0x318
	.byte	0xf
	.long	0x110e2
	.uleb128 0x3
	.long	0xc017
	.uleb128 0x3
	.long	0xc024
	.uleb128 0x3
	.long	0xc031
	.byte	0
	.uleb128 0x13
	.long	0xc074
	.quad	.LBI3289
	.value	.LVU1228
	.quad	.LBB3289
	.quad	.LBE3289-.LBB3289
	.byte	0x2
	.value	0x31b
	.byte	0x7
	.uleb128 0x3
	.long	0xc082
	.uleb128 0x78
	.long	0xc08b
	.quad	.LBB3290
	.quad	.LBE3290-.LBB3290
	.long	0x11216
	.uleb128 0x31
	.long	0xc08c
	.long	.LLST543
	.long	.LVUS543
	.uleb128 0x13
	.long	0xb6ff
	.quad	.LBI3291
	.value	.LVU1229
	.quad	.LBB3291
	.quad	.LBE3291-.LBB3291
	.byte	0x2
	.value	0x17a
	.byte	0xf
	.uleb128 0x3
	.long	0xb70d
	.uleb128 0x4
	.long	0xb716
	.long	.LLST544
	.long	.LVUS544
	.uleb128 0x4
	.long	0xb723
	.long	.LLST545
	.long	.LVUS545
	.uleb128 0x13
	.long	0xb104
	.quad	.LBI3293
	.value	.LVU1230
	.quad	.LBB3293
	.quad	.LBE3293-.LBB3293
	.byte	0x2
	.value	0x18e
	.byte	0x13
	.uleb128 0x3
	.long	0xb10e
	.uleb128 0x4
	.long	0xb11b
	.long	.LLST546
	.long	.LVUS546
	.uleb128 0x4
	.long	0xb128
	.long	.LLST547
	.long	.LVUS547
	.uleb128 0x13
	.long	0xad8e
	.quad	.LBI3294
	.value	.LVU1231
	.quad	.LBB3294
	.quad	.LBE3294-.LBB3294
	.byte	0x8
	.value	0x2b1
	.byte	0x17
	.uleb128 0x3
	.long	0xad9c
	.uleb128 0x4
	.long	0xada5
	.long	.LLST548
	.long	.LVUS548
	.uleb128 0x4
	.long	0xadb1
	.long	.LLST549
	.long	.LVUS549
	.uleb128 0x32
	.quad	.LVL197
	.long	0xa954
	.uleb128 0x21
	.uleb128 0x1
	.byte	0x55
	.uleb128 0x3
	.byte	0x77
	.sleb128 40
	.byte	0x6
	.uleb128 0x21
	.uleb128 0x1
	.byte	0x54
	.uleb128 0x3
	.byte	0xa
	.value	0x6000
	.byte	0
	.byte	0
	.byte	0
	.byte	0
	.byte	0
	.uleb128 0x13
	.long	0xc110
	.quad	.LBI3296
	.value	.LVU1234
	.quad	.LBB3296
	.quad	.LBE3296-.LBB3296
	.byte	0x2
	.value	0x17b
	.byte	0x7
	.uleb128 0x3
	.long	0xc120
	.uleb128 0x20
	.long	0xc9c8
	.quad	.LBI3297
	.value	.LVU1235
	.quad	.LBB3297
	.quad	.LBE3297-.LBB3297
	.byte	0x2
	.byte	0x8b
	.byte	0xe
	.uleb128 0x3
	.long	0xc9d6
	.uleb128 0x20
	.long	0xc166
	.quad	.LBI3298
	.value	.LVU1236
	.quad	.LBB3298
	.quad	.LBE3298-.LBB3298
	.byte	0x5
	.byte	0xbd
	.byte	0x27
	.uleb128 0x3
	.long	0xc174
	.byte	0
	.byte	0
	.byte	0
	.byte	0
	.byte	0
	.uleb128 0x47
	.long	0xca7b
	.quad	.LBI3299
	.value	.LVU1238
	.quad	.LBB3299
	.quad	.LBE3299-.LBB3299
	.byte	0xee
	.byte	0x1
	.byte	0x1
	.long	0x114cd
	.uleb128 0x3
	.long	0xca89
	.uleb128 0x2d
	.long	0xc23d
	.quad	.LBI3300
	.value	.LVU1239
	.quad	.LBB3300
	.quad	.LBE3300-.LBB3300
	.byte	0x2
	.value	0x319
	.byte	0x1c
	.long	0x112e9
	.uleb128 0x3
	.long	0xc24b
	.byte	0
	.uleb128 0x2d
	.long	0xc201
	.quad	.LBI3301
	.value	.LVU1241
	.quad	.LBB3301
	.quad	.LBE3301-.LBB3301
	.byte	0x2
	.value	0x318
	.byte	0xf
	.long	0x11320
	.uleb128 0x3
	.long	0xc21d
	.uleb128 0x3
	.long	0xc22a
	.uleb128 0x3
	.long	0xc237
	.byte	0
	.uleb128 0x13
	.long	0xc287
	.quad	.LBI3302
	.value	.LVU1243
	.quad	.LBB3302
	.quad	.LBE3302-.LBB3302
	.byte	0x2
	.value	0x31b
	.byte	0x7
	.uleb128 0x3
	.long	0xc295
	.uleb128 0x78
	.long	0xc29e
	.quad	.LBB3303
	.quad	.LBE3303-.LBB3303
	.long	0x11452
	.uleb128 0x31
	.long	0xc29f
	.long	.LLST550
	.long	.LVUS550
	.uleb128 0x13
	.long	0xb88f
	.quad	.LBI3304
	.value	.LVU1244
	.quad	.LBB3304
	.quad	.LBE3304-.LBB3304
	.byte	0x2
	.value	0x17a
	.byte	0xf
	.uleb128 0x3
	.long	0xb89d
	.uleb128 0x4
	.long	0xb8a6
	.long	.LLST551
	.long	.LVUS551
	.uleb128 0x4
	.long	0xb8b3
	.long	.LLST552
	.long	.LVUS552
	.uleb128 0x13
	.long	0xb228
	.quad	.LBI3306
	.value	.LVU1246
	.quad	.LBB3306
	.quad	.LBE3306-.LBB3306
	.byte	0x2
	.value	0x18e
	.byte	0x13
	.uleb128 0x3
	.long	0xb232
	.uleb128 0x4
	.long	0xb23f
	.long	.LLST553
	.long	.LVUS553
	.uleb128 0x4
	.long	0xb24c
	.long	.LLST554
	.long	.LVUS554
	.uleb128 0x13
	.long	0xae55
	.quad	.LBI3307
	.value	.LVU1247
	.quad	.LBB3307
	.quad	.LBE3307-.LBB3307
	.byte	0x8
	.value	0x2b1
	.byte	0x17
	.uleb128 0x3
	.long	0xae63
	.uleb128 0x4
	.long	0xae6c
	.long	.LLST555
	.long	.LVUS555
	.uleb128 0x4
	.long	0xae78
	.long	.LLST556
	.long	.LVUS556
	.uleb128 0x32
	.quad	.LVL199
	.long	0xa954
	.uleb128 0x21
	.uleb128 0x1
	.byte	0x55
	.uleb128 0x2
	.byte	0x7c
	.sleb128 0
	.uleb128 0x21
	.uleb128 0x1
	.byte	0x54
	.uleb128 0x2
	.byte	0x73
	.sleb128 0
	.byte	0
	.byte	0
	.byte	0
	.byte	0
	.byte	0
	.uleb128 0x13
	.long	0xc323
	.quad	.LBI3309
	.value	.LVU1250
	.quad	.LBB3309
	.quad	.LBE3309-.LBB3309
	.byte	0x2
	.value	0x17b
	.byte	0x7
	.uleb128 0x3
	.long	0xc333
	.uleb128 0x20
	.long	0xcb0f
	.quad	.LBI3310
	.value	.LVU1251
	.quad	.LBB3310
	.quad	.LBE3310-.LBB3310
	.byte	0x2
	.byte	0x8b
	.byte	0xe
	.uleb128 0x3
	.long	0xcb1d
	.uleb128 0x20
	.long	0xc379
	.quad	.LBI3311
	.value	.LVU1252
	.quad	.LBB3311
	.quad	.LBE3311-.LBB3311
	.byte	0x5
	.byte	0xbd
	.byte	0x27
	.uleb128 0x3
	.long	0xc387
	.byte	0
	.byte	0
	.byte	0
	.byte	0
	.byte	0
	.uleb128 0x47
	.long	0xca7b
	.quad	.LBI3312
	.value	.LVU1254
	.quad	.LBB3312
	.quad	.LBE3312-.LBB3312
	.byte	0xee
	.byte	0x1
	.byte	0x2
	.long	0x116eb
	.uleb128 0x3
	.long	0xca89
	.uleb128 0x2d
	.long	0xc23d
	.quad	.LBI3313
	.value	.LVU1255
	.quad	.LBB3313
	.quad	.LBE3313-.LBB3313
	.byte	0x2
	.value	0x319
	.byte	0x1c
	.long	0x11525
	.uleb128 0x3
	.long	0xc24b
	.byte	0
	.uleb128 0x2d
	.long	0xc201
	.quad	.LBI3314
	.value	.LVU1257
	.quad	.LBB3314
	.quad	.LBE3314-.LBB3314
	.byte	0x2
	.value	0x318
	.byte	0xf
	.long	0x1155c
	.uleb128 0x3
	.long	0xc21d
	.uleb128 0x3
	.long	0xc22a
	.uleb128 0x3
	.long	0xc237
	.byte	0
	.uleb128 0x13
	.long	0xc287
	.quad	.LBI3315
	.value	.LVU1259
	.quad	.LBB3315
	.quad	.LBE3315-.LBB3315
	.byte	0x2
	.value	0x31b
	.byte	0x7
	.uleb128 0x3
	.long	0xc295
	.uleb128 0x78
	.long	0xc29e
	.quad	.LBB3316
	.quad	.LBE3316-.LBB3316
	.long	0x11670
	.uleb128 0x3b
	.long	0xc29f
	.uleb128 0x13
	.long	0xb88f
	.quad	.LBI3317
	.value	.LVU1260
	.quad	.LBB3317
	.quad	.LBE3317-.LBB3317
	.byte	0x2
	.value	0x17a
	.byte	0xf
	.uleb128 0x3
	.long	0xb89d
	.uleb128 0x4
	.long	0xb8a6
	.long	.LLST557
	.long	.LVUS557
	.uleb128 0x3
	.long	0xb8b3
	.uleb128 0x13
	.long	0xb228
	.quad	.LBI3319
	.value	.LVU1262
	.quad	.LBB3319
	.quad	.LBE3319-.LBB3319
	.byte	0x2
	.value	0x18e
	.byte	0x13
	.uleb128 0x3
	.long	0xb232
	.uleb128 0x4
	.long	0xb23f
	.long	.LLST558
	.long	.LVUS558
	.uleb128 0x3
	.long	0xb24c
	.uleb128 0x13
	.long	0xae55
	.quad	.LBI3320
	.value	.LVU1263
	.quad	.LBB3320
	.quad	.LBE3320-.LBB3320
	.byte	0x8
	.value	0x2b1
	.byte	0x17
	.uleb128 0x3
	.long	0xae63
	.uleb128 0x4
	.long	0xae6c
	.long	.LLST559
	.long	.LVUS559
	.uleb128 0x3
	.long	0xae78
	.uleb128 0x32
	.quad	.LVL201
	.long	0xa954
	.uleb128 0x21
	.uleb128 0x1
	.byte	0x55
	.uleb128 0x4
	.byte	0x77
	.sleb128 64
	.byte	0x6
	.uleb128 0x21
	.uleb128 0x1
	.byte	0x54
	.uleb128 0x2
	.byte	0x7e
	.sleb128 0
	.byte	0
	.byte	0
	.byte	0
	.byte	0
	.byte	0
	.uleb128 0x13
	.long	0xc323
	.quad	.LBI3322
	.value	.LVU1266
	.quad	.LBB3322
	.quad	.LBE3322-.LBB3322
	.byte	0x2
	.value	0x17b
	.byte	0x7
	.uleb128 0x3
	.long	0xc333
	.uleb128 0x20
	.long	0xcb0f
	.quad	.LBI3323
	.value	.LVU1267
	.quad	.LBB3323
	.quad	.LBE3323-.LBB3323
	.byte	0x2
	.byte	0x8b
	.byte	0xe
	.uleb128 0x3
	.long	0xcb1d
	.uleb128 0x20
	.long	0xc379
	.quad	.LBI3324
	.value	.LVU1268
	.quad	.LBB3324
	.quad	.LBE3324-.LBB3324
	.byte	0x5
	.byte	0xbd
	.byte	0x27
	.uleb128 0x3
	.long	0xc387
	.byte	0
	.byte	0
	.byte	0
	.byte	0
	.byte	0
	.uleb128 0x34
	.long	0xca7b
	.quad	.LBI3342
	.value	.LVU1460
	.long	.LLRL560
	.byte	0x1
	.byte	0xee
	.byte	0x1
	.byte	0x5
	.long	0x11903
	.uleb128 0x3
	.long	0xca89
	.uleb128 0x3f
	.long	0xc287
	.quad	.LBI3343
	.value	.LVU1465
	.long	.LLRL561
	.byte	0x2
	.value	0x31b
	.byte	0x7
	.long	0x118a2
	.uleb128 0x3
	.long	0xc295
	.uleb128 0x6c
	.long	0xc29e
	.long	.LLRL562
	.long	0x11828
	.uleb128 0x31
	.long	0xc29f
	.long	.LLST563
	.long	.LVUS563
	.uleb128 0x1b
	.long	0xb88f
	.quad	.LBI3345
	.value	.LVU1466
	.long	.LLRL562
	.byte	0x2
	.value	0x17a
	.byte	0xf
	.uleb128 0x3
	.long	0xb89d
	.uleb128 0x4
	.long	0xb8a6
	.long	.LLST564
	.long	.LVUS564
	.uleb128 0x4
	.long	0xb8b3
	.long	.LLST565
	.long	.LVUS565
	.uleb128 0x13
	.long	0xb228
	.quad	.LBI3347
	.value	.LVU1534
	.quad	.LBB3347
	.quad	.LBE3347-.LBB3347
	.byte	0x2
	.value	0x18e
	.byte	0x13
	.uleb128 0x3
	.long	0xb232
	.uleb128 0x4
	.long	0xb23f
	.long	.LLST566
	.long	.LVUS566
	.uleb128 0x4
	.long	0xb24c
	.long	.LLST567
	.long	.LVUS567
	.uleb128 0x13
	.long	0xae55
	.quad	.LBI3348
	.value	.LVU1535
	.quad	.LBB3348
	.quad	.LBE3348-.LBB3348
	.byte	0x8
	.value	0x2b1
	.byte	0x17
	.uleb128 0x3
	.long	0xae63
	.uleb128 0x4
	.long	0xae6c
	.long	.LLST568
	.long	.LVUS568
	.uleb128 0x4
	.long	0xae78
	.long	.LLST569
	.long	.LVUS569
	.uleb128 0x4d
	.quad	.LVL268
	.uleb128 0x1
	.byte	0x30
	.uleb128 0x32
	.quad	.LVL269
	.long	0xa954
	.uleb128 0x21
	.uleb128 0x1
	.byte	0x55
	.uleb128 0x2
	.byte	0x7c
	.sleb128 0
	.uleb128 0x21
	.uleb128 0x1
	.byte	0x54
	.uleb128 0x2
	.byte	0x73
	.sleb128 0
	.byte	0
	.byte	0
	.byte	0
	.byte	0
	.byte	0
	.uleb128 0x13
	.long	0xc323
	.quad	.LBI3358
	.value	.LVU1469
	.quad	.LBB3358
	.quad	.LBE3358-.LBB3358
	.byte	0x2
	.value	0x17b
	.byte	0x7
	.uleb128 0x3
	.long	0xc333
	.uleb128 0x20
	.long	0xcb0f
	.quad	.LBI3359
	.value	.LVU1470
	.quad	.LBB3359
	.quad	.LBE3359-.LBB3359
	.byte	0x2
	.byte	0x8b
	.byte	0xe
	.uleb128 0x3
	.long	0xcb1d
	.uleb128 0x20
	.long	0xc379
	.quad	.LBI3360
	.value	.LVU1471
	.quad	.LBB3360
	.quad	.LBE3360-.LBB3360
	.byte	0x5
	.byte	0xbd
	.byte	0x27
	.uleb128 0x3
	.long	0xc387
	.byte	0
	.byte	0
	.byte	0
	.byte	0
	.uleb128 0x2d
	.long	0xc23d
	.quad	.LBI3363
	.value	.LVU1461
	.quad	.LBB3363
	.quad	.LBE3363-.LBB3363
	.byte	0x2
	.value	0x319
	.byte	0x1c
	.long	0x118cf
	.uleb128 0x3
	.long	0xc24b
	.byte	0
	.uleb128 0x13
	.long	0xc201
	.quad	.LBI3364
	.value	.LVU1463
	.quad	.LBB3364
	.quad	.LBE3364-.LBB3364
	.byte	0x2
	.value	0x318
	.byte	0xf
	.uleb128 0x3
	.long	0xc21d
	.uleb128 0x3
	.long	0xc22a
	.uleb128 0x3
	.long	0xc237
	.byte	0
	.byte	0
	.uleb128 0x47
	.long	0xca7b
	.quad	.LBI3373
	.value	.LVU1477
	.quad	.LBB3373
	.quad	.LBE3373-.LBB3373
	.byte	0xee
	.byte	0x1
	.byte	0x6
	.long	0x11b1d
	.uleb128 0x3
	.long	0xca89
	.uleb128 0x3f
	.long	0xc287
	.quad	.LBI3374
	.value	.LVU1482
	.long	.LLRL570
	.byte	0x2
	.value	0x31b
	.byte	0x7
	.long	0x11abc
	.uleb128 0x3
	.long	0xc295
	.uleb128 0x6c
	.long	0xc29e
	.long	.LLRL571
	.long	0x11a42
	.uleb128 0x31
	.long	0xc29f
	.long	.LLST572
	.long	.LVUS572
	.uleb128 0x1b
	.long	0xb88f
	.quad	.LBI3376
	.value	.LVU1483
	.long	.LLRL571
	.byte	0x2
	.value	0x17a
	.byte	0xf
	.uleb128 0x3
	.long	0xb89d
	.uleb128 0x4
	.long	0xb8a6
	.long	.LLST573
	.long	.LVUS573
	.uleb128 0x4
	.long	0xb8b3
	.long	.LLST574
	.long	.LVUS574
	.uleb128 0x13
	.long	0xb228
	.quad	.LBI3378
	.value	.LVU1485
	.quad	.LBB3378
	.quad	.LBE3378-.LBB3378
	.byte	0x2
	.value	0x18e
	.byte	0x13
	.uleb128 0x3
	.long	0xb232
	.uleb128 0x4
	.long	0xb23f
	.long	.LLST575
	.long	.LVUS575
	.uleb128 0x4
	.long	0xb24c
	.long	.LLST576
	.long	.LVUS576
	.uleb128 0x13
	.long	0xae55
	.quad	.LBI3379
	.value	.LVU1486
	.quad	.LBB3379
	.quad	.LBE3379-.LBB3379
	.byte	0x8
	.value	0x2b1
	.byte	0x17
	.uleb128 0x3
	.long	0xae63
	.uleb128 0x4
	.long	0xae6c
	.long	.LLST577
	.long	.LVUS577
	.uleb128 0x4
	.long	0xae78
	.long	.LLST578
	.long	.LVUS578
	.uleb128 0x32
	.quad	.LVL259
	.long	0xa954
	.uleb128 0x21
	.uleb128 0x1
	.byte	0x55
	.uleb128 0x4
	.byte	0x77
	.sleb128 64
	.byte	0x6
	.uleb128 0x21
	.uleb128 0x1
	.byte	0x54
	.uleb128 0x2
	.byte	0x7e
	.sleb128 0
	.byte	0
	.byte	0
	.byte	0
	.byte	0
	.byte	0
	.uleb128 0x13
	.long	0xc323
	.quad	.LBI3384
	.value	.LVU1489
	.quad	.LBB3384
	.quad	.LBE3384-.LBB3384
	.byte	0x2
	.value	0x17b
	.byte	0x7
	.uleb128 0x3
	.long	0xc333
	.uleb128 0x20
	.long	0xcb0f
	.quad	.LBI3385
	.value	.LVU1490
	.quad	.LBB3385
	.quad	.LBE3385-.LBB3385
	.byte	0x2
	.byte	0x8b
	.byte	0xe
	.uleb128 0x3
	.long	0xcb1d
	.uleb128 0x20
	.long	0xc379
	.quad	.LBI3386
	.value	.LVU1491
	.quad	.LBB3386
	.quad	.LBE3386-.LBB3386
	.byte	0x5
	.byte	0xbd
	.byte	0x27
	.uleb128 0x3
	.long	0xc387
	.byte	0
	.byte	0
	.byte	0
	.byte	0
	.uleb128 0x2d
	.long	0xc23d
	.quad	.LBI3387
	.value	.LVU1478
	.quad	.LBB3387
	.quad	.LBE3387-.LBB3387
	.byte	0x2
	.value	0x319
	.byte	0x1c
	.long	0x11ae9
	.uleb128 0x3
	.long	0xc24b
	.byte	0
	.uleb128 0x13
	.long	0xc201
	.quad	.LBI3388
	.value	.LVU1480
	.quad	.LBB3388
	.quad	.LBE3388-.LBB3388
	.byte	0x2
	.value	0x318
	.byte	0xf
	.uleb128 0x3
	.long	0xc21d
	.uleb128 0x3
	.long	0xc22a
	.uleb128 0x3
	.long	0xc237
	.byte	0
	.byte	0
	.uleb128 0x34
	.long	0xcc3d
	.quad	.LBI3390
	.value	.LVU1493
	.long	.LLRL579
	.byte	0x1
	.byte	0xee
	.byte	0x1
	.byte	0x7
	.long	0x11d54
	.uleb128 0x4
	.long	0xcc4b
	.long	.LLST580
	.long	.LVUS580
	.uleb128 0x2d
	.long	0xc648
	.quad	.LBI3391
	.value	.LVU1494
	.quad	.LBB3391
	.quad	.LBE3391-.LBB3391
	.byte	0x2
	.value	0x319
	.byte	0x1c
	.long	0x11b7a
	.uleb128 0x4
	.long	0xc656
	.long	.LLST581
	.long	.LVUS581
	.byte	0
	.uleb128 0x2d
	.long	0xc60c
	.quad	.LBI3392
	.value	.LVU1496
	.quad	.LBB3392
	.quad	.LBE3392-.LBB3392
	.byte	0x2
	.value	0x318
	.byte	0xf
	.long	0x11bb9
	.uleb128 0x3
	.long	0xc628
	.uleb128 0x3
	.long	0xc635
	.uleb128 0x4
	.long	0xc642
	.long	.LLST582
	.long	.LVUS582
	.byte	0
	.uleb128 0x1b
	.long	0xcc68
	.quad	.LBI3393
	.value	.LVU1498
	.long	.LLRL583
	.byte	0x2
	.value	0x31b
	.byte	0x7
	.uleb128 0x4
	.long	0xcc76
	.long	.LLST584
	.long	.LVUS584
	.uleb128 0x6c
	.long	0xcc7f
	.long	.LLRL585
	.long	0x11cc1
	.uleb128 0x3b
	.long	0xcc80
	.uleb128 0x1b
	.long	0xc660
	.quad	.LBI3395
	.value	.LVU1499
	.long	.LLRL586
	.byte	0x2
	.value	0x17a
	.byte	0xf
	.uleb128 0x4
	.long	0xc66e
	.long	.LLST587
	.long	.LVUS587
	.uleb128 0x3
	.long	0xc677
	.uleb128 0x3
	.long	0xc684
	.uleb128 0x1b
	.long	0xc660
	.quad	.LBI3397
	.value	.LVU1501
	.long	.LLRL588
	.byte	0x2
	.value	0x18a
	.byte	0x7
	.uleb128 0x4
	.long	0xc66e
	.long	.LLST589
	.long	.LVUS589
	.uleb128 0x3
	.long	0xc677
	.uleb128 0x3
	.long	0xc684
	.uleb128 0x1b
	.long	0xbbe8
	.quad	.LBI3399
	.value	.LVU1502
	.long	.LLRL590
	.byte	0x2
	.value	0x18e
	.byte	0x13
	.uleb128 0x3
	.long	0xbbf2
	.uleb128 0x3
	.long	0xbbff
	.uleb128 0x3
	.long	0xbc0c
	.uleb128 0x3f
	.long	0xb373
	.quad	.LBI3400
	.value	.LVU1503
	.long	.LLRL591
	.byte	0x8
	.value	0x2b1
	.byte	0x17
	.long	0x11c9c
	.uleb128 0x3
	.long	0xb381
	.uleb128 0x3
	.long	0xb38a
	.uleb128 0x3
	.long	0xb396
	.byte	0
	.uleb128 0x32
	.quad	.LVL261
	.long	0xa954
	.uleb128 0x21
	.uleb128 0x1
	.byte	0x55
	.uleb128 0x4
	.byte	0x77
	.sleb128 80
	.byte	0x6
	.uleb128 0x21
	.uleb128 0x1
	.byte	0x54
	.uleb128 0x7
	.byte	0x7f
	.sleb128 0
	.byte	0x77
	.sleb128 80
	.byte	0x6
	.byte	0x1c
	.byte	0
	.byte	0
	.byte	0
	.byte	0
	.byte	0
	.uleb128 0x13
	.long	0x121cb
	.quad	.LBI3410
	.value	.LVU1507
	.quad	.LBB3410
	.quad	.LBE3410-.LBB3410
	.byte	0x2
	.value	0x17b
	.byte	0x7
	.uleb128 0x4
	.long	0x121db
	.long	.LLST592
	.long	.LVUS592
	.uleb128 0x20
	.long	0xccad
	.quad	.LBI3411
	.value	.LVU1508
	.quad	.LBB3411
	.quad	.LBE3411-.LBB3411
	.byte	0x2
	.byte	0x8b
	.byte	0xe
	.uleb128 0x4
	.long	0xccbb
	.long	.LLST593
	.long	.LVUS593
	.uleb128 0x20
	.long	0xc692
	.quad	.LBI3412
	.value	.LVU1509
	.quad	.LBB3412
	.quad	.LBE3412-.LBB3412
	.byte	0x5
	.byte	0xbd
	.byte	0x27
	.uleb128 0x4
	.long	0xc6a0
	.long	.LLST594
	.long	.LVUS594
	.byte	0
	.byte	0
	.byte	0
	.byte	0
	.byte	0
	.uleb128 0x47
	.long	0x121f8
	.quad	.LBI3415
	.value	.LVU1514
	.quad	.LBB3415
	.quad	.LBE3415-.LBB3415
	.byte	0xee
	.byte	0x1
	.byte	0x8
	.long	0x11fd0
	.uleb128 0x4
	.long	0x12208
	.long	.LLST595
	.long	.LVUS595
	.uleb128 0x68
	.long	0xcd35
	.quad	.LBI3416
	.value	.LVU1515
	.long	.LLRL596
	.byte	0x4
	.byte	0xb
	.byte	0x8
	.uleb128 0x4
	.long	0xcd43
	.long	.LLST597
	.long	.LVUS597
	.uleb128 0x3f
	.long	0xcd64
	.quad	.LBI3417
	.value	.LVU1520
	.long	.LLRL598
	.byte	0x2
	.value	0x31b
	.byte	0x7
	.long	0x11f4e
	.uleb128 0x4
	.long	0xcd72
	.long	.LLST599
	.long	.LVUS599
	.uleb128 0x6c
	.long	0xcd7b
	.long	.LLRL600
	.long	0x11ebc
	.uleb128 0x31
	.long	0xcd7c
	.long	.LLST601
	.long	.LVUS601
	.uleb128 0x1b
	.long	0xc7c9
	.quad	.LBI3419
	.value	.LVU1522
	.long	.LLRL602
	.byte	0x2
	.value	0x17a
	.byte	0xf
	.uleb128 0x4
	.long	0xc7d7
	.long	.LLST603
	.long	.LVUS603
	.uleb128 0x4
	.long	0xc7e0
	.long	.LLST604
	.long	.LVUS604
	.uleb128 0x4
	.long	0xc7ed
	.long	.LLST601
	.long	.LVUS601
	.uleb128 0x1b
	.long	0xbe7b
	.quad	.LBI3421
	.value	.LVU1524
	.long	.LLRL606
	.byte	0x2
	.value	0x18e
	.byte	0x13
	.uleb128 0x4
	.long	0xbe85
	.long	.LLST607
	.long	.LVUS607
	.uleb128 0x4
	.long	0xbe92
	.long	.LLST608
	.long	.LVUS608
	.uleb128 0x4
	.long	0xbe9f
	.long	.LLST609
	.long	.LVUS609
	.uleb128 0x3f
	.long	0xb5c0
	.quad	.LBI3422
	.value	.LVU1525
	.long	.LLRL606
	.byte	0x8
	.value	0x2b1
	.byte	0x17
	.long	0x11eab
	.uleb128 0x4
	.long	0xb5ce
	.long	.LLST610
	.long	.LVUS610
	.uleb128 0x4
	.long	0xb5d7
	.long	.LLST611
	.long	.LVUS611
	.uleb128 0x4
	.long	0xb5e3
	.long	.LLST612
	.long	.LVUS612
	.byte	0
	.uleb128 0xd3
	.quad	.LVL266
	.long	0xa954
	.byte	0
	.byte	0
	.byte	0
	.uleb128 0x13
	.long	0x122b8
	.quad	.LBI3429
	.value	.LVU1529
	.quad	.LBB3429
	.quad	.LBE3429-.LBB3429
	.byte	0x2
	.value	0x17b
	.byte	0x7
	.uleb128 0x4
	.long	0x122c8
	.long	.LLST613
	.long	.LVUS613
	.uleb128 0x20
	.long	0xcdad
	.quad	.LBI3430
	.value	.LVU1530
	.quad	.LBB3430
	.quad	.LBE3430-.LBB3430
	.byte	0x2
	.byte	0x8b
	.byte	0xe
	.uleb128 0x4
	.long	0xcdbb
	.long	.LLST614
	.long	.LVUS614
	.uleb128 0x20
	.long	0xc7fb
	.quad	.LBI3431
	.value	.LVU1531
	.quad	.LBB3431
	.quad	.LBE3431-.LBB3431
	.byte	0x5
	.byte	0xbd
	.byte	0x27
	.uleb128 0x4
	.long	0xc809
	.long	.LLST615
	.long	.LVUS615
	.byte	0
	.byte	0
	.byte	0
	.byte	0
	.uleb128 0x2d
	.long	0xc7b1
	.quad	.LBI3432
	.value	.LVU1516
	.quad	.LBB3432
	.quad	.LBE3432-.LBB3432
	.byte	0x2
	.value	0x319
	.byte	0x1c
	.long	0x11f83
	.uleb128 0x4
	.long	0xc7bf
	.long	.LLST616
	.long	.LVUS616
	.byte	0
	.uleb128 0x13
	.long	0xc775
	.quad	.LBI3433
	.value	.LVU1518
	.quad	.LBB3433
	.quad	.LBE3433-.LBB3433
	.byte	0x2
	.value	0x318
	.byte	0xf
	.uleb128 0x4
	.long	0xc791
	.long	.LLST617
	.long	.LVUS617
	.uleb128 0x4
	.long	0xc79e
	.long	.LLST618
	.long	.LVUS618
	.uleb128 0x4
	.long	0xc7ab
	.long	.LLST619
	.long	.LVUS619
	.byte	0
	.byte	0
	.byte	0
	.uleb128 0x4d
	.quad	.LVL196
	.uleb128 0x1
	.byte	0x30
	.uleb128 0x4d
	.quad	.LVL245
	.uleb128 0x1
	.byte	0x30
	.uleb128 0x4d
	.quad	.LVL254
	.uleb128 0x1
	.byte	0x30
	.uleb128 0x4d
	.quad	.LVL257
	.uleb128 0x1
	.byte	0x30
	.uleb128 0x4d
	.quad	.LVL263
	.uleb128 0x1
	.byte	0x30
	.uleb128 0xd4
	.quad	.LVL267
	.long	0x124e8
	.long	0x12020
	.uleb128 0x21
	.uleb128 0x1
	.byte	0x55
	.uleb128 0x2
	.byte	0x73
	.sleb128 0
	.byte	0
	.uleb128 0x4d
	.quad	.LVL272
	.uleb128 0x1
	.byte	0x30
	.uleb128 0x4d
	.quad	.LVL274
	.uleb128 0x1
	.byte	0x30
	.byte	0
	.uleb128 0xb
	.long	0x8bcb
	.long	0x12045
	.byte	0x3
	.long	0x1204f
	.uleb128 0x9
	.long	.LASF1334
	.long	0xa7be
	.byte	0
	.uleb128 0xb
	.long	0x8680
	.long	0x1205d
	.byte	0x3
	.long	0x12067
	.uleb128 0x9
	.long	.LASF1334
	.long	0xa6b0
	.byte	0
	.uleb128 0x14
	.long	0x7571
	.byte	0x3
	.long	0x12093
	.uleb128 0xf
	.string	"_Tp"
	.long	0x4f
	.uleb128 0x27
	.string	"__a"
	.byte	0xa
	.byte	0xe8
	.byte	0x14
	.long	0xa6f6
	.uleb128 0x27
	.string	"__b"
	.byte	0xa
	.byte	0xe8
	.byte	0x24
	.long	0xa6f6
	.byte	0
	.uleb128 0x14
	.long	0x7599
	.byte	0x3
	.long	0x120c1
	.uleb128 0xf
	.string	"_Tp"
	.long	0x4f
	.uleb128 0xe
	.string	"__a"
	.byte	0xa
	.value	0x100
	.byte	0x14
	.long	0xa6f6
	.uleb128 0xe
	.string	"__b"
	.byte	0xa
	.value	0x100
	.byte	0x24
	.long	0xa6f6
	.byte	0
	.uleb128 0xb
	.long	0x8b86
	.long	0x120cf
	.byte	0x3
	.long	0x120d9
	.uleb128 0x9
	.long	.LASF1334
	.long	0xa7cd
	.byte	0
	.uleb128 0xb
	.long	0x8cf7
	.long	0x120e7
	.byte	0x3
	.long	0x120f1
	.uleb128 0x9
	.long	.LASF1334
	.long	0xa7cd
	.byte	0
	.uleb128 0xc
	.long	0x8d26
	.uleb128 0x14
	.long	0x91c6
	.byte	0x3
	.long	0x1211b
	.uleb128 0x12
	.long	.LASF1456
	.byte	0x3
	.value	0x4dd
	.byte	0x2b
	.long	0x120f1
	.uleb128 0x12
	.long	.LASF1457
	.byte	0x3
	.value	0x4dd
	.byte	0x4b
	.long	0x120f1
	.byte	0
	.uleb128 0xb
	.long	0x8633
	.long	0x12129
	.byte	0x3
	.long	0x12133
	.uleb128 0x9
	.long	.LASF1334
	.long	0xa6bf
	.byte	0
	.uleb128 0xb
	.long	0x87d0
	.long	0x12141
	.byte	0x3
	.long	0x1214b
	.uleb128 0x9
	.long	.LASF1334
	.long	0xa6bf
	.byte	0
	.uleb128 0xc
	.long	0x8803
	.uleb128 0x14
	.long	0x91e2
	.byte	0x3
	.long	0x12175
	.uleb128 0x12
	.long	.LASF1456
	.byte	0x3
	.value	0x4dd
	.byte	0x2b
	.long	0x1214b
	.uleb128 0x12
	.long	.LASF1457
	.byte	0x3
	.value	0x4dd
	.byte	0x4b
	.long	0x1214b
	.byte	0
	.uleb128 0xb
	.long	0x38f4
	.long	0x12183
	.byte	0x2
	.long	0x1218d
	.uleb128 0x9
	.long	.LASF1334
	.long	0xa674
	.byte	0
	.uleb128 0x3d
	.long	0x12175
	.long	0x1219a
	.long	0x121a0
	.uleb128 0x3
	.long	0x12183
	.byte	0
	.uleb128 0xb
	.long	0x368e
	.long	0x121ae
	.byte	0x2
	.long	0x121b8
	.uleb128 0x9
	.long	.LASF1334
	.long	0xa651
	.byte	0
	.uleb128 0x3d
	.long	0x121a0
	.long	0x121c5
	.long	0x121cb
	.uleb128 0x3
	.long	0x121ae
	.byte	0
	.uleb128 0x62
	.long	0x360c
	.byte	0x2
	.byte	0x8b
	.byte	0xe
	.long	0x121db
	.long	0x121e5
	.uleb128 0x9
	.long	.LASF1334
	.long	0xa633
	.byte	0
	.uleb128 0x3d
	.long	0x121cb
	.long	0x121f2
	.long	0x121f8
	.uleb128 0x3
	.long	0x121db
	.byte	0
	.uleb128 0x62
	.long	0xa18b
	.byte	0x4
	.byte	0xb
	.byte	0x8
	.long	0x12208
	.long	0x12212
	.uleb128 0x9
	.long	.LASF1334
	.long	0xa1c6
	.byte	0
	.uleb128 0x1a
	.long	0x121f8
	.long	.LASF1458
	.long	0x12223
	.long	0x12229
	.uleb128 0x3
	.long	0x12208
	.byte	0
	.uleb128 0x62
	.long	0xa1a3
	.byte	0x4
	.byte	0xb
	.byte	0x8
	.long	0x12239
	.long	0x12243
	.uleb128 0x9
	.long	.LASF1334
	.long	0xa1c6
	.byte	0
	.uleb128 0x1a
	.long	0x12229
	.long	.LASF1459
	.long	0x12254
	.long	0x1225a
	.uleb128 0x3
	.long	0x12239
	.byte	0
	.uleb128 0xb
	.long	0x12ce
	.long	0x12268
	.byte	0x2
	.long	0x12272
	.uleb128 0x9
	.long	.LASF1334
	.long	0xa09b
	.byte	0
	.uleb128 0x1a
	.long	0x1225a
	.long	.LASF1460
	.long	0x12283
	.long	0x12289
	.uleb128 0x3
	.long	0x12268
	.byte	0
	.uleb128 0xb
	.long	0x1037
	.long	0x12297
	.byte	0x2
	.long	0x122a1
	.uleb128 0x9
	.long	.LASF1334
	.long	0xa07d
	.byte	0
	.uleb128 0x1a
	.long	0x12289
	.long	.LASF1461
	.long	0x122b2
	.long	0x122b8
	.uleb128 0x3
	.long	0x12297
	.byte	0
	.uleb128 0x62
	.long	0xfa6
	.byte	0x2
	.byte	0x8b
	.byte	0xe
	.long	0x122c8
	.long	0x122d2
	.uleb128 0x9
	.long	.LASF1334
	.long	0xa05f
	.byte	0
	.uleb128 0x1a
	.long	0x122b8
	.long	.LASF1462
	.long	0x122e3
	.long	0x122e9
	.uleb128 0x3
	.long	0x122c8
	.byte	0
	.uleb128 0xd5
	.long	.LASF1463
	.byte	0x10
	.byte	0x3f
	.byte	0x1
	.long	.LASF1464
	.long	0xa3f1
	.byte	0x3
	.long	0x12324
	.uleb128 0x27
	.string	"__A"
	.byte	0x10
	.byte	0x3f
	.byte	0x19
	.long	0xa3f1
	.uleb128 0x27
	.string	"__B"
	.byte	0x10
	.byte	0x3f
	.byte	0x25
	.long	0xa3f1
	.uleb128 0x27
	.string	"__C"
	.byte	0x10
	.byte	0x3f
	.byte	0x31
	.long	0xa3f1
	.byte	0
	.uleb128 0x5f
	.long	.LASF1465
	.byte	0xf
	.value	0x1e9
	.long	.LASF1466
	.long	0xa40e
	.long	0x12346
	.uleb128 0xe
	.string	"__X"
	.byte	0xf
	.value	0x1e9
	.byte	0x1f
	.long	0xa391
	.byte	0
	.uleb128 0x5f
	.long	.LASF1467
	.byte	0xd
	.value	0x4f7
	.long	.LASF1468
	.long	0xa3f1
	.long	0x12368
	.uleb128 0xe
	.string	"__A"
	.byte	0xd
	.value	0x4f7
	.byte	0x17
	.long	0x30
	.byte	0
	.uleb128 0xd6
	.long	.LASF1469
	.byte	0xd
	.value	0x355
	.byte	0x1
	.long	.LASF1470
	.byte	0x3
	.long	0x12396
	.uleb128 0xe
	.string	"__P"
	.byte	0xd
	.value	0x355
	.byte	0x1a
	.long	0xa7eb
	.uleb128 0xe
	.string	"__A"
	.byte	0xd
	.value	0x355
	.byte	0x26
	.long	0xa3f1
	.byte	0
	.uleb128 0x5f
	.long	.LASF1471
	.byte	0xd
	.value	0x34f
	.long	.LASF1472
	.long	0xa3f1
	.long	0x123b8
	.uleb128 0xe
	.string	"__P"
	.byte	0xd
	.value	0x34f
	.byte	0x1f
	.long	0xa804
	.byte	0
	.uleb128 0x5f
	.long	.LASF1473
	.byte	0xd
	.value	0x195
	.long	.LASF1474
	.long	0xa3f1
	.long	0x123da
	.uleb128 0xe
	.string	"__A"
	.byte	0xd
	.value	0x195
	.byte	0x1d
	.long	0xa40e
	.byte	0
	.uleb128 0x5f
	.long	.LASF1475
	.byte	0xe
	.value	0x2c7
	.long	.LASF1476
	.long	0xa391
	.long	0x123fc
	.uleb128 0xe
	.string	"__P"
	.byte	0xe
	.value	0x2c7
	.byte	0x23
	.long	0x123fc
	.byte	0
	.uleb128 0xd
	.long	0xa3b5
	.uleb128 0x5f
	.long	.LASF1477
	.byte	0xe
	.value	0x258
	.long	.LASF1478
	.long	0xa391
	.long	0x12430
	.uleb128 0x12
	.long	.LASF1479
	.byte	0xe
	.value	0x258
	.byte	0x16
	.long	0xa246
	.uleb128 0x12
	.long	.LASF1480
	.byte	0xe
	.value	0x258
	.byte	0x23
	.long	0xa246
	.byte	0
	.uleb128 0x5f
	.long	.LASF1481
	.byte	0xe
	.value	0x252
	.long	.LASF1482
	.long	0xa391
	.long	0x1245f
	.uleb128 0x12
	.long	.LASF1479
	.byte	0xe
	.value	0x252
	.byte	0x1b
	.long	0x9248
	.uleb128 0x12
	.long	.LASF1480
	.byte	0xe
	.value	0x252
	.byte	0x2b
	.long	0x9248
	.byte	0
	.uleb128 0x14
	.long	0x75c2
	.byte	0x3
	.long	0x12477
	.uleb128 0xe
	.string	"__x"
	.byte	0x9
	.value	0x108
	.byte	0xf
	.long	0x30
	.byte	0
	.uleb128 0x14
	.long	0x75dd
	.byte	0x3
	.long	0x1248f
	.uleb128 0xe
	.string	"__n"
	.byte	0xa
	.value	0x3fd
	.byte	0x23
	.long	0x37
	.byte	0
	.uleb128 0xd7
	.long	.LASF1328
	.byte	0x4a
	.byte	0xb1
	.byte	0x23
	.long	.LASF1483
	.byte	0x3
	.long	0x124ac
	.uleb128 0x1
	.long	0x7649
	.uleb128 0x1
	.long	0x7649
	.byte	0
	.uleb128 0xd8
	.long	.LASF1330
	.byte	0x4a
	.byte	0xa8
	.byte	0x7
	.long	.LASF1484
	.long	0x7649
	.byte	0x3
	.long	0x124d4
	.uleb128 0x1
	.long	0x2bc
	.uleb128 0x27
	.string	"__p"
	.byte	0x4a
	.byte	0xa8
	.byte	0x27
	.long	0x7649
	.byte	0
	.uleb128 0x81
	.long	.LASF1485
	.long	.LASF1487
	.uleb128 0x81
	.long	.LASF1486
	.long	.LASF1488
	.uleb128 0x81
	.long	.LASF1489
	.long	.LASF1490
	.byte	0
	.section	.debug_abbrev,"",@progbits
.Ldebug_abbrev0:
	.uleb128 0x1
	.uleb128 0x5
	.byte	0
	.uleb128 0x49
	.uleb128 0x13
	.byte	0
	.byte	0
	.uleb128 0x2
	.uleb128 0x5
	.byte	0
	.uleb128 0x49
	.uleb128 0x13
	.uleb128 0x34
	.uleb128 0x19
	.byte	0
	.byte	0
	.uleb128 0x3
	.uleb128 0x5
	.byte	0
	.uleb128 0x31
	.uleb128 0x13
	.byte	0
	.byte	0
	.uleb128 0x4
	.uleb128 0x5
	.byte	0
	.uleb128 0x31
	.uleb128 0x13
	.uleb128 0x2
	.uleb128 0x17
	.uleb128 0x2137
	.uleb128 0x17
	.byte	0
	.byte	0
	.uleb128 0x5
	.uleb128 0x8
	.byte	0
	.uleb128 0x3a
	.uleb128 0xb
	.uleb128 0x3b
	.uleb128 0xb
	.uleb128 0x39
	.uleb128 0xb
	.uleb128 0x18
	.uleb128 0x13
	.byte	0
	.byte	0
	.uleb128 0x6
	.uleb128 0x2e
	.byte	0x1
	.uleb128 0x3f
	.uleb128 0x19
	.uleb128 0x3
	.uleb128 0xe
	.uleb128 0x3a
	.uleb128 0xb
	.uleb128 0x3b
	.uleb128 0x5
	.uleb128 0x39
	.uleb128 0xb
	.uleb128 0x6e
	.uleb128 0xe
	.uleb128 0x49
	.uleb128 0x13
	.uleb128 0x32
	.uleb128 0xb
	.uleb128 0x3c
	.uleb128 0x19
	.uleb128 0x64
	.uleb128 0x13
	.uleb128 0x1
	.uleb128 0x13
	.byte	0
	.byte	0
	.uleb128 0x7
	.uleb128 0x26
	.byte	0
	.uleb128 0x49
	.uleb128 0x13
	.byte	0
	.byte	0
	.uleb128 0x8
	.uleb128 0x16
	.byte	0
	.uleb128 0x3
	.uleb128 0xe
	.uleb128 0x3a
	.uleb128 0xb
	.uleb128 0x3b
	.uleb128 0xb
	.uleb128 0x39
	.uleb128 0xb
	.uleb128 0x49
	.uleb128 0x13
	.byte	0
	.byte	0
	.uleb128 0x9
	.uleb128 0x5
	.byte	0
	.uleb128 0x3
	.uleb128 0xe
	.uleb128 0x49
	.uleb128 0x13
	.uleb128 0x34
	.uleb128 0x19
	.byte	0
	.byte	0
	.uleb128 0xa
	.uleb128 0x2f
	.byte	0
	.uleb128 0x3
	.uleb128 0xe
	.uleb128 0x49
	.uleb128 0x13
	.byte	0
	.byte	0
	.uleb128 0xb
	.uleb128 0x2e
	.byte	0x1
	.uleb128 0x47
	.uleb128 0x13
	.uleb128 0x64
	.uleb128 0x13
	.uleb128 0x20
	.uleb128 0xb
	.uleb128 0x1
	.uleb128 0x13
	.byte	0
	.byte	0
	.uleb128 0xc
	.uleb128 0x10
	.byte	0
	.uleb128 0xb
	.uleb128 0x21
	.sleb128 8
	.uleb128 0x49
	.uleb128 0x13
	.byte	0
	.byte	0
	.uleb128 0xd
	.uleb128 0xf
	.byte	0
	.uleb128 0xb
	.uleb128 0x21
	.sleb128 8
	.uleb128 0x49
	.uleb128 0x13
	.byte	0
	.byte	0
	.uleb128 0xe
	.uleb128 0x5
	.byte	0
	.uleb128 0x3
	.uleb128 0x8
	.uleb128 0x3a
	.uleb128 0xb
	.uleb128 0x3b
	.uleb128 0x5
	.uleb128 0x39
	.uleb128 0xb
	.uleb128 0x49
	.uleb128 0x13
	.byte	0
	.byte	0
	.uleb128 0xf
	.uleb128 0x2f
	.byte	0
	.uleb128 0x3
	.uleb128 0x8
	.uleb128 0x49
	.uleb128 0x13
	.byte	0
	.byte	0
	.uleb128 0x10
	.uleb128 0x2e
	.byte	0x1
	.uleb128 0x3f
	.uleb128 0x19
	.uleb128 0x3
	.uleb128 0xe
	.uleb128 0x3a
	.uleb128 0xb
	.uleb128 0x3b
	.uleb128 0x5
	.uleb128 0x39
	.uleb128 0xb
	.uleb128 0x6e
	.uleb128 0xe
	.uleb128 0x32
	.uleb128 0xb
	.uleb128 0x3c
	.uleb128 0x19
	.uleb128 0x64
	.uleb128 0x13
	.uleb128 0x1
	.uleb128 0x13
	.byte	0
	.byte	0
	.uleb128 0x11
	.uleb128 0xd
	.byte	0
	.uleb128 0x3
	.uleb128 0xe
	.uleb128 0x3a
	.uleb128 0xb
	.uleb128 0x3b
	.uleb128 0xb
	.uleb128 0x39
	.uleb128 0xb
	.uleb128 0x49
	.uleb128 0x13
	.uleb128 0x38
	.uleb128 0xb
	.byte	0
	.byte	0
	.uleb128 0x12
	.uleb128 0x5
	.byte	0
	.uleb128 0x3
	.uleb128 0xe
	.uleb128 0x3a
	.uleb128 0xb
	.uleb128 0x3b
	.uleb128 0x5
	.uleb128 0x39
	.uleb128 0xb
	.uleb128 0x49
	.uleb128 0x13
	.byte	0
	.byte	0
	.uleb128 0x13
	.uleb128 0x1d
	.byte	0x1
	.uleb128 0x31
	.uleb128 0x13
	.uleb128 0x52
	.uleb128 0x1
	.uleb128 0x2138
	.uleb128 0x5
	.uleb128 0x11
	.uleb128 0x1
	.uleb128 0x12
	.uleb128 0x7
	.uleb128 0x58
	.uleb128 0xb
	.uleb128 0x59
	.uleb128 0x5
	.uleb128 0x57
	.uleb128 0xb
	.byte	0
	.byte	0
	.uleb128 0x14
	.uleb128 0x2e
	.byte	0x1
	.uleb128 0x47
	.uleb128 0x13
	.uleb128 0x20
	.uleb128 0xb
	.uleb128 0x1
	.uleb128 0x13
	.byte	0
	.byte	0
	.uleb128 0x15
	.uleb128 0x16
	.byte	0
	.uleb128 0x3
	.uleb128 0xe
	.uleb128 0x3a
	.uleb128 0xb
	.uleb128 0x3b
	.uleb128 0x5
	.uleb128 0x39
	.uleb128 0xb
	.uleb128 0x49
	.uleb128 0x13
	.uleb128 0x32
	.uleb128 0x21
	.sleb128 1
	.byte	0
	.byte	0
	.uleb128 0x16
	.uleb128 0x2e
	.byte	0x1
	.uleb128 0x3f
	.uleb128 0x19
	.uleb128 0x3
	.uleb128 0xe
	.uleb128 0x3a
	.uleb128 0xb
	.uleb128 0x3b
	.uleb128 0x5
	.uleb128 0x39
	.uleb128 0xb
	.uleb128 0x49
	.uleb128 0x13
	.uleb128 0x3c
	.uleb128 0x19
	.uleb128 0x1
	.uleb128 0x13
	.byte	0
	.byte	0
	.uleb128 0x17
	.uleb128 0x2e
	.byte	0x1
	.uleb128 0x3f
	.uleb128 0x19
	.uleb128 0x3
	.uleb128 0xe
	.uleb128 0x3a
	.uleb128 0xb
	.uleb128 0x3b
	.uleb128 0x5
	.uleb128 0x39
	.uleb128 0xb
	.uleb128 0x6e
	.uleb128 0xe
	.uleb128 0x49
	.uleb128 0x13
	.uleb128 0x3c
	.uleb128 0x19
	.uleb128 0x1
	.uleb128 0x13
	.byte	0
	.byte	0
	.uleb128 0x18
	.uleb128 0x8
	.byte	0
	.uleb128 0x3a
	.uleb128 0xb
	.uleb128 0x3b
	.uleb128 0x5
	.uleb128 0x39
	.uleb128 0xb
	.uleb128 0x18
	.uleb128 0x13
	.byte	0
	.byte	0
	.uleb128 0x19
	.uleb128 0x13
	.byte	0x1
	.uleb128 0x3
	.uleb128 0xe
	.uleb128 0xb
	.uleb128 0xb
	.uleb128 0x3a
	.uleb128 0xb
	.uleb128 0x3b
	.uleb128 0xb
	.uleb128 0x39
	.uleb128 0xb
	.uleb128 0x1
	.uleb128 0x13
	.byte	0
	.byte	0
	.uleb128 0x1a
	.uleb128 0x2e
	.byte	0x1
	.uleb128 0x31
	.uleb128 0x13
	.uleb128 0x6e
	.uleb128 0xe
	.uleb128 0x64
	.uleb128 0x13
	.uleb128 0x1
	.uleb128 0x13
	.byte	0
	.byte	0
	.uleb128 0x1b
	.uleb128 0x1d
	.byte	0x1
	.uleb128 0x31
	.uleb128 0x13
	.uleb128 0x52
	.uleb128 0x1
	.uleb128 0x2138
	.uleb128 0x5
	.uleb128 0x55
	.uleb128 0x17
	.uleb128 0x58
	.uleb128 0xb
	.uleb128 0x59
	.uleb128 0x5
	.uleb128 0x57
	.uleb128 0xb
	.byte	0
	.byte	0
	.uleb128 0x1c
	.uleb128 0x2e
	.byte	0x1
	.uleb128 0x3f
	.uleb128 0x19
	.uleb128 0x3
	.uleb128 0xe
	.uleb128 0x3a
	.uleb128 0x21
	.sleb128 2
	.uleb128 0x3b
	.uleb128 0x5
	.uleb128 0x39
	.uleb128 0x21
	.sleb128 7
	.uleb128 0x6e
	.uleb128 0xe
	.uleb128 0x3c
	.uleb128 0x19
	.uleb128 0x64
	.uleb128 0x13
	.uleb128 0x1
	.uleb128 0x13
	.byte	0
	.byte	0
	.uleb128 0x1d
	.uleb128 0x1d
	.byte	0x1
	.uleb128 0x31
	.uleb128 0x13
	.uleb128 0x52
	.uleb128 0x1
	.uleb128 0x2138
	.uleb128 0x5
	.uleb128 0x11
	.uleb128 0x1
	.uleb128 0x12
	.uleb128 0x7
	.uleb128 0x58
	.uleb128 0xb
	.uleb128 0x59
	.uleb128 0xb
	.uleb128 0x57
	.uleb128 0xb
	.uleb128 0x1
	.uleb128 0x13
	.byte	0
	.byte	0
	.uleb128 0x1e
	.uleb128 0x16
	.byte	0
	.uleb128 0x3
	.uleb128 0xe
	.uleb128 0x3a
	.uleb128 0xb
	.uleb128 0x3b
	.uleb128 0x5
	.uleb128 0x39
	.uleb128 0xb
	.uleb128 0x49
	.uleb128 0x13
	.byte	0
	.byte	0
	.uleb128 0x1f
	.uleb128 0x2e
	.byte	0x1
	.uleb128 0x3
	.uleb128 0xe
	.uleb128 0x3a
	.uleb128 0xb
	.uleb128 0x3b
	.uleb128 0x5
	.uleb128 0x39
	.uleb128 0xb
	.uleb128 0x49
	.uleb128 0x13
	.uleb128 0x32
	.uleb128 0xb
	.uleb128 0x3c
	.uleb128 0x19
	.uleb128 0x64
	.uleb128 0x13
	.uleb128 0x1
	.uleb128 0x13
	.byte	0
	.byte	0
	.uleb128 0x20
	.uleb128 0x1d
	.byte	0x1
	.uleb128 0x31
	.uleb128 0x13
	.uleb128 0x52
	.uleb128 0x1
	.uleb128 0x2138
	.uleb128 0x5
	.uleb128 0x11
	.uleb128 0x1
	.uleb128 0x12
	.uleb128 0x7
	.uleb128 0x58
	.uleb128 0xb
	.uleb128 0x59
	.uleb128 0xb
	.uleb128 0x57
	.uleb128 0xb
	.byte	0
	.byte	0
	.uleb128 0x21
	.uleb128 0x49
	.byte	0
	.uleb128 0x2
	.uleb128 0x18
	.uleb128 0x7e
	.uleb128 0x18
	.byte	0
	.byte	0
	.uleb128 0x22
	.uleb128 0x2e
	.byte	0x1
	.uleb128 0x3f
	.uleb128 0x19
	.uleb128 0x3
	.uleb128 0xe
	.uleb128 0x3a
	.uleb128 0xb
	.uleb128 0x3b
	.uleb128 0xb
	.uleb128 0x39
	.uleb128 0xb
	.uleb128 0x6e
	.uleb128 0xe
	.uleb128 0x49
	.uleb128 0x13
	.uleb128 0x32
	.uleb128 0xb
	.uleb128 0x3c
	.uleb128 0x19
	.uleb128 0x64
	.uleb128 0x13
	.uleb128 0x1
	.uleb128 0x13
	.byte	0
	.byte	0
	.uleb128 0x23
	.uleb128 0x2e
	.byte	0x1
	.uleb128 0x3f
	.uleb128 0x19
	.uleb128 0x3
	.uleb128 0xe
	.uleb128 0x3a
	.uleb128 0xb
	.uleb128 0x3b
	.uleb128 0xb
	.uleb128 0x39
	.uleb128 0xb
	.uleb128 0x6e
	.uleb128 0xe
	.uleb128 0x3c
	.uleb128 0x19
	.uleb128 0x64
	.uleb128 0x13
	.uleb128 0x1
	.uleb128 0x13
	.byte	0
	.byte	0
	.uleb128 0x24
	.uleb128 0x2e
	.byte	0x1
	.uleb128 0x3f
	.uleb128 0x19
	.uleb128 0x3
	.uleb128 0xe
	.uleb128 0x3a
	.uleb128 0xb
	.uleb128 0x3b
	.uleb128 0xb
	.uleb128 0x39
	.uleb128 0xb
	.uleb128 0x6e
	.uleb128 0xe
	.uleb128 0x32
	.uleb128 0xb
	.uleb128 0x3c
	.uleb128 0x19
	.uleb128 0x64
	.uleb128 0x13
	.uleb128 0x1
	.uleb128 0x13
	.byte	0
	.byte	0
	.uleb128 0x25
	.uleb128 0x2e
	.byte	0x1
	.uleb128 0x3f
	.uleb128 0x19
	.uleb128 0x3
	.uleb128 0xe
	.uleb128 0x3a
	.uleb128 0xb
	.uleb128 0x3b
	.uleb128 0xb
	.uleb128 0x39
	.uleb128 0xb
	.uleb128 0x49
	.uleb128 0x13
	.uleb128 0x3c
	.uleb128 0x19
	.uleb128 0x1
	.uleb128 0x13
	.byte	0
	.byte	0
	.uleb128 0x26
	.uleb128 0x34
	.byte	0
	.uleb128 0x3
	.uleb128 0xe
	.uleb128 0x3a
	.uleb128 0xb
	.uleb128 0x3b
	.uleb128 0x5
	.uleb128 0x39
	.uleb128 0xb
	.uleb128 0x49
	.uleb128 0x13
	.byte	0
	.byte	0
	.uleb128 0x27
	.uleb128 0x5
	.byte	0
	.uleb128 0x3
	.uleb128 0x8
	.uleb128 0x3a
	.uleb128 0xb
	.uleb128 0x3b
	.uleb128 0xb
	.uleb128 0x39
	.uleb128 0xb
	.uleb128 0x49
	.uleb128 0x13
	.byte	0
	.byte	0
	.uleb128 0x28
	.uleb128 0x16
	.byte	0
	.uleb128 0x3
	.uleb128 0xe
	.uleb128 0x3a
	.uleb128 0xb
	.uleb128 0x3b
	.uleb128 0xb
	.uleb128 0x39
	.uleb128 0xb
	.uleb128 0x49
	.uleb128 0x13
	.uleb128 0x32
	.uleb128 0x21
	.sleb128 1
	.byte	0
	.byte	0
	.uleb128 0x29
	.uleb128 0x42
	.byte	0
	.uleb128 0xb
	.uleb128 0x21
	.sleb128 8
	.uleb128 0x49
	.uleb128 0x13
	.byte	0
	.byte	0
	.uleb128 0x2a
	.uleb128 0x1d
	.byte	0x1
	.uleb128 0x31
	.uleb128 0x13
	.uleb128 0x52
	.uleb128 0x1
	.uleb128 0x2138
	.uleb128 0x5
	.uleb128 0x55
	.uleb128 0x17
	.uleb128 0x58
	.uleb128 0xb
	.uleb128 0x59
	.uleb128 0xb
	.uleb128 0x57
	.uleb128 0xb
	.uleb128 0x1
	.uleb128 0x13
	.byte	0
	.byte	0
	.uleb128 0x2b
	.uleb128 0x34
	.byte	0
	.uleb128 0x3
	.uleb128 0xe
	.uleb128 0x3a
	.uleb128 0xb
	.uleb128 0x3b
	.uleb128 0xb
	.uleb128 0x39
	.uleb128 0xb
	.uleb128 0x49
	.uleb128 0x13
	.byte	0
	.byte	0
	.uleb128 0x2c
	.uleb128 0x24
	.byte	0
	.uleb128 0xb
	.uleb128 0xb
	.uleb128 0x3e
	.uleb128 0xb
	.uleb128 0x3
	.uleb128 0xe
	.byte	0
	.byte	0
	.uleb128 0x2d
	.uleb128 0x1d
	.byte	0x1
	.uleb128 0x31
	.uleb128 0x13
	.uleb128 0x52
	.uleb128 0x1
	.uleb128 0x2138
	.uleb128 0x5
	.uleb128 0x11
	.uleb128 0x1
	.uleb128 0x12
	.uleb128 0x7
	.uleb128 0x58
	.uleb128 0xb
	.uleb128 0x59
	.uleb128 0x5
	.uleb128 0x57
	.uleb128 0xb
	.uleb128 0x1
	.uleb128 0x13
	.byte	0
	.byte	0
	.uleb128 0x2e
	.uleb128 0x2e
	.byte	0x1
	.uleb128 0x3
	.uleb128 0xe
	.uleb128 0x3a
	.uleb128 0xb
	.uleb128 0x3b
	.uleb128 0x5
	.uleb128 0x39
	.uleb128 0xb
	.uleb128 0x32
	.uleb128 0xb
	.uleb128 0x3c
	.uleb128 0x19
	.uleb128 0x64
	.uleb128 0x13
	.uleb128 0x1
	.uleb128 0x13
	.byte	0
	.byte	0
	.uleb128 0x2f
	.uleb128 0x34
	.byte	0
	.uleb128 0x3
	.uleb128 0xe
	.uleb128 0x3a
	.uleb128 0x21
	.sleb128 1
	.uleb128 0x3b
	.uleb128 0xb
	.uleb128 0x39
	.uleb128 0xb
	.uleb128 0x49
	.uleb128 0x13
	.uleb128 0x2
	.uleb128 0x17
	.uleb128 0x2137
	.uleb128 0x17
	.byte	0
	.byte	0
	.uleb128 0x30
	.uleb128 0x34
	.byte	0
	.uleb128 0x3
	.uleb128 0x8
	.uleb128 0x3a
	.uleb128 0x21
	.sleb128 1
	.uleb128 0x3b
	.uleb128 0xb
	.uleb128 0x39
	.uleb128 0xb
	.uleb128 0x49
	.uleb128 0x13
	.uleb128 0x2
	.uleb128 0x17
	.uleb128 0x2137
	.uleb128 0x17
	.byte	0
	.byte	0
	.uleb128 0x31
	.uleb128 0x34
	.byte	0
	.uleb128 0x31
	.uleb128 0x13
	.uleb128 0x2
	.uleb128 0x17
	.uleb128 0x2137
	.uleb128 0x17
	.byte	0
	.byte	0
	.uleb128 0x32
	.uleb128 0x48
	.byte	0x1
	.uleb128 0x7d
	.uleb128 0x1
	.uleb128 0x7f
	.uleb128 0x13
	.byte	0
	.byte	0
	.uleb128 0x33
	.uleb128 0x2e
	.byte	0
	.uleb128 0x3f
	.uleb128 0x19
	.uleb128 0x3
	.uleb128 0xe
	.uleb128 0x3a
	.uleb128 0x21
	.sleb128 50
	.uleb128 0x3b
	.uleb128 0xb
	.uleb128 0x39
	.uleb128 0x21
	.sleb128 27
	.uleb128 0x6e
	.uleb128 0xe
	.uleb128 0x49
	.uleb128 0x13
	.uleb128 0x3c
	.uleb128 0x19
	.byte	0
	.byte	0
	.uleb128 0x34
	.uleb128 0x1d
	.byte	0x1
	.uleb128 0x31
	.uleb128 0x13
	.uleb128 0x52
	.uleb128 0x1
	.uleb128 0x2138
	.uleb128 0x5
	.uleb128 0x55
	.uleb128 0x17
	.uleb128 0x58
	.uleb128 0xb
	.uleb128 0x59
	.uleb128 0xb
	.uleb128 0x57
	.uleb128 0xb
	.uleb128 0x2136
	.uleb128 0xb
	.uleb128 0x1
	.uleb128 0x13
	.byte	0
	.byte	0
	.uleb128 0x35
	.uleb128 0x2
	.byte	0
	.uleb128 0x3
	.uleb128 0xe
	.uleb128 0x3c
	.uleb128 0x19
	.byte	0
	.byte	0
	.uleb128 0x36
	.uleb128 0x2e
	.byte	0x1
	.uleb128 0x3f
	.uleb128 0x19
	.uleb128 0x3
	.uleb128 0xe
	.uleb128 0x3a
	.uleb128 0xb
	.uleb128 0x3b
	.uleb128 0xb
	.uleb128 0x39
	.uleb128 0xb
	.uleb128 0x6e
	.uleb128 0xe
	.uleb128 0x49
	.uleb128 0x13
	.uleb128 0x3c
	.uleb128 0x19
	.uleb128 0x1
	.uleb128 0x13
	.byte	0
	.byte	0
	.uleb128 0x37
	.uleb128 0x1c
	.byte	0
	.uleb128 0x49
	.uleb128 0x13
	.uleb128 0x38
	.uleb128 0x21
	.sleb128 0
	.byte	0
	.byte	0
	.uleb128 0x38
	.uleb128 0x2e
	.byte	0x1
	.uleb128 0x3f
	.uleb128 0x19
	.uleb128 0x3
	.uleb128 0xe
	.uleb128 0x3a
	.uleb128 0x21
	.sleb128 2
	.uleb128 0x3b
	.uleb128 0x5
	.uleb128 0x39
	.uleb128 0xb
	.uleb128 0x6e
	.uleb128 0xe
	.uleb128 0x49
	.uleb128 0x13
	.uleb128 0x3c
	.uleb128 0x19
	.uleb128 0x64
	.uleb128 0x13
	.uleb128 0x1
	.uleb128 0x13
	.byte	0
	.byte	0
	.uleb128 0x39
	.uleb128 0x2e
	.byte	0x1
	.uleb128 0x3f
	.uleb128 0x19
	.uleb128 0x3
	.uleb128 0xe
	.uleb128 0x3a
	.uleb128 0xb
	.uleb128 0x3b
	.uleb128 0x5
	.uleb128 0x39
	.uleb128 0xb
	.uleb128 0x6e
	.uleb128 0xe
	.uleb128 0x3c
	.uleb128 0x19
	.uleb128 0x1
	.uleb128 0x13
	.byte	0
	.byte	0
	.uleb128 0x3a
	.uleb128 0x2e
	.byte	0x1
	.uleb128 0x3f
	.uleb128 0x19
	.uleb128 0x3
	.uleb128 0x8
	.uleb128 0x3a
	.uleb128 0x21
	.sleb128 2
	.uleb128 0x3b
	.uleb128 0x5
	.uleb128 0x39
	.uleb128 0x21
	.sleb128 7
	.uleb128 0x6e
	.uleb128 0xe
	.uleb128 0x49
	.uleb128 0x13
	.uleb128 0x32
	.uleb128 0x21
	.sleb128 1
	.uleb128 0x3c
	.uleb128 0x19
	.uleb128 0x64
	.uleb128 0x13
	.uleb128 0x1
	.uleb128 0x13
	.byte	0
	.byte	0
	.uleb128 0x3b
	.uleb128 0x34
	.byte	0
	.uleb128 0x31
	.uleb128 0x13
	.byte	0
	.byte	0
	.uleb128 0x3c
	.uleb128 0x2e
	.byte	0x1
	.uleb128 0x3
	.uleb128 0xe
	.uleb128 0x3a
	.uleb128 0x21
	.sleb128 2
	.uleb128 0x3b
	.uleb128 0x5
	.uleb128 0x39
	.uleb128 0xb
	.uleb128 0x3c
	.uleb128 0x19
	.uleb128 0x64
	.uleb128 0x13
	.uleb128 0x1
	.uleb128 0x13
	.byte	0
	.byte	0
	.uleb128 0x3d
	.uleb128 0x2e
	.byte	0x1
	.uleb128 0x31
	.uleb128 0x13
	.uleb128 0x64
	.uleb128 0x13
	.uleb128 0x1
	.uleb128 0x13
	.byte	0
	.byte	0
	.uleb128 0x3e
	.uleb128 0x2
	.byte	0x1
	.uleb128 0x3
	.uleb128 0xe
	.uleb128 0xb
	.uleb128 0xb
	.uleb128 0x3a
	.uleb128 0xb
	.uleb128 0x3b
	.uleb128 0xb
	.uleb128 0x39
	.uleb128 0x21
	.sleb128 11
	.uleb128 0x1
	.uleb128 0x13
	.byte	0
	.byte	0
	.uleb128 0x3f
	.uleb128 0x1d
	.byte	0x1
	.uleb128 0x31
	.uleb128 0x13
	.uleb128 0x52
	.uleb128 0x1
	.uleb128 0x2138
	.uleb128 0x5
	.uleb128 0x55
	.uleb128 0x17
	.uleb128 0x58
	.uleb128 0xb
	.uleb128 0x59
	.uleb128 0x5
	.uleb128 0x57
	.uleb128 0xb
	.uleb128 0x1
	.uleb128 0x13
	.byte	0
	.byte	0
	.uleb128 0x40
	.uleb128 0x2e
	.byte	0x1
	.uleb128 0x3f
	.uleb128 0x19
	.uleb128 0x3
	.uleb128 0xe
	.uleb128 0x3a
	.uleb128 0xb
	.uleb128 0x3b
	.uleb128 0x5
	.uleb128 0x39
	.uleb128 0x21
	.sleb128 7
	.uleb128 0x6e
	.uleb128 0xe
	.uleb128 0x32
	.uleb128 0x21
	.sleb128 1
	.uleb128 0x3c
	.uleb128 0x19
	.uleb128 0x63
	.uleb128 0x19
	.uleb128 0x64
	.uleb128 0x13
	.uleb128 0x1
	.uleb128 0x13
	.byte	0
	.byte	0
	.uleb128 0x41
	.uleb128 0xd
	.byte	0
	.uleb128 0x3
	.uleb128 0x8
	.uleb128 0x3a
	.uleb128 0xb
	.uleb128 0x3b
	.uleb128 0xb
	.uleb128 0x39
	.uleb128 0xb
	.uleb128 0x49
	.uleb128 0x13
	.uleb128 0x38
	.uleb128 0xb
	.byte	0
	.byte	0
	.uleb128 0x42
	.uleb128 0x5
	.byte	0
	.uleb128 0x3
	.uleb128 0xe
	.uleb128 0x3a
	.uleb128 0xb
	.uleb128 0x3b
	.uleb128 0xb
	.uleb128 0x39
	.uleb128 0xb
	.uleb128 0x49
	.uleb128 0x13
	.byte	0
	.byte	0
	.uleb128 0x43
	.uleb128 0xb
	.byte	0x1
	.byte	0
	.byte	0
	.uleb128 0x44
	.uleb128 0xb
	.byte	0x1
	.uleb128 0x55
	.uleb128 0x17
	.byte	0
	.byte	0
	.uleb128 0x45
	.uleb128 0x2e
	.byte	0x1
	.uleb128 0x3f
	.uleb128 0x19
	.uleb128 0x3
	.uleb128 0xe
	.uleb128 0x3a
	.uleb128 0xb
	.uleb128 0x3b
	.uleb128 0xb
	.uleb128 0x39
	.uleb128 0xb
	.uleb128 0x6e
	.uleb128 0xe
	.uleb128 0x49
	.uleb128 0x13
	.uleb128 0x3c
	.uleb128 0x19
	.uleb128 0x64
	.uleb128 0x13
	.uleb128 0x1
	.uleb128 0x13
	.byte	0
	.byte	0
	.uleb128 0x46
	.uleb128 0x2e
	.byte	0x1
	.uleb128 0x3
	.uleb128 0xe
	.uleb128 0x3a
	.uleb128 0xb
	.uleb128 0x3b
	.uleb128 0x5
	.uleb128 0x39
	.uleb128 0xb
	.uleb128 0x49
	.uleb128 0x13
	.uleb128 0x3c
	.uleb128 0x19
	.uleb128 0x1
	.uleb128 0x13
	.byte	0
	.byte	0
	.uleb128 0x47
	.uleb128 0x1d
	.byte	0x1
	.uleb128 0x31
	.uleb128 0x13
	.uleb128 0x52
	.uleb128 0x1
	.uleb128 0x2138
	.uleb128 0x5
	.uleb128 0x11
	.uleb128 0x1
	.uleb128 0x12
	.uleb128 0x7
	.uleb128 0x58
	.uleb128 0x21
	.sleb128 1
	.uleb128 0x59
	.uleb128 0xb
	.uleb128 0x57
	.uleb128 0xb
	.uleb128 0x2136
	.uleb128 0xb
	.uleb128 0x1
	.uleb128 0x13
	.byte	0
	.byte	0
	.uleb128 0x48
	.uleb128 0x1c
	.byte	0
	.uleb128 0x49
	.uleb128 0x13
	.uleb128 0x38
	.uleb128 0x21
	.sleb128 0
	.uleb128 0x32
	.uleb128 0xb
	.byte	0
	.byte	0
	.uleb128 0x49
	.uleb128 0x2
	.byte	0x1
	.uleb128 0x3
	.uleb128 0xe
	.uleb128 0xb
	.uleb128 0xb
	.uleb128 0x3a
	.uleb128 0xb
	.uleb128 0x3b
	.uleb128 0x5
	.uleb128 0x39
	.uleb128 0x21
	.sleb128 11
	.uleb128 0x1
	.uleb128 0x13
	.byte	0
	.byte	0
	.uleb128 0x4a
	.uleb128 0x2e
	.byte	0x1
	.uleb128 0x3f
	.uleb128 0x19
	.uleb128 0x3
	.uleb128 0xe
	.uleb128 0x3a
	.uleb128 0xb
	.uleb128 0x3b
	.uleb128 0xb
	.uleb128 0x39
	.uleb128 0xb
	.uleb128 0x6e
	.uleb128 0xe
	.uleb128 0x3c
	.uleb128 0x19
	.uleb128 0x1
	.uleb128 0x13
	.byte	0
	.byte	0
	.uleb128 0x4b
	.uleb128 0x2e
	.byte	0x1
	.uleb128 0x3f
	.uleb128 0x19
	.uleb128 0x3
	.uleb128 0x8
	.uleb128 0x3a
	.uleb128 0xb
	.uleb128 0x3b
	.uleb128 0xb
	.uleb128 0x39
	.uleb128 0x21
	.sleb128 3
	.uleb128 0x6e
	.uleb128 0xe
	.uleb128 0x49
	.uleb128 0x13
	.uleb128 0x3c
	.uleb128 0x19
	.uleb128 0x1
	.uleb128 0x13
	.byte	0
	.byte	0
	.uleb128 0x4c
	.uleb128 0xb
	.byte	0x1
	.uleb128 0x55
	.uleb128 0x17
	.uleb128 0x1
	.uleb128 0x13
	.byte	0
	.byte	0
	.uleb128 0x4d
	.uleb128 0x48
	.byte	0
	.uleb128 0x7d
	.uleb128 0x1
	.uleb128 0x83
	.uleb128 0x18
	.byte	0
	.byte	0
	.uleb128 0x4e
	.uleb128 0x2e
	.byte	0x1
	.uleb128 0x3f
	.uleb128 0x19
	.uleb128 0x3
	.uleb128 0xe
	.uleb128 0x3a
	.uleb128 0xb
	.uleb128 0x3b
	.uleb128 0xb
	.uleb128 0x39
	.uleb128 0xb
	.uleb128 0x6e
	.uleb128 0xe
	.uleb128 0x49
	.uleb128 0x13
	.uleb128 0x32
	.uleb128 0x21
	.sleb128 1
	.uleb128 0x3c
	.uleb128 0x19
	.uleb128 0x8b
	.uleb128 0x21
	.sleb128 1
	.uleb128 0x64
	.uleb128 0x13
	.uleb128 0x1
	.uleb128 0x13
	.byte	0
	.byte	0
	.uleb128 0x4f
	.uleb128 0x2e
	.byte	0x1
	.uleb128 0x3f
	.uleb128 0x19
	.uleb128 0x3
	.uleb128 0xe
	.uleb128 0x3a
	.uleb128 0x21
	.sleb128 2
	.uleb128 0x3b
	.uleb128 0x5
	.uleb128 0x39
	.uleb128 0x21
	.sleb128 7
	.uleb128 0x6e
	.uleb128 0xe
	.uleb128 0x3c
	.uleb128 0x19
	.uleb128 0x8b
	.uleb128 0x21
	.sleb128 1
	.uleb128 0x64
	.uleb128 0x13
	.uleb128 0x1
	.uleb128 0x13
	.byte	0
	.byte	0
	.uleb128 0x50
	.uleb128 0xd
	.byte	0
	.uleb128 0x3
	.uleb128 0xe
	.uleb128 0x3a
	.uleb128 0x21
	.sleb128 2
	.uleb128 0x3b
	.uleb128 0x5
	.uleb128 0x39
	.uleb128 0xb
	.uleb128 0x49
	.uleb128 0x13
	.uleb128 0x38
	.uleb128 0xb
	.byte	0
	.byte	0
	.uleb128 0x51
	.uleb128 0x2e
	.byte	0x1
	.uleb128 0x3f
	.uleb128 0x19
	.uleb128 0x3
	.uleb128 0xe
	.uleb128 0x3a
	.uleb128 0x21
	.sleb128 2
	.uleb128 0x3b
	.uleb128 0x5
	.uleb128 0x39
	.uleb128 0x21
	.sleb128 7
	.uleb128 0x6e
	.uleb128 0xe
	.uleb128 0x32
	.uleb128 0x21
	.sleb128 1
	.uleb128 0x3c
	.uleb128 0x19
	.uleb128 0x8b
	.uleb128 0x21
	.sleb128 1
	.uleb128 0x64
	.uleb128 0x13
	.uleb128 0x1
	.uleb128 0x13
	.byte	0
	.byte	0
	.uleb128 0x52
	.uleb128 0x2e
	.byte	0x1
	.uleb128 0x3f
	.uleb128 0x19
	.uleb128 0x3
	.uleb128 0xe
	.uleb128 0x3a
	.uleb128 0x21
	.sleb128 2
	.uleb128 0x3b
	.uleb128 0x5
	.uleb128 0x39
	.uleb128 0x21
	.sleb128 7
	.uleb128 0x6e
	.uleb128 0xe
	.uleb128 0x49
	.uleb128 0x13
	.uleb128 0x32
	.uleb128 0x21
	.sleb128 2
	.uleb128 0x3c
	.uleb128 0x19
	.uleb128 0x1
	.uleb128 0x13
	.byte	0
	.byte	0
	.uleb128 0x53
	.uleb128 0x2e
	.byte	0x1
	.uleb128 0x3
	.uleb128 0xe
	.uleb128 0x3a
	.uleb128 0xb
	.uleb128 0x3b
	.uleb128 0xb
	.uleb128 0x39
	.uleb128 0xb
	.uleb128 0x32
	.uleb128 0x21
	.sleb128 1
	.uleb128 0x3c
	.uleb128 0x19
	.uleb128 0x64
	.uleb128 0x13
	.uleb128 0x1
	.uleb128 0x13
	.byte	0
	.byte	0
	.uleb128 0x54
	.uleb128 0x2e
	.byte	0x1
	.uleb128 0x3
	.uleb128 0xe
	.uleb128 0x3a
	.uleb128 0xb
	.uleb128 0x3b
	.uleb128 0xb
	.uleb128 0x39
	.uleb128 0xb
	.uleb128 0x49
	.uleb128 0x13
	.uleb128 0x32
	.uleb128 0xb
	.uleb128 0x3c
	.uleb128 0x19
	.uleb128 0x64
	.uleb128 0x13
	.uleb128 0x1
	.uleb128 0x13
	.byte	0
	.byte	0
	.uleb128 0x55
	.uleb128 0x4107
	.byte	0x1
	.uleb128 0x3
	.uleb128 0xe
	.uleb128 0x1
	.uleb128 0x13
	.byte	0
	.byte	0
	.uleb128 0x56
	.uleb128 0x2f
	.byte	0
	.uleb128 0x49
	.uleb128 0x13
	.byte	0
	.byte	0
	.uleb128 0x57
	.uleb128 0x2e
	.byte	0x1
	.uleb128 0x3
	.uleb128 0xe
	.uleb128 0x3a
	.uleb128 0x21
	.sleb128 2
	.uleb128 0x3b
	.uleb128 0xb
	.uleb128 0x39
	.uleb128 0x21
	.sleb128 2
	.uleb128 0x3c
	.uleb128 0x19
	.uleb128 0x64
	.uleb128 0x13
	.uleb128 0x1
	.uleb128 0x13
	.byte	0
	.byte	0
	.uleb128 0x58
	.uleb128 0x13
	.byte	0x1
	.uleb128 0x3
	.uleb128 0xe
	.uleb128 0xb
	.uleb128 0xb
	.uleb128 0x3a
	.uleb128 0xb
	.uleb128 0x3b
	.uleb128 0x5
	.uleb128 0x39
	.uleb128 0xb
	.uleb128 0x1
	.uleb128 0x13
	.byte	0
	.byte	0
	.uleb128 0x59
	.uleb128 0x1
	.byte	0x1
	.uleb128 0x2107
	.uleb128 0x19
	.uleb128 0x49
	.uleb128 0x13
	.uleb128 0x1
	.uleb128 0x13
	.byte	0
	.byte	0
	.uleb128 0x5a
	.uleb128 0x21
	.byte	0
	.uleb128 0x2f
	.uleb128 0xb
	.byte	0
	.byte	0
	.uleb128 0x5b
	.uleb128 0x34
	.byte	0
	.uleb128 0x3
	.uleb128 0x8
	.uleb128 0x3a
	.uleb128 0xb
	.uleb128 0x3b
	.uleb128 0x5
	.uleb128 0x39
	.uleb128 0xb
	.uleb128 0x49
	.uleb128 0x13
	.byte	0
	.byte	0
	.uleb128 0x5c
	.uleb128 0x34
	.byte	0
	.uleb128 0x3
	.uleb128 0x8
	.uleb128 0x3a
	.uleb128 0x21
	.sleb128 1
	.uleb128 0x3b
	.uleb128 0xb
	.uleb128 0x39
	.uleb128 0xb
	.uleb128 0x49
	.uleb128 0x13
	.byte	0
	.byte	0
	.uleb128 0x5d
	.uleb128 0x34
	.byte	0
	.uleb128 0x3
	.uleb128 0xe
	.uleb128 0x49
	.uleb128 0x13
	.uleb128 0x34
	.uleb128 0x19
	.byte	0
	.byte	0
	.uleb128 0x5e
	.uleb128 0x1d
	.byte	0x1
	.uleb128 0x31
	.uleb128 0x13
	.uleb128 0x52
	.uleb128 0x1
	.uleb128 0x2138
	.uleb128 0x5
	.uleb128 0x55
	.uleb128 0x17
	.uleb128 0x58
	.uleb128 0xb
	.uleb128 0x59
	.uleb128 0x5
	.uleb128 0x57
	.uleb128 0xb
	.uleb128 0x2136
	.uleb128 0xb
	.uleb128 0x1
	.uleb128 0x13
	.byte	0
	.byte	0
	.uleb128 0x5f
	.uleb128 0x2e
	.byte	0x1
	.uleb128 0x3f
	.uleb128 0x19
	.uleb128 0x3
	.uleb128 0xe
	.uleb128 0x3a
	.uleb128 0xb
	.uleb128 0x3b
	.uleb128 0x5
	.uleb128 0x39
	.uleb128 0x21
	.sleb128 1
	.uleb128 0x6e
	.uleb128 0xe
	.uleb128 0x49
	.uleb128 0x13
	.uleb128 0x20
	.uleb128 0x21
	.sleb128 3
	.uleb128 0x34
	.uleb128 0x19
	.uleb128 0x1
	.uleb128 0x13
	.byte	0
	.byte	0
	.uleb128 0x60
	.uleb128 0x18
	.byte	0
	.byte	0
	.byte	0
	.uleb128 0x61
	.uleb128 0x2e
	.byte	0x1
	.uleb128 0x3f
	.uleb128 0x19
	.uleb128 0x3
	.uleb128 0xe
	.uleb128 0x3a
	.uleb128 0xb
	.uleb128 0x3b
	.uleb128 0x5
	.uleb128 0x39
	.uleb128 0x21
	.sleb128 13
	.uleb128 0x3c
	.uleb128 0x19
	.uleb128 0x1
	.uleb128 0x13
	.byte	0
	.byte	0
	.uleb128 0x62
	.uleb128 0x2e
	.byte	0x1
	.uleb128 0x47
	.uleb128 0x13
	.uleb128 0x3a
	.uleb128 0xb
	.uleb128 0x3b
	.uleb128 0xb
	.uleb128 0x39
	.uleb128 0xb
	.uleb128 0x64
	.uleb128 0x13
	.uleb128 0x20
	.uleb128 0x21
	.sleb128 2
	.uleb128 0x1
	.uleb128 0x13
	.byte	0
	.byte	0
	.uleb128 0x63
	.uleb128 0x2e
	.byte	0x1
	.uleb128 0x3f
	.uleb128 0x19
	.uleb128 0x3
	.uleb128 0xe
	.uleb128 0x3a
	.uleb128 0x21
	.sleb128 2
	.uleb128 0x3b
	.uleb128 0xb
	.uleb128 0x39
	.uleb128 0x21
	.sleb128 2
	.uleb128 0x6e
	.uleb128 0xe
	.uleb128 0x3c
	.uleb128 0x19
	.uleb128 0x64
	.uleb128 0x13
	.byte	0
	.byte	0
	.uleb128 0x64
	.uleb128 0x2f
	.byte	0
	.uleb128 0x3
	.uleb128 0xe
	.uleb128 0x49
	.uleb128 0x13
	.uleb128 0x1e
	.uleb128 0x19
	.byte	0
	.byte	0
	.uleb128 0x65
	.uleb128 0x2e
	.byte	0x1
	.uleb128 0x3
	.uleb128 0xe
	.uleb128 0x3a
	.uleb128 0x21
	.sleb128 2
	.uleb128 0x3b
	.uleb128 0x5
	.uleb128 0x39
	.uleb128 0xb
	.uleb128 0x49
	.uleb128 0x13
	.uleb128 0x3c
	.uleb128 0x19
	.uleb128 0x64
	.uleb128 0x13
	.uleb128 0x1
	.uleb128 0x13
	.byte	0
	.byte	0
	.uleb128 0x66
	.uleb128 0xd
	.byte	0
	.uleb128 0x3
	.uleb128 0xe
	.uleb128 0x3a
	.uleb128 0x21
	.sleb128 3
	.uleb128 0x3b
	.uleb128 0x21
	.sleb128 1029
	.uleb128 0x39
	.uleb128 0x21
	.sleb128 17
	.uleb128 0x49
	.uleb128 0x13
	.uleb128 0x38
	.uleb128 0x21
	.sleb128 0
	.uleb128 0x32
	.uleb128 0x21
	.sleb128 2
	.byte	0
	.byte	0
	.uleb128 0x67
	.uleb128 0x2e
	.byte	0
	.uleb128 0x3
	.uleb128 0xe
	.uleb128 0x3a
	.uleb128 0x21
	.sleb128 50
	.uleb128 0x3b
	.uleb128 0xb
	.uleb128 0x39
	.uleb128 0x21
	.sleb128 27
	.uleb128 0x49
	.uleb128 0x13
	.uleb128 0x3c
	.uleb128 0x19
	.byte	0
	.byte	0
	.uleb128 0x68
	.uleb128 0x1d
	.byte	0x1
	.uleb128 0x31
	.uleb128 0x13
	.uleb128 0x52
	.uleb128 0x1
	.uleb128 0x2138
	.uleb128 0x5
	.uleb128 0x55
	.uleb128 0x17
	.uleb128 0x58
	.uleb128 0xb
	.uleb128 0x59
	.uleb128 0xb
	.uleb128 0x57
	.uleb128 0xb
	.byte	0
	.byte	0
	.uleb128 0x69
	.uleb128 0x1d
	.byte	0x1
	.uleb128 0x31
	.uleb128 0x13
	.uleb128 0x52
	.uleb128 0x1
	.uleb128 0x2138
	.uleb128 0x5
	.uleb128 0x11
	.uleb128 0x1
	.uleb128 0x12
	.uleb128 0x7
	.uleb128 0x58
	.uleb128 0x21
	.sleb128 2
	.uleb128 0x59
	.uleb128 0x5
	.uleb128 0x57
	.uleb128 0xb
	.uleb128 0x2136
	.uleb128 0xb
	.uleb128 0x1
	.uleb128 0x13
	.byte	0
	.byte	0
	.uleb128 0x6a
	.uleb128 0x1d
	.byte	0x1
	.uleb128 0x31
	.uleb128 0x13
	.uleb128 0x52
	.uleb128 0x1
	.uleb128 0x2138
	.uleb128 0x5
	.uleb128 0x55
	.uleb128 0x17
	.uleb128 0x58
	.uleb128 0xb
	.uleb128 0x59
	.uleb128 0x5
	.uleb128 0x57
	.uleb128 0xb
	.uleb128 0x2136
	.uleb128 0xb
	.byte	0
	.byte	0
	.uleb128 0x6b
	.uleb128 0x1d
	.byte	0x1
	.uleb128 0x31
	.uleb128 0x13
	.uleb128 0x52
	.uleb128 0x1
	.uleb128 0x2138
	.uleb128 0x5
	.uleb128 0x11
	.uleb128 0x1
	.uleb128 0x12
	.uleb128 0x7
	.uleb128 0x58
	.uleb128 0xb
	.uleb128 0x59
	.uleb128 0xb
	.uleb128 0x57
	.uleb128 0x21
	.sleb128 22
	.uleb128 0x2136
	.uleb128 0xb
	.byte	0
	.byte	0
	.uleb128 0x6c
	.uleb128 0xb
	.byte	0x1
	.uleb128 0x31
	.uleb128 0x13
	.uleb128 0x55
	.uleb128 0x17
	.uleb128 0x1
	.uleb128 0x13
	.byte	0
	.byte	0
	.uleb128 0x6d
	.uleb128 0x39
	.byte	0x1
	.uleb128 0x3
	.uleb128 0xe
	.uleb128 0x3a
	.uleb128 0xb
	.uleb128 0x3b
	.uleb128 0xb
	.uleb128 0x39
	.uleb128 0xb
	.uleb128 0x1
	.uleb128 0x13
	.byte	0
	.byte	0
	.uleb128 0x6e
	.uleb128 0x2e
	.byte	0x1
	.uleb128 0x3f
	.uleb128 0x19
	.uleb128 0x3
	.uleb128 0xe
	.uleb128 0x3a
	.uleb128 0x21
	.sleb128 5
	.uleb128 0x3b
	.uleb128 0x21
	.sleb128 189
	.uleb128 0x39
	.uleb128 0x21
	.sleb128 7
	.uleb128 0x6e
	.uleb128 0xe
	.uleb128 0x32
	.uleb128 0x21
	.sleb128 1
	.uleb128 0x3c
	.uleb128 0x19
	.uleb128 0x64
	.uleb128 0x13
	.byte	0
	.byte	0
	.uleb128 0x6f
	.uleb128 0x2e
	.byte	0x1
	.uleb128 0x3f
	.uleb128 0x19
	.uleb128 0x3
	.uleb128 0xe
	.uleb128 0x6e
	.uleb128 0xe
	.uleb128 0x34
	.uleb128 0x19
	.uleb128 0x3c
	.uleb128 0x19
	.uleb128 0x64
	.uleb128 0x13
	.byte	0
	.byte	0
	.uleb128 0x70
	.uleb128 0x2e
	.byte	0
	.uleb128 0x3f
	.uleb128 0x19
	.uleb128 0x3
	.uleb128 0xe
	.uleb128 0x3a
	.uleb128 0x21
	.sleb128 2
	.uleb128 0x3b
	.uleb128 0x21
	.sleb128 515
	.uleb128 0x39
	.uleb128 0x21
	.sleb128 7
	.uleb128 0x6e
	.uleb128 0xe
	.uleb128 0x49
	.uleb128 0x13
	.uleb128 0x3c
	.uleb128 0x19
	.byte	0
	.byte	0
	.uleb128 0x71
	.uleb128 0x2e
	.byte	0x1
	.uleb128 0x3
	.uleb128 0x8
	.uleb128 0x3a
	.uleb128 0x21
	.sleb128 2
	.uleb128 0x3b
	.uleb128 0x5
	.uleb128 0x39
	.uleb128 0x21
	.sleb128 7
	.uleb128 0x49
	.uleb128 0x13
	.uleb128 0x32
	.uleb128 0x21
	.sleb128 1
	.uleb128 0x3c
	.uleb128 0x19
	.uleb128 0x64
	.uleb128 0x13
	.uleb128 0x1
	.uleb128 0x13
	.byte	0
	.byte	0
	.uleb128 0x72
	.uleb128 0xd
	.byte	0
	.uleb128 0x3
	.uleb128 0xe
	.uleb128 0x3a
	.uleb128 0x21
	.sleb128 41
	.uleb128 0x3b
	.uleb128 0x21
	.sleb128 0
	.uleb128 0x49
	.uleb128 0x13
	.uleb128 0x38
	.uleb128 0xb
	.byte	0
	.byte	0
	.uleb128 0x73
	.uleb128 0x13
	.byte	0x1
	.uleb128 0xb
	.uleb128 0xb
	.uleb128 0x3a
	.uleb128 0xb
	.uleb128 0x3b
	.uleb128 0xb
	.uleb128 0x39
	.uleb128 0xb
	.uleb128 0x6e
	.uleb128 0xe
	.uleb128 0x1
	.uleb128 0x13
	.byte	0
	.byte	0
	.uleb128 0x74
	.uleb128 0x2e
	.byte	0
	.uleb128 0x3f
	.uleb128 0x19
	.uleb128 0x3
	.uleb128 0xe
	.uleb128 0x3a
	.uleb128 0xb
	.uleb128 0x3b
	.uleb128 0xb
	.uleb128 0x39
	.uleb128 0xb
	.uleb128 0x49
	.uleb128 0x13
	.uleb128 0x3c
	.uleb128 0x19
	.byte	0
	.byte	0
	.uleb128 0x75
	.uleb128 0xb
	.byte	0x1
	.uleb128 0x31
	.uleb128 0x13
	.byte	0
	.byte	0
	.uleb128 0x76
	.uleb128 0xb
	.byte	0x1
	.uleb128 0x31
	.uleb128 0x13
	.uleb128 0x55
	.uleb128 0x17
	.byte	0
	.byte	0
	.uleb128 0x77
	.uleb128 0x1d
	.byte	0x1
	.uleb128 0x31
	.uleb128 0x13
	.uleb128 0x52
	.uleb128 0x1
	.uleb128 0x2138
	.uleb128 0x5
	.uleb128 0x11
	.uleb128 0x1
	.uleb128 0x12
	.uleb128 0x7
	.uleb128 0x58
	.uleb128 0x21
	.sleb128 2
	.uleb128 0x59
	.uleb128 0x5
	.uleb128 0x57
	.uleb128 0xb
	.uleb128 0x2136
	.uleb128 0xb
	.byte	0
	.byte	0
	.uleb128 0x78
	.uleb128 0xb
	.byte	0x1
	.uleb128 0x31
	.uleb128 0x13
	.uleb128 0x11
	.uleb128 0x1
	.uleb128 0x12
	.uleb128 0x7
	.uleb128 0x1
	.uleb128 0x13
	.byte	0
	.byte	0
	.uleb128 0x79
	.uleb128 0x39
	.byte	0
	.uleb128 0x3
	.uleb128 0xe
	.uleb128 0x3a
	.uleb128 0xb
	.uleb128 0x3b
	.uleb128 0xb
	.uleb128 0x39
	.uleb128 0xb
	.byte	0
	.byte	0
	.uleb128 0x7a
	.uleb128 0x2e
	.byte	0x1
	.uleb128 0x3
	.uleb128 0xe
	.uleb128 0x3a
	.uleb128 0xb
	.uleb128 0x3b
	.uleb128 0x5
	.uleb128 0x39
	.uleb128 0x21
	.sleb128 7
	.uleb128 0x32
	.uleb128 0x21
	.sleb128 1
	.uleb128 0x3c
	.uleb128 0x19
	.uleb128 0x63
	.uleb128 0x19
	.uleb128 0x64
	.uleb128 0x13
	.uleb128 0x1
	.uleb128 0x13
	.byte	0
	.byte	0
	.uleb128 0x7b
	.uleb128 0x1
	.byte	0x1
	.uleb128 0x49
	.uleb128 0x13
	.uleb128 0x1
	.uleb128 0x13
	.byte	0
	.byte	0
	.uleb128 0x7c
	.uleb128 0x21
	.byte	0
	.uleb128 0x49
	.uleb128 0x13
	.uleb128 0x2f
	.uleb128 0xb
	.byte	0
	.byte	0
	.uleb128 0x7d
	.uleb128 0x28
	.byte	0
	.uleb128 0x3
	.uleb128 0xe
	.uleb128 0x1c
	.uleb128 0xb
	.byte	0
	.byte	0
	.uleb128 0x7e
	.uleb128 0x13
	.byte	0
	.uleb128 0x3
	.uleb128 0xe
	.uleb128 0x3c
	.uleb128 0x19
	.byte	0
	.byte	0
	.uleb128 0x7f
	.uleb128 0x16
	.byte	0
	.uleb128 0x3
	.uleb128 0xe
	.uleb128 0x3a
	.uleb128 0xb
	.uleb128 0x3b
	.uleb128 0xb
	.uleb128 0x39
	.uleb128 0xb
	.uleb128 0x49
	.uleb128 0x13
	.uleb128 0x88
	.uleb128 0x21
	.sleb128 1
	.byte	0
	.byte	0
	.uleb128 0x80
	.uleb128 0xb
	.byte	0x1
	.uleb128 0x11
	.uleb128 0x1
	.uleb128 0x12
	.uleb128 0x7
	.uleb128 0x1
	.uleb128 0x13
	.byte	0
	.byte	0
	.uleb128 0x81
	.uleb128 0x2e
	.byte	0
	.uleb128 0x3f
	.uleb128 0x19
	.uleb128 0x3c
	.uleb128 0x19
	.uleb128 0x6e
	.uleb128 0xe
	.uleb128 0x3
	.uleb128 0xe
	.byte	0
	.byte	0
	.uleb128 0x82
	.uleb128 0x30
	.byte	0
	.uleb128 0x3
	.uleb128 0x8
	.uleb128 0x49
	.uleb128 0x13
	.uleb128 0x1c
	.uleb128 0xb
	.byte	0
	.byte	0
	.uleb128 0x83
	.uleb128 0x39
	.byte	0
	.uleb128 0x3
	.uleb128 0xe
	.uleb128 0x3a
	.uleb128 0x21
	.sleb128 19
	.uleb128 0x3b
	.uleb128 0x5
	.uleb128 0x39
	.uleb128 0x21
	.sleb128 13
	.byte	0
	.byte	0
	.uleb128 0x84
	.uleb128 0x2e
	.byte	0x1
	.uleb128 0x3f
	.uleb128 0x19
	.uleb128 0x3
	.uleb128 0xe
	.uleb128 0x3a
	.uleb128 0xb
	.uleb128 0x3b
	.uleb128 0xb
	.uleb128 0x39
	.uleb128 0xb
	.uleb128 0x6e
	.uleb128 0xe
	.uleb128 0x3c
	.uleb128 0x19
	.uleb128 0x63
	.uleb128 0x19
	.uleb128 0x64
	.uleb128 0x13
	.uleb128 0x1
	.uleb128 0x13
	.byte	0
	.byte	0
	.uleb128 0x85
	.uleb128 0x2e
	.byte	0x1
	.uleb128 0x3f
	.uleb128 0x19
	.uleb128 0x3
	.uleb128 0xe
	.uleb128 0x3a
	.uleb128 0xb
	.uleb128 0x3b
	.uleb128 0xb
	.uleb128 0x39
	.uleb128 0xb
	.uleb128 0x6e
	.uleb128 0xe
	.uleb128 0x87
	.uleb128 0x19
	.uleb128 0x3c
	.uleb128 0x19
	.uleb128 0x1
	.uleb128 0x13
	.byte	0
	.byte	0
	.uleb128 0x86
	.uleb128 0x39
	.byte	0
	.uleb128 0x3
	.uleb128 0xe
	.uleb128 0x3a
	.uleb128 0xb
	.uleb128 0x3b
	.uleb128 0x5
	.uleb128 0x39
	.uleb128 0xb
	.uleb128 0x89
	.uleb128 0x19
	.byte	0
	.byte	0
	.uleb128 0x87
	.uleb128 0x39
	.byte	0
	.uleb128 0x3
	.uleb128 0x8
	.uleb128 0x3a
	.uleb128 0xb
	.uleb128 0x3b
	.uleb128 0xb
	.uleb128 0x39
	.uleb128 0xb
	.uleb128 0x89
	.uleb128 0x19
	.byte	0
	.byte	0
	.uleb128 0x88
	.uleb128 0x30
	.byte	0
	.uleb128 0x3
	.uleb128 0xe
	.uleb128 0x49
	.uleb128 0x13
	.uleb128 0x1c
	.uleb128 0x21
	.sleb128 1
	.byte	0
	.byte	0
	.uleb128 0x89
	.uleb128 0x2e
	.byte	0x1
	.uleb128 0x3
	.uleb128 0xe
	.uleb128 0x3a
	.uleb128 0xb
	.uleb128 0x3b
	.uleb128 0xb
	.uleb128 0x39
	.uleb128 0xb
	.uleb128 0x49
	.uleb128 0x13
	.uleb128 0x32
	.uleb128 0x21
	.sleb128 1
	.uleb128 0x3c
	.uleb128 0x19
	.uleb128 0x8b
	.uleb128 0x21
	.sleb128 1
	.uleb128 0x64
	.uleb128 0x13
	.uleb128 0x1
	.uleb128 0x13
	.byte	0
	.byte	0
	.uleb128 0x8a
	.uleb128 0x2e
	.byte	0x1
	.uleb128 0x3
	.uleb128 0xe
	.uleb128 0x3a
	.uleb128 0x21
	.sleb128 8
	.uleb128 0x3b
	.uleb128 0x5
	.uleb128 0x39
	.uleb128 0xb
	.uleb128 0x3c
	.uleb128 0x19
	.uleb128 0x1
	.uleb128 0x13
	.byte	0
	.byte	0
	.uleb128 0x8b
	.uleb128 0x2e
	.byte	0x1
	.uleb128 0x3
	.uleb128 0xe
	.uleb128 0x3a
	.uleb128 0x21
	.sleb128 2
	.uleb128 0x3b
	.uleb128 0x5
	.uleb128 0x39
	.uleb128 0x21
	.sleb128 7
	.uleb128 0x3c
	.uleb128 0x19
	.uleb128 0x8b
	.uleb128 0x21
	.sleb128 1
	.uleb128 0x64
	.uleb128 0x13
	.uleb128 0x1
	.uleb128 0x13
	.byte	0
	.byte	0
	.uleb128 0x8c
	.uleb128 0x2e
	.byte	0x1
	.uleb128 0x3
	.uleb128 0xe
	.uleb128 0x3a
	.uleb128 0x21
	.sleb128 2
	.uleb128 0x3b
	.uleb128 0x5
	.uleb128 0x39
	.uleb128 0x21
	.sleb128 7
	.uleb128 0x32
	.uleb128 0x21
	.sleb128 1
	.uleb128 0x3c
	.uleb128 0x19
	.uleb128 0x8b
	.uleb128 0x21
	.sleb128 1
	.uleb128 0x64
	.uleb128 0x13
	.uleb128 0x1
	.uleb128 0x13
	.byte	0
	.byte	0
	.uleb128 0x8d
	.uleb128 0x2e
	.byte	0x1
	.uleb128 0x3
	.uleb128 0xe
	.uleb128 0x3a
	.uleb128 0x21
	.sleb128 2
	.uleb128 0x3b
	.uleb128 0x5
	.uleb128 0x39
	.uleb128 0x21
	.sleb128 7
	.uleb128 0x49
	.uleb128 0x13
	.uleb128 0x32
	.uleb128 0x21
	.sleb128 2
	.uleb128 0x3c
	.uleb128 0x19
	.uleb128 0x1
	.uleb128 0x13
	.byte	0
	.byte	0
	.uleb128 0x8e
	.uleb128 0x2e
	.byte	0x1
	.uleb128 0x3f
	.uleb128 0x19
	.uleb128 0x3
	.uleb128 0x8
	.uleb128 0x3a
	.uleb128 0x21
	.sleb128 36
	.uleb128 0x3b
	.uleb128 0xb
	.uleb128 0x39
	.uleb128 0x21
	.sleb128 7
	.uleb128 0x6e
	.uleb128 0xe
	.uleb128 0x49
	.uleb128 0x13
	.uleb128 0x32
	.uleb128 0x21
	.sleb128 1
	.uleb128 0x3c
	.uleb128 0x19
	.uleb128 0x64
	.uleb128 0x13
	.uleb128 0x1
	.uleb128 0x13
	.byte	0
	.byte	0
	.uleb128 0x8f
	.uleb128 0x2e
	.byte	0
	.uleb128 0x3f
	.uleb128 0x19
	.uleb128 0x3
	.uleb128 0xe
	.uleb128 0x3a
	.uleb128 0x21
	.sleb128 37
	.uleb128 0x3b
	.uleb128 0xb
	.uleb128 0x39
	.uleb128 0x21
	.sleb128 3
	.uleb128 0x6e
	.uleb128 0xe
	.uleb128 0x87
	.uleb128 0x19
	.uleb128 0x3c
	.uleb128 0x19
	.byte	0
	.byte	0
	.uleb128 0x90
	.uleb128 0x4107
	.byte	0
	.uleb128 0x3
	.uleb128 0xe
	.byte	0
	.byte	0
	.uleb128 0x91
	.uleb128 0x2e
	.byte	0x1
	.uleb128 0x3
	.uleb128 0xe
	.uleb128 0x3a
	.uleb128 0xb
	.uleb128 0x3b
	.uleb128 0xb
	.uleb128 0x39
	.uleb128 0xb
	.uleb128 0x49
	.uleb128 0x13
	.uleb128 0x3c
	.uleb128 0x19
	.uleb128 0x1
	.uleb128 0x13
	.byte	0
	.byte	0
	.uleb128 0x92
	.uleb128 0x2e
	.byte	0x1
	.uleb128 0x3
	.uleb128 0xe
	.uleb128 0x3a
	.uleb128 0xb
	.uleb128 0x3b
	.uleb128 0xb
	.uleb128 0x39
	.uleb128 0xb
	.uleb128 0x3c
	.uleb128 0x19
	.uleb128 0x1
	.uleb128 0x13
	.byte	0
	.byte	0
	.uleb128 0x93
	.uleb128 0x2e
	.byte	0x1
	.uleb128 0x3f
	.uleb128 0x19
	.uleb128 0x3
	.uleb128 0xe
	.uleb128 0x3a
	.uleb128 0xb
	.uleb128 0x3b
	.uleb128 0x5
	.uleb128 0x39
	.uleb128 0xb
	.uleb128 0x6e
	.uleb128 0xe
	.uleb128 0x49
	.uleb128 0x13
	.uleb128 0x3c
	.uleb128 0x19
	.byte	0
	.byte	0
	.uleb128 0x94
	.uleb128 0xd
	.byte	0
	.uleb128 0x3
	.uleb128 0xe
	.uleb128 0x3a
	.uleb128 0x21
	.sleb128 43
	.uleb128 0x3b
	.uleb128 0xb
	.uleb128 0x39
	.uleb128 0xb
	.uleb128 0x49
	.uleb128 0x13
	.byte	0
	.byte	0
	.uleb128 0x95
	.uleb128 0x2e
	.byte	0
	.uleb128 0x3f
	.uleb128 0x19
	.uleb128 0x3
	.uleb128 0xe
	.uleb128 0x3a
	.uleb128 0xb
	.uleb128 0x3b
	.uleb128 0x5
	.uleb128 0x39
	.uleb128 0xb
	.uleb128 0x49
	.uleb128 0x13
	.uleb128 0x3c
	.uleb128 0x19
	.byte	0
	.byte	0
	.uleb128 0x96
	.uleb128 0x39
	.byte	0x1
	.uleb128 0x3
	.uleb128 0xe
	.uleb128 0x3a
	.uleb128 0xb
	.uleb128 0x3b
	.uleb128 0x5
	.uleb128 0x39
	.uleb128 0x21
	.sleb128 11
	.uleb128 0x1
	.uleb128 0x13
	.byte	0
	.byte	0
	.uleb128 0x97
	.uleb128 0xd
	.byte	0
	.uleb128 0x3
	.uleb128 0xe
	.uleb128 0x3a
	.uleb128 0x21
	.sleb128 40
	.uleb128 0x3b
	.uleb128 0x5
	.uleb128 0x39
	.uleb128 0xb
	.uleb128 0x49
	.uleb128 0x13
	.uleb128 0x88
	.uleb128 0xb
	.uleb128 0x38
	.uleb128 0xb
	.byte	0
	.byte	0
	.uleb128 0x98
	.uleb128 0x34
	.byte	0
	.uleb128 0x47
	.uleb128 0x13
	.byte	0
	.byte	0
	.uleb128 0x99
	.uleb128 0x2e
	.byte	0x1
	.uleb128 0x3f
	.uleb128 0x19
	.uleb128 0x3
	.uleb128 0x8
	.uleb128 0x3a
	.uleb128 0x21
	.sleb128 4
	.uleb128 0x3b
	.uleb128 0xb
	.uleb128 0x39
	.uleb128 0xb
	.uleb128 0x6e
	.uleb128 0xe
	.uleb128 0x49
	.uleb128 0x13
	.uleb128 0x3c
	.uleb128 0x19
	.uleb128 0x64
	.uleb128 0x13
	.uleb128 0x1
	.uleb128 0x13
	.byte	0
	.byte	0
	.uleb128 0x9a
	.uleb128 0x4108
	.byte	0x1
	.uleb128 0x3
	.uleb128 0xe
	.uleb128 0x3a
	.uleb128 0xb
	.uleb128 0x3b
	.uleb128 0xb
	.uleb128 0x39
	.uleb128 0xb
	.byte	0
	.byte	0
	.uleb128 0x9b
	.uleb128 0x5
	.byte	0
	.uleb128 0x3
	.uleb128 0xe
	.uleb128 0x3a
	.uleb128 0x21
	.sleb128 1
	.uleb128 0x3b
	.uleb128 0x21
	.sleb128 35
	.uleb128 0x39
	.uleb128 0xb
	.uleb128 0x49
	.uleb128 0x13
	.uleb128 0x2
	.uleb128 0x17
	.uleb128 0x2137
	.uleb128 0x17
	.byte	0
	.byte	0
	.uleb128 0x9c
	.uleb128 0x34
	.byte	0
	.uleb128 0x3
	.uleb128 0xe
	.uleb128 0x49
	.uleb128 0x13
	.uleb128 0x34
	.uleb128 0x19
	.uleb128 0x2
	.uleb128 0x17
	.uleb128 0x2137
	.uleb128 0x17
	.byte	0
	.byte	0
	.uleb128 0x9d
	.uleb128 0x1d
	.byte	0x1
	.uleb128 0x31
	.uleb128 0x13
	.uleb128 0x52
	.uleb128 0x1
	.uleb128 0x2138
	.uleb128 0x5
	.uleb128 0x55
	.uleb128 0x17
	.uleb128 0x58
	.uleb128 0xb
	.uleb128 0x59
	.uleb128 0xb
	.uleb128 0x57
	.uleb128 0xb
	.uleb128 0x2136
	.uleb128 0xb
	.byte	0
	.byte	0
	.uleb128 0x9e
	.uleb128 0xb
	.byte	0x1
	.uleb128 0x31
	.uleb128 0x13
	.uleb128 0x11
	.uleb128 0x1
	.uleb128 0x12
	.uleb128 0x7
	.byte	0
	.byte	0
	.uleb128 0x9f
	.uleb128 0x1d
	.byte	0x1
	.uleb128 0x31
	.uleb128 0x13
	.uleb128 0x55
	.uleb128 0x17
	.uleb128 0x58
	.uleb128 0x21
	.sleb128 12
	.uleb128 0x59
	.uleb128 0x21
	.sleb128 492
	.uleb128 0x57
	.uleb128 0x21
	.sleb128 17
	.uleb128 0x1
	.uleb128 0x13
	.byte	0
	.byte	0
	.uleb128 0xa0
	.uleb128 0x11
	.byte	0x1
	.uleb128 0x25
	.uleb128 0xe
	.uleb128 0x13
	.uleb128 0xb
	.uleb128 0x90
	.uleb128 0xb
	.uleb128 0x91
	.uleb128 0x6
	.uleb128 0x3
	.uleb128 0x1f
	.uleb128 0x1b
	.uleb128 0x1f
	.uleb128 0x55
	.uleb128 0x17
	.uleb128 0x11
	.uleb128 0x1
	.uleb128 0x10
	.uleb128 0x17
	.byte	0
	.byte	0
	.uleb128 0xa1
	.uleb128 0x24
	.byte	0
	.uleb128 0xb
	.uleb128 0xb
	.uleb128 0x3e
	.uleb128 0xb
	.uleb128 0x3
	.uleb128 0x8
	.byte	0
	.byte	0
	.uleb128 0xa2
	.uleb128 0x39
	.byte	0x1
	.uleb128 0x3
	.uleb128 0x8
	.uleb128 0x3a
	.uleb128 0xb
	.uleb128 0x3b
	.uleb128 0x5
	.uleb128 0x39
	.uleb128 0xb
	.uleb128 0x1
	.uleb128 0x13
	.byte	0
	.byte	0
	.uleb128 0xa3
	.uleb128 0x2e
	.byte	0x1
	.uleb128 0x3f
	.uleb128 0x19
	.uleb128 0x3
	.uleb128 0xe
	.uleb128 0x3a
	.uleb128 0xb
	.uleb128 0x3b
	.uleb128 0xb
	.uleb128 0x39
	.uleb128 0xb
	.uleb128 0x6e
	.uleb128 0xe
	.uleb128 0x49
	.uleb128 0x13
	.uleb128 0x32
	.uleb128 0xb
	.uleb128 0x3c
	.uleb128 0x19
	.uleb128 0x63
	.uleb128 0x19
	.uleb128 0x64
	.uleb128 0x13
	.uleb128 0x1
	.uleb128 0x13
	.byte	0
	.byte	0
	.uleb128 0xa4
	.uleb128 0x2e
	.byte	0x1
	.uleb128 0x3f
	.uleb128 0x19
	.uleb128 0x3
	.uleb128 0xe
	.uleb128 0x3a
	.uleb128 0xb
	.uleb128 0x3b
	.uleb128 0xb
	.uleb128 0x39
	.uleb128 0xb
	.uleb128 0x6e
	.uleb128 0xe
	.uleb128 0x49
	.uleb128 0x13
	.uleb128 0x32
	.uleb128 0xb
	.uleb128 0x3c
	.uleb128 0x19
	.uleb128 0x64
	.uleb128 0x13
	.byte	0
	.byte	0
	.uleb128 0xa5
	.uleb128 0x2e
	.byte	0x1
	.uleb128 0x3f
	.uleb128 0x19
	.uleb128 0x3
	.uleb128 0xe
	.uleb128 0x3a
	.uleb128 0xb
	.uleb128 0x3b
	.uleb128 0x5
	.uleb128 0x39
	.uleb128 0xb
	.uleb128 0x6e
	.uleb128 0xe
	.uleb128 0x3c
	.uleb128 0x19
	.byte	0
	.byte	0
	.uleb128 0xa6
	.uleb128 0x13
	.byte	0
	.uleb128 0x3
	.uleb128 0xe
	.uleb128 0xb
	.uleb128 0xb
	.uleb128 0x3a
	.uleb128 0xb
	.uleb128 0x3b
	.uleb128 0xb
	.uleb128 0x39
	.uleb128 0xb
	.byte	0
	.byte	0
	.uleb128 0xa7
	.uleb128 0x39
	.byte	0
	.uleb128 0x3
	.uleb128 0x8
	.uleb128 0x3a
	.uleb128 0xb
	.uleb128 0x3b
	.uleb128 0xb
	.uleb128 0x39
	.uleb128 0xb
	.byte	0
	.byte	0
	.uleb128 0xa8
	.uleb128 0x39
	.byte	0
	.uleb128 0x3
	.uleb128 0x8
	.uleb128 0x3a
	.uleb128 0xb
	.uleb128 0x3b
	.uleb128 0x5
	.uleb128 0x39
	.uleb128 0xb
	.uleb128 0x89
	.uleb128 0x19
	.byte	0
	.byte	0
	.uleb128 0xa9
	.uleb128 0x3a
	.byte	0
	.uleb128 0x3a
	.uleb128 0xb
	.uleb128 0x3b
	.uleb128 0x5
	.uleb128 0x39
	.uleb128 0xb
	.uleb128 0x18
	.uleb128 0x13
	.byte	0
	.byte	0
	.uleb128 0xaa
	.uleb128 0x39
	.byte	0x1
	.uleb128 0x3
	.uleb128 0xe
	.uleb128 0x3a
	.uleb128 0xb
	.uleb128 0x3b
	.uleb128 0x5
	.uleb128 0x39
	.uleb128 0xb
	.uleb128 0x89
	.uleb128 0x19
	.uleb128 0x1
	.uleb128 0x13
	.byte	0
	.byte	0
	.uleb128 0xab
	.uleb128 0x39
	.byte	0x1
	.uleb128 0x3
	.uleb128 0xe
	.uleb128 0x3a
	.uleb128 0xb
	.uleb128 0x3b
	.uleb128 0xb
	.uleb128 0x39
	.uleb128 0xb
	.uleb128 0x89
	.uleb128 0x19
	.byte	0
	.byte	0
	.uleb128 0xac
	.uleb128 0x2e
	.byte	0x1
	.uleb128 0x3
	.uleb128 0xe
	.uleb128 0x3a
	.uleb128 0xb
	.uleb128 0x3b
	.uleb128 0xb
	.uleb128 0x39
	.uleb128 0xb
	.uleb128 0x49
	.uleb128 0x13
	.uleb128 0x3c
	.uleb128 0x19
	.uleb128 0x64
	.uleb128 0x13
	.uleb128 0x1
	.uleb128 0x13
	.byte	0
	.byte	0
	.uleb128 0xad
	.uleb128 0x2e
	.byte	0x1
	.uleb128 0x3
	.uleb128 0xe
	.uleb128 0x3a
	.uleb128 0xb
	.uleb128 0x3b
	.uleb128 0xb
	.uleb128 0x39
	.uleb128 0xb
	.uleb128 0x32
	.uleb128 0xb
	.uleb128 0x3c
	.uleb128 0x19
	.uleb128 0x64
	.uleb128 0x13
	.byte	0
	.byte	0
	.uleb128 0xae
	.uleb128 0x2e
	.byte	0x1
	.uleb128 0x3
	.uleb128 0xe
	.uleb128 0x3a
	.uleb128 0xb
	.uleb128 0x3b
	.uleb128 0x5
	.uleb128 0x39
	.uleb128 0xb
	.uleb128 0x3c
	.uleb128 0x19
	.byte	0
	.byte	0
	.uleb128 0xaf
	.uleb128 0x2e
	.byte	0x1
	.uleb128 0x3
	.uleb128 0xe
	.uleb128 0x3a
	.uleb128 0xb
	.uleb128 0x3b
	.uleb128 0xb
	.uleb128 0x39
	.uleb128 0xb
	.uleb128 0x3c
	.uleb128 0x19
	.uleb128 0x64
	.uleb128 0x13
	.byte	0
	.byte	0
	.uleb128 0xb0
	.uleb128 0x2e
	.byte	0x1
	.uleb128 0x3
	.uleb128 0xe
	.uleb128 0x34
	.uleb128 0x19
	.uleb128 0x3c
	.uleb128 0x19
	.uleb128 0x64
	.uleb128 0x13
	.byte	0
	.byte	0
	.uleb128 0xb1
	.uleb128 0x2e
	.byte	0
	.uleb128 0x3
	.uleb128 0xe
	.uleb128 0x3a
	.uleb128 0xb
	.uleb128 0x3b
	.uleb128 0x5
	.uleb128 0x39
	.uleb128 0xb
	.uleb128 0x49
	.uleb128 0x13
	.uleb128 0x3c
	.uleb128 0x19
	.byte	0
	.byte	0
	.uleb128 0xb2
	.uleb128 0x2e
	.byte	0x1
	.uleb128 0x3
	.uleb128 0xe
	.uleb128 0x3a
	.uleb128 0xb
	.uleb128 0x3b
	.uleb128 0x5
	.uleb128 0x39
	.uleb128 0xb
	.uleb128 0x32
	.uleb128 0xb
	.uleb128 0x3c
	.uleb128 0x19
	.uleb128 0x64
	.uleb128 0x13
	.byte	0
	.byte	0
	.uleb128 0xb3
	.uleb128 0x2e
	.byte	0x1
	.uleb128 0x3f
	.uleb128 0x19
	.uleb128 0x3
	.uleb128 0xe
	.uleb128 0x3a
	.uleb128 0xb
	.uleb128 0x3b
	.uleb128 0xb
	.uleb128 0x39
	.uleb128 0xb
	.uleb128 0x6e
	.uleb128 0xe
	.uleb128 0x32
	.uleb128 0xb
	.uleb128 0x3c
	.uleb128 0x19
	.uleb128 0x1
	.uleb128 0x13
	.byte	0
	.byte	0
	.uleb128 0xb4
	.uleb128 0x2f
	.byte	0
	.uleb128 0x3
	.uleb128 0xe
	.byte	0
	.byte	0
	.uleb128 0xb5
	.uleb128 0x34
	.byte	0
	.uleb128 0x3
	.uleb128 0xe
	.uleb128 0x3a
	.uleb128 0xb
	.uleb128 0x3b
	.uleb128 0x5
	.uleb128 0x39
	.uleb128 0xb
	.uleb128 0x49
	.uleb128 0x13
	.uleb128 0x3c
	.uleb128 0x19
	.uleb128 0x1c
	.uleb128 0xb
	.uleb128 0x6c
	.uleb128 0x19
	.uleb128 0x20
	.uleb128 0xb
	.byte	0
	.byte	0
	.uleb128 0xb6
	.uleb128 0x13
	.byte	0x1
	.uleb128 0x3
	.uleb128 0xe
	.uleb128 0xb
	.uleb128 0xb
	.uleb128 0x3a
	.uleb128 0xb
	.uleb128 0x3b
	.uleb128 0xb
	.uleb128 0x1
	.uleb128 0x13
	.byte	0
	.byte	0
	.uleb128 0xb7
	.uleb128 0xf
	.byte	0
	.uleb128 0xb
	.uleb128 0xb
	.byte	0
	.byte	0
	.uleb128 0xb8
	.uleb128 0x17
	.byte	0x1
	.uleb128 0xb
	.uleb128 0xb
	.uleb128 0x3a
	.uleb128 0xb
	.uleb128 0x3b
	.uleb128 0xb
	.uleb128 0x39
	.uleb128 0xb
	.uleb128 0x1
	.uleb128 0x13
	.byte	0
	.byte	0
	.uleb128 0xb9
	.uleb128 0xd
	.byte	0
	.uleb128 0x3
	.uleb128 0xe
	.uleb128 0x3a
	.uleb128 0xb
	.uleb128 0x3b
	.uleb128 0xb
	.uleb128 0x39
	.uleb128 0xb
	.uleb128 0x49
	.uleb128 0x13
	.uleb128 0xd
	.uleb128 0xb
	.uleb128 0x6b
	.uleb128 0x5
	.byte	0
	.byte	0
	.uleb128 0xba
	.uleb128 0x13
	.byte	0x1
	.uleb128 0x3
	.uleb128 0x8
	.uleb128 0xb
	.uleb128 0xb
	.uleb128 0x3a
	.uleb128 0xb
	.uleb128 0x3b
	.uleb128 0xb
	.uleb128 0x39
	.uleb128 0xb
	.uleb128 0x1
	.uleb128 0x13
	.byte	0
	.byte	0
	.uleb128 0xbb
	.uleb128 0x4
	.byte	0x1
	.uleb128 0x3
	.uleb128 0xe
	.uleb128 0x3e
	.uleb128 0xb
	.uleb128 0xb
	.uleb128 0xb
	.uleb128 0x49
	.uleb128 0x13
	.uleb128 0x3a
	.uleb128 0xb
	.uleb128 0x3b
	.uleb128 0xb
	.uleb128 0x39
	.uleb128 0xb
	.uleb128 0x1
	.uleb128 0x13
	.byte	0
	.byte	0
	.uleb128 0xbc
	.uleb128 0x34
	.byte	0
	.uleb128 0x3
	.uleb128 0xe
	.uleb128 0x3a
	.uleb128 0xb
	.uleb128 0x3b
	.uleb128 0xb
	.uleb128 0x39
	.uleb128 0xb
	.uleb128 0x6e
	.uleb128 0xe
	.uleb128 0x49
	.uleb128 0x13
	.uleb128 0x3f
	.uleb128 0x19
	.uleb128 0x3c
	.uleb128 0x19
	.uleb128 0x1c
	.uleb128 0xb
	.uleb128 0x20
	.uleb128 0xb
	.byte	0
	.byte	0
	.uleb128 0xbd
	.uleb128 0x13
	.byte	0x1
	.uleb128 0xb
	.uleb128 0xb
	.uleb128 0x88
	.uleb128 0xb
	.uleb128 0x3a
	.uleb128 0xb
	.uleb128 0x3b
	.uleb128 0x5
	.uleb128 0x39
	.uleb128 0xb
	.uleb128 0x6e
	.uleb128 0xe
	.uleb128 0x1
	.uleb128 0x13
	.byte	0
	.byte	0
	.uleb128 0xbe
	.uleb128 0x16
	.byte	0
	.uleb128 0x3
	.uleb128 0xe
	.uleb128 0x3a
	.uleb128 0xb
	.uleb128 0x3b
	.uleb128 0x5
	.uleb128 0x39
	.uleb128 0xb
	.uleb128 0x49
	.uleb128 0x13
	.uleb128 0x88
	.uleb128 0xb
	.byte	0
	.byte	0
	.uleb128 0xbf
	.uleb128 0x3b
	.byte	0
	.uleb128 0x3
	.uleb128 0xe
	.byte	0
	.byte	0
	.uleb128 0xc0
	.uleb128 0x26
	.byte	0
	.byte	0
	.byte	0
	.uleb128 0xc1
	.uleb128 0x3a
	.byte	0
	.uleb128 0x3a
	.uleb128 0xb
	.uleb128 0x3b
	.uleb128 0xb
	.uleb128 0x39
	.uleb128 0xb
	.uleb128 0x18
	.uleb128 0x13
	.byte	0
	.byte	0
	.uleb128 0xc2
	.uleb128 0x15
	.byte	0x1
	.uleb128 0x49
	.uleb128 0x13
	.uleb128 0x1
	.uleb128 0x13
	.byte	0
	.byte	0
	.uleb128 0xc3
	.uleb128 0x15
	.byte	0
	.byte	0
	.byte	0
	.uleb128 0xc4
	.uleb128 0x2e
	.byte	0x1
	.uleb128 0x3f
	.uleb128 0x19
	.uleb128 0x3
	.uleb128 0x8
	.uleb128 0x3a
	.uleb128 0xb
	.uleb128 0x3b
	.uleb128 0x5
	.uleb128 0x39
	.uleb128 0xb
	.uleb128 0x49
	.uleb128 0x13
	.uleb128 0x3c
	.uleb128 0x19
	.uleb128 0x1
	.uleb128 0x13
	.byte	0
	.byte	0
	.uleb128 0xc5
	.uleb128 0x2e
	.byte	0x1
	.uleb128 0x3f
	.uleb128 0x19
	.uleb128 0x3
	.uleb128 0xe
	.uleb128 0x3a
	.uleb128 0xb
	.uleb128 0x3b
	.uleb128 0x5
	.uleb128 0x39
	.uleb128 0xb
	.uleb128 0x87
	.uleb128 0x19
	.uleb128 0x3c
	.uleb128 0x19
	.uleb128 0x1
	.uleb128 0x13
	.byte	0
	.byte	0
	.uleb128 0xc6
	.uleb128 0x16
	.byte	0
	.uleb128 0x3
	.uleb128 0xe
	.uleb128 0x3a
	.uleb128 0xb
	.uleb128 0x3b
	.uleb128 0xb
	.uleb128 0x39
	.uleb128 0xb
	.byte	0
	.byte	0
	.uleb128 0xc7
	.uleb128 0x8
	.byte	0
	.uleb128 0x3
	.uleb128 0x8
	.uleb128 0x3a
	.uleb128 0xb
	.uleb128 0x3b
	.uleb128 0xb
	.uleb128 0x39
	.uleb128 0xb
	.uleb128 0x18
	.uleb128 0x13
	.byte	0
	.byte	0
	.uleb128 0xc8
	.uleb128 0x2e
	.byte	0x1
	.uleb128 0x3f
	.uleb128 0x19
	.uleb128 0x3
	.uleb128 0xe
	.uleb128 0x6e
	.uleb128 0xe
	.uleb128 0x34
	.uleb128 0x19
	.uleb128 0x3c
	.uleb128 0x19
	.uleb128 0x64
	.uleb128 0x13
	.uleb128 0x1
	.uleb128 0x13
	.byte	0
	.byte	0
	.uleb128 0xc9
	.uleb128 0x39
	.byte	0x1
	.uleb128 0x3
	.uleb128 0xe
	.uleb128 0x3a
	.uleb128 0xb
	.uleb128 0x3b
	.uleb128 0xb
	.uleb128 0x39
	.uleb128 0xb
	.byte	0
	.byte	0
	.uleb128 0xca
	.uleb128 0x39
	.byte	0x1
	.uleb128 0x89
	.uleb128 0x19
	.uleb128 0x1
	.uleb128 0x13
	.byte	0
	.byte	0
	.uleb128 0xcb
	.uleb128 0x4108
	.byte	0
	.uleb128 0x3
	.uleb128 0xe
	.uleb128 0x3a
	.uleb128 0xb
	.uleb128 0x3b
	.uleb128 0xb
	.uleb128 0x39
	.uleb128 0xb
	.byte	0
	.byte	0
	.uleb128 0xcc
	.uleb128 0x16
	.byte	0
	.uleb128 0x3
	.uleb128 0x8
	.uleb128 0x3a
	.uleb128 0xb
	.uleb128 0x3b
	.uleb128 0x5
	.uleb128 0x39
	.uleb128 0xb
	.uleb128 0x49
	.uleb128 0x13
	.byte	0
	.byte	0
	.uleb128 0xcd
	.uleb128 0x34
	.byte	0
	.uleb128 0x3
	.uleb128 0xe
	.uleb128 0x3a
	.uleb128 0xb
	.uleb128 0x3b
	.uleb128 0x5
	.uleb128 0x39
	.uleb128 0xb
	.uleb128 0x49
	.uleb128 0x13
	.uleb128 0x6c
	.uleb128 0x19
	.byte	0
	.byte	0
	.uleb128 0xce
	.uleb128 0x4108
	.byte	0x1
	.uleb128 0x3
	.uleb128 0xe
	.uleb128 0x3a
	.uleb128 0xb
	.uleb128 0x3b
	.uleb128 0x5
	.uleb128 0x39
	.uleb128 0xb
	.uleb128 0x1
	.uleb128 0x13
	.byte	0
	.byte	0
	.uleb128 0xcf
	.uleb128 0x4108
	.byte	0x1
	.uleb128 0x3
	.uleb128 0xe
	.uleb128 0x3a
	.uleb128 0xb
	.uleb128 0x3b
	.uleb128 0x5
	.uleb128 0x39
	.uleb128 0xb
	.byte	0
	.byte	0
	.uleb128 0xd0
	.uleb128 0xb
	.byte	0x1
	.uleb128 0x1
	.uleb128 0x13
	.byte	0
	.byte	0
	.uleb128 0xd1
	.uleb128 0x2e
	.byte	0x1
	.uleb128 0x3f
	.uleb128 0x19
	.uleb128 0x3
	.uleb128 0xe
	.uleb128 0x3a
	.uleb128 0xb
	.uleb128 0x3b
	.uleb128 0xb
	.uleb128 0x39
	.uleb128 0xb
	.uleb128 0x6e
	.uleb128 0xe
	.uleb128 0x49
	.uleb128 0x13
	.uleb128 0x55
	.uleb128 0x17
	.uleb128 0x40
	.uleb128 0x18
	.uleb128 0x7a
	.uleb128 0x19
	.uleb128 0x1
	.uleb128 0x13
	.byte	0
	.byte	0
	.uleb128 0xd2
	.uleb128 0x34
	.byte	0
	.uleb128 0x31
	.uleb128 0x13
	.uleb128 0x1c
	.uleb128 0xb
	.byte	0
	.byte	0
	.uleb128 0xd3
	.uleb128 0x48
	.byte	0
	.uleb128 0x7d
	.uleb128 0x1
	.uleb128 0x7f
	.uleb128 0x13
	.byte	0
	.byte	0
	.uleb128 0xd4
	.uleb128 0x48
	.byte	0x1
	.uleb128 0x7d
	.uleb128 0x1
	.uleb128 0x7f
	.uleb128 0x13
	.uleb128 0x1
	.uleb128 0x13
	.byte	0
	.byte	0
	.uleb128 0xd5
	.uleb128 0x2e
	.byte	0x1
	.uleb128 0x3f
	.uleb128 0x19
	.uleb128 0x3
	.uleb128 0xe
	.uleb128 0x3a
	.uleb128 0xb
	.uleb128 0x3b
	.uleb128 0xb
	.uleb128 0x39
	.uleb128 0xb
	.uleb128 0x6e
	.uleb128 0xe
	.uleb128 0x49
	.uleb128 0x13
	.uleb128 0x20
	.uleb128 0xb
	.uleb128 0x34
	.uleb128 0x19
	.uleb128 0x1
	.uleb128 0x13
	.byte	0
	.byte	0
	.uleb128 0xd6
	.uleb128 0x2e
	.byte	0x1
	.uleb128 0x3f
	.uleb128 0x19
	.uleb128 0x3
	.uleb128 0xe
	.uleb128 0x3a
	.uleb128 0xb
	.uleb128 0x3b
	.uleb128 0x5
	.uleb128 0x39
	.uleb128 0xb
	.uleb128 0x6e
	.uleb128 0xe
	.uleb128 0x20
	.uleb128 0xb
	.uleb128 0x34
	.uleb128 0x19
	.uleb128 0x1
	.uleb128 0x13
	.byte	0
	.byte	0
	.uleb128 0xd7
	.uleb128 0x2e
	.byte	0x1
	.uleb128 0x3f
	.uleb128 0x19
	.uleb128 0x3
	.uleb128 0xe
	.uleb128 0x3a
	.uleb128 0xb
	.uleb128 0x3b
	.uleb128 0xb
	.uleb128 0x39
	.uleb128 0xb
	.uleb128 0x6e
	.uleb128 0xe
	.uleb128 0x20
	.uleb128 0xb
	.uleb128 0x1
	.uleb128 0x13
	.byte	0
	.byte	0
	.uleb128 0xd8
	.uleb128 0x2e
	.byte	0x1
	.uleb128 0x3f
	.uleb128 0x19
	.uleb128 0x3
	.uleb128 0xe
	.uleb128 0x3a
	.uleb128 0xb
	.uleb128 0x3b
	.uleb128 0xb
	.uleb128 0x39
	.uleb128 0xb
	.uleb128 0x6e
	.uleb128 0xe
	.uleb128 0x49
	.uleb128 0x13
	.uleb128 0x20
	.uleb128 0xb
	.uleb128 0x1
	.uleb128 0x13
	.byte	0
	.byte	0
	.byte	0
	.section	.debug_loclists,"",@progbits
	.long	.Ldebug_loc3-.Ldebug_loc2
.Ldebug_loc2:
	.value	0x5
	.byte	0x8
	.byte	0
	.long	0
.Ldebug_loc0:
.LVUS1:
	.uleb128 0
	.uleb128 .LVU61
	.uleb128 .LVU61
	.uleb128 .LVU82
	.uleb128 .LVU82
	.uleb128 .LVU1290
	.uleb128 .LVU1290
	.uleb128 .LVU1313
	.uleb128 .LVU1313
	.uleb128 .LVU1365
	.uleb128 .LVU1365
	.uleb128 .LVU1371
	.uleb128 .LVU1371
	.uleb128 .LVU1386
	.uleb128 .LVU1386
	.uleb128 .LVU1443
	.uleb128 .LVU1443
	.uleb128 .LVU1445
	.uleb128 .LVU1445
	.uleb128 .LVU1450
	.uleb128 .LVU1450
	.uleb128 .LVU1451
	.uleb128 .LVU1451
	.uleb128 0
	.uleb128 0
	.uleb128 .LVU1454
	.uleb128 .LVU1454
	.uleb128 .LVU1454
	.uleb128 .LVU1454
	.uleb128 .LVU1511
	.uleb128 .LVU1511
	.uleb128 .LVU1513
	.uleb128 .LVU1513
	.uleb128 0
.LLST1:
	.byte	0x6
	.quad	.LVL0
	.byte	0x4
	.uleb128 .LVL0-.LVL0
	.uleb128 .LVL8-.LVL0
	.uleb128 0x1
	.byte	0x54
	.byte	0x4
	.uleb128 .LVL8-.LVL0
	.uleb128 .LVL14-.LVL0
	.uleb128 0x1
	.byte	0x5c
	.byte	0x4
	.uleb128 .LVL14-.LVL0
	.uleb128 .LVL206-.LVL0
	.uleb128 0x4
	.byte	0xa3
	.uleb128 0x1
	.byte	0x54
	.byte	0x9f
	.byte	0x4
	.uleb128 .LVL206-.LVL0
	.uleb128 .LVL210-1-.LVL0
	.uleb128 0x1
	.byte	0x54
	.byte	0x4
	.uleb128 .LVL210-1-.LVL0
	.uleb128 .LVL219-.LVL0
	.uleb128 0x1
	.byte	0x5c
	.byte	0x4
	.uleb128 .LVL219-.LVL0
	.uleb128 .LVL222-.LVL0
	.uleb128 0x4
	.byte	0xa3
	.uleb128 0x1
	.byte	0x54
	.byte	0x9f
	.byte	0x4
	.uleb128 .LVL222-.LVL0
	.uleb128 .LVL224-.LVL0
	.uleb128 0x1
	.byte	0x54
	.byte	0x4
	.uleb128 .LVL224-.LVL0
	.uleb128 .LVL241-.LVL0
	.uleb128 0x4
	.byte	0xa3
	.uleb128 0x1
	.byte	0x54
	.byte	0x9f
	.byte	0x4
	.uleb128 .LVL241-.LVL0
	.uleb128 .LVL242-.LVL0
	.uleb128 0x1
	.byte	0x5c
	.byte	0x4
	.uleb128 .LVL242-.LVL0
	.uleb128 .LVL247-.LVL0
	.uleb128 0x4
	.byte	0xa3
	.uleb128 0x1
	.byte	0x54
	.byte	0x9f
	.byte	0x4
	.uleb128 .LVL247-.LVL0
	.uleb128 .LVL248-.LVL0
	.uleb128 0x1
	.byte	0x5c
	.byte	0x4
	.uleb128 .LVL248-.LVL0
	.uleb128 .LHOTE5-.LVL0
	.uleb128 0x1
	.byte	0x54
	.byte	0x6
	.quad	.LFSB11707
	.byte	0x4
	.uleb128 .LFSB11707-.LFSB11707
	.uleb128 .LVL250-1-.LFSB11707
	.uleb128 0x1
	.byte	0x54
	.byte	0x4
	.uleb128 .LVL250-1-.LFSB11707
	.uleb128 .LVL250-.LFSB11707
	.uleb128 0x1
	.byte	0x5c
	.byte	0x4
	.uleb128 .LVL250-.LFSB11707
	.uleb128 .LVL262-.LFSB11707
	.uleb128 0x4
	.byte	0xa3
	.uleb128 0x1
	.byte	0x54
	.byte	0x9f
	.byte	0x4
	.uleb128 .LVL262-.LFSB11707
	.uleb128 .LVL263-.LFSB11707
	.uleb128 0x1
	.byte	0x5c
	.byte	0x4
	.uleb128 .LVL263-.LFSB11707
	.uleb128 .LFE11707-.LFSB11707
	.uleb128 0x4
	.byte	0xa3
	.uleb128 0x1
	.byte	0x54
	.byte	0x9f
	.byte	0
.LVUS2:
	.uleb128 0
	.uleb128 .LVU13
	.uleb128 .LVU13
	.uleb128 .LVU397
	.uleb128 .LVU397
	.uleb128 .LVU1290
	.uleb128 .LVU1290
	.uleb128 .LVU1365
	.uleb128 .LVU1365
	.uleb128 .LVU1371
	.uleb128 .LVU1371
	.uleb128 0
	.uleb128 0
	.uleb128 0
.LLST2:
	.byte	0x6
	.quad	.LVL0
	.byte	0x4
	.uleb128 .LVL0-.LVL0
	.uleb128 .LVL2-.LVL0
	.uleb128 0x1
	.byte	0x61
	.byte	0x4
	.uleb128 .LVL2-.LVL0
	.uleb128 .LVL78-.LVL0
	.uleb128 0x3
	.byte	0x77
	.sleb128 192
	.byte	0x4
	.uleb128 .LVL78-.LVL0
	.uleb128 .LVL206-.LVL0
	.uleb128 0x6
	.byte	0xa3
	.uleb128 0x3
	.byte	0xa5
	.uleb128 0x11
	.uleb128 0x30
	.byte	0x9f
	.byte	0x4
	.uleb128 .LVL206-.LVL0
	.uleb128 .LVL219-.LVL0
	.uleb128 0x3
	.byte	0x77
	.sleb128 192
	.byte	0x4
	.uleb128 .LVL219-.LVL0
	.uleb128 .LVL222-.LVL0
	.uleb128 0x6
	.byte	0xa3
	.uleb128 0x3
	.byte	0xa5
	.uleb128 0x11
	.uleb128 0x30
	.byte	0x9f
	.byte	0x4
	.uleb128 .LVL222-.LVL0
	.uleb128 .LHOTE5-.LVL0
	.uleb128 0x3
	.byte	0x77
	.sleb128 192
	.byte	0x8
	.quad	.LFSB11707
	.uleb128 .LCOLDE5-.LFSB11707
	.uleb128 0x3
	.byte	0x77
	.sleb128 192
	.byte	0
.LVUS3:
	.uleb128 0
	.uleb128 .LVU55
	.uleb128 .LVU55
	.uleb128 .LVU1288
	.uleb128 .LVU1288
	.uleb128 .LVU1289
	.uleb128 .LVU1289
	.uleb128 .LVU1290
	.uleb128 .LVU1290
	.uleb128 .LVU1312
	.uleb128 .LVU1312
	.uleb128 .LVU1451
	.uleb128 .LVU1451
	.uleb128 0
	.uleb128 0
	.uleb128 .LVU1453
	.uleb128 .LVU1453
	.uleb128 0
.LLST3:
	.byte	0x6
	.quad	.LVL0
	.byte	0x4
	.uleb128 .LVL0-.LVL0
	.uleb128 .LVL6-.LVL0
	.uleb128 0x2
	.byte	0x75
	.sleb128 0
	.byte	0x4
	.uleb128 .LVL6-.LVL0
	.uleb128 .LVL204-.LVL0
	.uleb128 0x4
	.byte	0x77
	.sleb128 120
	.byte	0x6
	.byte	0x4
	.uleb128 .LVL204-.LVL0
	.uleb128 .LVL205-.LVL0
	.uleb128 0x9
	.byte	0x76
	.sleb128 -40
	.byte	0x9
	.byte	0xe0
	.byte	0x1a
	.byte	0x8
	.byte	0x88
	.byte	0x1c
	.byte	0x6
	.byte	0x4
	.uleb128 .LVL205-.LVL0
	.uleb128 .LVL206-.LVL0
	.uleb128 0x9
	.byte	0x77
	.sleb128 -48
	.byte	0x9
	.byte	0xe0
	.byte	0x1a
	.byte	0x8
	.byte	0x88
	.byte	0x1c
	.byte	0x6
	.byte	0x4
	.uleb128 .LVL206-.LVL0
	.uleb128 .LVL209-.LVL0
	.uleb128 0x2
	.byte	0x75
	.sleb128 0
	.byte	0x4
	.uleb128 .LVL209-.LVL0
	.uleb128 .LVL248-.LVL0
	.uleb128 0x4
	.byte	0x77
	.sleb128 120
	.byte	0x6
	.byte	0x4
	.uleb128 .LVL248-.LVL0
	.uleb128 .LHOTE5-.LVL0
	.uleb128 0x2
	.byte	0x75
	.sleb128 0
	.byte	0x6
	.quad	.LFSB11707
	.byte	0x4
	.uleb128 .LFSB11707-.LFSB11707
	.uleb128 .LVL249-.LFSB11707
	.uleb128 0x2
	.byte	0x75
	.sleb128 0
	.byte	0x4
	.uleb128 .LVL249-.LFSB11707
	.uleb128 .LFE11707-.LFSB11707
	.uleb128 0x4
	.byte	0x77
	.sleb128 120
	.byte	0x6
	.byte	0
.LVUS4:
	.uleb128 .LVU51
	.uleb128 .LVU65
	.uleb128 .LVU65
	.uleb128 .LVU67
	.uleb128 .LVU82
	.uleb128 .LVU164
	.uleb128 .LVU164
	.uleb128 .LVU177
	.uleb128 .LVU1352
	.uleb128 .LVU1365
	.uleb128 .LVU1371
	.uleb128 .LVU1386
	.uleb128 .LVU1389
	.uleb128 .LVU1426
	.uleb128 .LVU1426
	.uleb128 .LVU1428
	.uleb128 .LVU1428
	.uleb128 .LVU1439
	.uleb128 .LVU1439
	.uleb128 .LVU1439
	.uleb128 .LVU1439
	.uleb128 .LVU1442
	.uleb128 .LVU1442
	.uleb128 .LVU1443
	.uleb128 .LVU1449
	.uleb128 .LVU1450
	.uleb128 .LVU1455
	.uleb128 .LVU1457
	.uleb128 .LVU1457
	.uleb128 .LVU1459
	.uleb128 .LVU1538
	.uleb128 .LVU1540
	.uleb128 .LVU1540
	.uleb128 .LVU1541
	.uleb128 .LVU1541
	.uleb128 0
.LLST4:
	.byte	0x6
	.quad	.LVL5
	.byte	0x4
	.uleb128 .LVL5-.LVL5
	.uleb128 .LVL10-.LVL5
	.uleb128 0xc
	.byte	0x30
	.byte	0x9f
	.byte	0x93
	.uleb128 0x8
	.byte	0x30
	.byte	0x9f
	.byte	0x93
	.uleb128 0x8
	.byte	0x30
	.byte	0x9f
	.byte	0x93
	.uleb128 0x8
	.byte	0x4
	.uleb128 .LVL10-.LVL5
	.uleb128 .LVL11-.LVL5
	.uleb128 0xa
	.byte	0x50
	.byte	0x93
	.uleb128 0x8
	.byte	0x50
	.byte	0x93
	.uleb128 0x8
	.byte	0x30
	.byte	0x9f
	.byte	0x93
	.uleb128 0x8
	.byte	0x4
	.uleb128 .LVL14-.LVL5
	.uleb128 .LVL37-.LVL5
	.uleb128 0x5
	.byte	0x5c
	.byte	0x93
	.uleb128 0x8
	.byte	0x93
	.uleb128 0x10
	.byte	0x4
	.uleb128 .LVL37-.LVL5
	.uleb128 .LVL38-.LVL5
	.uleb128 0x9
	.byte	0x93
	.uleb128 0x8
	.byte	0x77
	.sleb128 128
	.byte	0x93
	.uleb128 0x8
	.byte	0x93
	.uleb128 0x8
	.byte	0x4
	.uleb128 .LVL215-.LVL5
	.uleb128 .LVL219-.LVL5
	.uleb128 0xc
	.byte	0x30
	.byte	0x9f
	.byte	0x93
	.uleb128 0x8
	.byte	0x30
	.byte	0x9f
	.byte	0x93
	.uleb128 0x8
	.byte	0x30
	.byte	0x9f
	.byte	0x93
	.uleb128 0x8
	.byte	0x4
	.uleb128 .LVL222-.LVL5
	.uleb128 .LVL224-.LVL5
	.uleb128 0xc
	.byte	0x30
	.byte	0x9f
	.byte	0x93
	.uleb128 0x8
	.byte	0x30
	.byte	0x9f
	.byte	0x93
	.uleb128 0x8
	.byte	0x30
	.byte	0x9f
	.byte	0x93
	.uleb128 0x8
	.byte	0x4
	.uleb128 .LVL226-.LVL5
	.uleb128 .LVL234-.LVL5
	.uleb128 0x5
	.byte	0x5c
	.byte	0x93
	.uleb128 0x8
	.byte	0x93
	.uleb128 0x10
	.byte	0x4
	.uleb128 .LVL234-.LVL5
	.uleb128 .LVL235-.LVL5
	.uleb128 0x13
	.byte	0x5c
	.byte	0x93
	.uleb128 0x8
	.byte	0x77
	.sleb128 216
	.byte	0x6
	.byte	0x77
	.sleb128 232
	.byte	0x6
	.byte	0x22
	.byte	0x23
	.uleb128 0x30
	.byte	0x9f
	.byte	0x93
	.uleb128 0x8
	.byte	0x93
	.uleb128 0x8
	.byte	0x4
	.uleb128 .LVL235-.LVL5
	.uleb128 .LVL238-1-.LVL5
	.uleb128 0x8
	.byte	0x5c
	.byte	0x93
	.uleb128 0x8
	.byte	0x50
	.byte	0x93
	.uleb128 0x8
	.byte	0x93
	.uleb128 0x8
	.byte	0x4
	.uleb128 .LVL238-1-.LVL5
	.uleb128 .LVL238-.LVL5
	.uleb128 0xa
	.byte	0x5c
	.byte	0x93
	.uleb128 0x8
	.byte	0x77
	.sleb128 80
	.byte	0x93
	.uleb128 0x8
	.byte	0x93
	.uleb128 0x8
	.byte	0x4
	.uleb128 .LVL238-.LVL5
	.uleb128 .LVL240-.LVL5
	.uleb128 0x16
	.byte	0x77
	.sleb128 216
	.byte	0x93
	.uleb128 0x8
	.byte	0x77
	.sleb128 80
	.byte	0x93
	.uleb128 0x8
	.byte	0x77
	.sleb128 216
	.byte	0x6
	.byte	0x77
	.sleb128 200
	.byte	0x6
	.byte	0x22
	.byte	0x9f
	.byte	0x93
	.uleb128 0x8
	.byte	0x4
	.uleb128 .LVL240-.LVL5
	.uleb128 .LVL241-.LVL5
	.uleb128 0xd
	.byte	0x77
	.sleb128 216
	.byte	0x93
	.uleb128 0x8
	.byte	0x77
	.sleb128 80
	.byte	0x93
	.uleb128 0x8
	.byte	0x5f
	.byte	0x93
	.uleb128 0x8
	.byte	0x4
	.uleb128 .LVL246-.LVL5
	.uleb128 .LVL247-.LVL5
	.uleb128 0x5
	.byte	0x5c
	.byte	0x93
	.uleb128 0x8
	.byte	0x93
	.uleb128 0x10
	.byte	0x6
	.quad	.LVL251
	.byte	0x4
	.uleb128 .LVL251-.LVL251
	.uleb128 .LVL252-.LVL251
	.uleb128 0x5
	.byte	0x5c
	.byte	0x93
	.uleb128 0x8
	.byte	0x93
	.uleb128 0x10
	.byte	0x4
	.uleb128 .LVL252-.LVL251
	.uleb128 .LVL253-.LVL251
	.uleb128 0x9
	.byte	0x93
	.uleb128 0x8
	.byte	0x77
	.sleb128 128
	.byte	0x93
	.uleb128 0x8
	.byte	0x93
	.uleb128 0x8
	.byte	0x4
	.uleb128 .LVL270-.LVL251
	.uleb128 .LVL271-.LVL251
	.uleb128 0x5
	.byte	0x5c
	.byte	0x93
	.uleb128 0x8
	.byte	0x93
	.uleb128 0x10
	.byte	0x4
	.uleb128 .LVL271-.LVL251
	.uleb128 .LVL273-.LVL251
	.uleb128 0xa
	.byte	0x5c
	.byte	0x93
	.uleb128 0x8
	.byte	0x77
	.sleb128 80
	.byte	0x93
	.uleb128 0x8
	.byte	0x93
	.uleb128 0x8
	.byte	0x4
	.uleb128 .LVL273-.LVL251
	.uleb128 .LFE11707-.LVL251
	.uleb128 0x9
	.byte	0x93
	.uleb128 0x8
	.byte	0x77
	.sleb128 128
	.byte	0x93
	.uleb128 0x8
	.byte	0x93
	.uleb128 0x8
	.byte	0
.LVUS5:
	.uleb128 .LVU345
	.uleb128 .LVU1290
	.uleb128 .LVU1365
	.uleb128 .LVU1371
	.uleb128 .LVU1445
	.uleb128 .LVU1447
	.uleb128 .LVU1459
	.uleb128 .LVU1474
	.uleb128 .LVU1533
	.uleb128 .LVU1538
.LLST5:
	.byte	0x6
	.quad	.LVL73
	.byte	0x4
	.uleb128 .LVL73-.LVL73
	.uleb128 .LVL206-.LVL73
	.uleb128 0x2
	.byte	0x38
	.byte	0x9f
	.byte	0x4
	.uleb128 .LVL219-.LVL73
	.uleb128 .LVL222-.LVL73
	.uleb128 0x2
	.byte	0x38
	.byte	0x9f
	.byte	0x4
	.uleb128 .LVL242-.LVL73
	.uleb128 .LVL243-.LVL73
	.uleb128 0x2
	.byte	0x38
	.byte	0x9f
	.byte	0x6
	.quad	.LVL253
	.byte	0x4
	.uleb128 .LVL253-.LVL253
	.uleb128 .LVL256-.LVL253
	.uleb128 0x2
	.byte	0x38
	.byte	0x9f
	.byte	0x4
	.uleb128 .LVL267-.LVL253
	.uleb128 .LVL270-.LVL253
	.uleb128 0x2
	.byte	0x38
	.byte	0x9f
	.byte	0
.LVUS6:
	.uleb128 .LVU346
	.uleb128 .LVU1290
	.uleb128 .LVU1365
	.uleb128 .LVU1371
	.uleb128 .LVU1445
	.uleb128 .LVU1447
	.uleb128 .LVU1459
	.uleb128 .LVU1474
	.uleb128 .LVU1533
	.uleb128 .LVU1538
.LLST6:
	.byte	0x6
	.quad	.LVL73
	.byte	0x4
	.uleb128 .LVL73-.LVL73
	.uleb128 .LVL206-.LVL73
	.uleb128 0x4
	.byte	0xa
	.value	0x100
	.byte	0x9f
	.byte	0x4
	.uleb128 .LVL219-.LVL73
	.uleb128 .LVL222-.LVL73
	.uleb128 0x4
	.byte	0xa
	.value	0x100
	.byte	0x9f
	.byte	0x4
	.uleb128 .LVL242-.LVL73
	.uleb128 .LVL243-.LVL73
	.uleb128 0x4
	.byte	0xa
	.value	0x100
	.byte	0x9f
	.byte	0x6
	.quad	.LVL253
	.byte	0x4
	.uleb128 .LVL253-.LVL253
	.uleb128 .LVL256-.LVL253
	.uleb128 0x4
	.byte	0xa
	.value	0x100
	.byte	0x9f
	.byte	0x4
	.uleb128 .LVL267-.LVL253
	.uleb128 .LVL270-.LVL253
	.uleb128 0x4
	.byte	0xa
	.value	0x100
	.byte	0x9f
	.byte	0
.LVUS113:
	.uleb128 .LVU82
	.uleb128 .LVU159
	.uleb128 .LVU159
	.uleb128 .LVU164
	.uleb128 .LVU1389
	.uleb128 .LVU1443
	.uleb128 .LVU1449
	.uleb128 .LVU1450
	.uleb128 .LVU1455
	.uleb128 .LVU1457
	.uleb128 .LVU1538
	.uleb128 .LVU1540
.LLST113:
	.byte	0x6
	.quad	.LVL14
	.byte	0x4
	.uleb128 .LVL14-.LVL14
	.uleb128 .LVL36-.LVL14
	.uleb128 0x1
	.byte	0x53
	.byte	0x4
	.uleb128 .LVL36-.LVL14
	.uleb128 .LVL37-.LVL14
	.uleb128 0x3
	.byte	0x73
	.sleb128 -48
	.byte	0x9f
	.byte	0x4
	.uleb128 .LVL226-.LVL14
	.uleb128 .LVL241-.LVL14
	.uleb128 0x1
	.byte	0x53
	.byte	0x4
	.uleb128 .LVL246-.LVL14
	.uleb128 .LVL247-.LVL14
	.uleb128 0x1
	.byte	0x53
	.byte	0x6
	.quad	.LVL251
	.byte	0x4
	.uleb128 .LVL251-.LVL251
	.uleb128 .LVL252-.LVL251
	.uleb128 0x1
	.byte	0x53
	.byte	0x4
	.uleb128 .LVL270-.LVL251
	.uleb128 .LVL271-.LVL251
	.uleb128 0x1
	.byte	0x53
	.byte	0
.LVUS114:
	.uleb128 .LVU71
	.uleb128 .LVU82
	.uleb128 .LVU82
	.uleb128 .LVU1290
	.uleb128 .LVU1365
	.uleb128 .LVU1371
	.uleb128 .LVU1375
	.uleb128 .LVU1386
	.uleb128 .LVU1386
	.uleb128 .LVU1443
	.uleb128 .LVU1443
	.uleb128 .LVU1445
	.uleb128 .LVU1445
	.uleb128 .LVU1450
	.uleb128 .LVU1454
	.uleb128 .LVU1511
	.uleb128 .LVU1533
	.uleb128 0
.LLST114:
	.byte	0x6
	.quad	.LVL12
	.byte	0x4
	.uleb128 .LVL12-.LVL12
	.uleb128 .LVL14-.LVL12
	.uleb128 0x1
	.byte	0x5c
	.byte	0x4
	.uleb128 .LVL14-.LVL12
	.uleb128 .LVL206-.LVL12
	.uleb128 0x4
	.byte	0xa3
	.uleb128 0x1
	.byte	0x54
	.byte	0x9f
	.byte	0x4
	.uleb128 .LVL219-.LVL12
	.uleb128 .LVL222-.LVL12
	.uleb128 0x4
	.byte	0xa3
	.uleb128 0x1
	.byte	0x54
	.byte	0x9f
	.byte	0x4
	.uleb128 .LVL223-.LVL12
	.uleb128 .LVL224-.LVL12
	.uleb128 0x1
	.byte	0x54
	.byte	0x4
	.uleb128 .LVL224-.LVL12
	.uleb128 .LVL241-.LVL12
	.uleb128 0x4
	.byte	0xa3
	.uleb128 0x1
	.byte	0x54
	.byte	0x9f
	.byte	0x4
	.uleb128 .LVL241-.LVL12
	.uleb128 .LVL242-.LVL12
	.uleb128 0x1
	.byte	0x5c
	.byte	0x4
	.uleb128 .LVL242-.LVL12
	.uleb128 .LVL247-.LVL12
	.uleb128 0x4
	.byte	0xa3
	.uleb128 0x1
	.byte	0x54
	.byte	0x9f
	.byte	0x6
	.quad	.LVL250
	.byte	0x4
	.uleb128 .LVL250-.LVL250
	.uleb128 .LVL262-.LVL250
	.uleb128 0x4
	.byte	0xa3
	.uleb128 0x1
	.byte	0x54
	.byte	0x9f
	.byte	0x4
	.uleb128 .LVL267-.LVL250
	.uleb128 .LFE11707-.LVL250
	.uleb128 0x4
	.byte	0xa3
	.uleb128 0x1
	.byte	0x54
	.byte	0x9f
	.byte	0
.LVUS122:
	.uleb128 .LVU96
	.uleb128 .LVU102
	.uleb128 .LVU102
	.uleb128 .LVU105
	.uleb128 .LVU105
	.uleb128 .LVU106
	.uleb128 .LVU106
	.uleb128 .LVU107
	.uleb128 .LVU107
	.uleb128 .LVU108
	.uleb128 .LVU108
	.uleb128 .LVU111
	.uleb128 .LVU111
	.uleb128 .LVU116
	.uleb128 .LVU116
	.uleb128 .LVU133
	.uleb128 .LVU133
	.uleb128 .LVU134
	.uleb128 .LVU134
	.uleb128 .LVU137
	.uleb128 .LVU137
	.uleb128 .LVU138
	.uleb128 .LVU138
	.uleb128 .LVU140
	.uleb128 .LVU140
	.uleb128 .LVU141
	.uleb128 .LVU141
	.uleb128 .LVU142
	.uleb128 .LVU142
	.uleb128 .LVU145
	.uleb128 .LVU145
	.uleb128 .LVU155
	.uleb128 .LVU1389
	.uleb128 .LVU1408
	.uleb128 .LVU1408
	.uleb128 .LVU1443
	.uleb128 .LVU1449
	.uleb128 .LVU1450
	.uleb128 .LVU1455
	.uleb128 .LVU1457
.LLST122:
	.byte	0x6
	.quad	.LVL18
	.byte	0x4
	.uleb128 .LVL18-.LVL18
	.uleb128 .LVL20-.LVL18
	.uleb128 0x5
	.byte	0x5a
	.byte	0x93
	.uleb128 0x4
	.byte	0x93
	.uleb128 0x2c
	.byte	0x4
	.uleb128 .LVL20-.LVL18
	.uleb128 .LVL20-.LVL18
	.uleb128 0x8
	.byte	0x5a
	.byte	0x93
	.uleb128 0x4
	.byte	0x54
	.byte	0x93
	.uleb128 0x4
	.byte	0x93
	.uleb128 0x28
	.byte	0x4
	.uleb128 .LVL20-.LVL18
	.uleb128 .LVL20-.LVL18
	.uleb128 0x2a
	.byte	0x5a
	.byte	0x93
	.uleb128 0x4
	.byte	0x54
	.byte	0x93
	.uleb128 0x4
	.byte	0xa5
	.uleb128 0x11
	.uleb128 0x30
	.byte	0xa4
	.uleb128 0x30
	.byte	0x4
	.long	0x3f800000
	.byte	0x22
	.byte	0xa5
	.uleb128 0x15
	.uleb128 0x30
	.byte	0x1c
	.byte	0xa5
	.uleb128 0x12
	.uleb128 0x30
	.byte	0xa4
	.uleb128 0x30
	.byte	0x4
	.long	0x3f800000
	.byte	0x22
	.byte	0xa5
	.uleb128 0x13
	.uleb128 0x30
	.byte	0x1c
	.byte	0x1e
	.byte	0x9f
	.byte	0x93
	.uleb128 0x4
	.byte	0x93
	.uleb128 0x24
	.byte	0x4
	.uleb128 .LVL20-.LVL18
	.uleb128 .LVL20-.LVL18
	.uleb128 0x44
	.byte	0x5a
	.byte	0x93
	.uleb128 0x4
	.byte	0x54
	.byte	0x93
	.uleb128 0x4
	.byte	0xa5
	.uleb128 0x11
	.uleb128 0x30
	.byte	0xa4
	.uleb128 0x30
	.byte	0x4
	.long	0x3f800000
	.byte	0x22
	.byte	0xa5
	.uleb128 0x15
	.uleb128 0x30
	.byte	0x1c
	.byte	0xa5
	.uleb128 0x12
	.uleb128 0x30
	.byte	0xa4
	.uleb128 0x30
	.byte	0x4
	.long	0x3f800000
	.byte	0x22
	.byte	0xa5
	.uleb128 0x13
	.uleb128 0x30
	.byte	0x1c
	.byte	0x1e
	.byte	0x9f
	.byte	0x93
	.uleb128 0x4
	.byte	0xa5
	.uleb128 0x12
	.uleb128 0x30
	.byte	0xa4
	.uleb128 0x30
	.byte	0x4
	.long	0x3f800000
	.byte	0x22
	.byte	0xa5
	.uleb128 0x13
	.uleb128 0x30
	.byte	0x1c
	.byte	0xa5
	.uleb128 0x15
	.uleb128 0x30
	.byte	0xa5
	.uleb128 0x11
	.uleb128 0x30
	.byte	0x1c
	.byte	0x1e
	.byte	0x9f
	.byte	0x93
	.uleb128 0x4
	.byte	0x93
	.uleb128 0x20
	.byte	0x4
	.uleb128 .LVL20-.LVL18
	.uleb128 .LVL20-.LVL18
	.uleb128 0x5e
	.byte	0x5a
	.byte	0x93
	.uleb128 0x4
	.byte	0x54
	.byte	0x93
	.uleb128 0x4
	.byte	0xa5
	.uleb128 0x11
	.uleb128 0x30
	.byte	0xa4
	.uleb128 0x30
	.byte	0x4
	.long	0x3f800000
	.byte	0x22
	.byte	0xa5
	.uleb128 0x15
	.uleb128 0x30
	.byte	0x1c
	.byte	0xa5
	.uleb128 0x12
	.uleb128 0x30
	.byte	0xa4
	.uleb128 0x30
	.byte	0x4
	.long	0x3f800000
	.byte	0x22
	.byte	0xa5
	.uleb128 0x13
	.uleb128 0x30
	.byte	0x1c
	.byte	0x1e
	.byte	0x9f
	.byte	0x93
	.uleb128 0x4
	.byte	0xa5
	.uleb128 0x12
	.uleb128 0x30
	.byte	0xa4
	.uleb128 0x30
	.byte	0x4
	.long	0x3f800000
	.byte	0x22
	.byte	0xa5
	.uleb128 0x13
	.uleb128 0x30
	.byte	0x1c
	.byte	0xa5
	.uleb128 0x15
	.uleb128 0x30
	.byte	0xa5
	.uleb128 0x11
	.uleb128 0x30
	.byte	0x1c
	.byte	0x1e
	.byte	0x9f
	.byte	0x93
	.uleb128 0x4
	.byte	0xa5
	.uleb128 0x11
	.uleb128 0x30
	.byte	0xa4
	.uleb128 0x30
	.byte	0x4
	.long	0x3f800000
	.byte	0x22
	.byte	0xa5
	.uleb128 0x15
	.uleb128 0x30
	.byte	0x1c
	.byte	0xa5
	.uleb128 0x13
	.uleb128 0x30
	.byte	0xa5
	.uleb128 0x12
	.uleb128 0x30
	.byte	0x1c
	.byte	0x1e
	.byte	0x9f
	.byte	0x93
	.uleb128 0x4
	.byte	0x93
	.uleb128 0x1c
	.byte	0x4
	.uleb128 .LVL20-.LVL18
	.uleb128 .LVL21-.LVL18
	.uleb128 0x70
	.byte	0x5a
	.byte	0x93
	.uleb128 0x4
	.byte	0x54
	.byte	0x93
	.uleb128 0x4
	.byte	0xa5
	.uleb128 0x11
	.uleb128 0x30
	.byte	0xa4
	.uleb128 0x30
	.byte	0x4
	.long	0x3f800000
	.byte	0x22
	.byte	0xa5
	.uleb128 0x15
	.uleb128 0x30
	.byte	0x1c
	.byte	0xa5
	.uleb128 0x12
	.uleb128 0x30
	.byte	0xa4
	.uleb128 0x30
	.byte	0x4
	.long	0x3f800000
	.byte	0x22
	.byte	0xa5
	.uleb128 0x13
	.uleb128 0x30
	.byte	0x1c
	.byte	0x1e
	.byte	0x9f
	.byte	0x93
	.uleb128 0x4
	.byte	0xa5
	.uleb128 0x12
	.uleb128 0x30
	.byte	0xa4
	.uleb128 0x30
	.byte	0x4
	.long	0x3f800000
	.byte	0x22
	.byte	0xa5
	.uleb128 0x13
	.uleb128 0x30
	.byte	0x1c
	.byte	0xa5
	.uleb128 0x15
	.uleb128 0x30
	.byte	0xa5
	.uleb128 0x11
	.uleb128 0x30
	.byte	0x1c
	.byte	0x1e
	.byte	0x9f
	.byte	0x93
	.uleb128 0x4
	.byte	0xa5
	.uleb128 0x11
	.uleb128 0x30
	.byte	0xa4
	.uleb128 0x30
	.byte	0x4
	.long	0x3f800000
	.byte	0x22
	.byte	0xa5
	.uleb128 0x15
	.uleb128 0x30
	.byte	0x1c
	.byte	0xa5
	.uleb128 0x13
	.uleb128 0x30
	.byte	0xa5
	.uleb128 0x12
	.uleb128 0x30
	.byte	0x1c
	.byte	0x1e
	.byte	0x9f
	.byte	0x93
	.uleb128 0x4
	.byte	0xa5
	.uleb128 0x15
	.uleb128 0x30
	.byte	0xa5
	.uleb128 0x11
	.uleb128 0x30
	.byte	0x1c
	.byte	0xa5
	.uleb128 0x13
	.uleb128 0x30
	.byte	0xa5
	.uleb128 0x12
	.uleb128 0x30
	.byte	0x1c
	.byte	0x1e
	.byte	0x9f
	.byte	0x93
	.uleb128 0x4
	.byte	0x93
	.uleb128 0x18
	.byte	0x4
	.uleb128 .LVL21-.LVL18
	.uleb128 .LVL22-.LVL18
	.uleb128 0x73
	.byte	0x5a
	.byte	0x93
	.uleb128 0x4
	.byte	0x54
	.byte	0x93
	.uleb128 0x4
	.byte	0xa5
	.uleb128 0x11
	.uleb128 0x30
	.byte	0xa4
	.uleb128 0x30
	.byte	0x4
	.long	0x3f800000
	.byte	0x22
	.byte	0xa5
	.uleb128 0x15
	.uleb128 0x30
	.byte	0x1c
	.byte	0xa5
	.uleb128 0x12
	.uleb128 0x30
	.byte	0xa4
	.uleb128 0x30
	.byte	0x4
	.long	0x3f800000
	.byte	0x22
	.byte	0xa5
	.uleb128 0x13
	.uleb128 0x30
	.byte	0x1c
	.byte	0x1e
	.byte	0x9f
	.byte	0x93
	.uleb128 0x4
	.byte	0xa5
	.uleb128 0x12
	.uleb128 0x30
	.byte	0xa4
	.uleb128 0x30
	.byte	0x4
	.long	0x3f800000
	.byte	0x22
	.byte	0xa5
	.uleb128 0x13
	.uleb128 0x30
	.byte	0x1c
	.byte	0xa5
	.uleb128 0x15
	.uleb128 0x30
	.byte	0xa5
	.uleb128 0x11
	.uleb128 0x30
	.byte	0x1c
	.byte	0x1e
	.byte	0x9f
	.byte	0x93
	.uleb128 0x4
	.byte	0xa5
	.uleb128 0x11
	.uleb128 0x30
	.byte	0xa4
	.uleb128 0x30
	.byte	0x4
	.long	0x3f800000
	.byte	0x22
	.byte	0xa5
	.uleb128 0x15
	.uleb128 0x30
	.byte	0x1c
	.byte	0xa5
	.uleb128 0x13
	.uleb128 0x30
	.byte	0xa5
	.uleb128 0x12
	.uleb128 0x30
	.byte	0x1c
	.byte	0x1e
	.byte	0x9f
	.byte	0x93
	.uleb128 0x4
	.byte	0xa5
	.uleb128 0x15
	.uleb128 0x30
	.byte	0xa5
	.uleb128 0x11
	.uleb128 0x30
	.byte	0x1c
	.byte	0xa5
	.uleb128 0x13
	.uleb128 0x30
	.byte	0xa5
	.uleb128 0x12
	.uleb128 0x30
	.byte	0x1c
	.byte	0x1e
	.byte	0x9f
	.byte	0x93
	.uleb128 0x4
	.byte	0x58
	.byte	0x93
	.uleb128 0x4
	.byte	0x93
	.uleb128 0x14
	.byte	0x4
	.uleb128 .LVL22-.LVL18
	.uleb128 .LVL25-.LVL18
	.uleb128 0x76
	.byte	0x5a
	.byte	0x93
	.uleb128 0x4
	.byte	0x54
	.byte	0x93
	.uleb128 0x4
	.byte	0xa5
	.uleb128 0x11
	.uleb128 0x30
	.byte	0xa4
	.uleb128 0x30
	.byte	0x4
	.long	0x3f800000
	.byte	0x22
	.byte	0xa5
	.uleb128 0x15
	.uleb128 0x30
	.byte	0x1c
	.byte	0xa5
	.uleb128 0x12
	.uleb128 0x30
	.byte	0xa4
	.uleb128 0x30
	.byte	0x4
	.long	0x3f800000
	.byte	0x22
	.byte	0xa5
	.uleb128 0x13
	.uleb128 0x30
	.byte	0x1c
	.byte	0x1e
	.byte	0x9f
	.byte	0x93
	.uleb128 0x4
	.byte	0xa5
	.uleb128 0x12
	.uleb128 0x30
	.byte	0xa4
	.uleb128 0x30
	.byte	0x4
	.long	0x3f800000
	.byte	0x22
	.byte	0xa5
	.uleb128 0x13
	.uleb128 0x30
	.byte	0x1c
	.byte	0xa5
	.uleb128 0x15
	.uleb128 0x30
	.byte	0xa5
	.uleb128 0x11
	.uleb128 0x30
	.byte	0x1c
	.byte	0x1e
	.byte	0x9f
	.byte	0x93
	.uleb128 0x4
	.byte	0xa5
	.uleb128 0x11
	.uleb128 0x30
	.byte	0xa4
	.uleb128 0x30
	.byte	0x4
	.long	0x3f800000
	.byte	0x22
	.byte	0xa5
	.uleb128 0x15
	.uleb128 0x30
	.byte	0x1c
	.byte	0xa5
	.uleb128 0x13
	.uleb128 0x30
	.byte	0xa5
	.uleb128 0x12
	.uleb128 0x30
	.byte	0x1c
	.byte	0x1e
	.byte	0x9f
	.byte	0x93
	.uleb128 0x4
	.byte	0xa5
	.uleb128 0x15
	.uleb128 0x30
	.byte	0xa5
	.uleb128 0x11
	.uleb128 0x30
	.byte	0x1c
	.byte	0xa5
	.uleb128 0x13
	.uleb128 0x30
	.byte	0xa5
	.uleb128 0x12
	.uleb128 0x30
	.byte	0x1c
	.byte	0x1e
	.byte	0x9f
	.byte	0x93
	.uleb128 0x4
	.byte	0x58
	.byte	0x93
	.uleb128 0x4
	.byte	0x52
	.byte	0x93
	.uleb128 0x4
	.byte	0x93
	.uleb128 0x10
	.byte	0x4
	.uleb128 .LVL25-.LVL18
	.uleb128 .LVL26-.LVL18
	.uleb128 0x6e
	.byte	0x5a
	.byte	0x93
	.uleb128 0x4
	.byte	0x54
	.byte	0x93
	.uleb128 0x4
	.byte	0xa5
	.uleb128 0x11
	.uleb128 0x30
	.byte	0xa4
	.uleb128 0x30
	.byte	0x4
	.long	0x3f800000
	.byte	0x22
	.byte	0xa5
	.uleb128 0x15
	.uleb128 0x30
	.byte	0x1c
	.byte	0xa5
	.uleb128 0x12
	.uleb128 0x30
	.byte	0xa4
	.uleb128 0x30
	.byte	0x4
	.long	0x3f800000
	.byte	0x22
	.byte	0xa5
	.uleb128 0x13
	.uleb128 0x30
	.byte	0x1c
	.byte	0x1e
	.byte	0x9f
	.byte	0x93
	.uleb128 0x4
	.byte	0xa5
	.uleb128 0x12
	.uleb128 0x30
	.byte	0xa4
	.uleb128 0x30
	.byte	0x4
	.long	0x3f800000
	.byte	0x22
	.byte	0xa5
	.uleb128 0x13
	.uleb128 0x30
	.byte	0x1c
	.byte	0xa5
	.uleb128 0x15
	.uleb128 0x30
	.byte	0xa5
	.uleb128 0x11
	.uleb128 0x30
	.byte	0x1c
	.byte	0x1e
	.byte	0x9f
	.byte	0x93
	.uleb128 0x4
	.byte	0xa5
	.uleb128 0x11
	.uleb128 0x30
	.byte	0xa4
	.uleb128 0x30
	.byte	0x4
	.long	0x3f800000
	.byte	0x22
	.byte	0xa5
	.uleb128 0x15
	.uleb128 0x30
	.byte	0x1c
	.byte	0xa5
	.uleb128 0x16
	.uleb128 0x30
	.byte	0x1e
	.byte	0x9f
	.byte	0x93
	.uleb128 0x4
	.byte	0xa5
	.uleb128 0x15
	.uleb128 0x30
	.byte	0xa5
	.uleb128 0x11
	.uleb128 0x30
	.byte	0x1c
	.byte	0xa5
	.uleb128 0x16
	.uleb128 0x30
	.byte	0x1e
	.byte	0x9f
	.byte	0x93
	.uleb128 0x4
	.byte	0x58
	.byte	0x93
	.uleb128 0x4
	.byte	0x52
	.byte	0x93
	.uleb128 0x4
	.byte	0x93
	.uleb128 0x10
	.byte	0x4
	.uleb128 .LVL26-.LVL18
	.uleb128 .LVL27-.LVL18
	.uleb128 0x66
	.byte	0x5a
	.byte	0x93
	.uleb128 0x4
	.byte	0x54
	.byte	0x93
	.uleb128 0x4
	.byte	0xa5
	.uleb128 0x11
	.uleb128 0x30
	.byte	0xa4
	.uleb128 0x30
	.byte	0x4
	.long	0x3f800000
	.byte	0x22
	.byte	0xa5
	.uleb128 0x15
	.uleb128 0x30
	.byte	0x1c
	.byte	0xa5
	.uleb128 0x12
	.uleb128 0x30
	.byte	0xa4
	.uleb128 0x30
	.byte	0x4
	.long	0x3f800000
	.byte	0x22
	.byte	0xa5
	.uleb128 0x13
	.uleb128 0x30
	.byte	0x1c
	.byte	0x1e
	.byte	0x9f
	.byte	0x93
	.uleb128 0x4
	.byte	0xa5
	.uleb128 0x12
	.uleb128 0x30
	.byte	0xa4
	.uleb128 0x30
	.byte	0x4
	.long	0x3f800000
	.byte	0x22
	.byte	0xa5
	.uleb128 0x13
	.uleb128 0x30
	.byte	0x1c
	.byte	0xa5
	.uleb128 0x14
	.uleb128 0x30
	.byte	0x1e
	.byte	0x9f
	.byte	0x93
	.uleb128 0x4
	.byte	0xa5
	.uleb128 0x11
	.uleb128 0x30
	.byte	0xa4
	.uleb128 0x30
	.byte	0x4
	.long	0x3f800000
	.byte	0x22
	.byte	0xa5
	.uleb128 0x15
	.uleb128 0x30
	.byte	0x1c
	.byte	0xa5
	.uleb128 0x16
	.uleb128 0x30
	.byte	0x1e
	.byte	0x9f
	.byte	0x93
	.uleb128 0x4
	.byte	0xa5
	.uleb128 0x14
	.uleb128 0x30
	.byte	0xa5
	.uleb128 0x16
	.uleb128 0x30
	.byte	0x1e
	.byte	0x9f
	.byte	0x93
	.uleb128 0x4
	.byte	0x58
	.byte	0x93
	.uleb128 0x4
	.byte	0x52
	.byte	0x93
	.uleb128 0x4
	.byte	0x93
	.uleb128 0x10
	.byte	0x4
	.uleb128 .LVL27-.LVL18
	.uleb128 .LVL28-.LVL18
	.uleb128 0x56
	.byte	0x5a
	.byte	0x93
	.uleb128 0x4
	.byte	0x54
	.byte	0x93
	.uleb128 0x4
	.byte	0xa5
	.uleb128 0x11
	.uleb128 0x30
	.byte	0xa5
	.uleb128 0x15
	.uleb128 0x30
	.byte	0x1c
	.byte	0xa5
	.uleb128 0x12
	.uleb128 0x30
	.byte	0xa4
	.uleb128 0x30
	.byte	0x4
	.long	0x3f800000
	.byte	0x22
	.byte	0xa5
	.uleb128 0x13
	.uleb128 0x30
	.byte	0x1c
	.byte	0x1e
	.byte	0x9f
	.byte	0x93
	.uleb128 0x4
	.byte	0xa5
	.uleb128 0x12
	.uleb128 0x30
	.byte	0xa4
	.uleb128 0x30
	.byte	0x4
	.long	0x3f800000
	.byte	0x22
	.byte	0xa5
	.uleb128 0x13
	.uleb128 0x30
	.byte	0x1c
	.byte	0xa5
	.uleb128 0x14
	.uleb128 0x30
	.byte	0x1e
	.byte	0x9f
	.byte	0x93
	.uleb128 0x4
	.byte	0xa5
	.uleb128 0x11
	.uleb128 0x30
	.byte	0xa5
	.uleb128 0x15
	.uleb128 0x30
	.byte	0x1c
	.byte	0xa5
	.uleb128 0x16
	.uleb128 0x30
	.byte	0x1e
	.byte	0x9f
	.byte	0x93
	.uleb128 0x4
	.byte	0xa5
	.uleb128 0x14
	.uleb128 0x30
	.byte	0xa5
	.uleb128 0x16
	.uleb128 0x30
	.byte	0x1e
	.byte	0x9f
	.byte	0x93
	.uleb128 0x4
	.byte	0x58
	.byte	0x93
	.uleb128 0x4
	.byte	0x52
	.byte	0x93
	.uleb128 0x4
	.byte	0x93
	.uleb128 0x10
	.byte	0x4
	.uleb128 .LVL28-.LVL18
	.uleb128 .LVL29-.LVL18
	.uleb128 0x46
	.byte	0x5a
	.byte	0x93
	.uleb128 0x4
	.byte	0x54
	.byte	0x93
	.uleb128 0x4
	.byte	0xa5
	.uleb128 0x11
	.uleb128 0x30
	.byte	0xa5
	.uleb128 0x15
	.uleb128 0x30
	.byte	0x1c
	.byte	0xa5
	.uleb128 0x12
	.uleb128 0x30
	.byte	0xa5
	.uleb128 0x13
	.uleb128 0x30
	.byte	0x1c
	.byte	0x1e
	.byte	0x9f
	.byte	0x93
	.uleb128 0x4
	.byte	0xa5
	.uleb128 0x12
	.uleb128 0x30
	.byte	0xa5
	.uleb128 0x13
	.uleb128 0x30
	.byte	0x1c
	.byte	0xa5
	.uleb128 0x14
	.uleb128 0x30
	.byte	0x1e
	.byte	0x9f
	.byte	0x93
	.uleb128 0x4
	.byte	0xa5
	.uleb128 0x11
	.uleb128 0x30
	.byte	0xa5
	.uleb128 0x15
	.uleb128 0x30
	.byte	0x1c
	.byte	0xa5
	.uleb128 0x16
	.uleb128 0x30
	.byte	0x1e
	.byte	0x9f
	.byte	0x93
	.uleb128 0x4
	.byte	0xa5
	.uleb128 0x14
	.uleb128 0x30
	.byte	0xa5
	.uleb128 0x16
	.uleb128 0x30
	.byte	0x1e
	.byte	0x9f
	.byte	0x93
	.uleb128 0x4
	.byte	0x58
	.byte	0x93
	.uleb128 0x4
	.byte	0x52
	.byte	0x93
	.uleb128 0x4
	.byte	0x93
	.uleb128 0x10
	.byte	0x4
	.uleb128 .LVL29-.LVL18
	.uleb128 .LVL30-.LVL18
	.uleb128 0x2a
	.byte	0x5a
	.byte	0x93
	.uleb128 0x4
	.byte	0x54
	.byte	0x93
	.uleb128 0x4
	.byte	0x93
	.uleb128 0x4
	.byte	0xa5
	.uleb128 0x12
	.uleb128 0x30
	.byte	0xa5
	.uleb128 0x13
	.uleb128 0x30
	.byte	0x1c
	.byte	0xa5
	.uleb128 0x14
	.uleb128 0x30
	.byte	0x1e
	.byte	0x9f
	.byte	0x93
	.uleb128 0x4
	.byte	0x93
	.uleb128 0x4
	.byte	0xa5
	.uleb128 0x14
	.uleb128 0x30
	.byte	0xa5
	.uleb128 0x16
	.uleb128 0x30
	.byte	0x1e
	.byte	0x9f
	.byte	0x93
	.uleb128 0x4
	.byte	0x58
	.byte	0x93
	.uleb128 0x4
	.byte	0x52
	.byte	0x93
	.uleb128 0x4
	.byte	0x93
	.uleb128 0x10
	.byte	0x4
	.uleb128 .LVL30-.LVL18
	.uleb128 .LVL31-.LVL18
	.uleb128 0x1a
	.byte	0x5a
	.byte	0x93
	.uleb128 0x4
	.byte	0x54
	.byte	0x93
	.uleb128 0x4
	.byte	0x93
	.uleb128 0xc
	.byte	0xa5
	.uleb128 0x14
	.uleb128 0x30
	.byte	0xa5
	.uleb128 0x16
	.uleb128 0x30
	.byte	0x1e
	.byte	0x9f
	.byte	0x93
	.uleb128 0x4
	.byte	0x58
	.byte	0x93
	.uleb128 0x4
	.byte	0x52
	.byte	0x93
	.uleb128 0x4
	.byte	0x93
	.uleb128 0x10
	.byte	0x4
	.uleb128 .LVL31-.LVL18
	.uleb128 .LVL32-.LVL18
	.uleb128 0x1a
	.byte	0x5a
	.byte	0x93
	.uleb128 0x4
	.byte	0x54
	.byte	0x93
	.uleb128 0x4
	.byte	0x93
	.uleb128 0xc
	.byte	0xa5
	.uleb128 0x14
	.uleb128 0x30
	.byte	0xa5
	.uleb128 0x16
	.uleb128 0x30
	.byte	0x1e
	.byte	0x9f
	.byte	0x93
	.uleb128 0x4
	.byte	0x58
	.byte	0x93
	.uleb128 0x4
	.byte	0x52
	.byte	0x93
	.uleb128 0x4
	.byte	0x93
	.uleb128 0x10
	.byte	0x4
	.uleb128 .LVL32-.LVL18
	.uleb128 .LVL35-.LVL18
	.uleb128 0x10
	.byte	0x5a
	.byte	0x93
	.uleb128 0x4
	.byte	0x54
	.byte	0x93
	.uleb128 0x4
	.byte	0x93
	.uleb128 0x10
	.byte	0x58
	.byte	0x93
	.uleb128 0x4
	.byte	0x52
	.byte	0x93
	.uleb128 0x4
	.byte	0x93
	.uleb128 0x10
	.byte	0x4
	.uleb128 .LVL226-.LVL18
	.uleb128 .LVL231-1-.LVL18
	.uleb128 0x10
	.byte	0x5a
	.byte	0x93
	.uleb128 0x4
	.byte	0x54
	.byte	0x93
	.uleb128 0x4
	.byte	0x93
	.uleb128 0x10
	.byte	0x58
	.byte	0x93
	.uleb128 0x4
	.byte	0x52
	.byte	0x93
	.uleb128 0x4
	.byte	0x93
	.uleb128 0x10
	.byte	0x4
	.uleb128 .LVL231-1-.LVL18
	.uleb128 .LVL241-.LVL18
	.uleb128 0x18
	.byte	0x77
	.sleb128 184
	.byte	0x93
	.uleb128 0x4
	.byte	0x77
	.sleb128 176
	.byte	0x93
	.uleb128 0x4
	.byte	0x93
	.uleb128 0x10
	.byte	0x77
	.sleb128 128
	.byte	0x93
	.uleb128 0x4
	.byte	0x77
	.sleb128 116
	.byte	0x93
	.uleb128 0x4
	.byte	0x93
	.uleb128 0x10
	.byte	0x4
	.uleb128 .LVL246-.LVL18
	.uleb128 .LVL247-.LVL18
	.uleb128 0x18
	.byte	0x77
	.sleb128 184
	.byte	0x93
	.uleb128 0x4
	.byte	0x77
	.sleb128 176
	.byte	0x93
	.uleb128 0x4
	.byte	0x93
	.uleb128 0x10
	.byte	0x77
	.sleb128 128
	.byte	0x93
	.uleb128 0x4
	.byte	0x77
	.sleb128 116
	.byte	0x93
	.uleb128 0x4
	.byte	0x93
	.uleb128 0x10
	.byte	0x8
	.quad	.LVL251
	.uleb128 .LVL252-1-.LVL251
	.uleb128 0x10
	.byte	0x5a
	.byte	0x93
	.uleb128 0x4
	.byte	0x54
	.byte	0x93
	.uleb128 0x4
	.byte	0x93
	.uleb128 0x10
	.byte	0x58
	.byte	0x93
	.uleb128 0x4
	.byte	0x52
	.byte	0x93
	.uleb128 0x4
	.byte	0x93
	.uleb128 0x10
	.byte	0
.LVUS123:
	.uleb128 .LVU88
	.uleb128 .LVU155
	.uleb128 .LVU1389
	.uleb128 .LVU1408
	.uleb128 .LVU1455
	.uleb128 .LVU1457
.LLST123:
	.byte	0x6
	.quad	.LVL15
	.byte	0x4
	.uleb128 .LVL15-.LVL15
	.uleb128 .LVL35-.LVL15
	.uleb128 0x1
	.byte	0x65
	.byte	0x4
	.uleb128 .LVL226-.LVL15
	.uleb128 .LVL231-1-.LVL15
	.uleb128 0x1
	.byte	0x65
	.byte	0x8
	.quad	.LVL251
	.uleb128 .LVL252-1-.LVL251
	.uleb128 0x1
	.byte	0x65
	.byte	0
.LVUS124:
	.uleb128 .LVU90
	.uleb128 .LVU142
	.uleb128 .LVU142
	.uleb128 .LVU155
	.uleb128 .LVU1389
	.uleb128 .LVU1408
	.uleb128 .LVU1455
	.uleb128 .LVU1457
.LLST124:
	.byte	0x6
	.quad	.LVL16
	.byte	0x4
	.uleb128 .LVL16-.LVL16
	.uleb128 .LVL31-.LVL16
	.uleb128 0x1
	.byte	0x63
	.byte	0x4
	.uleb128 .LVL31-.LVL16
	.uleb128 .LVL35-.LVL16
	.uleb128 0xd
	.byte	0x77
	.sleb128 192
	.byte	0xa6
	.byte	0x4
	.uleb128 0x30
	.byte	0x73
	.sleb128 44
	.byte	0xa6
	.byte	0x4
	.uleb128 0x30
	.byte	0x1e
	.byte	0x9f
	.byte	0x4
	.uleb128 .LVL226-.LVL16
	.uleb128 .LVL231-1-.LVL16
	.uleb128 0xd
	.byte	0x77
	.sleb128 192
	.byte	0xa6
	.byte	0x4
	.uleb128 0x30
	.byte	0x73
	.sleb128 44
	.byte	0xa6
	.byte	0x4
	.uleb128 0x30
	.byte	0x1e
	.byte	0x9f
	.byte	0x8
	.quad	.LVL251
	.uleb128 .LVL252-1-.LVL251
	.uleb128 0xd
	.byte	0x77
	.sleb128 192
	.byte	0xa6
	.byte	0x4
	.uleb128 0x30
	.byte	0x73
	.sleb128 44
	.byte	0xa6
	.byte	0x4
	.uleb128 0x30
	.byte	0x1e
	.byte	0x9f
	.byte	0
.LVUS125:
	.uleb128 .LVU103
	.uleb128 .LVU134
	.uleb128 .LVU134
	.uleb128 .LVU145
.LLST125:
	.byte	0x6
	.quad	.LVL20
	.byte	0x4
	.uleb128 .LVL20-.LVL20
	.uleb128 .LVL26-.LVL20
	.uleb128 0x8
	.byte	0xa5
	.uleb128 0x15
	.uleb128 0x30
	.byte	0xa5
	.uleb128 0x11
	.uleb128 0x30
	.byte	0x1c
	.byte	0x9f
	.byte	0x4
	.uleb128 .LVL26-.LVL20
	.uleb128 .LVL32-.LVL20
	.uleb128 0x1
	.byte	0x64
	.byte	0
.LVUS126:
	.uleb128 .LVU104
	.uleb128 .LVU133
	.uleb128 .LVU133
	.uleb128 .LVU155
	.uleb128 .LVU1389
	.uleb128 .LVU1408
	.uleb128 .LVU1455
	.uleb128 .LVU1457
.LLST126:
	.byte	0x6
	.quad	.LVL20
	.byte	0x4
	.uleb128 .LVL20-.LVL20
	.uleb128 .LVL25-.LVL20
	.uleb128 0x8
	.byte	0xa5
	.uleb128 0x13
	.uleb128 0x30
	.byte	0xa5
	.uleb128 0x12
	.uleb128 0x30
	.byte	0x1c
	.byte	0x9f
	.byte	0x4
	.uleb128 .LVL25-.LVL20
	.uleb128 .LVL35-.LVL20
	.uleb128 0x1
	.byte	0x66
	.byte	0x4
	.uleb128 .LVL226-.LVL20
	.uleb128 .LVL231-1-.LVL20
	.uleb128 0x1
	.byte	0x66
	.byte	0x8
	.quad	.LVL251
	.uleb128 .LVL252-1-.LVL251
	.uleb128 0x1
	.byte	0x66
	.byte	0
.LVUS127:
	.uleb128 .LVU91
	.uleb128 .LVU94
.LLST127:
	.byte	0x8
	.quad	.LVL16
	.uleb128 .LVL17-.LVL16
	.uleb128 0x1
	.byte	0x65
	.byte	0
.LVUS128:
	.uleb128 .LVU97
	.uleb128 .LVU100
.LLST128:
	.byte	0x8
	.quad	.LVL18
	.uleb128 .LVL19-.LVL18
	.uleb128 0x1
	.byte	0x63
	.byte	0
.LVUS130:
	.uleb128 .LVU112
	.uleb128 .LVU116
.LLST130:
	.byte	0x8
	.quad	.LVL21
	.uleb128 .LVL22-.LVL21
	.uleb128 0x6
	.byte	0xa0
	.long	.Ldebug_info0+52860
	.sleb128 0
	.byte	0
.LVUS132:
	.uleb128 .LVU121
	.uleb128 .LVU125
.LLST132:
	.byte	0x8
	.quad	.LVL23
	.uleb128 .LVL24-.LVL23
	.uleb128 0x6
	.byte	0xa0
	.long	.Ldebug_info0+52869
	.sleb128 0
	.byte	0
.LVUS134:
	.uleb128 .LVU127
	.uleb128 .LVU128
.LLST134:
	.byte	0x8
	.quad	.LVL24
	.uleb128 .LVL24-.LVL24
	.uleb128 0x3
	.byte	0x73
	.sleb128 16
	.byte	0x9f
	.byte	0
.LVUS136:
	.uleb128 .LVU146
	.uleb128 .LVU155
	.uleb128 .LVU1389
	.uleb128 .LVU1443
	.uleb128 .LVU1449
	.uleb128 .LVU1450
	.uleb128 .LVU1455
	.uleb128 .LVU1457
	.uleb128 .LVU1538
	.uleb128 .LVU1541
.LLST136:
	.byte	0x6
	.quad	.LVL32
	.byte	0x4
	.uleb128 .LVL32-.LVL32
	.uleb128 .LVL35-.LVL32
	.uleb128 0x6
	.byte	0xa0
	.long	.Ldebug_info0+52897
	.sleb128 0
	.byte	0x4
	.uleb128 .LVL226-.LVL32
	.uleb128 .LVL241-.LVL32
	.uleb128 0x6
	.byte	0xa0
	.long	.Ldebug_info0+52897
	.sleb128 0
	.byte	0x4
	.uleb128 .LVL246-.LVL32
	.uleb128 .LVL247-.LVL32
	.uleb128 0x6
	.byte	0xa0
	.long	.Ldebug_info0+52897
	.sleb128 0
	.byte	0x6
	.quad	.LVL251
	.byte	0x4
	.uleb128 .LVL251-.LVL251
	.uleb128 .LVL252-.LVL251
	.uleb128 0x6
	.byte	0xa0
	.long	.Ldebug_info0+52897
	.sleb128 0
	.byte	0x4
	.uleb128 .LVL270-.LVL251
	.uleb128 .LVL273-.LVL251
	.uleb128 0x6
	.byte	0xa0
	.long	.Ldebug_info0+52897
	.sleb128 0
	.byte	0
.LVUS137:
	.uleb128 .LVU146
	.uleb128 .LVU155
	.uleb128 .LVU1389
	.uleb128 .LVU1443
	.uleb128 .LVU1449
	.uleb128 .LVU1450
	.uleb128 .LVU1455
	.uleb128 .LVU1457
	.uleb128 .LVU1538
	.uleb128 .LVU1541
.LLST137:
	.byte	0x6
	.quad	.LVL32
	.byte	0x4
	.uleb128 .LVL32-.LVL32
	.uleb128 .LVL35-.LVL32
	.uleb128 0x6
	.byte	0xa0
	.long	.Ldebug_info0+53063
	.sleb128 0
	.byte	0x4
	.uleb128 .LVL226-.LVL32
	.uleb128 .LVL241-.LVL32
	.uleb128 0x6
	.byte	0xa0
	.long	.Ldebug_info0+53063
	.sleb128 0
	.byte	0x4
	.uleb128 .LVL246-.LVL32
	.uleb128 .LVL247-.LVL32
	.uleb128 0x6
	.byte	0xa0
	.long	.Ldebug_info0+53063
	.sleb128 0
	.byte	0x6
	.quad	.LVL251
	.byte	0x4
	.uleb128 .LVL251-.LVL251
	.uleb128 .LVL252-.LVL251
	.uleb128 0x6
	.byte	0xa0
	.long	.Ldebug_info0+53063
	.sleb128 0
	.byte	0x4
	.uleb128 .LVL270-.LVL251
	.uleb128 .LVL273-.LVL251
	.uleb128 0x6
	.byte	0xa0
	.long	.Ldebug_info0+53063
	.sleb128 0
	.byte	0
.LVUS139:
	.uleb128 .LVU148
	.uleb128 .LVU153
.LLST139:
	.byte	0x8
	.quad	.LVL33
	.uleb128 .LVL34-.LVL33
	.uleb128 0x6
	.byte	0xa0
	.long	.Ldebug_info0+52897
	.sleb128 0
	.byte	0
.LVUS140:
	.uleb128 .LVU148
	.uleb128 .LVU153
.LLST140:
	.byte	0x8
	.quad	.LVL33
	.uleb128 .LVL34-.LVL33
	.uleb128 0x6
	.byte	0xa0
	.long	.Ldebug_info0+53063
	.sleb128 0
	.byte	0
.LVUS141:
	.uleb128 .LVU149
	.uleb128 .LVU153
.LLST141:
	.byte	0x8
	.quad	.LVL33
	.uleb128 .LVL34-.LVL33
	.uleb128 0x6
	.byte	0xa0
	.long	.Ldebug_info0+52897
	.sleb128 0
	.byte	0
.LVUS142:
	.uleb128 .LVU149
	.uleb128 .LVU153
.LLST142:
	.byte	0x8
	.quad	.LVL33
	.uleb128 .LVL34-.LVL33
	.uleb128 0x6
	.byte	0xa0
	.long	.Ldebug_info0+53063
	.sleb128 0
	.byte	0
.LVUS144:
	.uleb128 .LVU1389
	.uleb128 .LVU1442
	.uleb128 .LVU1449
	.uleb128 .LVU1450
	.uleb128 .LVU1455
	.uleb128 .LVU1457
	.uleb128 .LVU1538
	.uleb128 .LVU1541
.LLST144:
	.byte	0x6
	.quad	.LVL226
	.byte	0x4
	.uleb128 .LVL226-.LVL226
	.uleb128 .LVL240-.LVL226
	.uleb128 0x6
	.byte	0xa0
	.long	.Ldebug_info0+52897
	.sleb128 0
	.byte	0x4
	.uleb128 .LVL246-.LVL226
	.uleb128 .LVL247-.LVL226
	.uleb128 0x6
	.byte	0xa0
	.long	.Ldebug_info0+52897
	.sleb128 0
	.byte	0x6
	.quad	.LVL251
	.byte	0x4
	.uleb128 .LVL251-.LVL251
	.uleb128 .LVL252-.LVL251
	.uleb128 0x6
	.byte	0xa0
	.long	.Ldebug_info0+52897
	.sleb128 0
	.byte	0x4
	.uleb128 .LVL270-.LVL251
	.uleb128 .LVL273-.LVL251
	.uleb128 0x6
	.byte	0xa0
	.long	.Ldebug_info0+52897
	.sleb128 0
	.byte	0
.LVUS145:
	.uleb128 .LVU1389
	.uleb128 .LVU1442
	.uleb128 .LVU1449
	.uleb128 .LVU1450
	.uleb128 .LVU1455
	.uleb128 .LVU1457
	.uleb128 .LVU1538
	.uleb128 .LVU1541
.LLST145:
	.byte	0x6
	.quad	.LVL226
	.byte	0x4
	.uleb128 .LVL226-.LVL226
	.uleb128 .LVL240-.LVL226
	.uleb128 0x6
	.byte	0xa0
	.long	.Ldebug_info0+53063
	.sleb128 0
	.byte	0x4
	.uleb128 .LVL246-.LVL226
	.uleb128 .LVL247-.LVL226
	.uleb128 0x6
	.byte	0xa0
	.long	.Ldebug_info0+53063
	.sleb128 0
	.byte	0x6
	.quad	.LVL251
	.byte	0x4
	.uleb128 .LVL251-.LVL251
	.uleb128 .LVL252-.LVL251
	.uleb128 0x6
	.byte	0xa0
	.long	.Ldebug_info0+53063
	.sleb128 0
	.byte	0x4
	.uleb128 .LVL270-.LVL251
	.uleb128 .LVL273-.LVL251
	.uleb128 0x6
	.byte	0xa0
	.long	.Ldebug_info0+53063
	.sleb128 0
	.byte	0
.LVUS146:
	.uleb128 .LVU1402
	.uleb128 .LVU1441
	.uleb128 .LVU1449
	.uleb128 .LVU1450
.LLST146:
	.byte	0x6
	.quad	.LVL230
	.byte	0x4
	.uleb128 .LVL230-.LVL230
	.uleb128 .LVL239-.LVL230
	.uleb128 0x1
	.byte	0x5c
	.byte	0x4
	.uleb128 .LVL246-.LVL230
	.uleb128 .LVL247-.LVL230
	.uleb128 0x1
	.byte	0x5c
	.byte	0
.LVUS147:
	.uleb128 .LVU1426
	.uleb128 .LVU1428
	.uleb128 .LVU1428
	.uleb128 .LVU1439
	.uleb128 .LVU1439
	.uleb128 .LVU1443
.LLST147:
	.byte	0x6
	.quad	.LVL234
	.byte	0x4
	.uleb128 .LVL234-.LVL234
	.uleb128 .LVL235-.LVL234
	.uleb128 0xc
	.byte	0x77
	.sleb128 216
	.byte	0x6
	.byte	0x77
	.sleb128 232
	.byte	0x6
	.byte	0x22
	.byte	0x23
	.uleb128 0x30
	.byte	0x9f
	.byte	0x4
	.uleb128 .LVL235-.LVL234
	.uleb128 .LVL238-1-.LVL234
	.uleb128 0x1
	.byte	0x50
	.byte	0x4
	.uleb128 .LVL238-1-.LVL234
	.uleb128 .LVL241-.LVL234
	.uleb128 0x3
	.byte	0x77
	.sleb128 80
	.byte	0
.LVUS148:
	.uleb128 .LVU1402
	.uleb128 .LVU1443
	.uleb128 .LVU1449
	.uleb128 .LVU1450
.LLST148:
	.byte	0x6
	.quad	.LVL230
	.byte	0x4
	.uleb128 .LVL230-.LVL230
	.uleb128 .LVL241-.LVL230
	.uleb128 0x8
	.byte	0x77
	.sleb128 232
	.byte	0x6
	.byte	0x8
	.byte	0x30
	.byte	0x1b
	.byte	0x9f
	.byte	0x4
	.uleb128 .LVL246-.LVL230
	.uleb128 .LVL247-.LVL230
	.uleb128 0x8
	.byte	0x77
	.sleb128 232
	.byte	0x6
	.byte	0x8
	.byte	0x30
	.byte	0x1b
	.byte	0x9f
	.byte	0
.LVUS149:
	.uleb128 .LVU1412
	.uleb128 .LVU1426
	.uleb128 .LVU1426
	.uleb128 .LVU1443
.LLST149:
	.byte	0x6
	.quad	.LVL232
	.byte	0x4
	.uleb128 .LVL232-.LVL232
	.uleb128 .LVL234-1-.LVL232
	.uleb128 0x1
	.byte	0x50
	.byte	0x4
	.uleb128 .LVL234-1-.LVL232
	.uleb128 .LVL241-.LVL232
	.uleb128 0x3
	.byte	0x77
	.sleb128 216
	.byte	0
.LVUS150:
	.uleb128 .LVU1412
	.uleb128 .LVU1426
	.uleb128 .LVU1426
	.uleb128 .LVU1426
	.uleb128 .LVU1426
	.uleb128 .LVU1429
	.uleb128 .LVU1429
	.uleb128 .LVU1439
	.uleb128 .LVU1439
	.uleb128 .LVU1442
.LLST150:
	.byte	0x6
	.quad	.LVL232
	.byte	0x4
	.uleb128 .LVL232-.LVL232
	.uleb128 .LVL234-1-.LVL232
	.uleb128 0x1
	.byte	0x50
	.byte	0x4
	.uleb128 .LVL234-1-.LVL232
	.uleb128 .LVL234-.LVL232
	.uleb128 0x3
	.byte	0x77
	.sleb128 216
	.byte	0x4
	.uleb128 .LVL234-.LVL232
	.uleb128 .LVL236-.LVL232
	.uleb128 0xa
	.byte	0x77
	.sleb128 216
	.byte	0x6
	.byte	0x77
	.sleb128 232
	.byte	0x6
	.byte	0x22
	.byte	0x9f
	.byte	0x4
	.uleb128 .LVL236-.LVL232
	.uleb128 .LVL238-1-.LVL232
	.uleb128 0x1
	.byte	0x50
	.byte	0x4
	.uleb128 .LVL238-1-.LVL232
	.uleb128 .LVL240-.LVL232
	.uleb128 0x3
	.byte	0x77
	.sleb128 80
	.byte	0
.LVUS152:
	.uleb128 .LVU1391
	.uleb128 .LVU1402
	.uleb128 .LVU1455
	.uleb128 .LVU1457
.LLST152:
	.byte	0x8
	.quad	.LVL226
	.uleb128 .LVL230-.LVL226
	.uleb128 0x6
	.byte	0xa0
	.long	.Ldebug_info0+52897
	.sleb128 0
	.byte	0x8
	.quad	.LVL251
	.uleb128 .LVL252-.LVL251
	.uleb128 0x6
	.byte	0xa0
	.long	.Ldebug_info0+52897
	.sleb128 0
	.byte	0
.LVUS153:
	.uleb128 .LVU1391
	.uleb128 .LVU1402
	.uleb128 .LVU1455
	.uleb128 .LVU1457
.LLST153:
	.byte	0x8
	.quad	.LVL226
	.uleb128 .LVL230-.LVL226
	.uleb128 0x2
	.byte	0x31
	.byte	0x9f
	.byte	0x8
	.quad	.LVL251
	.uleb128 .LVL252-.LVL251
	.uleb128 0x2
	.byte	0x31
	.byte	0x9f
	.byte	0
.LVUS154:
	.uleb128 .LVU1391
	.uleb128 .LVU1402
	.uleb128 .LVU1455
	.uleb128 .LVU1457
.LLST154:
	.byte	0x8
	.quad	.LVL226
	.uleb128 .LVL230-.LVL226
	.uleb128 0xa
	.byte	0x3
	.quad	.LC2
	.byte	0x9f
	.byte	0x8
	.quad	.LVL251
	.uleb128 .LVL252-.LVL251
	.uleb128 0xa
	.byte	0x3
	.quad	.LC2
	.byte	0x9f
	.byte	0
.LVUS155:
	.uleb128 .LVU1392
	.uleb128 .LVU1396
.LLST155:
	.byte	0x8
	.quad	.LVL226
	.uleb128 .LVL229-.LVL226
	.uleb128 0x6
	.byte	0xa0
	.long	.Ldebug_info0+52897
	.sleb128 0
	.byte	0
.LVUS156:
	.uleb128 .LVU1394
	.uleb128 .LVU1395
	.uleb128 .LVU1395
	.uleb128 .LVU1396
.LLST156:
	.byte	0x6
	.quad	.LVL227
	.byte	0x4
	.uleb128 .LVL227-.LVL227
	.uleb128 .LVL228-.LVL227
	.uleb128 0x6
	.byte	0x70
	.sleb128 0
	.byte	0x8
	.byte	0x30
	.byte	0x1b
	.byte	0x9f
	.byte	0x4
	.uleb128 .LVL228-.LVL227
	.uleb128 .LVL229-.LVL227
	.uleb128 0x8
	.byte	0x77
	.sleb128 232
	.byte	0x6
	.byte	0x8
	.byte	0x30
	.byte	0x1b
	.byte	0x9f
	.byte	0
.LVUS158:
	.uleb128 .LVU1401
	.uleb128 .LVU1402
.LLST158:
	.byte	0x8
	.quad	.LVL230
	.uleb128 .LVL230-.LVL230
	.uleb128 0x6
	.byte	0xa0
	.long	.Ldebug_info0+53807
	.sleb128 0
	.byte	0
.LVUS160:
	.uleb128 .LVU1402
	.uleb128 .LVU1412
	.uleb128 .LVU1449
	.uleb128 .LVU1450
.LLST160:
	.byte	0x6
	.quad	.LVL230
	.byte	0x4
	.uleb128 .LVL230-.LVL230
	.uleb128 .LVL232-.LVL230
	.uleb128 0x6
	.byte	0xa0
	.long	.Ldebug_info0+52897
	.sleb128 0
	.byte	0x4
	.uleb128 .LVL246-.LVL230
	.uleb128 .LVL247-.LVL230
	.uleb128 0x6
	.byte	0xa0
	.long	.Ldebug_info0+52897
	.sleb128 0
	.byte	0
.LVUS162:
	.uleb128 .LVU1404
	.uleb128 .LVU1412
	.uleb128 .LVU1449
	.uleb128 .LVU1450
.LLST162:
	.byte	0x6
	.quad	.LVL230
	.byte	0x4
	.uleb128 .LVL230-.LVL230
	.uleb128 .LVL232-.LVL230
	.uleb128 0x6
	.byte	0xa0
	.long	.Ldebug_info0+52897
	.sleb128 0
	.byte	0x4
	.uleb128 .LVL246-.LVL230
	.uleb128 .LVL247-.LVL230
	.uleb128 0x6
	.byte	0xa0
	.long	.Ldebug_info0+52897
	.sleb128 0
	.byte	0
.LVUS164:
	.uleb128 .LVU1406
	.uleb128 .LVU1412
	.uleb128 .LVU1449
	.uleb128 .LVU1450
.LLST164:
	.byte	0x6
	.quad	.LVL230
	.byte	0x4
	.uleb128 .LVL230-.LVL230
	.uleb128 .LVL232-.LVL230
	.uleb128 0x2
	.byte	0x30
	.byte	0x9f
	.byte	0x4
	.uleb128 .LVL246-.LVL230
	.uleb128 .LVL247-.LVL230
	.uleb128 0x2
	.byte	0x30
	.byte	0x9f
	.byte	0
.LVUS165:
	.uleb128 .LVU1406
	.uleb128 .LVU1412
	.uleb128 .LVU1449
	.uleb128 .LVU1450
.LLST165:
	.byte	0x6
	.quad	.LVL230
	.byte	0x4
	.uleb128 .LVL230-.LVL230
	.uleb128 .LVL232-.LVL230
	.uleb128 0x6
	.byte	0xa0
	.long	.Ldebug_info0+52897
	.sleb128 0
	.byte	0x4
	.uleb128 .LVL246-.LVL230
	.uleb128 .LVL247-.LVL230
	.uleb128 0x6
	.byte	0xa0
	.long	.Ldebug_info0+52897
	.sleb128 0
	.byte	0
.LVUS168:
	.uleb128 .LVU1414
	.uleb128 .LVU1419
.LLST168:
	.byte	0x8
	.quad	.LVL232
	.uleb128 .LVL233-.LVL232
	.uleb128 0x6
	.byte	0xa0
	.long	.Ldebug_info0+52897
	.sleb128 0
	.byte	0
.LVUS169:
	.uleb128 .LVU1414
	.uleb128 .LVU1419
.LLST169:
	.byte	0x8
	.quad	.LVL232
	.uleb128 .LVL233-.LVL232
	.uleb128 0x6
	.byte	0x70
	.sleb128 0
	.byte	0x71
	.sleb128 0
	.byte	0x22
	.byte	0x9f
	.byte	0
.LVUS170:
	.uleb128 .LVU1414
	.uleb128 .LVU1419
.LLST170:
	.byte	0x8
	.quad	.LVL232
	.uleb128 .LVL233-.LVL232
	.uleb128 0x6
	.byte	0xa0
	.long	.Ldebug_info0+53063
	.sleb128 0
	.byte	0
.LVUS171:
	.uleb128 .LVU1416
	.uleb128 .LVU1419
.LLST171:
	.byte	0x8
	.quad	.LVL232
	.uleb128 .LVL233-.LVL232
	.uleb128 0x6
	.byte	0xa0
	.long	.Ldebug_info0+52897
	.sleb128 0
	.byte	0
.LVUS172:
	.uleb128 .LVU1416
	.uleb128 .LVU1419
.LLST172:
	.byte	0x8
	.quad	.LVL232
	.uleb128 .LVL233-.LVL232
	.uleb128 0x6
	.byte	0x70
	.sleb128 0
	.byte	0x71
	.sleb128 0
	.byte	0x22
	.byte	0x9f
	.byte	0
.LVUS173:
	.uleb128 .LVU1416
	.uleb128 .LVU1419
.LLST173:
	.byte	0x8
	.quad	.LVL232
	.uleb128 .LVL233-.LVL232
	.uleb128 0x6
	.byte	0xa0
	.long	.Ldebug_info0+53063
	.sleb128 0
	.byte	0
.LVUS174:
	.uleb128 .LVU1412
	.uleb128 .LVU1414
.LLST174:
	.byte	0x8
	.quad	.LVL232
	.uleb128 .LVL232-.LVL232
	.uleb128 0x6
	.byte	0xa0
	.long	.Ldebug_info0+54154
	.sleb128 0
	.byte	0
.LVUS175:
	.uleb128 .LVU1412
	.uleb128 .LVU1414
.LLST175:
	.byte	0x8
	.quad	.LVL232
	.uleb128 .LVL232-.LVL232
	.uleb128 0x1
	.byte	0x50
	.byte	0
.LVUS176:
	.uleb128 .LVU1412
	.uleb128 .LVU1414
.LLST176:
	.byte	0x8
	.quad	.LVL232
	.uleb128 .LVL232-.LVL232
	.uleb128 0x6
	.byte	0xa0
	.long	.Ldebug_info0+52897
	.sleb128 0
	.byte	0
.LVUS178:
	.uleb128 .LVU1419
	.uleb128 .LVU1426
.LLST178:
	.byte	0x8
	.quad	.LVL233
	.uleb128 .LVL234-.LVL233
	.uleb128 0x1
	.byte	0x5c
	.byte	0
.LVUS179:
	.uleb128 .LVU1419
	.uleb128 .LVU1426
	.uleb128 .LVU1426
	.uleb128 .LVU1426
.LLST179:
	.byte	0x6
	.quad	.LVL233
	.byte	0x4
	.uleb128 .LVL233-.LVL233
	.uleb128 .LVL234-1-.LVL233
	.uleb128 0x1
	.byte	0x50
	.byte	0x4
	.uleb128 .LVL234-1-.LVL233
	.uleb128 .LVL234-.LVL233
	.uleb128 0x3
	.byte	0x77
	.sleb128 216
	.byte	0
.LVUS180:
	.uleb128 .LVU1419
	.uleb128 .LVU1426
.LLST180:
	.byte	0x8
	.quad	.LVL233
	.uleb128 .LVL234-.LVL233
	.uleb128 0x6
	.byte	0xa0
	.long	.Ldebug_info0+52897
	.sleb128 0
	.byte	0
.LVUS181:
	.uleb128 .LVU1421
	.uleb128 .LVU1426
.LLST181:
	.byte	0x8
	.quad	.LVL233
	.uleb128 .LVL234-.LVL233
	.uleb128 0x1
	.byte	0x5c
	.byte	0
.LVUS182:
	.uleb128 .LVU1421
	.uleb128 .LVU1426
	.uleb128 .LVU1426
	.uleb128 .LVU1426
.LLST182:
	.byte	0x6
	.quad	.LVL233
	.byte	0x4
	.uleb128 .LVL233-.LVL233
	.uleb128 .LVL234-1-.LVL233
	.uleb128 0x1
	.byte	0x50
	.byte	0x4
	.uleb128 .LVL234-1-.LVL233
	.uleb128 .LVL234-.LVL233
	.uleb128 0x3
	.byte	0x77
	.sleb128 216
	.byte	0
.LVUS183:
	.uleb128 .LVU1421
	.uleb128 .LVU1426
.LLST183:
	.byte	0x8
	.quad	.LVL233
	.uleb128 .LVL234-.LVL233
	.uleb128 0x6
	.byte	0xa0
	.long	.Ldebug_info0+52897
	.sleb128 0
	.byte	0
.LVUS184:
	.uleb128 .LVU1422
	.uleb128 .LVU1426
	.uleb128 .LVU1426
	.uleb128 .LVU1443
.LLST184:
	.byte	0x6
	.quad	.LVL233
	.byte	0x4
	.uleb128 .LVL233-.LVL233
	.uleb128 .LVL234-1-.LVL233
	.uleb128 0x6
	.byte	0x71
	.sleb128 0
	.byte	0x8
	.byte	0x30
	.byte	0x1b
	.byte	0x9f
	.byte	0x4
	.uleb128 .LVL234-1-.LVL233
	.uleb128 .LVL241-.LVL233
	.uleb128 0x8
	.byte	0x77
	.sleb128 232
	.byte	0x6
	.byte	0x8
	.byte	0x30
	.byte	0x1b
	.byte	0x9f
	.byte	0
.LVUS186:
	.uleb128 .LVU1429
	.uleb128 .LVU1439
.LLST186:
	.byte	0x8
	.quad	.LVL236
	.uleb128 .LVL238-.LVL236
	.uleb128 0x6
	.byte	0xa0
	.long	.Ldebug_info0+54154
	.sleb128 0
	.byte	0
.LVUS188:
	.uleb128 .LVU1431
	.uleb128 .LVU1439
.LLST188:
	.byte	0x8
	.quad	.LVL237
	.uleb128 .LVL238-.LVL237
	.uleb128 0x1
	.byte	0x5c
	.byte	0
.LVUS190:
	.uleb128 .LVU1432
	.uleb128 .LVU1439
.LLST190:
	.byte	0x8
	.quad	.LVL237
	.uleb128 .LVL238-.LVL237
	.uleb128 0x1
	.byte	0x5c
	.byte	0
.LVUS192:
	.uleb128 .LVU1433
	.uleb128 .LVU1439
.LLST192:
	.byte	0x8
	.quad	.LVL237
	.uleb128 .LVL238-.LVL237
	.uleb128 0x1
	.byte	0x5c
	.byte	0
.LVUS194:
	.uleb128 .LVU1434
	.uleb128 .LVU1439
.LLST194:
	.byte	0x8
	.quad	.LVL237
	.uleb128 .LVL238-.LVL237
	.uleb128 0x1
	.byte	0x5c
	.byte	0
.LVUS116:
	.uleb128 .LVU71
	.uleb128 .LVU73
	.uleb128 .LVU1375
	.uleb128 .LVU1377
.LLST116:
	.byte	0x8
	.quad	.LVL12
	.uleb128 .LVL12-.LVL12
	.uleb128 0x1
	.byte	0x5c
	.byte	0x8
	.quad	.LVL223
	.uleb128 .LVL223-.LVL223
	.uleb128 0x1
	.byte	0x54
	.byte	0
.LVUS117:
	.uleb128 .LVU72
	.uleb128 .LVU73
	.uleb128 .LVU1376
	.uleb128 .LVU1377
.LLST117:
	.byte	0x8
	.quad	.LVL12
	.uleb128 .LVL12-.LVL12
	.uleb128 0x1
	.byte	0x5c
	.byte	0x8
	.quad	.LVL223
	.uleb128 .LVL223-.LVL223
	.uleb128 0x1
	.byte	0x54
	.byte	0
.LVUS119:
	.uleb128 .LVU73
	.uleb128 .LVU76
	.uleb128 .LVU1377
	.uleb128 .LVU1380
.LLST119:
	.byte	0x8
	.quad	.LVL12
	.uleb128 .LVL12-.LVL12
	.uleb128 0x1
	.byte	0x5c
	.byte	0x8
	.quad	.LVL223
	.uleb128 .LVL223-.LVL223
	.uleb128 0x1
	.byte	0x54
	.byte	0
.LVUS120:
	.uleb128 .LVU75
	.uleb128 .LVU76
	.uleb128 .LVU1379
	.uleb128 .LVU1380
.LLST120:
	.byte	0x8
	.quad	.LVL12
	.uleb128 .LVL12-.LVL12
	.uleb128 0x3
	.byte	0x7c
	.sleb128 8
	.byte	0x9f
	.byte	0x8
	.quad	.LVL223
	.uleb128 .LVL223-.LVL223
	.uleb128 0x3
	.byte	0x74
	.sleb128 8
	.byte	0x9f
	.byte	0
.LVUS195:
	.uleb128 .LVU157
	.uleb128 .LVU159
.LLST195:
	.byte	0x8
	.quad	.LVL35
	.uleb128 .LVL36-.LVL35
	.uleb128 0x6
	.byte	0xa0
	.long	.Ldebug_info0+53036
	.sleb128 0
	.byte	0
.LVUS295:
	.uleb128 .LVU271
	.uleb128 .LVU275
	.uleb128 .LVU275
	.uleb128 .LVU308
.LLST295:
	.byte	0x6
	.quad	.LVL53
	.byte	0x4
	.uleb128 .LVL53-.LVL53
	.uleb128 .LVL54-.LVL53
	.uleb128 0x1
	.byte	0x50
	.byte	0x4
	.uleb128 .LVL54-.LVL53
	.uleb128 .LVL60-.LVL53
	.uleb128 0x3
	.byte	0x70
	.sleb128 -48
	.byte	0x9f
	.byte	0
.LVUS296:
	.uleb128 .LVU263
	.uleb128 .LVU1290
	.uleb128 .LVU1365
	.uleb128 .LVU1371
	.uleb128 .LVU1445
	.uleb128 .LVU1447
	.uleb128 .LVU1459
	.uleb128 .LVU1474
	.uleb128 .LVU1533
	.uleb128 .LVU1538
.LLST296:
	.byte	0x6
	.quad	.LVL52
	.byte	0x4
	.uleb128 .LVL52-.LVL52
	.uleb128 .LVL206-.LVL52
	.uleb128 0x6
	.byte	0xa0
	.long	.Ldebug_info0+52897
	.sleb128 0
	.byte	0x4
	.uleb128 .LVL219-.LVL52
	.uleb128 .LVL222-.LVL52
	.uleb128 0x6
	.byte	0xa0
	.long	.Ldebug_info0+52897
	.sleb128 0
	.byte	0x4
	.uleb128 .LVL242-.LVL52
	.uleb128 .LVL243-.LVL52
	.uleb128 0x6
	.byte	0xa0
	.long	.Ldebug_info0+52897
	.sleb128 0
	.byte	0x6
	.quad	.LVL253
	.byte	0x4
	.uleb128 .LVL253-.LVL253
	.uleb128 .LVL256-.LVL253
	.uleb128 0x6
	.byte	0xa0
	.long	.Ldebug_info0+52897
	.sleb128 0
	.byte	0x4
	.uleb128 .LVL267-.LVL253
	.uleb128 .LVL270-.LVL253
	.uleb128 0x6
	.byte	0xa0
	.long	.Ldebug_info0+52897
	.sleb128 0
	.byte	0
.LVUS297:
	.uleb128 .LVU263
	.uleb128 .LVU265
.LLST297:
	.byte	0x8
	.quad	.LVL52
	.uleb128 .LVL52-.LVL52
	.uleb128 0x6
	.byte	0xa0
	.long	.Ldebug_info0+52897
	.sleb128 0
	.byte	0
.LVUS298:
	.uleb128 .LVU264
	.uleb128 .LVU265
.LLST298:
	.byte	0x8
	.quad	.LVL52
	.uleb128 .LVL52-.LVL52
	.uleb128 0x6
	.byte	0xa0
	.long	.Ldebug_info0+52897
	.sleb128 0
	.byte	0
.LVUS299:
	.uleb128 .LVU265
	.uleb128 .LVU268
.LLST299:
	.byte	0x8
	.quad	.LVL52
	.uleb128 .LVL52-.LVL52
	.uleb128 0x6
	.byte	0xa0
	.long	.Ldebug_info0+52897
	.sleb128 0
	.byte	0
.LVUS300:
	.uleb128 .LVU267
	.uleb128 .LVU268
.LLST300:
	.byte	0x8
	.quad	.LVL52
	.uleb128 .LVL52-.LVL52
	.uleb128 0x6
	.byte	0xa0
	.long	.Ldebug_info0+52897
	.sleb128 8
	.byte	0
.LVUS302:
	.uleb128 .LVU304
	.uleb128 .LVU305
.LLST302:
	.byte	0x8
	.quad	.LVL59
	.uleb128 .LVL59-.LVL59
	.uleb128 0x6
	.byte	0xa0
	.long	.Ldebug_info0+55097
	.sleb128 0
	.byte	0
.LVUS303:
	.uleb128 .LVU278
	.uleb128 .LVU280
.LLST303:
	.byte	0x8
	.quad	.LVL55
	.uleb128 .LVL55-.LVL55
	.uleb128 0x6
	.byte	0x71
	.sleb128 0
	.byte	0x74
	.sleb128 0
	.byte	0x22
	.byte	0x9f
	.byte	0
.LVUS304:
	.uleb128 .LVU286
	.uleb128 .LVU288
.LLST304:
	.byte	0x8
	.quad	.LVL56
	.uleb128 .LVL56-.LVL56
	.uleb128 0x6
	.byte	0x71
	.sleb128 0
	.byte	0x72
	.sleb128 0
	.byte	0x22
	.byte	0x9f
	.byte	0
.LVUS305:
	.uleb128 .LVU292
	.uleb128 .LVU294
.LLST305:
	.byte	0x8
	.quad	.LVL57
	.uleb128 .LVL57-.LVL57
	.uleb128 0x6
	.byte	0x74
	.sleb128 0
	.byte	0x75
	.sleb128 0
	.byte	0x22
	.byte	0x9f
	.byte	0
.LVUS306:
	.uleb128 .LVU298
	.uleb128 .LVU300
.LLST306:
	.byte	0x8
	.quad	.LVL58
	.uleb128 .LVL58-.LVL58
	.uleb128 0x6
	.byte	0x72
	.sleb128 0
	.byte	0x75
	.sleb128 0
	.byte	0x22
	.byte	0x9f
	.byte	0
.LVUS307:
	.uleb128 .LVU308
	.uleb128 .LVU322
	.uleb128 .LVU322
	.uleb128 .LVU326
	.uleb128 .LVU326
	.uleb128 .LVU329
	.uleb128 .LVU329
	.uleb128 .LVU342
	.uleb128 .LVU342
	.uleb128 .LVU343
.LLST307:
	.byte	0x6
	.quad	.LVL60
	.byte	0x4
	.uleb128 .LVL60-.LVL60
	.uleb128 .LVL66-.LVL60
	.uleb128 0x2
	.byte	0x30
	.byte	0x9f
	.byte	0x4
	.uleb128 .LVL66-.LVL60
	.uleb128 .LVL68-.LVL60
	.uleb128 0x2
	.byte	0x31
	.byte	0x9f
	.byte	0x4
	.uleb128 .LVL68-.LVL60
	.uleb128 .LVL69-.LVL60
	.uleb128 0x1
	.byte	0x51
	.byte	0x4
	.uleb128 .LVL69-.LVL60
	.uleb128 .LVL72-.LVL60
	.uleb128 0x3
	.byte	0x77
	.sleb128 232
	.byte	0x4
	.uleb128 .LVL72-.LVL60
	.uleb128 .LVL73-.LVL60
	.uleb128 0x1
	.byte	0x51
	.byte	0
.LVUS309:
	.uleb128 .LVU310
	.uleb128 .LVU313
	.uleb128 .LVU313
	.uleb128 .LVU325
	.uleb128 .LVU326
	.uleb128 .LVU329
	.uleb128 .LVU329
	.uleb128 .LVU343
.LLST309:
	.byte	0x6
	.quad	.LVL61
	.byte	0x4
	.uleb128 .LVL61-.LVL61
	.uleb128 .LVL62-.LVL61
	.uleb128 0x2
	.byte	0x30
	.byte	0x9f
	.byte	0x4
	.uleb128 .LVL62-.LVL61
	.uleb128 .LVL67-.LVL61
	.uleb128 0x1
	.byte	0x54
	.byte	0x4
	.uleb128 .LVL68-.LVL61
	.uleb128 .LVL69-.LVL61
	.uleb128 0x2
	.byte	0x30
	.byte	0x9f
	.byte	0x4
	.uleb128 .LVL69-.LVL61
	.uleb128 .LVL73-.LVL61
	.uleb128 0x1
	.byte	0x55
	.byte	0
.LVUS311:
	.uleb128 .LVU310
	.uleb128 .LVU313
	.uleb128 .LVU313
	.uleb128 .LVU319
	.uleb128 .LVU319
	.uleb128 .LVU320
	.uleb128 .LVU326
	.uleb128 .LVU329
	.uleb128 .LVU329
	.uleb128 .LVU334
	.uleb128 .LVU334
	.uleb128 .LVU337
.LLST311:
	.byte	0x6
	.quad	.LVL61
	.byte	0x4
	.uleb128 .LVL61-.LVL61
	.uleb128 .LVL62-.LVL61
	.uleb128 0x2
	.byte	0x30
	.byte	0x9f
	.byte	0x4
	.uleb128 .LVL62-.LVL61
	.uleb128 .LVL64-.LVL61
	.uleb128 0x1
	.byte	0x50
	.byte	0x4
	.uleb128 .LVL64-.LVL61
	.uleb128 .LVL65-.LVL61
	.uleb128 0x3
	.byte	0x70
	.sleb128 1
	.byte	0x9f
	.byte	0x4
	.uleb128 .LVL68-.LVL61
	.uleb128 .LVL69-.LVL61
	.uleb128 0x2
	.byte	0x30
	.byte	0x9f
	.byte	0x4
	.uleb128 .LVL69-.LVL61
	.uleb128 .LVL70-.LVL61
	.uleb128 0x1
	.byte	0x50
	.byte	0x4
	.uleb128 .LVL70-.LVL61
	.uleb128 .LVL71-.LVL61
	.uleb128 0x3
	.byte	0x70
	.sleb128 1
	.byte	0x9f
	.byte	0
.LVUS362:
	.uleb128 .LVU389
	.uleb128 .LVU397
	.uleb128 .LVU397
	.uleb128 .LVU400
	.uleb128 .LVU400
	.uleb128 .LVU413
	.uleb128 .LVU413
	.uleb128 .LVU1219
	.uleb128 .LVU1219
	.uleb128 .LVU1220
	.uleb128 .LVU1220
	.uleb128 .LVU1221
	.uleb128 .LVU1365
	.uleb128 .LVU1371
.LLST362:
	.byte	0x6
	.quad	.LVL77
	.byte	0x4
	.uleb128 .LVL77-.LVL77
	.uleb128 .LVL78-.LVL77
	.uleb128 0x2
	.byte	0x30
	.byte	0x9f
	.byte	0x4
	.uleb128 .LVL78-.LVL77
	.uleb128 .LVL79-.LVL77
	.uleb128 0x1
	.byte	0x53
	.byte	0x4
	.uleb128 .LVL79-.LVL77
	.uleb128 .LVL80-.LVL77
	.uleb128 0x1
	.byte	0x5f
	.byte	0x4
	.uleb128 .LVL80-.LVL77
	.uleb128 .LVL194-.LVL77
	.uleb128 0x7
	.byte	0x77
	.sleb128 16
	.byte	0x94
	.byte	0x4
	.byte	0x38
	.byte	0x1c
	.byte	0x9f
	.byte	0x4
	.uleb128 .LVL194-.LVL77
	.uleb128 .LVL195-.LVL77
	.uleb128 0x1
	.byte	0x53
	.byte	0x4
	.uleb128 .LVL195-.LVL77
	.uleb128 .LVL196-.LVL77
	.uleb128 0x2
	.byte	0x77
	.sleb128 16
	.byte	0x4
	.uleb128 .LVL219-.LVL77
	.uleb128 .LVL222-.LVL77
	.uleb128 0x7
	.byte	0x77
	.sleb128 16
	.byte	0x94
	.byte	0x4
	.byte	0x38
	.byte	0x1c
	.byte	0x9f
	.byte	0
.LVUS365:
	.uleb128 .LVU404
	.uleb128 .LVU413
	.uleb128 .LVU415
	.uleb128 .LVU419
	.uleb128 .LVU419
	.uleb128 .LVU449
	.uleb128 .LVU449
	.uleb128 .LVU1215
	.uleb128 .LVU1215
	.uleb128 .LVU1217
	.uleb128 .LVU1365
	.uleb128 .LVU1371
.LLST365:
	.byte	0x6
	.quad	.LVL79
	.byte	0x4
	.uleb128 .LVL79-.LVL79
	.uleb128 .LVL80-.LVL79
	.uleb128 0x2
	.byte	0x30
	.byte	0x9f
	.byte	0x4
	.uleb128 .LVL81-.LVL79
	.uleb128 .LVL82-.LVL79
	.uleb128 0x1
	.byte	0x50
	.byte	0x4
	.uleb128 .LVL82-.LVL79
	.uleb128 .LVL88-.LVL79
	.uleb128 0x1
	.byte	0x53
	.byte	0x4
	.uleb128 .LVL88-.LVL79
	.uleb128 .LVL192-.LVL79
	.uleb128 0x3
	.byte	0x77
	.sleb128 136
	.byte	0x4
	.uleb128 .LVL192-.LVL79
	.uleb128 .LVL193-.LVL79
	.uleb128 0x9
	.byte	0x77
	.sleb128 136
	.byte	0x94
	.byte	0x4
	.byte	0x23
	.uleb128 0x100
	.byte	0x9f
	.byte	0x4
	.uleb128 .LVL219-.LVL79
	.uleb128 .LVL222-.LVL79
	.uleb128 0x3
	.byte	0x77
	.sleb128 136
	.byte	0
.LVUS367:
	.uleb128 .LVU426
	.uleb128 .LVU449
	.uleb128 .LVU449
	.uleb128 .LVU1217
	.uleb128 .LVU1365
	.uleb128 .LVU1371
.LLST367:
	.byte	0x6
	.quad	.LVL84
	.byte	0x4
	.uleb128 .LVL84-.LVL84
	.uleb128 .LVL88-.LVL84
	.uleb128 0x6
	.byte	0x7c
	.sleb128 0
	.byte	0x73
	.sleb128 0
	.byte	0x1c
	.byte	0x9f
	.byte	0x4
	.uleb128 .LVL88-.LVL84
	.uleb128 .LVL193-.LVL84
	.uleb128 0x2d
	.byte	0x77
	.sleb128 136
	.byte	0x94
	.byte	0x4
	.byte	0x23
	.uleb128 0x100
	.byte	0x77
	.sleb128 76
	.byte	0x94
	.byte	0x4
	.byte	0x77
	.sleb128 136
	.byte	0x94
	.byte	0x4
	.byte	0x23
	.uleb128 0x100
	.byte	0x8
	.byte	0x20
	.byte	0x24
	.byte	0x77
	.sleb128 76
	.byte	0x94
	.byte	0x4
	.byte	0x8
	.byte	0x20
	.byte	0x24
	.byte	0x2c
	.byte	0x28
	.value	0x1
	.byte	0x16
	.byte	0x13
	.byte	0x77
	.sleb128 136
	.byte	0x94
	.byte	0x4
	.byte	0x1c
	.byte	0x9f
	.byte	0x4
	.uleb128 .LVL219-.LVL84
	.uleb128 .LVL222-.LVL84
	.uleb128 0x2d
	.byte	0x77
	.sleb128 136
	.byte	0x94
	.byte	0x4
	.byte	0x23
	.uleb128 0x100
	.byte	0x77
	.sleb128 76
	.byte	0x94
	.byte	0x4
	.byte	0x77
	.sleb128 136
	.byte	0x94
	.byte	0x4
	.byte	0x23
	.uleb128 0x100
	.byte	0x8
	.byte	0x20
	.byte	0x24
	.byte	0x77
	.sleb128 76
	.byte	0x94
	.byte	0x4
	.byte	0x8
	.byte	0x20
	.byte	0x24
	.byte	0x2c
	.byte	0x28
	.value	0x1
	.byte	0x16
	.byte	0x13
	.byte	0x77
	.sleb128 136
	.byte	0x94
	.byte	0x4
	.byte	0x1c
	.byte	0x9f
	.byte	0
.LVUS369:
	.uleb128 .LVU449
	.uleb128 .LVU515
	.uleb128 .LVU515
	.uleb128 .LVU1148
	.uleb128 .LVU1365
	.uleb128 .LVU1371
.LLST369:
	.byte	0x6
	.quad	.LVL88
	.byte	0x4
	.uleb128 .LVL88-.LVL88
	.uleb128 .LVL99-.LVL88
	.uleb128 0x1
	.byte	0x5f
	.byte	0x4
	.uleb128 .LVL99-.LVL88
	.uleb128 .LVL167-.LVL88
	.uleb128 0x3
	.byte	0x77
	.sleb128 224
	.byte	0x4
	.uleb128 .LVL219-.LVL88
	.uleb128 .LVL222-.LVL88
	.uleb128 0x3
	.byte	0x77
	.sleb128 224
	.byte	0
.LVUS371:
	.uleb128 .LVU496
	.uleb128 .LVU1148
	.uleb128 .LVU1365
	.uleb128 .LVU1371
.LLST371:
	.byte	0x6
	.quad	.LVL94
	.byte	0x4
	.uleb128 .LVL94-.LVL94
	.uleb128 .LVL167-.LVL94
	.uleb128 0x1
	.byte	0x64
	.byte	0x4
	.uleb128 .LVL219-.LVL94
	.uleb128 .LVL222-.LVL94
	.uleb128 0x1
	.byte	0x64
	.byte	0
.LVUS372:
	.uleb128 .LVU501
	.uleb128 .LVU1148
	.uleb128 .LVU1365
	.uleb128 .LVU1371
.LLST372:
	.byte	0x6
	.quad	.LVL95
	.byte	0x4
	.uleb128 .LVL95-.LVL95
	.uleb128 .LVL167-.LVL95
	.uleb128 0x1
	.byte	0x63
	.byte	0x4
	.uleb128 .LVL219-.LVL95
	.uleb128 .LVL222-.LVL95
	.uleb128 0x1
	.byte	0x63
	.byte	0
.LVUS373:
	.uleb128 .LVU506
	.uleb128 .LVU1148
	.uleb128 .LVU1365
	.uleb128 .LVU1371
.LLST373:
	.byte	0x6
	.quad	.LVL96
	.byte	0x4
	.uleb128 .LVL96-.LVL96
	.uleb128 .LVL167-.LVL96
	.uleb128 0x1
	.byte	0x62
	.byte	0x4
	.uleb128 .LVL219-.LVL96
	.uleb128 .LVL222-.LVL96
	.uleb128 0x1
	.byte	0x62
	.byte	0
.LVUS374:
	.uleb128 .LVU511
	.uleb128 .LVU1148
	.uleb128 .LVU1365
	.uleb128 .LVU1371
.LLST374:
	.byte	0x6
	.quad	.LVL97
	.byte	0x4
	.uleb128 .LVL97-.LVL97
	.uleb128 .LVL167-.LVL97
	.uleb128 0x1
	.byte	0x61
	.byte	0x4
	.uleb128 .LVL219-.LVL97
	.uleb128 .LVL222-.LVL97
	.uleb128 0x1
	.byte	0x61
	.byte	0
.LVUS376:
	.uleb128 .LVU513
	.uleb128 .LVU514
	.uleb128 .LVU514
	.uleb128 .LVU515
	.uleb128 .LVU515
	.uleb128 .LVU1144
	.uleb128 .LVU1147
	.uleb128 .LVU1148
	.uleb128 .LVU1365
	.uleb128 .LVU1371
.LLST376:
	.byte	0x6
	.quad	.LVL97
	.byte	0x4
	.uleb128 .LVL97-.LVL97
	.uleb128 .LVL98-.LVL97
	.uleb128 0x1
	.byte	0x55
	.byte	0x4
	.uleb128 .LVL98-.LVL97
	.uleb128 .LVL99-.LVL97
	.uleb128 0x1
	.byte	0x5e
	.byte	0x4
	.uleb128 .LVL99-.LVL97
	.uleb128 .LVL164-.LVL97
	.uleb128 0x3
	.byte	0x77
	.sleb128 240
	.byte	0x4
	.uleb128 .LVL166-.LVL97
	.uleb128 .LVL167-.LVL97
	.uleb128 0x1
	.byte	0x50
	.byte	0x4
	.uleb128 .LVL219-.LVL97
	.uleb128 .LVL222-.LVL97
	.uleb128 0x3
	.byte	0x77
	.sleb128 240
	.byte	0
.LVUS378:
	.uleb128 .LVU516
	.uleb128 .LVU521
	.uleb128 .LVU521
	.uleb128 .LVU531
	.uleb128 .LVU1365
	.uleb128 .LVU1368
.LLST378:
	.byte	0x6
	.quad	.LVL99
	.byte	0x4
	.uleb128 .LVL99-.LVL99
	.uleb128 .LVL100-.LVL99
	.uleb128 0x1
	.byte	0x55
	.byte	0x4
	.uleb128 .LVL100-.LVL99
	.uleb128 .LVL104-.LVL99
	.uleb128 0x1
	.byte	0x51
	.byte	0x4
	.uleb128 .LVL219-.LVL99
	.uleb128 .LVL220-.LVL99
	.uleb128 0x1
	.byte	0x51
	.byte	0
.LVUS379:
	.uleb128 .LVU521
	.uleb128 .LVU531
	.uleb128 .LVU531
	.uleb128 .LVU603
	.uleb128 .LVU603
	.uleb128 .LVU721
	.uleb128 .LVU1365
	.uleb128 .LVU1368
.LLST379:
	.byte	0x6
	.quad	.LVL100
	.byte	0x4
	.uleb128 .LVL100-.LVL100
	.uleb128 .LVL104-.LVL100
	.uleb128 0x1
	.byte	0x55
	.byte	0x4
	.uleb128 .LVL104-.LVL100
	.uleb128 .LVL107-.LVL100
	.uleb128 0xb
	.byte	0x74
	.sleb128 0
	.byte	0x77
	.sleb128 224
	.byte	0x6
	.byte	0x23
	.uleb128 0x28
	.byte	0x6
	.byte	0x1c
	.byte	0x9f
	.byte	0x4
	.uleb128 .LVL107-.LVL100
	.uleb128 .LVL120-.LVL100
	.uleb128 0xd
	.byte	0x74
	.sleb128 0
	.byte	0x77
	.sleb128 224
	.byte	0x6
	.byte	0x23
	.uleb128 0x28
	.byte	0x6
	.byte	0x1c
	.byte	0x40
	.byte	0x1c
	.byte	0x9f
	.byte	0x4
	.uleb128 .LVL219-.LVL100
	.uleb128 .LVL220-.LVL100
	.uleb128 0x1
	.byte	0x55
	.byte	0
.LVUS380:
	.uleb128 .LVU523
	.uleb128 .LVU531
	.uleb128 .LVU1365
	.uleb128 .LVU1368
.LLST380:
	.byte	0x6
	.quad	.LVL101
	.byte	0x4
	.uleb128 .LVL101-.LVL101
	.uleb128 .LVL104-.LVL101
	.uleb128 0x1
	.byte	0x52
	.byte	0x4
	.uleb128 .LVL219-.LVL101
	.uleb128 .LVL220-.LVL101
	.uleb128 0x1
	.byte	0x52
	.byte	0
.LVUS381:
	.uleb128 .LVU531
	.uleb128 .LVU603
	.uleb128 .LVU603
	.uleb128 .LVU721
.LLST381:
	.byte	0x6
	.quad	.LVL104
	.byte	0x4
	.uleb128 .LVL104-.LVL104
	.uleb128 .LVL107-.LVL104
	.uleb128 0xd
	.byte	0x74
	.sleb128 0
	.byte	0x77
	.sleb128 224
	.byte	0x6
	.byte	0x23
	.uleb128 0x28
	.byte	0x6
	.byte	0x1c
	.byte	0x23
	.uleb128 0x3
	.byte	0x9f
	.byte	0x4
	.uleb128 .LVL107-.LVL104
	.uleb128 .LVL120-.LVL104
	.uleb128 0xd
	.byte	0x74
	.sleb128 0
	.byte	0x77
	.sleb128 224
	.byte	0x6
	.byte	0x23
	.uleb128 0x28
	.byte	0x6
	.byte	0x1c
	.byte	0x3d
	.byte	0x1c
	.byte	0x9f
	.byte	0
.LVUS382:
	.uleb128 .LVU530
	.uleb128 .LVU536
	.uleb128 .LVU536
	.uleb128 .LVU721
	.uleb128 .LVU721
	.uleb128 .LVU731
	.uleb128 .LVU731
	.uleb128 .LVU832
	.uleb128 .LVU832
	.uleb128 .LVU1147
	.uleb128 .LVU1365
	.uleb128 .LVU1371
.LLST382:
	.byte	0x6
	.quad	.LVL103
	.byte	0x4
	.uleb128 .LVL103-.LVL103
	.uleb128 .LVL105-.LVL103
	.uleb128 0x1
	.byte	0x50
	.byte	0x4
	.uleb128 .LVL105-.LVL103
	.uleb128 .LVL120-.LVL103
	.uleb128 0x3
	.byte	0x70
	.sleb128 -64
	.byte	0x9f
	.byte	0x4
	.uleb128 .LVL120-.LVL103
	.uleb128 .LVL124-.LVL103
	.uleb128 0x1
	.byte	0x50
	.byte	0x4
	.uleb128 .LVL124-.LVL103
	.uleb128 .LVL134-.LVL103
	.uleb128 0x3
	.byte	0x70
	.sleb128 -32
	.byte	0x9f
	.byte	0x4
	.uleb128 .LVL134-.LVL103
	.uleb128 .LVL166-.LVL103
	.uleb128 0x1
	.byte	0x50
	.byte	0x4
	.uleb128 .LVL219-.LVL103
	.uleb128 .LVL222-.LVL103
	.uleb128 0x1
	.byte	0x50
	.byte	0
.LVUS383:
	.uleb128 .LVU837
	.uleb128 .LVU843
.LLST383:
	.byte	0x8
	.quad	.LVL134
	.uleb128 .LVL136-.LVL134
	.uleb128 0x1
	.byte	0x58
	.byte	0
.LVUS384:
	.uleb128 .LVU840
	.uleb128 .LVU1145
	.uleb128 .LVU1368
	.uleb128 .LVU1371
.LLST384:
	.byte	0x6
	.quad	.LVL135
	.byte	0x4
	.uleb128 .LVL135-.LVL135
	.uleb128 .LVL165-.LVL135
	.uleb128 0x1
	.byte	0x53
	.byte	0x4
	.uleb128 .LVL220-.LVL135
	.uleb128 .LVL222-.LVL135
	.uleb128 0x1
	.byte	0x53
	.byte	0
.LVUS386:
	.uleb128 .LVU611
	.uleb128 .LVU626
.LLST386:
	.byte	0x8
	.quad	.LVL109
	.uleb128 .LVL110-.LVL109
	.uleb128 0x2
	.byte	0x90
	.uleb128 0x47
	.byte	0
.LVUS387:
	.uleb128 .LVU617
	.uleb128 .LVU689
.LLST387:
	.byte	0x8
	.quad	.LVL109
	.uleb128 .LVL115-.LVL109
	.uleb128 0x1
	.byte	0x69
	.byte	0
.LVUS388:
	.uleb128 .LVU628
	.uleb128 .LVU679
.LLST388:
	.byte	0x8
	.quad	.LVL111
	.uleb128 .LVL113-.LVL111
	.uleb128 0x1
	.byte	0x6f
	.byte	0
.LVUS389:
	.uleb128 .LVU634
	.uleb128 .LVU699
.LLST389:
	.byte	0x8
	.quad	.LVL111
	.uleb128 .LVL117-.LVL111
	.uleb128 0x1
	.byte	0x67
	.byte	0
.LVUS390:
	.uleb128 .LVU646
	.uleb128 .LVU694
.LLST390:
	.byte	0x8
	.quad	.LVL111
	.uleb128 .LVL116-.LVL111
	.uleb128 0x1
	.byte	0x68
	.byte	0
.LVUS391:
	.uleb128 .LVU654
	.uleb128 .LVU684
.LLST391:
	.byte	0x8
	.quad	.LVL112
	.uleb128 .LVL114-.LVL112
	.uleb128 0x1
	.byte	0x6a
	.byte	0
.LVUS392:
	.uleb128 .LVU660
	.uleb128 .LVU704
.LLST392:
	.byte	0x8
	.quad	.LVL112
	.uleb128 .LVL118-.LVL112
	.uleb128 0x1
	.byte	0x65
	.byte	0
.LVUS393:
	.uleb128 .LVU670
	.uleb128 .LVU679
	.uleb128 .LVU679
	.uleb128 .LVU689
	.uleb128 .LVU689
	.uleb128 .LVU699
	.uleb128 .LVU699
	.uleb128 .LVU724
.LLST393:
	.byte	0x6
	.quad	.LVL112
	.byte	0x4
	.uleb128 .LVL112-.LVL112
	.uleb128 .LVL113-.LVL112
	.uleb128 0x2
	.byte	0x90
	.uleb128 0x47
	.byte	0x4
	.uleb128 .LVL113-.LVL112
	.uleb128 .LVL115-.LVL112
	.uleb128 0x1
	.byte	0x6f
	.byte	0x4
	.uleb128 .LVL115-.LVL112
	.uleb128 .LVL117-.LVL112
	.uleb128 0x1
	.byte	0x69
	.byte	0x4
	.uleb128 .LVL117-.LVL112
	.uleb128 .LVL123-.LVL112
	.uleb128 0x1
	.byte	0x67
	.byte	0
.LVUS394:
	.uleb128 .LVU674
	.uleb128 .LVU684
	.uleb128 .LVU684
	.uleb128 .LVU694
	.uleb128 .LVU694
	.uleb128 .LVU704
	.uleb128 .LVU704
	.uleb128 .LVU724
.LLST394:
	.byte	0x6
	.quad	.LVL112
	.byte	0x4
	.uleb128 .LVL112-.LVL112
	.uleb128 .LVL114-.LVL112
	.uleb128 0x2
	.byte	0x90
	.uleb128 0x46
	.byte	0x4
	.uleb128 .LVL114-.LVL112
	.uleb128 .LVL116-.LVL112
	.uleb128 0x1
	.byte	0x6a
	.byte	0x4
	.uleb128 .LVL116-.LVL112
	.uleb128 .LVL118-.LVL112
	.uleb128 0x1
	.byte	0x68
	.byte	0x4
	.uleb128 .LVL118-.LVL112
	.uleb128 .LVL123-.LVL112
	.uleb128 0x1
	.byte	0x65
	.byte	0
.LVUS396:
	.uleb128 .LVU537
	.uleb128 .LVU541
.LLST396:
	.byte	0x8
	.quad	.LVL106
	.uleb128 .LVL106-.LVL106
	.uleb128 0x5
	.byte	0x78
	.sleb128 0
	.byte	0x71
	.sleb128 0
	.byte	0x22
	.byte	0
.LVUS397:
	.uleb128 .LVU539
	.uleb128 .LVU541
.LLST397:
	.byte	0x8
	.quad	.LVL106
	.uleb128 .LVL106-.LVL106
	.uleb128 0x2
	.byte	0x30
	.byte	0x9f
	.byte	0
.LVUS398:
	.uleb128 .LVU539
	.uleb128 .LVU541
.LLST398:
	.byte	0x8
	.quad	.LVL106
	.uleb128 .LVL106-.LVL106
	.uleb128 0x5
	.byte	0x78
	.sleb128 0
	.byte	0x71
	.sleb128 0
	.byte	0x22
	.byte	0
.LVUS401:
	.uleb128 .LVU543
	.uleb128 .LVU549
.LLST401:
	.byte	0x8
	.quad	.LVL106
	.uleb128 .LVL106-.LVL106
	.uleb128 0x1
	.byte	0x54
	.byte	0
.LVUS402:
	.uleb128 .LVU545
	.uleb128 .LVU549
.LLST402:
	.byte	0x8
	.quad	.LVL106
	.uleb128 .LVL106-.LVL106
	.uleb128 0x2
	.byte	0x74
	.sleb128 0
	.byte	0
.LVUS403:
	.uleb128 .LVU547
	.uleb128 .LVU549
.LLST403:
	.byte	0x8
	.quad	.LVL106
	.uleb128 .LVL106-.LVL106
	.uleb128 0x2
	.byte	0x30
	.byte	0x9f
	.byte	0
.LVUS404:
	.uleb128 .LVU547
	.uleb128 .LVU549
.LLST404:
	.byte	0x8
	.quad	.LVL106
	.uleb128 .LVL106-.LVL106
	.uleb128 0x2
	.byte	0x74
	.sleb128 0
	.byte	0
.LVUS405:
	.uleb128 .LVU553
	.uleb128 .LVU557
.LLST405:
	.byte	0x8
	.quad	.LVL106
	.uleb128 .LVL106-.LVL106
	.uleb128 0x7
	.byte	0x78
	.sleb128 0
	.byte	0x71
	.sleb128 0
	.byte	0x22
	.byte	0x23
	.uleb128 0x3
	.byte	0
.LVUS406:
	.uleb128 .LVU555
	.uleb128 .LVU557
.LLST406:
	.byte	0x8
	.quad	.LVL106
	.uleb128 .LVL106-.LVL106
	.uleb128 0x2
	.byte	0x30
	.byte	0x9f
	.byte	0
.LVUS407:
	.uleb128 .LVU555
	.uleb128 .LVU557
.LLST407:
	.byte	0x8
	.quad	.LVL106
	.uleb128 .LVL106-.LVL106
	.uleb128 0x7
	.byte	0x78
	.sleb128 0
	.byte	0x71
	.sleb128 0
	.byte	0x22
	.byte	0x23
	.uleb128 0x3
	.byte	0
.LVUS408:
	.uleb128 .LVU559
	.uleb128 .LVU565
.LLST408:
	.byte	0x8
	.quad	.LVL106
	.uleb128 .LVL106-.LVL106
	.uleb128 0x3
	.byte	0x74
	.sleb128 3
	.byte	0x9f
	.byte	0
.LVUS409:
	.uleb128 .LVU561
	.uleb128 .LVU565
.LLST409:
	.byte	0x8
	.quad	.LVL106
	.uleb128 .LVL106-.LVL106
	.uleb128 0x2
	.byte	0x74
	.sleb128 3
	.byte	0
.LVUS410:
	.uleb128 .LVU563
	.uleb128 .LVU565
.LLST410:
	.byte	0x8
	.quad	.LVL106
	.uleb128 .LVL106-.LVL106
	.uleb128 0x2
	.byte	0x30
	.byte	0x9f
	.byte	0
.LVUS411:
	.uleb128 .LVU563
	.uleb128 .LVU565
.LLST411:
	.byte	0x8
	.quad	.LVL106
	.uleb128 .LVL106-.LVL106
	.uleb128 0x2
	.byte	0x74
	.sleb128 3
	.byte	0
.LVUS412:
	.uleb128 .LVU569
	.uleb128 .LVU573
.LLST412:
	.byte	0x8
	.quad	.LVL106
	.uleb128 .LVL106-.LVL106
	.uleb128 0x7
	.byte	0x78
	.sleb128 0
	.byte	0x71
	.sleb128 0
	.byte	0x22
	.byte	0x23
	.uleb128 0x8
	.byte	0
.LVUS413:
	.uleb128 .LVU571
	.uleb128 .LVU573
.LLST413:
	.byte	0x8
	.quad	.LVL106
	.uleb128 .LVL106-.LVL106
	.uleb128 0x2
	.byte	0x30
	.byte	0x9f
	.byte	0
.LVUS414:
	.uleb128 .LVU571
	.uleb128 .LVU573
.LLST414:
	.byte	0x8
	.quad	.LVL106
	.uleb128 .LVL106-.LVL106
	.uleb128 0x7
	.byte	0x78
	.sleb128 0
	.byte	0x71
	.sleb128 0
	.byte	0x22
	.byte	0x23
	.uleb128 0x8
	.byte	0
.LVUS415:
	.uleb128 .LVU575
	.uleb128 .LVU581
.LLST415:
	.byte	0x8
	.quad	.LVL106
	.uleb128 .LVL106-.LVL106
	.uleb128 0x3
	.byte	0x74
	.sleb128 8
	.byte	0x9f
	.byte	0
.LVUS416:
	.uleb128 .LVU577
	.uleb128 .LVU581
.LLST416:
	.byte	0x8
	.quad	.LVL106
	.uleb128 .LVL106-.LVL106
	.uleb128 0x2
	.byte	0x74
	.sleb128 8
	.byte	0
.LVUS417:
	.uleb128 .LVU579
	.uleb128 .LVU581
.LLST417:
	.byte	0x8
	.quad	.LVL106
	.uleb128 .LVL106-.LVL106
	.uleb128 0x2
	.byte	0x30
	.byte	0x9f
	.byte	0
.LVUS418:
	.uleb128 .LVU579
	.uleb128 .LVU581
.LLST418:
	.byte	0x8
	.quad	.LVL106
	.uleb128 .LVL106-.LVL106
	.uleb128 0x2
	.byte	0x74
	.sleb128 8
	.byte	0
.LVUS419:
	.uleb128 .LVU585
	.uleb128 .LVU589
.LLST419:
	.byte	0x8
	.quad	.LVL106
	.uleb128 .LVL106-.LVL106
	.uleb128 0x7
	.byte	0x78
	.sleb128 0
	.byte	0x71
	.sleb128 0
	.byte	0x22
	.byte	0x23
	.uleb128 0xb
	.byte	0
.LVUS420:
	.uleb128 .LVU587
	.uleb128 .LVU589
.LLST420:
	.byte	0x8
	.quad	.LVL106
	.uleb128 .LVL106-.LVL106
	.uleb128 0x2
	.byte	0x30
	.byte	0x9f
	.byte	0
.LVUS421:
	.uleb128 .LVU587
	.uleb128 .LVU589
.LLST421:
	.byte	0x8
	.quad	.LVL106
	.uleb128 .LVL106-.LVL106
	.uleb128 0x7
	.byte	0x78
	.sleb128 0
	.byte	0x71
	.sleb128 0
	.byte	0x22
	.byte	0x23
	.uleb128 0xb
	.byte	0
.LVUS422:
	.uleb128 .LVU591
	.uleb128 .LVU597
.LLST422:
	.byte	0x8
	.quad	.LVL106
	.uleb128 .LVL106-.LVL106
	.uleb128 0x3
	.byte	0x74
	.sleb128 11
	.byte	0x9f
	.byte	0
.LVUS423:
	.uleb128 .LVU593
	.uleb128 .LVU597
.LLST423:
	.byte	0x8
	.quad	.LVL106
	.uleb128 .LVL106-.LVL106
	.uleb128 0x2
	.byte	0x74
	.sleb128 11
	.byte	0
.LVUS424:
	.uleb128 .LVU595
	.uleb128 .LVU597
.LLST424:
	.byte	0x8
	.quad	.LVL106
	.uleb128 .LVL106-.LVL106
	.uleb128 0x2
	.byte	0x30
	.byte	0x9f
	.byte	0
.LVUS425:
	.uleb128 .LVU595
	.uleb128 .LVU597
.LLST425:
	.byte	0x8
	.quad	.LVL106
	.uleb128 .LVL106-.LVL106
	.uleb128 0x2
	.byte	0x74
	.sleb128 11
	.byte	0
.LVUS430:
	.uleb128 .LVU604
	.uleb128 .LVU611
.LLST430:
	.byte	0x8
	.quad	.LVL108
	.uleb128 .LVL109-.LVL108
	.uleb128 0x2
	.byte	0x90
	.uleb128 0x47
	.byte	0
.LVUS439:
	.uleb128 .LVU621
	.uleb128 .LVU628
.LLST439:
	.byte	0x8
	.quad	.LVL109
	.uleb128 .LVL111-.LVL109
	.uleb128 0x1
	.byte	0x6f
	.byte	0
.LVUS442:
	.uleb128 .LVU668
	.uleb128 .LVU670
.LLST442:
	.byte	0x8
	.quad	.LVL112
	.uleb128 .LVL112-.LVL112
	.uleb128 0x1
	.byte	0x64
	.byte	0
.LVUS444:
	.uleb128 .LVU672
	.uleb128 .LVU674
.LLST444:
	.byte	0x8
	.quad	.LVL112
	.uleb128 .LVL112-.LVL112
	.uleb128 0x1
	.byte	0x64
	.byte	0
.LVUS445:
	.uleb128 .LVU650
	.uleb128 .LVU654
.LLST445:
	.byte	0x8
	.quad	.LVL111
	.uleb128 .LVL112-.LVL111
	.uleb128 0x1
	.byte	0x6a
	.byte	0
.LVUS446:
	.uleb128 .LVU676
	.uleb128 .LVU679
.LLST446:
	.byte	0x8
	.quad	.LVL112
	.uleb128 .LVL113-.LVL112
	.uleb128 0x1
	.byte	0x63
	.byte	0
.LVUS447:
	.uleb128 .LVU676
	.uleb128 .LVU679
.LLST447:
	.byte	0x8
	.quad	.LVL112
	.uleb128 .LVL113-.LVL112
	.uleb128 0x1
	.byte	0x6f
	.byte	0
.LVUS448:
	.uleb128 .LVU676
	.uleb128 .LVU679
.LLST448:
	.byte	0x8
	.quad	.LVL112
	.uleb128 .LVL113-.LVL112
	.uleb128 0x2
	.byte	0x90
	.uleb128 0x47
	.byte	0
.LVUS449:
	.uleb128 .LVU681
	.uleb128 .LVU684
.LLST449:
	.byte	0x8
	.quad	.LVL113
	.uleb128 .LVL114-.LVL113
	.uleb128 0x1
	.byte	0x63
	.byte	0
.LVUS450:
	.uleb128 .LVU681
	.uleb128 .LVU684
.LLST450:
	.byte	0x8
	.quad	.LVL113
	.uleb128 .LVL114-.LVL113
	.uleb128 0x1
	.byte	0x6a
	.byte	0
.LVUS451:
	.uleb128 .LVU681
	.uleb128 .LVU684
.LLST451:
	.byte	0x8
	.quad	.LVL113
	.uleb128 .LVL114-.LVL113
	.uleb128 0x2
	.byte	0x90
	.uleb128 0x46
	.byte	0
.LVUS452:
	.uleb128 .LVU686
	.uleb128 .LVU689
.LLST452:
	.byte	0x8
	.quad	.LVL114
	.uleb128 .LVL115-.LVL114
	.uleb128 0x1
	.byte	0x62
	.byte	0
.LVUS453:
	.uleb128 .LVU686
	.uleb128 .LVU689
.LLST453:
	.byte	0x8
	.quad	.LVL114
	.uleb128 .LVL115-.LVL114
	.uleb128 0x1
	.byte	0x69
	.byte	0
.LVUS454:
	.uleb128 .LVU686
	.uleb128 .LVU689
.LLST454:
	.byte	0x8
	.quad	.LVL114
	.uleb128 .LVL115-.LVL114
	.uleb128 0x1
	.byte	0x6f
	.byte	0
.LVUS455:
	.uleb128 .LVU691
	.uleb128 .LVU694
.LLST455:
	.byte	0x8
	.quad	.LVL115
	.uleb128 .LVL116-.LVL115
	.uleb128 0x1
	.byte	0x62
	.byte	0
.LVUS456:
	.uleb128 .LVU691
	.uleb128 .LVU694
.LLST456:
	.byte	0x8
	.quad	.LVL115
	.uleb128 .LVL116-.LVL115
	.uleb128 0x1
	.byte	0x68
	.byte	0
.LVUS457:
	.uleb128 .LVU691
	.uleb128 .LVU694
.LLST457:
	.byte	0x8
	.quad	.LVL115
	.uleb128 .LVL116-.LVL115
	.uleb128 0x1
	.byte	0x6a
	.byte	0
.LVUS458:
	.uleb128 .LVU696
	.uleb128 .LVU699
.LLST458:
	.byte	0x8
	.quad	.LVL116
	.uleb128 .LVL117-.LVL116
	.uleb128 0x1
	.byte	0x61
	.byte	0
.LVUS459:
	.uleb128 .LVU696
	.uleb128 .LVU699
.LLST459:
	.byte	0x8
	.quad	.LVL116
	.uleb128 .LVL117-.LVL116
	.uleb128 0x1
	.byte	0x67
	.byte	0
.LVUS460:
	.uleb128 .LVU696
	.uleb128 .LVU699
.LLST460:
	.byte	0x8
	.quad	.LVL116
	.uleb128 .LVL117-.LVL116
	.uleb128 0x1
	.byte	0x69
	.byte	0
.LVUS461:
	.uleb128 .LVU701
	.uleb128 .LVU704
.LLST461:
	.byte	0x8
	.quad	.LVL117
	.uleb128 .LVL118-.LVL117
	.uleb128 0x1
	.byte	0x61
	.byte	0
.LVUS462:
	.uleb128 .LVU701
	.uleb128 .LVU704
.LLST462:
	.byte	0x8
	.quad	.LVL117
	.uleb128 .LVL118-.LVL117
	.uleb128 0x1
	.byte	0x65
	.byte	0
.LVUS463:
	.uleb128 .LVU701
	.uleb128 .LVU704
.LLST463:
	.byte	0x8
	.quad	.LVL117
	.uleb128 .LVL118-.LVL117
	.uleb128 0x1
	.byte	0x68
	.byte	0
.LVUS464:
	.uleb128 .LVU706
	.uleb128 .LVU709
.LLST464:
	.byte	0x8
	.quad	.LVL118
	.uleb128 .LVL119-.LVL118
	.uleb128 0x1
	.byte	0x67
	.byte	0
.LVUS465:
	.uleb128 .LVU711
	.uleb128 .LVU714
.LLST465:
	.byte	0x8
	.quad	.LVL119
	.uleb128 .LVL120-.LVL119
	.uleb128 0x1
	.byte	0x65
	.byte	0
.LVUS466:
	.uleb128 .LVU778
	.uleb128 .LVU786
.LLST466:
	.byte	0x8
	.quad	.LVL127
	.uleb128 .LVL128-.LVL127
	.uleb128 0x1
	.byte	0x69
	.byte	0
.LVUS467:
	.uleb128 .LVU788
	.uleb128 .LVU820
.LLST467:
	.byte	0x8
	.quad	.LVL129
	.uleb128 .LVL132-.LVL129
	.uleb128 0x1
	.byte	0x67
	.byte	0
.LVUS468:
	.uleb128 .LVU795
	.uleb128 .LVU815
.LLST468:
	.byte	0x8
	.quad	.LVL129
	.uleb128 .LVL131-.LVL129
	.uleb128 0x1
	.byte	0x68
	.byte	0
.LVUS469:
	.uleb128 .LVU803
	.uleb128 .LVU825
.LLST469:
	.byte	0x8
	.quad	.LVL130
	.uleb128 .LVL133-.LVL130
	.uleb128 0x1
	.byte	0x65
	.byte	0
.LVUS470:
	.uleb128 .LVU810
	.uleb128 .LVU815
	.uleb128 .LVU815
	.uleb128 .LVU820
	.uleb128 .LVU820
	.uleb128 .LVU825
	.uleb128 .LVU825
	.uleb128 .LVU837
.LLST470:
	.byte	0x6
	.quad	.LVL130
	.byte	0x4
	.uleb128 .LVL130-.LVL130
	.uleb128 .LVL131-.LVL130
	.uleb128 0x1
	.byte	0x69
	.byte	0x4
	.uleb128 .LVL131-.LVL130
	.uleb128 .LVL132-.LVL130
	.uleb128 0x1
	.byte	0x68
	.byte	0x4
	.uleb128 .LVL132-.LVL130
	.uleb128 .LVL133-.LVL130
	.uleb128 0x1
	.byte	0x67
	.byte	0x4
	.uleb128 .LVL133-.LVL130
	.uleb128 .LVL134-.LVL130
	.uleb128 0x1
	.byte	0x65
	.byte	0
.LVUS471:
	.uleb128 .LVU737
	.uleb128 .LVU739
.LLST471:
	.byte	0x8
	.quad	.LVL125
	.uleb128 .LVL125-.LVL125
	.uleb128 0x2
	.byte	0x30
	.byte	0x9f
	.byte	0
.LVUS472:
	.uleb128 .LVU745
	.uleb128 .LVU747
.LLST472:
	.byte	0x8
	.quad	.LVL125
	.uleb128 .LVL125-.LVL125
	.uleb128 0x2
	.byte	0x30
	.byte	0x9f
	.byte	0
.LVUS473:
	.uleb128 .LVU753
	.uleb128 .LVU755
.LLST473:
	.byte	0x8
	.quad	.LVL125
	.uleb128 .LVL125-.LVL125
	.uleb128 0x2
	.byte	0x30
	.byte	0x9f
	.byte	0
.LVUS474:
	.uleb128 .LVU761
	.uleb128 .LVU763
.LLST474:
	.byte	0x8
	.quad	.LVL125
	.uleb128 .LVL125-.LVL125
	.uleb128 0x2
	.byte	0x30
	.byte	0x9f
	.byte	0
.LVUS476:
	.uleb128 .LVU768
	.uleb128 .LVU778
.LLST476:
	.byte	0x8
	.quad	.LVL126
	.uleb128 .LVL127-.LVL126
	.uleb128 0x1
	.byte	0x69
	.byte	0
.LVUS481:
	.uleb128 .LVU782
	.uleb128 .LVU788
.LLST481:
	.byte	0x8
	.quad	.LVL127
	.uleb128 .LVL129-.LVL127
	.uleb128 0x1
	.byte	0x67
	.byte	0
.LVUS483:
	.uleb128 .LVU808
	.uleb128 .LVU810
.LLST483:
	.byte	0x8
	.quad	.LVL130
	.uleb128 .LVL130-.LVL130
	.uleb128 0x1
	.byte	0x64
	.byte	0
.LVUS485:
	.uleb128 .LVU799
	.uleb128 .LVU803
.LLST485:
	.byte	0x8
	.quad	.LVL129
	.uleb128 .LVL130-.LVL129
	.uleb128 0x1
	.byte	0x65
	.byte	0
.LVUS486:
	.uleb128 .LVU812
	.uleb128 .LVU815
.LLST486:
	.byte	0x8
	.quad	.LVL130
	.uleb128 .LVL131-.LVL130
	.uleb128 0x1
	.byte	0x63
	.byte	0
.LVUS487:
	.uleb128 .LVU812
	.uleb128 .LVU815
.LLST487:
	.byte	0x8
	.quad	.LVL130
	.uleb128 .LVL131-.LVL130
	.uleb128 0x1
	.byte	0x68
	.byte	0
.LVUS488:
	.uleb128 .LVU812
	.uleb128 .LVU815
.LLST488:
	.byte	0x8
	.quad	.LVL130
	.uleb128 .LVL131-.LVL130
	.uleb128 0x1
	.byte	0x69
	.byte	0
.LVUS489:
	.uleb128 .LVU817
	.uleb128 .LVU820
.LLST489:
	.byte	0x8
	.quad	.LVL131
	.uleb128 .LVL132-.LVL131
	.uleb128 0x1
	.byte	0x62
	.byte	0
.LVUS490:
	.uleb128 .LVU817
	.uleb128 .LVU820
.LLST490:
	.byte	0x8
	.quad	.LVL131
	.uleb128 .LVL132-.LVL131
	.uleb128 0x1
	.byte	0x67
	.byte	0
.LVUS491:
	.uleb128 .LVU817
	.uleb128 .LVU820
.LLST491:
	.byte	0x8
	.quad	.LVL131
	.uleb128 .LVL132-.LVL131
	.uleb128 0x1
	.byte	0x68
	.byte	0
.LVUS492:
	.uleb128 .LVU822
	.uleb128 .LVU825
.LLST492:
	.byte	0x8
	.quad	.LVL132
	.uleb128 .LVL133-.LVL132
	.uleb128 0x1
	.byte	0x61
	.byte	0
.LVUS493:
	.uleb128 .LVU822
	.uleb128 .LVU825
.LLST493:
	.byte	0x8
	.quad	.LVL132
	.uleb128 .LVL133-.LVL132
	.uleb128 0x1
	.byte	0x65
	.byte	0
.LVUS494:
	.uleb128 .LVU822
	.uleb128 .LVU825
.LLST494:
	.byte	0x8
	.quad	.LVL132
	.uleb128 .LVL133-.LVL132
	.uleb128 0x1
	.byte	0x67
	.byte	0
.LVUS495:
	.uleb128 .LVU827
	.uleb128 .LVU830
.LLST495:
	.byte	0x8
	.quad	.LVL133
	.uleb128 .LVL134-.LVL133
	.uleb128 0x1
	.byte	0x65
	.byte	0
.LVUS497:
	.uleb128 .LVU841
	.uleb128 .LVU844
	.uleb128 .LVU1033
	.uleb128 .LVU1044
	.uleb128 .LVU1044
	.uleb128 .LVU1051
	.uleb128 .LVU1051
	.uleb128 .LVU1062
	.uleb128 .LVU1062
	.uleb128 .LVU1069
	.uleb128 .LVU1069
	.uleb128 .LVU1082
	.uleb128 .LVU1082
	.uleb128 .LVU1089
	.uleb128 .LVU1089
	.uleb128 .LVU1100
	.uleb128 .LVU1100
	.uleb128 .LVU1107
	.uleb128 .LVU1107
	.uleb128 .LVU1120
	.uleb128 .LVU1126
	.uleb128 .LVU1141
	.uleb128 .LVU1368
	.uleb128 .LVU1370
.LLST497:
	.byte	0x6
	.quad	.LVL135
	.byte	0x4
	.uleb128 .LVL135-.LVL135
	.uleb128 .LVL137-.LVL135
	.uleb128 0x2
	.byte	0x30
	.byte	0x9f
	.byte	0x4
	.uleb128 .LVL152-.LVL135
	.uleb128 .LVL153-.LVL135
	.uleb128 0x1
	.byte	0x5a
	.byte	0x4
	.uleb128 .LVL153-.LVL135
	.uleb128 .LVL154-.LVL135
	.uleb128 0x3
	.byte	0x79
	.sleb128 1
	.byte	0x9f
	.byte	0x4
	.uleb128 .LVL154-.LVL135
	.uleb128 .LVL155-.LVL135
	.uleb128 0x1
	.byte	0x5a
	.byte	0x4
	.uleb128 .LVL155-.LVL135
	.uleb128 .LVL156-.LVL135
	.uleb128 0x3
	.byte	0x79
	.sleb128 2
	.byte	0x9f
	.byte	0x4
	.uleb128 .LVL156-.LVL135
	.uleb128 .LVL157-.LVL135
	.uleb128 0x1
	.byte	0x5a
	.byte	0x4
	.uleb128 .LVL157-.LVL135
	.uleb128 .LVL158-.LVL135
	.uleb128 0x3
	.byte	0x79
	.sleb128 3
	.byte	0x9f
	.byte	0x4
	.uleb128 .LVL158-.LVL135
	.uleb128 .LVL159-.LVL135
	.uleb128 0x1
	.byte	0x5a
	.byte	0x4
	.uleb128 .LVL159-.LVL135
	.uleb128 .LVL160-.LVL135
	.uleb128 0x3
	.byte	0x79
	.sleb128 4
	.byte	0x9f
	.byte	0x4
	.uleb128 .LVL160-.LVL135
	.uleb128 .LVL161-.LVL135
	.uleb128 0x1
	.byte	0x5a
	.byte	0x4
	.uleb128 .LVL162-.LVL135
	.uleb128 .LVL163-.LVL135
	.uleb128 0x1
	.byte	0x59
	.byte	0x4
	.uleb128 .LVL220-.LVL135
	.uleb128 .LVL221-.LVL135
	.uleb128 0x2
	.byte	0x30
	.byte	0x9f
	.byte	0
.LVUS500:
	.uleb128 .LVU450
	.uleb128 .LVU458
.LLST500:
	.byte	0x8
	.quad	.LVL88
	.uleb128 .LVL89-.LVL88
	.uleb128 0x6
	.byte	0xa0
	.long	.Ldebug_info0+55690
	.sleb128 0
	.byte	0
.LVUS501:
	.uleb128 .LVU450
	.uleb128 .LVU458
.LLST501:
	.byte	0x8
	.quad	.LVL88
	.uleb128 .LVL89-.LVL88
	.uleb128 0x3
	.byte	0x7f
	.sleb128 32
	.byte	0x9f
	.byte	0
.LVUS503:
	.uleb128 .LVU469
	.uleb128 .LVU471
.LLST503:
	.byte	0x8
	.quad	.LVL91
	.uleb128 .LVL92-.LVL91
	.uleb128 0x6
	.byte	0xa0
	.long	.Ldebug_info0+55769
	.sleb128 0
	.byte	0
.LVUS504:
	.uleb128 .LVU469
	.uleb128 .LVU471
.LLST504:
	.byte	0x8
	.quad	.LVL91
	.uleb128 .LVL92-.LVL91
	.uleb128 0x3
	.byte	0x7f
	.sleb128 28
	.byte	0x9f
	.byte	0
.LVUS506:
	.uleb128 .LVU460
	.uleb128 .LVU462
.LLST506:
	.byte	0x8
	.quad	.LVL89
	.uleb128 .LVL90-.LVL89
	.uleb128 0x6
	.byte	0xa0
	.long	.Ldebug_info0+55713
	.sleb128 0
	.byte	0
.LVUS507:
	.uleb128 .LVU460
	.uleb128 .LVU462
.LLST507:
	.byte	0x8
	.quad	.LVL89
	.uleb128 .LVL90-.LVL89
	.uleb128 0x3
	.byte	0x7f
	.sleb128 36
	.byte	0x9f
	.byte	0
.LVUS509:
	.uleb128 .LVU464
	.uleb128 .LVU467
.LLST509:
	.byte	0x8
	.quad	.LVL90
	.uleb128 .LVL91-.LVL90
	.uleb128 0x6
	.byte	0xa0
	.long	.Ldebug_info0+55746
	.sleb128 0
	.byte	0
.LVUS510:
	.uleb128 .LVU464
	.uleb128 .LVU467
.LLST510:
	.byte	0x8
	.quad	.LVL90
	.uleb128 .LVL91-.LVL90
	.uleb128 0x3
	.byte	0x7f
	.sleb128 24
	.byte	0x9f
	.byte	0
.LVUS512:
	.uleb128 .LVU488
	.uleb128 .LVU496
.LLST512:
	.byte	0x8
	.quad	.LVL93
	.uleb128 .LVL94-.LVL93
	.uleb128 0x2
	.byte	0x90
	.uleb128 0x45
	.byte	0
.LVUS513:
	.uleb128 .LVU498
	.uleb128 .LVU501
.LLST513:
	.byte	0x8
	.quad	.LVL94
	.uleb128 .LVL95-.LVL94
	.uleb128 0x2
	.byte	0x90
	.uleb128 0x44
	.byte	0
.LVUS514:
	.uleb128 .LVU503
	.uleb128 .LVU506
.LLST514:
	.byte	0x8
	.quad	.LVL95
	.uleb128 .LVL96-.LVL95
	.uleb128 0x2
	.byte	0x90
	.uleb128 0x43
	.byte	0
.LVUS515:
	.uleb128 .LVU508
	.uleb128 .LVU511
.LLST515:
	.byte	0x8
	.quad	.LVL96
	.uleb128 .LVL97-.LVL96
	.uleb128 0x2
	.byte	0x90
	.uleb128 0x20
	.byte	0
.LVUS517:
	.uleb128 .LVU1153
	.uleb128 .LVU1157
	.uleb128 .LVU1157
	.uleb128 .LVU1215
.LLST517:
	.byte	0x6
	.quad	.LVL169
	.byte	0x4
	.uleb128 .LVL169-.LVL169
	.uleb128 .LVL170-.LVL169
	.uleb128 0x1
	.byte	0x5f
	.byte	0x4
	.uleb128 .LVL170-.LVL169
	.uleb128 .LVL192-.LVL169
	.uleb128 0x1
	.byte	0x53
	.byte	0
.LVUS520:
	.uleb128 .LVU1162
	.uleb128 .LVU1165
	.uleb128 .LVU1165
	.uleb128 .LVU1173
	.uleb128 .LVU1173
	.uleb128 .LVU1174
	.uleb128 .LVU1174
	.uleb128 .LVU1175
	.uleb128 .LVU1175
	.uleb128 .LVU1204
	.uleb128 .LVU1204
	.uleb128 .LVU1211
.LLST520:
	.byte	0x6
	.quad	.LVL170
	.byte	0x4
	.uleb128 .LVL170-.LVL170
	.uleb128 .LVL171-.LVL170
	.uleb128 0x2
	.byte	0x30
	.byte	0x9f
	.byte	0x4
	.uleb128 .LVL171-.LVL170
	.uleb128 .LVL174-.LVL170
	.uleb128 0xb
	.byte	0x70
	.sleb128 0
	.byte	0xa8
	.uleb128 0x37
	.byte	0x33
	.byte	0xa8
	.uleb128 0x37
	.byte	0x1b
	.byte	0xa8
	.uleb128 0
	.byte	0x9f
	.byte	0x4
	.uleb128 .LVL174-.LVL170
	.uleb128 .LVL175-.LVL170
	.uleb128 0xd
	.byte	0x70
	.sleb128 0
	.byte	0xa8
	.uleb128 0x37
	.byte	0x33
	.byte	0xa8
	.uleb128 0x37
	.byte	0x1b
	.byte	0xa8
	.uleb128 0
	.byte	0x23
	.uleb128 0x1
	.byte	0x9f
	.byte	0x4
	.uleb128 .LVL175-.LVL170
	.uleb128 .LVL176-.LVL170
	.uleb128 0xd
	.byte	0x70
	.sleb128 -3
	.byte	0xa8
	.uleb128 0x37
	.byte	0x33
	.byte	0xa8
	.uleb128 0x37
	.byte	0x1b
	.byte	0xa8
	.uleb128 0
	.byte	0x23
	.uleb128 0x1
	.byte	0x9f
	.byte	0x4
	.uleb128 .LVL176-.LVL170
	.uleb128 .LVL186-.LVL170
	.uleb128 0xb
	.byte	0x70
	.sleb128 0
	.byte	0xa8
	.uleb128 0x37
	.byte	0x33
	.byte	0xa8
	.uleb128 0x37
	.byte	0x1b
	.byte	0xa8
	.uleb128 0
	.byte	0x9f
	.byte	0x4
	.uleb128 .LVL186-.LVL170
	.uleb128 .LVL189-.LVL170
	.uleb128 0xb
	.byte	0x70
	.sleb128 -3
	.byte	0xa8
	.uleb128 0x37
	.byte	0x33
	.byte	0xa8
	.uleb128 0x37
	.byte	0x1b
	.byte	0xa8
	.uleb128 0
	.byte	0x9f
	.byte	0
.LVUS522:
	.uleb128 .LVU1165
	.uleb128 .LVU1168
	.uleb128 .LVU1168
	.uleb128 .LVU1170
	.uleb128 .LVU1170
	.uleb128 .LVU1175
	.uleb128 .LVU1177
	.uleb128 .LVU1188
	.uleb128 .LVU1188
	.uleb128 .LVU1212
.LLST522:
	.byte	0x6
	.quad	.LVL171
	.byte	0x4
	.uleb128 .LVL171-.LVL171
	.uleb128 .LVL172-.LVL171
	.uleb128 0x1
	.byte	0x54
	.byte	0x4
	.uleb128 .LVL172-.LVL171
	.uleb128 .LVL173-.LVL171
	.uleb128 0x2
	.byte	0x71
	.sleb128 0
	.byte	0x4
	.uleb128 .LVL173-.LVL171
	.uleb128 .LVL176-.LVL171
	.uleb128 0x2
	.byte	0x71
	.sleb128 -4
	.byte	0x4
	.uleb128 .LVL177-.LVL171
	.uleb128 .LVL179-.LVL171
	.uleb128 0x1
	.byte	0x54
	.byte	0x4
	.uleb128 .LVL179-.LVL171
	.uleb128 .LVL190-.LVL171
	.uleb128 0x2
	.byte	0x71
	.sleb128 -4
	.byte	0
.LVUS523:
	.uleb128 .LVU1182
	.uleb128 .LVU1206
.LLST523:
	.byte	0x8
	.quad	.LVL178
	.uleb128 .LVL188-.LVL178
	.uleb128 0x1
	.byte	0x61
	.byte	0
.LVUS525:
	.uleb128 .LVU1183
	.uleb128 .LVU1190
	.uleb128 .LVU1190
	.uleb128 .LVU1199
	.uleb128 .LVU1199
	.uleb128 .LVU1209
	.uleb128 .LVU1209
	.uleb128 .LVU1212
.LLST525:
	.byte	0x6
	.quad	.LVL178
	.byte	0x4
	.uleb128 .LVL178-.LVL178
	.uleb128 .LVL180-.LVL178
	.uleb128 0x2
	.byte	0x30
	.byte	0x9f
	.byte	0x4
	.uleb128 .LVL180-.LVL178
	.uleb128 .LVL184-.LVL178
	.uleb128 0x2
	.byte	0x31
	.byte	0x9f
	.byte	0x4
	.uleb128 .LVL184-.LVL178
	.uleb128 .LVL189-.LVL178
	.uleb128 0x2
	.byte	0x32
	.byte	0x9f
	.byte	0x4
	.uleb128 .LVL189-.LVL178
	.uleb128 .LVL190-.LVL178
	.uleb128 0x2
	.byte	0x33
	.byte	0x9f
	.byte	0
.LVUS527:
	.uleb128 .LVU1185
	.uleb128 .LVU1193
	.uleb128 .LVU1193
	.uleb128 .LVU1195
	.uleb128 .LVU1195
	.uleb128 .LVU1197
	.uleb128 .LVU1197
	.uleb128 .LVU1205
	.uleb128 .LVU1205
	.uleb128 .LVU1206
.LLST527:
	.byte	0x6
	.quad	.LVL178
	.byte	0x4
	.uleb128 .LVL178-.LVL178
	.uleb128 .LVL181-.LVL178
	.uleb128 0xf
	.byte	0x70
	.sleb128 0
	.byte	0x32
	.byte	0x24
	.byte	0x7a
	.sleb128 0
	.byte	0x22
	.byte	0xa6
	.byte	0x4
	.uleb128 0x30
	.byte	0xa5
	.uleb128 0x11
	.uleb128 0x30
	.byte	0x1e
	.byte	0x9f
	.byte	0x4
	.uleb128 .LVL181-.LVL178
	.uleb128 .LVL182-.LVL178
	.uleb128 0x12
	.byte	0x75
	.sleb128 0
	.byte	0x74
	.sleb128 0
	.byte	0x22
	.byte	0x32
	.byte	0x24
	.byte	0x78
	.sleb128 0
	.byte	0x22
	.byte	0xa6
	.byte	0x4
	.uleb128 0x30
	.byte	0xa5
	.uleb128 0x11
	.uleb128 0x30
	.byte	0x1e
	.byte	0x9f
	.byte	0x4
	.uleb128 .LVL182-.LVL178
	.uleb128 .LVL183-.LVL178
	.uleb128 0xf
	.byte	0x7c
	.sleb128 0
	.byte	0x32
	.byte	0x24
	.byte	0x78
	.sleb128 0
	.byte	0x22
	.byte	0xa6
	.byte	0x4
	.uleb128 0x30
	.byte	0xa5
	.uleb128 0x11
	.uleb128 0x30
	.byte	0x1e
	.byte	0x9f
	.byte	0x4
	.uleb128 .LVL183-.LVL178
	.uleb128 .LVL187-.LVL178
	.uleb128 0x12
	.byte	0x75
	.sleb128 0
	.byte	0x74
	.sleb128 0
	.byte	0x22
	.byte	0x32
	.byte	0x24
	.byte	0x78
	.sleb128 0
	.byte	0x22
	.byte	0xa6
	.byte	0x4
	.uleb128 0x30
	.byte	0xa5
	.uleb128 0x11
	.uleb128 0x30
	.byte	0x1e
	.byte	0x9f
	.byte	0x4
	.uleb128 .LVL187-.LVL178
	.uleb128 .LVL188-.LVL178
	.uleb128 0xf
	.byte	0x7c
	.sleb128 0
	.byte	0x32
	.byte	0x24
	.byte	0x78
	.sleb128 0
	.byte	0x22
	.byte	0xa6
	.byte	0x4
	.uleb128 0x30
	.byte	0xa5
	.uleb128 0x11
	.uleb128 0x30
	.byte	0x1e
	.byte	0x9f
	.byte	0
.LVUS528:
	.uleb128 .LVU1159
	.uleb128 .LVU1160
.LLST528:
	.byte	0x8
	.quad	.LVL170
	.uleb128 .LVL170-.LVL170
	.uleb128 0x7
	.byte	0x77
	.sleb128 120
	.byte	0x6
	.byte	0x23
	.uleb128 0x10
	.byte	0x9f
	.byte	0
.LVUS530:
	.uleb128 .LVU417
	.uleb128 .LVU422
.LLST530:
	.byte	0x8
	.quad	.LVL81
	.uleb128 .LVL83-.LVL81
	.uleb128 0x6
	.byte	0xa0
	.long	.Ldebug_info0+52860
	.sleb128 0
	.byte	0
.LVUS533:
	.uleb128 .LVU429
	.uleb128 .LVU432
.LLST533:
	.byte	0x8
	.quad	.LVL84
	.uleb128 .LVL84-.LVL84
	.uleb128 0x11
	.byte	0x7c
	.sleb128 0
	.byte	0x73
	.sleb128 0
	.byte	0x1c
	.byte	0x70
	.sleb128 0
	.byte	0x1e
	.byte	0x33
	.byte	0x1e
	.byte	0x8
	.byte	0x20
	.byte	0x24
	.byte	0x8
	.byte	0x20
	.byte	0x26
	.byte	0x9f
	.byte	0
.LVUS539:
	.uleb128 .LVU440
	.uleb128 .LVU1221
	.uleb128 .LVU1365
	.uleb128 .LVU1371
.LLST539:
	.byte	0x6
	.quad	.LVL84
	.byte	0x4
	.uleb128 .LVL84-.LVL84
	.uleb128 .LVL196-.LVL84
	.uleb128 0x2
	.byte	0x31
	.byte	0x9f
	.byte	0x4
	.uleb128 .LVL219-.LVL84
	.uleb128 .LVL222-.LVL84
	.uleb128 0x2
	.byte	0x31
	.byte	0x9f
	.byte	0
.LVUS540:
	.uleb128 .LVU440
	.uleb128 .LVU446
.LLST540:
	.byte	0x8
	.quad	.LVL84
	.uleb128 .LVL87-.LVL84
	.uleb128 0x6
	.byte	0x9e
	.uleb128 0x4
	.long	0
	.byte	0
.LVUS542:
	.uleb128 .LVU400
	.uleb128 .LVU401
.LLST542:
	.byte	0x8
	.quad	.LVL79
	.uleb128 .LVL79-.LVL79
	.uleb128 0x6
	.byte	0xa0
	.long	.Ldebug_info0+52869
	.sleb128 0
	.byte	0
.LVUS8:
	.uleb128 .LVU25
	.uleb128 .LVU33
.LLST8:
	.byte	0x8
	.quad	.LVL3
	.uleb128 .LVL3-.LVL3
	.uleb128 0x1
	.byte	0x55
	.byte	0
.LVUS9:
	.uleb128 .LVU26
	.uleb128 .LVU33
.LLST9:
	.byte	0x8
	.quad	.LVL3
	.uleb128 .LVL3-.LVL3
	.uleb128 0x3
	.byte	0x75
	.sleb128 16
	.byte	0x9f
	.byte	0
.LVUS10:
	.uleb128 .LVU27
	.uleb128 .LVU33
.LLST10:
	.byte	0x8
	.quad	.LVL3
	.uleb128 .LVL3-.LVL3
	.uleb128 0x3
	.byte	0x75
	.sleb128 16
	.byte	0x9f
	.byte	0
.LVUS11:
	.uleb128 .LVU28
	.uleb128 .LVU33
.LLST11:
	.byte	0x8
	.quad	.LVL3
	.uleb128 .LVL3-.LVL3
	.uleb128 0x3
	.byte	0x75
	.sleb128 16
	.byte	0x9f
	.byte	0
.LVUS13:
	.uleb128 .LVU31
	.uleb128 .LVU33
.LLST13:
	.byte	0x8
	.quad	.LVL3
	.uleb128 .LVL3-.LVL3
	.uleb128 0x3
	.byte	0x75
	.sleb128 16
	.byte	0x9f
	.byte	0
.LVUS14:
	.uleb128 .LVU29
	.uleb128 .LVU31
.LLST14:
	.byte	0x8
	.quad	.LVL3
	.uleb128 .LVL3-.LVL3
	.uleb128 0x3
	.byte	0x75
	.sleb128 16
	.byte	0x9f
	.byte	0
.LVUS15:
	.uleb128 .LVU30
	.uleb128 .LVU31
.LLST15:
	.byte	0x8
	.quad	.LVL3
	.uleb128 .LVL3-.LVL3
	.uleb128 0x3
	.byte	0x75
	.sleb128 16
	.byte	0x9f
	.byte	0
.LVUS17:
	.uleb128 .LVU7
	.uleb128 .LVU11
.LLST17:
	.byte	0x8
	.quad	.LVL1
	.uleb128 .LVL1-.LVL1
	.uleb128 0x1
	.byte	0x54
	.byte	0
.LVUS18:
	.uleb128 .LVU9
	.uleb128 .LVU11
.LLST18:
	.byte	0x8
	.quad	.LVL1
	.uleb128 .LVL1-.LVL1
	.uleb128 0x1
	.byte	0x54
	.byte	0
.LVUS19:
	.uleb128 .LVU10
	.uleb128 .LVU11
.LLST19:
	.byte	0x8
	.quad	.LVL1
	.uleb128 .LVL1-.LVL1
	.uleb128 0x1
	.byte	0x54
	.byte	0
.LVUS20:
	.uleb128 .LVU17
	.uleb128 .LVU21
.LLST20:
	.byte	0x8
	.quad	.LVL3
	.uleb128 .LVL3-.LVL3
	.uleb128 0x1
	.byte	0x54
	.byte	0
.LVUS21:
	.uleb128 .LVU19
	.uleb128 .LVU21
.LLST21:
	.byte	0x8
	.quad	.LVL3
	.uleb128 .LVL3-.LVL3
	.uleb128 0x1
	.byte	0x54
	.byte	0
.LVUS22:
	.uleb128 .LVU20
	.uleb128 .LVU21
.LLST22:
	.byte	0x8
	.quad	.LVL3
	.uleb128 .LVL3-.LVL3
	.uleb128 0x1
	.byte	0x54
	.byte	0
.LVUS24:
	.uleb128 .LVU39
	.uleb128 .LVU42
	.uleb128 .LVU1290
	.uleb128 .LVU1312
	.uleb128 .LVU1312
	.uleb128 .LVU1343
	.uleb128 .LVU1451
	.uleb128 0
	.uleb128 0
	.uleb128 .LVU1453
	.uleb128 .LVU1453
	.uleb128 .LVU1454
.LLST24:
	.byte	0x6
	.quad	.LVL4
	.byte	0x4
	.uleb128 .LVL4-.LVL4
	.uleb128 .LVL5-.LVL4
	.uleb128 0x3
	.byte	0x75
	.sleb128 16
	.byte	0x9f
	.byte	0x4
	.uleb128 .LVL206-.LVL4
	.uleb128 .LVL209-.LVL4
	.uleb128 0x3
	.byte	0x75
	.sleb128 16
	.byte	0x9f
	.byte	0x4
	.uleb128 .LVL209-.LVL4
	.uleb128 .LVL215-.LVL4
	.uleb128 0x7
	.byte	0x77
	.sleb128 120
	.byte	0x6
	.byte	0x23
	.uleb128 0x10
	.byte	0x9f
	.byte	0x4
	.uleb128 .LVL248-.LVL4
	.uleb128 .LHOTE5-.LVL4
	.uleb128 0x3
	.byte	0x75
	.sleb128 16
	.byte	0x9f
	.byte	0x6
	.quad	.LFSB11707
	.byte	0x4
	.uleb128 .LFSB11707-.LFSB11707
	.uleb128 .LVL249-.LFSB11707
	.uleb128 0x3
	.byte	0x75
	.sleb128 16
	.byte	0x9f
	.byte	0x4
	.uleb128 .LVL249-.LFSB11707
	.uleb128 .LVL250-.LFSB11707
	.uleb128 0x7
	.byte	0x77
	.sleb128 120
	.byte	0x6
	.byte	0x23
	.uleb128 0x10
	.byte	0x9f
	.byte	0
.LVUS25:
	.uleb128 .LVU39
	.uleb128 .LVU42
	.uleb128 .LVU1290
	.uleb128 .LVU1343
	.uleb128 .LVU1451
	.uleb128 0
	.uleb128 0
	.uleb128 .LVU1454
.LLST25:
	.byte	0x6
	.quad	.LVL4
	.byte	0x4
	.uleb128 .LVL4-.LVL4
	.uleb128 .LVL5-.LVL4
	.uleb128 0x5
	.byte	0x7e
	.sleb128 0
	.byte	0x33
	.byte	0x1e
	.byte	0x9f
	.byte	0x4
	.uleb128 .LVL206-.LVL4
	.uleb128 .LVL215-.LVL4
	.uleb128 0x5
	.byte	0x7e
	.sleb128 0
	.byte	0x33
	.byte	0x1e
	.byte	0x9f
	.byte	0x4
	.uleb128 .LVL248-.LVL4
	.uleb128 .LHOTE5-.LVL4
	.uleb128 0x5
	.byte	0x7e
	.sleb128 0
	.byte	0x33
	.byte	0x1e
	.byte	0x9f
	.byte	0x8
	.quad	.LFSB11707
	.uleb128 .LVL250-.LFSB11707
	.uleb128 0x5
	.byte	0x7e
	.sleb128 0
	.byte	0x33
	.byte	0x1e
	.byte	0x9f
	.byte	0
.LVUS27:
	.uleb128 .LVU40
	.uleb128 .LVU42
	.uleb128 .LVU1290
	.uleb128 .LVU1312
	.uleb128 .LVU1312
	.uleb128 .LVU1343
	.uleb128 .LVU1451
	.uleb128 0
	.uleb128 0
	.uleb128 .LVU1453
	.uleb128 .LVU1453
	.uleb128 .LVU1454
.LLST27:
	.byte	0x6
	.quad	.LVL4
	.byte	0x4
	.uleb128 .LVL4-.LVL4
	.uleb128 .LVL5-.LVL4
	.uleb128 0x3
	.byte	0x75
	.sleb128 16
	.byte	0x9f
	.byte	0x4
	.uleb128 .LVL206-.LVL4
	.uleb128 .LVL209-.LVL4
	.uleb128 0x3
	.byte	0x75
	.sleb128 16
	.byte	0x9f
	.byte	0x4
	.uleb128 .LVL209-.LVL4
	.uleb128 .LVL215-.LVL4
	.uleb128 0x7
	.byte	0x77
	.sleb128 120
	.byte	0x6
	.byte	0x23
	.uleb128 0x10
	.byte	0x9f
	.byte	0x4
	.uleb128 .LVL248-.LVL4
	.uleb128 .LHOTE5-.LVL4
	.uleb128 0x3
	.byte	0x75
	.sleb128 16
	.byte	0x9f
	.byte	0x6
	.quad	.LFSB11707
	.byte	0x4
	.uleb128 .LFSB11707-.LFSB11707
	.uleb128 .LVL249-.LFSB11707
	.uleb128 0x3
	.byte	0x75
	.sleb128 16
	.byte	0x9f
	.byte	0x4
	.uleb128 .LVL249-.LFSB11707
	.uleb128 .LVL250-.LFSB11707
	.uleb128 0x7
	.byte	0x77
	.sleb128 120
	.byte	0x6
	.byte	0x23
	.uleb128 0x10
	.byte	0x9f
	.byte	0
.LVUS28:
	.uleb128 .LVU40
	.uleb128 .LVU42
	.uleb128 .LVU1290
	.uleb128 .LVU1343
	.uleb128 .LVU1451
	.uleb128 0
	.uleb128 0
	.uleb128 .LVU1454
.LLST28:
	.byte	0x6
	.quad	.LVL4
	.byte	0x4
	.uleb128 .LVL4-.LVL4
	.uleb128 .LVL5-.LVL4
	.uleb128 0x5
	.byte	0x7e
	.sleb128 0
	.byte	0x33
	.byte	0x1e
	.byte	0x9f
	.byte	0x4
	.uleb128 .LVL206-.LVL4
	.uleb128 .LVL215-.LVL4
	.uleb128 0x5
	.byte	0x7e
	.sleb128 0
	.byte	0x33
	.byte	0x1e
	.byte	0x9f
	.byte	0x4
	.uleb128 .LVL248-.LVL4
	.uleb128 .LHOTE5-.LVL4
	.uleb128 0x5
	.byte	0x7e
	.sleb128 0
	.byte	0x33
	.byte	0x1e
	.byte	0x9f
	.byte	0x8
	.quad	.LFSB11707
	.uleb128 .LVL250-.LFSB11707
	.uleb128 0x5
	.byte	0x7e
	.sleb128 0
	.byte	0x33
	.byte	0x1e
	.byte	0x9f
	.byte	0
.LVUS32:
	.uleb128 .LVU1291
	.uleb128 .LVU1322
	.uleb128 .LVU1451
	.uleb128 0
	.uleb128 0
	.uleb128 .LVU1454
.LLST32:
	.byte	0x6
	.quad	.LVL207
	.byte	0x4
	.uleb128 .LVL207-.LVL207
	.uleb128 .LVL213-.LVL207
	.uleb128 0x6
	.byte	0xa0
	.long	.Ldebug_info0+62477
	.sleb128 0
	.byte	0x4
	.uleb128 .LVL248-.LVL207
	.uleb128 .LHOTE5-.LVL207
	.uleb128 0x6
	.byte	0xa0
	.long	.Ldebug_info0+62477
	.sleb128 0
	.byte	0x8
	.quad	.LFSB11707
	.uleb128 .LVL250-.LFSB11707
	.uleb128 0x6
	.byte	0xa0
	.long	.Ldebug_info0+62477
	.sleb128 0
	.byte	0
.LVUS33:
	.uleb128 .LVU1291
	.uleb128 .LVU1322
	.uleb128 .LVU1451
	.uleb128 0
	.uleb128 0
	.uleb128 .LVU1454
.LLST33:
	.byte	0x6
	.quad	.LVL207
	.byte	0x4
	.uleb128 .LVL207-.LVL207
	.uleb128 .LVL213-.LVL207
	.uleb128 0x5
	.byte	0x7e
	.sleb128 0
	.byte	0x33
	.byte	0x1e
	.byte	0x9f
	.byte	0x4
	.uleb128 .LVL248-.LVL207
	.uleb128 .LHOTE5-.LVL207
	.uleb128 0x5
	.byte	0x7e
	.sleb128 0
	.byte	0x33
	.byte	0x1e
	.byte	0x9f
	.byte	0x8
	.quad	.LFSB11707
	.uleb128 .LVL250-.LFSB11707
	.uleb128 0x5
	.byte	0x7e
	.sleb128 0
	.byte	0x33
	.byte	0x1e
	.byte	0x9f
	.byte	0
.LVUS35:
	.uleb128 .LVU1291
	.uleb128 .LVU1322
	.uleb128 .LVU1451
	.uleb128 0
	.uleb128 0
	.uleb128 .LVU1454
.LLST35:
	.byte	0x6
	.quad	.LVL207
	.byte	0x4
	.uleb128 .LVL207-.LVL207
	.uleb128 .LVL213-.LVL207
	.uleb128 0x7
	.byte	0x77
	.sleb128 120
	.byte	0x6
	.byte	0x23
	.uleb128 0x10
	.byte	0x9f
	.byte	0x4
	.uleb128 .LVL248-.LVL207
	.uleb128 .LHOTE5-.LVL207
	.uleb128 0x7
	.byte	0x77
	.sleb128 120
	.byte	0x6
	.byte	0x23
	.uleb128 0x10
	.byte	0x9f
	.byte	0x8
	.quad	.LFSB11707
	.uleb128 .LVL250-.LFSB11707
	.uleb128 0x7
	.byte	0x77
	.sleb128 120
	.byte	0x6
	.byte	0x23
	.uleb128 0x10
	.byte	0x9f
	.byte	0
.LVUS37:
	.uleb128 .LVU1292
	.uleb128 .LVU1299
	.uleb128 .LVU1451
	.uleb128 0
	.uleb128 0
	.uleb128 .LVU1454
.LLST37:
	.byte	0x6
	.quad	.LVL207
	.byte	0x4
	.uleb128 .LVL207-.LVL207
	.uleb128 .LVL208-.LVL207
	.uleb128 0x5
	.byte	0x7e
	.sleb128 0
	.byte	0x33
	.byte	0x1e
	.byte	0x9f
	.byte	0x4
	.uleb128 .LVL248-.LVL207
	.uleb128 .LHOTE5-.LVL207
	.uleb128 0x5
	.byte	0x7e
	.sleb128 0
	.byte	0x33
	.byte	0x1e
	.byte	0x9f
	.byte	0x8
	.quad	.LFSB11707
	.uleb128 .LVL250-.LFSB11707
	.uleb128 0x5
	.byte	0x7e
	.sleb128 0
	.byte	0x33
	.byte	0x1e
	.byte	0x9f
	.byte	0
.LVUS38:
	.uleb128 .LVU1292
	.uleb128 .LVU1299
	.uleb128 .LVU1451
	.uleb128 0
	.uleb128 0
	.uleb128 .LVU1454
.LLST38:
	.byte	0x6
	.quad	.LVL207
	.byte	0x4
	.uleb128 .LVL207-.LVL207
	.uleb128 .LVL208-.LVL207
	.uleb128 0x7
	.byte	0x77
	.sleb128 120
	.byte	0x6
	.byte	0x23
	.uleb128 0x10
	.byte	0x9f
	.byte	0x4
	.uleb128 .LVL248-.LVL207
	.uleb128 .LHOTE5-.LVL207
	.uleb128 0x7
	.byte	0x77
	.sleb128 120
	.byte	0x6
	.byte	0x23
	.uleb128 0x10
	.byte	0x9f
	.byte	0x8
	.quad	.LFSB11707
	.uleb128 .LVL250-.LFSB11707
	.uleb128 0x7
	.byte	0x77
	.sleb128 120
	.byte	0x6
	.byte	0x23
	.uleb128 0x10
	.byte	0x9f
	.byte	0
.LVUS39:
	.uleb128 .LVU1293
	.uleb128 .LVU1295
.LLST39:
	.byte	0x8
	.quad	.LVL207
	.uleb128 .LVL207-.LVL207
	.uleb128 0x7
	.byte	0x77
	.sleb128 120
	.byte	0x6
	.byte	0x23
	.uleb128 0x10
	.byte	0x9f
	.byte	0
.LVUS40:
	.uleb128 .LVU1294
	.uleb128 .LVU1295
.LLST40:
	.byte	0x8
	.quad	.LVL207
	.uleb128 .LVL207-.LVL207
	.uleb128 0x7
	.byte	0x77
	.sleb128 120
	.byte	0x6
	.byte	0x23
	.uleb128 0x10
	.byte	0x9f
	.byte	0
.LVUS42:
	.uleb128 .LVU1299
	.uleb128 .LVU1316
.LLST42:
	.byte	0x8
	.quad	.LVL208
	.uleb128 .LVL211-.LVL208
	.uleb128 0x6
	.byte	0xa0
	.long	.Ldebug_info0+62477
	.sleb128 0
	.byte	0
.LVUS43:
	.uleb128 .LVU1299
	.uleb128 .LVU1316
.LLST43:
	.byte	0x8
	.quad	.LVL208
	.uleb128 .LVL211-.LVL208
	.uleb128 0x5
	.byte	0x7e
	.sleb128 0
	.byte	0x33
	.byte	0x1e
	.byte	0x9f
	.byte	0
.LVUS44:
	.uleb128 .LVU1299
	.uleb128 .LVU1316
.LLST44:
	.byte	0x8
	.quad	.LVL208
	.uleb128 .LVL211-.LVL208
	.uleb128 0x7
	.byte	0x77
	.sleb128 120
	.byte	0x6
	.byte	0x23
	.uleb128 0x10
	.byte	0x9f
	.byte	0
.LVUS45:
	.uleb128 .LVU1301
	.uleb128 .LVU1306
.LLST45:
	.byte	0x8
	.quad	.LVL208
	.uleb128 .LVL208-.LVL208
	.uleb128 0x6
	.byte	0xa0
	.long	.Ldebug_info0+62477
	.sleb128 0
	.byte	0
.LVUS46:
	.uleb128 .LVU1301
	.uleb128 .LVU1306
.LLST46:
	.byte	0x8
	.quad	.LVL208
	.uleb128 .LVL208-.LVL208
	.uleb128 0x7
	.byte	0x77
	.sleb128 120
	.byte	0x6
	.byte	0x23
	.uleb128 0x10
	.byte	0x9f
	.byte	0
.LVUS47:
	.uleb128 .LVU1302
	.uleb128 .LVU1304
.LLST47:
	.byte	0x8
	.quad	.LVL208
	.uleb128 .LVL208-.LVL208
	.uleb128 0x6
	.byte	0xa0
	.long	.Ldebug_info0+62477
	.sleb128 0
	.byte	0
.LVUS48:
	.uleb128 .LVU1302
	.uleb128 .LVU1304
.LLST48:
	.byte	0x8
	.quad	.LVL208
	.uleb128 .LVL208-.LVL208
	.uleb128 0x7
	.byte	0x77
	.sleb128 120
	.byte	0x6
	.byte	0x23
	.uleb128 0x10
	.byte	0x9f
	.byte	0
.LVUS49:
	.uleb128 .LVU1303
	.uleb128 .LVU1304
.LLST49:
	.byte	0x8
	.quad	.LVL208
	.uleb128 .LVL208-.LVL208
	.uleb128 0x6
	.byte	0xa0
	.long	.Ldebug_info0+62477
	.sleb128 0
	.byte	0
.LVUS50:
	.uleb128 .LVU1303
	.uleb128 .LVU1304
.LLST50:
	.byte	0x8
	.quad	.LVL208
	.uleb128 .LVL208-.LVL208
	.uleb128 0x7
	.byte	0x77
	.sleb128 120
	.byte	0x6
	.byte	0x23
	.uleb128 0x10
	.byte	0x9f
	.byte	0
.LVUS51:
	.uleb128 .LVU1304
	.uleb128 .LVU1306
.LLST51:
	.byte	0x8
	.quad	.LVL208
	.uleb128 .LVL208-.LVL208
	.uleb128 0x6
	.byte	0xa0
	.long	.Ldebug_info0+62477
	.sleb128 0
	.byte	0
.LVUS53:
	.uleb128 .LVU1306
	.uleb128 .LVU1316
.LLST53:
	.byte	0x8
	.quad	.LVL208
	.uleb128 .LVL211-.LVL208
	.uleb128 0x6
	.byte	0xa0
	.long	.Ldebug_info0+62477
	.sleb128 0
	.byte	0
.LVUS54:
	.uleb128 .LVU1306
	.uleb128 .LVU1316
.LLST54:
	.byte	0x8
	.quad	.LVL208
	.uleb128 .LVL211-.LVL208
	.uleb128 0x5
	.byte	0x7e
	.sleb128 0
	.byte	0x33
	.byte	0x1e
	.byte	0x9f
	.byte	0
.LVUS55:
	.uleb128 .LVU1308
	.uleb128 .LVU1313
.LLST55:
	.byte	0x8
	.quad	.LVL208
	.uleb128 .LVL210-.LVL208
	.uleb128 0x6
	.byte	0xa0
	.long	.Ldebug_info0+62477
	.sleb128 0
	.byte	0
.LVUS56:
	.uleb128 .LVU1308
	.uleb128 .LVU1313
.LLST56:
	.byte	0x8
	.quad	.LVL208
	.uleb128 .LVL210-.LVL208
	.uleb128 0x5
	.byte	0x7e
	.sleb128 0
	.byte	0x33
	.byte	0x1e
	.byte	0x9f
	.byte	0
.LVUS57:
	.uleb128 .LVU1309
	.uleb128 .LVU1313
.LLST57:
	.byte	0x8
	.quad	.LVL208
	.uleb128 .LVL210-.LVL208
	.uleb128 0x6
	.byte	0xa0
	.long	.Ldebug_info0+62477
	.sleb128 0
	.byte	0
.LVUS58:
	.uleb128 .LVU1309
	.uleb128 .LVU1313
.LLST58:
	.byte	0x8
	.quad	.LVL208
	.uleb128 .LVL210-.LVL208
	.uleb128 0x5
	.byte	0x7e
	.sleb128 0
	.byte	0x33
	.byte	0x1e
	.byte	0x9f
	.byte	0
.LVUS59:
	.uleb128 .LVU1310
	.uleb128 .LVU1313
.LLST59:
	.byte	0x8
	.quad	.LVL208
	.uleb128 .LVL210-.LVL208
	.uleb128 0x6
	.byte	0xa0
	.long	.Ldebug_info0+62477
	.sleb128 0
	.byte	0
.LVUS60:
	.uleb128 .LVU1310
	.uleb128 .LVU1313
.LLST60:
	.byte	0x8
	.quad	.LVL208
	.uleb128 .LVL210-.LVL208
	.uleb128 0x5
	.byte	0x7e
	.sleb128 0
	.byte	0x33
	.byte	0x1e
	.byte	0x9f
	.byte	0
.LVUS61:
	.uleb128 .LVU1310
	.uleb128 .LVU1313
.LLST61:
	.byte	0x8
	.quad	.LVL208
	.uleb128 .LVL210-.LVL208
	.uleb128 0x2
	.byte	0x30
	.byte	0x9f
	.byte	0
.LVUS63:
	.uleb128 .LVU1316
	.uleb128 .LVU1322
.LLST63:
	.byte	0x8
	.quad	.LVL211
	.uleb128 .LVL213-.LVL211
	.uleb128 0x6
	.byte	0xa0
	.long	.Ldebug_info0+62477
	.sleb128 0
	.byte	0
.LVUS64:
	.uleb128 .LVU1316
	.uleb128 .LVU1322
.LLST64:
	.byte	0x8
	.quad	.LVL211
	.uleb128 .LVL213-.LVL211
	.uleb128 0x5
	.byte	0x7e
	.sleb128 0
	.byte	0x33
	.byte	0x1e
	.byte	0x9f
	.byte	0
.LVUS66:
	.uleb128 .LVU1318
	.uleb128 .LVU1321
.LLST66:
	.byte	0x8
	.quad	.LVL211
	.uleb128 .LVL212-1-.LVL211
	.uleb128 0x1
	.byte	0x50
	.byte	0
.LVUS67:
	.uleb128 .LVU1318
	.uleb128 .LVU1322
.LLST67:
	.byte	0x8
	.quad	.LVL211
	.uleb128 .LVL213-.LVL211
	.uleb128 0x5
	.byte	0x7e
	.sleb128 0
	.byte	0x33
	.byte	0x1e
	.byte	0x9f
	.byte	0
.LVUS69:
	.uleb128 .LVU1318
	.uleb128 .LVU1322
.LLST69:
	.byte	0x8
	.quad	.LVL211
	.uleb128 .LVL213-.LVL211
	.uleb128 0x6
	.byte	0xa0
	.long	.Ldebug_info0+62477
	.sleb128 0
	.byte	0
.LVUS70:
	.uleb128 .LVU1319
	.uleb128 .LVU1321
.LLST70:
	.byte	0x8
	.quad	.LVL211
	.uleb128 .LVL212-1-.LVL211
	.uleb128 0x1
	.byte	0x50
	.byte	0
.LVUS71:
	.uleb128 .LVU1319
	.uleb128 .LVU1322
.LLST71:
	.byte	0x8
	.quad	.LVL211
	.uleb128 .LVL213-.LVL211
	.uleb128 0x5
	.byte	0x7e
	.sleb128 0
	.byte	0x33
	.byte	0x1e
	.byte	0x9f
	.byte	0
.LVUS75:
	.uleb128 .LVU1320
	.uleb128 .LVU1321
.LLST75:
	.byte	0x8
	.quad	.LVL211
	.uleb128 .LVL212-1-.LVL211
	.uleb128 0x1
	.byte	0x50
	.byte	0
.LVUS76:
	.uleb128 .LVU1322
	.uleb128 .LVU1331
.LLST76:
	.byte	0x8
	.quad	.LVL213
	.uleb128 .LVL215-.LVL213
	.uleb128 0x6
	.byte	0xa0
	.long	.Ldebug_info0+62477
	.sleb128 0
	.byte	0
.LVUS77:
	.uleb128 .LVU1322
	.uleb128 .LVU1331
.LLST77:
	.byte	0x8
	.quad	.LVL213
	.uleb128 .LVL215-.LVL213
	.uleb128 0x7
	.byte	0x77
	.sleb128 120
	.byte	0x6
	.byte	0x23
	.uleb128 0x10
	.byte	0x9f
	.byte	0
.LVUS78:
	.uleb128 .LVU1324
	.uleb128 .LVU1325
.LLST78:
	.byte	0x8
	.quad	.LVL213
	.uleb128 .LVL213-.LVL213
	.uleb128 0x6
	.byte	0xa0
	.long	.Ldebug_info0+63710
	.sleb128 0
	.byte	0
.LVUS79:
	.uleb128 .LVU1325
	.uleb128 .LVU1331
.LLST79:
	.byte	0x8
	.quad	.LVL213
	.uleb128 .LVL215-.LVL213
	.uleb128 0x7
	.byte	0x77
	.sleb128 120
	.byte	0x6
	.byte	0x23
	.uleb128 0x10
	.byte	0x9f
	.byte	0
.LVUS80:
	.uleb128 .LVU1325
	.uleb128 .LVU1331
.LLST80:
	.byte	0x8
	.quad	.LVL213
	.uleb128 .LVL215-.LVL213
	.uleb128 0x6
	.byte	0xa0
	.long	.Ldebug_info0+63710
	.sleb128 0
	.byte	0
.LVUS81:
	.uleb128 .LVU1331
	.uleb128 .LVU1343
.LLST81:
	.byte	0x8
	.quad	.LVL215
	.uleb128 .LVL215-.LVL215
	.uleb128 0x6
	.byte	0xa0
	.long	.Ldebug_info0+62477
	.sleb128 0
	.byte	0
.LVUS82:
	.uleb128 .LVU1333
	.uleb128 .LVU1334
.LLST82:
	.byte	0x8
	.quad	.LVL215
	.uleb128 .LVL215-.LVL215
	.uleb128 0x6
	.byte	0xa0
	.long	.Ldebug_info0+62477
	.sleb128 0
	.byte	0
.LVUS83:
	.uleb128 .LVU1334
	.uleb128 .LVU1336
.LLST83:
	.byte	0x8
	.quad	.LVL215
	.uleb128 .LVL215-.LVL215
	.uleb128 0x6
	.byte	0xa0
	.long	.Ldebug_info0+62477
	.sleb128 0
	.byte	0
.LVUS84:
	.uleb128 .LVU1336
	.uleb128 .LVU1343
.LLST84:
	.byte	0x8
	.quad	.LVL215
	.uleb128 .LVL215-.LVL215
	.uleb128 0x6
	.byte	0xa0
	.long	.Ldebug_info0+62477
	.sleb128 0
	.byte	0
.LVUS85:
	.uleb128 .LVU1338
	.uleb128 .LVU1343
.LLST85:
	.byte	0x8
	.quad	.LVL215
	.uleb128 .LVL215-.LVL215
	.uleb128 0x2
	.byte	0x30
	.byte	0x9f
	.byte	0
.LVUS86:
	.uleb128 .LVU1338
	.uleb128 .LVU1339
.LLST86:
	.byte	0x8
	.quad	.LVL215
	.uleb128 .LVL215-.LVL215
	.uleb128 0x6
	.byte	0xa0
	.long	.Ldebug_info0+62477
	.sleb128 0
	.byte	0
.LVUS87:
	.uleb128 .LVU1338
	.uleb128 .LVU1339
.LLST87:
	.byte	0x8
	.quad	.LVL215
	.uleb128 .LVL215-.LVL215
	.uleb128 0x2
	.byte	0x30
	.byte	0x9f
	.byte	0
.LVUS89:
	.uleb128 .LVU1339
	.uleb128 .LVU1343
.LLST89:
	.byte	0x8
	.quad	.LVL215
	.uleb128 .LVL215-.LVL215
	.uleb128 0x6
	.byte	0xa0
	.long	.Ldebug_info0+62477
	.sleb128 0
	.byte	0
.LVUS90:
	.uleb128 .LVU1341
	.uleb128 .LVU1343
.LLST90:
	.byte	0x8
	.quad	.LVL215
	.uleb128 .LVL215-.LVL215
	.uleb128 0x6
	.byte	0xa0
	.long	.Ldebug_info0+62477
	.sleb128 0
	.byte	0
.LVUS91:
	.uleb128 .LVU1342
	.uleb128 .LVU1343
.LLST91:
	.byte	0x8
	.quad	.LVL215
	.uleb128 .LVL215-.LVL215
	.uleb128 0x6
	.byte	0xa0
	.long	.Ldebug_info0+62477
	.sleb128 0
	.byte	0
.LVUS93:
	.uleb128 .LVU44
	.uleb128 .LVU51
	.uleb128 .LVU1345
	.uleb128 .LVU1352
.LLST93:
	.byte	0x8
	.quad	.LVL5
	.uleb128 .LVL5-.LVL5
	.uleb128 0x6
	.byte	0xa0
	.long	.Ldebug_info0+52897
	.sleb128 0
	.byte	0x8
	.quad	.LVL215
	.uleb128 .LVL215-.LVL215
	.uleb128 0x6
	.byte	0xa0
	.long	.Ldebug_info0+52897
	.sleb128 0
	.byte	0
.LVUS94:
	.uleb128 .LVU45
	.uleb128 .LVU51
	.uleb128 .LVU1346
	.uleb128 .LVU1352
.LLST94:
	.byte	0x8
	.quad	.LVL5
	.uleb128 .LVL5-.LVL5
	.uleb128 0x6
	.byte	0xa0
	.long	.Ldebug_info0+52897
	.sleb128 0
	.byte	0x8
	.quad	.LVL215
	.uleb128 .LVL215-.LVL215
	.uleb128 0x6
	.byte	0xa0
	.long	.Ldebug_info0+52897
	.sleb128 0
	.byte	0
.LVUS95:
	.uleb128 .LVU46
	.uleb128 .LVU51
	.uleb128 .LVU1347
	.uleb128 .LVU1352
.LLST95:
	.byte	0x8
	.quad	.LVL5
	.uleb128 .LVL5-.LVL5
	.uleb128 0x6
	.byte	0xa0
	.long	.Ldebug_info0+52897
	.sleb128 0
	.byte	0x8
	.quad	.LVL215
	.uleb128 .LVL215-.LVL215
	.uleb128 0x6
	.byte	0xa0
	.long	.Ldebug_info0+52897
	.sleb128 0
	.byte	0
.LVUS97:
	.uleb128 .LVU47
	.uleb128 .LVU49
	.uleb128 .LVU1348
	.uleb128 .LVU1350
.LLST97:
	.byte	0x8
	.quad	.LVL5
	.uleb128 .LVL5-.LVL5
	.uleb128 0x6
	.byte	0xa0
	.long	.Ldebug_info0+52897
	.sleb128 0
	.byte	0x8
	.quad	.LVL215
	.uleb128 .LVL215-.LVL215
	.uleb128 0x6
	.byte	0xa0
	.long	.Ldebug_info0+52897
	.sleb128 0
	.byte	0
.LVUS98:
	.uleb128 .LVU48
	.uleb128 .LVU49
	.uleb128 .LVU1349
	.uleb128 .LVU1350
.LLST98:
	.byte	0x8
	.quad	.LVL5
	.uleb128 .LVL5-.LVL5
	.uleb128 0x6
	.byte	0xa0
	.long	.Ldebug_info0+52897
	.sleb128 0
	.byte	0x8
	.quad	.LVL215
	.uleb128 .LVL215-.LVL215
	.uleb128 0x6
	.byte	0xa0
	.long	.Ldebug_info0+52897
	.sleb128 0
	.byte	0
.LVUS100:
	.uleb128 .LVU49
	.uleb128 .LVU51
	.uleb128 .LVU1350
	.uleb128 .LVU1352
.LLST100:
	.byte	0x8
	.quad	.LVL5
	.uleb128 .LVL5-.LVL5
	.uleb128 0x6
	.byte	0xa0
	.long	.Ldebug_info0+52897
	.sleb128 0
	.byte	0x8
	.quad	.LVL215
	.uleb128 .LVL215-.LVL215
	.uleb128 0x6
	.byte	0xa0
	.long	.Ldebug_info0+52897
	.sleb128 0
	.byte	0
.LVUS102:
	.uleb128 .LVU53
	.uleb128 .LVU55
	.uleb128 .LVU1354
	.uleb128 .LVU1356
.LLST102:
	.byte	0x6
	.quad	.LVL5
	.byte	0x4
	.uleb128 .LVL5-.LVL5
	.uleb128 .LVL6-.LVL5
	.uleb128 0x1
	.byte	0x54
	.byte	0x4
	.uleb128 .LVL215-.LVL5
	.uleb128 .LVL216-.LVL5
	.uleb128 0x1
	.byte	0x5c
	.byte	0
.LVUS104:
	.uleb128 .LVU55
	.uleb128 .LVU70
	.uleb128 .LVU1356
	.uleb128 .LVU1365
	.uleb128 .LVU1371
	.uleb128 .LVU1374
.LLST104:
	.byte	0x6
	.quad	.LVL6
	.byte	0x4
	.uleb128 .LVL6-.LVL6
	.uleb128 .LVL12-.LVL6
	.uleb128 0x6
	.byte	0xa0
	.long	.Ldebug_info0+52897
	.sleb128 0
	.byte	0x4
	.uleb128 .LVL216-.LVL6
	.uleb128 .LVL219-.LVL6
	.uleb128 0x6
	.byte	0xa0
	.long	.Ldebug_info0+52897
	.sleb128 0
	.byte	0x4
	.uleb128 .LVL222-.LVL6
	.uleb128 .LVL223-.LVL6
	.uleb128 0x6
	.byte	0xa0
	.long	.Ldebug_info0+52897
	.sleb128 0
	.byte	0
.LVUS105:
	.uleb128 .LVU55
	.uleb128 .LVU60
	.uleb128 .LVU60
	.uleb128 .LVU61
	.uleb128 .LVU1356
	.uleb128 .LVU1361
	.uleb128 .LVU1361
	.uleb128 .LVU1365
	.uleb128 .LVU1371
	.uleb128 .LVU1374
.LLST105:
	.byte	0x6
	.quad	.LVL6
	.byte	0x4
	.uleb128 .LVL6-.LVL6
	.uleb128 .LVL7-.LVL6
	.uleb128 0x9
	.byte	0x75
	.sleb128 0
	.byte	0x73
	.sleb128 0
	.byte	0x1c
	.byte	0x8
	.byte	0x30
	.byte	0x1b
	.byte	0x9f
	.byte	0x4
	.uleb128 .LVL7-.LVL6
	.uleb128 .LVL8-.LVL6
	.uleb128 0x6
	.byte	0x72
	.sleb128 0
	.byte	0x8
	.byte	0x30
	.byte	0x1b
	.byte	0x9f
	.byte	0x4
	.uleb128 .LVL216-.LVL6
	.uleb128 .LVL217-.LVL6
	.uleb128 0x9
	.byte	0x70
	.sleb128 0
	.byte	0x73
	.sleb128 0
	.byte	0x1c
	.byte	0x8
	.byte	0x30
	.byte	0x1b
	.byte	0x9f
	.byte	0x4
	.uleb128 .LVL217-.LVL6
	.uleb128 .LVL219-.LVL6
	.uleb128 0x6
	.byte	0x70
	.sleb128 0
	.byte	0x8
	.byte	0x30
	.byte	0x1b
	.byte	0x9f
	.byte	0x4
	.uleb128 .LVL222-.LVL6
	.uleb128 .LVL223-.LVL6
	.uleb128 0x6
	.byte	0x72
	.sleb128 0
	.byte	0x8
	.byte	0x30
	.byte	0x1b
	.byte	0x9f
	.byte	0
.LVUS106:
	.uleb128 .LVU61
	.uleb128 .LVU67
.LLST106:
	.byte	0x8
	.quad	.LVL8
	.uleb128 .LVL11-.LVL8
	.uleb128 0x2
	.byte	0x30
	.byte	0x9f
	.byte	0
.LVUS107:
	.uleb128 .LVU65
	.uleb128 .LVU67
.LLST107:
	.byte	0x8
	.quad	.LVL10
	.uleb128 .LVL11-.LVL10
	.uleb128 0x1
	.byte	0x50
	.byte	0
.LVUS108:
	.uleb128 .LVU61
	.uleb128 .LVU65
.LLST108:
	.byte	0x8
	.quad	.LVL8
	.uleb128 .LVL10-.LVL8
	.uleb128 0x6
	.byte	0xa0
	.long	.Ldebug_info0+52897
	.sleb128 0
	.byte	0
.LVUS109:
	.uleb128 .LVU62
	.uleb128 .LVU65
.LLST109:
	.byte	0x8
	.quad	.LVL8
	.uleb128 .LVL10-.LVL8
	.uleb128 0x6
	.byte	0xa0
	.long	.Ldebug_info0+52897
	.sleb128 0
	.byte	0
.LVUS110:
	.uleb128 .LVU64
	.uleb128 .LVU65
.LLST110:
	.byte	0x8
	.quad	.LVL8
	.uleb128 .LVL10-.LVL8
	.uleb128 0x2
	.byte	0x30
	.byte	0x9f
	.byte	0
.LVUS111:
	.uleb128 .LVU64
	.uleb128 .LVU65
.LLST111:
	.byte	0x8
	.quad	.LVL8
	.uleb128 .LVL10-.LVL8
	.uleb128 0x6
	.byte	0xa0
	.long	.Ldebug_info0+52897
	.sleb128 0
	.byte	0
.LVUS197:
	.uleb128 .LVU1269
	.uleb128 .LVU1286
.LLST197:
	.byte	0x8
	.quad	.LVL201
	.uleb128 .LVL203-.LVL201
	.uleb128 0x6
	.byte	0xa0
	.long	.Ldebug_info0+52897
	.sleb128 0
	.byte	0
.LVUS199:
	.uleb128 .LVU1274
	.uleb128 .LVU1286
.LLST199:
	.byte	0x8
	.quad	.LVL201
	.uleb128 .LVL203-.LVL201
	.uleb128 0x6
	.byte	0xa0
	.long	.Ldebug_info0+52897
	.sleb128 0
	.byte	0
.LVUS201:
	.uleb128 .LVU1276
	.uleb128 .LVU1282
.LLST201:
	.byte	0x8
	.quad	.LVL201
	.uleb128 .LVL203-.LVL201
	.uleb128 0x6
	.byte	0xa0
	.long	.Ldebug_info0+52897
	.sleb128 0
	.byte	0
.LVUS202:
	.uleb128 .LVU1279
	.uleb128 .LVU1282
.LLST202:
	.byte	0x8
	.quad	.LVL202
	.uleb128 .LVL203-.LVL202
	.uleb128 0x6
	.byte	0xa0
	.long	.Ldebug_info0+52897
	.sleb128 0
	.byte	0
.LVUS203:
	.uleb128 .LVU1282
	.uleb128 .LVU1286
.LLST203:
	.byte	0x8
	.quad	.LVL203
	.uleb128 .LVL203-.LVL203
	.uleb128 0x6
	.byte	0xa0
	.long	.Ldebug_info0+52897
	.sleb128 0
	.byte	0
.LVUS204:
	.uleb128 .LVU1284
	.uleb128 .LVU1286
.LLST204:
	.byte	0x8
	.quad	.LVL203
	.uleb128 .LVL203-.LVL203
	.uleb128 0x6
	.byte	0xa0
	.long	.Ldebug_info0+52897
	.sleb128 0
	.byte	0
.LVUS205:
	.uleb128 .LVU1285
	.uleb128 .LVU1286
.LLST205:
	.byte	0x8
	.quad	.LVL203
	.uleb128 .LVL203-.LVL203
	.uleb128 0x6
	.byte	0xa0
	.long	.Ldebug_info0+52897
	.sleb128 0
	.byte	0
.LVUS206:
	.uleb128 .LVU1271
	.uleb128 .LVU1272
.LLST206:
	.byte	0x8
	.quad	.LVL201
	.uleb128 .LVL201-.LVL201
	.uleb128 0x6
	.byte	0xa0
	.long	.Ldebug_info0+52897
	.sleb128 0
	.byte	0
.LVUS207:
	.uleb128 .LVU1272
	.uleb128 .LVU1274
.LLST207:
	.byte	0x8
	.quad	.LVL201
	.uleb128 .LVL201-.LVL201
	.uleb128 0x6
	.byte	0xa0
	.long	.Ldebug_info0+52897
	.sleb128 0
	.byte	0
.LVUS211:
	.uleb128 .LVU168
	.uleb128 .LVU177
	.uleb128 .LVU1457
	.uleb128 .LVU1459
	.uleb128 .LVU1541
	.uleb128 0
.LLST211:
	.byte	0x8
	.quad	.LVL37
	.uleb128 .LVL38-.LVL37
	.uleb128 0x1
	.byte	0x5e
	.byte	0x6
	.quad	.LVL252
	.byte	0x4
	.uleb128 .LVL252-.LVL252
	.uleb128 .LVL253-.LVL252
	.uleb128 0x1
	.byte	0x5e
	.byte	0x4
	.uleb128 .LVL273-.LVL252
	.uleb128 .LFE11707-.LVL252
	.uleb128 0x1
	.byte	0x5e
	.byte	0
.LVUS215:
	.uleb128 .LVU170
	.uleb128 .LVU177
	.uleb128 .LVU1457
	.uleb128 .LVU1459
	.uleb128 .LVU1541
	.uleb128 0
.LLST215:
	.byte	0x8
	.quad	.LVL37
	.uleb128 .LVL38-.LVL37
	.uleb128 0x1
	.byte	0x5e
	.byte	0x6
	.quad	.LVL252
	.byte	0x4
	.uleb128 .LVL252-.LVL252
	.uleb128 .LVL253-.LVL252
	.uleb128 0x1
	.byte	0x5e
	.byte	0x4
	.uleb128 .LVL273-.LVL252
	.uleb128 .LFE11707-.LVL252
	.uleb128 0x1
	.byte	0x5e
	.byte	0
.LVUS220:
	.uleb128 .LVU177
	.uleb128 .LVU191
	.uleb128 .LVU191
	.uleb128 .LVU194
	.uleb128 .LVU1448
	.uleb128 .LVU1449
.LLST220:
	.byte	0x6
	.quad	.LVL38
	.byte	0x4
	.uleb128 .LVL38-.LVL38
	.uleb128 .LVL40-.LVL38
	.uleb128 0x1
	.byte	0x5e
	.byte	0x4
	.uleb128 .LVL40-.LVL38
	.uleb128 .LVL42-.LVL38
	.uleb128 0xa
	.byte	0x77
	.sleb128 144
	.byte	0x6
	.byte	0x77
	.sleb128 224
	.byte	0x6
	.byte	0x1e
	.byte	0x9f
	.byte	0x4
	.uleb128 .LVL244-.LVL38
	.uleb128 .LVL246-.LVL38
	.uleb128 0xa
	.byte	0x77
	.sleb128 144
	.byte	0x6
	.byte	0x77
	.sleb128 224
	.byte	0x6
	.byte	0x1e
	.byte	0x9f
	.byte	0
.LVUS226:
	.uleb128 .LVU184
	.uleb128 .LVU191
	.uleb128 .LVU191
	.uleb128 .LVU194
	.uleb128 .LVU1448
	.uleb128 .LVU1449
.LLST226:
	.byte	0x6
	.quad	.LVL38
	.byte	0x4
	.uleb128 .LVL38-.LVL38
	.uleb128 .LVL40-.LVL38
	.uleb128 0x1
	.byte	0x5e
	.byte	0x4
	.uleb128 .LVL40-.LVL38
	.uleb128 .LVL42-.LVL38
	.uleb128 0xa
	.byte	0x77
	.sleb128 144
	.byte	0x6
	.byte	0x77
	.sleb128 224
	.byte	0x6
	.byte	0x1e
	.byte	0x9f
	.byte	0x4
	.uleb128 .LVL244-.LVL38
	.uleb128 .LVL246-.LVL38
	.uleb128 0xa
	.byte	0x77
	.sleb128 144
	.byte	0x6
	.byte	0x77
	.sleb128 224
	.byte	0x6
	.byte	0x1e
	.byte	0x9f
	.byte	0
.LVUS228:
	.uleb128 .LVU186
	.uleb128 .LVU191
	.uleb128 .LVU191
	.uleb128 .LVU194
	.uleb128 .LVU1448
	.uleb128 .LVU1449
.LLST228:
	.byte	0x6
	.quad	.LVL38
	.byte	0x4
	.uleb128 .LVL38-.LVL38
	.uleb128 .LVL40-.LVL38
	.uleb128 0x1
	.byte	0x5e
	.byte	0x4
	.uleb128 .LVL40-.LVL38
	.uleb128 .LVL42-.LVL38
	.uleb128 0xa
	.byte	0x77
	.sleb128 144
	.byte	0x6
	.byte	0x77
	.sleb128 224
	.byte	0x6
	.byte	0x1e
	.byte	0x9f
	.byte	0x4
	.uleb128 .LVL244-.LVL38
	.uleb128 .LVL246-.LVL38
	.uleb128 0xa
	.byte	0x77
	.sleb128 144
	.byte	0x6
	.byte	0x77
	.sleb128 224
	.byte	0x6
	.byte	0x1e
	.byte	0x9f
	.byte	0
.LVUS230:
	.uleb128 .LVU188
	.uleb128 .LVU191
	.uleb128 .LVU191
	.uleb128 .LVU194
	.uleb128 .LVU1448
	.uleb128 .LVU1449
.LLST230:
	.byte	0x6
	.quad	.LVL39
	.byte	0x4
	.uleb128 .LVL39-.LVL39
	.uleb128 .LVL40-.LVL39
	.uleb128 0x1
	.byte	0x5e
	.byte	0x4
	.uleb128 .LVL40-.LVL39
	.uleb128 .LVL42-.LVL39
	.uleb128 0xa
	.byte	0x77
	.sleb128 144
	.byte	0x6
	.byte	0x77
	.sleb128 224
	.byte	0x6
	.byte	0x1e
	.byte	0x9f
	.byte	0x4
	.uleb128 .LVL244-.LVL39
	.uleb128 .LVL246-.LVL39
	.uleb128 0xa
	.byte	0x77
	.sleb128 144
	.byte	0x6
	.byte	0x77
	.sleb128 224
	.byte	0x6
	.byte	0x1e
	.byte	0x9f
	.byte	0
.LVUS231:
	.uleb128 .LVU190
	.uleb128 .LVU194
	.uleb128 .LVU1448
	.uleb128 .LVU1449
.LLST231:
	.byte	0x6
	.quad	.LVL39
	.byte	0x4
	.uleb128 .LVL39-.LVL39
	.uleb128 .LVL42-.LVL39
	.uleb128 0x2
	.byte	0x30
	.byte	0x9f
	.byte	0x4
	.uleb128 .LVL244-.LVL39
	.uleb128 .LVL246-.LVL39
	.uleb128 0x2
	.byte	0x30
	.byte	0x9f
	.byte	0
.LVUS232:
	.uleb128 .LVU189
	.uleb128 .LVU191
	.uleb128 .LVU191
	.uleb128 .LVU194
	.uleb128 .LVU1448
	.uleb128 .LVU1449
.LLST232:
	.byte	0x6
	.quad	.LVL39
	.byte	0x4
	.uleb128 .LVL39-.LVL39
	.uleb128 .LVL40-.LVL39
	.uleb128 0x1
	.byte	0x5e
	.byte	0x4
	.uleb128 .LVL40-.LVL39
	.uleb128 .LVL42-.LVL39
	.uleb128 0xa
	.byte	0x77
	.sleb128 144
	.byte	0x6
	.byte	0x77
	.sleb128 224
	.byte	0x6
	.byte	0x1e
	.byte	0x9f
	.byte	0x4
	.uleb128 .LVL244-.LVL39
	.uleb128 .LVL246-.LVL39
	.uleb128 0xa
	.byte	0x77
	.sleb128 144
	.byte	0x6
	.byte	0x77
	.sleb128 224
	.byte	0x6
	.byte	0x1e
	.byte	0x9f
	.byte	0
.LVUS234:
	.uleb128 .LVU194
	.uleb128 .LVU204
.LLST234:
	.byte	0x8
	.quad	.LVL42
	.uleb128 .LVL43-.LVL42
	.uleb128 0x1
	.byte	0x5e
	.byte	0
.LVUS236:
	.uleb128 .LVU196
	.uleb128 .LVU204
	.uleb128 .LVU204
	.uleb128 .LVU204
.LLST236:
	.byte	0x6
	.quad	.LVL42
	.byte	0x4
	.uleb128 .LVL42-.LVL42
	.uleb128 .LVL43-1-.LVL42
	.uleb128 0x1
	.byte	0x50
	.byte	0x4
	.uleb128 .LVL43-1-.LVL42
	.uleb128 .LVL43-.LVL42
	.uleb128 0x3
	.byte	0x77
	.sleb128 64
	.byte	0
.LVUS237:
	.uleb128 .LVU196
	.uleb128 .LVU204
.LLST237:
	.byte	0x8
	.quad	.LVL42
	.uleb128 .LVL43-.LVL42
	.uleb128 0x1
	.byte	0x5e
	.byte	0
.LVUS239:
	.uleb128 .LVU197
	.uleb128 .LVU204
	.uleb128 .LVU204
	.uleb128 .LVU204
.LLST239:
	.byte	0x6
	.quad	.LVL42
	.byte	0x4
	.uleb128 .LVL42-.LVL42
	.uleb128 .LVL43-1-.LVL42
	.uleb128 0x1
	.byte	0x50
	.byte	0x4
	.uleb128 .LVL43-1-.LVL42
	.uleb128 .LVL43-.LVL42
	.uleb128 0x3
	.byte	0x77
	.sleb128 64
	.byte	0
.LVUS240:
	.uleb128 .LVU197
	.uleb128 .LVU204
.LLST240:
	.byte	0x8
	.quad	.LVL42
	.uleb128 .LVL43-.LVL42
	.uleb128 0x1
	.byte	0x5e
	.byte	0
.LVUS243:
	.uleb128 .LVU198
	.uleb128 .LVU204
	.uleb128 .LVU204
	.uleb128 .LVU204
.LLST243:
	.byte	0x6
	.quad	.LVL42
	.byte	0x4
	.uleb128 .LVL42-.LVL42
	.uleb128 .LVL43-1-.LVL42
	.uleb128 0x1
	.byte	0x50
	.byte	0x4
	.uleb128 .LVL43-1-.LVL42
	.uleb128 .LVL43-.LVL42
	.uleb128 0x3
	.byte	0x77
	.sleb128 64
	.byte	0
.LVUS244:
	.uleb128 .LVU198
	.uleb128 .LVU203
	.uleb128 .LVU203
	.uleb128 .LVU204
.LLST244:
	.byte	0x6
	.quad	.LVL42
	.byte	0x4
	.uleb128 .LVL42-.LVL42
	.uleb128 .LVL42-.LVL42
	.uleb128 0x1
	.byte	0x5e
	.byte	0x4
	.uleb128 .LVL42-.LVL42
	.uleb128 .LVL43-.LVL42
	.uleb128 0x3
	.byte	0x7e
	.sleb128 -1
	.byte	0x9f
	.byte	0
.LVUS247:
	.uleb128 .LVU199
	.uleb128 .LVU200
.LLST247:
	.byte	0x8
	.quad	.LVL42
	.uleb128 .LVL42-.LVL42
	.uleb128 0x6
	.byte	0xa0
	.long	.Ldebug_info0+66525
	.sleb128 0
	.byte	0
.LVUS248:
	.uleb128 .LVU199
	.uleb128 .LVU200
.LLST248:
	.byte	0x8
	.quad	.LVL42
	.uleb128 .LVL42-.LVL42
	.uleb128 0x6
	.byte	0xa0
	.long	.Ldebug_info0+66494
	.sleb128 0
	.byte	0
.LVUS249:
	.uleb128 .LVU204
	.uleb128 .LVU206
.LLST249:
	.byte	0x8
	.quad	.LVL43
	.uleb128 .LVL43-.LVL43
	.uleb128 0x6
	.byte	0xa0
	.long	.Ldebug_info0+66525
	.sleb128 0
	.byte	0
.LVUS255:
	.uleb128 .LVU217
	.uleb128 .LVU225
	.uleb128 .LVU225
	.uleb128 .LVU238
	.uleb128 .LVU238
	.uleb128 .LVU242
	.uleb128 .LVU242
	.uleb128 .LVU256
	.uleb128 .LVU256
	.uleb128 .LVU258
	.uleb128 .LVU1388
	.uleb128 .LVU1389
	.uleb128 .LVU1447
	.uleb128 .LVU1448
	.uleb128 .LVU1454
	.uleb128 .LVU1455
	.uleb128 .LVU1474
	.uleb128 .LVU1476
.LLST255:
	.byte	0x6
	.quad	.LVL44
	.byte	0x4
	.uleb128 .LVL44-.LVL44
	.uleb128 .LVL45-.LVL44
	.uleb128 0x1
	.byte	0x50
	.byte	0x4
	.uleb128 .LVL45-.LVL44
	.uleb128 .LVL47-.LVL44
	.uleb128 0x1
	.byte	0x53
	.byte	0x4
	.uleb128 .LVL47-.LVL44
	.uleb128 .LVL49-1-.LVL44
	.uleb128 0xa
	.byte	0x77
	.sleb128 224
	.byte	0x6
	.byte	0x23
	.uleb128 0x1
	.byte	0x79
	.sleb128 0
	.byte	0x1e
	.byte	0x9f
	.byte	0x4
	.uleb128 .LVL49-1-.LVL44
	.uleb128 .LVL52-.LVL44
	.uleb128 0xc
	.byte	0x77
	.sleb128 224
	.byte	0x6
	.byte	0x23
	.uleb128 0x1
	.byte	0x77
	.sleb128 240
	.byte	0x6
	.byte	0x1e
	.byte	0x9f
	.byte	0x4
	.uleb128 .LVL52-.LVL44
	.uleb128 .LVL52-.LVL44
	.uleb128 0xe
	.byte	0x77
	.sleb128 224
	.byte	0x6
	.byte	0x23
	.uleb128 0x1
	.byte	0x77
	.sleb128 144
	.byte	0x6
	.byte	0x23
	.uleb128 0x1
	.byte	0x1e
	.byte	0x9f
	.byte	0x4
	.uleb128 .LVL225-.LVL44
	.uleb128 .LVL226-.LVL44
	.uleb128 0x1
	.byte	0x53
	.byte	0x4
	.uleb128 .LVL243-.LVL44
	.uleb128 .LVL244-.LVL44
	.uleb128 0xc
	.byte	0x77
	.sleb128 224
	.byte	0x6
	.byte	0x23
	.uleb128 0x1
	.byte	0x77
	.sleb128 240
	.byte	0x6
	.byte	0x1e
	.byte	0x9f
	.byte	0x6
	.quad	.LVL250
	.byte	0x4
	.uleb128 .LVL250-.LVL250
	.uleb128 .LVL251-.LVL250
	.uleb128 0x1
	.byte	0x53
	.byte	0x4
	.uleb128 .LVL256-.LVL250
	.uleb128 .LVL257-.LVL250
	.uleb128 0xe
	.byte	0x77
	.sleb128 224
	.byte	0x6
	.byte	0x23
	.uleb128 0x1
	.byte	0x77
	.sleb128 144
	.byte	0x6
	.byte	0x23
	.uleb128 0x1
	.byte	0x1e
	.byte	0x9f
	.byte	0
.LVUS259:
	.uleb128 .LVU218
	.uleb128 .LVU225
	.uleb128 .LVU225
	.uleb128 .LVU226
	.uleb128 .LVU1454
	.uleb128 .LVU1455
.LLST259:
	.byte	0x6
	.quad	.LVL44
	.byte	0x4
	.uleb128 .LVL44-.LVL44
	.uleb128 .LVL45-.LVL44
	.uleb128 0x1
	.byte	0x50
	.byte	0x4
	.uleb128 .LVL45-.LVL44
	.uleb128 .LVL46-.LVL44
	.uleb128 0x1
	.byte	0x53
	.byte	0x8
	.quad	.LVL250
	.uleb128 .LVL251-.LVL250
	.uleb128 0x1
	.byte	0x53
	.byte	0
.LVUS264:
	.uleb128 .LVU226
	.uleb128 .LVU238
	.uleb128 .LVU238
	.uleb128 .LVU242
	.uleb128 .LVU242
	.uleb128 .LVU245
	.uleb128 .LVU1388
	.uleb128 .LVU1389
	.uleb128 .LVU1447
	.uleb128 .LVU1448
.LLST264:
	.byte	0x6
	.quad	.LVL46
	.byte	0x4
	.uleb128 .LVL46-.LVL46
	.uleb128 .LVL47-.LVL46
	.uleb128 0x1
	.byte	0x53
	.byte	0x4
	.uleb128 .LVL47-.LVL46
	.uleb128 .LVL49-1-.LVL46
	.uleb128 0xa
	.byte	0x77
	.sleb128 224
	.byte	0x6
	.byte	0x23
	.uleb128 0x1
	.byte	0x79
	.sleb128 0
	.byte	0x1e
	.byte	0x9f
	.byte	0x4
	.uleb128 .LVL49-1-.LVL46
	.uleb128 .LVL50-.LVL46
	.uleb128 0xc
	.byte	0x77
	.sleb128 224
	.byte	0x6
	.byte	0x23
	.uleb128 0x1
	.byte	0x77
	.sleb128 240
	.byte	0x6
	.byte	0x1e
	.byte	0x9f
	.byte	0x4
	.uleb128 .LVL225-.LVL46
	.uleb128 .LVL226-.LVL46
	.uleb128 0x1
	.byte	0x53
	.byte	0x4
	.uleb128 .LVL243-.LVL46
	.uleb128 .LVL244-.LVL46
	.uleb128 0xc
	.byte	0x77
	.sleb128 224
	.byte	0x6
	.byte	0x23
	.uleb128 0x1
	.byte	0x77
	.sleb128 240
	.byte	0x6
	.byte	0x1e
	.byte	0x9f
	.byte	0
.LVUS270:
	.uleb128 .LVU233
	.uleb128 .LVU238
	.uleb128 .LVU238
	.uleb128 .LVU242
	.uleb128 .LVU242
	.uleb128 .LVU245
	.uleb128 .LVU1388
	.uleb128 .LVU1389
	.uleb128 .LVU1447
	.uleb128 .LVU1448
.LLST270:
	.byte	0x6
	.quad	.LVL46
	.byte	0x4
	.uleb128 .LVL46-.LVL46
	.uleb128 .LVL47-.LVL46
	.uleb128 0x1
	.byte	0x53
	.byte	0x4
	.uleb128 .LVL47-.LVL46
	.uleb128 .LVL49-1-.LVL46
	.uleb128 0xa
	.byte	0x77
	.sleb128 224
	.byte	0x6
	.byte	0x23
	.uleb128 0x1
	.byte	0x79
	.sleb128 0
	.byte	0x1e
	.byte	0x9f
	.byte	0x4
	.uleb128 .LVL49-1-.LVL46
	.uleb128 .LVL50-.LVL46
	.uleb128 0xc
	.byte	0x77
	.sleb128 224
	.byte	0x6
	.byte	0x23
	.uleb128 0x1
	.byte	0x77
	.sleb128 240
	.byte	0x6
	.byte	0x1e
	.byte	0x9f
	.byte	0x4
	.uleb128 .LVL225-.LVL46
	.uleb128 .LVL226-.LVL46
	.uleb128 0x1
	.byte	0x53
	.byte	0x4
	.uleb128 .LVL243-.LVL46
	.uleb128 .LVL244-.LVL46
	.uleb128 0xc
	.byte	0x77
	.sleb128 224
	.byte	0x6
	.byte	0x23
	.uleb128 0x1
	.byte	0x77
	.sleb128 240
	.byte	0x6
	.byte	0x1e
	.byte	0x9f
	.byte	0
.LVUS272:
	.uleb128 .LVU235
	.uleb128 .LVU238
	.uleb128 .LVU238
	.uleb128 .LVU242
	.uleb128 .LVU242
	.uleb128 .LVU245
	.uleb128 .LVU1388
	.uleb128 .LVU1389
	.uleb128 .LVU1447
	.uleb128 .LVU1448
.LLST272:
	.byte	0x6
	.quad	.LVL46
	.byte	0x4
	.uleb128 .LVL46-.LVL46
	.uleb128 .LVL47-.LVL46
	.uleb128 0x1
	.byte	0x53
	.byte	0x4
	.uleb128 .LVL47-.LVL46
	.uleb128 .LVL49-1-.LVL46
	.uleb128 0xa
	.byte	0x77
	.sleb128 224
	.byte	0x6
	.byte	0x23
	.uleb128 0x1
	.byte	0x79
	.sleb128 0
	.byte	0x1e
	.byte	0x9f
	.byte	0x4
	.uleb128 .LVL49-1-.LVL46
	.uleb128 .LVL50-.LVL46
	.uleb128 0xc
	.byte	0x77
	.sleb128 224
	.byte	0x6
	.byte	0x23
	.uleb128 0x1
	.byte	0x77
	.sleb128 240
	.byte	0x6
	.byte	0x1e
	.byte	0x9f
	.byte	0x4
	.uleb128 .LVL225-.LVL46
	.uleb128 .LVL226-.LVL46
	.uleb128 0x1
	.byte	0x53
	.byte	0x4
	.uleb128 .LVL243-.LVL46
	.uleb128 .LVL244-.LVL46
	.uleb128 0xc
	.byte	0x77
	.sleb128 224
	.byte	0x6
	.byte	0x23
	.uleb128 0x1
	.byte	0x77
	.sleb128 240
	.byte	0x6
	.byte	0x1e
	.byte	0x9f
	.byte	0
.LVUS275:
	.uleb128 .LVU241
	.uleb128 .LVU245
	.uleb128 .LVU1447
	.uleb128 .LVU1448
.LLST275:
	.byte	0x6
	.quad	.LVL48
	.byte	0x4
	.uleb128 .LVL48-.LVL48
	.uleb128 .LVL50-.LVL48
	.uleb128 0x2
	.byte	0x30
	.byte	0x9f
	.byte	0x4
	.uleb128 .LVL243-.LVL48
	.uleb128 .LVL244-.LVL48
	.uleb128 0x2
	.byte	0x30
	.byte	0x9f
	.byte	0
.LVUS277:
	.uleb128 .LVU245
	.uleb128 .LVU256
.LLST277:
	.byte	0x8
	.quad	.LVL50
	.uleb128 .LVL52-.LVL50
	.uleb128 0x1
	.byte	0x53
	.byte	0
.LVUS279:
	.uleb128 .LVU247
	.uleb128 .LVU255
	.uleb128 .LVU255
	.uleb128 .LVU256
.LLST279:
	.byte	0x6
	.quad	.LVL50
	.byte	0x4
	.uleb128 .LVL50-.LVL50
	.uleb128 .LVL51-1-.LVL50
	.uleb128 0x1
	.byte	0x50
	.byte	0x4
	.uleb128 .LVL51-1-.LVL50
	.uleb128 .LVL52-.LVL50
	.uleb128 0x1
	.byte	0x5c
	.byte	0
.LVUS280:
	.uleb128 .LVU247
	.uleb128 .LVU256
.LLST280:
	.byte	0x8
	.quad	.LVL50
	.uleb128 .LVL52-.LVL50
	.uleb128 0x1
	.byte	0x53
	.byte	0
.LVUS282:
	.uleb128 .LVU248
	.uleb128 .LVU255
	.uleb128 .LVU255
	.uleb128 .LVU256
.LLST282:
	.byte	0x6
	.quad	.LVL50
	.byte	0x4
	.uleb128 .LVL50-.LVL50
	.uleb128 .LVL51-1-.LVL50
	.uleb128 0x1
	.byte	0x50
	.byte	0x4
	.uleb128 .LVL51-1-.LVL50
	.uleb128 .LVL52-.LVL50
	.uleb128 0x1
	.byte	0x5c
	.byte	0
.LVUS283:
	.uleb128 .LVU248
	.uleb128 .LVU256
.LLST283:
	.byte	0x8
	.quad	.LVL50
	.uleb128 .LVL52-.LVL50
	.uleb128 0x1
	.byte	0x53
	.byte	0
.LVUS286:
	.uleb128 .LVU249
	.uleb128 .LVU255
	.uleb128 .LVU255
	.uleb128 .LVU255
.LLST286:
	.byte	0x6
	.quad	.LVL50
	.byte	0x4
	.uleb128 .LVL50-.LVL50
	.uleb128 .LVL51-1-.LVL50
	.uleb128 0x1
	.byte	0x50
	.byte	0x4
	.uleb128 .LVL51-1-.LVL50
	.uleb128 .LVL51-.LVL50
	.uleb128 0x1
	.byte	0x5c
	.byte	0
.LVUS287:
	.uleb128 .LVU249
	.uleb128 .LVU254
	.uleb128 .LVU254
	.uleb128 .LVU255
.LLST287:
	.byte	0x6
	.quad	.LVL50
	.byte	0x4
	.uleb128 .LVL50-.LVL50
	.uleb128 .LVL50-.LVL50
	.uleb128 0x1
	.byte	0x53
	.byte	0x4
	.uleb128 .LVL50-.LVL50
	.uleb128 .LVL51-.LVL50
	.uleb128 0x3
	.byte	0x73
	.sleb128 -1
	.byte	0x9f
	.byte	0
.LVUS290:
	.uleb128 .LVU250
	.uleb128 .LVU251
.LLST290:
	.byte	0x8
	.quad	.LVL50
	.uleb128 .LVL50-.LVL50
	.uleb128 0x6
	.byte	0xa0
	.long	.Ldebug_info0+67819
	.sleb128 0
	.byte	0
.LVUS291:
	.uleb128 .LVU250
	.uleb128 .LVU251
.LLST291:
	.byte	0x8
	.quad	.LVL50
	.uleb128 .LVL50-.LVL50
	.uleb128 0x6
	.byte	0xa0
	.long	.Ldebug_info0+67788
	.sleb128 0
	.byte	0
.LVUS292:
	.uleb128 .LVU256
	.uleb128 .LVU258
.LLST292:
	.byte	0x8
	.quad	.LVL52
	.uleb128 .LVL52-.LVL52
	.uleb128 0x6
	.byte	0xa0
	.long	.Ldebug_info0+67819
	.sleb128 0
	.byte	0
.LVUS314:
	.uleb128 .LVU349
	.uleb128 .LVU389
	.uleb128 .LVU1445
	.uleb128 .LVU1447
	.uleb128 .LVU1459
	.uleb128 .LVU1474
	.uleb128 .LVU1533
	.uleb128 .LVU1538
.LLST314:
	.byte	0x6
	.quad	.LVL73
	.byte	0x4
	.uleb128 .LVL73-.LVL73
	.uleb128 .LVL77-.LVL73
	.uleb128 0x4
	.byte	0xa
	.value	0x1800
	.byte	0x9f
	.byte	0x4
	.uleb128 .LVL242-.LVL73
	.uleb128 .LVL243-.LVL73
	.uleb128 0x4
	.byte	0xa
	.value	0x1800
	.byte	0x9f
	.byte	0x6
	.quad	.LVL253
	.byte	0x4
	.uleb128 .LVL253-.LVL253
	.uleb128 .LVL256-.LVL253
	.uleb128 0x4
	.byte	0xa
	.value	0x1800
	.byte	0x9f
	.byte	0x4
	.uleb128 .LVL267-.LVL253
	.uleb128 .LVL270-.LVL253
	.uleb128 0x4
	.byte	0xa
	.value	0x1800
	.byte	0x9f
	.byte	0
.LVUS316:
	.uleb128 .LVU351
	.uleb128 .LVU357
.LLST316:
	.byte	0x8
	.quad	.LVL73
	.uleb128 .LVL73-.LVL73
	.uleb128 0x4
	.byte	0xa
	.value	0x1800
	.byte	0x9f
	.byte	0
.LVUS320:
	.uleb128 .LVU357
	.uleb128 .LVU370
	.uleb128 .LVU1445
	.uleb128 .LVU1447
	.uleb128 .LVU1459
	.uleb128 .LVU1474
	.uleb128 .LVU1533
	.uleb128 .LVU1538
.LLST320:
	.byte	0x6
	.quad	.LVL73
	.byte	0x4
	.uleb128 .LVL73-.LVL73
	.uleb128 .LVL74-.LVL73
	.uleb128 0x4
	.byte	0xa
	.value	0x1800
	.byte	0x9f
	.byte	0x4
	.uleb128 .LVL242-.LVL73
	.uleb128 .LVL243-.LVL73
	.uleb128 0x4
	.byte	0xa
	.value	0x1800
	.byte	0x9f
	.byte	0x6
	.quad	.LVL253
	.byte	0x4
	.uleb128 .LVL253-.LVL253
	.uleb128 .LVL256-.LVL253
	.uleb128 0x4
	.byte	0xa
	.value	0x1800
	.byte	0x9f
	.byte	0x4
	.uleb128 .LVL267-.LVL253
	.uleb128 .LVL270-.LVL253
	.uleb128 0x4
	.byte	0xa
	.value	0x1800
	.byte	0x9f
	.byte	0
.LVUS325:
	.uleb128 .LVU364
	.uleb128 .LVU370
	.uleb128 .LVU1445
	.uleb128 .LVU1447
	.uleb128 .LVU1459
	.uleb128 .LVU1474
	.uleb128 .LVU1533
	.uleb128 .LVU1538
.LLST325:
	.byte	0x6
	.quad	.LVL73
	.byte	0x4
	.uleb128 .LVL73-.LVL73
	.uleb128 .LVL74-.LVL73
	.uleb128 0x4
	.byte	0xa
	.value	0x1800
	.byte	0x9f
	.byte	0x4
	.uleb128 .LVL242-.LVL73
	.uleb128 .LVL243-.LVL73
	.uleb128 0x4
	.byte	0xa
	.value	0x1800
	.byte	0x9f
	.byte	0x6
	.quad	.LVL253
	.byte	0x4
	.uleb128 .LVL253-.LVL253
	.uleb128 .LVL256-.LVL253
	.uleb128 0x4
	.byte	0xa
	.value	0x1800
	.byte	0x9f
	.byte	0x4
	.uleb128 .LVL267-.LVL253
	.uleb128 .LVL270-.LVL253
	.uleb128 0x4
	.byte	0xa
	.value	0x1800
	.byte	0x9f
	.byte	0
.LVUS326:
	.uleb128 .LVU366
	.uleb128 .LVU370
	.uleb128 .LVU1445
	.uleb128 .LVU1447
	.uleb128 .LVU1459
	.uleb128 .LVU1474
	.uleb128 .LVU1533
	.uleb128 .LVU1538
.LLST326:
	.byte	0x6
	.quad	.LVL73
	.byte	0x4
	.uleb128 .LVL73-.LVL73
	.uleb128 .LVL74-.LVL73
	.uleb128 0x4
	.byte	0xa
	.value	0x1800
	.byte	0x9f
	.byte	0x4
	.uleb128 .LVL242-.LVL73
	.uleb128 .LVL243-.LVL73
	.uleb128 0x4
	.byte	0xa
	.value	0x1800
	.byte	0x9f
	.byte	0x6
	.quad	.LVL253
	.byte	0x4
	.uleb128 .LVL253-.LVL253
	.uleb128 .LVL256-.LVL253
	.uleb128 0x4
	.byte	0xa
	.value	0x1800
	.byte	0x9f
	.byte	0x4
	.uleb128 .LVL267-.LVL253
	.uleb128 .LVL270-.LVL253
	.uleb128 0x4
	.byte	0xa
	.value	0x1800
	.byte	0x9f
	.byte	0
.LVUS327:
	.uleb128 .LVU367
	.uleb128 .LVU370
	.uleb128 .LVU1445
	.uleb128 .LVU1447
.LLST327:
	.byte	0x6
	.quad	.LVL73
	.byte	0x4
	.uleb128 .LVL73-.LVL73
	.uleb128 .LVL74-.LVL73
	.uleb128 0x4
	.byte	0xa
	.value	0x1800
	.byte	0x9f
	.byte	0x4
	.uleb128 .LVL242-.LVL73
	.uleb128 .LVL243-.LVL73
	.uleb128 0x4
	.byte	0xa
	.value	0x1800
	.byte	0x9f
	.byte	0
.LVUS328:
	.uleb128 .LVU369
	.uleb128 .LVU370
	.uleb128 .LVU1445
	.uleb128 .LVU1447
	.uleb128 .LVU1459
	.uleb128 .LVU1474
	.uleb128 .LVU1533
	.uleb128 .LVU1538
.LLST328:
	.byte	0x6
	.quad	.LVL73
	.byte	0x4
	.uleb128 .LVL73-.LVL73
	.uleb128 .LVL74-.LVL73
	.uleb128 0x2
	.byte	0x30
	.byte	0x9f
	.byte	0x4
	.uleb128 .LVL242-.LVL73
	.uleb128 .LVL243-.LVL73
	.uleb128 0x2
	.byte	0x30
	.byte	0x9f
	.byte	0x6
	.quad	.LVL253
	.byte	0x4
	.uleb128 .LVL253-.LVL253
	.uleb128 .LVL256-.LVL253
	.uleb128 0x2
	.byte	0x30
	.byte	0x9f
	.byte	0x4
	.uleb128 .LVL267-.LVL253
	.uleb128 .LVL270-.LVL253
	.uleb128 0x2
	.byte	0x30
	.byte	0x9f
	.byte	0
.LVUS329:
	.uleb128 .LVU368
	.uleb128 .LVU370
	.uleb128 .LVU1445
	.uleb128 .LVU1447
	.uleb128 .LVU1459
	.uleb128 .LVU1474
	.uleb128 .LVU1533
	.uleb128 .LVU1538
.LLST329:
	.byte	0x6
	.quad	.LVL73
	.byte	0x4
	.uleb128 .LVL73-.LVL73
	.uleb128 .LVL74-.LVL73
	.uleb128 0x4
	.byte	0xa
	.value	0x1800
	.byte	0x9f
	.byte	0x4
	.uleb128 .LVL242-.LVL73
	.uleb128 .LVL243-.LVL73
	.uleb128 0x4
	.byte	0xa
	.value	0x1800
	.byte	0x9f
	.byte	0x6
	.quad	.LVL253
	.byte	0x4
	.uleb128 .LVL253-.LVL253
	.uleb128 .LVL256-.LVL253
	.uleb128 0x4
	.byte	0xa
	.value	0x1800
	.byte	0x9f
	.byte	0x4
	.uleb128 .LVL267-.LVL253
	.uleb128 .LVL270-.LVL253
	.uleb128 0x4
	.byte	0xa
	.value	0x1800
	.byte	0x9f
	.byte	0
.LVUS330:
	.uleb128 .LVU370
	.uleb128 .LVU389
.LLST330:
	.byte	0x8
	.quad	.LVL74
	.uleb128 .LVL77-.LVL74
	.uleb128 0x4
	.byte	0xa
	.value	0x1800
	.byte	0x9f
	.byte	0
.LVUS331:
	.uleb128 .LVU372
	.uleb128 .LVU389
	.uleb128 .LVU389
	.uleb128 .LVU389
.LLST331:
	.byte	0x6
	.quad	.LVL74
	.byte	0x4
	.uleb128 .LVL74-.LVL74
	.uleb128 .LVL77-1-.LVL74
	.uleb128 0x1
	.byte	0x50
	.byte	0x4
	.uleb128 .LVL77-1-.LVL74
	.uleb128 .LVL77-.LVL74
	.uleb128 0x2
	.byte	0x77
	.sleb128 40
	.byte	0
.LVUS332:
	.uleb128 .LVU372
	.uleb128 .LVU389
.LLST332:
	.byte	0x8
	.quad	.LVL74
	.uleb128 .LVL77-.LVL74
	.uleb128 0x4
	.byte	0xa
	.value	0x1800
	.byte	0x9f
	.byte	0
.LVUS333:
	.uleb128 .LVU373
	.uleb128 .LVU389
	.uleb128 .LVU389
	.uleb128 .LVU389
.LLST333:
	.byte	0x6
	.quad	.LVL74
	.byte	0x4
	.uleb128 .LVL74-.LVL74
	.uleb128 .LVL77-1-.LVL74
	.uleb128 0x1
	.byte	0x50
	.byte	0x4
	.uleb128 .LVL77-1-.LVL74
	.uleb128 .LVL77-.LVL74
	.uleb128 0x2
	.byte	0x77
	.sleb128 40
	.byte	0
.LVUS334:
	.uleb128 .LVU373
	.uleb128 .LVU389
.LLST334:
	.byte	0x8
	.quad	.LVL74
	.uleb128 .LVL77-.LVL74
	.uleb128 0x4
	.byte	0xa
	.value	0x1800
	.byte	0x9f
	.byte	0
.LVUS335:
	.uleb128 .LVU374
	.uleb128 .LVU1290
	.uleb128 .LVU1365
	.uleb128 .LVU1371
.LLST335:
	.byte	0x6
	.quad	.LVL74
	.byte	0x4
	.uleb128 .LVL74-.LVL74
	.uleb128 .LVL206-.LVL74
	.uleb128 0x2
	.byte	0x31
	.byte	0x9f
	.byte	0x4
	.uleb128 .LVL219-.LVL74
	.uleb128 .LVL222-.LVL74
	.uleb128 0x2
	.byte	0x31
	.byte	0x9f
	.byte	0
.LVUS336:
	.uleb128 .LVU374
	.uleb128 .LVU389
	.uleb128 .LVU389
	.uleb128 .LVU389
.LLST336:
	.byte	0x6
	.quad	.LVL74
	.byte	0x4
	.uleb128 .LVL74-.LVL74
	.uleb128 .LVL77-1-.LVL74
	.uleb128 0x1
	.byte	0x50
	.byte	0x4
	.uleb128 .LVL77-1-.LVL74
	.uleb128 .LVL77-.LVL74
	.uleb128 0x2
	.byte	0x77
	.sleb128 40
	.byte	0
.LVUS337:
	.uleb128 .LVU374
	.uleb128 .LVU389
.LLST337:
	.byte	0x8
	.quad	.LVL74
	.uleb128 .LVL77-.LVL74
	.uleb128 0x4
	.byte	0xa
	.value	0x1800
	.byte	0x9f
	.byte	0
.LVUS338:
	.uleb128 .LVU375
	.uleb128 .LVU378
	.uleb128 .LVU378
	.uleb128 .LVU386
	.uleb128 .LVU386
	.uleb128 .LVU389
	.uleb128 .LVU389
	.uleb128 .LVU389
.LLST338:
	.byte	0x6
	.quad	.LVL74
	.byte	0x4
	.uleb128 .LVL74-.LVL74
	.uleb128 .LVL75-.LVL74
	.uleb128 0x1
	.byte	0x50
	.byte	0x4
	.uleb128 .LVL75-.LVL74
	.uleb128 .LVL76-.LVL74
	.uleb128 0x3
	.byte	0x70
	.sleb128 4
	.byte	0x9f
	.byte	0x4
	.uleb128 .LVL76-.LVL74
	.uleb128 .LVL77-1-.LVL74
	.uleb128 0x1
	.byte	0x55
	.byte	0x4
	.uleb128 .LVL77-1-.LVL74
	.uleb128 .LVL77-.LVL74
	.uleb128 0x6
	.byte	0x77
	.sleb128 40
	.byte	0x6
	.byte	0x23
	.uleb128 0x4
	.byte	0x9f
	.byte	0
.LVUS339:
	.uleb128 .LVU375
	.uleb128 .LVU389
.LLST339:
	.byte	0x8
	.quad	.LVL74
	.uleb128 .LVL77-.LVL74
	.uleb128 0x4
	.byte	0xa
	.value	0x1800
	.byte	0x9f
	.byte	0
.LVUS340:
	.uleb128 .LVU376
	.uleb128 .LVU389
	.uleb128 .LVU389
	.uleb128 .LVU1288
	.uleb128 .LVU1288
	.uleb128 .LVU1289
	.uleb128 .LVU1289
	.uleb128 .LVU1290
	.uleb128 .LVU1365
	.uleb128 .LVU1371
.LLST340:
	.byte	0x6
	.quad	.LVL74
	.byte	0x4
	.uleb128 .LVL74-.LVL74
	.uleb128 .LVL77-1-.LVL74
	.uleb128 0x1
	.byte	0x50
	.byte	0x4
	.uleb128 .LVL77-1-.LVL74
	.uleb128 .LVL204-.LVL74
	.uleb128 0x2
	.byte	0x77
	.sleb128 40
	.byte	0x4
	.uleb128 .LVL204-.LVL74
	.uleb128 .LVL205-.LVL74
	.uleb128 0x8
	.byte	0x76
	.sleb128 -40
	.byte	0x9
	.byte	0xe0
	.byte	0x1a
	.byte	0x8
	.byte	0xd8
	.byte	0x1c
	.byte	0x4
	.uleb128 .LVL205-.LVL74
	.uleb128 .LVL206-.LVL74
	.uleb128 0x8
	.byte	0x77
	.sleb128 -48
	.byte	0x9
	.byte	0xe0
	.byte	0x1a
	.byte	0x8
	.byte	0xd8
	.byte	0x1c
	.byte	0x4
	.uleb128 .LVL219-.LVL74
	.uleb128 .LVL222-.LVL74
	.uleb128 0x2
	.byte	0x77
	.sleb128 40
	.byte	0
.LVUS341:
	.uleb128 .LVU376
	.uleb128 .LVU378
.LLST341:
	.byte	0x8
	.quad	.LVL74
	.uleb128 .LVL75-.LVL74
	.uleb128 0x1
	.byte	0x50
	.byte	0
.LVUS343:
	.uleb128 .LVU378
	.uleb128 .LVU386
	.uleb128 .LVU386
	.uleb128 .LVU389
	.uleb128 .LVU389
	.uleb128 .LVU389
.LLST343:
	.byte	0x6
	.quad	.LVL75
	.byte	0x4
	.uleb128 .LVL75-.LVL75
	.uleb128 .LVL76-.LVL75
	.uleb128 0x3
	.byte	0x70
	.sleb128 4
	.byte	0x9f
	.byte	0x4
	.uleb128 .LVL76-.LVL75
	.uleb128 .LVL77-1-.LVL75
	.uleb128 0x1
	.byte	0x55
	.byte	0x4
	.uleb128 .LVL77-1-.LVL75
	.uleb128 .LVL77-.LVL75
	.uleb128 0x6
	.byte	0x77
	.sleb128 40
	.byte	0x6
	.byte	0x23
	.uleb128 0x4
	.byte	0x9f
	.byte	0
.LVUS344:
	.uleb128 .LVU378
	.uleb128 .LVU389
.LLST344:
	.byte	0x8
	.quad	.LVL75
	.uleb128 .LVL77-.LVL75
	.uleb128 0x4
	.byte	0xa
	.value	0x17ff
	.byte	0x9f
	.byte	0
.LVUS345:
	.uleb128 .LVU378
	.uleb128 .LVU389
	.uleb128 .LVU389
	.uleb128 .LVU389
.LLST345:
	.byte	0x6
	.quad	.LVL75
	.byte	0x4
	.uleb128 .LVL75-.LVL75
	.uleb128 .LVL77-1-.LVL75
	.uleb128 0x1
	.byte	0x50
	.byte	0x4
	.uleb128 .LVL77-1-.LVL75
	.uleb128 .LVL77-.LVL75
	.uleb128 0x2
	.byte	0x77
	.sleb128 40
	.byte	0
.LVUS346:
	.uleb128 .LVU380
	.uleb128 .LVU386
	.uleb128 .LVU386
	.uleb128 .LVU389
	.uleb128 .LVU389
	.uleb128 .LVU389
.LLST346:
	.byte	0x6
	.quad	.LVL75
	.byte	0x4
	.uleb128 .LVL75-.LVL75
	.uleb128 .LVL76-.LVL75
	.uleb128 0x3
	.byte	0x70
	.sleb128 4
	.byte	0x9f
	.byte	0x4
	.uleb128 .LVL76-.LVL75
	.uleb128 .LVL77-1-.LVL75
	.uleb128 0x1
	.byte	0x55
	.byte	0x4
	.uleb128 .LVL77-1-.LVL75
	.uleb128 .LVL77-.LVL75
	.uleb128 0x6
	.byte	0x77
	.sleb128 40
	.byte	0x6
	.byte	0x23
	.uleb128 0x4
	.byte	0x9f
	.byte	0
.LVUS347:
	.uleb128 .LVU380
	.uleb128 .LVU389
.LLST347:
	.byte	0x8
	.quad	.LVL75
	.uleb128 .LVL77-.LVL75
	.uleb128 0x4
	.byte	0xa
	.value	0x17ff
	.byte	0x9f
	.byte	0
.LVUS348:
	.uleb128 .LVU380
	.uleb128 .LVU389
	.uleb128 .LVU389
	.uleb128 .LVU389
.LLST348:
	.byte	0x6
	.quad	.LVL75
	.byte	0x4
	.uleb128 .LVL75-.LVL75
	.uleb128 .LVL77-1-.LVL75
	.uleb128 0x1
	.byte	0x50
	.byte	0x4
	.uleb128 .LVL77-1-.LVL75
	.uleb128 .LVL77-.LVL75
	.uleb128 0x2
	.byte	0x77
	.sleb128 40
	.byte	0
.LVUS349:
	.uleb128 .LVU381
	.uleb128 .LVU1290
	.uleb128 .LVU1365
	.uleb128 .LVU1371
.LLST349:
	.byte	0x6
	.quad	.LVL75
	.byte	0x4
	.uleb128 .LVL75-.LVL75
	.uleb128 .LVL206-.LVL75
	.uleb128 0x4
	.byte	0xa
	.value	0x17ff
	.byte	0x9f
	.byte	0x4
	.uleb128 .LVL219-.LVL75
	.uleb128 .LVL222-.LVL75
	.uleb128 0x4
	.byte	0xa
	.value	0x17ff
	.byte	0x9f
	.byte	0
.LVUS350:
	.uleb128 .LVU381
	.uleb128 .LVU389
	.uleb128 .LVU389
	.uleb128 .LVU389
.LLST350:
	.byte	0x6
	.quad	.LVL75
	.byte	0x4
	.uleb128 .LVL75-.LVL75
	.uleb128 .LVL77-1-.LVL75
	.uleb128 0x5
	.byte	0x70
	.sleb128 24576
	.byte	0x9f
	.byte	0x4
	.uleb128 .LVL77-1-.LVL75
	.uleb128 .LVL77-.LVL75
	.uleb128 0x8
	.byte	0x77
	.sleb128 40
	.byte	0x6
	.byte	0x23
	.uleb128 0x6000
	.byte	0x9f
	.byte	0
.LVUS352:
	.uleb128 .LVU381
	.uleb128 .LVU386
	.uleb128 .LVU386
	.uleb128 .LVU389
	.uleb128 .LVU389
	.uleb128 .LVU389
.LLST352:
	.byte	0x6
	.quad	.LVL75
	.byte	0x4
	.uleb128 .LVL75-.LVL75
	.uleb128 .LVL76-.LVL75
	.uleb128 0x3
	.byte	0x70
	.sleb128 4
	.byte	0x9f
	.byte	0x4
	.uleb128 .LVL76-.LVL75
	.uleb128 .LVL77-1-.LVL75
	.uleb128 0x1
	.byte	0x55
	.byte	0x4
	.uleb128 .LVL77-1-.LVL75
	.uleb128 .LVL77-.LVL75
	.uleb128 0x6
	.byte	0x77
	.sleb128 40
	.byte	0x6
	.byte	0x23
	.uleb128 0x4
	.byte	0x9f
	.byte	0
.LVUS354:
	.uleb128 .LVU381
	.uleb128 .LVU389
	.uleb128 .LVU389
	.uleb128 .LVU389
.LLST354:
	.byte	0x6
	.quad	.LVL75
	.byte	0x4
	.uleb128 .LVL75-.LVL75
	.uleb128 .LVL77-1-.LVL75
	.uleb128 0x1
	.byte	0x50
	.byte	0x4
	.uleb128 .LVL77-1-.LVL75
	.uleb128 .LVL77-.LVL75
	.uleb128 0x2
	.byte	0x77
	.sleb128 40
	.byte	0
.LVUS356:
	.uleb128 .LVU382
	.uleb128 .LVU386
	.uleb128 .LVU386
	.uleb128 .LVU389
	.uleb128 .LVU389
	.uleb128 .LVU389
.LLST356:
	.byte	0x6
	.quad	.LVL75
	.byte	0x4
	.uleb128 .LVL75-.LVL75
	.uleb128 .LVL76-.LVL75
	.uleb128 0x3
	.byte	0x70
	.sleb128 4
	.byte	0x9f
	.byte	0x4
	.uleb128 .LVL76-.LVL75
	.uleb128 .LVL77-1-.LVL75
	.uleb128 0x1
	.byte	0x55
	.byte	0x4
	.uleb128 .LVL77-1-.LVL75
	.uleb128 .LVL77-.LVL75
	.uleb128 0x6
	.byte	0x77
	.sleb128 40
	.byte	0x6
	.byte	0x23
	.uleb128 0x4
	.byte	0x9f
	.byte	0
.LVUS357:
	.uleb128 .LVU382
	.uleb128 .LVU389
	.uleb128 .LVU389
	.uleb128 .LVU389
.LLST357:
	.byte	0x6
	.quad	.LVL75
	.byte	0x4
	.uleb128 .LVL75-.LVL75
	.uleb128 .LVL77-1-.LVL75
	.uleb128 0x5
	.byte	0x70
	.sleb128 24576
	.byte	0x9f
	.byte	0x4
	.uleb128 .LVL77-1-.LVL75
	.uleb128 .LVL77-.LVL75
	.uleb128 0x8
	.byte	0x77
	.sleb128 40
	.byte	0x6
	.byte	0x23
	.uleb128 0x6000
	.byte	0x9f
	.byte	0
.LVUS358:
	.uleb128 .LVU382
	.uleb128 .LVU389
	.uleb128 .LVU389
	.uleb128 .LVU389
.LLST358:
	.byte	0x6
	.quad	.LVL75
	.byte	0x4
	.uleb128 .LVL75-.LVL75
	.uleb128 .LVL77-1-.LVL75
	.uleb128 0x1
	.byte	0x50
	.byte	0x4
	.uleb128 .LVL77-1-.LVL75
	.uleb128 .LVL77-.LVL75
	.uleb128 0x2
	.byte	0x77
	.sleb128 40
	.byte	0
.LVUS359:
	.uleb128 .LVU383
	.uleb128 .LVU1290
	.uleb128 .LVU1365
	.uleb128 .LVU1371
.LLST359:
	.byte	0x6
	.quad	.LVL75
	.byte	0x4
	.uleb128 .LVL75-.LVL75
	.uleb128 .LVL206-.LVL75
	.uleb128 0x2
	.byte	0x31
	.byte	0x9f
	.byte	0x4
	.uleb128 .LVL219-.LVL75
	.uleb128 .LVL222-.LVL75
	.uleb128 0x2
	.byte	0x31
	.byte	0x9f
	.byte	0
.LVUS360:
	.uleb128 .LVU383
	.uleb128 .LVU389
.LLST360:
	.byte	0x8
	.quad	.LVL75
	.uleb128 .LVL77-.LVL75
	.uleb128 0x6
	.byte	0x9e
	.uleb128 0x4
	.long	0
	.byte	0
.LVUS543:
	.uleb128 .LVU1229
	.uleb128 .LVU1290
.LLST543:
	.byte	0x8
	.quad	.LVL196
	.uleb128 .LVL206-.LVL196
	.uleb128 0x4
	.byte	0xa
	.value	0x1800
	.byte	0x9f
	.byte	0
.LVUS544:
	.uleb128 .LVU1229
	.uleb128 .LVU1233
.LLST544:
	.byte	0x8
	.quad	.LVL196
	.uleb128 .LVL197-.LVL196
	.uleb128 0x2
	.byte	0x77
	.sleb128 40
	.byte	0
.LVUS545:
	.uleb128 .LVU1229
	.uleb128 .LVU1233
.LLST545:
	.byte	0x8
	.quad	.LVL196
	.uleb128 .LVL197-.LVL196
	.uleb128 0x4
	.byte	0xa
	.value	0x1800
	.byte	0x9f
	.byte	0
.LVUS546:
	.uleb128 .LVU1230
	.uleb128 .LVU1233
.LLST546:
	.byte	0x8
	.quad	.LVL196
	.uleb128 .LVL197-.LVL196
	.uleb128 0x2
	.byte	0x77
	.sleb128 40
	.byte	0
.LVUS547:
	.uleb128 .LVU1230
	.uleb128 .LVU1233
.LLST547:
	.byte	0x8
	.quad	.LVL196
	.uleb128 .LVL197-.LVL196
	.uleb128 0x4
	.byte	0xa
	.value	0x1800
	.byte	0x9f
	.byte	0
.LVUS548:
	.uleb128 .LVU1231
	.uleb128 .LVU1233
.LLST548:
	.byte	0x8
	.quad	.LVL196
	.uleb128 .LVL197-.LVL196
	.uleb128 0x2
	.byte	0x77
	.sleb128 40
	.byte	0
.LVUS549:
	.uleb128 .LVU1231
	.uleb128 .LVU1233
.LLST549:
	.byte	0x8
	.quad	.LVL196
	.uleb128 .LVL197-.LVL196
	.uleb128 0x4
	.byte	0xa
	.value	0x1800
	.byte	0x9f
	.byte	0
.LVUS550:
	.uleb128 .LVU1244
	.uleb128 .LVU1260
.LLST550:
	.byte	0x8
	.quad	.LVL197
	.uleb128 .LVL199-.LVL197
	.uleb128 0x5
	.byte	0x73
	.sleb128 0
	.byte	0x34
	.byte	0x1b
	.byte	0x9f
	.byte	0
.LVUS551:
	.uleb128 .LVU1244
	.uleb128 .LVU1249
.LLST551:
	.byte	0x8
	.quad	.LVL197
	.uleb128 .LVL199-.LVL197
	.uleb128 0x1
	.byte	0x5c
	.byte	0
.LVUS552:
	.uleb128 .LVU1244
	.uleb128 .LVU1249
.LLST552:
	.byte	0x8
	.quad	.LVL197
	.uleb128 .LVL199-.LVL197
	.uleb128 0x5
	.byte	0x73
	.sleb128 0
	.byte	0x34
	.byte	0x1b
	.byte	0x9f
	.byte	0
.LVUS553:
	.uleb128 .LVU1246
	.uleb128 .LVU1249
.LLST553:
	.byte	0x8
	.quad	.LVL198
	.uleb128 .LVL199-.LVL198
	.uleb128 0x1
	.byte	0x5c
	.byte	0
.LVUS554:
	.uleb128 .LVU1246
	.uleb128 .LVU1249
.LLST554:
	.byte	0x8
	.quad	.LVL198
	.uleb128 .LVL199-.LVL198
	.uleb128 0x5
	.byte	0x73
	.sleb128 0
	.byte	0x34
	.byte	0x1b
	.byte	0x9f
	.byte	0
.LVUS555:
	.uleb128 .LVU1247
	.uleb128 .LVU1249
.LLST555:
	.byte	0x8
	.quad	.LVL198
	.uleb128 .LVL199-.LVL198
	.uleb128 0x1
	.byte	0x5c
	.byte	0
.LVUS556:
	.uleb128 .LVU1247
	.uleb128 .LVU1249
.LLST556:
	.byte	0x8
	.quad	.LVL198
	.uleb128 .LVL199-.LVL198
	.uleb128 0x5
	.byte	0x73
	.sleb128 0
	.byte	0x34
	.byte	0x1b
	.byte	0x9f
	.byte	0
.LVUS557:
	.uleb128 .LVU1260
	.uleb128 .LVU1265
.LLST557:
	.byte	0x8
	.quad	.LVL199
	.uleb128 .LVL201-.LVL199
	.uleb128 0x3
	.byte	0x77
	.sleb128 64
	.byte	0
.LVUS558:
	.uleb128 .LVU1262
	.uleb128 .LVU1265
.LLST558:
	.byte	0x8
	.quad	.LVL200
	.uleb128 .LVL201-.LVL200
	.uleb128 0x3
	.byte	0x77
	.sleb128 64
	.byte	0
.LVUS559:
	.uleb128 .LVU1263
	.uleb128 .LVU1265
.LLST559:
	.byte	0x8
	.quad	.LVL200
	.uleb128 .LVL201-.LVL200
	.uleb128 0x3
	.byte	0x77
	.sleb128 64
	.byte	0
.LVUS563:
	.uleb128 .LVU1466
	.uleb128 .LVU1473
	.uleb128 .LVU1533
	.uleb128 .LVU1538
.LLST563:
	.byte	0x6
	.quad	.LVL253
	.byte	0x4
	.uleb128 .LVL253-.LVL253
	.uleb128 .LVL255-.LVL253
	.uleb128 0x5
	.byte	0x73
	.sleb128 0
	.byte	0x34
	.byte	0x1b
	.byte	0x9f
	.byte	0x4
	.uleb128 .LVL267-.LVL253
	.uleb128 .LVL270-.LVL253
	.uleb128 0x5
	.byte	0x73
	.sleb128 0
	.byte	0x34
	.byte	0x1b
	.byte	0x9f
	.byte	0
.LVUS564:
	.uleb128 .LVU1466
	.uleb128 .LVU1468
	.uleb128 .LVU1533
	.uleb128 .LVU1538
.LLST564:
	.byte	0x6
	.quad	.LVL253
	.byte	0x4
	.uleb128 .LVL253-.LVL253
	.uleb128 .LVL254-.LVL253
	.uleb128 0x1
	.byte	0x5c
	.byte	0x4
	.uleb128 .LVL267-.LVL253
	.uleb128 .LVL270-.LVL253
	.uleb128 0x1
	.byte	0x5c
	.byte	0
.LVUS565:
	.uleb128 .LVU1466
	.uleb128 .LVU1468
	.uleb128 .LVU1533
	.uleb128 .LVU1538
.LLST565:
	.byte	0x6
	.quad	.LVL253
	.byte	0x4
	.uleb128 .LVL253-.LVL253
	.uleb128 .LVL254-.LVL253
	.uleb128 0x5
	.byte	0x73
	.sleb128 0
	.byte	0x34
	.byte	0x1b
	.byte	0x9f
	.byte	0x4
	.uleb128 .LVL267-.LVL253
	.uleb128 .LVL270-.LVL253
	.uleb128 0x5
	.byte	0x73
	.sleb128 0
	.byte	0x34
	.byte	0x1b
	.byte	0x9f
	.byte	0
.LVUS566:
	.uleb128 .LVU1533
	.uleb128 .LVU1537
.LLST566:
	.byte	0x8
	.quad	.LVL267
	.uleb128 .LVL269-.LVL267
	.uleb128 0x1
	.byte	0x5c
	.byte	0
.LVUS567:
	.uleb128 .LVU1533
	.uleb128 .LVU1537
.LLST567:
	.byte	0x8
	.quad	.LVL267
	.uleb128 .LVL269-.LVL267
	.uleb128 0x5
	.byte	0x73
	.sleb128 0
	.byte	0x34
	.byte	0x1b
	.byte	0x9f
	.byte	0
.LVUS568:
	.uleb128 .LVU1535
	.uleb128 .LVU1537
.LLST568:
	.byte	0x8
	.quad	.LVL267
	.uleb128 .LVL269-.LVL267
	.uleb128 0x1
	.byte	0x5c
	.byte	0
.LVUS569:
	.uleb128 .LVU1535
	.uleb128 .LVU1537
.LLST569:
	.byte	0x8
	.quad	.LVL267
	.uleb128 .LVL269-.LVL267
	.uleb128 0x5
	.byte	0x73
	.sleb128 0
	.byte	0x34
	.byte	0x1b
	.byte	0x9f
	.byte	0
.LVUS572:
	.uleb128 .LVU1483
	.uleb128 .LVU1492
.LLST572:
	.byte	0x8
	.quad	.LVL257
	.uleb128 .LVL259-.LVL257
	.uleb128 0x5
	.byte	0x7e
	.sleb128 0
	.byte	0x34
	.byte	0x1b
	.byte	0x9f
	.byte	0
.LVUS573:
	.uleb128 .LVU1483
	.uleb128 .LVU1488
.LLST573:
	.byte	0x8
	.quad	.LVL257
	.uleb128 .LVL259-.LVL257
	.uleb128 0x3
	.byte	0x77
	.sleb128 64
	.byte	0
.LVUS574:
	.uleb128 .LVU1483
	.uleb128 .LVU1488
.LLST574:
	.byte	0x8
	.quad	.LVL257
	.uleb128 .LVL259-.LVL257
	.uleb128 0x5
	.byte	0x7e
	.sleb128 0
	.byte	0x34
	.byte	0x1b
	.byte	0x9f
	.byte	0
.LVUS575:
	.uleb128 .LVU1485
	.uleb128 .LVU1488
.LLST575:
	.byte	0x8
	.quad	.LVL258
	.uleb128 .LVL259-.LVL258
	.uleb128 0x3
	.byte	0x77
	.sleb128 64
	.byte	0
.LVUS576:
	.uleb128 .LVU1485
	.uleb128 .LVU1488
.LLST576:
	.byte	0x8
	.quad	.LVL258
	.uleb128 .LVL259-.LVL258
	.uleb128 0x5
	.byte	0x7e
	.sleb128 0
	.byte	0x34
	.byte	0x1b
	.byte	0x9f
	.byte	0
.LVUS577:
	.uleb128 .LVU1486
	.uleb128 .LVU1488
.LLST577:
	.byte	0x8
	.quad	.LVL258
	.uleb128 .LVL259-.LVL258
	.uleb128 0x3
	.byte	0x77
	.sleb128 64
	.byte	0
.LVUS578:
	.uleb128 .LVU1486
	.uleb128 .LVU1488
.LLST578:
	.byte	0x8
	.quad	.LVL258
	.uleb128 .LVL259-.LVL258
	.uleb128 0x5
	.byte	0x7e
	.sleb128 0
	.byte	0x34
	.byte	0x1b
	.byte	0x9f
	.byte	0
.LVUS580:
	.uleb128 .LVU1492
	.uleb128 .LVU1510
.LLST580:
	.byte	0x8
	.quad	.LVL259
	.uleb128 .LVL261-.LVL259
	.uleb128 0x6
	.byte	0xa0
	.long	.Ldebug_info0+52897
	.sleb128 0
	.byte	0
.LVUS581:
	.uleb128 .LVU1494
	.uleb128 .LVU1495
.LLST581:
	.byte	0x8
	.quad	.LVL259
	.uleb128 .LVL259-.LVL259
	.uleb128 0x6
	.byte	0xa0
	.long	.Ldebug_info0+52897
	.sleb128 0
	.byte	0
.LVUS582:
	.uleb128 .LVU1495
	.uleb128 .LVU1497
.LLST582:
	.byte	0x8
	.quad	.LVL259
	.uleb128 .LVL259-.LVL259
	.uleb128 0x6
	.byte	0xa0
	.long	.Ldebug_info0+52897
	.sleb128 0
	.byte	0
.LVUS584:
	.uleb128 .LVU1497
	.uleb128 .LVU1510
.LLST584:
	.byte	0x8
	.quad	.LVL259
	.uleb128 .LVL261-.LVL259
	.uleb128 0x6
	.byte	0xa0
	.long	.Ldebug_info0+52897
	.sleb128 0
	.byte	0
.LVUS587:
	.uleb128 .LVU1499
	.uleb128 .LVU1506
.LLST587:
	.byte	0x8
	.quad	.LVL259
	.uleb128 .LVL261-.LVL259
	.uleb128 0x6
	.byte	0xa0
	.long	.Ldebug_info0+52897
	.sleb128 0
	.byte	0
.LVUS589:
	.uleb128 .LVU1502
	.uleb128 .LVU1506
.LLST589:
	.byte	0x8
	.quad	.LVL260
	.uleb128 .LVL261-.LVL260
	.uleb128 0x6
	.byte	0xa0
	.long	.Ldebug_info0+52897
	.sleb128 0
	.byte	0
.LVUS592:
	.uleb128 .LVU1506
	.uleb128 .LVU1510
.LLST592:
	.byte	0x8
	.quad	.LVL261
	.uleb128 .LVL261-.LVL261
	.uleb128 0x6
	.byte	0xa0
	.long	.Ldebug_info0+52897
	.sleb128 0
	.byte	0
.LVUS593:
	.uleb128 .LVU1508
	.uleb128 .LVU1510
.LLST593:
	.byte	0x8
	.quad	.LVL261
	.uleb128 .LVL261-.LVL261
	.uleb128 0x6
	.byte	0xa0
	.long	.Ldebug_info0+52897
	.sleb128 0
	.byte	0
.LVUS594:
	.uleb128 .LVU1509
	.uleb128 .LVU1510
.LLST594:
	.byte	0x8
	.quad	.LVL261
	.uleb128 .LVL261-.LVL261
	.uleb128 0x6
	.byte	0xa0
	.long	.Ldebug_info0+52897
	.sleb128 0
	.byte	0
.LVUS595:
	.uleb128 .LVU1513
	.uleb128 .LVU1532
.LLST595:
	.byte	0x8
	.quad	.LVL263
	.uleb128 .LVL266-.LVL263
	.uleb128 0x3
	.byte	0x77
	.sleb128 120
	.byte	0
.LVUS597:
	.uleb128 .LVU1515
	.uleb128 .LVU1532
.LLST597:
	.byte	0x8
	.quad	.LVL263
	.uleb128 .LVL266-.LVL263
	.uleb128 0x7
	.byte	0x77
	.sleb128 120
	.byte	0x6
	.byte	0x23
	.uleb128 0x10
	.byte	0x9f
	.byte	0
.LVUS599:
	.uleb128 .LVU1519
	.uleb128 .LVU1532
.LLST599:
	.byte	0x8
	.quad	.LVL263
	.uleb128 .LVL266-.LVL263
	.uleb128 0x7
	.byte	0x77
	.sleb128 120
	.byte	0x6
	.byte	0x23
	.uleb128 0x10
	.byte	0x9f
	.byte	0
.LVUS601:
	.uleb128 .LVU1522
	.uleb128 .LVU1528
.LLST601:
	.byte	0x8
	.quad	.LVL264
	.uleb128 .LVL266-1-.LVL264
	.uleb128 0xb
	.byte	0x77
	.sleb128 120
	.byte	0x6
	.byte	0x23
	.uleb128 0x20
	.byte	0x6
	.byte	0x75
	.sleb128 0
	.byte	0x1c
	.byte	0x9f
	.byte	0
.LVUS603:
	.uleb128 .LVU1522
	.uleb128 .LVU1528
.LLST603:
	.byte	0x8
	.quad	.LVL264
	.uleb128 .LVL266-.LVL264
	.uleb128 0x7
	.byte	0x77
	.sleb128 120
	.byte	0x6
	.byte	0x23
	.uleb128 0x10
	.byte	0x9f
	.byte	0
.LVUS604:
	.uleb128 .LVU1522
	.uleb128 .LVU1528
.LLST604:
	.byte	0x8
	.quad	.LVL264
	.uleb128 .LVL266-1-.LVL264
	.uleb128 0x1
	.byte	0x55
	.byte	0
.LVUS607:
	.uleb128 .LVU1524
	.uleb128 .LVU1528
.LLST607:
	.byte	0x8
	.quad	.LVL265
	.uleb128 .LVL266-.LVL265
	.uleb128 0x7
	.byte	0x77
	.sleb128 120
	.byte	0x6
	.byte	0x23
	.uleb128 0x10
	.byte	0x9f
	.byte	0
.LVUS608:
	.uleb128 .LVU1524
	.uleb128 .LVU1528
.LLST608:
	.byte	0x8
	.quad	.LVL265
	.uleb128 .LVL266-1-.LVL265
	.uleb128 0x1
	.byte	0x55
	.byte	0
.LVUS609:
	.uleb128 .LVU1524
	.uleb128 .LVU1528
.LLST609:
	.byte	0x8
	.quad	.LVL265
	.uleb128 .LVL266-1-.LVL265
	.uleb128 0xb
	.byte	0x77
	.sleb128 120
	.byte	0x6
	.byte	0x23
	.uleb128 0x20
	.byte	0x6
	.byte	0x75
	.sleb128 0
	.byte	0x1c
	.byte	0x9f
	.byte	0
.LVUS610:
	.uleb128 .LVU1525
	.uleb128 .LVU1528
.LLST610:
	.byte	0x8
	.quad	.LVL265
	.uleb128 .LVL266-.LVL265
	.uleb128 0x7
	.byte	0x77
	.sleb128 120
	.byte	0x6
	.byte	0x23
	.uleb128 0x10
	.byte	0x9f
	.byte	0
.LVUS611:
	.uleb128 .LVU1525
	.uleb128 .LVU1528
.LLST611:
	.byte	0x8
	.quad	.LVL265
	.uleb128 .LVL266-1-.LVL265
	.uleb128 0x1
	.byte	0x55
	.byte	0
.LVUS612:
	.uleb128 .LVU1525
	.uleb128 .LVU1528
.LLST612:
	.byte	0x8
	.quad	.LVL265
	.uleb128 .LVL266-1-.LVL265
	.uleb128 0xb
	.byte	0x77
	.sleb128 120
	.byte	0x6
	.byte	0x23
	.uleb128 0x20
	.byte	0x6
	.byte	0x75
	.sleb128 0
	.byte	0x1c
	.byte	0x9f
	.byte	0
.LVUS613:
	.uleb128 .LVU1528
	.uleb128 .LVU1532
.LLST613:
	.byte	0x8
	.quad	.LVL266
	.uleb128 .LVL266-.LVL266
	.uleb128 0x7
	.byte	0x77
	.sleb128 120
	.byte	0x6
	.byte	0x23
	.uleb128 0x10
	.byte	0x9f
	.byte	0
.LVUS614:
	.uleb128 .LVU1530
	.uleb128 .LVU1532
.LLST614:
	.byte	0x8
	.quad	.LVL266
	.uleb128 .LVL266-.LVL266
	.uleb128 0x7
	.byte	0x77
	.sleb128 120
	.byte	0x6
	.byte	0x23
	.uleb128 0x10
	.byte	0x9f
	.byte	0
.LVUS615:
	.uleb128 .LVU1531
	.uleb128 .LVU1532
.LLST615:
	.byte	0x8
	.quad	.LVL266
	.uleb128 .LVL266-.LVL266
	.uleb128 0x7
	.byte	0x77
	.sleb128 120
	.byte	0x6
	.byte	0x23
	.uleb128 0x10
	.byte	0x9f
	.byte	0
.LVUS616:
	.uleb128 .LVU1516
	.uleb128 .LVU1517
.LLST616:
	.byte	0x8
	.quad	.LVL263
	.uleb128 .LVL263-.LVL263
	.uleb128 0x7
	.byte	0x77
	.sleb128 120
	.byte	0x6
	.byte	0x23
	.uleb128 0x10
	.byte	0x9f
	.byte	0
.LVUS617:
	.uleb128 .LVU1517
	.uleb128 .LVU1519
.LLST617:
	.byte	0x8
	.quad	.LVL263
	.uleb128 .LVL263-.LVL263
	.uleb128 0x6
	.byte	0x77
	.sleb128 120
	.byte	0x6
	.byte	0x23
	.uleb128 0x10
	.byte	0
.LVUS618:
	.uleb128 .LVU1517
	.uleb128 .LVU1519
.LLST618:
	.byte	0x8
	.quad	.LVL263
	.uleb128 .LVL263-.LVL263
	.uleb128 0x6
	.byte	0x77
	.sleb128 120
	.byte	0x6
	.byte	0x23
	.uleb128 0x18
	.byte	0
.LVUS619:
	.uleb128 .LVU1517
	.uleb128 .LVU1519
.LLST619:
	.byte	0x8
	.quad	.LVL263
	.uleb128 .LVL263-.LVL263
	.uleb128 0x7
	.byte	0x77
	.sleb128 120
	.byte	0x6
	.byte	0x23
	.uleb128 0x10
	.byte	0x9f
	.byte	0
.Ldebug_loc3:
	.section	.debug_aranges,"",@progbits
	.long	0x3c
	.value	0x2
	.long	.Ldebug_info0
	.byte	0x8
	.byte	0
	.value	0
	.value	0
	.quad	.Ltext0
	.quad	.Letext0-.Ltext0
	.quad	.Ltext_cold0
	.quad	.Letext_cold0-.Ltext_cold0
	.quad	0
	.quad	0
	.section	.debug_rnglists,"",@progbits
.Ldebug_ranges0:
	.long	.Ldebug_ranges3-.Ldebug_ranges2
.Ldebug_ranges2:
	.value	0x5
	.byte	0x8
	.byte	0
	.long	0
.LLRL0:
	.byte	0x7
	.quad	.LFB11707
	.uleb128 .LHOTE5-.LFB11707
	.byte	0x7
	.quad	.LFSB11707
	.uleb128 .LCOLDE5-.LFSB11707
	.byte	0
.LLRL7:
	.byte	0x5
	.quad	.LBB2444
	.byte	0x4
	.uleb128 .LBB2444-.LBB2444
	.uleb128 .LBE2444-.LBB2444
	.byte	0x4
	.uleb128 .LBB2468-.LBB2444
	.uleb128 .LBE2468-.LBB2444
	.byte	0x4
	.uleb128 .LBB2472-.LBB2444
	.uleb128 .LBE2472-.LBB2444
	.byte	0
.LLRL12:
	.byte	0x5
	.quad	.LBB2448
	.byte	0x4
	.uleb128 .LBB2448-.LBB2448
	.uleb128 .LBE2448-.LBB2448
	.byte	0x4
	.uleb128 .LBB2451-.LBB2448
	.uleb128 .LBE2451-.LBB2448
	.byte	0x4
	.uleb128 .LBB2454-.LBB2448
	.uleb128 .LBE2454-.LBB2448
	.byte	0
.LLRL16:
	.byte	0x5
	.quad	.LBB2461
	.byte	0x4
	.uleb128 .LBB2461-.LBB2461
	.uleb128 .LBE2461-.LBB2461
	.byte	0x4
	.uleb128 .LBB2467-.LBB2461
	.uleb128 .LBE2467-.LBB2461
	.byte	0
.LLRL23:
	.byte	0x5
	.quad	.LBB2473
	.byte	0x4
	.uleb128 .LBB2473-.LBB2473
	.uleb128 .LBE2473-.LBB2473
	.byte	0x4
	.uleb128 .LBB3326-.LBB2473
	.uleb128 .LBE3326-.LBB2473
	.byte	0x7
	.quad	.LBB3368
	.uleb128 .LBE3368-.LBB3368
	.byte	0
.LLRL30:
	.byte	0x7
	.quad	.LBB2477
	.uleb128 .LBE2477-.LBB2477
	.byte	0x7
	.quad	.LBB2529
	.uleb128 .LBE2529-.LBB2529
	.byte	0
.LLRL31:
	.byte	0x7
	.quad	.LBB2478
	.uleb128 .LBE2478-.LBB2478
	.byte	0x7
	.quad	.LBB2528
	.uleb128 .LBE2528-.LBB2528
	.byte	0
.LLRL36:
	.byte	0x7
	.quad	.LBB2479
	.uleb128 .LBE2479-.LBB2479
	.byte	0x7
	.quad	.LBB2513
	.uleb128 .LBE2513-.LBB2513
	.byte	0
.LLRL41:
	.byte	0x5
	.quad	.LBB2486
	.byte	0x4
	.uleb128 .LBB2486-.LBB2486
	.uleb128 .LBE2486-.LBB2486
	.byte	0x4
	.uleb128 .LBB2511-.LBB2486
	.uleb128 .LBE2511-.LBB2486
	.byte	0
.LLRL52:
	.byte	0x5
	.quad	.LBB2491
	.byte	0x4
	.uleb128 .LBB2491-.LBB2491
	.uleb128 .LBE2491-.LBB2491
	.byte	0x4
	.uleb128 .LBB2499-.LBB2491
	.uleb128 .LBE2499-.LBB2491
	.byte	0
.LLRL62:
	.byte	0x5
	.quad	.LBB2500
	.byte	0x4
	.uleb128 .LBB2500-.LBB2500
	.uleb128 .LBE2500-.LBB2500
	.byte	0x4
	.uleb128 .LBB2512-.LBB2500
	.uleb128 .LBE2512-.LBB2500
	.byte	0
.LLRL73:
	.byte	0x5
	.quad	.LBB2504
	.byte	0x4
	.uleb128 .LBB2504-.LBB2504
	.uleb128 .LBE2504-.LBB2504
	.byte	0x4
	.uleb128 .LBB2507-.LBB2504
	.uleb128 .LBE2507-.LBB2504
	.byte	0
.LLRL74:
	.byte	0x5
	.quad	.LBB2505
	.byte	0x4
	.uleb128 .LBB2505-.LBB2505
	.uleb128 .LBE2505-.LBB2505
	.byte	0x4
	.uleb128 .LBB2506-.LBB2505
	.uleb128 .LBE2506-.LBB2505
	.byte	0
.LLRL92:
	.byte	0x5
	.quad	.LBB2536
	.byte	0x4
	.uleb128 .LBB2536-.LBB2536
	.uleb128 .LBE2536-.LBB2536
	.byte	0x4
	.uleb128 .LBB2704-.LBB2536
	.uleb128 .LBE2704-.LBB2536
	.byte	0x4
	.uleb128 .LBB3327-.LBB2536
	.uleb128 .LBE3327-.LBB2536
	.byte	0x4
	.uleb128 .LBB3332-.LBB2536
	.uleb128 .LBE3332-.LBB2536
	.byte	0x4
	.uleb128 .LBB3334-.LBB2536
	.uleb128 .LBE3334-.LBB2536
	.byte	0x4
	.uleb128 .LBB3336-.LBB2536
	.uleb128 .LBE3336-.LBB2536
	.byte	0x4
	.uleb128 .LBB3338-.LBB2536
	.uleb128 .LBE3338-.LBB2536
	.byte	0
.LLRL96:
	.byte	0x5
	.quad	.LBB2539
	.byte	0x4
	.uleb128 .LBB2539-.LBB2539
	.uleb128 .LBE2539-.LBB2539
	.byte	0x4
	.uleb128 .LBB2549-.LBB2539
	.uleb128 .LBE2549-.LBB2539
	.byte	0
.LLRL99:
	.byte	0x5
	.quad	.LBB2542
	.byte	0x4
	.uleb128 .LBB2542-.LBB2542
	.uleb128 .LBE2542-.LBB2542
	.byte	0x4
	.uleb128 .LBB2548-.LBB2542
	.uleb128 .LBE2548-.LBB2542
	.byte	0x4
	.uleb128 .LBB2550-.LBB2542
	.uleb128 .LBE2550-.LBB2542
	.byte	0x4
	.uleb128 .LBB2551-.LBB2542
	.uleb128 .LBE2551-.LBB2542
	.byte	0x4
	.uleb128 .LBB2552-.LBB2542
	.uleb128 .LBE2552-.LBB2542
	.byte	0x4
	.uleb128 .LBB2553-.LBB2542
	.uleb128 .LBE2553-.LBB2542
	.byte	0x4
	.uleb128 .LBB2554-.LBB2542
	.uleb128 .LBE2554-.LBB2542
	.byte	0
.LLRL101:
	.byte	0x5
	.quad	.LBB2567
	.byte	0x4
	.uleb128 .LBB2567-.LBB2567
	.uleb128 .LBE2567-.LBB2567
	.byte	0x4
	.uleb128 .LBB2582-.LBB2567
	.uleb128 .LBE2582-.LBB2567
	.byte	0x4
	.uleb128 .LBB3328-.LBB2567
	.uleb128 .LBE3328-.LBB2567
	.byte	0x4
	.uleb128 .LBB3330-.LBB2567
	.uleb128 .LBE3330-.LBB2567
	.byte	0
.LLRL103:
	.byte	0x5
	.quad	.LBB2572
	.byte	0x4
	.uleb128 .LBB2572-.LBB2572
	.uleb128 .LBE2572-.LBB2572
	.byte	0x4
	.uleb128 .LBB2583-.LBB2572
	.uleb128 .LBE2583-.LBB2572
	.byte	0x4
	.uleb128 .LBB3329-.LBB2572
	.uleb128 .LBE3329-.LBB2572
	.byte	0x4
	.uleb128 .LBB3331-.LBB2572
	.uleb128 .LBE3331-.LBB2572
	.byte	0
.LLRL112:
	.byte	0x5
	.quad	.LBB2584
	.byte	0x4
	.uleb128 .LBB2584-.LBB2584
	.uleb128 .LBE2584-.LBB2584
	.byte	0x4
	.uleb128 .LBB2703-.LBB2584
	.uleb128 .LBE2703-.LBB2584
	.byte	0x4
	.uleb128 .LBB2705-.LBB2584
	.uleb128 .LBE2705-.LBB2584
	.byte	0x4
	.uleb128 .LBB3335-.LBB2584
	.uleb128 .LBE3335-.LBB2584
	.byte	0x4
	.uleb128 .LBB3337-.LBB2584
	.uleb128 .LBE3337-.LBB2584
	.byte	0x4
	.uleb128 .LBB3341-.LBB2584
	.uleb128 .LBE3341-.LBB2584
	.byte	0x7
	.quad	.LBB3370
	.uleb128 .LBE3370-.LBB3370
	.byte	0
.LLRL115:
	.byte	0x5
	.quad	.LBB2585
	.byte	0x4
	.uleb128 .LBB2585-.LBB2585
	.uleb128 .LBE2585-.LBB2585
	.byte	0x4
	.uleb128 .LBB2699-.LBB2585
	.uleb128 .LBE2699-.LBB2585
	.byte	0
.LLRL118:
	.byte	0x5
	.quad	.LBB2588
	.byte	0x4
	.uleb128 .LBB2588-.LBB2588
	.uleb128 .LBE2588-.LBB2588
	.byte	0x4
	.uleb128 .LBB2700-.LBB2588
	.uleb128 .LBE2700-.LBB2588
	.byte	0
.LLRL121:
	.byte	0x5
	.quad	.LBB2591
	.byte	0x4
	.uleb128 .LBB2591-.LBB2591
	.uleb128 .LBE2591-.LBB2591
	.byte	0x4
	.uleb128 .LBB2701-.LBB2591
	.uleb128 .LBE2701-.LBB2591
	.byte	0x7
	.quad	.LBB2702
	.uleb128 .LBE2702-.LBB2702
	.byte	0
.LLRL129:
	.byte	0x5
	.quad	.LBB2597
	.byte	0x4
	.uleb128 .LBB2597-.LBB2597
	.uleb128 .LBE2597-.LBB2597
	.byte	0x4
	.uleb128 .LBB2599-.LBB2597
	.uleb128 .LBE2599-.LBB2597
	.byte	0
.LLRL131:
	.byte	0x5
	.quad	.LBB2601
	.byte	0x4
	.uleb128 .LBB2601-.LBB2601
	.uleb128 .LBE2601-.LBB2601
	.byte	0x4
	.uleb128 .LBB2603-.LBB2601
	.uleb128 .LBE2603-.LBB2601
	.byte	0
.LLRL133:
	.byte	0x5
	.quad	.LBB2604
	.byte	0x4
	.uleb128 .LBB2604-.LBB2604
	.uleb128 .LBE2604-.LBB2604
	.byte	0x4
	.uleb128 .LBB2607-.LBB2604
	.uleb128 .LBE2607-.LBB2604
	.byte	0x4
	.uleb128 .LBB2693-.LBB2604
	.uleb128 .LBE2693-.LBB2604
	.byte	0
.LLRL135:
	.byte	0x5
	.quad	.LBB2608
	.byte	0x4
	.uleb128 .LBB2608-.LBB2608
	.uleb128 .LBE2608-.LBB2608
	.byte	0x4
	.uleb128 .LBB2694-.LBB2608
	.uleb128 .LBE2694-.LBB2608
	.byte	0x4
	.uleb128 .LBB2695-.LBB2608
	.uleb128 .LBE2695-.LBB2608
	.byte	0x7
	.quad	.LBB2696
	.uleb128 .LBE2696-.LBB2696
	.byte	0
.LLRL138:
	.byte	0x5
	.quad	.LBB2610
	.byte	0x4
	.uleb128 .LBB2610-.LBB2610
	.uleb128 .LBE2610-.LBB2610
	.byte	0x4
	.uleb128 .LBB2615-.LBB2610
	.uleb128 .LBE2615-.LBB2610
	.byte	0
.LLRL143:
	.byte	0x7
	.quad	.LBB2616
	.uleb128 .LBE2616-.LBB2616
	.byte	0x7
	.quad	.LBB2689
	.uleb128 .LBE2689-.LBB2689
	.byte	0
.LLRL151:
	.byte	0x7
	.quad	.LBB2618
	.uleb128 .LBE2618-.LBB2618
	.byte	0x7
	.quad	.LBB2687
	.uleb128 .LBE2687-.LBB2687
	.byte	0
.LLRL157:
	.byte	0x5
	.quad	.LBB2622
	.byte	0x4
	.uleb128 .LBB2622-.LBB2622
	.uleb128 .LBE2622-.LBB2622
	.byte	0x4
	.uleb128 .LBB2624-.LBB2622
	.uleb128 .LBE2624-.LBB2622
	.byte	0
.LLRL159:
	.byte	0x5
	.quad	.LBB2626
	.byte	0x4
	.uleb128 .LBB2626-.LBB2626
	.uleb128 .LBE2626-.LBB2626
	.byte	0x4
	.uleb128 .LBB2683-.LBB2626
	.uleb128 .LBE2683-.LBB2626
	.byte	0x4
	.uleb128 .LBB2685-.LBB2626
	.uleb128 .LBE2685-.LBB2626
	.byte	0
.LLRL161:
	.byte	0x5
	.quad	.LBB2628
	.byte	0x4
	.uleb128 .LBB2628-.LBB2628
	.uleb128 .LBE2628-.LBB2628
	.byte	0x4
	.uleb128 .LBB2635-.LBB2628
	.uleb128 .LBE2635-.LBB2628
	.byte	0x4
	.uleb128 .LBB2636-.LBB2628
	.uleb128 .LBE2636-.LBB2628
	.byte	0
.LLRL163:
	.byte	0x5
	.quad	.LBB2629
	.byte	0x4
	.uleb128 .LBB2629-.LBB2629
	.uleb128 .LBE2629-.LBB2629
	.byte	0x4
	.uleb128 .LBB2633-.LBB2629
	.uleb128 .LBE2633-.LBB2629
	.byte	0x4
	.uleb128 .LBB2634-.LBB2629
	.uleb128 .LBE2634-.LBB2629
	.byte	0
.LLRL166:
	.byte	0x5
	.quad	.LBB2639
	.byte	0x4
	.uleb128 .LBB2639-.LBB2639
	.uleb128 .LBE2639-.LBB2639
	.byte	0x4
	.uleb128 .LBB2684-.LBB2639
	.uleb128 .LBE2684-.LBB2639
	.byte	0x4
	.uleb128 .LBB2686-.LBB2639
	.uleb128 .LBE2686-.LBB2639
	.byte	0
.LLRL167:
	.byte	0x5
	.quad	.LBB2640
	.byte	0x4
	.uleb128 .LBB2640-.LBB2640
	.uleb128 .LBE2640-.LBB2640
	.byte	0x4
	.uleb128 .LBB2649-.LBB2640
	.uleb128 .LBE2649-.LBB2640
	.byte	0x4
	.uleb128 .LBB2650-.LBB2640
	.uleb128 .LBE2650-.LBB2640
	.byte	0x4
	.uleb128 .LBB2655-.LBB2640
	.uleb128 .LBE2655-.LBB2640
	.byte	0
.LLRL177:
	.byte	0x5
	.quad	.LBB2651
	.byte	0x4
	.uleb128 .LBB2651-.LBB2651
	.uleb128 .LBE2651-.LBB2651
	.byte	0x4
	.uleb128 .LBB2656-.LBB2651
	.uleb128 .LBE2656-.LBB2651
	.byte	0
.LLRL185:
	.byte	0x5
	.quad	.LBB2657
	.byte	0x4
	.uleb128 .LBB2657-.LBB2657
	.uleb128 .LBE2657-.LBB2657
	.byte	0x4
	.uleb128 .LBB2681-.LBB2657
	.uleb128 .LBE2681-.LBB2657
	.byte	0x4
	.uleb128 .LBB2682-.LBB2657
	.uleb128 .LBE2682-.LBB2657
	.byte	0
.LLRL187:
	.byte	0x5
	.quad	.LBB2659
	.byte	0x4
	.uleb128 .LBB2659-.LBB2659
	.uleb128 .LBE2659-.LBB2659
	.byte	0x4
	.uleb128 .LBB2677-.LBB2659
	.uleb128 .LBE2677-.LBB2659
	.byte	0x4
	.uleb128 .LBB2678-.LBB2659
	.uleb128 .LBE2678-.LBB2659
	.byte	0
.LLRL189:
	.byte	0x5
	.quad	.LBB2661
	.byte	0x4
	.uleb128 .LBB2661-.LBB2661
	.uleb128 .LBE2661-.LBB2661
	.byte	0x4
	.uleb128 .LBB2673-.LBB2661
	.uleb128 .LBE2673-.LBB2661
	.byte	0x4
	.uleb128 .LBB2674-.LBB2661
	.uleb128 .LBE2674-.LBB2661
	.byte	0
.LLRL191:
	.byte	0x5
	.quad	.LBB2663
	.byte	0x4
	.uleb128 .LBB2663-.LBB2663
	.uleb128 .LBE2663-.LBB2663
	.byte	0x4
	.uleb128 .LBB2669-.LBB2663
	.uleb128 .LBE2669-.LBB2663
	.byte	0x4
	.uleb128 .LBB2670-.LBB2663
	.uleb128 .LBE2670-.LBB2663
	.byte	0
.LLRL193:
	.byte	0x5
	.quad	.LBB2664
	.byte	0x4
	.uleb128 .LBB2664-.LBB2664
	.uleb128 .LBE2664-.LBB2664
	.byte	0x4
	.uleb128 .LBB2667-.LBB2664
	.uleb128 .LBE2667-.LBB2664
	.byte	0x4
	.uleb128 .LBB2668-.LBB2664
	.uleb128 .LBE2668-.LBB2664
	.byte	0
.LLRL196:
	.byte	0x5
	.quad	.LBB2706
	.byte	0x4
	.uleb128 .LBB2706-.LBB2706
	.uleb128 .LBE2706-.LBB2706
	.byte	0x4
	.uleb128 .LBB3325-.LBB2706
	.uleb128 .LBE3325-.LBB2706
	.byte	0
.LLRL198:
	.byte	0x5
	.quad	.LBB2707
	.byte	0x4
	.uleb128 .LBB2707-.LBB2707
	.uleb128 .LBE2707-.LBB2707
	.byte	0x4
	.uleb128 .LBB2722-.LBB2707
	.uleb128 .LBE2722-.LBB2707
	.byte	0
.LLRL200:
	.byte	0x5
	.quad	.LBB2708
	.byte	0x4
	.uleb128 .LBB2708-.LBB2708
	.uleb128 .LBE2708-.LBB2708
	.byte	0x4
	.uleb128 .LBB2716-.LBB2708
	.uleb128 .LBE2716-.LBB2708
	.byte	0
.LLRL210:
	.byte	0x5
	.quad	.LBB2725
	.byte	0x4
	.uleb128 .LBB2725-.LBB2725
	.uleb128 .LBE2725-.LBB2725
	.byte	0x4
	.uleb128 .LBB3339-.LBB2725
	.uleb128 .LBE3339-.LBB2725
	.byte	0x7
	.quad	.LBB3371
	.uleb128 .LBE3371-.LBB3371
	.byte	0
.LLRL214:
	.byte	0x7
	.quad	.LBB2726
	.uleb128 .LBE2726-.LBB2726
	.byte	0x7
	.quad	.LBB2776
	.uleb128 .LBE2776-.LBB2776
	.byte	0
.LLRL219:
	.byte	0x5
	.quad	.LBB2733
	.byte	0x4
	.uleb128 .LBB2733-.LBB2733
	.uleb128 .LBE2733-.LBB2733
	.byte	0x4
	.uleb128 .LBB2773-.LBB2733
	.uleb128 .LBE2773-.LBB2733
	.byte	0x4
	.uleb128 .LBB2775-.LBB2733
	.uleb128 .LBE2775-.LBB2733
	.byte	0
.LLRL225:
	.byte	0x5
	.quad	.LBB2738
	.byte	0x4
	.uleb128 .LBB2738-.LBB2738
	.uleb128 .LBE2738-.LBB2738
	.byte	0x4
	.uleb128 .LBB2754-.LBB2738
	.uleb128 .LBE2754-.LBB2738
	.byte	0x4
	.uleb128 .LBB2755-.LBB2738
	.uleb128 .LBE2755-.LBB2738
	.byte	0
.LLRL227:
	.byte	0x5
	.quad	.LBB2740
	.byte	0x4
	.uleb128 .LBB2740-.LBB2740
	.uleb128 .LBE2740-.LBB2740
	.byte	0x4
	.uleb128 .LBB2750-.LBB2740
	.uleb128 .LBE2750-.LBB2740
	.byte	0x4
	.uleb128 .LBB2751-.LBB2740
	.uleb128 .LBE2751-.LBB2740
	.byte	0
.LLRL229:
	.byte	0x5
	.quad	.LBB2742
	.byte	0x4
	.uleb128 .LBB2742-.LBB2742
	.uleb128 .LBE2742-.LBB2742
	.byte	0x4
	.uleb128 .LBB2747-.LBB2742
	.uleb128 .LBE2747-.LBB2742
	.byte	0
.LLRL233:
	.byte	0x5
	.quad	.LBB2756
	.byte	0x4
	.uleb128 .LBB2756-.LBB2756
	.uleb128 .LBE2756-.LBB2756
	.byte	0x4
	.uleb128 .LBB2774-.LBB2756
	.uleb128 .LBE2774-.LBB2756
	.byte	0
.LLRL242:
	.byte	0x5
	.quad	.LBB2760
	.byte	0x4
	.uleb128 .LBB2760-.LBB2760
	.uleb128 .LBE2760-.LBB2760
	.byte	0x4
	.uleb128 .LBB2769-.LBB2760
	.uleb128 .LBE2769-.LBB2760
	.byte	0
.LLRL246:
	.byte	0x5
	.quad	.LBB2762
	.byte	0x4
	.uleb128 .LBB2762-.LBB2762
	.uleb128 .LBE2762-.LBB2762
	.byte	0x4
	.uleb128 .LBB2766-.LBB2762
	.uleb128 .LBE2766-.LBB2762
	.byte	0
.LLRL254:
	.byte	0x5
	.quad	.LBB2781
	.byte	0x4
	.uleb128 .LBB2781-.LBB2781
	.uleb128 .LBE2781-.LBB2781
	.byte	0x4
	.uleb128 .LBB3340-.LBB2781
	.uleb128 .LBE3340-.LBB2781
	.byte	0x7
	.quad	.LBB3369
	.uleb128 .LBE3369-.LBB3369
	.byte	0
.LLRL258:
	.byte	0x7
	.quad	.LBB2782
	.uleb128 .LBE2782-.LBB2782
	.byte	0x7
	.quad	.LBB2834
	.uleb128 .LBE2834-.LBB2834
	.byte	0
.LLRL263:
	.byte	0x5
	.quad	.LBB2789
	.byte	0x4
	.uleb128 .LBB2789-.LBB2789
	.uleb128 .LBE2789-.LBB2789
	.byte	0x4
	.uleb128 .LBB2831-.LBB2789
	.uleb128 .LBE2831-.LBB2789
	.byte	0x4
	.uleb128 .LBB2833-.LBB2789
	.uleb128 .LBE2833-.LBB2789
	.byte	0
.LLRL269:
	.byte	0x5
	.quad	.LBB2794
	.byte	0x4
	.uleb128 .LBB2794-.LBB2794
	.uleb128 .LBE2794-.LBB2794
	.byte	0x4
	.uleb128 .LBB2812-.LBB2794
	.uleb128 .LBE2812-.LBB2794
	.byte	0x4
	.uleb128 .LBB2813-.LBB2794
	.uleb128 .LBE2813-.LBB2794
	.byte	0
.LLRL271:
	.byte	0x5
	.quad	.LBB2796
	.byte	0x4
	.uleb128 .LBB2796-.LBB2796
	.uleb128 .LBE2796-.LBB2796
	.byte	0x4
	.uleb128 .LBB2808-.LBB2796
	.uleb128 .LBE2808-.LBB2796
	.byte	0x4
	.uleb128 .LBB2809-.LBB2796
	.uleb128 .LBE2809-.LBB2796
	.byte	0
.LLRL273:
	.byte	0x5
	.quad	.LBB2798
	.byte	0x4
	.uleb128 .LBB2798-.LBB2798
	.uleb128 .LBE2798-.LBB2798
	.byte	0x4
	.uleb128 .LBB2805-.LBB2798
	.uleb128 .LBE2805-.LBB2798
	.byte	0
.LLRL274:
	.byte	0x5
	.quad	.LBB2799
	.byte	0x4
	.uleb128 .LBB2799-.LBB2799
	.uleb128 .LBE2799-.LBB2799
	.byte	0x4
	.uleb128 .LBB2803-.LBB2799
	.uleb128 .LBE2803-.LBB2799
	.byte	0x4
	.uleb128 .LBB2804-.LBB2799
	.uleb128 .LBE2804-.LBB2799
	.byte	0
.LLRL276:
	.byte	0x5
	.quad	.LBB2814
	.byte	0x4
	.uleb128 .LBB2814-.LBB2814
	.uleb128 .LBE2814-.LBB2814
	.byte	0x4
	.uleb128 .LBB2832-.LBB2814
	.uleb128 .LBE2832-.LBB2814
	.byte	0
.LLRL285:
	.byte	0x5
	.quad	.LBB2818
	.byte	0x4
	.uleb128 .LBB2818-.LBB2818
	.uleb128 .LBE2818-.LBB2818
	.byte	0x4
	.uleb128 .LBB2827-.LBB2818
	.uleb128 .LBE2827-.LBB2818
	.byte	0
.LLRL289:
	.byte	0x5
	.quad	.LBB2820
	.byte	0x4
	.uleb128 .LBB2820-.LBB2820
	.uleb128 .LBE2820-.LBB2820
	.byte	0x4
	.uleb128 .LBB2824-.LBB2820
	.uleb128 .LBE2824-.LBB2820
	.byte	0
.LLRL301:
	.byte	0x5
	.quad	.LBB2842
	.byte	0x4
	.uleb128 .LBB2842-.LBB2842
	.uleb128 .LBE2842-.LBB2842
	.byte	0x4
	.uleb128 .LBB2852-.LBB2842
	.uleb128 .LBE2852-.LBB2842
	.byte	0
.LLRL308:
	.byte	0x5
	.quad	.LBB2854
	.byte	0x4
	.uleb128 .LBB2854-.LBB2854
	.uleb128 .LBE2854-.LBB2854
	.byte	0x4
	.uleb128 .LBB2860-.LBB2854
	.uleb128 .LBE2860-.LBB2854
	.byte	0x4
	.uleb128 .LBB2861-.LBB2854
	.uleb128 .LBE2861-.LBB2854
	.byte	0x4
	.uleb128 .LBB2862-.LBB2854
	.uleb128 .LBE2862-.LBB2854
	.byte	0x4
	.uleb128 .LBB2863-.LBB2854
	.uleb128 .LBE2863-.LBB2854
	.byte	0
.LLRL310:
	.byte	0x5
	.quad	.LBB2855
	.byte	0x4
	.uleb128 .LBB2855-.LBB2855
	.uleb128 .LBE2855-.LBB2855
	.byte	0x4
	.uleb128 .LBB2856-.LBB2855
	.uleb128 .LBE2856-.LBB2855
	.byte	0x4
	.uleb128 .LBB2857-.LBB2855
	.uleb128 .LBE2857-.LBB2855
	.byte	0x4
	.uleb128 .LBB2858-.LBB2855
	.uleb128 .LBE2858-.LBB2855
	.byte	0x4
	.uleb128 .LBB2859-.LBB2855
	.uleb128 .LBE2859-.LBB2855
	.byte	0
.LLRL342:
	.byte	0x5
	.quad	.LBB2892
	.byte	0x4
	.uleb128 .LBB2892-.LBB2892
	.uleb128 .LBE2892-.LBB2892
	.byte	0x4
	.uleb128 .LBB2908-.LBB2892
	.uleb128 .LBE2908-.LBB2892
	.byte	0x4
	.uleb128 .LBB2909-.LBB2892
	.uleb128 .LBE2909-.LBB2892
	.byte	0
.LLRL351:
	.byte	0x5
	.quad	.LBB2895
	.byte	0x4
	.uleb128 .LBB2895-.LBB2895
	.uleb128 .LBE2895-.LBB2895
	.byte	0x4
	.uleb128 .LBB2902-.LBB2895
	.uleb128 .LBE2902-.LBB2895
	.byte	0x4
	.uleb128 .LBB2903-.LBB2895
	.uleb128 .LBE2903-.LBB2895
	.byte	0
.LLRL355:
	.byte	0x5
	.quad	.LBB2896
	.byte	0x4
	.uleb128 .LBB2896-.LBB2896
	.uleb128 .LBE2896-.LBB2896
	.byte	0x4
	.uleb128 .LBB2900-.LBB2896
	.uleb128 .LBE2900-.LBB2896
	.byte	0x4
	.uleb128 .LBB2901-.LBB2896
	.uleb128 .LBE2901-.LBB2896
	.byte	0
.LLRL361:
	.byte	0x5
	.quad	.LBB2910
	.byte	0x4
	.uleb128 .LBB2910-.LBB2910
	.uleb128 .LBE2910-.LBB2910
	.byte	0x4
	.uleb128 .LBB3333-.LBB2910
	.uleb128 .LBE3333-.LBB2910
	.byte	0x7
	.quad	.LBB3437
	.uleb128 .LBE3437-.LBB3437
	.byte	0
.LLRL363:
	.byte	0x5
	.quad	.LBB2911
	.byte	0x4
	.uleb128 .LBB2911-.LBB2911
	.uleb128 .LBE2911-.LBB2911
	.byte	0x4
	.uleb128 .LBB3284-.LBB2911
	.uleb128 .LBE3284-.LBB2911
	.byte	0x7
	.quad	.LBB3285
	.uleb128 .LBE3285-.LBB3285
	.byte	0
.LLRL364:
	.byte	0x5
	.quad	.LBB2912
	.byte	0x4
	.uleb128 .LBB2912-.LBB2912
	.uleb128 .LBE2912-.LBB2912
	.byte	0x4
	.uleb128 .LBB3276-.LBB2912
	.uleb128 .LBE3276-.LBB2912
	.byte	0x4
	.uleb128 .LBB3281-.LBB2912
	.uleb128 .LBE3281-.LBB2912
	.byte	0x4
	.uleb128 .LBB3282-.LBB2912
	.uleb128 .LBE3282-.LBB2912
	.byte	0x7
	.quad	.LBB3283
	.uleb128 .LBE3283-.LBB3283
	.byte	0
.LLRL366:
	.byte	0x5
	.quad	.LBB2913
	.byte	0x4
	.uleb128 .LBB2913-.LBB2913
	.uleb128 .LBE2913-.LBB2913
	.byte	0x4
	.uleb128 .LBB3268-.LBB2913
	.uleb128 .LBE3268-.LBB2913
	.byte	0x4
	.uleb128 .LBB3269-.LBB2913
	.uleb128 .LBE3269-.LBB2913
	.byte	0x7
	.quad	.LBB3270
	.uleb128 .LBE3270-.LBB3270
	.byte	0
.LLRL368:
	.byte	0x5
	.quad	.LBB2914
	.byte	0x4
	.uleb128 .LBB2914-.LBB2914
	.uleb128 .LBE2914-.LBB2914
	.byte	0x4
	.uleb128 .LBB3234-.LBB2914
	.uleb128 .LBE3234-.LBB2914
	.byte	0x4
	.uleb128 .LBB3236-.LBB2914
	.uleb128 .LBE3236-.LBB2914
	.byte	0x4
	.uleb128 .LBB3264-.LBB2914
	.uleb128 .LBE3264-.LBB2914
	.byte	0x4
	.uleb128 .LBB3266-.LBB2914
	.uleb128 .LBE3266-.LBB2914
	.byte	0
.LLRL370:
	.byte	0x5
	.quad	.LBB2915
	.byte	0x4
	.uleb128 .LBB2915-.LBB2915
	.uleb128 .LBE2915-.LBB2915
	.byte	0x4
	.uleb128 .LBB3204-.LBB2915
	.uleb128 .LBE3204-.LBB2915
	.byte	0x4
	.uleb128 .LBB3205-.LBB2915
	.uleb128 .LBE3205-.LBB2915
	.byte	0x4
	.uleb128 .LBB3206-.LBB2915
	.uleb128 .LBE3206-.LBB2915
	.byte	0x4
	.uleb128 .LBB3207-.LBB2915
	.uleb128 .LBE3207-.LBB2915
	.byte	0
.LLRL375:
	.byte	0x5
	.quad	.LBB2916
	.byte	0x4
	.uleb128 .LBB2916-.LBB2916
	.uleb128 .LBE2916-.LBB2916
	.byte	0x4
	.uleb128 .LBB3161-.LBB2916
	.uleb128 .LBE3161-.LBB2916
	.byte	0x4
	.uleb128 .LBB3162-.LBB2916
	.uleb128 .LBE3162-.LBB2916
	.byte	0x4
	.uleb128 .LBB3186-.LBB2916
	.uleb128 .LBE3186-.LBB2916
	.byte	0x4
	.uleb128 .LBB3187-.LBB2916
	.uleb128 .LBE3187-.LBB2916
	.byte	0x4
	.uleb128 .LBB3188-.LBB2916
	.uleb128 .LBE3188-.LBB2916
	.byte	0x4
	.uleb128 .LBB3189-.LBB2916
	.uleb128 .LBE3189-.LBB2916
	.byte	0x4
	.uleb128 .LBB3193-.LBB2916
	.uleb128 .LBE3193-.LBB2916
	.byte	0x4
	.uleb128 .LBB3194-.LBB2916
	.uleb128 .LBE3194-.LBB2916
	.byte	0x4
	.uleb128 .LBB3202-.LBB2916
	.uleb128 .LBE3202-.LBB2916
	.byte	0x4
	.uleb128 .LBB3203-.LBB2916
	.uleb128 .LBE3203-.LBB2916
	.byte	0
.LLRL377:
	.byte	0x5
	.quad	.LBB2917
	.byte	0x4
	.uleb128 .LBB2917-.LBB2917
	.uleb128 .LBE2917-.LBB2917
	.byte	0x4
	.uleb128 .LBB3151-.LBB2917
	.uleb128 .LBE3151-.LBB2917
	.byte	0x4
	.uleb128 .LBB3152-.LBB2917
	.uleb128 .LBE3152-.LBB2917
	.byte	0x4
	.uleb128 .LBB3153-.LBB2917
	.uleb128 .LBE3153-.LBB2917
	.byte	0x4
	.uleb128 .LBB3154-.LBB2917
	.uleb128 .LBE3154-.LBB2917
	.byte	0x4
	.uleb128 .LBB3155-.LBB2917
	.uleb128 .LBE3155-.LBB2917
	.byte	0x4
	.uleb128 .LBB3156-.LBB2917
	.uleb128 .LBE3156-.LBB2917
	.byte	0x4
	.uleb128 .LBB3157-.LBB2917
	.uleb128 .LBE3157-.LBB2917
	.byte	0x4
	.uleb128 .LBB3158-.LBB2917
	.uleb128 .LBE3158-.LBB2917
	.byte	0x4
	.uleb128 .LBB3159-.LBB2917
	.uleb128 .LBE3159-.LBB2917
	.byte	0x4
	.uleb128 .LBB3160-.LBB2917
	.uleb128 .LBE3160-.LBB2917
	.byte	0
.LLRL385:
	.byte	0x5
	.quad	.LBB2919
	.byte	0x4
	.uleb128 .LBB2919-.LBB2919
	.uleb128 .LBE2919-.LBB2919
	.byte	0x4
	.uleb128 .LBB3060-.LBB2919
	.uleb128 .LBE3060-.LBB2919
	.byte	0
.LLRL395:
	.byte	0x5
	.quad	.LBB2920
	.byte	0x4
	.uleb128 .LBB2920-.LBB2920
	.uleb128 .LBE2920-.LBB2920
	.byte	0x4
	.uleb128 .LBB2933-.LBB2920
	.uleb128 .LBE2933-.LBB2920
	.byte	0
.LLRL399:
	.byte	0x5
	.quad	.LBB2927
	.byte	0x4
	.uleb128 .LBB2927-.LBB2927
	.uleb128 .LBE2927-.LBB2927
	.byte	0x4
	.uleb128 .LBB3011-.LBB2927
	.uleb128 .LBE3011-.LBB2927
	.byte	0
.LLRL400:
	.byte	0x5
	.quad	.LBB2930
	.byte	0x4
	.uleb128 .LBB2930-.LBB2930
	.uleb128 .LBE2930-.LBB2930
	.byte	0x4
	.uleb128 .LBB3031-.LBB2930
	.uleb128 .LBE3031-.LBB2930
	.byte	0
.LLRL426:
	.byte	0x5
	.quad	.LBB2976
	.byte	0x4
	.uleb128 .LBB2976-.LBB2976
	.uleb128 .LBE2976-.LBB2976
	.byte	0x4
	.uleb128 .LBB2985-.LBB2976
	.uleb128 .LBE2985-.LBB2976
	.byte	0
.LLRL427:
	.byte	0x5
	.quad	.LBB2979
	.byte	0x4
	.uleb128 .LBB2979-.LBB2979
	.uleb128 .LBE2979-.LBB2979
	.byte	0x4
	.uleb128 .LBB3027-.LBB2979
	.uleb128 .LBE3027-.LBB2979
	.byte	0
.LLRL428:
	.byte	0x5
	.quad	.LBB2982
	.byte	0x4
	.uleb128 .LBB2982-.LBB2982
	.uleb128 .LBE2982-.LBB2982
	.byte	0x4
	.uleb128 .LBB3036-.LBB2982
	.uleb128 .LBE3036-.LBB2982
	.byte	0
.LLRL429:
	.byte	0x5
	.quad	.LBB2986
	.byte	0x4
	.uleb128 .LBB2986-.LBB2986
	.uleb128 .LBE2986-.LBB2986
	.byte	0x4
	.uleb128 .LBB3010-.LBB2986
	.uleb128 .LBE3010-.LBB2986
	.byte	0
.LLRL431:
	.byte	0x5
	.quad	.LBB2989
	.byte	0x4
	.uleb128 .LBB2989-.LBB2989
	.uleb128 .LBE2989-.LBB2989
	.byte	0x4
	.uleb128 .LBB3029-.LBB2989
	.uleb128 .LBE3029-.LBB2989
	.byte	0
.LLRL432:
	.byte	0x5
	.quad	.LBB2992
	.byte	0x4
	.uleb128 .LBB2992-.LBB2992
	.uleb128 .LBE2992-.LBB2992
	.byte	0x4
	.uleb128 .LBB3012-.LBB2992
	.uleb128 .LBE3012-.LBB2992
	.byte	0
.LLRL433:
	.byte	0x5
	.quad	.LBB2995
	.byte	0x4
	.uleb128 .LBB2995-.LBB2995
	.uleb128 .LBE2995-.LBB2995
	.byte	0x4
	.uleb128 .LBB3032-.LBB2995
	.uleb128 .LBE3032-.LBB2995
	.byte	0
.LLRL434:
	.byte	0x5
	.quad	.LBB2998
	.byte	0x4
	.uleb128 .LBB2998-.LBB2998
	.uleb128 .LBE2998-.LBB2998
	.byte	0x4
	.uleb128 .LBB3013-.LBB2998
	.uleb128 .LBE3013-.LBB2998
	.byte	0
.LLRL435:
	.byte	0x5
	.quad	.LBB3001
	.byte	0x4
	.uleb128 .LBB3001-.LBB3001
	.uleb128 .LBE3001-.LBB3001
	.byte	0x4
	.uleb128 .LBB3033-.LBB3001
	.uleb128 .LBE3033-.LBB3001
	.byte	0
.LLRL436:
	.byte	0x5
	.quad	.LBB3004
	.byte	0x4
	.uleb128 .LBB3004-.LBB3004
	.uleb128 .LBE3004-.LBB3004
	.byte	0x4
	.uleb128 .LBB3028-.LBB3004
	.uleb128 .LBE3028-.LBB3004
	.byte	0
.LLRL437:
	.byte	0x5
	.quad	.LBB3007
	.byte	0x4
	.uleb128 .LBB3007-.LBB3007
	.uleb128 .LBE3007-.LBB3007
	.byte	0x4
	.uleb128 .LBB3037-.LBB3007
	.uleb128 .LBE3037-.LBB3007
	.byte	0
.LLRL438:
	.byte	0x5
	.quad	.LBB3014
	.byte	0x4
	.uleb128 .LBB3014-.LBB3014
	.uleb128 .LBE3014-.LBB3014
	.byte	0x4
	.uleb128 .LBB3026-.LBB3014
	.uleb128 .LBE3026-.LBB3014
	.byte	0
.LLRL440:
	.byte	0x5
	.quad	.LBB3017
	.byte	0x4
	.uleb128 .LBB3017-.LBB3017
	.uleb128 .LBE3017-.LBB3017
	.byte	0x4
	.uleb128 .LBB3030-.LBB3017
	.uleb128 .LBE3030-.LBB3017
	.byte	0
.LLRL441:
	.byte	0x5
	.quad	.LBB3020
	.byte	0x4
	.uleb128 .LBB3020-.LBB3020
	.uleb128 .LBE3020-.LBB3020
	.byte	0x4
	.uleb128 .LBB3042-.LBB3020
	.uleb128 .LBE3042-.LBB3020
	.byte	0
.LLRL443:
	.byte	0x5
	.quad	.LBB3023
	.byte	0x4
	.uleb128 .LBB3023-.LBB3023
	.uleb128 .LBE3023-.LBB3023
	.byte	0x4
	.uleb128 .LBB3043-.LBB3023
	.uleb128 .LBE3043-.LBB3023
	.byte	0
.LLRL475:
	.byte	0x5
	.quad	.LBB3092
	.byte	0x4
	.uleb128 .LBB3092-.LBB3092
	.uleb128 .LBE3092-.LBB3092
	.byte	0x4
	.uleb128 .LBB3104-.LBB3092
	.uleb128 .LBE3104-.LBB3092
	.byte	0
.LLRL477:
	.byte	0x5
	.quad	.LBB3095
	.byte	0x4
	.uleb128 .LBB3095-.LBB3095
	.uleb128 .LBE3095-.LBB3095
	.byte	0x4
	.uleb128 .LBB3116-.LBB3095
	.uleb128 .LBE3116-.LBB3095
	.byte	0
.LLRL478:
	.byte	0x5
	.quad	.LBB3098
	.byte	0x4
	.uleb128 .LBB3098-.LBB3098
	.uleb128 .LBE3098-.LBB3098
	.byte	0x4
	.uleb128 .LBB3105-.LBB3098
	.uleb128 .LBE3105-.LBB3098
	.byte	0
.LLRL479:
	.byte	0x5
	.quad	.LBB3101
	.byte	0x4
	.uleb128 .LBB3101-.LBB3101
	.uleb128 .LBE3101-.LBB3101
	.byte	0x4
	.uleb128 .LBB3118-.LBB3101
	.uleb128 .LBE3118-.LBB3101
	.byte	0
.LLRL480:
	.byte	0x5
	.quad	.LBB3106
	.byte	0x4
	.uleb128 .LBB3106-.LBB3106
	.uleb128 .LBE3106-.LBB3106
	.byte	0x4
	.uleb128 .LBB3115-.LBB3106
	.uleb128 .LBE3115-.LBB3106
	.byte	0
.LLRL482:
	.byte	0x5
	.quad	.LBB3109
	.byte	0x4
	.uleb128 .LBB3109-.LBB3109
	.uleb128 .LBE3109-.LBB3109
	.byte	0x4
	.uleb128 .LBB3123-.LBB3109
	.uleb128 .LBE3123-.LBB3109
	.byte	0
.LLRL484:
	.byte	0x5
	.quad	.LBB3112
	.byte	0x4
	.uleb128 .LBB3112-.LBB3112
	.uleb128 .LBE3112-.LBB3112
	.byte	0x4
	.uleb128 .LBB3117-.LBB3112
	.uleb128 .LBE3117-.LBB3112
	.byte	0
.LLRL496:
	.byte	0x5
	.quad	.LBB3132
	.byte	0x4
	.uleb128 .LBB3132-.LBB3132
	.uleb128 .LBE3132-.LBB3132
	.byte	0x4
	.uleb128 .LBB3150-.LBB3132
	.uleb128 .LBE3150-.LBB3132
	.byte	0
.LLRL498:
	.byte	0x5
	.quad	.LBB3133
	.byte	0x4
	.uleb128 .LBB3133-.LBB3133
	.uleb128 .LBE3133-.LBB3133
	.byte	0x4
	.uleb128 .LBB3134-.LBB3133
	.uleb128 .LBE3134-.LBB3133
	.byte	0x4
	.uleb128 .LBB3135-.LBB3133
	.uleb128 .LBE3135-.LBB3133
	.byte	0x4
	.uleb128 .LBB3136-.LBB3133
	.uleb128 .LBE3136-.LBB3133
	.byte	0x4
	.uleb128 .LBB3137-.LBB3133
	.uleb128 .LBE3137-.LBB3133
	.byte	0x4
	.uleb128 .LBB3138-.LBB3133
	.uleb128 .LBE3138-.LBB3133
	.byte	0x4
	.uleb128 .LBB3139-.LBB3133
	.uleb128 .LBE3139-.LBB3133
	.byte	0x4
	.uleb128 .LBB3140-.LBB3133
	.uleb128 .LBE3140-.LBB3133
	.byte	0x4
	.uleb128 .LBB3141-.LBB3133
	.uleb128 .LBE3141-.LBB3133
	.byte	0x4
	.uleb128 .LBB3142-.LBB3133
	.uleb128 .LBE3142-.LBB3133
	.byte	0x4
	.uleb128 .LBB3143-.LBB3133
	.uleb128 .LBE3143-.LBB3133
	.byte	0x4
	.uleb128 .LBB3144-.LBB3133
	.uleb128 .LBE3144-.LBB3133
	.byte	0x4
	.uleb128 .LBB3145-.LBB3133
	.uleb128 .LBE3145-.LBB3133
	.byte	0x4
	.uleb128 .LBB3146-.LBB3133
	.uleb128 .LBE3146-.LBB3133
	.byte	0x4
	.uleb128 .LBB3147-.LBB3133
	.uleb128 .LBE3147-.LBB3133
	.byte	0x4
	.uleb128 .LBB3148-.LBB3133
	.uleb128 .LBE3148-.LBB3133
	.byte	0x4
	.uleb128 .LBB3149-.LBB3133
	.uleb128 .LBE3149-.LBB3133
	.byte	0
.LLRL499:
	.byte	0x5
	.quad	.LBB3163
	.byte	0x4
	.uleb128 .LBB3163-.LBB3163
	.uleb128 .LBE3163-.LBB3163
	.byte	0x4
	.uleb128 .LBB3171-.LBB3163
	.uleb128 .LBE3171-.LBB3163
	.byte	0x4
	.uleb128 .LBB3177-.LBB3163
	.uleb128 .LBE3177-.LBB3163
	.byte	0x4
	.uleb128 .LBB3179-.LBB3163
	.uleb128 .LBE3179-.LBB3163
	.byte	0
.LLRL502:
	.byte	0x5
	.quad	.LBB3168
	.byte	0x4
	.uleb128 .LBB3168-.LBB3168
	.uleb128 .LBE3168-.LBB3168
	.byte	0x4
	.uleb128 .LBB3185-.LBB3168
	.uleb128 .LBE3185-.LBB3168
	.byte	0
.LLRL505:
	.byte	0x5
	.quad	.LBB3172
	.byte	0x4
	.uleb128 .LBB3172-.LBB3172
	.uleb128 .LBE3172-.LBB3172
	.byte	0x4
	.uleb128 .LBB3178-.LBB3172
	.uleb128 .LBE3178-.LBB3172
	.byte	0x4
	.uleb128 .LBB3180-.LBB3172
	.uleb128 .LBE3180-.LBB3172
	.byte	0x4
	.uleb128 .LBB3183-.LBB3172
	.uleb128 .LBE3183-.LBB3172
	.byte	0
.LLRL508:
	.byte	0x5
	.quad	.LBB3181
	.byte	0x4
	.uleb128 .LBB3181-.LBB3181
	.uleb128 .LBE3181-.LBB3181
	.byte	0x4
	.uleb128 .LBB3184-.LBB3181
	.uleb128 .LBE3184-.LBB3181
	.byte	0
.LLRL511:
	.byte	0x5
	.quad	.LBB3190
	.byte	0x4
	.uleb128 .LBB3190-.LBB3190
	.uleb128 .LBE3190-.LBB3190
	.byte	0x4
	.uleb128 .LBB3195-.LBB3190
	.uleb128 .LBE3195-.LBB3190
	.byte	0
.LLRL516:
	.byte	0x5
	.quad	.LBB3208
	.byte	0x4
	.uleb128 .LBB3208-.LBB3208
	.uleb128 .LBE3208-.LBB3208
	.byte	0x4
	.uleb128 .LBB3235-.LBB3208
	.uleb128 .LBE3235-.LBB3208
	.byte	0x4
	.uleb128 .LBB3237-.LBB3208
	.uleb128 .LBE3237-.LBB3208
	.byte	0x4
	.uleb128 .LBB3265-.LBB3208
	.uleb128 .LBE3265-.LBB3208
	.byte	0x7
	.quad	.LBB3267
	.uleb128 .LBE3267-.LBB3267
	.byte	0
.LLRL518:
	.byte	0x5
	.quad	.LBB3209
	.byte	0x4
	.uleb128 .LBB3209-.LBB3209
	.uleb128 .LBE3209-.LBB3209
	.byte	0x4
	.uleb128 .LBB3230-.LBB3209
	.uleb128 .LBE3230-.LBB3209
	.byte	0x4
	.uleb128 .LBB3231-.LBB3209
	.uleb128 .LBE3231-.LBB3209
	.byte	0x4
	.uleb128 .LBB3232-.LBB3209
	.uleb128 .LBE3232-.LBB3209
	.byte	0x7
	.quad	.LBB3233
	.uleb128 .LBE3233-.LBB3233
	.byte	0
.LLRL519:
	.byte	0x5
	.quad	.LBB3210
	.byte	0x4
	.uleb128 .LBB3210-.LBB3210
	.uleb128 .LBE3210-.LBB3210
	.byte	0x4
	.uleb128 .LBB3225-.LBB3210
	.uleb128 .LBE3225-.LBB3210
	.byte	0x4
	.uleb128 .LBB3226-.LBB3210
	.uleb128 .LBE3226-.LBB3210
	.byte	0x4
	.uleb128 .LBB3228-.LBB3210
	.uleb128 .LBE3228-.LBB3210
	.byte	0x4
	.uleb128 .LBB3229-.LBB3210
	.uleb128 .LBE3229-.LBB3210
	.byte	0
.LLRL521:
	.byte	0x5
	.quad	.LBB3211
	.byte	0x4
	.uleb128 .LBB3211-.LBB3211
	.uleb128 .LBE3211-.LBB3211
	.byte	0x4
	.uleb128 .LBB3218-.LBB3211
	.uleb128 .LBE3218-.LBB3211
	.byte	0x4
	.uleb128 .LBB3219-.LBB3211
	.uleb128 .LBE3219-.LBB3211
	.byte	0x4
	.uleb128 .LBB3220-.LBB3211
	.uleb128 .LBE3220-.LBB3211
	.byte	0x4
	.uleb128 .LBB3221-.LBB3211
	.uleb128 .LBE3221-.LBB3211
	.byte	0x4
	.uleb128 .LBB3222-.LBB3211
	.uleb128 .LBE3222-.LBB3211
	.byte	0x4
	.uleb128 .LBB3223-.LBB3211
	.uleb128 .LBE3223-.LBB3211
	.byte	0x4
	.uleb128 .LBB3224-.LBB3211
	.uleb128 .LBE3224-.LBB3211
	.byte	0
.LLRL524:
	.byte	0x5
	.quad	.LBB3212
	.byte	0x4
	.uleb128 .LBB3212-.LBB3212
	.uleb128 .LBE3212-.LBB3212
	.byte	0x4
	.uleb128 .LBB3217-.LBB3212
	.uleb128 .LBE3217-.LBB3212
	.byte	0
.LLRL526:
	.byte	0x5
	.quad	.LBB3213
	.byte	0x4
	.uleb128 .LBB3213-.LBB3213
	.uleb128 .LBE3213-.LBB3213
	.byte	0x4
	.uleb128 .LBB3214-.LBB3213
	.uleb128 .LBE3214-.LBB3213
	.byte	0x4
	.uleb128 .LBB3215-.LBB3213
	.uleb128 .LBE3215-.LBB3213
	.byte	0x4
	.uleb128 .LBB3216-.LBB3213
	.uleb128 .LBE3216-.LBB3213
	.byte	0
.LLRL529:
	.byte	0x5
	.quad	.LBB3238
	.byte	0x4
	.uleb128 .LBB3238-.LBB3238
	.uleb128 .LBE3238-.LBB3238
	.byte	0x4
	.uleb128 .LBB3242-.LBB3238
	.uleb128 .LBE3242-.LBB3238
	.byte	0x4
	.uleb128 .LBB3243-.LBB3238
	.uleb128 .LBE3243-.LBB3238
	.byte	0x4
	.uleb128 .LBB3244-.LBB3238
	.uleb128 .LBE3244-.LBB3238
	.byte	0
.LLRL531:
	.byte	0x5
	.quad	.LBB3247
	.byte	0x4
	.uleb128 .LBB3247-.LBB3247
	.uleb128 .LBE3247-.LBB3247
	.byte	0x4
	.uleb128 .LBB3262-.LBB3247
	.uleb128 .LBE3262-.LBB3247
	.byte	0
.LLRL534:
	.byte	0x5
	.quad	.LBB3253
	.byte	0x4
	.uleb128 .LBB3253-.LBB3253
	.uleb128 .LBE3253-.LBB3253
	.byte	0x4
	.uleb128 .LBB3263-.LBB3253
	.uleb128 .LBE3263-.LBB3253
	.byte	0
.LLRL541:
	.byte	0x5
	.quad	.LBB3271
	.byte	0x4
	.uleb128 .LBB3271-.LBB3271
	.uleb128 .LBE3271-.LBB3271
	.byte	0x4
	.uleb128 .LBB3277-.LBB3271
	.uleb128 .LBE3277-.LBB3271
	.byte	0x4
	.uleb128 .LBB3278-.LBB3271
	.uleb128 .LBE3278-.LBB3271
	.byte	0x4
	.uleb128 .LBB3279-.LBB3271
	.uleb128 .LBE3279-.LBB3271
	.byte	0x4
	.uleb128 .LBB3280-.LBB3271
	.uleb128 .LBE3280-.LBB3271
	.byte	0
.LLRL560:
	.byte	0x7
	.quad	.LBB3342
	.uleb128 .LBE3342-.LBB3342
	.byte	0x5
	.quad	.LBB3367
	.byte	0x4
	.uleb128 .LBB3367-.LBB3367
	.uleb128 .LBE3367-.LBB3367
	.byte	0x4
	.uleb128 .LBB3372-.LBB3367
	.uleb128 .LBE3372-.LBB3367
	.byte	0x4
	.uleb128 .LBB3436-.LBB3367
	.uleb128 .LBE3436-.LBB3367
	.byte	0
.LLRL561:
	.byte	0x7
	.quad	.LBB3343
	.uleb128 .LBE3343-.LBB3343
	.byte	0x5
	.quad	.LBB3362
	.byte	0x4
	.uleb128 .LBB3362-.LBB3362
	.uleb128 .LBE3362-.LBB3362
	.byte	0x4
	.uleb128 .LBB3365-.LBB3362
	.uleb128 .LBE3365-.LBB3362
	.byte	0x4
	.uleb128 .LBB3366-.LBB3362
	.uleb128 .LBE3366-.LBB3362
	.byte	0
.LLRL562:
	.byte	0x7
	.quad	.LBB3344
	.uleb128 .LBE3344-.LBB3344
	.byte	0x5
	.quad	.LBB3356
	.byte	0x4
	.uleb128 .LBB3356-.LBB3356
	.uleb128 .LBE3356-.LBB3356
	.byte	0x4
	.uleb128 .LBB3357-.LBB3356
	.uleb128 .LBE3357-.LBB3356
	.byte	0x4
	.uleb128 .LBB3361-.LBB3356
	.uleb128 .LBE3361-.LBB3356
	.byte	0
.LLRL570:
	.byte	0x5
	.quad	.LBB3374
	.byte	0x4
	.uleb128 .LBB3374-.LBB3374
	.uleb128 .LBE3374-.LBB3374
	.byte	0x4
	.uleb128 .LBB3389-.LBB3374
	.uleb128 .LBE3389-.LBB3374
	.byte	0
.LLRL571:
	.byte	0x5
	.quad	.LBB3375
	.byte	0x4
	.uleb128 .LBB3375-.LBB3375
	.uleb128 .LBE3375-.LBB3375
	.byte	0x4
	.uleb128 .LBB3383-.LBB3375
	.uleb128 .LBE3383-.LBB3375
	.byte	0
.LLRL579:
	.byte	0x5
	.quad	.LBB3390
	.byte	0x4
	.uleb128 .LBB3390-.LBB3390
	.uleb128 .LBE3390-.LBB3390
	.byte	0x4
	.uleb128 .LBB3438-.LBB3390
	.uleb128 .LBE3438-.LBB3390
	.byte	0
.LLRL583:
	.byte	0x5
	.quad	.LBB3393
	.byte	0x4
	.uleb128 .LBB3393-.LBB3393
	.uleb128 .LBE3393-.LBB3393
	.byte	0x4
	.uleb128 .LBB3414-.LBB3393
	.uleb128 .LBE3414-.LBB3393
	.byte	0
.LLRL585:
	.byte	0x5
	.quad	.LBB3394
	.byte	0x4
	.uleb128 .LBB3394-.LBB3394
	.uleb128 .LBE3394-.LBB3394
	.byte	0x4
	.uleb128 .LBB3413-.LBB3394
	.uleb128 .LBE3413-.LBB3394
	.byte	0
.LLRL586:
	.byte	0x5
	.quad	.LBB3395
	.byte	0x4
	.uleb128 .LBB3395-.LBB3395
	.uleb128 .LBE3395-.LBB3395
	.byte	0x4
	.uleb128 .LBB3408-.LBB3395
	.uleb128 .LBE3408-.LBB3395
	.byte	0x4
	.uleb128 .LBB3409-.LBB3395
	.uleb128 .LBE3409-.LBB3395
	.byte	0
.LLRL588:
	.byte	0x5
	.quad	.LBB3397
	.byte	0x4
	.uleb128 .LBB3397-.LBB3397
	.uleb128 .LBE3397-.LBB3397
	.byte	0x4
	.uleb128 .LBB3405-.LBB3397
	.uleb128 .LBE3405-.LBB3397
	.byte	0
.LLRL590:
	.byte	0x5
	.quad	.LBB3399
	.byte	0x4
	.uleb128 .LBB3399-.LBB3399
	.uleb128 .LBE3399-.LBB3399
	.byte	0x4
	.uleb128 .LBB3403-.LBB3399
	.uleb128 .LBE3403-.LBB3399
	.byte	0
.LLRL591:
	.byte	0x5
	.quad	.LBB3400
	.byte	0x4
	.uleb128 .LBB3400-.LBB3400
	.uleb128 .LBE3400-.LBB3400
	.byte	0x4
	.uleb128 .LBB3402-.LBB3400
	.uleb128 .LBE3402-.LBB3400
	.byte	0
.LLRL596:
	.byte	0x5
	.quad	.LBB3416
	.byte	0x4
	.uleb128 .LBB3416-.LBB3416
	.uleb128 .LBE3416-.LBB3416
	.byte	0x4
	.uleb128 .LBB3435-.LBB3416
	.uleb128 .LBE3435-.LBB3416
	.byte	0
.LLRL598:
	.byte	0x5
	.quad	.LBB3417
	.byte	0x4
	.uleb128 .LBB3417-.LBB3417
	.uleb128 .LBE3417-.LBB3417
	.byte	0x4
	.uleb128 .LBB3434-.LBB3417
	.uleb128 .LBE3434-.LBB3417
	.byte	0
.LLRL600:
	.byte	0x5
	.quad	.LBB3418
	.byte	0x4
	.uleb128 .LBB3418-.LBB3418
	.uleb128 .LBE3418-.LBB3418
	.byte	0x4
	.uleb128 .LBB3428-.LBB3418
	.uleb128 .LBE3428-.LBB3418
	.byte	0
.LLRL602:
	.byte	0x5
	.quad	.LBB3419
	.byte	0x4
	.uleb128 .LBB3419-.LBB3419
	.uleb128 .LBE3419-.LBB3419
	.byte	0x4
	.uleb128 .LBB3427-.LBB3419
	.uleb128 .LBE3427-.LBB3419
	.byte	0
.LLRL606:
	.byte	0x5
	.quad	.LBB3421
	.byte	0x4
	.uleb128 .LBB3421-.LBB3421
	.uleb128 .LBE3421-.LBB3421
	.byte	0x4
	.uleb128 .LBB3425-.LBB3421
	.uleb128 .LBE3425-.LBB3421
	.byte	0
.LLRL620:
	.byte	0x7
	.quad	.Ltext0
	.uleb128 .Letext0-.Ltext0
	.byte	0x7
	.quad	.Ltext_cold0
	.uleb128 .Letext_cold0-.Ltext_cold0
	.byte	0
.Ldebug_ranges3:
	.section	.debug_line,"",@progbits
.Ldebug_line0:
	.section	.debug_str,"MS",@progbits,1
.LASF356:
	.string	"_ZNSt6vectorI16SubApertureImageSaIS0_EEC4EOS2_RKS1_St17integral_constantIbLb1EE"
.LASF1119:
	.string	"lconv"
.LASF671:
	.string	"_ZNKSt6vectorIfSaIfEE4cendEv"
.LASF152:
	.string	"_ZNSt6vectorIhSaIhEE19_S_nothrow_relocateESt17integral_constantIbLb1EE"
.LASF693:
	.string	"_ZNSt6vectorIfSaIfEE9push_backERKf"
.LASF534:
	.string	"_ZNKSt6vectorIiSaIiEE4sizeEv"
.LASF953:
	.string	"wmemmove"
.LASF581:
	.string	"initializer_list<int>"
.LASF135:
	.string	"_ZNSt12_Vector_baseIhSaIhEEC4EOS1_RKS0_"
.LASF1161:
	.string	"__int_least64_t"
.LASF1051:
	.string	"_ZNK9__gnu_cxx17__normal_iteratorIPK16SubApertureImageSt6vectorIS1_SaIS1_EEEmiEl"
.LASF419:
	.string	"_ZNSt6vectorI16SubApertureImageSaIS0_EE11_S_max_sizeERKS1_"
.LASF379:
	.string	"_ZNKSt6vectorI16SubApertureImageSaIS0_EE8max_sizeEv"
.LASF1340:
	.string	"__it"
.LASF166:
	.string	"_ZNSt6vectorIhSaIhEEC4EOS1_RKS0_"
.LASF1365:
	.string	"_ZNSt15__new_allocatorIhEC2Ev"
.LASF526:
	.string	"_ZNSt6vectorIiSaIiEE6rbeginEv"
.LASF1412:
	.string	"tile_vals"
.LASF183:
	.string	"reverse_iterator"
.LASF923:
	.string	"tm_sec"
.LASF425:
	.string	"initializer_list<SubApertureImage>"
.LASF596:
	.string	"_ZNKSt15__new_allocatorIfE7addressERf"
.LASF700:
	.string	"_ZNSt6vectorIfSaIfEE5eraseEN9__gnu_cxx17__normal_iteratorIPKfS1_EE"
.LASF422:
	.string	"_ZNSt6vectorI16SubApertureImageSaIS0_EE8_M_eraseEN9__gnu_cxx17__normal_iteratorIPS0_S2_EES6_"
.LASF1016:
	.string	"_ZN9__gnu_cxx14__alloc_traitsISaI16SubApertureImageES1_E10_S_on_swapERS2_S4_"
.LASF79:
	.string	"allocate"
.LASF363:
	.string	"_ZNSt6vectorI16SubApertureImageSaIS0_EEaSESt16initializer_listIS0_E"
.LASF1113:
	.string	"__int128 unsigned"
.LASF696:
	.string	"_ZNSt6vectorIfSaIfEE6insertEN9__gnu_cxx17__normal_iteratorIPKfS1_EERS4_"
.LASF1343:
	.string	"__allocmax"
.LASF1358:
	.string	"__vect"
.LASF892:
	.string	"fwide"
.LASF617:
	.string	"_ZNSt12_Vector_baseIfSaIfEE17_Vector_impl_data12_M_swap_dataERS2_"
.LASF1067:
	.string	"__normal_iterator<int const*, std::vector<int, std::allocator<int> > >"
.LASF1139:
	.string	"int_p_sep_by_space"
.LASF512:
	.string	"_ZNSt6vectorIiSaIiEEC4EOS1_RKS0_St17integral_constantIbLb1EE"
.LASF310:
	.string	"_ZNSt16allocator_traitsISaI16SubApertureImageEE8allocateERS1_mPKv"
.LASF215:
	.string	"_ZNKSt6vectorIhSaIhEEixEm"
.LASF322:
	.string	"_ZNSt12_Vector_baseI16SubApertureImageSaIS0_EE12_Vector_implC4ERKS1_"
.LASF1148:
	.string	"__uint8_t"
.LASF896:
	.string	"getwc"
.LASF161:
	.string	"_ZNSt6vectorIhSaIhEEC4ERKS1_"
.LASF1177:
	.string	"7lldiv_t"
.LASF276:
	.string	"_ZNSt6vectorIhSaIhEE14_M_move_assignEOS1_St17integral_constantIbLb0EE"
.LASF648:
	.string	"_ZNSt6vectorIfSaIfEEC4EmRKfRKS0_"
.LASF974:
	.string	"_ZN9__gnu_cxx14__alloc_traitsISaIhEhE27_S_propagate_on_copy_assignEv"
.LASF1227:
	.string	"fpos_t"
.LASF304:
	.string	"_ZNSaI16SubApertureImageEC4Ev"
.LASF627:
	.string	"_ZNSt12_Vector_baseIfSaIfEEC4Ev"
.LASF1402:
	.string	"refocus_shift_and_sum"
.LASF635:
	.string	"_ZNSt12_Vector_baseIfSaIfEED4Ev"
.LASF1037:
	.string	"_ZNK9__gnu_cxx17__normal_iteratorIP16SubApertureImageSt6vectorIS1_SaIS1_EEE4baseEv"
.LASF1454:
	.string	"outp"
.LASF1305:
	.string	"SubApertureImage"
.LASF764:
	.string	"_ZSt10_ConstructIfJEEvPT_DpOT0_"
.LASF983:
	.string	"rebind<unsigned char>"
.LASF724:
	.string	"_ZNSt16initializer_listIfEC4EPKfm"
.LASF653:
	.string	"_ZNSt6vectorIfSaIfEEC4EOS1_RKS0_St17integral_constantIbLb0EE"
.LASF548:
	.string	"_ZNKSt6vectorIiSaIiEE5frontEv"
.LASF737:
	.string	"_UninitDestroyGuard"
.LASF615:
	.string	"_ZNSt12_Vector_baseIfSaIfEE17_Vector_impl_dataC4EOS2_"
.LASF451:
	.string	"_ZNSt15__new_allocatorIiEC4ERKS0_"
.LASF874:
	.string	"_shortbuf"
.LASF237:
	.string	"_ZNSt6vectorIhSaIhEE6insertEN9__gnu_cxx17__normal_iteratorIPKhS1_EESt16initializer_listIhE"
.LASF642:
	.string	"_ZNSt6vectorIfSaIfEE19_S_nothrow_relocateESt17integral_constantIbLb0EE"
.LASF803:
	.string	"_Tp2"
.LASF804:
	.string	"__to_address<(anonymous namespace)::SubParams>"
.LASF963:
	.string	"__gnu_cxx"
.LASF1373:
	.string	"_ZNSt12_Vector_baseIiSaIiEED2Ev"
.LASF169:
	.string	"_ZNSt6vectorIhSaIhEED4Ev"
.LASF1330:
	.string	"operator new"
.LASF522:
	.string	"_ZNSt6vectorIiSaIiEE5beginEv"
.LASF1046:
	.string	"_ZN9__gnu_cxx17__normal_iteratorIPK16SubApertureImageSt6vectorIS1_SaIS1_EEEmmEi"
.LASF969:
	.string	"_S_select_on_copy"
.LASF1091:
	.string	"_ZNK9__gnu_cxx17__normal_iteratorIPfSt6vectorIfSaIfEEE4baseEv"
.LASF1304:
	.string	"_ZN9ImageDataC4Ev"
.LASF1000:
	.string	"_ZN9__gnu_cxx17__normal_iteratorIPhSt6vectorIhSaIhEEEmmEi"
.LASF909:
	.string	"__isoc23_vfwscanf"
.LASF1045:
	.string	"_ZN9__gnu_cxx17__normal_iteratorIPK16SubApertureImageSt6vectorIS1_SaIS1_EEEmmEv"
.LASF936:
	.string	"wcsncmp"
.LASF244:
	.string	"_ZNSt6vectorIhSaIhEE5clearEv"
.LASF485:
	.string	"_ZNKSt12_Vector_baseIiSaIiEE19_M_get_Tp_allocatorEv"
.LASF314:
	.string	"_ZNSt16allocator_traitsISaI16SubApertureImageEE37select_on_container_copy_constructionERKS1_"
.LASF1445:
	.string	"val_1"
.LASF316:
	.string	"_ZNSt12_Vector_baseI16SubApertureImageSaIS0_EE17_Vector_impl_dataC4Ev"
.LASF207:
	.string	"capacity"
.LASF1342:
	.string	"__diffmax"
.LASF1093:
	.string	"__conditional_type<true, float const, float const&>"
.LASF389:
	.string	"_ZNSt6vectorI16SubApertureImageSaIS0_EE2atEm"
.LASF298:
	.string	"_ZNKSt15__new_allocatorI16SubApertureImageE7addressERKS0_"
.LASF588:
	.string	"reverse_iterator<__gnu_cxx::__normal_iterator<int*, std::vector<int, std::allocator<int> > > >"
.LASF698:
	.string	"_ZNSt6vectorIfSaIfEE6insertEN9__gnu_cxx17__normal_iteratorIPKfS1_EESt16initializer_listIfE"
.LASF203:
	.string	"_ZNSt6vectorIhSaIhEE6resizeEm"
.LASF1106:
	.string	"__isoc23_wcstoull"
.LASF1230:
	.string	"feof"
.LASF920:
	.string	"wcscpy"
.LASF1254:
	.string	"uint16_t"
.LASF1480:
	.string	"__q0"
.LASF703:
	.string	"_ZNSt6vectorIfSaIfEE5clearEv"
.LASF335:
	.string	"_ZNSt12_Vector_baseI16SubApertureImageSaIS0_EEC4EOS2_RKS1_"
.LASF600:
	.string	"_ZNKSt15__new_allocatorIfE8max_sizeEv"
.LASF1180:
	.string	"time_t"
.LASF125:
	.string	"_ZNKSt12_Vector_baseIhSaIhEE19_M_get_Tp_allocatorEv"
.LASF1465:
	.string	"_mm256_cvtepu8_epi32"
.LASF105:
	.string	"_Vector_base<unsigned char, std::allocator<unsigned char> >"
.LASF1017:
	.string	"_ZN9__gnu_cxx14__alloc_traitsISaI16SubApertureImageES1_E27_S_propagate_on_copy_assignEv"
.LASF1306:
	.string	"float_t"
.LASF1077:
	.string	"__normal_iterator<float*, std::vector<float, std::allocator<float> > >"
.LASF768:
	.string	"_ZSt9__fill_a1IhhEN9__gnu_cxx11__enable_ifIXaasrSt9__is_byteIT_E7__valueoosrSt10__are_sameIS3_T0_E7__valuesrSt20__memcpyable_integerIS6_E7__widthEvE6__typeEPS3_SC_RKS6_"
.LASF208:
	.string	"_ZNKSt6vectorIhSaIhEE8capacityEv"
.LASF844:
	.string	"reg_save_area"
.LASF1346:
	.string	"_ZNSt15__new_allocatorIfEC2ERKS0_"
.LASF1080:
	.string	"_ZNK9__gnu_cxx17__normal_iteratorIPfSt6vectorIfSaIfEEEdeEv"
.LASF1392:
	.string	"_ZNSaIfEC2Ev"
.LASF833:
	.string	"min<int>"
.LASF1165:
	.string	"__off_t"
.LASF221:
	.string	"_ZNSt6vectorIhSaIhEE5frontEv"
.LASF76:
	.string	"const_pointer"
.LASF1408:
	.string	"counts"
.LASF435:
	.string	"vector<(anonymous namespace)::SubParams, std::allocator<(anonymous namespace)::SubParams> >"
.LASF664:
	.string	"_ZNSt6vectorIfSaIfEE3endEv"
.LASF85:
	.string	"_ZNKSt15__new_allocatorIhE8max_sizeEv"
.LASF14:
	.string	"_ZNKSt17integral_constantIbLb0EEcvbEv"
.LASF162:
	.string	"_ZNSt6vectorIhSaIhEEC4EOS1_"
.LASF82:
	.string	"deallocate"
.LASF1293:
	.string	"towctrans"
.LASF144:
	.string	"_M_create_storage"
.LASF7:
	.string	"operator std::integral_constant<bool, true>::value_type"
.LASF1462:
	.string	"_ZNSt12_Vector_baseIhSaIhEE12_Vector_implD2Ev"
.LASF204:
	.string	"_ZNSt6vectorIhSaIhEE6resizeEmRKh"
.LASF687:
	.string	"_ZNSt6vectorIfSaIfEE5frontEv"
.LASF931:
	.string	"tm_isdst"
.LASF1279:
	.string	"_Float128"
.LASF1298:
	.string	"height"
.LASF211:
	.string	"reserve"
.LASF1122:
	.string	"grouping"
.LASF1336:
	.string	"_ZNSt19_UninitDestroyGuardIPivEC2ERS0_"
.LASF875:
	.string	"_lock"
.LASF89:
	.string	"allocator"
.LASF823:
	.string	"_Destroy<int*, int>"
.LASF1103:
	.string	"__isoc23_wcstoll"
.LASF1102:
	.string	"wcstoll"
.LASF136:
	.string	"_ZNSt12_Vector_baseIhSaIhEEC4ERKS0_OS1_"
.LASF527:
	.string	"_ZNKSt6vectorIiSaIiEE6rbeginEv"
.LASF1323:
	.string	"SubParams"
.LASF551:
	.string	"_ZNSt6vectorIiSaIiEE4dataEv"
.LASF67:
	.string	"operator bool"
.LASF616:
	.string	"_ZNSt12_Vector_baseIfSaIfEE17_Vector_impl_data12_M_copy_dataERKS2_"
.LASF691:
	.string	"_ZNSt6vectorIfSaIfEE4dataEv"
.LASF84:
	.string	"max_size"
.LASF131:
	.string	"_ZNSt12_Vector_baseIhSaIhEEC4Em"
.LASF1109:
	.string	"__max_align_ld"
.LASF563:
	.string	"_ZNSt6vectorIiSaIiEE5clearEv"
.LASF1111:
	.string	"bool"
.LASF726:
	.string	"_ZNKSt16initializer_listIfE4sizeEv"
.LASF129:
	.string	"_ZNSt12_Vector_baseIhSaIhEEC4Ev"
.LASF1192:
	.string	"atoi"
.LASF1108:
	.string	"__max_align_ll"
.LASF1193:
	.string	"atol"
.LASF272:
	.string	"_ZNSt6vectorIhSaIhEE8_M_eraseEN9__gnu_cxx17__normal_iteratorIPhS1_EE"
.LASF9:
	.string	"_ZNKSt17integral_constantIbLb1EEcvbEv"
.LASF535:
	.string	"_ZNKSt6vectorIiSaIiEE8max_sizeEv"
.LASF937:
	.string	"wcsncpy"
.LASF1026:
	.string	"_ZNK9__gnu_cxx17__normal_iteratorIP16SubApertureImageSt6vectorIS1_SaIS1_EEEdeEv"
.LASF939:
	.string	"wcsspn"
.LASF1425:
	.string	"ind_rbot"
.LASF1389:
	.string	"_ZNSt6vectorIfSaIfEED2Ev"
.LASF222:
	.string	"_ZNKSt6vectorIhSaIhEE5frontEv"
.LASF368:
	.string	"_ZNSt6vectorI16SubApertureImageSaIS0_EE3endEv"
.LASF15:
	.string	"_ZNKSt17integral_constantIbLb0EEclEv"
.LASF799:
	.string	"_Destroy<int*>"
.LASF618:
	.string	"_ZNSt12_Vector_baseIfSaIfEE12_Vector_implC4Ev"
.LASF1410:
	.string	"TILE_H"
.LASF264:
	.string	"_ZNKSt6vectorIhSaIhEE12_M_check_lenEmPKc"
.LASF1183:
	.string	"int32_t"
.LASF1275:
	.string	"intmax_t"
.LASF1221:
	.string	"__pos"
.LASF1411:
	.string	"TILE_W"
.LASF302:
	.string	"_ZNKSt15__new_allocatorI16SubApertureImageE11_M_max_sizeEv"
.LASF52:
	.string	"__debug"
.LASF754:
	.string	"_ZSt20__throw_length_errorPKc"
.LASF1294:
	.string	"wctrans"
.LASF502:
	.string	"_ZNSt6vectorIiSaIiEE19_S_nothrow_relocateESt17integral_constantIbLb0EE"
.LASF234:
	.string	"insert"
.LASF262:
	.string	"_ZNSt6vectorIhSaIhEE14_M_emplace_auxEN9__gnu_cxx17__normal_iteratorIPKhS1_EEOh"
.LASF510:
	.string	"_ZNSt6vectorIiSaIiEEC4EOS1_"
.LASF797:
	.string	"__uninitialized_default_n_a<float*, long unsigned int, float>"
.LASF542:
	.string	"_ZNSt6vectorIiSaIiEEixEm"
.LASF1144:
	.string	"setlocale"
.LASF1479:
	.string	"__q1"
.LASF175:
	.string	"_ZNSt6vectorIhSaIhEE6assignESt16initializer_listIhE"
.LASF1276:
	.string	"uintmax_t"
.LASF650:
	.string	"_ZNSt6vectorIfSaIfEEC4EOS1_"
.LASF1485:
	.string	"memcpy"
.LASF914:
	.string	"vwscanf"
.LASF53:
	.string	"__cxx11"
.LASF269:
	.string	"_M_erase_at_end"
.LASF492:
	.string	"_ZNSt12_Vector_baseIiSaIiEEC4EOS0_"
.LASF604:
	.string	"_ZNSaIfEC4ERKS_"
.LASF504:
	.string	"_ZNSt6vectorIiSaIiEE11_S_relocateEPiS2_S2_RS0_"
.LASF632:
	.string	"_ZNSt12_Vector_baseIfSaIfEEC4EOS0_"
.LASF65:
	.string	"_ZNSt15__new_allocatorIhEC4Ev"
.LASF1500:
	.string	"11max_align_t"
.LASF652:
	.string	"_ZNSt6vectorIfSaIfEEC4EOS1_RKS0_St17integral_constantIbLb1EE"
.LASF268:
	.string	"_ZNSt6vectorIhSaIhEE11_S_max_sizeERKS0_"
.LASF546:
	.string	"_ZNKSt6vectorIiSaIiEE2atEm"
.LASF361:
	.string	"_ZNSt6vectorI16SubApertureImageSaIS0_EEaSERKS2_"
.LASF462:
	.string	"_ZNSaIiEC4ERKS_"
.LASF1482:
	.string	"_Z14_mm_set_epi64xxx"
.LASF1160:
	.string	"__uint_least32_t"
.LASF1169:
	.string	"__syscall_slong_t"
.LASF1488:
	.string	"__builtin_memset"
.LASF895:
	.string	"__isoc23_fwscanf"
.LASF1491:
	.ascii	"GNU C++17 16.0.1 20260425 (prerelease) [gcc-16 r16-8812-gd9c"
	.ascii	"07462a22] -march=tigerlake -mmmx -mpopcnt -msse -msse2 -msse"
	.ascii	"3 -mssse3 -msse4.1 -msse4.2 -mavx -mno-sse4a -mno-fma4 -mno-"
	.ascii	"xop -mavx512f -mbmi -mbmi2 -maes -mpclmul -mavx512vl -mavx51"
	.ascii	"2bw -mavx512dq -mavx512cd -mavx512vbmi -mavx512ifma -mavx512"
	.ascii	"vpopcntdq -mavx512vbmi2 -mgfni -mvpclmulqdq -mavx512vnni -ma"
	.ascii	"vx512bitalg -mno-avx512bf16 -mavx512vp2intersect -mno-3dnow "
	.ascii	"-madx -mabm -mno-cldemote -mclflushopt -mclwb -mno-clzero -m"
	.ascii	"cx16 -mno-enqcmd -mf16c -mfsgsbase -mfxsr -mno-hle -msahf -m"
	.ascii	"no-lwp -mlzcnt -mmovbe -mmovdir64b -mmovdiri -mno-mwaitx -mn"
	.ascii	"o-pconfig -mpku -mprfchw -mno-ptwrite -mrdpid -mrdrnd -mrdse"
	.ascii	"ed -mno-rtm -mno-serialize -mno-sgx -msha -mshstk -mno-tbm -"
	.ascii	"mno-tsxldtrk -mvaes -mno-waitpkg -mno-wbnoinvd -mxsave -mxsa"
	.ascii	"vec -mxsaveopt -mxsaves -mno-amx-tile -mno-amx-int8 -mno-amx"
	.ascii	"-bf16 -mno-uintr -mno-hreset -mno-kl -mno-widekl -mno-avxvnn"
	.ascii	"i -mno-avx512fp16 -mno-avxifma -mno-avxvnniint8 -mno-avxneco"
	.ascii	"nvert -mno-cmpccxadd -mno-amx-fp16 -mno-prefetchi -mno-raoin"
	.ascii	"t -mno-amx-complex -mno-avxvnniint16 -mno-sm3 -mno-sha512 -m"
	.ascii	"no-sm4 -mno-apxf -mno-usermsr -mno-avx10.1 -mno-avx10.2 -mno"
	.ascii	"-amx-a"
	.string	"vx512 -mno-amx-tf32 -mno-amx-fp8 -mno-movrs -mno-amx-movrs -mno-avx512bmm --param=l1-cache-size=48 --param=l1-cache-line-size=64 --param=l2-cache-size=8192 -mtune=tigerlake -mavx2 -mfma -masm=intel -g -O3 -std=c++17 -ffast-math -fasynchronous-unwind-tables"
.LASF994:
	.string	"_ZNK9__gnu_cxx17__normal_iteratorIPhSt6vectorIhSaIhEEEptEv"
.LASF641:
	.string	"_ZNSt6vectorIfSaIfEE19_S_nothrow_relocateESt17integral_constantIbLb1EE"
.LASF104:
	.string	"rebind_alloc"
.LASF861:
	.string	"_IO_write_end"
.LASF1206:
	.string	"__isoc23_strtol"
.LASF83:
	.string	"_ZNSt15__new_allocatorIhE10deallocateEPhm"
.LASF464:
	.string	"_ZNSaIiED4Ev"
.LASF785:
	.string	"max<long unsigned int>"
.LASF491:
	.string	"_ZNSt12_Vector_baseIiSaIiEEC4EOS1_"
.LASF1375:
	.string	"_ZNSt12_Vector_baseIiSaIiEE12_Vector_implD2Ev"
.LASF714:
	.string	"_ZNSt6vectorIfSaIfEE17_S_check_init_lenEmRKS0_"
.LASF6:
	.string	"value_type"
.LASF1260:
	.string	"int_least64_t"
.LASF631:
	.string	"_ZNSt12_Vector_baseIfSaIfEEC4EOS1_"
.LASF1211:
	.string	"wctomb"
.LASF156:
	.string	"vector"
.LASF46:
	.string	"nullptr_t"
.LASF946:
	.string	"long int"
.LASF672:
	.string	"_ZNKSt6vectorIfSaIfEE7crbeginEv"
.LASF233:
	.string	"_ZNSt6vectorIhSaIhEE8pop_backEv"
.LASF1053:
	.string	"__alloc_traits<std::allocator<(anonymous namespace)::SubParams>, (anonymous namespace)::SubParams>"
.LASF619:
	.string	"_ZNSt12_Vector_baseIfSaIfEE12_Vector_implC4ERKS0_"
.LASF1258:
	.string	"int_least16_t"
.LASF840:
	.string	"_ZSt17__size_to_integerm"
.LASF1072:
	.string	"_ZN9__gnu_cxx14__alloc_traitsISaIfEfE27_S_propagate_on_move_assignEv"
.LASF1299:
	.string	"index"
.LASF94:
	.string	"_ZNSaIhED4Ev"
.LASF1354:
	.string	"_ZNSaIfEC2ERKS_"
.LASF267:
	.string	"_S_max_size"
.LASF1215:
	.string	"__isoc23_strtoll"
.LASF592:
	.string	"_ZNSt15__new_allocatorIfEC4Ev"
.LASF1246:
	.string	"rename"
.LASF1366:
	.string	"_ZNSaIhEC2ERKS_"
.LASF958:
	.string	"wcschr"
.LASF178:
	.string	"_ZNSt6vectorIhSaIhEE5beginEv"
.LASF28:
	.string	"_ZNKSt15__exception_ptr13exception_ptr6_M_getEv"
.LASF1356:
	.string	"_ZNSaIiEC2ERKS_"
.LASF752:
	.string	"_ZSt17__throw_bad_allocv"
.LASF1071:
	.string	"_ZN9__gnu_cxx14__alloc_traitsISaIfEfE27_S_propagate_on_copy_assignEv"
.LASF1288:
	.string	"localtime"
.LASF740:
	.string	"_ZNSt19_UninitDestroyGuardIPivED4Ev"
.LASF1257:
	.string	"int_least8_t"
.LASF961:
	.string	"wcsstr"
.LASF695:
	.string	"_ZNSt6vectorIfSaIfEE8pop_backEv"
.LASF1237:
	.string	"fread"
.LASF1130:
	.string	"int_frac_digits"
.LASF1099:
	.string	"_ZN9__gnu_cxxneERKNS_17__normal_iteratorIP16SubApertureImageSt6vectorIS1_SaIS1_EEEES8_"
.LASF1384:
	.string	"__sz"
.LASF809:
	.string	"fill_n<unsigned char*, long unsigned int, unsigned char>"
.LASF468:
	.string	"_ZNSt16allocator_traitsISaIiEE10deallocateERS0_Pim"
.LASF328:
	.string	"_ZNKSt12_Vector_baseI16SubApertureImageSaIS0_EE13get_allocatorEv"
.LASF1121:
	.string	"thousands_sep"
.LASF1378:
	.string	"__old_start"
.LASF55:
	.string	"chrono_literals"
.LASF1245:
	.string	"remove"
.LASF636:
	.string	"_ZNSt12_Vector_baseIfSaIfEE11_M_allocateEm"
.LASF940:
	.string	"wcstod"
.LASF1164:
	.string	"__uintmax_t"
.LASF942:
	.string	"wcstof"
.LASF1404:
	.string	"subapertures"
.LASF614:
	.string	"_ZNSt12_Vector_baseIfSaIfEE17_Vector_impl_dataC4Ev"
.LASF943:
	.string	"wcstok"
.LASF944:
	.string	"wcstol"
.LASF459:
	.string	"_ZNKSt15__new_allocatorIiE11_M_max_sizeEv"
.LASF115:
	.string	"_M_swap_data"
.LASF684:
	.string	"_ZNKSt6vectorIfSaIfEE14_M_range_checkEm"
.LASF417:
	.string	"_ZNKSt6vectorI16SubApertureImageSaIS0_EE12_M_check_lenEmPKc"
.LASF420:
	.string	"_ZNSt6vectorI16SubApertureImageSaIS0_EE15_M_erase_at_endEPS0_"
.LASF441:
	.string	"~_Guard_alloc"
.LASF151:
	.string	"_S_nothrow_relocate"
.LASF1332:
	.string	"__first"
.LASF832:
	.string	"_ZSt4fillIN9__gnu_cxx17__normal_iteratorIPfSt6vectorIfSaIfEEEEfEvT_S7_RKT0_"
.LASF1457:
	.string	"__rhs"
.LASF228:
	.string	"_ZNKSt6vectorIhSaIhEE4dataEv"
.LASF1178:
	.string	"lldiv_t"
.LASF1233:
	.string	"fgetc"
.LASF1212:
	.string	"lldiv"
.LASF1167:
	.string	"__clock_t"
.LASF685:
	.string	"_ZNSt6vectorIfSaIfEE2atEm"
.LASF460:
	.string	"allocator<int>"
.LASF827:
	.string	"_Allocator"
.LASF1094:
	.string	"__type"
.LASF36:
	.string	"_ZNSt15__exception_ptr13exception_ptraSERKS0_"
.LASF278:
	.string	"_ZNKSt6vectorIhSaIhEE11_M_data_ptrIhEEPT_S4_"
.LASF1087:
	.string	"_ZN9__gnu_cxx17__normal_iteratorIPfSt6vectorIfSaIfEEEpLEl"
.LASF442:
	.string	"_M_realloc_append<const (anonymous namespace)::SubParams&>"
.LASF743:
	.string	"_M_first"
.LASF1052:
	.string	"_ZNK9__gnu_cxx17__normal_iteratorIPK16SubApertureImageSt6vectorIS1_SaIS1_EEE4baseEv"
.LASF991:
	.string	"operator*"
.LASF1004:
	.string	"operator+"
.LASF1008:
	.string	"operator-"
.LASF1170:
	.string	"__gnu_debug"
.LASF399:
	.string	"_ZNSt6vectorI16SubApertureImageSaIS0_EE8pop_backEv"
.LASF822:
	.string	"_ZSt8_DestroyIPffEvT_S1_RSaIT0_E"
.LASF1149:
	.string	"__int16_t"
.LASF954:
	.string	"wmemset"
.LASF35:
	.string	"operator="
.LASF1150:
	.string	"__uint16_t"
.LASF486:
	.string	"_ZNKSt12_Vector_baseIiSaIiEE13get_allocatorEv"
.LASF886:
	.string	"btowc"
.LASF1423:
	.string	"ind_lbot"
.LASF173:
	.string	"assign"
.LASF1314:
	.string	"__m128i"
.LASF1359:
	.string	"__args"
.LASF699:
	.string	"_ZNSt6vectorIfSaIfEE6insertEN9__gnu_cxx17__normal_iteratorIPKfS1_EEmRS4_"
.LASF501:
	.string	"_ZNSt6vectorIiSaIiEE19_S_nothrow_relocateESt17integral_constantIbLb1EE"
.LASF258:
	.string	"_ZNSt6vectorIhSaIhEE16_M_shrink_to_fitEv"
.LASF902:
	.string	"putwchar"
.LASF633:
	.string	"_ZNSt12_Vector_baseIfSaIfEEC4EOS1_RKS0_"
.LASF1073:
	.string	"_ZN9__gnu_cxx14__alloc_traitsISaIfEfE20_S_propagate_on_swapEv"
.LASF505:
	.string	"_ZNSt6vectorIiSaIiEEC4Ev"
.LASF1158:
	.string	"__uint_least16_t"
.LASF566:
	.string	"_ZNSt6vectorIiSaIiEE14_M_fill_assignEmRKi"
.LASF659:
	.string	"_ZNSt6vectorIfSaIfEEaSESt16initializer_listIfE"
.LASF1124:
	.string	"currency_symbol"
.LASF1307:
	.string	"double_t"
.LASF1394:
	.string	"_ZNSt6vectorIiSaIiEEC2EmRKiRKS0_"
.LASF734:
	.string	"iterator_traits<const SubApertureImage*>"
.LASF1418:
	.string	"tile_y_end"
.LASF788:
	.string	"_ZSt10__fill_n_aIPhmhET_S1_T0_RKT1_St26random_access_iterator_tag"
.LASF574:
	.string	"_ZNSt6vectorIiSaIiEE17_S_check_init_lenEmRKS0_"
.LASF288:
	.string	"_ZSt3absd"
.LASF160:
	.string	"_ZNSt6vectorIhSaIhEEC4EmRKhRKS0_"
.LASF300:
	.string	"_ZNSt15__new_allocatorI16SubApertureImageE10deallocateEPS0_m"
.LASF798:
	.string	"_ZSt27__uninitialized_default_n_aIPfmfET_S1_T0_RSaIT1_E"
.LASF1390:
	.string	"_ZNSt6vectorIfSaIfEEC2EmRKS0_"
.LASF868:
	.string	"_chain"
.LASF120:
	.string	"_ZNSt12_Vector_baseIhSaIhEE12_Vector_implC4EOS0_"
.LASF1140:
	.string	"int_n_cs_precedes"
.LASF682:
	.string	"_ZNSt6vectorIfSaIfEEixEm"
.LASF795:
	.string	"_Destroy<float*>"
.LASF236:
	.string	"_ZNSt6vectorIhSaIhEE6insertEN9__gnu_cxx17__normal_iteratorIPKhS1_EEOh"
.LASF1021:
	.string	"_ZN9__gnu_cxx14__alloc_traitsISaI16SubApertureImageES1_E15_S_nothrow_moveEv"
.LASF583:
	.string	"initializer_list"
.LASF495:
	.string	"_ZNSt12_Vector_baseIiSaIiEED4Ev"
.LASF1467:
	.string	"_mm256_set1_ps"
.LASF705:
	.string	"_ZNSt6vectorIfSaIfEE21_M_default_initializeEm"
.LASF1171:
	.string	"11__mbstate_t"
.LASF554:
	.string	"_ZNSt6vectorIiSaIiEE9push_backEOi"
.LASF1112:
	.string	"unsigned char"
.LASF655:
	.string	"_ZNSt6vectorIfSaIfEEC4ESt16initializer_listIfERKS0_"
.LASF1022:
	.string	"rebind<SubApertureImage>"
.LASF499:
	.string	"__type_identity<std::allocator<int> >"
.LASF1302:
	.string	"_ZNK9ImageData2atEmmm"
.LASF51:
	.string	"random_access_iterator_tag"
.LASF949:
	.string	"wcsxfrm"
.LASF455:
	.string	"_ZNKSt15__new_allocatorIiE7addressERKi"
.LASF1427:
	.string	"remaining"
.LASF934:
	.string	"wcslen"
.LASF484:
	.string	"_ZNSt12_Vector_baseIiSaIiEE19_M_get_Tp_allocatorEv"
.LASF1059:
	.string	"_ZN9__gnu_cxx14__alloc_traitsISaIiEiE10_S_on_swapERS1_S3_"
.LASF2:
	.string	"float"
.LASF87:
	.string	"_ZNKSt15__new_allocatorIhE11_M_max_sizeEv"
.LASF339:
	.string	"_ZNSt12_Vector_baseI16SubApertureImageSaIS0_EE13_M_deallocateEPS0_m"
.LASF692:
	.string	"_ZNKSt6vectorIfSaIfEE4dataEv"
.LASF17:
	.string	"__bool_constant"
.LASF466:
	.string	"_ZNSt16allocator_traitsISaIiEE8allocateERS0_m"
.LASF480:
	.string	"_ZNSt12_Vector_baseIiSaIiEE12_Vector_implC4EOS0_OS2_"
.LASF912:
	.string	"__isoc23_vswscanf"
.LASF434:
	.string	"__type_identity<std::allocator<(anonymous namespace)::SubParams> >"
.LASF1271:
	.string	"uint_fast32_t"
.LASF409:
	.string	"_ZNSt6vectorI16SubApertureImageSaIS0_EE21_M_default_initializeEm"
.LASF1406:
	.string	"output"
.LASF124:
	.string	"_ZNSt12_Vector_baseIhSaIhEE19_M_get_Tp_allocatorEv"
.LASF1263:
	.string	"uint_least32_t"
.LASF722:
	.string	"_ZNKSt6vectorIfSaIfEE11_M_data_ptrIfEEPT_S4_"
.LASF979:
	.string	"_S_always_equal"
.LASF320:
	.string	"_ZNSt12_Vector_baseI16SubApertureImageSaIS0_EE17_Vector_impl_data12_M_swap_dataERS3_"
.LASF824:
	.string	"_ZSt8_DestroyIPiiEvT_S1_RSaIT0_E"
.LASF1142:
	.string	"int_p_sign_posn"
.LASF603:
	.string	"_ZNSaIfEC4Ev"
.LASF694:
	.string	"_ZNSt6vectorIfSaIfEE9push_backEOf"
.LASF188:
	.string	"rend"
.LASF444:
	.string	"reverse_iterator<__gnu_cxx::__normal_iterator<(anonymous namespace)::SubParams*, std::vector<(anonymous namespace)::SubParams, std::allocator<(anonymous namespace)::SubParams> > > >"
.LASF761:
	.string	"fill_n<float*, long unsigned int, float>"
.LASF1248:
	.string	"setbuf"
.LASF1466:
	.string	"_Z20_mm256_cvtepu8_epi32Dv2_x"
.LASF507:
	.string	"_ZNSt6vectorIiSaIiEEC4EmRKS0_"
.LASF342:
	.string	"vector<SubApertureImage, std::allocator<SubApertureImage> >"
.LASF1315:
	.string	"__m128i_u"
.LASF965:
	.string	"_S_single"
.LASF775:
	.string	"__fill_a1<unsigned char*, std::vector<unsigned char>, unsigned char>"
.LASF1430:
	.string	"rtop_b_0"
.LASF256:
	.string	"_ZNSt6vectorIhSaIhEE17_M_default_appendEm"
.LASF1434:
	.string	"rtop_b_1"
.LASF643:
	.string	"_ZNSt6vectorIfSaIfEE15_S_use_relocateEv"
.LASF39:
	.string	"_ZNSt15__exception_ptr13exception_ptrD4Ev"
.LASF1476:
	.string	"_Z15_mm_loadl_epi64PKDv2_x"
.LASF482:
	.string	"_ZNSt12_Vector_baseIhSaIhEE12_Vector_implD4Ev"
.LASF933:
	.string	"tm_zone"
.LASF1256:
	.string	"uint64_t"
.LASF70:
	.string	"~__new_allocator"
.LASF894:
	.string	"fwscanf"
.LASF1039:
	.string	"_ZN9__gnu_cxx17__normal_iteratorIPK16SubApertureImageSt6vectorIS1_SaIS1_EEEC4Ev"
.LASF259:
	.string	"_M_insert_rval"
.LASF922:
	.string	"wcsftime"
.LASF1041:
	.string	"_ZNK9__gnu_cxx17__normal_iteratorIPK16SubApertureImageSt6vectorIS1_SaIS1_EEEdeEv"
.LASF989:
	.string	"_ZN9__gnu_cxx17__normal_iteratorIPhSt6vectorIhSaIhEEEC4Ev"
.LASF465:
	.string	"allocator_traits<std::allocator<int> >"
.LASF23:
	.string	"_M_addref"
.LASF624:
	.string	"_ZNSt12_Vector_baseIfSaIfEE19_M_get_Tp_allocatorEv"
.LASF528:
	.string	"_ZNSt6vectorIiSaIiEE4rendEv"
.LASF384:
	.string	"_ZNKSt6vectorI16SubApertureImageSaIS0_EE5emptyEv"
.LASF68:
	.string	"_ZNKSt15__exception_ptr13exception_ptrcvbEv"
.LASF1303:
	.string	"~ImageData"
.LASF676:
	.string	"_ZNSt6vectorIfSaIfEE6resizeEm"
.LASF668:
	.string	"_ZNSt6vectorIfSaIfEE4rendEv"
.LASF1437:
	.string	"lbot_f_0"
.LASF1441:
	.string	"lbot_f_1"
.LASF81:
	.string	"size_type"
.LASF1247:
	.string	"rewind"
.LASF427:
	.string	"reverse_iterator<__gnu_cxx::__normal_iterator<const SubApertureImage*, std::vector<SubApertureImage, std::allocator<SubApertureImage> > > >"
.LASF1367:
	.string	"_ZN9__gnu_cxx17__normal_iteratorIPfSt6vectorIfSaIfEEEC2ERKS1_"
.LASF1308:
	.string	"_Float32x"
.LASF377:
	.string	"_ZNKSt6vectorI16SubApertureImageSaIS0_EE5crendEv"
.LASF621:
	.string	"_ZNSt12_Vector_baseIfSaIfEE12_Vector_implC4EOS0_"
.LASF318:
	.string	"_ZNSt12_Vector_baseI16SubApertureImageSaIS0_EE17_Vector_impl_data12_M_copy_dataERKS3_"
.LASF1325:
	.string	"x_end"
.LASF1489:
	.string	"_Unwind_Resume"
.LASF555:
	.string	"_ZNSt6vectorIiSaIiEE8pop_backEv"
.LASF493:
	.string	"_ZNSt12_Vector_baseIiSaIiEEC4EOS1_RKS0_"
.LASF656:
	.string	"_ZNSt6vectorIfSaIfEED4Ev"
.LASF670:
	.string	"_ZNKSt6vectorIfSaIfEE6cbeginEv"
.LASF176:
	.string	"iterator"
.LASF1219:
	.string	"strtold"
.LASF1020:
	.string	"_ZN9__gnu_cxx14__alloc_traitsISaI16SubApertureImageES1_E15_S_always_equalEv"
.LASF1214:
	.string	"strtoll"
.LASF1048:
	.string	"_ZN9__gnu_cxx17__normal_iteratorIPK16SubApertureImageSt6vectorIS1_SaIS1_EEEpLEl"
.LASF704:
	.string	"_ZNSt6vectorIfSaIfEE18_M_fill_initializeEmRKf"
.LASF457:
	.string	"_ZNSt15__new_allocatorIiE10deallocateEPim"
.LASF599:
	.string	"_ZNSt15__new_allocatorIfE10deallocateEPfm"
.LASF1003:
	.string	"_ZN9__gnu_cxx17__normal_iteratorIPhSt6vectorIhSaIhEEEpLEl"
.LASF295:
	.string	"_ZNSt15__new_allocatorI16SubApertureImageEaSERKS1_"
.LASF1189:
	.string	"atexit"
.LASF860:
	.string	"_IO_write_ptr"
.LASF1201:
	.string	"quick_exit"
.LASF674:
	.string	"_ZNKSt6vectorIfSaIfEE4sizeEv"
.LASF418:
	.string	"_ZNSt6vectorI16SubApertureImageSaIS0_EE17_S_check_init_lenEmRKS1_"
.LASF1490:
	.string	"__builtin_unwind_resume"
.LASF1129:
	.string	"negative_sign"
.LASF590:
	.string	"iterator_traits<(anonymous namespace)::SubParams*>"
.LASF416:
	.string	"_ZNSt6vectorI16SubApertureImageSaIS0_EE14_M_emplace_auxEN9__gnu_cxx17__normal_iteratorIPKS0_S2_EEOS0_"
.LASF1436:
	.string	"ltop_f_0"
.LASF1440:
	.string	"ltop_f_1"
.LASF1081:
	.string	"_ZNK9__gnu_cxx17__normal_iteratorIPfSt6vectorIfSaIfEEEptEv"
.LASF1155:
	.string	"__int_least8_t"
.LASF917:
	.string	"wcscat"
.LASF1449:
	.string	"rbot_b"
.LASF658:
	.string	"_ZNSt6vectorIfSaIfEEaSEOS1_"
.LASF984:
	.string	"other"
.LASF810:
	.string	"_ZSt6fill_nIPhmhET_S1_T0_RKT1_"
.LASF145:
	.string	"_ZNSt12_Vector_baseIhSaIhEE17_M_create_storageEm"
.LASF640:
	.string	"vector<float, std::allocator<float> >"
.LASF437:
	.string	"_Guard_alloc"
.LASF168:
	.string	"~vector"
.LASF299:
	.string	"_ZNSt15__new_allocatorI16SubApertureImageE8allocateEmPKv"
.LASF605:
	.string	"_ZNSaIfEaSERKS_"
.LASF763:
	.string	"_Construct<float>"
.LASF1241:
	.string	"ftell"
.LASF532:
	.string	"_ZNKSt6vectorIiSaIiEE7crbeginEv"
.LASF1086:
	.string	"_ZNK9__gnu_cxx17__normal_iteratorIPfSt6vectorIfSaIfEEEixEl"
.LASF1295:
	.string	"wctype"
.LASF1123:
	.string	"int_curr_symbol"
.LASF10:
	.string	"_ZNKSt17integral_constantIbLb1EEclEv"
.LASF69:
	.string	"_ZNSt15__new_allocatorIhEaSERKS0_"
.LASF92:
	.string	"_ZNSaIhEaSERKS_"
.LASF158:
	.string	"_ZNSt6vectorIhSaIhEEC4ERKS0_"
.LASF808:
	.string	"_Destroy<(anonymous namespace)::SubParams*>"
.LASF463:
	.string	"_ZNSaIiEaSERKS_"
.LASF770:
	.string	"_ZSt18__do_uninit_fill_nIPimiET_S1_T0_RKT1_"
.LASF1024:
	.string	"_ZN9__gnu_cxx17__normal_iteratorIP16SubApertureImageSt6vectorIS1_SaIS1_EEEC4Ev"
.LASF620:
	.string	"_ZNSt12_Vector_baseIfSaIfEE12_Vector_implC4EOS2_"
.LASF533:
	.string	"_ZNKSt6vectorIiSaIiEE5crendEv"
.LASF1321:
	.string	"_Float16"
.LASF45:
	.string	"_ZSt17rethrow_exceptionNSt15__exception_ptr13exception_ptrE"
.LASF713:
	.string	"_ZNKSt6vectorIfSaIfEE12_M_check_lenEmPKc"
.LASF1033:
	.string	"_ZN9__gnu_cxx17__normal_iteratorIP16SubApertureImageSt6vectorIS1_SaIS1_EEEpLEl"
.LASF199:
	.string	"size"
.LASF524:
	.string	"_ZNSt6vectorIiSaIiEE3endEv"
.LASF1025:
	.string	"_ZN9__gnu_cxx17__normal_iteratorIP16SubApertureImageSt6vectorIS1_SaIS1_EEEC4ERKS2_"
.LASF18:
	.string	"__swappable_details"
.LASF1409:
	.string	"diff"
.LASF728:
	.string	"_ZNKSt16initializer_listIiE3endEv"
.LASF780:
	.string	"_ZSt9__fill_a1IPffEvT_S1_RKT0_"
.LASF1301:
	.string	"_ZN9ImageData2atEmmm"
.LASF884:
	.string	"FILE"
.LASF219:
	.string	"_ZNKSt6vectorIhSaIhEE2atEm"
.LASF481:
	.string	"~_Vector_impl"
.LASF483:
	.string	"_ZNSt12_Vector_baseIiSaIiEE12_Vector_implD4Ev"
.LASF1458:
	.string	"_ZN9ImageDataD2Ev"
.LASF113:
	.string	"_M_copy_data"
.LASF1281:
	.string	"clock"
.LASF243:
	.string	"clear"
.LASF127:
	.string	"_ZNKSt12_Vector_baseIhSaIhEE13get_allocatorEv"
.LASF1285:
	.string	"asctime"
.LASF1027:
	.string	"_ZNK9__gnu_cxx17__normal_iteratorIP16SubApertureImageSt6vectorIS1_SaIS1_EEEptEv"
.LASF43:
	.string	"_ZNKSt15__exception_ptr13exception_ptr20__cxa_exception_typeEv"
.LASF1250:
	.string	"tmpfile"
.LASF112:
	.string	"_ZNSt12_Vector_baseIhSaIhEE17_Vector_impl_dataC4EOS2_"
.LASF708:
	.string	"_ZNSt6vectorIfSaIfEE14_M_fill_appendEmRKf"
.LASF774:
	.string	"_ZSt12__niter_baseIPhET_S1_"
.LASF607:
	.string	"allocator_traits<std::allocator<float> >"
.LASF5:
	.string	"size_t"
.LASF812:
	.string	"_ZSt24__uninitialized_fill_n_aIPhmhhET_S1_T0_RKT1_RSaIT2_E"
.LASF629:
	.string	"_ZNSt12_Vector_baseIfSaIfEEC4Em"
.LASF1032:
	.string	"_ZNK9__gnu_cxx17__normal_iteratorIP16SubApertureImageSt6vectorIS1_SaIS1_EEEixEl"
.LASF1287:
	.string	"gmtime"
.LASF849:
	.string	"__count"
.LASF1313:
	.string	"__v16qi"
.LASF1253:
	.string	"uint8_t"
.LASF1173:
	.string	"quot"
.LASF720:
	.string	"_ZNSt6vectorIfSaIfEE14_M_move_assignEOS1_St17integral_constantIbLb0EE"
.LASF959:
	.string	"wcspbrk"
.LASF1426:
	.string	"x_stop"
.LASF220:
	.string	"front"
.LASF101:
	.string	"_ZNSt16allocator_traitsISaIhEE8max_sizeERKS0_"
.LASF305:
	.string	"_ZNSaI16SubApertureImageEC4ERKS0_"
.LASF293:
	.string	"_ZNSt15__new_allocatorI16SubApertureImageEC4Ev"
.LASF1377:
	.string	"_ZNSt15__new_allocatorIiEC2Ev"
.LASF757:
	.string	"_FIte"
.LASF1277:
	.string	"_Float32"
.LASF525:
	.string	"_ZNKSt6vectorIiSaIiEE3endEv"
.LASF1244:
	.string	"perror"
.LASF987:
	.string	"_M_current"
.LASF321:
	.string	"_ZNSt12_Vector_baseI16SubApertureImageSaIS0_EE12_Vector_implC4Ev"
.LASF347:
	.string	"_ZNSt6vectorI16SubApertureImageSaIS0_EE15_S_use_relocateEv"
.LASF794:
	.string	"_ZSt9__fill_a1IPfSt6vectorIfSaIfEEfEvN9__gnu_cxx17__normal_iteratorIT_T0_EES8_RKT1_"
.LASF1159:
	.string	"__int_least32_t"
.LASF407:
	.string	"_ZNSt6vectorI16SubApertureImageSaIS0_EE5clearEv"
.LASF730:
	.string	"reverse_iterator<__gnu_cxx::__normal_iterator<float*, std::vector<float, std::allocator<float> > > >"
.LASF518:
	.string	"_ZNSt6vectorIiSaIiEEaSEOS1_"
.LASF1341:
	.string	"_ZNSt12_Vector_baseIhSaIhEE12_Vector_implC2ERKS0_"
.LASF251:
	.string	"_M_fill_insert"
.LASF887:
	.string	"fgetwc"
.LASF864:
	.string	"_IO_save_base"
.LASF1267:
	.string	"int_fast32_t"
.LASF370:
	.string	"_ZNSt6vectorI16SubApertureImageSaIS0_EE6rbeginEv"
.LASF715:
	.string	"_ZNSt6vectorIfSaIfEE11_S_max_sizeERKS0_"
.LASF1492:
	.string	"_ZNSt15__exception_ptr4swapERNS_13exception_ptrES1_"
.LASF662:
	.string	"_ZNSt6vectorIfSaIfEE5beginEv"
.LASF273:
	.string	"_ZNSt6vectorIhSaIhEE8_M_eraseEN9__gnu_cxx17__normal_iteratorIPhS1_EES5_"
.LASF423:
	.string	"_ZNSt6vectorI16SubApertureImageSaIS0_EE14_M_move_assignEOS2_St17integral_constantIbLb1EE"
.LASF950:
	.string	"wctob"
.LASF883:
	.string	"_unused2"
.LASF625:
	.string	"_ZNKSt12_Vector_baseIfSaIfEE19_M_get_Tp_allocatorEv"
.LASF638:
	.string	"_ZNSt12_Vector_baseIfSaIfEE17_M_create_storageEm"
.LASF312:
	.string	"_ZNSt16allocator_traitsISaI16SubApertureImageEE10deallocateERS1_PS0_m"
.LASF893:
	.string	"fwprintf"
.LASF1468:
	.string	"_Z14_mm256_set1_psf"
.LASF511:
	.string	"_ZNSt6vectorIiSaIiEEC4ERKS1_RKS0_"
.LASF143:
	.string	"_ZNSt12_Vector_baseIhSaIhEE13_M_deallocateEPhm"
.LASF440:
	.string	"_M_vect"
.LASF249:
	.string	"_M_fill_assign"
.LASF848:
	.string	"__wchb"
.LASF1296:
	.string	"ImageData"
.LASF681:
	.string	"_ZNSt6vectorIfSaIfEE7reserveEm"
.LASF819:
	.string	"__fill_a<__gnu_cxx::__normal_iterator<float*, std::vector<float> >, float>"
.LASF391:
	.string	"_ZNSt6vectorI16SubApertureImageSaIS0_EE5frontEv"
.LASF11:
	.string	"integral_constant<bool, true>"
.LASF744:
	.string	"_M_cur"
.LASF398:
	.string	"_ZNSt6vectorI16SubApertureImageSaIS0_EE9push_backEOS0_"
.LASF395:
	.string	"_ZNSt6vectorI16SubApertureImageSaIS0_EE4dataEv"
.LASF611:
	.string	"_ZNSt16allocator_traitsISaIfEE8max_sizeERKS0_"
.LASF373:
	.string	"_ZNKSt6vectorI16SubApertureImageSaIS0_EE4rendEv"
.LASF263:
	.string	"_M_check_len"
.LASF475:
	.string	"_ZNSt12_Vector_baseIiSaIiEE17_Vector_impl_data12_M_swap_dataERS2_"
.LASF846:
	.string	"wint_t"
.LASF1197:
	.string	"mblen"
.LASF122:
	.string	"_Tp_alloc_type"
.LASF1446:
	.string	"ltop_b"
.LASF907:
	.string	"vfwprintf"
.LASF751:
	.string	"_ZSt28__throw_bad_array_new_lengthv"
.LASF1415:
	.string	"__for_end"
.LASF95:
	.string	"allocator_traits<std::allocator<unsigned char> >"
.LASF470:
	.string	"_ZNSt16allocator_traitsISaIiEE37select_on_container_copy_constructionERKS0_"
.LASF71:
	.string	"_ZNSt15__new_allocatorIhED4Ev"
.LASF1370:
	.string	"_ZNSt12_Vector_baseIfSaIfEE12_Vector_implD2Ev"
.LASF594:
	.string	"_ZNSt15__new_allocatorIfEaSERKS0_"
.LASF1105:
	.string	"wcstoull"
.LASF878:
	.string	"_wide_data"
.LASF515:
	.string	"_ZNSt6vectorIiSaIiEEC4ESt16initializer_listIiERKS0_"
.LASF978:
	.string	"_ZN9__gnu_cxx14__alloc_traitsISaIhEhE20_S_propagate_on_swapEv"
.LASF190:
	.string	"_ZNKSt6vectorIhSaIhEE4rendEv"
.LASF311:
	.string	"_ZNSt16allocator_traitsISaIhEE10deallocateERS0_Phm"
.LASF397:
	.string	"_ZNSt6vectorI16SubApertureImageSaIS0_EE9push_backERKS0_"
.LASF1069:
	.string	"_ZN9__gnu_cxx14__alloc_traitsISaIfEfE17_S_select_on_copyERKS1_"
.LASF718:
	.string	"_ZNSt6vectorIfSaIfEE8_M_eraseEN9__gnu_cxx17__normal_iteratorIPfS1_EES5_"
.LASF1232:
	.string	"fflush"
.LASF291:
	.string	"_ZSt3divll"
.LASF712:
	.string	"_ZNSt6vectorIfSaIfEE14_M_emplace_auxEN9__gnu_cxx17__normal_iteratorIPKfS1_EEOf"
.LASF1063:
	.string	"_ZN9__gnu_cxx14__alloc_traitsISaIiEiE15_S_always_equalEv"
.LASF890:
	.string	"fputwc"
.LASF1369:
	.string	"_ZNSt12_Vector_baseIfSaIfEEC2EmRKS0_"
.LASF1278:
	.string	"_Float64"
.LASF1329:
	.string	"_ZdlPvm"
.LASF405:
	.string	"_ZNSt6vectorI16SubApertureImageSaIS0_EE5eraseEN9__gnu_cxx17__normal_iteratorIPKS0_S2_EES7_"
.LASF413:
	.string	"_ZNSt6vectorI16SubApertureImageSaIS0_EE17_M_default_appendEm"
.LASF891:
	.string	"fputws"
.LASF400:
	.string	"_ZNSt6vectorI16SubApertureImageSaIS0_EE6insertEN9__gnu_cxx17__normal_iteratorIPKS0_S2_EERS5_"
.LASF177:
	.string	"begin"
.LASF128:
	.string	"_Vector_base"
.LASF479:
	.string	"_ZNSt12_Vector_baseIiSaIiEE12_Vector_implC4EOS0_"
.LASF1019:
	.string	"_ZN9__gnu_cxx14__alloc_traitsISaI16SubApertureImageES1_E20_S_propagate_on_swapEv"
.LASF805:
	.string	"__enable_if_t"
.LASF783:
	.string	"uninitialized_fill_n<int*, long unsigned int, int>"
.LASF1386:
	.string	"_ZNSt15__new_allocatorIhED2Ev"
.LASF1357:
	.string	"__ptr"
.LASF103:
	.string	"_ZNSt16allocator_traitsISaIhEE37select_on_container_copy_constructionERKS0_"
.LASF1012:
	.string	"_Container"
.LASF1001:
	.string	"_ZNK9__gnu_cxx17__normal_iteratorIPhSt6vectorIhSaIhEEEixEl"
.LASF1153:
	.string	"__int64_t"
.LASF139:
	.string	"_M_impl"
.LASF807:
	.string	"__niter_base<(anonymous namespace)::SubParams*>"
.LASF1154:
	.string	"__uint64_t"
.LASF360:
	.string	"_ZNSt6vectorI16SubApertureImageSaIS0_EED4Ev"
.LASF584:
	.string	"_ZNSt16initializer_listIiEC4EPKim"
.LASF1374:
	.string	"_ZNSt12_Vector_baseIiSaIiEEC2EmRKS0_"
.LASF91:
	.string	"_ZNSaIhEC4ERKS_"
.LASF1416:
	.string	"shift_x"
.LASF1417:
	.string	"shift_y"
.LASF191:
	.string	"cbegin"
.LASF126:
	.string	"get_allocator"
.LASF292:
	.string	"__new_allocator<SubApertureImage>"
.LASF1352:
	.string	"_ZNSt15__new_allocatorIhEC2ERKS0_"
.LASF206:
	.string	"_ZNSt6vectorIhSaIhEE13shrink_to_fitEv"
.LASF1407:
	.string	"params"
.LASF194:
	.string	"_ZNKSt6vectorIhSaIhEE4cendEv"
.LASF163:
	.string	"_ZNSt6vectorIhSaIhEEC4ERKS1_RKS0_"
.LASF1120:
	.string	"decimal_point"
.LASF354:
	.string	"_ZNSt6vectorI16SubApertureImageSaIS0_EEC4EOS2_"
.LASF431:
	.string	"allocator_traits<std::allocator<(anonymous namespace)::SubParams> >"
.LASF117:
	.string	"_ZNSt12_Vector_baseIhSaIhEE12_Vector_implC4Ev"
.LASF760:
	.string	"_OutputIterator"
.LASF1064:
	.string	"_ZN9__gnu_cxx14__alloc_traitsISaIiEiE15_S_nothrow_moveEv"
.LASF565:
	.string	"_ZNSt6vectorIiSaIiEE21_M_default_initializeEm"
.LASF404:
	.string	"_ZNSt6vectorI16SubApertureImageSaIS0_EE5eraseEN9__gnu_cxx17__normal_iteratorIPKS0_S2_EE"
.LASF77:
	.string	"_ZNKSt15__new_allocatorIhE7addressERKh"
.LASF1501:
	.string	"decltype(nullptr)"
.LASF1334:
	.string	"this"
.LASF529:
	.string	"_ZNKSt6vectorIiSaIiEE4rendEv"
.LASF197:
	.string	"crend"
.LASF669:
	.string	"_ZNKSt6vectorIfSaIfEE4rendEv"
.LASF1229:
	.string	"fclose"
.LASF1207:
	.string	"strtoul"
.LASF1371:
	.string	"_ZNSt15__new_allocatorIfED2Ev"
.LASF478:
	.string	"_ZNSt12_Vector_baseIiSaIiEE12_Vector_implC4EOS2_"
.LASF980:
	.string	"_ZN9__gnu_cxx14__alloc_traitsISaIhEhE15_S_always_equalEv"
.LASF970:
	.string	"_ZN9__gnu_cxx14__alloc_traitsISaIhEhE17_S_select_on_copyERKS1_"
.LASF324:
	.string	"_ZNSt12_Vector_baseI16SubApertureImageSaIS0_EE12_Vector_implC4EOS1_"
.LASF719:
	.string	"_ZNSt6vectorIfSaIfEE14_M_move_assignEOS1_St17integral_constantIbLb1EE"
.LASF549:
	.string	"_ZNSt6vectorIiSaIiEE4backEv"
.LASF855:
	.string	"_flags"
.LASF1131:
	.string	"frac_digits"
.LASF521:
	.string	"_ZNSt6vectorIiSaIiEE6assignESt16initializer_listIiE"
.LASF1185:
	.string	"timespec"
.LASF369:
	.string	"_ZNKSt6vectorI16SubApertureImageSaIS0_EE3endEv"
.LASF578:
	.string	"_ZNSt6vectorIiSaIiEE8_M_eraseEN9__gnu_cxx17__normal_iteratorIPiS1_EES5_"
.LASF897:
	.string	"mbrlen"
.LASF689:
	.string	"_ZNSt6vectorIfSaIfEE4backEv"
.LASF1176:
	.string	"ldiv_t"
.LASF976:
	.string	"_ZN9__gnu_cxx14__alloc_traitsISaIhEhE27_S_propagate_on_move_assignEv"
.LASF213:
	.string	"operator[]"
.LASF96:
	.string	"_ZNSt27__uninitialized_default_n_1ILb1EE18__uninit_default_nIPfmEET_S3_T0_"
.LASF57:
	.string	"__detail"
.LASF716:
	.string	"_ZNSt6vectorIfSaIfEE15_M_erase_at_endEPf"
.LASF1157:
	.string	"__int_least16_t"
.LASF710:
	.string	"_ZNSt6vectorIfSaIfEE16_M_shrink_to_fitEv"
.LASF348:
	.string	"_ZNSt6vectorI16SubApertureImageSaIS0_EE11_S_relocateEPS0_S3_S3_RS1_"
.LASF1312:
	.string	"__m64_u"
.LASF569:
	.string	"_ZNSt6vectorIiSaIiEE17_M_default_appendEm"
.LASF558:
	.string	"_ZNSt6vectorIiSaIiEE6insertEN9__gnu_cxx17__normal_iteratorIPKiS1_EESt16initializer_listIiE"
.LASF1337:
	.string	"__val"
.LASF1089:
	.string	"_ZN9__gnu_cxx17__normal_iteratorIPfSt6vectorIfSaIfEEEmIEl"
.LASF1350:
	.string	"_ZN9__gnu_cxx17__normal_iteratorIPhSt6vectorIhSaIhEEEC2ERKS1_"
.LASF1014:
	.string	"__alloc_traits<std::allocator<SubApertureImage>, SubApertureImage>"
.LASF905:
	.string	"__isoc23_swscanf"
.LASF1351:
	.string	"_ZNSt12_Vector_baseIhSaIhEEC2EmRKS0_"
.LASF1210:
	.string	"wcstombs"
.LASF678:
	.string	"_ZNSt6vectorIfSaIfEE13shrink_to_fitEv"
.LASF1396:
	.string	"_ZNSaIiEC2Ev"
.LASF1362:
	.string	"__tmp"
.LASF214:
	.string	"_ZNSt6vectorIhSaIhEEixEm"
.LASF248:
	.string	"_ZNSt6vectorIhSaIhEE21_M_default_initializeEm"
.LASF179:
	.string	"const_iterator"
.LASF1397:
	.string	"__old_size"
.LASF815:
	.string	"_Destroy<unsigned char*>"
.LASF412:
	.string	"_ZNSt6vectorI16SubApertureImageSaIS0_EE14_M_fill_appendEmRKS0_"
.LASF1058:
	.string	"_ZN9__gnu_cxx14__alloc_traitsISaIiEiE17_S_select_on_copyERKS1_"
.LASF1355:
	.string	"_ZNSt12_Vector_baseIiSaIiEE12_Vector_implC2ERKS0_"
.LASF612:
	.string	"_ZNSt16allocator_traitsISaIfEE37select_on_container_copy_constructionERKS0_"
.LASF98:
	.string	"allocator_type"
.LASF490:
	.string	"_ZNSt12_Vector_baseIiSaIiEEC4EmRKS0_"
.LASF1472:
	.string	"_Z15_mm256_loadu_psPKf"
.LASF523:
	.string	"_ZNKSt6vectorIiSaIiEE5beginEv"
.LASF1504:
	.string	"execution"
.LASF232:
	.string	"pop_back"
.LASF1431:
	.string	"rbot_b_0"
.LASF1435:
	.string	"rbot_b_1"
.LASF366:
	.string	"_ZNSt6vectorI16SubApertureImageSaIS0_EE5beginEv"
.LASF1385:
	.string	"__add"
.LASF837:
	.string	"floor"
.LASF357:
	.string	"_ZNSt6vectorI16SubApertureImageSaIS0_EEC4EOS2_RKS1_St17integral_constantIbLb0EE"
.LASF1266:
	.string	"int_fast16_t"
.LASF1223:
	.string	"__fpos_t"
.LASF702:
	.string	"_ZNSt6vectorIfSaIfEE4swapERS1_"
.LASF1388:
	.string	"_ZNSaIhEC2Ev"
.LASF543:
	.string	"_ZNKSt6vectorIiSaIiEEixEm"
.LASF313:
	.string	"_ZNSt16allocator_traitsISaI16SubApertureImageEE8max_sizeERKS1_"
.LASF792:
	.string	"_ZSt8__fill_aIN9__gnu_cxx17__normal_iteratorIPhSt6vectorIhSaIhEEEEhEvT_S7_RKT0_"
.LASF185:
	.string	"_ZNSt6vectorIhSaIhEE6rbeginEv"
.LASF410:
	.string	"_ZNSt6vectorI16SubApertureImageSaIS0_EE14_M_fill_assignEmRKS0_"
.LASF165:
	.string	"_ZNSt6vectorIhSaIhEEC4EOS1_RKS0_St17integral_constantIbLb0EE"
.LASF396:
	.string	"_ZNKSt6vectorI16SubApertureImageSaIS0_EE4dataEv"
.LASF110:
	.string	"_M_end_of_storage"
.LASF782:
	.string	"_ZSt25__uninitialized_default_nIPfmET_S1_T0_"
.LASF904:
	.string	"swscanf"
.LASF530:
	.string	"_ZNKSt6vectorIiSaIiEE6cbeginEv"
.LASF34:
	.string	"_ZNSt15__exception_ptr13exception_ptrC4EOS0_"
.LASF371:
	.string	"_ZNKSt6vectorI16SubApertureImageSaIS0_EE6rbeginEv"
.LASF1486:
	.string	"memset"
.LASF1095:
	.string	"_Cond"
.LASF344:
	.string	"_ZNSt6vectorI16SubApertureImageSaIS0_EE19_S_nothrow_relocateESt17integral_constantIbLb0EE"
.LASF1473:
	.string	"_mm256_cvtepi32_ps"
.LASF765:
	.string	"_Construct<int, int const&>"
.LASF1228:
	.string	"clearerr"
.LASF449:
	.string	"__new_allocator<int>"
.LASF738:
	.string	"_ZNSt19_UninitDestroyGuardIPivEC4ERS0_"
.LASF778:
	.string	"_Cont"
.LASF540:
	.string	"_ZNKSt6vectorIiSaIiEE5emptyEv"
.LASF261:
	.string	"_M_emplace_aux"
.LASF593:
	.string	"_ZNSt15__new_allocatorIfEC4ERKS0_"
.LASF560:
	.string	"_ZNSt6vectorIiSaIiEE5eraseEN9__gnu_cxx17__normal_iteratorIPKiS1_EE"
.LASF1098:
	.string	"operator!="
.LASF1068:
	.string	"__alloc_traits<std::allocator<float>, float>"
.LASF1252:
	.string	"ungetc"
.LASF1181:
	.string	"int8_t"
.LASF498:
	.string	"_ZNSt12_Vector_baseIiSaIiEE17_M_create_storageEm"
.LASF866:
	.string	"_IO_save_end"
.LASF955:
	.string	"wprintf"
.LASF415:
	.string	"_ZNSt6vectorI16SubApertureImageSaIS0_EE14_M_insert_rvalEN9__gnu_cxx17__normal_iteratorIPKS0_S2_EEOS0_"
.LASF452:
	.string	"_ZNSt15__new_allocatorIiEaSERKS0_"
.LASF1419:
	.string	"tile_h_actual"
.LASF973:
	.string	"_S_propagate_on_copy_assign"
.LASF806:
	.string	"__relocate_a_1<(anonymous namespace)::SubParams, (anonymous namespace)::SubParams>"
.LASF1270:
	.string	"uint_fast16_t"
.LASF1259:
	.string	"int_least32_t"
.LASF1203:
	.string	"srand"
.LASF63:
	.string	"__new_allocator<unsigned char>"
.LASF1132:
	.string	"p_cs_precedes"
.LASF918:
	.string	"wcscmp"
.LASF679:
	.string	"_ZNKSt6vectorIfSaIfEE8capacityEv"
.LASF667:
	.string	"_ZNKSt6vectorIfSaIfEE6rbeginEv"
.LASF573:
	.string	"_ZNKSt6vectorIiSaIiEE12_M_check_lenEmPKc"
.LASF802:
	.string	"_ZSt24__uninitialized_fill_n_aIPimiiET_S1_T0_RKT1_RSaIT2_E"
.LASF307:
	.string	"_ZNSaI16SubApertureImageED4Ev"
.LASF842:
	.string	"fp_offset"
.LASF148:
	.string	"type"
.LASF1168:
	.string	"__time_t"
.LASF900:
	.string	"mbsrtowcs"
.LASF27:
	.string	"_M_get"
.LASF1127:
	.string	"mon_grouping"
.LASF841:
	.string	"gp_offset"
.LASF74:
	.string	"pointer"
.LASF517:
	.string	"_ZNSt6vectorIiSaIiEEaSERKS1_"
.LASF255:
	.string	"_M_default_append"
.LASF1042:
	.string	"_ZNK9__gnu_cxx17__normal_iteratorIPK16SubApertureImageSt6vectorIS1_SaIS1_EEEptEv"
.LASF1116:
	.string	"__int128"
.LASF184:
	.string	"rbegin"
.LASF1018:
	.string	"_ZN9__gnu_cxx14__alloc_traitsISaI16SubApertureImageES1_E27_S_propagate_on_move_assignEv"
.LASF787:
	.string	"__fill_n_a<unsigned char*, long unsigned int, unsigned char>"
.LASF930:
	.string	"tm_yday"
.LASF899:
	.string	"mbsinit"
.LASF1447:
	.string	"lbot_b"
.LASF200:
	.string	"_ZNKSt6vectorIhSaIhEE4sizeEv"
.LASF1047:
	.string	"_ZNK9__gnu_cxx17__normal_iteratorIPK16SubApertureImageSt6vectorIS1_SaIS1_EEEixEl"
.LASF38:
	.string	"~exception_ptr"
.LASF552:
	.string	"_ZNKSt6vectorIiSaIiEE4dataEv"
.LASF1110:
	.string	"max_align_t"
.LASF445:
	.string	"reverse_iterator<__gnu_cxx::__normal_iterator<const (anonymous namespace)::SubParams*, std::vector<(anonymous namespace)::SubParams, std::allocator<(anonymous namespace)::SubParams> > > >"
.LASF1128:
	.string	"positive_sign"
.LASF924:
	.string	"tm_min"
.LASF948:
	.string	"__isoc23_wcstoul"
.LASF1503:
	.string	"_ZN9ImageDataD4Ev"
.LASF37:
	.string	"_ZNSt15__exception_ptr13exception_ptraSEOS0_"
.LASF1209:
	.string	"system"
.LASF241:
	.string	"_ZNSt6vectorIhSaIhEE5eraseEN9__gnu_cxx17__normal_iteratorIPKhS1_EES6_"
.LASF564:
	.string	"_ZNSt6vectorIiSaIiEE18_M_fill_initializeEmRKi"
.LASF1182:
	.string	"int16_t"
.LASF1043:
	.string	"_ZN9__gnu_cxx17__normal_iteratorIPK16SubApertureImageSt6vectorIS1_SaIS1_EEEppEv"
.LASF1088:
	.string	"_ZNK9__gnu_cxx17__normal_iteratorIPfSt6vectorIfSaIfEEEplEl"
.LASF433:
	.string	"_Vector_base<(anonymous namespace)::SubParams, std::allocator<(anonymous namespace)::SubParams> >"
.LASF826:
	.string	"_InputIterator"
.LASF885:
	.string	"short unsigned int"
.LASF250:
	.string	"_ZNSt6vectorIhSaIhEE14_M_fill_assignEmRKh"
.LASF1114:
	.string	"signed char"
.LASF201:
	.string	"_ZNKSt6vectorIhSaIhEE8max_sizeEv"
.LASF383:
	.string	"_ZNKSt6vectorI16SubApertureImageSaIS0_EE8capacityEv"
.LASF742:
	.string	"_ZNSt19_UninitDestroyGuardIPivE7releaseEv"
.LASF114:
	.string	"_ZNSt12_Vector_baseIhSaIhEE17_Vector_impl_data12_M_copy_dataERKS2_"
.LASF508:
	.string	"_ZNSt6vectorIiSaIiEEC4EmRKiRKS0_"
.LASF1324:
	.string	"x_begin"
.LASF181:
	.string	"_ZNSt6vectorIhSaIhEE3endEv"
.LASF461:
	.string	"_ZNSaIiEC4Ev"
.LASF992:
	.string	"_ZNK9__gnu_cxx17__normal_iteratorIPhSt6vectorIhSaIhEEEdeEv"
.LASF447:
	.string	"difference_type"
.LASF553:
	.string	"_ZNSt6vectorIiSaIiEE9push_backERKi"
.LASF1078:
	.string	"_ZN9__gnu_cxx17__normal_iteratorIPfSt6vectorIfSaIfEEEC4Ev"
.LASF47:
	.string	"ptrdiff_t"
.LASF903:
	.string	"swprintf"
.LASF33:
	.string	"_ZNSt15__exception_ptr13exception_ptrC4EDn"
.LASF430:
	.string	"allocator<(anonymous namespace)::SubParams>"
.LASF349:
	.string	"_ZNSt6vectorI16SubApertureImageSaIS0_EEC4Ev"
.LASF97:
	.string	"_ZNSt16allocator_traitsISaIhEE8allocateERS0_m"
.LASF697:
	.string	"_ZNSt6vectorIfSaIfEE6insertEN9__gnu_cxx17__normal_iteratorIPKfS1_EEOf"
.LASF223:
	.string	"back"
.LASF721:
	.string	"_M_data_ptr<float>"
.LASF665:
	.string	"_ZNKSt6vectorIfSaIfEE3endEv"
.LASF852:
	.string	"mbstate_t"
.LASF957:
	.string	"__isoc23_wscanf"
.LASF450:
	.string	"_ZNSt15__new_allocatorIiEC4Ev"
.LASF1391:
	.string	"_ZNSaIfED2Ev"
.LASF394:
	.string	"_ZNKSt6vectorI16SubApertureImageSaIS0_EE4backEv"
.LASF630:
	.string	"_ZNSt12_Vector_baseIfSaIfEEC4EmRKS0_"
.LASF541:
	.string	"_ZNSt6vectorIiSaIiEE7reserveEm"
.LASF72:
	.string	"address"
.LASF1166:
	.string	"__off64_t"
.LASF756:
	.string	"_ZSt8__fill_aIPffEvT_S1_RKT0_"
.LASF889:
	.string	"wchar_t"
.LASF910:
	.string	"vswprintf"
.LASF1338:
	.string	"__len"
.LASF901:
	.string	"putwc"
.LASF157:
	.string	"_ZNSt6vectorIhSaIhEEC4Ev"
.LASF858:
	.string	"_IO_read_base"
.LASF1448:
	.string	"rtop_b"
.LASF187:
	.string	"_ZNKSt6vectorIhSaIhEE6rbeginEv"
.LASF382:
	.string	"_ZNSt6vectorI16SubApertureImageSaIS0_EE13shrink_to_fitEv"
.LASF1452:
	.string	"rtop_f"
.LASF876:
	.string	"_offset"
.LASF1444:
	.string	"val_0"
.LASF1034:
	.string	"_ZNK9__gnu_cxx17__normal_iteratorIP16SubApertureImageSt6vectorIS1_SaIS1_EEEplEl"
.LASF1379:
	.string	"__old_finish"
.LASF225:
	.string	"_ZNKSt6vectorIhSaIhEE4backEv"
.LASF496:
	.string	"_ZNSt12_Vector_baseIiSaIiEE11_M_allocateEm"
.LASF283:
	.string	"reverse_iterator<__gnu_cxx::__normal_iterator<unsigned char const*, std::vector<unsigned char, std::allocator<unsigned char> > > >"
.LASF202:
	.string	"resize"
.LASF863:
	.string	"_IO_buf_end"
.LASF731:
	.string	"reverse_iterator<__gnu_cxx::__normal_iterator<float const*, std::vector<float, std::allocator<float> > > >"
.LASF182:
	.string	"_ZNKSt6vectorIhSaIhEE3endEv"
.LASF1451:
	.string	"lbot_f"
.LASF1198:
	.string	"mbstowcs"
.LASF1092:
	.string	"__normal_iterator<float const*, std::vector<float, std::allocator<float> > >"
.LASF119:
	.string	"_ZNSt12_Vector_baseIhSaIhEE12_Vector_implC4EOS2_"
.LASF471:
	.string	"_Vector_base<int, std::allocator<int> >"
.LASF1076:
	.string	"rebind<float>"
.LASF1137:
	.string	"n_sign_posn"
.LASF591:
	.string	"__new_allocator<float>"
.LASF986:
	.string	"_flags2"
.LASF830:
	.string	"_ZSt8_DestroyIPhhEvT_S1_RSaIT0_E"
.LASF54:
	.string	"chrono"
.LASF938:
	.string	"wcsrtombs"
.LASF1220:
	.string	"_G_fpos_t"
.LASF164:
	.string	"_ZNSt6vectorIhSaIhEEC4EOS1_RKS0_St17integral_constantIbLb1EE"
.LASF271:
	.string	"_M_erase"
.LASF929:
	.string	"tm_wday"
.LASF138:
	.string	"_ZNSt12_Vector_baseIhSaIhEED4Ev"
.LASF577:
	.string	"_ZNSt6vectorIiSaIiEE8_M_eraseEN9__gnu_cxx17__normal_iteratorIPiS1_EE"
.LASF921:
	.string	"wcscspn"
.LASF608:
	.string	"_ZNSt16allocator_traitsISaIfEE8allocateERS0_m"
.LASF24:
	.string	"_M_release"
.LASF882:
	.string	"_mode"
.LASF536:
	.string	"_ZNSt6vectorIiSaIiEE6resizeEm"
.LASF376:
	.string	"_ZNKSt6vectorI16SubApertureImageSaIS0_EE7crbeginEv"
.LASF141:
	.string	"_ZNSt12_Vector_baseIhSaIhEE11_M_allocateEm"
.LASF372:
	.string	"_ZNSt6vectorI16SubApertureImageSaIS0_EE4rendEv"
.LASF859:
	.string	"_IO_write_base"
.LASF1326:
	.string	"y_begin"
.LASF545:
	.string	"_ZNSt6vectorIiSaIiEE2atEm"
.LASF1484:
	.string	"_ZnwmPv"
.LASF343:
	.string	"_ZNSt6vectorI16SubApertureImageSaIS0_EE19_S_nothrow_relocateESt17integral_constantIbLb1EE"
.LASF192:
	.string	"_ZNKSt6vectorIhSaIhEE6cbeginEv"
.LASF847:
	.string	"__wch"
.LASF326:
	.string	"_ZNSt12_Vector_baseI16SubApertureImageSaIS0_EE19_M_get_Tp_allocatorEv"
.LASF821:
	.string	"_Destroy<float*, float>"
.LASF580:
	.string	"_ZNSt6vectorIiSaIiEE14_M_move_assignEOS1_St17integral_constantIbLb0EE"
.LASF623:
	.string	"_ZNSt12_Vector_baseIfSaIfEE12_Vector_implD4Ev"
.LASF586:
	.string	"_ZNKSt16initializer_listIiE4sizeEv"
.LASF196:
	.string	"_ZNKSt6vectorIhSaIhEE7crbeginEv"
.LASF1387:
	.string	"_ZNSt12_Vector_baseIhSaIhEE17_Vector_impl_dataC2Ev"
.LASF520:
	.string	"_ZNSt6vectorIiSaIiEE6assignEmRKi"
.LASF828:
	.string	"_Destroy<(anonymous namespace)::SubParams*, (anonymous namespace)::SubParams>"
.LASF911:
	.string	"vswscanf"
.LASF488:
	.string	"_ZNSt12_Vector_baseIiSaIiEEC4ERKS0_"
.LASF1349:
	.string	"__dest"
.LASF927:
	.string	"tm_mon"
.LASF506:
	.string	"_ZNSt6vectorIiSaIiEEC4ERKS0_"
.LASF1401:
	.string	"_ZNSt12_Vector_baseIhSaIhEE12_Vector_implC2Ev"
.LASF1104:
	.string	"long long int"
.LASF1284:
	.string	"time"
.LASF503:
	.string	"_ZNSt6vectorIiSaIiEE15_S_use_relocateEv"
.LASF1217:
	.string	"__isoc23_strtoull"
.LASF1274:
	.string	"uintptr_t"
.LASF301:
	.string	"_ZNKSt15__new_allocatorI16SubApertureImageE8max_sizeEv"
.LASF42:
	.string	"__cxa_exception_type"
.LASF550:
	.string	"_ZNKSt6vectorIiSaIiEE4backEv"
.LASF8:
	.string	"operator()"
.LASF1327:
	.string	"y_end"
.LASF1234:
	.string	"fgetpos"
.LASF500:
	.string	"vector<int, std::allocator<int> >"
.LASF1456:
	.string	"__lhs"
.LASF690:
	.string	"_ZNKSt6vectorIfSaIfEE4backEv"
.LASF1464:
	.string	"_Z15_mm256_fmadd_psDv8_fS_S_"
.LASF1035:
	.string	"_ZN9__gnu_cxx17__normal_iteratorIP16SubApertureImageSt6vectorIS1_SaIS1_EEEmIEl"
.LASF227:
	.string	"_ZNSt6vectorIhSaIhEE4dataEv"
.LASF392:
	.string	"_ZNKSt6vectorI16SubApertureImageSaIS0_EE5frontEv"
.LASF913:
	.string	"vwprintf"
.LASF1224:
	.string	"_IO_marker"
.LASF881:
	.string	"_prevchain"
.LASF509:
	.string	"_ZNSt6vectorIiSaIiEEC4ERKS1_"
.LASF1309:
	.string	"_Float64x"
.LASF928:
	.string	"tm_year"
.LASF1156:
	.string	"__uint_least8_t"
.LASF12:
	.string	"integral_constant<bool, false>"
.LASF325:
	.string	"_ZNSt12_Vector_baseI16SubApertureImageSaIS0_EE12_Vector_implC4EOS1_OS3_"
.LASF469:
	.string	"_ZNSt16allocator_traitsISaIiEE8max_sizeERKS0_"
.LASF1242:
	.string	"getc"
.LASF1335:
	.string	"_ZNSt19_UninitDestroyGuardIPivED2Ev"
.LASF956:
	.string	"wscanf"
.LASF362:
	.string	"_ZNSt6vectorI16SubApertureImageSaIS0_EEaSEOS2_"
.LASF717:
	.string	"_ZNSt6vectorIfSaIfEE8_M_eraseEN9__gnu_cxx17__normal_iteratorIPfS1_EE"
.LASF1339:
	.string	"__guard"
.LASF1191:
	.string	"atof"
.LASF660:
	.string	"_ZNSt6vectorIfSaIfEE6assignEmRKf"
.LASF559:
	.string	"_ZNSt6vectorIiSaIiEE6insertEN9__gnu_cxx17__normal_iteratorIPKiS1_EEmRS4_"
.LASF154:
	.string	"_S_relocate"
.LASF381:
	.string	"_ZNSt6vectorI16SubApertureImageSaIS0_EE6resizeEmRKS0_"
.LASF539:
	.string	"_ZNKSt6vectorIiSaIiEE8capacityEv"
.LASF426:
	.string	"reverse_iterator<__gnu_cxx::__normal_iterator<SubApertureImage*, std::vector<SubApertureImage, std::allocator<SubApertureImage> > > >"
.LASF1273:
	.string	"intptr_t"
.LASF735:
	.string	"iterator_traits<unsigned char*>"
.LASF851:
	.string	"__mbstate_t"
.LASF1322:
	.string	"__bf16"
.LASF1125:
	.string	"mon_decimal_point"
.LASF1126:
	.string	"mon_thousands_sep"
.LASF1331:
	.string	"_Znwm"
.LASF428:
	.string	"__new_allocator<(anonymous namespace)::SubParams>"
.LASF1255:
	.string	"uint32_t"
.LASF40:
	.string	"swap"
.LASF1005:
	.string	"_ZNK9__gnu_cxx17__normal_iteratorIPhSt6vectorIhSaIhEEEplEl"
.LASF346:
	.string	"_ZNSt6vectorIhSaIhEE15_S_use_relocateEv"
.LASF1225:
	.string	"_IO_codecvt"
.LASF773:
	.string	"__niter_base<unsigned char*>"
.LASF1368:
	.string	"_ZNSt12_Vector_baseIfSaIfEED2Ev"
.LASF818:
	.string	"_ZSt3minImERKT_S2_S2_"
.LASF595:
	.string	"_ZNSt15__new_allocatorIfED4Ev"
.LASF683:
	.string	"_ZNKSt6vectorIfSaIfEEixEm"
.LASF235:
	.string	"_ZNSt6vectorIhSaIhEE6insertEN9__gnu_cxx17__normal_iteratorIPKhS1_EERS4_"
.LASF784:
	.string	"_ZSt20uninitialized_fill_nIPimiET_S1_T0_RKT1_"
.LASF1204:
	.string	"strtod"
.LASF1218:
	.string	"strtof"
.LASF811:
	.string	"__uninitialized_fill_n_a<unsigned char*, long unsigned int, unsigned char, unsigned char>"
.LASF1205:
	.string	"strtol"
.LASF968:
	.string	"__alloc_traits<std::allocator<unsigned char>, unsigned char>"
.LASF1101:
	.string	"long double"
.LASF134:
	.string	"_ZNSt12_Vector_baseIhSaIhEEC4EOS0_"
.LASF88:
	.string	"allocator<unsigned char>"
.LASF711:
	.string	"_ZNSt6vectorIfSaIfEE14_M_insert_rvalEN9__gnu_cxx17__normal_iteratorIPKfS1_EEOf"
.LASF275:
	.string	"_ZNSt6vectorIhSaIhEE14_M_move_assignEOS1_St17integral_constantIbLb1EE"
.LASF1011:
	.string	"_ZNK9__gnu_cxx17__normal_iteratorIPhSt6vectorIhSaIhEEE4baseEv"
.LASF1023:
	.string	"__normal_iterator<SubApertureImage*, std::vector<SubApertureImage, std::allocator<SubApertureImage> > >"
.LASF1478:
	.string	"_Z13_mm_set_epi64Dv2_iS_"
.LASF350:
	.string	"_ZNSt6vectorI16SubApertureImageSaIS0_EEC4ERKS1_"
.LASF1133:
	.string	"p_sep_by_space"
.LASF750:
	.string	"__throw_bad_alloc"
.LASF3:
	.string	"long unsigned int"
.LASF706:
	.string	"_ZNSt6vectorIfSaIfEE14_M_fill_assignEmRKf"
.LASF971:
	.string	"_S_on_swap"
.LASF1477:
	.string	"_mm_set_epi64"
.LASF1002:
	.string	"operator+="
.LASF1344:
	.string	"__load_outside_loop"
.LASF733:
	.string	"enable_if<true, (anonymous namespace)::SubParams*>"
.LASF133:
	.string	"_ZNSt12_Vector_baseIhSaIhEEC4EOS1_"
.LASF1251:
	.string	"tmpnam"
.LASF424:
	.string	"_ZNSt6vectorI16SubApertureImageSaIS0_EE14_M_move_assignEOS2_St17integral_constantIbLb0EE"
.LASF16:
	.string	"false_type"
.LASF1231:
	.string	"ferror"
.LASF146:
	.string	"_Alloc"
.LASF353:
	.string	"_ZNSt6vectorI16SubApertureImageSaIS0_EEC4ERKS2_"
.LASF454:
	.string	"_ZNKSt15__new_allocatorIiE7addressERi"
.LASF252:
	.string	"_ZNSt6vectorIhSaIhEE14_M_fill_insertEN9__gnu_cxx17__normal_iteratorIPhS1_EEmRKh"
.LASF351:
	.string	"_ZNSt6vectorI16SubApertureImageSaIS0_EEC4EmRKS1_"
.LASF1460:
	.string	"_ZNSt6vectorIhSaIhEEC2Ev"
.LASF836:
	.string	"_ZSt3maxIiERKT_S2_S2_"
.LASF90:
	.string	"_ZNSaIhEC4Ev"
.LASF458:
	.string	"_ZNKSt15__new_allocatorIiE8max_sizeEv"
.LASF1290:
	.string	"wctype_t"
.LASF4:
	.string	"char"
.LASF319:
	.string	"_ZNSt12_Vector_baseIhSaIhEE17_Vector_impl_data12_M_swap_dataERS2_"
.LASF916:
	.string	"wcrtomb"
.LASF945:
	.string	"__isoc23_wcstol"
.LASF277:
	.string	"_M_data_ptr<unsigned char>"
.LASF791:
	.string	"__fill_a<__gnu_cxx::__normal_iterator<unsigned char*, std::vector<unsigned char> >, unsigned char>"
.LASF229:
	.string	"push_back"
.LASF1100:
	.string	"wcstold"
.LASF688:
	.string	"_ZNKSt6vectorIfSaIfEE5frontEv"
.LASF1097:
	.string	"_Iffalse"
.LASF779:
	.string	"__fill_a1<float*, float>"
.LASF1399:
	.string	"_ZNSt12_Vector_baseIhSaIhEED2Ev"
.LASF1083:
	.string	"_ZN9__gnu_cxx17__normal_iteratorIPfSt6vectorIfSaIfEEEppEi"
.LASF995:
	.string	"operator++"
.LASF1135:
	.string	"n_sep_by_space"
.LASF582:
	.string	"_M_array"
.LASF429:
	.string	"construct<(anonymous namespace)::SubParams, const (anonymous namespace)::SubParams&>"
.LASF871:
	.string	"_old_offset"
.LASF456:
	.string	"_ZNSt15__new_allocatorIiE8allocateEmPKv"
.LASF1382:
	.string	"__new_finish"
.LASF1082:
	.string	"_ZN9__gnu_cxx17__normal_iteratorIPfSt6vectorIfSaIfEEEppEv"
.LASF193:
	.string	"cend"
.LASF835:
	.string	"max<int>"
.LASF238:
	.string	"_ZNSt6vectorIhSaIhEE6insertEN9__gnu_cxx17__normal_iteratorIPKhS1_EEmRS4_"
.LASF862:
	.string	"_IO_buf_base"
.LASF579:
	.string	"_ZNSt6vectorIiSaIiEE14_M_move_assignEOS1_St17integral_constantIbLb1EE"
.LASF257:
	.string	"_M_shrink_to_fit"
.LASF388:
	.string	"_ZNKSt6vectorI16SubApertureImageSaIS0_EE14_M_range_checkEm"
.LASF149:
	.string	"_Type"
.LASF998:
	.string	"operator--"
.LASF749:
	.string	"__throw_bad_array_new_length"
.LASF286:
	.string	"_ZSt3abse"
.LASF287:
	.string	"_ZSt3absf"
.LASF284:
	.string	"_ZSt3absg"
.LASF585:
	.string	"_ZNSt16initializer_listIiEC4Ev"
.LASF290:
	.string	"_ZSt3absl"
.LASF285:
	.string	"_ZSt3absn"
.LASF93:
	.string	"~allocator"
.LASF1006:
	.string	"operator-="
.LASF993:
	.string	"operator->"
.LASF1282:
	.string	"difftime"
.LASF289:
	.string	"_ZSt3absx"
.LASF1163:
	.string	"__intmax_t"
.LASF30:
	.string	"_ZNKSt15__exception_ptr13exception_ptr21_M_exception_ptr_castERKSt9type_info"
.LASF857:
	.string	"_IO_read_end"
.LASF516:
	.string	"_ZNSt6vectorIiSaIiEED4Ev"
.LASF1361:
	.string	"__alloc"
.LASF367:
	.string	"_ZNKSt6vectorI16SubApertureImageSaIS0_EE5beginEv"
.LASF174:
	.string	"_ZNSt6vectorIhSaIhEE6assignEmRKh"
.LASF473:
	.string	"_ZNSt12_Vector_baseIiSaIiEE17_Vector_impl_dataC4EOS2_"
.LASF854:
	.string	"_IO_FILE"
.LASF432:
	.string	"_Args"
.LASF962:
	.string	"wmemchr"
.LASF408:
	.string	"_ZNSt6vectorI16SubApertureImageSaIS0_EE18_M_fill_initializeEmRKS0_"
.LASF1226:
	.string	"_IO_wide_data"
.LASF1065:
	.string	"rebind<int>"
.LASF647:
	.string	"_ZNSt6vectorIfSaIfEEC4EmRKS0_"
.LASF472:
	.string	"_ZNSt12_Vector_baseIiSaIiEE17_Vector_impl_dataC4Ev"
.LASF820:
	.string	"_ZSt8__fill_aIN9__gnu_cxx17__normal_iteratorIPfSt6vectorIfSaIfEEEEfEvT_S7_RKT0_"
.LASF44:
	.string	"rethrow_exception"
.LASF1499:
	.string	"_ZN9__gnu_cxx21__default_lock_policyE"
.LASF925:
	.string	"tm_hour"
.LASF1421:
	.string	"tile_w_actual"
.LASF387:
	.string	"_ZNKSt6vectorI16SubApertureImageSaIS0_EEixEm"
.LASF374:
	.string	"_ZNKSt6vectorI16SubApertureImageSaIS0_EE6cbeginEv"
.LASF1453:
	.string	"rbot_f"
.LASF26:
	.string	"_ZNSt15__exception_ptr13exception_ptr10_M_releaseEv"
.LASF767:
	.string	"__fill_a1<unsigned char, unsigned char>"
.LASF1118:
	.string	"char32_t"
.LASF1213:
	.string	"atoll"
.LASF1079:
	.string	"_ZN9__gnu_cxx17__normal_iteratorIPfSt6vectorIfSaIfEEEC4ERKS1_"
.LASF240:
	.string	"_ZNSt6vectorIhSaIhEE5eraseEN9__gnu_cxx17__normal_iteratorIPKhS1_EE"
.LASF1239:
	.string	"fseek"
.LASF111:
	.string	"_ZNSt12_Vector_baseIhSaIhEE17_Vector_impl_dataC4Ev"
.LASF253:
	.string	"_M_fill_append"
.LASF331:
	.string	"_ZNSt12_Vector_baseI16SubApertureImageSaIS0_EEC4Em"
.LASF1272:
	.string	"uint_fast64_t"
.LASF329:
	.string	"_ZNSt12_Vector_baseI16SubApertureImageSaIS0_EEC4Ev"
.LASF748:
	.string	"_Iter"
.LASF622:
	.string	"_ZNSt12_Vector_baseIfSaIfEE12_Vector_implC4EOS0_OS2_"
.LASF1194:
	.string	"bsearch"
.LASF231:
	.string	"_ZNSt6vectorIhSaIhEE9push_backEOh"
.LASF1353:
	.string	"_ZNSt12_Vector_baseIfSaIfEE12_Vector_implC2ERKS0_"
.LASF567:
	.string	"_ZNSt6vectorIiSaIiEE14_M_fill_insertEN9__gnu_cxx17__normal_iteratorIPiS1_EEmRKi"
.LASF1151:
	.string	"__int32_t"
.LASF186:
	.string	"const_reverse_iterator"
.LASF1238:
	.string	"freopen"
.LASF1145:
	.string	"getwchar"
.LASF829:
	.string	"_Destroy<unsigned char*, unsigned char>"
.LASF1031:
	.string	"_ZN9__gnu_cxx17__normal_iteratorIP16SubApertureImageSt6vectorIS1_SaIS1_EEEmmEi"
.LASF1143:
	.string	"int_n_sign_posn"
.LASF99:
	.string	"_ZNSt16allocator_traitsISaIhEE8allocateERS0_mPKv"
.LASF364:
	.string	"_ZNSt6vectorI16SubApertureImageSaIS0_EE6assignEmRKS0_"
.LASF32:
	.string	"_ZNSt15__exception_ptr13exception_ptrC4ERKS0_"
.LASF25:
	.string	"_ZNSt15__exception_ptr13exception_ptr9_M_addrefEv"
.LASF926:
	.string	"tm_mday"
.LASF725:
	.string	"_ZNSt16initializer_listIfEC4Ev"
.LASF1066:
	.string	"__normal_iterator<int*, std::vector<int, std::allocator<int> > >"
.LASF436:
	.string	"_Base"
.LASF100:
	.string	"const_void_pointer"
.LASF78:
	.string	"const_reference"
.LASF411:
	.string	"_ZNSt6vectorI16SubApertureImageSaIS0_EE14_M_fill_insertEN9__gnu_cxx17__normal_iteratorIPS0_S2_EEmRKS0_"
.LASF1030:
	.string	"_ZN9__gnu_cxx17__normal_iteratorIP16SubApertureImageSt6vectorIS1_SaIS1_EEEmmEv"
.LASF86:
	.string	"_M_max_size"
.LASF817:
	.string	"min<long unsigned int>"
.LASF1328:
	.string	"operator delete"
.LASF771:
	.string	"__fill_a<unsigned char*, unsigned char>"
.LASF686:
	.string	"_ZNKSt6vectorIfSaIfEE2atEm"
.LASF1289:
	.string	"timespec_get"
.LASF1049:
	.string	"_ZNK9__gnu_cxx17__normal_iteratorIPK16SubApertureImageSt6vectorIS1_SaIS1_EEEplEl"
.LASF22:
	.string	"_ZNSt15__exception_ptr13exception_ptrC4EPv"
.LASF1054:
	.string	"rebind<(anonymous namespace)::SubParams>"
.LASF1347:
	.string	"_ZNSt12_Vector_baseIiSaIiEE17_Vector_impl_dataC2Ev"
.LASF570:
	.string	"_ZNSt6vectorIiSaIiEE16_M_shrink_to_fitEv"
.LASF1240:
	.string	"fsetpos"
.LASF606:
	.string	"_ZNSaIfED4Ev"
.LASF1463:
	.string	"_mm256_fmadd_ps"
.LASF838:
	.string	"_ZSt5floorf"
.LASF393:
	.string	"_ZNSt6vectorI16SubApertureImageSaIS0_EE4backEv"
.LASF41:
	.string	"_ZNSt15__exception_ptr13exception_ptr4swapERS0_"
.LASF867:
	.string	"_markers"
.LASF1184:
	.string	"int64_t"
.LASF489:
	.string	"_ZNSt12_Vector_baseIiSaIiEEC4Em"
.LASF967:
	.string	"_S_atomic"
.LASF786:
	.string	"_ZSt3maxImERKT_S2_S2_"
.LASF487:
	.string	"_ZNSt12_Vector_baseIiSaIiEEC4Ev"
.LASF1498:
	.string	"__default_lock_policy"
.LASF332:
	.string	"_ZNSt12_Vector_baseI16SubApertureImageSaIS0_EEC4EmRKS1_"
.LASF60:
	.string	"_ForwardIterator"
.LASF1393:
	.string	"_ZNSt6vectorIiSaIiEED2Ev"
.LASF309:
	.string	"_ZNSt16allocator_traitsISaI16SubApertureImageEE8allocateERS1_m"
.LASF1310:
	.string	"__pstl"
.LASF813:
	.string	"fill<__gnu_cxx::__normal_iterator<unsigned char*, std::vector<unsigned char> >, unsigned char>"
.LASF626:
	.string	"_ZNKSt12_Vector_baseIfSaIfEE13get_allocatorEv"
.LASF180:
	.string	"_ZNKSt6vectorIhSaIhEE5beginEv"
.LASF877:
	.string	"_codecvt"
.LASF1261:
	.string	"uint_least8_t"
.LASF297:
	.string	"_ZNKSt15__new_allocatorI16SubApertureImageE7addressERS0_"
.LASF1196:
	.string	"ldiv"
.LASF1268:
	.string	"int_fast64_t"
.LASF150:
	.string	"vector<unsigned char, std::allocator<unsigned char> >"
.LASF159:
	.string	"_ZNSt6vectorIhSaIhEEC4EmRKS0_"
.LASF609:
	.string	"_ZNSt16allocator_traitsISaIfEE8allocateERS0_mPKv"
.LASF741:
	.string	"release"
.LASF1474:
	.string	"_Z18_mm256_cvtepi32_psDv4_x"
.LASF239:
	.string	"erase"
.LASF941:
	.string	"double"
.LASF107:
	.string	"_M_exception_object"
.LASF254:
	.string	"_ZNSt6vectorIhSaIhEE14_M_fill_appendEmRKh"
.LASF19:
	.string	"__swappable_with_details"
.LASF663:
	.string	"_ZNKSt6vectorIfSaIfEE5beginEv"
.LASF1487:
	.string	"__builtin_memcpy"
.LASF843:
	.string	"overflow_arg_area"
.LASF853:
	.string	"__FILE"
.LASF1496:
	.string	"typedef __va_list_tag __va_list_tag"
.LASF762:
	.string	"_ZSt6fill_nIPfmfET_S1_T0_RKT1_"
.LASF985:
	.string	"__normal_iterator<unsigned char*, std::vector<unsigned char, std::allocator<unsigned char> > >"
.LASF355:
	.string	"_ZNSt6vectorI16SubApertureImageSaIS0_EEC4ERKS2_RKS1_"
.LASF1162:
	.string	"__uint_least64_t"
.LASF1450:
	.string	"ltop_f"
.LASF1062:
	.string	"_ZN9__gnu_cxx14__alloc_traitsISaIiEiE20_S_propagate_on_swapEv"
.LASF438:
	.string	"_M_storage"
.LASF571:
	.string	"_ZNSt6vectorIiSaIiEE14_M_insert_rvalEN9__gnu_cxx17__normal_iteratorIPKiS1_EEOi"
.LASF1286:
	.string	"ctime"
.LASF1096:
	.string	"_Iftrue"
.LASF982:
	.string	"_ZN9__gnu_cxx14__alloc_traitsISaIhEhE15_S_nothrow_moveEv"
.LASF746:
	.string	"_S_destroy<int*>"
.LASF210:
	.string	"_ZNKSt6vectorIhSaIhEE5emptyEv"
.LASF448:
	.string	"_Iterator"
.LASF654:
	.string	"_ZNSt6vectorIfSaIfEEC4EOS1_RKS0_"
.LASF1414:
	.string	"__for_begin"
.LASF519:
	.string	"_ZNSt6vectorIiSaIiEEaSESt16initializer_listIiE"
.LASF589:
	.string	"reverse_iterator<__gnu_cxx::__normal_iterator<int const*, std::vector<int, std::allocator<int> > > >"
.LASF245:
	.string	"_M_fill_initialize"
.LASF1044:
	.string	"_ZN9__gnu_cxx17__normal_iteratorIPK16SubApertureImageSt6vectorIS1_SaIS1_EEEppEi"
.LASF701:
	.string	"_ZNSt6vectorIfSaIfEE5eraseEN9__gnu_cxx17__normal_iteratorIPKfS1_EES6_"
.LASF1152:
	.string	"__uint32_t"
.LASF1200:
	.string	"qsort"
.LASF1056:
	.string	"__normal_iterator<const (anonymous namespace)::SubParams*, std::vector<(anonymous namespace)::SubParams, std::allocator<(anonymous namespace)::SubParams> > >"
.LASF997:
	.string	"_ZN9__gnu_cxx17__normal_iteratorIPhSt6vectorIhSaIhEEEppEi"
.LASF142:
	.string	"_M_deallocate"
.LASF330:
	.string	"_ZNSt12_Vector_baseI16SubApertureImageSaIS0_EEC4ERKS1_"
.LASF198:
	.string	"_ZNKSt6vectorIhSaIhEE5crendEv"
.LASF226:
	.string	"data"
.LASF547:
	.string	"_ZNSt6vectorIiSaIiEE5frontEv"
.LASF951:
	.string	"wmemcmp"
.LASF776:
	.string	"_ZSt9__fill_a1IPhSt6vectorIhSaIhEEhEvN9__gnu_cxx17__normal_iteratorIT_T0_EES8_RKT1_"
.LASF801:
	.string	"__uninitialized_fill_n_a<int*, long unsigned int, int, int>"
.LASF315:
	.string	"_Vector_base<SubApertureImage, std::allocator<SubApertureImage> >"
.LASF996:
	.string	"_ZN9__gnu_cxx17__normal_iteratorIPhSt6vectorIhSaIhEEEppEv"
.LASF796:
	.string	"_ZSt8_DestroyIPfEvT_S1_"
.LASF218:
	.string	"_ZNSt6vectorIhSaIhEE2atEm"
.LASF850:
	.string	"__value"
.LASF680:
	.string	"_ZNKSt6vectorIfSaIfEE5emptyEv"
.LASF31:
	.string	"_ZNSt15__exception_ptr13exception_ptrC4Ev"
.LASF1455:
	.string	"inv_c"
.LASF561:
	.string	"_ZNSt6vectorIiSaIiEE5eraseEN9__gnu_cxx17__normal_iteratorIPKiS1_EES6_"
.LASF1481:
	.string	"_mm_set_epi64x"
.LASF1405:
	.string	"focus"
.LASF825:
	.string	"__relocate_a<(anonymous namespace)::SubParams*, (anonymous namespace)::SubParams*, std::allocator<(anonymous namespace)::SubParams> >"
.LASF1494:
	.string	"literals"
.LASF118:
	.string	"_ZNSt12_Vector_baseIhSaIhEE12_Vector_implC4ERKS0_"
.LASF303:
	.string	"allocator<SubApertureImage>"
.LASF1090:
	.string	"_ZNK9__gnu_cxx17__normal_iteratorIPfSt6vectorIfSaIfEEEmiEl"
.LASF1469:
	.string	"_mm256_storeu_ps"
.LASF1495:
	.string	"__is_nothrow_new_constructible"
.LASF1381:
	.string	"__new_start"
.LASF497:
	.string	"_ZNSt12_Vector_baseIiSaIiEE13_M_deallocateEPim"
.LASF246:
	.string	"_ZNSt6vectorIhSaIhEE18_M_fill_initializeEmRKh"
.LASF170:
	.string	"_ZNSt6vectorIhSaIhEEaSERKS1_"
.LASF1493:
	.string	"input_iterator_tag"
.LASF972:
	.string	"_ZN9__gnu_cxx14__alloc_traitsISaIhEhE10_S_on_swapERS1_S3_"
.LASF421:
	.string	"_ZNSt6vectorI16SubApertureImageSaIS0_EE8_M_eraseEN9__gnu_cxx17__normal_iteratorIPS0_S2_EE"
.LASF1297:
	.string	"width"
.LASF1010:
	.string	"base"
.LASF781:
	.string	"__uninitialized_default_n<float*, long unsigned int>"
.LASF327:
	.string	"_ZNKSt12_Vector_baseI16SubApertureImageSaIS0_EE19_M_get_Tp_allocatorEv"
.LASF189:
	.string	"_ZNSt6vectorIhSaIhEE4rendEv"
.LASF1028:
	.string	"_ZN9__gnu_cxx17__normal_iteratorIP16SubApertureImageSt6vectorIS1_SaIS1_EEEppEv"
.LASF390:
	.string	"_ZNKSt6vectorI16SubApertureImageSaIS0_EE2atEm"
.LASF1249:
	.string	"setvbuf"
.LASF147:
	.string	"__type_identity<std::allocator<unsigned char> >"
.LASF831:
	.string	"fill<__gnu_cxx::__normal_iterator<float*, std::vector<float> >, float>"
.LASF657:
	.string	"_ZNSt6vectorIfSaIfEEaSERKS1_"
.LASF1208:
	.string	"__isoc23_strtoul"
.LASF816:
	.string	"_ZSt8_DestroyIPhEvT_S1_"
.LASF645:
	.string	"_ZNSt6vectorIfSaIfEEC4Ev"
.LASF601:
	.string	"_ZNKSt15__new_allocatorIfE11_M_max_sizeEv"
.LASF1172:
	.string	"5div_t"
.LASF1175:
	.string	"6ldiv_t"
.LASF1174:
	.string	"div_t"
.LASF306:
	.string	"_ZNSaI16SubApertureImageEaSERKS0_"
.LASF575:
	.string	"_ZNSt6vectorIiSaIiEE11_S_max_sizeERKS0_"
.LASF358:
	.string	"_ZNSt6vectorI16SubApertureImageSaIS0_EEC4EOS2_RKS1_"
.LASF1190:
	.string	"at_quick_exit"
.LASF61:
	.string	"_Size"
.LASF1262:
	.string	"uint_least16_t"
.LASF294:
	.string	"_ZNSt15__new_allocatorI16SubApertureImageEC4ERKS1_"
.LASF209:
	.string	"empty"
.LASF880:
	.string	"_freeres_buf"
.LASF1036:
	.string	"_ZNK9__gnu_cxx17__normal_iteratorIP16SubApertureImageSt6vectorIS1_SaIS1_EEEmiEl"
.LASF677:
	.string	"_ZNSt6vectorIfSaIfEE6resizeEmRKf"
.LASF729:
	.string	"_ZNKSt16initializer_listIfE3endEv"
.LASF1199:
	.string	"mbtowc"
.LASF1029:
	.string	"_ZN9__gnu_cxx17__normal_iteratorIP16SubApertureImageSt6vectorIS1_SaIS1_EEEppEi"
.LASF171:
	.string	"_ZNSt6vectorIhSaIhEEaSEOS1_"
.LASF49:
	.string	"forward_iterator_tag"
.LASF212:
	.string	"_ZNSt6vectorIhSaIhEE7reserveEm"
.LASF1186:
	.string	"tv_sec"
.LASF109:
	.string	"_M_finish"
.LASF977:
	.string	"_S_propagate_on_swap"
.LASF247:
	.string	"_M_default_initialize"
.LASF1107:
	.string	"long long unsigned int"
.LASF800:
	.string	"_ZSt8_DestroyIPiEvT_S1_"
.LASF898:
	.string	"mbrtowc"
.LASF872:
	.string	"_cur_column"
.LASF777:
	.string	"_Ite"
.LASF29:
	.string	"_M_exception_ptr_cast"
.LASF952:
	.string	"wmemcpy"
.LASF1188:
	.string	"__compar_fn_t"
.LASF140:
	.string	"_M_allocate"
.LASF402:
	.string	"_ZNSt6vectorI16SubApertureImageSaIS0_EE6insertEN9__gnu_cxx17__normal_iteratorIPKS0_S2_EESt16initializer_listIS0_E"
.LASF296:
	.string	"_ZNSt15__new_allocatorI16SubApertureImageED4Ev"
.LASF1376:
	.string	"_ZNSt15__new_allocatorIiED2Ev"
.LASF230:
	.string	"_ZNSt6vectorIhSaIhEE9push_backERKh"
.LASF747:
	.string	"_ZNSt19_UninitDestroyGuardIPivE10_S_destroyIS0_EEvT_S3_"
.LASF597:
	.string	"_ZNKSt15__new_allocatorIfE7addressERKf"
.LASF1424:
	.string	"ind_rtop"
.LASF1179:
	.string	"clock_t"
.LASF137:
	.string	"~_Vector_base"
.LASF386:
	.string	"_ZNSt6vectorI16SubApertureImageSaIS0_EEixEm"
.LASF759:
	.string	"_ZSt10__fill_n_aIPfmfET_S1_T0_RKT1_St26random_access_iterator_tag"
.LASF1364:
	.string	"__dif"
.LASF644:
	.string	"_ZNSt6vectorIfSaIfEE11_S_relocateEPfS2_S2_RS0_"
.LASF736:
	.string	"_UninitDestroyGuard<int*, void>"
.LASF1398:
	.string	"_ZNSt6vectorIhSaIhEED2Ev"
.LASF1475:
	.string	"_mm_loadl_epi64"
.LASF474:
	.string	"_ZNSt12_Vector_baseIiSaIiEE17_Vector_impl_data12_M_copy_dataERKS2_"
.LASF476:
	.string	"_ZNSt12_Vector_baseIiSaIiEE12_Vector_implC4Ev"
.LASF341:
	.string	"__type_identity<std::allocator<SubApertureImage> >"
.LASF1459:
	.string	"_ZN9ImageDataC2Ev"
.LASF935:
	.string	"wcsncat"
.LASF121:
	.string	"_ZNSt12_Vector_baseIhSaIhEE12_Vector_implC4EOS0_OS2_"
.LASF1236:
	.string	"fopen"
.LASF557:
	.string	"_ZNSt6vectorIiSaIiEE6insertEN9__gnu_cxx17__normal_iteratorIPKiS1_EEOi"
.LASF932:
	.string	"tm_gmtoff"
.LASF66:
	.string	"_ZNSt15__new_allocatorIhEC4ERKS0_"
.LASF375:
	.string	"_ZNKSt6vectorI16SubApertureImageSaIS0_EE4cendEv"
.LASF279:
	.string	"__type_identity_t"
.LASF56:
	.string	"filesystem"
.LASF610:
	.string	"_ZNSt16allocator_traitsISaIfEE10deallocateERS0_Pfm"
.LASF865:
	.string	"_IO_backup_base"
.LASF966:
	.string	"_S_mutex"
.LASF334:
	.string	"_ZNSt12_Vector_baseI16SubApertureImageSaIS0_EEC4EOS1_"
.LASF1439:
	.string	"rbot_f_0"
.LASF1443:
	.string	"rbot_f_1"
.LASF1141:
	.string	"int_n_sep_by_space"
.LASF856:
	.string	"_IO_read_ptr"
.LASF634:
	.string	"_ZNSt12_Vector_baseIfSaIfEEC4ERKS0_OS1_"
.LASF613:
	.string	"_Vector_base<float, std::allocator<float> >"
.LASF280:
	.string	"type_info"
.LASF1235:
	.string	"fgets"
.LASF48:
	.string	"true_type"
.LASF727:
	.string	"_ZNKSt16initializer_listIfE5beginEv"
.LASF1265:
	.string	"int_fast8_t"
.LASF1195:
	.string	"getenv"
.LASF879:
	.string	"_freeres_list"
.LASF999:
	.string	"_ZN9__gnu_cxx17__normal_iteratorIPhSt6vectorIhSaIhEEEmmEv"
.LASF1471:
	.string	"_mm256_loadu_ps"
.LASF1311:
	.string	"__m64"
.LASF1280:
	.string	"__float128"
.LASF790:
	.string	"_ZSt20uninitialized_fill_nIPhmhET_S1_T0_RKT1_"
.LASF167:
	.string	"_ZNSt6vectorIhSaIhEEC4ESt16initializer_listIhERKS0_"
.LASF385:
	.string	"_ZNSt6vectorI16SubApertureImageSaIS0_EE7reserveEm"
.LASF758:
	.string	"__fill_n_a<float*, long unsigned int, float>"
.LASF675:
	.string	"_ZNKSt6vectorIfSaIfEE8max_sizeEv"
.LASF888:
	.string	"fgetws"
.LASF1470:
	.string	"_Z16_mm256_storeu_psPfDv8_f"
.LASF333:
	.string	"_ZNSt12_Vector_baseI16SubApertureImageSaIS0_EEC4EOS2_"
.LASF1202:
	.string	"rand"
.LASF64:
	.string	"__new_allocator"
.LASF1438:
	.string	"rtop_f_0"
.LASF1442:
	.string	"rtop_f_1"
.LASF1403:
	.string	"_Z21refocus_shift_and_sumRSt6vectorI16SubApertureImageSaIS0_EEf"
.LASF766:
	.string	"_ZSt10_ConstructIiJRKiEEvPT_DpOT0_"
.LASF130:
	.string	"_ZNSt12_Vector_baseIhSaIhEEC4ERKS0_"
.LASF401:
	.string	"_ZNSt6vectorI16SubApertureImageSaIS0_EE6insertEN9__gnu_cxx17__normal_iteratorIPKS0_S2_EEOS0_"
.LASF755:
	.string	"__fill_a<float*, float>"
.LASF988:
	.string	"__normal_iterator"
.LASF769:
	.string	"__do_uninit_fill_n<int*, long unsigned int, int>"
.LASF1061:
	.string	"_ZN9__gnu_cxx14__alloc_traitsISaIiEiE27_S_propagate_on_move_assignEv"
.LASF602:
	.string	"allocator<float>"
.LASF990:
	.string	"_ZN9__gnu_cxx17__normal_iteratorIPhSt6vectorIhSaIhEEEC4ERKS1_"
.LASF919:
	.string	"wcscoll"
.LASF1483:
	.string	"_ZdlPvS_"
.LASF155:
	.string	"_ZNSt6vectorIhSaIhEE11_S_relocateEPhS2_S2_RS0_"
.LASF1291:
	.string	"wctrans_t"
.LASF102:
	.string	"select_on_container_copy_construction"
.LASF556:
	.string	"_ZNSt6vectorIiSaIiEE6insertEN9__gnu_cxx17__normal_iteratorIPKiS1_EERS4_"
.LASF58:
	.string	"__uninitialized_default_n_1<true>"
.LASF274:
	.string	"_M_move_assign"
.LASF1040:
	.string	"_ZN9__gnu_cxx17__normal_iteratorIPK16SubApertureImageSt6vectorIS1_SaIS1_EEEC4ERKS3_"
.LASF789:
	.string	"uninitialized_fill_n<unsigned char*, long unsigned int, unsigned char>"
.LASF628:
	.string	"_ZNSt12_Vector_baseIfSaIfEEC4ERKS0_"
.LASF723:
	.string	"initializer_list<float>"
.LASF646:
	.string	"_ZNSt6vectorIfSaIfEEC4ERKS0_"
.LASF270:
	.string	"_ZNSt6vectorIhSaIhEE15_M_erase_at_endEPh"
.LASF1060:
	.string	"_ZN9__gnu_cxx14__alloc_traitsISaIiEiE27_S_propagate_on_copy_assignEv"
.LASF1136:
	.string	"p_sign_posn"
.LASF477:
	.string	"_ZNSt12_Vector_baseIiSaIiEE12_Vector_implC4ERKS0_"
.LASF403:
	.string	"_ZNSt6vectorI16SubApertureImageSaIS0_EE6insertEN9__gnu_cxx17__normal_iteratorIPKS0_S2_EEmRS5_"
.LASF960:
	.string	"wcsrchr"
.LASF661:
	.string	"_ZNSt6vectorIfSaIfEE6assignESt16initializer_listIfE"
.LASF1264:
	.string	"uint_least64_t"
.LASF673:
	.string	"_ZNKSt6vectorIfSaIfEE5crendEv"
.LASF338:
	.string	"_ZNSt12_Vector_baseI16SubApertureImageSaIS0_EE11_M_allocateEm"
.LASF1009:
	.string	"_ZNK9__gnu_cxx17__normal_iteratorIPhSt6vectorIhSaIhEEEmiEl"
.LASF514:
	.string	"_ZNSt6vectorIiSaIiEEC4EOS1_RKS0_"
.LASF709:
	.string	"_ZNSt6vectorIfSaIfEE17_M_default_appendEm"
.LASF352:
	.string	"_ZNSt6vectorI16SubApertureImageSaIS0_EEC4EmRKS0_RKS1_"
.LASF1075:
	.string	"_ZN9__gnu_cxx14__alloc_traitsISaIfEfE15_S_nothrow_moveEv"
.LASF1363:
	.string	"_ZNSt6vectorIhSaIhEEC2EmRKhRKS0_"
.LASF1429:
	.string	"lbot_b_0"
.LASF1433:
	.string	"lbot_b_1"
.LASF345:
	.string	"_S_use_relocate"
.LASF153:
	.string	"_ZNSt6vectorIhSaIhEE19_S_nothrow_relocateESt17integral_constantIbLb0EE"
.LASF116:
	.string	"_Vector_impl"
.LASF1461:
	.string	"_ZNSt12_Vector_baseIhSaIhEEC2Ev"
.LASF1283:
	.string	"mktime"
.LASF1383:
	.string	"_ZN9__gnu_cxx17__normal_iteratorIP16SubApertureImageSt6vectorIS1_SaIS1_EEEC2ERKS2_"
.LASF1420:
	.string	"tile_x_end"
.LASF1243:
	.string	"getchar"
.LASF1187:
	.string	"tv_nsec"
.LASF739:
	.string	"~_UninitDestroyGuard"
.LASF531:
	.string	"_ZNKSt6vectorIiSaIiEE4cendEv"
.LASF649:
	.string	"_ZNSt6vectorIfSaIfEEC4ERKS1_"
.LASF839:
	.string	"__size_to_integer"
.LASF538:
	.string	"_ZNSt6vectorIiSaIiEE13shrink_to_fitEv"
.LASF1505:
	.string	"__can_fill"
.LASF1055:
	.string	"__normal_iterator<(anonymous namespace)::SubParams*, std::vector<(anonymous namespace)::SubParams, std::allocator<(anonymous namespace)::SubParams> > >"
.LASF108:
	.string	"_M_start"
.LASF562:
	.string	"_ZNSt6vectorIiSaIiEE4swapERS1_"
.LASF1333:
	.string	"__last"
.LASF336:
	.string	"_ZNSt12_Vector_baseI16SubApertureImageSaIS0_EEC4ERKS1_OS2_"
.LASF981:
	.string	"_S_nothrow_move"
.LASF906:
	.string	"ungetwc"
.LASF281:
	.string	"initializer_list<unsigned char>"
.LASF1070:
	.string	"_ZN9__gnu_cxx14__alloc_traitsISaIfEfE10_S_on_swapERS1_S3_"
.LASF1428:
	.string	"ltop_b_0"
.LASF1432:
	.string	"ltop_b_1"
.LASF1316:
	.string	"__v8sf"
.LASF1057:
	.string	"__alloc_traits<std::allocator<int>, int>"
.LASF1317:
	.string	"__v8si"
.LASF975:
	.string	"_S_propagate_on_move_assign"
.LASF242:
	.string	"_ZNSt6vectorIhSaIhEE4swapERS1_"
.LASF513:
	.string	"_ZNSt6vectorIiSaIiEEC4EOS1_RKS0_St17integral_constantIbLb0EE"
.LASF1038:
	.string	"__normal_iterator<const SubApertureImage*, std::vector<SubApertureImage, std::allocator<SubApertureImage> > >"
.LASF772:
	.string	"_ZSt8__fill_aIPhhEvT_S1_RKT0_"
.LASF1013:
	.string	"__normal_iterator<unsigned char const*, std::vector<unsigned char, std::allocator<unsigned char> > >"
.LASF639:
	.string	"__type_identity<std::allocator<float> >"
.LASF964:
	.string	"_ZN9__gnu_cxx3divExx"
.LASF732:
	.string	"iterator_traits<float*>"
.LASF908:
	.string	"vfwscanf"
.LASF1134:
	.string	"n_cs_precedes"
.LASF544:
	.string	"_ZNKSt6vectorIiSaIiEE14_M_range_checkEm"
.LASF80:
	.string	"_ZNSt15__new_allocatorIhE8allocateEmPKv"
.LASF123:
	.string	"_M_get_Tp_allocator"
.LASF793:
	.string	"__fill_a1<float*, std::vector<float>, float>"
.LASF1222:
	.string	"__state"
.LASF365:
	.string	"_ZNSt6vectorI16SubApertureImageSaIS0_EE6assignESt16initializer_listIS0_E"
.LASF443:
	.string	"initializer_list<(anonymous namespace)::SubParams>"
.LASF467:
	.string	"_ZNSt16allocator_traitsISaIiEE8allocateERS0_mPKv"
.LASF1146:
	.string	"localeconv"
.LASF75:
	.string	"reference"
.LASF20:
	.string	"__exception_ptr"
.LASF870:
	.string	"_short_backupbuf"
.LASF1117:
	.string	"char16_t"
.LASF1360:
	.string	"__result"
.LASF1085:
	.string	"_ZN9__gnu_cxx17__normal_iteratorIPfSt6vectorIfSaIfEEEmmEi"
.LASF308:
	.string	"allocator_traits<std::allocator<SubApertureImage> >"
.LASF1497:
	.string	"_Lock_policy"
.LASF132:
	.string	"_ZNSt12_Vector_baseIhSaIhEEC4EmRKS0_"
.LASF1216:
	.string	"strtoull"
.LASF1084:
	.string	"_ZN9__gnu_cxx17__normal_iteratorIPfSt6vectorIfSaIfEEEmmEv"
.LASF1395:
	.string	"_ZNSaIiED2Ev"
.LASF414:
	.string	"_ZNSt6vectorI16SubApertureImageSaIS0_EE16_M_shrink_to_fitEv"
.LASF537:
	.string	"_ZNSt6vectorIiSaIiEE6resizeEmRKi"
.LASF323:
	.string	"_ZNSt12_Vector_baseI16SubApertureImageSaIS0_EE12_Vector_implC4EOS3_"
.LASF1147:
	.string	"__int8_t"
.LASF378:
	.string	"_ZNKSt6vectorI16SubApertureImageSaIS0_EE4sizeEv"
.LASF380:
	.string	"_ZNSt6vectorI16SubApertureImageSaIS0_EE6resizeEm"
.LASF1422:
	.string	"ind_ltop"
.LASF1319:
	.string	"__m256i"
.LASF205:
	.string	"shrink_to_fit"
.LASF359:
	.string	"_ZNSt6vectorI16SubApertureImageSaIS0_EEC4ESt16initializer_listIS0_ERKS1_"
.LASF266:
	.string	"_ZNSt6vectorIhSaIhEE17_S_check_init_lenEmRKS0_"
.LASF282:
	.string	"reverse_iterator<__gnu_cxx::__normal_iterator<unsigned char*, std::vector<unsigned char, std::allocator<unsigned char> > > >"
.LASF1320:
	.string	"__m256_u"
.LASF59:
	.string	"__uninit_default_n<float*, long unsigned int>"
.LASF1050:
	.string	"_ZN9__gnu_cxx17__normal_iteratorIPK16SubApertureImageSt6vectorIS1_SaIS1_EEEmIEl"
.LASF869:
	.string	"_fileno"
.LASF568:
	.string	"_ZNSt6vectorIiSaIiEE14_M_fill_appendEmRKi"
.LASF814:
	.string	"_ZSt4fillIN9__gnu_cxx17__normal_iteratorIPhSt6vectorIhSaIhEEEEhEvT_S7_RKT0_"
.LASF1400:
	.string	"_ZNSaIhED2Ev"
.LASF845:
	.string	"unsigned int"
.LASF745:
	.string	"_ZNSt19_UninitDestroyGuardIPivEC4ERKS1_"
.LASF1015:
	.string	"_ZN9__gnu_cxx14__alloc_traitsISaI16SubApertureImageES1_E17_S_select_on_copyERKS2_"
.LASF1372:
	.string	"_ZNSt15__new_allocatorIfEC2Ev"
.LASF1380:
	.string	"__elems"
.LASF337:
	.string	"_ZNSt12_Vector_baseI16SubApertureImageSaIS0_EED4Ev"
.LASF73:
	.string	"_ZNKSt15__new_allocatorIhE7addressERh"
.LASF21:
	.string	"exception_ptr"
.LASF1074:
	.string	"_ZN9__gnu_cxx14__alloc_traitsISaIfEfE15_S_always_equalEv"
.LASF1269:
	.string	"uint_fast8_t"
.LASF106:
	.string	"_Vector_impl_data"
.LASF172:
	.string	"_ZNSt6vectorIhSaIhEEaSESt16initializer_listIhE"
.LASF453:
	.string	"_ZNSt15__new_allocatorIiED4Ev"
.LASF446:
	.string	"iterator_traits<SubApertureImage*>"
.LASF1413:
	.string	"__for_range"
.LASF1007:
	.string	"_ZN9__gnu_cxx17__normal_iteratorIPhSt6vectorIhSaIhEEEmIEl"
.LASF587:
	.string	"_ZNKSt16initializer_listIiE5beginEv"
.LASF651:
	.string	"_ZNSt6vectorIfSaIfEEC4ERKS1_RKS0_"
.LASF224:
	.string	"_ZNSt6vectorIhSaIhEE4backEv"
.LASF1292:
	.string	"iswctype"
.LASF572:
	.string	"_ZNSt6vectorIiSaIiEE14_M_emplace_auxEN9__gnu_cxx17__normal_iteratorIPKiS1_EEOi"
.LASF1115:
	.string	"short int"
.LASF1318:
	.string	"__m256"
.LASF1138:
	.string	"int_p_cs_precedes"
.LASF753:
	.string	"__throw_length_error"
.LASF947:
	.string	"wcstoul"
.LASF1300:
	.string	"_ZNK9ImageData5indexEmmm"
.LASF195:
	.string	"crbegin"
.LASF260:
	.string	"_ZNSt6vectorIhSaIhEE14_M_insert_rvalEN9__gnu_cxx17__normal_iteratorIPKhS1_EEOh"
.LASF834:
	.string	"_ZSt3minIiERKT_S2_S2_"
.LASF873:
	.string	"_vtable_offset"
.LASF317:
	.string	"_ZNSt12_Vector_baseI16SubApertureImageSaIS0_EE17_Vector_impl_dataC4EOS3_"
.LASF915:
	.string	"__isoc23_vwscanf"
.LASF494:
	.string	"_ZNSt12_Vector_baseIiSaIiEEC4ERKS0_OS1_"
.LASF406:
	.string	"_ZNSt6vectorI16SubApertureImageSaIS0_EE4swapERS2_"
.LASF340:
	.string	"_ZNSt12_Vector_baseI16SubApertureImageSaIS0_EE17_M_create_storageEm"
.LASF216:
	.string	"_M_range_check"
.LASF62:
	.string	"_TrivialValueType"
.LASF637:
	.string	"_ZNSt12_Vector_baseIfSaIfEE13_M_deallocateEPfm"
.LASF265:
	.string	"_S_check_init_len"
.LASF1502:
	.string	"_IO_lock_t"
.LASF217:
	.string	"_ZNKSt6vectorIhSaIhEE14_M_range_checkEm"
.LASF1345:
	.string	"_ZNSt12_Vector_baseIfSaIfEE17_Vector_impl_dataC2Ev"
.LASF576:
	.string	"_ZNSt6vectorIiSaIiEE15_M_erase_at_endEPi"
.LASF598:
	.string	"_ZNSt15__new_allocatorIfE8allocateEmPKv"
.LASF13:
	.string	"operator std::integral_constant<bool, false>::value_type"
.LASF666:
	.string	"_ZNSt6vectorIfSaIfEE6rbeginEv"
.LASF50:
	.string	"bidirectional_iterator_tag"
.LASF707:
	.string	"_ZNSt6vectorIfSaIfEE14_M_fill_insertEN9__gnu_cxx17__normal_iteratorIPfS1_EEmRKf"
.LASF1348:
	.string	"_ZNSt15__new_allocatorIiEC2ERKS0_"
.LASF439:
	.string	"_M_len"
	.section	.debug_line_str,"MS",@progbits,1
.LASF1:
	.string	"/home/team15/tomasz-worktree-dir/cpp_refocus"
.LASF0:
	.string	"src/avx_analysis_code_ablations/opt10_abl_tile_8x256_ilp.cpp"
	.hidden	"DW.ref.__gxx_personality_v0"
	.weak	"DW.ref.__gxx_personality_v0"
	.section	.data.rel.local.DW.ref.__gxx_personality_v0,"awG",@progbits,DW.ref.__gxx_personality_v0,comdat
	.align 8
	.type	"DW.ref.__gxx_personality_v0", @object
	.size	"DW.ref.__gxx_personality_v0", 8
"DW.ref.__gxx_personality_v0":
	.quad	"__gxx_personality_v0"
	.globl	"__gxx_personality_v0"
	.ident	"GCC: (Debian 16-20260425-1) 16.0.1 20260425 (prerelease) [gcc-16 r16-8812-gd9c07462a22]"
	.section	.note.GNU-stack,"",@progbits
