	.file	"opt10_abl_tile_8x256.cpp"
	.intel_syntax noprefix
# GNU C++17 (Debian 16-20260425-1) version 16.0.1 20260425 (prerelease) [gcc-16 r16-8812-gd9c07462a22] (x86_64-linux-gnu)
#	compiled by GNU C version 16.0.1 20260425 (prerelease) [gcc-16 r16-8812-gd9c07462a22], GMP version 6.3.0, MPFR version 4.2.2, MPC version 1.3.1, isl version isl-0.27-GMP

# GGC heuristics: --param ggc-min-expand=30 --param ggc-min-heapsize=4096
# options passed: -march=tigerlake -mmmx -mpopcnt -msse -msse2 -msse3 -mssse3 -msse4.1 -msse4.2 -mavx -mno-sse4a -mno-fma4 -mno-xop -mavx512f -mbmi -mbmi2 -maes -mpclmul -mavx512vl -mavx512bw -mavx512dq -mavx512cd -mavx512vbmi -mavx512ifma -mavx512vpopcntdq -mavx512vbmi2 -mgfni -mvpclmulqdq -mavx512vnni -mavx512bitalg -mno-avx512bf16 -mavx512vp2intersect -mno-3dnow -madx -mabm -mno-cldemote -mclflushopt -mclwb -mno-clzero -mcx16 -mno-enqcmd -mf16c -mfsgsbase -mfxsr -mno-hle -msahf -mno-lwp -mlzcnt -mmovbe -mmovdir64b -mmovdiri -mno-mwaitx -mno-pconfig -mpku -mprfchw -mno-ptwrite -mrdpid -mrdrnd -mrdseed -mno-rtm -mno-serialize -mno-sgx -msha -mshstk -mno-tbm -mno-tsxldtrk -mvaes -mno-waitpkg -mno-wbnoinvd -mxsave -mxsavec -mxsaveopt -mxsaves -mno-amx-tile -mno-amx-int8 -mno-amx-bf16 -mno-uintr -mno-hreset -mno-kl -mno-widekl -mno-avxvnni -mno-avx512fp16 -mno-avxifma -mno-avxvnniint8 -mno-avxneconvert -mno-cmpccxadd -mno-amx-fp16 -mno-prefetchi -mno-raoint -mno-amx-complex -mno-avxvnniint16 -mno-sm3 -mno-sha512 -mno-sm4 -mno-apxf -mno-usermsr -mno-avx10.1 -mno-avx10.2 -mno-amx-avx512 -mno-amx-tf32 -mno-amx-fp8 -mno-movrs -mno-amx-movrs -mno-avx512bmm --param=l1-cache-size=48 --param=l1-cache-line-size=64 --param=l2-cache-size=8192 -mtune=tigerlake -mavx2 -mfma -masm=intel -g -O3 -std=c++17 -ffast-math -fasynchronous-unwind-tables
	.text
.Ltext0:
	.file 0 "/home/team15/tomasz-worktree-dir/cpp_refocus" "src/avx_analysis_code_ablations/opt10_abl_tile_8x256.cpp"
	.section	.rodata.str1.8,"aMS",@progbits,1
	.align 8
.LC0:
	.string	"cannot create std::vector larger than max_size()"
	.section	.rodata.str1.1,"aMS",@progbits,1
.LC2:
	.string	"vector::_M_realloc_append"
	.section	.text.unlikely,"ax",@progbits
.LCOLDB5:
	.text
.LHOTB5:
	.p2align 4
	.section	.text.unlikely
.Ltext_cold0:
	.text
	.globl	"_Z21refocus_shift_and_sumRSt6vectorI16SubApertureImageSaIS0_EEf"
	.type	"_Z21refocus_shift_and_sumRSt6vectorI16SubApertureImageSaIS0_EEf", @function
"_Z21refocus_shift_and_sumRSt6vectorI16SubApertureImageSaIS0_EEf":
.LVL0:
.LFB11707:
	.file 1 "src/avx_analysis_code_ablations/opt10_abl_tile_8x256.cpp"
	.loc 1 34 91 view -0
	.cfi_startproc
	.cfi_personality 0x9b,"DW.ref.__gxx_personality_v0"
	.cfi_lsda 0x1b,.LLSDA11707
	.loc 1 34 91 is_stmt 0 view .LVU1
	push	rbp	#
	.cfi_def_cfa_offset 16
	.cfi_offset 6, -16
.LBB2126:
.LBB2127:
.LBB2128:
.LBB2129:
.LBB2130:
.LBB2131:
# /usr/include/c++/16/bits/stl_vector.h:106: 	: _M_start(), _M_finish(), _M_end_of_storage()
	.file 2 "/usr/include/c++/16/bits/stl_vector.h"
	.loc 2 106 4 view .LVU2
	vpxor	xmm1, xmm1, xmm1	# tmp825
.LBE2131:
.LBE2130:
.LBE2129:
.LBE2128:
.LBE2127:
.LBE2126:
# src/avx_analysis_code_ablations/opt10_abl_tile_8x256.cpp:34: ImageData refocus_shift_and_sum(std::vector<SubApertureImage>& subapertures, float focus) {
	.loc 1 34 91 view .LVU3
	mov	rbp, rsp	#,
	.cfi_def_cfa_register 6
	push	r15	#
	push	r14	#
	push	r13	#
	.cfi_offset 15, -24
	.cfi_offset 14, -32
	.cfi_offset 13, -40
	mov	r13, rsi	# subapertures, subapertures
	push	r12	#
	push	rbx	#
	and	rsp, -32	#,
	sub	rsp, 288	#,
	.cfi_offset 12, -48
	.cfi_offset 3, -56
.LBB2143:
.LBB2144:
.LBB2145:
.LBB2146:
# /usr/include/c++/16/bits/stl_iterator.h:1059:       : _M_current(__i) { }
	.file 3 "/usr/include/c++/16/bits/stl_iterator.h"
	.loc 3 1059 9 view .LVU4
	mov	rbx, QWORD PTR [rsi]	# SR.299, MEM[(struct SubApertureImage * const &)subapertures_201(D)]
.LBE2146:
.LBE2145:
.LBE2144:
.LBE2143:
# src/avx_analysis_code_ablations/opt10_abl_tile_8x256.cpp:34: ImageData refocus_shift_and_sum(std::vector<SubApertureImage>& subapertures, float focus) {
	.loc 1 34 91 view .LVU5
	vmovss	DWORD PTR 232[rsp], xmm0	# %sfp, focus
	mov	QWORD PTR 128[rsp], rdi	# %sfp, <retval>
	.loc 1 35 5 is_stmt 1 view .LVU6
.LVL1:
.LBB2149:
.LBI2143:
	.loc 2 1334 7 view .LVU7
	.loc 2 1336 2 discriminator 2 view .LVU8
.LBB2148:
.LBI2144:
	.loc 2 988 7 view .LVU9
.LBB2147:
.LBI2145:
	.loc 3 1058 7 view .LVU10
	.loc 3 1058 7 is_stmt 0 view .LVU11
.LBE2147:
.LBE2148:
.LBE2149:
# src/avx_analysis_code_ablations/opt10_abl_tile_8x256.cpp:35:     const size_t width  = subapertures.front().data.width;
	.loc 1 35 53 discriminator 1 view .LVU12
	vmovdqu	xmm0, XMMWORD PTR [rbx]	# MEM <vector(2) long unsigned int> [(long unsigned int *)_346], MEM <vector(2) long unsigned int> [(long unsigned int *)_346]
.LVL2:
.LBB2150:
.LBB2141:
.LBB2139:
.LBB2137:
.LBB2133:
.LBB2132:
# /usr/include/c++/16/bits/stl_vector.h:106: 	: _M_start(), _M_finish(), _M_end_of_storage()
	.loc 2 106 29 view .LVU13
	mov	QWORD PTR 32[rdi], 0	# MEM[(struct _Vector_impl_data *)output_206(D) + 16B]._M_end_of_storage,
# /usr/include/c++/16/bits/stl_vector.h:106: 	: _M_start(), _M_finish(), _M_end_of_storage()
	.loc 2 106 4 view .LVU14
	vmovdqu	XMMWORD PTR 16[rdi], xmm1	# MEM <vector(2) long unsigned int> [(unsigned char * *)output_206(D) + 16B], tmp825
	vmovq	rax, xmm0	# _336, MEM <vector(2) long unsigned int> [(long unsigned int *)_346]
	vpextrq	rcx, xmm0, 1	# _700, MEM <vector(2) long unsigned int> [(long unsigned int *)_346]
	vmovq	QWORD PTR 160[rsp], xmm0	# %sfp, _336
.LVL3:
	.loc 2 106 4 view .LVU15
.LBE2132:
.LBE2133:
.LBE2137:
.LBE2139:
.LBE2141:
.LBE2150:
	.loc 1 36 5 is_stmt 1 view .LVU16
.LBB2151:
.LBI2151:
	.loc 2 1334 7 view .LVU17
	.loc 2 1336 2 discriminator 2 view .LVU18
.LBB2152:
.LBI2152:
	.loc 2 988 7 view .LVU19
.LBB2153:
.LBI2153:
	.loc 3 1058 7 view .LVU20
	.loc 3 1058 7 is_stmt 0 view .LVU21
.LBE2153:
.LBE2152:
.LBE2151:
	.loc 1 37 5 is_stmt 1 view .LVU22
	.loc 1 38 5 view .LVU23
	.loc 1 40 5 view .LVU24
.LBB2154:
.LBI2126:
	.file 4 "include/utils.hpp"
	.loc 4 11 8 view .LVU25
.LBB2142:
.LBI2127:
	.loc 2 551 7 view .LVU26
.LBB2140:
.LBI2128:
	.loc 2 321 7 view .LVU27
.LBB2138:
.LBI2129:
	.loc 2 143 2 view .LVU28
.LBB2134:
.LBI2134:
	.file 5 "/usr/include/c++/16/bits/allocator.h"
	.loc 5 168 7 view .LVU29
.LBB2135:
.LBI2135:
	.file 6 "/usr/include/c++/16/bits/new_allocator.h"
	.loc 6 88 7 view .LVU30
	.loc 6 88 7 is_stmt 0 view .LVU31
.LBE2135:
.LBE2134:
.LBB2136:
.LBI2130:
	.loc 2 105 2 is_stmt 1 view .LVU32
	.loc 2 105 2 is_stmt 0 view .LVU33
.LBE2136:
.LBE2138:
.LBE2140:
.LBE2142:
.LBE2154:
	.loc 1 41 5 is_stmt 1 view .LVU34
	.loc 1 42 5 view .LVU35
# src/avx_analysis_code_ablations/opt10_abl_tile_8x256.cpp:43:     output.data.assign(width * height * 3, 0);
	.loc 1 43 30 is_stmt 0 view .LVU36
	mov	rdx, rax	# _4, _336
	mov	QWORD PTR 256[rsp], rcx	# %sfp, _700
	imul	rdx, rcx	# _4, _700
# src/avx_analysis_code_ablations/opt10_abl_tile_8x256.cpp:41:     output.width = width;
	.loc 1 41 18 view .LVU37
	vmovdqu	XMMWORD PTR [rdi], xmm0	# MEM <vector(2) long unsigned int> [(long unsigned int *)output_206(D)], MEM <vector(2) long unsigned int> [(long unsigned int *)_346]
	.loc 1 43 5 is_stmt 1 view .LVU38
# src/avx_analysis_code_ablations/opt10_abl_tile_8x256.cpp:43:     output.data.assign(width * height * 3, 0);
	.loc 1 43 30 is_stmt 0 view .LVU39
	mov	QWORD PTR 72[rsp], rdx	# %sfp, _4
.LVL4:
.LBB2155:
.LBI2155:
	.loc 2 865 7 is_stmt 1 view .LVU40
.LBB2156:
.LBI2156:
	.file 7 "/usr/include/c++/16/bits/vector.tcc"
	.loc 7 274 5 view .LVU41
.LBB2157:
.LBB2158:
# /usr/include/c++/16/bits/vector.tcc:278:       if (__n > capacity())
	.loc 7 278 7 is_stmt 0 discriminator 1 view .LVU42
	test	rdx, rdx	# _4
	jne	.L2	#,
.LVL5:
	.loc 7 278 7 discriminator 1 view .LVU43
.LBE2158:
.LBE2157:
.LBE2156:
.LBE2155:
	.loc 1 46 5 is_stmt 1 view .LVU44
.LBB2218:
.LBI2218:
	.loc 2 551 7 view .LVU45
.LBB2219:
.LBI2219:
	.loc 2 321 7 view .LVU46
.LBB2220:
.LBI2220:
	.loc 2 143 2 view .LVU47
.LBB2221:
.LBI2221:
	.loc 5 168 7 view .LVU48
.LBB2222:
.LBI2222:
	.loc 6 88 7 view .LVU49
	.loc 6 88 7 is_stmt 0 view .LVU50
.LBE2222:
.LBE2221:
.LBB2224:
.LBI2224:
	.loc 2 105 2 is_stmt 1 view .LVU51
	.loc 2 105 2 is_stmt 0 view .LVU52
.LBE2224:
.LBE2220:
.LBE2219:
.LBE2218:
	.loc 1 47 5 is_stmt 1 view .LVU53
.LBB2249:
.LBI2249:
	.loc 2 1107 7 view .LVU54
.LBB2250:
# /usr/include/c++/16/bits/stl_vector.h:1109: 	ptrdiff_t __dif = this->_M_impl._M_finish - this->_M_impl._M_start;
	.loc 2 1109 34 is_stmt 0 view .LVU55
	mov	rdx, QWORD PTR 8[rsi]	# _347, MEM[(const struct vector *)subapertures_201(D)].D.139286._M_impl.D.138633._M_finish
.LVL6:
	.loc 2 1109 34 view .LVU56
.LBE2250:
.LBE2249:
.LBB2254:
.LBI2254:
	.loc 7 70 5 is_stmt 1 view .LVU57
.LBB2255:
# /usr/include/c++/16/bits/vector.tcc:75:       if (this->capacity() < __n)
	.loc 7 75 7 is_stmt 0 discriminator 1 view .LVU58
	mov	rdi, rdx	# _349, _347
.LVL7:
	.loc 7 75 7 discriminator 1 view .LVU59
.LBE2255:
.LBE2254:
.LBB2264:
.LBB2251:
# /usr/include/c++/16/bits/stl_vector.h:1109: 	ptrdiff_t __dif = this->_M_impl._M_finish - this->_M_impl._M_start;
	.loc 2 1109 34 view .LVU60
	mov	QWORD PTR 272[rsp], rdx	# %sfp, _347
.LBE2251:
.LBE2264:
.LBB2265:
.LBB2262:
# /usr/include/c++/16/bits/vector.tcc:75:       if (this->capacity() < __n)
	.loc 7 75 7 discriminator 1 view .LVU61
	sub	rdi, rbx	# _349, SR.299
.LVL8:
	.loc 7 75 7 discriminator 1 view .LVU62
	mov	QWORD PTR 64[rsp], rdi	# %sfp, _349
	je	.L139	#,
.LVL9:
.L4:
.LBB2256:
.LBB2257:
.LBI2257:
	.loc 2 386 7 is_stmt 1 view .LVU63
.LBB2258:
.LBB2259:
.LBI2259:
	.file 8 "/usr/include/c++/16/bits/alloc_traits.h"
	.loc 8 637 7 view .LVU64
.LBB2260:
.LBI2260:
	.loc 6 129 7 view .LVU65
.LBB2261:
# /usr/include/c++/16/bits/new_allocator.h:162: 	  return static_cast<_Tp*>(_GLIBCXX_OPERATOR_NEW(__n * sizeof(_Tp)));
	.loc 6 162 68 is_stmt 0 view .LVU66
	mov	r15, QWORD PTR 64[rsp]	# _349, %sfp
	mov	rdi, r15	#, _349
.LEHB0:
	call	"_Znwm"@PLT	#
.LVL10:
.LEHE0:
	mov	QWORD PTR 88[rsp], rax	# %sfp, __new_finish
.LVL11:
	.loc 6 162 68 view .LVU67
.LBE2261:
.LBE2260:
.LBE2259:
.LBE2258:
.LBE2257:
# /usr/include/c++/16/bits/vector.tcc:101: 	  this->_M_impl._M_end_of_storage = this->_M_impl._M_start + __n;
	.loc 7 101 61 view .LVU68
	lea	r13, [rax+r15]	# params$_M_end_of_storage,
.LVL12:
.L8:
	.loc 7 101 61 view .LVU69
.LBE2256:
.LBE2262:
.LBE2265:
# src/avx_analysis_code_ablations/opt10_abl_tile_8x256.cpp:37:     const int w = static_cast<int>(width);
	.loc 1 37 15 view .LVU70
	mov	eax, DWORD PTR 160[rsp]	# tmp1753, %sfp
# src/avx_analysis_code_ablations/opt10_abl_tile_8x256.cpp:38:     const int h = static_cast<int>(height);
	.loc 1 38 15 view .LVU71
	mov	r14d, DWORD PTR 256[rsp]	# _2, %sfp
.LVL13:
	.loc 1 48 5 is_stmt 1 view .LVU72
.LBB2266:
.LBB2267:
.LBI2267:
	.loc 2 988 7 view .LVU73
.LBB2268:
.LBI2268:
	.loc 3 1058 7 view .LVU74
	.loc 3 1058 7 is_stmt 0 view .LVU75
.LBE2268:
.LBE2267:
.LBB2270:
.LBI2270:
	.loc 2 1008 7 is_stmt 1 view .LVU76
.LBB2271:
.LBI2271:
	.loc 3 1058 7 view .LVU77
	.loc 3 1058 7 is_stmt 0 view .LVU78
.LBE2271:
.LBE2270:
	.loc 1 48 22 is_stmt 1 discriminator 5 view .LVU79
.LBE2266:
# src/avx_analysis_code_ablations/opt10_abl_tile_8x256.cpp:37:     const int w = static_cast<int>(width);
	.loc 1 37 15 is_stmt 0 view .LVU80
	mov	DWORD PTR 104[rsp], eax	# %sfp, tmp1753
.LBB2381:
# src/avx_analysis_code_ablations/opt10_abl_tile_8x256.cpp:48:     for (auto& sub : subapertures) {
	.loc 1 48 22 discriminator 6 view .LVU81
	cmp	rbx, QWORD PTR 272[rsp]	# SR.299, %sfp
	je	.L64	#,
.LVL14:
.L5:
	.loc 1 48 22 discriminator 6 view .LVU82
.LBE2381:
.LBB2382:
.LBB2243:
.LBB2237:
.LBB2230:
.LBB2225:
# /usr/include/c++/16/bits/stl_vector.h:106: 	: _M_start(), _M_finish(), _M_end_of_storage()
	.loc 2 106 4 view .LVU83
	mov	r15, QWORD PTR 88[rsp]	# params$_M_start, %sfp
.L17:
.LVL15:
	.loc 2 106 4 view .LVU84
.LBE2225:
.LBE2230:
.LBE2237:
.LBE2243:
.LBE2382:
.LBB2383:
.LBB2273:
	.loc 1 49 9 is_stmt 1 view .LVU85
	.loc 1 50 9 view .LVU86
# src/avx_analysis_code_ablations/opt10_abl_tile_8x256.cpp:50:         float shift_x = focus * sub.u;
	.loc 1 50 15 is_stmt 0 view .LVU87
	vmovss	xmm5, DWORD PTR 232[rsp]	# focus, %sfp
# src/avx_analysis_code_ablations/opt10_abl_tile_8x256.cpp:60:         p.x_begin = std::max(0, -p.sx);
	.loc 1 60 33 view .LVU88
	xor	r8d, r8d	# _16
# src/avx_analysis_code_ablations/opt10_abl_tile_8x256.cpp:50:         float shift_x = focus * sub.u;
	.loc 1 50 15 view .LVU89
	vmulss	xmm4, xmm5, DWORD PTR 40[rbx]	# shift_x, focus, MEM[(float *)SR.299_495 + 40B]
.LVL16:
	.loc 1 51 9 is_stmt 1 view .LVU90
# src/avx_analysis_code_ablations/opt10_abl_tile_8x256.cpp:51:         float shift_y = focus * sub.v;
	.loc 1 51 15 is_stmt 0 view .LVU91
	vmulss	xmm2, xmm5, DWORD PTR 44[rbx]	# shift_y, focus, MEM[(float *)SR.299_495 + 44B]
.LVL17:
	.loc 1 52 9 is_stmt 1 view .LVU92
.LBB2274:
.LBI2274:
	.file 9 "/usr/include/c++/16/cmath"
	.loc 9 264 3 view .LVU93
.LBB2275:
	.loc 9 265 5 view .LVU94
# /usr/include/c++/16/cmath:265:   { return __builtin_floorf(__x); }
	.loc 9 265 28 is_stmt 0 view .LVU95
	vrndscaless	xmm0, xmm4, xmm4, 9	# _356, shift_x,
.LVL18:
	.loc 9 265 28 view .LVU96
.LBE2275:
.LBE2274:
# src/avx_analysis_code_ablations/opt10_abl_tile_8x256.cpp:52:         p.sx = static_cast<int>(std::floor(shift_x));
	.loc 1 52 16 discriminator 1 view .LVU97
	vcvttss2si	r10d, xmm0	# _8, _356
.LVL19:
	.loc 1 53 9 is_stmt 1 view .LVU98
.LBB2276:
.LBI2276:
	.loc 9 264 3 view .LVU99
.LBB2277:
	.loc 9 265 5 view .LVU100
# /usr/include/c++/16/cmath:265:   { return __builtin_floorf(__x); }
	.loc 9 265 28 is_stmt 0 view .LVU101
	vrndscaless	xmm1, xmm2, xmm2, 9	# _355, shift_y,
.LVL20:
	.loc 9 265 28 view .LVU102
.LBE2277:
.LBE2276:
# src/avx_analysis_code_ablations/opt10_abl_tile_8x256.cpp:53:         p.sy = static_cast<int>(std::floor(shift_y));
	.loc 1 53 16 discriminator 1 view .LVU103
	vcvttss2si	esi, xmm1	# _9, _355
.LVL21:
	.loc 1 54 9 is_stmt 1 view .LVU104
	.loc 1 55 9 view .LVU105
	.loc 1 56 9 view .LVU106
	.loc 1 57 9 view .LVU107
	.loc 1 58 9 view .LVU108
	.loc 1 59 9 view .LVU109
	.loc 1 60 9 view .LVU110
.LBB2278:
.LBI2278:
	.file 10 "/usr/include/c++/16/bits/stl_algobase.h"
	.loc 10 256 5 view .LVU111
.LBE2278:
# src/avx_analysis_code_ablations/opt10_abl_tile_8x256.cpp:60:         p.x_begin = std::max(0, -p.sx);
	.loc 1 60 33 is_stmt 0 view .LVU112
	mov	eax, r10d	# tmp1543, _8
	neg	eax	# tmp1543
	test	r10d, r10d	# _8
	cmovs	r8d, eax	# tmp1543,, _16
.LVL22:
	.loc 1 61 9 is_stmt 1 view .LVU113
.LBB2279:
.LBI2279:
	.loc 10 232 5 view .LVU114
.LBE2279:
# src/avx_analysis_code_ablations/opt10_abl_tile_8x256.cpp:61:         p.x_end   = std::min(w, w - p.sx - 1);
	.loc 1 61 35 is_stmt 0 view .LVU115
	mov	eax, DWORD PTR 104[rsp]	# _1, %sfp
	mov	ecx, eax	# _18, _1
	sub	ecx, r10d	# _18, _8
# src/avx_analysis_code_ablations/opt10_abl_tile_8x256.cpp:61:         p.x_end   = std::min(w, w - p.sx - 1);
	.loc 1 61 42 view .LVU116
	dec	ecx	# _19
.LBB2281:
.LBB2280:
# /usr/include/c++/16/bits/stl_algobase.h:237:       if (__b < __a)
	.loc 10 237 7 view .LVU117
	cmp	ecx, eax	# _19, _1
	cmovg	ecx, eax	# _19,, _344, _1
.LVL23:
	.loc 10 237 7 view .LVU118
.LBE2280:
.LBE2281:
	.loc 1 62 9 is_stmt 1 view .LVU119
.LBB2282:
.LBI2282:
	.loc 10 256 5 view .LVU120
.LBE2282:
# src/avx_analysis_code_ablations/opt10_abl_tile_8x256.cpp:62:         p.y_begin = std::max(0, -p.sy);
	.loc 1 62 33 is_stmt 0 view .LVU121
	mov	eax, esi	# tmp1545, _9
	xor	r9d, r9d	# _20
	neg	eax	# tmp1545
	test	esi, esi	# _9
	cmovs	r9d, eax	# tmp1545,, _20
	.loc 1 63 9 is_stmt 1 view .LVU122
.LVL24:
.LBB2283:
.LBI2283:
	.loc 10 232 5 view .LVU123
.LBE2283:
# src/avx_analysis_code_ablations/opt10_abl_tile_8x256.cpp:63:         p.y_end   = std::min(h, h - p.sy - 1);
	.loc 1 63 35 is_stmt 0 view .LVU124
	mov	eax, r14d	# _22, _2
	sub	eax, esi	# _22, _9
# src/avx_analysis_code_ablations/opt10_abl_tile_8x256.cpp:63:         p.y_end   = std::min(h, h - p.sy - 1);
	.loc 1 63 42 view .LVU125
	dec	eax	# _23
.LBB2285:
.LBB2284:
# /usr/include/c++/16/bits/stl_algobase.h:237:       if (__b < __a)
	.loc 10 237 7 view .LVU126
	cmp	eax, r14d	# _23, _2
	cmovg	eax, r14d	# _23,, _23, _2
	mov	r11d, eax	# _466, _23
.LVL25:
	.loc 10 237 7 view .LVU127
.LBE2284:
.LBE2285:
	.loc 1 64 9 is_stmt 1 view .LVU128
.LBB2286:
.LBI2286:
	.loc 2 1385 7 view .LVU129
	.loc 2 1385 7 is_stmt 0 view .LVU130
.LBE2286:
	.loc 1 65 9 is_stmt 1 view .LVU131
# src/avx_analysis_code_ablations/opt10_abl_tile_8x256.cpp:65:         if (p.x_begin >= p.x_end || p.y_begin >= p.y_end) continue;  // skip degenerate
	.loc 1 65 34 is_stmt 0 discriminator 1 view .LVU132
	cmp	r8d, ecx	# _16, _344
	jge	.L12	#,
	.loc 1 65 34 discriminator 1 view .LVU133
	cmp	r9d, eax	# _20, _466
	jge	.L12	#,
# src/avx_analysis_code_ablations/opt10_abl_tile_8x256.cpp:55:         float dy = shift_y - p.sy;
	.loc 1 55 15 view .LVU134
	vsubss	xmm5, xmm2, xmm1	# dy, shift_y, _355
.LVL26:
# src/avx_analysis_code_ablations/opt10_abl_tile_8x256.cpp:54:         float dx = shift_x - p.sx;
	.loc 1 54 15 view .LVU135
	vsubss	xmm3, xmm4, xmm0	# dx, shift_x, _356
.LVL27:
.LBB2288:
.LBB2289:
# /usr/include/c++/16/bits/stl_vector.h:1408: 	if (this->_M_impl._M_finish != this->_M_impl._M_end_of_storage)
	.loc 2 1408 2 view .LVU136
	mov	rax, QWORD PTR 88[rsp]	# __new_finish, %sfp
.LBE2289:
.LBE2288:
.LBB2371:
.LBB2287:
# /usr/include/c++/16/bits/stl_vector.h:1386:       { return _M_data_ptr(this->_M_impl._M_start); }
	.loc 2 1386 42 view .LVU137
	mov	r12, QWORD PTR 16[rbx]	# _354, MEM[(unsigned char * *)SR.299_495 + 16B]
.LBE2287:
.LBE2371:
# src/avx_analysis_code_ablations/opt10_abl_tile_8x256.cpp:56:         p.A = (1 - dx) * (1 - dy);
	.loc 1 56 18 view .LVU138
	vaddss	xmm0, xmm0, DWORD PTR .LC1[rip]	# _683, _356,
.LVL28:
# src/avx_analysis_code_ablations/opt10_abl_tile_8x256.cpp:56:         p.A = (1 - dx) * (1 - dy);
	.loc 1 56 29 view .LVU139
	vaddss	xmm1, xmm1, DWORD PTR .LC1[rip]	# _684, _355,
.LVL29:
# src/avx_analysis_code_ablations/opt10_abl_tile_8x256.cpp:56:         p.A = (1 - dx) * (1 - dy);
	.loc 1 56 18 view .LVU140
	vsubss	xmm0, xmm0, xmm4	# _10, _683, shift_x
.LVL30:
# src/avx_analysis_code_ablations/opt10_abl_tile_8x256.cpp:56:         p.A = (1 - dx) * (1 - dy);
	.loc 1 56 29 view .LVU141
	vsubss	xmm1, xmm1, xmm2	# _11, _684, shift_y
.LVL31:
# src/avx_analysis_code_ablations/opt10_abl_tile_8x256.cpp:56:         p.A = (1 - dx) * (1 - dy);
	.loc 1 56 24 view .LVU142
	vmulss	xmm2, xmm0, xmm1	# _12, _10, _11
.LVL32:
# src/avx_analysis_code_ablations/opt10_abl_tile_8x256.cpp:57:         p.B = dx       * (1 - dy);
	.loc 1 57 24 view .LVU143
	vmulss	xmm1, xmm1, xmm3	# _13, _11, dx
# src/avx_analysis_code_ablations/opt10_abl_tile_8x256.cpp:58:         p.C = (1 - dx) * dy;
	.loc 1 58 24 view .LVU144
	vmulss	xmm0, xmm0, xmm5	# _14, _10, dy
# src/avx_analysis_code_ablations/opt10_abl_tile_8x256.cpp:59:         p.D = dx       * dy;
	.loc 1 59 24 view .LVU145
	vmulss	xmm3, xmm3, xmm5	# _15, dx, dy
.LVL33:
	.loc 1 66 9 is_stmt 1 view .LVU146
.LBB2372:
.LBI2288:
	.loc 2 1406 7 view .LVU147
.LBB2368:
# /usr/include/c++/16/bits/stl_vector.h:1408: 	if (this->_M_impl._M_finish != this->_M_impl._M_end_of_storage)
	.loc 2 1408 2 is_stmt 0 view .LVU148
	cmp	rax, r13	# __new_finish, params$_M_end_of_storage
	je	.L13	#,
.LVL34:
.LBB2290:
.LBI2290:
	.loc 8 705 2 is_stmt 1 view .LVU149
.LBB2291:
.LBI2291:
	.loc 6 201 2 view .LVU150
.LBB2292:
# /usr/include/c++/16/bits/new_allocator.h:203: 	{ ::new((void *)__p) _Up(std::forward<_Args>(__args)...); }
	.loc 6 203 4 is_stmt 0 discriminator 1 view .LVU151
	vunpcklps	xmm0, xmm0, xmm3	# tmp849, _14, _15
	vunpcklps	xmm2, xmm2, xmm1	# tmp850, _12, _13
	mov	DWORD PTR [rax], r10d	# params$_M_finish_194->sx, _8
.LBE2292:
.LBE2291:
.LBE2290:
# /usr/include/c++/16/bits/stl_vector.h:1413: 	    ++this->_M_impl._M_finish;
	.loc 2 1413 6 view .LVU152
	add	rax, 48	# __new_finish,
.LBB2295:
.LBB2294:
.LBB2293:
# /usr/include/c++/16/bits/new_allocator.h:203: 	{ ::new((void *)__p) _Up(std::forward<_Args>(__args)...); }
	.loc 6 203 4 discriminator 1 view .LVU153
	vmovlhps	xmm2, xmm2, xmm0	# _1059, tmp850, tmp849
	mov	DWORD PTR -44[rax], esi	# params$_M_finish_194->sy, _9
	vmovups	XMMWORD PTR -40[rax], xmm2	# MEM <vector(4) float> [(float *)params$_M_finish_194 + 8B], _1059
	mov	DWORD PTR -24[rax], r8d	# params$_M_finish_194->x_begin, _16
	mov	DWORD PTR -20[rax], ecx	# params$_M_finish_194->x_end, _344
	mov	DWORD PTR -16[rax], r9d	# params$_M_finish_194->y_begin, _20
	mov	DWORD PTR -12[rax], r11d	# params$_M_finish_194->y_end, _466
	mov	QWORD PTR -8[rax], r12	# MEM <const unsigned char *> [(struct SubParams *)params$_M_finish_194 + 40B], _354
.LVL35:
	.loc 6 203 4 discriminator 1 view .LVU154
.LBE2293:
.LBE2294:
.LBE2295:
# /usr/include/c++/16/bits/stl_vector.h:1413: 	    ++this->_M_impl._M_finish;
	.loc 2 1413 6 view .LVU155
	mov	QWORD PTR 88[rsp], rax	# %sfp, __new_finish
.LVL36:
.L12:
	.loc 2 1413 6 view .LVU156
.LBE2368:
.LBE2372:
.LBE2273:
	.loc 1 48 5 is_stmt 1 discriminator 4 view .LVU157
.LBB2375:
.LBI2375:
	.loc 3 1101 7 view .LVU158
.LBB2376:
# /usr/include/c++/16/bits/stl_iterator.h:1103: 	++_M_current;
	.loc 3 1103 2 is_stmt 0 view .LVU159
	add	rbx, 48	# SR.299,
.LVL37:
	.loc 3 1103 2 view .LVU160
.LBE2376:
.LBE2375:
	.loc 1 48 22 is_stmt 1 discriminator 5 view .LVU161
# src/avx_analysis_code_ablations/opt10_abl_tile_8x256.cpp:48:     for (auto& sub : subapertures) {
	.loc 1 48 22 is_stmt 0 discriminator 6 view .LVU162
	cmp	QWORD PTR 272[rsp], rbx	# %sfp, SR.299
	jne	.L17	#,
	.loc 1 48 22 discriminator 6 view .LVU163
.LBE2383:
.LBB2384:
.LBB2385:
.LBB2386:
# /usr/include/c++/16/bits/stl_vector.h:375: 	ptrdiff_t __n = _M_impl._M_end_of_storage - _M_impl._M_start;
	.loc 2 375 44 view .LVU164
	mov	rax, r13	# _349, params$_M_end_of_storage
	sub	rax, r15	# _349, params$_M_start
	mov	QWORD PTR 64[rsp], rax	# %sfp, _349
	mov	rax, QWORD PTR 88[rsp]	# __new_finish, %sfp
	mov	QWORD PTR 88[rsp], r15	# %sfp, params$_M_start
	mov	QWORD PTR 144[rsp], rax	# %sfp, __new_finish
.LVL38:
.L9:
	.loc 2 375 44 view .LVU165
.LBE2386:
.LBE2385:
.LBE2384:
	.loc 1 70 5 is_stmt 1 view .LVU166
.LBB2401:
.LBI2401:
	.loc 5 168 7 view .LVU167
.LBB2402:
.LBI2402:
	.loc 6 88 7 view .LVU168
	.loc 6 88 7 is_stmt 0 view .LVU169
.LBE2402:
.LBE2401:
.LBB2403:
.LBI2403:
	.loc 2 589 7 is_stmt 1 view .LVU170
.LBB2404:
.LBI2404:
	.loc 2 2203 7 view .LVU171
.LBB2405:
.LBB2406:
.LBI2406:
	.loc 5 172 7 view .LVU172
.LBB2407:
.LBI2407:
	.loc 6 92 7 view .LVU173
	.loc 6 92 7 is_stmt 0 view .LVU174
.LBE2407:
.LBE2406:
.LBB2408:
.LBI2408:
	.loc 5 189 7 is_stmt 1 view .LVU175
.LBB2409:
.LBI2409:
	.loc 6 104 7 view .LVU176
.LBE2409:
.LBE2408:
# /usr/include/c++/16/bits/stl_vector.h:2205: 	if (__n > _S_max_size(_Tp_alloc_type(__a)))
	.loc 2 2205 2 is_stmt 0 discriminator 3 view .LVU177
	mov	rax, QWORD PTR 72[rsp]	# tmp1624, %sfp
	shr	rax, 61	# tmp1624,
	jne	.L134	#,
.LVL39:
	.loc 2 2205 2 discriminator 3 view .LVU178
.LBE2405:
.LBE2404:
.LBB2411:
.LBI2411:
	.loc 2 339 7 is_stmt 1 view .LVU179
.LBB2412:
.LBI2412:
	.loc 2 152 2 view .LVU180
.LBB2413:
.LBI2413:
	.loc 5 172 7 view .LVU181
.LBB2414:
.LBI2414:
	.loc 6 92 7 view .LVU182
	.loc 6 92 7 is_stmt 0 view .LVU183
.LBE2414:
.LBE2413:
.LBB2415:
.LBI2415:
	.loc 2 105 2 is_stmt 1 view .LVU184
	.loc 2 105 2 is_stmt 0 view .LVU185
.LBE2415:
.LBE2412:
.LBB2416:
.LBI2416:
	.loc 2 405 7 is_stmt 1 view .LVU186
.LBB2417:
.LBB2418:
.LBI2418:
	.loc 2 386 7 view .LVU187
.LBB2419:
# /usr/include/c++/16/bits/stl_vector.h:389: 	return __n != 0 ? _Tr::allocate(_M_impl, __n) : pointer();
	.loc 2 389 18 is_stmt 0 view .LVU188
	mov	rbx, QWORD PTR 72[rsp]	# _4, %sfp
	test	rbx, rbx	# _4
	je	.L67	#,
.LVL40:
.LBB2420:
.LBI2420:
	.loc 8 637 7 is_stmt 1 view .LVU189
.LBB2421:
.LBI2421:
	.loc 6 129 7 view .LVU190
.LBB2422:
# /usr/include/c++/16/bits/new_allocator.h:162: 	  return static_cast<_Tp*>(_GLIBCXX_OPERATOR_NEW(__n * sizeof(_Tp)));
	.loc 6 162 68 is_stmt 0 view .LVU191
	sal	rbx, 2	# _4,
	mov	rdi, rbx	#, _4
	mov	QWORD PTR 72[rsp], rbx	# %sfp, _4
.LVL41:
.LEHB1:
	.loc 6 162 68 view .LVU192
	call	"_Znwm"@PLT	#
.LVL42:
.LEHE1:
.LBE2422:
.LBE2421:
.LBE2420:
.LBE2419:
.LBE2418:
.LBE2417:
.LBE2416:
.LBE2411:
.LBB2434:
.LBB2435:
.LBB2436:
.LBB2437:
.LBB2438:
.LBB2439:
.LBB2440:
.LBB2441:
# /usr/include/c++/16/bits/stl_construct.h:133:       ::new(static_cast<void*>(__p)) _Tp(std::forward<_Args>(__args)...);
	.file 11 "/usr/include/c++/16/bits/stl_construct.h"
	.loc 11 133 7 discriminator 1 view .LVU193
	mov	rdx, rbx	#, _4
	xor	esi, esi	#
	mov	rdi, rax	#, _325
.LBE2441:
.LBE2440:
.LBE2439:
.LBE2438:
.LBE2437:
.LBE2436:
.LBE2435:
.LBE2434:
.LBB2451:
.LBB2432:
.LBB2430:
.LBB2428:
.LBB2426:
.LBB2425:
.LBB2424:
.LBB2423:
# /usr/include/c++/16/bits/new_allocator.h:162: 	  return static_cast<_Tp*>(_GLIBCXX_OPERATOR_NEW(__n * sizeof(_Tp)));
	.loc 6 162 68 view .LVU194
	mov	QWORD PTR 80[rsp], rax	# %sfp, _325
.LVL43:
	.loc 6 162 68 view .LVU195
.LBE2423:
.LBE2424:
.LBE2425:
.LBE2426:
.LBE2428:
.LBE2430:
.LBE2432:
.LBE2451:
.LBB2452:
.LBI2434:
	.loc 2 1987 7 is_stmt 1 view .LVU196
.LBB2450:
.LBI2435:
	.file 12 "/usr/include/c++/16/bits/stl_uninitialized.h"
	.loc 12 771 5 view .LVU197
.LBB2449:
.LBI2436:
	.loc 12 550 5 view .LVU198
.LBB2448:
.LBB2447:
.LBI2438:
	.loc 12 477 5 view .LVU199
.LBB2446:
.LBB2443:
.LBI2443:
	.loc 12 113 7 view .LVU200
	.loc 12 113 7 is_stmt 0 view .LVU201
.LBE2443:
	.loc 12 485 2 is_stmt 1 discriminator 2 view .LVU202
	.loc 12 491 7 discriminator 2 view .LVU203
.LBB2444:
.LBB2442:
# /usr/include/c++/16/bits/stl_construct.h:133:       ::new(static_cast<void*>(__p)) _Tp(std::forward<_Args>(__args)...);
	.loc 11 133 7 is_stmt 0 discriminator 1 view .LVU204
	call	"memset"@PLT	#
.LVL44:
.L18:
	.loc 11 133 7 discriminator 1 view .LVU205
.LBE2442:
.LBE2444:
.LBB2445:
.LBI2445:
	.loc 12 118 7 is_stmt 1 view .LVU206
	.loc 12 118 7 is_stmt 0 view .LVU207
.LBE2445:
.LBE2446:
.LBE2447:
.LBE2448:
.LBE2449:
.LBE2450:
.LBE2452:
.LBE2403:
.LBB2455:
.LBI2455:
	.loc 5 189 7 is_stmt 1 view .LVU208
.LBB2456:
.LBI2456:
	.loc 6 104 7 view .LVU209
	.loc 6 104 7 is_stmt 0 view .LVU210
.LBE2456:
.LBE2455:
	.loc 1 71 5 is_stmt 1 view .LVU211
.LBB2457:
.LBI2457:
	.loc 5 168 7 view .LVU212
.LBB2458:
.LBI2458:
	.loc 6 88 7 view .LVU213
	.loc 6 88 7 is_stmt 0 view .LVU214
.LBE2458:
.LBE2457:
# src/avx_analysis_code_ablations/opt10_abl_tile_8x256.cpp:71:     std::vector<int> diff((width + 1) * (height + 1), 0);
	.loc 1 71 34 discriminator 1 view .LVU215
	mov	rax, QWORD PTR 160[rsp]	# _336, %sfp
	lea	r11, 1[rax]	# _24,
# src/avx_analysis_code_ablations/opt10_abl_tile_8x256.cpp:71:     std::vector<int> diff((width + 1) * (height + 1), 0);
	.loc 1 71 49 discriminator 1 view .LVU216
	mov	rax, QWORD PTR 256[rsp]	# _700, %sfp
	inc	rax	# _700
# src/avx_analysis_code_ablations/opt10_abl_tile_8x256.cpp:71:     std::vector<int> diff((width + 1) * (height + 1), 0);
	.loc 1 71 56 discriminator 1 view .LVU217
	imul	rax, r11	# _25, _24
	mov	r15, rax	# _26, _25
.LVL45:
.LBB2459:
.LBI2459:
	.loc 2 589 7 is_stmt 1 view .LVU218
.LBB2460:
.LBI2460:
	.loc 2 2203 7 view .LVU219
.LBB2461:
.LBB2462:
.LBI2462:
	.loc 5 172 7 view .LVU220
.LBB2463:
.LBI2463:
	.loc 6 92 7 view .LVU221
	.loc 6 92 7 is_stmt 0 view .LVU222
.LBE2463:
.LBE2462:
.LBB2464:
.LBI2464:
	.loc 5 189 7 is_stmt 1 view .LVU223
.LBB2465:
.LBI2465:
	.loc 6 104 7 view .LVU224
.LBE2465:
.LBE2464:
# /usr/include/c++/16/bits/stl_vector.h:2205: 	if (__n > _S_max_size(_Tp_alloc_type(__a)))
	.loc 2 2205 2 is_stmt 0 discriminator 3 view .LVU225
	shr	rax, 61	# tmp1625,
.LVL46:
	.loc 2 2205 2 discriminator 3 view .LVU226
	jne	.L135	#,
.LVL47:
	.loc 2 2205 2 discriminator 3 view .LVU227
.LBE2461:
.LBE2460:
.LBB2467:
.LBI2467:
	.loc 2 339 7 is_stmt 1 view .LVU228
.LBB2468:
.LBI2468:
	.loc 2 152 2 view .LVU229
.LBB2469:
.LBI2469:
	.loc 5 172 7 view .LVU230
.LBB2470:
.LBI2470:
	.loc 6 92 7 view .LVU231
	.loc 6 92 7 is_stmt 0 view .LVU232
.LBE2470:
.LBE2469:
.LBB2471:
.LBI2471:
	.loc 2 105 2 is_stmt 1 view .LVU233
	.loc 2 105 2 is_stmt 0 view .LVU234
.LBE2471:
.LBE2468:
.LBB2472:
.LBI2472:
	.loc 2 405 7 is_stmt 1 view .LVU235
.LBB2473:
.LBB2474:
.LBI2474:
	.loc 2 386 7 view .LVU236
.LBB2475:
# /usr/include/c++/16/bits/stl_vector.h:389: 	return __n != 0 ? _Tr::allocate(_M_impl, __n) : pointer();
	.loc 2 389 18 is_stmt 0 view .LVU237
	test	r15, r15	# _26
	je	.L68	#,
.LBB2476:
.LBB2477:
.LBB2478:
# /usr/include/c++/16/bits/new_allocator.h:162: 	  return static_cast<_Tp*>(_GLIBCXX_OPERATOR_NEW(__n * sizeof(_Tp)));
	.loc 6 162 68 view .LVU238
	sal	r15, 2	# _26,
.LVL48:
	.loc 6 162 68 view .LVU239
	mov	QWORD PTR 272[rsp], r11	# %sfp, _24
.LBE2478:
.LBE2477:
.LBI2476:
	.loc 8 637 7 is_stmt 1 view .LVU240
.LBB2481:
.LBI2477:
	.loc 6 129 7 view .LVU241
.LVL49:
.LBB2479:
# /usr/include/c++/16/bits/new_allocator.h:162: 	  return static_cast<_Tp*>(_GLIBCXX_OPERATOR_NEW(__n * sizeof(_Tp)));
	.loc 6 162 68 is_stmt 0 view .LVU242
	mov	rdi, r15	#, _26
.LEHB2:
	call	"_Znwm"@PLT	#
.LVL50:
.LEHE2:
	.loc 6 162 68 view .LVU243
.LBE2479:
.LBE2481:
.LBE2476:
.LBE2475:
.LBE2474:
.LBE2473:
.LBE2472:
.LBE2467:
.LBB2492:
.LBB2493:
.LBB2494:
.LBB2495:
.LBB2496:
.LBB2497:
.LBB2498:
.LBB2499:
# /usr/include/c++/16/bits/stl_construct.h:133:       ::new(static_cast<void*>(__p)) _Tp(std::forward<_Args>(__args)...);
	.loc 11 133 7 discriminator 1 view .LVU244
	mov	rdx, r15	#, _26
	xor	esi, esi	#
	mov	rdi, rax	#, _433
.LBE2499:
.LBE2498:
.LBE2497:
.LBE2496:
.LBE2495:
.LBE2494:
.LBE2493:
.LBE2492:
.LBB2509:
.LBB2490:
.LBB2488:
.LBB2486:
.LBB2484:
.LBB2483:
.LBB2482:
.LBB2480:
# /usr/include/c++/16/bits/new_allocator.h:162: 	  return static_cast<_Tp*>(_GLIBCXX_OPERATOR_NEW(__n * sizeof(_Tp)));
	.loc 6 162 68 view .LVU245
	mov	rbx, rax	# _433, _433
.LVL51:
	.loc 6 162 68 view .LVU246
.LBE2480:
.LBE2482:
.LBE2483:
.LBE2484:
.LBE2486:
.LBE2488:
.LBE2490:
.LBE2509:
.LBB2510:
.LBI2492:
	.loc 2 1987 7 is_stmt 1 view .LVU247
.LBB2508:
.LBI2493:
	.loc 12 771 5 view .LVU248
.LBB2507:
.LBI2494:
	.loc 12 550 5 view .LVU249
.LBB2506:
.LBB2505:
.LBI2496:
	.loc 12 477 5 view .LVU250
.LBB2504:
.LBB2501:
.LBI2501:
	.loc 12 113 7 view .LVU251
	.loc 12 113 7 is_stmt 0 view .LVU252
.LBE2501:
	.loc 12 485 2 is_stmt 1 discriminator 2 view .LVU253
	.loc 12 491 7 discriminator 2 view .LVU254
.LBB2502:
.LBB2500:
# /usr/include/c++/16/bits/stl_construct.h:133:       ::new(static_cast<void*>(__p)) _Tp(std::forward<_Args>(__args)...);
	.loc 11 133 7 is_stmt 0 discriminator 1 view .LVU255
	call	"memset"@PLT	#
.LVL52:
	.loc 11 133 7 discriminator 1 view .LVU256
	mov	r11, QWORD PTR 272[rsp]	# _24, %sfp
.LVL53:
.L23:
	.loc 11 133 7 discriminator 1 view .LVU257
.LBE2500:
.LBE2502:
.LBB2503:
.LBI2503:
	.loc 12 118 7 is_stmt 1 view .LVU258
	.loc 12 118 7 is_stmt 0 view .LVU259
.LBE2503:
.LBE2504:
.LBE2505:
.LBE2506:
.LBE2507:
.LBE2508:
.LBE2510:
.LBE2459:
.LBB2513:
.LBI2513:
	.loc 5 189 7 is_stmt 1 view .LVU260
.LBB2514:
.LBI2514:
	.loc 6 104 7 view .LVU261
	.loc 6 104 7 is_stmt 0 view .LVU262
.LBE2514:
.LBE2513:
	.loc 1 73 5 is_stmt 1 view .LVU263
.LBB2515:
.LBB2516:
.LBI2516:
	.loc 2 988 7 view .LVU264
.LBB2517:
.LBI2517:
	.loc 3 1058 7 view .LVU265
	.loc 3 1058 7 is_stmt 0 view .LVU266
.LBE2517:
.LBE2516:
.LBB2518:
.LBI2518:
	.loc 2 1008 7 is_stmt 1 view .LVU267
.LBB2519:
.LBI2519:
	.loc 3 1058 7 view .LVU268
	.loc 3 1058 7 is_stmt 0 view .LVU269
.LBE2519:
.LBE2518:
	.loc 1 73 26 is_stmt 1 discriminator 5 view .LVU270
# src/avx_analysis_code_ablations/opt10_abl_tile_8x256.cpp:73:     for (const auto& p : params) {
	.loc 1 73 26 is_stmt 0 discriminator 6 view .LVU271
	mov	rax, QWORD PTR 88[rsp]	# __new_finish, %sfp
	cmp	QWORD PTR 144[rsp], rax	# %sfp, __new_finish
	je	.L24	#,
.LVL54:
.L25:
	.loc 1 74 9 is_stmt 1 view .LVU272
# src/avx_analysis_code_ablations/opt10_abl_tile_8x256.cpp:74:         diff[p.y_begin * (width + 1) + p.x_begin] += 1;
	.loc 1 74 16 is_stmt 0 view .LVU273
	movsxd	rdx, DWORD PTR 32[rax]	# _28, MEM[(int *)SR.301_467 + 32B]
# src/avx_analysis_code_ablations/opt10_abl_tile_8x256.cpp:74:         diff[p.y_begin * (width + 1) + p.x_begin] += 1;
	.loc 1 74 42 view .LVU274
	movsxd	rsi, DWORD PTR 24[rax]	# _31, MEM[(int *)SR.301_467 + 24B]
.LBB2520:
.LBB2521:
# /usr/include/c++/16/bits/stl_iterator.h:1103: 	++_M_current;
	.loc 3 1103 2 view .LVU275
	add	rax, 48	# SR.301,
.LVL55:
	.loc 3 1103 2 view .LVU276
.LBE2521:
.LBE2520:
# src/avx_analysis_code_ablations/opt10_abl_tile_8x256.cpp:76:         diff[p.y_end   * (width + 1) + p.x_begin] -= 1;
	.loc 1 76 16 view .LVU277
	movsxd	rdi, DWORD PTR -12[rax]	# _44, MEM[(int *)SR.301_467 + 36B]
# src/avx_analysis_code_ablations/opt10_abl_tile_8x256.cpp:74:         diff[p.y_begin * (width + 1) + p.x_begin] += 1;
	.loc 1 74 24 view .LVU278
	imul	rdx, r11	# _29, _24
.LVL56:
.LBB2522:
.LBI2522:
	.loc 2 1251 7 is_stmt 1 view .LVU279
.LBB2523:
	.loc 2 1253 2 discriminator 2 view .LVU280
	.loc 2 1253 2 is_stmt 0 discriminator 2 view .LVU281
.LBE2523:
.LBE2522:
# src/avx_analysis_code_ablations/opt10_abl_tile_8x256.cpp:76:         diff[p.y_end   * (width + 1) + p.x_begin] -= 1;
	.loc 1 76 24 view .LVU282
	imul	rdi, r11	# _45, _24
# src/avx_analysis_code_ablations/opt10_abl_tile_8x256.cpp:74:         diff[p.y_begin * (width + 1) + p.x_begin] += 1;
	.loc 1 74 49 view .LVU283
	lea	rcx, [rdx+rsi]	# _32,
# src/avx_analysis_code_ablations/opt10_abl_tile_8x256.cpp:74:         diff[p.y_begin * (width + 1) + p.x_begin] += 1;
	.loc 1 74 51 discriminator 1 view .LVU284
	inc	DWORD PTR [rbx+rcx*4]	# *_367
	.loc 1 75 9 is_stmt 1 view .LVU285
# src/avx_analysis_code_ablations/opt10_abl_tile_8x256.cpp:75:         diff[p.y_begin * (width + 1) + p.x_end  ] -= 1;
	.loc 1 75 42 is_stmt 0 view .LVU286
	movsxd	rcx, DWORD PTR -20[rax]	# _39, MEM[(int *)SR.301_467 + 28B]
.LVL57:
.LBB2524:
.LBI2524:
	.loc 2 1251 7 is_stmt 1 view .LVU287
.LBB2525:
	.loc 2 1253 2 discriminator 2 view .LVU288
	.loc 2 1253 2 is_stmt 0 discriminator 2 view .LVU289
.LBE2525:
.LBE2524:
# src/avx_analysis_code_ablations/opt10_abl_tile_8x256.cpp:75:         diff[p.y_begin * (width + 1) + p.x_end  ] -= 1;
	.loc 1 75 49 view .LVU290
	add	rdx, rcx	# _40, _39
# src/avx_analysis_code_ablations/opt10_abl_tile_8x256.cpp:75:         diff[p.y_begin * (width + 1) + p.x_end  ] -= 1;
	.loc 1 75 51 discriminator 1 view .LVU291
	dec	DWORD PTR [rbx+rdx*4]	# *_364
	.loc 1 76 9 is_stmt 1 view .LVU292
.LVL58:
.LBB2526:
.LBI2526:
	.loc 2 1251 7 view .LVU293
.LBB2527:
	.loc 2 1253 2 discriminator 2 view .LVU294
	.loc 2 1253 2 is_stmt 0 discriminator 2 view .LVU295
.LBE2527:
.LBE2526:
# src/avx_analysis_code_ablations/opt10_abl_tile_8x256.cpp:76:         diff[p.y_end   * (width + 1) + p.x_begin] -= 1;
	.loc 1 76 49 view .LVU296
	lea	rdx, [rsi+rdi]	# _48,
# src/avx_analysis_code_ablations/opt10_abl_tile_8x256.cpp:76:         diff[p.y_end   * (width + 1) + p.x_begin] -= 1;
	.loc 1 76 51 discriminator 1 view .LVU297
	dec	DWORD PTR [rbx+rdx*4]	# *_362
	.loc 1 77 9 is_stmt 1 view .LVU298
.LVL59:
.LBB2528:
.LBI2528:
	.loc 2 1251 7 view .LVU299
.LBB2529:
	.loc 2 1253 2 discriminator 2 view .LVU300
	.loc 2 1253 2 is_stmt 0 discriminator 2 view .LVU301
.LBE2529:
.LBE2528:
# src/avx_analysis_code_ablations/opt10_abl_tile_8x256.cpp:77:         diff[p.y_end   * (width + 1) + p.x_end  ] += 1;
	.loc 1 77 49 view .LVU302
	lea	rdx, [rcx+rdi]	# _56,
# src/avx_analysis_code_ablations/opt10_abl_tile_8x256.cpp:77:         diff[p.y_end   * (width + 1) + p.x_end  ] += 1;
	.loc 1 77 51 discriminator 1 view .LVU303
	inc	DWORD PTR [rbx+rdx*4]	# *_360
	.loc 1 73 5 is_stmt 1 discriminator 4 view .LVU304
.LVL60:
.LBB2530:
.LBI2520:
	.loc 3 1101 7 view .LVU305
	.loc 3 1101 7 is_stmt 0 view .LVU306
.LBE2530:
	.loc 1 73 26 is_stmt 1 discriminator 5 view .LVU307
# src/avx_analysis_code_ablations/opt10_abl_tile_8x256.cpp:73:     for (const auto& p : params) {
	.loc 1 73 26 is_stmt 0 discriminator 6 view .LVU308
	cmp	rax, QWORD PTR 144[rsp]	# SR.301, %sfp
	jne	.L25	#,
.LVL61:
.L24:
	.loc 1 73 26 discriminator 6 view .LVU309
.LBE2515:
.LBB2531:
	.loc 1 80 23 is_stmt 1 discriminator 2 view .LVU310
	test	r14d, r14d	# _2
	jle	.L26	#,
	mov	r8d, DWORD PTR 104[rsp]	#, %sfp
	test	r8d, r8d	#
	jle	.L26	#,
.LVL62:
.LBB2532:
.LBB2533:
	.loc 1 82 27 discriminator 2 view .LVU311
	mov	rax, QWORD PTR 160[rsp]	# _336, %sfp
.LBE2533:
# src/avx_analysis_code_ablations/opt10_abl_tile_8x256.cpp:81:         int row = 0;
	.loc 1 81 13 is_stmt 0 view .LVU312
	xor	esi, esi	# row
	lea	edx, -1[rax]	# _974,
.LBE2532:
# src/avx_analysis_code_ablations/opt10_abl_tile_8x256.cpp:80:     for (int y = 0; y < h; ++y) {
	.loc 1 80 23 discriminator 2 view .LVU313
	xor	eax, eax	# ivtmp.602
	lea	r8, 1[rdx]	# _989,
.LVL63:
.L28:
.LBB2538:
.LBB2534:
	.loc 1 83 13 is_stmt 1 view .LVU314
# src/avx_analysis_code_ablations/opt10_abl_tile_8x256.cpp:84:             counts[y * w + x] = row + (y > 0 ? counts[(y - 1) * w + x] : 0);
	.loc 1 84 31 is_stmt 0 discriminator 5 view .LVU315
	mov	rdx, QWORD PTR 80[rsp]	# _325, %sfp
# src/avx_analysis_code_ablations/opt10_abl_tile_8x256.cpp:83:             row += diff[y * (width + 1) + x];
	.loc 1 83 17 discriminator 1 view .LVU316
	add	esi, DWORD PTR [rbx+rax*4]	# row, MEM[(value_type &)_433 + ivtmp.602_966 * 4]
.LVL64:
	.loc 1 84 13 is_stmt 1 view .LVU317
# src/avx_analysis_code_ablations/opt10_abl_tile_8x256.cpp:84:             counts[y * w + x] = row + (y > 0 ? counts[(y - 1) * w + x] : 0);
	.loc 1 84 31 is_stmt 0 discriminator 5 view .LVU318
	mov	DWORD PTR [rdx+rax*4], esi	# MEM[(value_type &)_669 + ivtmp.602_966 * 4], row
	.loc 1 82 9 is_stmt 1 discriminator 1 view .LVU319
.LVL65:
	.loc 1 82 27 discriminator 2 view .LVU320
	inc	rax	# ivtmp.602
.LVL66:
	.loc 1 82 27 is_stmt 0 discriminator 2 view .LVU321
	cmp	rax, r8	# ivtmp.602, _989
	jne	.L28	#,
.LBE2534:
.LBE2538:
	.loc 1 80 5 is_stmt 1 discriminator 1 view .LVU322
.LVL67:
	.loc 1 80 23 discriminator 2 view .LVU323
	cmp	r14d, 1	# _2,
	je	.L26	#,
	mov	eax, DWORD PTR 104[rsp]	# _835, %sfp
	sal	r11, 2	# _508,
.LBB2539:
.LBB2535:
# src/avx_analysis_code_ablations/opt10_abl_tile_8x256.cpp:82:         for (int x = 0; x < w; ++x) {
	.loc 1 82 27 is_stmt 0 discriminator 2 view .LVU324
	xor	r10d, r10d	# ivtmp.597
	lea	rsi, [rbx+r11]	# ivtmp.596,
.LVL68:
	.loc 1 82 27 discriminator 2 view .LVU325
	lea	r9, 0[0+rax*4]	# _819,
	lea	rcx, [rdx+r9]	# ivtmp.599,
.LBE2535:
.LBE2539:
# src/avx_analysis_code_ablations/opt10_abl_tile_8x256.cpp:80:     for (int y = 0; y < h; ++y) {
	.loc 1 80 14 view .LVU326
	mov	edx, 1	# y,
.LVL69:
.L30:
.LBB2540:
.LBB2536:
	.loc 1 82 27 is_stmt 1 discriminator 2 view .LVU327
	mov	rdi, QWORD PTR 80[rsp]	# _325, %sfp
	movsxd	rax, r10d	# _1222, ivtmp.597
	add	r10d, DWORD PTR 160[rsp]	# ivtmp.597, %sfp
.LBE2536:
# src/avx_analysis_code_ablations/opt10_abl_tile_8x256.cpp:81:         int row = 0;
	.loc 1 81 13 is_stmt 0 view .LVU328
	mov	DWORD PTR 264[rsp], edx	# %sfp, y
	lea	rax, [rdi+rax*4]	# _1235,
	xor	edi, edi	# row
	mov	QWORD PTR 272[rsp], rax	# %sfp, _1235
.LBE2540:
# src/avx_analysis_code_ablations/opt10_abl_tile_8x256.cpp:80:     for (int y = 0; y < h; ++y) {
	.loc 1 80 14 view .LVU329
	xor	eax, eax	# ivtmp.583
.LVL70:
.L29:
.LBB2541:
.LBB2537:
	.loc 1 83 13 is_stmt 1 view .LVU330
# src/avx_analysis_code_ablations/opt10_abl_tile_8x256.cpp:84:             counts[y * w + x] = row + (y > 0 ? counts[(y - 1) * w + x] : 0);
	.loc 1 84 37 is_stmt 0 discriminator 4 view .LVU331
	mov	rdx, QWORD PTR 272[rsp]	# _1235, %sfp
# src/avx_analysis_code_ablations/opt10_abl_tile_8x256.cpp:83:             row += diff[y * (width + 1) + x];
	.loc 1 83 17 discriminator 1 view .LVU332
	add	edi, DWORD PTR [rsi+rax*4]	# row, MEM[(value_type &)_1201 + ivtmp.583_1197 * 4]
.LVL71:
	.loc 1 84 13 is_stmt 1 view .LVU333
# src/avx_analysis_code_ablations/opt10_abl_tile_8x256.cpp:84:             counts[y * w + x] = row + (y > 0 ? counts[(y - 1) * w + x] : 0);
	.loc 1 84 37 is_stmt 0 discriminator 4 view .LVU334
	mov	r12d, DWORD PTR [rdx+rax*4]	# _1078, MEM[(value_type &)_1235 + ivtmp.583_1197 * 4]
	add	r12d, edi	# _1078, row
# src/avx_analysis_code_ablations/opt10_abl_tile_8x256.cpp:84:             counts[y * w + x] = row + (y > 0 ? counts[(y - 1) * w + x] : 0);
	.loc 1 84 31 discriminator 5 view .LVU335
	mov	DWORD PTR [rcx+rax*4], r12d	# MEM[(value_type &)_1239 + ivtmp.583_1197 * 4], _1078
	.loc 1 82 9 is_stmt 1 discriminator 1 view .LVU336
.LVL72:
	.loc 1 82 27 discriminator 2 view .LVU337
	inc	rax	# ivtmp.583
.LVL73:
	.loc 1 82 27 is_stmt 0 discriminator 2 view .LVU338
	cmp	r8, rax	# _989, ivtmp.583
	jne	.L29	#,
.LBE2537:
.LBE2541:
# src/avx_analysis_code_ablations/opt10_abl_tile_8x256.cpp:80:     for (int y = 0; y < h; ++y) {
	.loc 1 80 5 discriminator 1 view .LVU339
	mov	edx, DWORD PTR 264[rsp]	# y, %sfp
	.loc 1 80 5 is_stmt 1 discriminator 1 view .LVU340
# src/avx_analysis_code_ablations/opt10_abl_tile_8x256.cpp:80:     for (int y = 0; y < h; ++y) {
	.loc 1 80 23 is_stmt 0 discriminator 2 view .LVU341
	add	rsi, r11	# ivtmp.596, _508
	add	rcx, r9	# ivtmp.599, _819
# src/avx_analysis_code_ablations/opt10_abl_tile_8x256.cpp:80:     for (int y = 0; y < h; ++y) {
	.loc 1 80 5 discriminator 1 view .LVU342
	inc	edx	# y
.LVL74:
	.loc 1 80 23 is_stmt 1 discriminator 2 view .LVU343
	cmp	r14d, edx	# _2, y
	jg	.L30	#,
.LVL75:
.L26:
	.loc 1 80 23 is_stmt 0 discriminator 2 view .LVU344
.LBE2531:
	.loc 1 90 5 is_stmt 1 view .LVU345
	.loc 1 91 5 view .LVU346
	.loc 1 94 5 view .LVU347
.LBB2542:
.LBI2542:
	.loc 5 168 7 view .LVU348
.LBB2543:
.LBI2543:
	.loc 6 88 7 view .LVU349
	.loc 6 88 7 is_stmt 0 view .LVU350
.LBE2543:
.LBE2542:
.LBB2544:
.LBI2544:
	.loc 2 576 7 is_stmt 1 view .LVU351
.LBB2545:
.LBI2545:
	.loc 2 2203 7 view .LVU352
.LBB2546:
.LBI2546:
	.loc 5 172 7 view .LVU353
.LBB2547:
.LBI2547:
	.loc 6 92 7 view .LVU354
	.loc 6 92 7 is_stmt 0 view .LVU355
.LBE2547:
.LBE2546:
.LBB2548:
.LBI2548:
	.loc 5 189 7 is_stmt 1 view .LVU356
.LBB2549:
.LBI2549:
	.loc 6 104 7 view .LVU357
	.loc 6 104 7 is_stmt 0 view .LVU358
.LBE2549:
.LBE2548:
.LBE2545:
.LBB2550:
.LBI2550:
	.loc 2 339 7 is_stmt 1 view .LVU359
.LBB2551:
.LBI2551:
	.loc 2 152 2 view .LVU360
.LBB2552:
.LBI2552:
	.loc 5 172 7 view .LVU361
.LBB2553:
.LBI2553:
	.loc 6 92 7 view .LVU362
	.loc 6 92 7 is_stmt 0 view .LVU363
.LBE2553:
.LBE2552:
.LBB2554:
.LBI2554:
	.loc 2 105 2 is_stmt 1 view .LVU364
	.loc 2 105 2 is_stmt 0 view .LVU365
.LBE2554:
.LBE2551:
.LBB2555:
.LBI2555:
	.loc 2 405 7 is_stmt 1 view .LVU366
.LBB2556:
.LBI2556:
	.loc 2 386 7 view .LVU367
.LBB2557:
.LBB2558:
.LBI2558:
	.loc 8 637 7 view .LVU368
.LBB2559:
.LBI2559:
	.loc 6 129 7 view .LVU369
.LBB2560:
# /usr/include/c++/16/bits/new_allocator.h:162: 	  return static_cast<_Tp*>(_GLIBCXX_OPERATOR_NEW(__n * sizeof(_Tp)));
	.loc 6 162 68 is_stmt 0 view .LVU370
	mov	edi, 24576	#,
.LEHB3:
	call	"_Znwm"@PLT	#
.LVL76:
.LEHE3:
.LBE2560:
.LBE2559:
.LBE2558:
.LBE2557:
.LBE2556:
.LBE2555:
.LBE2550:
.LBB2573:
.LBB2574:
.LBB2575:
.LBB2576:
.LBB2577:
.LBB2578:
.LBB2579:
.LBB2580:
.LBB2581:
# /usr/include/c++/16/bits/stl_construct.h:133:       ::new(static_cast<void*>(__p)) _Tp(std::forward<_Args>(__args)...);
	.loc 11 133 7 discriminator 1 view .LVU371
	mov	DWORD PTR [rax], 0x00000000	# *_613,
.LBE2581:
.LBE2580:
.LBB2582:
.LBB2583:
.LBB2584:
.LBB2585:
.LBB2586:
.LBB2587:
# /usr/include/c++/16/bits/stl_algobase.h:923: 	*__first = __val;
	.loc 10 923 11 view .LVU372
	xor	esi, esi	#
.LBE2587:
.LBE2586:
.LBE2585:
.LBE2584:
.LBE2583:
.LBE2582:
# /usr/include/c++/16/bits/stl_uninitialized.h:946: 	      ++__first;
	.loc 12 946 8 view .LVU373
	lea	rdi, 4[rax]	# __first_614,
.LBB2603:
.LBB2600:
.LBB2597:
.LBB2594:
.LBB2591:
.LBB2588:
# /usr/include/c++/16/bits/stl_algobase.h:923: 	*__first = __val;
	.loc 10 923 11 view .LVU374
	mov	edx, 24572	#,
.LBE2588:
.LBE2591:
.LBE2594:
.LBE2597:
.LBE2600:
.LBE2603:
.LBE2579:
.LBE2578:
.LBE2577:
.LBE2576:
.LBE2575:
.LBE2574:
.LBE2573:
.LBB2619:
.LBB2571:
.LBB2569:
.LBB2567:
.LBB2565:
.LBB2563:
.LBB2561:
# /usr/include/c++/16/bits/new_allocator.h:162: 	  return static_cast<_Tp*>(_GLIBCXX_OPERATOR_NEW(__n * sizeof(_Tp)));
	.loc 6 162 68 view .LVU375
	mov	QWORD PTR 40[rsp], rax	# %sfp, _613
.LVL77:
	.loc 6 162 68 view .LVU376
.LBE2561:
.LBE2563:
.LBE2565:
.LBE2567:
.LBE2569:
.LBE2571:
.LBE2619:
.LBB2620:
.LBI2573:
	.loc 2 1998 7 is_stmt 1 view .LVU377
.LBB2617:
.LBI2574:
	.loc 12 1051 5 view .LVU378
.LBB2615:
.LBI2575:
	.loc 12 982 5 view .LVU379
.LBB2613:
.LBB2611:
.LBI2577:
	.loc 12 939 9 view .LVU380
.LBB2609:
.LBI2578:
	.loc 12 939 9 view .LVU381
.LBB2607:
.LBB2604:
.LBI2580:
	.loc 11 123 5 view .LVU382
	.loc 11 123 5 is_stmt 0 view .LVU383
.LBE2604:
.LBB2605:
.LBI2582:
	.loc 10 1179 5 is_stmt 1 view .LVU384
.LBB2601:
.LBI2583:
	.loc 10 1141 5 view .LVU385
.LBB2598:
.LBB2595:
.LBI2585:
	.loc 10 976 5 view .LVU386
.LBB2592:
.LBI2586:
	.loc 10 895 5 view .LVU387
.LBB2589:
	.loc 10 922 22 discriminator 2 view .LVU388
.LBE2589:
.LBE2592:
.LBE2595:
.LBE2598:
.LBE2601:
.LBE2605:
.LBE2607:
.LBE2609:
.LBE2611:
.LBE2613:
.LBE2615:
.LBE2617:
.LBE2620:
.LBB2621:
.LBB2572:
.LBB2570:
.LBB2568:
.LBB2566:
.LBB2564:
.LBB2562:
# /usr/include/c++/16/bits/new_allocator.h:162: 	  return static_cast<_Tp*>(_GLIBCXX_OPERATOR_NEW(__n * sizeof(_Tp)));
	.loc 6 162 68 is_stmt 0 view .LVU389
	mov	r13, rax	# _613,
.LBE2562:
.LBE2564:
.LBE2566:
.LBE2568:
.LBE2570:
.LBE2572:
.LBE2621:
.LBB2622:
.LBB2618:
.LBB2616:
.LBB2614:
.LBB2612:
.LBB2610:
.LBB2608:
.LBB2606:
.LBB2602:
.LBB2599:
.LBB2596:
.LBB2593:
.LBB2590:
# /usr/include/c++/16/bits/stl_algobase.h:923: 	*__first = __val;
	.loc 10 923 11 view .LVU390
	call	"memset"@PLT	#
.LVL78:
	.loc 10 923 11 view .LVU391
.LBE2590:
.LBE2593:
.LBE2596:
.LBE2599:
.LBE2602:
.LBE2606:
.LBE2608:
.LBE2610:
.LBE2612:
.LBE2614:
.LBE2616:
.LBE2618:
.LBE2622:
.LBE2544:
.LBB2623:
	.loc 1 96 25 is_stmt 1 discriminator 2 view .LVU392
	test	r14d, r14d	# _2
	jle	.L31	#,
	mov	edi, DWORD PTR 104[rsp]	#, %sfp
	test	edi, edi	#
	jle	.L31	#,
.LBB2624:
.LBB2625:
.LBB2626:
.LBB2627:
.LBB2628:
.LBB2629:
.LBB2630:
# src/avx_analysis_code_ablations/opt10_abl_tile_8x256.cpp:124:                     size_t ind_lbot = ind_ltop + width * 3;
	.loc 1 124 56 is_stmt 0 view .LVU393
	mov	rax, QWORD PTR 160[rsp]	# _336, %sfp
.LBE2630:
.LBE2629:
.LBE2628:
.LBE2627:
.LBB2790:
.LBB2791:
.LBB2792:
.LBB2793:
# src/avx_analysis_code_ablations/opt10_abl_tile_8x256.cpp:182:                     float inv_c = 1.0f / static_cast<float>(c);
	.loc 1 182 27 view .LVU394
	mov	QWORD PTR 32[rsp], r15	# %sfp, _26
	vxorps	xmm5, xmm5, xmm5	# tmp1583
.LBE2793:
.LBE2792:
.LBE2791:
.LBE2790:
.LBB2816:
.LBB2785:
.LBB2741:
.LBB2730:
# src/avx_analysis_code_ablations/opt10_abl_tile_8x256.cpp:124:                     size_t ind_lbot = ind_ltop + width * 3;
	.loc 1 124 56 view .LVU395
	xor	edx, edx	# ivtmp.581
.LBE2730:
.LBE2741:
.LBE2785:
.LBE2816:
.LBB2817:
.LBB2812:
.LBB2807:
.LBB2800:
# src/avx_analysis_code_ablations/opt10_abl_tile_8x256.cpp:182:                     float inv_c = 1.0f / static_cast<float>(c);
	.loc 1 182 27 view .LVU396
	vmovss	xmm23, DWORD PTR .LC1[rip]	# tmp1562,
	mov	QWORD PTR 24[rsp], rbx	# %sfp, _433
	mov	r8, r13	# _613, _613
	xor	ebx, ebx	# _71
.LBE2800:
.LBE2807:
.LBE2812:
.LBE2817:
.LBB2818:
.LBB2786:
.LBB2742:
.LBB2731:
# src/avx_analysis_code_ablations/opt10_abl_tile_8x256.cpp:124:                     size_t ind_lbot = ind_ltop + width * 3;
	.loc 1 124 56 view .LVU397
	lea	rdi, [rax+rax*2]	# _91,
.LBE2731:
.LBE2742:
.LBE2786:
.LBE2818:
.LBB2819:
.LBB2813:
.LBB2808:
.LBB2801:
# src/avx_analysis_code_ablations/opt10_abl_tile_8x256.cpp:182:                     float inv_c = 1.0f / static_cast<float>(c);
	.loc 1 182 27 view .LVU398
	lea	r12, 0[0+rax*8]	# _1149,
.LBE2801:
.LBE2808:
.LBE2813:
.LBE2819:
.LBB2820:
.LBB2787:
.LBB2743:
.LBB2732:
# src/avx_analysis_code_ablations/opt10_abl_tile_8x256.cpp:124:                     size_t ind_lbot = ind_ltop + width * 3;
	.loc 1 124 56 view .LVU399
	mov	QWORD PTR 192[rsp], rdi	# %sfp, _91
	add	rdi, 3	# _1136,
	mov	QWORD PTR 184[rsp], rdi	# %sfp, _1136
.LVL79:
.L50:
	.loc 1 124 56 view .LVU400
.LBE2732:
.LBE2743:
.LBE2787:
.LBE2820:
.LBE2626:
.LBE2625:
	.loc 1 97 9 is_stmt 1 view .LVU401
	mov	r15d, ebx	# ty, _71
# src/avx_analysis_code_ablations/opt10_abl_tile_8x256.cpp:97:         const int tile_y_end = std::min(ty + TILE_H, h);
	.loc 1 97 44 is_stmt 0 view .LVU402
	add	ebx, 8	# _71,
.LVL80:
.LBB2854:
.LBI2854:
	.loc 10 232 5 is_stmt 1 view .LVU403
	.loc 10 232 5 is_stmt 0 view .LVU404
.LBE2854:
	.loc 1 98 9 is_stmt 1 view .LVU405
	.loc 1 100 9 view .LVU406
.LBB2859:
	.loc 1 100 29 discriminator 2 view .LVU407
.LBE2859:
.LBB2860:
.LBB2855:
# /usr/include/c++/16/bits/stl_algobase.h:237:       if (__b < __a)
	.loc 10 237 7 is_stmt 0 view .LVU408
	mov	eax, r14d	# _435, _2
.LBE2855:
.LBE2860:
# src/avx_analysis_code_ablations/opt10_abl_tile_8x256.cpp:98:         const int tile_h_actual = tile_y_end - ty;
	.loc 1 98 19 view .LVU409
	mov	QWORD PTR 152[rsp], 0	# %sfp,
.LBB2861:
.LBB2856:
# /usr/include/c++/16/bits/stl_algobase.h:237:       if (__b < __a)
	.loc 10 237 7 view .LVU410
	cmp	ebx, r14d	# _71, _2
.LBE2856:
.LBE2861:
# src/avx_analysis_code_ablations/opt10_abl_tile_8x256.cpp:98:         const int tile_h_actual = tile_y_end - ty;
	.loc 1 98 19 view .LVU411
	mov	DWORD PTR 48[rsp], r14d	# %sfp, _2
.LBB2862:
.LBB2857:
# /usr/include/c++/16/bits/stl_algobase.h:237:       if (__b < __a)
	.loc 10 237 7 view .LVU412
	cmovle	eax, ebx	# _71,, _435
.LBE2857:
.LBE2862:
# src/avx_analysis_code_ablations/opt10_abl_tile_8x256.cpp:98:         const int tile_h_actual = tile_y_end - ty;
	.loc 1 98 19 view .LVU413
	mov	DWORD PTR 20[rsp], ebx	# %sfp, _71
	mov	QWORD PTR 8[rsp], r12	# %sfp, _1149
.LBB2863:
.LBB2858:
# /usr/include/c++/16/bits/stl_algobase.h:237:       if (__b < __a)
	.loc 10 237 7 view .LVU414
	mov	DWORD PTR 140[rsp], eax	# %sfp, _435
.LBE2858:
.LBE2863:
# src/avx_analysis_code_ablations/opt10_abl_tile_8x256.cpp:98:         const int tile_h_actual = tile_y_end - ty;
	.loc 1 98 19 view .LVU415
	sub	eax, r15d	# tile_h_actual, ty
	mov	DWORD PTR 52[rsp], eax	# %sfp, tile_h_actual
	mov	QWORD PTR 56[rsp], rdx	# %sfp, ivtmp.581
.LVL81:
.L49:
.LBB2864:
.LBB2851:
# src/avx_analysis_code_ablations/opt10_abl_tile_8x256.cpp:101:             const int tile_x_end = std::min(tx + TILE_W, w);
	.loc 1 101 48 view .LVU416
	mov	eax, DWORD PTR 152[rsp]	# tmp1822, %sfp
.LBB2821:
.LBB2822:
# /usr/include/c++/16/bits/stl_algobase.h:237:       if (__b < __a)
	.loc 10 237 7 view .LVU417
	mov	edi, DWORD PTR 104[rsp]	# _1, %sfp
	mov	ebx, DWORD PTR 152[rsp]	# tx, %sfp
.LVL82:
	.loc 10 237 7 view .LVU418
.LBE2822:
.LBE2821:
	.loc 1 101 13 is_stmt 1 view .LVU419
.LBB2825:
.LBI2821:
	.loc 10 232 5 view .LVU420
.LBE2825:
# src/avx_analysis_code_ablations/opt10_abl_tile_8x256.cpp:101:             const int tile_x_end = std::min(tx + TILE_W, w);
	.loc 1 101 48 is_stmt 0 view .LVU421
	add	eax, 256	# _145,
.LVL83:
.LBB2826:
.LBB2823:
# /usr/include/c++/16/bits/stl_algobase.h:237:       if (__b < __a)
	.loc 10 237 7 view .LVU422
	cmp	eax, edi	# _145, _1
	cmovg	eax, edi	# _145,, _145, _1
.LBE2823:
.LBE2826:
# src/avx_analysis_code_ablations/opt10_abl_tile_8x256.cpp:102:             const int tile_w_actual = tile_x_end - tx;
	.loc 1 102 23 view .LVU423
	mov	r13d, eax	# tile_w_actual, _75
.LBB2827:
.LBB2824:
# /usr/include/c++/16/bits/stl_algobase.h:237:       if (__b < __a)
	.loc 10 237 7 view .LVU424
	mov	r12d, eax	# _75, _145
.LVL84:
	.loc 10 237 7 view .LVU425
.LBE2824:
.LBE2827:
	.loc 1 102 13 is_stmt 1 view .LVU426
# src/avx_analysis_code_ablations/opt10_abl_tile_8x256.cpp:106:                       tile_vals.begin() + tile_h_actual * tile_w_actual * 3,
	.loc 1 106 57 is_stmt 0 view .LVU427
	mov	eax, DWORD PTR 52[rsp]	# _73, %sfp
# src/avx_analysis_code_ablations/opt10_abl_tile_8x256.cpp:102:             const int tile_w_actual = tile_x_end - tx;
	.loc 1 102 23 view .LVU428
	sub	r13d, DWORD PTR 152[rsp]	#, %sfp
.LVL85:
	.loc 1 105 13 is_stmt 1 view .LVU429
.LBB2828:
.LBI2828:
	.loc 2 988 7 view .LVU430
.LBB2829:
.LBI2829:
	.loc 3 1058 7 view .LVU431
	.loc 3 1058 7 is_stmt 0 view .LVU432
.LBE2829:
.LBE2828:
.LBB2830:
.LBI2830:
	.loc 3 1147 7 is_stmt 1 view .LVU433
.LBB2831:
.LBB2832:
.LBI2832:
	.loc 3 1058 7 view .LVU434
	.loc 3 1058 7 is_stmt 0 view .LVU435
.LBE2832:
.LBE2831:
.LBE2830:
.LBB2834:
.LBI2834:
	.loc 2 988 7 is_stmt 1 view .LVU436
.LBB2835:
.LBI2835:
	.loc 3 1058 7 view .LVU437
	.loc 3 1058 7 is_stmt 0 view .LVU438
.LBE2835:
.LBE2834:
.LBB2836:
.LBI2836:
	.loc 10 1001 5 is_stmt 1 view .LVU439
.LBB2837:
.LBI2837:
	.loc 10 976 5 view .LVU440
.LBB2838:
.LBI2838:
	.loc 10 956 5 view .LVU441
.LBB2839:
.LBI2839:
	.loc 10 895 5 view .LVU442
.LBB2840:
	.loc 10 922 22 discriminator 2 view .LVU443
.LBE2840:
.LBE2839:
.LBE2838:
.LBE2837:
.LBE2836:
# src/avx_analysis_code_ablations/opt10_abl_tile_8x256.cpp:106:                       tile_vals.begin() + tile_h_actual * tile_w_actual * 3,
	.loc 1 106 57 is_stmt 0 view .LVU444
	imul	eax, r13d	# _73, tile_w_actual
# src/avx_analysis_code_ablations/opt10_abl_tile_8x256.cpp:106:                       tile_vals.begin() + tile_h_actual * tile_w_actual * 3,
	.loc 1 106 73 view .LVU445
	lea	edx, [rax+rax*2]	# _74,
.LBB2845:
.LBB2833:
# /usr/include/c++/16/bits/stl_iterator.h:1148:       { return __normal_iterator(_M_current + __n); }
	.loc 3 1148 47 view .LVU446
	movsxd	rdx, edx	# __n.55_284, _74
.LBE2833:
.LBE2845:
.LBB2846:
.LBB2844:
.LBB2843:
.LBB2842:
.LBB2841:
# /usr/include/c++/16/bits/stl_algobase.h:922:       for (; __first != __last; ++__first)
	.loc 10 922 22 discriminator 2 view .LVU447
	sal	rdx, 2	# _283,
	je	.L32	#,
	vmovaps	XMMWORD PTR 272[rsp], xmm5	# %sfp, tmp1583
# /usr/include/c++/16/bits/stl_algobase.h:923: 	*__first = __val;
	.loc 10 923 11 view .LVU448
	xor	esi, esi	#
	mov	rdi, r8	#, _613
	vzeroupper
.LVL86:
	call	"memset"@PLT	#
.LVL87:
	vmovaps	xmm5, XMMWORD PTR 272[rsp]	# tmp1583, %sfp
	vmovss	xmm23, DWORD PTR .LC1[rip]	# tmp1562,
	mov	r8, rax	# _613,
.L32:
.LVL88:
	.loc 10 923 11 view .LVU449
.LBE2841:
.LBE2842:
.LBE2843:
.LBE2844:
.LBE2846:
.LBB2847:
	.loc 1 110 39 is_stmt 1 discriminator 5 view .LVU450
# src/avx_analysis_code_ablations/opt10_abl_tile_8x256.cpp:110:             for (const SubParams& p : params) {
	.loc 1 110 39 is_stmt 0 discriminator 6 view .LVU451
	mov	rax, QWORD PTR 88[rsp]	# __new_finish, %sfp
	cmp	QWORD PTR 144[rsp], rax	# %sfp, __new_finish
	je	.L33	#,
	mov	QWORD PTR 240[rsp], rax	# %sfp, __new_finish
	lea	eax, 0[r13+r13*2]	# _600,
	cdqe
	mov	DWORD PTR 108[rsp], r13d	# %sfp, tile_w_actual
	sal	rax, 2	# _605,
	mov	QWORD PTR 96[rsp], r8	# %sfp, _613
	mov	r8d, DWORD PTR 140[rsp]	# _435, %sfp
	mov	QWORD PTR 200[rsp], rax	# %sfp, _605
.LVL89:
	.p2align 4,,10
	.p2align 3
.L43:
.LBB2788:
	.loc 1 111 17 is_stmt 1 view .LVU452
.LBB2744:
.LBI2744:
	.loc 10 256 5 view .LVU453
.LBB2745:
# /usr/include/c++/16/bits/stl_algobase.h:261:       if (__a < __b)
	.loc 10 261 7 is_stmt 0 view .LVU454
	mov	rdi, QWORD PTR 240[rsp]	# ivtmp.569, %sfp
	mov	eax, DWORD PTR 32[rdi]	# tmp1618, MEM[(const int &)_137 + 32]
.LBE2745:
.LBE2744:
.LBB2749:
.LBB2750:
# /usr/include/c++/16/bits/stl_algobase.h:237:       if (__b < __a)
	.loc 10 237 7 view .LVU455
	mov	edx, DWORD PTR 28[rdi]	# tmp1621, MEM[(const int &)_137 + 28]
.LBE2750:
.LBE2749:
.LBB2752:
.LBB2746:
# /usr/include/c++/16/bits/stl_algobase.h:261:       if (__a < __b)
	.loc 10 261 7 view .LVU456
	cmp	r15d, eax	# ty, tmp1618
	mov	esi, eax	# tmp1618, tmp1618
.LBE2746:
.LBE2752:
.LBB2753:
.LBB2754:
# /usr/include/c++/16/bits/stl_algobase.h:237:       if (__b < __a)
	.loc 10 237 7 view .LVU457
	mov	eax, DWORD PTR 36[rdi]	# tmp1619, MEM[(const int &)_137 + 36]
.LBE2754:
.LBE2753:
.LBB2758:
.LBB2747:
# /usr/include/c++/16/bits/stl_algobase.h:261:       if (__a < __b)
	.loc 10 261 7 view .LVU458
	cmovge	esi, r15d	# ty,, tmp1618
.LBE2747:
.LBE2758:
.LBB2759:
.LBB2755:
# /usr/include/c++/16/bits/stl_algobase.h:237:       if (__b < __a)
	.loc 10 237 7 view .LVU459
	cmp	r8d, eax	# _435, tmp1619
	cmovle	eax, r8d	# _435,, tmp1619
.LBE2755:
.LBE2759:
.LBB2760:
.LBB2748:
# /usr/include/c++/16/bits/stl_algobase.h:261:       if (__a < __b)
	.loc 10 261 7 view .LVU460
	mov	DWORD PTR 248[rsp], esi	# %sfp, y
.LVL90:
	.loc 10 261 7 view .LVU461
.LBE2748:
.LBE2760:
	.loc 1 112 17 is_stmt 1 view .LVU462
.LBB2761:
.LBI2753:
	.loc 10 232 5 view .LVU463
.LBB2756:
# /usr/include/c++/16/bits/stl_algobase.h:237:       if (__b < __a)
	.loc 10 237 7 is_stmt 0 view .LVU464
	mov	DWORD PTR 216[rsp], eax	# %sfp, _445
.LVL91:
	.loc 10 237 7 view .LVU465
.LBE2756:
.LBE2761:
	.loc 1 113 17 is_stmt 1 view .LVU466
.LBB2762:
.LBI2762:
	.loc 10 256 5 view .LVU467
.LBE2762:
.LBB2764:
.LBB2757:
# /usr/include/c++/16/bits/stl_algobase.h:237:       if (__b < __a)
	.loc 10 237 7 is_stmt 0 view .LVU468
	mov	ecx, eax	# _445, tmp1619
.LBE2757:
.LBE2764:
.LBB2765:
.LBB2763:
# /usr/include/c++/16/bits/stl_algobase.h:261:       if (__a < __b)
	.loc 10 261 7 view .LVU469
	mov	eax, DWORD PTR 24[rdi]	# tmp1620, MEM[(const int &)_137 + 24]
	cmp	ebx, eax	# tx, tmp1620
	cmovge	eax, ebx	# tx,, _444
.LVL92:
	.loc 10 261 7 view .LVU470
.LBE2763:
.LBE2765:
	.loc 1 114 17 is_stmt 1 view .LVU471
.LBB2766:
.LBI2749:
	.loc 10 232 5 view .LVU472
.LBB2751:
# /usr/include/c++/16/bits/stl_algobase.h:237:       if (__b < __a)
	.loc 10 237 7 is_stmt 0 view .LVU473
	cmp	r12d, edx	# _75, tmp1621
	cmovle	edx, r12d	# _75,, _442
.LVL93:
	.loc 10 237 7 view .LVU474
.LBE2751:
.LBE2766:
	.loc 1 115 17 is_stmt 1 view .LVU475
	cmp	edx, eax	# _442, _444
	jle	.L34	#,
	mov	r14d, esi	# y, y
	cmp	esi, ecx	# y, _445
	jge	.L34	#,
	.loc 1 117 17 view .LVU476
.LBB2767:
.LBB2733:
# src/avx_analysis_code_ablations/opt10_abl_tile_8x256.cpp:131:                                 + (x_begin - tx) * 3;
	.loc 1 131 44 is_stmt 0 view .LVU477
	mov	ecx, eax	# _96, _444
# src/avx_analysis_code_ablations/opt10_abl_tile_8x256.cpp:134:                     const int x_stop = (x_end - tx) * 3;
	.loc 1 134 47 view .LVU478
	sub	edx, ebx	# _101, tx
	mov	esi, esi	# _690, y
# src/avx_analysis_code_ablations/opt10_abl_tile_8x256.cpp:123:                     size_t ind_ltop = ((y + p.sy) * width + (x_begin + p.sx)) * 3;
	.loc 1 123 70 view .LVU479
	add	eax, DWORD PTR [rdi]	# _88, MEM[(int *)_137]
# src/avx_analysis_code_ablations/opt10_abl_tile_8x256.cpp:131:                                 + (x_begin - tx) * 3;
	.loc 1 131 44 view .LVU480
	sub	ecx, ebx	# _96, tx
# src/avx_analysis_code_ablations/opt10_abl_tile_8x256.cpp:134:                     const int x_stop = (x_end - tx) * 3;
	.loc 1 134 31 view .LVU481
	lea	r9d, [rdx+rdx*2]	# x_stop_271,
# src/avx_analysis_code_ablations/opt10_abl_tile_8x256.cpp:123:                     size_t ind_ltop = ((y + p.sy) * width + (x_begin + p.sx)) * 3;
	.loc 1 123 70 view .LVU482
	cdqe
.LBE2733:
.LBE2767:
# src/avx_analysis_code_ablations/opt10_abl_tile_8x256.cpp:117:                 const __m256 Avx = _mm256_set1_ps(p.A);
	.loc 1 117 53 view .LVU483
	vmovss	xmm18, DWORD PTR 8[rdi]	# _79, MEM[(float *)_137 + 8B]
.LBB2768:
.LBB2734:
# src/avx_analysis_code_ablations/opt10_abl_tile_8x256.cpp:131:                                 + (x_begin - tx) * 3;
	.loc 1 131 50 view .LVU484
	lea	r10d, [rcx+rcx*2]	# _97,
	movsxd	rcx, ecx	# _568, _96
.LBE2734:
.LBE2768:
# src/avx_analysis_code_ablations/opt10_abl_tile_8x256.cpp:118:                 const __m256 Bvx = _mm256_set1_ps(p.B);
	.loc 1 118 53 view .LVU485
	vmovss	xmm17, DWORD PTR 12[rdi]	# _80, MEM[(float *)_137 + 12B]
# src/avx_analysis_code_ablations/opt10_abl_tile_8x256.cpp:119:                 const __m256 Cvx = _mm256_set1_ps(p.C);
	.loc 1 119 53 view .LVU486
	vmovss	xmm16, DWORD PTR 16[rdi]	# _81, MEM[(float *)_137 + 16B]
.LBB2769:
.LBB2735:
.LBB2631:
# src/avx_analysis_code_ablations/opt10_abl_tile_8x256.cpp:137:                     for (; x + 8 <= x_stop; x += 8) {
	.loc 1 137 34 discriminator 2 view .LVU487
	lea	edx, 7[r10]	# _221,
.LBE2631:
.LBE2735:
.LBE2769:
# src/avx_analysis_code_ablations/opt10_abl_tile_8x256.cpp:120:                 const __m256 Dvx = _mm256_set1_ps(p.D);
	.loc 1 120 53 view .LVU488
	vmovss	xmm15, DWORD PTR 20[rdi]	# _82, MEM[(float *)_137 + 20B]
.LBB2770:
.LBB2736:
# src/avx_analysis_code_ablations/opt10_abl_tile_8x256.cpp:131:                                 + (x_begin - tx) * 3;
	.loc 1 131 50 view .LVU489
	mov	DWORD PTR 136[rsp], r10d	# %sfp, _97
.LBE2736:
.LBE2770:
# src/avx_analysis_code_ablations/opt10_abl_tile_8x256.cpp:117:                 const __m256 Avx = _mm256_set1_ps(p.A);
	.loc 1 117 53 view .LVU490
	vbroadcastss	ymm11, xmm18	# tmp1614, _79
.LVL94:
.LBB2771:
.LBI2771:
	.file 13 "/usr/lib/gcc/x86_64-linux-gnu/16/include/avxintrin.h"
	.loc 13 1271 1 is_stmt 1 view .LVU491
.LBB2772:
	.loc 13 1273 3 view .LVU492
.LBE2772:
.LBE2771:
.LBB2774:
.LBB2737:
.LBB2706:
# src/avx_analysis_code_ablations/opt10_abl_tile_8x256.cpp:137:                     for (; x + 8 <= x_stop; x += 8) {
	.loc 1 137 34 is_stmt 0 discriminator 2 view .LVU493
	mov	DWORD PTR 212[rsp], edx	# %sfp, _221
	movsxd	rdx, DWORD PTR 4[rdi]	# _978, MEM[(int *)_137 + 4B]
.LBE2706:
.LBE2737:
.LBE2774:
# src/avx_analysis_code_ablations/opt10_abl_tile_8x256.cpp:118:                 const __m256 Bvx = _mm256_set1_ps(p.B);
	.loc 1 118 53 view .LVU494
	vbroadcastss	ymm12, xmm17	# tmp1615, _80
# src/avx_analysis_code_ablations/opt10_abl_tile_8x256.cpp:119:                 const __m256 Cvx = _mm256_set1_ps(p.C);
	.loc 1 119 53 view .LVU495
	vbroadcastss	ymm13, xmm16	# tmp1616, _81
.LBB2775:
.LBB2738:
# src/avx_analysis_code_ablations/opt10_abl_tile_8x256.cpp:134:                     const int x_stop = (x_end - tx) * 3;
	.loc 1 134 31 view .LVU496
	mov	DWORD PTR 220[rsp], r9d	# %sfp, x_stop_271
.LBE2738:
.LBE2775:
# src/avx_analysis_code_ablations/opt10_abl_tile_8x256.cpp:120:                 const __m256 Dvx = _mm256_set1_ps(p.D);
	.loc 1 120 53 view .LVU497
	vbroadcastss	ymm10, xmm15	# tmp1617, _82
.LBB2776:
.LBB2773:
# /usr/lib/gcc/x86_64-linux-gnu/16/include/avxintrin.h:1274: 				 __A, __A, __A, __A };
	.loc 13 1274 25 view .LVU498
	vmovaps	ymm3, ymm11	# _264, tmp1614
.LVL95:
	.loc 13 1274 25 view .LVU499
.LBE2773:
.LBE2776:
	.loc 1 118 17 is_stmt 1 view .LVU500
.LBB2777:
.LBI2777:
	.loc 13 1271 1 view .LVU501
.LBB2778:
	.loc 13 1273 3 view .LVU502
# /usr/lib/gcc/x86_64-linux-gnu/16/include/avxintrin.h:1274: 				 __A, __A, __A, __A };
	.loc 13 1274 25 is_stmt 0 view .LVU503
	vmovaps	ymm2, ymm12	# _269, tmp1615
.LVL96:
	.loc 13 1274 25 view .LVU504
.LBE2778:
.LBE2777:
	.loc 1 119 17 is_stmt 1 view .LVU505
.LBB2779:
.LBI2779:
	.loc 13 1271 1 view .LVU506
.LBB2780:
	.loc 13 1273 3 view .LVU507
	add	rdx, rsi	# _677, _690
	mov	DWORD PTR 124[rsp], r12d	# %sfp, _75
# /usr/lib/gcc/x86_64-linux-gnu/16/include/avxintrin.h:1274: 				 __A, __A, __A, __A };
	.loc 13 1274 25 is_stmt 0 view .LVU508
	vmovaps	ymm1, ymm13	# _280, tmp1616
.LVL97:
	.loc 13 1274 25 view .LVU509
.LBE2780:
.LBE2779:
	.loc 1 120 17 is_stmt 1 view .LVU510
.LBB2781:
.LBI2781:
	.loc 13 1271 1 view .LVU511
.LBB2782:
	.loc 13 1273 3 view .LVU512
# /usr/lib/gcc/x86_64-linux-gnu/16/include/avxintrin.h:1274: 				 __A, __A, __A, __A };
	.loc 13 1274 25 is_stmt 0 view .LVU513
	vmovaps	ymm0, ymm10	# _281, tmp1617
.LVL98:
	.loc 13 1274 25 view .LVU514
.LBE2782:
.LBE2781:
	.loc 1 122 17 is_stmt 1 view .LVU515
.LBB2783:
	.loc 1 122 41 discriminator 2 view .LVU516
	imul	rdx, QWORD PTR 160[rsp]	# _615, %sfp
	mov	DWORD PTR 120[rsp], r8d	# %sfp, _435
	mov	DWORD PTR 116[rsp], ebx	# %sfp, tx
	mov	DWORD PTR 112[rsp], r15d	# %sfp, ty
	add	rdx, rax	# _976, _89
	mov	eax, r14d	# _583, y
	sub	eax, r15d	# _583, ty
	lea	r11, [rdx+rdx*2]	# ivtmp.558,
	mov	rdx, QWORD PTR 96[rsp]	# _613, %sfp
	imul	eax, DWORD PTR 108[rsp]	# _971, %sfp
	cdqe
	add	rax, rcx	# _566, _568
	lea	rax, [rax+rax*2]	# _969,
	lea	rax, [rdx+rax*4]	# ivtmp.562,
	mov	QWORD PTR 224[rsp], rax	# %sfp, ivtmp.562
	lea	eax, -8[r9]	# _180,
	sub	eax, r10d	# _392, _97
	mov	edx, eax	# _1031, _392
	shr	eax, 3	# _569,
	and	edx, -8	# _1031,
	inc	rax	# _1142
	lea	edx, 8[r10+rdx]	# x,
	mov	DWORD PTR 208[rsp], edx	# %sfp, x
	mov	rdx, rax	# _625, _1142
	sal	rax, 3	# _850,
	sal	rdx, 5	# _625,
	mov	QWORD PTR 168[rsp], rax	# %sfp, _850
	mov	QWORD PTR 176[rsp], rdx	# %sfp, _625
	.p2align 4,,10
	.p2align 3
.L42:
.LVL99:
.LBB2739:
	.loc 1 123 21 view .LVU517
	.loc 1 124 21 view .LVU518
	mov	rdx, r11	# ivtmp.558, ivtmp.558
# src/avx_analysis_code_ablations/opt10_abl_tile_8x256.cpp:131:                                 + (x_begin - tx) * 3;
	.loc 1 131 52 is_stmt 0 view .LVU519
	mov	rdi, QWORD PTR 224[rsp]	# ivtmp.562, %sfp
.LBB2707:
# src/avx_analysis_code_ablations/opt10_abl_tile_8x256.cpp:137:                     for (; x + 8 <= x_stop; x += 8) {
	.loc 1 137 34 discriminator 2 view .LVU520
	mov	ecx, DWORD PTR 220[rsp]	# x_stop_271, %sfp
.LBE2707:
# src/avx_analysis_code_ablations/opt10_abl_tile_8x256.cpp:125:                     size_t ind_rtop = ind_ltop + 3;
	.loc 1 125 28 view .LVU521
	lea	rax, 3[rdx]	# ind_rtop,
# src/avx_analysis_code_ablations/opt10_abl_tile_8x256.cpp:124:                     size_t ind_lbot = ind_ltop + width * 3;
	.loc 1 124 28 view .LVU522
	add	r11, QWORD PTR 192[rsp]	# ivtmp.558, %sfp
.LVL100:
	.loc 1 125 21 is_stmt 1 view .LVU523
# src/avx_analysis_code_ablations/opt10_abl_tile_8x256.cpp:125:                     size_t ind_rtop = ind_ltop + 3;
	.loc 1 125 28 is_stmt 0 view .LVU524
	mov	QWORD PTR 272[rsp], rax	# %sfp, ind_rtop
.LVL101:
	.loc 1 126 21 is_stmt 1 view .LVU525
# src/avx_analysis_code_ablations/opt10_abl_tile_8x256.cpp:126:                     size_t ind_rbot = ind_lbot + 3;
	.loc 1 126 28 is_stmt 0 view .LVU526
	mov	rax, QWORD PTR 184[rsp]	# _1136, %sfp
.LVL102:
	.loc 1 126 28 view .LVU527
	lea	r15, [rax+rdx]	# ind_rbot,
.LVL103:
	.loc 1 129 21 is_stmt 1 view .LVU528
# src/avx_analysis_code_ablations/opt10_abl_tile_8x256.cpp:131:                                 + (x_begin - tx) * 3;
	.loc 1 131 52 is_stmt 0 view .LVU529
	mov	rax, rdi	# vp, ivtmp.562
	.loc 1 133 21 is_stmt 1 view .LVU530
	.loc 1 134 21 view .LVU531
.LVL104:
	.loc 1 137 21 view .LVU532
.LBB2708:
	.loc 1 137 34 discriminator 2 view .LVU533
	cmp	DWORD PTR 212[rsp], ecx	# %sfp, x_stop_271
	jge	.L69	#,
	mov	rbx, QWORD PTR 240[rsp]	# ivtmp.569, %sfp
	add	rdi, QWORD PTR 176[rsp]	# vp, %sfp
	mov	rcx, QWORD PTR 40[rbx]	# ivtmp.550, MEM[(const unsigned char * *)_137 + 40B]
	add	rcx, r11	# ivtmp.550, ivtmp.558
.LVL105:
	.p2align 4,,10
	.p2align 3
.L36:
.LBB2632:
	.loc 1 138 25 view .LVU534
.LBB2633:
.LBI2633:
	.file 14 "/usr/lib/gcc/x86_64-linux-gnu/16/include/emmintrin.h"
	.loc 14 711 1 view .LVU535
.LBB2634:
	.loc 14 713 3 view .LVU536
	mov	rsi, rcx	# _70, ivtmp.550
.LBE2634:
.LBE2633:
.LBB2640:
.LBB2641:
# /usr/lib/gcc/x86_64-linux-gnu/16/include/avx2intrin.h:491:   return (__m256i) __builtin_ia32_pmovzxbd256 ((__v16qi)__X);
	.file 15 "/usr/lib/gcc/x86_64-linux-gnu/16/include/avx2intrin.h"
	.loc 15 491 47 is_stmt 0 view .LVU537
	vpmovzxbd	ymm6, QWORD PTR [rcx]	# tmp992, MEM[(__m64_u * {ref-all})_948]
.LBE2641:
.LBE2640:
.LBB2643:
.LBB2644:
	vpmovzxbd	ymm4, QWORD PTR 3[rcx]	# tmp1002, MEM[(__m64_u * {ref-all})_948 + 3B]
.LBE2644:
.LBE2643:
# src/avx_analysis_code_ablations/opt10_abl_tile_8x256.cpp:155:                         vp += 8;
	.loc 1 155 28 view .LVU538
	add	rax, 32	# vp,
.LVL106:
	.loc 1 155 28 view .LVU539
	sub	rsi, r11	# _70, ivtmp.558
.LVL107:
.LBB2646:
.LBB2639:
.LBB2635:
.LBI2635:
	.loc 14 600 1 is_stmt 1 view .LVU540
.LBB2636:
	.loc 14 602 3 view .LVU541
.LBB2637:
.LBI2637:
	.loc 14 594 1 view .LVU542
.LBB2638:
	.loc 14 596 3 view .LVU543
	.loc 14 596 3 is_stmt 0 view .LVU544
.LBE2638:
.LBE2637:
.LBE2636:
.LBE2635:
.LBE2639:
.LBE2646:
	.loc 1 139 25 is_stmt 1 view .LVU545
.LBB2647:
.LBI2647:
	.loc 14 711 1 view .LVU546
.LBB2648:
	.loc 14 713 3 view .LVU547
.LBB2649:
.LBI2649:
	.loc 14 600 1 view .LVU548
.LBB2650:
	.loc 14 602 3 view .LVU549
.LBB2651:
.LBI2651:
	.loc 14 594 1 view .LVU550
.LBB2652:
	.loc 14 596 3 view .LVU551
	.loc 14 596 3 is_stmt 0 view .LVU552
.LBE2652:
.LBE2651:
.LBE2650:
.LBE2649:
.LBE2648:
.LBE2647:
	.loc 1 140 25 is_stmt 1 view .LVU553
.LBB2653:
.LBI2653:
	.loc 14 711 1 view .LVU554
.LBB2654:
	.loc 14 713 3 view .LVU555
.LBB2655:
.LBI2655:
	.loc 14 600 1 view .LVU556
.LBB2656:
	.loc 14 602 3 view .LVU557
.LBB2657:
.LBI2657:
	.loc 14 594 1 view .LVU558
.LBB2658:
	.loc 14 596 3 view .LVU559
	.loc 14 596 3 is_stmt 0 view .LVU560
.LBE2658:
.LBE2657:
.LBE2656:
.LBE2655:
.LBE2654:
.LBE2653:
	.loc 1 141 25 is_stmt 1 view .LVU561
.LBB2659:
.LBI2659:
	.loc 14 711 1 view .LVU562
.LBB2660:
	.loc 14 713 3 view .LVU563
.LBB2661:
.LBI2661:
	.loc 14 600 1 view .LVU564
.LBB2662:
	.loc 14 602 3 view .LVU565
.LBB2663:
.LBI2663:
	.loc 14 594 1 view .LVU566
.LBB2664:
	.loc 14 596 3 view .LVU567
	.loc 14 596 3 is_stmt 0 view .LVU568
.LBE2664:
.LBE2663:
.LBE2662:
.LBE2661:
.LBE2660:
.LBE2659:
	.loc 1 143 25 is_stmt 1 view .LVU569
.LBB2665:
.LBI2665:
	.loc 15 489 1 view .LVU570
.LBB2666:
	.loc 15 491 3 view .LVU571
.LBE2666:
.LBE2665:
.LBE2632:
# src/avx_analysis_code_ablations/opt10_abl_tile_8x256.cpp:137:                     for (; x + 8 <= x_stop; x += 8) {
	.loc 1 137 34 is_stmt 0 discriminator 2 view .LVU572
	add	rcx, 8	# ivtmp.550,
.LVL108:
.LBB2705:
.LBB2668:
.LBB2667:
# /usr/lib/gcc/x86_64-linux-gnu/16/include/avx2intrin.h:491:   return (__m256i) __builtin_ia32_pmovzxbd256 ((__v16qi)__X);
	.loc 15 491 47 view .LVU573
	vpmovzxbd	ymm8, QWORD PTR [rsi+rdx]	# tmp987, MEM[(__m64_u * {ref-all})_70 + ivtmp.558_993 * 1]
.LVL109:
	.loc 15 491 47 view .LVU574
.LBE2667:
.LBE2668:
.LBB2669:
.LBI2669:
	.loc 13 405 1 is_stmt 1 view .LVU575
.LBB2670:
	.loc 13 407 3 view .LVU576
.LBE2670:
.LBE2669:
.LBB2672:
.LBB2673:
# /usr/lib/gcc/x86_64-linux-gnu/16/include/avx2intrin.h:491:   return (__m256i) __builtin_ia32_pmovzxbd256 ((__v16qi)__X);
	.loc 15 491 47 is_stmt 0 view .LVU577
	vpmovzxbd	ymm7, QWORD PTR 3[rsi+rdx]	# tmp997, MEM[(__m64_u * {ref-all})_70 + 3B + ivtmp.558_993 * 1]
.LBE2673:
.LBE2672:
.LBB2675:
.LBB2676:
# /usr/lib/gcc/x86_64-linux-gnu/16/include/avxintrin.h:407:   return (__m256)__builtin_ia32_cvtdq2ps256 ((__v8si) __A);
	.loc 13 407 10 view .LVU578
	vcvtdq2ps	ymm6, ymm6	# tmp996, tmp992
.LBE2676:
.LBE2675:
.LBB2678:
.LBB2679:
	vcvtdq2ps	ymm4, ymm4	# tmp1006, tmp1002
.LBE2679:
.LBE2678:
.LBB2681:
.LBB2671:
	vcvtdq2ps	ymm8, ymm8	# tmp991, tmp987
.LVL110:
	.loc 13 407 10 view .LVU579
.LBE2671:
.LBE2681:
	.loc 1 144 25 is_stmt 1 view .LVU580
.LBB2682:
.LBI2640:
	.loc 15 489 1 view .LVU581
.LBB2642:
	.loc 15 491 3 view .LVU582
.LBE2642:
.LBE2682:
.LBB2683:
.LBI2675:
	.loc 13 405 1 view .LVU583
.LBB2677:
	.loc 13 407 3 view .LVU584
	.loc 13 407 3 is_stmt 0 view .LVU585
.LBE2677:
.LBE2683:
	.loc 1 145 25 is_stmt 1 view .LVU586
.LBB2684:
.LBI2672:
	.loc 15 489 1 view .LVU587
.LBB2674:
	.loc 15 491 3 view .LVU588
	.loc 15 491 3 is_stmt 0 view .LVU589
.LBE2674:
.LBE2684:
.LBB2685:
.LBI2685:
	.loc 13 405 1 is_stmt 1 view .LVU590
.LBB2686:
	.loc 13 407 3 view .LVU591
.LBE2686:
.LBE2685:
.LBB2688:
.LBB2689:
# /usr/lib/gcc/x86_64-linux-gnu/16/include/fmaintrin.h:65:   return (__m256)__builtin_ia32_vfmaddps256 ((__v8sf)__A, (__v8sf)__B,
	.file 16 "/usr/lib/gcc/x86_64-linux-gnu/16/include/fmaintrin.h"
	.loc 16 65 10 is_stmt 0 view .LVU592
	vfmadd213ps	ymm8, ymm3, YMMWORD PTR -32[rax]	# tmp1007, _264, MEM[(__m256_u * {ref-all})vp_686]
.LVL111:
	.loc 16 65 10 view .LVU593
.LBE2689:
.LBE2688:
.LBB2691:
.LBB2687:
# /usr/lib/gcc/x86_64-linux-gnu/16/include/avxintrin.h:407:   return (__m256)__builtin_ia32_cvtdq2ps256 ((__v8si) __A);
	.loc 13 407 10 view .LVU594
	vcvtdq2ps	ymm7, ymm7	# tmp1001, tmp997
.LVL112:
	.loc 13 407 10 view .LVU595
.LBE2687:
.LBE2691:
	.loc 1 146 25 is_stmt 1 view .LVU596
.LBB2692:
.LBI2643:
	.loc 15 489 1 view .LVU597
.LBB2645:
	.loc 15 491 3 view .LVU598
.LBE2645:
.LBE2692:
.LBB2693:
.LBI2678:
	.loc 13 405 1 view .LVU599
.LBB2680:
	.loc 13 407 3 view .LVU600
	.loc 13 407 3 is_stmt 0 view .LVU601
.LBE2680:
.LBE2693:
	.loc 1 148 25 is_stmt 1 view .LVU602
.LBB2694:
.LBI2694:
	.loc 13 847 1 view .LVU603
.LBB2695:
	.loc 13 849 3 view .LVU604
.LBE2695:
.LBE2694:
	.loc 1 149 25 view .LVU605
.LBB2696:
.LBI2688:
	.loc 16 63 1 view .LVU606
.LBB2690:
	.loc 16 65 3 view .LVU607
	.loc 16 65 3 is_stmt 0 view .LVU608
.LBE2690:
.LBE2696:
	.loc 1 150 25 is_stmt 1 view .LVU609
.LBB2697:
.LBI2697:
	.loc 16 63 1 view .LVU610
.LBB2698:
	.loc 16 65 3 view .LVU611
# /usr/lib/gcc/x86_64-linux-gnu/16/include/fmaintrin.h:65:   return (__m256)__builtin_ia32_vfmaddps256 ((__v8sf)__A, (__v8sf)__B,
	.loc 16 65 10 is_stmt 0 view .LVU612
	vfmadd132ps	ymm7, ymm8, ymm2	# tmp1009, tmp1007, _269
.LVL113:
	.loc 16 65 10 view .LVU613
.LBE2698:
.LBE2697:
	.loc 1 151 25 is_stmt 1 view .LVU614
.LBB2699:
.LBI2699:
	.loc 16 63 1 view .LVU615
.LBB2700:
	.loc 16 65 3 view .LVU616
# /usr/lib/gcc/x86_64-linux-gnu/16/include/fmaintrin.h:65:   return (__m256)__builtin_ia32_vfmaddps256 ((__v8sf)__A, (__v8sf)__B,
	.loc 16 65 10 is_stmt 0 view .LVU617
	vfmadd132ps	ymm6, ymm7, ymm1	# tmp1010, tmp1009, _280
.LVL114:
	.loc 16 65 10 view .LVU618
.LBE2700:
.LBE2699:
	.loc 1 152 25 is_stmt 1 view .LVU619
.LBB2701:
.LBI2701:
	.loc 16 63 1 view .LVU620
.LBB2702:
	.loc 16 65 3 view .LVU621
# /usr/lib/gcc/x86_64-linux-gnu/16/include/fmaintrin.h:65:   return (__m256)__builtin_ia32_vfmaddps256 ((__v8sf)__A, (__v8sf)__B,
	.loc 16 65 10 is_stmt 0 view .LVU622
	vfmadd132ps	ymm4, ymm6, ymm0	# tmp1011, tmp1010, _281
.LVL115:
	.loc 16 65 10 view .LVU623
.LBE2702:
.LBE2701:
	.loc 1 153 25 is_stmt 1 view .LVU624
.LBB2703:
.LBI2703:
	.loc 13 853 1 view .LVU625
.LBB2704:
	.loc 13 855 3 view .LVU626
# /usr/lib/gcc/x86_64-linux-gnu/16/include/avxintrin.h:855:   *(__m256_u *)__P = __A;
	.loc 13 855 20 is_stmt 0 view .LVU627
	vmovups	YMMWORD PTR -32[rax], ymm4	# MEM[(__m256_u * {ref-all})vp_686], tmp1011
.LVL116:
	.loc 13 855 20 view .LVU628
.LBE2704:
.LBE2703:
	.loc 1 155 25 is_stmt 1 view .LVU629
	.loc 1 156 25 view .LVU630
	.loc 1 156 40 view .LVU631
	.loc 1 157 25 view .LVU632
	.loc 1 157 40 view .LVU633
.LBE2705:
	.loc 1 137 21 discriminator 1 view .LVU634
	.loc 1 137 34 discriminator 2 view .LVU635
	cmp	rax, rdi	# vp, vp
	jne	.L36	#,
	mov	rdi, QWORD PTR 168[rsp]	# _850, %sfp
	mov	ecx, DWORD PTR 208[rsp]	# x, %sfp
.LVL117:
	.loc 1 137 34 is_stmt 0 discriminator 2 view .LVU636
	lea	rbx, [r11+rdi]	# ind_lbot,
	add	QWORD PTR 272[rsp], rdi	# %sfp, _850
	add	r15, rdi	# ind_rbot, _850
	add	rdx, rdi	# ivtmp.558, _850
.LVL118:
	.loc 1 137 34 discriminator 2 view .LVU637
	mov	QWORD PTR 232[rsp], rbx	# %sfp, ind_lbot
.LVL119:
.L35:
	.loc 1 137 34 discriminator 2 view .LVU638
.LBE2708:
	.loc 1 161 21 is_stmt 1 view .LVU639
# src/avx_analysis_code_ablations/opt10_abl_tile_8x256.cpp:161:                     int remaining = x_stop - x;
	.loc 1 161 25 is_stmt 0 view .LVU640
	mov	ebx, DWORD PTR 220[rsp]	# remaining, %sfp
	sub	ebx, ecx	# remaining, x
	mov	DWORD PTR 264[rsp], ebx	# %sfp, remaining
.LVL120:
	.loc 1 162 21 is_stmt 1 view .LVU641
.LBB2709:
	.loc 1 162 39 discriminator 2 view .LVU642
	test	ebx, ebx	# remaining
	jle	.L37	#,
.LBB2710:
# src/avx_analysis_code_ablations/opt10_abl_tile_8x256.cpp:163:                         float TL = p.SUB[ind_ltop + k];
	.loc 1 163 38 is_stmt 0 view .LVU643
	mov	rdi, QWORD PTR 240[rsp]	# ivtmp.569, %sfp
	lea	ecx, -1[rbx]	# _847,
	mov	rdi, QWORD PTR 40[rdi]	# _108, MEM[(const unsigned char * *)_137 + 40B]
	cmp	ecx, 30	# _847,
	jbe	.L70	#,
	shr	ebx, 5	# bnd.355,
.LVL121:
	.loc 1 163 38 view .LVU644
	lea	r13, [rdi+r15]	# vectp.359,
	lea	rsi, [rdi+rdx]	# tmp1542,
	mov	r8, rax	# ivtmp.522, vp
	mov	r10d, ebx	# bnd.355, bnd.355
	mov	rbx, QWORD PTR 232[rsp]	# ind_lbot, %sfp
	xor	r9d, r9d	# ivtmp.524
	lea	rcx, [rdi+rbx]	# tmp1540,
	mov	rbx, QWORD PTR 272[rsp]	# ind_rtop, %sfp
	lea	r12, [rdi+rbx]	# vectp.371,
	mov	ebx, r10d	# _62, bnd.355
	sal	rbx, 5	# _1061,
.LVL122:
	.p2align 4,,10
	.p2align 3
.L39:
	.loc 1 163 25 is_stmt 1 view .LVU645
# src/avx_analysis_code_ablations/opt10_abl_tile_8x256.cpp:165:                         float BL = p.SUB[ind_lbot + k];
	.loc 1 165 54 is_stmt 0 discriminator 40960 view .LVU646
	vmovdqu	ymm8, YMMWORD PTR [rcx+r9]	# MEM <const vector(32) unsigned char> [(const unsigned char *)vectp.365_816 + ivtmp.524_1113 * 1], MEM <const vector(32) unsigned char> [(const unsigned char *)vectp.365_816 + ivtmp.524_1113 * 1]
# src/avx_analysis_code_ablations/opt10_abl_tile_8x256.cpp:164:                         float TR = p.SUB[ind_rtop + k];
	.loc 1 164 54 discriminator 40960 view .LVU647
	vmovdqu	ymm4, YMMWORD PTR [r12+r9]	# MEM <const vector(32) unsigned char> [(const unsigned char *)vectp.371_798 + ivtmp.524_1113 * 1], MEM <const vector(32) unsigned char> [(const unsigned char *)vectp.371_798 + ivtmp.524_1113 * 1]
	sub	r8, -128	# ivtmp.522,
# src/avx_analysis_code_ablations/opt10_abl_tile_8x256.cpp:163:                         float TL = p.SUB[ind_ltop + k];
	.loc 1 163 54 discriminator 40960 view .LVU648
	vmovdqu	ymm7, YMMWORD PTR [rsi+r9]	# MEM <const vector(32) unsigned char> [(const unsigned char *)vectp.383_771 + ivtmp.524_1113 * 1], MEM <const vector(32) unsigned char> [(const unsigned char *)vectp.383_771 + ivtmp.524_1113 * 1]
# src/avx_analysis_code_ablations/opt10_abl_tile_8x256.cpp:165:                         float BL = p.SUB[ind_lbot + k];
	.loc 1 165 31 discriminator 40960 view .LVU649
	vpmovzxbw	ymm6, xmm8	#, MEM <const vector(32) unsigned char> [(const unsigned char *)vectp.365_816 + ivtmp.524_1113 * 1]
# src/avx_analysis_code_ablations/opt10_abl_tile_8x256.cpp:164:                         float TR = p.SUB[ind_rtop + k];
	.loc 1 164 31 discriminator 40960 view .LVU650
	vpmovzxbw	ymm9, xmm4	#, MEM <const vector(32) unsigned char> [(const unsigned char *)vectp.371_798 + ivtmp.524_1113 * 1]
# src/avx_analysis_code_ablations/opt10_abl_tile_8x256.cpp:165:                         float BL = p.SUB[ind_lbot + k];
	.loc 1 165 31 discriminator 40960 view .LVU651
	vextracti32x4	xmm8, ymm8, 0x1	# tmp1024, MEM <const vector(32) unsigned char> [(const unsigned char *)vectp.365_816 + ivtmp.524_1113 * 1]
	vpmovsxwd	ymm19, xmm6	#, vect_BL_276.368
	vextracti32x4	xmm6, ymm6, 0x1	# tmp1037, vect_BL_276.368
# src/avx_analysis_code_ablations/opt10_abl_tile_8x256.cpp:164:                         float TR = p.SUB[ind_rtop + k];
	.loc 1 164 31 discriminator 40960 view .LVU652
	vpmovsxwd	ymm14, xmm9	#, vect_TR_275.374
# src/avx_analysis_code_ablations/opt10_abl_tile_8x256.cpp:165:                         float BL = p.SUB[ind_lbot + k];
	.loc 1 165 31 discriminator 40960 view .LVU653
	vpmovsxwd	ymm6, xmm6	# tmp1036, tmp1037
# src/avx_analysis_code_ablations/opt10_abl_tile_8x256.cpp:164:                         float TR = p.SUB[ind_rtop + k];
	.loc 1 164 31 discriminator 40960 view .LVU654
	vextracti32x4	xmm9, ymm9, 0x1	# tmp1034, vect_TR_275.374
# src/avx_analysis_code_ablations/opt10_abl_tile_8x256.cpp:165:                         float BL = p.SUB[ind_lbot + k];
	.loc 1 165 31 discriminator 40960 view .LVU655
	vpmovzxbw	ymm8, xmm8	# vect_BL_276.368, tmp1024
	vcvtdq2ps	ymm19, ymm19	# vect_BL_276.367_810, tmp1029
# src/avx_analysis_code_ablations/opt10_abl_tile_8x256.cpp:164:                         float TR = p.SUB[ind_rtop + k];
	.loc 1 164 31 discriminator 40960 view .LVU656
	vcvtdq2ps	ymm14, ymm14	# vect_TR_275.373_792, tmp1026
# src/avx_analysis_code_ablations/opt10_abl_tile_8x256.cpp:165:                         float BL = p.SUB[ind_lbot + k];
	.loc 1 165 31 discriminator 40960 view .LVU657
	vcvtdq2ps	ymm6, ymm6	# vect_BL_276.367_809, tmp1036
# src/avx_analysis_code_ablations/opt10_abl_tile_8x256.cpp:167:                         vp[k] += p.A*TL + p.B*TR + p.C*BL + p.D*BR;
	.loc 1 167 55 discriminator 40960 view .LVU658
	vmulps	ymm6, ymm6, ymm1	# vect__131.369_805, vect_BL_276.367_809, _280
# src/avx_analysis_code_ablations/opt10_abl_tile_8x256.cpp:164:                         float TR = p.SUB[ind_rtop + k];
	.loc 1 164 31 discriminator 40960 view .LVU659
	vpmovsxwd	ymm9, xmm9	# tmp1033, tmp1034
# src/avx_analysis_code_ablations/opt10_abl_tile_8x256.cpp:165:                         float BL = p.SUB[ind_lbot + k];
	.loc 1 165 31 discriminator 40960 view .LVU660
	vextracti32x4	xmm20, ymm8, 0x1	# tmp1051, vect_BL_276.368
# src/avx_analysis_code_ablations/opt10_abl_tile_8x256.cpp:167:                         vp[k] += p.A*TL + p.B*TR + p.C*BL + p.D*BR;
	.loc 1 167 55 discriminator 40960 view .LVU661
	vmulps	ymm19, ymm19, ymm1	# vect__131.369_806, vect_BL_276.367_810, _280
# src/avx_analysis_code_ablations/opt10_abl_tile_8x256.cpp:164:                         float TR = p.SUB[ind_rtop + k];
	.loc 1 164 31 discriminator 40960 view .LVU662
	vcvtdq2ps	ymm9, ymm9	# vect_TR_275.373_791, tmp1033
# src/avx_analysis_code_ablations/opt10_abl_tile_8x256.cpp:163:                         float TL = p.SUB[ind_ltop + k];
	.loc 1 163 31 discriminator 40960 view .LVU663
	vpmovzxbw	ymm22, xmm7	#, MEM <const vector(32) unsigned char> [(const unsigned char *)vectp.383_771 + ivtmp.524_1113 * 1]
# src/avx_analysis_code_ablations/opt10_abl_tile_8x256.cpp:164:                         float TR = p.SUB[ind_rtop + k];
	.loc 1 164 31 discriminator 40960 view .LVU664
	vextracti32x4	xmm4, ymm4, 0x1	# tmp1021, MEM <const vector(32) unsigned char> [(const unsigned char *)vectp.371_798 + ivtmp.524_1113 * 1]
# src/avx_analysis_code_ablations/opt10_abl_tile_8x256.cpp:165:                         float BL = p.SUB[ind_lbot + k];
	.loc 1 165 31 discriminator 40960 view .LVU665
	vpmovsxwd	ymm20, xmm20	# tmp1050, tmp1051
# src/avx_analysis_code_ablations/opt10_abl_tile_8x256.cpp:164:                         float TR = p.SUB[ind_rtop + k];
	.loc 1 164 31 discriminator 40960 view .LVU666
	vpmovzxbw	ymm4, xmm4	# vect_TR_275.374, tmp1021
# src/avx_analysis_code_ablations/opt10_abl_tile_8x256.cpp:163:                         float TL = p.SUB[ind_ltop + k];
	.loc 1 163 31 discriminator 40960 view .LVU667
	vextracti32x4	xmm7, ymm7, 0x1	# tmp1018, MEM <const vector(32) unsigned char> [(const unsigned char *)vectp.383_771 + ivtmp.524_1113 * 1]
# src/avx_analysis_code_ablations/opt10_abl_tile_8x256.cpp:165:                         float BL = p.SUB[ind_lbot + k];
	.loc 1 165 31 discriminator 40960 view .LVU668
	vcvtdq2ps	ymm20, ymm20	# vect_BL_276.367_807, tmp1050
# src/avx_analysis_code_ablations/opt10_abl_tile_8x256.cpp:167:                         vp[k] += p.A*TL + p.B*TR + p.C*BL + p.D*BR;
	.loc 1 167 55 discriminator 40960 view .LVU669
	vmulps	ymm20, ymm20, ymm1	# vect__131.369_803, vect_BL_276.367_807, _280
# src/avx_analysis_code_ablations/opt10_abl_tile_8x256.cpp:163:                         float TL = p.SUB[ind_ltop + k];
	.loc 1 163 31 discriminator 40960 view .LVU670
	vpmovzxbw	ymm7, xmm7	# vect_TL_274.386, tmp1018
.LVL123:
	.loc 1 164 25 is_stmt 1 view .LVU671
	.loc 1 165 25 view .LVU672
	vfmadd132ps	ymm9, ymm6, ymm2	# _957, vect__131.369_805, _269
# src/avx_analysis_code_ablations/opt10_abl_tile_8x256.cpp:165:                         float BL = p.SUB[ind_lbot + k];
	.loc 1 165 31 is_stmt 0 discriminator 40960 view .LVU673
	vpmovsxwd	ymm6, xmm8	#, vect_BL_276.368
# src/avx_analysis_code_ablations/opt10_abl_tile_8x256.cpp:163:                         float TL = p.SUB[ind_ltop + k];
	.loc 1 163 31 discriminator 40960 view .LVU674
	vpmovsxwd	ymm8, xmm22	#, vect_TL_274.386
# src/avx_analysis_code_ablations/opt10_abl_tile_8x256.cpp:165:                         float BL = p.SUB[ind_lbot + k];
	.loc 1 165 31 discriminator 40960 view .LVU675
	vcvtdq2ps	ymm6, ymm6	# vect_BL_276.367_808, tmp1043
# src/avx_analysis_code_ablations/opt10_abl_tile_8x256.cpp:167:                         vp[k] += p.A*TL + p.B*TR + p.C*BL + p.D*BR;
	.loc 1 167 55 discriminator 40960 view .LVU676
	vmulps	ymm6, ymm6, ymm1	# vect__131.369_804, vect_BL_276.367_808, _280
	vfmadd132ps	ymm14, ymm19, ymm2	# _1088, vect__131.369_806, _269
# src/avx_analysis_code_ablations/opt10_abl_tile_8x256.cpp:163:                         float TL = p.SUB[ind_ltop + k];
	.loc 1 163 31 discriminator 40960 view .LVU677
	vcvtdq2ps	ymm8, ymm8	# vect_TL_274.385_765, tmp1061
# src/avx_analysis_code_ablations/opt10_abl_tile_8x256.cpp:164:                         float TR = p.SUB[ind_rtop + k];
	.loc 1 164 31 discriminator 40960 view .LVU678
	vpmovsxwd	ymm19, xmm4	#, vect_TR_275.374
	vfmadd213ps	ymm8, ymm3, YMMWORD PTR -128[r8]	# tmp1059, _264, MEM <vector(8) float> [(float *)_373]
	vcvtdq2ps	ymm19, ymm19	# vect_TR_275.373_790, tmp1040
	vfmadd132ps	ymm19, ymm6, ymm2	# _1108, vect__131.369_804, _269
	vextracti32x4	xmm6, ymm4, 0x1	# tmp1048, vect_TR_275.374
# src/avx_analysis_code_ablations/opt10_abl_tile_8x256.cpp:166:                         float BR = p.SUB[ind_rbot + k];
	.loc 1 166 54 discriminator 40960 view .LVU679
	vmovdqu	ymm4, YMMWORD PTR 0[r13+r9]	# MEM <const vector(32) unsigned char> [(const unsigned char *)vectp.359_834 + ivtmp.524_1113 * 1], MEM <const vector(32) unsigned char> [(const unsigned char *)vectp.359_834 + ivtmp.524_1113 * 1]
	add	r9, 32	# ivtmp.524,
# src/avx_analysis_code_ablations/opt10_abl_tile_8x256.cpp:164:                         float TR = p.SUB[ind_rtop + k];
	.loc 1 164 31 discriminator 40960 view .LVU680
	vpmovsxwd	ymm6, xmm6	# tmp1047, tmp1048
# src/avx_analysis_code_ablations/opt10_abl_tile_8x256.cpp:166:                         float BR = p.SUB[ind_rbot + k];
	.loc 1 166 31 discriminator 40960 view .LVU681
	vpmovzxbw	ymm21, xmm4	#, MEM <const vector(32) unsigned char> [(const unsigned char *)vectp.359_834 + ivtmp.524_1113 * 1]
# src/avx_analysis_code_ablations/opt10_abl_tile_8x256.cpp:164:                         float TR = p.SUB[ind_rtop + k];
	.loc 1 164 31 discriminator 40960 view .LVU682
	vcvtdq2ps	ymm6, ymm6	# vect_TR_275.373_789, tmp1047
	vfmadd132ps	ymm6, ymm20, ymm2	# _1083, vect__131.369_803, _269
.LVL124:
	.loc 1 166 25 is_stmt 1 view .LVU683
# src/avx_analysis_code_ablations/opt10_abl_tile_8x256.cpp:166:                         float BR = p.SUB[ind_rbot + k];
	.loc 1 166 31 is_stmt 0 discriminator 40960 view .LVU684
	vextracti32x4	xmm4, ymm4, 0x1	# tmp1055, MEM <const vector(32) unsigned char> [(const unsigned char *)vectp.359_834 + ivtmp.524_1113 * 1]
	vpmovsxwd	ymm20, xmm21	#, vect_BR_277.362
	vextracti32x4	xmm21, ymm21, 0x1	# tmp1066, vect_BR_277.362
	vpmovzxbw	ymm4, xmm4	# vect_BR_277.362, tmp1055
.LVL125:
	.loc 1 167 25 is_stmt 1 view .LVU685
# src/avx_analysis_code_ablations/opt10_abl_tile_8x256.cpp:166:                         float BR = p.SUB[ind_rbot + k];
	.loc 1 166 31 is_stmt 0 discriminator 40960 view .LVU686
	vcvtdq2ps	ymm20, ymm20	# vect_BR_277.361_828, tmp1057
	vfmadd132ps	ymm20, ymm8, ymm0	# _1094, tmp1059, _281
# src/avx_analysis_code_ablations/opt10_abl_tile_8x256.cpp:163:                         float TL = p.SUB[ind_ltop + k];
	.loc 1 163 31 discriminator 40960 view .LVU687
	vextracti32x4	xmm8, ymm22, 0x1	# tmp1070, vect_TL_274.386
# src/avx_analysis_code_ablations/opt10_abl_tile_8x256.cpp:166:                         float BR = p.SUB[ind_rbot + k];
	.loc 1 166 31 discriminator 40960 view .LVU688
	vpmovsxwd	ymm21, xmm21	# tmp1065, tmp1066
# src/avx_analysis_code_ablations/opt10_abl_tile_8x256.cpp:163:                         float TL = p.SUB[ind_ltop + k];
	.loc 1 163 31 discriminator 40960 view .LVU689
	vpmovsxwd	ymm8, xmm8	# tmp1069, tmp1070
# src/avx_analysis_code_ablations/opt10_abl_tile_8x256.cpp:166:                         float BR = p.SUB[ind_rbot + k];
	.loc 1 166 31 discriminator 40960 view .LVU690
	vcvtdq2ps	ymm21, ymm21	# vect_BR_277.361_827, tmp1065
	vpmovsxwd	ymm22, xmm4	#, vect_BR_277.362
	vextracti32x4	xmm4, ymm4, 0x1	# tmp1083, vect_BR_277.362
# src/avx_analysis_code_ablations/opt10_abl_tile_8x256.cpp:163:                         float TL = p.SUB[ind_ltop + k];
	.loc 1 163 31 discriminator 40960 view .LVU691
	vcvtdq2ps	ymm8, ymm8	# vect_TL_274.385_764, tmp1069
	vfmadd213ps	ymm8, ymm3, YMMWORD PTR -96[r8]	# tmp1067, _264, MEM <vector(8) float> [(float *)_373 + 32B]
# src/avx_analysis_code_ablations/opt10_abl_tile_8x256.cpp:166:                         float BR = p.SUB[ind_rbot + k];
	.loc 1 166 31 discriminator 40960 view .LVU692
	vpmovsxwd	ymm4, xmm4	# tmp1082, tmp1083
	vcvtdq2ps	ymm22, ymm22	# vect_BR_277.361_826, tmp1073
	vcvtdq2ps	ymm4, ymm4	# vect_BR_277.361_825, tmp1082
# src/avx_analysis_code_ablations/opt10_abl_tile_8x256.cpp:167:                         vp[k] += p.A*TL + p.B*TR + p.C*BL + p.D*BR;
	.loc 1 167 31 discriminator 40960 view .LVU693
	vaddps	ymm14, ymm14, ymm20	# vect__136.391_745, _1088, _1094
	vfmadd132ps	ymm21, ymm8, ymm0	# _1076, tmp1067, _281
# src/avx_analysis_code_ablations/opt10_abl_tile_8x256.cpp:163:                         float TL = p.SUB[ind_ltop + k];
	.loc 1 163 31 discriminator 40960 view .LVU694
	vpmovsxwd	ymm8, xmm7	#, vect_TL_274.386
	vextracti32x4	xmm7, ymm7, 0x1	# tmp1087, vect_TL_274.386
	vpmovsxwd	ymm7, xmm7	# tmp1086, tmp1087
	vcvtdq2ps	ymm8, ymm8	# vect_TL_274.385_763, tmp1077
	vfmadd213ps	ymm8, ymm3, YMMWORD PTR -64[r8]	# tmp1075, _264, MEM <vector(8) float> [(float *)_373 + 64B]
# src/avx_analysis_code_ablations/opt10_abl_tile_8x256.cpp:167:                         vp[k] += p.A*TL + p.B*TR + p.C*BL + p.D*BR;
	.loc 1 167 31 discriminator 40960 view .LVU695
	vmovups	YMMWORD PTR -128[r8], ymm14	# MEM <vector(8) float> [(float *)_373], vect__136.391_745
# src/avx_analysis_code_ablations/opt10_abl_tile_8x256.cpp:163:                         float TL = p.SUB[ind_ltop + k];
	.loc 1 163 31 discriminator 40960 view .LVU696
	vcvtdq2ps	ymm7, ymm7	# vect_TL_274.385_762, tmp1086
# src/avx_analysis_code_ablations/opt10_abl_tile_8x256.cpp:167:                         vp[k] += p.A*TL + p.B*TR + p.C*BL + p.D*BR;
	.loc 1 167 31 discriminator 40960 view .LVU697
	vfmadd213ps	ymm7, ymm3, YMMWORD PTR -32[r8]	# tmp1084, _264, MEM <vector(8) float> [(float *)_373 + 96B]
	vaddps	ymm9, ymm9, ymm21	# vect__136.391_744, _957, _1076
	vfmadd132ps	ymm22, ymm8, ymm0	# _295, tmp1075, _281
	vfmadd132ps	ymm4, ymm7, ymm0	# tmp1080, tmp1084, _281
	vmovups	YMMWORD PTR -96[r8], ymm9	# MEM <vector(8) float> [(float *)_373 + 32B], vect__136.391_744
	vaddps	ymm22, ymm22, ymm19	# vect__136.391_743, _295, _1108
	vaddps	ymm4, ymm4, ymm6	# vect__136.391, tmp1080, _1083
	vmovups	YMMWORD PTR -64[r8], ymm22	# MEM <vector(8) float> [(float *)_373 + 64B], vect__136.391_743
	vmovups	YMMWORD PTR -32[r8], ymm4	# MEM <vector(8) float> [(float *)_373 + 96B], vect__136.391
.LBE2710:
	.loc 1 162 21 is_stmt 1 discriminator 1 view .LVU698
	.loc 1 162 39 discriminator 2 view .LVU699
	cmp	rbx, r9	# _1061, ivtmp.524
	jne	.L39	#,
	sal	r10d, 5	# niters_vector_mult_vf.356,
	cmp	r10d, DWORD PTR 264[rsp]	# niters_vector_mult_vf.356, %sfp
	je	.L37	#,
	mov	r8d, r10d	# tmp.437, niters_vector_mult_vf.356
.LVL126:
.L38:
	.loc 1 162 39 is_stmt 0 discriminator 2 view .LVU700
	mov	r12d, DWORD PTR 264[rsp]	# niters.394, %sfp
	sub	r12d, r10d	# niters.394, niters_vector_mult_vf.356
	lea	r9d, -1[r12]	# _579,
	cmp	r9d, 14	# _579,
	jbe	.L71	#,
	mov	ebx, r10d	# _540, niters_vector_mult_vf.356
.LBB2711:
# src/avx_analysis_code_ablations/opt10_abl_tile_8x256.cpp:164:                         float TR = p.SUB[ind_rtop + k];
	.loc 1 164 54 discriminator 69632 view .LVU701
	mov	r13, QWORD PTR 272[rsp]	# ind_rtop, %sfp
# src/avx_analysis_code_ablations/opt10_abl_tile_8x256.cpp:165:                         float BL = p.SUB[ind_lbot + k];
	.loc 1 165 54 discriminator 69632 view .LVU702
	vmovdqu	xmm8, XMMWORD PTR [rcx+rbx]	# MEM <const vector(16) unsigned char> [(const unsigned char *)vectp.405_513], MEM <const vector(16) unsigned char> [(const unsigned char *)vectp.405_513]
	lea	r14, [rbx+r15]	# _538,
# src/avx_analysis_code_ablations/opt10_abl_tile_8x256.cpp:163:                         float TL = p.SUB[ind_ltop + k];
	.loc 1 163 54 discriminator 69632 view .LVU703
	vmovdqu	xmm7, XMMWORD PTR [rsi+rbx]	# MEM <const vector(16) unsigned char> [(const unsigned char *)vectp.423_352], MEM <const vector(16) unsigned char> [(const unsigned char *)vectp.423_352]
	lea	r9, [rax+rbx*4]	# vectp_vp.417,
	.loc 1 163 25 is_stmt 1 view .LVU704
	mov	QWORD PTR 256[rsp], r14	# %sfp, _538
# src/avx_analysis_code_ablations/opt10_abl_tile_8x256.cpp:164:                         float TR = p.SUB[ind_rtop + k];
	.loc 1 164 54 is_stmt 0 discriminator 69632 view .LVU705
	lea	r14, [rdi+rbx]	# tmp1103,
# src/avx_analysis_code_ablations/opt10_abl_tile_8x256.cpp:165:                         float BL = p.SUB[ind_lbot + k];
	.loc 1 165 31 discriminator 69632 view .LVU706
	vpmovzxbw	xmm6, xmm8	# vect_BL_868.408, MEM <const vector(16) unsigned char> [(const unsigned char *)vectp.405_513]
# src/avx_analysis_code_ablations/opt10_abl_tile_8x256.cpp:164:                         float TR = p.SUB[ind_rtop + k];
	.loc 1 164 54 discriminator 69632 view .LVU707
	vmovdqu	xmm4, XMMWORD PTR [r14+r13]	# MEM <const vector(16) unsigned char> [(const unsigned char *)vectp.411_447], MEM <const vector(16) unsigned char> [(const unsigned char *)vectp.411_447]
# src/avx_analysis_code_ablations/opt10_abl_tile_8x256.cpp:165:                         float BL = p.SUB[ind_lbot + k];
	.loc 1 165 31 discriminator 69632 view .LVU708
	vpsrldq	xmm8, xmm8, 8	# tmp1110, MEM <const vector(16) unsigned char> [(const unsigned char *)vectp.405_513],
# src/avx_analysis_code_ablations/opt10_abl_tile_8x256.cpp:163:                         float TL = p.SUB[ind_ltop + k];
	.loc 1 163 31 discriminator 69632 view .LVU709
	vpmovzxbw	xmm21, xmm7	# vect_TL_876.426, MEM <const vector(16) unsigned char> [(const unsigned char *)vectp.423_352]
# src/avx_analysis_code_ablations/opt10_abl_tile_8x256.cpp:165:                         float BL = p.SUB[ind_lbot + k];
	.loc 1 165 31 discriminator 69632 view .LVU710
	vpmovsxwd	xmm14, xmm6	# tmp1114, vect_BL_868.408
	vpsrldq	xmm6, xmm6, 8	# tmp1121, vect_BL_868.408,
	vpmovzxbw	xmm8, xmm8	# vect_BL_868.408, tmp1110
	vpmovsxwd	xmm6, xmm6	# tmp1120, tmp1121
# src/avx_analysis_code_ablations/opt10_abl_tile_8x256.cpp:164:                         float TR = p.SUB[ind_rtop + k];
	.loc 1 164 31 discriminator 69632 view .LVU711
	vpmovzxbw	xmm9, xmm4	# vect_TR_872.414, MEM <const vector(16) unsigned char> [(const unsigned char *)vectp.411_447]
# src/avx_analysis_code_ablations/opt10_abl_tile_8x256.cpp:165:                         float BL = p.SUB[ind_lbot + k];
	.loc 1 165 31 discriminator 69632 view .LVU712
	vcvtdq2ps	xmm14, xmm14	# vect_BL_868.407_487, tmp1114
# src/avx_analysis_code_ablations/opt10_abl_tile_8x256.cpp:163:                         float TL = p.SUB[ind_ltop + k];
	.loc 1 163 31 discriminator 69632 view .LVU713
	vpmovsxwd	xmm22, xmm21	# tmp1141, vect_TL_876.426
# src/avx_analysis_code_ablations/opt10_abl_tile_8x256.cpp:166:                         float BR = p.SUB[ind_rbot + k];
	.loc 1 166 54 discriminator 69632 view .LVU714
	mov	rbx, QWORD PTR 256[rsp]	# _538, %sfp
# src/avx_analysis_code_ablations/opt10_abl_tile_8x256.cpp:165:                         float BL = p.SUB[ind_lbot + k];
	.loc 1 165 31 discriminator 69632 view .LVU715
	vcvtdq2ps	xmm6, xmm6	# vect_BL_868.407_486, tmp1120
# src/avx_analysis_code_ablations/opt10_abl_tile_8x256.cpp:167:                         vp[k] += p.A*TL + p.B*TR + p.C*BL + p.D*BR;
	.loc 1 167 55 discriminator 69632 view .LVU716
	vmulps	xmm6, xmm6, xmm13	# vect__857.409_462, vect_BL_868.407_486, _1171
# src/avx_analysis_code_ablations/opt10_abl_tile_8x256.cpp:165:                         float BL = p.SUB[ind_lbot + k];
	.loc 1 165 31 discriminator 69632 view .LVU717
	vpsrldq	xmm20, xmm8, 8	# tmp1133, vect_BL_868.408,
# src/avx_analysis_code_ablations/opt10_abl_tile_8x256.cpp:164:                         float TR = p.SUB[ind_rtop + k];
	.loc 1 164 31 discriminator 69632 view .LVU718
	vpmovsxwd	xmm19, xmm9	# tmp1112, vect_TR_872.414
# src/avx_analysis_code_ablations/opt10_abl_tile_8x256.cpp:163:                         float TL = p.SUB[ind_ltop + k];
	.loc 1 163 31 discriminator 69632 view .LVU719
	vcvtdq2ps	xmm22, xmm22	# vect_TL_876.425_339, tmp1141
# src/avx_analysis_code_ablations/opt10_abl_tile_8x256.cpp:164:                         float TR = p.SUB[ind_rtop + k];
	.loc 1 164 31 discriminator 69632 view .LVU720
	vpsrldq	xmm9, xmm9, 8	# tmp1118, vect_TR_872.414,
	vpsrldq	xmm4, xmm4, 8	# tmp1106, MEM <const vector(16) unsigned char> [(const unsigned char *)vectp.411_447],
# src/avx_analysis_code_ablations/opt10_abl_tile_8x256.cpp:165:                         float BL = p.SUB[ind_lbot + k];
	.loc 1 165 31 discriminator 69632 view .LVU721
	vpmovsxwd	xmm20, xmm20	# tmp1132, tmp1133
# src/avx_analysis_code_ablations/opt10_abl_tile_8x256.cpp:164:                         float TR = p.SUB[ind_rtop + k];
	.loc 1 164 31 discriminator 69632 view .LVU722
	vcvtdq2ps	xmm19, xmm19	# vect_TR_872.413_406, tmp1112
	vpmovsxwd	xmm9, xmm9	# tmp1117, tmp1118
# src/avx_analysis_code_ablations/opt10_abl_tile_8x256.cpp:165:                         float BL = p.SUB[ind_lbot + k];
	.loc 1 165 31 discriminator 69632 view .LVU723
	vcvtdq2ps	xmm20, xmm20	# vect_BL_868.407_484, tmp1132
	vfmadd213ps	xmm22, xmm11, XMMWORD PTR [r9]	# tmp1139, _1234, MEM <vector(4) float> [(float *)vectp_vp.417_395]
# src/avx_analysis_code_ablations/opt10_abl_tile_8x256.cpp:164:                         float TR = p.SUB[ind_rtop + k];
	.loc 1 164 31 discriminator 69632 view .LVU724
	vpmovzxbw	xmm4, xmm4	# vect_TR_872.414, tmp1106
# src/avx_analysis_code_ablations/opt10_abl_tile_8x256.cpp:167:                         vp[k] += p.A*TL + p.B*TR + p.C*BL + p.D*BR;
	.loc 1 167 55 discriminator 69632 view .LVU725
	vmulps	xmm14, xmm14, xmm13	# vect__857.409_465, vect_BL_868.407_487, _1171
# src/avx_analysis_code_ablations/opt10_abl_tile_8x256.cpp:164:                         float TR = p.SUB[ind_rtop + k];
	.loc 1 164 31 discriminator 69632 view .LVU726
	vcvtdq2ps	xmm9, xmm9	# vect_TR_872.413_405, tmp1117
# src/avx_analysis_code_ablations/opt10_abl_tile_8x256.cpp:163:                         float TL = p.SUB[ind_ltop + k];
	.loc 1 163 31 discriminator 69632 view .LVU727
	vpsrldq	xmm7, xmm7, 8	# tmp1102, MEM <const vector(16) unsigned char> [(const unsigned char *)vectp.423_352],
# src/avx_analysis_code_ablations/opt10_abl_tile_8x256.cpp:167:                         vp[k] += p.A*TL + p.B*TR + p.C*BL + p.D*BR;
	.loc 1 167 55 discriminator 69632 view .LVU728
	vmulps	xmm20, xmm20, xmm13	# vect__857.409_456, vect_BL_868.407_484, _1171
# src/avx_analysis_code_ablations/opt10_abl_tile_8x256.cpp:163:                         float TL = p.SUB[ind_ltop + k];
	.loc 1 163 31 discriminator 69632 view .LVU729
	vpmovzxbw	xmm7, xmm7	# vect_TL_876.426, tmp1102
.LVL127:
	.loc 1 164 25 is_stmt 1 view .LVU730
	.loc 1 165 25 view .LVU731
	vfmadd132ps	xmm9, xmm6, xmm12	# _657, vect__857.409_462, _1196
# src/avx_analysis_code_ablations/opt10_abl_tile_8x256.cpp:165:                         float BL = p.SUB[ind_lbot + k];
	.loc 1 165 31 is_stmt 0 discriminator 69632 view .LVU732
	vpmovsxwd	xmm6, xmm8	# tmp1126, vect_BL_868.408
	vcvtdq2ps	xmm6, xmm6	# vect_BL_868.407_485, tmp1126
# src/avx_analysis_code_ablations/opt10_abl_tile_8x256.cpp:167:                         vp[k] += p.A*TL + p.B*TR + p.C*BL + p.D*BR;
	.loc 1 167 55 discriminator 69632 view .LVU733
	vmulps	xmm6, xmm6, xmm13	# vect__857.409_459, vect_BL_868.407_485, _1171
	vfmadd132ps	xmm19, xmm14, xmm12	# _741, vect__857.409_465, _1196
# src/avx_analysis_code_ablations/opt10_abl_tile_8x256.cpp:164:                         float TR = p.SUB[ind_rtop + k];
	.loc 1 164 31 discriminator 69632 view .LVU734
	vpmovsxwd	xmm14, xmm4	# tmp1124, vect_TR_872.414
	vcvtdq2ps	xmm14, xmm14	# vect_TR_872.413_403, tmp1124
	vfmadd132ps	xmm14, xmm6, xmm12	# _473, vect__857.409_459, _1196
	vpsrldq	xmm6, xmm4, 8	# tmp1130, vect_TR_872.414,
# src/avx_analysis_code_ablations/opt10_abl_tile_8x256.cpp:166:                         float BR = p.SUB[ind_rbot + k];
	.loc 1 166 54 discriminator 69632 view .LVU735
	vmovdqu	xmm4, XMMWORD PTR [rdi+rbx]	# MEM <const vector(16) unsigned char> [(const unsigned char *)vectp.399_541], MEM <const vector(16) unsigned char> [(const unsigned char *)vectp.399_541]
# src/avx_analysis_code_ablations/opt10_abl_tile_8x256.cpp:164:                         float TR = p.SUB[ind_rtop + k];
	.loc 1 164 31 discriminator 69632 view .LVU736
	vpmovsxwd	xmm6, xmm6	# tmp1129, tmp1130
# src/avx_analysis_code_ablations/opt10_abl_tile_8x256.cpp:166:                         float BR = p.SUB[ind_rbot + k];
	.loc 1 166 31 discriminator 69632 view .LVU737
	vpmovzxbw	xmm8, xmm4	# vect_BR_864.402, MEM <const vector(16) unsigned char> [(const unsigned char *)vectp.399_541]
# src/avx_analysis_code_ablations/opt10_abl_tile_8x256.cpp:164:                         float TR = p.SUB[ind_rtop + k];
	.loc 1 164 31 discriminator 69632 view .LVU738
	vcvtdq2ps	xmm6, xmm6	# vect_TR_872.413_402, tmp1129
	vfmadd132ps	xmm6, xmm20, xmm12	# _1127, vect__857.409_456, _1196
.LVL128:
	.loc 1 166 25 is_stmt 1 view .LVU739
# src/avx_analysis_code_ablations/opt10_abl_tile_8x256.cpp:166:                         float BR = p.SUB[ind_rbot + k];
	.loc 1 166 31 is_stmt 0 discriminator 69632 view .LVU740
	vpmovsxwd	xmm20, xmm8	# tmp1138, vect_BR_864.402
	vpsrldq	xmm4, xmm4, 8	# tmp1136, MEM <const vector(16) unsigned char> [(const unsigned char *)vectp.399_541],
	vcvtdq2ps	xmm20, xmm20	# vect_BR_864.401_529, tmp1138
	vfmadd132ps	xmm20, xmm22, xmm10	# _770, tmp1139, _1146
	vpsrldq	xmm22, xmm8, 8	# tmp1145, vect_BR_864.402,
	vpmovzxbw	xmm4, xmm4	# vect_BR_864.402, tmp1136
.LVL129:
	.loc 1 167 25 is_stmt 1 view .LVU741
# src/avx_analysis_code_ablations/opt10_abl_tile_8x256.cpp:163:                         float TL = p.SUB[ind_ltop + k];
	.loc 1 163 31 is_stmt 0 discriminator 69632 view .LVU742
	vpsrldq	xmm8, xmm21, 8	# tmp1149, vect_TL_876.426,
	vpmovsxwd	xmm21, xmm7	# tmp1155, vect_TL_876.426
# src/avx_analysis_code_ablations/opt10_abl_tile_8x256.cpp:166:                         float BR = p.SUB[ind_rbot + k];
	.loc 1 166 31 discriminator 69632 view .LVU743
	vpmovsxwd	xmm22, xmm22	# tmp1144, tmp1145
# src/avx_analysis_code_ablations/opt10_abl_tile_8x256.cpp:163:                         float TL = p.SUB[ind_ltop + k];
	.loc 1 163 31 discriminator 69632 view .LVU744
	vpmovsxwd	xmm8, xmm8	# tmp1148, tmp1149
	vpsrldq	xmm7, xmm7, 8	# tmp1164, vect_TL_876.426,
	vcvtdq2ps	xmm21, xmm21	# vect_TL_876.425_334, tmp1155
# src/avx_analysis_code_ablations/opt10_abl_tile_8x256.cpp:166:                         float BR = p.SUB[ind_rbot + k];
	.loc 1 166 31 discriminator 69632 view .LVU745
	vcvtdq2ps	xmm22, xmm22	# vect_BR_864.401_528, tmp1144
# src/avx_analysis_code_ablations/opt10_abl_tile_8x256.cpp:163:                         float TL = p.SUB[ind_ltop + k];
	.loc 1 163 31 discriminator 69632 view .LVU746
	vcvtdq2ps	xmm8, xmm8	# vect_TL_876.425_338, tmp1148
	vfmadd213ps	xmm8, xmm11, XMMWORD PTR 16[r9]	# tmp1146, _1234, MEM <vector(4) float> [(float *)vectp_vp.417_395 + 16B]
	vfmadd213ps	xmm21, xmm11, XMMWORD PTR 32[r9]	# tmp1153, _1234, MEM <vector(4) float> [(float *)vectp_vp.417_395 + 32B]
	vpmovsxwd	xmm7, xmm7	# tmp1163, tmp1164
	vcvtdq2ps	xmm7, xmm7	# vect_TL_876.425_332, tmp1163
# src/avx_analysis_code_ablations/opt10_abl_tile_8x256.cpp:167:                         vp[k] += p.A*TL + p.B*TR + p.C*BL + p.D*BR;
	.loc 1 167 31 discriminator 69632 view .LVU747
	vfmadd213ps	xmm7, xmm11, XMMWORD PTR 48[r9]	# tmp1161, _1234, MEM <vector(4) float> [(float *)vectp_vp.417_395 + 48B]
	vaddps	xmm19, xmm19, xmm20	# vect__853.431_237, _741, _770
	vfmadd132ps	xmm22, xmm8, xmm10	# _688, tmp1146, _1146
# src/avx_analysis_code_ablations/opt10_abl_tile_8x256.cpp:166:                         float BR = p.SUB[ind_rbot + k];
	.loc 1 166 31 discriminator 69632 view .LVU748
	vpmovsxwd	xmm8, xmm4	# tmp1152, vect_BR_864.402
# src/avx_analysis_code_ablations/opt10_abl_tile_8x256.cpp:167:                         vp[k] += p.A*TL + p.B*TR + p.C*BL + p.D*BR;
	.loc 1 167 31 discriminator 69632 view .LVU749
	vmovups	XMMWORD PTR [r9], xmm19	# MEM <vector(4) float> [(float *)vectp_vp.417_395], vect__853.431_237
# src/avx_analysis_code_ablations/opt10_abl_tile_8x256.cpp:166:                         float BR = p.SUB[ind_rbot + k];
	.loc 1 166 31 discriminator 69632 view .LVU750
	vpsrldq	xmm4, xmm4, 8	# tmp1160, vect_BR_864.402,
	vcvtdq2ps	xmm8, xmm8	# vect_BR_864.401_527, tmp1152
	vfmadd132ps	xmm8, xmm21, xmm10	# _629, tmp1153, _1146
	vpmovsxwd	xmm4, xmm4	# tmp1159, tmp1160
	vcvtdq2ps	xmm4, xmm4	# vect_BR_864.401_526, tmp1159
# src/avx_analysis_code_ablations/opt10_abl_tile_8x256.cpp:167:                         vp[k] += p.A*TL + p.B*TR + p.C*BL + p.D*BR;
	.loc 1 167 31 discriminator 69632 view .LVU751
	vfmadd132ps	xmm4, xmm7, xmm10	# tmp1157, tmp1161, _1146
	vaddps	xmm9, xmm9, xmm22	# vect__853.431_233, _657, _688
	vaddps	xmm14, xmm14, xmm8	# vect__853.431_232, _473, _629
	vaddps	xmm4, xmm4, xmm6	# vect__853.431, tmp1157, _1127
	vmovups	XMMWORD PTR 16[r9], xmm9	# MEM <vector(4) float> [(float *)vectp_vp.417_395 + 16B], vect__853.431_233
	vmovups	XMMWORD PTR 32[r9], xmm14	# MEM <vector(4) float> [(float *)vectp_vp.417_395 + 32B], vect__853.431_232
	vmovups	XMMWORD PTR 48[r9], xmm4	# MEM <vector(4) float> [(float *)vectp_vp.417_395 + 48B], vect__853.431
.LBE2711:
	.loc 1 162 21 is_stmt 1 discriminator 1 view .LVU752
	.loc 1 162 39 discriminator 2 view .LVU753
	mov	r9d, r12d	# niters_vector_mult_vf.396, niters.394
	and	r9d, -16	# niters_vector_mult_vf.396,
	test	r12b, 15	# niters.394,
	je	.L37	#,
	.loc 1 162 39 is_stmt 0 discriminator 2 view .LVU754
	add	r8d, r9d	# tmp.437, niters_vector_mult_vf.396
.LVL130:
.L40:
	.loc 1 162 39 discriminator 2 view .LVU755
	sub	r12d, r9d	# niters.434, niters_vector_mult_vf.396
	lea	ebx, -1[r12]	# _666,
	cmp	ebx, 6	# _666,
	jbe	.L41	#,
	add	r9d, r10d	# _1152, niters_vector_mult_vf.356
.LBB2712:
# src/avx_analysis_code_ablations/opt10_abl_tile_8x256.cpp:164:                         float TR = p.SUB[ind_rtop + k];
	.loc 1 164 54 discriminator 133120 view .LVU756
	mov	r14, QWORD PTR 272[rsp]	# ind_rtop, %sfp
	mov	r9d, r9d	# _1152, _1152
# src/avx_analysis_code_ablations/opt10_abl_tile_8x256.cpp:163:                         float TL = p.SUB[ind_ltop + k];
	.loc 1 163 54 discriminator 133120 view .LVU757
	vmovq	xmm4, QWORD PTR [rsi+r9]	# MEM <const vector(8) unsigned char> [(const unsigned char *)vectp.466_1238], MEM <const vector(8) unsigned char> [(const unsigned char *)vectp.466_1238]
# src/avx_analysis_code_ablations/opt10_abl_tile_8x256.cpp:164:                         float TR = p.SUB[ind_rtop + k];
	.loc 1 164 54 discriminator 133120 view .LVU758
	add	r14, rdi	# tmp1182, _108
	lea	r13, [r15+r9]	# _1153,
	lea	rbx, [rax+r9*4]	# vectp_vp.460,
	.loc 1 163 25 is_stmt 1 view .LVU759
# src/avx_analysis_code_ablations/opt10_abl_tile_8x256.cpp:163:                         float TL = p.SUB[ind_ltop + k];
	.loc 1 163 31 is_stmt 0 discriminator 133120 view .LVU760
	vpmovzxbw	xmm7, xmm4	# vect_TL_647.469, MEM <const vector(8) unsigned char> [(const unsigned char *)vectp.466_1238]
	vpsrlq	xmm4, xmm4, 32	# tmp1181, MEM <const vector(8) unsigned char> [(const unsigned char *)vectp.466_1238],
	vpmovzxbw	xmm6, xmm4	# vect_TL_647.469, tmp1181
# src/avx_analysis_code_ablations/opt10_abl_tile_8x256.cpp:164:                         float TR = p.SUB[ind_rtop + k];
	.loc 1 164 54 discriminator 133120 view .LVU761
	vmovq	xmm4, QWORD PTR [r14+r9]	# MEM <const vector(8) unsigned char> [(const unsigned char *)vectp.453_1200], MEM <const vector(8) unsigned char> [(const unsigned char *)vectp.453_1200]
# src/avx_analysis_code_ablations/opt10_abl_tile_8x256.cpp:163:                         float TL = p.SUB[ind_ltop + k];
	.loc 1 163 31 discriminator 133120 view .LVU762
	vmovq	r10, xmm6	# vect_TL_647.469, vect_TL_647.469
.LVL131:
	.loc 1 164 25 is_stmt 1 view .LVU763
# src/avx_analysis_code_ablations/opt10_abl_tile_8x256.cpp:165:                         float BL = p.SUB[ind_lbot + k];
	.loc 1 165 54 is_stmt 0 discriminator 133120 view .LVU764
	vmovq	xmm6, QWORD PTR [rcx+r9]	# MEM <const vector(8) unsigned char> [(const unsigned char *)vectp.446_1175], MEM <const vector(8) unsigned char> [(const unsigned char *)vectp.446_1175]
	mov	r9d, r12d	# niters_vector_mult_vf.436, niters.434
# src/avx_analysis_code_ablations/opt10_abl_tile_8x256.cpp:164:                         float TR = p.SUB[ind_rtop + k];
	.loc 1 164 31 discriminator 133120 view .LVU765
	vpmovzxbw	xmm9, xmm4	# vect_TR_636.456, MEM <const vector(8) unsigned char> [(const unsigned char *)vectp.453_1200]
	vpsrlq	xmm4, xmm4, 32	# tmp1185, MEM <const vector(8) unsigned char> [(const unsigned char *)vectp.453_1200],
	and	r9d, -8	# niters_vector_mult_vf.436,
	and	r12d, 7	# niters.434,
	vpmovzxwd	xmm14, xmm9	# vect_TR_636.455_1209, vect_TR_636.456
# src/avx_analysis_code_ablations/opt10_abl_tile_8x256.cpp:165:                         float BL = p.SUB[ind_lbot + k];
	.loc 1 165 31 discriminator 133120 view .LVU766
	vpmovzxbw	xmm8, xmm6	# vect_BL_617.449, MEM <const vector(8) unsigned char> [(const unsigned char *)vectp.446_1175]
# src/avx_analysis_code_ablations/opt10_abl_tile_8x256.cpp:164:                         float TR = p.SUB[ind_rtop + k];
	.loc 1 164 31 discriminator 133120 view .LVU767
	vpmovzxbw	xmm4, xmm4	# vect_TR_636.456, tmp1185
.LVL132:
	.loc 1 165 25 is_stmt 1 view .LVU768
# src/avx_analysis_code_ablations/opt10_abl_tile_8x256.cpp:164:                         float TR = p.SUB[ind_rtop + k];
	.loc 1 164 31 is_stmt 0 discriminator 133120 view .LVU769
	vpsrlq	xmm9, xmm9, 32	# tmp1207, vect_TR_636.456,
# src/avx_analysis_code_ablations/opt10_abl_tile_8x256.cpp:165:                         float BL = p.SUB[ind_lbot + k];
	.loc 1 165 31 discriminator 133120 view .LVU770
	vpsrlq	xmm6, xmm6, 32	# tmp1189, MEM <const vector(8) unsigned char> [(const unsigned char *)vectp.446_1175],
# src/avx_analysis_code_ablations/opt10_abl_tile_8x256.cpp:164:                         float TR = p.SUB[ind_rtop + k];
	.loc 1 164 31 discriminator 133120 view .LVU771
	vmovq	xmm14, xmm14	# tmp1192, vect_TR_636.455_1209
	vcvtdq2ps	xmm20, xmm14	# tmp1193, tmp1192
# src/avx_analysis_code_ablations/opt10_abl_tile_8x256.cpp:165:                         float BL = p.SUB[ind_lbot + k];
	.loc 1 165 31 discriminator 133120 view .LVU772
	vpmovzxwd	xmm14, xmm8	# vect_BL_617.448_1184, vect_BL_617.449
	vpsrlq	xmm8, xmm8, 32	# tmp1212, vect_BL_617.449,
# src/avx_analysis_code_ablations/opt10_abl_tile_8x256.cpp:164:                         float TR = p.SUB[ind_rtop + k];
	.loc 1 164 31 discriminator 133120 view .LVU773
	vpmovzxwd	xmm9, xmm9	# vect_TR_636.455_1210, tmp1207
# src/avx_analysis_code_ablations/opt10_abl_tile_8x256.cpp:165:                         float BL = p.SUB[ind_lbot + k];
	.loc 1 165 31 discriminator 133120 view .LVU774
	vpmovzxwd	xmm8, xmm8	# vect_BL_617.448_1185, tmp1212
# src/avx_analysis_code_ablations/opt10_abl_tile_8x256.cpp:164:                         float TR = p.SUB[ind_rtop + k];
	.loc 1 164 31 discriminator 133120 view .LVU775
	vmovq	xmm9, xmm9	# tmp1209, vect_TR_636.455_1210
# src/avx_analysis_code_ablations/opt10_abl_tile_8x256.cpp:165:                         float BL = p.SUB[ind_lbot + k];
	.loc 1 165 31 discriminator 133120 view .LVU776
	vpmovzxbw	xmm6, xmm6	# vect_BL_617.449, tmp1189
	vmovq	xmm8, xmm8	# tmp1214, vect_BL_617.448_1185
# src/avx_analysis_code_ablations/opt10_abl_tile_8x256.cpp:164:                         float TR = p.SUB[ind_rtop + k];
	.loc 1 164 31 discriminator 133120 view .LVU777
	vcvtdq2ps	xmm9, xmm9	# tmp1210, tmp1209
# src/avx_analysis_code_ablations/opt10_abl_tile_8x256.cpp:165:                         float BL = p.SUB[ind_lbot + k];
	.loc 1 165 31 discriminator 133120 view .LVU778
	vmovq	xmm19, xmm14	# tmp1196, vect_BL_617.448_1184
	vcvtdq2ps	xmm8, xmm8	# tmp1215, tmp1214
# src/avx_analysis_code_ablations/opt10_abl_tile_8x256.cpp:167:                         vp[k] += p.A*TL + p.B*TR + p.C*BL + p.D*BR;
	.loc 1 167 55 discriminator 133120 view .LVU779
	vmulps	xmm8, xmm8, xmm13	# tmp1219, tmp1215, _1171
# src/avx_analysis_code_ablations/opt10_abl_tile_8x256.cpp:165:                         float BL = p.SUB[ind_lbot + k];
	.loc 1 165 31 discriminator 133120 view .LVU780
	vcvtdq2ps	xmm19, xmm19	# tmp1197, tmp1196
# src/avx_analysis_code_ablations/opt10_abl_tile_8x256.cpp:167:                         vp[k] += p.A*TL + p.B*TR + p.C*BL + p.D*BR;
	.loc 1 167 55 discriminator 133120 view .LVU781
	vmulps	xmm19, xmm19, xmm13	# tmp1201, tmp1197, _1171
	vfmadd132ps	xmm9, xmm8, xmm12	# tmp1210, tmp1219, _1196
# src/avx_analysis_code_ablations/opt10_abl_tile_8x256.cpp:164:                         float TR = p.SUB[ind_rtop + k];
	.loc 1 164 31 discriminator 133120 view .LVU782
	vpmovzxwd	xmm8, xmm4	# vect_TR_636.455_1211, vect_TR_636.456
	vmovq	xmm8, xmm8	# tmp1226, vect_TR_636.455_1211
	vfmadd231ps	xmm19, xmm12, xmm20	# tmp1205, _1196, tmp1193
	vcvtdq2ps	xmm14, xmm8	# tmp1227, tmp1226
	vmovaps	xmm21, xmm9	# tmp1223, tmp1210
# src/avx_analysis_code_ablations/opt10_abl_tile_8x256.cpp:165:                         float BL = p.SUB[ind_lbot + k];
	.loc 1 165 31 discriminator 133120 view .LVU783
	vpmovzxwd	xmm9, xmm6	# vect_BL_617.448_1186, vect_BL_617.449
	vmovq	xmm9, xmm9	# tmp1230, vect_BL_617.448_1186
	vpsrlq	xmm6, xmm6, 32	# tmp1246, vect_BL_617.449,
	vcvtdq2ps	xmm9, xmm9	# tmp1231, tmp1230
# src/avx_analysis_code_ablations/opt10_abl_tile_8x256.cpp:167:                         vp[k] += p.A*TL + p.B*TR + p.C*BL + p.D*BR;
	.loc 1 167 55 discriminator 133120 view .LVU784
	vmulps	xmm9, xmm9, xmm13	# tmp1235, tmp1231, _1171
# src/avx_analysis_code_ablations/opt10_abl_tile_8x256.cpp:165:                         float BL = p.SUB[ind_lbot + k];
	.loc 1 165 31 discriminator 133120 view .LVU785
	vpmovzxwd	xmm6, xmm6	# vect_BL_617.448_1187, tmp1246
	vmovq	xmm6, xmm6	# tmp1248, vect_BL_617.448_1187
	vcvtdq2ps	xmm6, xmm6	# tmp1249, tmp1248
# src/avx_analysis_code_ablations/opt10_abl_tile_8x256.cpp:167:                         vp[k] += p.A*TL + p.B*TR + p.C*BL + p.D*BR;
	.loc 1 167 55 discriminator 133120 view .LVU786
	vmulps	xmm6, xmm6, xmm13	# tmp1253, tmp1249, _1171
	vfmadd132ps	xmm14, xmm9, xmm12	# tmp1227, tmp1235, _1196
# src/avx_analysis_code_ablations/opt10_abl_tile_8x256.cpp:167:                         vp[k] += p.A*TL + p.B*TR + p.C*BL + p.D*BR;
	.loc 1 167 29 discriminator 133120 view .LVU787
	vmovq	xmm9, QWORD PTR [rbx]	# vect__603.461_1227, MEM <vector(2) float> [(float *)vectp_vp.460_1221]
	vmovaps	xmm22, xmm14	# tmp1239, tmp1227
# src/avx_analysis_code_ablations/opt10_abl_tile_8x256.cpp:164:                         float TR = p.SUB[ind_rtop + k];
	.loc 1 164 31 discriminator 133120 view .LVU788
	vpsrlq	xmm14, xmm4, 32	# tmp1241, vect_TR_636.456,
# src/avx_analysis_code_ablations/opt10_abl_tile_8x256.cpp:166:                         float BR = p.SUB[ind_rbot + k];
	.loc 1 166 54 discriminator 133120 view .LVU789
	vmovq	xmm4, QWORD PTR [rdi+r13]	# MEM <const vector(8) unsigned char> [(const unsigned char *)vectp.439_1150], MEM <const vector(8) unsigned char> [(const unsigned char *)vectp.439_1150]
# src/avx_analysis_code_ablations/opt10_abl_tile_8x256.cpp:164:                         float TR = p.SUB[ind_rtop + k];
	.loc 1 164 31 discriminator 133120 view .LVU790
	vpmovzxwd	xmm14, xmm14	# vect_TR_636.455_1212, tmp1241
	vmovq	xmm14, xmm14	# tmp1243, vect_TR_636.455_1212
	vcvtdq2ps	xmm14, xmm14	# tmp1244, tmp1243
	vfmadd132ps	xmm14, xmm6, xmm12	# tmp1257, tmp1253, _1196
.LVL133:
	.loc 1 166 25 is_stmt 1 view .LVU791
# src/avx_analysis_code_ablations/opt10_abl_tile_8x256.cpp:166:                         float BR = p.SUB[ind_rbot + k];
	.loc 1 166 31 is_stmt 0 discriminator 133120 view .LVU792
	vpmovzxbw	xmm6, xmm4	# vect_BR_609.442, MEM <const vector(8) unsigned char> [(const unsigned char *)vectp.439_1150]
	vpmovzxwd	xmm8, xmm6	# vect_BR_609.441_1159, vect_BR_609.442
	vpsrlq	xmm6, xmm6, 32	# tmp1279, vect_BR_609.442,
	vmovq	xmm8, xmm8	# tmp1262, vect_BR_609.441_1159
	vpsrlq	xmm4, xmm4, 32	# tmp1259, MEM <const vector(8) unsigned char> [(const unsigned char *)vectp.439_1150],
	vpmovzxwd	xmm6, xmm6	# vect_BR_609.441_1160, tmp1279
	vcvtdq2ps	xmm20, xmm8	# tmp1263, tmp1262
# src/avx_analysis_code_ablations/opt10_abl_tile_8x256.cpp:163:                         float TL = p.SUB[ind_ltop + k];
	.loc 1 163 31 discriminator 133120 view .LVU793
	vpmovzxwd	xmm8, xmm7	# vect_TL_647.468_1247, vect_TL_647.469
	vpsrlq	xmm7, xmm7, 32	# tmp1285, vect_TL_647.469,
# src/avx_analysis_code_ablations/opt10_abl_tile_8x256.cpp:166:                         float BR = p.SUB[ind_rbot + k];
	.loc 1 166 31 discriminator 133120 view .LVU794
	vpmovzxbw	xmm4, xmm4	# vect_BR_609.442, tmp1259
.LVL134:
	.loc 1 167 25 is_stmt 1 view .LVU795
# src/avx_analysis_code_ablations/opt10_abl_tile_8x256.cpp:163:                         float TL = p.SUB[ind_ltop + k];
	.loc 1 163 31 is_stmt 0 discriminator 133120 view .LVU796
	vmovq	xmm8, xmm8	# tmp1267, vect_TL_647.468_1247
	vpmovzxwd	xmm7, xmm7	# vect_TL_647.468_1248, tmp1285
# src/avx_analysis_code_ablations/opt10_abl_tile_8x256.cpp:166:                         float BR = p.SUB[ind_rbot + k];
	.loc 1 166 31 discriminator 133120 view .LVU797
	vmovq	xmm6, xmm6	# tmp1281, vect_BR_609.441_1160
# src/avx_analysis_code_ablations/opt10_abl_tile_8x256.cpp:163:                         float TL = p.SUB[ind_ltop + k];
	.loc 1 163 31 discriminator 133120 view .LVU798
	vcvtdq2ps	xmm8, xmm8	# tmp1268, tmp1267
	vfmadd231ps	xmm9, xmm11, xmm8	# tmp1273, _1234, tmp1268
# src/avx_analysis_code_ablations/opt10_abl_tile_8x256.cpp:167:                         vp[k] += p.A*TL + p.B*TR + p.C*BL + p.D*BR;
	.loc 1 167 29 discriminator 133120 view .LVU799
	vmovq	xmm8, QWORD PTR 8[rbx]	# vect__603.462_1229, MEM <vector(2) float> [(float *)vectp_vp.460_1221 + 8B]
# src/avx_analysis_code_ablations/opt10_abl_tile_8x256.cpp:163:                         float TL = p.SUB[ind_ltop + k];
	.loc 1 163 31 discriminator 133120 view .LVU800
	vmovq	xmm7, xmm7	# tmp1287, vect_TL_647.468_1248
# src/avx_analysis_code_ablations/opt10_abl_tile_8x256.cpp:166:                         float BR = p.SUB[ind_rbot + k];
	.loc 1 166 31 discriminator 133120 view .LVU801
	vcvtdq2ps	xmm6, xmm6	# tmp1282, tmp1281
# src/avx_analysis_code_ablations/opt10_abl_tile_8x256.cpp:163:                         float TL = p.SUB[ind_ltop + k];
	.loc 1 163 31 discriminator 133120 view .LVU802
	vcvtdq2ps	xmm7, xmm7	# tmp1288, tmp1287
	vfmadd132ps	xmm7, xmm8, xmm11	# tmp1293, vect__603.462_1229, _1234
	vfmadd132ps	xmm20, xmm9, xmm10	# tmp1277, tmp1273, _1146
	vmovq	xmm9, r10	# vect_TL_647.469, vect_TL_647.469
	vpmovzxwd	xmm8, xmm9	# vect_TL_647.468_1249, vect_TL_647.469
# src/avx_analysis_code_ablations/opt10_abl_tile_8x256.cpp:167:                         vp[k] += p.A*TL + p.B*TR + p.C*BL + p.D*BR;
	.loc 1 167 29 discriminator 133120 view .LVU803
	vmovq	xmm9, QWORD PTR 16[rbx]	# vect__603.463_1231, MEM <vector(2) float> [(float *)vectp_vp.460_1221 + 16B]
# src/avx_analysis_code_ablations/opt10_abl_tile_8x256.cpp:163:                         float TL = p.SUB[ind_ltop + k];
	.loc 1 163 31 discriminator 133120 view .LVU804
	vmovq	xmm8, xmm8	# tmp1305, vect_TL_647.468_1249
	vfmadd132ps	xmm6, xmm7, xmm10	# tmp1297, tmp1293, _1146
# src/avx_analysis_code_ablations/opt10_abl_tile_8x256.cpp:166:                         float BR = p.SUB[ind_rbot + k];
	.loc 1 166 31 discriminator 133120 view .LVU805
	vpmovzxwd	xmm7, xmm4	# vect_BR_609.441_1161, vect_BR_609.442
# src/avx_analysis_code_ablations/opt10_abl_tile_8x256.cpp:163:                         float TL = p.SUB[ind_ltop + k];
	.loc 1 163 31 discriminator 133120 view .LVU806
	vcvtdq2ps	xmm8, xmm8	# tmp1306, tmp1305
	vfmadd132ps	xmm8, xmm9, xmm11	# tmp1311, vect__603.463_1231, _1234
# src/avx_analysis_code_ablations/opt10_abl_tile_8x256.cpp:166:                         float BR = p.SUB[ind_rbot + k];
	.loc 1 166 31 discriminator 133120 view .LVU807
	vmovq	xmm7, xmm7	# tmp1300, vect_BR_609.441_1161
# src/avx_analysis_code_ablations/opt10_abl_tile_8x256.cpp:163:                         float TL = p.SUB[ind_ltop + k];
	.loc 1 163 31 discriminator 133120 view .LVU808
	vmovq	xmm9, r10	# tmp1898, vect_TL_647.469
# src/avx_analysis_code_ablations/opt10_abl_tile_8x256.cpp:166:                         float BR = p.SUB[ind_rbot + k];
	.loc 1 166 31 discriminator 133120 view .LVU809
	vcvtdq2ps	xmm7, xmm7	# tmp1301, tmp1300
	vpsrlq	xmm4, xmm4, 32	# tmp1318, vect_BR_609.442,
	vpmovzxwd	xmm4, xmm4	# vect_BR_609.441_1162, tmp1318
	vmovq	xmm4, xmm4	# tmp1320, vect_BR_609.441_1162
	vcvtdq2ps	xmm4, xmm4	# tmp1321, tmp1320
# src/avx_analysis_code_ablations/opt10_abl_tile_8x256.cpp:167:                         vp[k] += p.A*TL + p.B*TR + p.C*BL + p.D*BR;
	.loc 1 167 31 discriminator 133120 view .LVU810
	vaddps	xmm6, xmm21, xmm6	# tmp1347, tmp1223, tmp1297
	vfmadd132ps	xmm7, xmm8, xmm10	# tmp1315, tmp1311, _1146
# src/avx_analysis_code_ablations/opt10_abl_tile_8x256.cpp:163:                         float TL = p.SUB[ind_ltop + k];
	.loc 1 163 31 discriminator 133120 view .LVU811
	vpsrlq	xmm8, xmm9, 32	# tmp1324, tmp1898,
# src/avx_analysis_code_ablations/opt10_abl_tile_8x256.cpp:167:                         vp[k] += p.A*TL + p.B*TR + p.C*BL + p.D*BR;
	.loc 1 167 29 discriminator 133120 view .LVU812
	vmovq	xmm9, QWORD PTR 24[rbx]	# vect__603.464_1233, MEM <vector(2) float> [(float *)vectp_vp.460_1221 + 24B]
# src/avx_analysis_code_ablations/opt10_abl_tile_8x256.cpp:163:                         float TL = p.SUB[ind_ltop + k];
	.loc 1 163 31 discriminator 133120 view .LVU813
	vpmovzxwd	xmm8, xmm8	# vect_TL_647.468_1250, tmp1324
	vmovq	xmm8, xmm8	# tmp1326, vect_TL_647.468_1250
# src/avx_analysis_code_ablations/opt10_abl_tile_8x256.cpp:167:                         vp[k] += p.A*TL + p.B*TR + p.C*BL + p.D*BR;
	.loc 1 167 31 discriminator 133120 view .LVU814
	vmovlps	QWORD PTR 8[rbx], xmm6	# MEM <vector(2) float> [(float *)vectp_vp.460_1221 + 8B], tmp1347
# src/avx_analysis_code_ablations/opt10_abl_tile_8x256.cpp:163:                         float TL = p.SUB[ind_ltop + k];
	.loc 1 163 31 discriminator 133120 view .LVU815
	vcvtdq2ps	xmm8, xmm8	# tmp1327, tmp1326
# src/avx_analysis_code_ablations/opt10_abl_tile_8x256.cpp:167:                         vp[k] += p.A*TL + p.B*TR + p.C*BL + p.D*BR;
	.loc 1 167 31 discriminator 133120 view .LVU816
	vfmadd132ps	xmm8, xmm9, xmm11	# tmp1332, vect__603.464_1233, _1234
	vaddps	xmm6, xmm22, xmm7	# tmp1351, tmp1239, tmp1315
	vfmadd132ps	xmm4, xmm8, xmm10	# tmp1336, tmp1332, _1146
	vaddps	xmm8, xmm19, xmm20	# tmp1343, tmp1205, tmp1277
	vmovlps	QWORD PTR 16[rbx], xmm6	# MEM <vector(2) float> [(float *)vectp_vp.460_1221 + 16B], tmp1351
	vmovlps	QWORD PTR [rbx], xmm8	# MEM <vector(2) float> [(float *)vectp_vp.460_1221], tmp1343
	vaddps	xmm4, xmm4, xmm14	# tmp1339, tmp1336, tmp1257
	vmovlps	QWORD PTR 24[rbx], xmm4	# MEM <vector(2) float> [(float *)vectp_vp.460_1221 + 24B], tmp1339
.LBE2712:
	.loc 1 162 21 is_stmt 1 discriminator 1 view .LVU817
	.loc 1 162 39 discriminator 2 view .LVU818
	je	.L37	#,
	.loc 1 162 39 is_stmt 0 discriminator 2 view .LVU819
	add	r8d, r9d	# tmp.437, niters_vector_mult_vf.436
.LVL135:
.L41:
.LBB2713:
	.loc 1 163 25 is_stmt 1 view .LVU820
# src/avx_analysis_code_ablations/opt10_abl_tile_8x256.cpp:163:                         float TL = p.SUB[ind_ltop + k];
	.loc 1 163 53 is_stmt 0 discriminator 163840 view .LVU821
	movsxd	r10, r8d	# _608, tmp.437
.LVL136:
	.loc 1 164 25 is_stmt 1 view .LVU822
	.loc 1 165 25 view .LVU823
	.loc 1 166 25 view .LVU824
	.loc 1 167 25 view .LVU825
# src/avx_analysis_code_ablations/opt10_abl_tile_8x256.cpp:164:                         float TR = p.SUB[ind_rtop + k];
	.loc 1 164 31 is_stmt 0 discriminator 163840 view .LVU826
	mov	r9, QWORD PTR 272[rsp]	# ind_rtop, %sfp
.LBE2713:
# src/avx_analysis_code_ablations/opt10_abl_tile_8x256.cpp:162:                     for (int k = 0; k < remaining; ++k) {
	.loc 1 162 39 discriminator 163842 view .LVU827
	mov	r14d, DWORD PTR 264[rsp]	# remaining, %sfp
.LBB2714:
# src/avx_analysis_code_ablations/opt10_abl_tile_8x256.cpp:163:                         float TL = p.SUB[ind_ltop + k];
	.loc 1 163 31 discriminator 163840 view .LVU828
	movzx	r12d, BYTE PTR [rsi+r10]	# *_910, *_910
# src/avx_analysis_code_ablations/opt10_abl_tile_8x256.cpp:167:                         vp[k] += p.A*TL + p.B*TR + p.C*BL + p.D*BR;
	.loc 1 167 29 discriminator 163840 view .LVU829
	lea	rbx, 0[0+r10*4]	# _118,
	mov	QWORD PTR 256[rsp], rbx	# %sfp, _118
# src/avx_analysis_code_ablations/opt10_abl_tile_8x256.cpp:163:                         float TL = p.SUB[ind_ltop + k];
	.loc 1 163 31 discriminator 163840 view .LVU830
	vcvtusi2ss	xmm4, xmm5, r12d	# tmp1584, tmp1583, *_910
# src/avx_analysis_code_ablations/opt10_abl_tile_8x256.cpp:164:                         float TR = p.SUB[ind_rtop + k];
	.loc 1 164 54 discriminator 163840 view .LVU831
	lea	r12, [rdi+r10]	# tmp1357,
# src/avx_analysis_code_ablations/opt10_abl_tile_8x256.cpp:165:                         float BL = p.SUB[ind_lbot + k];
	.loc 1 165 31 discriminator 163840 view .LVU832
	movzx	r10d, BYTE PTR [rcx+r10]	# *_274, *_274
.LVL137:
# src/avx_analysis_code_ablations/opt10_abl_tile_8x256.cpp:164:                         float TR = p.SUB[ind_rtop + k];
	.loc 1 164 31 discriminator 163840 view .LVU833
	movzx	r13d, BYTE PTR [r12+r9]	# *_109, *_109
# src/avx_analysis_code_ablations/opt10_abl_tile_8x256.cpp:165:                         float BL = p.SUB[ind_lbot + k];
	.loc 1 165 31 discriminator 163840 view .LVU834
	vcvtusi2ss	xmm6, xmm5, r10d	# tmp1586, tmp1583, *_274
# src/avx_analysis_code_ablations/opt10_abl_tile_8x256.cpp:166:                         float BR = p.SUB[ind_rbot + k];
	.loc 1 166 31 discriminator 163840 view .LVU835
	movzx	r10d, BYTE PTR [r12+r15]	# *_275, *_275
	vmovaps	xmm7, xmm4	# TL_962, TL_962
# src/avx_analysis_code_ablations/opt10_abl_tile_8x256.cpp:164:                         float TR = p.SUB[ind_rtop + k];
	.loc 1 164 31 discriminator 163840 view .LVU836
	vcvtusi2ss	xmm4, xmm5, r13d	# tmp1585, tmp1583, *_109
	vfmadd213ss	xmm7, xmm18, DWORD PTR [rax+rbx]	# TL_962, _79, *_276
# src/avx_analysis_code_ablations/opt10_abl_tile_8x256.cpp:167:                         vp[k] += p.A*TL + p.B*TR + p.C*BL + p.D*BR;
	.loc 1 167 55 discriminator 163840 view .LVU837
	vmulss	xmm6, xmm6, xmm16	# _122, BL_114, _81
	vfmadd231ss	xmm6, xmm17, xmm4	# _1093, _80, TR_111
# src/avx_analysis_code_ablations/opt10_abl_tile_8x256.cpp:166:                         float BR = p.SUB[ind_rbot + k];
	.loc 1 166 31 discriminator 163840 view .LVU838
	vcvtusi2ss	xmm4, xmm5, r10d	# tmp1587, tmp1583, *_275
.LBE2714:
# src/avx_analysis_code_ablations/opt10_abl_tile_8x256.cpp:162:                     for (int k = 0; k < remaining; ++k) {
	.loc 1 162 21 discriminator 163841 view .LVU839
	lea	r10d, 1[r8]	#,
.LBB2715:
# src/avx_analysis_code_ablations/opt10_abl_tile_8x256.cpp:167:                         vp[k] += p.A*TL + p.B*TR + p.C*BL + p.D*BR;
	.loc 1 167 31 discriminator 163840 view .LVU840
	vfmadd132ss	xmm4, xmm7, xmm15	# tmp1366, _1087, _82
	vaddss	xmm4, xmm4, xmm6	# _128, tmp1366, _1093
	vmovss	DWORD PTR [rax+rbx], xmm4	# *_276, _128
.LBE2715:
	.loc 1 162 21 is_stmt 1 discriminator 1 view .LVU841
.LVL138:
	.loc 1 162 39 discriminator 2 view .LVU842
# src/avx_analysis_code_ablations/opt10_abl_tile_8x256.cpp:162:                     for (int k = 0; k < remaining; ++k) {
	.loc 1 162 39 is_stmt 0 discriminator 163842 view .LVU843
	cmp	r10d, r14d	# k, remaining
	jge	.L37	#,
.LBB2716:
	.loc 1 163 25 is_stmt 1 view .LVU844
.LVL139:
	.loc 1 164 25 view .LVU845
	.loc 1 165 25 view .LVU846
	.loc 1 166 25 view .LVU847
	.loc 1 167 25 view .LVU848
# src/avx_analysis_code_ablations/opt10_abl_tile_8x256.cpp:163:                         float TL = p.SUB[ind_ltop + k];
	.loc 1 163 31 is_stmt 0 discriminator 196608 view .LVU849
	movzx	r12d, BYTE PTR [rsi+r10]	# *_279, *_279
	vcvtusi2ss	xmm4, xmm5, r12d	# tmp1588, tmp1583, *_279
# src/avx_analysis_code_ablations/opt10_abl_tile_8x256.cpp:164:                         float TR = p.SUB[ind_rtop + k];
	.loc 1 164 54 discriminator 196608 view .LVU850
	lea	r12, [rdi+r10]	# tmp1377,
# src/avx_analysis_code_ablations/opt10_abl_tile_8x256.cpp:165:                         float BL = p.SUB[ind_lbot + k];
	.loc 1 165 31 discriminator 196608 view .LVU851
	movzx	r10d, BYTE PTR [rcx+r10]	# *_874, *_874
.LVL140:
# src/avx_analysis_code_ablations/opt10_abl_tile_8x256.cpp:164:                         float TR = p.SUB[ind_rtop + k];
	.loc 1 164 31 discriminator 196608 view .LVU852
	movzx	r13d, BYTE PTR [r12+r9]	# *_878, *_878
# src/avx_analysis_code_ablations/opt10_abl_tile_8x256.cpp:165:                         float BL = p.SUB[ind_lbot + k];
	.loc 1 165 31 discriminator 196608 view .LVU853
	vcvtusi2ss	xmm6, xmm5, r10d	# tmp1590, tmp1583, *_874
# src/avx_analysis_code_ablations/opt10_abl_tile_8x256.cpp:166:                         float BR = p.SUB[ind_rbot + k];
	.loc 1 166 31 discriminator 196608 view .LVU854
	movzx	r10d, BYTE PTR [r12+r15]	# *_870, *_870
	vmovaps	xmm7, xmm4	# TL_880, TL_880
# src/avx_analysis_code_ablations/opt10_abl_tile_8x256.cpp:164:                         float TR = p.SUB[ind_rtop + k];
	.loc 1 164 31 discriminator 196608 view .LVU855
	vcvtusi2ss	xmm4, xmm5, r13d	# tmp1589, tmp1583, *_878
	vfmadd213ss	xmm7, xmm18, DWORD PTR 4[rax+rbx]	# TL_880, _79, *_866
# src/avx_analysis_code_ablations/opt10_abl_tile_8x256.cpp:167:                         vp[k] += p.A*TL + p.B*TR + p.C*BL + p.D*BR;
	.loc 1 167 55 discriminator 196608 view .LVU856
	vmulss	xmm6, xmm6, xmm16	# _861, BL_872, _81
	vfmadd231ss	xmm6, xmm17, xmm4	# _1225, _80, TR_876
# src/avx_analysis_code_ablations/opt10_abl_tile_8x256.cpp:166:                         float BR = p.SUB[ind_rbot + k];
	.loc 1 166 31 discriminator 196608 view .LVU857
	vcvtusi2ss	xmm4, xmm5, r10d	# tmp1591, tmp1583, *_870
.LBE2716:
# src/avx_analysis_code_ablations/opt10_abl_tile_8x256.cpp:162:                     for (int k = 0; k < remaining; ++k) {
	.loc 1 162 21 discriminator 196609 view .LVU858
	lea	r10d, 2[r8]	#,
.LBB2717:
# src/avx_analysis_code_ablations/opt10_abl_tile_8x256.cpp:167:                         vp[k] += p.A*TL + p.B*TR + p.C*BL + p.D*BR;
	.loc 1 167 31 discriminator 196608 view .LVU859
	vfmadd132ss	xmm4, xmm7, xmm15	# tmp1386, _1126, _82
	vaddss	xmm4, xmm4, xmm6	# _857, tmp1386, _1225
	vmovss	DWORD PTR 4[rax+rbx], xmm4	# *_866, _857
.LBE2717:
	.loc 1 162 21 is_stmt 1 discriminator 1 view .LVU860
.LVL141:
	.loc 1 162 39 discriminator 2 view .LVU861
# src/avx_analysis_code_ablations/opt10_abl_tile_8x256.cpp:162:                     for (int k = 0; k < remaining; ++k) {
	.loc 1 162 39 is_stmt 0 discriminator 196610 view .LVU862
	cmp	r14d, r10d	# remaining, k
	jle	.L37	#,
.LBB2718:
	.loc 1 163 25 is_stmt 1 view .LVU863
.LVL142:
	.loc 1 164 25 view .LVU864
	.loc 1 165 25 view .LVU865
	.loc 1 166 25 view .LVU866
	.loc 1 167 25 view .LVU867
# src/avx_analysis_code_ablations/opt10_abl_tile_8x256.cpp:167:                         vp[k] += p.A*TL + p.B*TR + p.C*BL + p.D*BR;
	.loc 1 167 29 is_stmt 0 discriminator 229376 view .LVU868
	lea	r13, 8[rax+rbx]	# _610,
# src/avx_analysis_code_ablations/opt10_abl_tile_8x256.cpp:163:                         float TL = p.SUB[ind_ltop + k];
	.loc 1 163 31 discriminator 229376 view .LVU869
	movzx	ebx, BYTE PTR [rsi+r10]	# *_721, *_721
# src/avx_analysis_code_ablations/opt10_abl_tile_8x256.cpp:164:                         float TR = p.SUB[ind_rtop + k];
	.loc 1 164 54 discriminator 229376 view .LVU870
	lea	r12, [rdi+r9]	# tmp1397,
# src/avx_analysis_code_ablations/opt10_abl_tile_8x256.cpp:163:                         float TL = p.SUB[ind_ltop + k];
	.loc 1 163 31 discriminator 229376 view .LVU871
	vcvtusi2ss	xmm4, xmm5, ebx	# tmp1592, tmp1583, *_721
# src/avx_analysis_code_ablations/opt10_abl_tile_8x256.cpp:164:                         float TR = p.SUB[ind_rtop + k];
	.loc 1 164 31 discriminator 229376 view .LVU872
	movzx	ebx, BYTE PTR [r12+r10]	# *_663, *_663
	vmovaps	xmm7, xmm4	# TL_667, TL_667
	vcvtusi2ss	xmm4, xmm5, ebx	# tmp1593, tmp1583, *_663
# src/avx_analysis_code_ablations/opt10_abl_tile_8x256.cpp:165:                         float BL = p.SUB[ind_lbot + k];
	.loc 1 165 31 discriminator 229376 view .LVU873
	movzx	ebx, BYTE PTR [rcx+r10]	# *_637, *_637
	vfmadd213ss	xmm7, xmm18, DWORD PTR 0[r13]	# TL_667, _79, *_610
	vcvtusi2ss	xmm6, xmm5, ebx	# tmp1594, tmp1583, *_637
# src/avx_analysis_code_ablations/opt10_abl_tile_8x256.cpp:166:                         float BR = p.SUB[ind_rbot + k];
	.loc 1 166 54 discriminator 229376 view .LVU874
	lea	rbx, [rdi+r15]	# tmp1407,
# src/avx_analysis_code_ablations/opt10_abl_tile_8x256.cpp:166:                         float BR = p.SUB[ind_rbot + k];
	.loc 1 166 31 discriminator 229376 view .LVU875
	movzx	r10d, BYTE PTR [rbx+r10]	# *_620, *_620
.LVL143:
# src/avx_analysis_code_ablations/opt10_abl_tile_8x256.cpp:167:                         vp[k] += p.A*TL + p.B*TR + p.C*BL + p.D*BR;
	.loc 1 167 55 discriminator 229376 view .LVU876
	vmulss	xmm6, xmm6, xmm16	# _601, BL_632, _81
	vfmadd231ss	xmm6, xmm17, xmm4	# _84, _80, TR_640
# src/avx_analysis_code_ablations/opt10_abl_tile_8x256.cpp:166:                         float BR = p.SUB[ind_rbot + k];
	.loc 1 166 31 discriminator 229376 view .LVU877
	vcvtusi2ss	xmm4, xmm5, r10d	# tmp1595, tmp1583, *_620
.LBE2718:
# src/avx_analysis_code_ablations/opt10_abl_tile_8x256.cpp:162:                     for (int k = 0; k < remaining; ++k) {
	.loc 1 162 21 discriminator 229377 view .LVU878
	lea	r10d, 3[r8]	#,
.LBB2719:
# src/avx_analysis_code_ablations/opt10_abl_tile_8x256.cpp:167:                         vp[k] += p.A*TL + p.B*TR + p.C*BL + p.D*BR;
	.loc 1 167 31 discriminator 229376 view .LVU879
	vfmadd132ss	xmm4, xmm7, xmm15	# tmp1406, _59, _82
	vaddss	xmm4, xmm4, xmm6	# _596, tmp1406, _84
	vmovss	DWORD PTR 0[r13], xmm4	# *_610, _596
.LBE2719:
	.loc 1 162 21 is_stmt 1 discriminator 1 view .LVU880
.LVL144:
	.loc 1 162 39 discriminator 2 view .LVU881
# src/avx_analysis_code_ablations/opt10_abl_tile_8x256.cpp:162:                     for (int k = 0; k < remaining; ++k) {
	.loc 1 162 39 is_stmt 0 discriminator 229378 view .LVU882
	cmp	r14d, r10d	#, k
	jle	.L37	#,
.LBB2720:
	.loc 1 163 25 is_stmt 1 view .LVU883
.LVL145:
	.loc 1 164 25 view .LVU884
	.loc 1 165 25 view .LVU885
	.loc 1 166 25 view .LVU886
	.loc 1 167 25 view .LVU887
# src/avx_analysis_code_ablations/opt10_abl_tile_8x256.cpp:167:                         vp[k] += p.A*TL + p.B*TR + p.C*BL + p.D*BR;
	.loc 1 167 29 is_stmt 0 discriminator 262144 view .LVU888
	mov	r14, QWORD PTR 256[rsp]	# _118, %sfp
	lea	r13, 12[rax+r14]	# _909,
# src/avx_analysis_code_ablations/opt10_abl_tile_8x256.cpp:163:                         float TL = p.SUB[ind_ltop + k];
	.loc 1 163 31 discriminator 262144 view .LVU889
	movzx	r14d, BYTE PTR [rsi+r10]	# *_185, *_185
	vcvtusi2ss	xmm4, xmm5, r14d	# tmp1596, tmp1583, *_185
# src/avx_analysis_code_ablations/opt10_abl_tile_8x256.cpp:164:                         float TR = p.SUB[ind_rtop + k];
	.loc 1 164 54 discriminator 262144 view .LVU890
	lea	r14, [rdi+r10]	# tmp1417,
# src/avx_analysis_code_ablations/opt10_abl_tile_8x256.cpp:165:                         float BL = p.SUB[ind_lbot + k];
	.loc 1 165 31 discriminator 262144 view .LVU891
	movzx	r10d, BYTE PTR [rcx+r10]	# *_705, *_705
.LVL146:
# src/avx_analysis_code_ablations/opt10_abl_tile_8x256.cpp:164:                         float TR = p.SUB[ind_rtop + k];
	.loc 1 164 31 discriminator 262144 view .LVU892
	movzx	r9d, BYTE PTR [r14+r9]	# *_619, *_619
# src/avx_analysis_code_ablations/opt10_abl_tile_8x256.cpp:165:                         float BL = p.SUB[ind_lbot + k];
	.loc 1 165 31 discriminator 262144 view .LVU893
	vcvtusi2ss	xmm6, xmm5, r10d	# tmp1598, tmp1583, *_705
# src/avx_analysis_code_ablations/opt10_abl_tile_8x256.cpp:166:                         float BR = p.SUB[ind_rbot + k];
	.loc 1 166 31 discriminator 262144 view .LVU894
	movzx	r10d, BYTE PTR [r14+r15]	# *_479, *_479
	vmovaps	xmm7, xmm4	# TL_884, TL_884
# src/avx_analysis_code_ablations/opt10_abl_tile_8x256.cpp:164:                         float TR = p.SUB[ind_rtop + k];
	.loc 1 164 31 discriminator 262144 view .LVU895
	vcvtusi2ss	xmm4, xmm5, r9d	# tmp1597, tmp1583, *_619
	vfmadd213ss	xmm7, xmm18, DWORD PTR 0[r13]	# TL_884, _79, *_909
# src/avx_analysis_code_ablations/opt10_abl_tile_8x256.cpp:167:                         vp[k] += p.A*TL + p.B*TR + p.C*BL + p.D*BR;
	.loc 1 167 55 discriminator 262144 view .LVU896
	vmulss	xmm6, xmm6, xmm16	# _991, BL_589, _81
	vfmadd231ss	xmm6, xmm17, xmm4	# _90, _80, TR_481
# src/avx_analysis_code_ablations/opt10_abl_tile_8x256.cpp:166:                         float BR = p.SUB[ind_rbot + k];
	.loc 1 166 31 discriminator 262144 view .LVU897
	vcvtusi2ss	xmm4, xmm5, r10d	# tmp1599, tmp1583, *_479
.LBE2720:
# src/avx_analysis_code_ablations/opt10_abl_tile_8x256.cpp:162:                     for (int k = 0; k < remaining; ++k) {
	.loc 1 162 21 discriminator 262145 view .LVU898
	lea	r10d, 4[r8]	#,
.LBB2721:
# src/avx_analysis_code_ablations/opt10_abl_tile_8x256.cpp:167:                         vp[k] += p.A*TL + p.B*TR + p.C*BL + p.D*BR;
	.loc 1 167 31 discriminator 262144 view .LVU899
	vfmadd132ss	xmm4, xmm7, xmm15	# tmp1426, _86, _82
	vaddss	xmm4, xmm4, xmm6	# _570, tmp1426, _90
	vmovss	DWORD PTR 0[r13], xmm4	# *_909, _570
.LBE2721:
	.loc 1 162 21 is_stmt 1 discriminator 1 view .LVU900
.LVL147:
	.loc 1 162 39 discriminator 2 view .LVU901
# src/avx_analysis_code_ablations/opt10_abl_tile_8x256.cpp:162:                     for (int k = 0; k < remaining; ++k) {
	.loc 1 162 39 is_stmt 0 discriminator 262146 view .LVU902
	cmp	DWORD PTR 264[rsp], r10d	# %sfp, k
	jle	.L37	#,
.LBB2722:
	.loc 1 163 25 is_stmt 1 view .LVU903
.LVL148:
	.loc 1 164 25 view .LVU904
	.loc 1 165 25 view .LVU905
	.loc 1 166 25 view .LVU906
	.loc 1 167 25 view .LVU907
# src/avx_analysis_code_ablations/opt10_abl_tile_8x256.cpp:167:                         vp[k] += p.A*TL + p.B*TR + p.C*BL + p.D*BR;
	.loc 1 167 29 is_stmt 0 discriminator 294912 view .LVU908
	mov	r14, QWORD PTR 256[rsp]	# _118, %sfp
	lea	r13, 16[rax+r14]	# _1006,
# src/avx_analysis_code_ablations/opt10_abl_tile_8x256.cpp:163:                         float TL = p.SUB[ind_ltop + k];
	.loc 1 163 31 discriminator 294912 view .LVU909
	movzx	r14d, BYTE PTR [rsi+r10]	# *_285, *_285
	vcvtusi2ss	xmm4, xmm5, r14d	# tmp1600, tmp1583, *_285
# src/avx_analysis_code_ablations/opt10_abl_tile_8x256.cpp:164:                         float TR = p.SUB[ind_rtop + k];
	.loc 1 164 31 discriminator 294912 view .LVU910
	movzx	r14d, BYTE PTR [r12+r10]	# *_901, *_901
	vmovaps	xmm7, xmm4	# TL_1026, TL_1026
	vcvtusi2ss	xmm4, xmm5, r14d	# tmp1601, tmp1583, *_901
# src/avx_analysis_code_ablations/opt10_abl_tile_8x256.cpp:165:                         float BL = p.SUB[ind_lbot + k];
	.loc 1 165 31 discriminator 294912 view .LVU911
	movzx	r14d, BYTE PTR [rcx+r10]	# *_1012, *_1012
# src/avx_analysis_code_ablations/opt10_abl_tile_8x256.cpp:166:                         float BR = p.SUB[ind_rbot + k];
	.loc 1 166 31 discriminator 294912 view .LVU912
	movzx	r10d, BYTE PTR [rbx+r10]	# *_1009, *_1009
.LVL149:
	.loc 1 166 31 discriminator 294912 view .LVU913
	vfmadd213ss	xmm7, xmm18, DWORD PTR 0[r13]	# TL_1026, _79, *_1006
# src/avx_analysis_code_ablations/opt10_abl_tile_8x256.cpp:165:                         float BL = p.SUB[ind_lbot + k];
	.loc 1 165 31 discriminator 294912 view .LVU914
	vcvtusi2ss	xmm6, xmm5, r14d	# tmp1602, tmp1583, *_1012
.LBE2722:
# src/avx_analysis_code_ablations/opt10_abl_tile_8x256.cpp:162:                     for (int k = 0; k < remaining; ++k) {
	.loc 1 162 39 discriminator 294914 view .LVU915
	mov	r14d, DWORD PTR 264[rsp]	# remaining, %sfp
.LBB2723:
# src/avx_analysis_code_ablations/opt10_abl_tile_8x256.cpp:167:                         vp[k] += p.A*TL + p.B*TR + p.C*BL + p.D*BR;
	.loc 1 167 55 discriminator 294912 view .LVU916
	vmulss	xmm6, xmm6, xmm16	# _1002, BL_1011, _81
	vfmadd231ss	xmm6, xmm17, xmm4	# _94, _80, TR_1120
# src/avx_analysis_code_ablations/opt10_abl_tile_8x256.cpp:166:                         float BR = p.SUB[ind_rbot + k];
	.loc 1 166 31 discriminator 294912 view .LVU917
	vcvtusi2ss	xmm4, xmm5, r10d	# tmp1603, tmp1583, *_1009
.LBE2723:
# src/avx_analysis_code_ablations/opt10_abl_tile_8x256.cpp:162:                     for (int k = 0; k < remaining; ++k) {
	.loc 1 162 21 discriminator 294913 view .LVU918
	lea	r10d, 5[r8]	#,
.LBB2724:
# src/avx_analysis_code_ablations/opt10_abl_tile_8x256.cpp:167:                         vp[k] += p.A*TL + p.B*TR + p.C*BL + p.D*BR;
	.loc 1 167 31 discriminator 294912 view .LVU919
	vfmadd132ss	xmm4, xmm7, xmm15	# tmp1446, _93, _82
	vaddss	xmm4, xmm4, xmm6	# _999, tmp1446, _94
	vmovss	DWORD PTR 0[r13], xmm4	# *_1006, _999
.LBE2724:
	.loc 1 162 21 is_stmt 1 discriminator 1 view .LVU920
.LVL150:
	.loc 1 162 39 discriminator 2 view .LVU921
# src/avx_analysis_code_ablations/opt10_abl_tile_8x256.cpp:162:                     for (int k = 0; k < remaining; ++k) {
	.loc 1 162 39 is_stmt 0 discriminator 294914 view .LVU922
	cmp	r14d, r10d	# remaining, k
	jle	.L37	#,
.LBB2725:
	.loc 1 163 25 is_stmt 1 view .LVU923
.LVL151:
	.loc 1 164 25 view .LVU924
	.loc 1 165 25 view .LVU925
	.loc 1 166 25 view .LVU926
	.loc 1 167 25 view .LVU927
# src/avx_analysis_code_ablations/opt10_abl_tile_8x256.cpp:165:                         float BL = p.SUB[ind_lbot + k];
	.loc 1 165 31 is_stmt 0 discriminator 327680 view .LVU928
	movzx	ecx, BYTE PTR [rcx+r10]	# *_248, *_248
# src/avx_analysis_code_ablations/opt10_abl_tile_8x256.cpp:163:                         float TL = p.SUB[ind_ltop + k];
	.loc 1 163 31 discriminator 327680 view .LVU929
	movzx	esi, BYTE PTR [rsi+r10]	# *_247, *_247
.LBE2725:
# src/avx_analysis_code_ablations/opt10_abl_tile_8x256.cpp:162:                     for (int k = 0; k < remaining; ++k) {
	.loc 1 162 21 discriminator 327681 view .LVU930
	add	r8d, 6	#,
.LBB2726:
# src/avx_analysis_code_ablations/opt10_abl_tile_8x256.cpp:167:                         vp[k] += p.A*TL + p.B*TR + p.C*BL + p.D*BR;
	.loc 1 167 29 discriminator 327680 view .LVU931
	mov	r9, QWORD PTR 256[rsp]	# _118, %sfp
# src/avx_analysis_code_ablations/opt10_abl_tile_8x256.cpp:165:                         float BL = p.SUB[ind_lbot + k];
	.loc 1 165 31 discriminator 327680 view .LVU932
	vcvtusi2ss	xmm6, xmm5, ecx	# tmp1606, tmp1583, *_248
# src/avx_analysis_code_ablations/opt10_abl_tile_8x256.cpp:166:                         float BR = p.SUB[ind_rbot + k];
	.loc 1 166 31 discriminator 327680 view .LVU933
	movzx	ecx, BYTE PTR [rbx+r10]	# *_1069, *_1069
# src/avx_analysis_code_ablations/opt10_abl_tile_8x256.cpp:163:                         float TL = p.SUB[ind_ltop + k];
	.loc 1 163 31 discriminator 327680 view .LVU934
	vcvtusi2ss	xmm4, xmm5, esi	# tmp1604, tmp1583, *_247
# src/avx_analysis_code_ablations/opt10_abl_tile_8x256.cpp:164:                         float TR = p.SUB[ind_rtop + k];
	.loc 1 164 31 discriminator 327680 view .LVU935
	movzx	esi, BYTE PTR [r12+r10]	# *_147, *_147
# src/avx_analysis_code_ablations/opt10_abl_tile_8x256.cpp:167:                         vp[k] += p.A*TL + p.B*TR + p.C*BL + p.D*BR;
	.loc 1 167 55 discriminator 327680 view .LVU936
	vmulss	xmm6, xmm6, xmm16	# _255, BL_1131, _81
	vmovaps	xmm7, xmm4	# TL_693, TL_693
# src/avx_analysis_code_ablations/opt10_abl_tile_8x256.cpp:164:                         float TR = p.SUB[ind_rtop + k];
	.loc 1 164 31 discriminator 327680 view .LVU937
	vcvtusi2ss	xmm4, xmm5, esi	# tmp1605, tmp1583, *_147
	vfmadd213ss	xmm7, xmm18, DWORD PTR 20[rax+r9]	# TL_693, _79, *_253
	vfmadd231ss	xmm6, xmm17, xmm4	# _100, _80, TR_384
# src/avx_analysis_code_ablations/opt10_abl_tile_8x256.cpp:166:                         float BR = p.SUB[ind_rbot + k];
	.loc 1 166 31 discriminator 327680 view .LVU938
	vcvtusi2ss	xmm4, xmm5, ecx	# tmp1607, tmp1583, *_1069
# src/avx_analysis_code_ablations/opt10_abl_tile_8x256.cpp:167:                         vp[k] += p.A*TL + p.B*TR + p.C*BL + p.D*BR;
	.loc 1 167 31 discriminator 327680 view .LVU939
	vfmadd132ss	xmm4, xmm7, xmm15	# tmp1466, _99, _82
	vaddss	xmm4, xmm4, xmm6	# _711, tmp1466, _100
	vmovss	DWORD PTR 20[rax+r9], xmm4	# *_253, _711
.LBE2726:
	.loc 1 162 21 is_stmt 1 discriminator 1 view .LVU940
.LVL152:
	.loc 1 162 39 discriminator 2 view .LVU941
# src/avx_analysis_code_ablations/opt10_abl_tile_8x256.cpp:162:                     for (int k = 0; k < remaining; ++k) {
	.loc 1 162 39 is_stmt 0 discriminator 327682 view .LVU942
	cmp	r14d, r8d	# remaining, k
	jle	.L37	#,
.LBB2727:
	.loc 1 163 25 is_stmt 1 view .LVU943
.LVL153:
	.loc 1 164 25 view .LVU944
	.loc 1 165 25 view .LVU945
	.loc 1 166 25 view .LVU946
	.loc 1 167 25 view .LVU947
# src/avx_analysis_code_ablations/opt10_abl_tile_8x256.cpp:163:                         float TL = p.SUB[ind_ltop + k];
	.loc 1 163 54 is_stmt 0 discriminator 98304 view .LVU948
	add	r8, rdi	# tmp1473, _108
.LVL154:
# src/avx_analysis_code_ablations/opt10_abl_tile_8x256.cpp:167:                         vp[k] += p.A*TL + p.B*TR + p.C*BL + p.D*BR;
	.loc 1 167 29 discriminator 98304 view .LVU949
	lea	rax, 24[rax+r9]	# _130,
.LVL155:
# src/avx_analysis_code_ablations/opt10_abl_tile_8x256.cpp:164:                         float TR = p.SUB[ind_rtop + k];
	.loc 1 164 31 discriminator 98304 view .LVU950
	mov	r9, QWORD PTR 272[rsp]	# ind_rtop, %sfp
# src/avx_analysis_code_ablations/opt10_abl_tile_8x256.cpp:163:                         float TL = p.SUB[ind_ltop + k];
	.loc 1 163 31 discriminator 98304 view .LVU951
	movzx	edx, BYTE PTR [r8+rdx]	# *_173, *_173
.LVL156:
	.loc 1 163 31 discriminator 98304 view .LVU952
	vcvtusi2ss	xmm4, xmm5, edx	# tmp1608, tmp1583, *_173
# src/avx_analysis_code_ablations/opt10_abl_tile_8x256.cpp:164:                         float TR = p.SUB[ind_rtop + k];
	.loc 1 164 31 discriminator 98304 view .LVU953
	movzx	edx, BYTE PTR [r8+r9]	# *_165, *_165
.LVL157:
	.loc 1 164 31 discriminator 98304 view .LVU954
	vmovaps	xmm7, xmm4	# TL_167, TL_167
	vcvtusi2ss	xmm4, xmm5, edx	# tmp1609, tmp1583, *_165
# src/avx_analysis_code_ablations/opt10_abl_tile_8x256.cpp:165:                         float BL = p.SUB[ind_lbot + k];
	.loc 1 165 31 discriminator 98304 view .LVU955
	mov	rdx, QWORD PTR 232[rsp]	# ind_lbot, %sfp
.LVL158:
	.loc 1 165 31 discriminator 98304 view .LVU956
	vfmadd213ss	xmm7, xmm18, DWORD PTR [rax]	# TL_167, _79, *_130
	movzx	edx, BYTE PTR [r8+rdx]	# *_161, *_161
.LVL159:
	.loc 1 165 31 discriminator 98304 view .LVU957
	vcvtusi2ss	xmm6, xmm5, edx	# tmp1610, tmp1583, *_161
# src/avx_analysis_code_ablations/opt10_abl_tile_8x256.cpp:166:                         float BR = p.SUB[ind_rbot + k];
	.loc 1 166 31 discriminator 98304 view .LVU958
	movzx	edx, BYTE PTR [r8+r15]	# *_157, *_157
.LVL160:
# src/avx_analysis_code_ablations/opt10_abl_tile_8x256.cpp:167:                         vp[k] += p.A*TL + p.B*TR + p.C*BL + p.D*BR;
	.loc 1 167 55 discriminator 98304 view .LVU959
	vmulss	xmm6, xmm6, xmm16	# _54, BL_159, _81
	vfmadd231ss	xmm6, xmm17, xmm4	# _105, _80, TR_163
# src/avx_analysis_code_ablations/opt10_abl_tile_8x256.cpp:166:                         float BR = p.SUB[ind_rbot + k];
	.loc 1 166 31 discriminator 98304 view .LVU960
	vcvtusi2ss	xmm4, xmm5, edx	# tmp1611, tmp1583, *_157
# src/avx_analysis_code_ablations/opt10_abl_tile_8x256.cpp:167:                         vp[k] += p.A*TL + p.B*TR + p.C*BL + p.D*BR;
	.loc 1 167 31 discriminator 98304 view .LVU961
	vfmadd132ss	xmm4, xmm7, xmm15	# tmp1486, _104, _82
	vaddss	xmm4, xmm4, xmm6	# _47, tmp1486, _105
	vmovss	DWORD PTR [rax], xmm4	# *_130, _47
.LBE2727:
	.loc 1 162 21 is_stmt 1 discriminator 1 view .LVU962
	.loc 1 162 39 discriminator 2 view .LVU963
.LVL161:
.L37:
	.loc 1 162 39 is_stmt 0 discriminator 2 view .LVU964
.LBE2709:
.LBE2739:
	.loc 1 122 17 is_stmt 1 discriminator 1 view .LVU965
	inc	DWORD PTR 248[rsp]	# %sfp
.LVL162:
# src/avx_analysis_code_ablations/opt10_abl_tile_8x256.cpp:122:                 for (int y = y_begin; y < y_end; ++y) {
	.loc 1 122 41 is_stmt 0 discriminator 2 view .LVU966
	mov	rdi, QWORD PTR 200[rsp]	# _605, %sfp
	add	QWORD PTR 224[rsp], rdi	# %sfp, _605
# src/avx_analysis_code_ablations/opt10_abl_tile_8x256.cpp:122:                 for (int y = y_begin; y < y_end; ++y) {
	.loc 1 122 17 discriminator 1 view .LVU967
	mov	eax, DWORD PTR 248[rsp]	# y, %sfp
.LVL163:
	.loc 1 122 41 is_stmt 1 discriminator 2 view .LVU968
	cmp	eax, DWORD PTR 216[rsp]	# y, %sfp
	jl	.L42	#,
	mov	r12d, DWORD PTR 124[rsp]	# _75, %sfp
	mov	r8d, DWORD PTR 120[rsp]	# _435, %sfp
	mov	ebx, DWORD PTR 116[rsp]	# tx, %sfp
	mov	r15d, DWORD PTR 112[rsp]	# ty, %sfp
.LVL164:
.L34:
	.loc 1 122 41 is_stmt 0 discriminator 2 view .LVU969
.LBE2783:
.LBE2788:
	.loc 1 110 13 is_stmt 1 discriminator 4 view .LVU970
	.loc 1 110 39 discriminator 5 view .LVU971
# src/avx_analysis_code_ablations/opt10_abl_tile_8x256.cpp:110:             for (const SubParams& p : params) {
	.loc 1 110 39 is_stmt 0 discriminator 6 view .LVU972
	add	QWORD PTR 240[rsp], 48	# %sfp,
.LVL165:
	.loc 1 110 39 discriminator 6 view .LVU973
	mov	rax, QWORD PTR 240[rsp]	# ivtmp.569, %sfp
	cmp	QWORD PTR 144[rsp], rax	# %sfp, ivtmp.569
	jne	.L43	#,
	mov	r13d, DWORD PTR 108[rsp]	#, %sfp
	mov	r8, QWORD PTR 96[rsp]	# _613, %sfp
.LVL166:
.L33:
	.loc 1 110 39 discriminator 6 view .LVU974
.LBE2847:
.LBB2848:
	.loc 1 173 32 is_stmt 1 discriminator 2 view .LVU975
	cmp	DWORD PTR 140[rsp], r15d	# %sfp, ty
	jle	.L44	#,
	test	r13d, r13d	# tile_w_actual
	jle	.L44	#,
	lea	r12d, 0[r13+r13*2]	# _186,
	mov	rax, QWORD PTR 80[rsp]	# _325, %sfp
	mov	rdx, QWORD PTR 152[rsp]	# ivtmp.574, %sfp
	lea	r9, 0[r13+r13*2]	# _190,
	movsxd	r12, r12d	# _183, _186
	mov	r11, QWORD PTR 56[rsp]	# ivtmp.516, %sfp
	lea	r14, 0[0+r9*4]	# tmp1498,
	mov	r10, r8	# ivtmp.514, _613
	mov	QWORD PTR 272[rsp], r12	# %sfp, _183
	lea	r13, [rax+rdx*4]	# _699,
# src/avx_analysis_code_ablations/opt10_abl_tile_8x256.cpp:173:             for (int y = ty; y < tile_y_end; ++y) {
	.loc 1 173 22 is_stmt 0 view .LVU976
	mov	ebx, r15d	# y, ty
# src/avx_analysis_code_ablations/opt10_abl_tile_8x256.cpp:173:             for (int y = ty; y < tile_y_end; ++y) {
	.loc 1 173 32 discriminator 2 view .LVU977
	xor	edi, edi	# ivtmp.513
.LVL167:
	.p2align 4,,10
	.p2align 3
.L48:
.LBB2814:
	.loc 1 174 17 is_stmt 1 view .LVU978
	.loc 1 175 17 view .LVU979
.LBB2809:
.LBI2809:
	.loc 2 1385 7 view .LVU980
	.loc 2 1385 7 is_stmt 0 view .LVU981
.LBE2809:
	.loc 1 176 17 is_stmt 1 view .LVU982
.LBB2810:
	.loc 1 176 35 discriminator 2 view .LVU983
.LBE2810:
# src/avx_analysis_code_ablations/opt10_abl_tile_8x256.cpp:175:                 unsigned char* outp = output.data.data() + (y * width + tx) * 3;
	.loc 1 175 77 is_stmt 0 discriminator 1 view .LVU984
	mov	rax, QWORD PTR 152[rsp]	# ivtmp.574, %sfp
	lea	rdx, 0[r13+r11*4]	# ivtmp.498,
	add	rax, r11	# _278, ivtmp.516
	lea	rcx, [rax+rax*2]	# _482,
# src/avx_analysis_code_ablations/opt10_abl_tile_8x256.cpp:175:                 unsigned char* outp = output.data.data() + (y * width + tx) * 3;
	.loc 1 175 79 discriminator 1 view .LVU985
	mov	rax, QWORD PTR 128[rsp]	# <retval>, %sfp
	add	rcx, QWORD PTR 16[rax]	# outp, MEM[(struct vector *)output_206(D) + 16B].D.87585._M_impl.D.86896._M_start
	xor	eax, eax	# ivtmp.506
	jmp	.L47	#
.LVL168:
	.loc 1 175 79 discriminator 1 view .LVU986
	.p2align 5
	.p2align 4,,10
	.p2align 3
.L45:
.LBB2811:
.LBB2802:
	.loc 1 179 25 is_stmt 1 view .LVU987
# src/avx_analysis_code_ablations/opt10_abl_tile_8x256.cpp:179:                         outp[x*3] = outp[x*3+1] = outp[x*3+2] = 0;
	.loc 1 179 35 is_stmt 0 view .LVU988
	xor	esi, esi	#
.LVL169:
# src/avx_analysis_code_ablations/opt10_abl_tile_8x256.cpp:179:                         outp[x*3] = outp[x*3+1] = outp[x*3+2] = 0;
	.loc 1 179 63 view .LVU989
	mov	BYTE PTR 2[rcx+rax], 0	# MEM[(unsigned char *)outp_716 + 2B + ivtmp.506_1284 * 1],
.LBE2802:
# src/avx_analysis_code_ablations/opt10_abl_tile_8x256.cpp:176:                 for (int x = 0; x < tile_w_actual; ++x) {
	.loc 1 176 35 discriminator 2 view .LVU990
	add	rdx, 4	# ivtmp.498,
.LVL170:
.LBB2803:
# src/avx_analysis_code_ablations/opt10_abl_tile_8x256.cpp:179:                         outp[x*3] = outp[x*3+1] = outp[x*3+2] = 0;
	.loc 1 179 35 view .LVU991
	mov	WORD PTR [rcx+rax], si	# MEM <vector(2) unsigned char> [(unsigned char *)outp_716 + ivtmp.506_1284 * 1],
	.loc 1 180 25 is_stmt 1 view .LVU992
.LBE2803:
	.loc 1 176 17 discriminator 1 view .LVU993
.LVL171:
	.loc 1 176 35 discriminator 2 view .LVU994
	add	rax, 3	# ivtmp.506,
.LVL172:
	.loc 1 176 35 is_stmt 0 discriminator 2 view .LVU995
	cmp	r9, rax	# _190, ivtmp.506
	je	.L140	#,
.LVL173:
.L47:
.LBB2804:
	.loc 1 177 21 is_stmt 1 view .LVU996
# src/avx_analysis_code_ablations/opt10_abl_tile_8x256.cpp:177:                     int c = counts[y * width + (tx + x)];
	.loc 1 177 56 is_stmt 0 discriminator 1 view .LVU997
	mov	esi, DWORD PTR [rdx]	# c, MEM[(value_type &)_1288]
.LVL174:
	.loc 1 178 21 is_stmt 1 view .LVU998
	test	esi, esi	# c
	je	.L45	#,
	.loc 1 182 21 view .LVU999
# src/avx_analysis_code_ablations/opt10_abl_tile_8x256.cpp:182:                     float inv_c = 1.0f / static_cast<float>(c);
	.loc 1 182 42 is_stmt 0 view .LVU1000
	vcvtsi2ss	xmm0, xmm5, esi	# tmp1612, tmp1583, c
.LBE2804:
# src/avx_analysis_code_ablations/opt10_abl_tile_8x256.cpp:176:                 for (int x = 0; x < tile_w_actual; ++x) {
	.loc 1 176 35 discriminator 2 view .LVU1001
	add	rdx, 4	# ivtmp.498,
.LBB2805:
# src/avx_analysis_code_ablations/opt10_abl_tile_8x256.cpp:182:                     float inv_c = 1.0f / static_cast<float>(c);
	.loc 1 182 27 view .LVU1002
	vdivss	xmm0, xmm23, xmm0	# inv_c, tmp1562, _941
.LVL175:
	.loc 1 183 21 is_stmt 1 view .LVU1003
.LBB2794:
	.loc 1 183 41 discriminator 2 view .LVU1004
.LBB2795:
	.loc 1 184 25 view .LVU1005
	.loc 1 185 25 view .LVU1006
# src/avx_analysis_code_ablations/opt10_abl_tile_8x256.cpp:184:                         float v = vp[x*3 + ch] * inv_c;
	.loc 1 184 31 is_stmt 0 discriminator 32768 view .LVU1007
	vmulss	xmm1, xmm0, DWORD PTR [r10+rax*4]	# v_935, inv_c, MEM[(const float *)_1179 + ivtmp.506_1284 * 4]
# src/avx_analysis_code_ablations/opt10_abl_tile_8x256.cpp:185:                         outp[x*3 + ch] = static_cast<unsigned char>(v);
	.loc 1 185 42 discriminator 32768 view .LVU1008
	vcvttss2si	esi, xmm1	# tmp1513, v_935
.LVL176:
	.loc 1 185 42 discriminator 32768 view .LVU1009
	mov	BYTE PTR [rcx+rax], sil	# MEM[(unsigned char *)outp_716 + ivtmp.506_1284 * 1], tmp1513
.LBE2795:
	.loc 1 183 21 is_stmt 1 discriminator 1 view .LVU1010
.LVL177:
	.loc 1 183 41 discriminator 2 view .LVU1011
.LBB2796:
	.loc 1 184 25 view .LVU1012
# src/avx_analysis_code_ablations/opt10_abl_tile_8x256.cpp:184:                         float v = vp[x*3 + ch] * inv_c;
	.loc 1 184 42 is_stmt 0 discriminator 65536 view .LVU1013
	lea	esi, 1[rax]	# _931,
.LVL178:
	.loc 1 185 25 is_stmt 1 view .LVU1014
# src/avx_analysis_code_ablations/opt10_abl_tile_8x256.cpp:184:                         float v = vp[x*3 + ch] * inv_c;
	.loc 1 184 46 is_stmt 0 discriminator 65536 view .LVU1015
	lea	r12, [rdi+rsi]	# tmp1515,
.LVL179:
# src/avx_analysis_code_ablations/opt10_abl_tile_8x256.cpp:184:                         float v = vp[x*3 + ch] * inv_c;
	.loc 1 184 31 discriminator 65536 view .LVU1016
	vmulss	xmm1, xmm0, DWORD PTR [r8+r12*4]	# v_926, inv_c, *_928
# src/avx_analysis_code_ablations/opt10_abl_tile_8x256.cpp:185:                         outp[x*3 + ch] = static_cast<unsigned char>(v);
	.loc 1 185 42 discriminator 65536 view .LVU1017
	vcvttss2si	r12d, xmm1	# tmp1518, v_926
.LVL180:
	.loc 1 185 42 discriminator 65536 view .LVU1018
	mov	BYTE PTR [rcx+rsi], r12b	# *_925, tmp1518
.LBE2796:
	.loc 1 183 21 is_stmt 1 discriminator 1 view .LVU1019
.LVL181:
	.loc 1 183 41 discriminator 2 view .LVU1020
.LBB2797:
	.loc 1 184 25 view .LVU1021
# src/avx_analysis_code_ablations/opt10_abl_tile_8x256.cpp:184:                         float v = vp[x*3 + ch] * inv_c;
	.loc 1 184 42 is_stmt 0 discriminator 98304 view .LVU1022
	lea	esi, 2[rax]	# _921,
.LVL182:
	.loc 1 185 25 is_stmt 1 view .LVU1023
.LBE2797:
.LBE2794:
.LBE2805:
# src/avx_analysis_code_ablations/opt10_abl_tile_8x256.cpp:176:                 for (int x = 0; x < tile_w_actual; ++x) {
	.loc 1 176 35 is_stmt 0 discriminator 2 view .LVU1024
	add	rax, 3	# ivtmp.506,
.LVL183:
.LBB2806:
.LBB2799:
.LBB2798:
# src/avx_analysis_code_ablations/opt10_abl_tile_8x256.cpp:184:                         float v = vp[x*3 + ch] * inv_c;
	.loc 1 184 46 discriminator 98304 view .LVU1025
	lea	r12, [rdi+rsi]	# tmp1520,
.LVL184:
# src/avx_analysis_code_ablations/opt10_abl_tile_8x256.cpp:184:                         float v = vp[x*3 + ch] * inv_c;
	.loc 1 184 31 discriminator 98304 view .LVU1026
	vmulss	xmm0, xmm0, DWORD PTR [r8+r12*4]	# v_916, inv_c, *_918
.LVL185:
# src/avx_analysis_code_ablations/opt10_abl_tile_8x256.cpp:185:                         outp[x*3 + ch] = static_cast<unsigned char>(v);
	.loc 1 185 42 discriminator 98304 view .LVU1027
	vcvttss2si	r12d, xmm0	# tmp1523, v_916
	.loc 1 185 42 discriminator 98304 view .LVU1028
	mov	BYTE PTR [rcx+rsi], r12b	# *_915, tmp1523
.LBE2798:
	.loc 1 183 21 is_stmt 1 discriminator 1 view .LVU1029
.LVL186:
	.loc 1 183 41 discriminator 2 view .LVU1030
.LBE2799:
.LBE2806:
	.loc 1 176 17 discriminator 1 view .LVU1031
	.loc 1 176 35 discriminator 2 view .LVU1032
	cmp	r9, rax	# _190, ivtmp.506
	jne	.L47	#,
.LVL187:
.L140:
	.loc 1 176 35 is_stmt 0 discriminator 2 view .LVU1033
.LBE2811:
.LBE2814:
	.loc 1 173 13 is_stmt 1 discriminator 1 view .LVU1034
	inc	ebx	# y
.LVL188:
	.loc 1 173 32 discriminator 2 view .LVU1035
	add	rdi, QWORD PTR 272[rsp]	# ivtmp.513, %sfp
	add	r10, r14	# ivtmp.514, tmp1498
	add	r11, QWORD PTR 160[rsp]	# ivtmp.516, %sfp
	cmp	DWORD PTR 140[rsp], ebx	# %sfp, y
	jne	.L48	#,
.LVL189:
.L44:
	.loc 1 173 32 is_stmt 0 discriminator 2 view .LVU1036
.LBE2848:
.LBE2851:
	.loc 1 100 29 is_stmt 1 discriminator 2 view .LVU1037
	add	QWORD PTR 152[rsp], 256	# %sfp,
.LVL190:
	.loc 1 100 29 is_stmt 0 discriminator 2 view .LVU1038
	mov	rax, QWORD PTR 152[rsp]	# ivtmp.574, %sfp
	cmp	DWORD PTR 104[rsp], eax	# %sfp, tmp1939
	jg	.L49	#,
.LBE2864:
.LBE2624:
# src/avx_analysis_code_ablations/opt10_abl_tile_8x256.cpp:96:     for (int ty = 0; ty < h; ty += TILE_H) {
	.loc 1 96 25 discriminator 2 view .LVU1039
	mov	r12, QWORD PTR 8[rsp]	# _1149, %sfp
	mov	rdx, QWORD PTR 56[rsp]	# ivtmp.581, %sfp
.LVL191:
	.loc 1 96 25 discriminator 2 view .LVU1040
	mov	r14d, DWORD PTR 48[rsp]	# _2, %sfp
	mov	ebx, DWORD PTR 20[rsp]	# _71, %sfp
.LVL192:
	.loc 1 96 25 is_stmt 1 discriminator 2 view .LVU1041
	add	rdx, r12	# ivtmp.581, _1149
	cmp	ebx, r14d	# _71, _2
	jl	.L50	#,
	mov	r15, QWORD PTR 32[rsp]	# _26, %sfp
	mov	rbx, QWORD PTR 24[rsp]	# _433, %sfp
.LVL193:
	.loc 1 96 25 is_stmt 0 discriminator 2 view .LVU1042
	vzeroupper
.LVL194:
.L31:
	.loc 1 96 25 discriminator 2 view .LVU1043
.LBE2623:
	.loc 1 192 5 is_stmt 1 view .LVU1044
.LBB2869:
.LBI2869:
	.loc 2 790 7 view .LVU1045
.LBB2870:
.LBI2870:
	.loc 2 307 7 view .LVU1046
	.loc 2 307 7 is_stmt 0 view .LVU1047
.LBE2870:
.LBB2871:
.LBI2871:
	.loc 8 1082 5 is_stmt 1 view .LVU1048
	.loc 8 1082 5 is_stmt 0 view .LVU1049
.LBE2871:
.LBB2872:
.LBI2872:
	.loc 2 373 7 is_stmt 1 view .LVU1050
.LBB2873:
.LBB2874:
.LBI2874:
	.loc 2 394 7 view .LVU1051
.LBB2875:
.LBB2876:
.LBI2876:
	.loc 8 688 7 view .LVU1052
.LBB2877:
.LBI2877:
	.loc 6 167 7 view .LVU1053
.LBB2878:
# /usr/include/c++/16/bits/new_allocator.h:183: 	_GLIBCXX_OPERATOR_DELETE(_GLIBCXX_SIZED_DEALLOC(__p, __n));
	.loc 6 183 59 is_stmt 0 view .LVU1054
	mov	rdi, QWORD PTR 40[rsp]	#, %sfp
	mov	esi, 24576	#,
	call	"_ZdlPvm"@PLT	#
.LVL195:
	.loc 6 183 59 view .LVU1055
.LBE2878:
.LBE2877:
.LBE2876:
.LBE2875:
.LBE2874:
.LBE2873:
.LBB2879:
.LBI2879:
	.loc 2 139 14 is_stmt 1 view .LVU1056
.LBB2880:
.LBI2880:
	.loc 5 189 7 view .LVU1057
.LBB2881:
.LBI2881:
	.loc 6 104 7 view .LVU1058
	.loc 6 104 7 is_stmt 0 view .LVU1059
.LBE2881:
.LBE2880:
.LBE2879:
.LBE2872:
.LBE2869:
.LBB2882:
.LBI2882:
	.loc 2 790 7 is_stmt 1 view .LVU1060
.LBB2883:
.LBI2883:
	.loc 2 307 7 view .LVU1061
	.loc 2 307 7 is_stmt 0 view .LVU1062
.LBE2883:
.LBB2884:
.LBI2884:
	.loc 8 1082 5 is_stmt 1 view .LVU1063
	.loc 8 1082 5 is_stmt 0 view .LVU1064
.LBE2884:
.LBB2885:
.LBI2885:
	.loc 2 373 7 is_stmt 1 view .LVU1065
.LBB2886:
.LBB2887:
.LBI2887:
	.loc 2 394 7 view .LVU1066
.LBB2888:
# /usr/include/c++/16/bits/stl_vector.h:397: 	if (__p)
	.loc 2 397 2 is_stmt 0 view .LVU1067
	test	rbx, rbx	# _433
	je	.L51	#,
.LVL196:
.LBB2889:
.LBI2889:
	.loc 8 688 7 is_stmt 1 view .LVU1068
.LBB2890:
.LBI2890:
	.loc 6 167 7 view .LVU1069
.LBB2891:
# /usr/include/c++/16/bits/new_allocator.h:183: 	_GLIBCXX_OPERATOR_DELETE(_GLIBCXX_SIZED_DEALLOC(__p, __n));
	.loc 6 183 59 is_stmt 0 view .LVU1070
	mov	rsi, r15	#, _26
	mov	rdi, rbx	#, _433
	call	"_ZdlPvm"@PLT	#
.LVL197:
	.loc 6 183 59 view .LVU1071
.LBE2891:
.LBE2890:
.LBE2889:
.LBE2888:
.LBE2887:
.LBE2886:
.LBB2892:
.LBI2892:
	.loc 2 139 14 is_stmt 1 view .LVU1072
.LBB2893:
.LBI2893:
	.loc 5 189 7 view .LVU1073
.LBB2894:
.LBI2894:
	.loc 6 104 7 view .LVU1074
	.loc 6 104 7 is_stmt 0 view .LVU1075
.LBE2894:
.LBE2893:
.LBE2892:
.LBE2885:
.LBE2882:
.LBB2895:
.LBI2895:
	.loc 2 790 7 is_stmt 1 view .LVU1076
.LBB2896:
.LBI2896:
	.loc 2 307 7 view .LVU1077
	.loc 2 307 7 is_stmt 0 view .LVU1078
.LBE2896:
.LBB2897:
.LBI2897:
	.loc 8 1082 5 is_stmt 1 view .LVU1079
	.loc 8 1082 5 is_stmt 0 view .LVU1080
.LBE2897:
.LBB2898:
.LBI2898:
	.loc 2 373 7 is_stmt 1 view .LVU1081
.L51:
.LBB2899:
.LBB2900:
.LBI2900:
	.loc 2 394 7 view .LVU1082
.LBB2901:
# /usr/include/c++/16/bits/stl_vector.h:397: 	if (__p)
	.loc 2 397 2 is_stmt 0 view .LVU1083
	mov	rax, QWORD PTR 80[rsp]	# _325, %sfp
	test	rax, rax	# _325
	je	.L52	#,
.LVL198:
.LBB2902:
.LBI2902:
	.loc 8 688 7 is_stmt 1 view .LVU1084
.LBB2903:
.LBI2903:
	.loc 6 167 7 view .LVU1085
.LBB2904:
# /usr/include/c++/16/bits/new_allocator.h:183: 	_GLIBCXX_OPERATOR_DELETE(_GLIBCXX_SIZED_DEALLOC(__p, __n));
	.loc 6 183 59 is_stmt 0 view .LVU1086
	mov	rsi, QWORD PTR 72[rsp]	#, %sfp
	mov	rdi, rax	#, _325
	call	"_ZdlPvm"@PLT	#
.LVL199:
.L52:
	.loc 6 183 59 view .LVU1087
.LBE2904:
.LBE2903:
.LBE2902:
.LBE2901:
.LBE2900:
.LBE2899:
.LBB2905:
.LBI2905:
	.loc 2 139 14 is_stmt 1 view .LVU1088
.LBB2906:
.LBI2906:
	.loc 5 189 7 view .LVU1089
.LBB2907:
.LBI2907:
	.loc 6 104 7 view .LVU1090
	.loc 6 104 7 is_stmt 0 view .LVU1091
.LBE2907:
.LBE2906:
.LBE2905:
.LBE2898:
.LBE2895:
.LBB2908:
.LBI2384:
	.loc 2 790 7 is_stmt 1 view .LVU1092
.LBB2398:
.LBI2398:
	.loc 2 307 7 view .LVU1093
	.loc 2 307 7 is_stmt 0 view .LVU1094
.LBE2398:
.LBB2399:
.LBI2399:
	.loc 8 1082 5 is_stmt 1 view .LVU1095
	.loc 8 1082 5 is_stmt 0 view .LVU1096
.LBE2399:
.LBB2400:
.LBI2385:
	.loc 2 373 7 is_stmt 1 view .LVU1097
.LBB2394:
.LBB2387:
.LBI2387:
	.loc 2 394 7 view .LVU1098
.LBB2388:
# /usr/include/c++/16/bits/stl_vector.h:397: 	if (__p)
	.loc 2 397 2 is_stmt 0 view .LVU1099
	mov	rax, QWORD PTR 88[rsp]	# __new_finish, %sfp
	test	rax, rax	# __new_finish
	je	.L1	#,
.LVL200:
.LBB2389:
.LBI2389:
	.loc 2 394 7 is_stmt 1 view .LVU1100
.LBB2390:
.LBB2391:
.LBI2391:
	.loc 8 688 7 view .LVU1101
.LBB2392:
.LBI2392:
	.loc 6 167 7 view .LVU1102
.LBB2393:
# /usr/include/c++/16/bits/new_allocator.h:183: 	_GLIBCXX_OPERATOR_DELETE(_GLIBCXX_SIZED_DEALLOC(__p, __n));
	.loc 6 183 59 is_stmt 0 view .LVU1103
	mov	rsi, QWORD PTR 64[rsp]	#, %sfp
	mov	rdi, rax	#, __new_finish
	call	"_ZdlPvm"@PLT	#
.LVL201:
	.loc 6 183 59 view .LVU1104
.LBE2393:
.LBE2392:
.LBE2391:
.LBE2390:
.LBE2389:
.LBE2388:
.LBE2387:
.LBE2394:
.LBB2395:
.LBI2395:
	.loc 2 139 14 is_stmt 1 view .LVU1105
.LBB2396:
.LBI2396:
	.loc 5 189 7 view .LVU1106
.LBB2397:
.LBI2397:
	.loc 6 104 7 view .LVU1107
.L1:
	.loc 6 104 7 is_stmt 0 view .LVU1108
.LBE2397:
.LBE2396:
.LBE2395:
.LBE2400:
.LBE2908:
# src/avx_analysis_code_ablations/opt10_abl_tile_8x256.cpp:193: }
	.loc 1 193 1 view .LVU1109
	mov	rax, QWORD PTR 128[rsp]	#, %sfp
	lea	rsp, -40[rbp]	#,
.LVL202:
	.loc 1 193 1 view .LVU1110
	pop	rbx	#
	pop	r12	#
	pop	r13	#
	pop	r14	#
	pop	r15	#
	pop	rbp	#
	.cfi_remember_state
	.cfi_def_cfa 7, 8
.LVL203:
	.loc 1 193 1 view .LVU1111
	ret	
.LVL204:
.L2:
	.cfi_restore_state
# src/avx_analysis_code_ablations/opt10_abl_tile_8x256.cpp:43:     output.data.assign(width * height * 3, 0);
	.loc 1 43 23 view .LVU1112
	lea	r14, [rdx+rdx*2]	# _5,
.LVL205:
.LBB2909:
.LBB2216:
.LBB2214:
.LBB2212:
.LBB2159:
.LBB2160:
.LBI2160:
	.loc 2 589 7 is_stmt 1 view .LVU1113
.LBB2161:
.LBI2161:
	.loc 2 2203 7 view .LVU1114
.LBB2162:
.LBB2163:
.LBI2163:
	.loc 5 172 7 view .LVU1115
.LBB2164:
.LBI2164:
	.loc 6 92 7 view .LVU1116
	.loc 6 92 7 is_stmt 0 view .LVU1117
.LBE2164:
.LBE2163:
.LBB2165:
.LBI2165:
	.loc 5 189 7 is_stmt 1 view .LVU1118
.LBB2166:
.LBI2166:
	.loc 6 104 7 view .LVU1119
.LBE2166:
.LBE2165:
# /usr/include/c++/16/bits/stl_vector.h:2205: 	if (__n > _S_max_size(_Tp_alloc_type(__a)))
	.loc 2 2205 2 is_stmt 0 discriminator 3 view .LVU1120
	test	r14, r14	# _5
	js	.L132	#,
.LVL206:
	.loc 2 2205 2 discriminator 3 view .LVU1121
.LBE2162:
.LBE2161:
.LBB2168:
.LBI2168:
	.loc 2 339 7 is_stmt 1 view .LVU1122
.LBB2169:
.LBI2169:
	.loc 2 152 2 view .LVU1123
.LBB2170:
.LBI2170:
	.loc 5 172 7 view .LVU1124
.LBB2171:
.LBI2171:
	.loc 6 92 7 view .LVU1125
	.loc 6 92 7 is_stmt 0 view .LVU1126
.LBE2171:
.LBE2170:
.LBB2172:
.LBI2172:
	.loc 2 105 2 is_stmt 1 view .LVU1127
	.loc 2 105 2 is_stmt 0 view .LVU1128
.LBE2172:
.LBE2169:
.LBB2173:
.LBI2173:
	.loc 2 405 7 is_stmt 1 view .LVU1129
.LBB2174:
.LBB2175:
.LBI2175:
	.loc 2 386 7 view .LVU1130
.LBB2176:
.LBB2177:
.LBI2177:
	.loc 8 637 7 view .LVU1131
.LBB2178:
.LBI2178:
	.loc 6 129 7 view .LVU1132
.LBB2179:
# /usr/include/c++/16/bits/new_allocator.h:162: 	  return static_cast<_Tp*>(_GLIBCXX_OPERATOR_NEW(__n * sizeof(_Tp)));
	.loc 6 162 68 is_stmt 0 view .LVU1133
	mov	rdi, r14	#, _5
.LVL207:
.LEHB4:
	.loc 6 162 68 view .LVU1134
	call	"_Znwm"@PLT	#
.LVL208:
.LEHE4:
	.loc 6 162 68 view .LVU1135
.LBE2179:
.LBE2178:
.LBE2177:
.LBE2176:
.LBE2175:
.LBE2174:
.LBE2173:
.LBE2168:
.LBB2182:
.LBB2183:
.LBB2184:
.LBB2185:
.LBB2186:
.LBB2187:
# /usr/include/c++/16/bits/stl_uninitialized.h:577: 		      __builtin_memset(__dest, (unsigned char)__x, __n);
	.loc 12 577 25 view .LVU1136
	xor	esi, esi	#
	mov	rdx, r14	#, _5
.LBE2187:
.LBE2186:
.LBE2185:
.LBE2184:
.LBE2183:
.LBE2182:
.LBB2193:
.LBB2181:
.LBB2180:
# /usr/include/c++/16/bits/stl_vector.h:409: 	this->_M_impl._M_end_of_storage = this->_M_impl._M_start + __n;
	.loc 2 409 59 view .LVU1137
	lea	r15, [rax+r14]	# _472,
.LVL209:
	.loc 2 409 59 view .LVU1138
.LBE2180:
.LBE2181:
.LBE2193:
.LBB2194:
.LBI2182:
	.loc 2 1987 7 is_stmt 1 view .LVU1139
.LBB2192:
.LBI2183:
	.loc 12 771 5 view .LVU1140
.LBB2191:
.LBI2184:
	.loc 12 550 5 view .LVU1141
.LBB2190:
.LBB2189:
.LBB2188:
# /usr/include/c++/16/bits/stl_uninitialized.h:577: 		      __builtin_memset(__dest, (unsigned char)__x, __n);
	.loc 12 577 25 is_stmt 0 view .LVU1142
	mov	rdi, rax	#,
	call	"memset"@PLT	#
.LVL210:
	.loc 12 577 25 view .LVU1143
	mov	rcx, rax	# tmp1571,
.LVL211:
	.loc 12 577 25 view .LVU1144
.LBE2188:
.LBE2189:
.LBE2190:
.LBE2191:
.LBE2192:
.LBE2194:
.LBE2160:
.LBB2196:
.LBI2196:
	.loc 2 128 2 is_stmt 1 view .LVU1145
.LBB2197:
.LBB2198:
.LBI2198:
	.loc 2 105 2 view .LVU1146
	.loc 2 105 2 is_stmt 0 view .LVU1147
.LBE2198:
.LBB2199:
.LBI2199:
	.loc 2 119 2 is_stmt 1 view .LVU1148
.LBB2200:
# /usr/include/c++/16/bits/stl_vector.h:121: 	  _M_start = __x._M_start;
	.loc 2 121 13 is_stmt 0 view .LVU1149
	mov	rax, QWORD PTR 128[rsp]	# <retval>, %sfp
.LVL212:
	.loc 2 121 13 view .LVU1150
	mov	QWORD PTR 16[rax], rcx	# MEM[(struct _Vector_impl_data *)output_206(D) + 16B]._M_start, tmp1571
# /usr/include/c++/16/bits/stl_vector.h:122: 	  _M_finish = __x._M_finish;
	.loc 2 122 14 view .LVU1151
	mov	QWORD PTR 24[rax], r15	# MEM[(struct _Vector_impl_data *)output_206(D) + 16B]._M_finish, _472
# /usr/include/c++/16/bits/stl_vector.h:123: 	  _M_end_of_storage = __x._M_end_of_storage;
	.loc 2 123 22 view .LVU1152
	mov	QWORD PTR 32[rax], r15	# MEM[(struct _Vector_impl_data *)output_206(D) + 16B]._M_end_of_storage, _472
.LVL213:
	.loc 2 123 22 view .LVU1153
.LBE2200:
.LBE2199:
.LBE2197:
.LBE2196:
.LBB2201:
.LBI2201:
	.loc 2 790 7 is_stmt 1 view .LVU1154
.LBB2202:
.LBI2202:
	.loc 2 307 7 view .LVU1155
	.loc 2 307 7 is_stmt 0 view .LVU1156
.LBE2202:
.LBB2203:
.LBI2203:
	.loc 8 1082 5 is_stmt 1 view .LVU1157
	.loc 8 1082 5 is_stmt 0 view .LVU1158
.LBE2203:
.LBB2204:
.LBI2204:
	.loc 2 373 7 is_stmt 1 view .LVU1159
.LBB2205:
.LBB2206:
.LBI2206:
	.loc 2 394 7 view .LVU1160
	.loc 2 394 7 is_stmt 0 view .LVU1161
.LBE2206:
.LBE2205:
.LBB2207:
.LBI2207:
	.loc 2 139 14 is_stmt 1 view .LVU1162
.LBB2208:
.LBI2208:
	.loc 5 189 7 view .LVU1163
.LBB2209:
.LBI2209:
	.loc 6 104 7 view .LVU1164
	.loc 6 104 7 is_stmt 0 view .LVU1165
.LBE2209:
.LBE2208:
.LBE2207:
.LBE2204:
.LBE2201:
.LBE2159:
.LBE2212:
.LBE2214:
.LBE2216:
.LBE2909:
	.loc 1 46 5 is_stmt 1 view .LVU1166
.LBB2910:
	.loc 2 551 7 view .LVU1167
.LBB2244:
	.loc 2 321 7 view .LVU1168
.LBB2238:
	.loc 2 143 2 view .LVU1169
.LBB2231:
	.loc 5 168 7 view .LVU1170
.LBB2223:
	.loc 6 88 7 view .LVU1171
	.loc 6 88 7 is_stmt 0 view .LVU1172
.LBE2223:
.LBE2231:
.LBB2232:
	.loc 2 105 2 is_stmt 1 view .LVU1173
	.loc 2 105 2 is_stmt 0 view .LVU1174
.LBE2232:
.LBE2238:
.LBE2244:
.LBE2910:
	.loc 1 47 5 is_stmt 1 view .LVU1175
.LBB2911:
	.loc 2 1107 7 view .LVU1176
.LBB2252:
# /usr/include/c++/16/bits/stl_vector.h:1109: 	ptrdiff_t __dif = this->_M_impl._M_finish - this->_M_impl._M_start;
	.loc 2 1109 34 is_stmt 0 view .LVU1177
	mov	rax, QWORD PTR 8[r13]	# _347, MEM[(const struct vector *)subapertures_201(D)].D.139286._M_impl.D.138633._M_finish
.LVL214:
	.loc 2 1109 34 view .LVU1178
.LBE2252:
.LBE2911:
.LBB2912:
	.loc 7 70 5 is_stmt 1 view .LVU1179
	.loc 7 70 5 is_stmt 0 view .LVU1180
.LBE2912:
.LBB2913:
.LBB2253:
# /usr/include/c++/16/bits/stl_vector.h:1109: 	ptrdiff_t __dif = this->_M_impl._M_finish - this->_M_impl._M_start;
	.loc 2 1109 34 view .LVU1181
	mov	QWORD PTR 272[rsp], rax	# %sfp, _347
.LBE2253:
.LBE2913:
.LBB2914:
.LBB2263:
# /usr/include/c++/16/bits/vector.tcc:75:       if (this->capacity() < __n)
	.loc 7 75 7 discriminator 1 view .LVU1182
	sub	rax, rbx	# _349, SR.299
.LVL215:
	.loc 7 75 7 discriminator 1 view .LVU1183
	mov	QWORD PTR 64[rsp], rax	# %sfp, _349
	jne	.L4	#,
.LBE2263:
.LBE2914:
.LBB2915:
.LBB2245:
.LBB2239:
.LBB2233:
.LBB2226:
# /usr/include/c++/16/bits/stl_vector.h:106: 	: _M_start(), _M_finish(), _M_end_of_storage()
	.loc 2 106 4 view .LVU1184
	mov	QWORD PTR 88[rsp], 0	# %sfp,
# /usr/include/c++/16/bits/stl_vector.h:106: 	: _M_start(), _M_finish(), _M_end_of_storage()
	.loc 2 106 29 view .LVU1185
	xor	r13d, r13d	# params$_M_end_of_storage
.LVL216:
	.loc 2 106 29 view .LVU1186
	jmp	.L8	#
.LVL217:
	.p2align 4,,10
	.p2align 3
.L69:
	.loc 2 106 29 view .LVU1187
.LBE2226:
.LBE2233:
.LBE2239:
.LBE2245:
.LBE2915:
.LBB2916:
.LBB2867:
.LBB2865:
.LBB2852:
.LBB2849:
.LBB2789:
.LBB2784:
.LBB2740:
# src/avx_analysis_code_ablations/opt10_abl_tile_8x256.cpp:124:                     size_t ind_lbot = ind_ltop + width * 3;
	.loc 1 124 28 view .LVU1188
	mov	QWORD PTR 232[rsp], r11	# %sfp, ivtmp.558
# src/avx_analysis_code_ablations/opt10_abl_tile_8x256.cpp:133:                     int x = (x_begin - tx) * 3;
	.loc 1 133 25 view .LVU1189
	mov	ecx, DWORD PTR 136[rsp]	# x, %sfp
	jmp	.L35	#
.LVL218:
.L70:
	.loc 1 133 25 view .LVU1190
	mov	rbx, QWORD PTR 232[rsp]	# ind_lbot, %sfp
.LVL219:
.LBB2729:
.LBB2728:
# src/avx_analysis_code_ablations/opt10_abl_tile_8x256.cpp:163:                         float TL = p.SUB[ind_ltop + k];
	.loc 1 163 38 view .LVU1191
	xor	r10d, r10d	# niters_vector_mult_vf.356
.LBE2728:
# src/avx_analysis_code_ablations/opt10_abl_tile_8x256.cpp:162:                     for (int k = 0; k < remaining; ++k) {
	.loc 1 162 30 view .LVU1192
	xor	r8d, r8d	# tmp.437
	lea	rsi, [rdi+rdx]	# tmp1542,
	lea	rcx, [rdi+rbx]	# tmp1540,
	jmp	.L38	#
.LVL220:
.L71:
	.loc 1 162 30 view .LVU1193
	xor	r9d, r9d	# niters_vector_mult_vf.396
	jmp	.L40	#
.LVL221:
.L139:
	.loc 1 162 30 view .LVU1194
.LBE2729:
.LBE2740:
.LBE2784:
.LBE2789:
.LBE2849:
.LBE2852:
.LBE2865:
.LBE2867:
.LBE2916:
.LBB2917:
.LBB2246:
.LBB2240:
.LBB2234:
.LBB2227:
# /usr/include/c++/16/bits/stl_vector.h:106: 	: _M_start(), _M_finish(), _M_end_of_storage()
	.loc 2 106 4 view .LVU1195
	mov	QWORD PTR 88[rsp], 0	# %sfp,
.LBE2227:
.LBE2234:
.LBE2240:
.LBE2246:
.LBE2917:
# src/avx_analysis_code_ablations/opt10_abl_tile_8x256.cpp:38:     const int h = static_cast<int>(height);
	.loc 1 38 15 view .LVU1196
	mov	r14d, ecx	# _2, _700
.LVL222:
	.loc 1 48 5 is_stmt 1 view .LVU1197
.LBB2918:
.LBB2377:
	.loc 2 988 7 view .LVU1198
.LBB2269:
	.loc 3 1058 7 view .LVU1199
	.loc 3 1058 7 is_stmt 0 view .LVU1200
.LBE2269:
.LBE2377:
.LBB2378:
	.loc 2 1008 7 is_stmt 1 view .LVU1201
.LBB2272:
	.loc 3 1058 7 view .LVU1202
	.loc 3 1058 7 is_stmt 0 view .LVU1203
.LBE2272:
.LBE2378:
	.loc 1 48 22 is_stmt 1 discriminator 5 view .LVU1204
.LBE2918:
.LBB2919:
.LBB2247:
.LBB2241:
.LBB2235:
.LBB2228:
# /usr/include/c++/16/bits/stl_vector.h:106: 	: _M_start(), _M_finish(), _M_end_of_storage()
	.loc 2 106 29 is_stmt 0 view .LVU1205
	xor	r13d, r13d	# params$_M_end_of_storage
.LBE2228:
.LBE2235:
.LBE2241:
.LBE2247:
.LBE2919:
# src/avx_analysis_code_ablations/opt10_abl_tile_8x256.cpp:37:     const int w = static_cast<int>(width);
	.loc 1 37 15 view .LVU1206
	vmovd	DWORD PTR 104[rsp], xmm0	# %sfp, tmp1743
.LBB2920:
# src/avx_analysis_code_ablations/opt10_abl_tile_8x256.cpp:48:     for (auto& sub : subapertures) {
	.loc 1 48 22 discriminator 6 view .LVU1207
	cmp	rdx, rbx	# _347, SR.299
	jne	.L5	#,
.LBE2920:
.LBB2921:
.LBB2248:
.LBB2242:
.LBB2236:
.LBB2229:
# /usr/include/c++/16/bits/stl_vector.h:106: 	: _M_start(), _M_finish(), _M_end_of_storage()
	.loc 2 106 4 view .LVU1208
	mov	QWORD PTR 144[rsp], 0	# %sfp,
.LVL223:
.L67:
	.loc 2 106 4 view .LVU1209
.LBE2229:
.LBE2236:
.LBE2242:
.LBE2248:
.LBE2921:
.LBB2922:
.LBB2453:
.LBB2433:
.LBB2431:
.LBB2429:
.LBB2427:
# /usr/include/c++/16/bits/stl_vector.h:389: 	return __n != 0 ? _Tr::allocate(_M_impl, __n) : pointer();
	.loc 2 389 58 discriminator 3 view .LVU1210
	mov	QWORD PTR 80[rsp], 0	# %sfp,
	jmp	.L18	#
.LVL224:
.L68:
	.loc 2 389 58 discriminator 3 view .LVU1211
.LBE2427:
.LBE2429:
.LBE2431:
.LBE2433:
.LBE2453:
.LBE2922:
.LBB2923:
.LBB2511:
.LBB2491:
.LBB2489:
.LBB2487:
.LBB2485:
	xor	ebx, ebx	# _433
	jmp	.L23	#
.LVL225:
.L13:
	.loc 2 389 58 discriminator 3 view .LVU1212
.LBE2485:
.LBE2487:
.LBE2489:
.LBE2491:
.LBE2511:
.LBE2923:
.LBB2924:
.LBB2379:
.LBB2373:
.LBB2369:
.LBB2296:
.LBI2296:
	.loc 7 565 7 is_stmt 1 view .LVU1213
.LBB2297:
.LBB2298:
.LBI2298:
	.loc 2 2192 7 view .LVU1214
.LBB2299:
.LBB2300:
.LBI2300:
	.loc 2 1107 7 view .LVU1215
.LBB2301:
# /usr/include/c++/16/bits/stl_vector.h:1109: 	ptrdiff_t __dif = this->_M_impl._M_finish - this->_M_impl._M_start;
	.loc 2 1109 44 is_stmt 0 view .LVU1216
	mov	rax, r13	# _542, params$_M_end_of_storage
	sub	rax, r15	# _542, params$_M_start
	mov	QWORD PTR 264[rsp], rax	# %sfp, _542
.LVL226:
# /usr/include/c++/16/bits/stl_vector.h:1109: 	ptrdiff_t __dif = this->_M_impl._M_finish - this->_M_impl._M_start;
	.loc 2 1109 12 view .LVU1217
	sar	rax, 4	# tmp851,
.LVL227:
	.loc 2 1109 12 view .LVU1218
	mov	rdx, rax	# tmp851, tmp851
	movabs	rax, -6148914691236517205	# tmp853,
	imul	rdx, rax	# __dif_543, tmp853
.LVL228:
	.loc 2 1109 12 view .LVU1219
.LBE2301:
.LBE2300:
# /usr/include/c++/16/bits/stl_vector.h:2194: 	if (max_size() - size() < __n)
	.loc 2 2194 2 discriminator 2 view .LVU1220
	movabs	rax, 192153584101141162	# tmp854,
	cmp	rdx, rax	# __dif_543, tmp854
	je	.L133	#,
.LBB2302:
.LBB2303:
# /usr/include/c++/16/bits/stl_algobase.h:261:       if (__a < __b)
	.loc 10 261 7 view .LVU1221
	test	rdx, rdx	# __dif_543
	mov	eax, 1	# tmp1622,
	mov	DWORD PTR 168[rsp], r11d	# %sfp, _466
	cmovne	rax, rdx	# __dif_543,, _545
	mov	DWORD PTR 176[rsp], ecx	# %sfp, _344
	mov	DWORD PTR 208[rsp], r9d	# %sfp, _20
.LBE2303:
.LBE2302:
# /usr/include/c++/16/bits/stl_vector.h:2197: 	const size_type __len = size() + (std::max)(size(), __n);
	.loc 2 2197 18 discriminator 3 view .LVU1222
	add	rax, rdx	# __len_546, __dif_543
# /usr/include/c++/16/bits/stl_vector.h:2198: 	return (__len < size() || __len > max_size()) ? max_size() : __len;
	.loc 2 2198 25 discriminator 3 view .LVU1223
	movabs	rdx, 192153584101141162	# tmp1623,
	mov	DWORD PTR 184[rsp], r8d	# %sfp, _16
	cmp	rax, rdx	# __len_546, tmp1623
	mov	DWORD PTR 220[rsp], esi	# %sfp, _9
	cmova	rax, rdx	# __len_546,, __len_546, tmp1623
	mov	DWORD PTR 224[rsp], r10d	# %sfp, _8
.LVL229:
.LBB2304:
.LBI2302:
	.loc 10 256 5 is_stmt 1 view .LVU1224
	.loc 10 256 5 is_stmt 0 view .LVU1225
.LBE2304:
.LBE2299:
.LBE2298:
.LBB2306:
.LBI2306:
	.loc 2 386 7 is_stmt 1 view .LVU1226
.LBB2307:
.LBB2308:
.LBI2308:
	.loc 8 637 7 view .LVU1227
.LBB2309:
.LBI2309:
	.loc 6 129 7 view .LVU1228
	.loc 6 129 7 is_stmt 0 view .LVU1229
	vmovss	DWORD PTR 192[rsp], xmm3	# %sfp, _15
.LBB2310:
# /usr/include/c++/16/bits/new_allocator.h:162: 	  return static_cast<_Tp*>(_GLIBCXX_OPERATOR_NEW(__n * sizeof(_Tp)));
	.loc 6 162 68 view .LVU1230
	lea	rax, [rax+rax*2]	# _563,
	vmovss	DWORD PTR 200[rsp], xmm0	# %sfp, _14
	sal	rax, 4	# _563,
	vmovss	DWORD PTR 212[rsp], xmm1	# %sfp, _13
	mov	rdi, rax	#, tmp861
	mov	QWORD PTR 240[rsp], rax	# %sfp, tmp861
	vmovss	DWORD PTR 216[rsp], xmm2	# %sfp, _12
.LEHB5:
	call	"_Znwm"@PLT	#
.LVL230:
.LEHE5:
	.loc 6 162 68 view .LVU1231
.LBE2310:
.LBE2309:
.LBE2308:
.LBE2307:
.LBE2306:
.LBB2319:
.LBB2320:
.LBB2321:
.LBB2322:
# /usr/include/c++/16/bits/new_allocator.h:203: 	{ ::new((void *)__p) _Up(std::forward<_Args>(__args)...); }
	.loc 6 203 4 discriminator 1 view .LVU1232
	vmovss	xmm0, DWORD PTR 200[rsp]	# _14, %sfp
	vmovss	xmm2, DWORD PTR 216[rsp]	# _12, %sfp
.LBE2322:
.LBE2321:
.LBE2320:
.LBE2319:
.LBB2361:
.LBB2317:
.LBB2315:
.LBB2313:
.LBB2311:
# /usr/include/c++/16/bits/new_allocator.h:162: 	  return static_cast<_Tp*>(_GLIBCXX_OPERATOR_NEW(__n * sizeof(_Tp)));
	.loc 6 162 68 view .LVU1233
	mov	QWORD PTR 248[rsp], rax	# %sfp, _564
.LVL231:
	.loc 6 162 68 view .LVU1234
.LBE2311:
.LBE2313:
.LBE2315:
.LBE2317:
.LBE2361:
.LBB2362:
.LBB2327:
.LBI2327:
	.loc 2 1865 2 is_stmt 1 view .LVU1235
	.loc 2 1865 2 is_stmt 0 view .LVU1236
.LBE2327:
.LBE2362:
.LBB2363:
.LBB2318:
.LBB2316:
.LBB2314:
.LBB2312:
# /usr/include/c++/16/bits/new_allocator.h:162: 	  return static_cast<_Tp*>(_GLIBCXX_OPERATOR_NEW(__n * sizeof(_Tp)));
	.loc 6 162 68 view .LVU1237
	mov	rdi, rax	# _564,
.LBE2312:
.LBE2314:
.LBE2316:
.LBE2318:
.LBE2363:
.LBB2364:
# /usr/include/c++/16/bits/vector.tcc:594: 	_Alloc_traits::construct(this->_M_impl,
	.loc 7 594 26 view .LVU1238
	mov	rdx, QWORD PTR 264[rsp]	# _542, %sfp
.LVL232:
.LBB2328:
.LBI2320:
	.loc 8 705 2 is_stmt 1 view .LVU1239
.LBB2325:
.LBI2321:
	.loc 6 201 2 view .LVU1240
.LBB2323:
# /usr/include/c++/16/bits/new_allocator.h:203: 	{ ::new((void *)__p) _Up(std::forward<_Args>(__args)...); }
	.loc 6 203 4 is_stmt 0 discriminator 1 view .LVU1241
	mov	r10d, DWORD PTR 224[rsp]	# _8, %sfp
	mov	esi, DWORD PTR 220[rsp]	# _9, %sfp
	vinsertps	xmm0, xmm0, DWORD PTR 192[rsp], 0x10	# tmp864, _14, %sfp
	vinsertps	xmm2, xmm2, DWORD PTR 212[rsp], 0x10	# tmp865, _12, %sfp
	mov	r8d, DWORD PTR 184[rsp]	# _16, %sfp
	mov	DWORD PTR [rax+rdx], r10d	# _551->sx, _8
	mov	ecx, DWORD PTR 176[rsp]	# _344, %sfp
	mov	r9d, DWORD PTR 208[rsp]	# _20, %sfp
	mov	DWORD PTR 4[rax+rdx], esi	# _551->sy, _9
	mov	r11d, DWORD PTR 168[rsp]	# _466, %sfp
	vmovlhps	xmm2, xmm2, xmm0	# _1046, tmp865, tmp864
	mov	DWORD PTR 24[rax+rdx], r8d	# _551->x_begin, _16
	mov	DWORD PTR 28[rax+rdx], ecx	# _551->x_end, _344
	mov	DWORD PTR 32[rax+rdx], r9d	# _551->y_begin, _20
	mov	DWORD PTR 36[rax+rdx], r11d	# _551->y_end, _466
	mov	QWORD PTR 40[rax+rdx], r12	# MEM <const unsigned char *> [(struct SubParams *)_551 + 40B], _354
.LVL233:
	.loc 6 203 4 discriminator 1 view .LVU1242
.LBE2323:
.LBE2325:
.LBE2328:
.LBB2329:
.LBI2329:
	.loc 12 1404 5 is_stmt 1 view .LVU1243
.LBB2330:
.LBI2330:
	.loc 12 1377 5 view .LVU1244
	.loc 12 1377 5 is_stmt 0 view .LVU1245
.LBE2330:
.LBE2329:
.LBB2333:
.LBB2326:
.LBB2324:
# /usr/include/c++/16/bits/new_allocator.h:203: 	{ ::new((void *)__p) _Up(std::forward<_Args>(__args)...); }
	.loc 6 203 4 discriminator 1 view .LVU1246
	vmovups	XMMWORD PTR 8[rax+rdx], xmm2	# MEM <vector(4) float> [(float *)_551 + 8B], _1046
.LBE2324:
.LBE2326:
.LBE2333:
.LBB2334:
.LBB2332:
.LBB2331:
# /usr/include/c++/16/bits/stl_uninitialized.h:1382:       if (__count > 0)
	.loc 12 1382 7 view .LVU1247
	test	rdx, rdx	# _542
	je	.L15	#,
# /usr/include/c++/16/bits/stl_uninitialized.h:1394: 	  __builtin_memcpy(__result, __first, __count * sizeof(_Tp));
	.loc 12 1394 20 view .LVU1248
	mov	rsi, r15	#, params$_M_start
	call	"memcpy"@PLT	#
.LVL234:
.L15:
	.loc 12 1394 20 view .LVU1249
.LBE2331:
.LBE2332:
.LBE2334:
# /usr/include/c++/16/bits/vector.tcc:610: 	    ++__new_finish;
	.loc 7 610 6 view .LVU1250
	mov	rax, QWORD PTR 248[rsp]	# _564, %sfp
	mov	rdx, QWORD PTR 264[rsp]	# _542, %sfp
	lea	rax, 48[rax+rdx]	# __new_finish,
.LVL235:
	.loc 7 610 6 view .LVU1251
	mov	QWORD PTR 88[rsp], rax	# %sfp, __new_finish
.LVL236:
.LBB2335:
.LBI2335:
	.loc 2 1870 2 is_stmt 1 view .LVU1252
.LBB2336:
# /usr/include/c++/16/bits/stl_vector.h:1872: 	  if (_M_storage)
	.loc 2 1872 4 is_stmt 0 view .LVU1253
	test	r15, r15	# params$_M_start
	je	.L16	#,
.LVL237:
.LBB2337:
.LBI2337:
	.loc 2 394 7 is_stmt 1 view .LVU1254
.LBB2338:
.LBB2339:
.LBI2339:
	.loc 2 394 7 view .LVU1255
.LBB2340:
.LBB2341:
.LBI2341:
	.loc 8 688 7 view .LVU1256
.LBB2342:
.LBI2342:
	.loc 6 167 7 view .LVU1257
.LBE2342:
.LBE2341:
.LBE2340:
.LBE2339:
.LBE2338:
.LBE2337:
.LBE2336:
.LBE2335:
# /usr/include/c++/16/bits/vector.tcc:648: 	__guard._M_len = this->_M_impl._M_end_of_storage - __old_start;
	.loc 7 648 51 is_stmt 0 view .LVU1258
	mov	rsi, r13	# params$_M_end_of_storage, params$_M_end_of_storage
.LBB2359:
.LBB2357:
.LBB2355:
.LBB2353:
.LBB2351:
.LBB2349:
.LBB2347:
.LBB2345:
.LBB2343:
# /usr/include/c++/16/bits/new_allocator.h:183: 	_GLIBCXX_OPERATOR_DELETE(_GLIBCXX_SIZED_DEALLOC(__p, __n));
	.loc 6 183 59 view .LVU1259
	mov	rdi, r15	#, params$_M_start
.LBE2343:
.LBE2345:
.LBE2347:
.LBE2349:
.LBE2351:
.LBE2353:
.LBE2355:
.LBE2357:
.LBE2359:
# /usr/include/c++/16/bits/vector.tcc:648: 	__guard._M_len = this->_M_impl._M_end_of_storage - __old_start;
	.loc 7 648 51 view .LVU1260
	sub	rsi, r15	# params$_M_end_of_storage, params$_M_start
.LBB2360:
.LBB2358:
.LBB2356:
.LBB2354:
.LBB2352:
.LBB2350:
.LBB2348:
.LBB2346:
.LBB2344:
# /usr/include/c++/16/bits/new_allocator.h:183: 	_GLIBCXX_OPERATOR_DELETE(_GLIBCXX_SIZED_DEALLOC(__p, __n));
	.loc 6 183 59 view .LVU1261
	call	"_ZdlPvm"@PLT	#
.LVL238:
.L16:
	.loc 6 183 59 view .LVU1262
.LBE2344:
.LBE2346:
.LBE2348:
.LBE2350:
.LBE2352:
.LBE2354:
.LBE2356:
.LBE2358:
.LBE2360:
.LBE2364:
# /usr/include/c++/16/bits/vector.tcc:655:       this->_M_impl._M_end_of_storage = __new_start + __len;
	.loc 7 655 53 view .LVU1263
	mov	r13, QWORD PTR 240[rsp]	# tmp861, %sfp
	mov	r15, QWORD PTR 248[rsp]	# _564, %sfp
.LVL239:
	.loc 7 655 53 view .LVU1264
	add	r13, r15	# tmp861, _564
.LVL240:
	.loc 7 655 53 view .LVU1265
	jmp	.L12	#
.LVL241:
.L64:
	.loc 7 655 53 view .LVU1266
.LBE2297:
.LBE2296:
.LBE2369:
.LBE2373:
.LBE2379:
# src/avx_analysis_code_ablations/opt10_abl_tile_8x256.cpp:48:     for (auto& sub : subapertures) {
	.loc 1 48 22 discriminator 6 view .LVU1267
	mov	rax, QWORD PTR 88[rsp]	# __new_finish, %sfp
	mov	QWORD PTR 144[rsp], rax	# %sfp, __new_finish
	jmp	.L9	#
.LVL242:
.L75:
	.loc 1 48 22 discriminator 6 view .LVU1268
.LBE2924:
.LBB2925:
.LBB2926:
.LBB2927:
.LBB2928:
.LBB2929:
# /usr/include/c++/16/bits/stl_vector.h:397: 	if (__p)
	.loc 2 397 2 view .LVU1269
	mov	r14, rax	# tmp1578,
	jmp	.L54	#
.LVL243:
.L128:
	.loc 2 397 2 view .LVU1270
	jmp	.L129	#
.LVL244:
.L76:
	.loc 2 397 2 view .LVU1271
	mov	rbx, rax	# tmp1530, tmp1575
	vzeroupper
.LVL245:
	jmp	.L21	#
.LVL246:
.L130:
	.loc 2 397 2 view .LVU1272
	jmp	.L131	#
.LVL247:
.L126:
	.loc 2 397 2 view .LVU1273
	jmp	.L127	#
.LVL248:
	.loc 2 397 2 view .LVU1274
.LBE2929:
.LBE2928:
.LBE2927:
.LBE2926:
.LBE2925:
	.section	.gcc_except_table,"a",@progbits
.LLSDA11707:
	.byte	0xff
	.byte	0xff
	.byte	0x1
	.uleb128 .LLSDACSE11707-.LLSDACSB11707
.LLSDACSB11707:
	.uleb128 .LEHB0-.LFB11707
	.uleb128 .LEHE0-.LEHB0
	.uleb128 .L126-.LFB11707
	.uleb128 0
	.uleb128 .LEHB1-.LFB11707
	.uleb128 .LEHE1-.LEHB1
	.uleb128 .L76-.LFB11707
	.uleb128 0
	.uleb128 .LEHB2-.LFB11707
	.uleb128 .LEHE2-.LEHB2
	.uleb128 .L128-.LFB11707
	.uleb128 0
	.uleb128 .LEHB3-.LFB11707
	.uleb128 .LEHE3-.LEHB3
	.uleb128 .L75-.LFB11707
	.uleb128 0
	.uleb128 .LEHB4-.LFB11707
	.uleb128 .LEHE4-.LEHB4
	.uleb128 .L126-.LFB11707
	.uleb128 0
	.uleb128 .LEHB5-.LFB11707
	.uleb128 .LEHE5-.LEHB5
	.uleb128 .L130-.LFB11707
	.uleb128 0
.LLSDACSE11707:
	.text
	.cfi_endproc
	.section	.text.unlikely
	.cfi_startproc
	.cfi_personality 0x9b,"DW.ref.__gxx_personality_v0"
	.cfi_lsda 0x1b,.LLSDAC11707
	.type	"_Z21refocus_shift_and_sumRSt6vectorI16SubApertureImageSaIS0_EEf.cold", @function
"_Z21refocus_shift_and_sumRSt6vectorI16SubApertureImageSaIS0_EEf.cold":
.LFSB11707:
.LBB2950:
.LBB2945:
.LBB2939:
.LBB2936:
.LBB2933:
.L132:
	.cfi_def_cfa 6, 16
	.cfi_offset 3, -56
	.cfi_offset 6, -16
	.cfi_offset 12, -48
	.cfi_offset 13, -40
	.cfi_offset 14, -32
	.cfi_offset 15, -24
.LBE2933:
.LBE2936:
.LBE2939:
.LBE2945:
.LBE2950:
.LBB2951:
.LBB2217:
.LBB2215:
.LBB2213:
.LBB2211:
.LBB2210:
.LBB2195:
.LBB2167:
# /usr/include/c++/16/bits/stl_vector.h:2206: 	  __throw_length_error(
	.loc 2 2206 24 view -0
	lea	rdi, .LC0[rip]	#,
.LVL249:
.LEHB6:
	.loc 2 2206 24 view .LVU1276
	call	"_ZSt20__throw_length_errorPKc"@PLT	#
.LVL250:
.LEHE6:
.L135:
	.loc 2 2206 24 view .LVU1277
.LBE2167:
.LBE2195:
.LBE2210:
.LBE2211:
.LBE2213:
.LBE2215:
.LBE2217:
.LBE2951:
.LBB2952:
.LBB2512:
.LBB2466:
	lea	rdi, .LC0[rip]	#,
.LEHB7:
	call	"_ZSt20__throw_length_errorPKc"@PLT	#
.LVL251:
.LEHE7:
.L133:
	.loc 2 2206 24 view .LVU1278
.LBE2466:
.LBE2512:
.LBE2952:
.LBB2953:
.LBB2380:
.LBB2374:
.LBB2370:
.LBB2367:
.LBB2366:
.LBB2365:
.LBB2305:
# /usr/include/c++/16/bits/stl_vector.h:2195: 	  __throw_length_error(__N(__s));
	.loc 2 2195 24 view .LVU1279
	lea	rdi, .LC2[rip]	#,
.LEHB8:
	call	"_ZSt20__throw_length_errorPKc"@PLT	#
.LVL252:
.LEHE8:
.L134:
	.loc 2 2195 24 view .LVU1280
.LBE2305:
.LBE2365:
.LBE2366:
.LBE2367:
.LBE2370:
.LBE2374:
.LBE2380:
.LBE2953:
.LBB2954:
.LBB2454:
.LBB2410:
# /usr/include/c++/16/bits/stl_vector.h:2206: 	  __throw_length_error(
	.loc 2 2206 24 view .LVU1281
	lea	rdi, .LC0[rip]	#,
.LEHB9:
	call	"_ZSt20__throw_length_errorPKc"@PLT	#
.LVL253:
.LEHE9:
.L54:
	.loc 2 2206 24 view .LVU1282
.LBE2410:
.LBE2454:
.LBE2954:
.LBB2955:
.LBI2925:
	.loc 2 790 7 is_stmt 1 view .LVU1283
.LBB2946:
.LBI2946:
	.loc 2 307 7 view .LVU1284
	.loc 2 307 7 is_stmt 0 view .LVU1285
.LBE2946:
.LBB2947:
.LBI2947:
	.loc 8 1082 5 is_stmt 1 view .LVU1286
	.loc 8 1082 5 is_stmt 0 view .LVU1287
.LBE2947:
.LBB2948:
.LBI2926:
	.loc 2 373 7 is_stmt 1 view .LVU1288
.LBB2940:
.LBB2937:
.LBI2928:
	.loc 2 394 7 view .LVU1289
.LBB2934:
# /usr/include/c++/16/bits/stl_vector.h:397: 	if (__p)
	.loc 2 397 2 is_stmt 0 view .LVU1290
	test	rbx, rbx	# _433
	jne	.L141	#,
	vzeroupper
.LVL254:
.L55:
	.loc 2 397 2 view .LVU1291
.LBE2934:
.LBE2937:
.LBE2940:
.LBB2941:
.LBI2941:
	.loc 2 139 14 is_stmt 1 view .LVU1292
.LBB2942:
.LBI2942:
	.loc 5 189 7 view .LVU1293
.LBB2943:
.LBI2943:
	.loc 6 104 7 view .LVU1294
	.loc 6 104 7 is_stmt 0 view .LVU1295
	mov	rbx, r14	# tmp1526, tmp1578
	jmp	.L56	#
.LVL255:
.L74:
.L129:
	.loc 6 104 7 view .LVU1296
.LBE2943:
.LBE2942:
.LBE2941:
.LBE2948:
.LBE2955:
.LBB2956:
.LBB2957:
.LBB2958:
.LBB2959:
.LBB2960:
# /usr/include/c++/16/bits/stl_vector.h:397: 	if (__p)
	.loc 2 397 2 view .LVU1297
	mov	rbx, rax	# tmp1526, tmp1579
	vzeroupper
.LVL256:
.L56:
	.loc 2 397 2 view .LVU1298
.LBE2960:
.LBE2959:
.LBE2958:
.LBE2957:
.LBI2956:
	.loc 2 790 7 is_stmt 1 view .LVU1299
.LBB2970:
.LBI2970:
	.loc 2 307 7 view .LVU1300
	.loc 2 307 7 is_stmt 0 view .LVU1301
.LBE2970:
.LBB2971:
.LBI2971:
	.loc 8 1082 5 is_stmt 1 view .LVU1302
	.loc 8 1082 5 is_stmt 0 view .LVU1303
.LBE2971:
.LBB2972:
.LBI2957:
	.loc 2 373 7 is_stmt 1 view .LVU1304
.LBB2966:
.LBB2965:
.LBI2959:
	.loc 2 394 7 view .LVU1305
.LBB2964:
# /usr/include/c++/16/bits/stl_vector.h:397: 	if (__p)
	.loc 2 397 2 is_stmt 0 view .LVU1306
	cmp	QWORD PTR 80[rsp], 0	# %sfp,
	je	.L21	#,
.LVL257:
.LBB2961:
.LBI2961:
	.loc 8 688 7 is_stmt 1 view .LVU1307
.LBB2962:
.LBI2962:
	.loc 6 167 7 view .LVU1308
.LBB2963:
# /usr/include/c++/16/bits/new_allocator.h:183: 	_GLIBCXX_OPERATOR_DELETE(_GLIBCXX_SIZED_DEALLOC(__p, __n));
	.loc 6 183 59 is_stmt 0 view .LVU1309
	mov	rsi, QWORD PTR 72[rsp]	#, %sfp
	mov	rdi, QWORD PTR 80[rsp]	#, %sfp
	call	"_ZdlPvm"@PLT	#
.LVL258:
	.loc 6 183 59 view .LVU1310
.LBE2963:
.LBE2962:
.LBE2961:
.LBE2964:
.LBE2965:
.LBE2966:
.LBB2967:
.LBI2967:
	.loc 2 139 14 is_stmt 1 view .LVU1311
.LBB2968:
.LBI2968:
	.loc 5 189 7 view .LVU1312
.LBB2969:
.LBI2969:
	.loc 6 104 7 view .LVU1313
.L21:
	.loc 6 104 7 is_stmt 0 view .LVU1314
.LBE2969:
.LBE2968:
.LBE2967:
.LBE2972:
.LBE2956:
.LBB2973:
.LBI2973:
	.loc 2 790 7 is_stmt 1 view .LVU1315
.LBB2974:
.LBI2974:
	.loc 2 307 7 view .LVU1316
	.loc 2 307 7 is_stmt 0 view .LVU1317
.LBE2974:
.LBB2975:
.LBI2975:
	.loc 8 1082 5 is_stmt 1 view .LVU1318
	.loc 8 1082 5 is_stmt 0 view .LVU1319
.LBE2975:
.LBB2976:
.LBI2976:
	.loc 2 373 7 is_stmt 1 view .LVU1320
.LBB2977:
.LBB2978:
.LBI2978:
	.loc 2 394 7 view .LVU1321
.LBB2979:
# /usr/include/c++/16/bits/stl_vector.h:397: 	if (__p)
	.loc 2 397 2 is_stmt 0 view .LVU1322
	cmp	QWORD PTR 88[rsp], 0	# %sfp,
	je	.L60	#,
.LVL259:
.LBB2980:
.LBI2980:
	.loc 2 394 7 is_stmt 1 view .LVU1323
.LBB2981:
.LBB2982:
.LBI2982:
	.loc 8 688 7 view .LVU1324
.LBB2983:
.LBI2983:
	.loc 6 167 7 view .LVU1325
.LBE2983:
.LBE2982:
.LBE2981:
.LBE2980:
.LBE2979:
.LBE2978:
# /usr/include/c++/16/bits/stl_vector.h:375: 	ptrdiff_t __n = _M_impl._M_end_of_storage - _M_impl._M_start;
	.loc 2 375 44 is_stmt 0 view .LVU1326
	mov	rdi, QWORD PTR 88[rsp]	# __new_finish, %sfp
	mov	rsi, r13	# params$_M_end_of_storage, params$_M_end_of_storage
	sub	rsi, rdi	# params$_M_end_of_storage, __new_finish
.LBB2991:
.LBB2989:
.LBB2988:
.LBB2987:
.LBB2986:
.LBB2985:
.LBB2984:
# /usr/include/c++/16/bits/new_allocator.h:183: 	_GLIBCXX_OPERATOR_DELETE(_GLIBCXX_SIZED_DEALLOC(__p, __n));
	.loc 6 183 59 view .LVU1327
	call	"_ZdlPvm"@PLT	#
.LVL260:
	.loc 6 183 59 view .LVU1328
.LBE2984:
.LBE2985:
.LBE2986:
.LBE2987:
.LBE2988:
.LBE2989:
.LBE2991:
.LBE2977:
.LBB2993:
.LBI2993:
	.loc 2 139 14 is_stmt 1 view .LVU1329
.LBB2994:
.LBI2994:
	.loc 5 189 7 view .LVU1330
.LBB2995:
.LBI2995:
	.loc 6 104 7 view .LVU1331
	.loc 6 104 7 is_stmt 0 view .LVU1332
	jmp	.L60	#
.LVL261:
.L72:
.L127:
	.loc 6 104 7 view .LVU1333
.LBE2995:
.LBE2994:
.LBE2993:
.LBE2976:
.LBE2973:
.LBB2998:
.LBB2999:
.LBB3000:
.LBB3001:
# /usr/include/c++/16/bits/stl_vector.h:375: 	ptrdiff_t __n = _M_impl._M_end_of_storage - _M_impl._M_start;
	.loc 2 375 54 view .LVU1334
	mov	rbx, rax	# tmp1533, tmp1582
	vzeroupper
.LVL262:
.L60:
	.loc 2 375 54 view .LVU1335
.LBE3001:
.LBE3000:
.LBE2999:
.LBI2998:
	.loc 4 11 8 is_stmt 1 view .LVU1336
.LBB3018:
.LBI2999:
	.loc 2 790 7 view .LVU1337
.LBB3015:
.LBI3015:
	.loc 2 307 7 view .LVU1338
	.loc 2 307 7 is_stmt 0 view .LVU1339
.LBE3015:
.LBB3016:
.LBI3016:
	.loc 8 1082 5 is_stmt 1 view .LVU1340
	.loc 8 1082 5 is_stmt 0 view .LVU1341
.LBE3016:
.LBB3017:
.LBI3000:
	.loc 2 373 7 is_stmt 1 view .LVU1342
.LBB3011:
# /usr/include/c++/16/bits/stl_vector.h:375: 	ptrdiff_t __n = _M_impl._M_end_of_storage - _M_impl._M_start;
	.loc 2 375 54 is_stmt 0 view .LVU1343
	mov	rax, QWORD PTR 128[rsp]	# <retval>, %sfp
	mov	rdi, QWORD PTR 16[rax]	# _416, MEM[(struct _Vector_base *)output_206(D) + 16B]._M_impl.D.86896._M_start
.LVL263:
.LBB3002:
.LBI3002:
	.loc 2 394 7 is_stmt 1 view .LVU1344
.LBB3003:
# /usr/include/c++/16/bits/stl_vector.h:397: 	if (__p)
	.loc 2 397 2 is_stmt 0 view .LVU1345
	test	rdi, rdi	# _416
	je	.L61	#,
.LVL264:
.LBB3004:
.LBI3004:
	.loc 8 688 7 is_stmt 1 view .LVU1346
.LBB3005:
.LBI3005:
	.loc 6 167 7 view .LVU1347
.LBE3005:
.LBE3004:
.LBE3003:
.LBE3002:
# /usr/include/c++/16/bits/stl_vector.h:375: 	ptrdiff_t __n = _M_impl._M_end_of_storage - _M_impl._M_start;
	.loc 2 375 12 is_stmt 0 view .LVU1348
	mov	rsi, QWORD PTR 32[rax]	# MEM[(struct _Vector_base *)output_206(D) + 16B]._M_impl.D.86896._M_end_of_storage, MEM[(struct _Vector_base *)output_206(D) + 16B]._M_impl.D.86896._M_end_of_storage
	sub	rsi, rdi	# __n_417, _416
.LBB3010:
.LBB3009:
.LBB3008:
.LBB3007:
.LBB3006:
# /usr/include/c++/16/bits/new_allocator.h:183: 	_GLIBCXX_OPERATOR_DELETE(_GLIBCXX_SIZED_DEALLOC(__p, __n));
	.loc 6 183 59 view .LVU1349
	call	"_ZdlPvm"@PLT	#
.LVL265:
.L61:
	.loc 6 183 59 view .LVU1350
.LBE3006:
.LBE3007:
.LBE3008:
.LBE3009:
.LBE3010:
.LBE3011:
.LBB3012:
.LBI3012:
	.loc 2 139 14 is_stmt 1 view .LVU1351
.LBB3013:
.LBI3013:
	.loc 5 189 7 view .LVU1352
.LBB3014:
.LBI3014:
	.loc 6 104 7 view .LVU1353
	.loc 6 104 7 is_stmt 0 view .LVU1354
	mov	rdi, rbx	#, tmp1533
.LEHB10:
	call	"_Unwind_Resume"@PLT	#
.LVL266:
.LEHE10:
.L141:
	.loc 6 104 7 view .LVU1355
.LBE3014:
.LBE3013:
.LBE3012:
.LBE3017:
.LBE3018:
.LBE2998:
.LBB3019:
.LBB2949:
.LBB2944:
.LBB2938:
.LBB2935:
.LBB2930:
.LBI2930:
	.loc 8 688 7 is_stmt 1 view .LVU1356
.LBB2931:
.LBI2931:
	.loc 6 167 7 view .LVU1357
.LBB2932:
# /usr/include/c++/16/bits/new_allocator.h:183: 	_GLIBCXX_OPERATOR_DELETE(_GLIBCXX_SIZED_DEALLOC(__p, __n));
	.loc 6 183 59 is_stmt 0 view .LVU1358
	mov	rsi, r15	#, _26
	mov	rdi, rbx	#, _433
	vzeroupper
.LVL267:
	call	"_ZdlPvm"@PLT	#
.LVL268:
	.loc 6 183 59 view .LVU1359
	jmp	.L55	#
.LVL269:
.L77:
.L131:
	.loc 6 183 59 view .LVU1360
.LBE2932:
.LBE2931:
.LBE2930:
.LBE2935:
.LBE2938:
.LBE2944:
.LBE2949:
.LBE3019:
.LBB3020:
.LBB2868:
.LBB2866:
.LBB2853:
.LBB2850:
.LBB2815:
# src/avx_analysis_code_ablations/opt10_abl_tile_8x256.cpp:175:                 unsigned char* outp = output.data.data() + (y * width + tx) * 3;
	.loc 1 175 79 discriminator 1 view .LVU1361
	mov	QWORD PTR 88[rsp], r15	# %sfp, params$_M_start
	mov	rbx, rax	# tmp1530, tmp1580
.LVL270:
	.loc 1 175 79 discriminator 1 view .LVU1362
	vzeroupper
.LVL271:
	jmp	.L21	#
.LVL272:
.L73:
	.loc 1 175 79 discriminator 1 view .LVU1363
.LBE2815:
.LBE2850:
.LBE2853:
.LBE2866:
.LBE2868:
.LBE3020:
.LBB3021:
.LBB2997:
.LBB2996:
.LBB2992:
.LBB2990:
# /usr/include/c++/16/bits/stl_vector.h:397: 	if (__p)
	.loc 2 397 2 view .LVU1364
	mov	rbx, rax	# tmp1530, tmp1581
	vzeroupper
.LVL273:
	jmp	.L21	#
.LBE2990:
.LBE2992:
.LBE2996:
.LBE2997:
.LBE3021:
	.cfi_endproc
.LFE11707:
	.section	.gcc_except_table
.LLSDAC11707:
	.byte	0xff
	.byte	0xff
	.byte	0x1
	.uleb128 .LLSDACSEC11707-.LLSDACSBC11707
.LLSDACSBC11707:
	.uleb128 .LEHB6-.LCOLDB5
	.uleb128 .LEHE6-.LEHB6
	.uleb128 .L72-.LCOLDB5
	.uleb128 0
	.uleb128 .LEHB7-.LCOLDB5
	.uleb128 .LEHE7-.LEHB7
	.uleb128 .L74-.LCOLDB5
	.uleb128 0
	.uleb128 .LEHB8-.LCOLDB5
	.uleb128 .LEHE8-.LEHB8
	.uleb128 .L77-.LCOLDB5
	.uleb128 0
	.uleb128 .LEHB9-.LCOLDB5
	.uleb128 .LEHE9-.LEHB9
	.uleb128 .L73-.LCOLDB5
	.uleb128 0
	.uleb128 .LEHB10-.LCOLDB5
	.uleb128 .LEHE10-.LEHB10
	.uleb128 0
	.uleb128 0
.LLSDACSEC11707:
	.section	.text.unlikely
	.text
	.size	"_Z21refocus_shift_and_sumRSt6vectorI16SubApertureImageSaIS0_EEf", .-"_Z21refocus_shift_and_sumRSt6vectorI16SubApertureImageSaIS0_EEf"
	.section	.text.unlikely
	.size	"_Z21refocus_shift_and_sumRSt6vectorI16SubApertureImageSaIS0_EEf.cold", .-"_Z21refocus_shift_and_sumRSt6vectorI16SubApertureImageSaIS0_EEf.cold"
.LCOLDE5:
	.text
.LHOTE5:
	.section	.rodata.cst4,"aM",@progbits,4
	.align 4
.LC1:
	.long	1065353216
	.text
.Letext0:
	.section	.text.unlikely
.Letext_cold0:
	.file 17 "/usr/include/c++/16/cwchar"
	.file 18 "/usr/include/x86_64-linux-gnu/c++/16/bits/c++config.h"
	.file 19 "/usr/include/c++/16/type_traits"
	.file 20 "/usr/include/c++/16/bits/exception_ptr.h"
	.file 21 "/usr/include/c++/16/clocale"
	.file 22 "/usr/include/c++/16/bits/stl_iterator_base_types.h"
	.file 23 "/usr/include/c++/16/debug/debug.h"
	.file 24 "/usr/include/c++/16/cstdlib"
	.file 25 "/usr/include/c++/16/cstdio"
	.file 26 "/usr/include/c++/16/cstddef"
	.file 27 "/usr/include/c++/16/cstdint"
	.file 28 "/usr/include/c++/16/ctime"
	.file 29 "/usr/include/c++/16/bits/chrono.h"
	.file 30 "/usr/include/c++/16/system_error"
	.file 31 "/usr/include/c++/16/bits/fs_fwd.h"
	.file 32 "/usr/include/c++/16/bits/fs_path.h"
	.file 33 "/usr/include/c++/16/cwctype"
	.file 34 "/usr/include/c++/16/bits/shared_ptr_base.h"
	.file 35 "/usr/include/c++/16/bits/std_abs.h"
	.file 36 "/usr/include/c++/16/initializer_list"
	.file 37 "/usr/include/c++/16/bits/new_throw.h"
	.file 38 "/usr/include/c++/16/bits/stdexcept_throwfwd.h"
	.file 39 "/usr/include/c++/16/bits/ptr_traits.h"
	.file 40 "/usr/lib/gcc/x86_64-linux-gnu/16/include/stddef.h"
	.file 41 "<built-in>"
	.file 42 "/usr/include/x86_64-linux-gnu/bits/types/wint_t.h"
	.file 43 "/usr/include/x86_64-linux-gnu/bits/types/__mbstate_t.h"
	.file 44 "/usr/include/x86_64-linux-gnu/bits/types/mbstate_t.h"
	.file 45 "/usr/include/x86_64-linux-gnu/bits/types/__FILE.h"
	.file 46 "/usr/include/x86_64-linux-gnu/bits/types/struct_FILE.h"
	.file 47 "/usr/include/x86_64-linux-gnu/bits/types/FILE.h"
	.file 48 "/usr/include/wchar.h"
	.file 49 "/usr/include/x86_64-linux-gnu/bits/types/struct_tm.h"
	.file 50 "/usr/include/c++/16/ext/alloc_traits.h"
	.file 51 "/usr/include/c++/16/ext/type_traits.h"
	.file 52 "/usr/include/locale.h"
	.file 53 "/usr/include/x86_64-linux-gnu/bits/types.h"
	.file 54 "/usr/include/stdlib.h"
	.file 55 "/usr/include/x86_64-linux-gnu/bits/types/clock_t.h"
	.file 56 "/usr/include/x86_64-linux-gnu/bits/types/time_t.h"
	.file 57 "/usr/include/x86_64-linux-gnu/bits/stdint-intn.h"
	.file 58 "/usr/include/x86_64-linux-gnu/bits/types/struct_timespec.h"
	.file 59 "/usr/include/x86_64-linux-gnu/bits/stdlib-float.h"
	.file 60 "/usr/include/x86_64-linux-gnu/bits/stdlib-bsearch.h"
	.file 61 "/usr/include/x86_64-linux-gnu/bits/types/__fpos_t.h"
	.file 62 "/usr/include/stdio.h"
	.file 63 "/usr/include/x86_64-linux-gnu/bits/stdio.h"
	.file 64 "/usr/include/x86_64-linux-gnu/bits/stdint-uintn.h"
	.file 65 "/usr/include/x86_64-linux-gnu/bits/stdint-least.h"
	.file 66 "/usr/include/stdint.h"
	.file 67 "/usr/include/time.h"
	.file 68 "/usr/include/x86_64-linux-gnu/bits/wctype-wchar.h"
	.file 69 "/usr/include/wctype.h"
	.file 70 "/usr/include/math.h"
	.file 71 "/usr/include/c++/16/pstl/execution_defs.h"
	.file 72 "/usr/lib/gcc/x86_64-linux-gnu/16/include/mmintrin.h"
	.file 73 "/usr/include/c++/16/stdlib.h"
	.file 74 "/usr/include/c++/16/new"
	.file 75 "/usr/include/c++/16/bits/memory_resource.h"
	.file 76 "/usr/include/c++/16/string_view"
	.file 77 "/usr/include/c++/16/ext/concurrence.h"
	.section	.data.rel.local.DW.ref.__gxx_personality_v0,"awG",@progbits,DW.ref.__gxx_personality_v0,comdat
	.align 8
	.type	"DW.ref.__gxx_personality_v0", @object
	.size	"DW.ref.__gxx_personality_v0", 8
"DW.ref.__gxx_personality_v0":
	.quad	"__gxx_personality_v0"
	.globl	"__gxx_personality_v0"
	.ident	"GCC: (Debian 16-20260425-1) 16.0.1 20260425 (prerelease) [gcc-16 r16-8812-gd9c07462a22]"
	.section	.note.GNU-stack,"",@progbits
