	.file	"opt7_5.cpp"
	.intel_syntax noprefix
# GNU C++17 (Debian 16-20260425-1) version 16.0.1 20260425 (prerelease) [gcc-16 r16-8812-gd9c07462a22] (x86_64-linux-gnu)
#	compiled by GNU C version 16.0.1 20260425 (prerelease) [gcc-16 r16-8812-gd9c07462a22], GMP version 6.3.0, MPFR version 4.2.2, MPC version 1.3.1, isl version isl-0.27-GMP

# GGC heuristics: --param ggc-min-expand=30 --param ggc-min-heapsize=4096
# options passed: -march=tigerlake -mmmx -mpopcnt -msse -msse2 -msse3 -mssse3 -msse4.1 -msse4.2 -mavx -mavx2 -mno-sse4a -mno-fma4 -mno-xop -mfma -mavx512f -mbmi -mbmi2 -maes -mpclmul -mavx512vl -mavx512bw -mavx512dq -mavx512cd -mavx512vbmi -mavx512ifma -mavx512vpopcntdq -mavx512vbmi2 -mgfni -mvpclmulqdq -mavx512vnni -mavx512bitalg -mno-avx512bf16 -mavx512vp2intersect -mno-3dnow -madx -mabm -mno-cldemote -mclflushopt -mclwb -mno-clzero -mcx16 -mno-enqcmd -mf16c -mfsgsbase -mfxsr -mno-hle -msahf -mno-lwp -mlzcnt -mmovbe -mmovdir64b -mmovdiri -mno-mwaitx -mno-pconfig -mpku -mprfchw -mno-ptwrite -mrdpid -mrdrnd -mrdseed -mno-rtm -mno-serialize -mno-sgx -msha -mshstk -mno-tbm -mno-tsxldtrk -mvaes -mno-waitpkg -mno-wbnoinvd -mxsave -mxsavec -mxsaveopt -mxsaves -mno-amx-tile -mno-amx-int8 -mno-amx-bf16 -mno-uintr -mno-hreset -mno-kl -mno-widekl -mno-avxvnni -mno-avx512fp16 -mno-avxifma -mno-avxvnniint8 -mno-avxneconvert -mno-cmpccxadd -mno-amx-fp16 -mno-prefetchi -mno-raoint -mno-amx-complex -mno-avxvnniint16 -mno-sm3 -mno-sha512 -mno-sm4 -mno-apxf -mno-usermsr -mno-avx10.1 -mno-avx10.2 -mno-amx-avx512 -mno-amx-tf32 -mno-amx-fp8 -mno-movrs -mno-amx-movrs -mno-avx512bmm --param=l1-cache-size=48 --param=l1-cache-line-size=64 --param=l2-cache-size=8192 -mtune=tigerlake -masm=intel -g -O3 -std=c++17 -ffast-math -fno-tree-vectorize -fasynchronous-unwind-tables
	.text
.Ltext0:
	.file 0 "/home/team15/tomasz-worktree-dir/cpp_refocus" "src/opt7_5.cpp"
	.section	.rodata.str1.8,"aMS",@progbits,1
	.align 8
.LC0:
	.string	"cannot create std::vector larger than max_size()"
	.section	.rodata.str1.1,"aMS",@progbits,1
.LC2:
	.string	"vector::_M_realloc_append"
.LC8:
	.string	"X coordinate out of bounds"
.LC9:
	.string	"Y coordinate out of bounds"
	.section	.text.unlikely,"ax",@progbits
.LCOLDB10:
	.text
.LHOTB10:
	.p2align 4
	.section	.text.unlikely
.Ltext_cold0:
	.text
	.globl	"_Z21refocus_shift_and_sumRSt6vectorI16SubApertureImageSaIS0_EEf"
	.type	"_Z21refocus_shift_and_sumRSt6vectorI16SubApertureImageSaIS0_EEf", @function
"_Z21refocus_shift_and_sumRSt6vectorI16SubApertureImageSaIS0_EEf":
.LVL0:
.LFB4421:
	.file 1 "src/opt7_5.cpp"
	.loc 1 28 91 view -0
	.cfi_startproc
	.cfi_personality 0x9b,"DW.ref.__gxx_personality_v0"
	.cfi_lsda 0x1b,.LLSDA4421
	.loc 1 28 91 is_stmt 0 view .LVU1
	push	r15	#
	.cfi_def_cfa_offset 16
	.cfi_offset 15, -16
	vmovaps	xmm4, xmm0	# focus, focus
	push	r14	#
	.cfi_def_cfa_offset 24
	.cfi_offset 14, -24
	push	r13	#
	.cfi_def_cfa_offset 32
	.cfi_offset 13, -32
	push	r12	#
	.cfi_def_cfa_offset 40
	.cfi_offset 12, -40
	push	rbp	#
	.cfi_def_cfa_offset 48
	.cfi_offset 6, -48
	mov	rbp, rsi	# subapertures, subapertures
	push	rbx	#
	.cfi_def_cfa_offset 56
	.cfi_offset 3, -56
	mov	rbx, rdi	# <retval>, .result_ptr
	.loc 1 29 5 is_stmt 1 view .LVU2
.LVL1:
.LBB1942:
.LBI1942:
	.file 2 "/usr/include/c++/16/bits/stl_vector.h"
	.loc 2 1334 7 view .LVU3
	.loc 2 1336 2 discriminator 2 view .LVU4
.LBB1943:
.LBI1943:
	.loc 2 988 7 view .LVU5
.LBB1944:
.LBI1944:
	.file 3 "/usr/include/c++/16/bits/stl_iterator.h"
	.loc 3 1058 7 view .LVU6
.LBE1944:
.LBE1943:
.LBE1942:
# src/opt7_5.cpp:28: ImageData refocus_shift_and_sum(std::vector<SubApertureImage>& subapertures, float focus) {
	.loc 1 28 91 is_stmt 0 view .LVU7
	sub	rsp, 152	#,
	.cfi_def_cfa_offset 208
.LBB1948:
.LBB1947:
.LBB1946:
.LBB1945:
# /usr/include/c++/16/bits/stl_iterator.h:1059:       : _M_current(__i) { }
	.loc 3 1059 9 view .LVU8
	mov	r15, QWORD PTR [rsi]	# SR.262, MEM[(struct SubApertureImage * const &)subapertures_209(D)]
.LVL2:
	.loc 3 1059 9 view .LVU9
.LBE1945:
.LBE1946:
.LBE1947:
.LBE1948:
# src/opt7_5.cpp:30:     const size_t height = subapertures.front().data.height;
	.loc 1 30 53 discriminator 1 view .LVU10
	mov	rax, QWORD PTR 8[r15]	# height, MEM[(struct value_type &)_238].data.height
# src/opt7_5.cpp:29:     const size_t width = subapertures.front().data.width;
	.loc 1 29 52 discriminator 1 view .LVU11
	mov	r12, QWORD PTR [r15]	# width, MEM[(struct value_type &)_238].data.width
.LVL3:
	.loc 1 30 5 is_stmt 1 view .LVU12
.LBB1949:
.LBI1949:
	.loc 2 1334 7 view .LVU13
	.loc 2 1336 2 discriminator 2 view .LVU14
.LBB1950:
.LBI1950:
	.loc 2 988 7 view .LVU15
.LBB1951:
.LBI1951:
	.loc 3 1058 7 view .LVU16
	.loc 3 1058 7 is_stmt 0 view .LVU17
.LBE1951:
.LBE1950:
.LBE1949:
.LBB1952:
.LBB1953:
.LBB1954:
.LBB1955:
.LBB1956:
.LBB1957:
# /usr/include/c++/16/bits/stl_vector.h:106: 	: _M_start(), _M_finish(), _M_end_of_storage()
	.loc 2 106 4 view .LVU18
	mov	QWORD PTR 16[rdi], 0	# MEM[(struct _Vector_impl_data *)output_214(D) + 16B]._M_start,
# /usr/include/c++/16/bits/stl_vector.h:106: 	: _M_start(), _M_finish(), _M_end_of_storage()
	.loc 2 106 16 view .LVU19
	mov	QWORD PTR 24[rdi], 0	# MEM[(struct _Vector_impl_data *)output_214(D) + 16B]._M_finish,
.LBE1957:
.LBE1956:
.LBE1955:
.LBE1954:
.LBE1953:
.LBE1952:
# src/opt7_5.cpp:37:     output.data.assign(width * height * 3, 0);
	.loc 1 37 30 view .LVU20
	mov	rcx, rax	# _942, height
# src/opt7_5.cpp:30:     const size_t height = subapertures.front().data.height;
	.loc 1 30 53 discriminator 1 view .LVU21
	mov	QWORD PTR 40[rsp], rax	# %sfp, height
.LVL4:
	.loc 1 31 5 is_stmt 1 view .LVU22
	.loc 1 32 5 view .LVU23
	.loc 1 34 5 view .LVU24
.LBB1969:
.LBI1952:
	.file 4 "include/utils.hpp"
	.loc 4 11 8 view .LVU25
.LBB1967:
.LBI1953:
	.loc 2 551 7 view .LVU26
.LBB1965:
.LBI1954:
	.loc 2 321 7 view .LVU27
.LBB1963:
.LBI1955:
	.loc 2 143 2 view .LVU28
.LBB1959:
.LBI1959:
	.file 5 "/usr/include/c++/16/bits/allocator.h"
	.loc 5 168 7 view .LVU29
.LBB1960:
.LBI1960:
	.file 6 "/usr/include/c++/16/bits/new_allocator.h"
	.loc 6 88 7 view .LVU30
	.loc 6 88 7 is_stmt 0 view .LVU31
.LBE1960:
.LBE1959:
.LBB1961:
.LBI1956:
	.loc 2 105 2 is_stmt 1 view .LVU32
.LBE1961:
.LBE1963:
.LBE1965:
.LBE1967:
.LBE1969:
# src/opt7_5.cpp:37:     output.data.assign(width * height * 3, 0);
	.loc 1 37 30 is_stmt 0 view .LVU33
	imul	rcx, r12	# _942, width
.LBB1970:
.LBB1968:
.LBB1966:
.LBB1964:
.LBB1962:
.LBB1958:
# /usr/include/c++/16/bits/stl_vector.h:106: 	: _M_start(), _M_finish(), _M_end_of_storage()
	.loc 2 106 29 view .LVU34
	mov	QWORD PTR 32[rdi], 0	# MEM[(struct _Vector_impl_data *)output_214(D) + 16B]._M_end_of_storage,
.LVL5:
	.loc 2 106 29 view .LVU35
.LBE1958:
.LBE1962:
.LBE1964:
.LBE1966:
.LBE1968:
.LBE1970:
	.loc 1 35 5 is_stmt 1 view .LVU36
# src/opt7_5.cpp:35:     output.width = width;
	.loc 1 35 18 is_stmt 0 view .LVU37
	mov	QWORD PTR [rdi], r12	# output_214(D)->width, width
	.loc 1 36 5 is_stmt 1 view .LVU38
# src/opt7_5.cpp:36:     output.height = height;
	.loc 1 36 19 is_stmt 0 view .LVU39
	mov	QWORD PTR 8[rdi], rax	# output_214(D)->height, height
	.loc 1 37 5 is_stmt 1 view .LVU40
# src/opt7_5.cpp:37:     output.data.assign(width * height * 3, 0);
	.loc 1 37 23 is_stmt 0 view .LVU41
	lea	rsi, [rcx+rcx]	# tmp682,
.LVL6:
# src/opt7_5.cpp:37:     output.data.assign(width * height * 3, 0);
	.loc 1 37 30 view .LVU42
	mov	QWORD PTR 48[rsp], rcx	# %sfp, _942
# src/opt7_5.cpp:37:     output.data.assign(width * height * 3, 0);
	.loc 1 37 23 view .LVU43
	mov	QWORD PTR 88[rsp], rsi	# %sfp, tmp682
	add	rsi, rcx	# _5, _942
	mov	QWORD PTR 72[rsp], rsi	# %sfp, _5
.LVL7:
.LBB1971:
.LBI1971:
	.loc 2 865 7 is_stmt 1 view .LVU44
.LBB1972:
.LBI1972:
	.file 7 "/usr/include/c++/16/bits/vector.tcc"
	.loc 7 274 5 view .LVU45
.LBB1973:
.LBB1974:
# /usr/include/c++/16/bits/vector.tcc:278:       if (__n > capacity())
	.loc 7 278 7 is_stmt 0 discriminator 1 view .LVU46
	test	rcx, rcx	# _942
	jne	.L2	#,
.LVL8:
	.loc 7 278 7 discriminator 1 view .LVU47
.LBE1974:
.LBE1973:
.LBE1972:
.LBE1971:
	.loc 1 39 5 is_stmt 1 view .LVU48
.LBB2066:
.LBI2066:
	.loc 2 551 7 view .LVU49
.LBB2067:
.LBI2067:
	.loc 2 321 7 view .LVU50
.LBB2068:
.LBI2068:
	.loc 2 143 2 view .LVU51
.LBB2069:
.LBI2069:
	.loc 5 168 7 view .LVU52
.LBB2070:
.LBI2070:
	.loc 6 88 7 view .LVU53
	.loc 6 88 7 is_stmt 0 view .LVU54
.LBE2070:
.LBE2069:
.LBB2072:
.LBI2072:
	.loc 2 105 2 is_stmt 1 view .LVU55
	.loc 2 105 2 is_stmt 0 view .LVU56
.LBE2072:
.LBE2068:
.LBE2067:
.LBE2066:
	.loc 1 40 5 is_stmt 1 view .LVU57
.LBB2101:
.LBI2101:
	.loc 2 1107 7 view .LVU58
.LBB2102:
# /usr/include/c++/16/bits/stl_vector.h:1109: 	ptrdiff_t __dif = this->_M_impl._M_finish - this->_M_impl._M_start;
	.loc 2 1109 34 is_stmt 0 view .LVU59
	mov	rsi, QWORD PTR 8[rbp]	# _555, MEM[(const struct vector *)subapertures_209(D)].D.101674._M_impl.D.101021._M_finish
.LVL9:
	.loc 2 1109 34 view .LVU60
.LBE2102:
.LBE2101:
.LBB2106:
.LBI2106:
	.loc 7 70 5 is_stmt 1 view .LVU61
.LBB2107:
# /usr/include/c++/16/bits/vector.tcc:75:       if (this->capacity() < __n)
	.loc 7 75 7 is_stmt 0 discriminator 1 view .LVU62
	mov	rcx, rsi	# _59, _555
.LBE2107:
.LBE2106:
.LBB2121:
.LBB2103:
# /usr/include/c++/16/bits/stl_vector.h:1109: 	ptrdiff_t __dif = this->_M_impl._M_finish - this->_M_impl._M_start;
	.loc 2 1109 34 view .LVU63
	mov	QWORD PTR 24[rsp], rsi	# %sfp, _555
.LBE2103:
.LBE2121:
.LBB2122:
.LBB2118:
# /usr/include/c++/16/bits/vector.tcc:75:       if (this->capacity() < __n)
	.loc 7 75 7 discriminator 1 view .LVU64
	sub	rcx, r15	# _59, SR.262
.LVL10:
	.loc 7 75 7 discriminator 1 view .LVU65
	mov	QWORD PTR 64[rsp], rcx	# %sfp, _59
	je	.L194	#,
.LVL11:
.L4:
.LBB2108:
.LBB2109:
.LBB2110:
.LBB2111:
.LBB2112:
.LBB2113:
# /usr/include/c++/16/bits/new_allocator.h:162: 	  return static_cast<_Tp*>(_GLIBCXX_OPERATOR_NEW(__n * sizeof(_Tp)));
	.loc 6 162 68 view .LVU66
	mov	r14, QWORD PTR 64[rsp]	# _59, %sfp
	vmovss	DWORD PTR 16[rsp], xmm4	# %sfp, focus
.LVL12:
	.loc 6 162 68 view .LVU67
.LBE2113:
.LBE2112:
.LBE2111:
.LBE2110:
.LBI2109:
	.loc 2 386 7 is_stmt 1 view .LVU68
.LBB2117:
.LBB2116:
.LBI2111:
	.file 8 "/usr/include/c++/16/bits/alloc_traits.h"
	.loc 8 637 7 view .LVU69
.LBB2115:
.LBI2112:
	.loc 6 129 7 view .LVU70
.LBB2114:
# /usr/include/c++/16/bits/new_allocator.h:162: 	  return static_cast<_Tp*>(_GLIBCXX_OPERATOR_NEW(__n * sizeof(_Tp)));
	.loc 6 162 68 is_stmt 0 view .LVU71
	mov	rdi, r14	#, _59
.LEHB0:
	call	"_Znwm"@PLT	#
.LVL13:
.LEHE0:
	mov	QWORD PTR 8[rsp], rax	# %sfp, __new_finish
.LVL14:
	.loc 6 162 68 view .LVU72
.LBE2114:
.LBE2115:
.LBE2116:
.LBE2117:
.LBE2109:
# /usr/include/c++/16/bits/vector.tcc:101: 	  this->_M_impl._M_end_of_storage = this->_M_impl._M_start + __n;
	.loc 7 101 61 view .LVU73
	add	rax, r14	# params$_M_end_of_storage, _59
.LVL15:
	.loc 7 101 61 view .LVU74
	vmovss	xmm4, DWORD PTR 16[rsp]	# focus, %sfp
	mov	QWORD PTR 32[rsp], rax	# %sfp, params$_M_end_of_storage
.LVL16:
.L8:
	.loc 7 101 61 view .LVU75
.LBE2108:
.LBE2118:
.LBE2122:
# src/opt7_5.cpp:32:     const int h = static_cast<int>(height);
	.loc 1 32 15 view .LVU76
	mov	r14d, DWORD PTR 40[rsp]	# _554, %sfp
.LVL17:
	.loc 1 42 5 is_stmt 1 view .LVU77
.LBB2123:
.LBB2124:
.LBI2124:
	.loc 2 988 7 view .LVU78
.LBB2125:
.LBI2125:
	.loc 3 1058 7 view .LVU79
	.loc 3 1058 7 is_stmt 0 view .LVU80
.LBE2125:
.LBE2124:
.LBB2127:
.LBI2127:
	.loc 2 1008 7 is_stmt 1 view .LVU81
.LBB2128:
.LBI2128:
	.loc 3 1058 7 view .LVU82
	.loc 3 1058 7 is_stmt 0 view .LVU83
.LBE2128:
.LBE2127:
	.loc 1 42 34 is_stmt 1 discriminator 5 view .LVU84
.LBE2123:
# src/opt7_5.cpp:31:     const int w = static_cast<int>(width);
	.loc 1 31 15 is_stmt 0 view .LVU85
	mov	ecx, r12d	# _573, width
.LBB2267:
# src/opt7_5.cpp:42:     for (SubApertureImage& sub : subapertures) {
	.loc 1 42 34 discriminator 6 view .LVU86
	cmp	r15, QWORD PTR 24[rsp]	# SR.262, %sfp
	je	.L91	#,
.LVL18:
.L5:
	.loc 1 42 34 discriminator 6 view .LVU87
.LBE2267:
.LBB2268:
.LBB2094:
.LBB2087:
.LBB2079:
.LBB2073:
# /usr/include/c++/16/bits/stl_vector.h:106: 	: _M_start(), _M_finish(), _M_end_of_storage()
	.loc 2 106 29 view .LVU88
	mov	rax, QWORD PTR 8[rsp]	# __new_finish, %sfp
.LBE2073:
.LBE2079:
.LBE2087:
.LBE2094:
.LBE2268:
.LBB2269:
.LBB2130:
# src/opt7_5.cpp:58:         p.x_begin = std::max(0, -p.sx);
	.loc 1 58 33 view .LVU89
	xor	r11d, r11d	# tmp686
.LBE2130:
.LBE2269:
.LBB2270:
.LBB2095:
.LBB2088:
.LBB2080:
.LBB2074:
# /usr/include/c++/16/bits/stl_vector.h:106: 	: _M_start(), _M_finish(), _M_end_of_storage()
	.loc 2 106 29 view .LVU90
	mov	QWORD PTR 16[rsp], rax	# %sfp, __new_finish
.LVL19:
	.p2align 4,,10
	.p2align 3
.L17:
	.loc 2 106 29 view .LVU91
.LBE2074:
.LBE2080:
.LBE2088:
.LBE2095:
.LBE2270:
.LBB2271:
.LBB2260:
	.loc 1 43 9 is_stmt 1 view .LVU92
# src/opt7_5.cpp:43:         const float shift_x = focus * sub.u;
	.loc 1 43 21 is_stmt 0 view .LVU93
	vmulss	xmm3, xmm4, DWORD PTR 40[r15]	# shift_x, focus, MEM[(float *)SR.262_711 + 40B]
.LVL20:
	.loc 1 44 9 is_stmt 1 view .LVU94
# src/opt7_5.cpp:59:         p.x_end = std::min(w, w - p.sx - 1);
	.loc 1 59 33 is_stmt 0 view .LVU95
	mov	ebp, ecx	# _18, _573
# src/opt7_5.cpp:61:         p.y_end = std::min(h, h - p.sy - 1);
	.loc 1 61 33 view .LVU96
	mov	r13d, r14d	# _22, _554
# src/opt7_5.cpp:44:         const float shift_y = focus * sub.v;
	.loc 1 44 21 view .LVU97
	vmulss	xmm2, xmm4, DWORD PTR 44[r15]	# shift_y, focus, MEM[(float *)SR.262_711 + 44B]
.LVL21:
	.loc 1 46 9 is_stmt 1 view .LVU98
	.loc 1 47 9 view .LVU99
.LBB2131:
.LBI2131:
	.file 9 "/usr/include/c++/16/cmath"
	.loc 9 264 3 view .LVU100
.LBB2132:
	.loc 9 265 5 view .LVU101
# /usr/include/c++/16/cmath:265:   { return __builtin_floorf(__x); }
	.loc 9 265 28 is_stmt 0 view .LVU102
	vrndscaless	xmm0, xmm3, xmm3, 9	# _212, shift_x,
.LVL22:
	.loc 9 265 28 view .LVU103
.LBE2132:
.LBE2131:
# src/opt7_5.cpp:47:         p.sx = std::floor(shift_x);
	.loc 1 47 14 discriminator 1 view .LVU104
	vcvttss2si	r9d, xmm0	# _8, _212
.LVL23:
	.loc 1 48 9 is_stmt 1 view .LVU105
.LBB2133:
.LBI2133:
	.loc 9 264 3 view .LVU106
.LBB2134:
	.loc 9 265 5 view .LVU107
# /usr/include/c++/16/cmath:265:   { return __builtin_floorf(__x); }
	.loc 9 265 28 is_stmt 0 view .LVU108
	vrndscaless	xmm1, xmm2, xmm2, 9	# _220, shift_y,
.LVL24:
	.loc 9 265 28 view .LVU109
.LBE2134:
.LBE2133:
# src/opt7_5.cpp:48:         p.sy = std::floor(shift_y);
	.loc 1 48 14 discriminator 1 view .LVU110
	vcvttss2si	r8d, xmm1	# _9, _220
.LVL25:
	.loc 1 50 9 is_stmt 1 view .LVU111
	.loc 1 51 9 view .LVU112
	.loc 1 53 9 view .LVU113
	.loc 1 54 9 view .LVU114
	.loc 1 55 9 view .LVU115
	.loc 1 56 9 view .LVU116
	.loc 1 58 9 view .LVU117
.LBB2135:
.LBI2135:
	.file 10 "/usr/include/c++/16/bits/stl_algobase.h"
	.loc 10 256 5 view .LVU118
.LBE2135:
# src/opt7_5.cpp:58:         p.x_begin = std::max(0, -p.sx);
	.loc 1 58 33 is_stmt 0 view .LVU119
	mov	esi, r9d	# tmp685, _8
	neg	esi	# tmp685
	test	r9d, r9d	# _8
# src/opt7_5.cpp:60:         p.y_begin = std::max(0, -p.sy);
	.loc 1 60 33 view .LVU120
	mov	r10d, r8d	# tmp687, _9
# src/opt7_5.cpp:58:         p.x_begin = std::max(0, -p.sx);
	.loc 1 58 33 view .LVU121
	cmovns	esi, r11d	# tmp685,, _16, tmp686
.LVL26:
	.loc 1 59 9 is_stmt 1 view .LVU122
.LBB2136:
.LBI2136:
	.loc 10 232 5 view .LVU123
.LBE2136:
# src/opt7_5.cpp:59:         p.x_end = std::min(w, w - p.sx - 1);
	.loc 1 59 33 is_stmt 0 view .LVU124
	sub	ebp, r9d	# _18, _8
# src/opt7_5.cpp:59:         p.x_end = std::min(w, w - p.sx - 1);
	.loc 1 59 40 view .LVU125
	dec	ebp	# _19
.LBB2138:
.LBB2137:
# /usr/include/c++/16/bits/stl_algobase.h:237:       if (__b < __a)
	.loc 10 237 7 view .LVU126
	cmp	ebp, ecx	# _19, _573
	cmovg	ebp, ecx	# _19,, _251, _573
.LVL27:
	.loc 10 237 7 view .LVU127
.LBE2137:
.LBE2138:
	.loc 1 60 9 is_stmt 1 view .LVU128
.LBB2139:
.LBI2139:
	.loc 10 256 5 view .LVU129
.LBE2139:
# src/opt7_5.cpp:60:         p.y_begin = std::max(0, -p.sy);
	.loc 1 60 33 is_stmt 0 view .LVU130
	neg	r10d	# tmp687
	test	r8d, r8d	# _9
	cmovns	r10d, r11d	# tmp687,, _20, tmp686
	.loc 1 61 9 is_stmt 1 view .LVU131
.LVL28:
.LBB2140:
.LBI2140:
	.loc 10 232 5 view .LVU132
.LBE2140:
# src/opt7_5.cpp:61:         p.y_end = std::min(h, h - p.sy - 1);
	.loc 1 61 33 is_stmt 0 view .LVU133
	sub	r13d, r8d	# _22, _9
# src/opt7_5.cpp:61:         p.y_end = std::min(h, h - p.sy - 1);
	.loc 1 61 40 view .LVU134
	dec	r13d	# _23
.LBB2142:
.LBB2141:
# /usr/include/c++/16/bits/stl_algobase.h:237:       if (__b < __a)
	.loc 10 237 7 view .LVU135
	cmp	r13d, r14d	# _23, _554
	cmovg	r13d, r14d	# _23,, _252, _554
.LVL29:
	.loc 10 237 7 view .LVU136
.LBE2141:
.LBE2142:
	.loc 1 62 9 is_stmt 1 view .LVU137
.LBB2143:
.LBI2143:
	.loc 2 1385 7 view .LVU138
	.loc 2 1385 7 is_stmt 0 view .LVU139
.LBE2143:
	.loc 1 64 9 is_stmt 1 view .LVU140
# src/opt7_5.cpp:64:         if (p.x_begin >= p.x_end || p.y_begin >= p.y_end) continue;
	.loc 1 64 34 is_stmt 0 discriminator 1 view .LVU141
	cmp	esi, ebp	# _16, _251
	jge	.L12	#,
	.loc 1 64 34 discriminator 1 view .LVU142
	cmp	r10d, r13d	# _20, _252
	jge	.L12	#,
# src/opt7_5.cpp:51:         const float dy = shift_y - p.sy;
	.loc 1 51 21 view .LVU143
	vsubss	xmm6, xmm2, xmm1	# dy, shift_y, _220
.LVL30:
# src/opt7_5.cpp:50:         const float dx = shift_x - p.sx;
	.loc 1 50 21 view .LVU144
	vsubss	xmm5, xmm3, xmm0	# dx, shift_x, _212
.LVL31:
.LBB2146:
.LBB2144:
# /usr/include/c++/16/bits/stl_vector.h:1386:       { return _M_data_ptr(this->_M_impl._M_start); }
	.loc 2 1386 42 view .LVU145
	mov	rdx, QWORD PTR 16[r15]	# _231, MEM[(unsigned char * *)SR.262_711 + 16B]
.LBE2144:
.LBE2146:
.LBB2147:
.LBB2148:
# /usr/include/c++/16/bits/stl_vector.h:1408: 	if (this->_M_impl._M_finish != this->_M_impl._M_end_of_storage)
	.loc 2 1408 2 view .LVU146
	mov	rax, QWORD PTR 8[rsp]	# __new_finish, %sfp
.LBE2148:
.LBE2147:
# src/opt7_5.cpp:53:         p.A = (1 - dx) * (1 - dy);
	.loc 1 53 18 view .LVU147
	vaddss	xmm0, xmm0, DWORD PTR .LC1[rip]	# _684, _212,
.LVL32:
# src/opt7_5.cpp:53:         p.A = (1 - dx) * (1 - dy);
	.loc 1 53 29 view .LVU148
	vaddss	xmm1, xmm1, DWORD PTR .LC1[rip]	# _686, _220,
.LVL33:
.LBB2255:
.LBB2145:
# /usr/include/c++/16/bits/stl_vector.h:1386:       { return _M_data_ptr(this->_M_impl._M_start); }
	.loc 2 1386 42 view .LVU149
	mov	QWORD PTR 56[rsp], rdx	# %sfp, _231
.LBE2145:
.LBE2255:
	.loc 1 65 9 is_stmt 1 view .LVU150
.LVL34:
.LBB2256:
.LBI2147:
	.loc 2 1406 7 view .LVU151
.LBE2256:
# src/opt7_5.cpp:53:         p.A = (1 - dx) * (1 - dy);
	.loc 1 53 18 is_stmt 0 view .LVU152
	vsubss	xmm0, xmm0, xmm3	# _10, _684, shift_x
.LVL35:
# src/opt7_5.cpp:53:         p.A = (1 - dx) * (1 - dy);
	.loc 1 53 29 view .LVU153
	vsubss	xmm1, xmm1, xmm2	# _11, _686, shift_y
.LVL36:
# src/opt7_5.cpp:53:         p.A = (1 - dx) * (1 - dy);
	.loc 1 53 24 view .LVU154
	vmulss	xmm2, xmm0, xmm1	# _12, _10, _11
.LVL37:
# src/opt7_5.cpp:54:         p.B = dx * (1 - dy);
	.loc 1 54 18 view .LVU155
	vmulss	xmm1, xmm1, xmm5	# _13, _11, dx
# src/opt7_5.cpp:55:         p.C = (1 - dx) * dy;
	.loc 1 55 24 view .LVU156
	vmulss	xmm0, xmm0, xmm6	# _14, _10, dy
# src/opt7_5.cpp:56:         p.D = dx * dy;
	.loc 1 56 18 view .LVU157
	vmulss	xmm5, xmm5, xmm6	# _15, dx, dy
.LVL38:
.LBB2257:
.LBB2252:
# /usr/include/c++/16/bits/stl_vector.h:1408: 	if (this->_M_impl._M_finish != this->_M_impl._M_end_of_storage)
	.loc 2 1408 2 view .LVU158
	cmp	QWORD PTR 32[rsp], rax	# %sfp, __new_finish
	je	.L13	#,
.LVL39:
.LBB2149:
.LBI2149:
	.loc 8 705 2 is_stmt 1 view .LVU159
.LBB2150:
.LBI2150:
	.loc 6 201 2 view .LVU160
.LBB2151:
# /usr/include/c++/16/bits/new_allocator.h:203: 	{ ::new((void *)__p) _Up(std::forward<_Args>(__args)...); }
	.loc 6 203 4 is_stmt 0 discriminator 1 view .LVU161
	mov	DWORD PTR [rax], r9d	# params$_M_finish_201->sx, _8
.LBE2151:
.LBE2150:
.LBE2149:
# /usr/include/c++/16/bits/stl_vector.h:1413: 	    ++this->_M_impl._M_finish;
	.loc 2 1413 6 view .LVU162
	add	rax, 48	# __new_finish,
.LBB2154:
.LBB2153:
.LBB2152:
# /usr/include/c++/16/bits/new_allocator.h:203: 	{ ::new((void *)__p) _Up(std::forward<_Args>(__args)...); }
	.loc 6 203 4 discriminator 1 view .LVU163
	mov	DWORD PTR -44[rax], r8d	# params$_M_finish_201->sy, _9
	vmovss	DWORD PTR -40[rax], xmm2	# params$_M_finish_201->A, _12
	vmovss	DWORD PTR -36[rax], xmm1	# params$_M_finish_201->B, _13
	vmovss	DWORD PTR -32[rax], xmm0	# params$_M_finish_201->C, _14
	vmovss	DWORD PTR -28[rax], xmm5	# params$_M_finish_201->D, _15
	mov	DWORD PTR -24[rax], esi	# params$_M_finish_201->x_begin, _16
	mov	DWORD PTR -20[rax], ebp	# params$_M_finish_201->x_end, _251
	mov	DWORD PTR -16[rax], r10d	# params$_M_finish_201->y_begin, _20
	mov	DWORD PTR -12[rax], r13d	# params$_M_finish_201->y_end, _252
	mov	QWORD PTR -8[rax], rdx	# MEM <const unsigned char *> [(struct SubParams *)params$_M_finish_201 + 40B], _231
.LVL40:
	.loc 6 203 4 discriminator 1 view .LVU164
.LBE2152:
.LBE2153:
.LBE2154:
# /usr/include/c++/16/bits/stl_vector.h:1413: 	    ++this->_M_impl._M_finish;
	.loc 2 1413 6 view .LVU165
	mov	QWORD PTR 8[rsp], rax	# %sfp, __new_finish
.LVL41:
.L12:
	.loc 2 1413 6 view .LVU166
.LBE2252:
.LBE2257:
.LBE2260:
	.loc 1 42 5 is_stmt 1 discriminator 4 view .LVU167
.LBB2261:
.LBI2261:
	.loc 3 1101 7 view .LVU168
.LBB2262:
# /usr/include/c++/16/bits/stl_iterator.h:1103: 	++_M_current;
	.loc 3 1103 2 is_stmt 0 view .LVU169
	add	r15, 48	# SR.262,
.LVL42:
	.loc 3 1103 2 view .LVU170
.LBE2262:
.LBE2261:
	.loc 1 42 34 is_stmt 1 discriminator 5 view .LVU171
# src/opt7_5.cpp:42:     for (SubApertureImage& sub : subapertures) {
	.loc 1 42 34 is_stmt 0 discriminator 6 view .LVU172
	cmp	r15, QWORD PTR 24[rsp]	# SR.262, %sfp
	jne	.L17	#,
.LBE2271:
.LBB2272:
.LBB2273:
.LBB2274:
# /usr/include/c++/16/bits/stl_vector.h:375: 	ptrdiff_t __n = _M_impl._M_end_of_storage - _M_impl._M_start;
	.loc 2 375 44 view .LVU173
	mov	rax, QWORD PTR 32[rsp]	# _59, %sfp
	sub	rax, QWORD PTR 16[rsp]	# _59, %sfp
	mov	QWORD PTR 64[rsp], rax	# %sfp, _59
.LVL43:
.L9:
	.loc 2 375 44 view .LVU174
.LBE2274:
.LBE2273:
.LBE2272:
	.loc 1 68 5 is_stmt 1 view .LVU175
.LBB2289:
.LBI2289:
	.loc 5 168 7 view .LVU176
.LBB2290:
.LBI2290:
	.loc 6 88 7 view .LVU177
	.loc 6 88 7 is_stmt 0 view .LVU178
.LBE2290:
.LBE2289:
.LBB2291:
.LBI2291:
	.loc 2 589 7 is_stmt 1 view .LVU179
.LBB2292:
.LBI2292:
	.loc 2 2203 7 view .LVU180
.LBB2293:
.LBB2294:
.LBI2294:
	.loc 5 172 7 view .LVU181
.LBB2295:
.LBI2295:
	.loc 6 92 7 view .LVU182
	.loc 6 92 7 is_stmt 0 view .LVU183
.LBE2295:
.LBE2294:
.LBB2296:
.LBI2296:
	.loc 5 189 7 is_stmt 1 view .LVU184
.LBB2297:
.LBI2297:
	.loc 6 104 7 view .LVU185
.LBE2297:
.LBE2296:
# /usr/include/c++/16/bits/stl_vector.h:2205: 	if (__n > _S_max_size(_Tp_alloc_type(__a)))
	.loc 2 2205 2 is_stmt 0 discriminator 3 view .LVU186
	mov	rax, QWORD PTR 48[rsp]	# tmp745, %sfp
	shr	rax, 61	# tmp745,
	jne	.L176	#,
.LVL44:
	.loc 2 2205 2 discriminator 3 view .LVU187
.LBE2293:
.LBE2292:
.LBB2299:
.LBI2299:
	.loc 2 339 7 is_stmt 1 view .LVU188
.LBB2300:
.LBI2300:
	.loc 2 152 2 view .LVU189
.LBB2301:
.LBI2301:
	.loc 5 172 7 view .LVU190
.LBB2302:
.LBI2302:
	.loc 6 92 7 view .LVU191
	.loc 6 92 7 is_stmt 0 view .LVU192
.LBE2302:
.LBE2301:
.LBB2303:
.LBI2303:
	.loc 2 105 2 is_stmt 1 view .LVU193
	.loc 2 105 2 is_stmt 0 view .LVU194
.LBE2303:
.LBE2300:
.LBB2304:
.LBI2304:
	.loc 2 405 7 is_stmt 1 view .LVU195
.LBB2305:
.LBB2306:
.LBI2306:
	.loc 2 386 7 view .LVU196
.LBB2307:
# /usr/include/c++/16/bits/stl_vector.h:389: 	return __n != 0 ? _Tr::allocate(_M_impl, __n) : pointer();
	.loc 2 389 18 is_stmt 0 view .LVU197
	mov	rax, QWORD PTR 48[rsp]	# _942, %sfp
	test	rax, rax	# _942
	je	.L94	#,
.LBB2308:
.LBB2309:
.LBB2310:
# /usr/include/c++/16/bits/new_allocator.h:162: 	  return static_cast<_Tp*>(_GLIBCXX_OPERATOR_NEW(__n * sizeof(_Tp)));
	.loc 6 162 68 view .LVU198
	lea	rbp, 0[0+rax*4]	# _310,
	mov	DWORD PTR 24[rsp], ecx	# %sfp, _573
.LVL45:
	.loc 6 162 68 view .LVU199
.LBE2310:
.LBE2309:
.LBI2308:
	.loc 8 637 7 is_stmt 1 view .LVU200
.LBB2313:
.LBI2309:
	.loc 6 129 7 view .LVU201
.LBB2311:
# /usr/include/c++/16/bits/new_allocator.h:162: 	  return static_cast<_Tp*>(_GLIBCXX_OPERATOR_NEW(__n * sizeof(_Tp)));
	.loc 6 162 68 is_stmt 0 view .LVU202
	mov	rdi, rbp	#, _310
	mov	QWORD PTR 80[rsp], rbp	# %sfp, _310
.LEHB1:
	call	"_Znwm"@PLT	#
.LVL46:
.LEHE1:
.LBE2311:
.LBE2313:
.LBE2308:
.LBE2307:
.LBE2306:
.LBE2305:
.LBE2304:
.LBE2299:
.LBB2324:
.LBB2325:
.LBB2326:
.LBB2327:
.LBB2328:
.LBB2329:
.LBB2330:
.LBB2331:
# /usr/include/c++/16/bits/stl_construct.h:133:       ::new(static_cast<void*>(__p)) _Tp(std::forward<_Args>(__args)...);
	.file 11 "/usr/include/c++/16/bits/stl_construct.h"
	.loc 11 133 7 discriminator 1 view .LVU203
	mov	rdx, rbp	#, _310
	xor	esi, esi	#
	mov	rdi, rax	#, _308
.LBE2331:
.LBE2330:
.LBE2329:
.LBE2328:
.LBE2327:
.LBE2326:
.LBE2325:
.LBE2324:
.LBB2341:
.LBB2322:
.LBB2320:
.LBB2318:
.LBB2316:
.LBB2315:
.LBB2314:
.LBB2312:
# /usr/include/c++/16/bits/new_allocator.h:162: 	  return static_cast<_Tp*>(_GLIBCXX_OPERATOR_NEW(__n * sizeof(_Tp)));
	.loc 6 162 68 view .LVU204
	mov	r15, rax	# _308, _308
.LVL47:
	.loc 6 162 68 view .LVU205
.LBE2312:
.LBE2314:
.LBE2315:
.LBE2316:
.LBE2318:
.LBE2320:
.LBE2322:
.LBE2341:
.LBB2342:
.LBI2324:
	.loc 2 1987 7 is_stmt 1 view .LVU206
.LBB2340:
.LBI2325:
	.file 12 "/usr/include/c++/16/bits/stl_uninitialized.h"
	.loc 12 771 5 view .LVU207
.LBB2339:
.LBI2326:
	.loc 12 550 5 view .LVU208
.LBB2338:
.LBB2337:
.LBI2328:
	.loc 12 477 5 view .LVU209
.LBB2336:
.LBB2333:
.LBI2333:
	.loc 12 113 7 view .LVU210
	.loc 12 113 7 is_stmt 0 view .LVU211
.LBE2333:
	.loc 12 485 2 is_stmt 1 discriminator 2 view .LVU212
	.loc 12 491 7 discriminator 2 view .LVU213
.LBB2334:
.LBB2332:
# /usr/include/c++/16/bits/stl_construct.h:133:       ::new(static_cast<void*>(__p)) _Tp(std::forward<_Args>(__args)...);
	.loc 11 133 7 is_stmt 0 discriminator 1 view .LVU214
	call	"memset"@PLT	#
.LVL48:
	.loc 11 133 7 discriminator 1 view .LVU215
	mov	ecx, DWORD PTR 24[rsp]	# _573, %sfp
.LVL49:
.L18:
	.loc 11 133 7 discriminator 1 view .LVU216
.LBE2332:
.LBE2334:
.LBB2335:
.LBI2335:
	.loc 12 118 7 is_stmt 1 view .LVU217
	.loc 12 118 7 is_stmt 0 view .LVU218
.LBE2335:
.LBE2336:
.LBE2337:
.LBE2338:
.LBE2339:
.LBE2340:
.LBE2342:
.LBE2291:
.LBB2345:
.LBI2345:
	.loc 5 189 7 is_stmt 1 view .LVU219
.LBB2346:
.LBI2346:
	.loc 6 104 7 view .LVU220
	.loc 6 104 7 is_stmt 0 view .LVU221
.LBE2346:
.LBE2345:
	.loc 1 69 5 is_stmt 1 view .LVU222
.LBB2347:
.LBI2347:
	.loc 5 168 7 view .LVU223
.LBB2348:
.LBI2348:
	.loc 6 88 7 view .LVU224
	.loc 6 88 7 is_stmt 0 view .LVU225
.LBE2348:
.LBE2347:
# src/opt7_5.cpp:69:     std::vector<int> diff((width + 1) * (height + 1), 0);
	.loc 1 69 49 discriminator 1 view .LVU226
	mov	rax, QWORD PTR 40[rsp]	# height, %sfp
# src/opt7_5.cpp:69:     std::vector<int> diff((width + 1) * (height + 1), 0);
	.loc 1 69 34 discriminator 1 view .LVU227
	lea	r13, 1[r12]	# y_904,
# src/opt7_5.cpp:69:     std::vector<int> diff((width + 1) * (height + 1), 0);
	.loc 1 69 49 discriminator 1 view .LVU228
	inc	rax	# _25
# src/opt7_5.cpp:69:     std::vector<int> diff((width + 1) * (height + 1), 0);
	.loc 1 69 56 discriminator 1 view .LVU229
	imul	rax, r13	# _25, y_904
	mov	QWORD PTR 56[rsp], rax	# %sfp, _26
.LVL50:
.LBB2349:
.LBI2349:
	.loc 2 589 7 is_stmt 1 view .LVU230
.LBB2350:
.LBI2350:
	.loc 2 2203 7 view .LVU231
.LBB2351:
.LBB2352:
.LBI2352:
	.loc 5 172 7 view .LVU232
.LBB2353:
.LBI2353:
	.loc 6 92 7 view .LVU233
	.loc 6 92 7 is_stmt 0 view .LVU234
.LBE2353:
.LBE2352:
.LBB2354:
.LBI2354:
	.loc 5 189 7 is_stmt 1 view .LVU235
.LBB2355:
.LBI2355:
	.loc 6 104 7 view .LVU236
.LBE2355:
.LBE2354:
# /usr/include/c++/16/bits/stl_vector.h:2205: 	if (__n > _S_max_size(_Tp_alloc_type(__a)))
	.loc 2 2205 2 is_stmt 0 discriminator 3 view .LVU237
	shr	rax, 61	# tmp746,
.LVL51:
	.loc 2 2205 2 discriminator 3 view .LVU238
	jne	.L177	#,
.LVL52:
	.loc 2 2205 2 discriminator 3 view .LVU239
.LBE2351:
.LBE2350:
.LBB2357:
.LBI2357:
	.loc 2 339 7 is_stmt 1 view .LVU240
.LBB2358:
.LBI2358:
	.loc 2 152 2 view .LVU241
.LBB2359:
.LBI2359:
	.loc 5 172 7 view .LVU242
.LBB2360:
.LBI2360:
	.loc 6 92 7 view .LVU243
	.loc 6 92 7 is_stmt 0 view .LVU244
.LBE2360:
.LBE2359:
.LBB2361:
.LBI2361:
	.loc 2 105 2 is_stmt 1 view .LVU245
	.loc 2 105 2 is_stmt 0 view .LVU246
.LBE2361:
.LBE2358:
.LBB2362:
.LBI2362:
	.loc 2 405 7 is_stmt 1 view .LVU247
.LBB2363:
.LBB2364:
.LBI2364:
	.loc 2 386 7 view .LVU248
.LBB2365:
# /usr/include/c++/16/bits/stl_vector.h:389: 	return __n != 0 ? _Tr::allocate(_M_impl, __n) : pointer();
	.loc 2 389 18 is_stmt 0 view .LVU249
	mov	rax, QWORD PTR 56[rsp]	# _26, %sfp
	test	rax, rax	# _26
	je	.L95	#,
.LBB2366:
.LBB2367:
.LBB2368:
# /usr/include/c++/16/bits/new_allocator.h:162: 	  return static_cast<_Tp*>(_GLIBCXX_OPERATOR_NEW(__n * sizeof(_Tp)));
	.loc 6 162 68 view .LVU250
	sal	rax, 2	# _26,
	mov	DWORD PTR 24[rsp], ecx	# %sfp, _573
.LBE2368:
.LBE2367:
.LBI2366:
	.loc 8 637 7 is_stmt 1 view .LVU251
.LBB2371:
.LBI2367:
	.loc 6 129 7 view .LVU252
.LVL53:
.LBB2369:
# /usr/include/c++/16/bits/new_allocator.h:162: 	  return static_cast<_Tp*>(_GLIBCXX_OPERATOR_NEW(__n * sizeof(_Tp)));
	.loc 6 162 68 is_stmt 0 view .LVU253
	mov	rdi, rax	#, _26
	mov	QWORD PTR 56[rsp], rax	# %sfp, _26
.LVL54:
.LEHB2:
	.loc 6 162 68 view .LVU254
	call	"_Znwm"@PLT	#
.LVL55:
.LEHE2:
.LBE2369:
.LBE2371:
.LBE2366:
.LBE2365:
.LBE2364:
.LBE2363:
.LBE2362:
.LBE2357:
.LBB2382:
.LBB2383:
.LBB2384:
.LBB2385:
.LBB2386:
.LBB2387:
.LBB2388:
.LBB2389:
# /usr/include/c++/16/bits/stl_construct.h:133:       ::new(static_cast<void*>(__p)) _Tp(std::forward<_Args>(__args)...);
	.loc 11 133 7 discriminator 1 view .LVU255
	mov	rdx, QWORD PTR 56[rsp]	#, %sfp
	xor	esi, esi	#
	mov	rdi, rax	#, _416
.LBE2389:
.LBE2388:
.LBE2387:
.LBE2386:
.LBE2385:
.LBE2384:
.LBE2383:
.LBE2382:
.LBB2399:
.LBB2380:
.LBB2378:
.LBB2376:
.LBB2374:
.LBB2373:
.LBB2372:
.LBB2370:
# /usr/include/c++/16/bits/new_allocator.h:162: 	  return static_cast<_Tp*>(_GLIBCXX_OPERATOR_NEW(__n * sizeof(_Tp)));
	.loc 6 162 68 view .LVU256
	mov	rbp, rax	# _416, _416
.LVL56:
	.loc 6 162 68 view .LVU257
.LBE2370:
.LBE2372:
.LBE2373:
.LBE2374:
.LBE2376:
.LBE2378:
.LBE2380:
.LBE2399:
.LBB2400:
.LBI2382:
	.loc 2 1987 7 is_stmt 1 view .LVU258
.LBB2398:
.LBI2383:
	.loc 12 771 5 view .LVU259
.LBB2397:
.LBI2384:
	.loc 12 550 5 view .LVU260
.LBB2396:
.LBB2395:
.LBI2386:
	.loc 12 477 5 view .LVU261
.LBB2394:
.LBB2391:
.LBI2391:
	.loc 12 113 7 view .LVU262
	.loc 12 113 7 is_stmt 0 view .LVU263
.LBE2391:
	.loc 12 485 2 is_stmt 1 discriminator 2 view .LVU264
	.loc 12 491 7 discriminator 2 view .LVU265
.LBB2392:
.LBB2390:
# /usr/include/c++/16/bits/stl_construct.h:133:       ::new(static_cast<void*>(__p)) _Tp(std::forward<_Args>(__args)...);
	.loc 11 133 7 is_stmt 0 discriminator 1 view .LVU266
	call	"memset"@PLT	#
.LVL57:
	.loc 11 133 7 discriminator 1 view .LVU267
	mov	ecx, DWORD PTR 24[rsp]	# _573, %sfp
.LVL58:
.L23:
	.loc 11 133 7 discriminator 1 view .LVU268
.LBE2390:
.LBE2392:
.LBB2393:
.LBI2393:
	.loc 12 118 7 is_stmt 1 view .LVU269
	.loc 12 118 7 is_stmt 0 view .LVU270
.LBE2393:
.LBE2394:
.LBE2395:
.LBE2396:
.LBE2397:
.LBE2398:
.LBE2400:
.LBE2349:
.LBB2403:
.LBI2403:
	.loc 5 189 7 is_stmt 1 view .LVU271
.LBB2404:
.LBI2404:
	.loc 6 104 7 view .LVU272
	.loc 6 104 7 is_stmt 0 view .LVU273
.LBE2404:
.LBE2403:
	.loc 1 70 5 is_stmt 1 view .LVU274
.LBB2405:
.LBI2405:
	.loc 5 168 7 view .LVU275
.LBB2406:
.LBI2406:
	.loc 6 88 7 view .LVU276
	.loc 6 88 7 is_stmt 0 view .LVU277
.LBE2406:
.LBE2405:
.LBB2407:
.LBI2407:
	.loc 2 576 7 is_stmt 1 view .LVU278
.LBB2408:
.LBI2408:
	.loc 2 2203 7 view .LVU279
.LBB2409:
.LBB2410:
.LBI2410:
	.loc 5 172 7 view .LVU280
.LBB2411:
.LBI2411:
	.loc 6 92 7 view .LVU281
	.loc 6 92 7 is_stmt 0 view .LVU282
.LBE2411:
.LBE2410:
.LBB2412:
.LBI2412:
	.loc 5 189 7 is_stmt 1 view .LVU283
.LBB2413:
.LBI2413:
	.loc 6 104 7 view .LVU284
.LBE2413:
.LBE2412:
# /usr/include/c++/16/bits/stl_vector.h:2205: 	if (__n > _S_max_size(_Tp_alloc_type(__a)))
	.loc 2 2205 2 is_stmt 0 discriminator 3 view .LVU285
	mov	rax, QWORD PTR 72[rsp]	# _5, %sfp
	shr	rax, 61	# _5,
	jne	.L178	#,
.LVL59:
	.loc 2 2205 2 discriminator 3 view .LVU286
.LBE2409:
.LBE2408:
.LBB2415:
.LBI2415:
	.loc 2 339 7 is_stmt 1 view .LVU287
.LBB2416:
.LBI2416:
	.loc 2 152 2 view .LVU288
.LBB2417:
.LBI2417:
	.loc 5 172 7 view .LVU289
.LBB2418:
.LBI2418:
	.loc 6 92 7 view .LVU290
	.loc 6 92 7 is_stmt 0 view .LVU291
.LBE2418:
.LBE2417:
.LBB2419:
.LBI2419:
	.loc 2 105 2 is_stmt 1 view .LVU292
	.loc 2 105 2 is_stmt 0 view .LVU293
.LBE2419:
.LBE2416:
.LBB2420:
.LBI2420:
	.loc 2 405 7 is_stmt 1 view .LVU294
.LBB2421:
.LBB2422:
.LBI2422:
	.loc 2 386 7 view .LVU295
.LBB2423:
# /usr/include/c++/16/bits/stl_vector.h:389: 	return __n != 0 ? _Tr::allocate(_M_impl, __n) : pointer();
	.loc 2 389 18 is_stmt 0 view .LVU296
	cmp	QWORD PTR 48[rsp], 0	# %sfp,
	vxorps	xmm0, xmm0, xmm0	# tmp729
	je	.L195	#,
.LBB2424:
.LBB2425:
.LBB2426:
# /usr/include/c++/16/bits/new_allocator.h:162: 	  return static_cast<_Tp*>(_GLIBCXX_OPERATOR_NEW(__n * sizeof(_Tp)));
	.loc 6 162 68 view .LVU297
	mov	rdx, QWORD PTR 88[rsp]	# tmp682, %sfp
	mov	DWORD PTR 96[rsp], ecx	# %sfp, _573
.LVL60:
	.loc 6 162 68 view .LVU298
.LBE2426:
.LBE2425:
.LBI2424:
	.loc 8 637 7 is_stmt 1 view .LVU299
.LBB2429:
.LBI2425:
	.loc 6 129 7 view .LVU300
.LBB2427:
# /usr/include/c++/16/bits/new_allocator.h:162: 	  return static_cast<_Tp*>(_GLIBCXX_OPERATOR_NEW(__n * sizeof(_Tp)));
	.loc 6 162 68 is_stmt 0 view .LVU301
	add	rdx, QWORD PTR 48[rsp]	# tmp682, %sfp
	sal	rdx, 2	# tmp449,
	mov	rdi, rdx	# _942, tmp449
	mov	QWORD PTR 72[rsp], rdx	# %sfp, tmp449
.LVL61:
	.loc 6 162 68 view .LVU302
	mov	QWORD PTR 48[rsp], rdx	# %sfp, _942
.LVL62:
.LEHB3:
	.loc 6 162 68 view .LVU303
	call	"_Znwm"@PLT	#
.LVL63:
.LEHE3:
.LBE2427:
.LBE2429:
.LBE2424:
.LBE2423:
.LBE2422:
.LBE2421:
.LBE2420:
.LBE2415:
.LBB2440:
.LBB2441:
.LBB2442:
.LBB2443:
.LBB2444:
.LBB2445:
.LBB2446:
.LBB2447:
.LBB2448:
.LBB2449:
.LBB2450:
.LBB2451:
.LBB2452:
# /usr/include/c++/16/bits/stl_algobase.h:922:       for (; __first != __last; ++__first)
	.loc 10 922 22 discriminator 2 view .LVU304
	mov	rdx, QWORD PTR 72[rsp]	# tmp449, %sfp
	mov	ecx, DWORD PTR 96[rsp]	# _573, %sfp
.LBE2452:
.LBE2451:
.LBE2450:
.LBE2449:
.LBE2448:
.LBE2447:
.LBE2446:
.LBE2445:
.LBE2444:
.LBE2443:
.LBE2442:
.LBE2441:
.LBE2440:
.LBB2480:
.LBB2438:
.LBB2436:
.LBB2434:
.LBB2432:
.LBB2431:
.LBB2430:
.LBB2428:
# /usr/include/c++/16/bits/new_allocator.h:162: 	  return static_cast<_Tp*>(_GLIBCXX_OPERATOR_NEW(__n * sizeof(_Tp)));
	.loc 6 162 68 view .LVU305
	mov	QWORD PTR 24[rsp], rax	# %sfp, _656
.LVL64:
	.loc 6 162 68 view .LVU306
.LBE2428:
.LBE2430:
.LBE2431:
.LBE2432:
.LBE2434:
.LBE2436:
.LBE2438:
.LBE2480:
.LBB2481:
.LBI2440:
	.loc 2 1998 7 is_stmt 1 view .LVU307
.LBB2479:
.LBI2441:
	.loc 12 1051 5 view .LVU308
.LBB2478:
.LBI2442:
	.loc 12 982 5 view .LVU309
.LBB2477:
.LBB2476:
.LBI2444:
	.loc 12 939 9 view .LVU310
.LBB2475:
.LBI2445:
	.loc 12 939 9 view .LVU311
.LBB2474:
.LBB2468:
.LBI2468:
	.loc 11 123 5 view .LVU312
.LBE2468:
.LBB2470:
.LBB2465:
.LBB2462:
.LBB2459:
.LBB2456:
.LBB2453:
# /usr/include/c++/16/bits/stl_algobase.h:922:       for (; __first != __last; ++__first)
	.loc 10 922 22 is_stmt 0 discriminator 2 view .LVU313
	vxorps	xmm0, xmm0, xmm0	# tmp729
.LBE2453:
.LBE2456:
.LBE2459:
.LBE2462:
.LBE2465:
.LBE2470:
.LBB2471:
.LBB2469:
# /usr/include/c++/16/bits/stl_construct.h:133:       ::new(static_cast<void*>(__p)) _Tp(std::forward<_Args>(__args)...);
	.loc 11 133 7 discriminator 1 view .LVU314
	mov	DWORD PTR [rax], 0x00000000	# *_597,
.LVL65:
	.loc 11 133 7 discriminator 1 view .LVU315
.LBE2469:
.LBE2471:
.LBB2472:
.LBI2447:
	.loc 10 1179 5 is_stmt 1 view .LVU316
.LBB2466:
.LBI2448:
	.loc 10 1141 5 view .LVU317
.LBB2463:
.LBB2460:
.LBI2450:
	.loc 10 976 5 view .LVU318
.LBB2457:
.LBI2451:
	.loc 10 895 5 view .LVU319
.LBB2454:
	.loc 10 922 22 discriminator 2 view .LVU320
	cmp	rdx, 4	# tmp449,
	je	.L196	#,
# /usr/include/c++/16/bits/stl_algobase.h:923: 	*__first = __val;
	.loc 10 923 11 is_stmt 0 view .LVU321
	sub	rdx, 4	# _499,
.LVL66:
	.loc 10 923 11 view .LVU322
	xor	esi, esi	#
.LBE2454:
.LBE2457:
.LBE2460:
.LBE2463:
.LBE2466:
.LBE2472:
# /usr/include/c++/16/bits/stl_uninitialized.h:946: 	      ++__first;
	.loc 12 946 8 view .LVU323
	lea	rdi, 4[rax]	# __first_453,
.LVL67:
	.loc 12 946 8 view .LVU324
	mov	DWORD PTR 72[rsp], ecx	# %sfp, _573
.LVL68:
.LBB2473:
.LBB2467:
.LBB2464:
.LBB2461:
.LBB2458:
.LBB2455:
# /usr/include/c++/16/bits/stl_algobase.h:923: 	*__first = __val;
	.loc 10 923 11 view .LVU325
	call	"memset"@PLT	#
.LVL69:
	.loc 10 923 11 view .LVU326
.LBE2455:
.LBE2458:
.LBE2461:
.LBE2464:
.LBE2467:
.LBE2473:
.LBE2474:
.LBE2475:
.LBE2476:
.LBE2477:
.LBE2478:
.LBE2479:
.LBE2481:
.LBE2407:
.LBB2484:
.LBI2484:
	.loc 5 189 7 is_stmt 1 view .LVU327
.LBB2485:
.LBI2485:
	.loc 6 104 7 view .LVU328
	.loc 6 104 7 is_stmt 0 view .LVU329
.LBE2485:
.LBE2484:
	.loc 1 72 5 is_stmt 1 view .LVU330
.LBB2488:
.LBB2489:
.LBI2489:
	.loc 2 988 7 view .LVU331
.LBB2490:
.LBI2490:
	.loc 3 1058 7 view .LVU332
	.loc 3 1058 7 is_stmt 0 view .LVU333
.LBE2490:
.LBE2489:
.LBB2493:
.LBI2493:
	.loc 2 1008 7 is_stmt 1 view .LVU334
.LBB2494:
.LBI2494:
	.loc 3 1058 7 view .LVU335
	.loc 3 1058 7 is_stmt 0 view .LVU336
.LBE2494:
.LBE2493:
	.loc 1 72 31 is_stmt 1 discriminator 5 view .LVU337
# src/opt7_5.cpp:72:     for (const SubParams& p : params) {
	.loc 1 72 31 is_stmt 0 discriminator 6 view .LVU338
	mov	rcx, QWORD PTR 16[rsp]	# params$_M_start, %sfp
	vxorps	xmm0, xmm0, xmm0	# tmp729
	cmp	QWORD PTR 8[rsp], rcx	# %sfp, params$_M_start
	mov	ecx, DWORD PTR 72[rsp]	# _573, %sfp
	je	.L35	#,
.LVL70:
.L26:
# src/opt7_5.cpp:72:     for (const SubParams& p : params) {
	.loc 1 72 31 view .LVU339
	mov	rax, QWORD PTR 16[rsp]	# SR.264, %sfp
	mov	rdi, QWORD PTR 8[rsp]	# __new_finish, %sfp
.LVL71:
	.loc 1 72 31 view .LVU340
	.p2align 6
	.p2align 4,,10
	.p2align 3
.L36:
.LVL72:
	.loc 1 73 9 is_stmt 1 view .LVU341
# src/opt7_5.cpp:73:         diff[static_cast<size_t>(p.y_begin) * (width + 1) + p.x_begin] += 1;
	.loc 1 73 14 is_stmt 0 view .LVU342
	movsxd	rdx, DWORD PTR 32[rax]	# _28, MEM[(int *)SR.264_710 + 32B]
# src/opt7_5.cpp:73:         diff[static_cast<size_t>(p.y_begin) * (width + 1) + p.x_begin] += 1;
	.loc 1 73 63 view .LVU343
	movsxd	r8, DWORD PTR 24[rax]	# _31, MEM[(int *)SR.264_710 + 24B]
.LBB2497:
.LBB2498:
# /usr/include/c++/16/bits/stl_iterator.h:1103: 	++_M_current;
	.loc 3 1103 2 view .LVU344
	add	rax, 48	# SR.264,
.LVL73:
	.loc 3 1103 2 view .LVU345
.LBE2498:
.LBE2497:
# src/opt7_5.cpp:75:         diff[static_cast<size_t>(p.y_end) * (width + 1) + p.x_begin] -= 1;
	.loc 1 75 14 view .LVU346
	movsxd	r9, DWORD PTR -12[rax]	# _44, MEM[(int *)SR.264_710 + 36B]
# src/opt7_5.cpp:73:         diff[static_cast<size_t>(p.y_begin) * (width + 1) + p.x_begin] += 1;
	.loc 1 73 45 view .LVU347
	imul	rdx, r13	# _29, y_904
.LVL74:
.LBB2499:
.LBI2499:
	.loc 2 1251 7 is_stmt 1 view .LVU348
.LBB2500:
	.loc 2 1253 2 discriminator 2 view .LVU349
	.loc 2 1253 2 is_stmt 0 discriminator 2 view .LVU350
.LBE2500:
.LBE2499:
# src/opt7_5.cpp:75:         diff[static_cast<size_t>(p.y_end) * (width + 1) + p.x_begin] -= 1;
	.loc 1 75 43 view .LVU351
	imul	r9, r13	# _45, y_904
# src/opt7_5.cpp:73:         diff[static_cast<size_t>(p.y_begin) * (width + 1) + p.x_begin] += 1;
	.loc 1 73 70 view .LVU352
	lea	rsi, [rdx+r8]	# _32,
# src/opt7_5.cpp:73:         diff[static_cast<size_t>(p.y_begin) * (width + 1) + p.x_begin] += 1;
	.loc 1 73 72 discriminator 1 view .LVU353
	inc	DWORD PTR 0[rbp+rsi*4]	# *_333
	.loc 1 74 9 is_stmt 1 view .LVU354
# src/opt7_5.cpp:74:         diff[static_cast<size_t>(p.y_begin) * (width + 1) + p.x_end] -= 1;
	.loc 1 74 63 is_stmt 0 view .LVU355
	movsxd	rsi, DWORD PTR -20[rax]	# _39, MEM[(int *)SR.264_710 + 28B]
.LVL75:
.LBB2501:
.LBI2501:
	.loc 2 1251 7 is_stmt 1 view .LVU356
.LBB2502:
	.loc 2 1253 2 discriminator 2 view .LVU357
	.loc 2 1253 2 is_stmt 0 discriminator 2 view .LVU358
.LBE2502:
.LBE2501:
# src/opt7_5.cpp:74:         diff[static_cast<size_t>(p.y_begin) * (width + 1) + p.x_end] -= 1;
	.loc 1 74 68 view .LVU359
	add	rdx, rsi	# _40, _39
# src/opt7_5.cpp:74:         diff[static_cast<size_t>(p.y_begin) * (width + 1) + p.x_end] -= 1;
	.loc 1 74 70 discriminator 1 view .LVU360
	dec	DWORD PTR 0[rbp+rdx*4]	# *_330
	.loc 1 75 9 is_stmt 1 view .LVU361
.LVL76:
.LBB2503:
.LBI2503:
	.loc 2 1251 7 view .LVU362
.LBB2504:
	.loc 2 1253 2 discriminator 2 view .LVU363
	.loc 2 1253 2 is_stmt 0 discriminator 2 view .LVU364
.LBE2504:
.LBE2503:
# src/opt7_5.cpp:75:         diff[static_cast<size_t>(p.y_end) * (width + 1) + p.x_begin] -= 1;
	.loc 1 75 68 view .LVU365
	lea	rdx, [r8+r9]	# _48,
# src/opt7_5.cpp:75:         diff[static_cast<size_t>(p.y_end) * (width + 1) + p.x_begin] -= 1;
	.loc 1 75 70 discriminator 1 view .LVU366
	dec	DWORD PTR 0[rbp+rdx*4]	# *_328
	.loc 1 76 9 is_stmt 1 view .LVU367
.LVL77:
.LBB2505:
.LBI2505:
	.loc 2 1251 7 view .LVU368
.LBB2506:
	.loc 2 1253 2 discriminator 2 view .LVU369
	.loc 2 1253 2 is_stmt 0 discriminator 2 view .LVU370
.LBE2506:
.LBE2505:
# src/opt7_5.cpp:76:         diff[static_cast<size_t>(p.y_end) * (width + 1) + p.x_end] += 1;
	.loc 1 76 66 view .LVU371
	lea	rdx, [rsi+r9]	# _56,
# src/opt7_5.cpp:76:         diff[static_cast<size_t>(p.y_end) * (width + 1) + p.x_end] += 1;
	.loc 1 76 68 discriminator 1 view .LVU372
	inc	DWORD PTR 0[rbp+rdx*4]	# *_326
	.loc 1 72 5 is_stmt 1 discriminator 4 view .LVU373
.LVL78:
.LBB2507:
.LBI2497:
	.loc 3 1101 7 view .LVU374
	.loc 3 1101 7 is_stmt 0 view .LVU375
.LBE2507:
	.loc 1 72 31 is_stmt 1 discriminator 5 view .LVU376
# src/opt7_5.cpp:72:     for (const SubParams& p : params) {
	.loc 1 72 31 is_stmt 0 discriminator 6 view .LVU377
	cmp	rax, rdi	# SR.264, __new_finish
	jne	.L36	#,
.LVL79:
	.loc 1 72 31 discriminator 6 view .LVU378
.LBE2488:
.LBB2512:
	.loc 1 79 23 is_stmt 1 discriminator 2 view .LVU379
	test	r14d, r14d	# _554
	jle	.L37	#,
	test	ecx, ecx	# _573
	jle	.L183	#,
.LVL80:
.L38:
.LBB2513:
.LBB2514:
	.loc 1 81 27 discriminator 2 view .LVU380
	lea	ecx, -1[r12]	# _889,
.LBE2514:
.LBE2513:
.LBE2512:
.LBB2522:
# src/opt7_5.cpp:72:     for (const SubParams& p : params) {
	.loc 1 72 31 is_stmt 0 view .LVU381
	xor	eax, eax	# ivtmp.370
.LBE2522:
.LBB2523:
.LBB2519:
# src/opt7_5.cpp:80:         int row = 0;
	.loc 1 80 13 view .LVU382
	xor	edx, edx	# row
	lea	rdi, 1[rcx]	# _178,
.LVL81:
.L40:
.LBB2515:
	.loc 1 82 13 is_stmt 1 view .LVU383
# src/opt7_5.cpp:82:             row += diff[static_cast<size_t>(y) * (width + 1) + x];
	.loc 1 82 17 is_stmt 0 discriminator 1 view .LVU384
	add	edx, DWORD PTR 0[rbp+rax*4]	# row, MEM[(value_type &)_416 + ivtmp.370_893 * 4]
.LVL82:
	.loc 1 83 13 is_stmt 1 view .LVU385
# src/opt7_5.cpp:83:             counts[static_cast<size_t>(y) * width + x] =
	.loc 1 83 56 is_stmt 0 discriminator 2 view .LVU386
	mov	DWORD PTR [r15+rax*4], edx	# MEM[(value_type &)_682 + ivtmp.370_893 * 4], row
	.loc 1 81 9 is_stmt 1 discriminator 1 view .LVU387
.LVL83:
	.loc 1 81 27 discriminator 2 view .LVU388
	inc	rax	# ivtmp.370
.LVL84:
	.loc 1 81 27 is_stmt 0 discriminator 2 view .LVU389
	cmp	rdi, rax	# _178, ivtmp.370
	jne	.L40	#,
.LBE2515:
.LBE2519:
	.loc 1 79 5 is_stmt 1 discriminator 1 view .LVU390
.LVL85:
	.loc 1 79 23 discriminator 2 view .LVU391
	cmp	r14d, 1	# _554,
	jle	.L41	#,
	lea	rax, 0[0+r13*4]	# _918,
.LBB2520:
.LBB2516:
# src/opt7_5.cpp:81:         for (int x = 0; x < w; ++x) {
	.loc 1 81 27 is_stmt 0 discriminator 2 view .LVU392
	mov	r11, r12	# ivtmp.367, width
.LBE2516:
.LBE2520:
# src/opt7_5.cpp:79:     for (int y = 0; y < h; ++y) {
	.loc 1 79 14 view .LVU393
	mov	r10d, 1	# y,
	mov	QWORD PTR 72[rsp], rax	# %sfp, _918
	lea	rsi, 0[rbp+rax]	# ivtmp.366,
.LVL86:
.L43:
.LBB2521:
.LBB2517:
	.loc 1 81 27 is_stmt 1 discriminator 2 view .LVU394
# src/opt7_5.cpp:84:                 row + (y > 0 ? counts[static_cast<size_t>(y - 1) * width + x] : 0);
	.loc 1 84 39 is_stmt 0 discriminator 1 view .LVU395
	lea	eax, -1[r10]	# _1074,
	lea	r8, [r15+r11*4]	# _930,
.LBE2517:
# src/opt7_5.cpp:80:         int row = 0;
	.loc 1 80 13 view .LVU396
	xor	edx, edx	# row
	imul	rax, r12	# _1055, width
	lea	r9, [r15+rax*4]	# _932,
.LBB2518:
# src/opt7_5.cpp:84:                 row + (y > 0 ? counts[static_cast<size_t>(y - 1) * width + x] : 0);
	.loc 1 84 39 discriminator 1 view .LVU397
	xor	eax, eax	# ivtmp.353
.LVL87:
	.loc 1 84 39 discriminator 1 view .LVU398
	.p2align 5
	.p2align 4,,10
	.p2align 3
.L42:
.LVL88:
	.loc 1 82 13 is_stmt 1 view .LVU399
# src/opt7_5.cpp:84:                 row + (y > 0 ? counts[static_cast<size_t>(y - 1) * width + x] : 0);
	.loc 1 84 21 is_stmt 0 discriminator 4 view .LVU400
	mov	ecx, DWORD PTR [r9+rax*4]	# _1018, MEM[(value_type &)_932 + ivtmp.353_937 * 4]
# src/opt7_5.cpp:82:             row += diff[static_cast<size_t>(y) * (width + 1) + x];
	.loc 1 82 17 discriminator 1 view .LVU401
	add	edx, DWORD PTR [rsi+rax*4]	# row, MEM[(value_type &)_934 + ivtmp.353_937 * 4]
.LVL89:
	.loc 1 83 13 is_stmt 1 view .LVU402
# src/opt7_5.cpp:84:                 row + (y > 0 ? counts[static_cast<size_t>(y - 1) * width + x] : 0);
	.loc 1 84 21 is_stmt 0 discriminator 4 view .LVU403
	add	ecx, edx	# _1018, row
# src/opt7_5.cpp:83:             counts[static_cast<size_t>(y) * width + x] =
	.loc 1 83 56 discriminator 2 view .LVU404
	mov	DWORD PTR [r8+rax*4], ecx	# MEM[(value_type &)_930 + ivtmp.353_937 * 4], _1018
	.loc 1 81 9 is_stmt 1 discriminator 1 view .LVU405
.LVL90:
	.loc 1 81 27 discriminator 2 view .LVU406
	inc	rax	# ivtmp.353
.LVL91:
	.loc 1 81 27 is_stmt 0 discriminator 2 view .LVU407
	cmp	rdi, rax	# _178, ivtmp.353
	jne	.L42	#,
.LBE2518:
.LBE2521:
	.loc 1 79 5 is_stmt 1 discriminator 1 view .LVU408
	inc	r10d	# y
.LVL92:
	.loc 1 79 23 discriminator 2 view .LVU409
	add	rsi, QWORD PTR 72[rsp]	# ivtmp.366, %sfp
	add	r11, r12	# ivtmp.367, width
	cmp	r10d, r14d	# y, _554
	jl	.L43	#,
.LVL93:
.L183:
	.loc 1 79 23 is_stmt 0 discriminator 2 view .LVU410
.LBE2523:
.LBB2524:
	.loc 1 88 31 is_stmt 1 discriminator 5 view .LVU411
# src/opt7_5.cpp:88:     for (const SubParams& p : params) {
	.loc 1 88 31 is_stmt 0 discriminator 6 view .LVU412
	mov	rcx, QWORD PTR 16[rsp]	# params$_M_start, %sfp
	cmp	QWORD PTR 8[rsp], rcx	# %sfp, params$_M_start
	je	.L28	#,
.LVL94:
.L39:
	.loc 1 88 31 discriminator 6 view .LVU413
	mov	QWORD PTR 72[rsp], r15	# %sfp, _308
.LBB2525:
.LBB2526:
# src/opt7_5.cpp:92:             size_t ind_bot = ind_top + width * 3;
	.loc 1 92 46 view .LVU414
	lea	rcx, [r12+r12*2]	# _79,
.LVL95:
	.loc 1 92 46 view .LVU415
	mov	rax, QWORD PTR 16[rsp]	# ivtmp.351, %sfp
	mov	QWORD PTR 88[rsp], rbp	# %sfp, _416
	lea	r14, 0[0+rcx*4]	# tmp497,
	mov	QWORD PTR 96[rsp], r13	# %sfp, y_904
	mov	r13, QWORD PTR 24[rsp]	# _656, %sfp
	mov	QWORD PTR 104[rsp], rbx	# %sfp, <retval>
	mov	rbx, QWORD PTR 8[rsp]	# __new_finish, %sfp
.LVL96:
	.p2align 4,,10
	.p2align 3
.L53:
	.loc 1 89 9 is_stmt 1 view .LVU416
.LBE2526:
# src/opt7_5.cpp:89:         for (int y = p.y_begin; y < p.y_end; ++y) {
	.loc 1 89 18 is_stmt 0 view .LVU417
	mov	r10d, DWORD PTR 32[rax]	# y, MEM[(int *)_941 + 32B]
.LVL97:
	.loc 1 89 35 is_stmt 1 discriminator 2 view .LVU418
# src/opt7_5.cpp:89:         for (int y = p.y_begin; y < p.y_end; ++y) {
	.loc 1 89 39 is_stmt 0 discriminator 2 view .LVU419
	mov	r15d, DWORD PTR 36[rax]	# _762, MEM[(int *)_941 + 36B]
# src/opt7_5.cpp:89:         for (int y = p.y_begin; y < p.y_end; ++y) {
	.loc 1 89 35 discriminator 2 view .LVU420
	cmp	r10d, r15d	# y, _762
	jge	.L50	#,
.LBB2536:
# src/opt7_5.cpp:91:             size_t ind_top = ((y + p.sy) * width + (p.x_begin + p.sx)) * 3;
	.loc 1 91 55 view .LVU421
	mov	r8d, DWORD PTR 24[rax]	# _74, MEM[(int *)_941 + 24B]
.LBB2527:
# src/opt7_5.cpp:105:             for (int x = p.x_begin; x < p.x_end; ++x) {
	.loc 1 105 43 discriminator 2 view .LVU422
	mov	r11d, DWORD PTR 28[rax]	# _670, MEM[(int *)_941 + 28B]
	cmp	r8d, r11d	# _74, _670
	jge	.L50	#,
	movsxd	r9, DWORD PTR 4[rax]	# _284, MEM[(int *)_941 + 4B]
	movsxd	rdx, r10d	# _285, y
.LBE2527:
# src/opt7_5.cpp:103:                 + (static_cast<size_t>(y) * width + static_cast<size_t>(p.x_begin)) * 3;
	.loc 1 103 53 view .LVU423
	movsxd	rbp, r8d	# _99, _74
	sub	r11d, r8d	# _980, _74
# src/opt7_5.cpp:91:             size_t ind_top = ((y + p.sy) * width + (p.x_begin + p.sx)) * 3;
	.loc 1 91 67 view .LVU424
	movsxd	rdi, DWORD PTR [rax]	#, MEM[(int *)_941]
.LBB2532:
.LBB2528:
# src/opt7_5.cpp:118:                 vals_row[0] += p.A*pTLr + p.B*pTRr + p.C*pBLr + p.D*pBRr;
	.loc 1 118 34 view .LVU425
	vmovss	xmm16, DWORD PTR 8[rax]	# _123, MEM[(float *)_941 + 8B]
	add	r9, rdx	# _1003, _285
	imul	rdx, r12	# _986, width
# src/opt7_5.cpp:118:                 vals_row[0] += p.A*pTLr + p.B*pTRr + p.C*pBLr + p.D*pBRr;
	.loc 1 118 45 view .LVU426
	vmovss	xmm15, DWORD PTR 12[rax]	# _125, MEM[(float *)_941 + 12B]
# src/opt7_5.cpp:118:                 vals_row[0] += p.A*pTLr + p.B*pTRr + p.C*pBLr + p.D*pBRr;
	.loc 1 118 56 view .LVU427
	vmovss	xmm14, DWORD PTR 16[rax]	# _128, MEM[(float *)_941 + 16B]
	imul	r9, r12	# _1002, width
.LBE2528:
.LBE2532:
# src/opt7_5.cpp:91:             size_t ind_top = ((y + p.sy) * width + (p.x_begin + p.sx)) * 3;
	.loc 1 91 63 view .LVU428
	lea	esi, [r8+rdi]	# _76,
	add	rdi, rbp	# _1066, _99
.LBB2533:
.LBB2529:
# src/opt7_5.cpp:118:                 vals_row[0] += p.A*pTLr + p.B*pTRr + p.C*pBLr + p.D*pBRr;
	.loc 1 118 67 view .LVU429
	vmovss	xmm13, DWORD PTR 20[rax]	# _131, MEM[(float *)_941 + 20B]
.LBE2529:
.LBE2533:
# src/opt7_5.cpp:91:             size_t ind_top = ((y + p.sy) * width + (p.x_begin + p.sx)) * 3;
	.loc 1 91 63 view .LVU430
	movsxd	rsi, esi	# _77, _76
	add	rdx, rbp	# _984, _99
	lea	rbp, [rdi+rdi*2]	# _1065,
	add	rdx, r11	# _979, _980
	add	r9, rsi	# _1000, _77
	lea	rdx, [rdx+rdx*2]	# _978,
	lea	r9, [r9+r9*2]	# _999,
	lea	r8, 0[r13+rdx*4]	# ivtmp.344,
	lea	rdx, 0[0+r11*4]	# tmp517,
	add	r9, QWORD PTR 40[rax]	# ivtmp.338, MEM[(const unsigned char * *)_941 + 40B]
	sub	r11, rdx	# _963, tmp517
	lea	rdx, 0[0+rsi*4]	# tmp526,
	sub	rsi, rdx	# _960, tmp526
	sal	r11, 2	# tmp519,
	add	rbp, rsi	# _954, _960
	.p2align 4,,10
	.p2align 3
.L52:
	.loc 1 91 13 is_stmt 1 view .LVU431
.LVL98:
	.loc 1 92 13 view .LVU432
	.loc 1 94 13 view .LVU433
	.loc 1 95 13 view .LVU434
	.loc 1 96 13 view .LVU435
	.loc 1 98 13 view .LVU436
	.loc 1 99 13 view .LVU437
	.loc 1 100 13 view .LVU438
	.loc 1 102 13 view .LVU439
	.loc 1 105 13 view .LVU440
.LBB2534:
	.loc 1 105 39 discriminator 2 view .LVU441
.LBE2534:
# src/opt7_5.cpp:94:             float pTLr = p.data[ind_top];
	.loc 1 94 19 is_stmt 0 view .LVU442
	movzx	edx, BYTE PTR [r9]	# MEM[(const unsigned char *)_976], MEM[(const unsigned char *)_976]
	lea	rsi, [r9+rbp]	# ivtmp.329,
	vcvtusi2ss	xmm9, xmm0, edx	# tmp730, tmp729, MEM[(const unsigned char *)_976]
# src/opt7_5.cpp:95:             float pTLg = p.data[ind_top + 1];
	.loc 1 95 19 view .LVU443
	movzx	edx, BYTE PTR 1[r9]	# MEM[(const unsigned char *)_976 + 1B], MEM[(const unsigned char *)_976 + 1B]
	vcvtusi2ss	xmm8, xmm0, edx	# tmp731, tmp729, MEM[(const unsigned char *)_976 + 1B]
# src/opt7_5.cpp:96:             float pTLb = p.data[ind_top + 2];
	.loc 1 96 19 view .LVU444
	movzx	edx, BYTE PTR 2[r9]	# MEM[(const unsigned char *)_976 + 2B], MEM[(const unsigned char *)_976 + 2B]
	vcvtusi2ss	xmm7, xmm0, edx	# tmp732, tmp729, MEM[(const unsigned char *)_976 + 2B]
# src/opt7_5.cpp:98:             float pBLr = p.data[ind_bot];
	.loc 1 98 19 view .LVU445
	movzx	edx, BYTE PTR [r9+rcx]	# MEM[(const unsigned char *)_976 + _79 * 1], MEM[(const unsigned char *)_976 + _79 * 1]
	vcvtusi2ss	xmm6, xmm0, edx	# tmp733, tmp729, MEM[(const unsigned char *)_976 + _79 * 1]
# src/opt7_5.cpp:99:             float pBLg = p.data[ind_bot + 1];
	.loc 1 99 19 view .LVU446
	movzx	edx, BYTE PTR 1[r9+rcx]	# MEM[(const unsigned char *)_976 + 1B + _79 * 1], MEM[(const unsigned char *)_976 + 1B + _79 * 1]
	vcvtusi2ss	xmm5, xmm0, edx	# tmp734, tmp729, MEM[(const unsigned char *)_976 + 1B + _79 * 1]
# src/opt7_5.cpp:100:             float pBLb = p.data[ind_bot + 2];
	.loc 1 100 19 view .LVU447
	movzx	edx, BYTE PTR 2[r9+rcx]	# MEM[(const unsigned char *)_976 + 2B + _79 * 1], MEM[(const unsigned char *)_976 + 2B + _79 * 1]
	vcvtusi2ss	xmm4, xmm0, edx	# tmp735, tmp729, MEM[(const unsigned char *)_976 + 2B + _79 * 1]
# src/opt7_5.cpp:103:                 + (static_cast<size_t>(y) * width + static_cast<size_t>(p.x_begin)) * 3;
	.loc 1 103 87 view .LVU448
	lea	rdx, [r11+r8]	# vals_row,
.LVL99:
	.p2align 4,,10
	.p2align 3
.L51:
.LBB2535:
.LBB2530:
	.loc 1 107 17 is_stmt 1 view .LVU449
	.loc 1 108 17 view .LVU450
	.loc 1 110 17 view .LVU451
# src/opt7_5.cpp:110:                 const float pTRr = p.data[ind_top_r];
	.loc 1 110 29 is_stmt 0 view .LVU452
	movzx	edi, BYTE PTR 3[rsi]	# MEM[(const unsigned char *)_556 + 3B], MEM[(const unsigned char *)_556 + 3B]
	vmovaps	xmm3, xmm9	# pTLr, pTRr
	vmovaps	xmm2, xmm8	# pTLg, pTRg
	vmovaps	xmm1, xmm7	# pTLb, pTRb
	vmovaps	xmm12, xmm6	# pBLr, pBRr
	vmovaps	xmm17, xmm15	# _496, _125
	vmovaps	xmm11, xmm5	# pBLg, pBRg
# src/opt7_5.cpp:125:                 vals_row += 3;
	.loc 1 125 26 view .LVU453
	add	rdx, 12	# vals_row,
.LVL100:
# src/opt7_5.cpp:110:                 const float pTRr = p.data[ind_top_r];
	.loc 1 110 29 view .LVU454
	vcvtusi2ss	xmm9, xmm0, edi	# tmp736, tmp729, MEM[(const unsigned char *)_556 + 3B]
.LVL101:
	.loc 1 111 17 is_stmt 1 view .LVU455
# src/opt7_5.cpp:111:                 const float pTRg = p.data[ind_top_r + 1];
	.loc 1 111 29 is_stmt 0 view .LVU456
	movzx	edi, BYTE PTR 4[rsi]	# MEM[(const unsigned char *)_556 + 4B], MEM[(const unsigned char *)_556 + 4B]
	vmovaps	xmm10, xmm4	# pBLb, pBRb
.LBE2530:
# src/opt7_5.cpp:105:             for (int x = p.x_begin; x < p.x_end; ++x) {
	.loc 1 105 39 discriminator 2 view .LVU457
	add	rsi, 3	# ivtmp.329,
.LVL102:
.LBB2531:
# src/opt7_5.cpp:111:                 const float pTRg = p.data[ind_top_r + 1];
	.loc 1 111 29 view .LVU458
	vcvtusi2ss	xmm8, xmm0, edi	# tmp737, tmp729, MEM[(const unsigned char *)_556 + 4B]
.LVL103:
	.loc 1 112 17 is_stmt 1 view .LVU459
# src/opt7_5.cpp:112:                 const float pTRb = p.data[ind_top_r + 2];
	.loc 1 112 29 is_stmt 0 view .LVU460
	movzx	edi, BYTE PTR 2[rsi]	# MEM[(const unsigned char *)_556 + 5B], MEM[(const unsigned char *)_556 + 5B]
	vcvtusi2ss	xmm7, xmm0, edi	# tmp738, tmp729, MEM[(const unsigned char *)_556 + 5B]
.LVL104:
	.loc 1 114 17 is_stmt 1 view .LVU461
# src/opt7_5.cpp:114:                 const float pBRr = p.data[ind_bot_r];
	.loc 1 114 29 is_stmt 0 view .LVU462
	movzx	edi, BYTE PTR [rsi+rcx]	# MEM[(const unsigned char *)_556 + 3B + _79 * 1], MEM[(const unsigned char *)_556 + 3B + _79 * 1]
	vfmadd213ss	xmm17, xmm9, DWORD PTR -12[rdx]	# _496, pTRr, MEM[(float *)vals_row_658]
	vcvtusi2ss	xmm6, xmm0, edi	# tmp739, tmp729, MEM[(const unsigned char *)_556 + 3B + _79 * 1]
.LVL105:
	.loc 1 115 17 is_stmt 1 view .LVU463
# src/opt7_5.cpp:115:                 const float pBRg = p.data[ind_bot_r + 1];
	.loc 1 115 29 is_stmt 0 view .LVU464
	movzx	edi, BYTE PTR 1[rsi+rcx]	# MEM[(const unsigned char *)_556 + 4B + _79 * 1], MEM[(const unsigned char *)_556 + 4B + _79 * 1]
	vcvtusi2ss	xmm5, xmm0, edi	# tmp740, tmp729, MEM[(const unsigned char *)_556 + 4B + _79 * 1]
.LVL106:
	.loc 1 116 17 is_stmt 1 view .LVU465
# src/opt7_5.cpp:116:                 const float pBRb = p.data[ind_bot_r + 2];
	.loc 1 116 29 is_stmt 0 view .LVU466
	movzx	edi, BYTE PTR 2[rsi+rcx]	# MEM[(const unsigned char *)_556 + 5B + _79 * 1], MEM[(const unsigned char *)_556 + 5B + _79 * 1]
# src/opt7_5.cpp:118:                 vals_row[0] += p.A*pTLr + p.B*pTRr + p.C*pBLr + p.D*pBRr;
	.loc 1 118 68 view .LVU467
	vmulss	xmm18, xmm13, xmm6	# _132, _131, pBRr
# src/opt7_5.cpp:116:                 const float pBRb = p.data[ind_bot_r + 2];
	.loc 1 116 29 view .LVU468
	vcvtusi2ss	xmm4, xmm0, edi	# tmp741, tmp729, MEM[(const unsigned char *)_556 + 5B + _79 * 1]
.LVL107:
	.loc 1 118 17 is_stmt 1 view .LVU469
# src/opt7_5.cpp:118:                 vals_row[0] += p.A*pTLr + p.B*pTRr + p.C*pBLr + p.D*pBRr;
	.loc 1 118 29 is_stmt 0 view .LVU470
	vfmadd132ss	xmm3, xmm18, xmm16	# tmp541, _132, _123
.LVL108:
	.loc 1 118 29 view .LVU471
	vaddss	xmm3, xmm3, xmm17	# _666, tmp541, _496
	vfmadd132ss	xmm12, xmm3, xmm14	# tmp540, _666, _128
.LVL109:
	.loc 1 118 29 view .LVU472
	vmovaps	xmm3, xmm15	# _1082, _125
	vfmadd213ss	xmm3, xmm8, DWORD PTR -8[rdx]	# _1082, pTRg, MEM[(float *)vals_row_658 + 4B]
	vmovss	DWORD PTR -12[rdx], xmm12	# MEM[(float *)vals_row_658], tmp540
	.loc 1 119 17 is_stmt 1 view .LVU473
# src/opt7_5.cpp:119:                 vals_row[1] += p.A*pTLg + p.B*pTRg + p.C*pBLg + p.D*pBRg;
	.loc 1 119 68 is_stmt 0 view .LVU474
	vmulss	xmm12, xmm13, xmm5	# _145, _131, pBRg
# src/opt7_5.cpp:119:                 vals_row[1] += p.A*pTLg + p.B*pTRg + p.C*pBLg + p.D*pBRg;
	.loc 1 119 29 view .LVU475
	vfmadd132ss	xmm2, xmm12, xmm16	# tmp545, _145, _123
.LVL110:
	.loc 1 119 29 view .LVU476
	vaddss	xmm2, xmm2, xmm3	# _1075, tmp545, _1082
# src/opt7_5.cpp:120:                 vals_row[2] += p.A*pTLb + p.B*pTRb + p.C*pBLb + p.D*pBRb;
	.loc 1 120 68 view .LVU477
	vmulss	xmm3, xmm13, xmm4	# _158, _131, pBRb
# src/opt7_5.cpp:119:                 vals_row[1] += p.A*pTLg + p.B*pTRg + p.C*pBLg + p.D*pBRg;
	.loc 1 119 29 view .LVU478
	vfmadd132ss	xmm11, xmm2, xmm14	# tmp544, _1075, _128
.LVL111:
	.loc 1 119 29 view .LVU479
	vmovaps	xmm2, xmm15	# _1084, _125
	vfmadd213ss	xmm2, xmm7, DWORD PTR -4[rdx]	# _1084, pTRb, MEM[(float *)vals_row_658 + 8B]
# src/opt7_5.cpp:120:                 vals_row[2] += p.A*pTLb + p.B*pTRb + p.C*pBLb + p.D*pBRb;
	.loc 1 120 29 view .LVU480
	vfmadd132ss	xmm1, xmm3, xmm16	# tmp549, _158, _123
.LVL112:
# src/opt7_5.cpp:119:                 vals_row[1] += p.A*pTLg + p.B*pTRg + p.C*pBLg + p.D*pBRg;
	.loc 1 119 29 view .LVU481
	vmovss	DWORD PTR -8[rdx], xmm11	# MEM[(float *)vals_row_658 + 4B], tmp544
	.loc 1 120 17 is_stmt 1 view .LVU482
# src/opt7_5.cpp:120:                 vals_row[2] += p.A*pTLb + p.B*pTRb + p.C*pBLb + p.D*pBRb;
	.loc 1 120 29 is_stmt 0 view .LVU483
	vaddss	xmm1, xmm1, xmm2	# _1081, tmp549, _1084
	vfmadd132ss	xmm10, xmm1, xmm14	# tmp548, _1081, _128
.LVL113:
	.loc 1 120 29 view .LVU484
	vmovss	DWORD PTR -4[rdx], xmm10	# MEM[(float *)vals_row_658 + 8B], tmp548
	.loc 1 123 17 is_stmt 1 view .LVU485
.LVL114:
	.loc 1 123 30 view .LVU486
	.loc 1 123 43 view .LVU487
	.loc 1 124 17 view .LVU488
	.loc 1 124 30 view .LVU489
	.loc 1 124 43 view .LVU490
	.loc 1 125 17 view .LVU491
.LBE2531:
	.loc 1 105 13 discriminator 1 view .LVU492
	.loc 1 105 39 discriminator 2 view .LVU493
	cmp	rdx, r8	# vals_row, ivtmp.344
	jne	.L51	#,
.LBE2535:
.LBE2536:
	.loc 1 89 9 discriminator 1 view .LVU494
	inc	r10d	# y
.LVL115:
	.loc 1 89 35 discriminator 2 view .LVU495
	add	r9, rcx	# ivtmp.338, _79
	add	r8, r14	# ivtmp.344, tmp497
	cmp	r10d, r15d	# y, _762
	jne	.L52	#,
.LVL116:
.L50:
	.loc 1 89 35 is_stmt 0 discriminator 2 view .LVU496
.LBE2525:
	.loc 1 88 5 is_stmt 1 discriminator 4 view .LVU497
	.loc 1 88 31 discriminator 5 view .LVU498
# src/opt7_5.cpp:88:     for (const SubParams& p : params) {
	.loc 1 88 31 is_stmt 0 discriminator 6 view .LVU499
	add	rax, 48	# ivtmp.351,
.LVL117:
	.loc 1 88 31 discriminator 6 view .LVU500
	cmp	rbx, rax	# __new_finish, ivtmp.351
	jne	.L53	#,
	mov	r15, QWORD PTR 72[rsp]	# _308, %sfp
	mov	rbp, QWORD PTR 88[rsp]	# _416, %sfp
	mov	r13, QWORD PTR 96[rsp]	# y_904, %sfp
	mov	rbx, QWORD PTR 104[rsp]	# <retval>, %sfp
.LVL118:
.L49:
	.loc 1 88 31 discriminator 6 view .LVU501
.LBE2524:
.LBB2537:
	.loc 1 130 26 is_stmt 1 discriminator 2 view .LVU502
	cmp	QWORD PTR 40[rsp], 0	# %sfp,
	je	.L54	#,
.LVL119:
.L28:
.LBB2538:
	.loc 1 131 30 discriminator 2 view .LVU503
	test	r12, r12	# width
	je	.L55	#,
.LBB2539:
.LBB2540:
.LBB2541:
# /usr/include/c++/16/cmath:2695:   { return __builtin_roundf(__x); }
	.loc 9 2695 28 is_stmt 0 view .LVU504
	vmovss	xmm3, DWORD PTR .LC4[rip]	# tmp689,
	vbroadcastss	xmm4, DWORD PTR .LC6[rip]	# tmp690,
	lea	r8, 0[0+r12*4]	# _723,
	mov	rsi, r15	# ivtmp.320, _308
.LBE2541:
.LBE2540:
.LBB2546:
.LBB2547:
.LBB2548:
# /usr/include/c++/16/bits/stl_algobase.h:237:       if (__b < __a)
	.loc 10 237 7 view .LVU505
	vmovss	xmm5, DWORD PTR .LC7[rip]	# tmp693,
	mov	r9, QWORD PTR 40[rsp]	# height, %sfp
.LBE2548:
.LBE2547:
.LBE2546:
.LBE2539:
# src/opt7_5.cpp:131:         for (size_t x = 0; x < width; ++x) {
	.loc 1 131 30 discriminator 2 view .LVU506
	xor	edi, edi	# ivtmp.319
	xor	ecx, ecx	# y
.LBB2664:
.LBB2559:
.LBB2551:
.LBB2549:
# /usr/include/c++/16/bits/stl_algobase.h:237:       if (__b < __a)
	.loc 10 237 7 view .LVU507
	mov	r10, QWORD PTR 24[rsp]	# _656, %sfp
.LBE2549:
.LBE2551:
.LBE2559:
.LBB2560:
.LBB2542:
# /usr/include/c++/16/cmath:2695:   { return __builtin_roundf(__x); }
	.loc 9 2695 28 view .LVU508
	vandnps	xmm3, xmm4, xmm3	# tmp691, tmp690, tmp689
.LBE2542:
.LBE2560:
.LBB2561:
.LBB2552:
.LBB2553:
# /usr/include/c++/16/bits/stl_algobase.h:261:       if (__a < __b)
	.loc 10 261 7 view .LVU509
	vxorps	xmm6, xmm6, xmm6	# tmp692
.LVL120:
	.p2align 4,,10
	.p2align 3
.L73:
	.loc 10 261 7 view .LVU510
	lea	rax, [rdi+rdi*2]	# _578,
	lea	rdx, [r10+rax*4]	# ivtmp.313,
.LBE2553:
.LBE2552:
.LBE2561:
.LBE2664:
# src/opt7_5.cpp:131:         for (size_t x = 0; x < width; ++x) {
	.loc 1 131 21 view .LVU511
	xor	eax, eax	# x
	.p2align 4,,10
	.p2align 3
.L72:
.LVL121:
.LBB2665:
	.loc 1 132 13 is_stmt 1 view .LVU512
# src/opt7_5.cpp:132:             const int c = counts[y * width + x];
	.loc 1 132 47 is_stmt 0 discriminator 1 view .LVU513
	mov	r11d, DWORD PTR [rsi+rax*4]	# c, MEM[(value_type &)_495 + x_3 * 4]
.LVL122:
	.loc 1 133 13 is_stmt 1 view .LVU514
	test	r11d, r11d	# c
	je	.L56	#,
	.loc 1 136 13 view .LVU515
# src/opt7_5.cpp:136:             output.at(x, y, 0) = (unsigned char) std::clamp(std::round(vals[(y*width + x)*3]     / c), 0.0f, 255.0f);
	.loc 1 136 71 is_stmt 0 discriminator 1 view .LVU516
	vcvtsi2ss	xmm2, xmm0, r11d	# tmp742, tmp729, c
.LVL123:
.LBB2562:
.LBI2540:
	.loc 9 2694 3 is_stmt 1 view .LVU517
.LBB2543:
	.loc 9 2695 5 view .LVU518
.LBE2543:
.LBE2562:
# src/opt7_5.cpp:136:             output.at(x, y, 0) = (unsigned char) std::clamp(std::round(vals[(y*width + x)*3]     / c), 0.0f, 255.0f);
	.loc 1 136 71 is_stmt 0 discriminator 1 view .LVU519
	vmovss	xmm1, DWORD PTR [rdx]	# MEM[(value_type &)_280], MEM[(value_type &)_280]
.LBB2563:
.LBB2544:
# /usr/include/c++/16/cmath:2695:   { return __builtin_roundf(__x); }
	.loc 9 2695 28 view .LVU520
	vmovaps	xmm7, xmm4	# tmp966, tmp690
	mov	r11, QWORD PTR [rbx]	# _449, MEM[(long unsigned int *)output_214(D)]
.LVL124:
	.loc 9 2695 28 view .LVU521
	mov	r14, QWORD PTR 8[rbx]	# _450, MEM[(long unsigned int *)output_214(D) + 8B]
.LBE2544:
.LBE2563:
# src/opt7_5.cpp:136:             output.at(x, y, 0) = (unsigned char) std::clamp(std::round(vals[(y*width + x)*3]     / c), 0.0f, 255.0f);
	.loc 1 136 71 discriminator 1 view .LVU522
	vdivss	xmm1, xmm1, xmm2	# _167, MEM[(value_type &)_280], _166
.LVL125:
.LBB2564:
.LBB2545:
# /usr/include/c++/16/cmath:2695:   { return __builtin_roundf(__x); }
	.loc 9 2695 28 view .LVU523
	vpternlogd	xmm7, xmm1, xmm3, 234	# tmp966, _167, tmp691,
	vaddss	xmm1, xmm1, xmm7	# tmp564, _167, tmp558
.LVL126:
	.loc 9 2695 28 view .LVU524
	vrndscaless	xmm1, xmm1, xmm1, 3	# tmp565, tmp564,
.LVL127:
	.loc 9 2695 28 view .LVU525
.LBE2545:
.LBE2564:
.LBB2565:
.LBI2546:
	.file 13 "/usr/include/c++/16/bits/stl_algo.h"
	.loc 13 3614 5 is_stmt 1 view .LVU526
	.loc 13 3616 7 discriminator 2 view .LVU527
.LBB2555:
.LBI2552:
	.loc 10 256 5 view .LVU528
.LBE2555:
.LBB2556:
.LBI2547:
	.loc 10 232 5 view .LVU529
.LBE2556:
.LBB2557:
.LBB2554:
# /usr/include/c++/16/bits/stl_algobase.h:261:       if (__a < __b)
	.loc 10 261 7 is_stmt 0 view .LVU530
	vmaxss	xmm1, xmm1, xmm6	# _253, tmp565, tmp692
.LBE2554:
.LBE2557:
.LBB2558:
.LBB2550:
# /usr/include/c++/16/bits/stl_algobase.h:237:       if (__b < __a)
	.loc 10 237 7 view .LVU531
	vminss	xmm1, xmm1, xmm5	# _253, _253, tmp693
.LBE2550:
.LBE2558:
.LBE2565:
# src/opt7_5.cpp:136:             output.at(x, y, 0) = (unsigned char) std::clamp(std::round(vals[(y*width + x)*3]     / c), 0.0f, 255.0f);
	.loc 1 136 34 discriminator 3 view .LVU532
	vcvttss2si	r13d, xmm1	# tmp570, _253
.LVL128:
.LBB2566:
.LBI2566:
	.loc 4 29 27 is_stmt 1 view .LVU533
.LBB2567:
	.loc 4 30 9 view .LVU534
.LBB2568:
.LBI2568:
	.loc 4 16 19 view .LVU535
.LBB2569:
	.loc 4 17 9 view .LVU536
	cmp	rax, r11	# x, _449
	jnb	.L179	#,
	.loc 4 20 9 view .LVU537
	cmp	rcx, r14	# y, _450
	jnb	.L180	#,
	.loc 4 23 9 view .LVU538
	.loc 4 26 9 view .LVU539
.LVL129:
	.loc 4 26 9 is_stmt 0 view .LVU540
.LBE2569:
.LBE2568:
.LBB2574:
.LBI2574:
	.loc 2 1251 7 is_stmt 1 view .LVU541
.LBB2575:
	.loc 2 1253 2 discriminator 2 view .LVU542
	.loc 2 1253 2 is_stmt 0 discriminator 2 view .LVU543
.LBE2575:
.LBE2574:
.LBE2567:
.LBE2566:
# src/opt7_5.cpp:137:             output.at(x, y, 1) = (unsigned char) std::clamp(std::round(vals[(y*width + x)*3 + 1] / c), 0.0f, 255.0f);
	.loc 1 137 71 discriminator 1 view .LVU544
	vmovss	xmm1, DWORD PTR 4[rdx]	# MEM[(value_type &)_280 + 4], MEM[(value_type &)_280 + 4]
.LBB2584:
.LBB2580:
.LBB2576:
.LBB2570:
# include/utils.hpp:26:         return (y * width + x) * 3 + c;
	.loc 4 26 19 view .LVU545
	imul	r11, rcx	# _610, y
.LBE2570:
.LBE2576:
.LBE2580:
.LBE2584:
.LBB2585:
.LBB2586:
# /usr/include/c++/16/cmath:2695:   { return __builtin_roundf(__x); }
	.loc 9 2695 28 view .LVU546
	vmovaps	xmm7, xmm4	# tmp967, tmp690
.LBE2586:
.LBE2585:
# src/opt7_5.cpp:137:             output.at(x, y, 1) = (unsigned char) std::clamp(std::round(vals[(y*width + x)*3 + 1] / c), 0.0f, 255.0f);
	.loc 1 137 71 discriminator 1 view .LVU547
	vdivss	xmm1, xmm1, xmm2	# _171, MEM[(value_type &)_280 + 4], _166
.LBB2588:
.LBB2581:
.LBB2577:
.LBB2571:
# include/utils.hpp:26:         return (y * width + x) * 3 + c;
	.loc 4 26 32 view .LVU548
	add	r11, rax	# tmp582, x
.LBE2571:
.LBE2577:
.LBE2581:
.LBE2588:
# src/opt7_5.cpp:136:             output.at(x, y, 0) = (unsigned char) std::clamp(std::round(vals[(y*width + x)*3]     / c), 0.0f, 255.0f);
	.loc 1 136 32 discriminator 4 view .LVU549
	lea	r11, [r11+r11*2]	# tmp587,
	add	r11, QWORD PTR 16[rbx]	# tmp588, MEM[(struct vector *)output_214(D) + 16B].D.86825._M_impl.D.86136._M_start
	mov	BYTE PTR [r11], r13b	# MEM[(unsigned char &)_349], tmp570
	.loc 1 137 13 is_stmt 1 view .LVU550
.LVL130:
.LBB2589:
.LBI2585:
	.loc 9 2694 3 view .LVU551
.LBB2587:
	.loc 9 2695 5 view .LVU552
	mov	r11, QWORD PTR [rbx]	# _447, MEM[(long unsigned int *)output_214(D)]
	mov	r14, QWORD PTR 8[rbx]	# _448, MEM[(long unsigned int *)output_214(D) + 8B]
# /usr/include/c++/16/cmath:2695:   { return __builtin_roundf(__x); }
	.loc 9 2695 28 is_stmt 0 view .LVU553
	vpternlogd	xmm7, xmm1, xmm3, 234	# tmp967, _171, tmp691,
	vaddss	xmm1, xmm1, xmm7	# tmp597, _171, tmp591
.LVL131:
	.loc 9 2695 28 view .LVU554
	vrndscaless	xmm1, xmm1, xmm1, 3	# tmp598, tmp597,
.LVL132:
	.loc 9 2695 28 view .LVU555
.LBE2587:
.LBE2589:
.LBB2590:
.LBI2590:
	.loc 13 3614 5 is_stmt 1 view .LVU556
	.loc 13 3616 7 discriminator 2 view .LVU557
.LBB2591:
.LBI2591:
	.loc 10 256 5 view .LVU558
.LBE2591:
.LBB2593:
.LBI2593:
	.loc 10 232 5 view .LVU559
.LBE2593:
.LBB2595:
.LBB2592:
# /usr/include/c++/16/bits/stl_algobase.h:261:       if (__a < __b)
	.loc 10 261 7 is_stmt 0 view .LVU560
	vmaxss	xmm1, xmm1, xmm6	# _323, tmp598, tmp692
.LBE2592:
.LBE2595:
.LBB2596:
.LBB2594:
# /usr/include/c++/16/bits/stl_algobase.h:237:       if (__b < __a)
	.loc 10 237 7 view .LVU561
	vminss	xmm1, xmm1, xmm5	# _323, _323, tmp693
.LBE2594:
.LBE2596:
.LBE2590:
# src/opt7_5.cpp:137:             output.at(x, y, 1) = (unsigned char) std::clamp(std::round(vals[(y*width + x)*3 + 1] / c), 0.0f, 255.0f);
	.loc 1 137 34 discriminator 3 view .LVU562
	vcvttss2si	r13d, xmm1	# tmp603, _323
.LVL133:
.LBB2597:
.LBI2597:
	.loc 4 29 27 is_stmt 1 view .LVU563
.LBB2598:
	.loc 4 30 9 view .LVU564
.LBB2599:
.LBI2599:
	.loc 4 16 19 view .LVU565
.LBB2600:
	.loc 4 17 9 view .LVU566
	cmp	rax, r11	# x, _447
	jnb	.L197	#,
	.loc 4 20 9 view .LVU567
	cmp	rcx, r14	# y, _448
	jnb	.L181	#,
	.loc 4 23 9 view .LVU568
	.loc 4 26 9 view .LVU569
.LVL134:
	.loc 4 26 9 is_stmt 0 view .LVU570
.LBE2600:
.LBE2599:
.LBB2608:
.LBI2608:
	.loc 2 1251 7 is_stmt 1 view .LVU571
.LBB2609:
	.loc 2 1253 2 discriminator 2 view .LVU572
	.loc 2 1253 2 is_stmt 0 discriminator 2 view .LVU573
.LBE2609:
.LBE2608:
.LBE2598:
.LBE2597:
# src/opt7_5.cpp:138:             output.at(x, y, 2) = (unsigned char) std::clamp(std::round(vals[(y*width + x)*3 + 2] / c), 0.0f, 255.0f);
	.loc 1 138 71 discriminator 1 view .LVU574
	vmovss	xmm1, DWORD PTR 8[rdx]	# MEM[(value_type &)_280 + 8], MEM[(value_type &)_280 + 8]
.LBB2624:
.LBB2617:
.LBB2610:
.LBB2601:
# include/utils.hpp:26:         return (y * width + x) * 3 + c;
	.loc 4 26 19 view .LVU575
	imul	r11, rcx	# _619, y
.LBE2601:
.LBE2610:
.LBE2617:
.LBE2624:
.LBB2625:
.LBB2626:
# /usr/include/c++/16/cmath:2695:   { return __builtin_roundf(__x); }
	.loc 9 2695 28 view .LVU576
	vmovaps	xmm7, xmm4	# tmp968, tmp690
.LBE2626:
.LBE2625:
# src/opt7_5.cpp:138:             output.at(x, y, 2) = (unsigned char) std::clamp(std::round(vals[(y*width + x)*3 + 2] / c), 0.0f, 255.0f);
	.loc 1 138 71 discriminator 1 view .LVU577
	vdivss	xmm1, xmm1, xmm2	# _175, MEM[(value_type &)_280 + 8], _166
.LBB2628:
.LBB2618:
.LBB2611:
.LBB2602:
# include/utils.hpp:26:         return (y * width + x) * 3 + c;
	.loc 4 26 32 view .LVU578
	add	r11, rax	# tmp621, x
.LBE2602:
.LBE2611:
.LBE2618:
.LBE2628:
# src/opt7_5.cpp:137:             output.at(x, y, 1) = (unsigned char) std::clamp(std::round(vals[(y*width + x)*3 + 1] / c), 0.0f, 255.0f);
	.loc 1 137 32 discriminator 4 view .LVU579
	lea	r11, [r11+r11*2]	# tmp625,
	add	r11, QWORD PTR 16[rbx]	# tmp626, MEM[(struct vector *)output_214(D) + 16B].D.86825._M_impl.D.86136._M_start
	mov	BYTE PTR 1[r11], r13b	# MEM[(unsigned char &)_356], tmp603
	.loc 1 138 13 is_stmt 1 view .LVU580
.LVL135:
.LBB2629:
.LBI2625:
	.loc 9 2694 3 view .LVU581
.LBB2627:
	.loc 9 2695 5 view .LVU582
	mov	r11, QWORD PTR [rbx]	# _445, MEM[(long unsigned int *)output_214(D)]
	mov	r14, QWORD PTR 8[rbx]	# _446, MEM[(long unsigned int *)output_214(D) + 8B]
# /usr/include/c++/16/cmath:2695:   { return __builtin_roundf(__x); }
	.loc 9 2695 28 is_stmt 0 view .LVU583
	vpternlogd	xmm7, xmm1, xmm3, 234	# tmp968, _175, tmp691,
	vaddss	xmm1, xmm1, xmm7	# tmp636, _175, tmp968
.LVL136:
	.loc 9 2695 28 view .LVU584
	vrndscaless	xmm1, xmm1, xmm1, 3	# tmp637, tmp636,
.LVL137:
	.loc 9 2695 28 view .LVU585
.LBE2627:
.LBE2629:
.LBB2630:
.LBI2630:
	.loc 13 3614 5 is_stmt 1 view .LVU586
	.loc 13 3616 7 discriminator 2 view .LVU587
.LBB2631:
.LBI2631:
	.loc 10 256 5 view .LVU588
.LBE2631:
.LBB2633:
.LBI2633:
	.loc 10 232 5 view .LVU589
.LBE2633:
.LBB2635:
.LBB2632:
# /usr/include/c++/16/bits/stl_algobase.h:261:       if (__a < __b)
	.loc 10 261 7 is_stmt 0 view .LVU590
	vmaxss	xmm1, xmm1, xmm6	# _245, tmp637, tmp692
.LBE2632:
.LBE2635:
.LBB2636:
.LBB2634:
# /usr/include/c++/16/bits/stl_algobase.h:237:       if (__b < __a)
	.loc 10 237 7 view .LVU591
	vminss	xmm1, xmm1, xmm5	# _245, _245, tmp693
.LBE2634:
.LBE2636:
.LBE2630:
# src/opt7_5.cpp:138:             output.at(x, y, 2) = (unsigned char) std::clamp(std::round(vals[(y*width + x)*3 + 2] / c), 0.0f, 255.0f);
	.loc 1 138 34 discriminator 3 view .LVU592
	vcvttss2si	r13d, xmm1	# tmp642, _245
.LVL138:
.LBB2637:
.LBI2637:
	.loc 4 29 27 is_stmt 1 view .LVU593
.LBB2638:
	.loc 4 30 9 view .LVU594
.LBB2639:
.LBI2639:
	.loc 4 16 19 view .LVU595
.LBB2640:
	.loc 4 17 9 view .LVU596
	cmp	rax, r11	# x, _445
	jnb	.L198	#,
	.loc 4 20 9 view .LVU597
	cmp	rcx, r14	# y, _446
	jnb	.L182	#,
	.loc 4 23 9 view .LVU598
	.loc 4 26 9 view .LVU599
.LVL139:
	.loc 4 26 9 is_stmt 0 view .LVU600
.LBE2640:
.LBE2639:
.LBB2645:
.LBI2645:
	.loc 2 1251 7 is_stmt 1 view .LVU601
.LBB2646:
	.loc 2 1253 2 discriminator 2 view .LVU602
	.loc 2 1253 2 is_stmt 0 discriminator 2 view .LVU603
.LBE2646:
.LBE2645:
.LBB2647:
.LBB2641:
# include/utils.hpp:26:         return (y * width + x) * 3 + c;
	.loc 4 26 19 view .LVU604
	imul	r11, rcx	# _628, y
# include/utils.hpp:26:         return (y * width + x) * 3 + c;
	.loc 4 26 32 view .LVU605
	add	r11, rax	# tmp658, x
.LBE2641:
.LBE2647:
.LBE2638:
.LBE2637:
# src/opt7_5.cpp:138:             output.at(x, y, 2) = (unsigned char) std::clamp(std::round(vals[(y*width + x)*3 + 2] / c), 0.0f, 255.0f);
	.loc 1 138 32 discriminator 4 view .LVU606
	lea	r11, [r11+r11*2]	# tmp662,
	add	r11, QWORD PTR 16[rbx]	# tmp663, MEM[(struct vector *)output_214(D) + 16B].D.86825._M_impl.D.86136._M_start
	mov	BYTE PTR 2[r11], r13b	# MEM[(unsigned char &)_362], tmp642
.L56:
.LBE2665:
	.loc 1 131 9 is_stmt 1 discriminator 1 view .LVU607
	inc	rax	# x
.LVL140:
	.loc 1 131 30 discriminator 2 view .LVU608
	add	rdx, 12	# ivtmp.313,
	cmp	r12, rax	# width, x
	jne	.L72	#,
.LBE2538:
	.loc 1 130 5 discriminator 1 view .LVU609
	inc	rcx	# y
.LVL141:
	.loc 1 130 26 discriminator 2 view .LVU610
	add	rdi, r12	# ivtmp.319, width
	add	rsi, r8	# ivtmp.320, _723
.LVL142:
	.loc 1 130 26 is_stmt 0 discriminator 2 view .LVU611
	cmp	r9, rcx	# height, y
	jne	.L73	#,
.LVL143:
.L54:
	.loc 1 130 26 discriminator 2 view .LVU612
.LBE2537:
	.loc 1 142 5 is_stmt 1 view .LVU613
.LBB2679:
.LBI2679:
	.loc 2 790 7 view .LVU614
.LBB2680:
.LBI2680:
	.loc 2 307 7 view .LVU615
	.loc 2 307 7 is_stmt 0 view .LVU616
.LBE2680:
.LBB2681:
.LBI2681:
	.loc 8 1082 5 is_stmt 1 view .LVU617
	.loc 8 1082 5 is_stmt 0 view .LVU618
.LBE2681:
.LBB2682:
.LBI2682:
	.loc 2 373 7 is_stmt 1 view .LVU619
.LBB2683:
.LBB2684:
.LBI2684:
	.loc 2 394 7 view .LVU620
.LBB2685:
# /usr/include/c++/16/bits/stl_vector.h:397: 	if (__p)
	.loc 2 397 2 is_stmt 0 view .LVU621
	cmp	QWORD PTR 24[rsp], 0	# %sfp,
	je	.L29	#,
.LVL144:
.L34:
.LBB2686:
.LBI2686:
	.loc 8 688 7 is_stmt 1 view .LVU622
.LBB2687:
.LBI2687:
	.loc 6 167 7 view .LVU623
.LBB2688:
# /usr/include/c++/16/bits/new_allocator.h:183: 	_GLIBCXX_OPERATOR_DELETE(_GLIBCXX_SIZED_DEALLOC(__p, __n));
	.loc 6 183 59 is_stmt 0 view .LVU624
	mov	rsi, QWORD PTR 48[rsp]	#, %sfp
	mov	rdi, QWORD PTR 24[rsp]	#, %sfp
	call	"_ZdlPvm"@PLT	#
.LVL145:
	.loc 6 183 59 view .LVU625
.LBE2688:
.LBE2687:
.LBE2686:
.LBE2685:
.LBE2684:
.LBE2683:
.LBB2691:
.LBI2691:
	.loc 2 139 14 is_stmt 1 view .LVU626
.LBB2692:
.LBI2692:
	.loc 5 189 7 view .LVU627
.LBB2693:
.LBI2693:
	.loc 6 104 7 view .LVU628
	.loc 6 104 7 is_stmt 0 view .LVU629
.LBE2693:
.LBE2692:
.LBE2691:
.LBE2682:
.LBE2679:
.LBB2698:
.LBI2698:
	.loc 2 790 7 is_stmt 1 view .LVU630
.LBB2699:
.LBI2699:
	.loc 2 307 7 view .LVU631
	.loc 2 307 7 is_stmt 0 view .LVU632
.LBE2699:
.LBB2700:
.LBI2700:
	.loc 8 1082 5 is_stmt 1 view .LVU633
	.loc 8 1082 5 is_stmt 0 view .LVU634
.LBE2700:
.LBB2701:
.LBI2701:
	.loc 2 373 7 is_stmt 1 view .LVU635
.L29:
.LBB2702:
.LBB2703:
.LBI2703:
	.loc 2 394 7 view .LVU636
.LBB2704:
# /usr/include/c++/16/bits/stl_vector.h:397: 	if (__p)
	.loc 2 397 2 is_stmt 0 view .LVU637
	test	rbp, rbp	# _416
	je	.L75	#,
.LVL146:
.L47:
.LBB2705:
.LBI2705:
	.loc 8 688 7 is_stmt 1 view .LVU638
.LBB2706:
.LBI2706:
	.loc 6 167 7 view .LVU639
.LBB2707:
# /usr/include/c++/16/bits/new_allocator.h:183: 	_GLIBCXX_OPERATOR_DELETE(_GLIBCXX_SIZED_DEALLOC(__p, __n));
	.loc 6 183 59 is_stmt 0 view .LVU640
	mov	rsi, QWORD PTR 56[rsp]	#, %sfp
	mov	rdi, rbp	#, _416
	call	"_ZdlPvm"@PLT	#
.LVL147:
	.loc 6 183 59 view .LVU641
.LBE2707:
.LBE2706:
.LBE2705:
.LBE2704:
.LBE2703:
.LBE2702:
.LBB2708:
.LBI2708:
	.loc 2 139 14 is_stmt 1 view .LVU642
.LBB2709:
.LBI2709:
	.loc 5 189 7 view .LVU643
.LBB2710:
.LBI2710:
	.loc 6 104 7 view .LVU644
	.loc 6 104 7 is_stmt 0 view .LVU645
.LBE2710:
.LBE2709:
.LBE2708:
.LBE2701:
.LBE2698:
.LBB2711:
.LBI2711:
	.loc 2 790 7 is_stmt 1 view .LVU646
.LBB2712:
.LBI2712:
	.loc 2 307 7 view .LVU647
	.loc 2 307 7 is_stmt 0 view .LVU648
.LBE2712:
.LBB2713:
.LBI2713:
	.loc 8 1082 5 is_stmt 1 view .LVU649
	.loc 8 1082 5 is_stmt 0 view .LVU650
.LBE2713:
.LBB2714:
.LBI2714:
	.loc 2 373 7 is_stmt 1 view .LVU651
.L75:
.LBB2715:
.LBB2716:
.LBI2716:
	.loc 2 394 7 view .LVU652
.LBB2717:
# /usr/include/c++/16/bits/stl_vector.h:397: 	if (__p)
	.loc 2 397 2 is_stmt 0 view .LVU653
	test	r15, r15	# _308
	je	.L76	#,
.LVL148:
.LBB2718:
.LBI2718:
	.loc 8 688 7 is_stmt 1 view .LVU654
.LBB2719:
.LBI2719:
	.loc 6 167 7 view .LVU655
.LBB2720:
# /usr/include/c++/16/bits/new_allocator.h:183: 	_GLIBCXX_OPERATOR_DELETE(_GLIBCXX_SIZED_DEALLOC(__p, __n));
	.loc 6 183 59 is_stmt 0 view .LVU656
	mov	rsi, QWORD PTR 80[rsp]	#, %sfp
	mov	rdi, r15	#, _308
	call	"_ZdlPvm"@PLT	#
.LVL149:
.L76:
	.loc 6 183 59 view .LVU657
.LBE2720:
.LBE2719:
.LBE2718:
.LBE2717:
.LBE2716:
.LBE2715:
.LBB2721:
.LBI2721:
	.loc 2 139 14 is_stmt 1 view .LVU658
.LBB2722:
.LBI2722:
	.loc 5 189 7 view .LVU659
.LBB2723:
.LBI2723:
	.loc 6 104 7 view .LVU660
	.loc 6 104 7 is_stmt 0 view .LVU661
.LBE2723:
.LBE2722:
.LBE2721:
.LBE2714:
.LBE2711:
.LBB2724:
.LBI2272:
	.loc 2 790 7 is_stmt 1 view .LVU662
.LBB2286:
.LBI2286:
	.loc 2 307 7 view .LVU663
	.loc 2 307 7 is_stmt 0 view .LVU664
.LBE2286:
.LBB2287:
.LBI2287:
	.loc 8 1082 5 is_stmt 1 view .LVU665
	.loc 8 1082 5 is_stmt 0 view .LVU666
.LBE2287:
.LBB2288:
.LBI2273:
	.loc 2 373 7 is_stmt 1 view .LVU667
.LBB2282:
.LBB2275:
.LBI2275:
	.loc 2 394 7 view .LVU668
.LBB2276:
# /usr/include/c++/16/bits/stl_vector.h:397: 	if (__p)
	.loc 2 397 2 is_stmt 0 view .LVU669
	mov	rax, QWORD PTR 16[rsp]	# params$_M_start, %sfp
	test	rax, rax	# params$_M_start
	je	.L1	#,
.LVL150:
.LBB2277:
.LBI2277:
	.loc 2 394 7 is_stmt 1 view .LVU670
.LBB2278:
.LBB2279:
.LBI2279:
	.loc 8 688 7 view .LVU671
.LBB2280:
.LBI2280:
	.loc 6 167 7 view .LVU672
.LBB2281:
# /usr/include/c++/16/bits/new_allocator.h:183: 	_GLIBCXX_OPERATOR_DELETE(_GLIBCXX_SIZED_DEALLOC(__p, __n));
	.loc 6 183 59 is_stmt 0 view .LVU673
	mov	rsi, QWORD PTR 64[rsp]	#, %sfp
	mov	rdi, rax	#, params$_M_start
	call	"_ZdlPvm"@PLT	#
.LVL151:
	.loc 6 183 59 view .LVU674
.LBE2281:
.LBE2280:
.LBE2279:
.LBE2278:
.LBE2277:
.LBE2276:
.LBE2275:
.LBE2282:
.LBB2283:
.LBI2283:
	.loc 2 139 14 is_stmt 1 view .LVU675
.LBB2284:
.LBI2284:
	.loc 5 189 7 view .LVU676
.LBB2285:
.LBI2285:
	.loc 6 104 7 view .LVU677
.L1:
	.loc 6 104 7 is_stmt 0 view .LVU678
.LBE2285:
.LBE2284:
.LBE2283:
.LBE2288:
.LBE2724:
# src/opt7_5.cpp:143: }
	.loc 1 143 1 view .LVU679
	add	rsp, 152	#,
	.cfi_remember_state
	.cfi_def_cfa_offset 56
	mov	rax, rbx	#, <retval>
	pop	rbx	#
	.cfi_def_cfa_offset 48
	pop	rbp	#
	.cfi_def_cfa_offset 40
	pop	r12	#
	.cfi_def_cfa_offset 32
	pop	r13	#
	.cfi_def_cfa_offset 24
	pop	r14	#
	.cfi_def_cfa_offset 16
	pop	r15	#
	.cfi_def_cfa_offset 8
	ret	
.LVL152:
.L55:
	.cfi_restore_state
.LBB2725:
	.loc 1 130 5 is_stmt 1 discriminator 1 view .LVU680
	.loc 1 130 26 discriminator 2 view .LVU681
	mov	rax, QWORD PTR 40[rsp]	# height, %sfp
	cmp	rax, r13	# height, y_904
	je	.L54	#,
.LVL153:
.L199:
.LBB2672:
	.loc 1 131 30 discriminator 2 view .LVU682
.LBE2672:
	.loc 1 130 5 discriminator 1 view .LVU683
	add	r12, 2	# width,
.LVL154:
	.loc 1 130 26 discriminator 2 view .LVU684
	cmp	rax, r12	# height, width
	je	.L54	#,
	mov	rax, QWORD PTR 40[rsp]	# height, %sfp
	lea	r13, 1[r12]	# y_904,
.LVL155:
	.loc 1 130 5 discriminator 1 view .LVU685
	.loc 1 130 26 discriminator 2 view .LVU686
	cmp	rax, r13	# height, y_904
	jne	.L199	#,
	jmp	.L54	#
.LVL156:
.L194:
	.loc 1 130 26 is_stmt 0 discriminator 2 view .LVU687
.LBE2725:
.LBB2726:
.LBB2096:
.LBB2089:
.LBB2081:
.LBB2075:
# /usr/include/c++/16/bits/stl_vector.h:106: 	: _M_start(), _M_finish(), _M_end_of_storage()
	.loc 2 106 4 view .LVU688
	mov	QWORD PTR 8[rsp], 0	# %sfp,
.LBE2075:
.LBE2081:
.LBE2089:
.LBE2096:
.LBE2726:
# src/opt7_5.cpp:31:     const int w = static_cast<int>(width);
	.loc 1 31 15 view .LVU689
	mov	ecx, r12d	# _573, width
.LVL157:
# src/opt7_5.cpp:32:     const int h = static_cast<int>(height);
	.loc 1 32 15 view .LVU690
	mov	r14d, eax	# _554, height
.LVL158:
	.loc 1 42 5 is_stmt 1 view .LVU691
.LBB2727:
.LBB2263:
	.loc 2 988 7 view .LVU692
.LBB2126:
	.loc 3 1058 7 view .LVU693
	.loc 3 1058 7 is_stmt 0 view .LVU694
.LBE2126:
.LBE2263:
.LBB2264:
	.loc 2 1008 7 is_stmt 1 view .LVU695
.LBB2129:
	.loc 3 1058 7 view .LVU696
	.loc 3 1058 7 is_stmt 0 view .LVU697
.LBE2129:
.LBE2264:
	.loc 1 42 34 is_stmt 1 discriminator 5 view .LVU698
.LBE2727:
.LBB2728:
.LBB2097:
.LBB2090:
.LBB2082:
.LBB2076:
# /usr/include/c++/16/bits/stl_vector.h:106: 	: _M_start(), _M_finish(), _M_end_of_storage()
	.loc 2 106 29 is_stmt 0 view .LVU699
	mov	QWORD PTR 32[rsp], 0	# %sfp,
.LBE2076:
.LBE2082:
.LBE2090:
.LBE2097:
.LBE2728:
.LBB2729:
# src/opt7_5.cpp:42:     for (SubApertureImage& sub : subapertures) {
	.loc 1 42 34 discriminator 6 view .LVU700
	cmp	r15, rsi	# SR.262, _555
	jne	.L5	#,
.LBE2729:
.LBB2730:
.LBB2098:
.LBB2091:
.LBB2083:
.LBB2077:
# /usr/include/c++/16/bits/stl_vector.h:106: 	: _M_start(), _M_finish(), _M_end_of_storage()
	.loc 2 106 4 view .LVU701
	mov	QWORD PTR 16[rsp], 0	# %sfp,
.LVL159:
.L94:
	.loc 2 106 4 view .LVU702
.LBE2077:
.LBE2083:
.LBE2091:
.LBE2098:
.LBE2730:
.LBB2731:
.LBB2343:
.LBB2323:
.LBB2321:
# /usr/include/c++/16/bits/stl_vector.h:409: 	this->_M_impl._M_end_of_storage = this->_M_impl._M_start + __n;
	.loc 2 409 59 view .LVU703
	mov	QWORD PTR 80[rsp], 0	# %sfp,
.LBB2319:
.LBB2317:
# /usr/include/c++/16/bits/stl_vector.h:389: 	return __n != 0 ? _Tr::allocate(_M_impl, __n) : pointer();
	.loc 2 389 58 discriminator 3 view .LVU704
	xor	r15d, r15d	# _308
	jmp	.L18	#
.LVL160:
.L2:
	.loc 2 389 58 discriminator 3 view .LVU705
.LBE2317:
.LBE2319:
.LBE2321:
.LBE2323:
.LBE2343:
.LBE2731:
.LBB2732:
.LBB2062:
.LBB2058:
.LBB2054:
.LBB1975:
.LBB1976:
.LBI1976:
	.loc 2 589 7 is_stmt 1 view .LVU706
.LBB1977:
.LBI1977:
	.loc 2 2203 7 view .LVU707
.LBB1978:
.LBB1979:
.LBI1979:
	.loc 5 172 7 view .LVU708
.LBB1980:
.LBI1980:
	.loc 6 92 7 view .LVU709
	.loc 6 92 7 is_stmt 0 view .LVU710
.LBE1980:
.LBE1979:
.LBB1981:
.LBI1981:
	.loc 5 189 7 is_stmt 1 view .LVU711
.LBB1982:
.LBI1982:
	.loc 6 104 7 view .LVU712
.LBE1982:
.LBE1981:
# /usr/include/c++/16/bits/stl_vector.h:2205: 	if (__n > _S_max_size(_Tp_alloc_type(__a)))
	.loc 2 2205 2 is_stmt 0 discriminator 3 view .LVU713
	cmp	QWORD PTR 72[rsp], 0	# %sfp,
	js	.L174	#,
.LBE1978:
.LBE1977:
.LBB1984:
.LBB1985:
.LBB1986:
.LBB1987:
.LBB1988:
.LBB1989:
.LBB1990:
.LBB1991:
# /usr/include/c++/16/bits/new_allocator.h:162: 	  return static_cast<_Tp*>(_GLIBCXX_OPERATOR_NEW(__n * sizeof(_Tp)));
	.loc 6 162 68 view .LVU714
	mov	rdi, rsi	#, _5
	mov	r14, rsi	# _5, _5
	vmovss	DWORD PTR 8[rsp], xmm0	# %sfp, focus
.LVL161:
	.loc 6 162 68 view .LVU715
.LBE1991:
.LBE1990:
.LBE1989:
.LBE1988:
.LBE1987:
.LBE1986:
.LBE1985:
.LBI1984:
	.loc 2 339 7 is_stmt 1 view .LVU716
.LBB2000:
.LBI2000:
	.loc 2 152 2 view .LVU717
.LBB2001:
.LBI2001:
	.loc 5 172 7 view .LVU718
.LBB2002:
.LBI2002:
	.loc 6 92 7 view .LVU719
	.loc 6 92 7 is_stmt 0 view .LVU720
.LBE2002:
.LBE2001:
.LBB2003:
.LBI2003:
	.loc 2 105 2 is_stmt 1 view .LVU721
	.loc 2 105 2 is_stmt 0 view .LVU722
.LBE2003:
.LBE2000:
.LBB2004:
.LBI1985:
	.loc 2 405 7 is_stmt 1 view .LVU723
.LBB1997:
.LBB1996:
.LBI1987:
	.loc 2 386 7 view .LVU724
.LBB1995:
.LBB1994:
.LBI1989:
	.loc 8 637 7 view .LVU725
.LBB1993:
.LBI1990:
	.loc 6 129 7 view .LVU726
.LEHB4:
.LBB1992:
# /usr/include/c++/16/bits/new_allocator.h:162: 	  return static_cast<_Tp*>(_GLIBCXX_OPERATOR_NEW(__n * sizeof(_Tp)));
	.loc 6 162 68 is_stmt 0 view .LVU727
	call	"_Znwm"@PLT	#
.LVL162:
.LEHE4:
	.loc 6 162 68 view .LVU728
.LBE1992:
.LBE1993:
.LBE1994:
.LBE1995:
.LBE1996:
.LBE1997:
.LBE2004:
.LBE1984:
.LBB2007:
.LBB2008:
.LBB2009:
.LBB2010:
.LBB2011:
.LBB2012:
# /usr/include/c++/16/bits/stl_uninitialized.h:577: 		      __builtin_memset(__dest, (unsigned char)__x, __n);
	.loc 12 577 25 view .LVU729
	xor	esi, esi	#
.LBE2012:
.LBE2011:
.LBE2010:
.LBE2009:
.LBE2008:
.LBE2007:
.LBB2023:
.LBB2005:
.LBB1998:
# /usr/include/c++/16/bits/stl_vector.h:409: 	this->_M_impl._M_end_of_storage = this->_M_impl._M_start + __n;
	.loc 2 409 59 view .LVU730
	mov	rdx, r14	# _5, _5
.LBE1998:
.LBE2005:
.LBE2023:
.LBB2024:
.LBB2021:
.LBB2019:
.LBB2017:
.LBB2015:
.LBB2013:
# /usr/include/c++/16/bits/stl_uninitialized.h:577: 		      __builtin_memset(__dest, (unsigned char)__x, __n);
	.loc 12 577 25 view .LVU731
	mov	rdi, rax	#,
.LBE2013:
.LBE2015:
.LBE2017:
.LBE2019:
.LBE2021:
.LBE2024:
.LBB2025:
.LBB2006:
.LBB1999:
# /usr/include/c++/16/bits/stl_vector.h:409: 	this->_M_impl._M_end_of_storage = this->_M_impl._M_start + __n;
	.loc 2 409 59 view .LVU732
	lea	r13, [rax+r14]	# _604,
.LVL163:
	.loc 2 409 59 view .LVU733
.LBE1999:
.LBE2006:
.LBE2025:
.LBB2026:
.LBI2007:
	.loc 2 1987 7 is_stmt 1 view .LVU734
.LBB2022:
.LBI2008:
	.loc 12 771 5 view .LVU735
.LBB2020:
.LBI2009:
	.loc 12 550 5 view .LVU736
.LBB2018:
.LBB2016:
.LBB2014:
# /usr/include/c++/16/bits/stl_uninitialized.h:577: 		      __builtin_memset(__dest, (unsigned char)__x, __n);
	.loc 12 577 25 is_stmt 0 view .LVU737
	call	"memset"@PLT	#
.LVL164:
	.loc 12 577 25 view .LVU738
.LBE2014:
.LBE2016:
.LBE2018:
.LBE2020:
.LBE2022:
.LBE2026:
.LBE1976:
.LBB2028:
.LBI2028:
	.loc 2 128 2 is_stmt 1 view .LVU739
.LBB2029:
.LBB2030:
.LBI2030:
	.loc 2 105 2 view .LVU740
	.loc 2 105 2 is_stmt 0 view .LVU741
.LBE2030:
.LBB2031:
.LBI2031:
	.loc 2 119 2 is_stmt 1 view .LVU742
.LBB2032:
# /usr/include/c++/16/bits/stl_vector.h:122: 	  _M_finish = __x._M_finish;
	.loc 2 122 14 is_stmt 0 view .LVU743
	mov	QWORD PTR 24[rbx], r13	# MEM[(struct _Vector_impl_data *)output_214(D) + 16B]._M_finish, _604
.LBE2032:
.LBE2031:
.LBE2029:
.LBE2028:
.LBE1975:
.LBE2054:
.LBE2058:
.LBE2062:
.LBE2732:
.LBB2733:
.LBB2119:
# /usr/include/c++/16/bits/vector.tcc:75:       if (this->capacity() < __n)
	.loc 7 75 7 discriminator 1 view .LVU744
	vmovss	xmm4, DWORD PTR 8[rsp]	# focus, %sfp
.LBE2119:
.LBE2733:
.LBB2734:
.LBB2063:
.LBB2059:
.LBB2055:
.LBB2051:
.LBB2039:
.LBB2037:
.LBB2035:
.LBB2033:
# /usr/include/c++/16/bits/stl_vector.h:121: 	  _M_start = __x._M_start;
	.loc 2 121 13 view .LVU745
	mov	QWORD PTR 16[rbx], rax	# MEM[(struct _Vector_impl_data *)output_214(D) + 16B]._M_start,
.LBE2033:
.LBE2035:
.LBE2037:
.LBE2039:
.LBE2051:
.LBE2055:
.LBE2059:
.LBE2063:
.LBE2734:
.LBB2735:
.LBB2104:
# /usr/include/c++/16/bits/stl_vector.h:1109: 	ptrdiff_t __dif = this->_M_impl._M_finish - this->_M_impl._M_start;
	.loc 2 1109 34 view .LVU746
	mov	rax, QWORD PTR 8[rbp]	# _555, MEM[(const struct vector *)subapertures_209(D)].D.101674._M_impl.D.101021._M_finish
.LVL165:
	.loc 2 1109 34 view .LVU747
.LBE2104:
.LBE2735:
.LBB2736:
.LBB2064:
.LBB2060:
.LBB2056:
.LBB2052:
.LBB2040:
.LBB2038:
.LBB2036:
.LBB2034:
# /usr/include/c++/16/bits/stl_vector.h:123: 	  _M_end_of_storage = __x._M_end_of_storage;
	.loc 2 123 22 view .LVU748
	mov	QWORD PTR 32[rbx], r13	# MEM[(struct _Vector_impl_data *)output_214(D) + 16B]._M_end_of_storage, _604
.LVL166:
	.loc 2 123 22 view .LVU749
.LBE2034:
.LBE2036:
.LBE2038:
.LBE2040:
.LBB2041:
.LBI2041:
	.loc 2 790 7 is_stmt 1 view .LVU750
.LBB2042:
.LBI2042:
	.loc 2 307 7 view .LVU751
	.loc 2 307 7 is_stmt 0 view .LVU752
.LBE2042:
.LBB2043:
.LBI2043:
	.loc 8 1082 5 is_stmt 1 view .LVU753
	.loc 8 1082 5 is_stmt 0 view .LVU754
.LBE2043:
.LBB2044:
.LBI2044:
	.loc 2 373 7 is_stmt 1 view .LVU755
.LBB2045:
.LBB2046:
.LBI2046:
	.loc 2 394 7 view .LVU756
	.loc 2 394 7 is_stmt 0 view .LVU757
.LBE2046:
.LBE2045:
.LBB2047:
.LBI2047:
	.loc 2 139 14 is_stmt 1 view .LVU758
.LBB2048:
.LBI2048:
	.loc 5 189 7 view .LVU759
.LBB2049:
.LBI2049:
	.loc 6 104 7 view .LVU760
	.loc 6 104 7 is_stmt 0 view .LVU761
.LBE2049:
.LBE2048:
.LBE2047:
.LBE2044:
.LBE2041:
.LBE2052:
.LBE2056:
.LBE2060:
.LBE2064:
.LBE2736:
	.loc 1 39 5 is_stmt 1 view .LVU762
.LBB2737:
	.loc 2 551 7 view .LVU763
.LBB2099:
	.loc 2 321 7 view .LVU764
.LBB2092:
	.loc 2 143 2 view .LVU765
.LBB2084:
	.loc 5 168 7 view .LVU766
.LBB2071:
	.loc 6 88 7 view .LVU767
	.loc 6 88 7 is_stmt 0 view .LVU768
.LBE2071:
.LBE2084:
.LBB2085:
	.loc 2 105 2 is_stmt 1 view .LVU769
	.loc 2 105 2 is_stmt 0 view .LVU770
.LBE2085:
.LBE2092:
.LBE2099:
.LBE2737:
	.loc 1 40 5 is_stmt 1 view .LVU771
.LBB2738:
	.loc 2 1107 7 view .LVU772
	.loc 2 1107 7 is_stmt 0 view .LVU773
.LBE2738:
.LBB2739:
	.loc 7 70 5 is_stmt 1 view .LVU774
	.loc 7 70 5 is_stmt 0 view .LVU775
.LBE2739:
.LBB2740:
.LBB2105:
# /usr/include/c++/16/bits/stl_vector.h:1109: 	ptrdiff_t __dif = this->_M_impl._M_finish - this->_M_impl._M_start;
	.loc 2 1109 34 view .LVU776
	mov	QWORD PTR 24[rsp], rax	# %sfp, _555
.LBE2105:
.LBE2740:
.LBB2741:
.LBB2120:
# /usr/include/c++/16/bits/vector.tcc:75:       if (this->capacity() < __n)
	.loc 7 75 7 discriminator 1 view .LVU777
	sub	rax, r15	# _59, SR.262
.LVL167:
	.loc 7 75 7 discriminator 1 view .LVU778
	mov	QWORD PTR 64[rsp], rax	# %sfp, _59
	jne	.L4	#,
	.loc 7 75 7 discriminator 1 view .LVU779
.LBE2120:
.LBE2741:
.LBB2742:
.LBB2100:
.LBB2093:
.LBB2086:
.LBB2078:
# /usr/include/c++/16/bits/stl_vector.h:106: 	: _M_start(), _M_finish(), _M_end_of_storage()
	.loc 2 106 29 view .LVU780
	mov	QWORD PTR 32[rsp], 0	# %sfp,
# /usr/include/c++/16/bits/stl_vector.h:106: 	: _M_start(), _M_finish(), _M_end_of_storage()
	.loc 2 106 4 view .LVU781
	mov	QWORD PTR 8[rsp], 0	# %sfp,
.LVL168:
	.loc 2 106 4 view .LVU782
	jmp	.L8	#
.LVL169:
.L195:
	.loc 2 106 4 view .LVU783
.LBE2078:
.LBE2086:
.LBE2093:
.LBE2100:
.LBE2742:
.LBB2743:
	.loc 5 189 7 is_stmt 1 view .LVU784
.LBB2486:
	.loc 6 104 7 view .LVU785
	.loc 6 104 7 is_stmt 0 view .LVU786
.LBE2486:
.LBE2743:
	.loc 1 72 5 is_stmt 1 view .LVU787
.LBB2744:
.LBB2508:
	.loc 2 988 7 view .LVU788
.LBB2491:
	.loc 3 1058 7 view .LVU789
	.loc 3 1058 7 is_stmt 0 view .LVU790
.LBE2491:
.LBE2508:
.LBB2509:
	.loc 2 1008 7 is_stmt 1 view .LVU791
.LBB2495:
	.loc 3 1058 7 view .LVU792
	.loc 3 1058 7 is_stmt 0 view .LVU793
.LBE2495:
.LBE2509:
	.loc 1 72 31 is_stmt 1 discriminator 5 view .LVU794
# src/opt7_5.cpp:72:     for (const SubParams& p : params) {
	.loc 1 72 31 is_stmt 0 discriminator 6 view .LVU795
	mov	rsi, QWORD PTR 16[rsp]	# params$_M_start, %sfp
.LBE2744:
.LBB2745:
.LBB2482:
.LBB2439:
.LBB2437:
.LBB2435:
.LBB2433:
# /usr/include/c++/16/bits/stl_vector.h:389: 	return __n != 0 ? _Tr::allocate(_M_impl, __n) : pointer();
	.loc 2 389 58 discriminator 3 view .LVU796
	mov	QWORD PTR 24[rsp], 0	# %sfp,
.LBE2433:
.LBE2435:
.LBE2437:
.LBE2439:
.LBE2482:
.LBE2745:
.LBB2746:
# src/opt7_5.cpp:72:     for (const SubParams& p : params) {
	.loc 1 72 31 discriminator 6 view .LVU797
	cmp	QWORD PTR 8[rsp], rsi	# %sfp, params$_M_start
	jne	.L26	#,
.LVL170:
	.loc 1 72 31 discriminator 6 view .LVU798
.LBE2746:
.LBB2747:
	.loc 1 79 23 is_stmt 1 discriminator 2 view .LVU799
	test	r14d, r14d	# _554
	jg	.L27	#,
.LVL171:
	.loc 1 79 23 is_stmt 0 discriminator 2 view .LVU800
.LBE2747:
.LBB2748:
	.loc 1 130 26 is_stmt 1 discriminator 2 view .LVU801
	cmp	QWORD PTR 40[rsp], 0	# %sfp,
	jne	.L28	#,
	jmp	.L29	#
.LVL172:
	.p2align 4,,10
	.p2align 3
.L95:
	.loc 1 130 26 is_stmt 0 discriminator 2 view .LVU802
.LBE2748:
.LBB2749:
.LBB2401:
.LBB2381:
.LBB2379:
.LBB2377:
.LBB2375:
# /usr/include/c++/16/bits/stl_vector.h:389: 	return __n != 0 ? _Tr::allocate(_M_impl, __n) : pointer();
	.loc 2 389 58 discriminator 3 view .LVU803
	xor	ebp, ebp	# _416
	jmp	.L23	#
.LVL173:
.L13:
	.loc 2 389 58 discriminator 3 view .LVU804
.LBE2375:
.LBE2377:
.LBE2379:
.LBE2381:
.LBE2401:
.LBE2749:
.LBB2750:
.LBB2265:
.LBB2258:
.LBB2253:
.LBB2155:
.LBI2155:
	.loc 7 565 7 is_stmt 1 view .LVU805
.LBB2156:
.LBB2157:
.LBI2157:
	.loc 2 2192 7 view .LVU806
.LBB2158:
.LBB2159:
.LBI2159:
	.loc 2 1107 7 view .LVU807
.LBB2160:
# /usr/include/c++/16/bits/stl_vector.h:1109: 	ptrdiff_t __dif = this->_M_impl._M_finish - this->_M_impl._M_start;
	.loc 2 1109 44 is_stmt 0 view .LVU808
	mov	rax, QWORD PTR 32[rsp]	# _526, %sfp
	sub	rax, QWORD PTR 16[rsp]	# _526, %sfp
	mov	QWORD PTR 8[rsp], rax	# %sfp, _526
.LVL174:
# /usr/include/c++/16/bits/stl_vector.h:1109: 	ptrdiff_t __dif = this->_M_impl._M_finish - this->_M_impl._M_start;
	.loc 2 1109 12 view .LVU809
	sar	rax, 4	# tmp410,
.LVL175:
	.loc 2 1109 12 view .LVU810
	mov	rdx, rax	# tmp410, tmp410
	movabs	rax, -6148914691236517205	# tmp412,
	imul	rdx, rax	# __dif_527, tmp412
.LVL176:
	.loc 2 1109 12 view .LVU811
.LBE2160:
.LBE2159:
# /usr/include/c++/16/bits/stl_vector.h:2194: 	if (max_size() - size() < __n)
	.loc 2 2194 2 discriminator 2 view .LVU812
	movabs	rax, 192153584101141162	# tmp413,
	cmp	rdx, rax	# __dif_527, tmp413
	je	.L175	#,
.LBB2161:
.LBB2162:
# /usr/include/c++/16/bits/stl_algobase.h:261:       if (__a < __b)
	.loc 10 261 7 view .LVU813
	test	rdx, rdx	# __dif_527
	mov	eax, 1	# tmp743,
	mov	DWORD PTR 136[rsp], ecx	# %sfp, _573
	cmovne	rax, rdx	# __dif_527,, _529
	mov	DWORD PTR 132[rsp], r10d	# %sfp, _20
	mov	DWORD PTR 128[rsp], esi	# %sfp, _16
.LBE2162:
.LBE2161:
# /usr/include/c++/16/bits/stl_vector.h:2197: 	const size_type __len = size() + (std::max)(size(), __n);
	.loc 2 2197 18 discriminator 3 view .LVU814
	add	rax, rdx	# __len_530, __dif_527
# /usr/include/c++/16/bits/stl_vector.h:2198: 	return (__len < size() || __len > max_size()) ? max_size() : __len;
	.loc 2 2198 25 discriminator 3 view .LVU815
	movabs	rdx, 192153584101141162	# tmp744,
	mov	DWORD PTR 104[rsp], r8d	# %sfp, _9
	cmp	rax, rdx	# __len_530, tmp744
	mov	DWORD PTR 96[rsp], r9d	# %sfp, _8
.LVL177:
.LBB2163:
.LBI2161:
	.loc 10 256 5 is_stmt 1 view .LVU816
	.loc 10 256 5 is_stmt 0 view .LVU817
.LBE2163:
.LBE2158:
.LBE2157:
.LBB2166:
.LBI2166:
	.loc 2 386 7 is_stmt 1 view .LVU818
.LBB2167:
.LBB2168:
.LBI2168:
	.loc 8 637 7 view .LVU819
.LBB2169:
.LBI2169:
	.loc 6 129 7 view .LVU820
	.loc 6 129 7 is_stmt 0 view .LVU821
.LBE2169:
.LBE2168:
.LBE2167:
.LBE2166:
.LBB2182:
.LBB2164:
# /usr/include/c++/16/bits/stl_vector.h:2198: 	return (__len < size() || __len > max_size()) ? max_size() : __len;
	.loc 2 2198 25 discriminator 3 view .LVU822
	cmova	rax, rdx	# __len_530,, __len_530, tmp744
	vmovss	DWORD PTR 140[rsp], xmm4	# %sfp, focus
	vmovss	DWORD PTR 124[rsp], xmm5	# %sfp, _15
.LBE2164:
.LBE2182:
.LBB2183:
.LBB2179:
.LBB2176:
.LBB2173:
.LBB2170:
# /usr/include/c++/16/bits/new_allocator.h:162: 	  return static_cast<_Tp*>(_GLIBCXX_OPERATOR_NEW(__n * sizeof(_Tp)));
	.loc 6 162 68 view .LVU823
	lea	rax, [rax+rax*2]	# _547,
	vmovss	DWORD PTR 120[rsp], xmm0	# %sfp, _14
	sal	rax, 4	# _547,
	vmovss	DWORD PTR 116[rsp], xmm1	# %sfp, _13
	mov	rdi, rax	#, tmp420
	mov	QWORD PTR 80[rsp], rax	# %sfp, tmp420
	vmovss	DWORD PTR 112[rsp], xmm2	# %sfp, _12
.LEHB5:
	call	"_Znwm"@PLT	#
.LVL178:
.LEHE5:
	.loc 6 162 68 view .LVU824
.LBE2170:
.LBE2173:
.LBE2176:
.LBE2179:
.LBE2183:
.LBB2184:
# /usr/include/c++/16/bits/vector.tcc:594: 	_Alloc_traits::construct(this->_M_impl,
	.loc 7 594 26 view .LVU825
	mov	rdx, QWORD PTR 8[rsp]	# _526, %sfp
.LBB2185:
.LBB2186:
.LBB2187:
# /usr/include/c++/16/bits/new_allocator.h:203: 	{ ::new((void *)__p) _Up(std::forward<_Args>(__args)...); }
	.loc 6 203 4 discriminator 1 view .LVU826
	mov	esi, DWORD PTR 128[rsp]	# _16, %sfp
.LBE2187:
.LBE2186:
.LBE2185:
.LBE2184:
.LBB2245:
.LBB2180:
.LBB2177:
.LBB2174:
.LBB2171:
# /usr/include/c++/16/bits/new_allocator.h:162: 	  return static_cast<_Tp*>(_GLIBCXX_OPERATOR_NEW(__n * sizeof(_Tp)));
	.loc 6 162 68 view .LVU827
	mov	QWORD PTR 64[rsp], rax	# %sfp, _548
.LVL179:
	.loc 6 162 68 view .LVU828
.LBE2171:
.LBE2174:
.LBE2177:
.LBE2180:
.LBE2245:
.LBB2246:
.LBB2199:
.LBI2199:
	.loc 2 1865 2 is_stmt 1 view .LVU829
	.loc 2 1865 2 is_stmt 0 view .LVU830
.LBE2199:
.LBB2200:
.LBI2185:
	.loc 8 705 2 is_stmt 1 view .LVU831
.LBB2193:
.LBI2186:
	.loc 6 201 2 view .LVU832
.LBE2193:
.LBE2200:
.LBE2246:
.LBB2247:
.LBB2181:
.LBB2178:
.LBB2175:
.LBB2172:
# /usr/include/c++/16/bits/new_allocator.h:162: 	  return static_cast<_Tp*>(_GLIBCXX_OPERATOR_NEW(__n * sizeof(_Tp)));
	.loc 6 162 68 is_stmt 0 view .LVU833
	mov	rdi, rax	# _548,
.LBE2172:
.LBE2175:
.LBE2178:
.LBE2181:
.LBE2247:
.LBB2248:
.LBB2201:
.LBB2194:
.LBB2188:
# /usr/include/c++/16/bits/new_allocator.h:203: 	{ ::new((void *)__p) _Up(std::forward<_Args>(__args)...); }
	.loc 6 203 4 discriminator 1 view .LVU834
	mov	r9d, DWORD PTR 96[rsp]	# _8, %sfp
	mov	r8d, DWORD PTR 104[rsp]	# _9, %sfp
.LBE2188:
.LBE2194:
.LBE2201:
.LBB2202:
.LBB2203:
.LBB2204:
# /usr/include/c++/16/bits/stl_uninitialized.h:1382:       if (__count > 0)
	.loc 12 1382 7 view .LVU835
	mov	r11d, 0	# tmp686,
.LBE2204:
.LBE2203:
.LBE2202:
.LBB2212:
.LBB2195:
.LBB2189:
# /usr/include/c++/16/bits/new_allocator.h:203: 	{ ::new((void *)__p) _Up(std::forward<_Args>(__args)...); }
	.loc 6 203 4 discriminator 1 view .LVU836
	vmovss	xmm2, DWORD PTR 112[rsp]	# _12, %sfp
	vmovss	xmm1, DWORD PTR 116[rsp]	# _13, %sfp
	mov	DWORD PTR 24[rax+rdx], esi	# _535->x_begin, _16
.LBE2189:
.LBE2195:
.LBE2212:
.LBB2213:
.LBB2208:
.LBB2205:
# /usr/include/c++/16/bits/stl_uninitialized.h:1382:       if (__count > 0)
	.loc 12 1382 7 view .LVU837
	test	rdx, rdx	# _526
.LBE2205:
.LBE2208:
.LBE2213:
.LBB2214:
.LBB2196:
.LBB2190:
# /usr/include/c++/16/bits/new_allocator.h:203: 	{ ::new((void *)__p) _Up(std::forward<_Args>(__args)...); }
	.loc 6 203 4 discriminator 1 view .LVU838
	vmovss	xmm0, DWORD PTR 120[rsp]	# _14, %sfp
	vmovss	xmm5, DWORD PTR 124[rsp]	# _15, %sfp
	mov	DWORD PTR [rax+rdx], r9d	# _535->sx, _8
	mov	r10d, DWORD PTR 132[rsp]	# _20, %sfp
	mov	rsi, QWORD PTR 56[rsp]	# _231, %sfp
	mov	DWORD PTR 4[rax+rdx], r8d	# _535->sy, _9
.LBE2190:
.LBE2196:
.LBE2214:
.LBB2215:
.LBB2209:
.LBB2206:
# /usr/include/c++/16/bits/stl_uninitialized.h:1382:       if (__count > 0)
	.loc 12 1382 7 view .LVU839
	mov	ecx, DWORD PTR 136[rsp]	# _573, %sfp
	vmovss	xmm4, DWORD PTR 140[rsp]	# focus, %sfp
.LBE2206:
.LBE2209:
.LBE2215:
.LBB2216:
.LBB2197:
.LBB2191:
# /usr/include/c++/16/bits/new_allocator.h:203: 	{ ::new((void *)__p) _Up(std::forward<_Args>(__args)...); }
	.loc 6 203 4 discriminator 1 view .LVU840
	mov	DWORD PTR 28[rax+rdx], ebp	# _535->x_end, _251
	mov	DWORD PTR 32[rax+rdx], r10d	# _535->y_begin, _20
	mov	DWORD PTR 36[rax+rdx], r13d	# _535->y_end, _252
	mov	QWORD PTR 40[rax+rdx], rsi	# MEM <const unsigned char *> [(struct SubParams *)_535 + 40B], _231
.LVL180:
	.loc 6 203 4 discriminator 1 view .LVU841
.LBE2191:
.LBE2197:
.LBE2216:
.LBB2217:
.LBI2202:
	.loc 12 1404 5 is_stmt 1 view .LVU842
.LBB2210:
.LBI2203:
	.loc 12 1377 5 view .LVU843
	.loc 12 1377 5 is_stmt 0 view .LVU844
.LBE2210:
.LBE2217:
.LBB2218:
.LBB2198:
.LBB2192:
# /usr/include/c++/16/bits/new_allocator.h:203: 	{ ::new((void *)__p) _Up(std::forward<_Args>(__args)...); }
	.loc 6 203 4 discriminator 1 view .LVU845
	vmovss	DWORD PTR 8[rax+rdx], xmm2	# _535->A, _12
	vmovss	DWORD PTR 12[rax+rdx], xmm1	# _535->B, _13
	vmovss	DWORD PTR 16[rax+rdx], xmm0	# _535->C, _14
	vmovss	DWORD PTR 20[rax+rdx], xmm5	# _535->D, _15
.LBE2192:
.LBE2198:
.LBE2218:
.LBB2219:
.LBB2211:
.LBB2207:
# /usr/include/c++/16/bits/stl_uninitialized.h:1382:       if (__count > 0)
	.loc 12 1382 7 view .LVU846
	je	.L15	#,
# /usr/include/c++/16/bits/stl_uninitialized.h:1394: 	  __builtin_memcpy(__result, __first, __count * sizeof(_Tp));
	.loc 12 1394 20 view .LVU847
	mov	rsi, QWORD PTR 16[rsp]	#, %sfp
	mov	DWORD PTR 56[rsp], ecx	# %sfp, _573
	vmovss	DWORD PTR 96[rsp], xmm4	# %sfp, focus
.LVL181:
	.loc 12 1394 20 view .LVU848
	call	"memcpy"@PLT	#
.LVL182:
	.loc 12 1394 20 view .LVU849
	vmovss	xmm4, DWORD PTR 96[rsp]	# focus, %sfp
	mov	ecx, DWORD PTR 56[rsp]	# _573, %sfp
	xor	r11d, r11d	# tmp686
.L15:
.LVL183:
	.loc 12 1394 20 view .LVU850
.LBE2207:
.LBE2211:
.LBE2219:
# /usr/include/c++/16/bits/vector.tcc:610: 	    ++__new_finish;
	.loc 7 610 6 view .LVU851
	mov	rsi, QWORD PTR 8[rsp]	# _526, %sfp
	mov	rax, QWORD PTR 64[rsp]	# _548, %sfp
	lea	rax, 48[rax+rsi]	# __new_finish,
.LVL184:
	.loc 7 610 6 view .LVU852
	mov	QWORD PTR 8[rsp], rax	# %sfp, __new_finish
.LVL185:
.LBB2220:
.LBI2220:
	.loc 2 1870 2 is_stmt 1 view .LVU853
.LBB2221:
# /usr/include/c++/16/bits/stl_vector.h:1872: 	  if (_M_storage)
	.loc 2 1872 4 is_stmt 0 view .LVU854
	mov	rax, QWORD PTR 16[rsp]	# params$_M_start, %sfp
.LVL186:
	.loc 2 1872 4 view .LVU855
	test	rax, rax	# params$_M_start
	je	.L16	#,
.LBE2221:
.LBE2220:
# /usr/include/c++/16/bits/vector.tcc:648: 	__guard._M_len = this->_M_impl._M_end_of_storage - __old_start;
	.loc 7 648 51 view .LVU856
	mov	rsi, QWORD PTR 32[rsp]	# params$_M_end_of_storage, %sfp
.LBB2243:
.LBB2241:
.LBB2222:
.LBB2223:
.LBB2224:
.LBB2225:
.LBB2226:
.LBB2227:
.LBB2228:
# /usr/include/c++/16/bits/new_allocator.h:183: 	_GLIBCXX_OPERATOR_DELETE(_GLIBCXX_SIZED_DEALLOC(__p, __n));
	.loc 6 183 59 view .LVU857
	mov	rdi, rax	#, params$_M_start
	mov	DWORD PTR 16[rsp], ecx	# %sfp, _573
.LVL187:
	.loc 6 183 59 view .LVU858
.LBE2228:
.LBE2227:
.LBE2226:
.LBE2225:
.LBE2224:
.LBE2223:
.LBI2222:
	.loc 2 394 7 is_stmt 1 view .LVU859
.LBB2238:
.LBB2236:
.LBI2224:
	.loc 2 394 7 view .LVU860
.LBB2234:
.LBB2232:
.LBI2226:
	.loc 8 688 7 view .LVU861
.LBB2230:
.LBI2227:
	.loc 6 167 7 view .LVU862
	vmovss	DWORD PTR 56[rsp], xmm4	# %sfp, focus
.LBE2230:
.LBE2232:
.LBE2234:
.LBE2236:
.LBE2238:
.LBE2222:
.LBE2241:
.LBE2243:
# /usr/include/c++/16/bits/vector.tcc:648: 	__guard._M_len = this->_M_impl._M_end_of_storage - __old_start;
	.loc 7 648 51 is_stmt 0 view .LVU863
	sub	rsi, rax	# params$_M_end_of_storage, params$_M_start
.LBB2244:
.LBB2242:
.LBB2240:
.LBB2239:
.LBB2237:
.LBB2235:
.LBB2233:
.LBB2231:
.LBB2229:
# /usr/include/c++/16/bits/new_allocator.h:183: 	_GLIBCXX_OPERATOR_DELETE(_GLIBCXX_SIZED_DEALLOC(__p, __n));
	.loc 6 183 59 view .LVU864
	call	"_ZdlPvm"@PLT	#
.LVL188:
	.loc 6 183 59 view .LVU865
	vmovss	xmm4, DWORD PTR 56[rsp]	# focus, %sfp
	mov	ecx, DWORD PTR 16[rsp]	# _573, %sfp
.LVL189:
	.loc 6 183 59 view .LVU866
	xor	r11d, r11d	# tmp686
.LVL190:
.L16:
	.loc 6 183 59 view .LVU867
.LBE2229:
.LBE2231:
.LBE2233:
.LBE2235:
.LBE2237:
.LBE2239:
.LBE2240:
.LBE2242:
.LBE2244:
.LBE2248:
# /usr/include/c++/16/bits/vector.tcc:655:       this->_M_impl._M_end_of_storage = __new_start + __len;
	.loc 7 655 53 view .LVU868
	mov	rsi, QWORD PTR 64[rsp]	# _548, %sfp
	mov	rax, QWORD PTR 80[rsp]	# tmp420, %sfp
	add	rax, rsi	# tmp420, _548
.LVL191:
# /usr/include/c++/16/bits/vector.tcc:653:       this->_M_impl._M_start = __new_start;
	.loc 7 653 30 view .LVU869
	mov	QWORD PTR 16[rsp], rsi	# %sfp, _548
# /usr/include/c++/16/bits/vector.tcc:655:       this->_M_impl._M_end_of_storage = __new_start + __len;
	.loc 7 655 53 view .LVU870
	mov	QWORD PTR 32[rsp], rax	# %sfp, tmp420
.LVL192:
	.loc 7 655 53 view .LVU871
	jmp	.L12	#
.LVL193:
.L37:
	.loc 7 655 53 view .LVU872
.LBE2156:
.LBE2155:
.LBE2253:
.LBE2258:
.LBE2265:
.LBE2750:
.LBB2751:
	.loc 1 88 31 is_stmt 1 discriminator 5 view .LVU873
# src/opt7_5.cpp:88:     for (const SubParams& p : params) {
	.loc 1 88 31 is_stmt 0 discriminator 6 view .LVU874
	mov	rcx, QWORD PTR 16[rsp]	# params$_M_start, %sfp
	cmp	QWORD PTR 8[rsp], rcx	# %sfp, params$_M_start
	jne	.L39	#,
	jmp	.L49	#
.LVL194:
.L196:
	.loc 1 88 31 discriminator 6 view .LVU875
.LBE2751:
.LBB2752:
	.loc 5 189 7 is_stmt 1 view .LVU876
.LBB2487:
	.loc 6 104 7 view .LVU877
	.loc 6 104 7 is_stmt 0 view .LVU878
.LBE2487:
.LBE2752:
	.loc 1 72 5 is_stmt 1 view .LVU879
.LBB2753:
.LBB2510:
	.loc 2 988 7 view .LVU880
.LBB2492:
	.loc 3 1058 7 view .LVU881
	.loc 3 1058 7 is_stmt 0 view .LVU882
.LBE2492:
.LBE2510:
.LBB2511:
	.loc 2 1008 7 is_stmt 1 view .LVU883
.LBB2496:
	.loc 3 1058 7 view .LVU884
	.loc 3 1058 7 is_stmt 0 view .LVU885
.LBE2496:
.LBE2511:
	.loc 1 72 31 is_stmt 1 discriminator 5 view .LVU886
# src/opt7_5.cpp:72:     for (const SubParams& p : params) {
	.loc 1 72 31 is_stmt 0 discriminator 6 view .LVU887
	mov	rsi, QWORD PTR 16[rsp]	# params$_M_start, %sfp
	cmp	QWORD PTR 8[rsp], rsi	# %sfp, params$_M_start
	jne	.L26	#,
.LVL195:
.L35:
	.loc 1 72 31 discriminator 6 view .LVU888
.LBE2753:
.LBB2754:
	.loc 1 79 23 is_stmt 1 discriminator 2 view .LVU889
	test	r14d, r14d	# _554
	jle	.L200	#,
.LVL196:
.L27:
	.loc 1 79 23 is_stmt 0 discriminator 2 view .LVU890
	test	ecx, ecx	# _573
	jg	.L38	#,
	jmp	.L28	#
.LVL197:
	.p2align 4,,10
	.p2align 3
.L91:
	.loc 1 79 23 discriminator 2 view .LVU891
.LBE2754:
.LBB2755:
# src/opt7_5.cpp:42:     for (SubApertureImage& sub : subapertures) {
	.loc 1 42 34 discriminator 6 view .LVU892
	mov	rax, QWORD PTR 8[rsp]	# __new_finish, %sfp
	mov	QWORD PTR 16[rsp], rax	# %sfp, __new_finish
	jmp	.L9	#
.LVL198:
.L41:
	.loc 1 42 34 discriminator 6 view .LVU893
.LBE2755:
.LBB2756:
	.loc 1 88 31 is_stmt 1 discriminator 5 view .LVU894
# src/opt7_5.cpp:88:     for (const SubParams& p : params) {
	.loc 1 88 31 is_stmt 0 discriminator 6 view .LVU895
	mov	rcx, QWORD PTR 16[rsp]	# params$_M_start, %sfp
	cmp	QWORD PTR 8[rsp], rcx	# %sfp, params$_M_start
	jne	.L39	#,
.LVL199:
	.loc 1 88 31 discriminator 6 view .LVU896
.LBE2756:
.LBB2757:
	.loc 1 130 26 is_stmt 1 discriminator 2 view .LVU897
	cmp	QWORD PTR 40[rsp], 0	# %sfp,
	jne	.L28	#,
.LBE2757:
	.loc 1 142 5 view .LVU898
.LBB2758:
	.loc 2 790 7 view .LVU899
.LVL200:
.LBB2695:
	.loc 2 307 7 view .LVU900
	.loc 2 307 7 is_stmt 0 view .LVU901
.LBE2695:
.LBB2696:
	.loc 8 1082 5 is_stmt 1 view .LVU902
	.loc 8 1082 5 is_stmt 0 view .LVU903
.LBE2696:
.LBB2697:
	.loc 2 373 7 is_stmt 1 view .LVU904
.LBB2694:
.LBB2690:
	.loc 2 394 7 view .LVU905
.LBB2689:
# /usr/include/c++/16/bits/stl_vector.h:397: 	if (__p)
	.loc 2 397 2 is_stmt 0 view .LVU906
	cmp	QWORD PTR 24[rsp], 0	# %sfp,
	jne	.L34	#,
	jmp	.L47	#
.LVL201:
	.p2align 4,,10
	.p2align 3
.L200:
	.loc 2 397 2 view .LVU907
.LBE2689:
.LBE2690:
.LBE2694:
.LBE2697:
.LBE2758:
.LBB2759:
	.loc 1 130 26 is_stmt 1 discriminator 2 view .LVU908
	cmp	QWORD PTR 40[rsp], 0	# %sfp,
	jne	.L28	#,
	jmp	.L34	#
.LVL202:
.L168:
	.loc 1 130 26 is_stmt 0 discriminator 2 view .LVU909
	jmp	.L169	#
.LVL203:
.L170:
	.loc 1 130 26 discriminator 2 view .LVU910
	jmp	.L171	#
.LVL204:
.L172:
	.loc 1 130 26 discriminator 2 view .LVU911
	jmp	.L173	#
.LVL205:
.L110:
	.loc 1 130 26 discriminator 2 view .LVU912
	mov	rbp, rax	# tmp675, tmp708
	vzeroupper
.LVL206:
	jmp	.L21	#
.LVL207:
.L198:
.LBB2673:
.LBB2666:
.LBB2654:
.LBB2651:
.LBB2648:
.LBB2642:
	.loc 1 130 26 discriminator 2 view .LVU913
	jmp	.L65	#
.LVL208:
.L197:
	.loc 1 130 26 discriminator 2 view .LVU914
.LBE2642:
.LBE2648:
.LBE2651:
.LBE2654:
.LBB2655:
.LBB2619:
.LBB2612:
.LBB2603:
	jmp	.L59	#
.LVL209:
.L166:
	.loc 1 130 26 discriminator 2 view .LVU915
	jmp	.L167	#
.LVL210:
	.loc 1 130 26 discriminator 2 view .LVU916
.LBE2603:
.LBE2612:
.LBE2619:
.LBE2655:
.LBE2666:
.LBE2673:
.LBE2759:
	.section	.gcc_except_table,"a",@progbits
.LLSDA4421:
	.byte	0xff
	.byte	0xff
	.byte	0x1
	.uleb128 .LLSDACSE4421-.LLSDACSB4421
.LLSDACSB4421:
	.uleb128 .LEHB0-.LFB4421
	.uleb128 .LEHE0-.LEHB0
	.uleb128 .L166-.LFB4421
	.uleb128 0
	.uleb128 .LEHB1-.LFB4421
	.uleb128 .LEHE1-.LEHB1
	.uleb128 .L110-.LFB4421
	.uleb128 0
	.uleb128 .LEHB2-.LFB4421
	.uleb128 .LEHE2-.LEHB2
	.uleb128 .L168-.LFB4421
	.uleb128 0
	.uleb128 .LEHB3-.LFB4421
	.uleb128 .LEHE3-.LEHB3
	.uleb128 .L170-.LFB4421
	.uleb128 0
	.uleb128 .LEHB4-.LFB4421
	.uleb128 .LEHE4-.LEHB4
	.uleb128 0
	.uleb128 0
	.uleb128 .LEHB5-.LFB4421
	.uleb128 .LEHE5-.LEHB5
	.uleb128 .L172-.LFB4421
	.uleb128 0
.LLSDACSE4421:
	.text
	.cfi_endproc
	.section	.text.unlikely
	.cfi_startproc
	.cfi_personality 0x9b,"DW.ref.__gxx_personality_v0"
	.cfi_lsda 0x1b,.LLSDAC4421
	.type	"_Z21refocus_shift_and_sumRSt6vectorI16SubApertureImageSaIS0_EEf.cold", @function
"_Z21refocus_shift_and_sumRSt6vectorI16SubApertureImageSaIS0_EEf.cold":
.LFSB4421:
.LBB2760:
.LBB2674:
.LBB2667:
.LBB2656:
.LBB2620:
.LBB2613:
.LBB2604:
.L178:
	.cfi_def_cfa_offset 208
	.cfi_offset 3, -56
	.cfi_offset 6, -48
	.cfi_offset 12, -40
	.cfi_offset 13, -32
	.cfi_offset 14, -24
	.cfi_offset 15, -16
.LBE2604:
.LBE2613:
.LBE2620:
.LBE2656:
.LBE2667:
.LBE2674:
.LBE2760:
.LBB2761:
.LBB2483:
.LBB2414:
# /usr/include/c++/16/bits/stl_vector.h:2206: 	  __throw_length_error(
	.loc 2 2206 24 view -0
	lea	rdi, .LC0[rip]	#,
.LEHB6:
	call	"_ZSt20__throw_length_errorPKc"@PLT	#
.LVL211:
.LEHE6:
.L101:
.L169:
	.loc 2 2206 24 view .LVU918
.LBE2414:
.LBE2483:
.LBE2761:
.LBB2762:
.LBB2763:
.LBB2764:
.LBB2765:
.LBB2766:
# /usr/include/c++/16/bits/stl_vector.h:397: 	if (__p)
	.loc 2 397 2 view .LVU919
	mov	rbp, rax	# tmp673, tmp725
	vzeroupper
.LVL212:
.L81:
	.loc 2 397 2 view .LVU920
.LBE2766:
.LBE2765:
.LBE2764:
.LBE2763:
.LBI2762:
	.loc 2 790 7 is_stmt 1 view .LVU921
.LBB2776:
.LBI2776:
	.loc 2 307 7 view .LVU922
	.loc 2 307 7 is_stmt 0 view .LVU923
.LBE2776:
.LBB2777:
.LBI2777:
	.loc 8 1082 5 is_stmt 1 view .LVU924
	.loc 8 1082 5 is_stmt 0 view .LVU925
.LBE2777:
.LBB2778:
.LBI2763:
	.loc 2 373 7 is_stmt 1 view .LVU926
.LBB2772:
.LBB2771:
.LBI2765:
	.loc 2 394 7 view .LVU927
.LBB2770:
# /usr/include/c++/16/bits/stl_vector.h:397: 	if (__p)
	.loc 2 397 2 is_stmt 0 view .LVU928
	test	r15, r15	# _308
	je	.L21	#,
.LVL213:
.LBB2767:
.LBI2767:
	.loc 8 688 7 is_stmt 1 view .LVU929
.LBB2768:
.LBI2768:
	.loc 6 167 7 view .LVU930
.LBB2769:
# /usr/include/c++/16/bits/new_allocator.h:183: 	_GLIBCXX_OPERATOR_DELETE(_GLIBCXX_SIZED_DEALLOC(__p, __n));
	.loc 6 183 59 is_stmt 0 view .LVU931
	mov	rsi, QWORD PTR 80[rsp]	#, %sfp
	mov	rdi, r15	#, _308
	call	"_ZdlPvm"@PLT	#
.LVL214:
	.loc 6 183 59 view .LVU932
.LBE2769:
.LBE2768:
.LBE2767:
.LBE2770:
.LBE2771:
.LBE2772:
.LBB2773:
.LBI2773:
	.loc 2 139 14 is_stmt 1 view .LVU933
.LBB2774:
.LBI2774:
	.loc 5 189 7 view .LVU934
.LBB2775:
.LBI2775:
	.loc 6 104 7 view .LVU935
.L21:
	.loc 6 104 7 is_stmt 0 view .LVU936
.LBE2775:
.LBE2774:
.LBE2773:
.LBE2778:
.LBE2762:
.LBB2779:
.LBI2779:
	.loc 2 790 7 is_stmt 1 view .LVU937
.LBB2780:
.LBI2780:
	.loc 2 307 7 view .LVU938
	.loc 2 307 7 is_stmt 0 view .LVU939
.LBE2780:
.LBB2781:
.LBI2781:
	.loc 8 1082 5 is_stmt 1 view .LVU940
	.loc 8 1082 5 is_stmt 0 view .LVU941
.LBE2781:
.LBB2782:
.LBI2782:
	.loc 2 373 7 is_stmt 1 view .LVU942
.LBB2783:
.LBB2784:
.LBI2784:
	.loc 2 394 7 view .LVU943
.LBB2785:
# /usr/include/c++/16/bits/stl_vector.h:397: 	if (__p)
	.loc 2 397 2 is_stmt 0 view .LVU944
	cmp	QWORD PTR 16[rsp], 0	# %sfp,
	je	.L85	#,
.LVL215:
.LBB2786:
.LBI2786:
	.loc 2 394 7 is_stmt 1 view .LVU945
.LBB2787:
.LBB2788:
.LBI2788:
	.loc 8 688 7 view .LVU946
.LBB2789:
.LBI2789:
	.loc 6 167 7 view .LVU947
.LBE2789:
.LBE2788:
.LBE2787:
.LBE2786:
.LBE2785:
.LBE2784:
# /usr/include/c++/16/bits/stl_vector.h:375: 	ptrdiff_t __n = _M_impl._M_end_of_storage - _M_impl._M_start;
	.loc 2 375 44 is_stmt 0 view .LVU948
	mov	rsi, QWORD PTR 32[rsp]	# params$_M_end_of_storage, %sfp
	mov	rdi, QWORD PTR 16[rsp]	# params$_M_start, %sfp
	sub	rsi, rdi	# params$_M_end_of_storage, params$_M_start
.LBB2797:
.LBB2795:
.LBB2794:
.LBB2793:
.LBB2792:
.LBB2791:
.LBB2790:
# /usr/include/c++/16/bits/new_allocator.h:183: 	_GLIBCXX_OPERATOR_DELETE(_GLIBCXX_SIZED_DEALLOC(__p, __n));
	.loc 6 183 59 view .LVU949
	call	"_ZdlPvm"@PLT	#
.LVL216:
	.loc 6 183 59 view .LVU950
.LBE2790:
.LBE2791:
.LBE2792:
.LBE2793:
.LBE2794:
.LBE2795:
.LBE2797:
.LBE2783:
.LBB2799:
.LBI2799:
	.loc 2 139 14 is_stmt 1 view .LVU951
.LBB2800:
.LBI2800:
	.loc 5 189 7 view .LVU952
.LBB2801:
.LBI2801:
	.loc 6 104 7 view .LVU953
	.loc 6 104 7 is_stmt 0 view .LVU954
	jmp	.L85	#
.LVL217:
.L102:
.L171:
	.loc 6 104 7 view .LVU955
.LBE2801:
.LBE2800:
.LBE2799:
.LBE2782:
.LBE2779:
.LBB2804:
.LBB2805:
.LBB2806:
.LBB2807:
.LBB2808:
# /usr/include/c++/16/bits/stl_vector.h:397: 	if (__p)
	.loc 2 397 2 view .LVU956
	mov	r12, rax	# tmp671, tmp724
.LVL218:
	.loc 2 397 2 view .LVU957
	vzeroupper
.LVL219:
.L79:
	.loc 2 397 2 view .LVU958
.LBE2808:
.LBE2807:
.LBE2806:
.LBE2805:
.LBI2804:
	.loc 2 790 7 is_stmt 1 view .LVU959
.LBB2818:
.LBI2818:
	.loc 2 307 7 view .LVU960
	.loc 2 307 7 is_stmt 0 view .LVU961
.LBE2818:
.LBB2819:
.LBI2819:
	.loc 8 1082 5 is_stmt 1 view .LVU962
	.loc 8 1082 5 is_stmt 0 view .LVU963
.LBE2819:
.LBB2820:
.LBI2805:
	.loc 2 373 7 is_stmt 1 view .LVU964
.LBB2814:
.LBB2813:
.LBI2807:
	.loc 2 394 7 view .LVU965
.LBB2812:
# /usr/include/c++/16/bits/stl_vector.h:397: 	if (__p)
	.loc 2 397 2 is_stmt 0 view .LVU966
	test	rbp, rbp	# _416
	je	.L80	#,
.LVL220:
.LBB2809:
.LBI2809:
	.loc 8 688 7 is_stmt 1 view .LVU967
.LBB2810:
.LBI2810:
	.loc 6 167 7 view .LVU968
.LBB2811:
# /usr/include/c++/16/bits/new_allocator.h:183: 	_GLIBCXX_OPERATOR_DELETE(_GLIBCXX_SIZED_DEALLOC(__p, __n));
	.loc 6 183 59 is_stmt 0 view .LVU969
	mov	rsi, QWORD PTR 56[rsp]	#, %sfp
	mov	rdi, rbp	#, _416
	call	"_ZdlPvm"@PLT	#
.LVL221:
.L80:
	.loc 6 183 59 view .LVU970
.LBE2811:
.LBE2810:
.LBE2809:
.LBE2812:
.LBE2813:
.LBE2814:
.LBB2815:
.LBI2815:
	.loc 2 139 14 is_stmt 1 view .LVU971
.LBB2816:
.LBI2816:
	.loc 5 189 7 view .LVU972
.LBB2817:
.LBI2817:
	.loc 6 104 7 view .LVU973
	.loc 6 104 7 is_stmt 0 view .LVU974
	mov	rbp, r12	# tmp673, tmp671
	jmp	.L81	#
.LVL222:
.L176:
	.loc 6 104 7 view .LVU975
.LBE2817:
.LBE2816:
.LBE2815:
.LBE2820:
.LBE2804:
.LBB2821:
.LBB2344:
.LBB2298:
# /usr/include/c++/16/bits/stl_vector.h:2206: 	  __throw_length_error(
	.loc 2 2206 24 view .LVU976
	lea	rdi, .LC0[rip]	#,
.LEHB7:
	call	"_ZSt20__throw_length_errorPKc"@PLT	#
.LVL223:
.LEHE7:
.L181:
	.loc 2 2206 24 view .LVU977
.LBE2298:
.LBE2344:
.LBE2821:
.LBB2822:
.LBB2675:
.LBB2668:
.LBB2657:
.LBB2621:
.LBB2614:
.LBB2605:
	.loc 4 21 13 is_stmt 1 view .LVU978
# include/utils.hpp:21:             throw std::out_of_range("Y coordinate out of bounds");
	.loc 4 21 65 is_stmt 0 view .LVU979
	mov	edi, 16	#,
	call	"__cxa_allocate_exception"@PLT	#
.LVL224:
# include/utils.hpp:21:             throw std::out_of_range("Y coordinate out of bounds");
	.loc 4 21 65 discriminator 1 view .LVU980
	lea	rsi, .LC9[rip]	#,
	mov	rdi, rax	#, _617
# include/utils.hpp:21:             throw std::out_of_range("Y coordinate out of bounds");
	.loc 4 21 65 view .LVU981
	mov	r12, rax	# _617,
.LVL225:
.LEHB8:
# include/utils.hpp:21:             throw std::out_of_range("Y coordinate out of bounds");
	.loc 4 21 65 discriminator 1 view .LVU982
	call	"_ZNSt12out_of_rangeC1EPKc"@PLT	#
.LVL226:
.LEHE8:
# include/utils.hpp:21:             throw std::out_of_range("Y coordinate out of bounds");
	.loc 4 21 65 discriminator 2 view .LVU983
	mov	rdx, QWORD PTR "_ZNSt12out_of_rangeD1Ev"@GOTPCREL[rip]	#,
	lea	rsi, "_ZTISt12out_of_range"[rip]	#,
	mov	rdi, r12	#, _617
.LEHB9:
	call	"__cxa_throw"@PLT	#
.LVL227:
.LEHE9:
.L179:
	.loc 4 21 65 discriminator 2 view .LVU984
.LBE2605:
.LBE2614:
.LBE2621:
.LBE2657:
.LBB2658:
.LBB2582:
.LBB2578:
.LBB2572:
	.loc 4 18 13 is_stmt 1 view .LVU985
# include/utils.hpp:18:             throw std::out_of_range("X coordinate out of bounds");
	.loc 4 18 65 is_stmt 0 view .LVU986
	mov	edi, 16	#,
	call	"__cxa_allocate_exception"@PLT	#
.LVL228:
# include/utils.hpp:18:             throw std::out_of_range("X coordinate out of bounds");
	.loc 4 18 65 discriminator 1 view .LVU987
	lea	rsi, .LC8[rip]	#,
	mov	rdi, rax	#, _606
# include/utils.hpp:18:             throw std::out_of_range("X coordinate out of bounds");
	.loc 4 18 65 view .LVU988
	mov	r12, rax	# _606,
.LVL229:
.LEHB10:
# include/utils.hpp:18:             throw std::out_of_range("X coordinate out of bounds");
	.loc 4 18 65 discriminator 1 view .LVU989
	call	"_ZNSt12out_of_rangeC1EPKc"@PLT	#
.LVL230:
.LEHE10:
# include/utils.hpp:18:             throw std::out_of_range("X coordinate out of bounds");
	.loc 4 18 65 discriminator 2 view .LVU990
	mov	rdx, QWORD PTR "_ZNSt12out_of_rangeD1Ev"@GOTPCREL[rip]	#,
	lea	rsi, "_ZTISt12out_of_range"[rip]	#,
	mov	rdi, r12	#, _606
.LEHB11:
	call	"__cxa_throw"@PLT	#
.LVL231:
.LEHE11:
.L111:
.L173:
	.loc 4 18 65 discriminator 2 view .LVU991
	mov	rbp, rax	# tmp675, tmp726
.LVL232:
	.loc 4 18 65 discriminator 2 view .LVU992
	vzeroupper
.LVL233:
	jmp	.L21	#
.LVL234:
.L105:
.L191:
	.loc 4 18 65 discriminator 2 view .LVU993
.LBE2572:
.LBE2578:
.LBE2582:
.LBE2658:
.LBB2659:
.LBB2622:
.LBB2615:
.LBB2606:
# include/utils.hpp:21:             throw std::out_of_range("Y coordinate out of bounds");
	.loc 4 21 65 discriminator 3 view .LVU994
	mov	rdi, r12	#, _617
	mov	r13, rax	# tmp718,
	vzeroupper
.LVL235:
	call	"__cxa_free_exception"@PLT	#
.LVL236:
	jmp	.L62	#
.LVL237:
.L177:
	.loc 4 21 65 discriminator 3 view .LVU995
.LBE2606:
.LBE2615:
.LBE2622:
.LBE2659:
.LBE2668:
.LBE2675:
.LBE2822:
.LBB2823:
.LBB2402:
.LBB2356:
# /usr/include/c++/16/bits/stl_vector.h:2206: 	  __throw_length_error(
	.loc 2 2206 24 view .LVU996
	lea	rdi, .LC0[rip]	#,
.LEHB12:
	call	"_ZSt20__throw_length_errorPKc"@PLT	#
.LVL238:
.LEHE12:
.L182:
	.loc 2 2206 24 view .LVU997
.LBE2356:
.LBE2402:
.LBE2823:
.LBB2824:
.LBB2676:
.LBB2669:
.LBB2660:
.LBB2652:
.LBB2649:
.LBB2643:
	.loc 4 21 13 is_stmt 1 view .LVU998
# include/utils.hpp:21:             throw std::out_of_range("Y coordinate out of bounds");
	.loc 4 21 65 is_stmt 0 view .LVU999
	mov	edi, 16	#,
	call	"__cxa_allocate_exception"@PLT	#
.LVL239:
# include/utils.hpp:21:             throw std::out_of_range("Y coordinate out of bounds");
	.loc 4 21 65 discriminator 1 view .LVU1000
	lea	rsi, .LC9[rip]	#,
	mov	rdi, rax	#, _626
# include/utils.hpp:21:             throw std::out_of_range("Y coordinate out of bounds");
	.loc 4 21 65 view .LVU1001
	mov	r12, rax	# _626,
.LVL240:
.LEHB13:
# include/utils.hpp:21:             throw std::out_of_range("Y coordinate out of bounds");
	.loc 4 21 65 discriminator 1 view .LVU1002
	call	"_ZNSt12out_of_rangeC1EPKc"@PLT	#
.LVL241:
.LEHE13:
# include/utils.hpp:21:             throw std::out_of_range("Y coordinate out of bounds");
	.loc 4 21 65 discriminator 2 view .LVU1003
	mov	rdx, QWORD PTR "_ZNSt12out_of_rangeD1Ev"@GOTPCREL[rip]	#,
	lea	rsi, "_ZTISt12out_of_range"[rip]	#,
	mov	rdi, r12	#, _626
.LEHB14:
	call	"__cxa_throw"@PLT	#
.LVL242:
.LEHE14:
.L174:
	.loc 4 21 65 discriminator 2 view .LVU1004
.LBE2643:
.LBE2649:
.LBE2652:
.LBE2660:
.LBE2669:
.LBE2676:
.LBE2824:
.LBB2825:
.LBB2065:
.LBB2061:
.LBB2057:
.LBB2053:
.LBB2050:
.LBB2027:
.LBB1983:
# /usr/include/c++/16/bits/stl_vector.h:2206: 	  __throw_length_error(
	.loc 2 2206 24 view .LVU1005
	lea	rdi, .LC0[rip]	#,
.LEHB15:
	call	"_ZSt20__throw_length_errorPKc"@PLT	#
.LVL243:
.LEHE15:
.L108:
	.loc 2 2206 24 view .LVU1006
	jmp	.L191	#
.LVL244:
.L99:
.L167:
	.loc 2 2206 24 view .LVU1007
.LBE1983:
.LBE2027:
.LBE2050:
.LBE2053:
.LBE2057:
.LBE2061:
.LBE2065:
.LBE2825:
.LBB2826:
.LBB2827:
.LBB2828:
.LBB2829:
# /usr/include/c++/16/bits/stl_vector.h:375: 	ptrdiff_t __n = _M_impl._M_end_of_storage - _M_impl._M_start;
	.loc 2 375 54 view .LVU1008
	mov	rbp, rax	# tmp678, tmp728
.LVL245:
	.loc 2 375 54 view .LVU1009
	vzeroupper
.LVL246:
.L85:
	.loc 2 375 54 view .LVU1010
.LBE2829:
.LBE2828:
.LBE2827:
.LBI2826:
	.loc 4 11 8 is_stmt 1 view .LVU1011
.LBB2846:
.LBI2827:
	.loc 2 790 7 view .LVU1012
.LBB2843:
.LBI2843:
	.loc 2 307 7 view .LVU1013
	.loc 2 307 7 is_stmt 0 view .LVU1014
.LBE2843:
.LBB2844:
.LBI2844:
	.loc 8 1082 5 is_stmt 1 view .LVU1015
	.loc 8 1082 5 is_stmt 0 view .LVU1016
.LBE2844:
.LBB2845:
.LBI2828:
	.loc 2 373 7 is_stmt 1 view .LVU1017
.LBB2839:
# /usr/include/c++/16/bits/stl_vector.h:375: 	ptrdiff_t __n = _M_impl._M_end_of_storage - _M_impl._M_start;
	.loc 2 375 54 is_stmt 0 view .LVU1018
	mov	rdi, QWORD PTR 16[rbx]	# _399, MEM[(struct _Vector_base *)output_214(D) + 16B]._M_impl.D.86136._M_start
.LVL247:
.LBB2830:
.LBI2830:
	.loc 2 394 7 is_stmt 1 view .LVU1019
.LBB2831:
# /usr/include/c++/16/bits/stl_vector.h:397: 	if (__p)
	.loc 2 397 2 is_stmt 0 view .LVU1020
	test	rdi, rdi	# _399
	je	.L86	#,
.LVL248:
.LBB2832:
.LBI2832:
	.loc 8 688 7 is_stmt 1 view .LVU1021
.LBB2833:
.LBI2833:
	.loc 6 167 7 view .LVU1022
.LBE2833:
.LBE2832:
.LBE2831:
.LBE2830:
# /usr/include/c++/16/bits/stl_vector.h:375: 	ptrdiff_t __n = _M_impl._M_end_of_storage - _M_impl._M_start;
	.loc 2 375 12 is_stmt 0 view .LVU1023
	mov	rsi, QWORD PTR 32[rbx]	# MEM[(struct _Vector_base *)output_214(D) + 16B]._M_impl.D.86136._M_end_of_storage, MEM[(struct _Vector_base *)output_214(D) + 16B]._M_impl.D.86136._M_end_of_storage
	sub	rsi, rdi	# __n_400, _399
.LBB2838:
.LBB2837:
.LBB2836:
.LBB2835:
.LBB2834:
# /usr/include/c++/16/bits/new_allocator.h:183: 	_GLIBCXX_OPERATOR_DELETE(_GLIBCXX_SIZED_DEALLOC(__p, __n));
	.loc 6 183 59 view .LVU1024
	call	"_ZdlPvm"@PLT	#
.LVL249:
.L86:
	.loc 6 183 59 view .LVU1025
.LBE2834:
.LBE2835:
.LBE2836:
.LBE2837:
.LBE2838:
.LBE2839:
.LBB2840:
.LBI2840:
	.loc 2 139 14 is_stmt 1 view .LVU1026
.LBB2841:
.LBI2841:
	.loc 5 189 7 view .LVU1027
.LBB2842:
.LBI2842:
	.loc 6 104 7 view .LVU1028
	.loc 6 104 7 is_stmt 0 view .LVU1029
	mov	rdi, rbp	#, tmp678
.LEHB16:
	call	"_Unwind_Resume"@PLT	#
.LVL250:
.LEHE16:
.L100:
	.loc 6 104 7 view .LVU1030
.LBE2842:
.LBE2841:
.LBE2840:
.LBE2845:
.LBE2846:
.LBE2826:
.LBB2847:
.LBB2803:
.LBB2802:
.LBB2798:
.LBB2796:
# /usr/include/c++/16/bits/stl_vector.h:397: 	if (__p)
	.loc 2 397 2 view .LVU1031
	mov	rbp, rax	# tmp675, tmp727
	vzeroupper
.LVL251:
	jmp	.L21	#
.LVL252:
.L180:
	.loc 2 397 2 view .LVU1032
.LBE2796:
.LBE2798:
.LBE2802:
.LBE2803:
.LBE2847:
.LBB2848:
.LBB2677:
.LBB2670:
.LBB2661:
.LBB2583:
.LBB2579:
.LBB2573:
	.loc 4 21 13 is_stmt 1 view .LVU1033
# include/utils.hpp:21:             throw std::out_of_range("Y coordinate out of bounds");
	.loc 4 21 65 is_stmt 0 view .LVU1034
	mov	edi, 16	#,
	call	"__cxa_allocate_exception"@PLT	#
.LVL253:
# include/utils.hpp:21:             throw std::out_of_range("Y coordinate out of bounds");
	.loc 4 21 65 discriminator 1 view .LVU1035
	lea	rsi, .LC9[rip]	#,
	mov	rdi, rax	#, _608
# include/utils.hpp:21:             throw std::out_of_range("Y coordinate out of bounds");
	.loc 4 21 65 view .LVU1036
	mov	r12, rax	# _608,
.LVL254:
.LEHB17:
# include/utils.hpp:21:             throw std::out_of_range("Y coordinate out of bounds");
	.loc 4 21 65 discriminator 1 view .LVU1037
	call	"_ZNSt12out_of_rangeC1EPKc"@PLT	#
.LVL255:
.LEHE17:
# include/utils.hpp:21:             throw std::out_of_range("Y coordinate out of bounds");
	.loc 4 21 65 discriminator 2 view .LVU1038
	mov	rdx, QWORD PTR "_ZNSt12out_of_rangeD1Ev"@GOTPCREL[rip]	#,
	lea	rsi, "_ZTISt12out_of_range"[rip]	#,
	mov	rdi, r12	#, _608
.LEHB18:
	call	"__cxa_throw"@PLT	#
.LVL256:
.LEHE18:
.L104:
	jmp	.L191	#
.LVL257:
.L59:
	.loc 4 21 65 discriminator 2 view .LVU1039
.LBE2573:
.LBE2579:
.LBE2583:
.LBE2661:
.LBB2662:
.LBB2623:
.LBB2616:
.LBB2607:
	.loc 4 18 13 is_stmt 1 view .LVU1040
# include/utils.hpp:18:             throw std::out_of_range("X coordinate out of bounds");
	.loc 4 18 65 is_stmt 0 view .LVU1041
	mov	edi, 16	#,
	call	"__cxa_allocate_exception"@PLT	#
.LVL258:
# include/utils.hpp:18:             throw std::out_of_range("X coordinate out of bounds");
	.loc 4 18 65 discriminator 1 view .LVU1042
	lea	rsi, .LC8[rip]	#,
	mov	rdi, rax	#, _615
# include/utils.hpp:18:             throw std::out_of_range("X coordinate out of bounds");
	.loc 4 18 65 view .LVU1043
	mov	r12, rax	# _615,
.LVL259:
.LEHB19:
# include/utils.hpp:18:             throw std::out_of_range("X coordinate out of bounds");
	.loc 4 18 65 discriminator 1 view .LVU1044
	call	"_ZNSt12out_of_rangeC1EPKc"@PLT	#
.LVL260:
.LEHE19:
# include/utils.hpp:18:             throw std::out_of_range("X coordinate out of bounds");
	.loc 4 18 65 discriminator 2 view .LVU1045
	mov	rdx, QWORD PTR "_ZNSt12out_of_rangeD1Ev"@GOTPCREL[rip]	#,
	lea	rsi, "_ZTISt12out_of_range"[rip]	#,
	mov	rdi, r12	#, _615
.LEHB20:
	call	"__cxa_throw"@PLT	#
.LVL261:
.LEHE20:
.L103:
	.loc 4 18 65 discriminator 2 view .LVU1046
.LBE2607:
.LBE2616:
.LBE2623:
.LBE2662:
.LBE2670:
.LBE2677:
.LBE2848:
.LBB2849:
.LBB2850:
.LBB2851:
.LBB2852:
.LBB2853:
# /usr/include/c++/16/bits/stl_vector.h:397: 	if (__p)
	.loc 2 397 2 view .LVU1047
	mov	r13, rax	# tmp604, tmp723
	vzeroupper
.LVL262:
.L62:
.LBE2853:
.LBE2852:
.LBE2851:
.LBE2850:
.LBI2849:
	.loc 2 790 7 is_stmt 1 view .LVU1048
.LBB2863:
.LBI2863:
	.loc 2 307 7 view .LVU1049
	.loc 2 307 7 is_stmt 0 view .LVU1050
.LBE2863:
.LBB2864:
.LBI2864:
	.loc 8 1082 5 is_stmt 1 view .LVU1051
	.loc 8 1082 5 is_stmt 0 view .LVU1052
.LBE2864:
.LBB2865:
.LBI2850:
	.loc 2 373 7 is_stmt 1 view .LVU1053
.LBB2859:
.LBB2858:
.LBI2852:
	.loc 2 394 7 view .LVU1054
.LBB2857:
# /usr/include/c++/16/bits/stl_vector.h:397: 	if (__p)
	.loc 2 397 2 is_stmt 0 view .LVU1055
	cmp	QWORD PTR 24[rsp], 0	# %sfp,
	je	.L78	#,
.LVL263:
.LBB2854:
.LBI2854:
	.loc 8 688 7 is_stmt 1 view .LVU1056
.LBB2855:
.LBI2855:
	.loc 6 167 7 view .LVU1057
.LBB2856:
# /usr/include/c++/16/bits/new_allocator.h:183: 	_GLIBCXX_OPERATOR_DELETE(_GLIBCXX_SIZED_DEALLOC(__p, __n));
	.loc 6 183 59 is_stmt 0 view .LVU1058
	mov	rsi, QWORD PTR 48[rsp]	#, %sfp
	mov	rdi, QWORD PTR 24[rsp]	#, %sfp
	call	"_ZdlPvm"@PLT	#
.LVL264:
.L78:
	.loc 6 183 59 view .LVU1059
.LBE2856:
.LBE2855:
.LBE2854:
.LBE2857:
.LBE2858:
.LBE2859:
.LBB2860:
.LBI2860:
	.loc 2 139 14 is_stmt 1 view .LVU1060
.LBB2861:
.LBI2861:
	.loc 5 189 7 view .LVU1061
.LBB2862:
.LBI2862:
	.loc 6 104 7 view .LVU1062
	.loc 6 104 7 is_stmt 0 view .LVU1063
	mov	r12, r13	# tmp671, tmp604
	jmp	.L79	#
.LVL265:
.L106:
	.loc 6 104 7 view .LVU1064
	jmp	.L191	#
.L107:
	jmp	.L191	#
.LVL266:
.L65:
	.loc 6 104 7 view .LVU1065
.LBE2862:
.LBE2861:
.LBE2860:
.LBE2865:
.LBE2849:
.LBB2866:
.LBB2678:
.LBB2671:
.LBB2663:
.LBB2653:
.LBB2650:
.LBB2644:
	.loc 4 18 13 is_stmt 1 view .LVU1066
# include/utils.hpp:18:             throw std::out_of_range("X coordinate out of bounds");
	.loc 4 18 65 is_stmt 0 view .LVU1067
	mov	edi, 16	#,
	call	"__cxa_allocate_exception"@PLT	#
.LVL267:
# include/utils.hpp:18:             throw std::out_of_range("X coordinate out of bounds");
	.loc 4 18 65 discriminator 1 view .LVU1068
	lea	rsi, .LC8[rip]	#,
	mov	rdi, rax	#, _624
# include/utils.hpp:18:             throw std::out_of_range("X coordinate out of bounds");
	.loc 4 18 65 view .LVU1069
	mov	r12, rax	# _624,
.LVL268:
.LEHB21:
# include/utils.hpp:18:             throw std::out_of_range("X coordinate out of bounds");
	.loc 4 18 65 discriminator 1 view .LVU1070
	call	"_ZNSt12out_of_rangeC1EPKc"@PLT	#
.LVL269:
.LEHE21:
# include/utils.hpp:18:             throw std::out_of_range("X coordinate out of bounds");
	.loc 4 18 65 discriminator 2 view .LVU1071
	mov	rdx, QWORD PTR "_ZNSt12out_of_rangeD1Ev"@GOTPCREL[rip]	#,
	lea	rsi, "_ZTISt12out_of_range"[rip]	#,
	mov	rdi, r12	#, _624
.LEHB22:
	call	"__cxa_throw"@PLT	#
.LVL270:
.LEHE22:
.L109:
	jmp	.L191	#
.LVL271:
.L175:
	.loc 4 18 65 discriminator 2 view .LVU1072
.LBE2644:
.LBE2650:
.LBE2653:
.LBE2663:
.LBE2671:
.LBE2678:
.LBE2866:
.LBB2867:
.LBB2266:
.LBB2259:
.LBB2254:
.LBB2251:
.LBB2250:
.LBB2249:
.LBB2165:
# /usr/include/c++/16/bits/stl_vector.h:2195: 	  __throw_length_error(__N(__s));
	.loc 2 2195 24 view .LVU1073
	lea	rdi, .LC2[rip]	#,
.LEHB23:
	call	"_ZSt20__throw_length_errorPKc"@PLT	#
.LVL272:
.LEHE23:
	.loc 2 2195 24 view .LVU1074
.LBE2165:
.LBE2249:
.LBE2250:
.LBE2251:
.LBE2254:
.LBE2259:
.LBE2266:
.LBE2867:
	.cfi_endproc
.LFE4421:
	.section	.gcc_except_table
.LLSDAC4421:
	.byte	0xff
	.byte	0xff
	.byte	0x1
	.uleb128 .LLSDACSEC4421-.LLSDACSBC4421
.LLSDACSBC4421:
	.uleb128 .LEHB6-.LCOLDB10
	.uleb128 .LEHE6-.LEHB6
	.uleb128 .L102-.LCOLDB10
	.uleb128 0
	.uleb128 .LEHB7-.LCOLDB10
	.uleb128 .LEHE7-.LEHB7
	.uleb128 .L100-.LCOLDB10
	.uleb128 0
	.uleb128 .LEHB8-.LCOLDB10
	.uleb128 .LEHE8-.LEHB8
	.uleb128 .L106-.LCOLDB10
	.uleb128 0
	.uleb128 .LEHB9-.LCOLDB10
	.uleb128 .LEHE9-.LEHB9
	.uleb128 .L103-.LCOLDB10
	.uleb128 0
	.uleb128 .LEHB10-.LCOLDB10
	.uleb128 .LEHE10-.LEHB10
	.uleb128 .L105-.LCOLDB10
	.uleb128 0
	.uleb128 .LEHB11-.LCOLDB10
	.uleb128 .LEHE11-.LEHB11
	.uleb128 .L103-.LCOLDB10
	.uleb128 0
	.uleb128 .LEHB12-.LCOLDB10
	.uleb128 .LEHE12-.LEHB12
	.uleb128 .L101-.LCOLDB10
	.uleb128 0
	.uleb128 .LEHB13-.LCOLDB10
	.uleb128 .LEHE13-.LEHB13
	.uleb128 .L108-.LCOLDB10
	.uleb128 0
	.uleb128 .LEHB14-.LCOLDB10
	.uleb128 .LEHE14-.LEHB14
	.uleb128 .L103-.LCOLDB10
	.uleb128 0
	.uleb128 .LEHB15-.LCOLDB10
	.uleb128 .LEHE15-.LEHB15
	.uleb128 .L99-.LCOLDB10
	.uleb128 0
	.uleb128 .LEHB16-.LCOLDB10
	.uleb128 .LEHE16-.LEHB16
	.uleb128 0
	.uleb128 0
	.uleb128 .LEHB17-.LCOLDB10
	.uleb128 .LEHE17-.LEHB17
	.uleb128 .L104-.LCOLDB10
	.uleb128 0
	.uleb128 .LEHB18-.LCOLDB10
	.uleb128 .LEHE18-.LEHB18
	.uleb128 .L103-.LCOLDB10
	.uleb128 0
	.uleb128 .LEHB19-.LCOLDB10
	.uleb128 .LEHE19-.LEHB19
	.uleb128 .L107-.LCOLDB10
	.uleb128 0
	.uleb128 .LEHB20-.LCOLDB10
	.uleb128 .LEHE20-.LEHB20
	.uleb128 .L103-.LCOLDB10
	.uleb128 0
	.uleb128 .LEHB21-.LCOLDB10
	.uleb128 .LEHE21-.LEHB21
	.uleb128 .L109-.LCOLDB10
	.uleb128 0
	.uleb128 .LEHB22-.LCOLDB10
	.uleb128 .LEHE22-.LEHB22
	.uleb128 .L103-.LCOLDB10
	.uleb128 0
	.uleb128 .LEHB23-.LCOLDB10
	.uleb128 .LEHE23-.LEHB23
	.uleb128 .L111-.LCOLDB10
	.uleb128 0
.LLSDACSEC4421:
	.section	.text.unlikely
	.text
	.size	"_Z21refocus_shift_and_sumRSt6vectorI16SubApertureImageSaIS0_EEf", .-"_Z21refocus_shift_and_sumRSt6vectorI16SubApertureImageSaIS0_EEf"
	.section	.text.unlikely
	.size	"_Z21refocus_shift_and_sumRSt6vectorI16SubApertureImageSaIS0_EEf.cold", .-"_Z21refocus_shift_and_sumRSt6vectorI16SubApertureImageSaIS0_EEf.cold"
.LCOLDE10:
	.text
.LHOTE10:
	.section	.rodata.cst4,"aM",@progbits,4
	.align 4
.LC1:
	.long	1065353216
	.align 4
.LC4:
	.long	1056964607
	.align 4
.LC6:
	.long	-2147483648
	.align 4
.LC7:
	.long	1132396544
	.text
.Letext0:
	.section	.text.unlikely
.Letext_cold0:
	.file 14 "/usr/include/c++/16/cwchar"
	.file 15 "/usr/include/x86_64-linux-gnu/c++/16/bits/c++config.h"
	.file 16 "/usr/include/c++/16/type_traits"
	.file 17 "/usr/include/c++/16/bits/exception_ptr.h"
	.file 18 "/usr/include/c++/16/clocale"
	.file 19 "/usr/include/c++/16/bits/stl_iterator_base_types.h"
	.file 20 "/usr/include/c++/16/debug/debug.h"
	.file 21 "/usr/include/c++/16/cstdlib"
	.file 22 "/usr/include/c++/16/cstdio"
	.file 23 "/usr/include/c++/16/cstddef"
	.file 24 "/usr/include/c++/16/cstdint"
	.file 25 "/usr/include/c++/16/ctime"
	.file 26 "/usr/include/c++/16/bits/chrono.h"
	.file 27 "/usr/include/c++/16/system_error"
	.file 28 "/usr/include/c++/16/bits/fs_fwd.h"
	.file 29 "/usr/include/c++/16/bits/fs_path.h"
	.file 30 "/usr/include/c++/16/cwctype"
	.file 31 "/usr/include/c++/16/bits/shared_ptr_base.h"
	.file 32 "/usr/include/c++/16/initializer_list"
	.file 33 "/usr/include/c++/16/bits/stdexcept_except.h"
	.file 34 "/usr/include/c++/16/bits/new_throw.h"
	.file 35 "/usr/include/c++/16/bits/stdexcept_throwfwd.h"
	.file 36 "/usr/include/c++/16/bits/ptr_traits.h"
	.file 37 "/usr/lib/gcc/x86_64-linux-gnu/16/include/stddef.h"
	.file 38 "<built-in>"
	.file 39 "/usr/include/x86_64-linux-gnu/bits/types/wint_t.h"
	.file 40 "/usr/include/x86_64-linux-gnu/bits/types/__mbstate_t.h"
	.file 41 "/usr/include/x86_64-linux-gnu/bits/types/mbstate_t.h"
	.file 42 "/usr/include/x86_64-linux-gnu/bits/types/__FILE.h"
	.file 43 "/usr/include/x86_64-linux-gnu/bits/types/struct_FILE.h"
	.file 44 "/usr/include/x86_64-linux-gnu/bits/types/FILE.h"
	.file 45 "/usr/include/wchar.h"
	.file 46 "/usr/include/x86_64-linux-gnu/bits/types/struct_tm.h"
	.file 47 "/usr/include/c++/16/ext/alloc_traits.h"
	.file 48 "/usr/include/c++/16/ext/type_traits.h"
	.file 49 "/usr/include/locale.h"
	.file 50 "/usr/include/x86_64-linux-gnu/bits/types.h"
	.file 51 "/usr/include/stdlib.h"
	.file 52 "/usr/include/x86_64-linux-gnu/bits/types/clock_t.h"
	.file 53 "/usr/include/x86_64-linux-gnu/bits/types/time_t.h"
	.file 54 "/usr/include/x86_64-linux-gnu/bits/stdint-intn.h"
	.file 55 "/usr/include/x86_64-linux-gnu/bits/types/struct_timespec.h"
	.file 56 "/usr/include/x86_64-linux-gnu/bits/stdlib-float.h"
	.file 57 "/usr/include/x86_64-linux-gnu/bits/stdlib-bsearch.h"
	.file 58 "/usr/include/x86_64-linux-gnu/bits/types/__fpos_t.h"
	.file 59 "/usr/include/stdio.h"
	.file 60 "/usr/include/x86_64-linux-gnu/bits/stdio.h"
	.file 61 "/usr/include/x86_64-linux-gnu/bits/stdint-uintn.h"
	.file 62 "/usr/include/x86_64-linux-gnu/bits/stdint-least.h"
	.file 63 "/usr/include/stdint.h"
	.file 64 "/usr/include/time.h"
	.file 65 "/usr/include/x86_64-linux-gnu/bits/wctype-wchar.h"
	.file 66 "/usr/include/wctype.h"
	.file 67 "/usr/include/math.h"
	.file 68 "/usr/include/c++/16/pstl/execution_defs.h"
	.file 69 "/usr/include/c++/16/new"
	.file 70 "/usr/include/c++/16/bits/memory_resource.h"
	.file 71 "/usr/include/c++/16/string_view"
	.file 72 "/usr/include/c++/16/ext/concurrence.h"
	.section	.data.rel.local.DW.ref.__gxx_personality_v0,"awG",@progbits,DW.ref.__gxx_personality_v0,comdat
	.align 8
	.type	"DW.ref.__gxx_personality_v0", @object
	.size	"DW.ref.__gxx_personality_v0", 8
"DW.ref.__gxx_personality_v0":
	.quad	"__gxx_personality_v0"
	.globl	"__gxx_personality_v0"
	.ident	"GCC: (Debian 16-20260425-1) 16.0.1 20260425 (prerelease) [gcc-16 r16-8812-gd9c07462a22]"
	.section	.note.GNU-stack,"",@progbits
