	.file	"opt7_5_abl_compiler_vec.cpp"
	.intel_syntax noprefix
# GNU C++17 (Debian 16-20260425-1) version 16.0.1 20260425 (prerelease) [gcc-16 r16-8812-gd9c07462a22] (x86_64-linux-gnu)
#	compiled by GNU C version 16.0.1 20260425 (prerelease) [gcc-16 r16-8812-gd9c07462a22], GMP version 6.3.0, MPFR version 4.2.2, MPC version 1.3.1, isl version isl-0.27-GMP

# GGC heuristics: --param ggc-min-expand=30 --param ggc-min-heapsize=4096
# options passed: -march=tigerlake -mmmx -mpopcnt -msse -msse2 -msse3 -mssse3 -msse4.1 -msse4.2 -mavx -mno-sse4a -mno-fma4 -mno-xop -mavx512f -mbmi -mbmi2 -maes -mpclmul -mavx512vl -mavx512bw -mavx512dq -mavx512cd -mavx512vbmi -mavx512ifma -mavx512vpopcntdq -mavx512vbmi2 -mgfni -mvpclmulqdq -mavx512vnni -mavx512bitalg -mno-avx512bf16 -mavx512vp2intersect -mno-3dnow -madx -mabm -mno-cldemote -mclflushopt -mclwb -mno-clzero -mcx16 -mno-enqcmd -mf16c -mfsgsbase -mfxsr -mno-hle -msahf -mno-lwp -mlzcnt -mmovbe -mmovdir64b -mmovdiri -mno-mwaitx -mno-pconfig -mpku -mprfchw -mno-ptwrite -mrdpid -mrdrnd -mrdseed -mno-rtm -mno-serialize -mno-sgx -msha -mshstk -mno-tbm -mno-tsxldtrk -mvaes -mno-waitpkg -mno-wbnoinvd -mxsave -mxsavec -mxsaveopt -mxsaves -mno-amx-tile -mno-amx-int8 -mno-amx-bf16 -mno-uintr -mno-hreset -mno-kl -mno-widekl -mno-avxvnni -mno-avx512fp16 -mno-avxifma -mno-avxvnniint8 -mno-avxneconvert -mno-cmpccxadd -mno-amx-fp16 -mno-prefetchi -mno-raoint -mno-amx-complex -mno-avxvnniint16 -mno-sm3 -mno-sha512 -mno-sm4 -mno-apxf -mno-usermsr -mno-avx10.1 -mno-avx10.2 -mno-amx-avx512 -mno-amx-tf32 -mno-amx-fp8 -mno-movrs -mno-amx-movrs -mno-avx512bmm --param=l1-cache-size=48 --param=l1-cache-line-size=64 --param=l2-cache-size=8192 -mtune=tigerlake -mavx2 -mfma -masm=intel -g -O3 -std=c++17 -ffast-math -fasynchronous-unwind-tables
	.text
.Ltext0:
	.file 0 "/home/team15/tomasz-worktree-dir/cpp_refocus" "src/avx_analysis_code_ablations/opt7_5_abl_compiler_vec.cpp"
	.section	.rodata.str1.8,"aMS",@progbits,1
	.align 8
.LC0:
	.string	"cannot create std::vector larger than max_size()"
	.section	.rodata.str1.1,"aMS",@progbits,1
.LC2:
	.string	"vector::_M_realloc_append"
	.section	.text.unlikely,"ax",@progbits
.LCOLDB7:
	.text
.LHOTB7:
	.p2align 4
	.section	.text.unlikely
.Ltext_cold0:
	.text
	.globl	"_Z21refocus_shift_and_sumRSt6vectorI16SubApertureImageSaIS0_EEf"
	.type	"_Z21refocus_shift_and_sumRSt6vectorI16SubApertureImageSaIS0_EEf", @function
"_Z21refocus_shift_and_sumRSt6vectorI16SubApertureImageSaIS0_EEf":
.LVL0:
.LFB4421:
	.file 1 "src/avx_analysis_code_ablations/opt7_5_abl_compiler_vec.cpp"
	.loc 1 24 91 view -0
	.cfi_startproc
	.cfi_personality 0x9b,"DW.ref.__gxx_personality_v0"
	.cfi_lsda 0x1b,.LLSDA4421
	.loc 1 24 91 is_stmt 0 view .LVU1
	push	r15	#
	.cfi_def_cfa_offset 16
	.cfi_offset 15, -16
	vmovaps	xmm4, xmm0	# focus, focus
.LBB1815:
.LBB1816:
.LBB1817:
.LBB1818:
.LBB1819:
.LBB1820:
# /usr/include/c++/16/bits/stl_vector.h:106: 	: _M_start(), _M_finish(), _M_end_of_storage()
	.file 2 "/usr/include/c++/16/bits/stl_vector.h"
	.loc 2 106 4 view .LVU2
	vpxor	xmm1, xmm1, xmm1	# tmp362
.LBE1820:
.LBE1819:
.LBE1818:
.LBE1817:
.LBE1816:
.LBE1815:
# src/avx_analysis_code_ablations/opt7_5_abl_compiler_vec.cpp:24: ImageData refocus_shift_and_sum(std::vector<SubApertureImage>& subapertures, float focus) {
	.loc 1 24 91 view .LVU3
	push	r14	#
	.cfi_def_cfa_offset 24
	.cfi_offset 14, -24
	push	r13	#
	.cfi_def_cfa_offset 32
	.cfi_offset 13, -32
	push	r12	#
	.cfi_def_cfa_offset 40
	.cfi_offset 12, -40
	push	rbp	#
	.cfi_def_cfa_offset 48
	.cfi_offset 6, -48
	mov	rbp, rsi	# subapertures, subapertures
	push	rbx	#
	.cfi_def_cfa_offset 56
	.cfi_offset 3, -56
	mov	rbx, rdi	# <retval>, .result_ptr
	.loc 1 25 5 is_stmt 1 view .LVU4
.LVL1:
.LBB1832:
.LBI1832:
	.loc 2 1334 7 view .LVU5
	.loc 2 1336 2 discriminator 2 view .LVU6
.LBB1833:
.LBI1833:
	.loc 2 988 7 view .LVU7
.LBB1834:
.LBI1834:
	.file 3 "/usr/include/c++/16/bits/stl_iterator.h"
	.loc 3 1058 7 view .LVU8
.LBE1834:
.LBE1833:
.LBE1832:
# src/avx_analysis_code_ablations/opt7_5_abl_compiler_vec.cpp:24: ImageData refocus_shift_and_sum(std::vector<SubApertureImage>& subapertures, float focus) {
	.loc 1 24 91 is_stmt 0 view .LVU9
	sub	rsp, 168	#,
	.cfi_def_cfa_offset 224
.LBB1838:
.LBB1837:
.LBB1836:
.LBB1835:
# /usr/include/c++/16/bits/stl_iterator.h:1059:       : _M_current(__i) { }
	.loc 3 1059 9 view .LVU10
	mov	rcx, QWORD PTR [rsi]	# SR.264, MEM[(struct SubApertureImage * const &)subapertures_218(D)]
.LVL2:
	.loc 3 1059 9 view .LVU11
.LBE1835:
.LBE1836:
.LBE1837:
.LBE1838:
# src/avx_analysis_code_ablations/opt7_5_abl_compiler_vec.cpp:25:     const size_t width = subapertures.front().data.width;
	.loc 1 25 52 discriminator 1 view .LVU12
	vmovdqu	xmm0, XMMWORD PTR [rcx]	# MEM <vector(2) long unsigned int> [(long unsigned int *)_302], MEM <vector(2) long unsigned int> [(long unsigned int *)_302]
.LVL3:
.LBB1839:
.LBB1830:
.LBB1828:
.LBB1826:
.LBB1822:
.LBB1821:
# /usr/include/c++/16/bits/stl_vector.h:106: 	: _M_start(), _M_finish(), _M_end_of_storage()
	.loc 2 106 29 view .LVU13
	mov	QWORD PTR 32[rdi], 0	# MEM[(struct _Vector_impl_data *)output_221(D) + 16B]._M_end_of_storage,
# /usr/include/c++/16/bits/stl_vector.h:106: 	: _M_start(), _M_finish(), _M_end_of_storage()
	.loc 2 106 4 view .LVU14
	vmovdqu	XMMWORD PTR 16[rdi], xmm1	# MEM <vector(2) long unsigned int> [(unsigned char * *)output_221(D) + 16B], tmp362
	vmovq	rax, xmm0	# _325, MEM <vector(2) long unsigned int> [(long unsigned int *)_302]
	vpextrq	rsi, xmm0, 1	# _434, MEM <vector(2) long unsigned int> [(long unsigned int *)_302]
.LVL4:
	.loc 2 106 4 view .LVU15
.LBE1821:
.LBE1822:
.LBE1826:
.LBE1828:
.LBE1830:
.LBE1839:
# src/avx_analysis_code_ablations/opt7_5_abl_compiler_vec.cpp:31:     output.width = width;
	.loc 1 31 18 view .LVU16
	vmovdqu	XMMWORD PTR [rdi], xmm0	# MEM <vector(2) long unsigned int> [(long unsigned int *)output_221(D)], MEM <vector(2) long unsigned int> [(long unsigned int *)_302]
# src/avx_analysis_code_ablations/opt7_5_abl_compiler_vec.cpp:33:     output.data.assign(width * height * 3, 0);
	.loc 1 33 30 view .LVU17
	mov	rdx, rax	# _847, _325
	mov	QWORD PTR 64[rsp], rsi	# %sfp, _434
	imul	rdx, rsi	# _847, _434
	vmovq	QWORD PTR 40[rsp], xmm0	# %sfp, _325
.LVL5:
	.loc 1 26 5 is_stmt 1 view .LVU18
.LBB1840:
.LBI1840:
	.loc 2 1334 7 view .LVU19
	.loc 2 1336 2 discriminator 2 view .LVU20
.LBB1841:
.LBI1841:
	.loc 2 988 7 view .LVU21
.LBB1842:
.LBI1842:
	.loc 3 1058 7 view .LVU22
	.loc 3 1058 7 is_stmt 0 view .LVU23
.LBE1842:
.LBE1841:
.LBE1840:
	.loc 1 27 5 is_stmt 1 view .LVU24
	.loc 1 28 5 view .LVU25
	.loc 1 30 5 view .LVU26
.LBB1843:
.LBI1815:
	.file 4 "include/utils.hpp"
	.loc 4 11 8 view .LVU27
.LBB1831:
.LBI1816:
	.loc 2 551 7 view .LVU28
.LBB1829:
.LBI1817:
	.loc 2 321 7 view .LVU29
.LBB1827:
.LBI1818:
	.loc 2 143 2 view .LVU30
.LBB1823:
.LBI1823:
	.file 5 "/usr/include/c++/16/bits/allocator.h"
	.loc 5 168 7 view .LVU31
.LBB1824:
.LBI1824:
	.file 6 "/usr/include/c++/16/bits/new_allocator.h"
	.loc 6 88 7 view .LVU32
	.loc 6 88 7 is_stmt 0 view .LVU33
.LBE1824:
.LBE1823:
.LBB1825:
.LBI1819:
	.loc 2 105 2 is_stmt 1 view .LVU34
	.loc 2 105 2 is_stmt 0 view .LVU35
.LBE1825:
.LBE1827:
.LBE1829:
.LBE1831:
.LBE1843:
	.loc 1 31 5 is_stmt 1 view .LVU36
	.loc 1 32 5 view .LVU37
	.loc 1 33 5 view .LVU38
# src/avx_analysis_code_ablations/opt7_5_abl_compiler_vec.cpp:33:     output.data.assign(width * height * 3, 0);
	.loc 1 33 23 is_stmt 0 view .LVU39
	lea	rdi, [rdx+rdx]	# tmp576,
.LVL6:
# src/avx_analysis_code_ablations/opt7_5_abl_compiler_vec.cpp:33:     output.data.assign(width * height * 3, 0);
	.loc 1 33 30 view .LVU40
	mov	QWORD PTR 48[rsp], rdx	# %sfp, _847
# src/avx_analysis_code_ablations/opt7_5_abl_compiler_vec.cpp:33:     output.data.assign(width * height * 3, 0);
	.loc 1 33 23 view .LVU41
	mov	QWORD PTR 104[rsp], rdi	# %sfp, tmp576
	add	rdi, rdx	# _5, _847
	mov	QWORD PTR 56[rsp], rdi	# %sfp, _5
.LVL7:
.LBB1844:
.LBI1844:
	.loc 2 865 7 is_stmt 1 view .LVU42
.LBB1845:
.LBI1845:
	.file 7 "/usr/include/c++/16/bits/vector.tcc"
	.loc 7 274 5 view .LVU43
.LBB1846:
.LBB1847:
# /usr/include/c++/16/bits/vector.tcc:278:       if (__n > capacity())
	.loc 7 278 7 is_stmt 0 discriminator 1 view .LVU44
	test	rdx, rdx	# _847
	jne	.L2	#,
.LVL8:
	.loc 7 278 7 discriminator 1 view .LVU45
.LBE1847:
.LBE1846:
.LBE1845:
.LBE1844:
	.loc 1 35 5 is_stmt 1 view .LVU46
.LBB1933:
.LBI1933:
	.loc 2 551 7 view .LVU47
.LBB1934:
.LBI1934:
	.loc 2 321 7 view .LVU48
.LBB1935:
.LBI1935:
	.loc 2 143 2 view .LVU49
.LBB1936:
.LBI1936:
	.loc 5 168 7 view .LVU50
.LBB1937:
.LBI1937:
	.loc 6 88 7 view .LVU51
	.loc 6 88 7 is_stmt 0 view .LVU52
.LBE1937:
.LBE1936:
.LBB1939:
.LBI1939:
	.loc 2 105 2 is_stmt 1 view .LVU53
	.loc 2 105 2 is_stmt 0 view .LVU54
.LBE1939:
.LBE1935:
.LBE1934:
.LBE1933:
	.loc 1 36 5 is_stmt 1 view .LVU55
.LBB1964:
.LBI1964:
	.loc 2 1107 7 view .LVU56
.LBB1965:
# /usr/include/c++/16/bits/stl_vector.h:1109: 	ptrdiff_t __dif = this->_M_impl._M_finish - this->_M_impl._M_start;
	.loc 2 1109 34 is_stmt 0 view .LVU57
	mov	rdx, QWORD PTR 8[rbp]	# _67, MEM[(const struct vector *)subapertures_218(D)].D.101674._M_impl.D.101021._M_finish
.LVL9:
	.loc 2 1109 34 view .LVU58
.LBE1965:
.LBE1964:
.LBB1969:
.LBI1969:
	.loc 7 70 5 is_stmt 1 view .LVU59
.LBB1970:
# /usr/include/c++/16/bits/vector.tcc:75:       if (this->capacity() < __n)
	.loc 7 75 7 is_stmt 0 discriminator 1 view .LVU60
	mov	rdi, rdx	# prephitmp_751, _67
.LBE1970:
.LBE1969:
.LBB1984:
.LBB1966:
# /usr/include/c++/16/bits/stl_vector.h:1109: 	ptrdiff_t __dif = this->_M_impl._M_finish - this->_M_impl._M_start;
	.loc 2 1109 34 view .LVU61
	mov	QWORD PTR 16[rsp], rdx	# %sfp, _67
.LBE1966:
.LBE1984:
.LBB1985:
.LBB1981:
# /usr/include/c++/16/bits/vector.tcc:75:       if (this->capacity() < __n)
	.loc 7 75 7 discriminator 1 view .LVU62
	sub	rdi, rcx	# prephitmp_751, SR.264
.LVL10:
	.loc 7 75 7 discriminator 1 view .LVU63
	mov	QWORD PTR 80[rsp], rdi	# %sfp, prephitmp_751
	je	.L151	#,
.LVL11:
.L4:
.LBB1971:
.LBB1972:
.LBB1973:
.LBB1974:
.LBB1975:
.LBB1976:
# /usr/include/c++/16/bits/new_allocator.h:162: 	  return static_cast<_Tp*>(_GLIBCXX_OPERATOR_NEW(__n * sizeof(_Tp)));
	.loc 6 162 68 view .LVU64
	mov	r14, QWORD PTR 80[rsp]	# prephitmp_751, %sfp
	mov	QWORD PTR 8[rsp], rcx	# %sfp, SR.264
.LVL12:
	.loc 6 162 68 view .LVU65
.LBE1976:
.LBE1975:
.LBE1974:
.LBE1973:
.LBI1972:
	.loc 2 386 7 is_stmt 1 view .LVU66
.LBB1980:
.LBB1979:
.LBI1974:
	.file 8 "/usr/include/c++/16/bits/alloc_traits.h"
	.loc 8 637 7 view .LVU67
.LBB1978:
.LBI1975:
	.loc 6 129 7 view .LVU68
	.loc 6 129 7 is_stmt 0 view .LVU69
	vmovss	DWORD PTR 88[rsp], xmm4	# %sfp, focus
.LBB1977:
# /usr/include/c++/16/bits/new_allocator.h:162: 	  return static_cast<_Tp*>(_GLIBCXX_OPERATOR_NEW(__n * sizeof(_Tp)));
	.loc 6 162 68 view .LVU70
	mov	rdi, r14	#, prephitmp_751
.LEHB0:
	call	"_Znwm"@PLT	#
.LVL13:
.LEHE0:
	mov	rbp, rax	# __new_finish, __new_finish
.LVL14:
	.loc 6 162 68 view .LVU71
.LBE1977:
.LBE1978:
.LBE1979:
.LBE1980:
.LBE1972:
# /usr/include/c++/16/bits/vector.tcc:101: 	  this->_M_impl._M_end_of_storage = this->_M_impl._M_start + __n;
	.loc 7 101 61 view .LVU72
	lea	rax, [rax+r14]	# params$_M_end_of_storage,
.LVL15:
	.loc 7 101 61 view .LVU73
	mov	rcx, QWORD PTR 8[rsp]	# SR.264, %sfp
	vmovss	xmm4, DWORD PTR 88[rsp]	# focus, %sfp
	mov	QWORD PTR 32[rsp], rax	# %sfp, params$_M_end_of_storage
.LVL16:
.L8:
	.loc 7 101 61 view .LVU74
.LBE1971:
.LBE1981:
.LBE1985:
# src/avx_analysis_code_ablations/opt7_5_abl_compiler_vec.cpp:27:     const int w = static_cast<int>(width);
	.loc 1 27 15 view .LVU75
	mov	r15d, DWORD PTR 40[rsp]	# _181, %sfp
# src/avx_analysis_code_ablations/opt7_5_abl_compiler_vec.cpp:28:     const int h = static_cast<int>(height);
	.loc 1 28 15 view .LVU76
	mov	r12d, DWORD PTR 64[rsp]	# _943, %sfp
.LVL17:
	.loc 1 38 5 is_stmt 1 view .LVU77
.LBB1986:
.LBB1987:
.LBI1987:
	.loc 2 988 7 view .LVU78
.LBB1988:
.LBI1988:
	.loc 3 1058 7 view .LVU79
	.loc 3 1058 7 is_stmt 0 view .LVU80
.LBE1988:
.LBE1987:
.LBB1990:
.LBI1990:
	.loc 2 1008 7 is_stmt 1 view .LVU81
.LBB1991:
.LBI1991:
	.loc 3 1058 7 view .LVU82
	.loc 3 1058 7 is_stmt 0 view .LVU83
.LBE1991:
.LBE1990:
	.loc 1 38 34 is_stmt 1 discriminator 5 view .LVU84
# src/avx_analysis_code_ablations/opt7_5_abl_compiler_vec.cpp:38:     for (SubApertureImage& sub : subapertures) {
	.loc 1 38 34 is_stmt 0 discriminator 6 view .LVU85
	cmp	QWORD PTR 16[rsp], rcx	# %sfp, SR.264
	je	.L76	#,
.LVL18:
.L5:
	.loc 1 38 34 discriminator 6 view .LVU86
.LBE1986:
.LBB2130:
.LBB1958:
.LBB1952:
.LBB1945:
.LBB1940:
# /usr/include/c++/16/bits/stl_vector.h:106: 	: _M_start(), _M_finish(), _M_end_of_storage()
	.loc 2 106 29 view .LVU87
	mov	QWORD PTR 8[rsp], rbp	# %sfp, __new_finish
.LBE1940:
.LBE1945:
.LBE1952:
.LBE1958:
.LBE2130:
.LBB2131:
.LBB1993:
# src/avx_analysis_code_ablations/opt7_5_abl_compiler_vec.cpp:54:         p.x_begin = std::max(0, -p.sx);
	.loc 1 54 33 view .LVU88
	xor	r11d, r11d	# tmp578
	.p2align 4,,10
	.p2align 3
.L17:
.LVL19:
	.loc 1 39 9 is_stmt 1 view .LVU89
# src/avx_analysis_code_ablations/opt7_5_abl_compiler_vec.cpp:39:         const float shift_x = focus * sub.u;
	.loc 1 39 21 is_stmt 0 view .LVU90
	vmulss	xmm3, xmm4, DWORD PTR 40[rcx]	# shift_x, focus, MEM[(float *)SR.264_572 + 40B]
.LVL20:
	.loc 1 40 9 is_stmt 1 view .LVU91
# src/avx_analysis_code_ablations/opt7_5_abl_compiler_vec.cpp:55:         p.x_end   = std::min(w, w - p.sx - 1);
	.loc 1 55 35 is_stmt 0 view .LVU92
	mov	r13d, r15d	# _19, _181
# src/avx_analysis_code_ablations/opt7_5_abl_compiler_vec.cpp:57:         p.y_end   = std::min(h, h - p.sy - 1);
	.loc 1 57 35 view .LVU93
	mov	r14d, r12d	# _23, _943
# src/avx_analysis_code_ablations/opt7_5_abl_compiler_vec.cpp:40:         const float shift_y = focus * sub.v;
	.loc 1 40 21 view .LVU94
	vmulss	xmm2, xmm4, DWORD PTR 44[rcx]	# shift_y, focus, MEM[(float *)SR.264_572 + 44B]
.LVL21:
	.loc 1 42 9 is_stmt 1 view .LVU95
	.loc 1 43 9 view .LVU96
.LBB1994:
.LBI1994:
	.file 9 "/usr/include/c++/16/cmath"
	.loc 9 264 3 view .LVU97
.LBB1995:
	.loc 9 265 5 view .LVU98
# /usr/include/c++/16/cmath:265:   { return __builtin_floorf(__x); }
	.loc 9 265 28 is_stmt 0 view .LVU99
	vrndscaless	xmm0, xmm3, xmm3, 9	# _335, shift_x,
.LVL22:
	.loc 9 265 28 view .LVU100
.LBE1995:
.LBE1994:
# src/avx_analysis_code_ablations/opt7_5_abl_compiler_vec.cpp:43:         p.sx = static_cast<int>(std::floor(shift_x));
	.loc 1 43 16 discriminator 1 view .LVU101
	vcvttss2si	r9d, xmm0	# _8, _335
.LVL23:
	.loc 1 44 9 is_stmt 1 view .LVU102
.LBB1996:
.LBI1996:
	.loc 9 264 3 view .LVU103
.LBB1997:
	.loc 9 265 5 view .LVU104
# /usr/include/c++/16/cmath:265:   { return __builtin_floorf(__x); }
	.loc 9 265 28 is_stmt 0 view .LVU105
	vrndscaless	xmm1, xmm2, xmm2, 9	# _334, shift_y,
.LVL24:
	.loc 9 265 28 view .LVU106
.LBE1997:
.LBE1996:
# src/avx_analysis_code_ablations/opt7_5_abl_compiler_vec.cpp:44:         p.sy = static_cast<int>(std::floor(shift_y));
	.loc 1 44 16 discriminator 1 view .LVU107
	vcvttss2si	r8d, xmm1	# _9, _334
.LVL25:
	.loc 1 46 9 is_stmt 1 view .LVU108
	.loc 1 47 9 view .LVU109
	.loc 1 49 9 view .LVU110
	.loc 1 50 9 view .LVU111
	.loc 1 51 9 view .LVU112
	.loc 1 52 9 view .LVU113
	.loc 1 54 9 view .LVU114
.LBB1998:
.LBI1998:
	.file 10 "/usr/include/c++/16/bits/stl_algobase.h"
	.loc 10 256 5 view .LVU115
.LBE1998:
# src/avx_analysis_code_ablations/opt7_5_abl_compiler_vec.cpp:54:         p.x_begin = std::max(0, -p.sx);
	.loc 1 54 33 is_stmt 0 view .LVU116
	mov	esi, r9d	# tmp577, _8
	neg	esi	# tmp577
	test	r9d, r9d	# _8
# src/avx_analysis_code_ablations/opt7_5_abl_compiler_vec.cpp:56:         p.y_begin = std::max(0, -p.sy);
	.loc 1 56 33 view .LVU117
	mov	r10d, r8d	# tmp579, _9
# src/avx_analysis_code_ablations/opt7_5_abl_compiler_vec.cpp:54:         p.x_begin = std::max(0, -p.sx);
	.loc 1 54 33 view .LVU118
	cmovns	esi, r11d	# tmp577,, _16, tmp578
.LVL26:
	.loc 1 55 9 is_stmt 1 view .LVU119
.LBB1999:
.LBI1999:
	.loc 10 232 5 view .LVU120
.LBE1999:
# src/avx_analysis_code_ablations/opt7_5_abl_compiler_vec.cpp:55:         p.x_end   = std::min(w, w - p.sx - 1);
	.loc 1 55 35 is_stmt 0 view .LVU121
	sub	r13d, r9d	# _19, _8
# src/avx_analysis_code_ablations/opt7_5_abl_compiler_vec.cpp:55:         p.x_end   = std::min(w, w - p.sx - 1);
	.loc 1 55 42 view .LVU122
	dec	r13d	# _20
.LBB2001:
.LBB2000:
# /usr/include/c++/16/bits/stl_algobase.h:237:       if (__b < __a)
	.loc 10 237 7 view .LVU123
	cmp	r13d, r15d	# _20, _181
	cmovg	r13d, r15d	# _20,, _332, _181
.LVL27:
	.loc 10 237 7 view .LVU124
.LBE2000:
.LBE2001:
	.loc 1 56 9 is_stmt 1 view .LVU125
.LBB2002:
.LBI2002:
	.loc 10 256 5 view .LVU126
.LBE2002:
# src/avx_analysis_code_ablations/opt7_5_abl_compiler_vec.cpp:56:         p.y_begin = std::max(0, -p.sy);
	.loc 1 56 33 is_stmt 0 view .LVU127
	neg	r10d	# tmp579
	test	r8d, r8d	# _9
	cmovns	r10d, r11d	# tmp579,, _21, tmp578
	.loc 1 57 9 is_stmt 1 view .LVU128
.LVL28:
.LBB2003:
.LBI2003:
	.loc 10 232 5 view .LVU129
.LBE2003:
# src/avx_analysis_code_ablations/opt7_5_abl_compiler_vec.cpp:57:         p.y_end   = std::min(h, h - p.sy - 1);
	.loc 1 57 35 is_stmt 0 view .LVU130
	sub	r14d, r8d	# _23, _9
# src/avx_analysis_code_ablations/opt7_5_abl_compiler_vec.cpp:57:         p.y_end   = std::min(h, h - p.sy - 1);
	.loc 1 57 42 view .LVU131
	dec	r14d	# _24
.LBB2005:
.LBB2004:
# /usr/include/c++/16/bits/stl_algobase.h:237:       if (__b < __a)
	.loc 10 237 7 view .LVU132
	cmp	r14d, r12d	# _24, _943
	cmovg	r14d, r12d	# _24,, _333, _943
.LVL29:
	.loc 10 237 7 view .LVU133
.LBE2004:
.LBE2005:
	.loc 1 58 9 is_stmt 1 view .LVU134
.LBB2006:
.LBI2006:
	.loc 2 1385 7 view .LVU135
	.loc 2 1385 7 is_stmt 0 view .LVU136
.LBE2006:
	.loc 1 60 9 is_stmt 1 view .LVU137
# src/avx_analysis_code_ablations/opt7_5_abl_compiler_vec.cpp:60:         if (p.x_begin >= p.x_end || p.y_begin >= p.y_end) continue;
	.loc 1 60 34 is_stmt 0 discriminator 1 view .LVU138
	cmp	esi, r13d	# _16, _332
	jge	.L12	#,
	.loc 1 60 34 discriminator 1 view .LVU139
	cmp	r10d, r14d	# _21, _333
	jge	.L12	#,
# src/avx_analysis_code_ablations/opt7_5_abl_compiler_vec.cpp:47:         const float dy = shift_y - p.sy;
	.loc 1 47 21 view .LVU140
	vsubss	xmm6, xmm2, xmm1	# dy, shift_y, _334
.LVL30:
# src/avx_analysis_code_ablations/opt7_5_abl_compiler_vec.cpp:46:         const float dx = shift_x - p.sx;
	.loc 1 46 21 view .LVU141
	vsubss	xmm5, xmm3, xmm0	# dx, shift_x, _335
.LVL31:
.LBB2009:
.LBB2007:
# /usr/include/c++/16/bits/stl_vector.h:1386:       { return _M_data_ptr(this->_M_impl._M_start); }
	.loc 2 1386 42 view .LVU142
	mov	rax, QWORD PTR 16[rcx]	# _228, MEM[(unsigned char * *)SR.264_572 + 16B]
.LBE2007:
.LBE2009:
# src/avx_analysis_code_ablations/opt7_5_abl_compiler_vec.cpp:49:         p.A = (1.0f - dx) * (1.0f - dy);
	.loc 1 49 21 view .LVU143
	vaddss	xmm0, xmm0, DWORD PTR .LC1[rip]	# _630, _335,
.LVL32:
# src/avx_analysis_code_ablations/opt7_5_abl_compiler_vec.cpp:49:         p.A = (1.0f - dx) * (1.0f - dy);
	.loc 1 49 35 view .LVU144
	vaddss	xmm1, xmm1, DWORD PTR .LC1[rip]	# _640, _334,
.LVL33:
.LBB2010:
.LBB2008:
# /usr/include/c++/16/bits/stl_vector.h:1386:       { return _M_data_ptr(this->_M_impl._M_start); }
	.loc 2 1386 42 view .LVU145
	mov	QWORD PTR 80[rsp], rax	# %sfp, _228
.LBE2008:
.LBE2010:
# src/avx_analysis_code_ablations/opt7_5_abl_compiler_vec.cpp:49:         p.A = (1.0f - dx) * (1.0f - dy);
	.loc 1 49 21 view .LVU146
	vsubss	xmm0, xmm0, xmm3	# _10, _630, shift_x
.LVL34:
# src/avx_analysis_code_ablations/opt7_5_abl_compiler_vec.cpp:49:         p.A = (1.0f - dx) * (1.0f - dy);
	.loc 1 49 35 view .LVU147
	vsubss	xmm1, xmm1, xmm2	# _11, _640, shift_y
.LVL35:
# src/avx_analysis_code_ablations/opt7_5_abl_compiler_vec.cpp:49:         p.A = (1.0f - dx) * (1.0f - dy);
	.loc 1 49 27 view .LVU148
	vmulss	xmm2, xmm0, xmm1	# _12, _10, _11
.LVL36:
# src/avx_analysis_code_ablations/opt7_5_abl_compiler_vec.cpp:50:         p.B = dx           * (1.0f - dy);
	.loc 1 50 28 view .LVU149
	vmulss	xmm1, xmm1, xmm5	# _13, _11, dx
# src/avx_analysis_code_ablations/opt7_5_abl_compiler_vec.cpp:51:         p.C = (1.0f - dx) * dy;
	.loc 1 51 27 view .LVU150
	vmulss	xmm0, xmm0, xmm6	# _14, _10, dy
# src/avx_analysis_code_ablations/opt7_5_abl_compiler_vec.cpp:52:         p.D = dx           * dy;
	.loc 1 52 28 view .LVU151
	vmulss	xmm5, xmm5, xmm6	# _15, dx, dy
.LVL37:
	.loc 1 61 9 is_stmt 1 view .LVU152
.LBB2011:
.LBI2011:
	.loc 2 1406 7 view .LVU153
.LBB2012:
# /usr/include/c++/16/bits/stl_vector.h:1408: 	if (this->_M_impl._M_finish != this->_M_impl._M_end_of_storage)
	.loc 2 1408 2 is_stmt 0 view .LVU154
	cmp	QWORD PTR 32[rsp], rbp	# %sfp, __new_finish
	je	.L13	#,
.LVL38:
.LBB2013:
.LBI2013:
	.loc 8 705 2 is_stmt 1 view .LVU155
.LBB2014:
.LBI2014:
	.loc 6 201 2 view .LVU156
.LBB2015:
# /usr/include/c++/16/bits/new_allocator.h:203: 	{ ::new((void *)__p) _Up(std::forward<_Args>(__args)...); }
	.loc 6 203 4 is_stmt 0 discriminator 1 view .LVU157
	vunpcklps	xmm0, xmm0, xmm5	# tmp386, _14, _15
	vunpcklps	xmm2, xmm2, xmm1	# tmp387, _12, _13
	mov	DWORD PTR 0[rbp], r9d	# params$_M_finish_212->sx, _8
.LBE2015:
.LBE2014:
.LBE2013:
# /usr/include/c++/16/bits/stl_vector.h:1413: 	    ++this->_M_impl._M_finish;
	.loc 2 1413 6 view .LVU158
	add	rbp, 48	# __new_finish,
.LBB2018:
.LBB2017:
.LBB2016:
# /usr/include/c++/16/bits/new_allocator.h:203: 	{ ::new((void *)__p) _Up(std::forward<_Args>(__args)...); }
	.loc 6 203 4 discriminator 1 view .LVU159
	mov	DWORD PTR -44[rbp], r8d	# params$_M_finish_212->sy, _9
	vmovlhps	xmm2, xmm2, xmm0	# _550, tmp387, tmp386
	mov	DWORD PTR -24[rbp], esi	# params$_M_finish_212->x_begin, _16
	mov	DWORD PTR -20[rbp], r13d	# params$_M_finish_212->x_end, _332
	mov	DWORD PTR -16[rbp], r10d	# params$_M_finish_212->y_begin, _21
	mov	DWORD PTR -12[rbp], r14d	# params$_M_finish_212->y_end, _333
	mov	QWORD PTR -8[rbp], rax	# MEM <const unsigned char *> [(struct SubParams *)params$_M_finish_212 + 40B], _228
.LVL39:
	.loc 6 203 4 discriminator 1 view .LVU160
	vmovups	XMMWORD PTR -40[rbp], xmm2	# MEM <vector(4) float> [(float *)params$_M_finish_212 + 8B], _550
.LVL40:
.L12:
	.loc 6 203 4 discriminator 1 view .LVU161
.LBE2016:
.LBE2017:
.LBE2018:
.LBE2012:
.LBE2011:
.LBE1993:
	.loc 1 38 5 is_stmt 1 discriminator 4 view .LVU162
.LBB2124:
.LBI2124:
	.loc 3 1101 7 view .LVU163
.LBB2125:
# /usr/include/c++/16/bits/stl_iterator.h:1103: 	++_M_current;
	.loc 3 1103 2 is_stmt 0 view .LVU164
	add	rcx, 48	# SR.264,
.LVL41:
	.loc 3 1103 2 view .LVU165
.LBE2125:
.LBE2124:
	.loc 1 38 34 is_stmt 1 discriminator 5 view .LVU166
# src/avx_analysis_code_ablations/opt7_5_abl_compiler_vec.cpp:38:     for (SubApertureImage& sub : subapertures) {
	.loc 1 38 34 is_stmt 0 discriminator 6 view .LVU167
	cmp	rcx, QWORD PTR 16[rsp]	# SR.264, %sfp
	jne	.L17	#,
.LBE2131:
.LBB2132:
.LBB2133:
.LBB2134:
# /usr/include/c++/16/bits/stl_vector.h:375: 	ptrdiff_t __n = _M_impl._M_end_of_storage - _M_impl._M_start;
	.loc 2 375 44 view .LVU168
	mov	rax, QWORD PTR 32[rsp]	# prephitmp_751, %sfp
	sub	rax, QWORD PTR 8[rsp]	# prephitmp_751, %sfp
	mov	QWORD PTR 80[rsp], rax	# %sfp, prephitmp_751
.LVL42:
.L9:
	.loc 2 375 44 view .LVU169
.LBE2134:
.LBE2133:
.LBE2132:
	.loc 1 64 5 is_stmt 1 view .LVU170
.LBB2149:
.LBI2149:
	.loc 5 168 7 view .LVU171
.LBB2150:
.LBI2150:
	.loc 6 88 7 view .LVU172
	.loc 6 88 7 is_stmt 0 view .LVU173
.LBE2150:
.LBE2149:
.LBB2151:
.LBI2151:
	.loc 2 589 7 is_stmt 1 view .LVU174
.LBB2152:
.LBI2152:
	.loc 2 2203 7 view .LVU175
.LBB2153:
.LBB2154:
.LBI2154:
	.loc 5 172 7 view .LVU176
.LBB2155:
.LBI2155:
	.loc 6 92 7 view .LVU177
	.loc 6 92 7 is_stmt 0 view .LVU178
.LBE2155:
.LBE2154:
.LBB2156:
.LBI2156:
	.loc 5 189 7 is_stmt 1 view .LVU179
.LBB2157:
.LBI2157:
	.loc 6 104 7 view .LVU180
.LBE2157:
.LBE2156:
# /usr/include/c++/16/bits/stl_vector.h:2205: 	if (__n > _S_max_size(_Tp_alloc_type(__a)))
	.loc 2 2205 2 is_stmt 0 discriminator 3 view .LVU181
	mov	rax, QWORD PTR 48[rsp]	# tmp637, %sfp
	shr	rax, 61	# tmp637,
	jne	.L143	#,
.LVL43:
	.loc 2 2205 2 discriminator 3 view .LVU182
.LBE2153:
.LBE2152:
.LBB2159:
.LBI2159:
	.loc 2 339 7 is_stmt 1 view .LVU183
.LBB2160:
.LBI2160:
	.loc 2 152 2 view .LVU184
.LBB2161:
.LBI2161:
	.loc 5 172 7 view .LVU185
.LBB2162:
.LBI2162:
	.loc 6 92 7 view .LVU186
	.loc 6 92 7 is_stmt 0 view .LVU187
.LBE2162:
.LBE2161:
.LBB2163:
.LBI2163:
	.loc 2 105 2 is_stmt 1 view .LVU188
	.loc 2 105 2 is_stmt 0 view .LVU189
.LBE2163:
.LBE2160:
.LBB2164:
.LBI2164:
	.loc 2 405 7 is_stmt 1 view .LVU190
.LBB2165:
.LBB2166:
.LBI2166:
	.loc 2 386 7 view .LVU191
.LBB2167:
# /usr/include/c++/16/bits/stl_vector.h:389: 	return __n != 0 ? _Tr::allocate(_M_impl, __n) : pointer();
	.loc 2 389 18 is_stmt 0 view .LVU192
	mov	rax, QWORD PTR 48[rsp]	# _847, %sfp
	test	rax, rax	# _847
	je	.L79	#,
.LVL44:
.LBB2168:
.LBI2168:
	.loc 8 637 7 is_stmt 1 view .LVU193
.LBB2169:
.LBI2169:
	.loc 6 129 7 view .LVU194
.LBB2170:
# /usr/include/c++/16/bits/new_allocator.h:162: 	  return static_cast<_Tp*>(_GLIBCXX_OPERATOR_NEW(__n * sizeof(_Tp)));
	.loc 6 162 68 is_stmt 0 view .LVU195
	lea	r14, 0[0+rax*4]	# _443,
	mov	rdi, r14	#, _443
	mov	QWORD PTR 88[rsp], r14	# %sfp, _443
.LEHB1:
	call	"_Znwm"@PLT	#
.LVL45:
.LEHE1:
.LBE2170:
.LBE2169:
.LBE2168:
.LBE2167:
.LBE2166:
.LBE2165:
.LBE2164:
.LBE2159:
.LBB2182:
.LBB2183:
.LBB2184:
.LBB2185:
.LBB2186:
.LBB2187:
.LBB2188:
.LBB2189:
# /usr/include/c++/16/bits/stl_construct.h:133:       ::new(static_cast<void*>(__p)) _Tp(std::forward<_Args>(__args)...);
	.file 11 "/usr/include/c++/16/bits/stl_construct.h"
	.loc 11 133 7 discriminator 1 view .LVU196
	mov	rdx, r14	#, _443
	xor	esi, esi	#
	mov	rdi, rax	#, _437
.LBE2189:
.LBE2188:
.LBE2187:
.LBE2186:
.LBE2185:
.LBE2184:
.LBE2183:
.LBE2182:
.LBB2199:
.LBB2180:
.LBB2178:
.LBB2176:
.LBB2174:
.LBB2173:
.LBB2172:
.LBB2171:
# /usr/include/c++/16/bits/new_allocator.h:162: 	  return static_cast<_Tp*>(_GLIBCXX_OPERATOR_NEW(__n * sizeof(_Tp)));
	.loc 6 162 68 view .LVU197
	mov	r13, rax	# _437, _437
.LVL46:
	.loc 6 162 68 view .LVU198
.LBE2171:
.LBE2172:
.LBE2173:
.LBE2174:
.LBE2176:
.LBE2178:
.LBE2180:
.LBE2199:
.LBB2200:
.LBI2182:
	.loc 2 1987 7 is_stmt 1 view .LVU199
.LBB2198:
.LBI2183:
	.file 12 "/usr/include/c++/16/bits/stl_uninitialized.h"
	.loc 12 771 5 view .LVU200
.LBB2197:
.LBI2184:
	.loc 12 550 5 view .LVU201
.LBB2196:
.LBB2195:
.LBI2186:
	.loc 12 477 5 view .LVU202
.LBB2194:
.LBB2191:
.LBI2191:
	.loc 12 113 7 view .LVU203
	.loc 12 113 7 is_stmt 0 view .LVU204
.LBE2191:
	.loc 12 485 2 is_stmt 1 discriminator 2 view .LVU205
	.loc 12 491 7 discriminator 2 view .LVU206
.LBB2192:
.LBB2190:
# /usr/include/c++/16/bits/stl_construct.h:133:       ::new(static_cast<void*>(__p)) _Tp(std::forward<_Args>(__args)...);
	.loc 11 133 7 is_stmt 0 discriminator 1 view .LVU207
	call	"memset"@PLT	#
.LVL47:
.L18:
	.loc 11 133 7 discriminator 1 view .LVU208
.LBE2190:
.LBE2192:
.LBB2193:
.LBI2193:
	.loc 12 118 7 is_stmt 1 view .LVU209
	.loc 12 118 7 is_stmt 0 view .LVU210
.LBE2193:
.LBE2194:
.LBE2195:
.LBE2196:
.LBE2197:
.LBE2198:
.LBE2200:
.LBE2151:
.LBB2203:
.LBI2203:
	.loc 5 189 7 is_stmt 1 view .LVU211
.LBB2204:
.LBI2204:
	.loc 6 104 7 view .LVU212
	.loc 6 104 7 is_stmt 0 view .LVU213
.LBE2204:
.LBE2203:
	.loc 1 65 5 is_stmt 1 view .LVU214
.LBB2205:
	.loc 1 66 9 view .LVU215
.LBB2206:
.LBI2206:
	.loc 5 168 7 view .LVU216
.LBB2207:
.LBI2207:
	.loc 6 88 7 view .LVU217
	.loc 6 88 7 is_stmt 0 view .LVU218
.LBE2207:
.LBE2206:
# src/avx_analysis_code_ablations/opt7_5_abl_compiler_vec.cpp:66:         std::vector<int> diff((width + 1) * (height + 1), 0);
	.loc 1 66 38 discriminator 1 view .LVU219
	mov	rax, QWORD PTR 40[rsp]	# _325, %sfp
	lea	r14, 1[rax]	# _26,
# src/avx_analysis_code_ablations/opt7_5_abl_compiler_vec.cpp:66:         std::vector<int> diff((width + 1) * (height + 1), 0);
	.loc 1 66 53 discriminator 1 view .LVU220
	mov	rax, QWORD PTR 64[rsp]	# _434, %sfp
	inc	rax	# _434
# src/avx_analysis_code_ablations/opt7_5_abl_compiler_vec.cpp:66:         std::vector<int> diff((width + 1) * (height + 1), 0);
	.loc 1 66 60 discriminator 1 view .LVU221
	imul	rax, r14	# _27, _26
	mov	r10, rax	# _320, _27
.LVL48:
.LBB2208:
.LBI2208:
	.loc 2 589 7 is_stmt 1 view .LVU222
.LBB2209:
.LBI2209:
	.loc 2 2203 7 view .LVU223
.LBB2210:
.LBB2211:
.LBI2211:
	.loc 5 172 7 view .LVU224
.LBB2212:
.LBI2212:
	.loc 6 92 7 view .LVU225
	.loc 6 92 7 is_stmt 0 view .LVU226
.LBE2212:
.LBE2211:
.LBB2213:
.LBI2213:
	.loc 5 189 7 is_stmt 1 view .LVU227
.LBB2214:
.LBI2214:
	.loc 6 104 7 view .LVU228
.LBE2214:
.LBE2213:
# /usr/include/c++/16/bits/stl_vector.h:2205: 	if (__n > _S_max_size(_Tp_alloc_type(__a)))
	.loc 2 2205 2 is_stmt 0 discriminator 3 view .LVU229
	movabs	rax, 2305843009213693951	# tmp418,
.LVL49:
	.loc 2 2205 2 discriminator 3 view .LVU230
	cmp	rax, r10	# tmp418, _320
	jb	.L144	#,
.LVL50:
	.loc 2 2205 2 discriminator 3 view .LVU231
.LBE2210:
.LBE2209:
.LBB2216:
.LBI2216:
	.loc 2 339 7 is_stmt 1 view .LVU232
.LBB2217:
.LBI2217:
	.loc 2 152 2 view .LVU233
.LBB2218:
.LBI2218:
	.loc 5 172 7 view .LVU234
.LBB2219:
.LBI2219:
	.loc 6 92 7 view .LVU235
	.loc 6 92 7 is_stmt 0 view .LVU236
.LBE2219:
.LBE2218:
.LBB2220:
.LBI2220:
	.loc 2 105 2 is_stmt 1 view .LVU237
	.loc 2 105 2 is_stmt 0 view .LVU238
.LBE2220:
.LBE2217:
.LBB2221:
.LBI2221:
	.loc 2 405 7 is_stmt 1 view .LVU239
.LBB2222:
.LBB2223:
.LBI2223:
	.loc 2 386 7 view .LVU240
	vxorps	xmm0, xmm0, xmm0	# tmp611
.LBB2224:
# /usr/include/c++/16/bits/stl_vector.h:389: 	return __n != 0 ? _Tr::allocate(_M_impl, __n) : pointer();
	.loc 2 389 18 is_stmt 0 view .LVU241
	test	r10, r10	# _320
	je	.L152	#,
.LBB2225:
.LBB2226:
.LBB2227:
# /usr/include/c++/16/bits/new_allocator.h:162: 	  return static_cast<_Tp*>(_GLIBCXX_OPERATOR_NEW(__n * sizeof(_Tp)));
	.loc 6 162 68 view .LVU242
	sal	r10, 2	# _320,
.LVL51:
	.loc 6 162 68 view .LVU243
	vmovaps	XMMWORD PTR 64[rsp], xmm0	# %sfp, tmp611
.LVL52:
	.loc 6 162 68 view .LVU244
.LBE2227:
.LBE2226:
.LBI2225:
	.loc 8 637 7 is_stmt 1 view .LVU245
.LBB2230:
.LBI2226:
	.loc 6 129 7 view .LVU246
.LBB2228:
# /usr/include/c++/16/bits/new_allocator.h:162: 	  return static_cast<_Tp*>(_GLIBCXX_OPERATOR_NEW(__n * sizeof(_Tp)));
	.loc 6 162 68 is_stmt 0 view .LVU247
	mov	rdi, r10	#, _320
	mov	QWORD PTR 16[rsp], r10	# %sfp, _320
.LEHB2:
	call	"_Znwm"@PLT	#
.LVL53:
.LBE2228:
.LBE2230:
.LBE2225:
.LBE2224:
.LBE2223:
.LBE2222:
.LBE2221:
.LBE2216:
.LBB2241:
.LBB2242:
.LBB2243:
.LBB2244:
.LBB2245:
.LBB2246:
.LBB2247:
.LBB2248:
# /usr/include/c++/16/bits/stl_construct.h:133:       ::new(static_cast<void*>(__p)) _Tp(std::forward<_Args>(__args)...);
	.loc 11 133 7 discriminator 1 view .LVU248
	mov	rdx, QWORD PTR 16[rsp]	#, %sfp
.LBE2248:
.LBE2247:
.LBE2246:
.LBE2245:
.LBE2244:
.LBE2243:
.LBE2242:
.LBE2241:
.LBB2271:
.LBB2239:
.LBB2237:
.LBB2235:
.LBB2233:
.LBB2232:
.LBB2231:
.LBB2229:
# /usr/include/c++/16/bits/new_allocator.h:162: 	  return static_cast<_Tp*>(_GLIBCXX_OPERATOR_NEW(__n * sizeof(_Tp)));
	.loc 6 162 68 view .LVU249
	mov	rdi, rax	# _318, _318
.LVL54:
	.loc 6 162 68 view .LVU250
.LBE2229:
.LBE2231:
.LBE2232:
.LBE2233:
.LBE2235:
.LBE2237:
.LBE2239:
.LBE2271:
.LBB2272:
.LBI2241:
	.loc 2 1987 7 is_stmt 1 view .LVU251
.LBB2268:
.LBI2242:
	.loc 12 771 5 view .LVU252
.LBB2265:
.LBI2243:
	.loc 12 550 5 view .LVU253
.LBB2262:
.LBB2259:
.LBI2245:
	.loc 12 477 5 view .LVU254
.LBB2256:
.LBB2251:
.LBI2251:
	.loc 12 113 7 view .LVU255
	.loc 12 113 7 is_stmt 0 view .LVU256
.LBE2251:
	.loc 12 485 2 is_stmt 1 discriminator 2 view .LVU257
	.loc 12 491 7 discriminator 2 view .LVU258
.LBB2252:
.LBB2249:
# /usr/include/c++/16/bits/stl_construct.h:133:       ::new(static_cast<void*>(__p)) _Tp(std::forward<_Args>(__args)...);
	.loc 11 133 7 is_stmt 0 discriminator 1 view .LVU259
	xor	esi, esi	#
	call	"memset"@PLT	#
.LVL55:
	.loc 11 133 7 discriminator 1 view .LVU260
.LBE2249:
.LBE2252:
.LBE2256:
.LBE2259:
.LBE2262:
.LBE2265:
.LBE2268:
.LBE2272:
.LBE2208:
.LBB2277:
# src/avx_analysis_code_ablations/opt7_5_abl_compiler_vec.cpp:67:         for (const SubParams& p : params) {
	.loc 1 67 35 discriminator 6 view .LVU261
	cmp	QWORD PTR 8[rsp], rbp	# %sfp, __new_finish
	mov	r10, QWORD PTR 16[rsp]	# _320, %sfp
	vmovaps	xmm0, XMMWORD PTR 64[rsp]	# tmp611, %sfp
.LBE2277:
.LBB2297:
.LBB2273:
.LBB2269:
.LBB2266:
.LBB2263:
.LBB2260:
.LBB2257:
.LBB2253:
.LBB2250:
# /usr/include/c++/16/bits/stl_construct.h:133:       ::new(static_cast<void*>(__p)) _Tp(std::forward<_Args>(__args)...);
	.loc 11 133 7 discriminator 1 view .LVU262
	mov	rdi, rax	# _318,
.LVL56:
	.loc 11 133 7 discriminator 1 view .LVU263
.LBE2250:
.LBE2253:
.LBB2254:
.LBI2254:
	.loc 12 118 7 is_stmt 1 view .LVU264
	.loc 12 118 7 is_stmt 0 view .LVU265
.LBE2254:
.LBE2257:
.LBE2260:
.LBE2263:
.LBE2266:
.LBE2269:
.LBE2273:
.LBE2297:
.LBB2298:
.LBI2298:
	.loc 5 189 7 is_stmt 1 view .LVU266
.LBB2299:
.LBI2299:
	.loc 6 104 7 view .LVU267
	.loc 6 104 7 is_stmt 0 view .LVU268
.LBE2299:
.LBE2298:
	.loc 1 67 9 is_stmt 1 view .LVU269
.LBB2301:
.LBB2278:
.LBI2278:
	.loc 2 988 7 view .LVU270
.LBB2279:
.LBI2279:
	.loc 3 1058 7 view .LVU271
	.loc 3 1058 7 is_stmt 0 view .LVU272
.LBE2279:
.LBE2278:
.LBB2281:
.LBI2281:
	.loc 2 1008 7 is_stmt 1 view .LVU273
.LBB2282:
.LBI2282:
	.loc 3 1058 7 view .LVU274
	.loc 3 1058 7 is_stmt 0 view .LVU275
.LBE2282:
.LBE2281:
	.loc 1 67 35 is_stmt 1 discriminator 5 view .LVU276
# src/avx_analysis_code_ablations/opt7_5_abl_compiler_vec.cpp:67:         for (const SubParams& p : params) {
	.loc 1 67 35 is_stmt 0 discriminator 6 view .LVU277
	je	.L31	#,
.L24:
# src/avx_analysis_code_ablations/opt7_5_abl_compiler_vec.cpp:67:         for (const SubParams& p : params) {
	.loc 1 67 35 view .LVU278
	mov	rax, QWORD PTR 8[rsp]	# SR.266, %sfp
.LVL57:
	.loc 1 67 35 view .LVU279
	.p2align 6
	.p2align 4,,10
	.p2align 3
.L32:
.LVL58:
	.loc 1 68 13 is_stmt 1 view .LVU280
# src/avx_analysis_code_ablations/opt7_5_abl_compiler_vec.cpp:68:             diff[p.y_begin * (width + 1) + p.x_begin] += 1;
	.loc 1 68 20 is_stmt 0 view .LVU281
	movsxd	rdx, DWORD PTR 32[rax]	# _30, MEM[(int *)SR.266_671 + 32B]
# src/avx_analysis_code_ablations/opt7_5_abl_compiler_vec.cpp:68:             diff[p.y_begin * (width + 1) + p.x_begin] += 1;
	.loc 1 68 46 view .LVU282
	movsxd	rsi, DWORD PTR 24[rax]	# _33, MEM[(int *)SR.266_671 + 24B]
.LBB2284:
.LBB2285:
# /usr/include/c++/16/bits/stl_iterator.h:1103: 	++_M_current;
	.loc 3 1103 2 view .LVU283
	add	rax, 48	# SR.266,
.LVL59:
	.loc 3 1103 2 view .LVU284
.LBE2285:
.LBE2284:
# src/avx_analysis_code_ablations/opt7_5_abl_compiler_vec.cpp:70:             diff[p.y_end   * (width + 1) + p.x_begin] -= 1;
	.loc 1 70 20 view .LVU285
	movsxd	r8, DWORD PTR -12[rax]	# _46, MEM[(int *)SR.266_671 + 36B]
# src/avx_analysis_code_ablations/opt7_5_abl_compiler_vec.cpp:68:             diff[p.y_begin * (width + 1) + p.x_begin] += 1;
	.loc 1 68 28 view .LVU286
	imul	rdx, r14	# _31, _26
.LVL60:
.LBB2286:
.LBI2286:
	.loc 2 1251 7 is_stmt 1 view .LVU287
.LBB2287:
	.loc 2 1253 2 discriminator 2 view .LVU288
	.loc 2 1253 2 is_stmt 0 discriminator 2 view .LVU289
.LBE2287:
.LBE2286:
# src/avx_analysis_code_ablations/opt7_5_abl_compiler_vec.cpp:70:             diff[p.y_end   * (width + 1) + p.x_begin] -= 1;
	.loc 1 70 28 view .LVU290
	imul	r8, r14	# _47, _26
# src/avx_analysis_code_ablations/opt7_5_abl_compiler_vec.cpp:68:             diff[p.y_begin * (width + 1) + p.x_begin] += 1;
	.loc 1 68 53 view .LVU291
	lea	rcx, [rdx+rsi]	# _34,
# src/avx_analysis_code_ablations/opt7_5_abl_compiler_vec.cpp:68:             diff[p.y_begin * (width + 1) + p.x_begin] += 1;
	.loc 1 68 55 discriminator 1 view .LVU292
	inc	DWORD PTR [rdi+rcx*4]	# *_346
	.loc 1 69 13 is_stmt 1 view .LVU293
# src/avx_analysis_code_ablations/opt7_5_abl_compiler_vec.cpp:69:             diff[p.y_begin * (width + 1) + p.x_end  ] -= 1;
	.loc 1 69 46 is_stmt 0 view .LVU294
	movsxd	rcx, DWORD PTR -20[rax]	# _41, MEM[(int *)SR.266_671 + 28B]
.LVL61:
.LBB2288:
.LBI2288:
	.loc 2 1251 7 is_stmt 1 view .LVU295
.LBB2289:
	.loc 2 1253 2 discriminator 2 view .LVU296
	.loc 2 1253 2 is_stmt 0 discriminator 2 view .LVU297
.LBE2289:
.LBE2288:
# src/avx_analysis_code_ablations/opt7_5_abl_compiler_vec.cpp:69:             diff[p.y_begin * (width + 1) + p.x_end  ] -= 1;
	.loc 1 69 53 view .LVU298
	add	rdx, rcx	# _42, _41
# src/avx_analysis_code_ablations/opt7_5_abl_compiler_vec.cpp:69:             diff[p.y_begin * (width + 1) + p.x_end  ] -= 1;
	.loc 1 69 55 discriminator 1 view .LVU299
	dec	DWORD PTR [rdi+rdx*4]	# *_343
	.loc 1 70 13 is_stmt 1 view .LVU300
.LVL62:
.LBB2290:
.LBI2290:
	.loc 2 1251 7 view .LVU301
.LBB2291:
	.loc 2 1253 2 discriminator 2 view .LVU302
	.loc 2 1253 2 is_stmt 0 discriminator 2 view .LVU303
.LBE2291:
.LBE2290:
# src/avx_analysis_code_ablations/opt7_5_abl_compiler_vec.cpp:70:             diff[p.y_end   * (width + 1) + p.x_begin] -= 1;
	.loc 1 70 53 view .LVU304
	lea	rdx, [rsi+r8]	# _50,
# src/avx_analysis_code_ablations/opt7_5_abl_compiler_vec.cpp:70:             diff[p.y_end   * (width + 1) + p.x_begin] -= 1;
	.loc 1 70 55 discriminator 1 view .LVU305
	dec	DWORD PTR [rdi+rdx*4]	# *_341
	.loc 1 71 13 is_stmt 1 view .LVU306
.LVL63:
.LBB2292:
.LBI2292:
	.loc 2 1251 7 view .LVU307
.LBB2293:
	.loc 2 1253 2 discriminator 2 view .LVU308
	.loc 2 1253 2 is_stmt 0 discriminator 2 view .LVU309
.LBE2293:
.LBE2292:
# src/avx_analysis_code_ablations/opt7_5_abl_compiler_vec.cpp:71:             diff[p.y_end   * (width + 1) + p.x_end  ] += 1;
	.loc 1 71 53 view .LVU310
	lea	rdx, [rcx+r8]	# _58,
# src/avx_analysis_code_ablations/opt7_5_abl_compiler_vec.cpp:71:             diff[p.y_end   * (width + 1) + p.x_end  ] += 1;
	.loc 1 71 55 discriminator 1 view .LVU311
	inc	DWORD PTR [rdi+rdx*4]	# *_339
	.loc 1 67 9 is_stmt 1 discriminator 4 view .LVU312
.LVL64:
.LBB2294:
.LBI2284:
	.loc 3 1101 7 view .LVU313
	.loc 3 1101 7 is_stmt 0 view .LVU314
.LBE2294:
	.loc 1 67 35 is_stmt 1 discriminator 5 view .LVU315
# src/avx_analysis_code_ablations/opt7_5_abl_compiler_vec.cpp:67:         for (const SubParams& p : params) {
	.loc 1 67 35 is_stmt 0 discriminator 6 view .LVU316
	cmp	rax, rbp	# SR.266, __new_finish
	jne	.L32	#,
.LVL65:
	.loc 1 67 35 discriminator 6 view .LVU317
.LBE2301:
.LBB2302:
	.loc 1 73 27 is_stmt 1 discriminator 2 view .LVU318
	test	r12d, r12d	# _943
	jle	.L38	#,
	test	r15d, r15d	# _181
	jle	.L38	#,
.LVL66:
.L29:
.LBB2303:
.LBB2304:
	.loc 1 75 31 discriminator 2 view .LVU319
	mov	rax, QWORD PTR 40[rsp]	# _325, %sfp
.LBE2304:
# src/avx_analysis_code_ablations/opt7_5_abl_compiler_vec.cpp:74:             int row = 0;
	.loc 1 74 17 is_stmt 0 view .LVU320
	xor	edx, edx	# row
	lea	ecx, -1[rax]	# _831,
.LBE2303:
.LBE2302:
.LBB2313:
# src/avx_analysis_code_ablations/opt7_5_abl_compiler_vec.cpp:67:         for (const SubParams& p : params) {
	.loc 1 67 35 view .LVU321
	xor	eax, eax	# ivtmp.386
	lea	r9, 1[rcx]	# _169,
.LVL67:
.L34:
	.loc 1 67 35 view .LVU322
.LBE2313:
.LBB2314:
.LBB2309:
.LBB2305:
	.loc 1 76 17 is_stmt 1 view .LVU323
# src/avx_analysis_code_ablations/opt7_5_abl_compiler_vec.cpp:76:                 row += diff[y * (width + 1) + x];
	.loc 1 76 21 is_stmt 0 discriminator 1 view .LVU324
	add	edx, DWORD PTR [rdi+rax*4]	# row, MEM[(value_type &)_977 + ivtmp.386_835 * 4]
.LVL68:
	.loc 1 77 17 is_stmt 1 view .LVU325
# src/avx_analysis_code_ablations/opt7_5_abl_compiler_vec.cpp:77:                 counts[y * w + x] = row + (y > 0 ? counts[(y - 1) * w + x] : 0);
	.loc 1 77 35 is_stmt 0 discriminator 5 view .LVU326
	mov	DWORD PTR 0[r13+rax*4], edx	# MEM[(value_type &)_442 + ivtmp.386_835 * 4], row
	.loc 1 75 13 is_stmt 1 discriminator 1 view .LVU327
.LVL69:
	.loc 1 75 31 discriminator 2 view .LVU328
	inc	rax	# ivtmp.386
.LVL70:
	.loc 1 75 31 is_stmt 0 discriminator 2 view .LVU329
	cmp	r9, rax	# _169, ivtmp.386
	jne	.L34	#,
.LBE2305:
.LBE2309:
	.loc 1 73 9 is_stmt 1 discriminator 1 view .LVU330
.LVL71:
	.loc 1 73 27 discriminator 2 view .LVU331
	cmp	r12d, 1	# _943,
	jle	.L35	#,
	lea	rax, 0[0+r14*4]	# _933,
# src/avx_analysis_code_ablations/opt7_5_abl_compiler_vec.cpp:73:         for (int y = 0; y < h; ++y) {
	.loc 1 73 18 is_stmt 0 view .LVU332
	mov	DWORD PTR 96[rsp], r15d	# %sfp, _181
.LBB2310:
.LBB2306:
# src/avx_analysis_code_ablations/opt7_5_abl_compiler_vec.cpp:75:             for (int x = 0; x < w; ++x) {
	.loc 1 75 31 discriminator 2 view .LVU333
	xor	r14d, r14d	# ivtmp.381
.LBE2306:
.LBE2310:
# src/avx_analysis_code_ablations/opt7_5_abl_compiler_vec.cpp:73:         for (int y = 0; y < h; ++y) {
	.loc 1 73 18 view .LVU334
	mov	r11d, 1	# y,
	mov	QWORD PTR 64[rsp], rax	# %sfp, _933
	lea	r8, [rdi+rax]	# ivtmp.380,
	mov	eax, r15d	# _857, _181
	sal	rax, 2	# _856,
	mov	QWORD PTR 16[rsp], rax	# %sfp, _856
	lea	rsi, 0[r13+rax]	# ivtmp.383,
.LVL72:
.L37:
.LBB2311:
.LBB2307:
	.loc 1 75 31 is_stmt 1 discriminator 2 view .LVU335
	movsxd	rax, r14d	# _954, ivtmp.381
.LBE2307:
# src/avx_analysis_code_ablations/opt7_5_abl_compiler_vec.cpp:74:             int row = 0;
	.loc 1 74 17 is_stmt 0 view .LVU336
	xor	edx, edx	# row
	add	r14d, DWORD PTR 40[rsp]	# ivtmp.381, %sfp
	lea	r15, 0[r13+rax*4]	# _956,
.LBE2311:
# src/avx_analysis_code_ablations/opt7_5_abl_compiler_vec.cpp:73:         for (int y = 0; y < h; ++y) {
	.loc 1 73 18 view .LVU337
	xor	eax, eax	# ivtmp.367
.LVL73:
	.loc 1 73 18 view .LVU338
	.p2align 5
	.p2align 4,,10
	.p2align 3
.L36:
.LVL74:
.LBB2312:
.LBB2308:
	.loc 1 76 17 is_stmt 1 view .LVU339
# src/avx_analysis_code_ablations/opt7_5_abl_compiler_vec.cpp:77:                 counts[y * w + x] = row + (y > 0 ? counts[(y - 1) * w + x] : 0);
	.loc 1 77 41 is_stmt 0 discriminator 4 view .LVU340
	mov	ecx, DWORD PTR [r15+rax*4]	# _986, MEM[(value_type &)_956 + ivtmp.367_864 * 4]
# src/avx_analysis_code_ablations/opt7_5_abl_compiler_vec.cpp:76:                 row += diff[y * (width + 1) + x];
	.loc 1 76 21 discriminator 1 view .LVU341
	add	edx, DWORD PTR [r8+rax*4]	# row, MEM[(value_type &)_61 + ivtmp.367_864 * 4]
.LVL75:
	.loc 1 77 17 is_stmt 1 view .LVU342
# src/avx_analysis_code_ablations/opt7_5_abl_compiler_vec.cpp:77:                 counts[y * w + x] = row + (y > 0 ? counts[(y - 1) * w + x] : 0);
	.loc 1 77 41 is_stmt 0 discriminator 4 view .LVU343
	add	ecx, edx	# _986, row
# src/avx_analysis_code_ablations/opt7_5_abl_compiler_vec.cpp:77:                 counts[y * w + x] = row + (y > 0 ? counts[(y - 1) * w + x] : 0);
	.loc 1 77 35 discriminator 5 view .LVU344
	mov	DWORD PTR [rsi+rax*4], ecx	# MEM[(value_type &)_958 + ivtmp.367_864 * 4], _986
	.loc 1 75 13 is_stmt 1 discriminator 1 view .LVU345
.LVL76:
	.loc 1 75 31 discriminator 2 view .LVU346
	inc	rax	# ivtmp.367
.LVL77:
	.loc 1 75 31 is_stmt 0 discriminator 2 view .LVU347
	cmp	r9, rax	# _169, ivtmp.367
	jne	.L36	#,
.LBE2308:
.LBE2312:
	.loc 1 73 9 is_stmt 1 discriminator 1 view .LVU348
	inc	r11d	# y
.LVL78:
	.loc 1 73 27 discriminator 2 view .LVU349
	add	r8, QWORD PTR 64[rsp]	# ivtmp.380, %sfp
	add	rsi, QWORD PTR 16[rsp]	# ivtmp.383, %sfp
	cmp	r12d, r11d	# _943, y
	jg	.L37	#,
	mov	r15d, DWORD PTR 96[rsp]	# _181, %sfp
.LVL79:
.L38:
	.loc 1 73 27 is_stmt 0 discriminator 2 view .LVU350
.LBE2314:
.LBB2315:
.LBI2315:
	.loc 2 790 7 is_stmt 1 view .LVU351
.LBB2316:
.LBI2316:
	.loc 2 307 7 view .LVU352
	.loc 2 307 7 is_stmt 0 view .LVU353
.LBE2316:
.LBB2317:
.LBI2317:
	.loc 8 1082 5 is_stmt 1 view .LVU354
	.loc 8 1082 5 is_stmt 0 view .LVU355
.LBE2317:
.LBB2318:
.LBI2318:
	.loc 2 373 7 is_stmt 1 view .LVU356
.LBB2319:
.LBB2320:
.LBI2320:
	.loc 2 394 7 view .LVU357
.LBB2321:
# /usr/include/c++/16/bits/stl_vector.h:397: 	if (__p)
	.loc 2 397 2 is_stmt 0 view .LVU358
	test	rdi, rdi	# _318
	je	.L39	#,
.LVL80:
.L35:
.LBB2322:
.LBB2323:
.LBB2324:
# /usr/include/c++/16/bits/new_allocator.h:183: 	_GLIBCXX_OPERATOR_DELETE(_GLIBCXX_SIZED_DEALLOC(__p, __n));
	.loc 6 183 59 view .LVU359
	mov	rsi, r10	#, _320
	vmovaps	XMMWORD PTR 16[rsp], xmm0	# %sfp, tmp611
.LVL81:
	.loc 6 183 59 view .LVU360
.LBE2324:
.LBE2323:
.LBI2322:
	.loc 8 688 7 is_stmt 1 view .LVU361
.LBB2326:
.LBI2323:
	.loc 6 167 7 view .LVU362
.LBB2325:
# /usr/include/c++/16/bits/new_allocator.h:183: 	_GLIBCXX_OPERATOR_DELETE(_GLIBCXX_SIZED_DEALLOC(__p, __n));
	.loc 6 183 59 is_stmt 0 view .LVU363
	call	"_ZdlPvm"@PLT	#
.LVL82:
	.loc 6 183 59 view .LVU364
	vmovaps	xmm0, XMMWORD PTR 16[rsp]	# tmp611, %sfp
.LVL83:
.L39:
	.loc 6 183 59 view .LVU365
.LBE2325:
.LBE2326:
.LBE2322:
.LBE2321:
.LBE2320:
.LBE2319:
.LBB2327:
.LBI2327:
	.loc 2 139 14 is_stmt 1 view .LVU366
.LBB2328:
.LBI2328:
	.loc 5 189 7 view .LVU367
.LBB2329:
.LBI2329:
	.loc 6 104 7 view .LVU368
	.loc 6 104 7 is_stmt 0 view .LVU369
.LBE2329:
.LBE2328:
.LBE2327:
.LBE2318:
.LBE2315:
.LBE2205:
	.loc 1 82 5 is_stmt 1 view .LVU370
.LBB2348:
.LBI2348:
	.loc 5 168 7 view .LVU371
.LBB2349:
.LBI2349:
	.loc 6 88 7 view .LVU372
	.loc 6 88 7 is_stmt 0 view .LVU373
.LBE2349:
.LBE2348:
.LBB2352:
.LBI2352:
	.loc 2 589 7 is_stmt 1 view .LVU374
.LBB2353:
.LBI2353:
	.loc 2 2203 7 view .LVU375
.LBB2354:
.LBB2355:
.LBI2355:
	.loc 5 172 7 view .LVU376
.LBB2356:
.LBI2356:
	.loc 6 92 7 view .LVU377
	.loc 6 92 7 is_stmt 0 view .LVU378
.LBE2356:
.LBE2355:
.LBB2359:
.LBI2359:
	.loc 5 189 7 is_stmt 1 view .LVU379
.LBB2360:
.LBI2360:
	.loc 6 104 7 view .LVU380
.LBE2360:
.LBE2359:
# /usr/include/c++/16/bits/stl_vector.h:2205: 	if (__n > _S_max_size(_Tp_alloc_type(__a)))
	.loc 2 2205 2 is_stmt 0 discriminator 3 view .LVU381
	mov	rax, QWORD PTR 56[rsp]	# _5, %sfp
	shr	rax, 61	# _5,
	jne	.L26	#,
.LVL84:
	.loc 2 2205 2 discriminator 3 view .LVU382
.LBE2354:
.LBE2353:
.LBB2370:
.LBI2370:
	.loc 2 339 7 is_stmt 1 view .LVU383
.LBB2371:
.LBI2371:
	.loc 2 152 2 view .LVU384
.LBB2372:
.LBI2372:
	.loc 5 172 7 view .LVU385
.LBB2373:
.LBI2373:
	.loc 6 92 7 view .LVU386
	.loc 6 92 7 is_stmt 0 view .LVU387
.LBE2373:
.LBE2372:
.LBB2376:
.LBI2376:
	.loc 2 105 2 is_stmt 1 view .LVU388
	.loc 2 105 2 is_stmt 0 view .LVU389
.LBE2376:
.LBE2371:
.LBB2381:
.LBI2381:
	.loc 2 405 7 is_stmt 1 view .LVU390
.LBB2382:
.LBB2383:
.LBI2383:
	.loc 2 386 7 view .LVU391
.LBB2384:
# /usr/include/c++/16/bits/stl_vector.h:389: 	return __n != 0 ? _Tr::allocate(_M_impl, __n) : pointer();
	.loc 2 389 18 is_stmt 0 view .LVU392
	cmp	QWORD PTR 48[rsp], 0	# %sfp,
	je	.L153	#,
.L27:
.LBB2385:
.LBB2386:
.LBB2387:
# /usr/include/c++/16/bits/new_allocator.h:162: 	  return static_cast<_Tp*>(_GLIBCXX_OPERATOR_NEW(__n * sizeof(_Tp)));
	.loc 6 162 68 view .LVU393
	mov	r14, QWORD PTR 104[rsp]	# tmp576, %sfp
	vmovaps	XMMWORD PTR 16[rsp], xmm0	# %sfp, tmp611
.LVL85:
	.loc 6 162 68 view .LVU394
.LBE2387:
.LBE2386:
.LBI2385:
	.loc 8 637 7 is_stmt 1 view .LVU395
.LBB2389:
.LBI2386:
	.loc 6 129 7 view .LVU396
.LBB2388:
# /usr/include/c++/16/bits/new_allocator.h:162: 	  return static_cast<_Tp*>(_GLIBCXX_OPERATOR_NEW(__n * sizeof(_Tp)));
	.loc 6 162 68 is_stmt 0 view .LVU397
	add	r14, QWORD PTR 48[rsp]	# tmp576, %sfp
	lea	rdi, 0[0+r14*4]	# _847,
	mov	QWORD PTR 48[rsp], rdi	# %sfp, _847
	call	"_Znwm"@PLT	#
.LVL86:
.LEHE2:
	.loc 6 162 68 view .LVU398
.LBE2388:
.LBE2389:
.LBE2385:
.LBE2384:
.LBE2383:
.LBE2382:
.LBE2381:
.LBE2370:
.LBB2414:
.LBI2414:
	.loc 2 1987 7 is_stmt 1 view .LVU399
.LBB2415:
.LBI2415:
	.loc 12 771 5 view .LVU400
.LBB2416:
.LBI2416:
	.loc 12 550 5 view .LVU401
.LBB2417:
.LBB2418:
.LBI2418:
	.loc 12 477 5 view .LVU402
.LBB2419:
.LBB2420:
.LBI2420:
	.loc 12 113 7 view .LVU403
	.loc 12 113 7 is_stmt 0 view .LVU404
.LBE2420:
	.loc 12 485 2 is_stmt 1 discriminator 2 view .LVU405
	.loc 12 491 7 discriminator 2 view .LVU406
.LBB2421:
.LBB2422:
# /usr/include/c++/16/bits/stl_construct.h:133:       ::new(static_cast<void*>(__p)) _Tp(std::forward<_Args>(__args)...);
	.loc 11 133 7 is_stmt 0 discriminator 1 view .LVU407
	xor	esi, esi	#
	lea	rdx, 0[0+r14*4]	#,
	mov	rdi, rax	#, _851
	call	"memset"@PLT	#
.LVL87:
	.loc 11 133 7 discriminator 1 view .LVU408
.LBE2422:
.LBE2421:
.LBE2419:
.LBE2418:
.LBE2417:
.LBE2416:
.LBE2415:
.LBE2414:
.LBE2352:
.LBB2439:
# src/avx_analysis_code_ablations/opt7_5_abl_compiler_vec.cpp:84:     for (const SubParams& p : params) {
	.loc 1 84 31 discriminator 6 view .LVU409
	cmp	QWORD PTR 8[rsp], rbp	# %sfp, __new_finish
	vmovaps	xmm0, XMMWORD PTR 16[rsp]	# tmp611, %sfp
.LBE2439:
.LBB2452:
.LBB2430:
.LBB2429:
.LBB2428:
.LBB2427:
.LBB2426:
.LBB2425:
.LBB2424:
.LBB2423:
# /usr/include/c++/16/bits/stl_construct.h:133:       ::new(static_cast<void*>(__p)) _Tp(std::forward<_Args>(__args)...);
	.loc 11 133 7 discriminator 1 view .LVU410
	mov	r10, rax	# _851,
.LVL88:
	.loc 11 133 7 discriminator 1 view .LVU411
.LBE2423:
.LBE2424:
.LBE2425:
.LBE2426:
.LBE2427:
.LBE2428:
.LBE2429:
.LBE2430:
.LBE2452:
.LBB2453:
	.loc 1 84 31 is_stmt 1 discriminator 5 view .LVU412
# src/avx_analysis_code_ablations/opt7_5_abl_compiler_vec.cpp:84:     for (const SubParams& p : params) {
	.loc 1 84 31 is_stmt 0 discriminator 6 view .LVU413
	je	.L43	#,
.L41:
.LBB2440:
.LBB2441:
# src/avx_analysis_code_ablations/opt7_5_abl_compiler_vec.cpp:87:             size_t ind_bot = ind_top + width * 3;
	.loc 1 87 46 view .LVU414
	mov	rdi, QWORD PTR 40[rsp]	# _325, %sfp
	mov	rax, QWORD PTR 8[rsp]	# ivtmp.365, %sfp
	mov	DWORD PTR 16[rsp], r15d	# %sfp, _181
	mov	QWORD PTR 32[rsp], r13	# %sfp, _437
	lea	rdx, [rdi+rdi]	# tmp574,
	mov	DWORD PTR 56[rsp], r12d	# %sfp, _943
	mov	QWORD PTR 96[rsp], rbx	# %sfp, <retval>
	lea	rcx, [rdx+rdi]	# _82,
	mov	QWORD PTR 64[rsp], rdx	# %sfp, tmp574
	lea	r14, 0[0+rcx*4]	# tmp475,
	mov	rdx, rdi	# _325, _325
.LVL89:
	.p2align 4,,10
	.p2align 3
.L47:
	.loc 1 85 9 is_stmt 1 view .LVU415
.LBE2441:
# src/avx_analysis_code_ablations/opt7_5_abl_compiler_vec.cpp:85:         for (int y = p.y_begin; y < p.y_end; ++y) {
	.loc 1 85 18 is_stmt 0 view .LVU416
	mov	r11d, DWORD PTR 32[rax]	# y, MEM[(int *)_858 + 32B]
.LVL90:
	.loc 1 85 35 is_stmt 1 discriminator 2 view .LVU417
# src/avx_analysis_code_ablations/opt7_5_abl_compiler_vec.cpp:85:         for (int y = p.y_begin; y < p.y_end; ++y) {
	.loc 1 85 39 is_stmt 0 discriminator 2 view .LVU418
	mov	r12d, DWORD PTR 36[rax]	# _307, MEM[(int *)_858 + 36B]
# src/avx_analysis_code_ablations/opt7_5_abl_compiler_vec.cpp:85:         for (int y = p.y_begin; y < p.y_end; ++y) {
	.loc 1 85 35 discriminator 2 view .LVU419
	cmp	r11d, r12d	# y, _307
	jge	.L44	#,
.LBB2451:
# src/avx_analysis_code_ablations/opt7_5_abl_compiler_vec.cpp:86:             size_t ind_top = ((size_t)(y + p.sy) * width + (size_t)(p.x_begin + p.sx)) * 3;
	.loc 1 86 71 view .LVU420
	mov	r8d, DWORD PTR 24[rax]	# _77, MEM[(int *)_858 + 24B]
.LBB2442:
# src/avx_analysis_code_ablations/opt7_5_abl_compiler_vec.cpp:98:             for (int x = p.x_begin; x < p.x_end; ++x) {
	.loc 1 98 43 discriminator 2 view .LVU421
	mov	ebx, DWORD PTR 28[rax]	# _229, MEM[(int *)_858 + 28B]
	cmp	r8d, ebx	# _77, _229
	jge	.L44	#,
	movsxd	r9, DWORD PTR 4[rax]	# _170, MEM[(int *)_858 + 4B]
	movsxd	rsi, r11d	# _171, y
.LBE2442:
# src/avx_analysis_code_ablations/opt7_5_abl_compiler_vec.cpp:96:             float* vrow = vals.data() + ((size_t)y * width + (size_t)p.x_begin) * 3;
	.loc 1 96 62 discriminator 1 view .LVU422
	movsxd	r15, r8d	# _102, _77
# src/avx_analysis_code_ablations/opt7_5_abl_compiler_vec.cpp:86:             size_t ind_top = ((size_t)(y + p.sy) * width + (size_t)(p.x_begin + p.sx)) * 3;
	.loc 1 86 83 view .LVU423
	movsxd	rdi, DWORD PTR [rax]	#, MEM[(int *)_858]
	sub	ebx, r8d	# _959, _77
.LBB2447:
.LBB2443:
# src/avx_analysis_code_ablations/opt7_5_abl_compiler_vec.cpp:109:                 vrow[0] += p.A*pTLr + p.B*pTRr + p.C*pBLr + p.D*pBRr;
	.loc 1 109 30 view .LVU424
	vmovss	xmm16, DWORD PTR 8[rax]	# _126, MEM[(float *)_858 + 8B]
# src/avx_analysis_code_ablations/opt7_5_abl_compiler_vec.cpp:109:                 vrow[0] += p.A*pTLr + p.B*pTRr + p.C*pBLr + p.D*pBRr;
	.loc 1 109 41 view .LVU425
	vmovss	xmm15, DWORD PTR 12[rax]	# _128, MEM[(float *)_858 + 12B]
	add	r9, rsi	# _964, _171
	imul	rsi, rdx	# _257, _325
.LBE2443:
.LBE2447:
# src/avx_analysis_code_ablations/opt7_5_abl_compiler_vec.cpp:86:             size_t ind_top = ((size_t)(y + p.sy) * width + (size_t)(p.x_begin + p.sx)) * 3;
	.loc 1 86 79 view .LVU426
	lea	r13d, [r8+rdi]	# _79,
	add	rdi, r15	# _1034, _102
	imul	r9, rdx	# _665, _325
# src/avx_analysis_code_ablations/opt7_5_abl_compiler_vec.cpp:86:             size_t ind_top = ((size_t)(y + p.sy) * width + (size_t)(p.x_begin + p.sx)) * 3;
	.loc 1 86 60 view .LVU427
	movsxd	r13, r13d	# _80, _79
.LBB2448:
.LBB2444:
# src/avx_analysis_code_ablations/opt7_5_abl_compiler_vec.cpp:109:                 vrow[0] += p.A*pTLr + p.B*pTRr + p.C*pBLr + p.D*pBRr;
	.loc 1 109 52 view .LVU428
	vmovss	xmm14, DWORD PTR 16[rax]	# _131, MEM[(float *)_858 + 16B]
# src/avx_analysis_code_ablations/opt7_5_abl_compiler_vec.cpp:109:                 vrow[0] += p.A*pTLr + p.B*pTRr + p.C*pBLr + p.D*pBRr;
	.loc 1 109 63 view .LVU429
	vmovss	xmm13, DWORD PTR 20[rax]	# _134, MEM[(float *)_858 + 20B]
	sub	rdi, r13	# _261, _80
	add	rsi, r15	# _961, _102
	add	rsi, rbx	# _258, _959
	add	r9, r13	# _358, _80
	lea	r13, [rdi+rdi*2]	# _951,
	lea	rsi, [rsi+rsi*2]	# _176,
	lea	r9, [r9+r9*2]	# _648,
	lea	r8, [r10+rsi*4]	# ivtmp.358,
	lea	rsi, 0[0+rbx*4]	# tmp495,
	add	r9, QWORD PTR 40[rax]	# ivtmp.352, MEM[(const unsigned char * *)_858 + 40B]
	sub	rbx, rsi	# _1031, tmp495
	sal	rbx, 2	# tmp497,
	.p2align 4,,10
	.p2align 3
.L46:
	.loc 1 109 63 view .LVU430
.LBE2444:
.LBE2448:
	.loc 1 86 13 is_stmt 1 view .LVU431
.LVL91:
	.loc 1 87 13 view .LVU432
	.loc 1 89 13 view .LVU433
	.loc 1 90 13 view .LVU434
	.loc 1 91 13 view .LVU435
	.loc 1 92 13 view .LVU436
	.loc 1 93 13 view .LVU437
	.loc 1 94 13 view .LVU438
	.loc 1 96 13 view .LVU439
	.loc 1 98 13 view .LVU440
.LBB2449:
	.loc 1 98 39 discriminator 2 view .LVU441
.LBE2449:
# src/avx_analysis_code_ablations/opt7_5_abl_compiler_vec.cpp:89:             float pTLr = p.data[ind_top    ];
	.loc 1 89 19 is_stmt 0 view .LVU442
	movzx	esi, BYTE PTR [r9]	# MEM[(const unsigned char *)_1003], MEM[(const unsigned char *)_1003]
	lea	rdi, [r9+r13]	# ivtmp.343,
	vcvtusi2ss	xmm9, xmm0, esi	# tmp612, tmp611, MEM[(const unsigned char *)_1003]
# src/avx_analysis_code_ablations/opt7_5_abl_compiler_vec.cpp:90:             float pTLg = p.data[ind_top + 1];
	.loc 1 90 19 view .LVU443
	movzx	esi, BYTE PTR 1[r9]	# MEM[(const unsigned char *)_1003 + 1B], MEM[(const unsigned char *)_1003 + 1B]
	vcvtusi2ss	xmm8, xmm0, esi	# tmp613, tmp611, MEM[(const unsigned char *)_1003 + 1B]
# src/avx_analysis_code_ablations/opt7_5_abl_compiler_vec.cpp:91:             float pTLb = p.data[ind_top + 2];
	.loc 1 91 19 view .LVU444
	movzx	esi, BYTE PTR 2[r9]	# MEM[(const unsigned char *)_1003 + 2B], MEM[(const unsigned char *)_1003 + 2B]
	vcvtusi2ss	xmm7, xmm0, esi	# tmp614, tmp611, MEM[(const unsigned char *)_1003 + 2B]
# src/avx_analysis_code_ablations/opt7_5_abl_compiler_vec.cpp:92:             float pBLr = p.data[ind_bot    ];
	.loc 1 92 19 view .LVU445
	movzx	esi, BYTE PTR [r9+rcx]	# MEM[(const unsigned char *)_1003 + _82 * 1], MEM[(const unsigned char *)_1003 + _82 * 1]
	vcvtusi2ss	xmm6, xmm0, esi	# tmp615, tmp611, MEM[(const unsigned char *)_1003 + _82 * 1]
# src/avx_analysis_code_ablations/opt7_5_abl_compiler_vec.cpp:93:             float pBLg = p.data[ind_bot + 1];
	.loc 1 93 19 view .LVU446
	movzx	esi, BYTE PTR 1[r9+rcx]	# MEM[(const unsigned char *)_1003 + 1B + _82 * 1], MEM[(const unsigned char *)_1003 + 1B + _82 * 1]
	vcvtusi2ss	xmm5, xmm0, esi	# tmp616, tmp611, MEM[(const unsigned char *)_1003 + 1B + _82 * 1]
# src/avx_analysis_code_ablations/opt7_5_abl_compiler_vec.cpp:94:             float pBLb = p.data[ind_bot + 2];
	.loc 1 94 19 view .LVU447
	movzx	esi, BYTE PTR 2[r9+rcx]	# MEM[(const unsigned char *)_1003 + 2B + _82 * 1], MEM[(const unsigned char *)_1003 + 2B + _82 * 1]
	vcvtusi2ss	xmm4, xmm0, esi	# tmp617, tmp611, MEM[(const unsigned char *)_1003 + 2B + _82 * 1]
# src/avx_analysis_code_ablations/opt7_5_abl_compiler_vec.cpp:96:             float* vrow = vals.data() + ((size_t)y * width + (size_t)p.x_begin) * 3;
	.loc 1 96 83 discriminator 1 view .LVU448
	lea	rsi, [r8+rbx]	# vrow,
.LVL92:
	.p2align 4,,10
	.p2align 3
.L45:
.LBB2450:
.LBB2445:
	.loc 1 99 17 is_stmt 1 view .LVU449
	.loc 1 100 17 view .LVU450
	.loc 1 102 17 view .LVU451
# src/avx_analysis_code_ablations/opt7_5_abl_compiler_vec.cpp:102:                 const float pTRr = p.data[ir    ];
	.loc 1 102 29 is_stmt 0 view .LVU452
	movzx	r15d, BYTE PTR 3[rdi]	# MEM[(const unsigned char *)_348 + 3B], MEM[(const unsigned char *)_348 + 3B]
	vmovaps	xmm3, xmm9	# pTLr, pTRr
	vmovaps	xmm2, xmm8	# pTLg, pTRg
	vmovaps	xmm1, xmm7	# pTLb, pTRb
	vmovaps	xmm12, xmm6	# pBLr, pBRr
	vmovaps	xmm17, xmm15	# _979, _128
	vmovaps	xmm11, xmm5	# pBLg, pBRg
# src/avx_analysis_code_ablations/opt7_5_abl_compiler_vec.cpp:115:                 vrow += 3;
	.loc 1 115 22 view .LVU453
	add	rsi, 12	# vrow,
.LVL93:
# src/avx_analysis_code_ablations/opt7_5_abl_compiler_vec.cpp:102:                 const float pTRr = p.data[ir    ];
	.loc 1 102 29 view .LVU454
	vcvtusi2ss	xmm9, xmm0, r15d	# tmp618, tmp611, MEM[(const unsigned char *)_348 + 3B]
.LVL94:
	.loc 1 103 17 is_stmt 1 view .LVU455
# src/avx_analysis_code_ablations/opt7_5_abl_compiler_vec.cpp:103:                 const float pTRg = p.data[ir + 1];
	.loc 1 103 29 is_stmt 0 view .LVU456
	movzx	r15d, BYTE PTR 4[rdi]	# MEM[(const unsigned char *)_348 + 4B], MEM[(const unsigned char *)_348 + 4B]
	vmovaps	xmm10, xmm4	# pBLb, pBRb
.LBE2445:
# src/avx_analysis_code_ablations/opt7_5_abl_compiler_vec.cpp:98:             for (int x = p.x_begin; x < p.x_end; ++x) {
	.loc 1 98 39 discriminator 2 view .LVU457
	add	rdi, 3	# ivtmp.343,
.LVL95:
.LBB2446:
# src/avx_analysis_code_ablations/opt7_5_abl_compiler_vec.cpp:103:                 const float pTRg = p.data[ir + 1];
	.loc 1 103 29 view .LVU458
	vcvtusi2ss	xmm8, xmm0, r15d	# tmp619, tmp611, MEM[(const unsigned char *)_348 + 4B]
.LVL96:
	.loc 1 104 17 is_stmt 1 view .LVU459
# src/avx_analysis_code_ablations/opt7_5_abl_compiler_vec.cpp:104:                 const float pTRb = p.data[ir + 2];
	.loc 1 104 29 is_stmt 0 view .LVU460
	movzx	r15d, BYTE PTR 2[rdi]	# MEM[(const unsigned char *)_348 + 5B], MEM[(const unsigned char *)_348 + 5B]
	vcvtusi2ss	xmm7, xmm0, r15d	# tmp620, tmp611, MEM[(const unsigned char *)_348 + 5B]
.LVL97:
	.loc 1 105 17 is_stmt 1 view .LVU461
# src/avx_analysis_code_ablations/opt7_5_abl_compiler_vec.cpp:105:                 const float pBRr = p.data[br    ];
	.loc 1 105 29 is_stmt 0 view .LVU462
	movzx	r15d, BYTE PTR [rdi+rcx]	# MEM[(const unsigned char *)_348 + 3B + _82 * 1], MEM[(const unsigned char *)_348 + 3B + _82 * 1]
	vfmadd213ss	xmm17, xmm9, DWORD PTR -12[rsi]	# _979, pTRr, MEM[(float *)vrow_643]
	vcvtusi2ss	xmm6, xmm0, r15d	# tmp621, tmp611, MEM[(const unsigned char *)_348 + 3B + _82 * 1]
.LVL98:
	.loc 1 106 17 is_stmt 1 view .LVU463
# src/avx_analysis_code_ablations/opt7_5_abl_compiler_vec.cpp:106:                 const float pBRg = p.data[br + 1];
	.loc 1 106 29 is_stmt 0 view .LVU464
	movzx	r15d, BYTE PTR 1[rdi+rcx]	# MEM[(const unsigned char *)_348 + 4B + _82 * 1], MEM[(const unsigned char *)_348 + 4B + _82 * 1]
	vcvtusi2ss	xmm5, xmm0, r15d	# tmp622, tmp611, MEM[(const unsigned char *)_348 + 4B + _82 * 1]
.LVL99:
	.loc 1 107 17 is_stmt 1 view .LVU465
# src/avx_analysis_code_ablations/opt7_5_abl_compiler_vec.cpp:107:                 const float pBRb = p.data[br + 2];
	.loc 1 107 29 is_stmt 0 view .LVU466
	movzx	r15d, BYTE PTR 2[rdi+rcx]	# MEM[(const unsigned char *)_348 + 5B + _82 * 1], MEM[(const unsigned char *)_348 + 5B + _82 * 1]
# src/avx_analysis_code_ablations/opt7_5_abl_compiler_vec.cpp:109:                 vrow[0] += p.A*pTLr + p.B*pTRr + p.C*pBLr + p.D*pBRr;
	.loc 1 109 64 view .LVU467
	vmulss	xmm18, xmm13, xmm6	# _135, _134, pBRr
# src/avx_analysis_code_ablations/opt7_5_abl_compiler_vec.cpp:107:                 const float pBRb = p.data[br + 2];
	.loc 1 107 29 view .LVU468
	vcvtusi2ss	xmm4, xmm0, r15d	# tmp623, tmp611, MEM[(const unsigned char *)_348 + 5B + _82 * 1]
.LVL100:
	.loc 1 109 17 is_stmt 1 view .LVU469
# src/avx_analysis_code_ablations/opt7_5_abl_compiler_vec.cpp:109:                 vrow[0] += p.A*pTLr + p.B*pTRr + p.C*pBLr + p.D*pBRr;
	.loc 1 109 25 is_stmt 0 view .LVU470
	vfmadd132ss	xmm3, xmm18, xmm16	# tmp517, _135, _126
.LVL101:
	.loc 1 109 25 view .LVU471
	vaddss	xmm3, xmm3, xmm17	# _969, tmp517, _979
	vfmadd132ss	xmm12, xmm3, xmm14	# tmp516, _969, _131
.LVL102:
	.loc 1 109 25 view .LVU472
	vmovaps	xmm3, xmm15	# _364, _128
	vfmadd213ss	xmm3, xmm8, DWORD PTR -8[rsi]	# _364, pTRg, MEM[(float *)vrow_643 + 4B]
	vmovss	DWORD PTR -12[rsi], xmm12	# MEM[(float *)vrow_643], tmp516
	.loc 1 110 17 is_stmt 1 view .LVU473
# src/avx_analysis_code_ablations/opt7_5_abl_compiler_vec.cpp:110:                 vrow[1] += p.A*pTLg + p.B*pTRg + p.C*pBLg + p.D*pBRg;
	.loc 1 110 64 is_stmt 0 view .LVU474
	vmulss	xmm12, xmm13, xmm5	# _148, _134, pBRg
# src/avx_analysis_code_ablations/opt7_5_abl_compiler_vec.cpp:110:                 vrow[1] += p.A*pTLg + p.B*pTRg + p.C*pBLg + p.D*pBRg;
	.loc 1 110 25 view .LVU475
	vfmadd132ss	xmm2, xmm12, xmm16	# tmp521, _148, _126
.LVL103:
	.loc 1 110 25 view .LVU476
	vaddss	xmm2, xmm2, xmm3	# _654, tmp521, _364
# src/avx_analysis_code_ablations/opt7_5_abl_compiler_vec.cpp:111:                 vrow[2] += p.A*pTLb + p.B*pTRb + p.C*pBLb + p.D*pBRb;
	.loc 1 111 64 view .LVU477
	vmulss	xmm3, xmm13, xmm4	# _161, _134, pBRb
# src/avx_analysis_code_ablations/opt7_5_abl_compiler_vec.cpp:110:                 vrow[1] += p.A*pTLg + p.B*pTRg + p.C*pBLg + p.D*pBRg;
	.loc 1 110 25 view .LVU478
	vfmadd132ss	xmm11, xmm2, xmm14	# tmp520, _654, _131
.LVL104:
	.loc 1 110 25 view .LVU479
	vmovaps	xmm2, xmm15	# _366, _128
	vfmadd213ss	xmm2, xmm7, DWORD PTR -4[rsi]	# _366, pTRb, MEM[(float *)vrow_643 + 8B]
# src/avx_analysis_code_ablations/opt7_5_abl_compiler_vec.cpp:111:                 vrow[2] += p.A*pTLb + p.B*pTRb + p.C*pBLb + p.D*pBRb;
	.loc 1 111 25 view .LVU480
	vfmadd132ss	xmm1, xmm3, xmm16	# tmp525, _161, _126
.LVL105:
# src/avx_analysis_code_ablations/opt7_5_abl_compiler_vec.cpp:110:                 vrow[1] += p.A*pTLg + p.B*pTRg + p.C*pBLg + p.D*pBRg;
	.loc 1 110 25 view .LVU481
	vmovss	DWORD PTR -8[rsi], xmm11	# MEM[(float *)vrow_643 + 4B], tmp520
	.loc 1 111 17 is_stmt 1 view .LVU482
# src/avx_analysis_code_ablations/opt7_5_abl_compiler_vec.cpp:111:                 vrow[2] += p.A*pTLb + p.B*pTRb + p.C*pBLb + p.D*pBRb;
	.loc 1 111 25 is_stmt 0 view .LVU483
	vaddss	xmm1, xmm1, xmm2	# _65, tmp525, _366
	vfmadd132ss	xmm10, xmm1, xmm14	# tmp524, _65, _131
.LVL106:
	.loc 1 111 25 view .LVU484
	vmovss	DWORD PTR -4[rsi], xmm10	# MEM[(float *)vrow_643 + 8B], tmp524
	.loc 1 113 17 is_stmt 1 view .LVU485
.LVL107:
	.loc 1 113 30 view .LVU486
	.loc 1 113 43 view .LVU487
	.loc 1 114 17 view .LVU488
	.loc 1 114 30 view .LVU489
	.loc 1 114 43 view .LVU490
	.loc 1 115 17 view .LVU491
.LBE2446:
	.loc 1 98 13 discriminator 1 view .LVU492
	.loc 1 98 39 discriminator 2 view .LVU493
	cmp	rsi, r8	# vrow, ivtmp.358
	jne	.L45	#,
.LBE2450:
.LBE2451:
	.loc 1 85 9 discriminator 1 view .LVU494
	inc	r11d	# y
.LVL108:
	.loc 1 85 35 discriminator 2 view .LVU495
	add	r9, rcx	# ivtmp.352, _82
	add	r8, r14	# ivtmp.358, tmp475
	cmp	r11d, r12d	# y, _307
	jne	.L46	#,
.LVL109:
.L44:
	.loc 1 85 35 is_stmt 0 discriminator 2 view .LVU496
.LBE2440:
	.loc 1 84 5 is_stmt 1 discriminator 4 view .LVU497
	.loc 1 84 31 discriminator 5 view .LVU498
# src/avx_analysis_code_ablations/opt7_5_abl_compiler_vec.cpp:84:     for (const SubParams& p : params) {
	.loc 1 84 31 is_stmt 0 discriminator 6 view .LVU499
	add	rax, 48	# ivtmp.365,
.LVL110:
	.loc 1 84 31 discriminator 6 view .LVU500
	cmp	rbp, rax	# __new_finish, ivtmp.365
	jne	.L47	#,
.LBE2453:
.LBB2454:
# src/avx_analysis_code_ablations/opt7_5_abl_compiler_vec.cpp:120:     for (int y = 0; y < h; ++y) {
	.loc 1 120 23 discriminator 2 view .LVU501
	mov	r12d, DWORD PTR 56[rsp]	# _943, %sfp
	mov	r15d, DWORD PTR 16[rsp]	# _181, %sfp
	mov	r13, QWORD PTR 32[rsp]	# _437, %sfp
	mov	rdx, QWORD PTR 64[rsp]	# tmp574, %sfp
	mov	rbx, QWORD PTR 96[rsp]	# <retval>, %sfp
.LVL111:
	.loc 1 120 23 is_stmt 1 discriminator 2 view .LVU502
	test	r12d, r12d	# _943
	jle	.L49	#,
	test	r15d, r15d	# _181
	jle	.L49	#,
.LVL112:
.L42:
	.loc 1 120 23 is_stmt 0 discriminator 2 view .LVU503
	mov	r14, QWORD PTR 40[rsp]	# _325, %sfp
.LBB2455:
.LBB2456:
# src/avx_analysis_code_ablations/opt7_5_abl_compiler_vec.cpp:124:             float inv_c = 1.0f / (float)c;
	.loc 1 124 19 view .LVU504
	vmovss	xmm6, DWORD PTR .LC1[rip]	# tmp581,
	mov	r11, r13	# ivtmp.331, _437
.LBE2456:
.LBE2455:
.LBE2454:
.LBB2501:
.LBB2431:
.LBB2407:
.LBB2402:
.LBB2396:
.LBB2390:
# /usr/include/c++/16/bits/stl_vector.h:389: 	return __n != 0 ? _Tr::allocate(_M_impl, __n) : pointer();
	.loc 2 389 58 discriminator 3 view .LVU505
	xor	edi, edi	# ivtmp.334
.LBE2390:
.LBE2396:
.LBE2402:
.LBE2407:
.LBE2431:
.LBE2501:
.LBB2502:
.LBB2498:
.LBB2494:
.LBB2457:
.LBB2458:
.LBB2459:
# /usr/include/c++/16/bits/stl_algobase.h:261:       if (__a < __b)
	.loc 10 261 7 view .LVU506
	vmovss	xmm3, DWORD PTR .LC3[rip]	# tmp582,
.LBE2459:
.LBE2458:
.LBE2457:
# src/avx_analysis_code_ablations/opt7_5_abl_compiler_vec.cpp:127:             outp[0] = (unsigned char)std::clamp(vp[0] * inv_c + 0.5f, 0.0f, 255.0f);
	.loc 1 127 63 view .LVU507
	vmovss	xmm5, DWORD PTR .LC4[rip]	# tmp584,
.LBE2494:
.LBE2498:
# src/avx_analysis_code_ablations/opt7_5_abl_compiler_vec.cpp:120:     for (int y = 0; y < h; ++y) {
	.loc 1 120 14 view .LVU508
	xor	r8d, r8d	# y
	lea	eax, -1[r14]	# _223,
.LBB2499:
.LBB2495:
.LBB2469:
.LBB2462:
.LBB2463:
# /usr/include/c++/16/bits/stl_algobase.h:237:       if (__b < __a)
	.loc 10 237 7 view .LVU509
	vmovss	xmm8, DWORD PTR .LC5[rip]	# tmp585,
	lea	r9, [rdx+r14]	# _483,
	lea	rsi, 3[rax+rax*2]	# ivtmp.329,
	mov	eax, r15d	# _881, _181
	lea	rbp, 0[0+rax*4]	# _1016,
	.p2align 4,,10
	.p2align 3
.L62:
.LVL113:
	.loc 10 237 7 view .LVU510
.LBE2463:
.LBE2462:
.LBE2469:
.LBE2495:
	.loc 1 121 27 is_stmt 1 discriminator 2 view .LVU511
.LBB2496:
.LBB2470:
.LBB2471:
.LBB2472:
# /usr/include/c++/16/bits/stl_algobase.h:237:       if (__b < __a)
	.loc 10 237 7 is_stmt 0 view .LVU512
	vmovss	xmm4, DWORD PTR .LC5[rip]	# tmp587,
.LBE2472:
.LBE2471:
.LBE2470:
# src/avx_analysis_code_ablations/opt7_5_abl_compiler_vec.cpp:129:             outp[2] = (unsigned char)std::clamp(vp[2] * inv_c + 0.5f, 0.0f, 255.0f);
	.loc 1 129 63 view .LVU513
	vmovss	xmm7, DWORD PTR .LC4[rip]	# tmp588,
	lea	rax, [rdi+rdi*2]	# ivtmp.324,
.LBE2496:
.LBE2499:
# src/avx_analysis_code_ablations/opt7_5_abl_compiler_vec.cpp:120:     for (int y = 0; y < h; ++y) {
	.loc 1 120 14 view .LVU514
	mov	rdx, r11	# ivtmp.321, ivtmp.331
.LVL114:
	.p2align 4,,10
	.p2align 3
.L61:
.LBB2500:
.LBB2497:
	.loc 1 122 13 is_stmt 1 view .LVU515
# src/avx_analysis_code_ablations/opt7_5_abl_compiler_vec.cpp:122:             const int c = counts[y * w + x];
	.loc 1 122 43 is_stmt 0 discriminator 1 view .LVU516
	mov	ecx, DWORD PTR [rdx]	# c, MEM[(value_type &)_651]
.LVL115:
	.loc 1 123 13 is_stmt 1 view .LVU517
	test	ecx, ecx	# c
	je	.L51	#,
	.loc 1 124 13 view .LVU518
# src/avx_analysis_code_ablations/opt7_5_abl_compiler_vec.cpp:124:             float inv_c = 1.0f / (float)c;
	.loc 1 124 34 is_stmt 0 view .LVU519
	vcvtsi2ss	xmm1, xmm0, ecx	# tmp624, tmp611, c
# src/avx_analysis_code_ablations/opt7_5_abl_compiler_vec.cpp:126:             unsigned char* outp = output.data.data() + ((size_t)y * width + x) * 3;
	.loc 1 126 82 discriminator 1 view .LVU520
	mov	rcx, QWORD PTR 16[rbx]	# outp, MEM[(struct vector *)output_221(D) + 16B].D.86825._M_impl.D.86136._M_start
.LVL116:
.LBB2478:
.LBB2465:
.LBB2460:
# /usr/include/c++/16/bits/stl_algobase.h:261:       if (__a < __b)
	.loc 10 261 7 view .LVU521
	xor	r15d, r15d	# prephitmp_907
.LBE2460:
.LBE2465:
.LBE2478:
# src/avx_analysis_code_ablations/opt7_5_abl_compiler_vec.cpp:126:             unsigned char* outp = output.data.data() + ((size_t)y * width + x) * 3;
	.loc 1 126 82 discriminator 1 view .LVU522
	add	rcx, rax	# outp, ivtmp.324
# src/avx_analysis_code_ablations/opt7_5_abl_compiler_vec.cpp:124:             float inv_c = 1.0f / (float)c;
	.loc 1 124 19 view .LVU523
	vdivss	xmm1, xmm6, xmm1	# inv_c, tmp581, _921
.LVL117:
	.loc 1 125 13 is_stmt 1 view .LVU524
	.loc 1 126 13 view .LVU525
.LBB2479:
.LBI2479:
	.loc 2 1385 7 view .LVU526
	.loc 2 1385 7 is_stmt 0 view .LVU527
.LBE2479:
	.loc 1 127 13 is_stmt 1 view .LVU528
# src/avx_analysis_code_ablations/opt7_5_abl_compiler_vec.cpp:127:             outp[0] = (unsigned char)std::clamp(vp[0] * inv_c + 0.5f, 0.0f, 255.0f);
	.loc 1 127 55 is_stmt 0 view .LVU529
	vmulss	xmm2, xmm1, DWORD PTR [r10+rax*4]	# _911, inv_c, MEM[(const float *)_852 + ivtmp.324_885 * 4]
.LBB2480:
.LBI2457:
	.file 13 "/usr/include/c++/16/bits/stl_algo.h"
	.loc 13 3614 5 is_stmt 1 view .LVU530
	.loc 13 3616 7 discriminator 2 view .LVU531
.LBB2466:
.LBI2458:
	.loc 10 256 5 view .LVU532
.LBB2461:
# /usr/include/c++/16/bits/stl_algobase.h:261:       if (__a < __b)
	.loc 10 261 7 is_stmt 0 view .LVU533
	vcomiss	xmm3, xmm2	# tmp582, _911
	ja	.L60	#,
.LBE2461:
.LBE2466:
.LBE2480:
# src/avx_analysis_code_ablations/opt7_5_abl_compiler_vec.cpp:127:             outp[0] = (unsigned char)std::clamp(vp[0] * inv_c + 0.5f, 0.0f, 255.0f);
	.loc 1 127 63 view .LVU534
	vaddss	xmm2, xmm2, xmm5	# _910, _911, tmp584
.LBB2481:
.LBB2467:
.LBB2464:
# /usr/include/c++/16/bits/stl_algobase.h:237:       if (__b < __a)
	.loc 10 237 7 view .LVU535
	vminss	xmm2, xmm2, xmm8	# _910, _910, tmp585
.LBE2464:
.LBE2467:
.LBE2481:
# src/avx_analysis_code_ablations/opt7_5_abl_compiler_vec.cpp:127:             outp[0] = (unsigned char)std::clamp(vp[0] * inv_c + 0.5f, 0.0f, 255.0f);
	.loc 1 127 23 discriminator 1 view .LVU536
	vcvttss2si	r15d, xmm2	# prephitmp_907, _910
.L60:
.LBB2482:
.LBB2468:
.LBI2462:
	.loc 10 232 5 is_stmt 1 view .LVU537
.LBE2468:
.LBE2482:
# src/avx_analysis_code_ablations/opt7_5_abl_compiler_vec.cpp:128:             outp[1] = (unsigned char)std::clamp(vp[1] * inv_c + 0.5f, 0.0f, 255.0f);
	.loc 1 128 55 is_stmt 0 view .LVU538
	vmulss	xmm2, xmm1, DWORD PTR 4[r10+rax*4]	# _904, inv_c, MEM[(const float *)_852 + 4B + ivtmp.324_885 * 4]
# src/avx_analysis_code_ablations/opt7_5_abl_compiler_vec.cpp:127:             outp[0] = (unsigned char)std::clamp(vp[0] * inv_c + 0.5f, 0.0f, 255.0f);
	.loc 1 127 21 discriminator 1 view .LVU539
	mov	BYTE PTR [rcx], r15b	# *outp_913, prephitmp_907
	.loc 1 128 13 is_stmt 1 view .LVU540
.LBB2483:
.LBI2470:
	.loc 13 3614 5 view .LVU541
	.loc 13 3616 7 discriminator 2 view .LVU542
.LBB2474:
.LBI2474:
	.loc 10 256 5 view .LVU543
.LBB2475:
# /usr/include/c++/16/bits/stl_algobase.h:261:       if (__a < __b)
	.loc 10 261 7 is_stmt 0 view .LVU544
	xor	r15d, r15d	# prephitmp_900
	vcomiss	xmm3, xmm2	# tmp582, _904
	ja	.L59	#,
.LBE2475:
.LBE2474:
.LBE2483:
# src/avx_analysis_code_ablations/opt7_5_abl_compiler_vec.cpp:128:             outp[1] = (unsigned char)std::clamp(vp[1] * inv_c + 0.5f, 0.0f, 255.0f);
	.loc 1 128 63 view .LVU545
	vaddss	xmm2, xmm2, xmm5	# _903, _904, tmp584
.LBB2484:
.LBB2476:
.LBB2473:
# /usr/include/c++/16/bits/stl_algobase.h:237:       if (__b < __a)
	.loc 10 237 7 view .LVU546
	vminss	xmm2, xmm2, xmm4	# _903, _903, tmp587
.LBE2473:
.LBE2476:
.LBE2484:
# src/avx_analysis_code_ablations/opt7_5_abl_compiler_vec.cpp:128:             outp[1] = (unsigned char)std::clamp(vp[1] * inv_c + 0.5f, 0.0f, 255.0f);
	.loc 1 128 23 discriminator 1 view .LVU547
	vcvttss2si	r15d, xmm2	# prephitmp_900, _903
.L59:
.LBB2485:
.LBB2477:
.LBI2471:
	.loc 10 232 5 is_stmt 1 view .LVU548
.LBE2477:
.LBE2485:
# src/avx_analysis_code_ablations/opt7_5_abl_compiler_vec.cpp:129:             outp[2] = (unsigned char)std::clamp(vp[2] * inv_c + 0.5f, 0.0f, 255.0f);
	.loc 1 129 55 is_stmt 0 view .LVU549
	vmulss	xmm1, xmm1, DWORD PTR 8[r10+rax*4]	# _897, inv_c, MEM[(const float *)_852 + 8B + ivtmp.324_885 * 4]
.LVL118:
# src/avx_analysis_code_ablations/opt7_5_abl_compiler_vec.cpp:128:             outp[1] = (unsigned char)std::clamp(vp[1] * inv_c + 0.5f, 0.0f, 255.0f);
	.loc 1 128 21 discriminator 1 view .LVU550
	mov	BYTE PTR 1[rcx], r15b	# MEM[(unsigned char *)outp_913 + 1B], prephitmp_900
	.loc 1 129 13 is_stmt 1 view .LVU551
.LBB2486:
.LBI2486:
	.loc 13 3614 5 view .LVU552
	.loc 13 3616 7 discriminator 2 view .LVU553
.LBB2487:
.LBI2487:
	.loc 10 256 5 view .LVU554
.LBB2488:
# /usr/include/c++/16/bits/stl_algobase.h:261:       if (__a < __b)
	.loc 10 261 7 is_stmt 0 view .LVU555
	xor	r15d, r15d	# prephitmp_893
	vcomiss	xmm3, xmm1	# tmp582, _897
	ja	.L58	#,
.LBE2488:
.LBE2487:
.LBE2486:
# src/avx_analysis_code_ablations/opt7_5_abl_compiler_vec.cpp:129:             outp[2] = (unsigned char)std::clamp(vp[2] * inv_c + 0.5f, 0.0f, 255.0f);
	.loc 1 129 63 view .LVU556
	vaddss	xmm1, xmm1, xmm7	# _896, _897, tmp588
.LBB2492:
.LBB2489:
.LBB2490:
# /usr/include/c++/16/bits/stl_algobase.h:237:       if (__b < __a)
	.loc 10 237 7 view .LVU557
	vminss	xmm1, xmm1, xmm4	# _896, _896, tmp587
.LBE2490:
.LBE2489:
.LBE2492:
# src/avx_analysis_code_ablations/opt7_5_abl_compiler_vec.cpp:129:             outp[2] = (unsigned char)std::clamp(vp[2] * inv_c + 0.5f, 0.0f, 255.0f);
	.loc 1 129 23 discriminator 1 view .LVU558
	vcvttss2si	r15d, xmm1	# prephitmp_893, _896
.L58:
.LBB2493:
.LBB2491:
.LBI2489:
	.loc 10 232 5 is_stmt 1 view .LVU559
.LBE2491:
.LBE2493:
# src/avx_analysis_code_ablations/opt7_5_abl_compiler_vec.cpp:129:             outp[2] = (unsigned char)std::clamp(vp[2] * inv_c + 0.5f, 0.0f, 255.0f);
	.loc 1 129 21 is_stmt 0 discriminator 1 view .LVU560
	mov	BYTE PTR 2[rcx], r15b	# MEM[(unsigned char *)outp_913 + 2B], prephitmp_893
.LVL119:
.L51:
	.loc 1 129 21 discriminator 1 view .LVU561
.LBE2497:
	.loc 1 121 9 is_stmt 1 discriminator 1 view .LVU562
	.loc 1 121 27 discriminator 2 view .LVU563
	add	rax, 3	# ivtmp.324,
	add	rdx, 4	# ivtmp.321,
.LVL120:
	.loc 1 121 27 is_stmt 0 discriminator 2 view .LVU564
	cmp	rsi, rax	# ivtmp.329, ivtmp.324
	jne	.L61	#,
.LBE2500:
	.loc 1 120 5 is_stmt 1 discriminator 1 view .LVU565
	inc	r8d	# y
.LVL121:
	.loc 1 120 23 discriminator 2 view .LVU566
	add	rsi, r9	# ivtmp.329, _483
	add	r11, rbp	# ivtmp.331, _1016
	add	rdi, r14	# ivtmp.334, _325
	cmp	r12d, r8d	# _943, y
	jne	.L62	#,
.LVL122:
.L49:
	.loc 1 120 23 is_stmt 0 discriminator 2 view .LVU567
.LBE2502:
	.loc 1 133 5 is_stmt 1 view .LVU568
.LBB2503:
.LBI2503:
	.loc 2 790 7 view .LVU569
.LBB2504:
.LBI2504:
	.loc 2 307 7 view .LVU570
	.loc 2 307 7 is_stmt 0 view .LVU571
.LBE2504:
.LBB2505:
.LBI2505:
	.loc 8 1082 5 is_stmt 1 view .LVU572
	.loc 8 1082 5 is_stmt 0 view .LVU573
.LBE2505:
.LBB2506:
.LBI2506:
	.loc 2 373 7 is_stmt 1 view .LVU574
.LBB2507:
.LBB2508:
.LBI2508:
	.loc 2 394 7 view .LVU575
.LBB2509:
# /usr/include/c++/16/bits/stl_vector.h:397: 	if (__p)
	.loc 2 397 2 is_stmt 0 view .LVU576
	test	r10, r10	# _851
	je	.L28	#,
.LVL123:
.L72:
.LBB2510:
.LBI2510:
	.loc 8 688 7 is_stmt 1 view .LVU577
.LBB2511:
.LBI2511:
	.loc 6 167 7 view .LVU578
.LBB2512:
# /usr/include/c++/16/bits/new_allocator.h:183: 	_GLIBCXX_OPERATOR_DELETE(_GLIBCXX_SIZED_DEALLOC(__p, __n));
	.loc 6 183 59 is_stmt 0 view .LVU579
	mov	rsi, QWORD PTR 48[rsp]	#, %sfp
	mov	rdi, r10	#, _851
	call	"_ZdlPvm"@PLT	#
.LVL124:
	.loc 6 183 59 view .LVU580
.LBE2512:
.LBE2511:
.LBE2510:
.LBE2509:
.LBE2508:
.LBE2507:
.LBB2513:
.LBI2513:
	.loc 2 139 14 is_stmt 1 view .LVU581
.LBB2514:
.LBI2514:
	.loc 5 189 7 view .LVU582
.LBB2515:
.LBI2515:
	.loc 6 104 7 view .LVU583
	.loc 6 104 7 is_stmt 0 view .LVU584
.LBE2515:
.LBE2514:
.LBE2513:
.LBE2506:
.LBE2503:
.LBB2516:
.LBI2516:
	.loc 2 790 7 is_stmt 1 view .LVU585
.LBB2517:
.LBI2517:
	.loc 2 307 7 view .LVU586
	.loc 2 307 7 is_stmt 0 view .LVU587
.LBE2517:
.LBB2518:
.LBI2518:
	.loc 8 1082 5 is_stmt 1 view .LVU588
	.loc 8 1082 5 is_stmt 0 view .LVU589
.LBE2518:
.LBB2519:
.LBI2519:
	.loc 2 373 7 is_stmt 1 view .LVU590
.L28:
.LBB2520:
.LBB2521:
.LBI2521:
	.loc 2 394 7 view .LVU591
.LBB2522:
# /usr/include/c++/16/bits/stl_vector.h:397: 	if (__p)
	.loc 2 397 2 is_stmt 0 view .LVU592
	test	r13, r13	# _437
	je	.L63	#,
.LVL125:
.LBB2523:
.LBI2523:
	.loc 8 688 7 is_stmt 1 view .LVU593
.LBB2524:
.LBI2524:
	.loc 6 167 7 view .LVU594
.LBB2525:
# /usr/include/c++/16/bits/new_allocator.h:183: 	_GLIBCXX_OPERATOR_DELETE(_GLIBCXX_SIZED_DEALLOC(__p, __n));
	.loc 6 183 59 is_stmt 0 view .LVU595
	mov	rsi, QWORD PTR 88[rsp]	#, %sfp
	mov	rdi, r13	#, _437
	call	"_ZdlPvm"@PLT	#
.LVL126:
.L63:
	.loc 6 183 59 view .LVU596
.LBE2525:
.LBE2524:
.LBE2523:
.LBE2522:
.LBE2521:
.LBE2520:
.LBB2526:
.LBI2526:
	.loc 2 139 14 is_stmt 1 view .LVU597
.LBB2527:
.LBI2527:
	.loc 5 189 7 view .LVU598
.LBB2528:
.LBI2528:
	.loc 6 104 7 view .LVU599
	.loc 6 104 7 is_stmt 0 view .LVU600
.LBE2528:
.LBE2527:
.LBE2526:
.LBE2519:
.LBE2516:
.LBB2529:
.LBI2132:
	.loc 2 790 7 is_stmt 1 view .LVU601
.LBB2146:
.LBI2146:
	.loc 2 307 7 view .LVU602
	.loc 2 307 7 is_stmt 0 view .LVU603
.LBE2146:
.LBB2147:
.LBI2147:
	.loc 8 1082 5 is_stmt 1 view .LVU604
	.loc 8 1082 5 is_stmt 0 view .LVU605
.LBE2147:
.LBB2148:
.LBI2133:
	.loc 2 373 7 is_stmt 1 view .LVU606
.LBB2142:
.LBB2135:
.LBI2135:
	.loc 2 394 7 view .LVU607
.LBB2136:
# /usr/include/c++/16/bits/stl_vector.h:397: 	if (__p)
	.loc 2 397 2 is_stmt 0 view .LVU608
	mov	rax, QWORD PTR 8[rsp]	# params$_M_start, %sfp
	test	rax, rax	# params$_M_start
	je	.L1	#,
.LVL127:
.LBB2137:
.LBI2137:
	.loc 2 394 7 is_stmt 1 view .LVU609
.LBB2138:
.LBB2139:
.LBI2139:
	.loc 8 688 7 view .LVU610
.LBB2140:
.LBI2140:
	.loc 6 167 7 view .LVU611
.LBB2141:
# /usr/include/c++/16/bits/new_allocator.h:183: 	_GLIBCXX_OPERATOR_DELETE(_GLIBCXX_SIZED_DEALLOC(__p, __n));
	.loc 6 183 59 is_stmt 0 view .LVU612
	mov	rsi, QWORD PTR 80[rsp]	#, %sfp
	mov	rdi, rax	#, params$_M_start
	call	"_ZdlPvm"@PLT	#
.LVL128:
	.loc 6 183 59 view .LVU613
.LBE2141:
.LBE2140:
.LBE2139:
.LBE2138:
.LBE2137:
.LBE2136:
.LBE2135:
.LBE2142:
.LBB2143:
.LBI2143:
	.loc 2 139 14 is_stmt 1 view .LVU614
.LBB2144:
.LBI2144:
	.loc 5 189 7 view .LVU615
.LBB2145:
.LBI2145:
	.loc 6 104 7 view .LVU616
.L1:
	.loc 6 104 7 is_stmt 0 view .LVU617
.LBE2145:
.LBE2144:
.LBE2143:
.LBE2148:
.LBE2529:
# src/avx_analysis_code_ablations/opt7_5_abl_compiler_vec.cpp:134: }
	.loc 1 134 1 view .LVU618
	add	rsp, 168	#,
	.cfi_remember_state
	.cfi_def_cfa_offset 56
	mov	rax, rbx	#, <retval>
	pop	rbx	#
	.cfi_def_cfa_offset 48
	pop	rbp	#
	.cfi_def_cfa_offset 40
	pop	r12	#
	.cfi_def_cfa_offset 32
	pop	r13	#
	.cfi_def_cfa_offset 24
	pop	r14	#
	.cfi_def_cfa_offset 16
	pop	r15	#
	.cfi_def_cfa_offset 8
	ret	
.LVL129:
.L151:
	.cfi_restore_state
.LBB2530:
.LBB1959:
.LBB1953:
.LBB1946:
.LBB1941:
# /usr/include/c++/16/bits/stl_vector.h:106: 	: _M_start(), _M_finish(), _M_end_of_storage()
	.loc 2 106 29 view .LVU619
	mov	QWORD PTR 32[rsp], 0	# %sfp,
.LBE1941:
.LBE1946:
.LBE1953:
.LBE1959:
.LBE2530:
# src/avx_analysis_code_ablations/opt7_5_abl_compiler_vec.cpp:27:     const int w = static_cast<int>(width);
	.loc 1 27 15 view .LVU620
	mov	r15d, eax	# _181, _325
# src/avx_analysis_code_ablations/opt7_5_abl_compiler_vec.cpp:28:     const int h = static_cast<int>(height);
	.loc 1 28 15 view .LVU621
	mov	r12d, esi	# _943, _434
.LVL130:
	.loc 1 38 5 is_stmt 1 view .LVU622
.LBB2531:
.LBB2126:
	.loc 2 988 7 view .LVU623
.LBB1989:
	.loc 3 1058 7 view .LVU624
	.loc 3 1058 7 is_stmt 0 view .LVU625
.LBE1989:
.LBE2126:
.LBB2127:
	.loc 2 1008 7 is_stmt 1 view .LVU626
.LBB1992:
	.loc 3 1058 7 view .LVU627
	.loc 3 1058 7 is_stmt 0 view .LVU628
.LBE1992:
.LBE2127:
	.loc 1 38 34 is_stmt 1 discriminator 5 view .LVU629
.LBE2531:
.LBB2532:
.LBB1960:
.LBB1954:
.LBB1947:
.LBB1942:
# /usr/include/c++/16/bits/stl_vector.h:106: 	: _M_start(), _M_finish(), _M_end_of_storage()
	.loc 2 106 4 is_stmt 0 view .LVU630
	xor	ebp, ebp	# __new_finish
.LVL131:
	.loc 2 106 4 view .LVU631
.LBE1942:
.LBE1947:
.LBE1954:
.LBE1960:
.LBE2532:
.LBB2533:
# src/avx_analysis_code_ablations/opt7_5_abl_compiler_vec.cpp:38:     for (SubApertureImage& sub : subapertures) {
	.loc 1 38 34 discriminator 6 view .LVU632
	cmp	rcx, rdx	# SR.264, _67
	jne	.L5	#,
.LBE2533:
.LBB2534:
.LBB1961:
.LBB1955:
.LBB1948:
.LBB1943:
# /usr/include/c++/16/bits/stl_vector.h:106: 	: _M_start(), _M_finish(), _M_end_of_storage()
	.loc 2 106 4 view .LVU633
	mov	QWORD PTR 8[rsp], 0	# %sfp,
.LVL132:
.L79:
	.loc 2 106 4 view .LVU634
.LBE1943:
.LBE1948:
.LBE1955:
.LBE1961:
.LBE2534:
.LBB2535:
.LBB2201:
.LBB2181:
.LBB2179:
# /usr/include/c++/16/bits/stl_vector.h:409: 	this->_M_impl._M_end_of_storage = this->_M_impl._M_start + __n;
	.loc 2 409 59 view .LVU635
	mov	QWORD PTR 88[rsp], 0	# %sfp,
.LBB2177:
.LBB2175:
# /usr/include/c++/16/bits/stl_vector.h:389: 	return __n != 0 ? _Tr::allocate(_M_impl, __n) : pointer();
	.loc 2 389 58 discriminator 3 view .LVU636
	xor	r13d, r13d	# _437
	jmp	.L18	#
.LVL133:
.L2:
	.loc 2 389 58 discriminator 3 view .LVU637
.LBE2175:
.LBE2177:
.LBE2179:
.LBE2181:
.LBE2201:
.LBE2535:
.LBB2536:
.LBB1929:
.LBB1925:
.LBB1921:
.LBB1848:
.LBB1849:
.LBI1849:
	.loc 2 589 7 is_stmt 1 view .LVU638
.LBB1850:
.LBI1850:
	.loc 2 2203 7 view .LVU639
.LBB1851:
.LBB1852:
.LBI1852:
	.loc 5 172 7 view .LVU640
.LBB1853:
.LBI1853:
	.loc 6 92 7 view .LVU641
	.loc 6 92 7 is_stmt 0 view .LVU642
.LBE1853:
.LBE1852:
.LBB1854:
.LBI1854:
	.loc 5 189 7 is_stmt 1 view .LVU643
.LBB1855:
.LBI1855:
	.loc 6 104 7 view .LVU644
.LBE1855:
.LBE1854:
# /usr/include/c++/16/bits/stl_vector.h:2205: 	if (__n > _S_max_size(_Tp_alloc_type(__a)))
	.loc 2 2205 2 is_stmt 0 discriminator 3 view .LVU645
	cmp	QWORD PTR 56[rsp], 0	# %sfp,
	js	.L141	#,
	mov	QWORD PTR 8[rsp], rcx	# %sfp, SR.264
.LVL134:
	.loc 2 2205 2 discriminator 3 view .LVU646
.LBE1851:
.LBE1850:
.LBB1857:
.LBI1857:
	.loc 2 339 7 is_stmt 1 view .LVU647
.LBB1858:
.LBI1858:
	.loc 2 152 2 view .LVU648
.LBB1859:
.LBI1859:
	.loc 5 172 7 view .LVU649
.LBB1860:
.LBI1860:
	.loc 6 92 7 view .LVU650
	.loc 6 92 7 is_stmt 0 view .LVU651
.LBE1860:
.LBE1859:
.LBB1861:
.LBI1861:
	.loc 2 105 2 is_stmt 1 view .LVU652
	.loc 2 105 2 is_stmt 0 view .LVU653
.LBE1861:
.LBE1858:
.LBB1862:
.LBI1862:
	.loc 2 405 7 is_stmt 1 view .LVU654
.LBB1863:
.LBB1864:
.LBI1864:
	.loc 2 386 7 view .LVU655
.LBB1865:
.LBB1866:
.LBI1866:
	.loc 8 637 7 view .LVU656
.LBB1867:
.LBI1867:
	.loc 6 129 7 view .LVU657
	mov	r14, rdi	# _5, _5
	vmovss	DWORD PTR 32[rsp], xmm4	# %sfp, focus
.LEHB3:
.LBB1868:
# /usr/include/c++/16/bits/new_allocator.h:162: 	  return static_cast<_Tp*>(_GLIBCXX_OPERATOR_NEW(__n * sizeof(_Tp)));
	.loc 6 162 68 is_stmt 0 view .LVU658
	call	"_Znwm"@PLT	#
.LVL135:
.LEHE3:
	.loc 6 162 68 view .LVU659
.LBE1868:
.LBE1867:
.LBE1866:
.LBE1865:
.LBE1864:
.LBE1863:
.LBE1862:
.LBE1857:
.LBB1878:
.LBB1879:
.LBB1880:
.LBB1881:
.LBB1882:
.LBB1883:
# /usr/include/c++/16/bits/stl_uninitialized.h:577: 		      __builtin_memset(__dest, (unsigned char)__x, __n);
	.loc 12 577 25 view .LVU660
	xor	esi, esi	#
.LBE1883:
.LBE1882:
.LBE1881:
.LBE1880:
.LBE1879:
.LBE1878:
.LBB1891:
.LBB1876:
.LBB1874:
.LBB1873:
.LBB1872:
.LBB1871:
.LBB1870:
.LBB1869:
# /usr/include/c++/16/bits/new_allocator.h:162: 	  return static_cast<_Tp*>(_GLIBCXX_OPERATOR_NEW(__n * sizeof(_Tp)));
	.loc 6 162 68 view .LVU661
	mov	rdi, rax	# tmp600,
.LVL136:
	.loc 6 162 68 view .LVU662
.LBE1869:
.LBE1870:
.LBE1871:
.LBE1872:
.LBE1873:
# /usr/include/c++/16/bits/stl_vector.h:409: 	this->_M_impl._M_end_of_storage = this->_M_impl._M_start + __n;
	.loc 2 409 59 view .LVU663
	lea	r12, [rax+r14]	# _614,
.LVL137:
	.loc 2 409 59 view .LVU664
.LBE1874:
.LBE1876:
.LBE1891:
.LBB1892:
.LBI1878:
	.loc 2 1987 7 is_stmt 1 view .LVU665
.LBB1889:
.LBI1879:
	.loc 12 771 5 view .LVU666
.LBB1887:
.LBI1880:
	.loc 12 550 5 view .LVU667
	.loc 12 550 5 is_stmt 0 view .LVU668
.LBE1887:
.LBE1889:
.LBE1892:
.LBB1893:
.LBB1877:
.LBB1875:
# /usr/include/c++/16/bits/stl_vector.h:409: 	this->_M_impl._M_end_of_storage = this->_M_impl._M_start + __n;
	.loc 2 409 59 view .LVU669
	mov	rdx, r14	# _5, _5
.LBE1875:
.LBE1877:
.LBE1893:
.LBB1894:
.LBB1890:
.LBB1888:
.LBB1886:
.LBB1885:
.LBB1884:
# /usr/include/c++/16/bits/stl_uninitialized.h:577: 		      __builtin_memset(__dest, (unsigned char)__x, __n);
	.loc 12 577 25 view .LVU670
	call	"memset"@PLT	#
.LVL138:
	.loc 12 577 25 view .LVU671
.LBE1884:
.LBE1885:
.LBE1886:
.LBE1888:
.LBE1890:
.LBE1894:
.LBE1849:
.LBB1896:
.LBI1896:
	.loc 2 128 2 is_stmt 1 view .LVU672
.LBB1897:
.LBB1898:
.LBI1898:
	.loc 2 105 2 view .LVU673
	.loc 2 105 2 is_stmt 0 view .LVU674
.LBE1898:
.LBB1899:
.LBI1899:
	.loc 2 119 2 is_stmt 1 view .LVU675
.LBE1899:
.LBE1897:
.LBE1896:
.LBE1848:
.LBE1921:
.LBE1925:
.LBE1929:
.LBE2536:
.LBB2537:
.LBB1982:
# /usr/include/c++/16/bits/vector.tcc:75:       if (this->capacity() < __n)
	.loc 7 75 7 is_stmt 0 discriminator 1 view .LVU676
	mov	rcx, QWORD PTR 8[rsp]	# SR.264, %sfp
	vmovss	xmm4, DWORD PTR 32[rsp]	# focus, %sfp
.LBE1982:
.LBE2537:
.LBB2538:
.LBB1930:
.LBB1926:
.LBB1922:
.LBB1918:
.LBB1906:
.LBB1904:
.LBB1902:
.LBB1900:
# /usr/include/c++/16/bits/stl_vector.h:122: 	  _M_finish = __x._M_finish;
	.loc 2 122 14 view .LVU677
	mov	QWORD PTR 24[rbx], r12	# MEM[(struct _Vector_impl_data *)output_221(D) + 16B]._M_finish, _614
# /usr/include/c++/16/bits/stl_vector.h:121: 	  _M_start = __x._M_start;
	.loc 2 121 13 view .LVU678
	mov	QWORD PTR 16[rbx], rax	# MEM[(struct _Vector_impl_data *)output_221(D) + 16B]._M_start,
.LBE1900:
.LBE1902:
.LBE1904:
.LBE1906:
.LBE1918:
.LBE1922:
.LBE1926:
.LBE1930:
.LBE2538:
.LBB2539:
.LBB1967:
# /usr/include/c++/16/bits/stl_vector.h:1109: 	ptrdiff_t __dif = this->_M_impl._M_finish - this->_M_impl._M_start;
	.loc 2 1109 34 view .LVU679
	mov	rax, QWORD PTR 8[rbp]	# _67, MEM[(const struct vector *)subapertures_218(D)].D.101674._M_impl.D.101021._M_finish
.LVL139:
	.loc 2 1109 34 view .LVU680
.LBE1967:
.LBE2539:
.LBB2540:
.LBB1931:
.LBB1927:
.LBB1923:
.LBB1919:
.LBB1907:
.LBB1905:
.LBB1903:
.LBB1901:
# /usr/include/c++/16/bits/stl_vector.h:123: 	  _M_end_of_storage = __x._M_end_of_storage;
	.loc 2 123 22 view .LVU681
	mov	QWORD PTR 32[rbx], r12	# MEM[(struct _Vector_impl_data *)output_221(D) + 16B]._M_end_of_storage, _614
.LVL140:
	.loc 2 123 22 view .LVU682
.LBE1901:
.LBE1903:
.LBE1905:
.LBE1907:
.LBB1908:
.LBI1908:
	.loc 2 790 7 is_stmt 1 view .LVU683
.LBB1909:
.LBI1909:
	.loc 2 307 7 view .LVU684
	.loc 2 307 7 is_stmt 0 view .LVU685
.LBE1909:
.LBB1910:
.LBI1910:
	.loc 8 1082 5 is_stmt 1 view .LVU686
	.loc 8 1082 5 is_stmt 0 view .LVU687
.LBE1910:
.LBB1911:
.LBI1911:
	.loc 2 373 7 is_stmt 1 view .LVU688
.LBB1912:
.LBB1913:
.LBI1913:
	.loc 2 394 7 view .LVU689
	.loc 2 394 7 is_stmt 0 view .LVU690
.LBE1913:
.LBE1912:
.LBB1914:
.LBI1914:
	.loc 2 139 14 is_stmt 1 view .LVU691
.LBB1915:
.LBI1915:
	.loc 5 189 7 view .LVU692
.LBB1916:
.LBI1916:
	.loc 6 104 7 view .LVU693
	.loc 6 104 7 is_stmt 0 view .LVU694
.LBE1916:
.LBE1915:
.LBE1914:
.LBE1911:
.LBE1908:
.LBE1919:
.LBE1923:
.LBE1927:
.LBE1931:
.LBE2540:
	.loc 1 35 5 is_stmt 1 view .LVU695
.LBB2541:
	.loc 2 551 7 view .LVU696
.LBB1962:
	.loc 2 321 7 view .LVU697
.LBB1956:
	.loc 2 143 2 view .LVU698
.LBB1949:
	.loc 5 168 7 view .LVU699
.LBB1938:
	.loc 6 88 7 view .LVU700
	.loc 6 88 7 is_stmt 0 view .LVU701
.LBE1938:
.LBE1949:
.LBB1950:
	.loc 2 105 2 is_stmt 1 view .LVU702
	.loc 2 105 2 is_stmt 0 view .LVU703
.LBE1950:
.LBE1956:
.LBE1962:
.LBE2541:
	.loc 1 36 5 is_stmt 1 view .LVU704
.LBB2542:
	.loc 2 1107 7 view .LVU705
	.loc 2 1107 7 is_stmt 0 view .LVU706
.LBE2542:
.LBB2543:
	.loc 7 70 5 is_stmt 1 view .LVU707
	.loc 7 70 5 is_stmt 0 view .LVU708
.LBE2543:
.LBB2544:
.LBB1968:
# /usr/include/c++/16/bits/stl_vector.h:1109: 	ptrdiff_t __dif = this->_M_impl._M_finish - this->_M_impl._M_start;
	.loc 2 1109 34 view .LVU709
	mov	QWORD PTR 16[rsp], rax	# %sfp, _67
.LBE1968:
.LBE2544:
.LBB2545:
.LBB1983:
# /usr/include/c++/16/bits/vector.tcc:75:       if (this->capacity() < __n)
	.loc 7 75 7 discriminator 1 view .LVU710
	sub	rax, rcx	# prephitmp_751, SR.264
.LVL141:
	.loc 7 75 7 discriminator 1 view .LVU711
	mov	QWORD PTR 80[rsp], rax	# %sfp, prephitmp_751
	jne	.L4	#,
.LBE1983:
.LBE2545:
.LBB2546:
.LBB1963:
.LBB1957:
.LBB1951:
.LBB1944:
# /usr/include/c++/16/bits/stl_vector.h:106: 	: _M_start(), _M_finish(), _M_end_of_storage()
	.loc 2 106 29 view .LVU712
	mov	QWORD PTR 32[rsp], 0	# %sfp,
.LVL142:
# /usr/include/c++/16/bits/stl_vector.h:106: 	: _M_start(), _M_finish(), _M_end_of_storage()
	.loc 2 106 4 view .LVU713
	xor	ebp, ebp	# __new_finish
.LVL143:
	.loc 2 106 4 view .LVU714
	jmp	.L8	#
.LVL144:
.L153:
	.loc 2 106 4 view .LVU715
.LBE1944:
.LBE1951:
.LBE1957:
.LBE1963:
.LBE2546:
.LBB2547:
	.loc 1 84 31 is_stmt 1 discriminator 5 view .LVU716
.LBE2547:
.LBB2548:
.LBB2432:
.LBB2408:
.LBB2403:
.LBB2397:
.LBB2391:
# /usr/include/c++/16/bits/stl_vector.h:389: 	return __n != 0 ? _Tr::allocate(_M_impl, __n) : pointer();
	.loc 2 389 58 is_stmt 0 discriminator 3 view .LVU717
	xor	r10d, r10d	# _851
.LBE2391:
.LBE2397:
.LBE2403:
.LBE2408:
.LBE2432:
.LBE2548:
.LBB2549:
# src/avx_analysis_code_ablations/opt7_5_abl_compiler_vec.cpp:84:     for (const SubParams& p : params) {
	.loc 1 84 31 discriminator 6 view .LVU718
	cmp	QWORD PTR 8[rsp], rbp	# %sfp, __new_finish
	jne	.L41	#,
.LVL145:
	.loc 1 84 31 discriminator 6 view .LVU719
.LBE2549:
.LBB2550:
	.loc 1 120 23 is_stmt 1 discriminator 2 view .LVU720
	test	r12d, r12d	# _943
	jg	.L30	#,
	jmp	.L28	#
.LVL146:
	.p2align 4,,10
	.p2align 3
.L152:
	.loc 1 120 23 is_stmt 0 discriminator 2 view .LVU721
.LBE2550:
.LBB2551:
.LBB2338:
.LBB2274:
.LBB2270:
.LBB2267:
.LBB2264:
.LBB2261:
.LBB2258:
.LBB2255:
	.loc 12 118 7 is_stmt 1 view .LVU722
	.loc 12 118 7 is_stmt 0 view .LVU723
.LBE2255:
.LBE2258:
.LBE2261:
.LBE2264:
.LBE2267:
.LBE2270:
.LBE2274:
.LBE2338:
.LBB2339:
	.loc 5 189 7 is_stmt 1 view .LVU724
.LBB2300:
	.loc 6 104 7 view .LVU725
	.loc 6 104 7 is_stmt 0 view .LVU726
.LBE2300:
.LBE2339:
	.loc 1 67 9 is_stmt 1 view .LVU727
.LBB2340:
.LBB2295:
	.loc 2 988 7 view .LVU728
.LBB2280:
	.loc 3 1058 7 view .LVU729
	.loc 3 1058 7 is_stmt 0 view .LVU730
.LBE2280:
.LBE2295:
.LBB2296:
	.loc 2 1008 7 is_stmt 1 view .LVU731
.LBB2283:
	.loc 3 1058 7 view .LVU732
	.loc 3 1058 7 is_stmt 0 view .LVU733
.LBE2283:
.LBE2296:
	.loc 1 67 35 is_stmt 1 discriminator 5 view .LVU734
.LBE2340:
.LBB2341:
.LBB2275:
.LBB2240:
.LBB2238:
.LBB2236:
.LBB2234:
# /usr/include/c++/16/bits/stl_vector.h:389: 	return __n != 0 ? _Tr::allocate(_M_impl, __n) : pointer();
	.loc 2 389 58 is_stmt 0 discriminator 3 view .LVU735
	xor	edi, edi	# _318
.LBE2234:
.LBE2236:
.LBE2238:
.LBE2240:
.LBE2275:
.LBE2341:
.LBB2342:
# src/avx_analysis_code_ablations/opt7_5_abl_compiler_vec.cpp:67:         for (const SubParams& p : params) {
	.loc 1 67 35 discriminator 6 view .LVU736
	cmp	QWORD PTR 8[rsp], rbp	# %sfp, __new_finish
	jne	.L24	#,
.LVL147:
	.loc 1 67 35 discriminator 6 view .LVU737
.LBE2342:
.LBB2343:
	.loc 1 73 27 is_stmt 1 discriminator 2 view .LVU738
	test	r12d, r12d	# _943
	jle	.L154	#,
	test	r15d, r15d	# _181
	jg	.L29	#,
.LVL148:
	.loc 1 73 27 is_stmt 0 discriminator 2 view .LVU739
.LBE2343:
.LBB2344:
.LBB2336:
.LBB2334:
	.loc 2 139 14 is_stmt 1 view .LVU740
.LBB2332:
	.loc 5 189 7 view .LVU741
.LBB2330:
	.loc 6 104 7 view .LVU742
	.loc 6 104 7 is_stmt 0 view .LVU743
.LBE2330:
.LBE2332:
.LBE2334:
.LBE2336:
.LBE2344:
.LBE2551:
	.loc 1 82 5 is_stmt 1 view .LVU744
.LBB2552:
	.loc 5 168 7 view .LVU745
.LBB2350:
	.loc 6 88 7 view .LVU746
	.loc 6 88 7 is_stmt 0 view .LVU747
.LBE2350:
.LBE2552:
.LBB2553:
	.loc 2 589 7 is_stmt 1 view .LVU748
.LBB2433:
	.loc 2 2203 7 view .LVU749
.LBB2367:
.LBB2363:
	.loc 5 172 7 view .LVU750
.LBB2357:
	.loc 6 92 7 view .LVU751
	.loc 6 92 7 is_stmt 0 view .LVU752
.LBE2357:
.LBE2363:
.LBB2364:
	.loc 5 189 7 is_stmt 1 view .LVU753
.LBB2361:
	.loc 6 104 7 view .LVU754
.LBE2361:
.LBE2364:
# /usr/include/c++/16/bits/stl_vector.h:2205: 	if (__n > _S_max_size(_Tp_alloc_type(__a)))
	.loc 2 2205 2 is_stmt 0 discriminator 3 view .LVU755
	cmp	rax, QWORD PTR 56[rsp]	# tmp418, %sfp
	jb	.L26	#,
.LVL149:
	.loc 2 2205 2 discriminator 3 view .LVU756
.LBE2367:
.LBE2433:
.LBB2434:
	.loc 2 339 7 is_stmt 1 view .LVU757
.LBB2409:
	.loc 2 152 2 view .LVU758
.LBB2377:
	.loc 5 172 7 view .LVU759
.LBB2374:
	.loc 6 92 7 view .LVU760
	.loc 6 92 7 is_stmt 0 view .LVU761
.LBE2374:
.LBE2377:
.LBB2378:
	.loc 2 105 2 is_stmt 1 view .LVU762
	.loc 2 105 2 is_stmt 0 view .LVU763
.LBE2378:
.LBE2409:
.LBB2410:
	.loc 2 405 7 is_stmt 1 view .LVU764
.LBB2404:
.LBB2398:
	.loc 2 386 7 view .LVU765
.LBB2392:
# /usr/include/c++/16/bits/stl_vector.h:389: 	return __n != 0 ? _Tr::allocate(_M_impl, __n) : pointer();
	.loc 2 389 18 is_stmt 0 view .LVU766
	cmp	QWORD PTR 48[rsp], 0	# %sfp,
	jne	.L27	#,
.LVL150:
.L30:
	.loc 2 389 18 view .LVU767
	mov	rax, QWORD PTR 40[rsp]	# _325, %sfp
.LBE2392:
.LBE2398:
# /usr/include/c++/16/bits/stl_vector.h:409: 	this->_M_impl._M_end_of_storage = this->_M_impl._M_start + __n;
	.loc 2 409 59 view .LVU768
	mov	QWORD PTR 48[rsp], 0	# %sfp,
.LBB2399:
.LBB2393:
# /usr/include/c++/16/bits/stl_vector.h:389: 	return __n != 0 ? _Tr::allocate(_M_impl, __n) : pointer();
	.loc 2 389 58 discriminator 3 view .LVU769
	xor	r10d, r10d	# _851
	lea	rdx, [rax+rax]	# tmp574,
	test	r15d, r15d	# _181
	jg	.L42	#,
	jmp	.L28	#
.LVL151:
	.p2align 4,,10
	.p2align 3
.L13:
	.loc 2 389 58 discriminator 3 view .LVU770
.LBE2393:
.LBE2399:
.LBE2404:
.LBE2410:
.LBE2434:
.LBE2553:
.LBB2554:
.LBB2128:
.LBB2122:
.LBB2120:
.LBB2019:
.LBI2019:
	.loc 7 565 7 is_stmt 1 view .LVU771
.LBB2020:
.LBB2021:
.LBI2021:
	.loc 2 2192 7 view .LVU772
.LBB2022:
.LBB2023:
.LBI2023:
	.loc 2 1107 7 view .LVU773
.LBB2024:
# /usr/include/c++/16/bits/stl_vector.h:1109: 	ptrdiff_t __dif = this->_M_impl._M_finish - this->_M_impl._M_start;
	.loc 2 1109 44 is_stmt 0 view .LVU774
	mov	rbp, QWORD PTR 32[rsp]	# _503, %sfp
# /usr/include/c++/16/bits/stl_vector.h:1109: 	ptrdiff_t __dif = this->_M_impl._M_finish - this->_M_impl._M_start;
	.loc 2 1109 12 view .LVU775
	movabs	rax, -6148914691236517205	# tmp390,
# /usr/include/c++/16/bits/stl_vector.h:1109: 	ptrdiff_t __dif = this->_M_impl._M_finish - this->_M_impl._M_start;
	.loc 2 1109 44 view .LVU776
	sub	rbp, QWORD PTR 8[rsp]	# _503, %sfp
.LVL152:
# /usr/include/c++/16/bits/stl_vector.h:1109: 	ptrdiff_t __dif = this->_M_impl._M_finish - this->_M_impl._M_start;
	.loc 2 1109 12 view .LVU777
	mov	rdx, rbp	# tmp388, _503
	sar	rdx, 4	# tmp388,
	imul	rdx, rax	# __dif_504, tmp390
.LVL153:
	.loc 2 1109 12 view .LVU778
.LBE2024:
.LBE2023:
# /usr/include/c++/16/bits/stl_vector.h:2194: 	if (max_size() - size() < __n)
	.loc 2 2194 2 discriminator 2 view .LVU779
	movabs	rax, 192153584101141162	# tmp391,
	cmp	rdx, rax	# __dif_504, tmp391
	je	.L142	#,
.LBB2025:
.LBB2026:
# /usr/include/c++/16/bits/stl_algobase.h:261:       if (__a < __b)
	.loc 10 261 7 view .LVU780
	test	rdx, rdx	# __dif_504
	mov	eax, 1	# tmp635,
	mov	QWORD PTR 144[rsp], rcx	# %sfp, SR.264
	cmovne	rax, rdx	# __dif_504,, _506
	mov	DWORD PTR 152[rsp], r10d	# %sfp, _21
	mov	DWORD PTR 140[rsp], esi	# %sfp, _16
.LBE2026:
.LBE2025:
# /usr/include/c++/16/bits/stl_vector.h:2197: 	const size_type __len = size() + (std::max)(size(), __n);
	.loc 2 2197 18 discriminator 3 view .LVU781
	add	rax, rdx	# __len_507, __dif_504
# /usr/include/c++/16/bits/stl_vector.h:2198: 	return (__len < size() || __len > max_size()) ? max_size() : __len;
	.loc 2 2198 25 discriminator 3 view .LVU782
	movabs	rdx, 192153584101141162	# tmp636,
	mov	DWORD PTR 120[rsp], r8d	# %sfp, _9
	cmp	rax, rdx	# __len_507, tmp636
	mov	DWORD PTR 116[rsp], r9d	# %sfp, _8
.LVL154:
.LBB2027:
.LBI2025:
	.loc 10 256 5 is_stmt 1 view .LVU783
	.loc 10 256 5 is_stmt 0 view .LVU784
.LBE2027:
.LBE2022:
.LBE2021:
.LBB2030:
.LBI2030:
	.loc 2 386 7 is_stmt 1 view .LVU785
.LBB2031:
.LBB2032:
.LBI2032:
	.loc 8 637 7 view .LVU786
.LBB2033:
.LBI2033:
	.loc 6 129 7 view .LVU787
	.loc 6 129 7 is_stmt 0 view .LVU788
.LBE2033:
.LBE2032:
.LBE2031:
.LBE2030:
.LBB2046:
.LBB2028:
# /usr/include/c++/16/bits/stl_vector.h:2198: 	return (__len < size() || __len > max_size()) ? max_size() : __len;
	.loc 2 2198 25 discriminator 3 view .LVU789
	cmova	rax, rdx	# __len_507,, __len_507, tmp636
	vmovss	DWORD PTR 156[rsp], xmm4	# %sfp, focus
	vmovss	DWORD PTR 136[rsp], xmm5	# %sfp, _15
.LBE2028:
.LBE2046:
.LBB2047:
.LBB2043:
.LBB2040:
.LBB2037:
.LBB2034:
# /usr/include/c++/16/bits/new_allocator.h:162: 	  return static_cast<_Tp*>(_GLIBCXX_OPERATOR_NEW(__n * sizeof(_Tp)));
	.loc 6 162 68 view .LVU790
	lea	rax, [rax+rax*2]	# _524,
	vmovss	DWORD PTR 132[rsp], xmm0	# %sfp, _14
	sal	rax, 4	# _524,
	vmovss	DWORD PTR 128[rsp], xmm1	# %sfp, _13
	mov	rdi, rax	#, tmp398
	mov	QWORD PTR 96[rsp], rax	# %sfp, tmp398
	vmovss	DWORD PTR 124[rsp], xmm2	# %sfp, _12
.LEHB4:
	call	"_Znwm"@PLT	#
.LVL155:
.LEHE4:
	.loc 6 162 68 view .LVU791
.LBE2034:
.LBE2037:
.LBE2040:
.LBE2043:
.LBE2047:
.LBB2048:
.LBB2049:
.LBB2050:
.LBB2051:
# /usr/include/c++/16/bits/new_allocator.h:203: 	{ ::new((void *)__p) _Up(std::forward<_Args>(__args)...); }
	.loc 6 203 4 discriminator 1 view .LVU792
	vmovss	xmm0, DWORD PTR 132[rsp]	# _14, %sfp
	vmovss	xmm2, DWORD PTR 124[rsp]	# _12, %sfp
.LBE2051:
.LBE2050:
.LBE2049:
.LBB2064:
.LBB2065:
.LBB2066:
# /usr/include/c++/16/bits/stl_uninitialized.h:1382:       if (__count > 0)
	.loc 12 1382 7 view .LVU793
	test	rbp, rbp	# _503
.LBE2066:
.LBE2065:
.LBE2064:
.LBE2048:
.LBB2113:
.LBB2044:
.LBB2041:
.LBB2038:
.LBB2035:
# /usr/include/c++/16/bits/new_allocator.h:162: 	  return static_cast<_Tp*>(_GLIBCXX_OPERATOR_NEW(__n * sizeof(_Tp)));
	.loc 6 162 68 view .LVU794
	mov	QWORD PTR 88[rsp], rax	# %sfp, _525
.LVL156:
	.loc 6 162 68 view .LVU795
.LBE2035:
.LBE2038:
.LBE2041:
.LBE2044:
.LBE2113:
.LBB2114:
.LBB2076:
.LBI2076:
	.loc 2 1865 2 is_stmt 1 view .LVU796
	.loc 2 1865 2 is_stmt 0 view .LVU797
.LBE2076:
.LBB2077:
.LBI2049:
	.loc 8 705 2 is_stmt 1 view .LVU798
.LBB2058:
.LBI2050:
	.loc 6 201 2 view .LVU799
.LBB2052:
# /usr/include/c++/16/bits/new_allocator.h:203: 	{ ::new((void *)__p) _Up(std::forward<_Args>(__args)...); }
	.loc 6 203 4 is_stmt 0 discriminator 1 view .LVU800
	mov	r9d, DWORD PTR 116[rsp]	# _8, %sfp
	mov	r8d, DWORD PTR 120[rsp]	# _9, %sfp
	mov	DWORD PTR 28[rax+rbp], r13d	# _512->x_end, _332
.LBE2052:
.LBE2058:
.LBE2077:
.LBE2114:
.LBB2115:
.LBB2045:
.LBB2042:
.LBB2039:
.LBB2036:
# /usr/include/c++/16/bits/new_allocator.h:162: 	  return static_cast<_Tp*>(_GLIBCXX_OPERATOR_NEW(__n * sizeof(_Tp)));
	.loc 6 162 68 view .LVU801
	mov	rdi, rax	# _525,
.LBE2036:
.LBE2039:
.LBE2042:
.LBE2045:
.LBE2115:
.LBB2116:
.LBB2078:
.LBB2059:
.LBB2053:
# /usr/include/c++/16/bits/new_allocator.h:203: 	{ ::new((void *)__p) _Up(std::forward<_Args>(__args)...); }
	.loc 6 203 4 discriminator 1 view .LVU802
	vinsertps	xmm0, xmm0, DWORD PTR 136[rsp], 0x10	# tmp401, _14, %sfp
	vinsertps	xmm2, xmm2, DWORD PTR 128[rsp], 0x10	# tmp402, _12, %sfp
	mov	DWORD PTR 36[rax+rbp], r14d	# _512->y_end, _333
.LBE2053:
.LBE2059:
.LBE2078:
.LBB2079:
.LBB2071:
.LBB2067:
# /usr/include/c++/16/bits/stl_uninitialized.h:1382:       if (__count > 0)
	.loc 12 1382 7 view .LVU803
	mov	r11d, 0	# tmp578,
.LBE2067:
.LBE2071:
.LBE2079:
.LBB2080:
.LBB2060:
.LBB2054:
# /usr/include/c++/16/bits/new_allocator.h:203: 	{ ::new((void *)__p) _Up(std::forward<_Args>(__args)...); }
	.loc 6 203 4 discriminator 1 view .LVU804
	mov	esi, DWORD PTR 140[rsp]	# _16, %sfp
	mov	r10d, DWORD PTR 152[rsp]	# _21, %sfp
	mov	DWORD PTR [rax+rbp], r9d	# _512->sx, _8
	mov	rdx, QWORD PTR 80[rsp]	# _228, %sfp
	vmovlhps	xmm2, xmm2, xmm0	# _674, tmp402, tmp401
.LBE2054:
.LBE2060:
.LBE2080:
.LBB2081:
.LBB2072:
.LBB2068:
# /usr/include/c++/16/bits/stl_uninitialized.h:1382:       if (__count > 0)
	.loc 12 1382 7 view .LVU805
	mov	rcx, QWORD PTR 144[rsp]	# SR.264, %sfp
.LBE2068:
.LBE2072:
.LBE2081:
.LBB2082:
.LBB2061:
.LBB2055:
# /usr/include/c++/16/bits/new_allocator.h:203: 	{ ::new((void *)__p) _Up(std::forward<_Args>(__args)...); }
	.loc 6 203 4 discriminator 1 view .LVU806
	mov	DWORD PTR 4[rax+rbp], r8d	# _512->sy, _9
	mov	DWORD PTR 24[rax+rbp], esi	# _512->x_begin, _16
.LBE2055:
.LBE2061:
.LBE2082:
.LBB2083:
.LBB2073:
.LBB2069:
# /usr/include/c++/16/bits/stl_uninitialized.h:1382:       if (__count > 0)
	.loc 12 1382 7 view .LVU807
	vmovss	xmm4, DWORD PTR 156[rsp]	# focus, %sfp
.LBE2069:
.LBE2073:
.LBE2083:
.LBB2084:
.LBB2062:
.LBB2056:
# /usr/include/c++/16/bits/new_allocator.h:203: 	{ ::new((void *)__p) _Up(std::forward<_Args>(__args)...); }
	.loc 6 203 4 discriminator 1 view .LVU808
	mov	DWORD PTR 32[rax+rbp], r10d	# _512->y_begin, _21
	mov	QWORD PTR 40[rax+rbp], rdx	# MEM <const unsigned char *> [(struct SubParams *)_512 + 40B], _228
.LVL157:
	.loc 6 203 4 discriminator 1 view .LVU809
.LBE2056:
.LBE2062:
.LBE2084:
.LBB2085:
.LBI2064:
	.loc 12 1404 5 is_stmt 1 view .LVU810
.LBB2074:
.LBI2065:
	.loc 12 1377 5 view .LVU811
	.loc 12 1377 5 is_stmt 0 view .LVU812
.LBE2074:
.LBE2085:
.LBB2086:
.LBB2063:
.LBB2057:
# /usr/include/c++/16/bits/new_allocator.h:203: 	{ ::new((void *)__p) _Up(std::forward<_Args>(__args)...); }
	.loc 6 203 4 discriminator 1 view .LVU813
	vmovups	XMMWORD PTR 8[rax+rbp], xmm2	# MEM <vector(4) float> [(float *)_512 + 8B], _674
.LBE2057:
.LBE2063:
.LBE2086:
.LBB2087:
.LBB2075:
.LBB2070:
# /usr/include/c++/16/bits/stl_uninitialized.h:1382:       if (__count > 0)
	.loc 12 1382 7 view .LVU814
	je	.L15	#,
# /usr/include/c++/16/bits/stl_uninitialized.h:1394: 	  __builtin_memcpy(__result, __first, __count * sizeof(_Tp));
	.loc 12 1394 20 view .LVU815
	mov	rsi, QWORD PTR 8[rsp]	#, %sfp
	mov	rdx, rbp	#, _503
	mov	QWORD PTR 80[rsp], rcx	# %sfp, SR.264
	vmovss	DWORD PTR 116[rsp], xmm4	# %sfp, focus
.LVL158:
	.loc 12 1394 20 view .LVU816
	call	"memcpy"@PLT	#
.LVL159:
	.loc 12 1394 20 view .LVU817
	vmovss	xmm4, DWORD PTR 116[rsp]	# focus, %sfp
	mov	rcx, QWORD PTR 80[rsp]	# SR.264, %sfp
	xor	r11d, r11d	# tmp578
.L15:
.LVL160:
	.loc 12 1394 20 view .LVU818
.LBE2070:
.LBE2075:
.LBE2087:
# /usr/include/c++/16/bits/vector.tcc:610: 	    ++__new_finish;
	.loc 7 610 6 view .LVU819
	mov	rax, QWORD PTR 88[rsp]	# _525, %sfp
	lea	rbp, 48[rax+rbp]	# __new_finish,
.LVL161:
.LBB2088:
.LBI2088:
	.loc 2 1870 2 is_stmt 1 view .LVU820
.LBB2089:
# /usr/include/c++/16/bits/stl_vector.h:1872: 	  if (_M_storage)
	.loc 2 1872 4 is_stmt 0 view .LVU821
	mov	rax, QWORD PTR 8[rsp]	# params$_M_start, %sfp
	test	rax, rax	# params$_M_start
	je	.L16	#,
.LBE2089:
.LBE2088:
# /usr/include/c++/16/bits/vector.tcc:648: 	__guard._M_len = this->_M_impl._M_end_of_storage - __old_start;
	.loc 7 648 51 view .LVU822
	mov	rsi, QWORD PTR 32[rsp]	# params$_M_end_of_storage, %sfp
.LBB2111:
.LBB2109:
.LBB2090:
.LBB2091:
.LBB2092:
.LBB2093:
.LBB2094:
.LBB2095:
.LBB2096:
# /usr/include/c++/16/bits/new_allocator.h:183: 	_GLIBCXX_OPERATOR_DELETE(_GLIBCXX_SIZED_DEALLOC(__p, __n));
	.loc 6 183 59 view .LVU823
	mov	rdi, rax	#, params$_M_start
	mov	QWORD PTR 8[rsp], rcx	# %sfp, SR.264
.LVL162:
	.loc 6 183 59 view .LVU824
.LBE2096:
.LBE2095:
.LBE2094:
.LBE2093:
.LBE2092:
.LBE2091:
.LBI2090:
	.loc 2 394 7 is_stmt 1 view .LVU825
.LBB2106:
.LBB2104:
.LBI2092:
	.loc 2 394 7 view .LVU826
.LBB2102:
.LBB2100:
.LBI2094:
	.loc 8 688 7 view .LVU827
.LBB2098:
.LBI2095:
	.loc 6 167 7 view .LVU828
	vmovss	DWORD PTR 80[rsp], xmm4	# %sfp, focus
.LBE2098:
.LBE2100:
.LBE2102:
.LBE2104:
.LBE2106:
.LBE2090:
.LBE2109:
.LBE2111:
# /usr/include/c++/16/bits/vector.tcc:648: 	__guard._M_len = this->_M_impl._M_end_of_storage - __old_start;
	.loc 7 648 51 is_stmt 0 view .LVU829
	sub	rsi, rax	# params$_M_end_of_storage, params$_M_start
.LBB2112:
.LBB2110:
.LBB2108:
.LBB2107:
.LBB2105:
.LBB2103:
.LBB2101:
.LBB2099:
.LBB2097:
# /usr/include/c++/16/bits/new_allocator.h:183: 	_GLIBCXX_OPERATOR_DELETE(_GLIBCXX_SIZED_DEALLOC(__p, __n));
	.loc 6 183 59 view .LVU830
	call	"_ZdlPvm"@PLT	#
.LVL163:
	.loc 6 183 59 view .LVU831
	vmovss	xmm4, DWORD PTR 80[rsp]	# focus, %sfp
	mov	rcx, QWORD PTR 8[rsp]	# SR.264, %sfp
.LVL164:
	.loc 6 183 59 view .LVU832
	xor	r11d, r11d	# tmp578
.LVL165:
.L16:
	.loc 6 183 59 view .LVU833
.LBE2097:
.LBE2099:
.LBE2101:
.LBE2103:
.LBE2105:
.LBE2107:
.LBE2108:
.LBE2110:
.LBE2112:
.LBE2116:
# /usr/include/c++/16/bits/vector.tcc:655:       this->_M_impl._M_end_of_storage = __new_start + __len;
	.loc 7 655 53 view .LVU834
	mov	rdx, QWORD PTR 88[rsp]	# _525, %sfp
	mov	rax, QWORD PTR 96[rsp]	# tmp398, %sfp
	add	rax, rdx	# tmp398, _525
.LVL166:
# /usr/include/c++/16/bits/vector.tcc:653:       this->_M_impl._M_start = __new_start;
	.loc 7 653 30 view .LVU835
	mov	QWORD PTR 8[rsp], rdx	# %sfp, _525
# /usr/include/c++/16/bits/vector.tcc:655:       this->_M_impl._M_end_of_storage = __new_start + __len;
	.loc 7 655 53 view .LVU836
	mov	QWORD PTR 32[rsp], rax	# %sfp, tmp398
.LVL167:
	.loc 7 655 53 view .LVU837
	jmp	.L12	#
.LVL168:
.L43:
	.loc 7 655 53 view .LVU838
.LBE2020:
.LBE2019:
.LBE2120:
.LBE2122:
.LBE2128:
.LBE2554:
.LBB2555:
	.loc 1 120 23 is_stmt 1 discriminator 2 view .LVU839
	test	r12d, r12d	# _943
	jle	.L72	#,
	mov	rax, QWORD PTR 40[rsp]	# _325, %sfp
	lea	rdx, [rax+rax]	# tmp574,
	test	r15d, r15d	# _181
	jg	.L42	#,
	jmp	.L72	#
.LVL169:
	.p2align 4,,10
	.p2align 3
.L31:
	.loc 1 120 23 is_stmt 0 discriminator 2 view .LVU840
.LBE2555:
.LBB2556:
.LBB2345:
	.loc 1 73 27 is_stmt 1 discriminator 2 view .LVU841
	test	r12d, r12d	# _943
	jle	.L35	#,
	test	r15d, r15d	# _181
	jg	.L29	#,
	jmp	.L35	#
.LVL170:
.L76:
	.loc 1 73 27 is_stmt 0 discriminator 2 view .LVU842
.LBE2345:
.LBE2556:
.LBB2557:
# src/avx_analysis_code_ablations/opt7_5_abl_compiler_vec.cpp:38:     for (SubApertureImage& sub : subapertures) {
	.loc 1 38 34 discriminator 6 view .LVU843
	mov	QWORD PTR 8[rsp], rbp	# %sfp, __new_finish
	jmp	.L9	#
.LVL171:
.L154:
	.loc 1 38 34 discriminator 6 view .LVU844
.LBE2557:
.LBB2558:
.LBB2346:
.LBB2337:
.LBB2335:
	.loc 2 139 14 is_stmt 1 view .LVU845
.LBB2333:
	.loc 5 189 7 view .LVU846
.LBB2331:
	.loc 6 104 7 view .LVU847
	.loc 6 104 7 is_stmt 0 view .LVU848
.LBE2331:
.LBE2333:
.LBE2335:
.LBE2337:
.LBE2346:
.LBE2558:
	.loc 1 82 5 is_stmt 1 view .LVU849
.LBB2559:
	.loc 5 168 7 view .LVU850
.LBB2351:
	.loc 6 88 7 view .LVU851
	.loc 6 88 7 is_stmt 0 view .LVU852
.LBE2351:
.LBE2559:
.LBB2560:
	.loc 2 589 7 is_stmt 1 view .LVU853
.LBB2435:
	.loc 2 2203 7 view .LVU854
.LBB2368:
.LBB2365:
	.loc 5 172 7 view .LVU855
.LBB2358:
	.loc 6 92 7 view .LVU856
	.loc 6 92 7 is_stmt 0 view .LVU857
.LBE2358:
.LBE2365:
.LBB2366:
	.loc 5 189 7 is_stmt 1 view .LVU858
.LBB2362:
	.loc 6 104 7 view .LVU859
.LBE2362:
.LBE2366:
# /usr/include/c++/16/bits/stl_vector.h:2205: 	if (__n > _S_max_size(_Tp_alloc_type(__a)))
	.loc 2 2205 2 is_stmt 0 discriminator 3 view .LVU860
	cmp	rax, QWORD PTR 56[rsp]	# tmp418, %sfp
	jb	.L26	#,
.LVL172:
	.loc 2 2205 2 discriminator 3 view .LVU861
.LBE2368:
.LBE2435:
.LBB2436:
	.loc 2 339 7 is_stmt 1 view .LVU862
.LBB2411:
	.loc 2 152 2 view .LVU863
.LBB2379:
	.loc 5 172 7 view .LVU864
.LBB2375:
	.loc 6 92 7 view .LVU865
	.loc 6 92 7 is_stmt 0 view .LVU866
.LBE2375:
.LBE2379:
.LBB2380:
	.loc 2 105 2 is_stmt 1 view .LVU867
	.loc 2 105 2 is_stmt 0 view .LVU868
.LBE2380:
.LBE2411:
.LBB2412:
	.loc 2 405 7 is_stmt 1 view .LVU869
.LBB2405:
.LBB2400:
	.loc 2 386 7 view .LVU870
.LBB2394:
# /usr/include/c++/16/bits/stl_vector.h:389: 	return __n != 0 ? _Tr::allocate(_M_impl, __n) : pointer();
	.loc 2 389 18 is_stmt 0 view .LVU871
	cmp	QWORD PTR 48[rsp], 0	# %sfp,
	jne	.L27	#,
	jmp	.L28	#
.LVL173:
.L87:
	.loc 2 389 18 view .LVU872
	mov	rbp, rax	# tmp564, tmp604
	vzeroupper
.LVL174:
	jmp	.L21	#
.LVL175:
.L137:
	.loc 2 389 18 view .LVU873
	jmp	.L138	#
.LVL176:
.L139:
	.loc 2 389 18 view .LVU874
	jmp	.L140	#
.LVL177:
.L135:
	.loc 2 389 18 view .LVU875
	jmp	.L136	#
.LVL178:
	.loc 2 389 18 view .LVU876
.LBE2394:
.LBE2400:
.LBE2405:
.LBE2412:
.LBE2436:
.LBE2560:
	.section	.gcc_except_table,"a",@progbits
.LLSDA4421:
	.byte	0xff
	.byte	0xff
	.byte	0x1
	.uleb128 .LLSDACSE4421-.LLSDACSB4421
.LLSDACSB4421:
	.uleb128 .LEHB0-.LFB4421
	.uleb128 .LEHE0-.LEHB0
	.uleb128 .L135-.LFB4421
	.uleb128 0
	.uleb128 .LEHB1-.LFB4421
	.uleb128 .LEHE1-.LEHB1
	.uleb128 .L87-.LFB4421
	.uleb128 0
	.uleb128 .LEHB2-.LFB4421
	.uleb128 .LEHE2-.LEHB2
	.uleb128 .L137-.LFB4421
	.uleb128 0
	.uleb128 .LEHB3-.LFB4421
	.uleb128 .LEHE3-.LEHB3
	.uleb128 .L135-.LFB4421
	.uleb128 0
	.uleb128 .LEHB4-.LFB4421
	.uleb128 .LEHE4-.LEHB4
	.uleb128 .L139-.LFB4421
	.uleb128 0
.LLSDACSE4421:
	.text
	.cfi_endproc
	.section	.text.unlikely
	.cfi_startproc
	.cfi_personality 0x9b,"DW.ref.__gxx_personality_v0"
	.cfi_lsda 0x1b,.LLSDAC4421
	.type	"_Z21refocus_shift_and_sumRSt6vectorI16SubApertureImageSaIS0_EEf.cold", @function
"_Z21refocus_shift_and_sumRSt6vectorI16SubApertureImageSaIS0_EEf.cold":
.LFSB4421:
.LBB2561:
.LBB2437:
.LBB2413:
.LBB2406:
.LBB2401:
.LBB2395:
.L143:
	.cfi_def_cfa_offset 224
	.cfi_offset 3, -56
	.cfi_offset 6, -48
	.cfi_offset 12, -40
	.cfi_offset 13, -32
	.cfi_offset 14, -24
	.cfi_offset 15, -16
.LBE2395:
.LBE2401:
.LBE2406:
.LBE2413:
.LBE2437:
.LBE2561:
.LBB2562:
.LBB2202:
.LBB2158:
# /usr/include/c++/16/bits/stl_vector.h:2206: 	  __throw_length_error(
	.loc 2 2206 24 view -0
	lea	rdi, .LC0[rip]	#,
.LEHB5:
	call	"_ZSt20__throw_length_errorPKc"@PLT	#
.LVL179:
.LEHE5:
.L26:
	.loc 2 2206 24 view .LVU878
.LBE2158:
.LBE2202:
.LBE2562:
.LBB2563:
.LBB2438:
.LBB2369:
	lea	rdi, .LC0[rip]	#,
.LEHB6:
	call	"_ZSt20__throw_length_errorPKc"@PLT	#
.LVL180:
.LEHE6:
.L142:
	.loc 2 2206 24 view .LVU879
.LBE2369:
.LBE2438:
.LBE2563:
.LBB2564:
.LBB2129:
.LBB2123:
.LBB2121:
.LBB2119:
.LBB2118:
.LBB2117:
.LBB2029:
# /usr/include/c++/16/bits/stl_vector.h:2195: 	  __throw_length_error(__N(__s));
	.loc 2 2195 24 view .LVU880
	lea	rdi, .LC2[rip]	#,
.LEHB7:
	call	"_ZSt20__throw_length_errorPKc"@PLT	#
.LVL181:
.LEHE7:
.L141:
	.loc 2 2195 24 view .LVU881
.LBE2029:
.LBE2117:
.LBE2118:
.LBE2119:
.LBE2121:
.LBE2123:
.LBE2129:
.LBE2564:
.LBB2565:
.LBB1932:
.LBB1928:
.LBB1924:
.LBB1920:
.LBB1917:
.LBB1895:
.LBB1856:
# /usr/include/c++/16/bits/stl_vector.h:2206: 	  __throw_length_error(
	.loc 2 2206 24 view .LVU882
	lea	rdi, .LC0[rip]	#,
.LVL182:
.LEHB8:
	.loc 2 2206 24 view .LVU883
	call	"_ZSt20__throw_length_errorPKc"@PLT	#
.LVL183:
.LEHE8:
.L144:
	.loc 2 2206 24 view .LVU884
.LBE1856:
.LBE1895:
.LBE1917:
.LBE1920:
.LBE1924:
.LBE1928:
.LBE1932:
.LBE2565:
.LBB2566:
.LBB2347:
.LBB2276:
.LBB2215:
	lea	rdi, .LC0[rip]	#,
.LEHB9:
	call	"_ZSt20__throw_length_errorPKc"@PLT	#
.LVL184:
.LEHE9:
.L85:
	.loc 2 2206 24 view .LVU885
.LBE2215:
.LBE2276:
.LBE2347:
.LBE2566:
.LBB2567:
.LBB2568:
.LBB2569:
.LBB2570:
.LBB2571:
# /usr/include/c++/16/bits/stl_vector.h:397: 	if (__p)
	.loc 2 397 2 view .LVU886
	mov	rbp, rax	# tmp564, tmp609
	vzeroupper
.LVL185:
.L21:
	.loc 2 397 2 view .LVU887
.LBE2571:
.LBE2570:
.LBE2569:
.LBE2568:
.LBI2567:
	.loc 2 790 7 is_stmt 1 view .LVU888
.LBB2589:
.LBI2589:
	.loc 2 307 7 view .LVU889
	.loc 2 307 7 is_stmt 0 view .LVU890
.LBE2589:
.LBB2590:
.LBI2590:
	.loc 8 1082 5 is_stmt 1 view .LVU891
	.loc 8 1082 5 is_stmt 0 view .LVU892
.LBE2590:
.LBB2591:
.LBI2568:
	.loc 2 373 7 is_stmt 1 view .LVU893
.LBB2585:
.LBB2583:
.LBI2570:
	.loc 2 394 7 view .LVU894
.LBB2581:
# /usr/include/c++/16/bits/stl_vector.h:397: 	if (__p)
	.loc 2 397 2 is_stmt 0 view .LVU895
	cmp	QWORD PTR 8[rsp], 0	# %sfp,
	je	.L69	#,
.LVL186:
.LBB2572:
.LBI2572:
	.loc 2 394 7 is_stmt 1 view .LVU896
.LBB2573:
.LBB2574:
.LBI2574:
	.loc 8 688 7 view .LVU897
.LBB2575:
.LBI2575:
	.loc 6 167 7 view .LVU898
.LBE2575:
.LBE2574:
.LBE2573:
.LBE2572:
.LBE2581:
.LBE2583:
# /usr/include/c++/16/bits/stl_vector.h:375: 	ptrdiff_t __n = _M_impl._M_end_of_storage - _M_impl._M_start;
	.loc 2 375 44 is_stmt 0 view .LVU899
	mov	rsi, QWORD PTR 32[rsp]	# params$_M_end_of_storage, %sfp
	mov	rdi, QWORD PTR 8[rsp]	# params$_M_start, %sfp
	sub	rsi, rdi	# params$_M_end_of_storage, params$_M_start
.LBB2584:
.LBB2582:
.LBB2580:
.LBB2579:
.LBB2578:
.LBB2577:
.LBB2576:
# /usr/include/c++/16/bits/new_allocator.h:183: 	_GLIBCXX_OPERATOR_DELETE(_GLIBCXX_SIZED_DEALLOC(__p, __n));
	.loc 6 183 59 view .LVU900
	call	"_ZdlPvm"@PLT	#
.LVL187:
	.loc 6 183 59 view .LVU901
.LBE2576:
.LBE2577:
.LBE2578:
.LBE2579:
.LBE2580:
.LBE2582:
.LBE2584:
.LBE2585:
.LBB2586:
.LBI2586:
	.loc 2 139 14 is_stmt 1 view .LVU902
.LBB2587:
.LBI2587:
	.loc 5 189 7 view .LVU903
.LBB2588:
.LBI2588:
	.loc 6 104 7 view .LVU904
.L69:
	.loc 6 104 7 is_stmt 0 view .LVU905
.LBE2588:
.LBE2587:
.LBE2586:
.LBE2591:
.LBE2567:
.LBB2592:
.LBI2592:
	.loc 4 11 8 is_stmt 1 view .LVU906
.LBB2593:
.LBI2593:
	.loc 2 790 7 view .LVU907
.LBB2594:
.LBI2594:
	.loc 2 307 7 view .LVU908
	.loc 2 307 7 is_stmt 0 view .LVU909
.LBE2594:
.LBB2595:
.LBI2595:
	.loc 8 1082 5 is_stmt 1 view .LVU910
	.loc 8 1082 5 is_stmt 0 view .LVU911
.LBE2595:
.LBB2596:
.LBI2596:
	.loc 2 373 7 is_stmt 1 view .LVU912
.LBB2597:
# /usr/include/c++/16/bits/stl_vector.h:375: 	ptrdiff_t __n = _M_impl._M_end_of_storage - _M_impl._M_start;
	.loc 2 375 54 is_stmt 0 view .LVU913
	mov	rdi, QWORD PTR 16[rbx]	# _391, MEM[(struct _Vector_base *)output_221(D) + 16B]._M_impl.D.86136._M_start
.LVL188:
.LBB2598:
.LBI2598:
	.loc 2 394 7 is_stmt 1 view .LVU914
.LBB2599:
# /usr/include/c++/16/bits/stl_vector.h:397: 	if (__p)
	.loc 2 397 2 is_stmt 0 view .LVU915
	test	rdi, rdi	# _391
	je	.L70	#,
.LVL189:
.LBB2600:
.LBI2600:
	.loc 8 688 7 is_stmt 1 view .LVU916
.LBB2601:
.LBI2601:
	.loc 6 167 7 view .LVU917
.LBE2601:
.LBE2600:
.LBE2599:
.LBE2598:
# /usr/include/c++/16/bits/stl_vector.h:375: 	ptrdiff_t __n = _M_impl._M_end_of_storage - _M_impl._M_start;
	.loc 2 375 12 is_stmt 0 view .LVU918
	mov	rsi, QWORD PTR 32[rbx]	# MEM[(struct _Vector_base *)output_221(D) + 16B]._M_impl.D.86136._M_end_of_storage, MEM[(struct _Vector_base *)output_221(D) + 16B]._M_impl.D.86136._M_end_of_storage
	sub	rsi, rdi	# __n_392, _391
.LBB2606:
.LBB2605:
.LBB2604:
.LBB2603:
.LBB2602:
# /usr/include/c++/16/bits/new_allocator.h:183: 	_GLIBCXX_OPERATOR_DELETE(_GLIBCXX_SIZED_DEALLOC(__p, __n));
	.loc 6 183 59 view .LVU919
	call	"_ZdlPvm"@PLT	#
.LVL190:
.L70:
	.loc 6 183 59 view .LVU920
.LBE2602:
.LBE2603:
.LBE2604:
.LBE2605:
.LBE2606:
.LBE2597:
.LBB2607:
.LBI2607:
	.loc 2 139 14 is_stmt 1 view .LVU921
.LBB2608:
.LBI2608:
	.loc 5 189 7 view .LVU922
.LBB2609:
.LBI2609:
	.loc 6 104 7 view .LVU923
	.loc 6 104 7 is_stmt 0 view .LVU924
	mov	rdi, rbp	#, tmp569
.LEHB10:
	call	"_Unwind_Resume"@PLT	#
.LVL191:
.LEHE10:
.L86:
.L138:
	.loc 6 104 7 view .LVU925
.LBE2609:
.LBE2608:
.LBE2607:
.LBE2596:
.LBE2593:
.LBE2592:
.LBB2613:
.LBB2614:
.LBB2615:
.LBB2616:
.LBB2617:
# /usr/include/c++/16/bits/stl_vector.h:397: 	if (__p)
	.loc 2 397 2 view .LVU926
	mov	rbp, rax	# tmp607,
.LBE2617:
.LBE2616:
.LBE2615:
.LBE2614:
.LBI2613:
	.loc 2 790 7 is_stmt 1 view .LVU927
.LVL192:
.LBB2627:
.LBI2627:
	.loc 2 307 7 view .LVU928
	.loc 2 307 7 is_stmt 0 view .LVU929
.LBE2627:
.LBB2628:
.LBI2628:
	.loc 8 1082 5 is_stmt 1 view .LVU930
	.loc 8 1082 5 is_stmt 0 view .LVU931
.LBE2628:
.LBB2629:
.LBI2614:
	.loc 2 373 7 is_stmt 1 view .LVU932
.LBB2623:
.LBB2622:
.LBI2616:
	.loc 2 394 7 view .LVU933
.LBB2621:
# /usr/include/c++/16/bits/stl_vector.h:397: 	if (__p)
	.loc 2 397 2 is_stmt 0 view .LVU934
	test	r13, r13	# _437
	je	.L148	#,
.LVL193:
.LBB2618:
.LBI2618:
	.loc 8 688 7 is_stmt 1 view .LVU935
.LBB2619:
.LBI2619:
	.loc 6 167 7 view .LVU936
.LBB2620:
# /usr/include/c++/16/bits/new_allocator.h:183: 	_GLIBCXX_OPERATOR_DELETE(_GLIBCXX_SIZED_DEALLOC(__p, __n));
	.loc 6 183 59 is_stmt 0 view .LVU937
	mov	rsi, QWORD PTR 88[rsp]	#, %sfp
	mov	rdi, r13	#, _437
	vzeroupper
.LVL194:
	call	"_ZdlPvm"@PLT	#
.LVL195:
	.loc 6 183 59 view .LVU938
.LBE2620:
.LBE2619:
.LBE2618:
.LBE2621:
.LBE2622:
.LBE2623:
.LBB2624:
.LBI2624:
	.loc 2 139 14 is_stmt 1 view .LVU939
.LBB2625:
.LBI2625:
	.loc 5 189 7 view .LVU940
.LBB2626:
.LBI2626:
	.loc 6 104 7 view .LVU941
	.loc 6 104 7 is_stmt 0 view .LVU942
	jmp	.L21	#
.LVL196:
.L88:
.L140:
	.loc 6 104 7 view .LVU943
	mov	rbp, rax	# tmp564, tmp608
	vzeroupper
.LVL197:
	jmp	.L21	#
.LVL198:
.L84:
.L136:
	.loc 6 104 7 view .LVU944
.LBE2626:
.LBE2625:
.LBE2624:
.LBE2629:
.LBE2613:
.LBB2630:
.LBB2612:
.LBB2611:
.LBB2610:
# /usr/include/c++/16/bits/stl_vector.h:375: 	ptrdiff_t __n = _M_impl._M_end_of_storage - _M_impl._M_start;
	.loc 2 375 54 view .LVU945
	mov	rbp, rax	# tmp569, tmp610
.LVL199:
	.loc 2 375 54 view .LVU946
	vzeroupper
.LVL200:
	jmp	.L69	#
.LVL201:
.L148:
	.loc 2 375 54 view .LVU947
	vzeroupper
.LVL202:
	jmp	.L21	#
.LBE2610:
.LBE2611:
.LBE2612:
.LBE2630:
	.cfi_endproc
.LFE4421:
	.section	.gcc_except_table
.LLSDAC4421:
	.byte	0xff
	.byte	0xff
	.byte	0x1
	.uleb128 .LLSDACSEC4421-.LLSDACSBC4421
.LLSDACSBC4421:
	.uleb128 .LEHB5-.LCOLDB7
	.uleb128 .LEHE5-.LEHB5
	.uleb128 .L85-.LCOLDB7
	.uleb128 0
	.uleb128 .LEHB6-.LCOLDB7
	.uleb128 .LEHE6-.LEHB6
	.uleb128 .L86-.LCOLDB7
	.uleb128 0
	.uleb128 .LEHB7-.LCOLDB7
	.uleb128 .LEHE7-.LEHB7
	.uleb128 .L88-.LCOLDB7
	.uleb128 0
	.uleb128 .LEHB8-.LCOLDB7
	.uleb128 .LEHE8-.LEHB8
	.uleb128 .L84-.LCOLDB7
	.uleb128 0
	.uleb128 .LEHB9-.LCOLDB7
	.uleb128 .LEHE9-.LEHB9
	.uleb128 .L86-.LCOLDB7
	.uleb128 0
	.uleb128 .LEHB10-.LCOLDB7
	.uleb128 .LEHE10-.LEHB10
	.uleb128 0
	.uleb128 0
.LLSDACSEC4421:
	.section	.text.unlikely
	.text
	.size	"_Z21refocus_shift_and_sumRSt6vectorI16SubApertureImageSaIS0_EEf", .-"_Z21refocus_shift_and_sumRSt6vectorI16SubApertureImageSaIS0_EEf"
	.section	.text.unlikely
	.size	"_Z21refocus_shift_and_sumRSt6vectorI16SubApertureImageSaIS0_EEf.cold", .-"_Z21refocus_shift_and_sumRSt6vectorI16SubApertureImageSaIS0_EEf.cold"
.LCOLDE7:
	.text
.LHOTE7:
	.section	.rodata.cst4,"aM",@progbits,4
	.align 4
.LC1:
	.long	1065353216
	.align 4
.LC3:
	.long	-1090519040
	.align 4
.LC4:
	.long	1056964608
	.align 4
.LC5:
	.long	1132396544
	.text
.Letext0:
	.section	.text.unlikely
.Letext_cold0:
	.file 14 "/usr/include/c++/16/cwchar"
	.file 15 "/usr/include/x86_64-linux-gnu/c++/16/bits/c++config.h"
	.file 16 "/usr/include/c++/16/type_traits"
	.file 17 "/usr/include/c++/16/bits/exception_ptr.h"
	.file 18 "/usr/include/c++/16/clocale"
	.file 19 "/usr/include/c++/16/bits/stl_iterator_base_types.h"
	.file 20 "/usr/include/c++/16/debug/debug.h"
	.file 21 "/usr/include/c++/16/cstdlib"
	.file 22 "/usr/include/c++/16/cstdio"
	.file 23 "/usr/include/c++/16/cstddef"
	.file 24 "/usr/include/c++/16/cstdint"
	.file 25 "/usr/include/c++/16/ctime"
	.file 26 "/usr/include/c++/16/bits/chrono.h"
	.file 27 "/usr/include/c++/16/system_error"
	.file 28 "/usr/include/c++/16/bits/fs_fwd.h"
	.file 29 "/usr/include/c++/16/bits/fs_path.h"
	.file 30 "/usr/include/c++/16/cwctype"
	.file 31 "/usr/include/c++/16/bits/shared_ptr_base.h"
	.file 32 "/usr/include/c++/16/initializer_list"
	.file 33 "/usr/include/c++/16/bits/new_throw.h"
	.file 34 "/usr/include/c++/16/bits/stdexcept_throwfwd.h"
	.file 35 "/usr/include/c++/16/bits/ptr_traits.h"
	.file 36 "/usr/lib/gcc/x86_64-linux-gnu/16/include/stddef.h"
	.file 37 "<built-in>"
	.file 38 "/usr/include/x86_64-linux-gnu/bits/types/wint_t.h"
	.file 39 "/usr/include/x86_64-linux-gnu/bits/types/__mbstate_t.h"
	.file 40 "/usr/include/x86_64-linux-gnu/bits/types/mbstate_t.h"
	.file 41 "/usr/include/x86_64-linux-gnu/bits/types/__FILE.h"
	.file 42 "/usr/include/x86_64-linux-gnu/bits/types/struct_FILE.h"
	.file 43 "/usr/include/x86_64-linux-gnu/bits/types/FILE.h"
	.file 44 "/usr/include/wchar.h"
	.file 45 "/usr/include/x86_64-linux-gnu/bits/types/struct_tm.h"
	.file 46 "/usr/include/c++/16/ext/alloc_traits.h"
	.file 47 "/usr/include/locale.h"
	.file 48 "/usr/include/x86_64-linux-gnu/bits/types.h"
	.file 49 "/usr/include/stdlib.h"
	.file 50 "/usr/include/x86_64-linux-gnu/bits/types/clock_t.h"
	.file 51 "/usr/include/x86_64-linux-gnu/bits/types/time_t.h"
	.file 52 "/usr/include/x86_64-linux-gnu/bits/stdint-intn.h"
	.file 53 "/usr/include/x86_64-linux-gnu/bits/types/struct_timespec.h"
	.file 54 "/usr/include/x86_64-linux-gnu/bits/stdlib-float.h"
	.file 55 "/usr/include/x86_64-linux-gnu/bits/stdlib-bsearch.h"
	.file 56 "/usr/include/x86_64-linux-gnu/bits/types/__fpos_t.h"
	.file 57 "/usr/include/stdio.h"
	.file 58 "/usr/include/x86_64-linux-gnu/bits/stdio.h"
	.file 59 "/usr/include/x86_64-linux-gnu/bits/stdint-uintn.h"
	.file 60 "/usr/include/x86_64-linux-gnu/bits/stdint-least.h"
	.file 61 "/usr/include/stdint.h"
	.file 62 "/usr/include/time.h"
	.file 63 "/usr/include/x86_64-linux-gnu/bits/wctype-wchar.h"
	.file 64 "/usr/include/wctype.h"
	.file 65 "/usr/include/math.h"
	.file 66 "/usr/include/c++/16/pstl/execution_defs.h"
	.file 67 "/usr/include/c++/16/new"
	.file 68 "/usr/include/c++/16/bits/memory_resource.h"
	.file 69 "/usr/include/c++/16/string_view"
	.file 70 "/usr/include/c++/16/ext/concurrence.h"
	.section	.debug_info,"",@progbits
.Ldebug_info0:
	.long	0x10319
	.value	0x5
	.byte	0x1
	.byte	0x8
	.long	.Ldebug_abbrev0
	.uleb128 0x99
	.long	.LASF1406
	.byte	0x21
	.byte	0x4
	.long	0x313e7
	.long	.LASF0
	.long	.LASF1
	.long	.LLRL483
	.quad	0
	.long	.Ldebug_line0
	.uleb128 0x2a
	.byte	0x4
	.byte	0x4
	.long	.LASF2
	.uleb128 0xd
	.long	0x3c
	.uleb128 0x2a
	.byte	0x1
	.byte	0x6
	.long	.LASF3
	.uleb128 0x7
	.long	0x3c
	.uleb128 0x9a
	.byte	0x4
	.byte	0x5
	.string	"int"
	.uleb128 0x7
	.long	0x48
	.uleb128 0x9b
	.string	"std"
	.byte	0xf
	.value	0x156
	.byte	0xb
	.long	0x74b5
	.uleb128 0x5
	.byte	0xe
	.byte	0x42
	.byte	0xb
	.long	0x7585
	.uleb128 0x5
	.byte	0xe
	.byte	0x8f
	.byte	0xb
	.long	0x7512
	.uleb128 0x5
	.byte	0xe
	.byte	0x91
	.byte	0xb
	.long	0x7756
	.uleb128 0x5
	.byte	0xe
	.byte	0x92
	.byte	0xb
	.long	0x776d
	.uleb128 0x5
	.byte	0xe
	.byte	0x93
	.byte	0xb
	.long	0x7789
	.uleb128 0x5
	.byte	0xe
	.byte	0x94
	.byte	0xb
	.long	0x77bb
	.uleb128 0x5
	.byte	0xe
	.byte	0x95
	.byte	0xb
	.long	0x77d7
	.uleb128 0x5
	.byte	0xe
	.byte	0x96
	.byte	0xb
	.long	0x77f8
	.uleb128 0x5
	.byte	0xe
	.byte	0x97
	.byte	0xb
	.long	0x7814
	.uleb128 0x5
	.byte	0xe
	.byte	0x98
	.byte	0xb
	.long	0x7831
	.uleb128 0x5
	.byte	0xe
	.byte	0x99
	.byte	0xb
	.long	0x7852
	.uleb128 0x5
	.byte	0xe
	.byte	0x9a
	.byte	0xb
	.long	0x7869
	.uleb128 0x5
	.byte	0xe
	.byte	0x9b
	.byte	0xb
	.long	0x7877
	.uleb128 0x5
	.byte	0xe
	.byte	0x9c
	.byte	0xb
	.long	0x789d
	.uleb128 0x5
	.byte	0xe
	.byte	0x9d
	.byte	0xb
	.long	0x78c3
	.uleb128 0x5
	.byte	0xe
	.byte	0x9e
	.byte	0xb
	.long	0x78df
	.uleb128 0x5
	.byte	0xe
	.byte	0x9f
	.byte	0xb
	.long	0x790a
	.uleb128 0x5
	.byte	0xe
	.byte	0xa0
	.byte	0xb
	.long	0x7926
	.uleb128 0x5
	.byte	0xe
	.byte	0xa2
	.byte	0xb
	.long	0x793d
	.uleb128 0x5
	.byte	0xe
	.byte	0xa4
	.byte	0xb
	.long	0x795f
	.uleb128 0x5
	.byte	0xe
	.byte	0xa5
	.byte	0xb
	.long	0x7980
	.uleb128 0x5
	.byte	0xe
	.byte	0xa6
	.byte	0xb
	.long	0x799c
	.uleb128 0x5
	.byte	0xe
	.byte	0xa8
	.byte	0xb
	.long	0x79c2
	.uleb128 0x5
	.byte	0xe
	.byte	0xab
	.byte	0xb
	.long	0x79e7
	.uleb128 0x5
	.byte	0xe
	.byte	0xae
	.byte	0xb
	.long	0x7a0d
	.uleb128 0x5
	.byte	0xe
	.byte	0xb0
	.byte	0xb
	.long	0x7a32
	.uleb128 0x5
	.byte	0xe
	.byte	0xb2
	.byte	0xb
	.long	0x7a4e
	.uleb128 0x5
	.byte	0xe
	.byte	0xb4
	.byte	0xb
	.long	0x7a6e
	.uleb128 0x5
	.byte	0xe
	.byte	0xb5
	.byte	0xb
	.long	0x7a8f
	.uleb128 0x5
	.byte	0xe
	.byte	0xb6
	.byte	0xb
	.long	0x7aaa
	.uleb128 0x5
	.byte	0xe
	.byte	0xb7
	.byte	0xb
	.long	0x7ac5
	.uleb128 0x5
	.byte	0xe
	.byte	0xb8
	.byte	0xb
	.long	0x7ae0
	.uleb128 0x5
	.byte	0xe
	.byte	0xb9
	.byte	0xb
	.long	0x7afb
	.uleb128 0x5
	.byte	0xe
	.byte	0xba
	.byte	0xb
	.long	0x7b16
	.uleb128 0x5
	.byte	0xe
	.byte	0xbb
	.byte	0xb
	.long	0x7be3
	.uleb128 0x5
	.byte	0xe
	.byte	0xbc
	.byte	0xb
	.long	0x7bf9
	.uleb128 0x5
	.byte	0xe
	.byte	0xbd
	.byte	0xb
	.long	0x7c19
	.uleb128 0x5
	.byte	0xe
	.byte	0xbe
	.byte	0xb
	.long	0x7c39
	.uleb128 0x5
	.byte	0xe
	.byte	0xbf
	.byte	0xb
	.long	0x7c59
	.uleb128 0x5
	.byte	0xe
	.byte	0xc0
	.byte	0xb
	.long	0x7c84
	.uleb128 0x5
	.byte	0xe
	.byte	0xc1
	.byte	0xb
	.long	0x7c9f
	.uleb128 0x5
	.byte	0xe
	.byte	0xc3
	.byte	0xb
	.long	0x7cc7
	.uleb128 0x5
	.byte	0xe
	.byte	0xc5
	.byte	0xb
	.long	0x7ce8
	.uleb128 0x5
	.byte	0xe
	.byte	0xc6
	.byte	0xb
	.long	0x7d08
	.uleb128 0x5
	.byte	0xe
	.byte	0xc7
	.byte	0xb
	.long	0x7d34
	.uleb128 0x5
	.byte	0xe
	.byte	0xc8
	.byte	0xb
	.long	0x7d59
	.uleb128 0x5
	.byte	0xe
	.byte	0xc9
	.byte	0xb
	.long	0x7d79
	.uleb128 0x5
	.byte	0xe
	.byte	0xca
	.byte	0xb
	.long	0x7d90
	.uleb128 0x5
	.byte	0xe
	.byte	0xcb
	.byte	0xb
	.long	0x7db1
	.uleb128 0x5
	.byte	0xe
	.byte	0xcc
	.byte	0xb
	.long	0x7dd2
	.uleb128 0x5
	.byte	0xe
	.byte	0xcd
	.byte	0xb
	.long	0x7df3
	.uleb128 0x5
	.byte	0xe
	.byte	0xce
	.byte	0xb
	.long	0x7e14
	.uleb128 0x5
	.byte	0xe
	.byte	0xcf
	.byte	0xb
	.long	0x7e2c
	.uleb128 0x5
	.byte	0xe
	.byte	0xd0
	.byte	0xb
	.long	0x7e48
	.uleb128 0x5
	.byte	0xe
	.byte	0xd0
	.byte	0xb
	.long	0x7e67
	.uleb128 0x5
	.byte	0xe
	.byte	0xd1
	.byte	0xb
	.long	0x7e86
	.uleb128 0x5
	.byte	0xe
	.byte	0xd1
	.byte	0xb
	.long	0x7ea5
	.uleb128 0x5
	.byte	0xe
	.byte	0xd2
	.byte	0xb
	.long	0x7ec4
	.uleb128 0x5
	.byte	0xe
	.byte	0xd2
	.byte	0xb
	.long	0x7ee3
	.uleb128 0x5
	.byte	0xe
	.byte	0xd3
	.byte	0xb
	.long	0x7f02
	.uleb128 0x5
	.byte	0xe
	.byte	0xd3
	.byte	0xb
	.long	0x7f21
	.uleb128 0x5
	.byte	0xe
	.byte	0xd4
	.byte	0xb
	.long	0x7f40
	.uleb128 0x5
	.byte	0xe
	.byte	0xd4
	.byte	0xb
	.long	0x7f65
	.uleb128 0x18
	.byte	0xe
	.value	0x10d
	.byte	0x16
	.long	0x8e64
	.uleb128 0x18
	.byte	0xe
	.value	0x10e
	.byte	0x16
	.long	0x8e87
	.uleb128 0x18
	.byte	0xe
	.value	0x10f
	.byte	0x16
	.long	0x8eb3
	.uleb128 0x18
	.byte	0xe
	.value	0x11d
	.byte	0xe
	.long	0x7cc7
	.uleb128 0x18
	.byte	0xe
	.value	0x120
	.byte	0xe
	.long	0x79c2
	.uleb128 0x18
	.byte	0xe
	.value	0x123
	.byte	0xe
	.long	0x7a0d
	.uleb128 0x18
	.byte	0xe
	.value	0x126
	.byte	0xe
	.long	0x7a4e
	.uleb128 0x18
	.byte	0xe
	.value	0x12a
	.byte	0xe
	.long	0x8e64
	.uleb128 0x18
	.byte	0xe
	.value	0x12b
	.byte	0xe
	.long	0x8e87
	.uleb128 0x18
	.byte	0xe
	.value	0x12c
	.byte	0xe
	.long	0x8eb3
	.uleb128 0x1c
	.long	.LASF4
	.byte	0xf
	.value	0x158
	.byte	0x1a
	.long	0x74c6
	.uleb128 0x7
	.long	0x2b5
	.uleb128 0x1a
	.long	.LASF10
	.byte	0x1
	.byte	0x10
	.byte	0x5f
	.byte	0xc
	.long	0x330
	.uleb128 0x9
	.long	.LASF5
	.byte	0x10
	.byte	0x62
	.byte	0xd
	.long	0x8f23
	.uleb128 0x40
	.long	.LASF6
	.byte	0x10
	.byte	0x64
	.byte	0x11
	.long	.LASF8
	.long	0x2d4
	.long	0x2f8
	.long	0x2fe
	.uleb128 0x2
	.long	0x8f2f
	.byte	0
	.uleb128 0x40
	.long	.LASF7
	.byte	0x10
	.byte	0x67
	.byte	0x1c
	.long	.LASF9
	.long	0x2d4
	.long	0x316
	.long	0x31c
	.uleb128 0x2
	.long	0x8f2f
	.byte	0
	.uleb128 0x11
	.string	"_Tp"
	.long	0x8f23
	.uleb128 0x7e
	.string	"__v"
	.long	0x8f23
	.byte	0x1
	.byte	0
	.uleb128 0x7
	.long	0x2c7
	.uleb128 0x1a
	.long	.LASF11
	.byte	0x1
	.byte	0x10
	.byte	0x5f
	.byte	0xc
	.long	0x39e
	.uleb128 0x9
	.long	.LASF5
	.byte	0x10
	.byte	0x62
	.byte	0xd
	.long	0x8f23
	.uleb128 0x40
	.long	.LASF12
	.byte	0x10
	.byte	0x64
	.byte	0x11
	.long	.LASF13
	.long	0x342
	.long	0x366
	.long	0x36c
	.uleb128 0x2
	.long	0x8f34
	.byte	0
	.uleb128 0x40
	.long	.LASF7
	.byte	0x10
	.byte	0x67
	.byte	0x1c
	.long	.LASF14
	.long	0x342
	.long	0x384
	.long	0x38a
	.uleb128 0x2
	.long	0x8f34
	.byte	0
	.uleb128 0x11
	.string	"_Tp"
	.long	0x8f23
	.uleb128 0x7e
	.string	"__v"
	.long	0x8f23
	.byte	0
	.byte	0
	.uleb128 0x7
	.long	0x335
	.uleb128 0x9
	.long	.LASF15
	.byte	0x10
	.byte	0x7a
	.byte	0x9
	.long	0x3af
	.uleb128 0x9
	.long	.LASF16
	.byte	0x10
	.byte	0x73
	.byte	0xb
	.long	0x335
	.uleb128 0x7f
	.long	.LASF17
	.value	0xbfb
	.uleb128 0x7f
	.long	.LASF18
	.value	0xc50
	.uleb128 0x63
	.long	.LASF19
	.byte	0x11
	.byte	0x3d
	.byte	0xd
	.long	0x5e4
	.uleb128 0x3e
	.long	.LASF20
	.byte	0x8
	.byte	0x11
	.byte	0x69
	.long	0x5bd
	.uleb128 0xe
	.long	.LASF100
	.byte	0x11
	.byte	0x6b
	.byte	0xd
	.long	0x750f
	.byte	0
	.uleb128 0x74
	.long	.LASF20
	.byte	0x11
	.byte	0x7f
	.byte	0x10
	.long	.LASF21
	.long	0x402
	.long	0x40d
	.uleb128 0x2
	.long	0x8f6f
	.uleb128 0x1
	.long	0x750f
	.byte	0
	.uleb128 0x1e
	.long	.LASF22
	.byte	0x11
	.byte	0x82
	.byte	0xc
	.long	.LASF24
	.long	0x421
	.long	0x427
	.uleb128 0x2
	.long	0x8f6f
	.byte	0
	.uleb128 0x1e
	.long	.LASF23
	.byte	0x11
	.byte	0x83
	.byte	0xc
	.long	.LASF25
	.long	0x43b
	.long	0x441
	.uleb128 0x2
	.long	0x8f6f
	.byte	0
	.uleb128 0x40
	.long	.LASF26
	.byte	0x11
	.byte	0x85
	.byte	0xd
	.long	.LASF27
	.long	0x750f
	.long	0x459
	.long	0x45f
	.uleb128 0x2
	.long	0x8f74
	.byte	0
	.uleb128 0x40
	.long	.LASF28
	.byte	0x11
	.byte	0x92
	.byte	0x13
	.long	.LASF29
	.long	0x8f79
	.long	0x477
	.long	0x482
	.uleb128 0x2
	.long	0x8f74
	.uleb128 0x1
	.long	0x8f80
	.byte	0
	.uleb128 0x1f
	.long	.LASF20
	.byte	0x11
	.byte	0x96
	.byte	0x1c
	.long	.LASF30
	.byte	0x1
	.long	0x497
	.long	0x49d
	.uleb128 0x2
	.long	0x8f6f
	.byte	0
	.uleb128 0x1f
	.long	.LASF20
	.byte	0x11
	.byte	0x98
	.byte	0x1c
	.long	.LASF31
	.byte	0x1
	.long	0x4b2
	.long	0x4bd
	.uleb128 0x2
	.long	0x8f6f
	.uleb128 0x1
	.long	0x8f85
	.byte	0
	.uleb128 0x1f
	.long	.LASF20
	.byte	0x11
	.byte	0x9c
	.byte	0x1c
	.long	.LASF32
	.byte	0x1
	.long	0x4d2
	.long	0x4dd
	.uleb128 0x2
	.long	0x8f6f
	.uleb128 0x1
	.long	0x60d
	.byte	0
	.uleb128 0x1f
	.long	.LASF20
	.byte	0x11
	.byte	0xa0
	.byte	0x1c
	.long	.LASF33
	.byte	0x1
	.long	0x4f2
	.long	0x4fd
	.uleb128 0x2
	.long	0x8f6f
	.uleb128 0x1
	.long	0x8f8a
	.byte	0
	.uleb128 0x20
	.long	.LASF34
	.byte	0x11
	.byte	0xad
	.byte	0x7
	.long	.LASF35
	.long	0x8f8f
	.byte	0x1
	.long	0x516
	.long	0x521
	.uleb128 0x2
	.long	0x8f6f
	.uleb128 0x1
	.long	0x8f85
	.byte	0
	.uleb128 0x20
	.long	.LASF34
	.byte	0x11
	.byte	0xb1
	.byte	0x7
	.long	.LASF36
	.long	0x8f8f
	.byte	0x1
	.long	0x53a
	.long	0x545
	.uleb128 0x2
	.long	0x8f6f
	.uleb128 0x1
	.long	0x8f8a
	.byte	0
	.uleb128 0x1f
	.long	.LASF37
	.byte	0x11
	.byte	0xb8
	.byte	0x1c
	.long	.LASF38
	.byte	0x1
	.long	0x55a
	.long	0x560
	.uleb128 0x2
	.long	0x8f6f
	.byte	0
	.uleb128 0x1f
	.long	.LASF39
	.byte	0x11
	.byte	0xbb
	.byte	0x7
	.long	.LASF40
	.byte	0x1
	.long	0x575
	.long	0x580
	.uleb128 0x2
	.long	0x8f6f
	.uleb128 0x1
	.long	0x8f8f
	.byte	0
	.uleb128 0x9c
	.long	.LASF61
	.byte	0x11
	.byte	0xc6
	.byte	0x25
	.long	.LASF62
	.long	0x8f23
	.byte	0x1
	.long	0x59a
	.long	0x5a0
	.uleb128 0x2
	.long	0x8f74
	.byte	0
	.uleb128 0x9d
	.long	.LASF41
	.byte	0x11
	.byte	0xdf
	.byte	0x7
	.long	.LASF42
	.long	0x8f94
	.byte	0x1
	.long	0x5b6
	.uleb128 0x2
	.long	0x8f74
	.byte	0
	.byte	0
	.uleb128 0x7
	.long	0x3d5
	.uleb128 0x5
	.byte	0x11
	.byte	0x5d
	.byte	0x10
	.long	0x5ec
	.uleb128 0x9e
	.long	.LASF39
	.byte	0x11
	.value	0x120
	.byte	0x5
	.long	.LASF1407
	.uleb128 0x1
	.long	0x8f8f
	.uleb128 0x1
	.long	0x8f8f
	.byte	0
	.byte	0
	.uleb128 0x5
	.byte	0x11
	.byte	0x42
	.byte	0x1a
	.long	0x3d5
	.uleb128 0x80
	.long	.LASF43
	.byte	0x11
	.byte	0x52
	.byte	0x8
	.long	.LASF44
	.long	0x603
	.uleb128 0x1
	.long	0x3d5
	.byte	0
	.uleb128 0x2d
	.long	.LASF273
	.uleb128 0x7
	.long	0x603
	.uleb128 0x1c
	.long	.LASF45
	.byte	0xf
	.value	0x15c
	.byte	0x1d
	.long	0x8f1d
	.uleb128 0x18
	.byte	0x11
	.value	0x12d
	.byte	0x1a
	.long	0x5ca
	.uleb128 0x1c
	.long	.LASF46
	.byte	0xf
	.value	0x159
	.byte	0x1c
	.long	0x7d2d
	.uleb128 0x9
	.long	.LASF47
	.byte	0x10
	.byte	0x77
	.byte	0x9
	.long	0x63c
	.uleb128 0x9
	.long	.LASF16
	.byte	0x10
	.byte	0x73
	.byte	0xb
	.long	0x2c7
	.uleb128 0x5
	.byte	0x12
	.byte	0x37
	.byte	0xb
	.long	0x8f99
	.uleb128 0x5
	.byte	0x12
	.byte	0x38
	.byte	0xb
	.long	0x90df
	.uleb128 0x5
	.byte	0x12
	.byte	0x39
	.byte	0xb
	.long	0x90fa
	.uleb128 0x9f
	.long	.LASF1408
	.byte	0x1
	.byte	0x13
	.byte	0x5f
	.byte	0xa
	.uleb128 0x1a
	.long	.LASF48
	.byte	0x1
	.byte	0x13
	.byte	0x65
	.byte	0xa
	.long	0x67d
	.uleb128 0x31
	.long	0x660
	.byte	0
	.uleb128 0x1a
	.long	.LASF49
	.byte	0x1
	.byte	0x13
	.byte	0x69
	.byte	0xa
	.long	0x690
	.uleb128 0x31
	.long	0x66a
	.byte	0
	.uleb128 0x1a
	.long	.LASF50
	.byte	0x1
	.byte	0x13
	.byte	0x6d
	.byte	0xa
	.long	0x6a3
	.uleb128 0x31
	.long	0x67d
	.byte	0
	.uleb128 0x75
	.long	.LASF51
	.byte	0x14
	.byte	0x32
	.byte	0xd
	.uleb128 0x5
	.byte	0x15
	.byte	0x89
	.byte	0xb
	.long	0x9263
	.uleb128 0x5
	.byte	0x15
	.byte	0x8a
	.byte	0xb
	.long	0x9297
	.uleb128 0x5
	.byte	0x15
	.byte	0x90
	.byte	0xb
	.long	0x9373
	.uleb128 0x5
	.byte	0x15
	.byte	0x93
	.byte	0xb
	.long	0x9391
	.uleb128 0x5
	.byte	0x15
	.byte	0x96
	.byte	0xb
	.long	0x93ac
	.uleb128 0x5
	.byte	0x15
	.byte	0x97
	.byte	0xb
	.long	0x93c2
	.uleb128 0x5
	.byte	0x15
	.byte	0x98
	.byte	0xb
	.long	0x93d9
	.uleb128 0x5
	.byte	0x15
	.byte	0x99
	.byte	0xb
	.long	0x93f0
	.uleb128 0x5
	.byte	0x15
	.byte	0x9b
	.byte	0xb
	.long	0x941a
	.uleb128 0x5
	.byte	0x15
	.byte	0x9e
	.byte	0xb
	.long	0x9437
	.uleb128 0x5
	.byte	0x15
	.byte	0xa0
	.byte	0xb
	.long	0x944e
	.uleb128 0x5
	.byte	0x15
	.byte	0xa3
	.byte	0xb
	.long	0x946a
	.uleb128 0x5
	.byte	0x15
	.byte	0xa4
	.byte	0xb
	.long	0x9486
	.uleb128 0x5
	.byte	0x15
	.byte	0xa5
	.byte	0xb
	.long	0x94a7
	.uleb128 0x5
	.byte	0x15
	.byte	0xa7
	.byte	0xb
	.long	0x94c8
	.uleb128 0x5
	.byte	0x15
	.byte	0xaa
	.byte	0xb
	.long	0x94e9
	.uleb128 0x5
	.byte	0x15
	.byte	0xad
	.byte	0xb
	.long	0x94fd
	.uleb128 0x5
	.byte	0x15
	.byte	0xaf
	.byte	0xb
	.long	0x950b
	.uleb128 0x5
	.byte	0x15
	.byte	0xb0
	.byte	0xb
	.long	0x951d
	.uleb128 0x5
	.byte	0x15
	.byte	0xb1
	.byte	0xb
	.long	0x953d
	.uleb128 0x5
	.byte	0x15
	.byte	0xb2
	.byte	0xb
	.long	0x9561
	.uleb128 0x5
	.byte	0x15
	.byte	0xb3
	.byte	0xb
	.long	0x9585
	.uleb128 0x5
	.byte	0x15
	.byte	0xb5
	.byte	0xb
	.long	0x959c
	.uleb128 0x5
	.byte	0x15
	.byte	0xb6
	.byte	0xb
	.long	0x95bd
	.uleb128 0x5
	.byte	0x15
	.byte	0xfd
	.byte	0x16
	.long	0x92cb
	.uleb128 0x18
	.byte	0x15
	.value	0x102
	.byte	0x16
	.long	0x7fe9
	.uleb128 0x18
	.byte	0x15
	.value	0x103
	.byte	0x16
	.long	0x95d9
	.uleb128 0x18
	.byte	0x15
	.value	0x105
	.byte	0x16
	.long	0x95f5
	.uleb128 0x18
	.byte	0x15
	.value	0x106
	.byte	0x16
	.long	0x9654
	.uleb128 0x18
	.byte	0x15
	.value	0x107
	.byte	0x16
	.long	0x960c
	.uleb128 0x18
	.byte	0x15
	.value	0x108
	.byte	0x16
	.long	0x9630
	.uleb128 0x18
	.byte	0x15
	.value	0x109
	.byte	0x16
	.long	0x966f
	.uleb128 0x5
	.byte	0x16
	.byte	0x64
	.byte	0xb
	.long	0x7739
	.uleb128 0x5
	.byte	0x16
	.byte	0x65
	.byte	0xb
	.long	0x9714
	.uleb128 0x5
	.byte	0x16
	.byte	0x67
	.byte	0xb
	.long	0x972a
	.uleb128 0x5
	.byte	0x16
	.byte	0x68
	.byte	0xb
	.long	0x973c
	.uleb128 0x5
	.byte	0x16
	.byte	0x69
	.byte	0xb
	.long	0x9752
	.uleb128 0x5
	.byte	0x16
	.byte	0x6a
	.byte	0xb
	.long	0x9769
	.uleb128 0x5
	.byte	0x16
	.byte	0x6b
	.byte	0xb
	.long	0x9780
	.uleb128 0x5
	.byte	0x16
	.byte	0x6c
	.byte	0xb
	.long	0x9796
	.uleb128 0x5
	.byte	0x16
	.byte	0x6d
	.byte	0xb
	.long	0x97ad
	.uleb128 0x5
	.byte	0x16
	.byte	0x6e
	.byte	0xb
	.long	0x97ce
	.uleb128 0x5
	.byte	0x16
	.byte	0x6f
	.byte	0xb
	.long	0x97ef
	.uleb128 0x5
	.byte	0x16
	.byte	0x73
	.byte	0xb
	.long	0x980b
	.uleb128 0x5
	.byte	0x16
	.byte	0x74
	.byte	0xb
	.long	0x9831
	.uleb128 0x5
	.byte	0x16
	.byte	0x76
	.byte	0xb
	.long	0x9852
	.uleb128 0x5
	.byte	0x16
	.byte	0x77
	.byte	0xb
	.long	0x9873
	.uleb128 0x5
	.byte	0x16
	.byte	0x78
	.byte	0xb
	.long	0x9894
	.uleb128 0x5
	.byte	0x16
	.byte	0x7a
	.byte	0xb
	.long	0x98ab
	.uleb128 0x5
	.byte	0x16
	.byte	0x7b
	.byte	0xb
	.long	0x98c2
	.uleb128 0x5
	.byte	0x16
	.byte	0x80
	.byte	0xb
	.long	0x98ce
	.uleb128 0x5
	.byte	0x16
	.byte	0x85
	.byte	0xb
	.long	0x98e0
	.uleb128 0x5
	.byte	0x16
	.byte	0x86
	.byte	0xb
	.long	0x98f6
	.uleb128 0x5
	.byte	0x16
	.byte	0x87
	.byte	0xb
	.long	0x9911
	.uleb128 0x5
	.byte	0x16
	.byte	0x89
	.byte	0xb
	.long	0x9923
	.uleb128 0x5
	.byte	0x16
	.byte	0x8a
	.byte	0xb
	.long	0x993a
	.uleb128 0x5
	.byte	0x16
	.byte	0x8d
	.byte	0xb
	.long	0x9960
	.uleb128 0x5
	.byte	0x16
	.byte	0x8f
	.byte	0xb
	.long	0x996c
	.uleb128 0x5
	.byte	0x16
	.byte	0x91
	.byte	0xb
	.long	0x9982
	.uleb128 0x81
	.long	.LASF52
	.byte	0xf
	.value	0x179
	.byte	0x41
	.uleb128 0x5
	.byte	0x17
	.byte	0x42
	.byte	0xb
	.long	0x8f0e
	.uleb128 0xa0
	.string	"pmr"
	.byte	0x44
	.byte	0x37
	.byte	0xb
	.uleb128 0x82
	.string	"_V2"
	.byte	0x1b
	.byte	0x54
	.byte	0x1
	.uleb128 0x5
	.byte	0x18
	.byte	0x35
	.byte	0xb
	.long	0x92f4
	.uleb128 0x5
	.byte	0x18
	.byte	0x36
	.byte	0xb
	.long	0x9300
	.uleb128 0x5
	.byte	0x18
	.byte	0x37
	.byte	0xb
	.long	0x930c
	.uleb128 0x5
	.byte	0x18
	.byte	0x38
	.byte	0xb
	.long	0x9318
	.uleb128 0x5
	.byte	0x18
	.byte	0x3a
	.byte	0xb
	.long	0x9a2e
	.uleb128 0x5
	.byte	0x18
	.byte	0x3b
	.byte	0xb
	.long	0x9a3a
	.uleb128 0x5
	.byte	0x18
	.byte	0x3c
	.byte	0xb
	.long	0x9a46
	.uleb128 0x5
	.byte	0x18
	.byte	0x3d
	.byte	0xb
	.long	0x9a52
	.uleb128 0x5
	.byte	0x18
	.byte	0x3f
	.byte	0xb
	.long	0x99ce
	.uleb128 0x5
	.byte	0x18
	.byte	0x40
	.byte	0xb
	.long	0x99da
	.uleb128 0x5
	.byte	0x18
	.byte	0x41
	.byte	0xb
	.long	0x99e6
	.uleb128 0x5
	.byte	0x18
	.byte	0x42
	.byte	0xb
	.long	0x99f2
	.uleb128 0x5
	.byte	0x18
	.byte	0x44
	.byte	0xb
	.long	0x9aa6
	.uleb128 0x5
	.byte	0x18
	.byte	0x45
	.byte	0xb
	.long	0x9a8e
	.uleb128 0x5
	.byte	0x18
	.byte	0x47
	.byte	0xb
	.long	0x999e
	.uleb128 0x5
	.byte	0x18
	.byte	0x48
	.byte	0xb
	.long	0x99aa
	.uleb128 0x5
	.byte	0x18
	.byte	0x49
	.byte	0xb
	.long	0x99b6
	.uleb128 0x5
	.byte	0x18
	.byte	0x4a
	.byte	0xb
	.long	0x99c2
	.uleb128 0x5
	.byte	0x18
	.byte	0x4c
	.byte	0xb
	.long	0x9a5e
	.uleb128 0x5
	.byte	0x18
	.byte	0x4d
	.byte	0xb
	.long	0x9a6a
	.uleb128 0x5
	.byte	0x18
	.byte	0x4e
	.byte	0xb
	.long	0x9a76
	.uleb128 0x5
	.byte	0x18
	.byte	0x4f
	.byte	0xb
	.long	0x9a82
	.uleb128 0x5
	.byte	0x18
	.byte	0x51
	.byte	0xb
	.long	0x99fe
	.uleb128 0x5
	.byte	0x18
	.byte	0x52
	.byte	0xb
	.long	0x9a0a
	.uleb128 0x5
	.byte	0x18
	.byte	0x53
	.byte	0xb
	.long	0x9a16
	.uleb128 0x5
	.byte	0x18
	.byte	0x54
	.byte	0xb
	.long	0x9a22
	.uleb128 0x5
	.byte	0x18
	.byte	0x56
	.byte	0xb
	.long	0x9ab2
	.uleb128 0x5
	.byte	0x18
	.byte	0x57
	.byte	0xb
	.long	0x9a9a
	.uleb128 0x5
	.byte	0x19
	.byte	0x3e
	.byte	0xb
	.long	0x92d7
	.uleb128 0x5
	.byte	0x19
	.byte	0x3f
	.byte	0xb
	.long	0x92e3
	.uleb128 0x5
	.byte	0x19
	.byte	0x40
	.byte	0xb
	.long	0x7b41
	.uleb128 0x5
	.byte	0x19
	.byte	0x42
	.byte	0xb
	.long	0x9ada
	.uleb128 0x5
	.byte	0x19
	.byte	0x43
	.byte	0xb
	.long	0x9ae6
	.uleb128 0x5
	.byte	0x19
	.byte	0x44
	.byte	0xb
	.long	0x9b01
	.uleb128 0x5
	.byte	0x19
	.byte	0x45
	.byte	0xb
	.long	0x9b1c
	.uleb128 0x5
	.byte	0x19
	.byte	0x46
	.byte	0xb
	.long	0x9b37
	.uleb128 0x5
	.byte	0x19
	.byte	0x47
	.byte	0xb
	.long	0x9b4d
	.uleb128 0x5
	.byte	0x19
	.byte	0x48
	.byte	0xb
	.long	0x9b68
	.uleb128 0x5
	.byte	0x19
	.byte	0x49
	.byte	0xb
	.long	0x9b7e
	.uleb128 0x5
	.byte	0x19
	.byte	0x51
	.byte	0xb
	.long	0x9324
	.uleb128 0x5
	.byte	0x19
	.byte	0x52
	.byte	0xb
	.long	0x9b94
	.uleb128 0x63
	.long	.LASF53
	.byte	0x1a
	.byte	0x3d
	.byte	0xd
	.long	0xa17
	.uleb128 0xa1
	.string	"_V2"
	.byte	0x1a
	.value	0x4c6
	.byte	0x1
	.uleb128 0xa2
	.byte	0x1a
	.value	0x5aa
	.byte	0x1f
	.long	0xa25
	.byte	0
	.uleb128 0xa3
	.long	.LASF1409
	.byte	0x45
	.value	0x369
	.byte	0x14
	.long	0xa30
	.uleb128 0x81
	.long	.LASF54
	.byte	0x1a
	.value	0x54e
	.byte	0x14
	.byte	0
	.uleb128 0x63
	.long	.LASF55
	.byte	0x1a
	.byte	0x3a
	.byte	0xd
	.long	0xa4f
	.uleb128 0xa4
	.long	.LASF52
	.byte	0x1c
	.byte	0x30
	.byte	0x3f
	.uleb128 0x75
	.long	.LASF56
	.byte	0x1d
	.byte	0x48
	.byte	0xb
	.byte	0
	.byte	0
	.uleb128 0x5
	.byte	0x1e
	.byte	0x54
	.byte	0xb
	.long	0x9bc1
	.uleb128 0x5
	.byte	0x1e
	.byte	0x55
	.byte	0xb
	.long	0x9bb5
	.uleb128 0x5
	.byte	0x1e
	.byte	0x56
	.byte	0xb
	.long	0x7512
	.uleb128 0x5
	.byte	0x1e
	.byte	0x5e
	.byte	0xb
	.long	0x9bd2
	.uleb128 0x5
	.byte	0x1e
	.byte	0x67
	.byte	0xb
	.long	0x9bed
	.uleb128 0x5
	.byte	0x1e
	.byte	0x6a
	.byte	0xb
	.long	0x9c08
	.uleb128 0x5
	.byte	0x1e
	.byte	0x6b
	.byte	0xb
	.long	0x9c1e
	.uleb128 0x5
	.byte	0x1f
	.byte	0x61
	.byte	0x14
	.long	0x8009
	.uleb128 0x5
	.byte	0x1f
	.byte	0x62
	.byte	0x14
	.long	0x9c34
	.uleb128 0x5
	.byte	0x1f
	.byte	0x63
	.byte	0x14
	.long	0x801c
	.uleb128 0x5
	.byte	0x1f
	.byte	0x64
	.byte	0x14
	.long	0x8022
	.uleb128 0x5
	.byte	0x1f
	.byte	0x65
	.byte	0x14
	.long	0x8028
	.uleb128 0x3e
	.long	.LASF57
	.byte	0x1
	.byte	0x6
	.byte	0x3f
	.long	0xc4d
	.uleb128 0x1f
	.long	.LASF58
	.byte	0x6
	.byte	0x58
	.byte	0x7
	.long	.LASF59
	.byte	0x1
	.long	0xad0
	.long	0xad6
	.uleb128 0x2
	.long	0x9c46
	.byte	0
	.uleb128 0x1f
	.long	.LASF58
	.byte	0x6
	.byte	0x5c
	.byte	0x7
	.long	.LASF60
	.byte	0x1
	.long	0xaeb
	.long	0xaf6
	.uleb128 0x2
	.long	0x9c46
	.uleb128 0x1
	.long	0x9c50
	.byte	0
	.uleb128 0x4d
	.long	.LASF34
	.byte	0x6
	.byte	0x64
	.byte	0x18
	.long	.LASF63
	.long	0x9c55
	.long	0xb0e
	.long	0xb19
	.uleb128 0x2
	.long	0x9c46
	.uleb128 0x1
	.long	0x9c50
	.byte	0
	.uleb128 0x1f
	.long	.LASF64
	.byte	0x6
	.byte	0x68
	.byte	0x7
	.long	.LASF65
	.byte	0x1
	.long	0xb2e
	.long	0xb34
	.uleb128 0x2
	.long	0x9c46
	.byte	0
	.uleb128 0x24
	.long	.LASF68
	.byte	0x6
	.byte	0x46
	.byte	0x1a
	.long	0x9c5a
	.uleb128 0x20
	.long	.LASF66
	.byte	0x6
	.byte	0x6b
	.byte	0x7
	.long	.LASF67
	.long	0xb34
	.byte	0x1
	.long	0xb59
	.long	0xb64
	.uleb128 0x2
	.long	0x9c64
	.uleb128 0x1
	.long	0xb64
	.byte	0
	.uleb128 0x24
	.long	.LASF69
	.byte	0x6
	.byte	0x48
	.byte	0x1a
	.long	0x9c6e
	.uleb128 0x24
	.long	.LASF70
	.byte	0x6
	.byte	0x47
	.byte	0x1a
	.long	0x9c73
	.uleb128 0x20
	.long	.LASF66
	.byte	0x6
	.byte	0x6f
	.byte	0x7
	.long	.LASF71
	.long	0xb70
	.byte	0x1
	.long	0xb95
	.long	0xba0
	.uleb128 0x2
	.long	0x9c64
	.uleb128 0x1
	.long	0xba0
	.byte	0
	.uleb128 0x24
	.long	.LASF72
	.byte	0x6
	.byte	0x49
	.byte	0x1a
	.long	0x9c78
	.uleb128 0x20
	.long	.LASF73
	.byte	0x6
	.byte	0x81
	.byte	0x7
	.long	.LASF74
	.long	0x9c5a
	.byte	0x1
	.long	0xbc5
	.long	0xbd5
	.uleb128 0x2
	.long	0x9c46
	.uleb128 0x1
	.long	0xbd5
	.uleb128 0x1
	.long	0x8f79
	.byte	0
	.uleb128 0x24
	.long	.LASF75
	.byte	0x6
	.byte	0x43
	.byte	0x1f
	.long	0x2b5
	.uleb128 0x1f
	.long	.LASF76
	.byte	0x6
	.byte	0xa7
	.byte	0x7
	.long	.LASF77
	.byte	0x1
	.long	0xbf6
	.long	0xc06
	.uleb128 0x2
	.long	0x9c46
	.uleb128 0x1
	.long	0x9c5a
	.uleb128 0x1
	.long	0xbd5
	.byte	0
	.uleb128 0x20
	.long	.LASF78
	.byte	0x6
	.byte	0xc2
	.byte	0x7
	.long	.LASF79
	.long	0xbd5
	.byte	0x1
	.long	0xc1f
	.long	0xc25
	.uleb128 0x2
	.long	0x9c64
	.byte	0
	.uleb128 0x40
	.long	.LASF80
	.byte	0x6
	.byte	0xf2
	.byte	0x7
	.long	.LASF81
	.long	0xbd5
	.long	0xc3d
	.long	0xc43
	.uleb128 0x2
	.long	0x9c64
	.byte	0
	.uleb128 0x11
	.string	"_Tp"
	.long	0x8f39
	.byte	0
	.uleb128 0x7
	.long	0xaaf
	.uleb128 0x3e
	.long	.LASF82
	.byte	0x1
	.byte	0x5
	.byte	0x85
	.long	0xcd6
	.uleb128 0x46
	.long	0xaaf
	.byte	0x1
	.uleb128 0x1f
	.long	.LASF83
	.byte	0x5
	.byte	0xa8
	.byte	0x7
	.long	.LASF84
	.byte	0x1
	.long	0xc79
	.long	0xc7f
	.uleb128 0x2
	.long	0x9c7d
	.byte	0
	.uleb128 0x1f
	.long	.LASF83
	.byte	0x5
	.byte	0xac
	.byte	0x7
	.long	.LASF85
	.byte	0x1
	.long	0xc94
	.long	0xc9f
	.uleb128 0x2
	.long	0x9c7d
	.uleb128 0x1
	.long	0x9c87
	.byte	0
	.uleb128 0x4d
	.long	.LASF34
	.byte	0x5
	.byte	0xb1
	.byte	0x12
	.long	.LASF86
	.long	0x9c8c
	.long	0xcb7
	.long	0xcc2
	.uleb128 0x2
	.long	0x9c7d
	.uleb128 0x1
	.long	0x9c87
	.byte	0
	.uleb128 0x64
	.long	.LASF87
	.long	.LASF88
	.long	0xccf
	.uleb128 0x2
	.long	0x9c7d
	.byte	0
	.byte	0
	.uleb128 0x7
	.long	0xc52
	.uleb128 0x59
	.long	.LASF89
	.byte	0x1
	.byte	0x8
	.value	0x248
	.byte	0xc
	.long	0xdd9
	.uleb128 0x1c
	.long	.LASF68
	.byte	0x8
	.value	0x251
	.byte	0xd
	.long	0x9c5a
	.uleb128 0x17
	.long	.LASF73
	.byte	0x8
	.value	0x27d
	.byte	0x7
	.long	.LASF91
	.long	0xce9
	.long	0xd16
	.uleb128 0x1
	.long	0x9c91
	.uleb128 0x1
	.long	0xd28
	.byte	0
	.uleb128 0x1c
	.long	.LASF90
	.byte	0x8
	.value	0x24b
	.byte	0xd
	.long	0xc52
	.uleb128 0x7
	.long	0xd16
	.uleb128 0x1c
	.long	.LASF75
	.byte	0x8
	.value	0x260
	.byte	0xd
	.long	0x2b5
	.uleb128 0x17
	.long	.LASF73
	.byte	0x8
	.value	0x28c
	.byte	0x7
	.long	.LASF92
	.long	0xce9
	.long	0xd5a
	.uleb128 0x1
	.long	0x9c91
	.uleb128 0x1
	.long	0xd28
	.uleb128 0x1
	.long	0xd5a
	.byte	0
	.uleb128 0x1c
	.long	.LASF93
	.byte	0x8
	.value	0x25a
	.byte	0xd
	.long	0x8f79
	.uleb128 0x3f
	.long	.LASF76
	.byte	0x8
	.value	0x2b0
	.byte	0x7
	.long	.LASF296
	.long	0xd88
	.uleb128 0x1
	.long	0x9c91
	.uleb128 0x1
	.long	0xce9
	.uleb128 0x1
	.long	0xd28
	.byte	0
	.uleb128 0x17
	.long	.LASF78
	.byte	0x8
	.value	0x2ed
	.byte	0x7
	.long	.LASF94
	.long	0xd28
	.long	0xda3
	.uleb128 0x1
	.long	0x9c96
	.byte	0
	.uleb128 0x17
	.long	.LASF95
	.byte	0x8
	.value	0x2fd
	.byte	0x7
	.long	.LASF96
	.long	0xd16
	.long	0xdbe
	.uleb128 0x1
	.long	0x9c96
	.byte	0
	.uleb128 0x1c
	.long	.LASF5
	.byte	0x8
	.value	0x24e
	.byte	0xd
	.long	0x8f39
	.uleb128 0x1c
	.long	.LASF97
	.byte	0x8
	.value	0x26f
	.byte	0x8
	.long	0xc52
	.byte	0
	.uleb128 0x1a
	.long	.LASF98
	.byte	0x18
	.byte	0x2
	.byte	0x5b
	.byte	0xc
	.long	0x117a
	.uleb128 0x1a
	.long	.LASF99
	.byte	0x18
	.byte	0x2
	.byte	0x62
	.byte	0xe
	.long	0xe8c
	.uleb128 0xe
	.long	.LASF101
	.byte	0x2
	.byte	0x64
	.byte	0xa
	.long	0xe91
	.byte	0
	.uleb128 0xe
	.long	.LASF102
	.byte	0x2
	.byte	0x65
	.byte	0xa
	.long	0xe91
	.byte	0x8
	.uleb128 0xe
	.long	.LASF103
	.byte	0x2
	.byte	0x66
	.byte	0xa
	.long	0xe91
	.byte	0x10
	.uleb128 0x1e
	.long	.LASF99
	.byte	0x2
	.byte	0x69
	.byte	0x2
	.long	.LASF104
	.long	0xe2e
	.long	0xe34
	.uleb128 0x2
	.long	0x9ca5
	.byte	0
	.uleb128 0x1e
	.long	.LASF99
	.byte	0x2
	.byte	0x6f
	.byte	0x2
	.long	.LASF105
	.long	0xe48
	.long	0xe53
	.uleb128 0x2
	.long	0x9ca5
	.uleb128 0x1
	.long	0x9caf
	.byte	0
	.uleb128 0x1e
	.long	.LASF106
	.byte	0x2
	.byte	0x77
	.byte	0x2
	.long	.LASF107
	.long	0xe67
	.long	0xe72
	.uleb128 0x2
	.long	0x9ca5
	.uleb128 0x1
	.long	0x9cb4
	.byte	0
	.uleb128 0x5f
	.long	.LASF108
	.byte	0x80
	.long	.LASF304
	.long	0xe80
	.uleb128 0x2
	.long	0x9ca5
	.uleb128 0x1
	.long	0x9cb9
	.byte	0
	.byte	0
	.uleb128 0x7
	.long	0xde6
	.uleb128 0x9
	.long	.LASF68
	.byte	0x2
	.byte	0x60
	.byte	0x9
	.long	0x8105
	.uleb128 0x1a
	.long	.LASF109
	.byte	0x18
	.byte	0x2
	.byte	0x8b
	.byte	0xe
	.long	0xf63
	.uleb128 0x31
	.long	0xc52
	.uleb128 0x31
	.long	0xde6
	.uleb128 0x1e
	.long	.LASF109
	.byte	0x2
	.byte	0x8f
	.byte	0x2
	.long	.LASF110
	.long	0xec8
	.long	0xece
	.uleb128 0x2
	.long	0x9cbe
	.byte	0
	.uleb128 0x1e
	.long	.LASF109
	.byte	0x2
	.byte	0x98
	.byte	0x2
	.long	.LASF111
	.long	0xee2
	.long	0xeed
	.uleb128 0x2
	.long	0x9cbe
	.uleb128 0x1
	.long	0x9cc8
	.byte	0
	.uleb128 0x1e
	.long	.LASF109
	.byte	0x2
	.byte	0xa0
	.byte	0x2
	.long	.LASF112
	.long	0xf01
	.long	0xf0c
	.uleb128 0x2
	.long	0x9cbe
	.uleb128 0x1
	.long	0x9ccd
	.byte	0
	.uleb128 0x1e
	.long	.LASF109
	.byte	0x2
	.byte	0xa5
	.byte	0x2
	.long	.LASF113
	.long	0xf20
	.long	0xf2b
	.uleb128 0x2
	.long	0x9cbe
	.uleb128 0x1
	.long	0x9cd2
	.byte	0
	.uleb128 0x1e
	.long	.LASF109
	.byte	0x2
	.byte	0xaa
	.byte	0x2
	.long	.LASF114
	.long	0xf3f
	.long	0xf4f
	.uleb128 0x2
	.long	0x9cbe
	.uleb128 0x1
	.long	0x9cd2
	.uleb128 0x1
	.long	0x9ccd
	.byte	0
	.uleb128 0x65
	.long	.LASF466
	.long	.LASF467
	.long	0xf5c
	.uleb128 0x2
	.long	0x9cbe
	.byte	0
	.byte	0
	.uleb128 0x9
	.long	.LASF115
	.byte	0x2
	.byte	0x5e
	.byte	0x15
	.long	0x8136
	.uleb128 0x7
	.long	0xf63
	.uleb128 0x32
	.long	.LASF116
	.value	0x133
	.byte	0x7
	.long	.LASF117
	.long	0x9cd7
	.long	0xf8c
	.long	0xf92
	.uleb128 0x2
	.long	0x9cdc
	.byte	0
	.uleb128 0x32
	.long	.LASF116
	.value	0x138
	.byte	0x7
	.long	.LASF118
	.long	0x9cc8
	.long	0xfaa
	.long	0xfb0
	.uleb128 0x2
	.long	0x9ce6
	.byte	0
	.uleb128 0x1c
	.long	.LASF90
	.byte	0x2
	.value	0x12f
	.byte	0x16
	.long	0xc52
	.uleb128 0x7
	.long	0xfb0
	.uleb128 0x32
	.long	.LASF119
	.value	0x13d
	.byte	0x7
	.long	.LASF120
	.long	0xfb0
	.long	0xfda
	.long	0xfe0
	.uleb128 0x2
	.long	0x9ce6
	.byte	0
	.uleb128 0x4e
	.long	.LASF121
	.value	0x141
	.long	.LASF122
	.long	0xff3
	.long	0xff9
	.uleb128 0x2
	.long	0x9cdc
	.byte	0
	.uleb128 0x1b
	.long	.LASF121
	.value	0x147
	.long	.LASF123
	.long	0x100c
	.long	0x1017
	.uleb128 0x2
	.long	0x9cdc
	.uleb128 0x1
	.long	0x9ceb
	.byte	0
	.uleb128 0x1b
	.long	.LASF121
	.value	0x14d
	.long	.LASF124
	.long	0x102a
	.long	0x1035
	.uleb128 0x2
	.long	0x9cdc
	.uleb128 0x1
	.long	0x2b5
	.byte	0
	.uleb128 0x1b
	.long	.LASF121
	.value	0x153
	.long	.LASF125
	.long	0x1048
	.long	0x1058
	.uleb128 0x2
	.long	0x9cdc
	.uleb128 0x1
	.long	0x2b5
	.uleb128 0x1
	.long	0x9ceb
	.byte	0
	.uleb128 0x4e
	.long	.LASF121
	.value	0x158
	.long	.LASF126
	.long	0x106b
	.long	0x1076
	.uleb128 0x2
	.long	0x9cdc
	.uleb128 0x1
	.long	0x9cf0
	.byte	0
	.uleb128 0x1b
	.long	.LASF121
	.value	0x15d
	.long	.LASF127
	.long	0x1089
	.long	0x1094
	.uleb128 0x2
	.long	0x9cdc
	.uleb128 0x1
	.long	0x9cd2
	.byte	0
	.uleb128 0x1b
	.long	.LASF121
	.value	0x161
	.long	.LASF128
	.long	0x10a7
	.long	0x10b7
	.uleb128 0x2
	.long	0x9cdc
	.uleb128 0x1
	.long	0x9cf0
	.uleb128 0x1
	.long	0x9ceb
	.byte	0
	.uleb128 0x1b
	.long	.LASF121
	.value	0x16f
	.long	.LASF129
	.long	0x10ca
	.long	0x10da
	.uleb128 0x2
	.long	0x9cdc
	.uleb128 0x1
	.long	0x9ceb
	.uleb128 0x1
	.long	0x9cf0
	.byte	0
	.uleb128 0x1b
	.long	.LASF130
	.value	0x175
	.long	.LASF131
	.long	0x10ed
	.long	0x10f3
	.uleb128 0x2
	.long	0x9cdc
	.byte	0
	.uleb128 0x4f
	.long	.LASF132
	.value	0x17e
	.byte	0x14
	.long	0xe9d
	.byte	0
	.uleb128 0x32
	.long	.LASF133
	.value	0x182
	.byte	0x7
	.long	.LASF134
	.long	0xe91
	.long	0x1118
	.long	0x1123
	.uleb128 0x2
	.long	0x9cdc
	.uleb128 0x1
	.long	0x2b5
	.byte	0
	.uleb128 0x1b
	.long	.LASF135
	.value	0x18a
	.long	.LASF136
	.long	0x1136
	.long	0x1146
	.uleb128 0x2
	.long	0x9cdc
	.uleb128 0x1
	.long	0xe91
	.uleb128 0x1
	.long	0x2b5
	.byte	0
	.uleb128 0x10
	.long	.LASF137
	.byte	0x2
	.value	0x195
	.byte	0x7
	.long	.LASF138
	.byte	0x2
	.long	0x115c
	.long	0x1167
	.uleb128 0x2
	.long	0x9cdc
	.uleb128 0x1
	.long	0x2b5
	.byte	0
	.uleb128 0x11
	.string	"_Tp"
	.long	0x8f39
	.uleb128 0xc
	.long	.LASF139
	.long	0xc52
	.byte	0
	.uleb128 0x7
	.long	0xdd9
	.uleb128 0x1a
	.long	.LASF140
	.byte	0x1
	.byte	0x10
	.byte	0xa9
	.byte	0xc
	.long	0x11a2
	.uleb128 0x9
	.long	.LASF141
	.byte	0x10
	.byte	0xaa
	.byte	0xd
	.long	0xc52
	.uleb128 0xc
	.long	.LASF142
	.long	0xc52
	.byte	0
	.uleb128 0x4b
	.long	.LASF143
	.byte	0x18
	.byte	0x2
	.value	0x1cc
	.long	0x1d7b
	.uleb128 0x18
	.byte	0x2
	.value	0x1cc
	.byte	0xb
	.long	0x1100
	.uleb128 0x18
	.byte	0x2
	.value	0x1cc
	.byte	0xb
	.long	0x1123
	.uleb128 0x18
	.byte	0x2
	.value	0x1cc
	.byte	0xb
	.long	0x10f3
	.uleb128 0x18
	.byte	0x2
	.value	0x1cc
	.byte	0xb
	.long	0xf92
	.uleb128 0x18
	.byte	0x2
	.value	0x1cc
	.byte	0xb
	.long	0xf74
	.uleb128 0x18
	.byte	0x2
	.value	0x1cc
	.byte	0xb
	.long	0xfc2
	.uleb128 0x46
	.long	0xdd9
	.byte	0x2
	.uleb128 0x17
	.long	.LASF144
	.byte	0x2
	.value	0x1f6
	.byte	0x7
	.long	.LASF145
	.long	0x8f23
	.long	0x1206
	.uleb128 0x1
	.long	0x630
	.byte	0
	.uleb128 0x17
	.long	.LASF144
	.byte	0x2
	.value	0x1ff
	.byte	0x7
	.long	.LASF146
	.long	0x8f23
	.long	0x1221
	.uleb128 0x1
	.long	0x3a3
	.byte	0
	.uleb128 0x66
	.long	.LASF330
	.long	.LASF331
	.long	0x8f23
	.uleb128 0x14
	.long	.LASF68
	.byte	0x2
	.value	0x1e6
	.byte	0x29
	.long	0xe91
	.uleb128 0x17
	.long	.LASF147
	.byte	0x2
	.value	0x20c
	.byte	0x7
	.long	.LASF148
	.long	0x122e
	.long	0x1265
	.uleb128 0x1
	.long	0x122e
	.uleb128 0x1
	.long	0x122e
	.uleb128 0x1
	.long	0x122e
	.uleb128 0x1
	.long	0x9cf5
	.byte	0
	.uleb128 0x1c
	.long	.LASF115
	.byte	0x2
	.value	0x1e1
	.byte	0x2f
	.long	0xf63
	.uleb128 0x7
	.long	0x1265
	.uleb128 0x50
	.long	.LASF149
	.value	0x227
	.long	.LASF150
	.long	0x128a
	.long	0x1290
	.uleb128 0x2
	.long	0x9cfa
	.byte	0
	.uleb128 0x41
	.long	.LASF149
	.byte	0x2
	.value	0x232
	.long	.LASF151
	.long	0x12a4
	.long	0x12af
	.uleb128 0x2
	.long	0x9cfa
	.uleb128 0x1
	.long	0x9d04
	.byte	0
	.uleb128 0x14
	.long	.LASF90
	.byte	0x2
	.value	0x1f1
	.byte	0x1a
	.long	0xc52
	.uleb128 0x7
	.long	0x12af
	.uleb128 0x41
	.long	.LASF149
	.byte	0x2
	.value	0x240
	.long	.LASF152
	.long	0x12d5
	.long	0x12e5
	.uleb128 0x2
	.long	0x9cfa
	.uleb128 0x1
	.long	0x12e5
	.uleb128 0x1
	.long	0x9d04
	.byte	0
	.uleb128 0x14
	.long	.LASF75
	.byte	0x2
	.value	0x1ef
	.byte	0x1a
	.long	0x2b5
	.uleb128 0x7
	.long	0x12e5
	.uleb128 0x10
	.long	.LASF149
	.byte	0x2
	.value	0x24d
	.byte	0x7
	.long	.LASF153
	.byte	0x1
	.long	0x130d
	.long	0x1322
	.uleb128 0x2
	.long	0x9cfa
	.uleb128 0x1
	.long	0x12e5
	.uleb128 0x1
	.long	0x9d09
	.uleb128 0x1
	.long	0x9d04
	.byte	0
	.uleb128 0x14
	.long	.LASF5
	.byte	0x2
	.value	0x1e5
	.byte	0x17
	.long	0x8f39
	.uleb128 0x7
	.long	0x1322
	.uleb128 0x10
	.long	.LASF149
	.byte	0x2
	.value	0x26d
	.byte	0x7
	.long	.LASF154
	.byte	0x1
	.long	0x134a
	.long	0x1355
	.uleb128 0x2
	.long	0x9cfa
	.uleb128 0x1
	.long	0x9d0e
	.byte	0
	.uleb128 0x50
	.long	.LASF149
	.value	0x280
	.long	.LASF155
	.long	0x1368
	.long	0x1373
	.uleb128 0x2
	.long	0x9cfa
	.uleb128 0x1
	.long	0x9d13
	.byte	0
	.uleb128 0x10
	.long	.LASF149
	.byte	0x2
	.value	0x284
	.byte	0x7
	.long	.LASF156
	.byte	0x1
	.long	0x1389
	.long	0x1399
	.uleb128 0x2
	.long	0x9cfa
	.uleb128 0x1
	.long	0x9d0e
	.uleb128 0x1
	.long	0x9d18
	.byte	0
	.uleb128 0x1b
	.long	.LASF149
	.value	0x28f
	.long	.LASF157
	.long	0x13ac
	.long	0x13c1
	.uleb128 0x2
	.long	0x9cfa
	.uleb128 0x1
	.long	0x9d13
	.uleb128 0x1
	.long	0x9d04
	.uleb128 0x1
	.long	0x630
	.byte	0
	.uleb128 0x1b
	.long	.LASF149
	.value	0x294
	.long	.LASF158
	.long	0x13d4
	.long	0x13e9
	.uleb128 0x2
	.long	0x9cfa
	.uleb128 0x1
	.long	0x9d13
	.uleb128 0x1
	.long	0x9d04
	.uleb128 0x1
	.long	0x3a3
	.byte	0
	.uleb128 0x10
	.long	.LASF149
	.byte	0x2
	.value	0x2a7
	.byte	0x7
	.long	.LASF159
	.byte	0x1
	.long	0x13ff
	.long	0x140f
	.uleb128 0x2
	.long	0x9cfa
	.uleb128 0x1
	.long	0x9d13
	.uleb128 0x1
	.long	0x9d18
	.byte	0
	.uleb128 0x10
	.long	.LASF149
	.byte	0x2
	.value	0x2ba
	.byte	0x7
	.long	.LASF160
	.byte	0x1
	.long	0x1425
	.long	0x1435
	.uleb128 0x2
	.long	0x9cfa
	.uleb128 0x1
	.long	0x1d91
	.uleb128 0x1
	.long	0x9d04
	.byte	0
	.uleb128 0x10
	.long	.LASF161
	.byte	0x2
	.value	0x316
	.byte	0x7
	.long	.LASF162
	.byte	0x1
	.long	0x144b
	.long	0x1451
	.uleb128 0x2
	.long	0x9cfa
	.byte	0
	.uleb128 0x20
	.long	.LASF34
	.byte	0x7
	.byte	0xd6
	.byte	0x5
	.long	.LASF163
	.long	0x9d1d
	.byte	0x1
	.long	0x146a
	.long	0x1475
	.uleb128 0x2
	.long	0x9cfa
	.uleb128 0x1
	.long	0x9d0e
	.byte	0
	.uleb128 0x6
	.long	.LASF34
	.byte	0x2
	.value	0x337
	.byte	0x7
	.long	.LASF164
	.long	0x9d1d
	.byte	0x1
	.long	0x148f
	.long	0x149a
	.uleb128 0x2
	.long	0x9cfa
	.uleb128 0x1
	.long	0x9d13
	.byte	0
	.uleb128 0x6
	.long	.LASF34
	.byte	0x2
	.value	0x34d
	.byte	0x7
	.long	.LASF165
	.long	0x9d1d
	.byte	0x1
	.long	0x14b4
	.long	0x14bf
	.uleb128 0x2
	.long	0x9cfa
	.uleb128 0x1
	.long	0x1d91
	.byte	0
	.uleb128 0x10
	.long	.LASF166
	.byte	0x2
	.value	0x361
	.byte	0x7
	.long	.LASF167
	.byte	0x1
	.long	0x14d5
	.long	0x14e5
	.uleb128 0x2
	.long	0x9cfa
	.uleb128 0x1
	.long	0x12e5
	.uleb128 0x1
	.long	0x9d09
	.byte	0
	.uleb128 0x10
	.long	.LASF166
	.byte	0x2
	.value	0x390
	.byte	0x7
	.long	.LASF168
	.byte	0x1
	.long	0x14fb
	.long	0x1506
	.uleb128 0x2
	.long	0x9cfa
	.uleb128 0x1
	.long	0x1d91
	.byte	0
	.uleb128 0x14
	.long	.LASF169
	.byte	0x2
	.value	0x1ea
	.byte	0x3d
	.long	0x8156
	.uleb128 0x6
	.long	.LASF170
	.byte	0x2
	.value	0x3dc
	.byte	0x7
	.long	.LASF171
	.long	0x1506
	.byte	0x1
	.long	0x152d
	.long	0x1533
	.uleb128 0x2
	.long	0x9cfa
	.byte	0
	.uleb128 0x14
	.long	.LASF172
	.byte	0x2
	.value	0x1ec
	.byte	0x7
	.long	0x8389
	.uleb128 0x6
	.long	.LASF170
	.byte	0x2
	.value	0x3e6
	.byte	0x7
	.long	.LASF173
	.long	0x1533
	.byte	0x1
	.long	0x155a
	.long	0x1560
	.uleb128 0x2
	.long	0x9d22
	.byte	0
	.uleb128 0x34
	.string	"end"
	.value	0x3f0
	.long	.LASF174
	.long	0x1506
	.long	0x1577
	.long	0x157d
	.uleb128 0x2
	.long	0x9cfa
	.byte	0
	.uleb128 0x34
	.string	"end"
	.value	0x3fa
	.long	.LASF175
	.long	0x1533
	.long	0x1594
	.long	0x159a
	.uleb128 0x2
	.long	0x9d22
	.byte	0
	.uleb128 0x14
	.long	.LASF176
	.byte	0x2
	.value	0x1ee
	.byte	0x30
	.long	0x1d96
	.uleb128 0x6
	.long	.LASF177
	.byte	0x2
	.value	0x404
	.byte	0x7
	.long	.LASF178
	.long	0x159a
	.byte	0x1
	.long	0x15c1
	.long	0x15c7
	.uleb128 0x2
	.long	0x9cfa
	.byte	0
	.uleb128 0x14
	.long	.LASF179
	.byte	0x2
	.value	0x1ed
	.byte	0x35
	.long	0x1d9b
	.uleb128 0x6
	.long	.LASF177
	.byte	0x2
	.value	0x40e
	.byte	0x7
	.long	.LASF180
	.long	0x15c7
	.byte	0x1
	.long	0x15ee
	.long	0x15f4
	.uleb128 0x2
	.long	0x9d22
	.byte	0
	.uleb128 0x6
	.long	.LASF181
	.byte	0x2
	.value	0x418
	.byte	0x7
	.long	.LASF182
	.long	0x159a
	.byte	0x1
	.long	0x160e
	.long	0x1614
	.uleb128 0x2
	.long	0x9cfa
	.byte	0
	.uleb128 0x6
	.long	.LASF181
	.byte	0x2
	.value	0x422
	.byte	0x7
	.long	.LASF183
	.long	0x15c7
	.byte	0x1
	.long	0x162e
	.long	0x1634
	.uleb128 0x2
	.long	0x9d22
	.byte	0
	.uleb128 0x6
	.long	.LASF184
	.byte	0x2
	.value	0x42d
	.byte	0x7
	.long	.LASF185
	.long	0x1533
	.byte	0x1
	.long	0x164e
	.long	0x1654
	.uleb128 0x2
	.long	0x9d22
	.byte	0
	.uleb128 0x6
	.long	.LASF186
	.byte	0x2
	.value	0x437
	.byte	0x7
	.long	.LASF187
	.long	0x1533
	.byte	0x1
	.long	0x166e
	.long	0x1674
	.uleb128 0x2
	.long	0x9d22
	.byte	0
	.uleb128 0x6
	.long	.LASF188
	.byte	0x2
	.value	0x441
	.byte	0x7
	.long	.LASF189
	.long	0x15c7
	.byte	0x1
	.long	0x168e
	.long	0x1694
	.uleb128 0x2
	.long	0x9d22
	.byte	0
	.uleb128 0x6
	.long	.LASF190
	.byte	0x2
	.value	0x44b
	.byte	0x7
	.long	.LASF191
	.long	0x15c7
	.byte	0x1
	.long	0x16ae
	.long	0x16b4
	.uleb128 0x2
	.long	0x9d22
	.byte	0
	.uleb128 0x6
	.long	.LASF192
	.byte	0x2
	.value	0x453
	.byte	0x7
	.long	.LASF193
	.long	0x12e5
	.byte	0x1
	.long	0x16ce
	.long	0x16d4
	.uleb128 0x2
	.long	0x9d22
	.byte	0
	.uleb128 0x6
	.long	.LASF78
	.byte	0x2
	.value	0x45e
	.byte	0x7
	.long	.LASF194
	.long	0x12e5
	.byte	0x1
	.long	0x16ee
	.long	0x16f4
	.uleb128 0x2
	.long	0x9d22
	.byte	0
	.uleb128 0x10
	.long	.LASF195
	.byte	0x2
	.value	0x46d
	.byte	0x7
	.long	.LASF196
	.byte	0x1
	.long	0x170a
	.long	0x1715
	.uleb128 0x2
	.long	0x9cfa
	.uleb128 0x1
	.long	0x12e5
	.byte	0
	.uleb128 0x10
	.long	.LASF195
	.byte	0x2
	.value	0x482
	.byte	0x7
	.long	.LASF197
	.byte	0x1
	.long	0x172b
	.long	0x173b
	.uleb128 0x2
	.long	0x9cfa
	.uleb128 0x1
	.long	0x12e5
	.uleb128 0x1
	.long	0x9d09
	.byte	0
	.uleb128 0x10
	.long	.LASF198
	.byte	0x2
	.value	0x4a4
	.byte	0x7
	.long	.LASF199
	.byte	0x1
	.long	0x1751
	.long	0x1757
	.uleb128 0x2
	.long	0x9cfa
	.byte	0
	.uleb128 0x6
	.long	.LASF200
	.byte	0x2
	.value	0x4ae
	.byte	0x7
	.long	.LASF201
	.long	0x12e5
	.byte	0x1
	.long	0x1771
	.long	0x1777
	.uleb128 0x2
	.long	0x9d22
	.byte	0
	.uleb128 0x6
	.long	.LASF202
	.byte	0x2
	.value	0x4bd
	.byte	0x7
	.long	.LASF203
	.long	0x8f23
	.byte	0x1
	.long	0x1791
	.long	0x1797
	.uleb128 0x2
	.long	0x9d22
	.byte	0
	.uleb128 0x1f
	.long	.LASF204
	.byte	0x7
	.byte	0x46
	.byte	0x5
	.long	.LASF205
	.byte	0x1
	.long	0x17ac
	.long	0x17b7
	.uleb128 0x2
	.long	0x9cfa
	.uleb128 0x1
	.long	0x12e5
	.byte	0
	.uleb128 0x14
	.long	.LASF69
	.byte	0x2
	.value	0x1e8
	.byte	0x32
	.long	0x8111
	.uleb128 0x6
	.long	.LASF206
	.byte	0x2
	.value	0x4e3
	.byte	0x7
	.long	.LASF207
	.long	0x17b7
	.byte	0x1
	.long	0x17de
	.long	0x17e9
	.uleb128 0x2
	.long	0x9cfa
	.uleb128 0x1
	.long	0x12e5
	.byte	0
	.uleb128 0x14
	.long	.LASF72
	.byte	0x2
	.value	0x1e9
	.byte	0x37
	.long	0x811d
	.uleb128 0x6
	.long	.LASF206
	.byte	0x2
	.value	0x4f6
	.byte	0x7
	.long	.LASF208
	.long	0x17e9
	.byte	0x1
	.long	0x1810
	.long	0x181b
	.uleb128 0x2
	.long	0x9d22
	.uleb128 0x1
	.long	0x12e5
	.byte	0
	.uleb128 0x10
	.long	.LASF209
	.byte	0x2
	.value	0x500
	.byte	0x7
	.long	.LASF210
	.byte	0x2
	.long	0x1831
	.long	0x183c
	.uleb128 0x2
	.long	0x9d22
	.uleb128 0x1
	.long	0x12e5
	.byte	0
	.uleb128 0x34
	.string	"at"
	.value	0x517
	.long	.LASF211
	.long	0x17b7
	.long	0x1852
	.long	0x185d
	.uleb128 0x2
	.long	0x9cfa
	.uleb128 0x1
	.long	0x12e5
	.byte	0
	.uleb128 0x34
	.string	"at"
	.value	0x52a
	.long	.LASF212
	.long	0x17e9
	.long	0x1873
	.long	0x187e
	.uleb128 0x2
	.long	0x9d22
	.uleb128 0x1
	.long	0x12e5
	.byte	0
	.uleb128 0x6
	.long	.LASF213
	.byte	0x2
	.value	0x536
	.byte	0x7
	.long	.LASF214
	.long	0x17b7
	.byte	0x1
	.long	0x1898
	.long	0x189e
	.uleb128 0x2
	.long	0x9cfa
	.byte	0
	.uleb128 0x6
	.long	.LASF213
	.byte	0x2
	.value	0x542
	.byte	0x7
	.long	.LASF215
	.long	0x17e9
	.byte	0x1
	.long	0x18b8
	.long	0x18be
	.uleb128 0x2
	.long	0x9d22
	.byte	0
	.uleb128 0x6
	.long	.LASF216
	.byte	0x2
	.value	0x54e
	.byte	0x7
	.long	.LASF217
	.long	0x17b7
	.byte	0x1
	.long	0x18d8
	.long	0x18de
	.uleb128 0x2
	.long	0x9cfa
	.byte	0
	.uleb128 0x6
	.long	.LASF216
	.byte	0x2
	.value	0x55a
	.byte	0x7
	.long	.LASF218
	.long	0x17e9
	.byte	0x1
	.long	0x18f8
	.long	0x18fe
	.uleb128 0x2
	.long	0x9d22
	.byte	0
	.uleb128 0x6
	.long	.LASF219
	.byte	0x2
	.value	0x569
	.byte	0x7
	.long	.LASF220
	.long	0x9c5a
	.byte	0x1
	.long	0x1918
	.long	0x191e
	.uleb128 0x2
	.long	0x9cfa
	.byte	0
	.uleb128 0x6
	.long	.LASF219
	.byte	0x2
	.value	0x56e
	.byte	0x7
	.long	.LASF221
	.long	0x9c73
	.byte	0x1
	.long	0x1938
	.long	0x193e
	.uleb128 0x2
	.long	0x9d22
	.byte	0
	.uleb128 0x10
	.long	.LASF222
	.byte	0x2
	.value	0x57e
	.byte	0x7
	.long	.LASF223
	.byte	0x1
	.long	0x1954
	.long	0x195f
	.uleb128 0x2
	.long	0x9cfa
	.uleb128 0x1
	.long	0x9d09
	.byte	0
	.uleb128 0x10
	.long	.LASF222
	.byte	0x2
	.value	0x58f
	.byte	0x7
	.long	.LASF224
	.byte	0x1
	.long	0x1975
	.long	0x1980
	.uleb128 0x2
	.long	0x9cfa
	.uleb128 0x1
	.long	0x9d2c
	.byte	0
	.uleb128 0x10
	.long	.LASF225
	.byte	0x2
	.value	0x5a7
	.byte	0x7
	.long	.LASF226
	.byte	0x1
	.long	0x1996
	.long	0x199c
	.uleb128 0x2
	.long	0x9cfa
	.byte	0
	.uleb128 0x20
	.long	.LASF227
	.byte	0x7
	.byte	0x89
	.byte	0x5
	.long	.LASF228
	.long	0x1506
	.byte	0x1
	.long	0x19b5
	.long	0x19c5
	.uleb128 0x2
	.long	0x9cfa
	.uleb128 0x1
	.long	0x1533
	.uleb128 0x1
	.long	0x9d09
	.byte	0
	.uleb128 0x6
	.long	.LASF227
	.byte	0x2
	.value	0x5ee
	.byte	0x7
	.long	.LASF229
	.long	0x1506
	.byte	0x1
	.long	0x19df
	.long	0x19ef
	.uleb128 0x2
	.long	0x9cfa
	.uleb128 0x1
	.long	0x1533
	.uleb128 0x1
	.long	0x9d2c
	.byte	0
	.uleb128 0x6
	.long	.LASF227
	.byte	0x2
	.value	0x600
	.byte	0x7
	.long	.LASF230
	.long	0x1506
	.byte	0x1
	.long	0x1a09
	.long	0x1a19
	.uleb128 0x2
	.long	0x9cfa
	.uleb128 0x1
	.long	0x1533
	.uleb128 0x1
	.long	0x1d91
	.byte	0
	.uleb128 0x6
	.long	.LASF227
	.byte	0x2
	.value	0x61a
	.byte	0x7
	.long	.LASF231
	.long	0x1506
	.byte	0x1
	.long	0x1a33
	.long	0x1a48
	.uleb128 0x2
	.long	0x9cfa
	.uleb128 0x1
	.long	0x1533
	.uleb128 0x1
	.long	0x12e5
	.uleb128 0x1
	.long	0x9d09
	.byte	0
	.uleb128 0x6
	.long	.LASF232
	.byte	0x2
	.value	0x6f6
	.byte	0x7
	.long	.LASF233
	.long	0x1506
	.byte	0x1
	.long	0x1a62
	.long	0x1a6d
	.uleb128 0x2
	.long	0x9cfa
	.uleb128 0x1
	.long	0x1533
	.byte	0
	.uleb128 0x6
	.long	.LASF232
	.byte	0x2
	.value	0x712
	.byte	0x7
	.long	.LASF234
	.long	0x1506
	.byte	0x1
	.long	0x1a87
	.long	0x1a97
	.uleb128 0x2
	.long	0x9cfa
	.uleb128 0x1
	.long	0x1533
	.uleb128 0x1
	.long	0x1533
	.byte	0
	.uleb128 0x10
	.long	.LASF39
	.byte	0x2
	.value	0x72a
	.byte	0x7
	.long	.LASF235
	.byte	0x1
	.long	0x1aad
	.long	0x1ab8
	.uleb128 0x2
	.long	0x9cfa
	.uleb128 0x1
	.long	0x9d1d
	.byte	0
	.uleb128 0x10
	.long	.LASF236
	.byte	0x2
	.value	0x73d
	.byte	0x7
	.long	.LASF237
	.byte	0x1
	.long	0x1ace
	.long	0x1ad4
	.uleb128 0x2
	.long	0x9cfa
	.byte	0
	.uleb128 0x10
	.long	.LASF238
	.byte	0x2
	.value	0x7c3
	.byte	0x7
	.long	.LASF239
	.byte	0x2
	.long	0x1aea
	.long	0x1afa
	.uleb128 0x2
	.long	0x9cfa
	.uleb128 0x1
	.long	0x12e5
	.uleb128 0x1
	.long	0x9d09
	.byte	0
	.uleb128 0x10
	.long	.LASF240
	.byte	0x2
	.value	0x7ce
	.byte	0x7
	.long	.LASF241
	.byte	0x2
	.long	0x1b10
	.long	0x1b1b
	.uleb128 0x2
	.long	0x9cfa
	.uleb128 0x1
	.long	0x12e5
	.byte	0
	.uleb128 0x10
	.long	.LASF242
	.byte	0x7
	.value	0x112
	.byte	0x5
	.long	.LASF243
	.byte	0x2
	.long	0x1b31
	.long	0x1b41
	.uleb128 0x2
	.long	0x9cfa
	.uleb128 0x1
	.long	0x2b5
	.uleb128 0x1
	.long	0x9d09
	.byte	0
	.uleb128 0x10
	.long	.LASF244
	.byte	0x7
	.value	0x296
	.byte	0x5
	.long	.LASF245
	.byte	0x2
	.long	0x1b57
	.long	0x1b6c
	.uleb128 0x2
	.long	0x9cfa
	.uleb128 0x1
	.long	0x1506
	.uleb128 0x1
	.long	0x12e5
	.uleb128 0x1
	.long	0x9d09
	.byte	0
	.uleb128 0x10
	.long	.LASF246
	.byte	0x7
	.value	0x300
	.byte	0x5
	.long	.LASF247
	.byte	0x2
	.long	0x1b82
	.long	0x1b92
	.uleb128 0x2
	.long	0x9cfa
	.uleb128 0x1
	.long	0x12e5
	.uleb128 0x1
	.long	0x9d09
	.byte	0
	.uleb128 0x10
	.long	.LASF248
	.byte	0x7
	.value	0x339
	.byte	0x5
	.long	.LASF249
	.byte	0x2
	.long	0x1ba8
	.long	0x1bb3
	.uleb128 0x2
	.long	0x9cfa
	.uleb128 0x1
	.long	0x12e5
	.byte	0
	.uleb128 0x6
	.long	.LASF250
	.byte	0x7
	.value	0x396
	.byte	0x5
	.long	.LASF251
	.long	0x8f23
	.byte	0x2
	.long	0x1bcd
	.long	0x1bd3
	.uleb128 0x2
	.long	0x9cfa
	.byte	0
	.uleb128 0x6
	.long	.LASF252
	.byte	0x7
	.value	0x16f
	.byte	0x5
	.long	.LASF253
	.long	0x1506
	.byte	0x2
	.long	0x1bed
	.long	0x1bfd
	.uleb128 0x2
	.long	0x9cfa
	.uleb128 0x1
	.long	0x1533
	.uleb128 0x1
	.long	0x9d2c
	.byte	0
	.uleb128 0x6
	.long	.LASF254
	.byte	0x2
	.value	0x889
	.byte	0x7
	.long	.LASF255
	.long	0x1506
	.byte	0x2
	.long	0x1c17
	.long	0x1c27
	.uleb128 0x2
	.long	0x9cfa
	.uleb128 0x1
	.long	0x1533
	.uleb128 0x1
	.long	0x9d2c
	.byte	0
	.uleb128 0x6
	.long	.LASF256
	.byte	0x2
	.value	0x890
	.byte	0x7
	.long	.LASF257
	.long	0x12e5
	.byte	0x2
	.long	0x1c41
	.long	0x1c51
	.uleb128 0x2
	.long	0x9d22
	.uleb128 0x1
	.long	0x12e5
	.uleb128 0x1
	.long	0x7751
	.byte	0
	.uleb128 0x51
	.long	.LASF258
	.value	0x89b
	.long	.LASF259
	.long	0x12e5
	.long	0x1c6f
	.uleb128 0x1
	.long	0x12e5
	.uleb128 0x1
	.long	0x9d04
	.byte	0
	.uleb128 0x51
	.long	.LASF260
	.value	0x8a4
	.long	.LASF261
	.long	0x12e5
	.long	0x1c88
	.uleb128 0x1
	.long	0x9d31
	.byte	0
	.uleb128 0x10
	.long	.LASF262
	.byte	0x2
	.value	0x8b5
	.byte	0x7
	.long	.LASF263
	.byte	0x2
	.long	0x1c9e
	.long	0x1ca9
	.uleb128 0x2
	.long	0x9cfa
	.uleb128 0x1
	.long	0x122e
	.byte	0
	.uleb128 0x20
	.long	.LASF264
	.byte	0x7
	.byte	0xb9
	.byte	0x5
	.long	.LASF265
	.long	0x1506
	.byte	0x2
	.long	0x1cc2
	.long	0x1ccd
	.uleb128 0x2
	.long	0x9cfa
	.uleb128 0x1
	.long	0x1506
	.byte	0
	.uleb128 0x20
	.long	.LASF264
	.byte	0x7
	.byte	0xc7
	.byte	0x5
	.long	.LASF266
	.long	0x1506
	.byte	0x2
	.long	0x1ce6
	.long	0x1cf6
	.uleb128 0x2
	.long	0x9cfa
	.uleb128 0x1
	.long	0x1506
	.uleb128 0x1
	.long	0x1506
	.byte	0
	.uleb128 0x1b
	.long	.LASF267
	.value	0x8cf
	.long	.LASF268
	.long	0x1d09
	.long	0x1d19
	.uleb128 0x2
	.long	0x9cfa
	.uleb128 0x1
	.long	0x9d13
	.uleb128 0x1
	.long	0x630
	.byte	0
	.uleb128 0x1b
	.long	.LASF267
	.value	0x8db
	.long	.LASF269
	.long	0x1d2c
	.long	0x1d3c
	.uleb128 0x2
	.long	0x9cfa
	.uleb128 0x1
	.long	0x9d13
	.uleb128 0x1
	.long	0x3a3
	.byte	0
	.uleb128 0x32
	.long	.LASF270
	.value	0x8ee
	.byte	0x2
	.long	.LASF271
	.long	0x9c5a
	.long	0x1d5d
	.long	0x1d68
	.uleb128 0x11
	.string	"_Up"
	.long	0x8f39
	.uleb128 0x2
	.long	0x9d22
	.uleb128 0x1
	.long	0x9c5a
	.byte	0
	.uleb128 0x11
	.string	"_Tp"
	.long	0x8f39
	.uleb128 0x60
	.long	.LASF139
	.long	0xc52
	.byte	0
	.uleb128 0x7
	.long	0x11a2
	.uleb128 0x9
	.long	.LASF272
	.byte	0x10
	.byte	0xad
	.byte	0xb
	.long	0x118c
	.uleb128 0x7
	.long	0x1d80
	.uleb128 0x2d
	.long	.LASF274
	.uleb128 0x2d
	.long	.LASF275
	.uleb128 0x2d
	.long	.LASF276
	.uleb128 0x18
	.byte	0x9
	.value	0x82c
	.byte	0xb
	.long	0x9e71
	.uleb128 0x18
	.byte	0x9
	.value	0x82d
	.byte	0xb
	.long	0x9e65
	.uleb128 0x3e
	.long	.LASF277
	.byte	0x1
	.byte	0x6
	.byte	0x3f
	.long	0x1f50
	.uleb128 0x1f
	.long	.LASF58
	.byte	0x6
	.byte	0x58
	.byte	0x7
	.long	.LASF278
	.byte	0x1
	.long	0x1dd3
	.long	0x1dd9
	.uleb128 0x2
	.long	0x9f49
	.byte	0
	.uleb128 0x1f
	.long	.LASF58
	.byte	0x6
	.byte	0x5c
	.byte	0x7
	.long	.LASF279
	.byte	0x1
	.long	0x1dee
	.long	0x1df9
	.uleb128 0x2
	.long	0x9f49
	.uleb128 0x1
	.long	0x9f4e
	.byte	0
	.uleb128 0x4d
	.long	.LASF34
	.byte	0x6
	.byte	0x64
	.byte	0x18
	.long	.LASF280
	.long	0x9f53
	.long	0x1e11
	.long	0x1e1c
	.uleb128 0x2
	.long	0x9f49
	.uleb128 0x1
	.long	0x9f4e
	.byte	0
	.uleb128 0x1f
	.long	.LASF64
	.byte	0x6
	.byte	0x68
	.byte	0x7
	.long	.LASF281
	.byte	0x1
	.long	0x1e31
	.long	0x1e37
	.uleb128 0x2
	.long	0x9f49
	.byte	0
	.uleb128 0x24
	.long	.LASF68
	.byte	0x6
	.byte	0x46
	.byte	0x1a
	.long	0x9f58
	.uleb128 0x20
	.long	.LASF66
	.byte	0x6
	.byte	0x6b
	.byte	0x7
	.long	.LASF282
	.long	0x1e37
	.byte	0x1
	.long	0x1e5c
	.long	0x1e67
	.uleb128 0x2
	.long	0x9f62
	.uleb128 0x1
	.long	0x1e67
	.byte	0
	.uleb128 0x24
	.long	.LASF69
	.byte	0x6
	.byte	0x48
	.byte	0x1a
	.long	0x9f67
	.uleb128 0x24
	.long	.LASF70
	.byte	0x6
	.byte	0x47
	.byte	0x1a
	.long	0x9f6c
	.uleb128 0x20
	.long	.LASF66
	.byte	0x6
	.byte	0x6f
	.byte	0x7
	.long	.LASF283
	.long	0x1e73
	.byte	0x1
	.long	0x1e98
	.long	0x1ea3
	.uleb128 0x2
	.long	0x9f62
	.uleb128 0x1
	.long	0x1ea3
	.byte	0
	.uleb128 0x24
	.long	.LASF72
	.byte	0x6
	.byte	0x49
	.byte	0x1a
	.long	0x9f76
	.uleb128 0x20
	.long	.LASF73
	.byte	0x6
	.byte	0x81
	.byte	0x7
	.long	.LASF284
	.long	0x9f58
	.byte	0x1
	.long	0x1ec8
	.long	0x1ed8
	.uleb128 0x2
	.long	0x9f49
	.uleb128 0x1
	.long	0x1ed8
	.uleb128 0x1
	.long	0x8f79
	.byte	0
	.uleb128 0x24
	.long	.LASF75
	.byte	0x6
	.byte	0x43
	.byte	0x1f
	.long	0x2b5
	.uleb128 0x1f
	.long	.LASF76
	.byte	0x6
	.byte	0xa7
	.byte	0x7
	.long	.LASF285
	.byte	0x1
	.long	0x1ef9
	.long	0x1f09
	.uleb128 0x2
	.long	0x9f49
	.uleb128 0x1
	.long	0x9f58
	.uleb128 0x1
	.long	0x1ed8
	.byte	0
	.uleb128 0x20
	.long	.LASF78
	.byte	0x6
	.byte	0xc2
	.byte	0x7
	.long	.LASF286
	.long	0x1ed8
	.byte	0x1
	.long	0x1f22
	.long	0x1f28
	.uleb128 0x2
	.long	0x9f62
	.byte	0
	.uleb128 0x40
	.long	.LASF80
	.byte	0x6
	.byte	0xf2
	.byte	0x7
	.long	.LASF287
	.long	0x1ed8
	.long	0x1f40
	.long	0x1f46
	.uleb128 0x2
	.long	0x9f62
	.byte	0
	.uleb128 0x11
	.string	"_Tp"
	.long	0x9e2f
	.byte	0
	.uleb128 0x7
	.long	0x1db2
	.uleb128 0x3e
	.long	.LASF288
	.byte	0x1
	.byte	0x5
	.byte	0x85
	.long	0x1fd9
	.uleb128 0x46
	.long	0x1db2
	.byte	0x1
	.uleb128 0x1f
	.long	.LASF83
	.byte	0x5
	.byte	0xa8
	.byte	0x7
	.long	.LASF289
	.byte	0x1
	.long	0x1f7c
	.long	0x1f82
	.uleb128 0x2
	.long	0x9f7b
	.byte	0
	.uleb128 0x1f
	.long	.LASF83
	.byte	0x5
	.byte	0xac
	.byte	0x7
	.long	.LASF290
	.byte	0x1
	.long	0x1f97
	.long	0x1fa2
	.uleb128 0x2
	.long	0x9f7b
	.uleb128 0x1
	.long	0x9f80
	.byte	0
	.uleb128 0x4d
	.long	.LASF34
	.byte	0x5
	.byte	0xb1
	.byte	0x12
	.long	.LASF291
	.long	0x9f85
	.long	0x1fba
	.long	0x1fc5
	.uleb128 0x2
	.long	0x9f7b
	.uleb128 0x1
	.long	0x9f80
	.byte	0
	.uleb128 0x64
	.long	.LASF87
	.long	.LASF292
	.long	0x1fd2
	.uleb128 0x2
	.long	0x9f7b
	.byte	0
	.byte	0
	.uleb128 0x7
	.long	0x1f55
	.uleb128 0x59
	.long	.LASF293
	.byte	0x1
	.byte	0x8
	.value	0x248
	.byte	0xc
	.long	0x20dc
	.uleb128 0x1c
	.long	.LASF68
	.byte	0x8
	.value	0x251
	.byte	0xd
	.long	0x9f58
	.uleb128 0x17
	.long	.LASF73
	.byte	0x8
	.value	0x27d
	.byte	0x7
	.long	.LASF294
	.long	0x1fec
	.long	0x2019
	.uleb128 0x1
	.long	0x9f8a
	.uleb128 0x1
	.long	0x202b
	.byte	0
	.uleb128 0x1c
	.long	.LASF90
	.byte	0x8
	.value	0x24b
	.byte	0xd
	.long	0x1f55
	.uleb128 0x7
	.long	0x2019
	.uleb128 0x1c
	.long	.LASF75
	.byte	0x8
	.value	0x260
	.byte	0xd
	.long	0x2b5
	.uleb128 0x17
	.long	.LASF73
	.byte	0x8
	.value	0x28c
	.byte	0x7
	.long	.LASF295
	.long	0x1fec
	.long	0x205d
	.uleb128 0x1
	.long	0x9f8a
	.uleb128 0x1
	.long	0x202b
	.uleb128 0x1
	.long	0x205d
	.byte	0
	.uleb128 0x1c
	.long	.LASF93
	.byte	0x8
	.value	0x25a
	.byte	0xd
	.long	0x8f79
	.uleb128 0x3f
	.long	.LASF76
	.byte	0x8
	.value	0x2b0
	.byte	0x7
	.long	.LASF297
	.long	0x208b
	.uleb128 0x1
	.long	0x9f8a
	.uleb128 0x1
	.long	0x1fec
	.uleb128 0x1
	.long	0x202b
	.byte	0
	.uleb128 0x17
	.long	.LASF78
	.byte	0x8
	.value	0x2ed
	.byte	0x7
	.long	.LASF298
	.long	0x202b
	.long	0x20a6
	.uleb128 0x1
	.long	0x9f8f
	.byte	0
	.uleb128 0x17
	.long	.LASF95
	.byte	0x8
	.value	0x2fd
	.byte	0x7
	.long	.LASF299
	.long	0x2019
	.long	0x20c1
	.uleb128 0x1
	.long	0x9f8f
	.byte	0
	.uleb128 0x1c
	.long	.LASF5
	.byte	0x8
	.value	0x24e
	.byte	0xd
	.long	0x9e2f
	.uleb128 0x1c
	.long	.LASF97
	.byte	0x8
	.value	0x26f
	.byte	0x8
	.long	0x1f55
	.byte	0
	.uleb128 0x1a
	.long	.LASF300
	.byte	0x18
	.byte	0x2
	.byte	0x5b
	.byte	0xc
	.long	0x2464
	.uleb128 0x1a
	.long	.LASF99
	.byte	0x18
	.byte	0x2
	.byte	0x62
	.byte	0xe
	.long	0x218f
	.uleb128 0xe
	.long	.LASF101
	.byte	0x2
	.byte	0x64
	.byte	0xa
	.long	0x2194
	.byte	0
	.uleb128 0xe
	.long	.LASF102
	.byte	0x2
	.byte	0x65
	.byte	0xa
	.long	0x2194
	.byte	0x8
	.uleb128 0xe
	.long	.LASF103
	.byte	0x2
	.byte	0x66
	.byte	0xa
	.long	0x2194
	.byte	0x10
	.uleb128 0x1e
	.long	.LASF99
	.byte	0x2
	.byte	0x69
	.byte	0x2
	.long	.LASF301
	.long	0x2131
	.long	0x2137
	.uleb128 0x2
	.long	0x9f9e
	.byte	0
	.uleb128 0x1e
	.long	.LASF99
	.byte	0x2
	.byte	0x6f
	.byte	0x2
	.long	.LASF302
	.long	0x214b
	.long	0x2156
	.uleb128 0x2
	.long	0x9f9e
	.uleb128 0x1
	.long	0x9fa3
	.byte	0
	.uleb128 0x1e
	.long	.LASF106
	.byte	0x2
	.byte	0x77
	.byte	0x2
	.long	.LASF303
	.long	0x216a
	.long	0x2175
	.uleb128 0x2
	.long	0x9f9e
	.uleb128 0x1
	.long	0x9fa8
	.byte	0
	.uleb128 0x5f
	.long	.LASF108
	.byte	0x80
	.long	.LASF305
	.long	0x2183
	.uleb128 0x2
	.long	0x9f9e
	.uleb128 0x1
	.long	0x9fad
	.byte	0
	.byte	0
	.uleb128 0x7
	.long	0x20e9
	.uleb128 0x9
	.long	.LASF68
	.byte	0x2
	.byte	0x60
	.byte	0x9
	.long	0x844c
	.uleb128 0x1a
	.long	.LASF109
	.byte	0x18
	.byte	0x2
	.byte	0x8b
	.byte	0xe
	.long	0x224d
	.uleb128 0x31
	.long	0x1f55
	.uleb128 0x31
	.long	0x20e9
	.uleb128 0x1e
	.long	.LASF109
	.byte	0x2
	.byte	0x8f
	.byte	0x2
	.long	.LASF306
	.long	0x21cb
	.long	0x21d1
	.uleb128 0x2
	.long	0x9fb2
	.byte	0
	.uleb128 0x1e
	.long	.LASF109
	.byte	0x2
	.byte	0x98
	.byte	0x2
	.long	.LASF307
	.long	0x21e5
	.long	0x21f0
	.uleb128 0x2
	.long	0x9fb2
	.uleb128 0x1
	.long	0x9fb7
	.byte	0
	.uleb128 0x1e
	.long	.LASF109
	.byte	0x2
	.byte	0xa0
	.byte	0x2
	.long	.LASF308
	.long	0x2204
	.long	0x220f
	.uleb128 0x2
	.long	0x9fb2
	.uleb128 0x1
	.long	0x9fbc
	.byte	0
	.uleb128 0x1e
	.long	.LASF109
	.byte	0x2
	.byte	0xa5
	.byte	0x2
	.long	.LASF309
	.long	0x2223
	.long	0x222e
	.uleb128 0x2
	.long	0x9fb2
	.uleb128 0x1
	.long	0x9fc1
	.byte	0
	.uleb128 0x5f
	.long	.LASF109
	.byte	0xaa
	.long	.LASF310
	.long	0x223c
	.uleb128 0x2
	.long	0x9fb2
	.uleb128 0x1
	.long	0x9fc1
	.uleb128 0x1
	.long	0x9fbc
	.byte	0
	.byte	0
	.uleb128 0x9
	.long	.LASF115
	.byte	0x2
	.byte	0x5e
	.byte	0x15
	.long	0x847d
	.uleb128 0x7
	.long	0x224d
	.uleb128 0x32
	.long	.LASF116
	.value	0x133
	.byte	0x7
	.long	.LASF311
	.long	0x9fc6
	.long	0x2276
	.long	0x227c
	.uleb128 0x2
	.long	0x9fcb
	.byte	0
	.uleb128 0x32
	.long	.LASF116
	.value	0x138
	.byte	0x7
	.long	.LASF312
	.long	0x9fb7
	.long	0x2294
	.long	0x229a
	.uleb128 0x2
	.long	0x9fd0
	.byte	0
	.uleb128 0x1c
	.long	.LASF90
	.byte	0x2
	.value	0x12f
	.byte	0x16
	.long	0x1f55
	.uleb128 0x7
	.long	0x229a
	.uleb128 0x32
	.long	.LASF119
	.value	0x13d
	.byte	0x7
	.long	.LASF313
	.long	0x229a
	.long	0x22c4
	.long	0x22ca
	.uleb128 0x2
	.long	0x9fd0
	.byte	0
	.uleb128 0x4e
	.long	.LASF121
	.value	0x141
	.long	.LASF314
	.long	0x22dd
	.long	0x22e3
	.uleb128 0x2
	.long	0x9fcb
	.byte	0
	.uleb128 0x1b
	.long	.LASF121
	.value	0x147
	.long	.LASF315
	.long	0x22f6
	.long	0x2301
	.uleb128 0x2
	.long	0x9fcb
	.uleb128 0x1
	.long	0x9fd5
	.byte	0
	.uleb128 0x1b
	.long	.LASF121
	.value	0x14d
	.long	.LASF316
	.long	0x2314
	.long	0x231f
	.uleb128 0x2
	.long	0x9fcb
	.uleb128 0x1
	.long	0x2b5
	.byte	0
	.uleb128 0x1b
	.long	.LASF121
	.value	0x153
	.long	.LASF317
	.long	0x2332
	.long	0x2342
	.uleb128 0x2
	.long	0x9fcb
	.uleb128 0x1
	.long	0x2b5
	.uleb128 0x1
	.long	0x9fd5
	.byte	0
	.uleb128 0x4e
	.long	.LASF121
	.value	0x158
	.long	.LASF318
	.long	0x2355
	.long	0x2360
	.uleb128 0x2
	.long	0x9fcb
	.uleb128 0x1
	.long	0x9fda
	.byte	0
	.uleb128 0x1b
	.long	.LASF121
	.value	0x15d
	.long	.LASF319
	.long	0x2373
	.long	0x237e
	.uleb128 0x2
	.long	0x9fcb
	.uleb128 0x1
	.long	0x9fc1
	.byte	0
	.uleb128 0x1b
	.long	.LASF121
	.value	0x161
	.long	.LASF320
	.long	0x2391
	.long	0x23a1
	.uleb128 0x2
	.long	0x9fcb
	.uleb128 0x1
	.long	0x9fda
	.uleb128 0x1
	.long	0x9fd5
	.byte	0
	.uleb128 0x1b
	.long	.LASF121
	.value	0x16f
	.long	.LASF321
	.long	0x23b4
	.long	0x23c4
	.uleb128 0x2
	.long	0x9fcb
	.uleb128 0x1
	.long	0x9fd5
	.uleb128 0x1
	.long	0x9fda
	.byte	0
	.uleb128 0x1b
	.long	.LASF130
	.value	0x175
	.long	.LASF322
	.long	0x23d7
	.long	0x23dd
	.uleb128 0x2
	.long	0x9fcb
	.byte	0
	.uleb128 0x4f
	.long	.LASF132
	.value	0x17e
	.byte	0x14
	.long	0x21a0
	.byte	0
	.uleb128 0x32
	.long	.LASF133
	.value	0x182
	.byte	0x7
	.long	.LASF323
	.long	0x2194
	.long	0x2402
	.long	0x240d
	.uleb128 0x2
	.long	0x9fcb
	.uleb128 0x1
	.long	0x2b5
	.byte	0
	.uleb128 0x1b
	.long	.LASF135
	.value	0x18a
	.long	.LASF324
	.long	0x2420
	.long	0x2430
	.uleb128 0x2
	.long	0x9fcb
	.uleb128 0x1
	.long	0x2194
	.uleb128 0x1
	.long	0x2b5
	.byte	0
	.uleb128 0x10
	.long	.LASF137
	.byte	0x2
	.value	0x195
	.byte	0x7
	.long	.LASF325
	.byte	0x2
	.long	0x2446
	.long	0x2451
	.uleb128 0x2
	.long	0x9fcb
	.uleb128 0x1
	.long	0x2b5
	.byte	0
	.uleb128 0x11
	.string	"_Tp"
	.long	0x9e2f
	.uleb128 0xc
	.long	.LASF139
	.long	0x1f55
	.byte	0
	.uleb128 0x7
	.long	0x20dc
	.uleb128 0x1a
	.long	.LASF326
	.byte	0x1
	.byte	0x10
	.byte	0xa9
	.byte	0xc
	.long	0x248c
	.uleb128 0x9
	.long	.LASF141
	.byte	0x10
	.byte	0xaa
	.byte	0xd
	.long	0x1f55
	.uleb128 0xc
	.long	.LASF142
	.long	0x1f55
	.byte	0
	.uleb128 0x4b
	.long	.LASF327
	.byte	0x18
	.byte	0x2
	.value	0x1cc
	.long	0x3034
	.uleb128 0x18
	.byte	0x2
	.value	0x1cc
	.byte	0xb
	.long	0x23ea
	.uleb128 0x18
	.byte	0x2
	.value	0x1cc
	.byte	0xb
	.long	0x240d
	.uleb128 0x18
	.byte	0x2
	.value	0x1cc
	.byte	0xb
	.long	0x23dd
	.uleb128 0x18
	.byte	0x2
	.value	0x1cc
	.byte	0xb
	.long	0x227c
	.uleb128 0x18
	.byte	0x2
	.value	0x1cc
	.byte	0xb
	.long	0x225e
	.uleb128 0x18
	.byte	0x2
	.value	0x1cc
	.byte	0xb
	.long	0x22ac
	.uleb128 0x46
	.long	0x20dc
	.byte	0x2
	.uleb128 0x17
	.long	.LASF144
	.byte	0x2
	.value	0x1f6
	.byte	0x7
	.long	.LASF328
	.long	0x8f23
	.long	0x24f0
	.uleb128 0x1
	.long	0x630
	.byte	0
	.uleb128 0x17
	.long	.LASF144
	.byte	0x2
	.value	0x1ff
	.byte	0x7
	.long	.LASF329
	.long	0x8f23
	.long	0x250b
	.uleb128 0x1
	.long	0x3a3
	.byte	0
	.uleb128 0x66
	.long	.LASF330
	.long	.LASF332
	.long	0x8f23
	.uleb128 0x14
	.long	.LASF68
	.byte	0x2
	.value	0x1e6
	.byte	0x29
	.long	0x2194
	.uleb128 0x17
	.long	.LASF147
	.byte	0x2
	.value	0x20c
	.byte	0x7
	.long	.LASF333
	.long	0x2518
	.long	0x254f
	.uleb128 0x1
	.long	0x2518
	.uleb128 0x1
	.long	0x2518
	.uleb128 0x1
	.long	0x2518
	.uleb128 0x1
	.long	0x9fdf
	.byte	0
	.uleb128 0x1c
	.long	.LASF115
	.byte	0x2
	.value	0x1e1
	.byte	0x2f
	.long	0x224d
	.uleb128 0x7
	.long	0x254f
	.uleb128 0x50
	.long	.LASF149
	.value	0x227
	.long	.LASF334
	.long	0x2574
	.long	0x257a
	.uleb128 0x2
	.long	0x9fe4
	.byte	0
	.uleb128 0x41
	.long	.LASF149
	.byte	0x2
	.value	0x232
	.long	.LASF335
	.long	0x258e
	.long	0x2599
	.uleb128 0x2
	.long	0x9fe4
	.uleb128 0x1
	.long	0x9fee
	.byte	0
	.uleb128 0x14
	.long	.LASF90
	.byte	0x2
	.value	0x1f1
	.byte	0x1a
	.long	0x1f55
	.uleb128 0x7
	.long	0x2599
	.uleb128 0x41
	.long	.LASF149
	.byte	0x2
	.value	0x240
	.long	.LASF336
	.long	0x25bf
	.long	0x25cf
	.uleb128 0x2
	.long	0x9fe4
	.uleb128 0x1
	.long	0x25cf
	.uleb128 0x1
	.long	0x9fee
	.byte	0
	.uleb128 0x14
	.long	.LASF75
	.byte	0x2
	.value	0x1ef
	.byte	0x1a
	.long	0x2b5
	.uleb128 0x10
	.long	.LASF149
	.byte	0x2
	.value	0x24d
	.byte	0x7
	.long	.LASF337
	.byte	0x1
	.long	0x25f2
	.long	0x2607
	.uleb128 0x2
	.long	0x9fe4
	.uleb128 0x1
	.long	0x25cf
	.uleb128 0x1
	.long	0x9ff3
	.uleb128 0x1
	.long	0x9fee
	.byte	0
	.uleb128 0x14
	.long	.LASF5
	.byte	0x2
	.value	0x1e5
	.byte	0x17
	.long	0x9e2f
	.uleb128 0x7
	.long	0x2607
	.uleb128 0x10
	.long	.LASF149
	.byte	0x2
	.value	0x26d
	.byte	0x7
	.long	.LASF338
	.byte	0x1
	.long	0x262f
	.long	0x263a
	.uleb128 0x2
	.long	0x9fe4
	.uleb128 0x1
	.long	0x9ff8
	.byte	0
	.uleb128 0x50
	.long	.LASF149
	.value	0x280
	.long	.LASF339
	.long	0x264d
	.long	0x2658
	.uleb128 0x2
	.long	0x9fe4
	.uleb128 0x1
	.long	0x9ffd
	.byte	0
	.uleb128 0x10
	.long	.LASF149
	.byte	0x2
	.value	0x284
	.byte	0x7
	.long	.LASF340
	.byte	0x1
	.long	0x266e
	.long	0x267e
	.uleb128 0x2
	.long	0x9fe4
	.uleb128 0x1
	.long	0x9ff8
	.uleb128 0x1
	.long	0xa002
	.byte	0
	.uleb128 0x1b
	.long	.LASF149
	.value	0x28f
	.long	.LASF341
	.long	0x2691
	.long	0x26a6
	.uleb128 0x2
	.long	0x9fe4
	.uleb128 0x1
	.long	0x9ffd
	.uleb128 0x1
	.long	0x9fee
	.uleb128 0x1
	.long	0x630
	.byte	0
	.uleb128 0x1b
	.long	.LASF149
	.value	0x294
	.long	.LASF342
	.long	0x26b9
	.long	0x26ce
	.uleb128 0x2
	.long	0x9fe4
	.uleb128 0x1
	.long	0x9ffd
	.uleb128 0x1
	.long	0x9fee
	.uleb128 0x1
	.long	0x3a3
	.byte	0
	.uleb128 0x10
	.long	.LASF149
	.byte	0x2
	.value	0x2a7
	.byte	0x7
	.long	.LASF343
	.byte	0x1
	.long	0x26e4
	.long	0x26f4
	.uleb128 0x2
	.long	0x9fe4
	.uleb128 0x1
	.long	0x9ffd
	.uleb128 0x1
	.long	0xa002
	.byte	0
	.uleb128 0x10
	.long	.LASF149
	.byte	0x2
	.value	0x2ba
	.byte	0x7
	.long	.LASF344
	.byte	0x1
	.long	0x270a
	.long	0x271a
	.uleb128 0x2
	.long	0x9fe4
	.uleb128 0x1
	.long	0x304a
	.uleb128 0x1
	.long	0x9fee
	.byte	0
	.uleb128 0x10
	.long	.LASF161
	.byte	0x2
	.value	0x316
	.byte	0x7
	.long	.LASF345
	.byte	0x1
	.long	0x2730
	.long	0x2736
	.uleb128 0x2
	.long	0x9fe4
	.byte	0
	.uleb128 0x20
	.long	.LASF34
	.byte	0x7
	.byte	0xd6
	.byte	0x5
	.long	.LASF346
	.long	0xa007
	.byte	0x1
	.long	0x274f
	.long	0x275a
	.uleb128 0x2
	.long	0x9fe4
	.uleb128 0x1
	.long	0x9ff8
	.byte	0
	.uleb128 0x6
	.long	.LASF34
	.byte	0x2
	.value	0x337
	.byte	0x7
	.long	.LASF347
	.long	0xa007
	.byte	0x1
	.long	0x2774
	.long	0x277f
	.uleb128 0x2
	.long	0x9fe4
	.uleb128 0x1
	.long	0x9ffd
	.byte	0
	.uleb128 0x6
	.long	.LASF34
	.byte	0x2
	.value	0x34d
	.byte	0x7
	.long	.LASF348
	.long	0xa007
	.byte	0x1
	.long	0x2799
	.long	0x27a4
	.uleb128 0x2
	.long	0x9fe4
	.uleb128 0x1
	.long	0x304a
	.byte	0
	.uleb128 0x10
	.long	.LASF166
	.byte	0x2
	.value	0x361
	.byte	0x7
	.long	.LASF349
	.byte	0x1
	.long	0x27ba
	.long	0x27ca
	.uleb128 0x2
	.long	0x9fe4
	.uleb128 0x1
	.long	0x25cf
	.uleb128 0x1
	.long	0x9ff3
	.byte	0
	.uleb128 0x10
	.long	.LASF166
	.byte	0x2
	.value	0x390
	.byte	0x7
	.long	.LASF350
	.byte	0x1
	.long	0x27e0
	.long	0x27eb
	.uleb128 0x2
	.long	0x9fe4
	.uleb128 0x1
	.long	0x304a
	.byte	0
	.uleb128 0x14
	.long	.LASF169
	.byte	0x2
	.value	0x1ea
	.byte	0x3d
	.long	0x849d
	.uleb128 0x6
	.long	.LASF170
	.byte	0x2
	.value	0x3dc
	.byte	0x7
	.long	.LASF351
	.long	0x27eb
	.byte	0x1
	.long	0x2812
	.long	0x2818
	.uleb128 0x2
	.long	0x9fe4
	.byte	0
	.uleb128 0x14
	.long	.LASF172
	.byte	0x2
	.value	0x1ec
	.byte	0x7
	.long	0x86d0
	.uleb128 0x6
	.long	.LASF170
	.byte	0x2
	.value	0x3e6
	.byte	0x7
	.long	.LASF352
	.long	0x2818
	.byte	0x1
	.long	0x283f
	.long	0x2845
	.uleb128 0x2
	.long	0xa00c
	.byte	0
	.uleb128 0x34
	.string	"end"
	.value	0x3f0
	.long	.LASF353
	.long	0x27eb
	.long	0x285c
	.long	0x2862
	.uleb128 0x2
	.long	0x9fe4
	.byte	0
	.uleb128 0x34
	.string	"end"
	.value	0x3fa
	.long	.LASF354
	.long	0x2818
	.long	0x2879
	.long	0x287f
	.uleb128 0x2
	.long	0xa00c
	.byte	0
	.uleb128 0x14
	.long	.LASF176
	.byte	0x2
	.value	0x1ee
	.byte	0x30
	.long	0x304f
	.uleb128 0x6
	.long	.LASF177
	.byte	0x2
	.value	0x404
	.byte	0x7
	.long	.LASF355
	.long	0x287f
	.byte	0x1
	.long	0x28a6
	.long	0x28ac
	.uleb128 0x2
	.long	0x9fe4
	.byte	0
	.uleb128 0x14
	.long	.LASF179
	.byte	0x2
	.value	0x1ed
	.byte	0x35
	.long	0x3054
	.uleb128 0x6
	.long	.LASF177
	.byte	0x2
	.value	0x40e
	.byte	0x7
	.long	.LASF356
	.long	0x28ac
	.byte	0x1
	.long	0x28d3
	.long	0x28d9
	.uleb128 0x2
	.long	0xa00c
	.byte	0
	.uleb128 0x6
	.long	.LASF181
	.byte	0x2
	.value	0x418
	.byte	0x7
	.long	.LASF357
	.long	0x287f
	.byte	0x1
	.long	0x28f3
	.long	0x28f9
	.uleb128 0x2
	.long	0x9fe4
	.byte	0
	.uleb128 0x6
	.long	.LASF181
	.byte	0x2
	.value	0x422
	.byte	0x7
	.long	.LASF358
	.long	0x28ac
	.byte	0x1
	.long	0x2913
	.long	0x2919
	.uleb128 0x2
	.long	0xa00c
	.byte	0
	.uleb128 0x6
	.long	.LASF184
	.byte	0x2
	.value	0x42d
	.byte	0x7
	.long	.LASF359
	.long	0x2818
	.byte	0x1
	.long	0x2933
	.long	0x2939
	.uleb128 0x2
	.long	0xa00c
	.byte	0
	.uleb128 0x6
	.long	.LASF186
	.byte	0x2
	.value	0x437
	.byte	0x7
	.long	.LASF360
	.long	0x2818
	.byte	0x1
	.long	0x2953
	.long	0x2959
	.uleb128 0x2
	.long	0xa00c
	.byte	0
	.uleb128 0x6
	.long	.LASF188
	.byte	0x2
	.value	0x441
	.byte	0x7
	.long	.LASF361
	.long	0x28ac
	.byte	0x1
	.long	0x2973
	.long	0x2979
	.uleb128 0x2
	.long	0xa00c
	.byte	0
	.uleb128 0x6
	.long	.LASF190
	.byte	0x2
	.value	0x44b
	.byte	0x7
	.long	.LASF362
	.long	0x28ac
	.byte	0x1
	.long	0x2993
	.long	0x2999
	.uleb128 0x2
	.long	0xa00c
	.byte	0
	.uleb128 0x6
	.long	.LASF192
	.byte	0x2
	.value	0x453
	.byte	0x7
	.long	.LASF363
	.long	0x25cf
	.byte	0x1
	.long	0x29b3
	.long	0x29b9
	.uleb128 0x2
	.long	0xa00c
	.byte	0
	.uleb128 0x6
	.long	.LASF78
	.byte	0x2
	.value	0x45e
	.byte	0x7
	.long	.LASF364
	.long	0x25cf
	.byte	0x1
	.long	0x29d3
	.long	0x29d9
	.uleb128 0x2
	.long	0xa00c
	.byte	0
	.uleb128 0x10
	.long	.LASF195
	.byte	0x2
	.value	0x46d
	.byte	0x7
	.long	.LASF365
	.byte	0x1
	.long	0x29ef
	.long	0x29fa
	.uleb128 0x2
	.long	0x9fe4
	.uleb128 0x1
	.long	0x25cf
	.byte	0
	.uleb128 0x10
	.long	.LASF195
	.byte	0x2
	.value	0x482
	.byte	0x7
	.long	.LASF366
	.byte	0x1
	.long	0x2a10
	.long	0x2a20
	.uleb128 0x2
	.long	0x9fe4
	.uleb128 0x1
	.long	0x25cf
	.uleb128 0x1
	.long	0x9ff3
	.byte	0
	.uleb128 0x10
	.long	.LASF198
	.byte	0x2
	.value	0x4a4
	.byte	0x7
	.long	.LASF367
	.byte	0x1
	.long	0x2a36
	.long	0x2a3c
	.uleb128 0x2
	.long	0x9fe4
	.byte	0
	.uleb128 0x6
	.long	.LASF200
	.byte	0x2
	.value	0x4ae
	.byte	0x7
	.long	.LASF368
	.long	0x25cf
	.byte	0x1
	.long	0x2a56
	.long	0x2a5c
	.uleb128 0x2
	.long	0xa00c
	.byte	0
	.uleb128 0x6
	.long	.LASF202
	.byte	0x2
	.value	0x4bd
	.byte	0x7
	.long	.LASF369
	.long	0x8f23
	.byte	0x1
	.long	0x2a76
	.long	0x2a7c
	.uleb128 0x2
	.long	0xa00c
	.byte	0
	.uleb128 0x1f
	.long	.LASF204
	.byte	0x7
	.byte	0x46
	.byte	0x5
	.long	.LASF370
	.byte	0x1
	.long	0x2a91
	.long	0x2a9c
	.uleb128 0x2
	.long	0x9fe4
	.uleb128 0x1
	.long	0x25cf
	.byte	0
	.uleb128 0x14
	.long	.LASF69
	.byte	0x2
	.value	0x1e8
	.byte	0x32
	.long	0x8458
	.uleb128 0x6
	.long	.LASF206
	.byte	0x2
	.value	0x4e3
	.byte	0x7
	.long	.LASF371
	.long	0x2a9c
	.byte	0x1
	.long	0x2ac3
	.long	0x2ace
	.uleb128 0x2
	.long	0x9fe4
	.uleb128 0x1
	.long	0x25cf
	.byte	0
	.uleb128 0x14
	.long	.LASF72
	.byte	0x2
	.value	0x1e9
	.byte	0x37
	.long	0x8464
	.uleb128 0x6
	.long	.LASF206
	.byte	0x2
	.value	0x4f6
	.byte	0x7
	.long	.LASF372
	.long	0x2ace
	.byte	0x1
	.long	0x2af5
	.long	0x2b00
	.uleb128 0x2
	.long	0xa00c
	.uleb128 0x1
	.long	0x25cf
	.byte	0
	.uleb128 0x10
	.long	.LASF209
	.byte	0x2
	.value	0x500
	.byte	0x7
	.long	.LASF373
	.byte	0x2
	.long	0x2b16
	.long	0x2b21
	.uleb128 0x2
	.long	0xa00c
	.uleb128 0x1
	.long	0x25cf
	.byte	0
	.uleb128 0x34
	.string	"at"
	.value	0x517
	.long	.LASF374
	.long	0x2a9c
	.long	0x2b37
	.long	0x2b42
	.uleb128 0x2
	.long	0x9fe4
	.uleb128 0x1
	.long	0x25cf
	.byte	0
	.uleb128 0x34
	.string	"at"
	.value	0x52a
	.long	.LASF375
	.long	0x2ace
	.long	0x2b58
	.long	0x2b63
	.uleb128 0x2
	.long	0xa00c
	.uleb128 0x1
	.long	0x25cf
	.byte	0
	.uleb128 0x6
	.long	.LASF213
	.byte	0x2
	.value	0x536
	.byte	0x7
	.long	.LASF376
	.long	0x2a9c
	.byte	0x1
	.long	0x2b7d
	.long	0x2b83
	.uleb128 0x2
	.long	0x9fe4
	.byte	0
	.uleb128 0x6
	.long	.LASF213
	.byte	0x2
	.value	0x542
	.byte	0x7
	.long	.LASF377
	.long	0x2ace
	.byte	0x1
	.long	0x2b9d
	.long	0x2ba3
	.uleb128 0x2
	.long	0xa00c
	.byte	0
	.uleb128 0x6
	.long	.LASF216
	.byte	0x2
	.value	0x54e
	.byte	0x7
	.long	.LASF378
	.long	0x2a9c
	.byte	0x1
	.long	0x2bbd
	.long	0x2bc3
	.uleb128 0x2
	.long	0x9fe4
	.byte	0
	.uleb128 0x6
	.long	.LASF216
	.byte	0x2
	.value	0x55a
	.byte	0x7
	.long	.LASF379
	.long	0x2ace
	.byte	0x1
	.long	0x2bdd
	.long	0x2be3
	.uleb128 0x2
	.long	0xa00c
	.byte	0
	.uleb128 0x6
	.long	.LASF219
	.byte	0x2
	.value	0x569
	.byte	0x7
	.long	.LASF380
	.long	0x9f58
	.byte	0x1
	.long	0x2bfd
	.long	0x2c03
	.uleb128 0x2
	.long	0x9fe4
	.byte	0
	.uleb128 0x6
	.long	.LASF219
	.byte	0x2
	.value	0x56e
	.byte	0x7
	.long	.LASF381
	.long	0x9f6c
	.byte	0x1
	.long	0x2c1d
	.long	0x2c23
	.uleb128 0x2
	.long	0xa00c
	.byte	0
	.uleb128 0x10
	.long	.LASF222
	.byte	0x2
	.value	0x57e
	.byte	0x7
	.long	.LASF382
	.byte	0x1
	.long	0x2c39
	.long	0x2c44
	.uleb128 0x2
	.long	0x9fe4
	.uleb128 0x1
	.long	0x9ff3
	.byte	0
	.uleb128 0x10
	.long	.LASF222
	.byte	0x2
	.value	0x58f
	.byte	0x7
	.long	.LASF383
	.byte	0x1
	.long	0x2c5a
	.long	0x2c65
	.uleb128 0x2
	.long	0x9fe4
	.uleb128 0x1
	.long	0xa016
	.byte	0
	.uleb128 0x10
	.long	.LASF225
	.byte	0x2
	.value	0x5a7
	.byte	0x7
	.long	.LASF384
	.byte	0x1
	.long	0x2c7b
	.long	0x2c81
	.uleb128 0x2
	.long	0x9fe4
	.byte	0
	.uleb128 0x20
	.long	.LASF227
	.byte	0x7
	.byte	0x89
	.byte	0x5
	.long	.LASF385
	.long	0x27eb
	.byte	0x1
	.long	0x2c9a
	.long	0x2caa
	.uleb128 0x2
	.long	0x9fe4
	.uleb128 0x1
	.long	0x2818
	.uleb128 0x1
	.long	0x9ff3
	.byte	0
	.uleb128 0x6
	.long	.LASF227
	.byte	0x2
	.value	0x5ee
	.byte	0x7
	.long	.LASF386
	.long	0x27eb
	.byte	0x1
	.long	0x2cc4
	.long	0x2cd4
	.uleb128 0x2
	.long	0x9fe4
	.uleb128 0x1
	.long	0x2818
	.uleb128 0x1
	.long	0xa016
	.byte	0
	.uleb128 0x6
	.long	.LASF227
	.byte	0x2
	.value	0x600
	.byte	0x7
	.long	.LASF387
	.long	0x27eb
	.byte	0x1
	.long	0x2cee
	.long	0x2cfe
	.uleb128 0x2
	.long	0x9fe4
	.uleb128 0x1
	.long	0x2818
	.uleb128 0x1
	.long	0x304a
	.byte	0
	.uleb128 0x6
	.long	.LASF227
	.byte	0x2
	.value	0x61a
	.byte	0x7
	.long	.LASF388
	.long	0x27eb
	.byte	0x1
	.long	0x2d18
	.long	0x2d2d
	.uleb128 0x2
	.long	0x9fe4
	.uleb128 0x1
	.long	0x2818
	.uleb128 0x1
	.long	0x25cf
	.uleb128 0x1
	.long	0x9ff3
	.byte	0
	.uleb128 0x6
	.long	.LASF232
	.byte	0x2
	.value	0x6f6
	.byte	0x7
	.long	.LASF389
	.long	0x27eb
	.byte	0x1
	.long	0x2d47
	.long	0x2d52
	.uleb128 0x2
	.long	0x9fe4
	.uleb128 0x1
	.long	0x2818
	.byte	0
	.uleb128 0x6
	.long	.LASF232
	.byte	0x2
	.value	0x712
	.byte	0x7
	.long	.LASF390
	.long	0x27eb
	.byte	0x1
	.long	0x2d6c
	.long	0x2d7c
	.uleb128 0x2
	.long	0x9fe4
	.uleb128 0x1
	.long	0x2818
	.uleb128 0x1
	.long	0x2818
	.byte	0
	.uleb128 0x10
	.long	.LASF39
	.byte	0x2
	.value	0x72a
	.byte	0x7
	.long	.LASF391
	.byte	0x1
	.long	0x2d92
	.long	0x2d9d
	.uleb128 0x2
	.long	0x9fe4
	.uleb128 0x1
	.long	0xa007
	.byte	0
	.uleb128 0x10
	.long	.LASF236
	.byte	0x2
	.value	0x73d
	.byte	0x7
	.long	.LASF392
	.byte	0x1
	.long	0x2db3
	.long	0x2db9
	.uleb128 0x2
	.long	0x9fe4
	.byte	0
	.uleb128 0x10
	.long	.LASF238
	.byte	0x2
	.value	0x7c3
	.byte	0x7
	.long	.LASF393
	.byte	0x2
	.long	0x2dcf
	.long	0x2ddf
	.uleb128 0x2
	.long	0x9fe4
	.uleb128 0x1
	.long	0x25cf
	.uleb128 0x1
	.long	0x9ff3
	.byte	0
	.uleb128 0x10
	.long	.LASF240
	.byte	0x2
	.value	0x7ce
	.byte	0x7
	.long	.LASF394
	.byte	0x2
	.long	0x2df5
	.long	0x2e00
	.uleb128 0x2
	.long	0x9fe4
	.uleb128 0x1
	.long	0x25cf
	.byte	0
	.uleb128 0x10
	.long	.LASF242
	.byte	0x7
	.value	0x112
	.byte	0x5
	.long	.LASF395
	.byte	0x2
	.long	0x2e16
	.long	0x2e26
	.uleb128 0x2
	.long	0x9fe4
	.uleb128 0x1
	.long	0x2b5
	.uleb128 0x1
	.long	0x9ff3
	.byte	0
	.uleb128 0x10
	.long	.LASF244
	.byte	0x7
	.value	0x296
	.byte	0x5
	.long	.LASF396
	.byte	0x2
	.long	0x2e3c
	.long	0x2e51
	.uleb128 0x2
	.long	0x9fe4
	.uleb128 0x1
	.long	0x27eb
	.uleb128 0x1
	.long	0x25cf
	.uleb128 0x1
	.long	0x9ff3
	.byte	0
	.uleb128 0x10
	.long	.LASF246
	.byte	0x7
	.value	0x300
	.byte	0x5
	.long	.LASF397
	.byte	0x2
	.long	0x2e67
	.long	0x2e77
	.uleb128 0x2
	.long	0x9fe4
	.uleb128 0x1
	.long	0x25cf
	.uleb128 0x1
	.long	0x9ff3
	.byte	0
	.uleb128 0x10
	.long	.LASF248
	.byte	0x7
	.value	0x339
	.byte	0x5
	.long	.LASF398
	.byte	0x2
	.long	0x2e8d
	.long	0x2e98
	.uleb128 0x2
	.long	0x9fe4
	.uleb128 0x1
	.long	0x25cf
	.byte	0
	.uleb128 0x6
	.long	.LASF250
	.byte	0x7
	.value	0x396
	.byte	0x5
	.long	.LASF399
	.long	0x8f23
	.byte	0x2
	.long	0x2eb2
	.long	0x2eb8
	.uleb128 0x2
	.long	0x9fe4
	.byte	0
	.uleb128 0x6
	.long	.LASF252
	.byte	0x7
	.value	0x16f
	.byte	0x5
	.long	.LASF400
	.long	0x27eb
	.byte	0x2
	.long	0x2ed2
	.long	0x2ee2
	.uleb128 0x2
	.long	0x9fe4
	.uleb128 0x1
	.long	0x2818
	.uleb128 0x1
	.long	0xa016
	.byte	0
	.uleb128 0x6
	.long	.LASF254
	.byte	0x2
	.value	0x889
	.byte	0x7
	.long	.LASF401
	.long	0x27eb
	.byte	0x2
	.long	0x2efc
	.long	0x2f0c
	.uleb128 0x2
	.long	0x9fe4
	.uleb128 0x1
	.long	0x2818
	.uleb128 0x1
	.long	0xa016
	.byte	0
	.uleb128 0x6
	.long	.LASF256
	.byte	0x2
	.value	0x890
	.byte	0x7
	.long	.LASF402
	.long	0x25cf
	.byte	0x2
	.long	0x2f26
	.long	0x2f36
	.uleb128 0x2
	.long	0xa00c
	.uleb128 0x1
	.long	0x25cf
	.uleb128 0x1
	.long	0x7751
	.byte	0
	.uleb128 0x51
	.long	.LASF258
	.value	0x89b
	.long	.LASF403
	.long	0x25cf
	.long	0x2f54
	.uleb128 0x1
	.long	0x25cf
	.uleb128 0x1
	.long	0x9fee
	.byte	0
	.uleb128 0x51
	.long	.LASF260
	.value	0x8a4
	.long	.LASF404
	.long	0x25cf
	.long	0x2f6d
	.uleb128 0x1
	.long	0xa01b
	.byte	0
	.uleb128 0x10
	.long	.LASF262
	.byte	0x2
	.value	0x8b5
	.byte	0x7
	.long	.LASF405
	.byte	0x2
	.long	0x2f83
	.long	0x2f8e
	.uleb128 0x2
	.long	0x9fe4
	.uleb128 0x1
	.long	0x2518
	.byte	0
	.uleb128 0x20
	.long	.LASF264
	.byte	0x7
	.byte	0xb9
	.byte	0x5
	.long	.LASF406
	.long	0x27eb
	.byte	0x2
	.long	0x2fa7
	.long	0x2fb2
	.uleb128 0x2
	.long	0x9fe4
	.uleb128 0x1
	.long	0x27eb
	.byte	0
	.uleb128 0x20
	.long	.LASF264
	.byte	0x7
	.byte	0xc7
	.byte	0x5
	.long	.LASF407
	.long	0x27eb
	.byte	0x2
	.long	0x2fcb
	.long	0x2fdb
	.uleb128 0x2
	.long	0x9fe4
	.uleb128 0x1
	.long	0x27eb
	.uleb128 0x1
	.long	0x27eb
	.byte	0
	.uleb128 0x1b
	.long	.LASF267
	.value	0x8cf
	.long	.LASF408
	.long	0x2fee
	.long	0x2ffe
	.uleb128 0x2
	.long	0x9fe4
	.uleb128 0x1
	.long	0x9ffd
	.uleb128 0x1
	.long	0x630
	.byte	0
	.uleb128 0x1b
	.long	.LASF267
	.value	0x8db
	.long	.LASF409
	.long	0x3011
	.long	0x3021
	.uleb128 0x2
	.long	0x9fe4
	.uleb128 0x1
	.long	0x9ffd
	.uleb128 0x1
	.long	0x3a3
	.byte	0
	.uleb128 0x11
	.string	"_Tp"
	.long	0x9e2f
	.uleb128 0x60
	.long	.LASF139
	.long	0x1f55
	.byte	0
	.uleb128 0x7
	.long	0x248c
	.uleb128 0x9
	.long	.LASF272
	.byte	0x10
	.byte	0xad
	.byte	0xb
	.long	0x2476
	.uleb128 0x7
	.long	0x3039
	.uleb128 0x2d
	.long	.LASF410
	.uleb128 0x2d
	.long	.LASF411
	.uleb128 0x2d
	.long	.LASF412
	.uleb128 0x3e
	.long	.LASF413
	.byte	0x1
	.byte	0x6
	.byte	0x3f
	.long	0x3205
	.uleb128 0x52
	.long	.LASF58
	.byte	0x6
	.byte	0x58
	.byte	0x7
	.long	0x3075
	.long	0x307b
	.uleb128 0x2
	.long	0xa020
	.byte	0
	.uleb128 0x52
	.long	.LASF58
	.byte	0x6
	.byte	0x5c
	.byte	0x7
	.long	0x308b
	.long	0x3096
	.uleb128 0x2
	.long	0xa020
	.uleb128 0x1
	.long	0xa02a
	.byte	0
	.uleb128 0x83
	.long	.LASF34
	.byte	0x6
	.byte	0x64
	.byte	0x18
	.long	0xa02f
	.long	0x30ab
	.long	0x30b6
	.uleb128 0x2
	.long	0xa020
	.uleb128 0x1
	.long	0xa02a
	.byte	0
	.uleb128 0x52
	.long	.LASF64
	.byte	0x6
	.byte	0x68
	.byte	0x7
	.long	0x30c6
	.long	0x30cc
	.uleb128 0x2
	.long	0xa020
	.byte	0
	.uleb128 0x24
	.long	.LASF68
	.byte	0x6
	.byte	0x46
	.byte	0x1a
	.long	0xa034
	.uleb128 0x53
	.long	.LASF66
	.byte	0x6
	.byte	0x6b
	.byte	0x7
	.long	0x30cc
	.byte	0x1
	.long	0x30ed
	.long	0x30f8
	.uleb128 0x2
	.long	0xa03e
	.uleb128 0x1
	.long	0x30f8
	.byte	0
	.uleb128 0x24
	.long	.LASF69
	.byte	0x6
	.byte	0x48
	.byte	0x1a
	.long	0xa048
	.uleb128 0x24
	.long	.LASF70
	.byte	0x6
	.byte	0x47
	.byte	0x1a
	.long	0xa04d
	.uleb128 0x53
	.long	.LASF66
	.byte	0x6
	.byte	0x6f
	.byte	0x7
	.long	0x3104
	.byte	0x1
	.long	0x3125
	.long	0x3130
	.uleb128 0x2
	.long	0xa03e
	.uleb128 0x1
	.long	0x3130
	.byte	0
	.uleb128 0x24
	.long	.LASF72
	.byte	0x6
	.byte	0x49
	.byte	0x1a
	.long	0xa052
	.uleb128 0x53
	.long	.LASF73
	.byte	0x6
	.byte	0x81
	.byte	0x7
	.long	0xa034
	.byte	0x1
	.long	0x3151
	.long	0x3161
	.uleb128 0x2
	.long	0xa020
	.uleb128 0x1
	.long	0x3161
	.uleb128 0x1
	.long	0x8f79
	.byte	0
	.uleb128 0x24
	.long	.LASF75
	.byte	0x6
	.byte	0x43
	.byte	0x1f
	.long	0x2b5
	.uleb128 0x52
	.long	.LASF76
	.byte	0x6
	.byte	0xa7
	.byte	0x7
	.long	0x317d
	.long	0x318d
	.uleb128 0x2
	.long	0xa020
	.uleb128 0x1
	.long	0xa034
	.uleb128 0x1
	.long	0x3161
	.byte	0
	.uleb128 0x53
	.long	.LASF78
	.byte	0x6
	.byte	0xc2
	.byte	0x7
	.long	0x3161
	.byte	0x1
	.long	0x31a2
	.long	0x31a8
	.uleb128 0x2
	.long	0xa03e
	.byte	0
	.uleb128 0xa5
	.long	.LASF80
	.byte	0x6
	.byte	0xf2
	.byte	0x7
	.long	0x3161
	.long	0x31bd
	.long	0x31c3
	.uleb128 0x2
	.long	0xa03e
	.byte	0
	.uleb128 0x52
	.long	.LASF414
	.byte	0x6
	.byte	0xc9
	.byte	0x2
	.long	0x31eb
	.long	0x31fb
	.uleb128 0x11
	.string	"_Up"
	.long	0x9eb0
	.uleb128 0x47
	.long	.LASF417
	.long	0x31eb
	.uleb128 0x48
	.long	0xa052
	.byte	0
	.uleb128 0x2
	.long	0xa020
	.uleb128 0x1
	.long	0xa034
	.uleb128 0x1
	.long	0xa052
	.byte	0
	.uleb128 0x11
	.string	"_Tp"
	.long	0x9eb0
	.byte	0
	.uleb128 0x7
	.long	0x3059
	.uleb128 0x3e
	.long	.LASF415
	.byte	0x1
	.byte	0x5
	.byte	0x85
	.long	0x3282
	.uleb128 0x46
	.long	0x3059
	.byte	0x1
	.uleb128 0x52
	.long	.LASF83
	.byte	0x5
	.byte	0xa8
	.byte	0x7
	.long	0x322c
	.long	0x3232
	.uleb128 0x2
	.long	0xa057
	.byte	0
	.uleb128 0x52
	.long	.LASF83
	.byte	0x5
	.byte	0xac
	.byte	0x7
	.long	0x3242
	.long	0x324d
	.uleb128 0x2
	.long	0xa057
	.uleb128 0x1
	.long	0xa061
	.byte	0
	.uleb128 0x83
	.long	.LASF34
	.byte	0x5
	.byte	0xb1
	.byte	0x12
	.long	0xa066
	.long	0x3262
	.long	0x326d
	.uleb128 0x2
	.long	0xa057
	.uleb128 0x1
	.long	0xa061
	.byte	0
	.uleb128 0xa6
	.long	.LASF87
	.byte	0x5
	.byte	0xbd
	.byte	0x7
	.byte	0x1
	.long	0x327b
	.uleb128 0x2
	.long	0xa057
	.byte	0
	.byte	0
	.uleb128 0x7
	.long	0x320a
	.uleb128 0x59
	.long	.LASF416
	.byte	0x1
	.byte	0x8
	.value	0x248
	.byte	0xc
	.long	0x33a3
	.uleb128 0x1c
	.long	.LASF68
	.byte	0x8
	.value	0x251
	.byte	0xd
	.long	0xa034
	.uleb128 0x42
	.long	.LASF73
	.byte	0x8
	.value	0x27d
	.byte	0x7
	.long	0x3295
	.long	0x32be
	.uleb128 0x1
	.long	0xa06b
	.uleb128 0x1
	.long	0x32d0
	.byte	0
	.uleb128 0x1c
	.long	.LASF90
	.byte	0x8
	.value	0x24b
	.byte	0xd
	.long	0x320a
	.uleb128 0x7
	.long	0x32be
	.uleb128 0x1c
	.long	.LASF75
	.byte	0x8
	.value	0x260
	.byte	0xd
	.long	0x2b5
	.uleb128 0x42
	.long	.LASF73
	.byte	0x8
	.value	0x28c
	.byte	0x7
	.long	0x3295
	.long	0x32fe
	.uleb128 0x1
	.long	0xa06b
	.uleb128 0x1
	.long	0x32d0
	.uleb128 0x1
	.long	0x32fe
	.byte	0
	.uleb128 0x1c
	.long	.LASF93
	.byte	0x8
	.value	0x25a
	.byte	0xd
	.long	0x8f79
	.uleb128 0x84
	.long	.LASF76
	.value	0x2b0
	.byte	0x7
	.long	0x3328
	.uleb128 0x1
	.long	0xa06b
	.uleb128 0x1
	.long	0x3295
	.uleb128 0x1
	.long	0x32d0
	.byte	0
	.uleb128 0x42
	.long	.LASF78
	.byte	0x8
	.value	0x2ed
	.byte	0x7
	.long	0x32d0
	.long	0x333f
	.uleb128 0x1
	.long	0xa070
	.byte	0
	.uleb128 0x42
	.long	.LASF95
	.byte	0x8
	.value	0x2fd
	.byte	0x7
	.long	0x32be
	.long	0x3356
	.uleb128 0x1
	.long	0xa070
	.byte	0
	.uleb128 0x1c
	.long	.LASF5
	.byte	0x8
	.value	0x24e
	.byte	0xd
	.long	0x9eb0
	.uleb128 0x1c
	.long	.LASF97
	.byte	0x8
	.value	0x26f
	.byte	0x8
	.long	0x320a
	.uleb128 0xa7
	.long	.LASF414
	.byte	0x8
	.value	0x2c1
	.byte	0x2
	.uleb128 0x11
	.string	"_Up"
	.long	0x9eb0
	.uleb128 0x47
	.long	.LASF417
	.long	0x3392
	.uleb128 0x48
	.long	0xa052
	.byte	0
	.uleb128 0x1
	.long	0xa06b
	.uleb128 0x1
	.long	0xa034
	.uleb128 0x1
	.long	0xa052
	.byte	0
	.byte	0
	.uleb128 0x1a
	.long	.LASF418
	.byte	0x18
	.byte	0x2
	.byte	0x5b
	.byte	0xc
	.long	0x36de
	.uleb128 0x1a
	.long	.LASF99
	.byte	0x18
	.byte	0x2
	.byte	0x62
	.byte	0xe
	.long	0x3443
	.uleb128 0xe
	.long	.LASF101
	.byte	0x2
	.byte	0x64
	.byte	0xa
	.long	0x3448
	.byte	0
	.uleb128 0xe
	.long	.LASF102
	.byte	0x2
	.byte	0x65
	.byte	0xa
	.long	0x3448
	.byte	0x8
	.uleb128 0xe
	.long	.LASF103
	.byte	0x2
	.byte	0x66
	.byte	0xa
	.long	0x3448
	.byte	0x10
	.uleb128 0x54
	.long	.LASF99
	.byte	0x69
	.long	0x33f2
	.long	0x33f8
	.uleb128 0x2
	.long	0xa07f
	.byte	0
	.uleb128 0x54
	.long	.LASF99
	.byte	0x6f
	.long	0x3406
	.long	0x3411
	.uleb128 0x2
	.long	0xa07f
	.uleb128 0x1
	.long	0xa089
	.byte	0
	.uleb128 0x54
	.long	.LASF106
	.byte	0x77
	.long	0x341f
	.long	0x342a
	.uleb128 0x2
	.long	0xa07f
	.uleb128 0x1
	.long	0xa08e
	.byte	0
	.uleb128 0xa8
	.long	.LASF108
	.byte	0x2
	.byte	0x80
	.byte	0x2
	.long	0x3437
	.uleb128 0x2
	.long	0xa07f
	.uleb128 0x1
	.long	0xa093
	.byte	0
	.byte	0
	.uleb128 0x7
	.long	0x33b0
	.uleb128 0x9
	.long	.LASF68
	.byte	0x2
	.byte	0x60
	.byte	0x9
	.long	0x89a7
	.uleb128 0x1a
	.long	.LASF109
	.byte	0x18
	.byte	0x2
	.byte	0x8b
	.byte	0xe
	.long	0x34f9
	.uleb128 0x31
	.long	0x320a
	.uleb128 0x31
	.long	0x33b0
	.uleb128 0x54
	.long	.LASF109
	.byte	0x8f
	.long	0x3479
	.long	0x347f
	.uleb128 0x2
	.long	0xa098
	.byte	0
	.uleb128 0x54
	.long	.LASF109
	.byte	0x98
	.long	0x348d
	.long	0x3498
	.uleb128 0x2
	.long	0xa098
	.uleb128 0x1
	.long	0xa0a2
	.byte	0
	.uleb128 0x54
	.long	.LASF109
	.byte	0xa0
	.long	0x34a6
	.long	0x34b1
	.uleb128 0x2
	.long	0xa098
	.uleb128 0x1
	.long	0xa0a7
	.byte	0
	.uleb128 0x54
	.long	.LASF109
	.byte	0xa5
	.long	0x34bf
	.long	0x34ca
	.uleb128 0x2
	.long	0xa098
	.uleb128 0x1
	.long	0xa0ac
	.byte	0
	.uleb128 0x54
	.long	.LASF109
	.byte	0xaa
	.long	0x34d8
	.long	0x34e8
	.uleb128 0x2
	.long	0xa098
	.uleb128 0x1
	.long	0xa0ac
	.uleb128 0x1
	.long	0xa0a7
	.byte	0
	.uleb128 0xa9
	.long	.LASF466
	.long	0x34f2
	.uleb128 0x2
	.long	0xa098
	.byte	0
	.byte	0
	.uleb128 0x9
	.long	.LASF115
	.byte	0x2
	.byte	0x5e
	.byte	0x15
	.long	0x89d8
	.uleb128 0x7
	.long	0x34f9
	.uleb128 0x61
	.long	.LASF116
	.value	0x133
	.byte	0x7
	.long	0xa0b1
	.long	0x351e
	.long	0x3524
	.uleb128 0x2
	.long	0xa0b6
	.byte	0
	.uleb128 0x61
	.long	.LASF116
	.value	0x138
	.byte	0x7
	.long	0xa0a2
	.long	0x3538
	.long	0x353e
	.uleb128 0x2
	.long	0xa0c0
	.byte	0
	.uleb128 0x1c
	.long	.LASF90
	.byte	0x2
	.value	0x12f
	.byte	0x16
	.long	0x320a
	.uleb128 0x7
	.long	0x353e
	.uleb128 0x61
	.long	.LASF119
	.value	0x13d
	.byte	0x7
	.long	0x353e
	.long	0x3564
	.long	0x356a
	.uleb128 0x2
	.long	0xa0c0
	.byte	0
	.uleb128 0x85
	.long	.LASF121
	.value	0x141
	.long	0x357a
	.long	0x3580
	.uleb128 0x2
	.long	0xa0b6
	.byte	0
	.uleb128 0x3b
	.long	.LASF121
	.value	0x147
	.byte	0x7
	.long	0x3590
	.long	0x359b
	.uleb128 0x2
	.long	0xa0b6
	.uleb128 0x1
	.long	0xa0ca
	.byte	0
	.uleb128 0x3b
	.long	.LASF121
	.value	0x14d
	.byte	0x7
	.long	0x35ab
	.long	0x35b6
	.uleb128 0x2
	.long	0xa0b6
	.uleb128 0x1
	.long	0x2b5
	.byte	0
	.uleb128 0x3b
	.long	.LASF121
	.value	0x153
	.byte	0x7
	.long	0x35c6
	.long	0x35d6
	.uleb128 0x2
	.long	0xa0b6
	.uleb128 0x1
	.long	0x2b5
	.uleb128 0x1
	.long	0xa0ca
	.byte	0
	.uleb128 0x85
	.long	.LASF121
	.value	0x158
	.long	0x35e6
	.long	0x35f1
	.uleb128 0x2
	.long	0xa0b6
	.uleb128 0x1
	.long	0xa0cf
	.byte	0
	.uleb128 0x3b
	.long	.LASF121
	.value	0x15d
	.byte	0x7
	.long	0x3601
	.long	0x360c
	.uleb128 0x2
	.long	0xa0b6
	.uleb128 0x1
	.long	0xa0ac
	.byte	0
	.uleb128 0x3b
	.long	.LASF121
	.value	0x161
	.byte	0x7
	.long	0x361c
	.long	0x362c
	.uleb128 0x2
	.long	0xa0b6
	.uleb128 0x1
	.long	0xa0cf
	.uleb128 0x1
	.long	0xa0ca
	.byte	0
	.uleb128 0x3b
	.long	.LASF121
	.value	0x16f
	.byte	0x7
	.long	0x363c
	.long	0x364c
	.uleb128 0x2
	.long	0xa0b6
	.uleb128 0x1
	.long	0xa0ca
	.uleb128 0x1
	.long	0xa0cf
	.byte	0
	.uleb128 0x3b
	.long	.LASF130
	.value	0x175
	.byte	0x7
	.long	0x365c
	.long	0x3662
	.uleb128 0x2
	.long	0xa0b6
	.byte	0
	.uleb128 0x4f
	.long	.LASF132
	.value	0x17e
	.byte	0x14
	.long	0x3454
	.byte	0
	.uleb128 0x61
	.long	.LASF133
	.value	0x182
	.byte	0x7
	.long	0x3448
	.long	0x3683
	.long	0x368e
	.uleb128 0x2
	.long	0xa0b6
	.uleb128 0x1
	.long	0x2b5
	.byte	0
	.uleb128 0x3b
	.long	.LASF135
	.value	0x18a
	.byte	0x7
	.long	0x369e
	.long	0x36ae
	.uleb128 0x2
	.long	0xa0b6
	.uleb128 0x1
	.long	0x3448
	.uleb128 0x1
	.long	0x2b5
	.byte	0
	.uleb128 0x29
	.long	.LASF137
	.byte	0x2
	.value	0x195
	.byte	0x7
	.byte	0x2
	.long	0x36c0
	.long	0x36cb
	.uleb128 0x2
	.long	0xa0b6
	.uleb128 0x1
	.long	0x2b5
	.byte	0
	.uleb128 0x11
	.string	"_Tp"
	.long	0x9eb0
	.uleb128 0xc
	.long	.LASF139
	.long	0x320a
	.byte	0
	.uleb128 0x7
	.long	0x33a3
	.uleb128 0x1a
	.long	.LASF419
	.byte	0x1
	.byte	0x10
	.byte	0xa9
	.byte	0xc
	.long	0x3706
	.uleb128 0x9
	.long	.LASF141
	.byte	0x10
	.byte	0xaa
	.byte	0xd
	.long	0x320a
	.uleb128 0xc
	.long	.LASF142
	.long	0x320a
	.byte	0
	.uleb128 0x4b
	.long	.LASF420
	.byte	0x18
	.byte	0x2
	.value	0x1cc
	.long	0x4262
	.uleb128 0x18
	.byte	0x2
	.value	0x1cc
	.byte	0xb
	.long	0x366f
	.uleb128 0x18
	.byte	0x2
	.value	0x1cc
	.byte	0xb
	.long	0x368e
	.uleb128 0x18
	.byte	0x2
	.value	0x1cc
	.byte	0xb
	.long	0x3662
	.uleb128 0x18
	.byte	0x2
	.value	0x1cc
	.byte	0xb
	.long	0x3524
	.uleb128 0x18
	.byte	0x2
	.value	0x1cc
	.byte	0xb
	.long	0x350a
	.uleb128 0x18
	.byte	0x2
	.value	0x1cc
	.byte	0xb
	.long	0x3550
	.uleb128 0x46
	.long	0x33a3
	.byte	0x2
	.uleb128 0x42
	.long	.LASF144
	.byte	0x2
	.value	0x1f6
	.byte	0x7
	.long	0x8f23
	.long	0x3766
	.uleb128 0x1
	.long	0x630
	.byte	0
	.uleb128 0x42
	.long	.LASF144
	.byte	0x2
	.value	0x1ff
	.byte	0x7
	.long	0x8f23
	.long	0x377d
	.uleb128 0x1
	.long	0x3a3
	.byte	0
	.uleb128 0xaa
	.long	.LASF330
	.byte	0x2
	.value	0x203
	.byte	0x7
	.long	0x8f23
	.uleb128 0x14
	.long	.LASF68
	.byte	0x2
	.value	0x1e6
	.byte	0x29
	.long	0x3448
	.uleb128 0x42
	.long	.LASF147
	.byte	0x2
	.value	0x20c
	.byte	0x7
	.long	0x378b
	.long	0x37be
	.uleb128 0x1
	.long	0x378b
	.uleb128 0x1
	.long	0x378b
	.uleb128 0x1
	.long	0x378b
	.uleb128 0x1
	.long	0xa0d4
	.byte	0
	.uleb128 0x1c
	.long	.LASF115
	.byte	0x2
	.value	0x1e1
	.byte	0x2f
	.long	0x34f9
	.uleb128 0x7
	.long	0x37be
	.uleb128 0x86
	.long	.LASF149
	.value	0x227
	.long	0x37e0
	.long	0x37e6
	.uleb128 0x2
	.long	0xa0d9
	.byte	0
	.uleb128 0x76
	.long	.LASF149
	.byte	0x2
	.value	0x232
	.long	0x37f6
	.long	0x3801
	.uleb128 0x2
	.long	0xa0d9
	.uleb128 0x1
	.long	0xa0e3
	.byte	0
	.uleb128 0x14
	.long	.LASF90
	.byte	0x2
	.value	0x1f1
	.byte	0x1a
	.long	0x320a
	.uleb128 0x7
	.long	0x3801
	.uleb128 0x76
	.long	.LASF149
	.byte	0x2
	.value	0x240
	.long	0x3823
	.long	0x3833
	.uleb128 0x2
	.long	0xa0d9
	.uleb128 0x1
	.long	0x3833
	.uleb128 0x1
	.long	0xa0e3
	.byte	0
	.uleb128 0x14
	.long	.LASF75
	.byte	0x2
	.value	0x1ef
	.byte	0x1a
	.long	0x2b5
	.uleb128 0x7
	.long	0x3833
	.uleb128 0x29
	.long	.LASF149
	.byte	0x2
	.value	0x24d
	.byte	0x7
	.byte	0x1
	.long	0x3857
	.long	0x386c
	.uleb128 0x2
	.long	0xa0d9
	.uleb128 0x1
	.long	0x3833
	.uleb128 0x1
	.long	0xa0e8
	.uleb128 0x1
	.long	0xa0e3
	.byte	0
	.uleb128 0x14
	.long	.LASF5
	.byte	0x2
	.value	0x1e5
	.byte	0x17
	.long	0x9eb0
	.uleb128 0x7
	.long	0x386c
	.uleb128 0x29
	.long	.LASF149
	.byte	0x2
	.value	0x26d
	.byte	0x7
	.byte	0x1
	.long	0x3890
	.long	0x389b
	.uleb128 0x2
	.long	0xa0d9
	.uleb128 0x1
	.long	0xa0ed
	.byte	0
	.uleb128 0x86
	.long	.LASF149
	.value	0x280
	.long	0x38ab
	.long	0x38b6
	.uleb128 0x2
	.long	0xa0d9
	.uleb128 0x1
	.long	0xa0f2
	.byte	0
	.uleb128 0x29
	.long	.LASF149
	.byte	0x2
	.value	0x284
	.byte	0x7
	.byte	0x1
	.long	0x38c8
	.long	0x38d8
	.uleb128 0x2
	.long	0xa0d9
	.uleb128 0x1
	.long	0xa0ed
	.uleb128 0x1
	.long	0xa0f7
	.byte	0
	.uleb128 0x3b
	.long	.LASF149
	.value	0x28f
	.byte	0x7
	.long	0x38e8
	.long	0x38fd
	.uleb128 0x2
	.long	0xa0d9
	.uleb128 0x1
	.long	0xa0f2
	.uleb128 0x1
	.long	0xa0e3
	.uleb128 0x1
	.long	0x630
	.byte	0
	.uleb128 0x3b
	.long	.LASF149
	.value	0x294
	.byte	0x7
	.long	0x390d
	.long	0x3922
	.uleb128 0x2
	.long	0xa0d9
	.uleb128 0x1
	.long	0xa0f2
	.uleb128 0x1
	.long	0xa0e3
	.uleb128 0x1
	.long	0x3a3
	.byte	0
	.uleb128 0x29
	.long	.LASF149
	.byte	0x2
	.value	0x2a7
	.byte	0x7
	.byte	0x1
	.long	0x3934
	.long	0x3944
	.uleb128 0x2
	.long	0xa0d9
	.uleb128 0x1
	.long	0xa0f2
	.uleb128 0x1
	.long	0xa0f7
	.byte	0
	.uleb128 0x29
	.long	.LASF149
	.byte	0x2
	.value	0x2ba
	.byte	0x7
	.byte	0x1
	.long	0x3956
	.long	0x3966
	.uleb128 0x2
	.long	0xa0d9
	.uleb128 0x1
	.long	0x4278
	.uleb128 0x1
	.long	0xa0e3
	.byte	0
	.uleb128 0x29
	.long	.LASF161
	.byte	0x2
	.value	0x316
	.byte	0x7
	.byte	0x1
	.long	0x3978
	.long	0x397e
	.uleb128 0x2
	.long	0xa0d9
	.byte	0
	.uleb128 0x53
	.long	.LASF34
	.byte	0x7
	.byte	0xd6
	.byte	0x5
	.long	0xa0fc
	.byte	0x1
	.long	0x3993
	.long	0x399e
	.uleb128 0x2
	.long	0xa0d9
	.uleb128 0x1
	.long	0xa0ed
	.byte	0
	.uleb128 0x1d
	.long	.LASF34
	.byte	0x2
	.value	0x337
	.byte	0x7
	.long	0xa0fc
	.byte	0x1
	.long	0x39b4
	.long	0x39bf
	.uleb128 0x2
	.long	0xa0d9
	.uleb128 0x1
	.long	0xa0f2
	.byte	0
	.uleb128 0x1d
	.long	.LASF34
	.byte	0x2
	.value	0x34d
	.byte	0x7
	.long	0xa0fc
	.byte	0x1
	.long	0x39d5
	.long	0x39e0
	.uleb128 0x2
	.long	0xa0d9
	.uleb128 0x1
	.long	0x4278
	.byte	0
	.uleb128 0x29
	.long	.LASF166
	.byte	0x2
	.value	0x361
	.byte	0x7
	.byte	0x1
	.long	0x39f2
	.long	0x3a02
	.uleb128 0x2
	.long	0xa0d9
	.uleb128 0x1
	.long	0x3833
	.uleb128 0x1
	.long	0xa0e8
	.byte	0
	.uleb128 0x29
	.long	.LASF166
	.byte	0x2
	.value	0x390
	.byte	0x7
	.byte	0x1
	.long	0x3a14
	.long	0x3a1f
	.uleb128 0x2
	.long	0xa0d9
	.uleb128 0x1
	.long	0x4278
	.byte	0
	.uleb128 0x14
	.long	.LASF169
	.byte	0x2
	.value	0x1ea
	.byte	0x3d
	.long	0x89f8
	.uleb128 0x1d
	.long	.LASF170
	.byte	0x2
	.value	0x3dc
	.byte	0x7
	.long	0x3a1f
	.byte	0x1
	.long	0x3a42
	.long	0x3a48
	.uleb128 0x2
	.long	0xa0d9
	.byte	0
	.uleb128 0x14
	.long	.LASF172
	.byte	0x2
	.value	0x1ec
	.byte	0x7
	.long	0x8bf3
	.uleb128 0x1d
	.long	.LASF170
	.byte	0x2
	.value	0x3e6
	.byte	0x7
	.long	0x3a48
	.byte	0x1
	.long	0x3a6b
	.long	0x3a71
	.uleb128 0x2
	.long	0xa101
	.byte	0
	.uleb128 0x67
	.string	"end"
	.value	0x3f0
	.long	0x3a1f
	.long	0x3a84
	.long	0x3a8a
	.uleb128 0x2
	.long	0xa0d9
	.byte	0
	.uleb128 0x67
	.string	"end"
	.value	0x3fa
	.long	0x3a48
	.long	0x3a9d
	.long	0x3aa3
	.uleb128 0x2
	.long	0xa101
	.byte	0
	.uleb128 0x14
	.long	.LASF176
	.byte	0x2
	.value	0x1ee
	.byte	0x30
	.long	0x427d
	.uleb128 0x1d
	.long	.LASF177
	.byte	0x2
	.value	0x404
	.byte	0x7
	.long	0x3aa3
	.byte	0x1
	.long	0x3ac6
	.long	0x3acc
	.uleb128 0x2
	.long	0xa0d9
	.byte	0
	.uleb128 0x14
	.long	.LASF179
	.byte	0x2
	.value	0x1ed
	.byte	0x35
	.long	0x4282
	.uleb128 0x1d
	.long	.LASF177
	.byte	0x2
	.value	0x40e
	.byte	0x7
	.long	0x3acc
	.byte	0x1
	.long	0x3aef
	.long	0x3af5
	.uleb128 0x2
	.long	0xa101
	.byte	0
	.uleb128 0x1d
	.long	.LASF181
	.byte	0x2
	.value	0x418
	.byte	0x7
	.long	0x3aa3
	.byte	0x1
	.long	0x3b0b
	.long	0x3b11
	.uleb128 0x2
	.long	0xa0d9
	.byte	0
	.uleb128 0x1d
	.long	.LASF181
	.byte	0x2
	.value	0x422
	.byte	0x7
	.long	0x3acc
	.byte	0x1
	.long	0x3b27
	.long	0x3b2d
	.uleb128 0x2
	.long	0xa101
	.byte	0
	.uleb128 0x1d
	.long	.LASF184
	.byte	0x2
	.value	0x42d
	.byte	0x7
	.long	0x3a48
	.byte	0x1
	.long	0x3b43
	.long	0x3b49
	.uleb128 0x2
	.long	0xa101
	.byte	0
	.uleb128 0x1d
	.long	.LASF186
	.byte	0x2
	.value	0x437
	.byte	0x7
	.long	0x3a48
	.byte	0x1
	.long	0x3b5f
	.long	0x3b65
	.uleb128 0x2
	.long	0xa101
	.byte	0
	.uleb128 0x1d
	.long	.LASF188
	.byte	0x2
	.value	0x441
	.byte	0x7
	.long	0x3acc
	.byte	0x1
	.long	0x3b7b
	.long	0x3b81
	.uleb128 0x2
	.long	0xa101
	.byte	0
	.uleb128 0x1d
	.long	.LASF190
	.byte	0x2
	.value	0x44b
	.byte	0x7
	.long	0x3acc
	.byte	0x1
	.long	0x3b97
	.long	0x3b9d
	.uleb128 0x2
	.long	0xa101
	.byte	0
	.uleb128 0x1d
	.long	.LASF192
	.byte	0x2
	.value	0x453
	.byte	0x7
	.long	0x3833
	.byte	0x1
	.long	0x3bb3
	.long	0x3bb9
	.uleb128 0x2
	.long	0xa101
	.byte	0
	.uleb128 0x1d
	.long	.LASF78
	.byte	0x2
	.value	0x45e
	.byte	0x7
	.long	0x3833
	.byte	0x1
	.long	0x3bcf
	.long	0x3bd5
	.uleb128 0x2
	.long	0xa101
	.byte	0
	.uleb128 0x29
	.long	.LASF195
	.byte	0x2
	.value	0x46d
	.byte	0x7
	.byte	0x1
	.long	0x3be7
	.long	0x3bf2
	.uleb128 0x2
	.long	0xa0d9
	.uleb128 0x1
	.long	0x3833
	.byte	0
	.uleb128 0x29
	.long	.LASF195
	.byte	0x2
	.value	0x482
	.byte	0x7
	.byte	0x1
	.long	0x3c04
	.long	0x3c14
	.uleb128 0x2
	.long	0xa0d9
	.uleb128 0x1
	.long	0x3833
	.uleb128 0x1
	.long	0xa0e8
	.byte	0
	.uleb128 0x29
	.long	.LASF198
	.byte	0x2
	.value	0x4a4
	.byte	0x7
	.byte	0x1
	.long	0x3c26
	.long	0x3c2c
	.uleb128 0x2
	.long	0xa0d9
	.byte	0
	.uleb128 0x1d
	.long	.LASF200
	.byte	0x2
	.value	0x4ae
	.byte	0x7
	.long	0x3833
	.byte	0x1
	.long	0x3c42
	.long	0x3c48
	.uleb128 0x2
	.long	0xa101
	.byte	0
	.uleb128 0x1d
	.long	.LASF202
	.byte	0x2
	.value	0x4bd
	.byte	0x7
	.long	0x8f23
	.byte	0x1
	.long	0x3c5e
	.long	0x3c64
	.uleb128 0x2
	.long	0xa101
	.byte	0
	.uleb128 0x52
	.long	.LASF204
	.byte	0x7
	.byte	0x46
	.byte	0x5
	.long	0x3c74
	.long	0x3c7f
	.uleb128 0x2
	.long	0xa0d9
	.uleb128 0x1
	.long	0x3833
	.byte	0
	.uleb128 0x14
	.long	.LASF69
	.byte	0x2
	.value	0x1e8
	.byte	0x32
	.long	0x89b3
	.uleb128 0x1d
	.long	.LASF206
	.byte	0x2
	.value	0x4e3
	.byte	0x7
	.long	0x3c7f
	.byte	0x1
	.long	0x3ca2
	.long	0x3cad
	.uleb128 0x2
	.long	0xa0d9
	.uleb128 0x1
	.long	0x3833
	.byte	0
	.uleb128 0x14
	.long	.LASF72
	.byte	0x2
	.value	0x1e9
	.byte	0x37
	.long	0x89bf
	.uleb128 0x1d
	.long	.LASF206
	.byte	0x2
	.value	0x4f6
	.byte	0x7
	.long	0x3cad
	.byte	0x1
	.long	0x3cd0
	.long	0x3cdb
	.uleb128 0x2
	.long	0xa101
	.uleb128 0x1
	.long	0x3833
	.byte	0
	.uleb128 0x29
	.long	.LASF209
	.byte	0x2
	.value	0x500
	.byte	0x7
	.byte	0x2
	.long	0x3ced
	.long	0x3cf8
	.uleb128 0x2
	.long	0xa101
	.uleb128 0x1
	.long	0x3833
	.byte	0
	.uleb128 0x67
	.string	"at"
	.value	0x517
	.long	0x3c7f
	.long	0x3d0a
	.long	0x3d15
	.uleb128 0x2
	.long	0xa0d9
	.uleb128 0x1
	.long	0x3833
	.byte	0
	.uleb128 0x67
	.string	"at"
	.value	0x52a
	.long	0x3cad
	.long	0x3d27
	.long	0x3d32
	.uleb128 0x2
	.long	0xa101
	.uleb128 0x1
	.long	0x3833
	.byte	0
	.uleb128 0x1d
	.long	.LASF213
	.byte	0x2
	.value	0x536
	.byte	0x7
	.long	0x3c7f
	.byte	0x1
	.long	0x3d48
	.long	0x3d4e
	.uleb128 0x2
	.long	0xa0d9
	.byte	0
	.uleb128 0x1d
	.long	.LASF213
	.byte	0x2
	.value	0x542
	.byte	0x7
	.long	0x3cad
	.byte	0x1
	.long	0x3d64
	.long	0x3d6a
	.uleb128 0x2
	.long	0xa101
	.byte	0
	.uleb128 0x1d
	.long	.LASF216
	.byte	0x2
	.value	0x54e
	.byte	0x7
	.long	0x3c7f
	.byte	0x1
	.long	0x3d80
	.long	0x3d86
	.uleb128 0x2
	.long	0xa0d9
	.byte	0
	.uleb128 0x1d
	.long	.LASF216
	.byte	0x2
	.value	0x55a
	.byte	0x7
	.long	0x3cad
	.byte	0x1
	.long	0x3d9c
	.long	0x3da2
	.uleb128 0x2
	.long	0xa101
	.byte	0
	.uleb128 0x1d
	.long	.LASF219
	.byte	0x2
	.value	0x569
	.byte	0x7
	.long	0xa034
	.byte	0x1
	.long	0x3db8
	.long	0x3dbe
	.uleb128 0x2
	.long	0xa0d9
	.byte	0
	.uleb128 0x1d
	.long	.LASF219
	.byte	0x2
	.value	0x56e
	.byte	0x7
	.long	0xa04d
	.byte	0x1
	.long	0x3dd4
	.long	0x3dda
	.uleb128 0x2
	.long	0xa101
	.byte	0
	.uleb128 0x29
	.long	.LASF222
	.byte	0x2
	.value	0x57e
	.byte	0x7
	.byte	0x1
	.long	0x3dec
	.long	0x3df7
	.uleb128 0x2
	.long	0xa0d9
	.uleb128 0x1
	.long	0xa0e8
	.byte	0
	.uleb128 0x29
	.long	.LASF222
	.byte	0x2
	.value	0x58f
	.byte	0x7
	.byte	0x1
	.long	0x3e09
	.long	0x3e14
	.uleb128 0x2
	.long	0xa0d9
	.uleb128 0x1
	.long	0xa10b
	.byte	0
	.uleb128 0x29
	.long	.LASF225
	.byte	0x2
	.value	0x5a7
	.byte	0x7
	.byte	0x1
	.long	0x3e26
	.long	0x3e2c
	.uleb128 0x2
	.long	0xa0d9
	.byte	0
	.uleb128 0x53
	.long	.LASF227
	.byte	0x7
	.byte	0x89
	.byte	0x5
	.long	0x3a1f
	.byte	0x1
	.long	0x3e41
	.long	0x3e51
	.uleb128 0x2
	.long	0xa0d9
	.uleb128 0x1
	.long	0x3a48
	.uleb128 0x1
	.long	0xa0e8
	.byte	0
	.uleb128 0x1d
	.long	.LASF227
	.byte	0x2
	.value	0x5ee
	.byte	0x7
	.long	0x3a1f
	.byte	0x1
	.long	0x3e67
	.long	0x3e77
	.uleb128 0x2
	.long	0xa0d9
	.uleb128 0x1
	.long	0x3a48
	.uleb128 0x1
	.long	0xa10b
	.byte	0
	.uleb128 0x1d
	.long	.LASF227
	.byte	0x2
	.value	0x600
	.byte	0x7
	.long	0x3a1f
	.byte	0x1
	.long	0x3e8d
	.long	0x3e9d
	.uleb128 0x2
	.long	0xa0d9
	.uleb128 0x1
	.long	0x3a48
	.uleb128 0x1
	.long	0x4278
	.byte	0
	.uleb128 0x1d
	.long	.LASF227
	.byte	0x2
	.value	0x61a
	.byte	0x7
	.long	0x3a1f
	.byte	0x1
	.long	0x3eb3
	.long	0x3ec8
	.uleb128 0x2
	.long	0xa0d9
	.uleb128 0x1
	.long	0x3a48
	.uleb128 0x1
	.long	0x3833
	.uleb128 0x1
	.long	0xa0e8
	.byte	0
	.uleb128 0x1d
	.long	.LASF232
	.byte	0x2
	.value	0x6f6
	.byte	0x7
	.long	0x3a1f
	.byte	0x1
	.long	0x3ede
	.long	0x3ee9
	.uleb128 0x2
	.long	0xa0d9
	.uleb128 0x1
	.long	0x3a48
	.byte	0
	.uleb128 0x1d
	.long	.LASF232
	.byte	0x2
	.value	0x712
	.byte	0x7
	.long	0x3a1f
	.byte	0x1
	.long	0x3eff
	.long	0x3f0f
	.uleb128 0x2
	.long	0xa0d9
	.uleb128 0x1
	.long	0x3a48
	.uleb128 0x1
	.long	0x3a48
	.byte	0
	.uleb128 0x29
	.long	.LASF39
	.byte	0x2
	.value	0x72a
	.byte	0x7
	.byte	0x1
	.long	0x3f21
	.long	0x3f2c
	.uleb128 0x2
	.long	0xa0d9
	.uleb128 0x1
	.long	0xa0fc
	.byte	0
	.uleb128 0x29
	.long	.LASF236
	.byte	0x2
	.value	0x73d
	.byte	0x7
	.byte	0x1
	.long	0x3f3e
	.long	0x3f44
	.uleb128 0x2
	.long	0xa0d9
	.byte	0
	.uleb128 0x29
	.long	.LASF238
	.byte	0x2
	.value	0x7c3
	.byte	0x7
	.byte	0x2
	.long	0x3f56
	.long	0x3f66
	.uleb128 0x2
	.long	0xa0d9
	.uleb128 0x1
	.long	0x3833
	.uleb128 0x1
	.long	0xa0e8
	.byte	0
	.uleb128 0x29
	.long	.LASF240
	.byte	0x2
	.value	0x7ce
	.byte	0x7
	.byte	0x2
	.long	0x3f78
	.long	0x3f83
	.uleb128 0x2
	.long	0xa0d9
	.uleb128 0x1
	.long	0x3833
	.byte	0
	.uleb128 0x29
	.long	.LASF242
	.byte	0x7
	.value	0x112
	.byte	0x5
	.byte	0x2
	.long	0x3f95
	.long	0x3fa5
	.uleb128 0x2
	.long	0xa0d9
	.uleb128 0x1
	.long	0x2b5
	.uleb128 0x1
	.long	0xa0e8
	.byte	0
	.uleb128 0x29
	.long	.LASF244
	.byte	0x7
	.value	0x296
	.byte	0x5
	.byte	0x2
	.long	0x3fb7
	.long	0x3fcc
	.uleb128 0x2
	.long	0xa0d9
	.uleb128 0x1
	.long	0x3a1f
	.uleb128 0x1
	.long	0x3833
	.uleb128 0x1
	.long	0xa0e8
	.byte	0
	.uleb128 0x29
	.long	.LASF246
	.byte	0x7
	.value	0x300
	.byte	0x5
	.byte	0x2
	.long	0x3fde
	.long	0x3fee
	.uleb128 0x2
	.long	0xa0d9
	.uleb128 0x1
	.long	0x3833
	.uleb128 0x1
	.long	0xa0e8
	.byte	0
	.uleb128 0x29
	.long	.LASF248
	.byte	0x7
	.value	0x339
	.byte	0x5
	.byte	0x2
	.long	0x4000
	.long	0x400b
	.uleb128 0x2
	.long	0xa0d9
	.uleb128 0x1
	.long	0x3833
	.byte	0
	.uleb128 0x1d
	.long	.LASF250
	.byte	0x7
	.value	0x396
	.byte	0x5
	.long	0x8f23
	.byte	0x2
	.long	0x4021
	.long	0x4027
	.uleb128 0x2
	.long	0xa0d9
	.byte	0
	.uleb128 0x1d
	.long	.LASF252
	.byte	0x7
	.value	0x16f
	.byte	0x5
	.long	0x3a1f
	.byte	0x2
	.long	0x403d
	.long	0x404d
	.uleb128 0x2
	.long	0xa0d9
	.uleb128 0x1
	.long	0x3a48
	.uleb128 0x1
	.long	0xa10b
	.byte	0
	.uleb128 0x1d
	.long	.LASF254
	.byte	0x2
	.value	0x889
	.byte	0x7
	.long	0x3a1f
	.byte	0x2
	.long	0x4063
	.long	0x4073
	.uleb128 0x2
	.long	0xa0d9
	.uleb128 0x1
	.long	0x3a48
	.uleb128 0x1
	.long	0xa10b
	.byte	0
	.uleb128 0x1d
	.long	.LASF256
	.byte	0x2
	.value	0x890
	.byte	0x7
	.long	0x3833
	.byte	0x2
	.long	0x4089
	.long	0x4099
	.uleb128 0x2
	.long	0xa101
	.uleb128 0x1
	.long	0x3833
	.uleb128 0x1
	.long	0x7751
	.byte	0
	.uleb128 0x87
	.long	.LASF258
	.value	0x89b
	.long	0x3833
	.long	0x40b4
	.uleb128 0x1
	.long	0x3833
	.uleb128 0x1
	.long	0xa0e3
	.byte	0
	.uleb128 0x87
	.long	.LASF260
	.value	0x8a4
	.long	0x3833
	.long	0x40ca
	.uleb128 0x1
	.long	0xa110
	.byte	0
	.uleb128 0x29
	.long	.LASF262
	.byte	0x2
	.value	0x8b5
	.byte	0x7
	.byte	0x2
	.long	0x40dc
	.long	0x40e7
	.uleb128 0x2
	.long	0xa0d9
	.uleb128 0x1
	.long	0x378b
	.byte	0
	.uleb128 0x53
	.long	.LASF264
	.byte	0x7
	.byte	0xb9
	.byte	0x5
	.long	0x3a1f
	.byte	0x2
	.long	0x40fc
	.long	0x4107
	.uleb128 0x2
	.long	0xa0d9
	.uleb128 0x1
	.long	0x3a1f
	.byte	0
	.uleb128 0x53
	.long	.LASF264
	.byte	0x7
	.byte	0xc7
	.byte	0x5
	.long	0x3a1f
	.byte	0x2
	.long	0x411c
	.long	0x412c
	.uleb128 0x2
	.long	0xa0d9
	.uleb128 0x1
	.long	0x3a1f
	.uleb128 0x1
	.long	0x3a1f
	.byte	0
	.uleb128 0x3b
	.long	.LASF267
	.value	0x8cf
	.byte	0x7
	.long	0x413c
	.long	0x414c
	.uleb128 0x2
	.long	0xa0d9
	.uleb128 0x1
	.long	0xa0f2
	.uleb128 0x1
	.long	0x630
	.byte	0
	.uleb128 0x3b
	.long	.LASF267
	.value	0x8db
	.byte	0x7
	.long	0x415c
	.long	0x416c
	.uleb128 0x2
	.long	0xa0d9
	.uleb128 0x1
	.long	0xa0f2
	.uleb128 0x1
	.long	0x3a3
	.byte	0
	.uleb128 0x1c
	.long	.LASF421
	.byte	0x2
	.value	0x1e0
	.byte	0x2b
	.long	0x33a3
	.uleb128 0x59
	.long	.LASF422
	.byte	0x18
	.byte	0x2
	.value	0x742
	.byte	0xe
	.long	0x421e
	.uleb128 0x4f
	.long	.LASF423
	.value	0x744
	.byte	0xa
	.long	0x378b
	.byte	0
	.uleb128 0x4f
	.long	.LASF424
	.value	0x745
	.byte	0xc
	.long	0x3833
	.byte	0x8
	.uleb128 0x4f
	.long	.LASF425
	.value	0x746
	.byte	0x9
	.long	0xa36d
	.byte	0x10
	.uleb128 0x3b
	.long	.LASF422
	.value	0x749
	.byte	0x2
	.long	0x41be
	.long	0x41d3
	.uleb128 0x2
	.long	0xa372
	.uleb128 0x1
	.long	0x378b
	.uleb128 0x1
	.long	0x3833
	.uleb128 0x1
	.long	0xa36d
	.byte	0
	.uleb128 0x3b
	.long	.LASF426
	.value	0x74e
	.byte	0x2
	.long	0x41e3
	.long	0x41e9
	.uleb128 0x2
	.long	0xa372
	.byte	0
	.uleb128 0x61
	.long	.LASF23
	.value	0x756
	.byte	0x2
	.long	0x378b
	.long	0x41fd
	.long	0x4203
	.uleb128 0x2
	.long	0xa372
	.byte	0
	.uleb128 0xab
	.long	.LASF422
	.byte	0x2
	.value	0x75e
	.byte	0x2
	.byte	0x3
	.long	0x4212
	.uleb128 0x2
	.long	0xa372
	.uleb128 0x1
	.long	0xa37c
	.byte	0
	.byte	0
	.uleb128 0x7
	.long	0x4179
	.uleb128 0x29
	.long	.LASF427
	.byte	0x7
	.value	0x235
	.byte	0x7
	.byte	0x2
	.long	0x4244
	.long	0x424f
	.uleb128 0x47
	.long	.LASF417
	.long	0x4244
	.uleb128 0x48
	.long	0xa052
	.byte	0
	.uleb128 0x2
	.long	0xa0d9
	.uleb128 0x1
	.long	0xa052
	.byte	0
	.uleb128 0x11
	.string	"_Tp"
	.long	0x9eb0
	.uleb128 0x60
	.long	.LASF139
	.long	0x320a
	.byte	0
	.uleb128 0x7
	.long	0x3706
	.uleb128 0x9
	.long	.LASF272
	.byte	0x10
	.byte	0xad
	.byte	0xb
	.long	0x36f0
	.uleb128 0x7
	.long	0x4267
	.uleb128 0x2d
	.long	.LASF428
	.uleb128 0x2d
	.long	.LASF429
	.uleb128 0x2d
	.long	.LASF430
	.uleb128 0x1a
	.long	.LASF431
	.byte	0x1
	.byte	0x13
	.byte	0xd4
	.byte	0xc
	.long	0x42c2
	.uleb128 0x9
	.long	.LASF432
	.byte	0x13
	.byte	0xd8
	.byte	0x2b
	.long	0x623
	.uleb128 0x9
	.long	.LASF68
	.byte	0x13
	.byte	0xd9
	.byte	0x2b
	.long	0x9f58
	.uleb128 0x9
	.long	.LASF69
	.byte	0x13
	.byte	0xda
	.byte	0x2b
	.long	0x9f67
	.uleb128 0xc
	.long	.LASF433
	.long	0x9f58
	.byte	0
	.uleb128 0x3e
	.long	.LASF434
	.byte	0x1
	.byte	0x6
	.byte	0x3f
	.long	0x4460
	.uleb128 0x1f
	.long	.LASF58
	.byte	0x6
	.byte	0x58
	.byte	0x7
	.long	.LASF435
	.byte	0x1
	.long	0x42e3
	.long	0x42e9
	.uleb128 0x2
	.long	0xa133
	.byte	0
	.uleb128 0x1f
	.long	.LASF58
	.byte	0x6
	.byte	0x5c
	.byte	0x7
	.long	.LASF436
	.byte	0x1
	.long	0x42fe
	.long	0x4309
	.uleb128 0x2
	.long	0xa133
	.uleb128 0x1
	.long	0xa13d
	.byte	0
	.uleb128 0x4d
	.long	.LASF34
	.byte	0x6
	.byte	0x64
	.byte	0x18
	.long	.LASF437
	.long	0xa142
	.long	0x4321
	.long	0x432c
	.uleb128 0x2
	.long	0xa133
	.uleb128 0x1
	.long	0xa13d
	.byte	0
	.uleb128 0x1f
	.long	.LASF64
	.byte	0x6
	.byte	0x68
	.byte	0x7
	.long	.LASF438
	.byte	0x1
	.long	0x4341
	.long	0x4347
	.uleb128 0x2
	.long	0xa133
	.byte	0
	.uleb128 0x24
	.long	.LASF68
	.byte	0x6
	.byte	0x46
	.byte	0x1a
	.long	0xa147
	.uleb128 0x20
	.long	.LASF66
	.byte	0x6
	.byte	0x6b
	.byte	0x7
	.long	.LASF439
	.long	0x4347
	.byte	0x1
	.long	0x436c
	.long	0x4377
	.uleb128 0x2
	.long	0xa151
	.uleb128 0x1
	.long	0x4377
	.byte	0
	.uleb128 0x24
	.long	.LASF69
	.byte	0x6
	.byte	0x48
	.byte	0x1a
	.long	0xa15b
	.uleb128 0x24
	.long	.LASF70
	.byte	0x6
	.byte	0x47
	.byte	0x1a
	.long	0x774c
	.uleb128 0x20
	.long	.LASF66
	.byte	0x6
	.byte	0x6f
	.byte	0x7
	.long	.LASF440
	.long	0x4383
	.byte	0x1
	.long	0x43a8
	.long	0x43b3
	.uleb128 0x2
	.long	0xa151
	.uleb128 0x1
	.long	0x43b3
	.byte	0
	.uleb128 0x24
	.long	.LASF72
	.byte	0x6
	.byte	0x49
	.byte	0x1a
	.long	0xa160
	.uleb128 0x20
	.long	.LASF73
	.byte	0x6
	.byte	0x81
	.byte	0x7
	.long	.LASF441
	.long	0xa147
	.byte	0x1
	.long	0x43d8
	.long	0x43e8
	.uleb128 0x2
	.long	0xa133
	.uleb128 0x1
	.long	0x43e8
	.uleb128 0x1
	.long	0x8f79
	.byte	0
	.uleb128 0x24
	.long	.LASF75
	.byte	0x6
	.byte	0x43
	.byte	0x1f
	.long	0x2b5
	.uleb128 0x1f
	.long	.LASF76
	.byte	0x6
	.byte	0xa7
	.byte	0x7
	.long	.LASF442
	.byte	0x1
	.long	0x4409
	.long	0x4419
	.uleb128 0x2
	.long	0xa133
	.uleb128 0x1
	.long	0xa147
	.uleb128 0x1
	.long	0x43e8
	.byte	0
	.uleb128 0x20
	.long	.LASF78
	.byte	0x6
	.byte	0xc2
	.byte	0x7
	.long	.LASF443
	.long	0x43e8
	.byte	0x1
	.long	0x4432
	.long	0x4438
	.uleb128 0x2
	.long	0xa151
	.byte	0
	.uleb128 0x40
	.long	.LASF80
	.byte	0x6
	.byte	0xf2
	.byte	0x7
	.long	.LASF444
	.long	0x43e8
	.long	0x4450
	.long	0x4456
	.uleb128 0x2
	.long	0xa151
	.byte	0
	.uleb128 0x11
	.string	"_Tp"
	.long	0x48
	.byte	0
	.uleb128 0x7
	.long	0x42c2
	.uleb128 0x3e
	.long	.LASF445
	.byte	0x1
	.byte	0x5
	.byte	0x85
	.long	0x44e9
	.uleb128 0x46
	.long	0x42c2
	.byte	0x1
	.uleb128 0x1f
	.long	.LASF83
	.byte	0x5
	.byte	0xa8
	.byte	0x7
	.long	.LASF446
	.byte	0x1
	.long	0x448c
	.long	0x4492
	.uleb128 0x2
	.long	0xa165
	.byte	0
	.uleb128 0x1f
	.long	.LASF83
	.byte	0x5
	.byte	0xac
	.byte	0x7
	.long	.LASF447
	.byte	0x1
	.long	0x44a7
	.long	0x44b2
	.uleb128 0x2
	.long	0xa165
	.uleb128 0x1
	.long	0xa16f
	.byte	0
	.uleb128 0x4d
	.long	.LASF34
	.byte	0x5
	.byte	0xb1
	.byte	0x12
	.long	.LASF448
	.long	0xa174
	.long	0x44ca
	.long	0x44d5
	.uleb128 0x2
	.long	0xa165
	.uleb128 0x1
	.long	0xa16f
	.byte	0
	.uleb128 0x64
	.long	.LASF87
	.long	.LASF449
	.long	0x44e2
	.uleb128 0x2
	.long	0xa165
	.byte	0
	.byte	0
	.uleb128 0x7
	.long	0x4465
	.uleb128 0x59
	.long	.LASF450
	.byte	0x1
	.byte	0x8
	.value	0x248
	.byte	0xc
	.long	0x45ec
	.uleb128 0x1c
	.long	.LASF68
	.byte	0x8
	.value	0x251
	.byte	0xd
	.long	0xa147
	.uleb128 0x17
	.long	.LASF73
	.byte	0x8
	.value	0x27d
	.byte	0x7
	.long	.LASF451
	.long	0x44fc
	.long	0x4529
	.uleb128 0x1
	.long	0xa179
	.uleb128 0x1
	.long	0x453b
	.byte	0
	.uleb128 0x1c
	.long	.LASF90
	.byte	0x8
	.value	0x24b
	.byte	0xd
	.long	0x4465
	.uleb128 0x7
	.long	0x4529
	.uleb128 0x1c
	.long	.LASF75
	.byte	0x8
	.value	0x260
	.byte	0xd
	.long	0x2b5
	.uleb128 0x17
	.long	.LASF73
	.byte	0x8
	.value	0x28c
	.byte	0x7
	.long	.LASF452
	.long	0x44fc
	.long	0x456d
	.uleb128 0x1
	.long	0xa179
	.uleb128 0x1
	.long	0x453b
	.uleb128 0x1
	.long	0x456d
	.byte	0
	.uleb128 0x1c
	.long	.LASF93
	.byte	0x8
	.value	0x25a
	.byte	0xd
	.long	0x8f79
	.uleb128 0x3f
	.long	.LASF76
	.byte	0x8
	.value	0x2b0
	.byte	0x7
	.long	.LASF453
	.long	0x459b
	.uleb128 0x1
	.long	0xa179
	.uleb128 0x1
	.long	0x44fc
	.uleb128 0x1
	.long	0x453b
	.byte	0
	.uleb128 0x17
	.long	.LASF78
	.byte	0x8
	.value	0x2ed
	.byte	0x7
	.long	.LASF454
	.long	0x453b
	.long	0x45b6
	.uleb128 0x1
	.long	0xa17e
	.byte	0
	.uleb128 0x17
	.long	.LASF95
	.byte	0x8
	.value	0x2fd
	.byte	0x7
	.long	.LASF455
	.long	0x4529
	.long	0x45d1
	.uleb128 0x1
	.long	0xa17e
	.byte	0
	.uleb128 0x1c
	.long	.LASF5
	.byte	0x8
	.value	0x24e
	.byte	0xd
	.long	0x48
	.uleb128 0x1c
	.long	.LASF97
	.byte	0x8
	.value	0x26f
	.byte	0x8
	.long	0x4465
	.byte	0
	.uleb128 0x1a
	.long	.LASF456
	.byte	0x18
	.byte	0x2
	.byte	0x5b
	.byte	0xc
	.long	0x498d
	.uleb128 0x1a
	.long	.LASF99
	.byte	0x18
	.byte	0x2
	.byte	0x62
	.byte	0xe
	.long	0x469f
	.uleb128 0xe
	.long	.LASF101
	.byte	0x2
	.byte	0x64
	.byte	0xa
	.long	0x46a4
	.byte	0
	.uleb128 0xe
	.long	.LASF102
	.byte	0x2
	.byte	0x65
	.byte	0xa
	.long	0x46a4
	.byte	0x8
	.uleb128 0xe
	.long	.LASF103
	.byte	0x2
	.byte	0x66
	.byte	0xa
	.long	0x46a4
	.byte	0x10
	.uleb128 0x1e
	.long	.LASF99
	.byte	0x2
	.byte	0x69
	.byte	0x2
	.long	.LASF457
	.long	0x4641
	.long	0x4647
	.uleb128 0x2
	.long	0xa18d
	.byte	0
	.uleb128 0x1e
	.long	.LASF99
	.byte	0x2
	.byte	0x6f
	.byte	0x2
	.long	.LASF458
	.long	0x465b
	.long	0x4666
	.uleb128 0x2
	.long	0xa18d
	.uleb128 0x1
	.long	0xa197
	.byte	0
	.uleb128 0x1e
	.long	.LASF106
	.byte	0x2
	.byte	0x77
	.byte	0x2
	.long	.LASF459
	.long	0x467a
	.long	0x4685
	.uleb128 0x2
	.long	0xa18d
	.uleb128 0x1
	.long	0xa19c
	.byte	0
	.uleb128 0x5f
	.long	.LASF108
	.byte	0x80
	.long	.LASF460
	.long	0x4693
	.uleb128 0x2
	.long	0xa18d
	.uleb128 0x1
	.long	0xa1a1
	.byte	0
	.byte	0
	.uleb128 0x7
	.long	0x45f9
	.uleb128 0x9
	.long	.LASF68
	.byte	0x2
	.byte	0x60
	.byte	0x9
	.long	0x8cb6
	.uleb128 0x1a
	.long	.LASF109
	.byte	0x18
	.byte	0x2
	.byte	0x8b
	.byte	0xe
	.long	0x4776
	.uleb128 0x31
	.long	0x4465
	.uleb128 0x31
	.long	0x45f9
	.uleb128 0x1e
	.long	.LASF109
	.byte	0x2
	.byte	0x8f
	.byte	0x2
	.long	.LASF461
	.long	0x46db
	.long	0x46e1
	.uleb128 0x2
	.long	0xa1a6
	.byte	0
	.uleb128 0x1e
	.long	.LASF109
	.byte	0x2
	.byte	0x98
	.byte	0x2
	.long	.LASF462
	.long	0x46f5
	.long	0x4700
	.uleb128 0x2
	.long	0xa1a6
	.uleb128 0x1
	.long	0xa1b0
	.byte	0
	.uleb128 0x1e
	.long	.LASF109
	.byte	0x2
	.byte	0xa0
	.byte	0x2
	.long	.LASF463
	.long	0x4714
	.long	0x471f
	.uleb128 0x2
	.long	0xa1a6
	.uleb128 0x1
	.long	0xa1b5
	.byte	0
	.uleb128 0x1e
	.long	.LASF109
	.byte	0x2
	.byte	0xa5
	.byte	0x2
	.long	.LASF464
	.long	0x4733
	.long	0x473e
	.uleb128 0x2
	.long	0xa1a6
	.uleb128 0x1
	.long	0xa1ba
	.byte	0
	.uleb128 0x1e
	.long	.LASF109
	.byte	0x2
	.byte	0xaa
	.byte	0x2
	.long	.LASF465
	.long	0x4752
	.long	0x4762
	.uleb128 0x2
	.long	0xa1a6
	.uleb128 0x1
	.long	0xa1ba
	.uleb128 0x1
	.long	0xa1b5
	.byte	0
	.uleb128 0x65
	.long	.LASF466
	.long	.LASF468
	.long	0x476f
	.uleb128 0x2
	.long	0xa1a6
	.byte	0
	.byte	0
	.uleb128 0x9
	.long	.LASF115
	.byte	0x2
	.byte	0x5e
	.byte	0x15
	.long	0x8ce7
	.uleb128 0x7
	.long	0x4776
	.uleb128 0x32
	.long	.LASF116
	.value	0x133
	.byte	0x7
	.long	.LASF469
	.long	0xa1bf
	.long	0x479f
	.long	0x47a5
	.uleb128 0x2
	.long	0xa1c4
	.byte	0
	.uleb128 0x32
	.long	.LASF116
	.value	0x138
	.byte	0x7
	.long	.LASF470
	.long	0xa1b0
	.long	0x47bd
	.long	0x47c3
	.uleb128 0x2
	.long	0xa1ce
	.byte	0
	.uleb128 0x1c
	.long	.LASF90
	.byte	0x2
	.value	0x12f
	.byte	0x16
	.long	0x4465
	.uleb128 0x7
	.long	0x47c3
	.uleb128 0x32
	.long	.LASF119
	.value	0x13d
	.byte	0x7
	.long	.LASF471
	.long	0x47c3
	.long	0x47ed
	.long	0x47f3
	.uleb128 0x2
	.long	0xa1ce
	.byte	0
	.uleb128 0x4e
	.long	.LASF121
	.value	0x141
	.long	.LASF472
	.long	0x4806
	.long	0x480c
	.uleb128 0x2
	.long	0xa1c4
	.byte	0
	.uleb128 0x1b
	.long	.LASF121
	.value	0x147
	.long	.LASF473
	.long	0x481f
	.long	0x482a
	.uleb128 0x2
	.long	0xa1c4
	.uleb128 0x1
	.long	0xa1d3
	.byte	0
	.uleb128 0x1b
	.long	.LASF121
	.value	0x14d
	.long	.LASF474
	.long	0x483d
	.long	0x4848
	.uleb128 0x2
	.long	0xa1c4
	.uleb128 0x1
	.long	0x2b5
	.byte	0
	.uleb128 0x1b
	.long	.LASF121
	.value	0x153
	.long	.LASF475
	.long	0x485b
	.long	0x486b
	.uleb128 0x2
	.long	0xa1c4
	.uleb128 0x1
	.long	0x2b5
	.uleb128 0x1
	.long	0xa1d3
	.byte	0
	.uleb128 0x4e
	.long	.LASF121
	.value	0x158
	.long	.LASF476
	.long	0x487e
	.long	0x4889
	.uleb128 0x2
	.long	0xa1c4
	.uleb128 0x1
	.long	0xa1d8
	.byte	0
	.uleb128 0x1b
	.long	.LASF121
	.value	0x15d
	.long	.LASF477
	.long	0x489c
	.long	0x48a7
	.uleb128 0x2
	.long	0xa1c4
	.uleb128 0x1
	.long	0xa1ba
	.byte	0
	.uleb128 0x1b
	.long	.LASF121
	.value	0x161
	.long	.LASF478
	.long	0x48ba
	.long	0x48ca
	.uleb128 0x2
	.long	0xa1c4
	.uleb128 0x1
	.long	0xa1d8
	.uleb128 0x1
	.long	0xa1d3
	.byte	0
	.uleb128 0x1b
	.long	.LASF121
	.value	0x16f
	.long	.LASF479
	.long	0x48dd
	.long	0x48ed
	.uleb128 0x2
	.long	0xa1c4
	.uleb128 0x1
	.long	0xa1d3
	.uleb128 0x1
	.long	0xa1d8
	.byte	0
	.uleb128 0x1b
	.long	.LASF130
	.value	0x175
	.long	.LASF480
	.long	0x4900
	.long	0x4906
	.uleb128 0x2
	.long	0xa1c4
	.byte	0
	.uleb128 0x4f
	.long	.LASF132
	.value	0x17e
	.byte	0x14
	.long	0x46b0
	.byte	0
	.uleb128 0x32
	.long	.LASF133
	.value	0x182
	.byte	0x7
	.long	.LASF481
	.long	0x46a4
	.long	0x492b
	.long	0x4936
	.uleb128 0x2
	.long	0xa1c4
	.uleb128 0x1
	.long	0x2b5
	.byte	0
	.uleb128 0x1b
	.long	.LASF135
	.value	0x18a
	.long	.LASF482
	.long	0x4949
	.long	0x4959
	.uleb128 0x2
	.long	0xa1c4
	.uleb128 0x1
	.long	0x46a4
	.uleb128 0x1
	.long	0x2b5
	.byte	0
	.uleb128 0x10
	.long	.LASF137
	.byte	0x2
	.value	0x195
	.byte	0x7
	.long	.LASF483
	.byte	0x2
	.long	0x496f
	.long	0x497a
	.uleb128 0x2
	.long	0xa1c4
	.uleb128 0x1
	.long	0x2b5
	.byte	0
	.uleb128 0x11
	.string	"_Tp"
	.long	0x48
	.uleb128 0xc
	.long	.LASF139
	.long	0x4465
	.byte	0
	.uleb128 0x7
	.long	0x45ec
	.uleb128 0x1a
	.long	.LASF484
	.byte	0x1
	.byte	0x10
	.byte	0xa9
	.byte	0xc
	.long	0x49b5
	.uleb128 0x9
	.long	.LASF141
	.byte	0x10
	.byte	0xaa
	.byte	0xd
	.long	0x4465
	.uleb128 0xc
	.long	.LASF142
	.long	0x4465
	.byte	0
	.uleb128 0x4b
	.long	.LASF485
	.byte	0x18
	.byte	0x2
	.value	0x1cc
	.long	0x555d
	.uleb128 0x18
	.byte	0x2
	.value	0x1cc
	.byte	0xb
	.long	0x4913
	.uleb128 0x18
	.byte	0x2
	.value	0x1cc
	.byte	0xb
	.long	0x4936
	.uleb128 0x18
	.byte	0x2
	.value	0x1cc
	.byte	0xb
	.long	0x4906
	.uleb128 0x18
	.byte	0x2
	.value	0x1cc
	.byte	0xb
	.long	0x47a5
	.uleb128 0x18
	.byte	0x2
	.value	0x1cc
	.byte	0xb
	.long	0x4787
	.uleb128 0x18
	.byte	0x2
	.value	0x1cc
	.byte	0xb
	.long	0x47d5
	.uleb128 0x46
	.long	0x45ec
	.byte	0x2
	.uleb128 0x17
	.long	.LASF144
	.byte	0x2
	.value	0x1f6
	.byte	0x7
	.long	.LASF486
	.long	0x8f23
	.long	0x4a19
	.uleb128 0x1
	.long	0x630
	.byte	0
	.uleb128 0x17
	.long	.LASF144
	.byte	0x2
	.value	0x1ff
	.byte	0x7
	.long	.LASF487
	.long	0x8f23
	.long	0x4a34
	.uleb128 0x1
	.long	0x3a3
	.byte	0
	.uleb128 0x66
	.long	.LASF330
	.long	.LASF488
	.long	0x8f23
	.uleb128 0x14
	.long	.LASF68
	.byte	0x2
	.value	0x1e6
	.byte	0x29
	.long	0x46a4
	.uleb128 0x17
	.long	.LASF147
	.byte	0x2
	.value	0x20c
	.byte	0x7
	.long	.LASF489
	.long	0x4a41
	.long	0x4a78
	.uleb128 0x1
	.long	0x4a41
	.uleb128 0x1
	.long	0x4a41
	.uleb128 0x1
	.long	0x4a41
	.uleb128 0x1
	.long	0xa1dd
	.byte	0
	.uleb128 0x1c
	.long	.LASF115
	.byte	0x2
	.value	0x1e1
	.byte	0x2f
	.long	0x4776
	.uleb128 0x7
	.long	0x4a78
	.uleb128 0x50
	.long	.LASF149
	.value	0x227
	.long	.LASF490
	.long	0x4a9d
	.long	0x4aa3
	.uleb128 0x2
	.long	0xa1e2
	.byte	0
	.uleb128 0x41
	.long	.LASF149
	.byte	0x2
	.value	0x232
	.long	.LASF491
	.long	0x4ab7
	.long	0x4ac2
	.uleb128 0x2
	.long	0xa1e2
	.uleb128 0x1
	.long	0xa1ec
	.byte	0
	.uleb128 0x14
	.long	.LASF90
	.byte	0x2
	.value	0x1f1
	.byte	0x1a
	.long	0x4465
	.uleb128 0x7
	.long	0x4ac2
	.uleb128 0x41
	.long	.LASF149
	.byte	0x2
	.value	0x240
	.long	.LASF492
	.long	0x4ae8
	.long	0x4af8
	.uleb128 0x2
	.long	0xa1e2
	.uleb128 0x1
	.long	0x4af8
	.uleb128 0x1
	.long	0xa1ec
	.byte	0
	.uleb128 0x14
	.long	.LASF75
	.byte	0x2
	.value	0x1ef
	.byte	0x1a
	.long	0x2b5
	.uleb128 0x10
	.long	.LASF149
	.byte	0x2
	.value	0x24d
	.byte	0x7
	.long	.LASF493
	.byte	0x1
	.long	0x4b1b
	.long	0x4b30
	.uleb128 0x2
	.long	0xa1e2
	.uleb128 0x1
	.long	0x4af8
	.uleb128 0x1
	.long	0xa1f1
	.uleb128 0x1
	.long	0xa1ec
	.byte	0
	.uleb128 0x14
	.long	.LASF5
	.byte	0x2
	.value	0x1e5
	.byte	0x17
	.long	0x48
	.uleb128 0x7
	.long	0x4b30
	.uleb128 0x10
	.long	.LASF149
	.byte	0x2
	.value	0x26d
	.byte	0x7
	.long	.LASF494
	.byte	0x1
	.long	0x4b58
	.long	0x4b63
	.uleb128 0x2
	.long	0xa1e2
	.uleb128 0x1
	.long	0xa1f6
	.byte	0
	.uleb128 0x50
	.long	.LASF149
	.value	0x280
	.long	.LASF495
	.long	0x4b76
	.long	0x4b81
	.uleb128 0x2
	.long	0xa1e2
	.uleb128 0x1
	.long	0xa1fb
	.byte	0
	.uleb128 0x10
	.long	.LASF149
	.byte	0x2
	.value	0x284
	.byte	0x7
	.long	.LASF496
	.byte	0x1
	.long	0x4b97
	.long	0x4ba7
	.uleb128 0x2
	.long	0xa1e2
	.uleb128 0x1
	.long	0xa1f6
	.uleb128 0x1
	.long	0xa200
	.byte	0
	.uleb128 0x1b
	.long	.LASF149
	.value	0x28f
	.long	.LASF497
	.long	0x4bba
	.long	0x4bcf
	.uleb128 0x2
	.long	0xa1e2
	.uleb128 0x1
	.long	0xa1fb
	.uleb128 0x1
	.long	0xa1ec
	.uleb128 0x1
	.long	0x630
	.byte	0
	.uleb128 0x1b
	.long	.LASF149
	.value	0x294
	.long	.LASF498
	.long	0x4be2
	.long	0x4bf7
	.uleb128 0x2
	.long	0xa1e2
	.uleb128 0x1
	.long	0xa1fb
	.uleb128 0x1
	.long	0xa1ec
	.uleb128 0x1
	.long	0x3a3
	.byte	0
	.uleb128 0x10
	.long	.LASF149
	.byte	0x2
	.value	0x2a7
	.byte	0x7
	.long	.LASF499
	.byte	0x1
	.long	0x4c0d
	.long	0x4c1d
	.uleb128 0x2
	.long	0xa1e2
	.uleb128 0x1
	.long	0xa1fb
	.uleb128 0x1
	.long	0xa200
	.byte	0
	.uleb128 0x10
	.long	.LASF149
	.byte	0x2
	.value	0x2ba
	.byte	0x7
	.long	.LASF500
	.byte	0x1
	.long	0x4c33
	.long	0x4c43
	.uleb128 0x2
	.long	0xa1e2
	.uleb128 0x1
	.long	0x5573
	.uleb128 0x1
	.long	0xa1ec
	.byte	0
	.uleb128 0x10
	.long	.LASF161
	.byte	0x2
	.value	0x316
	.byte	0x7
	.long	.LASF501
	.byte	0x1
	.long	0x4c59
	.long	0x4c5f
	.uleb128 0x2
	.long	0xa1e2
	.byte	0
	.uleb128 0x20
	.long	.LASF34
	.byte	0x7
	.byte	0xd6
	.byte	0x5
	.long	.LASF502
	.long	0xa205
	.byte	0x1
	.long	0x4c78
	.long	0x4c83
	.uleb128 0x2
	.long	0xa1e2
	.uleb128 0x1
	.long	0xa1f6
	.byte	0
	.uleb128 0x6
	.long	.LASF34
	.byte	0x2
	.value	0x337
	.byte	0x7
	.long	.LASF503
	.long	0xa205
	.byte	0x1
	.long	0x4c9d
	.long	0x4ca8
	.uleb128 0x2
	.long	0xa1e2
	.uleb128 0x1
	.long	0xa1fb
	.byte	0
	.uleb128 0x6
	.long	.LASF34
	.byte	0x2
	.value	0x34d
	.byte	0x7
	.long	.LASF504
	.long	0xa205
	.byte	0x1
	.long	0x4cc2
	.long	0x4ccd
	.uleb128 0x2
	.long	0xa1e2
	.uleb128 0x1
	.long	0x5573
	.byte	0
	.uleb128 0x10
	.long	.LASF166
	.byte	0x2
	.value	0x361
	.byte	0x7
	.long	.LASF505
	.byte	0x1
	.long	0x4ce3
	.long	0x4cf3
	.uleb128 0x2
	.long	0xa1e2
	.uleb128 0x1
	.long	0x4af8
	.uleb128 0x1
	.long	0xa1f1
	.byte	0
	.uleb128 0x10
	.long	.LASF166
	.byte	0x2
	.value	0x390
	.byte	0x7
	.long	.LASF506
	.byte	0x1
	.long	0x4d09
	.long	0x4d14
	.uleb128 0x2
	.long	0xa1e2
	.uleb128 0x1
	.long	0x5573
	.byte	0
	.uleb128 0x14
	.long	.LASF169
	.byte	0x2
	.value	0x1ea
	.byte	0x3d
	.long	0x8d07
	.uleb128 0x6
	.long	.LASF170
	.byte	0x2
	.value	0x3dc
	.byte	0x7
	.long	.LASF507
	.long	0x4d14
	.byte	0x1
	.long	0x4d3b
	.long	0x4d41
	.uleb128 0x2
	.long	0xa1e2
	.byte	0
	.uleb128 0x14
	.long	.LASF172
	.byte	0x2
	.value	0x1ec
	.byte	0x7
	.long	0x8d0c
	.uleb128 0x6
	.long	.LASF170
	.byte	0x2
	.value	0x3e6
	.byte	0x7
	.long	.LASF508
	.long	0x4d41
	.byte	0x1
	.long	0x4d68
	.long	0x4d6e
	.uleb128 0x2
	.long	0xa20a
	.byte	0
	.uleb128 0x34
	.string	"end"
	.value	0x3f0
	.long	.LASF509
	.long	0x4d14
	.long	0x4d85
	.long	0x4d8b
	.uleb128 0x2
	.long	0xa1e2
	.byte	0
	.uleb128 0x34
	.string	"end"
	.value	0x3fa
	.long	.LASF510
	.long	0x4d41
	.long	0x4da2
	.long	0x4da8
	.uleb128 0x2
	.long	0xa20a
	.byte	0
	.uleb128 0x14
	.long	.LASF176
	.byte	0x2
	.value	0x1ee
	.byte	0x30
	.long	0x5665
	.uleb128 0x6
	.long	.LASF177
	.byte	0x2
	.value	0x404
	.byte	0x7
	.long	.LASF511
	.long	0x4da8
	.byte	0x1
	.long	0x4dcf
	.long	0x4dd5
	.uleb128 0x2
	.long	0xa1e2
	.byte	0
	.uleb128 0x14
	.long	.LASF179
	.byte	0x2
	.value	0x1ed
	.byte	0x35
	.long	0x566a
	.uleb128 0x6
	.long	.LASF177
	.byte	0x2
	.value	0x40e
	.byte	0x7
	.long	.LASF512
	.long	0x4dd5
	.byte	0x1
	.long	0x4dfc
	.long	0x4e02
	.uleb128 0x2
	.long	0xa20a
	.byte	0
	.uleb128 0x6
	.long	.LASF181
	.byte	0x2
	.value	0x418
	.byte	0x7
	.long	.LASF513
	.long	0x4da8
	.byte	0x1
	.long	0x4e1c
	.long	0x4e22
	.uleb128 0x2
	.long	0xa1e2
	.byte	0
	.uleb128 0x6
	.long	.LASF181
	.byte	0x2
	.value	0x422
	.byte	0x7
	.long	.LASF514
	.long	0x4dd5
	.byte	0x1
	.long	0x4e3c
	.long	0x4e42
	.uleb128 0x2
	.long	0xa20a
	.byte	0
	.uleb128 0x6
	.long	.LASF184
	.byte	0x2
	.value	0x42d
	.byte	0x7
	.long	.LASF515
	.long	0x4d41
	.byte	0x1
	.long	0x4e5c
	.long	0x4e62
	.uleb128 0x2
	.long	0xa20a
	.byte	0
	.uleb128 0x6
	.long	.LASF186
	.byte	0x2
	.value	0x437
	.byte	0x7
	.long	.LASF516
	.long	0x4d41
	.byte	0x1
	.long	0x4e7c
	.long	0x4e82
	.uleb128 0x2
	.long	0xa20a
	.byte	0
	.uleb128 0x6
	.long	.LASF188
	.byte	0x2
	.value	0x441
	.byte	0x7
	.long	.LASF517
	.long	0x4dd5
	.byte	0x1
	.long	0x4e9c
	.long	0x4ea2
	.uleb128 0x2
	.long	0xa20a
	.byte	0
	.uleb128 0x6
	.long	.LASF190
	.byte	0x2
	.value	0x44b
	.byte	0x7
	.long	.LASF518
	.long	0x4dd5
	.byte	0x1
	.long	0x4ebc
	.long	0x4ec2
	.uleb128 0x2
	.long	0xa20a
	.byte	0
	.uleb128 0x6
	.long	.LASF192
	.byte	0x2
	.value	0x453
	.byte	0x7
	.long	.LASF519
	.long	0x4af8
	.byte	0x1
	.long	0x4edc
	.long	0x4ee2
	.uleb128 0x2
	.long	0xa20a
	.byte	0
	.uleb128 0x6
	.long	.LASF78
	.byte	0x2
	.value	0x45e
	.byte	0x7
	.long	.LASF520
	.long	0x4af8
	.byte	0x1
	.long	0x4efc
	.long	0x4f02
	.uleb128 0x2
	.long	0xa20a
	.byte	0
	.uleb128 0x10
	.long	.LASF195
	.byte	0x2
	.value	0x46d
	.byte	0x7
	.long	.LASF521
	.byte	0x1
	.long	0x4f18
	.long	0x4f23
	.uleb128 0x2
	.long	0xa1e2
	.uleb128 0x1
	.long	0x4af8
	.byte	0
	.uleb128 0x10
	.long	.LASF195
	.byte	0x2
	.value	0x482
	.byte	0x7
	.long	.LASF522
	.byte	0x1
	.long	0x4f39
	.long	0x4f49
	.uleb128 0x2
	.long	0xa1e2
	.uleb128 0x1
	.long	0x4af8
	.uleb128 0x1
	.long	0xa1f1
	.byte	0
	.uleb128 0x10
	.long	.LASF198
	.byte	0x2
	.value	0x4a4
	.byte	0x7
	.long	.LASF523
	.byte	0x1
	.long	0x4f5f
	.long	0x4f65
	.uleb128 0x2
	.long	0xa1e2
	.byte	0
	.uleb128 0x6
	.long	.LASF200
	.byte	0x2
	.value	0x4ae
	.byte	0x7
	.long	.LASF524
	.long	0x4af8
	.byte	0x1
	.long	0x4f7f
	.long	0x4f85
	.uleb128 0x2
	.long	0xa20a
	.byte	0
	.uleb128 0x6
	.long	.LASF202
	.byte	0x2
	.value	0x4bd
	.byte	0x7
	.long	.LASF525
	.long	0x8f23
	.byte	0x1
	.long	0x4f9f
	.long	0x4fa5
	.uleb128 0x2
	.long	0xa20a
	.byte	0
	.uleb128 0x1f
	.long	.LASF204
	.byte	0x7
	.byte	0x46
	.byte	0x5
	.long	.LASF526
	.byte	0x1
	.long	0x4fba
	.long	0x4fc5
	.uleb128 0x2
	.long	0xa1e2
	.uleb128 0x1
	.long	0x4af8
	.byte	0
	.uleb128 0x14
	.long	.LASF69
	.byte	0x2
	.value	0x1e8
	.byte	0x32
	.long	0x8cc2
	.uleb128 0x6
	.long	.LASF206
	.byte	0x2
	.value	0x4e3
	.byte	0x7
	.long	.LASF527
	.long	0x4fc5
	.byte	0x1
	.long	0x4fec
	.long	0x4ff7
	.uleb128 0x2
	.long	0xa1e2
	.uleb128 0x1
	.long	0x4af8
	.byte	0
	.uleb128 0x14
	.long	.LASF72
	.byte	0x2
	.value	0x1e9
	.byte	0x37
	.long	0x8cce
	.uleb128 0x6
	.long	.LASF206
	.byte	0x2
	.value	0x4f6
	.byte	0x7
	.long	.LASF528
	.long	0x4ff7
	.byte	0x1
	.long	0x501e
	.long	0x5029
	.uleb128 0x2
	.long	0xa20a
	.uleb128 0x1
	.long	0x4af8
	.byte	0
	.uleb128 0x10
	.long	.LASF209
	.byte	0x2
	.value	0x500
	.byte	0x7
	.long	.LASF529
	.byte	0x2
	.long	0x503f
	.long	0x504a
	.uleb128 0x2
	.long	0xa20a
	.uleb128 0x1
	.long	0x4af8
	.byte	0
	.uleb128 0x34
	.string	"at"
	.value	0x517
	.long	.LASF530
	.long	0x4fc5
	.long	0x5060
	.long	0x506b
	.uleb128 0x2
	.long	0xa1e2
	.uleb128 0x1
	.long	0x4af8
	.byte	0
	.uleb128 0x34
	.string	"at"
	.value	0x52a
	.long	.LASF531
	.long	0x4ff7
	.long	0x5081
	.long	0x508c
	.uleb128 0x2
	.long	0xa20a
	.uleb128 0x1
	.long	0x4af8
	.byte	0
	.uleb128 0x6
	.long	.LASF213
	.byte	0x2
	.value	0x536
	.byte	0x7
	.long	.LASF532
	.long	0x4fc5
	.byte	0x1
	.long	0x50a6
	.long	0x50ac
	.uleb128 0x2
	.long	0xa1e2
	.byte	0
	.uleb128 0x6
	.long	.LASF213
	.byte	0x2
	.value	0x542
	.byte	0x7
	.long	.LASF533
	.long	0x4ff7
	.byte	0x1
	.long	0x50c6
	.long	0x50cc
	.uleb128 0x2
	.long	0xa20a
	.byte	0
	.uleb128 0x6
	.long	.LASF216
	.byte	0x2
	.value	0x54e
	.byte	0x7
	.long	.LASF534
	.long	0x4fc5
	.byte	0x1
	.long	0x50e6
	.long	0x50ec
	.uleb128 0x2
	.long	0xa1e2
	.byte	0
	.uleb128 0x6
	.long	.LASF216
	.byte	0x2
	.value	0x55a
	.byte	0x7
	.long	.LASF535
	.long	0x4ff7
	.byte	0x1
	.long	0x5106
	.long	0x510c
	.uleb128 0x2
	.long	0xa20a
	.byte	0
	.uleb128 0x6
	.long	.LASF219
	.byte	0x2
	.value	0x569
	.byte	0x7
	.long	.LASF536
	.long	0xa147
	.byte	0x1
	.long	0x5126
	.long	0x512c
	.uleb128 0x2
	.long	0xa1e2
	.byte	0
	.uleb128 0x6
	.long	.LASF219
	.byte	0x2
	.value	0x56e
	.byte	0x7
	.long	.LASF537
	.long	0x774c
	.byte	0x1
	.long	0x5146
	.long	0x514c
	.uleb128 0x2
	.long	0xa20a
	.byte	0
	.uleb128 0x10
	.long	.LASF222
	.byte	0x2
	.value	0x57e
	.byte	0x7
	.long	.LASF538
	.byte	0x1
	.long	0x5162
	.long	0x516d
	.uleb128 0x2
	.long	0xa1e2
	.uleb128 0x1
	.long	0xa1f1
	.byte	0
	.uleb128 0x10
	.long	.LASF222
	.byte	0x2
	.value	0x58f
	.byte	0x7
	.long	.LASF539
	.byte	0x1
	.long	0x5183
	.long	0x518e
	.uleb128 0x2
	.long	0xa1e2
	.uleb128 0x1
	.long	0xa20f
	.byte	0
	.uleb128 0x10
	.long	.LASF225
	.byte	0x2
	.value	0x5a7
	.byte	0x7
	.long	.LASF540
	.byte	0x1
	.long	0x51a4
	.long	0x51aa
	.uleb128 0x2
	.long	0xa1e2
	.byte	0
	.uleb128 0x20
	.long	.LASF227
	.byte	0x7
	.byte	0x89
	.byte	0x5
	.long	.LASF541
	.long	0x4d14
	.byte	0x1
	.long	0x51c3
	.long	0x51d3
	.uleb128 0x2
	.long	0xa1e2
	.uleb128 0x1
	.long	0x4d41
	.uleb128 0x1
	.long	0xa1f1
	.byte	0
	.uleb128 0x6
	.long	.LASF227
	.byte	0x2
	.value	0x5ee
	.byte	0x7
	.long	.LASF542
	.long	0x4d14
	.byte	0x1
	.long	0x51ed
	.long	0x51fd
	.uleb128 0x2
	.long	0xa1e2
	.uleb128 0x1
	.long	0x4d41
	.uleb128 0x1
	.long	0xa20f
	.byte	0
	.uleb128 0x6
	.long	.LASF227
	.byte	0x2
	.value	0x600
	.byte	0x7
	.long	.LASF543
	.long	0x4d14
	.byte	0x1
	.long	0x5217
	.long	0x5227
	.uleb128 0x2
	.long	0xa1e2
	.uleb128 0x1
	.long	0x4d41
	.uleb128 0x1
	.long	0x5573
	.byte	0
	.uleb128 0x6
	.long	.LASF227
	.byte	0x2
	.value	0x61a
	.byte	0x7
	.long	.LASF544
	.long	0x4d14
	.byte	0x1
	.long	0x5241
	.long	0x5256
	.uleb128 0x2
	.long	0xa1e2
	.uleb128 0x1
	.long	0x4d41
	.uleb128 0x1
	.long	0x4af8
	.uleb128 0x1
	.long	0xa1f1
	.byte	0
	.uleb128 0x6
	.long	.LASF232
	.byte	0x2
	.value	0x6f6
	.byte	0x7
	.long	.LASF545
	.long	0x4d14
	.byte	0x1
	.long	0x5270
	.long	0x527b
	.uleb128 0x2
	.long	0xa1e2
	.uleb128 0x1
	.long	0x4d41
	.byte	0
	.uleb128 0x6
	.long	.LASF232
	.byte	0x2
	.value	0x712
	.byte	0x7
	.long	.LASF546
	.long	0x4d14
	.byte	0x1
	.long	0x5295
	.long	0x52a5
	.uleb128 0x2
	.long	0xa1e2
	.uleb128 0x1
	.long	0x4d41
	.uleb128 0x1
	.long	0x4d41
	.byte	0
	.uleb128 0x10
	.long	.LASF39
	.byte	0x2
	.value	0x72a
	.byte	0x7
	.long	.LASF547
	.byte	0x1
	.long	0x52bb
	.long	0x52c6
	.uleb128 0x2
	.long	0xa1e2
	.uleb128 0x1
	.long	0xa205
	.byte	0
	.uleb128 0x10
	.long	.LASF236
	.byte	0x2
	.value	0x73d
	.byte	0x7
	.long	.LASF548
	.byte	0x1
	.long	0x52dc
	.long	0x52e2
	.uleb128 0x2
	.long	0xa1e2
	.byte	0
	.uleb128 0x10
	.long	.LASF238
	.byte	0x2
	.value	0x7c3
	.byte	0x7
	.long	.LASF549
	.byte	0x2
	.long	0x52f8
	.long	0x5308
	.uleb128 0x2
	.long	0xa1e2
	.uleb128 0x1
	.long	0x4af8
	.uleb128 0x1
	.long	0xa1f1
	.byte	0
	.uleb128 0x10
	.long	.LASF240
	.byte	0x2
	.value	0x7ce
	.byte	0x7
	.long	.LASF550
	.byte	0x2
	.long	0x531e
	.long	0x5329
	.uleb128 0x2
	.long	0xa1e2
	.uleb128 0x1
	.long	0x4af8
	.byte	0
	.uleb128 0x10
	.long	.LASF242
	.byte	0x7
	.value	0x112
	.byte	0x5
	.long	.LASF551
	.byte	0x2
	.long	0x533f
	.long	0x534f
	.uleb128 0x2
	.long	0xa1e2
	.uleb128 0x1
	.long	0x2b5
	.uleb128 0x1
	.long	0xa1f1
	.byte	0
	.uleb128 0x10
	.long	.LASF244
	.byte	0x7
	.value	0x296
	.byte	0x5
	.long	.LASF552
	.byte	0x2
	.long	0x5365
	.long	0x537a
	.uleb128 0x2
	.long	0xa1e2
	.uleb128 0x1
	.long	0x4d14
	.uleb128 0x1
	.long	0x4af8
	.uleb128 0x1
	.long	0xa1f1
	.byte	0
	.uleb128 0x10
	.long	.LASF246
	.byte	0x7
	.value	0x300
	.byte	0x5
	.long	.LASF553
	.byte	0x2
	.long	0x5390
	.long	0x53a0
	.uleb128 0x2
	.long	0xa1e2
	.uleb128 0x1
	.long	0x4af8
	.uleb128 0x1
	.long	0xa1f1
	.byte	0
	.uleb128 0x10
	.long	.LASF248
	.byte	0x7
	.value	0x339
	.byte	0x5
	.long	.LASF554
	.byte	0x2
	.long	0x53b6
	.long	0x53c1
	.uleb128 0x2
	.long	0xa1e2
	.uleb128 0x1
	.long	0x4af8
	.byte	0
	.uleb128 0x6
	.long	.LASF250
	.byte	0x7
	.value	0x396
	.byte	0x5
	.long	.LASF555
	.long	0x8f23
	.byte	0x2
	.long	0x53db
	.long	0x53e1
	.uleb128 0x2
	.long	0xa1e2
	.byte	0
	.uleb128 0x6
	.long	.LASF252
	.byte	0x7
	.value	0x16f
	.byte	0x5
	.long	.LASF556
	.long	0x4d14
	.byte	0x2
	.long	0x53fb
	.long	0x540b
	.uleb128 0x2
	.long	0xa1e2
	.uleb128 0x1
	.long	0x4d41
	.uleb128 0x1
	.long	0xa20f
	.byte	0
	.uleb128 0x6
	.long	.LASF254
	.byte	0x2
	.value	0x889
	.byte	0x7
	.long	.LASF557
	.long	0x4d14
	.byte	0x2
	.long	0x5425
	.long	0x5435
	.uleb128 0x2
	.long	0xa1e2
	.uleb128 0x1
	.long	0x4d41
	.uleb128 0x1
	.long	0xa20f
	.byte	0
	.uleb128 0x6
	.long	.LASF256
	.byte	0x2
	.value	0x890
	.byte	0x7
	.long	.LASF558
	.long	0x4af8
	.byte	0x2
	.long	0x544f
	.long	0x545f
	.uleb128 0x2
	.long	0xa20a
	.uleb128 0x1
	.long	0x4af8
	.uleb128 0x1
	.long	0x7751
	.byte	0
	.uleb128 0x51
	.long	.LASF258
	.value	0x89b
	.long	.LASF559
	.long	0x4af8
	.long	0x547d
	.uleb128 0x1
	.long	0x4af8
	.uleb128 0x1
	.long	0xa1ec
	.byte	0
	.uleb128 0x51
	.long	.LASF260
	.value	0x8a4
	.long	.LASF560
	.long	0x4af8
	.long	0x5496
	.uleb128 0x1
	.long	0xa214
	.byte	0
	.uleb128 0x10
	.long	.LASF262
	.byte	0x2
	.value	0x8b5
	.byte	0x7
	.long	.LASF561
	.byte	0x2
	.long	0x54ac
	.long	0x54b7
	.uleb128 0x2
	.long	0xa1e2
	.uleb128 0x1
	.long	0x4a41
	.byte	0
	.uleb128 0x20
	.long	.LASF264
	.byte	0x7
	.byte	0xb9
	.byte	0x5
	.long	.LASF562
	.long	0x4d14
	.byte	0x2
	.long	0x54d0
	.long	0x54db
	.uleb128 0x2
	.long	0xa1e2
	.uleb128 0x1
	.long	0x4d14
	.byte	0
	.uleb128 0x20
	.long	.LASF264
	.byte	0x7
	.byte	0xc7
	.byte	0x5
	.long	.LASF563
	.long	0x4d14
	.byte	0x2
	.long	0x54f4
	.long	0x5504
	.uleb128 0x2
	.long	0xa1e2
	.uleb128 0x1
	.long	0x4d14
	.uleb128 0x1
	.long	0x4d14
	.byte	0
	.uleb128 0x1b
	.long	.LASF267
	.value	0x8cf
	.long	.LASF564
	.long	0x5517
	.long	0x5527
	.uleb128 0x2
	.long	0xa1e2
	.uleb128 0x1
	.long	0xa1fb
	.uleb128 0x1
	.long	0x630
	.byte	0
	.uleb128 0x1b
	.long	.LASF267
	.value	0x8db
	.long	.LASF565
	.long	0x553a
	.long	0x554a
	.uleb128 0x2
	.long	0xa1e2
	.uleb128 0x1
	.long	0xa1fb
	.uleb128 0x1
	.long	0x3a3
	.byte	0
	.uleb128 0x11
	.string	"_Tp"
	.long	0x48
	.uleb128 0x60
	.long	.LASF139
	.long	0x4465
	.byte	0
	.uleb128 0x7
	.long	0x49b5
	.uleb128 0x9
	.long	.LASF272
	.byte	0x10
	.byte	0xad
	.byte	0xb
	.long	0x499f
	.uleb128 0x7
	.long	0x5562
	.uleb128 0x3e
	.long	.LASF566
	.byte	0x10
	.byte	0x20
	.byte	0x2f
	.long	0x5660
	.uleb128 0x24
	.long	.LASF169
	.byte	0x20
	.byte	0x36
	.byte	0x1a
	.long	0x774c
	.uleb128 0xe
	.long	.LASF567
	.byte	0x20
	.byte	0x3a
	.byte	0x12
	.long	0x557f
	.byte	0
	.uleb128 0x24
	.long	.LASF75
	.byte	0x20
	.byte	0x35
	.byte	0x18
	.long	0x2b5
	.uleb128 0xe
	.long	.LASF424
	.byte	0x20
	.byte	0x3b
	.byte	0x13
	.long	0x5598
	.byte	0x8
	.uleb128 0x1e
	.long	.LASF568
	.byte	0x20
	.byte	0x3e
	.byte	0x11
	.long	.LASF569
	.long	0x55c5
	.long	0x55d5
	.uleb128 0x2
	.long	0xa219
	.uleb128 0x1
	.long	0x55d5
	.uleb128 0x1
	.long	0x5598
	.byte	0
	.uleb128 0x24
	.long	.LASF172
	.byte	0x20
	.byte	0x37
	.byte	0x1a
	.long	0x774c
	.uleb128 0x1f
	.long	.LASF568
	.byte	0x20
	.byte	0x42
	.byte	0x11
	.long	.LASF570
	.byte	0x1
	.long	0x55f6
	.long	0x55fc
	.uleb128 0x2
	.long	0xa219
	.byte	0
	.uleb128 0x20
	.long	.LASF192
	.byte	0x20
	.byte	0x47
	.byte	0x7
	.long	.LASF571
	.long	0x5598
	.byte	0x1
	.long	0x5615
	.long	0x561b
	.uleb128 0x2
	.long	0xa21e
	.byte	0
	.uleb128 0x20
	.long	.LASF170
	.byte	0x20
	.byte	0x4b
	.byte	0x7
	.long	.LASF572
	.long	0x55d5
	.byte	0x1
	.long	0x5634
	.long	0x563a
	.uleb128 0x2
	.long	0xa21e
	.byte	0
	.uleb128 0x88
	.string	"end"
	.byte	0x4f
	.long	.LASF713
	.long	0x55d5
	.long	0x5651
	.long	0x5657
	.uleb128 0x2
	.long	0xa21e
	.byte	0
	.uleb128 0x11
	.string	"_E"
	.long	0x48
	.byte	0
	.uleb128 0x7
	.long	0x5573
	.uleb128 0x2d
	.long	.LASF573
	.uleb128 0x2d
	.long	.LASF574
	.uleb128 0x1a
	.long	.LASF575
	.byte	0x1
	.byte	0x13
	.byte	0xd4
	.byte	0xc
	.long	0x56aa
	.uleb128 0x9
	.long	.LASF432
	.byte	0x13
	.byte	0xd8
	.byte	0x2b
	.long	0x623
	.uleb128 0x9
	.long	.LASF68
	.byte	0x13
	.byte	0xd9
	.byte	0x2b
	.long	0xa034
	.uleb128 0x9
	.long	.LASF69
	.byte	0x13
	.byte	0xda
	.byte	0x2b
	.long	0xa048
	.uleb128 0xc
	.long	.LASF433
	.long	0xa034
	.byte	0
	.uleb128 0x3e
	.long	.LASF576
	.byte	0x1
	.byte	0x6
	.byte	0x3f
	.long	0x5848
	.uleb128 0x1f
	.long	.LASF58
	.byte	0x6
	.byte	0x58
	.byte	0x7
	.long	.LASF577
	.byte	0x1
	.long	0x56cb
	.long	0x56d1
	.uleb128 0x2
	.long	0xa241
	.byte	0
	.uleb128 0x1f
	.long	.LASF58
	.byte	0x6
	.byte	0x5c
	.byte	0x7
	.long	.LASF578
	.byte	0x1
	.long	0x56e6
	.long	0x56f1
	.uleb128 0x2
	.long	0xa241
	.uleb128 0x1
	.long	0xa24b
	.byte	0
	.uleb128 0x4d
	.long	.LASF34
	.byte	0x6
	.byte	0x64
	.byte	0x18
	.long	.LASF579
	.long	0xa250
	.long	0x5709
	.long	0x5714
	.uleb128 0x2
	.long	0xa241
	.uleb128 0x1
	.long	0xa24b
	.byte	0
	.uleb128 0x1f
	.long	.LASF64
	.byte	0x6
	.byte	0x68
	.byte	0x7
	.long	.LASF580
	.byte	0x1
	.long	0x5729
	.long	0x572f
	.uleb128 0x2
	.long	0xa241
	.byte	0
	.uleb128 0x24
	.long	.LASF68
	.byte	0x6
	.byte	0x46
	.byte	0x1a
	.long	0xa255
	.uleb128 0x20
	.long	.LASF66
	.byte	0x6
	.byte	0x6b
	.byte	0x7
	.long	.LASF581
	.long	0x572f
	.byte	0x1
	.long	0x5754
	.long	0x575f
	.uleb128 0x2
	.long	0xa25f
	.uleb128 0x1
	.long	0x575f
	.byte	0
	.uleb128 0x24
	.long	.LASF69
	.byte	0x6
	.byte	0x48
	.byte	0x1a
	.long	0xa269
	.uleb128 0x24
	.long	.LASF70
	.byte	0x6
	.byte	0x47
	.byte	0x1a
	.long	0xa26e
	.uleb128 0x20
	.long	.LASF66
	.byte	0x6
	.byte	0x6f
	.byte	0x7
	.long	.LASF582
	.long	0x576b
	.byte	0x1
	.long	0x5790
	.long	0x579b
	.uleb128 0x2
	.long	0xa25f
	.uleb128 0x1
	.long	0x579b
	.byte	0
	.uleb128 0x24
	.long	.LASF72
	.byte	0x6
	.byte	0x49
	.byte	0x1a
	.long	0xa273
	.uleb128 0x20
	.long	.LASF73
	.byte	0x6
	.byte	0x81
	.byte	0x7
	.long	.LASF583
	.long	0xa255
	.byte	0x1
	.long	0x57c0
	.long	0x57d0
	.uleb128 0x2
	.long	0xa241
	.uleb128 0x1
	.long	0x57d0
	.uleb128 0x1
	.long	0x8f79
	.byte	0
	.uleb128 0x24
	.long	.LASF75
	.byte	0x6
	.byte	0x43
	.byte	0x1f
	.long	0x2b5
	.uleb128 0x1f
	.long	.LASF76
	.byte	0x6
	.byte	0xa7
	.byte	0x7
	.long	.LASF584
	.byte	0x1
	.long	0x57f1
	.long	0x5801
	.uleb128 0x2
	.long	0xa241
	.uleb128 0x1
	.long	0xa255
	.uleb128 0x1
	.long	0x57d0
	.byte	0
	.uleb128 0x20
	.long	.LASF78
	.byte	0x6
	.byte	0xc2
	.byte	0x7
	.long	.LASF585
	.long	0x57d0
	.byte	0x1
	.long	0x581a
	.long	0x5820
	.uleb128 0x2
	.long	0xa25f
	.byte	0
	.uleb128 0x40
	.long	.LASF80
	.byte	0x6
	.byte	0xf2
	.byte	0x7
	.long	.LASF586
	.long	0x57d0
	.long	0x5838
	.long	0x583e
	.uleb128 0x2
	.long	0xa25f
	.byte	0
	.uleb128 0x11
	.string	"_Tp"
	.long	0x30
	.byte	0
	.uleb128 0x7
	.long	0x56aa
	.uleb128 0x3e
	.long	.LASF587
	.byte	0x1
	.byte	0x5
	.byte	0x85
	.long	0x58d1
	.uleb128 0x46
	.long	0x56aa
	.byte	0x1
	.uleb128 0x1f
	.long	.LASF83
	.byte	0x5
	.byte	0xa8
	.byte	0x7
	.long	.LASF588
	.byte	0x1
	.long	0x5874
	.long	0x587a
	.uleb128 0x2
	.long	0xa278
	.byte	0
	.uleb128 0x1f
	.long	.LASF83
	.byte	0x5
	.byte	0xac
	.byte	0x7
	.long	.LASF589
	.byte	0x1
	.long	0x588f
	.long	0x589a
	.uleb128 0x2
	.long	0xa278
	.uleb128 0x1
	.long	0xa282
	.byte	0
	.uleb128 0x4d
	.long	.LASF34
	.byte	0x5
	.byte	0xb1
	.byte	0x12
	.long	.LASF590
	.long	0xa287
	.long	0x58b2
	.long	0x58bd
	.uleb128 0x2
	.long	0xa278
	.uleb128 0x1
	.long	0xa282
	.byte	0
	.uleb128 0x64
	.long	.LASF87
	.long	.LASF591
	.long	0x58ca
	.uleb128 0x2
	.long	0xa278
	.byte	0
	.byte	0
	.uleb128 0x7
	.long	0x584d
	.uleb128 0x59
	.long	.LASF592
	.byte	0x1
	.byte	0x8
	.value	0x248
	.byte	0xc
	.long	0x59d4
	.uleb128 0x1c
	.long	.LASF68
	.byte	0x8
	.value	0x251
	.byte	0xd
	.long	0xa255
	.uleb128 0x17
	.long	.LASF73
	.byte	0x8
	.value	0x27d
	.byte	0x7
	.long	.LASF593
	.long	0x58e4
	.long	0x5911
	.uleb128 0x1
	.long	0xa28c
	.uleb128 0x1
	.long	0x5923
	.byte	0
	.uleb128 0x1c
	.long	.LASF90
	.byte	0x8
	.value	0x24b
	.byte	0xd
	.long	0x584d
	.uleb128 0x7
	.long	0x5911
	.uleb128 0x1c
	.long	.LASF75
	.byte	0x8
	.value	0x260
	.byte	0xd
	.long	0x2b5
	.uleb128 0x17
	.long	.LASF73
	.byte	0x8
	.value	0x28c
	.byte	0x7
	.long	.LASF594
	.long	0x58e4
	.long	0x5955
	.uleb128 0x1
	.long	0xa28c
	.uleb128 0x1
	.long	0x5923
	.uleb128 0x1
	.long	0x5955
	.byte	0
	.uleb128 0x1c
	.long	.LASF93
	.byte	0x8
	.value	0x25a
	.byte	0xd
	.long	0x8f79
	.uleb128 0x3f
	.long	.LASF76
	.byte	0x8
	.value	0x2b0
	.byte	0x7
	.long	.LASF595
	.long	0x5983
	.uleb128 0x1
	.long	0xa28c
	.uleb128 0x1
	.long	0x58e4
	.uleb128 0x1
	.long	0x5923
	.byte	0
	.uleb128 0x17
	.long	.LASF78
	.byte	0x8
	.value	0x2ed
	.byte	0x7
	.long	.LASF596
	.long	0x5923
	.long	0x599e
	.uleb128 0x1
	.long	0xa291
	.byte	0
	.uleb128 0x17
	.long	.LASF95
	.byte	0x8
	.value	0x2fd
	.byte	0x7
	.long	.LASF597
	.long	0x5911
	.long	0x59b9
	.uleb128 0x1
	.long	0xa291
	.byte	0
	.uleb128 0x1c
	.long	.LASF5
	.byte	0x8
	.value	0x24e
	.byte	0xd
	.long	0x30
	.uleb128 0x1c
	.long	.LASF97
	.byte	0x8
	.value	0x26f
	.byte	0x8
	.long	0x584d
	.byte	0
	.uleb128 0x1a
	.long	.LASF598
	.byte	0x18
	.byte	0x2
	.byte	0x5b
	.byte	0xc
	.long	0x5d75
	.uleb128 0x1a
	.long	.LASF99
	.byte	0x18
	.byte	0x2
	.byte	0x62
	.byte	0xe
	.long	0x5a87
	.uleb128 0xe
	.long	.LASF101
	.byte	0x2
	.byte	0x64
	.byte	0xa
	.long	0x5a8c
	.byte	0
	.uleb128 0xe
	.long	.LASF102
	.byte	0x2
	.byte	0x65
	.byte	0xa
	.long	0x5a8c
	.byte	0x8
	.uleb128 0xe
	.long	.LASF103
	.byte	0x2
	.byte	0x66
	.byte	0xa
	.long	0x5a8c
	.byte	0x10
	.uleb128 0x1e
	.long	.LASF99
	.byte	0x2
	.byte	0x69
	.byte	0x2
	.long	.LASF599
	.long	0x5a29
	.long	0x5a2f
	.uleb128 0x2
	.long	0xa2a0
	.byte	0
	.uleb128 0x1e
	.long	.LASF99
	.byte	0x2
	.byte	0x6f
	.byte	0x2
	.long	.LASF600
	.long	0x5a43
	.long	0x5a4e
	.uleb128 0x2
	.long	0xa2a0
	.uleb128 0x1
	.long	0xa2aa
	.byte	0
	.uleb128 0x1e
	.long	.LASF106
	.byte	0x2
	.byte	0x77
	.byte	0x2
	.long	.LASF601
	.long	0x5a62
	.long	0x5a6d
	.uleb128 0x2
	.long	0xa2a0
	.uleb128 0x1
	.long	0xa2af
	.byte	0
	.uleb128 0x5f
	.long	.LASF108
	.byte	0x80
	.long	.LASF602
	.long	0x5a7b
	.uleb128 0x2
	.long	0xa2a0
	.uleb128 0x1
	.long	0xa2b4
	.byte	0
	.byte	0
	.uleb128 0x7
	.long	0x59e1
	.uleb128 0x9
	.long	.LASF68
	.byte	0x2
	.byte	0x60
	.byte	0x9
	.long	0x8dcf
	.uleb128 0x1a
	.long	.LASF109
	.byte	0x18
	.byte	0x2
	.byte	0x8b
	.byte	0xe
	.long	0x5b5e
	.uleb128 0x31
	.long	0x584d
	.uleb128 0x31
	.long	0x59e1
	.uleb128 0x1e
	.long	.LASF109
	.byte	0x2
	.byte	0x8f
	.byte	0x2
	.long	.LASF603
	.long	0x5ac3
	.long	0x5ac9
	.uleb128 0x2
	.long	0xa2b9
	.byte	0
	.uleb128 0x1e
	.long	.LASF109
	.byte	0x2
	.byte	0x98
	.byte	0x2
	.long	.LASF604
	.long	0x5add
	.long	0x5ae8
	.uleb128 0x2
	.long	0xa2b9
	.uleb128 0x1
	.long	0xa2c3
	.byte	0
	.uleb128 0x1e
	.long	.LASF109
	.byte	0x2
	.byte	0xa0
	.byte	0x2
	.long	.LASF605
	.long	0x5afc
	.long	0x5b07
	.uleb128 0x2
	.long	0xa2b9
	.uleb128 0x1
	.long	0xa2c8
	.byte	0
	.uleb128 0x1e
	.long	.LASF109
	.byte	0x2
	.byte	0xa5
	.byte	0x2
	.long	.LASF606
	.long	0x5b1b
	.long	0x5b26
	.uleb128 0x2
	.long	0xa2b9
	.uleb128 0x1
	.long	0xa2cd
	.byte	0
	.uleb128 0x1e
	.long	.LASF109
	.byte	0x2
	.byte	0xaa
	.byte	0x2
	.long	.LASF607
	.long	0x5b3a
	.long	0x5b4a
	.uleb128 0x2
	.long	0xa2b9
	.uleb128 0x1
	.long	0xa2cd
	.uleb128 0x1
	.long	0xa2c8
	.byte	0
	.uleb128 0x65
	.long	.LASF466
	.long	.LASF608
	.long	0x5b57
	.uleb128 0x2
	.long	0xa2b9
	.byte	0
	.byte	0
	.uleb128 0x9
	.long	.LASF115
	.byte	0x2
	.byte	0x5e
	.byte	0x15
	.long	0x8e00
	.uleb128 0x7
	.long	0x5b5e
	.uleb128 0x32
	.long	.LASF116
	.value	0x133
	.byte	0x7
	.long	.LASF609
	.long	0xa2d2
	.long	0x5b87
	.long	0x5b8d
	.uleb128 0x2
	.long	0xa2d7
	.byte	0
	.uleb128 0x32
	.long	.LASF116
	.value	0x138
	.byte	0x7
	.long	.LASF610
	.long	0xa2c3
	.long	0x5ba5
	.long	0x5bab
	.uleb128 0x2
	.long	0xa2e1
	.byte	0
	.uleb128 0x1c
	.long	.LASF90
	.byte	0x2
	.value	0x12f
	.byte	0x16
	.long	0x584d
	.uleb128 0x7
	.long	0x5bab
	.uleb128 0x32
	.long	.LASF119
	.value	0x13d
	.byte	0x7
	.long	.LASF611
	.long	0x5bab
	.long	0x5bd5
	.long	0x5bdb
	.uleb128 0x2
	.long	0xa2e1
	.byte	0
	.uleb128 0x4e
	.long	.LASF121
	.value	0x141
	.long	.LASF612
	.long	0x5bee
	.long	0x5bf4
	.uleb128 0x2
	.long	0xa2d7
	.byte	0
	.uleb128 0x1b
	.long	.LASF121
	.value	0x147
	.long	.LASF613
	.long	0x5c07
	.long	0x5c12
	.uleb128 0x2
	.long	0xa2d7
	.uleb128 0x1
	.long	0xa2e6
	.byte	0
	.uleb128 0x1b
	.long	.LASF121
	.value	0x14d
	.long	.LASF614
	.long	0x5c25
	.long	0x5c30
	.uleb128 0x2
	.long	0xa2d7
	.uleb128 0x1
	.long	0x2b5
	.byte	0
	.uleb128 0x1b
	.long	.LASF121
	.value	0x153
	.long	.LASF615
	.long	0x5c43
	.long	0x5c53
	.uleb128 0x2
	.long	0xa2d7
	.uleb128 0x1
	.long	0x2b5
	.uleb128 0x1
	.long	0xa2e6
	.byte	0
	.uleb128 0x4e
	.long	.LASF121
	.value	0x158
	.long	.LASF616
	.long	0x5c66
	.long	0x5c71
	.uleb128 0x2
	.long	0xa2d7
	.uleb128 0x1
	.long	0xa2eb
	.byte	0
	.uleb128 0x1b
	.long	.LASF121
	.value	0x15d
	.long	.LASF617
	.long	0x5c84
	.long	0x5c8f
	.uleb128 0x2
	.long	0xa2d7
	.uleb128 0x1
	.long	0xa2cd
	.byte	0
	.uleb128 0x1b
	.long	.LASF121
	.value	0x161
	.long	.LASF618
	.long	0x5ca2
	.long	0x5cb2
	.uleb128 0x2
	.long	0xa2d7
	.uleb128 0x1
	.long	0xa2eb
	.uleb128 0x1
	.long	0xa2e6
	.byte	0
	.uleb128 0x1b
	.long	.LASF121
	.value	0x16f
	.long	.LASF619
	.long	0x5cc5
	.long	0x5cd5
	.uleb128 0x2
	.long	0xa2d7
	.uleb128 0x1
	.long	0xa2e6
	.uleb128 0x1
	.long	0xa2eb
	.byte	0
	.uleb128 0x1b
	.long	.LASF130
	.value	0x175
	.long	.LASF620
	.long	0x5ce8
	.long	0x5cee
	.uleb128 0x2
	.long	0xa2d7
	.byte	0
	.uleb128 0x4f
	.long	.LASF132
	.value	0x17e
	.byte	0x14
	.long	0x5a98
	.byte	0
	.uleb128 0x32
	.long	.LASF133
	.value	0x182
	.byte	0x7
	.long	.LASF621
	.long	0x5a8c
	.long	0x5d13
	.long	0x5d1e
	.uleb128 0x2
	.long	0xa2d7
	.uleb128 0x1
	.long	0x2b5
	.byte	0
	.uleb128 0x1b
	.long	.LASF135
	.value	0x18a
	.long	.LASF622
	.long	0x5d31
	.long	0x5d41
	.uleb128 0x2
	.long	0xa2d7
	.uleb128 0x1
	.long	0x5a8c
	.uleb128 0x1
	.long	0x2b5
	.byte	0
	.uleb128 0x10
	.long	.LASF137
	.byte	0x2
	.value	0x195
	.byte	0x7
	.long	.LASF623
	.byte	0x2
	.long	0x5d57
	.long	0x5d62
	.uleb128 0x2
	.long	0xa2d7
	.uleb128 0x1
	.long	0x2b5
	.byte	0
	.uleb128 0x11
	.string	"_Tp"
	.long	0x30
	.uleb128 0xc
	.long	.LASF139
	.long	0x584d
	.byte	0
	.uleb128 0x7
	.long	0x59d4
	.uleb128 0x1a
	.long	.LASF624
	.byte	0x1
	.byte	0x10
	.byte	0xa9
	.byte	0xc
	.long	0x5d9d
	.uleb128 0x9
	.long	.LASF141
	.byte	0x10
	.byte	0xaa
	.byte	0xd
	.long	0x584d
	.uleb128 0xc
	.long	.LASF142
	.long	0x584d
	.byte	0
	.uleb128 0x4b
	.long	.LASF625
	.byte	0x18
	.byte	0x2
	.value	0x1cc
	.long	0x6971
	.uleb128 0x18
	.byte	0x2
	.value	0x1cc
	.byte	0xb
	.long	0x5cfb
	.uleb128 0x18
	.byte	0x2
	.value	0x1cc
	.byte	0xb
	.long	0x5d1e
	.uleb128 0x18
	.byte	0x2
	.value	0x1cc
	.byte	0xb
	.long	0x5cee
	.uleb128 0x18
	.byte	0x2
	.value	0x1cc
	.byte	0xb
	.long	0x5b8d
	.uleb128 0x18
	.byte	0x2
	.value	0x1cc
	.byte	0xb
	.long	0x5b6f
	.uleb128 0x18
	.byte	0x2
	.value	0x1cc
	.byte	0xb
	.long	0x5bbd
	.uleb128 0x46
	.long	0x59d4
	.byte	0x2
	.uleb128 0x17
	.long	.LASF144
	.byte	0x2
	.value	0x1f6
	.byte	0x7
	.long	.LASF626
	.long	0x8f23
	.long	0x5e01
	.uleb128 0x1
	.long	0x630
	.byte	0
	.uleb128 0x17
	.long	.LASF144
	.byte	0x2
	.value	0x1ff
	.byte	0x7
	.long	.LASF627
	.long	0x8f23
	.long	0x5e1c
	.uleb128 0x1
	.long	0x3a3
	.byte	0
	.uleb128 0x66
	.long	.LASF330
	.long	.LASF628
	.long	0x8f23
	.uleb128 0x14
	.long	.LASF68
	.byte	0x2
	.value	0x1e6
	.byte	0x29
	.long	0x5a8c
	.uleb128 0x17
	.long	.LASF147
	.byte	0x2
	.value	0x20c
	.byte	0x7
	.long	.LASF629
	.long	0x5e29
	.long	0x5e60
	.uleb128 0x1
	.long	0x5e29
	.uleb128 0x1
	.long	0x5e29
	.uleb128 0x1
	.long	0x5e29
	.uleb128 0x1
	.long	0xa2f0
	.byte	0
	.uleb128 0x1c
	.long	.LASF115
	.byte	0x2
	.value	0x1e1
	.byte	0x2f
	.long	0x5b5e
	.uleb128 0x7
	.long	0x5e60
	.uleb128 0x50
	.long	.LASF149
	.value	0x227
	.long	.LASF630
	.long	0x5e85
	.long	0x5e8b
	.uleb128 0x2
	.long	0xa2f5
	.byte	0
	.uleb128 0x41
	.long	.LASF149
	.byte	0x2
	.value	0x232
	.long	.LASF631
	.long	0x5e9f
	.long	0x5eaa
	.uleb128 0x2
	.long	0xa2f5
	.uleb128 0x1
	.long	0xa2ff
	.byte	0
	.uleb128 0x14
	.long	.LASF90
	.byte	0x2
	.value	0x1f1
	.byte	0x1a
	.long	0x584d
	.uleb128 0x7
	.long	0x5eaa
	.uleb128 0x41
	.long	.LASF149
	.byte	0x2
	.value	0x240
	.long	.LASF632
	.long	0x5ed0
	.long	0x5ee0
	.uleb128 0x2
	.long	0xa2f5
	.uleb128 0x1
	.long	0x5ee0
	.uleb128 0x1
	.long	0xa2ff
	.byte	0
	.uleb128 0x14
	.long	.LASF75
	.byte	0x2
	.value	0x1ef
	.byte	0x1a
	.long	0x2b5
	.uleb128 0x10
	.long	.LASF149
	.byte	0x2
	.value	0x24d
	.byte	0x7
	.long	.LASF633
	.byte	0x1
	.long	0x5f03
	.long	0x5f18
	.uleb128 0x2
	.long	0xa2f5
	.uleb128 0x1
	.long	0x5ee0
	.uleb128 0x1
	.long	0xa304
	.uleb128 0x1
	.long	0xa2ff
	.byte	0
	.uleb128 0x14
	.long	.LASF5
	.byte	0x2
	.value	0x1e5
	.byte	0x17
	.long	0x30
	.uleb128 0x7
	.long	0x5f18
	.uleb128 0x10
	.long	.LASF149
	.byte	0x2
	.value	0x26d
	.byte	0x7
	.long	.LASF634
	.byte	0x1
	.long	0x5f40
	.long	0x5f4b
	.uleb128 0x2
	.long	0xa2f5
	.uleb128 0x1
	.long	0xa309
	.byte	0
	.uleb128 0x50
	.long	.LASF149
	.value	0x280
	.long	.LASF635
	.long	0x5f5e
	.long	0x5f69
	.uleb128 0x2
	.long	0xa2f5
	.uleb128 0x1
	.long	0xa30e
	.byte	0
	.uleb128 0x10
	.long	.LASF149
	.byte	0x2
	.value	0x284
	.byte	0x7
	.long	.LASF636
	.byte	0x1
	.long	0x5f7f
	.long	0x5f8f
	.uleb128 0x2
	.long	0xa2f5
	.uleb128 0x1
	.long	0xa309
	.uleb128 0x1
	.long	0xa313
	.byte	0
	.uleb128 0x1b
	.long	.LASF149
	.value	0x28f
	.long	.LASF637
	.long	0x5fa2
	.long	0x5fb7
	.uleb128 0x2
	.long	0xa2f5
	.uleb128 0x1
	.long	0xa30e
	.uleb128 0x1
	.long	0xa2ff
	.uleb128 0x1
	.long	0x630
	.byte	0
	.uleb128 0x1b
	.long	.LASF149
	.value	0x294
	.long	.LASF638
	.long	0x5fca
	.long	0x5fdf
	.uleb128 0x2
	.long	0xa2f5
	.uleb128 0x1
	.long	0xa30e
	.uleb128 0x1
	.long	0xa2ff
	.uleb128 0x1
	.long	0x3a3
	.byte	0
	.uleb128 0x10
	.long	.LASF149
	.byte	0x2
	.value	0x2a7
	.byte	0x7
	.long	.LASF639
	.byte	0x1
	.long	0x5ff5
	.long	0x6005
	.uleb128 0x2
	.long	0xa2f5
	.uleb128 0x1
	.long	0xa30e
	.uleb128 0x1
	.long	0xa313
	.byte	0
	.uleb128 0x10
	.long	.LASF149
	.byte	0x2
	.value	0x2ba
	.byte	0x7
	.long	.LASF640
	.byte	0x1
	.long	0x601b
	.long	0x602b
	.uleb128 0x2
	.long	0xa2f5
	.uleb128 0x1
	.long	0x6987
	.uleb128 0x1
	.long	0xa2ff
	.byte	0
	.uleb128 0x10
	.long	.LASF161
	.byte	0x2
	.value	0x316
	.byte	0x7
	.long	.LASF641
	.byte	0x1
	.long	0x6041
	.long	0x6047
	.uleb128 0x2
	.long	0xa2f5
	.byte	0
	.uleb128 0x20
	.long	.LASF34
	.byte	0x7
	.byte	0xd6
	.byte	0x5
	.long	.LASF642
	.long	0xa318
	.byte	0x1
	.long	0x6060
	.long	0x606b
	.uleb128 0x2
	.long	0xa2f5
	.uleb128 0x1
	.long	0xa309
	.byte	0
	.uleb128 0x6
	.long	.LASF34
	.byte	0x2
	.value	0x337
	.byte	0x7
	.long	.LASF643
	.long	0xa318
	.byte	0x1
	.long	0x6085
	.long	0x6090
	.uleb128 0x2
	.long	0xa2f5
	.uleb128 0x1
	.long	0xa30e
	.byte	0
	.uleb128 0x6
	.long	.LASF34
	.byte	0x2
	.value	0x34d
	.byte	0x7
	.long	.LASF644
	.long	0xa318
	.byte	0x1
	.long	0x60aa
	.long	0x60b5
	.uleb128 0x2
	.long	0xa2f5
	.uleb128 0x1
	.long	0x6987
	.byte	0
	.uleb128 0x10
	.long	.LASF166
	.byte	0x2
	.value	0x361
	.byte	0x7
	.long	.LASF645
	.byte	0x1
	.long	0x60cb
	.long	0x60db
	.uleb128 0x2
	.long	0xa2f5
	.uleb128 0x1
	.long	0x5ee0
	.uleb128 0x1
	.long	0xa304
	.byte	0
	.uleb128 0x10
	.long	.LASF166
	.byte	0x2
	.value	0x390
	.byte	0x7
	.long	.LASF646
	.byte	0x1
	.long	0x60f1
	.long	0x60fc
	.uleb128 0x2
	.long	0xa2f5
	.uleb128 0x1
	.long	0x6987
	.byte	0
	.uleb128 0x14
	.long	.LASF169
	.byte	0x2
	.value	0x1ea
	.byte	0x3d
	.long	0x8e20
	.uleb128 0x6
	.long	.LASF170
	.byte	0x2
	.value	0x3dc
	.byte	0x7
	.long	.LASF647
	.long	0x60fc
	.byte	0x1
	.long	0x6123
	.long	0x6129
	.uleb128 0x2
	.long	0xa2f5
	.byte	0
	.uleb128 0x14
	.long	.LASF172
	.byte	0x2
	.value	0x1ec
	.byte	0x7
	.long	0x8e25
	.uleb128 0x6
	.long	.LASF170
	.byte	0x2
	.value	0x3e6
	.byte	0x7
	.long	.LASF648
	.long	0x6129
	.byte	0x1
	.long	0x6150
	.long	0x6156
	.uleb128 0x2
	.long	0xa31d
	.byte	0
	.uleb128 0x34
	.string	"end"
	.value	0x3f0
	.long	.LASF649
	.long	0x60fc
	.long	0x616d
	.long	0x6173
	.uleb128 0x2
	.long	0xa2f5
	.byte	0
	.uleb128 0x34
	.string	"end"
	.value	0x3fa
	.long	.LASF650
	.long	0x6129
	.long	0x618a
	.long	0x6190
	.uleb128 0x2
	.long	0xa31d
	.byte	0
	.uleb128 0x14
	.long	.LASF176
	.byte	0x2
	.value	0x1ee
	.byte	0x30
	.long	0x6a79
	.uleb128 0x6
	.long	.LASF177
	.byte	0x2
	.value	0x404
	.byte	0x7
	.long	.LASF651
	.long	0x6190
	.byte	0x1
	.long	0x61b7
	.long	0x61bd
	.uleb128 0x2
	.long	0xa2f5
	.byte	0
	.uleb128 0x14
	.long	.LASF179
	.byte	0x2
	.value	0x1ed
	.byte	0x35
	.long	0x6a7e
	.uleb128 0x6
	.long	.LASF177
	.byte	0x2
	.value	0x40e
	.byte	0x7
	.long	.LASF652
	.long	0x61bd
	.byte	0x1
	.long	0x61e4
	.long	0x61ea
	.uleb128 0x2
	.long	0xa31d
	.byte	0
	.uleb128 0x6
	.long	.LASF181
	.byte	0x2
	.value	0x418
	.byte	0x7
	.long	.LASF653
	.long	0x6190
	.byte	0x1
	.long	0x6204
	.long	0x620a
	.uleb128 0x2
	.long	0xa2f5
	.byte	0
	.uleb128 0x6
	.long	.LASF181
	.byte	0x2
	.value	0x422
	.byte	0x7
	.long	.LASF654
	.long	0x61bd
	.byte	0x1
	.long	0x6224
	.long	0x622a
	.uleb128 0x2
	.long	0xa31d
	.byte	0
	.uleb128 0x6
	.long	.LASF184
	.byte	0x2
	.value	0x42d
	.byte	0x7
	.long	.LASF655
	.long	0x6129
	.byte	0x1
	.long	0x6244
	.long	0x624a
	.uleb128 0x2
	.long	0xa31d
	.byte	0
	.uleb128 0x6
	.long	.LASF186
	.byte	0x2
	.value	0x437
	.byte	0x7
	.long	.LASF656
	.long	0x6129
	.byte	0x1
	.long	0x6264
	.long	0x626a
	.uleb128 0x2
	.long	0xa31d
	.byte	0
	.uleb128 0x6
	.long	.LASF188
	.byte	0x2
	.value	0x441
	.byte	0x7
	.long	.LASF657
	.long	0x61bd
	.byte	0x1
	.long	0x6284
	.long	0x628a
	.uleb128 0x2
	.long	0xa31d
	.byte	0
	.uleb128 0x6
	.long	.LASF190
	.byte	0x2
	.value	0x44b
	.byte	0x7
	.long	.LASF658
	.long	0x61bd
	.byte	0x1
	.long	0x62a4
	.long	0x62aa
	.uleb128 0x2
	.long	0xa31d
	.byte	0
	.uleb128 0x6
	.long	.LASF192
	.byte	0x2
	.value	0x453
	.byte	0x7
	.long	.LASF659
	.long	0x5ee0
	.byte	0x1
	.long	0x62c4
	.long	0x62ca
	.uleb128 0x2
	.long	0xa31d
	.byte	0
	.uleb128 0x6
	.long	.LASF78
	.byte	0x2
	.value	0x45e
	.byte	0x7
	.long	.LASF660
	.long	0x5ee0
	.byte	0x1
	.long	0x62e4
	.long	0x62ea
	.uleb128 0x2
	.long	0xa31d
	.byte	0
	.uleb128 0x10
	.long	.LASF195
	.byte	0x2
	.value	0x46d
	.byte	0x7
	.long	.LASF661
	.byte	0x1
	.long	0x6300
	.long	0x630b
	.uleb128 0x2
	.long	0xa2f5
	.uleb128 0x1
	.long	0x5ee0
	.byte	0
	.uleb128 0x10
	.long	.LASF195
	.byte	0x2
	.value	0x482
	.byte	0x7
	.long	.LASF662
	.byte	0x1
	.long	0x6321
	.long	0x6331
	.uleb128 0x2
	.long	0xa2f5
	.uleb128 0x1
	.long	0x5ee0
	.uleb128 0x1
	.long	0xa304
	.byte	0
	.uleb128 0x10
	.long	.LASF198
	.byte	0x2
	.value	0x4a4
	.byte	0x7
	.long	.LASF663
	.byte	0x1
	.long	0x6347
	.long	0x634d
	.uleb128 0x2
	.long	0xa2f5
	.byte	0
	.uleb128 0x6
	.long	.LASF200
	.byte	0x2
	.value	0x4ae
	.byte	0x7
	.long	.LASF664
	.long	0x5ee0
	.byte	0x1
	.long	0x6367
	.long	0x636d
	.uleb128 0x2
	.long	0xa31d
	.byte	0
	.uleb128 0x6
	.long	.LASF202
	.byte	0x2
	.value	0x4bd
	.byte	0x7
	.long	.LASF665
	.long	0x8f23
	.byte	0x1
	.long	0x6387
	.long	0x638d
	.uleb128 0x2
	.long	0xa31d
	.byte	0
	.uleb128 0x1f
	.long	.LASF204
	.byte	0x7
	.byte	0x46
	.byte	0x5
	.long	.LASF666
	.byte	0x1
	.long	0x63a2
	.long	0x63ad
	.uleb128 0x2
	.long	0xa2f5
	.uleb128 0x1
	.long	0x5ee0
	.byte	0
	.uleb128 0x14
	.long	.LASF69
	.byte	0x2
	.value	0x1e8
	.byte	0x32
	.long	0x8ddb
	.uleb128 0x6
	.long	.LASF206
	.byte	0x2
	.value	0x4e3
	.byte	0x7
	.long	.LASF667
	.long	0x63ad
	.byte	0x1
	.long	0x63d4
	.long	0x63df
	.uleb128 0x2
	.long	0xa2f5
	.uleb128 0x1
	.long	0x5ee0
	.byte	0
	.uleb128 0x14
	.long	.LASF72
	.byte	0x2
	.value	0x1e9
	.byte	0x37
	.long	0x8de7
	.uleb128 0x6
	.long	.LASF206
	.byte	0x2
	.value	0x4f6
	.byte	0x7
	.long	.LASF668
	.long	0x63df
	.byte	0x1
	.long	0x6406
	.long	0x6411
	.uleb128 0x2
	.long	0xa31d
	.uleb128 0x1
	.long	0x5ee0
	.byte	0
	.uleb128 0x10
	.long	.LASF209
	.byte	0x2
	.value	0x500
	.byte	0x7
	.long	.LASF669
	.byte	0x2
	.long	0x6427
	.long	0x6432
	.uleb128 0x2
	.long	0xa31d
	.uleb128 0x1
	.long	0x5ee0
	.byte	0
	.uleb128 0x34
	.string	"at"
	.value	0x517
	.long	.LASF670
	.long	0x63ad
	.long	0x6448
	.long	0x6453
	.uleb128 0x2
	.long	0xa2f5
	.uleb128 0x1
	.long	0x5ee0
	.byte	0
	.uleb128 0x34
	.string	"at"
	.value	0x52a
	.long	.LASF671
	.long	0x63df
	.long	0x6469
	.long	0x6474
	.uleb128 0x2
	.long	0xa31d
	.uleb128 0x1
	.long	0x5ee0
	.byte	0
	.uleb128 0x6
	.long	.LASF213
	.byte	0x2
	.value	0x536
	.byte	0x7
	.long	.LASF672
	.long	0x63ad
	.byte	0x1
	.long	0x648e
	.long	0x6494
	.uleb128 0x2
	.long	0xa2f5
	.byte	0
	.uleb128 0x6
	.long	.LASF213
	.byte	0x2
	.value	0x542
	.byte	0x7
	.long	.LASF673
	.long	0x63df
	.byte	0x1
	.long	0x64ae
	.long	0x64b4
	.uleb128 0x2
	.long	0xa31d
	.byte	0
	.uleb128 0x6
	.long	.LASF216
	.byte	0x2
	.value	0x54e
	.byte	0x7
	.long	.LASF674
	.long	0x63ad
	.byte	0x1
	.long	0x64ce
	.long	0x64d4
	.uleb128 0x2
	.long	0xa2f5
	.byte	0
	.uleb128 0x6
	.long	.LASF216
	.byte	0x2
	.value	0x55a
	.byte	0x7
	.long	.LASF675
	.long	0x63df
	.byte	0x1
	.long	0x64ee
	.long	0x64f4
	.uleb128 0x2
	.long	0xa31d
	.byte	0
	.uleb128 0x6
	.long	.LASF219
	.byte	0x2
	.value	0x569
	.byte	0x7
	.long	.LASF676
	.long	0xa255
	.byte	0x1
	.long	0x650e
	.long	0x6514
	.uleb128 0x2
	.long	0xa2f5
	.byte	0
	.uleb128 0x6
	.long	.LASF219
	.byte	0x2
	.value	0x56e
	.byte	0x7
	.long	.LASF677
	.long	0xa26e
	.byte	0x1
	.long	0x652e
	.long	0x6534
	.uleb128 0x2
	.long	0xa31d
	.byte	0
	.uleb128 0x10
	.long	.LASF222
	.byte	0x2
	.value	0x57e
	.byte	0x7
	.long	.LASF678
	.byte	0x1
	.long	0x654a
	.long	0x6555
	.uleb128 0x2
	.long	0xa2f5
	.uleb128 0x1
	.long	0xa304
	.byte	0
	.uleb128 0x10
	.long	.LASF222
	.byte	0x2
	.value	0x58f
	.byte	0x7
	.long	.LASF679
	.byte	0x1
	.long	0x656b
	.long	0x6576
	.uleb128 0x2
	.long	0xa2f5
	.uleb128 0x1
	.long	0xa327
	.byte	0
	.uleb128 0x10
	.long	.LASF225
	.byte	0x2
	.value	0x5a7
	.byte	0x7
	.long	.LASF680
	.byte	0x1
	.long	0x658c
	.long	0x6592
	.uleb128 0x2
	.long	0xa2f5
	.byte	0
	.uleb128 0x20
	.long	.LASF227
	.byte	0x7
	.byte	0x89
	.byte	0x5
	.long	.LASF681
	.long	0x60fc
	.byte	0x1
	.long	0x65ab
	.long	0x65bb
	.uleb128 0x2
	.long	0xa2f5
	.uleb128 0x1
	.long	0x6129
	.uleb128 0x1
	.long	0xa304
	.byte	0
	.uleb128 0x6
	.long	.LASF227
	.byte	0x2
	.value	0x5ee
	.byte	0x7
	.long	.LASF682
	.long	0x60fc
	.byte	0x1
	.long	0x65d5
	.long	0x65e5
	.uleb128 0x2
	.long	0xa2f5
	.uleb128 0x1
	.long	0x6129
	.uleb128 0x1
	.long	0xa327
	.byte	0
	.uleb128 0x6
	.long	.LASF227
	.byte	0x2
	.value	0x600
	.byte	0x7
	.long	.LASF683
	.long	0x60fc
	.byte	0x1
	.long	0x65ff
	.long	0x660f
	.uleb128 0x2
	.long	0xa2f5
	.uleb128 0x1
	.long	0x6129
	.uleb128 0x1
	.long	0x6987
	.byte	0
	.uleb128 0x6
	.long	.LASF227
	.byte	0x2
	.value	0x61a
	.byte	0x7
	.long	.LASF684
	.long	0x60fc
	.byte	0x1
	.long	0x6629
	.long	0x663e
	.uleb128 0x2
	.long	0xa2f5
	.uleb128 0x1
	.long	0x6129
	.uleb128 0x1
	.long	0x5ee0
	.uleb128 0x1
	.long	0xa304
	.byte	0
	.uleb128 0x6
	.long	.LASF232
	.byte	0x2
	.value	0x6f6
	.byte	0x7
	.long	.LASF685
	.long	0x60fc
	.byte	0x1
	.long	0x6658
	.long	0x6663
	.uleb128 0x2
	.long	0xa2f5
	.uleb128 0x1
	.long	0x6129
	.byte	0
	.uleb128 0x6
	.long	.LASF232
	.byte	0x2
	.value	0x712
	.byte	0x7
	.long	.LASF686
	.long	0x60fc
	.byte	0x1
	.long	0x667d
	.long	0x668d
	.uleb128 0x2
	.long	0xa2f5
	.uleb128 0x1
	.long	0x6129
	.uleb128 0x1
	.long	0x6129
	.byte	0
	.uleb128 0x10
	.long	.LASF39
	.byte	0x2
	.value	0x72a
	.byte	0x7
	.long	.LASF687
	.byte	0x1
	.long	0x66a3
	.long	0x66ae
	.uleb128 0x2
	.long	0xa2f5
	.uleb128 0x1
	.long	0xa318
	.byte	0
	.uleb128 0x10
	.long	.LASF236
	.byte	0x2
	.value	0x73d
	.byte	0x7
	.long	.LASF688
	.byte	0x1
	.long	0x66c4
	.long	0x66ca
	.uleb128 0x2
	.long	0xa2f5
	.byte	0
	.uleb128 0x10
	.long	.LASF238
	.byte	0x2
	.value	0x7c3
	.byte	0x7
	.long	.LASF689
	.byte	0x2
	.long	0x66e0
	.long	0x66f0
	.uleb128 0x2
	.long	0xa2f5
	.uleb128 0x1
	.long	0x5ee0
	.uleb128 0x1
	.long	0xa304
	.byte	0
	.uleb128 0x10
	.long	.LASF240
	.byte	0x2
	.value	0x7ce
	.byte	0x7
	.long	.LASF690
	.byte	0x2
	.long	0x6706
	.long	0x6711
	.uleb128 0x2
	.long	0xa2f5
	.uleb128 0x1
	.long	0x5ee0
	.byte	0
	.uleb128 0x10
	.long	.LASF242
	.byte	0x7
	.value	0x112
	.byte	0x5
	.long	.LASF691
	.byte	0x2
	.long	0x6727
	.long	0x6737
	.uleb128 0x2
	.long	0xa2f5
	.uleb128 0x1
	.long	0x2b5
	.uleb128 0x1
	.long	0xa304
	.byte	0
	.uleb128 0x10
	.long	.LASF244
	.byte	0x7
	.value	0x296
	.byte	0x5
	.long	.LASF692
	.byte	0x2
	.long	0x674d
	.long	0x6762
	.uleb128 0x2
	.long	0xa2f5
	.uleb128 0x1
	.long	0x60fc
	.uleb128 0x1
	.long	0x5ee0
	.uleb128 0x1
	.long	0xa304
	.byte	0
	.uleb128 0x10
	.long	.LASF246
	.byte	0x7
	.value	0x300
	.byte	0x5
	.long	.LASF693
	.byte	0x2
	.long	0x6778
	.long	0x6788
	.uleb128 0x2
	.long	0xa2f5
	.uleb128 0x1
	.long	0x5ee0
	.uleb128 0x1
	.long	0xa304
	.byte	0
	.uleb128 0x10
	.long	.LASF248
	.byte	0x7
	.value	0x339
	.byte	0x5
	.long	.LASF694
	.byte	0x2
	.long	0x679e
	.long	0x67a9
	.uleb128 0x2
	.long	0xa2f5
	.uleb128 0x1
	.long	0x5ee0
	.byte	0
	.uleb128 0x6
	.long	.LASF250
	.byte	0x7
	.value	0x396
	.byte	0x5
	.long	.LASF695
	.long	0x8f23
	.byte	0x2
	.long	0x67c3
	.long	0x67c9
	.uleb128 0x2
	.long	0xa2f5
	.byte	0
	.uleb128 0x6
	.long	.LASF252
	.byte	0x7
	.value	0x16f
	.byte	0x5
	.long	.LASF696
	.long	0x60fc
	.byte	0x2
	.long	0x67e3
	.long	0x67f3
	.uleb128 0x2
	.long	0xa2f5
	.uleb128 0x1
	.long	0x6129
	.uleb128 0x1
	.long	0xa327
	.byte	0
	.uleb128 0x6
	.long	.LASF254
	.byte	0x2
	.value	0x889
	.byte	0x7
	.long	.LASF697
	.long	0x60fc
	.byte	0x2
	.long	0x680d
	.long	0x681d
	.uleb128 0x2
	.long	0xa2f5
	.uleb128 0x1
	.long	0x6129
	.uleb128 0x1
	.long	0xa327
	.byte	0
	.uleb128 0x6
	.long	.LASF256
	.byte	0x2
	.value	0x890
	.byte	0x7
	.long	.LASF698
	.long	0x5ee0
	.byte	0x2
	.long	0x6837
	.long	0x6847
	.uleb128 0x2
	.long	0xa31d
	.uleb128 0x1
	.long	0x5ee0
	.uleb128 0x1
	.long	0x7751
	.byte	0
	.uleb128 0x51
	.long	.LASF258
	.value	0x89b
	.long	.LASF699
	.long	0x5ee0
	.long	0x6865
	.uleb128 0x1
	.long	0x5ee0
	.uleb128 0x1
	.long	0xa2ff
	.byte	0
	.uleb128 0x51
	.long	.LASF260
	.value	0x8a4
	.long	.LASF700
	.long	0x5ee0
	.long	0x687e
	.uleb128 0x1
	.long	0xa32c
	.byte	0
	.uleb128 0x10
	.long	.LASF262
	.byte	0x2
	.value	0x8b5
	.byte	0x7
	.long	.LASF701
	.byte	0x2
	.long	0x6894
	.long	0x689f
	.uleb128 0x2
	.long	0xa2f5
	.uleb128 0x1
	.long	0x5e29
	.byte	0
	.uleb128 0x20
	.long	.LASF264
	.byte	0x7
	.byte	0xb9
	.byte	0x5
	.long	.LASF702
	.long	0x60fc
	.byte	0x2
	.long	0x68b8
	.long	0x68c3
	.uleb128 0x2
	.long	0xa2f5
	.uleb128 0x1
	.long	0x60fc
	.byte	0
	.uleb128 0x20
	.long	.LASF264
	.byte	0x7
	.byte	0xc7
	.byte	0x5
	.long	.LASF703
	.long	0x60fc
	.byte	0x2
	.long	0x68dc
	.long	0x68ec
	.uleb128 0x2
	.long	0xa2f5
	.uleb128 0x1
	.long	0x60fc
	.uleb128 0x1
	.long	0x60fc
	.byte	0
	.uleb128 0x1b
	.long	.LASF267
	.value	0x8cf
	.long	.LASF704
	.long	0x68ff
	.long	0x690f
	.uleb128 0x2
	.long	0xa2f5
	.uleb128 0x1
	.long	0xa30e
	.uleb128 0x1
	.long	0x630
	.byte	0
	.uleb128 0x1b
	.long	.LASF267
	.value	0x8db
	.long	.LASF705
	.long	0x6922
	.long	0x6932
	.uleb128 0x2
	.long	0xa2f5
	.uleb128 0x1
	.long	0xa30e
	.uleb128 0x1
	.long	0x3a3
	.byte	0
	.uleb128 0x32
	.long	.LASF706
	.value	0x8ee
	.byte	0x2
	.long	.LASF707
	.long	0xa255
	.long	0x6953
	.long	0x695e
	.uleb128 0x11
	.string	"_Up"
	.long	0x30
	.uleb128 0x2
	.long	0xa31d
	.uleb128 0x1
	.long	0xa255
	.byte	0
	.uleb128 0x11
	.string	"_Tp"
	.long	0x30
	.uleb128 0x60
	.long	.LASF139
	.long	0x584d
	.byte	0
	.uleb128 0x7
	.long	0x5d9d
	.uleb128 0x9
	.long	.LASF272
	.byte	0x10
	.byte	0xad
	.byte	0xb
	.long	0x5d87
	.uleb128 0x7
	.long	0x6976
	.uleb128 0x3e
	.long	.LASF708
	.byte	0x10
	.byte	0x20
	.byte	0x2f
	.long	0x6a74
	.uleb128 0x24
	.long	.LASF169
	.byte	0x20
	.byte	0x36
	.byte	0x1a
	.long	0xa26e
	.uleb128 0xe
	.long	.LASF567
	.byte	0x20
	.byte	0x3a
	.byte	0x12
	.long	0x6993
	.byte	0
	.uleb128 0x24
	.long	.LASF75
	.byte	0x20
	.byte	0x35
	.byte	0x18
	.long	0x2b5
	.uleb128 0xe
	.long	.LASF424
	.byte	0x20
	.byte	0x3b
	.byte	0x13
	.long	0x69ac
	.byte	0x8
	.uleb128 0x1e
	.long	.LASF568
	.byte	0x20
	.byte	0x3e
	.byte	0x11
	.long	.LASF709
	.long	0x69d9
	.long	0x69e9
	.uleb128 0x2
	.long	0xa331
	.uleb128 0x1
	.long	0x69e9
	.uleb128 0x1
	.long	0x69ac
	.byte	0
	.uleb128 0x24
	.long	.LASF172
	.byte	0x20
	.byte	0x37
	.byte	0x1a
	.long	0xa26e
	.uleb128 0x1f
	.long	.LASF568
	.byte	0x20
	.byte	0x42
	.byte	0x11
	.long	.LASF710
	.byte	0x1
	.long	0x6a0a
	.long	0x6a10
	.uleb128 0x2
	.long	0xa331
	.byte	0
	.uleb128 0x20
	.long	.LASF192
	.byte	0x20
	.byte	0x47
	.byte	0x7
	.long	.LASF711
	.long	0x69ac
	.byte	0x1
	.long	0x6a29
	.long	0x6a2f
	.uleb128 0x2
	.long	0xa336
	.byte	0
	.uleb128 0x20
	.long	.LASF170
	.byte	0x20
	.byte	0x4b
	.byte	0x7
	.long	.LASF712
	.long	0x69e9
	.byte	0x1
	.long	0x6a48
	.long	0x6a4e
	.uleb128 0x2
	.long	0xa336
	.byte	0
	.uleb128 0x88
	.string	"end"
	.byte	0x4f
	.long	.LASF714
	.long	0x69e9
	.long	0x6a65
	.long	0x6a6b
	.uleb128 0x2
	.long	0xa336
	.byte	0
	.uleb128 0x11
	.string	"_E"
	.long	0x30
	.byte	0
	.uleb128 0x7
	.long	0x6987
	.uleb128 0x2d
	.long	.LASF715
	.uleb128 0x2d
	.long	.LASF716
	.uleb128 0x75
	.long	.LASF56
	.byte	0x10
	.byte	0xaf
	.byte	0xd
	.uleb128 0x1a
	.long	.LASF717
	.byte	0x1
	.byte	0x10
	.byte	0x8d
	.byte	0xc
	.long	0x6aae
	.uleb128 0x9
	.long	.LASF141
	.byte	0x10
	.byte	0x8e
	.byte	0xd
	.long	0xa034
	.uleb128 0x11
	.string	"_Tp"
	.long	0xa034
	.byte	0
	.uleb128 0x1a
	.long	.LASF718
	.byte	0x1
	.byte	0x13
	.byte	0xdf
	.byte	0xc
	.long	0x6ae9
	.uleb128 0x9
	.long	.LASF432
	.byte	0x13
	.byte	0xe3
	.byte	0x2b
	.long	0x623
	.uleb128 0x9
	.long	.LASF68
	.byte	0x13
	.byte	0xe4
	.byte	0x2b
	.long	0x9f6c
	.uleb128 0x9
	.long	.LASF69
	.byte	0x13
	.byte	0xe5
	.byte	0x2b
	.long	0x9f76
	.uleb128 0xc
	.long	.LASF433
	.long	0x9f6c
	.byte	0
	.uleb128 0x1a
	.long	.LASF719
	.byte	0x1
	.byte	0x13
	.byte	0xd4
	.byte	0xc
	.long	0x6b24
	.uleb128 0x9
	.long	.LASF432
	.byte	0x13
	.byte	0xd8
	.byte	0x2b
	.long	0x623
	.uleb128 0x9
	.long	.LASF68
	.byte	0x13
	.byte	0xd9
	.byte	0x2b
	.long	0x9c5a
	.uleb128 0x9
	.long	.LASF69
	.byte	0x13
	.byte	0xda
	.byte	0x2b
	.long	0x9c6e
	.uleb128 0xc
	.long	.LASF433
	.long	0x9c5a
	.byte	0
	.uleb128 0x1a
	.long	.LASF720
	.byte	0x10
	.byte	0xc
	.byte	0x6d
	.byte	0xc
	.long	0x6bf1
	.uleb128 0x74
	.long	.LASF721
	.byte	0xc
	.byte	0x71
	.byte	0x7
	.long	.LASF722
	.long	0x6b45
	.long	0x6b50
	.uleb128 0x2
	.long	0xa381
	.uleb128 0x1
	.long	0xa38b
	.byte	0
	.uleb128 0x1e
	.long	.LASF723
	.byte	0xc
	.byte	0x76
	.byte	0x7
	.long	.LASF724
	.long	0x6b64
	.long	0x6b6a
	.uleb128 0x2
	.long	0xa381
	.byte	0
	.uleb128 0x1e
	.long	.LASF725
	.byte	0xc
	.byte	0x83
	.byte	0xc
	.long	.LASF726
	.long	0x6b7e
	.long	0x6b84
	.uleb128 0x2
	.long	0xa381
	.byte	0
	.uleb128 0xe
	.long	.LASF727
	.byte	0xc
	.byte	0x85
	.byte	0x1e
	.long	0xa14c
	.byte	0
	.uleb128 0xe
	.long	.LASF728
	.byte	0xc
	.byte	0x86
	.byte	0x19
	.long	0xa390
	.byte	0x8
	.uleb128 0x1f
	.long	.LASF721
	.byte	0xc
	.byte	0x89
	.byte	0x7
	.long	.LASF729
	.byte	0x3
	.long	0x6bb3
	.long	0x6bbe
	.uleb128 0x2
	.long	0xa381
	.uleb128 0x1
	.long	0xa395
	.byte	0
	.uleb128 0x89
	.long	.LASF730
	.byte	0x8e
	.long	.LASF731
	.long	0x6be1
	.uleb128 0xc
	.long	.LASF732
	.long	0xa147
	.uleb128 0x1
	.long	0xa147
	.uleb128 0x1
	.long	0xa147
	.byte	0
	.uleb128 0xc
	.long	.LASF733
	.long	0xa147
	.uleb128 0x8a
	.long	.LASF139
	.byte	0
	.uleb128 0x7
	.long	0x6b24
	.uleb128 0x1a
	.long	.LASF734
	.byte	0x10
	.byte	0xc
	.byte	0x6d
	.byte	0xc
	.long	0x6cc3
	.uleb128 0x74
	.long	.LASF721
	.byte	0xc
	.byte	0x71
	.byte	0x7
	.long	.LASF735
	.long	0x6c17
	.long	0x6c22
	.uleb128 0x2
	.long	0xa39a
	.uleb128 0x1
	.long	0xa3a4
	.byte	0
	.uleb128 0x1e
	.long	.LASF723
	.byte	0xc
	.byte	0x76
	.byte	0x7
	.long	.LASF736
	.long	0x6c36
	.long	0x6c3c
	.uleb128 0x2
	.long	0xa39a
	.byte	0
	.uleb128 0x1e
	.long	.LASF725
	.byte	0xc
	.byte	0x83
	.byte	0xc
	.long	.LASF737
	.long	0x6c50
	.long	0x6c56
	.uleb128 0x2
	.long	0xa39a
	.byte	0
	.uleb128 0xe
	.long	.LASF727
	.byte	0xc
	.byte	0x85
	.byte	0x1e
	.long	0xa25a
	.byte	0
	.uleb128 0xe
	.long	.LASF728
	.byte	0xc
	.byte	0x86
	.byte	0x19
	.long	0xa3a9
	.byte	0x8
	.uleb128 0x1f
	.long	.LASF721
	.byte	0xc
	.byte	0x89
	.byte	0x7
	.long	.LASF738
	.byte	0x3
	.long	0x6c85
	.long	0x6c90
	.uleb128 0x2
	.long	0xa39a
	.uleb128 0x1
	.long	0xa3ae
	.byte	0
	.uleb128 0x89
	.long	.LASF739
	.byte	0x8e
	.long	.LASF740
	.long	0x6cb3
	.uleb128 0xc
	.long	.LASF732
	.long	0xa255
	.uleb128 0x1
	.long	0xa255
	.uleb128 0x1
	.long	0xa255
	.byte	0
	.uleb128 0xc
	.long	.LASF733
	.long	0xa255
	.uleb128 0x8a
	.long	.LASF139
	.byte	0
	.uleb128 0x7
	.long	0x6bf6
	.uleb128 0xac
	.long	.LASF1410
	.byte	0x10
	.value	0x6e5
	.byte	0x26
	.long	0x8f2a
	.byte	0x1
	.byte	0x3
	.uleb128 0x8b
	.long	.LASF741
	.byte	0x45
	.long	.LASF743
	.uleb128 0x8b
	.long	.LASF742
	.byte	0x42
	.long	.LASF744
	.uleb128 0x80
	.long	.LASF745
	.byte	0x22
	.byte	0x4f
	.byte	0x3
	.long	.LASF746
	.long	0x6d05
	.uleb128 0x1
	.long	0x7751
	.byte	0
	.uleb128 0x49
	.long	.LASF747
	.byte	0xb
	.byte	0x7b
	.byte	0x5
	.long	.LASF748
	.long	0x6d38
	.uleb128 0x11
	.string	"_Tp"
	.long	0x30
	.uleb128 0x47
	.long	.LASF417
	.long	0x6d2d
	.uleb128 0x48
	.long	0xa273
	.byte	0
	.uleb128 0x1
	.long	0xa255
	.uleb128 0x1
	.long	0xa273
	.byte	0
	.uleb128 0x49
	.long	.LASF749
	.byte	0xb
	.byte	0x7b
	.byte	0x5
	.long	.LASF750
	.long	0x6d6b
	.uleb128 0x11
	.string	"_Tp"
	.long	0x48
	.uleb128 0x47
	.long	.LASF417
	.long	0x6d60
	.uleb128 0x48
	.long	0xa160
	.byte	0
	.uleb128 0x1
	.long	0xa147
	.uleb128 0x1
	.long	0xa160
	.byte	0
	.uleb128 0x3f
	.long	.LASF751
	.byte	0xa
	.value	0x3a7
	.byte	0x5
	.long	.LASF752
	.long	0x6d9e
	.uleb128 0x11
	.string	"_Up"
	.long	0x8f39
	.uleb128 0x11
	.string	"_Tp"
	.long	0x8f39
	.uleb128 0x1
	.long	0x9c5a
	.uleb128 0x1
	.long	0x9c5a
	.uleb128 0x1
	.long	0x9c78
	.byte	0
	.uleb128 0x17
	.long	.LASF753
	.byte	0xc
	.value	0x1dd
	.byte	0x5
	.long	.LASF754
	.long	0xa255
	.long	0x6dde
	.uleb128 0xc
	.long	.LASF733
	.long	0xa255
	.uleb128 0xc
	.long	.LASF755
	.long	0x74c6
	.uleb128 0x11
	.string	"_Tp"
	.long	0x30
	.uleb128 0x1
	.long	0xa255
	.uleb128 0x1
	.long	0x74c6
	.uleb128 0x1
	.long	0xa273
	.byte	0
	.uleb128 0x17
	.long	.LASF756
	.byte	0xc
	.value	0x1dd
	.byte	0x5
	.long	.LASF757
	.long	0xa147
	.long	0x6e1e
	.uleb128 0xc
	.long	.LASF733
	.long	0xa147
	.uleb128 0xc
	.long	.LASF755
	.long	0x74c6
	.uleb128 0x11
	.string	"_Tp"
	.long	0x48
	.uleb128 0x1
	.long	0xa147
	.uleb128 0x1
	.long	0x74c6
	.uleb128 0x1
	.long	0xa160
	.byte	0
	.uleb128 0x3f
	.long	.LASF758
	.byte	0xa
	.value	0x3d0
	.byte	0x5
	.long	.LASF759
	.long	0x6e51
	.uleb128 0xc
	.long	.LASF760
	.long	0x9c5a
	.uleb128 0x11
	.string	"_Tp"
	.long	0x8f39
	.uleb128 0x1
	.long	0x9c5a
	.uleb128 0x1
	.long	0x9c5a
	.uleb128 0x1
	.long	0x9c78
	.byte	0
	.uleb128 0x17
	.long	.LASF761
	.byte	0x3
	.value	0xbce
	.byte	0x5
	.long	.LASF762
	.long	0x9c5a
	.long	0x6e75
	.uleb128 0xc
	.long	.LASF433
	.long	0x9c5a
	.uleb128 0x1
	.long	0x9c5a
	.byte	0
	.uleb128 0x3f
	.long	.LASF763
	.byte	0xa
	.value	0x3bc
	.byte	0x5
	.long	.LASF764
	.long	0x6eb1
	.uleb128 0xc
	.long	.LASF765
	.long	0x9c5a
	.uleb128 0xc
	.long	.LASF766
	.long	0x11a2
	.uleb128 0x11
	.string	"_Tp"
	.long	0x8f39
	.uleb128 0x1
	.long	0x8156
	.uleb128 0x1
	.long	0x8156
	.uleb128 0x1
	.long	0x9c78
	.byte	0
	.uleb128 0x17
	.long	.LASF767
	.byte	0xc
	.value	0x226
	.byte	0x5
	.long	.LASF768
	.long	0xa255
	.long	0x6ef1
	.uleb128 0xc
	.long	.LASF733
	.long	0xa255
	.uleb128 0xc
	.long	.LASF755
	.long	0x74c6
	.uleb128 0x11
	.string	"_Tp"
	.long	0x30
	.uleb128 0x1
	.long	0xa255
	.uleb128 0x1
	.long	0x74c6
	.uleb128 0x1
	.long	0xa273
	.byte	0
	.uleb128 0x17
	.long	.LASF769
	.byte	0xc
	.value	0x226
	.byte	0x5
	.long	.LASF770
	.long	0xa147
	.long	0x6f31
	.uleb128 0xc
	.long	.LASF733
	.long	0xa147
	.uleb128 0xc
	.long	.LASF755
	.long	0x74c6
	.uleb128 0x11
	.string	"_Tp"
	.long	0x48
	.uleb128 0x1
	.long	0xa147
	.uleb128 0x1
	.long	0x74c6
	.uleb128 0x1
	.long	0xa160
	.byte	0
	.uleb128 0x17
	.long	.LASF771
	.byte	0xa
	.value	0x100
	.byte	0x5
	.long	.LASF772
	.long	0xacd2
	.long	0x6f5a
	.uleb128 0x11
	.string	"_Tp"
	.long	0x74c6
	.uleb128 0x1
	.long	0xacd2
	.uleb128 0x1
	.long	0xacd2
	.byte	0
	.uleb128 0x17
	.long	.LASF773
	.byte	0xa
	.value	0x475
	.byte	0x5
	.long	.LASF774
	.long	0x9c5a
	.long	0x6f9f
	.uleb128 0xc
	.long	.LASF775
	.long	0x9c5a
	.uleb128 0xc
	.long	.LASF755
	.long	0x74c6
	.uleb128 0x11
	.string	"_Tp"
	.long	0x8f39
	.uleb128 0x1
	.long	0x9c5a
	.uleb128 0x1
	.long	0x74c6
	.uleb128 0x1
	.long	0x9c78
	.uleb128 0x1
	.long	0x690
	.byte	0
	.uleb128 0x17
	.long	.LASF776
	.byte	0xc
	.value	0x226
	.byte	0x5
	.long	.LASF777
	.long	0x9c5a
	.long	0x6fdf
	.uleb128 0xc
	.long	.LASF733
	.long	0x9c5a
	.uleb128 0xc
	.long	.LASF755
	.long	0x74c6
	.uleb128 0x11
	.string	"_Tp"
	.long	0x8f39
	.uleb128 0x1
	.long	0x9c5a
	.uleb128 0x1
	.long	0x74c6
	.uleb128 0x1
	.long	0x9c78
	.byte	0
	.uleb128 0x3f
	.long	.LASF778
	.byte	0xa
	.value	0x3d0
	.byte	0x5
	.long	.LASF779
	.long	0x7012
	.uleb128 0xc
	.long	.LASF760
	.long	0x8156
	.uleb128 0x11
	.string	"_Tp"
	.long	0x8f39
	.uleb128 0x1
	.long	0x8156
	.uleb128 0x1
	.long	0x8156
	.uleb128 0x1
	.long	0x9c78
	.byte	0
	.uleb128 0x49
	.long	.LASF780
	.byte	0xb
	.byte	0xdb
	.byte	0x5
	.long	.LASF781
	.long	0x7036
	.uleb128 0xc
	.long	.LASF733
	.long	0xa255
	.uleb128 0x1
	.long	0xa255
	.uleb128 0x1
	.long	0xa255
	.byte	0
	.uleb128 0x17
	.long	.LASF782
	.byte	0xc
	.value	0x303
	.byte	0x5
	.long	.LASF783
	.long	0xa255
	.long	0x7084
	.uleb128 0xc
	.long	.LASF733
	.long	0xa255
	.uleb128 0xc
	.long	.LASF755
	.long	0x74c6
	.uleb128 0x11
	.string	"_Tp"
	.long	0x30
	.uleb128 0xc
	.long	.LASF784
	.long	0x30
	.uleb128 0x1
	.long	0xa255
	.uleb128 0x1
	.long	0x74c6
	.uleb128 0x1
	.long	0xa273
	.uleb128 0x1
	.long	0xa287
	.byte	0
	.uleb128 0x49
	.long	.LASF785
	.byte	0xb
	.byte	0xdb
	.byte	0x5
	.long	.LASF786
	.long	0x70a8
	.uleb128 0xc
	.long	.LASF733
	.long	0xa147
	.uleb128 0x1
	.long	0xa147
	.uleb128 0x1
	.long	0xa147
	.byte	0
	.uleb128 0x17
	.long	.LASF787
	.byte	0xc
	.value	0x303
	.byte	0x5
	.long	.LASF788
	.long	0xa147
	.long	0x70f6
	.uleb128 0xc
	.long	.LASF733
	.long	0xa147
	.uleb128 0xc
	.long	.LASF755
	.long	0x74c6
	.uleb128 0x11
	.string	"_Tp"
	.long	0x48
	.uleb128 0xc
	.long	.LASF784
	.long	0x48
	.uleb128 0x1
	.long	0xa147
	.uleb128 0x1
	.long	0x74c6
	.uleb128 0x1
	.long	0xa160
	.uleb128 0x1
	.long	0xa174
	.byte	0
	.uleb128 0x8c
	.long	.LASF789
	.byte	0x23
	.byte	0xcf
	.byte	0x5
	.long	0xa034
	.long	0x7116
	.uleb128 0x11
	.string	"_Tp"
	.long	0x9eb0
	.uleb128 0x1
	.long	0xa034
	.byte	0
	.uleb128 0x9
	.long	.LASF790
	.byte	0x10
	.byte	0x92
	.byte	0xb
	.long	0x6a98
	.uleb128 0x42
	.long	.LASF791
	.byte	0xc
	.value	0x561
	.byte	0x5
	.long	0x7116
	.long	0x715a
	.uleb128 0x11
	.string	"_Tp"
	.long	0x9eb0
	.uleb128 0x11
	.string	"_Up"
	.long	0x9eb0
	.uleb128 0x1
	.long	0xa034
	.uleb128 0x1
	.long	0xa034
	.uleb128 0x1
	.long	0xa034
	.uleb128 0x1
	.long	0xa066
	.byte	0
	.uleb128 0x42
	.long	.LASF792
	.byte	0x3
	.value	0xbce
	.byte	0x5
	.long	0xa034
	.long	0x717a
	.uleb128 0xc
	.long	.LASF433
	.long	0xa034
	.uleb128 0x1
	.long	0xa034
	.byte	0
	.uleb128 0x8d
	.long	.LASF793
	.byte	0xb
	.byte	0xdb
	.byte	0x5
	.long	0x719b
	.uleb128 0xc
	.long	.LASF733
	.long	0xa034
	.uleb128 0x1
	.long	0xa034
	.uleb128 0x1
	.long	0xa034
	.byte	0
	.uleb128 0x17
	.long	.LASF794
	.byte	0xa
	.value	0x49b
	.byte	0x5
	.long	.LASF795
	.long	0x9c5a
	.long	0x71db
	.uleb128 0x11
	.string	"_OI"
	.long	0x9c5a
	.uleb128 0xc
	.long	.LASF755
	.long	0x74c6
	.uleb128 0x11
	.string	"_Tp"
	.long	0x8f39
	.uleb128 0x1
	.long	0x9c5a
	.uleb128 0x1
	.long	0x74c6
	.uleb128 0x1
	.long	0x9c78
	.byte	0
	.uleb128 0x17
	.long	.LASF796
	.byte	0xc
	.value	0x303
	.byte	0x5
	.long	.LASF797
	.long	0x9c5a
	.long	0x7229
	.uleb128 0xc
	.long	.LASF733
	.long	0x9c5a
	.uleb128 0xc
	.long	.LASF755
	.long	0x74c6
	.uleb128 0x11
	.string	"_Tp"
	.long	0x8f39
	.uleb128 0xc
	.long	.LASF784
	.long	0x8f39
	.uleb128 0x1
	.long	0x9c5a
	.uleb128 0x1
	.long	0x74c6
	.uleb128 0x1
	.long	0x9c78
	.uleb128 0x1
	.long	0x9c8c
	.byte	0
	.uleb128 0x3f
	.long	.LASF798
	.byte	0xa
	.value	0x3e9
	.byte	0x5
	.long	.LASF799
	.long	0x725c
	.uleb128 0xc
	.long	.LASF733
	.long	0x8156
	.uleb128 0x11
	.string	"_Tp"
	.long	0x8f39
	.uleb128 0x1
	.long	0x8156
	.uleb128 0x1
	.long	0x8156
	.uleb128 0x1
	.long	0x9c78
	.byte	0
	.uleb128 0x49
	.long	.LASF800
	.byte	0xb
	.byte	0xdb
	.byte	0x5
	.long	.LASF801
	.long	0x7280
	.uleb128 0xc
	.long	.LASF733
	.long	0x9c5a
	.uleb128 0x1
	.long	0x9c5a
	.uleb128 0x1
	.long	0x9c5a
	.byte	0
	.uleb128 0x2e
	.long	.LASF802
	.byte	0xa
	.byte	0xe8
	.byte	0x5
	.long	.LASF803
	.long	0xacd2
	.long	0x72a8
	.uleb128 0x11
	.string	"_Tp"
	.long	0x74c6
	.uleb128 0x1
	.long	0xacd2
	.uleb128 0x1
	.long	0xacd2
	.byte	0
	.uleb128 0x2e
	.long	.LASF804
	.byte	0xa
	.byte	0xe8
	.byte	0x5
	.long	.LASF805
	.long	0xa273
	.long	0x72d0
	.uleb128 0x11
	.string	"_Tp"
	.long	0x30
	.uleb128 0x1
	.long	0xa273
	.uleb128 0x1
	.long	0xa273
	.byte	0
	.uleb128 0x17
	.long	.LASF806
	.byte	0xa
	.value	0x100
	.byte	0x5
	.long	.LASF807
	.long	0xa273
	.long	0x72f9
	.uleb128 0x11
	.string	"_Tp"
	.long	0x30
	.uleb128 0x1
	.long	0xa273
	.uleb128 0x1
	.long	0xa273
	.byte	0
	.uleb128 0x3f
	.long	.LASF808
	.byte	0x8
	.value	0x43a
	.byte	0x5
	.long	.LASF809
	.long	0x732c
	.uleb128 0xc
	.long	.LASF733
	.long	0xa255
	.uleb128 0x11
	.string	"_Tp"
	.long	0x30
	.uleb128 0x1
	.long	0xa255
	.uleb128 0x1
	.long	0xa255
	.uleb128 0x1
	.long	0xa287
	.byte	0
	.uleb128 0x3f
	.long	.LASF810
	.byte	0x8
	.value	0x43a
	.byte	0x5
	.long	.LASF811
	.long	0x735f
	.uleb128 0xc
	.long	.LASF733
	.long	0xa147
	.uleb128 0x11
	.string	"_Tp"
	.long	0x48
	.uleb128 0x1
	.long	0xa147
	.uleb128 0x1
	.long	0xa147
	.uleb128 0x1
	.long	0xa174
	.byte	0
	.uleb128 0x42
	.long	.LASF812
	.byte	0xc
	.value	0x57c
	.byte	0x5
	.long	0xa034
	.long	0x73a0
	.uleb128 0xc
	.long	.LASF813
	.long	0xa034
	.uleb128 0xc
	.long	.LASF733
	.long	0xa034
	.uleb128 0xc
	.long	.LASF814
	.long	0x320a
	.uleb128 0x1
	.long	0xa034
	.uleb128 0x1
	.long	0xa034
	.uleb128 0x1
	.long	0xa034
	.uleb128 0x1
	.long	0xa066
	.byte	0
	.uleb128 0x84
	.long	.LASF815
	.value	0x43a
	.byte	0x5
	.long	0x73cf
	.uleb128 0xc
	.long	.LASF733
	.long	0xa034
	.uleb128 0x11
	.string	"_Tp"
	.long	0x9eb0
	.uleb128 0x1
	.long	0xa034
	.uleb128 0x1
	.long	0xa034
	.uleb128 0x1
	.long	0xa066
	.byte	0
	.uleb128 0x3f
	.long	.LASF816
	.byte	0x8
	.value	0x43a
	.byte	0x5
	.long	.LASF817
	.long	0x7402
	.uleb128 0xc
	.long	.LASF733
	.long	0x9c5a
	.uleb128 0x11
	.string	"_Tp"
	.long	0x8f39
	.uleb128 0x1
	.long	0x9c5a
	.uleb128 0x1
	.long	0x9c5a
	.uleb128 0x1
	.long	0x9c8c
	.byte	0
	.uleb128 0x17
	.long	.LASF818
	.byte	0xd
	.value	0xe1e
	.byte	0x5
	.long	.LASF819
	.long	0xa273
	.long	0x7430
	.uleb128 0x11
	.string	"_Tp"
	.long	0x30
	.uleb128 0x1
	.long	0xa273
	.uleb128 0x1
	.long	0xa273
	.uleb128 0x1
	.long	0xa273
	.byte	0
	.uleb128 0x2e
	.long	.LASF820
	.byte	0xa
	.byte	0xe8
	.byte	0x5
	.long	.LASF821
	.long	0xa160
	.long	0x7458
	.uleb128 0x11
	.string	"_Tp"
	.long	0x48
	.uleb128 0x1
	.long	0xa160
	.uleb128 0x1
	.long	0xa160
	.byte	0
	.uleb128 0x17
	.long	.LASF822
	.byte	0xa
	.value	0x100
	.byte	0x5
	.long	.LASF823
	.long	0xa160
	.long	0x7481
	.uleb128 0x11
	.string	"_Tp"
	.long	0x48
	.uleb128 0x1
	.long	0xa160
	.uleb128 0x1
	.long	0xa160
	.byte	0
	.uleb128 0x17
	.long	.LASF824
	.byte	0x9
	.value	0x108
	.byte	0x3
	.long	.LASF825
	.long	0x30
	.long	0x749c
	.uleb128 0x1
	.long	0x30
	.byte	0
	.uleb128 0x8e
	.long	.LASF826
	.byte	0xa
	.value	0x3fd
	.byte	0x3
	.long	.LASF827
	.long	0x74c6
	.uleb128 0x1
	.long	0x74c6
	.byte	0
	.byte	0
	.uleb128 0x9
	.long	.LASF4
	.byte	0x24
	.byte	0xe5
	.byte	0x17
	.long	0x74c6
	.uleb128 0x7
	.long	0x74b5
	.uleb128 0x2a
	.byte	0x8
	.byte	0x7
	.long	.LASF828
	.uleb128 0x7
	.long	0x74c6
	.uleb128 0xad
	.long	.LASF1411
	.byte	0x18
	.byte	0x25
	.byte	0
	.long	0x7508
	.uleb128 0x68
	.long	.LASF829
	.long	0x7508
	.byte	0
	.uleb128 0x68
	.long	.LASF830
	.long	0x7508
	.byte	0x4
	.uleb128 0x68
	.long	.LASF831
	.long	0x750f
	.byte	0x8
	.uleb128 0x68
	.long	.LASF832
	.long	0x750f
	.byte	0x10
	.byte	0
	.uleb128 0x2a
	.byte	0x4
	.byte	0x7
	.long	.LASF833
	.uleb128 0xae
	.byte	0x8
	.uleb128 0x9
	.long	.LASF834
	.byte	0x26
	.byte	0x14
	.byte	0x17
	.long	0x7508
	.uleb128 0x69
	.byte	0x8
	.byte	0x27
	.byte	0xe
	.byte	0x1
	.long	.LASF1139
	.long	0x7569
	.uleb128 0xaf
	.byte	0x4
	.byte	0x27
	.byte	0x11
	.byte	0x3
	.long	0x754e
	.uleb128 0x8f
	.long	.LASF835
	.byte	0x12
	.byte	0x13
	.long	0x7508
	.uleb128 0x8f
	.long	.LASF836
	.byte	0x13
	.byte	0xa
	.long	0x7569
	.byte	0
	.uleb128 0xe
	.long	.LASF837
	.byte	0x27
	.byte	0xf
	.byte	0x7
	.long	0x48
	.byte	0
	.uleb128 0xe
	.long	.LASF838
	.byte	0x27
	.byte	0x14
	.byte	0x5
	.long	0x752b
	.byte	0x4
	.byte	0
	.uleb128 0x77
	.long	0x3c
	.long	0x7579
	.uleb128 0x78
	.long	0x74c6
	.byte	0x3
	.byte	0
	.uleb128 0x9
	.long	.LASF839
	.byte	0x27
	.byte	0x15
	.byte	0x3
	.long	0x751e
	.uleb128 0x9
	.long	.LASF840
	.byte	0x28
	.byte	0x6
	.byte	0x15
	.long	0x7579
	.uleb128 0x7
	.long	0x7585
	.uleb128 0x9
	.long	.LASF841
	.byte	0x29
	.byte	0x5
	.byte	0x19
	.long	0x75a2
	.uleb128 0x1a
	.long	.LASF842
	.byte	0xd8
	.byte	0x2a
	.byte	0x32
	.byte	0x8
	.long	0x7739
	.uleb128 0xe
	.long	.LASF843
	.byte	0x2a
	.byte	0x34
	.byte	0x7
	.long	0x48
	.byte	0
	.uleb128 0xe
	.long	.LASF844
	.byte	0x2a
	.byte	0x37
	.byte	0x9
	.long	0x37
	.byte	0x8
	.uleb128 0xe
	.long	.LASF845
	.byte	0x2a
	.byte	0x38
	.byte	0x9
	.long	0x37
	.byte	0x10
	.uleb128 0xe
	.long	.LASF846
	.byte	0x2a
	.byte	0x39
	.byte	0x9
	.long	0x37
	.byte	0x18
	.uleb128 0xe
	.long	.LASF847
	.byte	0x2a
	.byte	0x3a
	.byte	0x9
	.long	0x37
	.byte	0x20
	.uleb128 0xe
	.long	.LASF848
	.byte	0x2a
	.byte	0x3b
	.byte	0x9
	.long	0x37
	.byte	0x28
	.uleb128 0xe
	.long	.LASF849
	.byte	0x2a
	.byte	0x3c
	.byte	0x9
	.long	0x37
	.byte	0x30
	.uleb128 0xe
	.long	.LASF850
	.byte	0x2a
	.byte	0x3d
	.byte	0x9
	.long	0x37
	.byte	0x38
	.uleb128 0xe
	.long	.LASF851
	.byte	0x2a
	.byte	0x3e
	.byte	0x9
	.long	0x37
	.byte	0x40
	.uleb128 0xe
	.long	.LASF852
	.byte	0x2a
	.byte	0x41
	.byte	0x9
	.long	0x37
	.byte	0x48
	.uleb128 0xe
	.long	.LASF853
	.byte	0x2a
	.byte	0x42
	.byte	0x9
	.long	0x37
	.byte	0x50
	.uleb128 0xe
	.long	.LASF854
	.byte	0x2a
	.byte	0x43
	.byte	0x9
	.long	0x37
	.byte	0x58
	.uleb128 0xe
	.long	.LASF855
	.byte	0x2a
	.byte	0x45
	.byte	0x16
	.long	0x96cc
	.byte	0x60
	.uleb128 0xe
	.long	.LASF856
	.byte	0x2a
	.byte	0x47
	.byte	0x14
	.long	0x96d1
	.byte	0x68
	.uleb128 0xe
	.long	.LASF857
	.byte	0x2a
	.byte	0x49
	.byte	0x7
	.long	0x48
	.byte	0x70
	.uleb128 0xb0
	.long	.LASF973
	.byte	0x2a
	.byte	0x4a
	.byte	0x7
	.long	0x48
	.byte	0x18
	.value	0x3a0
	.uleb128 0xe
	.long	.LASF858
	.byte	0x2a
	.byte	0x4c
	.byte	0x8
	.long	0x96d6
	.byte	0x77
	.uleb128 0xe
	.long	.LASF859
	.byte	0x2a
	.byte	0x4d
	.byte	0xb
	.long	0x91e8
	.byte	0x78
	.uleb128 0xe
	.long	.LASF860
	.byte	0x2a
	.byte	0x50
	.byte	0x12
	.long	0x7745
	.byte	0x80
	.uleb128 0xe
	.long	.LASF861
	.byte	0x2a
	.byte	0x51
	.byte	0xf
	.long	0x8f4c
	.byte	0x82
	.uleb128 0xe
	.long	.LASF862
	.byte	0x2a
	.byte	0x52
	.byte	0x8
	.long	0x96d6
	.byte	0x83
	.uleb128 0xe
	.long	.LASF863
	.byte	0x2a
	.byte	0x54
	.byte	0xf
	.long	0x96e6
	.byte	0x88
	.uleb128 0xe
	.long	.LASF864
	.byte	0x2a
	.byte	0x5c
	.byte	0xd
	.long	0x91f4
	.byte	0x90
	.uleb128 0xe
	.long	.LASF865
	.byte	0x2a
	.byte	0x5e
	.byte	0x17
	.long	0x96f0
	.byte	0x98
	.uleb128 0xe
	.long	.LASF866
	.byte	0x2a
	.byte	0x5f
	.byte	0x19
	.long	0x96fa
	.byte	0xa0
	.uleb128 0xe
	.long	.LASF867
	.byte	0x2a
	.byte	0x60
	.byte	0x14
	.long	0x96d1
	.byte	0xa8
	.uleb128 0xe
	.long	.LASF868
	.byte	0x2a
	.byte	0x61
	.byte	0x9
	.long	0x750f
	.byte	0xb0
	.uleb128 0xe
	.long	.LASF869
	.byte	0x2a
	.byte	0x62
	.byte	0x15
	.long	0x96ff
	.byte	0xb8
	.uleb128 0xe
	.long	.LASF870
	.byte	0x2a
	.byte	0x63
	.byte	0x7
	.long	0x48
	.byte	0xc0
	.uleb128 0xe
	.long	.LASF871
	.byte	0x2a
	.byte	0x65
	.byte	0x8
	.long	0x9704
	.byte	0xc4
	.byte	0
	.uleb128 0x9
	.long	.LASF872
	.byte	0x2b
	.byte	0x7
	.byte	0x19
	.long	0x75a2
	.uleb128 0x2a
	.byte	0x2
	.byte	0x7
	.long	.LASF873
	.uleb128 0xd
	.long	0x50
	.uleb128 0xd
	.long	0x43
	.uleb128 0x15
	.long	.LASF874
	.byte	0x2c
	.value	0x157
	.byte	0x1
	.long	0x7512
	.long	0x776d
	.uleb128 0x1
	.long	0x48
	.byte	0
	.uleb128 0x15
	.long	.LASF875
	.byte	0x2c
	.value	0x3a7
	.byte	0xf
	.long	0x7512
	.long	0x7784
	.uleb128 0x1
	.long	0x7784
	.byte	0
	.uleb128 0xd
	.long	0x7596
	.uleb128 0x15
	.long	.LASF876
	.byte	0x2c
	.value	0x3c4
	.byte	0x11
	.long	0x77aa
	.long	0x77aa
	.uleb128 0x1
	.long	0x77aa
	.uleb128 0x1
	.long	0x48
	.uleb128 0x1
	.long	0x7784
	.byte	0
	.uleb128 0xd
	.long	0x77af
	.uleb128 0x2a
	.byte	0x4
	.byte	0x5
	.long	.LASF877
	.uleb128 0x7
	.long	0x77af
	.uleb128 0x15
	.long	.LASF878
	.byte	0x2c
	.value	0x3b5
	.byte	0xf
	.long	0x7512
	.long	0x77d7
	.uleb128 0x1
	.long	0x77af
	.uleb128 0x1
	.long	0x7784
	.byte	0
	.uleb128 0x15
	.long	.LASF879
	.byte	0x2c
	.value	0x3cb
	.byte	0xc
	.long	0x48
	.long	0x77f3
	.uleb128 0x1
	.long	0x77f3
	.uleb128 0x1
	.long	0x7784
	.byte	0
	.uleb128 0xd
	.long	0x77b6
	.uleb128 0x15
	.long	.LASF880
	.byte	0x2c
	.value	0x2d5
	.byte	0xc
	.long	0x48
	.long	0x7814
	.uleb128 0x1
	.long	0x7784
	.uleb128 0x1
	.long	0x48
	.byte	0
	.uleb128 0x15
	.long	.LASF881
	.byte	0x2c
	.value	0x2dc
	.byte	0xc
	.long	0x48
	.long	0x7831
	.uleb128 0x1
	.long	0x7784
	.uleb128 0x1
	.long	0x77f3
	.uleb128 0x5a
	.byte	0
	.uleb128 0x17
	.long	.LASF882
	.byte	0x2c
	.value	0x31b
	.byte	0xc
	.long	.LASF883
	.long	0x48
	.long	0x7852
	.uleb128 0x1
	.long	0x7784
	.uleb128 0x1
	.long	0x77f3
	.uleb128 0x5a
	.byte	0
	.uleb128 0x15
	.long	.LASF884
	.byte	0x2c
	.value	0x3a8
	.byte	0xf
	.long	0x7512
	.long	0x7869
	.uleb128 0x1
	.long	0x7784
	.byte	0
	.uleb128 0x90
	.long	.LASF1113
	.byte	0x2c
	.value	0x3ae
	.byte	0xf
	.long	0x7512
	.uleb128 0x15
	.long	.LASF885
	.byte	0x2c
	.value	0x162
	.byte	0x1
	.long	0x74b5
	.long	0x7898
	.uleb128 0x1
	.long	0x7751
	.uleb128 0x1
	.long	0x74b5
	.uleb128 0x1
	.long	0x7898
	.byte	0
	.uleb128 0xd
	.long	0x7585
	.uleb128 0x15
	.long	.LASF886
	.byte	0x2c
	.value	0x141
	.byte	0xf
	.long	0x74b5
	.long	0x78c3
	.uleb128 0x1
	.long	0x77aa
	.uleb128 0x1
	.long	0x7751
	.uleb128 0x1
	.long	0x74b5
	.uleb128 0x1
	.long	0x7898
	.byte	0
	.uleb128 0x15
	.long	.LASF887
	.byte	0x2c
	.value	0x13d
	.byte	0xc
	.long	0x48
	.long	0x78da
	.uleb128 0x1
	.long	0x78da
	.byte	0
	.uleb128 0xd
	.long	0x7591
	.uleb128 0x15
	.long	.LASF888
	.byte	0x2c
	.value	0x16a
	.byte	0xf
	.long	0x74b5
	.long	0x7905
	.uleb128 0x1
	.long	0x77aa
	.uleb128 0x1
	.long	0x7905
	.uleb128 0x1
	.long	0x74b5
	.uleb128 0x1
	.long	0x7898
	.byte	0
	.uleb128 0xd
	.long	0x7751
	.uleb128 0x15
	.long	.LASF889
	.byte	0x2c
	.value	0x3b6
	.byte	0xf
	.long	0x7512
	.long	0x7926
	.uleb128 0x1
	.long	0x77af
	.uleb128 0x1
	.long	0x7784
	.byte	0
	.uleb128 0x15
	.long	.LASF890
	.byte	0x2c
	.value	0x3bc
	.byte	0xf
	.long	0x7512
	.long	0x793d
	.uleb128 0x1
	.long	0x77af
	.byte	0
	.uleb128 0x15
	.long	.LASF891
	.byte	0x2c
	.value	0x2e6
	.byte	0xc
	.long	0x48
	.long	0x795f
	.uleb128 0x1
	.long	0x77aa
	.uleb128 0x1
	.long	0x74b5
	.uleb128 0x1
	.long	0x77f3
	.uleb128 0x5a
	.byte	0
	.uleb128 0x17
	.long	.LASF892
	.byte	0x2c
	.value	0x322
	.byte	0xc
	.long	.LASF893
	.long	0x48
	.long	0x7980
	.uleb128 0x1
	.long	0x77f3
	.uleb128 0x1
	.long	0x77f3
	.uleb128 0x5a
	.byte	0
	.uleb128 0x15
	.long	.LASF894
	.byte	0x2c
	.value	0x3d3
	.byte	0xf
	.long	0x7512
	.long	0x799c
	.uleb128 0x1
	.long	0x7512
	.uleb128 0x1
	.long	0x7784
	.byte	0
	.uleb128 0x15
	.long	.LASF895
	.byte	0x2c
	.value	0x2ee
	.byte	0xc
	.long	0x48
	.long	0x79bd
	.uleb128 0x1
	.long	0x7784
	.uleb128 0x1
	.long	0x77f3
	.uleb128 0x1
	.long	0x79bd
	.byte	0
	.uleb128 0xd
	.long	0x74d2
	.uleb128 0x17
	.long	.LASF896
	.byte	0x2c
	.value	0x36b
	.byte	0xc
	.long	.LASF897
	.long	0x48
	.long	0x79e7
	.uleb128 0x1
	.long	0x7784
	.uleb128 0x1
	.long	0x77f3
	.uleb128 0x1
	.long	0x79bd
	.byte	0
	.uleb128 0x15
	.long	.LASF898
	.byte	0x2c
	.value	0x2fb
	.byte	0xc
	.long	0x48
	.long	0x7a0d
	.uleb128 0x1
	.long	0x77aa
	.uleb128 0x1
	.long	0x74b5
	.uleb128 0x1
	.long	0x77f3
	.uleb128 0x1
	.long	0x79bd
	.byte	0
	.uleb128 0x17
	.long	.LASF899
	.byte	0x2c
	.value	0x372
	.byte	0xc
	.long	.LASF900
	.long	0x48
	.long	0x7a32
	.uleb128 0x1
	.long	0x77f3
	.uleb128 0x1
	.long	0x77f3
	.uleb128 0x1
	.long	0x79bd
	.byte	0
	.uleb128 0x15
	.long	.LASF901
	.byte	0x2c
	.value	0x2f6
	.byte	0xc
	.long	0x48
	.long	0x7a4e
	.uleb128 0x1
	.long	0x77f3
	.uleb128 0x1
	.long	0x79bd
	.byte	0
	.uleb128 0x17
	.long	.LASF902
	.byte	0x2c
	.value	0x36f
	.byte	0xc
	.long	.LASF903
	.long	0x48
	.long	0x7a6e
	.uleb128 0x1
	.long	0x77f3
	.uleb128 0x1
	.long	0x79bd
	.byte	0
	.uleb128 0x15
	.long	.LASF904
	.byte	0x2c
	.value	0x146
	.byte	0xf
	.long	0x74b5
	.long	0x7a8f
	.uleb128 0x1
	.long	0x37
	.uleb128 0x1
	.long	0x77af
	.uleb128 0x1
	.long	0x7898
	.byte	0
	.uleb128 0x21
	.long	.LASF905
	.byte	0x2c
	.byte	0x79
	.byte	0x11
	.long	0x77aa
	.long	0x7aaa
	.uleb128 0x1
	.long	0x77aa
	.uleb128 0x1
	.long	0x77f3
	.byte	0
	.uleb128 0x21
	.long	.LASF906
	.byte	0x2c
	.byte	0x82
	.byte	0xc
	.long	0x48
	.long	0x7ac5
	.uleb128 0x1
	.long	0x77f3
	.uleb128 0x1
	.long	0x77f3
	.byte	0
	.uleb128 0x21
	.long	.LASF907
	.byte	0x2c
	.byte	0x9b
	.byte	0xc
	.long	0x48
	.long	0x7ae0
	.uleb128 0x1
	.long	0x77f3
	.uleb128 0x1
	.long	0x77f3
	.byte	0
	.uleb128 0x21
	.long	.LASF908
	.byte	0x2c
	.byte	0x62
	.byte	0x11
	.long	0x77aa
	.long	0x7afb
	.uleb128 0x1
	.long	0x77aa
	.uleb128 0x1
	.long	0x77f3
	.byte	0
	.uleb128 0x21
	.long	.LASF909
	.byte	0x2c
	.byte	0xd4
	.byte	0xf
	.long	0x74b5
	.long	0x7b16
	.uleb128 0x1
	.long	0x77f3
	.uleb128 0x1
	.long	0x77f3
	.byte	0
	.uleb128 0x15
	.long	.LASF910
	.byte	0x2c
	.value	0x413
	.byte	0xf
	.long	0x74b5
	.long	0x7b3c
	.uleb128 0x1
	.long	0x77aa
	.uleb128 0x1
	.long	0x74b5
	.uleb128 0x1
	.long	0x77f3
	.uleb128 0x1
	.long	0x7b3c
	.byte	0
	.uleb128 0xd
	.long	0x7bde
	.uleb128 0xb1
	.string	"tm"
	.byte	0x38
	.byte	0x2d
	.byte	0x7
	.byte	0x8
	.long	0x7bde
	.uleb128 0xe
	.long	.LASF911
	.byte	0x2d
	.byte	0x9
	.byte	0x7
	.long	0x48
	.byte	0
	.uleb128 0xe
	.long	.LASF912
	.byte	0x2d
	.byte	0xa
	.byte	0x7
	.long	0x48
	.byte	0x4
	.uleb128 0xe
	.long	.LASF913
	.byte	0x2d
	.byte	0xb
	.byte	0x7
	.long	0x48
	.byte	0x8
	.uleb128 0xe
	.long	.LASF914
	.byte	0x2d
	.byte	0xc
	.byte	0x7
	.long	0x48
	.byte	0xc
	.uleb128 0xe
	.long	.LASF915
	.byte	0x2d
	.byte	0xd
	.byte	0x7
	.long	0x48
	.byte	0x10
	.uleb128 0xe
	.long	.LASF916
	.byte	0x2d
	.byte	0xe
	.byte	0x7
	.long	0x48
	.byte	0x14
	.uleb128 0xe
	.long	.LASF917
	.byte	0x2d
	.byte	0xf
	.byte	0x7
	.long	0x48
	.byte	0x18
	.uleb128 0xe
	.long	.LASF918
	.byte	0x2d
	.byte	0x10
	.byte	0x7
	.long	0x48
	.byte	0x1c
	.uleb128 0xe
	.long	.LASF919
	.byte	0x2d
	.byte	0x11
	.byte	0x7
	.long	0x48
	.byte	0x20
	.uleb128 0xe
	.long	.LASF920
	.byte	0x2d
	.byte	0x14
	.byte	0xc
	.long	0x7d2d
	.byte	0x28
	.uleb128 0xe
	.long	.LASF921
	.byte	0x2d
	.byte	0x15
	.byte	0xf
	.long	0x7751
	.byte	0x30
	.byte	0
	.uleb128 0x7
	.long	0x7b41
	.uleb128 0x21
	.long	.LASF922
	.byte	0x2c
	.byte	0xf7
	.byte	0xf
	.long	0x74b5
	.long	0x7bf9
	.uleb128 0x1
	.long	0x77f3
	.byte	0
	.uleb128 0x21
	.long	.LASF923
	.byte	0x2c
	.byte	0x7d
	.byte	0x11
	.long	0x77aa
	.long	0x7c19
	.uleb128 0x1
	.long	0x77aa
	.uleb128 0x1
	.long	0x77f3
	.uleb128 0x1
	.long	0x74b5
	.byte	0
	.uleb128 0x21
	.long	.LASF924
	.byte	0x2c
	.byte	0x85
	.byte	0xc
	.long	0x48
	.long	0x7c39
	.uleb128 0x1
	.long	0x77f3
	.uleb128 0x1
	.long	0x77f3
	.uleb128 0x1
	.long	0x74b5
	.byte	0
	.uleb128 0x21
	.long	.LASF925
	.byte	0x2c
	.byte	0x67
	.byte	0x11
	.long	0x77aa
	.long	0x7c59
	.uleb128 0x1
	.long	0x77aa
	.uleb128 0x1
	.long	0x77f3
	.uleb128 0x1
	.long	0x74b5
	.byte	0
	.uleb128 0x15
	.long	.LASF926
	.byte	0x2c
	.value	0x170
	.byte	0xf
	.long	0x74b5
	.long	0x7c7f
	.uleb128 0x1
	.long	0x37
	.uleb128 0x1
	.long	0x7c7f
	.uleb128 0x1
	.long	0x74b5
	.uleb128 0x1
	.long	0x7898
	.byte	0
	.uleb128 0xd
	.long	0x77f3
	.uleb128 0x21
	.long	.LASF927
	.byte	0x2c
	.byte	0xd8
	.byte	0xf
	.long	0x74b5
	.long	0x7c9f
	.uleb128 0x1
	.long	0x77f3
	.uleb128 0x1
	.long	0x77f3
	.byte	0
	.uleb128 0x15
	.long	.LASF928
	.byte	0x2c
	.value	0x192
	.byte	0xf
	.long	0x7cbb
	.long	0x7cbb
	.uleb128 0x1
	.long	0x77f3
	.uleb128 0x1
	.long	0x7cc2
	.byte	0
	.uleb128 0x2a
	.byte	0x8
	.byte	0x4
	.long	.LASF929
	.uleb128 0xd
	.long	0x77aa
	.uleb128 0x15
	.long	.LASF930
	.byte	0x2c
	.value	0x197
	.byte	0xe
	.long	0x30
	.long	0x7ce3
	.uleb128 0x1
	.long	0x77f3
	.uleb128 0x1
	.long	0x7cc2
	.byte	0
	.uleb128 0x7
	.long	0x30
	.uleb128 0x21
	.long	.LASF931
	.byte	0x2c
	.byte	0xf2
	.byte	0x11
	.long	0x77aa
	.long	0x7d08
	.uleb128 0x1
	.long	0x77aa
	.uleb128 0x1
	.long	0x77f3
	.uleb128 0x1
	.long	0x7cc2
	.byte	0
	.uleb128 0x17
	.long	.LASF932
	.byte	0x2c
	.value	0x1f4
	.byte	0x11
	.long	.LASF933
	.long	0x7d2d
	.long	0x7d2d
	.uleb128 0x1
	.long	0x77f3
	.uleb128 0x1
	.long	0x7cc2
	.uleb128 0x1
	.long	0x48
	.byte	0
	.uleb128 0x2a
	.byte	0x8
	.byte	0x5
	.long	.LASF934
	.uleb128 0x17
	.long	.LASF935
	.byte	0x2c
	.value	0x1f7
	.byte	0x1a
	.long	.LASF936
	.long	0x74c6
	.long	0x7d59
	.uleb128 0x1
	.long	0x77f3
	.uleb128 0x1
	.long	0x7cc2
	.uleb128 0x1
	.long	0x48
	.byte	0
	.uleb128 0x21
	.long	.LASF937
	.byte	0x2c
	.byte	0x9f
	.byte	0xf
	.long	0x74b5
	.long	0x7d79
	.uleb128 0x1
	.long	0x77aa
	.uleb128 0x1
	.long	0x77f3
	.uleb128 0x1
	.long	0x74b5
	.byte	0
	.uleb128 0x15
	.long	.LASF938
	.byte	0x2c
	.value	0x15d
	.byte	0x1
	.long	0x48
	.long	0x7d90
	.uleb128 0x1
	.long	0x7512
	.byte	0
	.uleb128 0x15
	.long	.LASF939
	.byte	0x2c
	.value	0x11b
	.byte	0xc
	.long	0x48
	.long	0x7db1
	.uleb128 0x1
	.long	0x77f3
	.uleb128 0x1
	.long	0x77f3
	.uleb128 0x1
	.long	0x74b5
	.byte	0
	.uleb128 0x15
	.long	.LASF940
	.byte	0x2c
	.value	0x11f
	.byte	0x11
	.long	0x77aa
	.long	0x7dd2
	.uleb128 0x1
	.long	0x77aa
	.uleb128 0x1
	.long	0x77f3
	.uleb128 0x1
	.long	0x74b5
	.byte	0
	.uleb128 0x15
	.long	.LASF941
	.byte	0x2c
	.value	0x124
	.byte	0x11
	.long	0x77aa
	.long	0x7df3
	.uleb128 0x1
	.long	0x77aa
	.uleb128 0x1
	.long	0x77f3
	.uleb128 0x1
	.long	0x74b5
	.byte	0
	.uleb128 0x15
	.long	.LASF942
	.byte	0x2c
	.value	0x128
	.byte	0x11
	.long	0x77aa
	.long	0x7e14
	.uleb128 0x1
	.long	0x77aa
	.uleb128 0x1
	.long	0x77af
	.uleb128 0x1
	.long	0x74b5
	.byte	0
	.uleb128 0x15
	.long	.LASF943
	.byte	0x2c
	.value	0x2e3
	.byte	0xc
	.long	0x48
	.long	0x7e2c
	.uleb128 0x1
	.long	0x77f3
	.uleb128 0x5a
	.byte	0
	.uleb128 0x17
	.long	.LASF944
	.byte	0x2c
	.value	0x31f
	.byte	0xc
	.long	.LASF945
	.long	0x48
	.long	0x7e48
	.uleb128 0x1
	.long	0x77f3
	.uleb128 0x5a
	.byte	0
	.uleb128 0x2e
	.long	.LASF946
	.byte	0x2c
	.byte	0xba
	.byte	0x1d
	.long	.LASF946
	.long	0x77f3
	.long	0x7e67
	.uleb128 0x1
	.long	0x77f3
	.uleb128 0x1
	.long	0x77af
	.byte	0
	.uleb128 0x2e
	.long	.LASF946
	.byte	0x2c
	.byte	0xb8
	.byte	0x17
	.long	.LASF946
	.long	0x77aa
	.long	0x7e86
	.uleb128 0x1
	.long	0x77aa
	.uleb128 0x1
	.long	0x77af
	.byte	0
	.uleb128 0x2e
	.long	.LASF947
	.byte	0x2c
	.byte	0xde
	.byte	0x1d
	.long	.LASF947
	.long	0x77f3
	.long	0x7ea5
	.uleb128 0x1
	.long	0x77f3
	.uleb128 0x1
	.long	0x77f3
	.byte	0
	.uleb128 0x2e
	.long	.LASF947
	.byte	0x2c
	.byte	0xdc
	.byte	0x17
	.long	.LASF947
	.long	0x77aa
	.long	0x7ec4
	.uleb128 0x1
	.long	0x77aa
	.uleb128 0x1
	.long	0x77f3
	.byte	0
	.uleb128 0x2e
	.long	.LASF948
	.byte	0x2c
	.byte	0xc4
	.byte	0x1d
	.long	.LASF948
	.long	0x77f3
	.long	0x7ee3
	.uleb128 0x1
	.long	0x77f3
	.uleb128 0x1
	.long	0x77af
	.byte	0
	.uleb128 0x2e
	.long	.LASF948
	.byte	0x2c
	.byte	0xc2
	.byte	0x17
	.long	.LASF948
	.long	0x77aa
	.long	0x7f02
	.uleb128 0x1
	.long	0x77aa
	.uleb128 0x1
	.long	0x77af
	.byte	0
	.uleb128 0x2e
	.long	.LASF949
	.byte	0x2c
	.byte	0xe9
	.byte	0x1d
	.long	.LASF949
	.long	0x77f3
	.long	0x7f21
	.uleb128 0x1
	.long	0x77f3
	.uleb128 0x1
	.long	0x77f3
	.byte	0
	.uleb128 0x2e
	.long	.LASF949
	.byte	0x2c
	.byte	0xe7
	.byte	0x17
	.long	.LASF949
	.long	0x77aa
	.long	0x7f40
	.uleb128 0x1
	.long	0x77aa
	.uleb128 0x1
	.long	0x77f3
	.byte	0
	.uleb128 0x17
	.long	.LASF950
	.byte	0x2c
	.value	0x112
	.byte	0x1d
	.long	.LASF950
	.long	0x77f3
	.long	0x7f65
	.uleb128 0x1
	.long	0x77f3
	.uleb128 0x1
	.long	0x77af
	.uleb128 0x1
	.long	0x74b5
	.byte	0
	.uleb128 0x17
	.long	.LASF950
	.byte	0x2c
	.value	0x110
	.byte	0x17
	.long	.LASF950
	.long	0x77aa
	.long	0x7f8a
	.uleb128 0x1
	.long	0x77aa
	.uleb128 0x1
	.long	0x77af
	.uleb128 0x1
	.long	0x74b5
	.byte	0
	.uleb128 0x91
	.long	.LASF951
	.byte	0xf
	.value	0x17b
	.long	0x8e64
	.uleb128 0x5
	.byte	0xe
	.byte	0xfd
	.byte	0xb
	.long	0x8e64
	.uleb128 0x18
	.byte	0xe
	.value	0x106
	.byte	0xb
	.long	0x8e87
	.uleb128 0x18
	.byte	0xe
	.value	0x107
	.byte	0xb
	.long	0x8eb3
	.uleb128 0x5
	.byte	0x15
	.byte	0xd2
	.byte	0xb
	.long	0x92cb
	.uleb128 0x5
	.byte	0x15
	.byte	0xe4
	.byte	0xb
	.long	0x95d9
	.uleb128 0x5
	.byte	0x15
	.byte	0xf0
	.byte	0xb
	.long	0x95f5
	.uleb128 0x5
	.byte	0x15
	.byte	0xf1
	.byte	0xb
	.long	0x960c
	.uleb128 0x5
	.byte	0x15
	.byte	0xf2
	.byte	0xb
	.long	0x9630
	.uleb128 0x5
	.byte	0x15
	.byte	0xf4
	.byte	0xb
	.long	0x9654
	.uleb128 0x5
	.byte	0x15
	.byte	0xf5
	.byte	0xb
	.long	0x966f
	.uleb128 0xb2
	.string	"div"
	.byte	0x15
	.byte	0xe1
	.byte	0x3
	.long	.LASF1412
	.long	0x92cb
	.long	0x8009
	.uleb128 0x1
	.long	0x8eac
	.uleb128 0x1
	.long	0x8eac
	.byte	0
	.uleb128 0xb3
	.long	.LASF1413
	.byte	0x7
	.byte	0x4
	.long	0x7508
	.byte	0x46
	.byte	0x36
	.byte	0x8
	.long	0x802f
	.uleb128 0x79
	.long	.LASF952
	.byte	0
	.uleb128 0x79
	.long	.LASF953
	.byte	0x1
	.uleb128 0x79
	.long	.LASF954
	.byte	0x2
	.byte	0
	.uleb128 0x7
	.long	0x8009
	.uleb128 0xb4
	.long	.LASF1414
	.byte	0x46
	.byte	0x3a
	.byte	0x28
	.long	.LASF1415
	.long	0x802f
	.byte	0x2
	.byte	0x3
	.uleb128 0x1a
	.long	.LASF955
	.byte	0x1
	.byte	0x2e
	.byte	0x2f
	.byte	0xa
	.long	0x8156
	.uleb128 0x5
	.byte	0x2e
	.byte	0x2f
	.byte	0xa
	.long	0xd35
	.uleb128 0x5
	.byte	0x2e
	.byte	0x2f
	.byte	0xa
	.long	0xcf6
	.uleb128 0x5
	.byte	0x2e
	.byte	0x2f
	.byte	0xa
	.long	0xd67
	.uleb128 0x5
	.byte	0x2e
	.byte	0x2f
	.byte	0xa
	.long	0xd88
	.uleb128 0x31
	.long	0xcdb
	.uleb128 0x2e
	.long	.LASF956
	.byte	0x2e
	.byte	0x63
	.byte	0x1d
	.long	.LASF957
	.long	0xc52
	.long	0x8093
	.uleb128 0x1
	.long	0x9c87
	.byte	0
	.uleb128 0x49
	.long	.LASF958
	.byte	0x2e
	.byte	0x67
	.byte	0x26
	.long	.LASF959
	.long	0x80ae
	.uleb128 0x1
	.long	0x9c8c
	.uleb128 0x1
	.long	0x9c8c
	.byte	0
	.uleb128 0x2f
	.long	.LASF960
	.byte	0x6b
	.long	.LASF961
	.long	0x8f23
	.uleb128 0x2f
	.long	.LASF962
	.byte	0x6f
	.long	.LASF963
	.long	0x8f23
	.uleb128 0x2f
	.long	.LASF964
	.byte	0x73
	.long	.LASF965
	.long	0x8f23
	.uleb128 0x2f
	.long	.LASF966
	.byte	0x77
	.long	.LASF967
	.long	0x8f23
	.uleb128 0x2f
	.long	.LASF968
	.byte	0x7b
	.long	.LASF969
	.long	0x8f23
	.uleb128 0x9
	.long	.LASF5
	.byte	0x2e
	.byte	0x37
	.byte	0x35
	.long	0xdbe
	.uleb128 0x7
	.long	0x80f4
	.uleb128 0x9
	.long	.LASF68
	.byte	0x2e
	.byte	0x38
	.byte	0x35
	.long	0xce9
	.uleb128 0x9
	.long	.LASF69
	.byte	0x2e
	.byte	0x3d
	.byte	0x35
	.long	0x9c9b
	.uleb128 0x9
	.long	.LASF72
	.byte	0x2e
	.byte	0x3e
	.byte	0x35
	.long	0x9ca0
	.uleb128 0x1a
	.long	.LASF970
	.byte	0x1
	.byte	0x2e
	.byte	0x7f
	.byte	0xe
	.long	0x814c
	.uleb128 0x9
	.long	.LASF971
	.byte	0x2e
	.byte	0x80
	.byte	0x41
	.long	0xdcb
	.uleb128 0x11
	.string	"_Tp"
	.long	0x8f39
	.byte	0
	.uleb128 0xc
	.long	.LASF139
	.long	0xc52
	.byte	0
	.uleb128 0x4b
	.long	.LASF972
	.byte	0x8
	.byte	0x3
	.value	0x402
	.long	0x8384
	.uleb128 0x6a
	.long	.LASF974
	.long	0x9c5a
	.uleb128 0x10
	.long	.LASF975
	.byte	0x3
	.value	0x41d
	.byte	0x7
	.long	.LASF976
	.byte	0x1
	.long	0x8182
	.long	0x8188
	.uleb128 0x2
	.long	0xa34f
	.byte	0
	.uleb128 0x41
	.long	.LASF975
	.byte	0x3
	.value	0x422
	.long	.LASF977
	.long	0x819c
	.long	0x81a7
	.uleb128 0x2
	.long	0xa34f
	.uleb128 0x1
	.long	0xa359
	.byte	0
	.uleb128 0x14
	.long	.LASF69
	.byte	0x3
	.value	0x414
	.byte	0x32
	.long	0x6b0e
	.uleb128 0x6
	.long	.LASF978
	.byte	0x3
	.value	0x441
	.byte	0x7
	.long	.LASF979
	.long	0x81a7
	.byte	0x1
	.long	0x81ce
	.long	0x81d4
	.uleb128 0x2
	.long	0xa35e
	.byte	0
	.uleb128 0x14
	.long	.LASF68
	.byte	0x3
	.value	0x415
	.byte	0x32
	.long	0x6b02
	.uleb128 0x6
	.long	.LASF980
	.byte	0x3
	.value	0x447
	.byte	0x7
	.long	.LASF981
	.long	0x81d4
	.byte	0x1
	.long	0x81fb
	.long	0x8201
	.uleb128 0x2
	.long	0xa35e
	.byte	0
	.uleb128 0x6
	.long	.LASF982
	.byte	0x3
	.value	0x44d
	.byte	0x7
	.long	.LASF983
	.long	0xa368
	.byte	0x1
	.long	0x821b
	.long	0x8221
	.uleb128 0x2
	.long	0xa34f
	.byte	0
	.uleb128 0x6
	.long	.LASF982
	.byte	0x3
	.value	0x456
	.byte	0x7
	.long	.LASF984
	.long	0x8156
	.byte	0x1
	.long	0x823b
	.long	0x8246
	.uleb128 0x2
	.long	0xa34f
	.uleb128 0x1
	.long	0x48
	.byte	0
	.uleb128 0x6
	.long	.LASF985
	.byte	0x3
	.value	0x45e
	.byte	0x7
	.long	.LASF986
	.long	0xa368
	.byte	0x1
	.long	0x8260
	.long	0x8266
	.uleb128 0x2
	.long	0xa34f
	.byte	0
	.uleb128 0x6
	.long	.LASF985
	.byte	0x3
	.value	0x467
	.byte	0x7
	.long	.LASF987
	.long	0x8156
	.byte	0x1
	.long	0x8280
	.long	0x828b
	.uleb128 0x2
	.long	0xa34f
	.uleb128 0x1
	.long	0x48
	.byte	0
	.uleb128 0x6
	.long	.LASF206
	.byte	0x3
	.value	0x46f
	.byte	0x7
	.long	.LASF988
	.long	0x81a7
	.byte	0x1
	.long	0x82a5
	.long	0x82b0
	.uleb128 0x2
	.long	0xa35e
	.uleb128 0x1
	.long	0x82b0
	.byte	0
	.uleb128 0x14
	.long	.LASF432
	.byte	0x3
	.value	0x413
	.byte	0x38
	.long	0x6af6
	.uleb128 0x6
	.long	.LASF989
	.byte	0x3
	.value	0x475
	.byte	0x7
	.long	.LASF990
	.long	0xa368
	.byte	0x1
	.long	0x82d7
	.long	0x82e2
	.uleb128 0x2
	.long	0xa34f
	.uleb128 0x1
	.long	0x82b0
	.byte	0
	.uleb128 0x6
	.long	.LASF991
	.byte	0x3
	.value	0x47b
	.byte	0x7
	.long	.LASF992
	.long	0x8156
	.byte	0x1
	.long	0x82fc
	.long	0x8307
	.uleb128 0x2
	.long	0xa35e
	.uleb128 0x1
	.long	0x82b0
	.byte	0
	.uleb128 0x6
	.long	.LASF993
	.byte	0x3
	.value	0x481
	.byte	0x7
	.long	.LASF994
	.long	0xa368
	.byte	0x1
	.long	0x8321
	.long	0x832c
	.uleb128 0x2
	.long	0xa34f
	.uleb128 0x1
	.long	0x82b0
	.byte	0
	.uleb128 0x6
	.long	.LASF995
	.byte	0x3
	.value	0x487
	.byte	0x7
	.long	.LASF996
	.long	0x8156
	.byte	0x1
	.long	0x8346
	.long	0x8351
	.uleb128 0x2
	.long	0xa35e
	.uleb128 0x1
	.long	0x82b0
	.byte	0
	.uleb128 0x6
	.long	.LASF997
	.byte	0x3
	.value	0x48d
	.byte	0x7
	.long	.LASF998
	.long	0xa359
	.byte	0x1
	.long	0x836b
	.long	0x8371
	.uleb128 0x2
	.long	0xa35e
	.byte	0
	.uleb128 0xc
	.long	.LASF433
	.long	0x9c5a
	.uleb128 0xc
	.long	.LASF999
	.long	0x11a2
	.byte	0
	.uleb128 0x7
	.long	0x8156
	.uleb128 0x2d
	.long	.LASF1000
	.uleb128 0x1a
	.long	.LASF1001
	.byte	0x1
	.byte	0x2e
	.byte	0x2f
	.byte	0xa
	.long	0x849d
	.uleb128 0x5
	.byte	0x2e
	.byte	0x2f
	.byte	0xa
	.long	0x2038
	.uleb128 0x5
	.byte	0x2e
	.byte	0x2f
	.byte	0xa
	.long	0x1ff9
	.uleb128 0x5
	.byte	0x2e
	.byte	0x2f
	.byte	0xa
	.long	0x206a
	.uleb128 0x5
	.byte	0x2e
	.byte	0x2f
	.byte	0xa
	.long	0x208b
	.uleb128 0x31
	.long	0x1fde
	.uleb128 0x2e
	.long	.LASF956
	.byte	0x2e
	.byte	0x63
	.byte	0x1d
	.long	.LASF1002
	.long	0x1f55
	.long	0x83da
	.uleb128 0x1
	.long	0x9f80
	.byte	0
	.uleb128 0x49
	.long	.LASF958
	.byte	0x2e
	.byte	0x67
	.byte	0x26
	.long	.LASF1003
	.long	0x83f5
	.uleb128 0x1
	.long	0x9f85
	.uleb128 0x1
	.long	0x9f85
	.byte	0
	.uleb128 0x2f
	.long	.LASF960
	.byte	0x6b
	.long	.LASF1004
	.long	0x8f23
	.uleb128 0x2f
	.long	.LASF962
	.byte	0x6f
	.long	.LASF1005
	.long	0x8f23
	.uleb128 0x2f
	.long	.LASF964
	.byte	0x73
	.long	.LASF1006
	.long	0x8f23
	.uleb128 0x2f
	.long	.LASF966
	.byte	0x77
	.long	.LASF1007
	.long	0x8f23
	.uleb128 0x2f
	.long	.LASF968
	.byte	0x7b
	.long	.LASF1008
	.long	0x8f23
	.uleb128 0x9
	.long	.LASF5
	.byte	0x2e
	.byte	0x37
	.byte	0x35
	.long	0x20c1
	.uleb128 0x7
	.long	0x843b
	.uleb128 0x9
	.long	.LASF68
	.byte	0x2e
	.byte	0x38
	.byte	0x35
	.long	0x1fec
	.uleb128 0x9
	.long	.LASF69
	.byte	0x2e
	.byte	0x3d
	.byte	0x35
	.long	0x9f94
	.uleb128 0x9
	.long	.LASF72
	.byte	0x2e
	.byte	0x3e
	.byte	0x35
	.long	0x9f99
	.uleb128 0x1a
	.long	.LASF1009
	.byte	0x1
	.byte	0x2e
	.byte	0x7f
	.byte	0xe
	.long	0x8493
	.uleb128 0x9
	.long	.LASF971
	.byte	0x2e
	.byte	0x80
	.byte	0x41
	.long	0x20ce
	.uleb128 0x11
	.string	"_Tp"
	.long	0x9e2f
	.byte	0
	.uleb128 0xc
	.long	.LASF139
	.long	0x1f55
	.byte	0
	.uleb128 0x4b
	.long	.LASF1010
	.byte	0x8
	.byte	0x3
	.value	0x402
	.long	0x86cb
	.uleb128 0x6a
	.long	.LASF974
	.long	0x9f58
	.uleb128 0x10
	.long	.LASF975
	.byte	0x3
	.value	0x41d
	.byte	0x7
	.long	.LASF1011
	.byte	0x1
	.long	0x84c9
	.long	0x84cf
	.uleb128 0x2
	.long	0xa115
	.byte	0
	.uleb128 0x41
	.long	.LASF975
	.byte	0x3
	.value	0x422
	.long	.LASF1012
	.long	0x84e3
	.long	0x84ee
	.uleb128 0x2
	.long	0xa115
	.uleb128 0x1
	.long	0xa11f
	.byte	0
	.uleb128 0x14
	.long	.LASF69
	.byte	0x3
	.value	0x414
	.byte	0x32
	.long	0x42ac
	.uleb128 0x6
	.long	.LASF978
	.byte	0x3
	.value	0x441
	.byte	0x7
	.long	.LASF1013
	.long	0x84ee
	.byte	0x1
	.long	0x8515
	.long	0x851b
	.uleb128 0x2
	.long	0xa124
	.byte	0
	.uleb128 0x14
	.long	.LASF68
	.byte	0x3
	.value	0x415
	.byte	0x32
	.long	0x42a0
	.uleb128 0x6
	.long	.LASF980
	.byte	0x3
	.value	0x447
	.byte	0x7
	.long	.LASF1014
	.long	0x851b
	.byte	0x1
	.long	0x8542
	.long	0x8548
	.uleb128 0x2
	.long	0xa124
	.byte	0
	.uleb128 0x6
	.long	.LASF982
	.byte	0x3
	.value	0x44d
	.byte	0x7
	.long	.LASF1015
	.long	0xa12e
	.byte	0x1
	.long	0x8562
	.long	0x8568
	.uleb128 0x2
	.long	0xa115
	.byte	0
	.uleb128 0x6
	.long	.LASF982
	.byte	0x3
	.value	0x456
	.byte	0x7
	.long	.LASF1016
	.long	0x849d
	.byte	0x1
	.long	0x8582
	.long	0x858d
	.uleb128 0x2
	.long	0xa115
	.uleb128 0x1
	.long	0x48
	.byte	0
	.uleb128 0x6
	.long	.LASF985
	.byte	0x3
	.value	0x45e
	.byte	0x7
	.long	.LASF1017
	.long	0xa12e
	.byte	0x1
	.long	0x85a7
	.long	0x85ad
	.uleb128 0x2
	.long	0xa115
	.byte	0
	.uleb128 0x6
	.long	.LASF985
	.byte	0x3
	.value	0x467
	.byte	0x7
	.long	.LASF1018
	.long	0x849d
	.byte	0x1
	.long	0x85c7
	.long	0x85d2
	.uleb128 0x2
	.long	0xa115
	.uleb128 0x1
	.long	0x48
	.byte	0
	.uleb128 0x6
	.long	.LASF206
	.byte	0x3
	.value	0x46f
	.byte	0x7
	.long	.LASF1019
	.long	0x84ee
	.byte	0x1
	.long	0x85ec
	.long	0x85f7
	.uleb128 0x2
	.long	0xa124
	.uleb128 0x1
	.long	0x85f7
	.byte	0
	.uleb128 0x14
	.long	.LASF432
	.byte	0x3
	.value	0x413
	.byte	0x38
	.long	0x4294
	.uleb128 0x6
	.long	.LASF989
	.byte	0x3
	.value	0x475
	.byte	0x7
	.long	.LASF1020
	.long	0xa12e
	.byte	0x1
	.long	0x861e
	.long	0x8629
	.uleb128 0x2
	.long	0xa115
	.uleb128 0x1
	.long	0x85f7
	.byte	0
	.uleb128 0x6
	.long	.LASF991
	.byte	0x3
	.value	0x47b
	.byte	0x7
	.long	.LASF1021
	.long	0x849d
	.byte	0x1
	.long	0x8643
	.long	0x864e
	.uleb128 0x2
	.long	0xa124
	.uleb128 0x1
	.long	0x85f7
	.byte	0
	.uleb128 0x6
	.long	.LASF993
	.byte	0x3
	.value	0x481
	.byte	0x7
	.long	.LASF1022
	.long	0xa12e
	.byte	0x1
	.long	0x8668
	.long	0x8673
	.uleb128 0x2
	.long	0xa115
	.uleb128 0x1
	.long	0x85f7
	.byte	0
	.uleb128 0x6
	.long	.LASF995
	.byte	0x3
	.value	0x487
	.byte	0x7
	.long	.LASF1023
	.long	0x849d
	.byte	0x1
	.long	0x868d
	.long	0x8698
	.uleb128 0x2
	.long	0xa124
	.uleb128 0x1
	.long	0x85f7
	.byte	0
	.uleb128 0x6
	.long	.LASF997
	.byte	0x3
	.value	0x48d
	.byte	0x7
	.long	.LASF1024
	.long	0xa11f
	.byte	0x1
	.long	0x86b2
	.long	0x86b8
	.uleb128 0x2
	.long	0xa124
	.byte	0
	.uleb128 0xc
	.long	.LASF433
	.long	0x9f58
	.uleb128 0xc
	.long	.LASF999
	.long	0x248c
	.byte	0
	.uleb128 0x7
	.long	0x849d
	.uleb128 0x4b
	.long	.LASF1025
	.byte	0x8
	.byte	0x3
	.value	0x402
	.long	0x88fe
	.uleb128 0x6a
	.long	.LASF974
	.long	0x9f6c
	.uleb128 0x10
	.long	.LASF975
	.byte	0x3
	.value	0x41d
	.byte	0x7
	.long	.LASF1026
	.byte	0x1
	.long	0x86fc
	.long	0x8702
	.uleb128 0x2
	.long	0xa33b
	.byte	0
	.uleb128 0x41
	.long	.LASF975
	.byte	0x3
	.value	0x422
	.long	.LASF1027
	.long	0x8716
	.long	0x8721
	.uleb128 0x2
	.long	0xa33b
	.uleb128 0x1
	.long	0xa340
	.byte	0
	.uleb128 0x14
	.long	.LASF69
	.byte	0x3
	.value	0x414
	.byte	0x32
	.long	0x6ad3
	.uleb128 0x6
	.long	.LASF978
	.byte	0x3
	.value	0x441
	.byte	0x7
	.long	.LASF1028
	.long	0x8721
	.byte	0x1
	.long	0x8748
	.long	0x874e
	.uleb128 0x2
	.long	0xa345
	.byte	0
	.uleb128 0x14
	.long	.LASF68
	.byte	0x3
	.value	0x415
	.byte	0x32
	.long	0x6ac7
	.uleb128 0x6
	.long	.LASF980
	.byte	0x3
	.value	0x447
	.byte	0x7
	.long	.LASF1029
	.long	0x874e
	.byte	0x1
	.long	0x8775
	.long	0x877b
	.uleb128 0x2
	.long	0xa345
	.byte	0
	.uleb128 0x6
	.long	.LASF982
	.byte	0x3
	.value	0x44d
	.byte	0x7
	.long	.LASF1030
	.long	0xa34a
	.byte	0x1
	.long	0x8795
	.long	0x879b
	.uleb128 0x2
	.long	0xa33b
	.byte	0
	.uleb128 0x6
	.long	.LASF982
	.byte	0x3
	.value	0x456
	.byte	0x7
	.long	.LASF1031
	.long	0x86d0
	.byte	0x1
	.long	0x87b5
	.long	0x87c0
	.uleb128 0x2
	.long	0xa33b
	.uleb128 0x1
	.long	0x48
	.byte	0
	.uleb128 0x6
	.long	.LASF985
	.byte	0x3
	.value	0x45e
	.byte	0x7
	.long	.LASF1032
	.long	0xa34a
	.byte	0x1
	.long	0x87da
	.long	0x87e0
	.uleb128 0x2
	.long	0xa33b
	.byte	0
	.uleb128 0x6
	.long	.LASF985
	.byte	0x3
	.value	0x467
	.byte	0x7
	.long	.LASF1033
	.long	0x86d0
	.byte	0x1
	.long	0x87fa
	.long	0x8805
	.uleb128 0x2
	.long	0xa33b
	.uleb128 0x1
	.long	0x48
	.byte	0
	.uleb128 0x6
	.long	.LASF206
	.byte	0x3
	.value	0x46f
	.byte	0x7
	.long	.LASF1034
	.long	0x8721
	.byte	0x1
	.long	0x881f
	.long	0x882a
	.uleb128 0x2
	.long	0xa345
	.uleb128 0x1
	.long	0x882a
	.byte	0
	.uleb128 0x14
	.long	.LASF432
	.byte	0x3
	.value	0x413
	.byte	0x38
	.long	0x6abb
	.uleb128 0x6
	.long	.LASF989
	.byte	0x3
	.value	0x475
	.byte	0x7
	.long	.LASF1035
	.long	0xa34a
	.byte	0x1
	.long	0x8851
	.long	0x885c
	.uleb128 0x2
	.long	0xa33b
	.uleb128 0x1
	.long	0x882a
	.byte	0
	.uleb128 0x6
	.long	.LASF991
	.byte	0x3
	.value	0x47b
	.byte	0x7
	.long	.LASF1036
	.long	0x86d0
	.byte	0x1
	.long	0x8876
	.long	0x8881
	.uleb128 0x2
	.long	0xa345
	.uleb128 0x1
	.long	0x882a
	.byte	0
	.uleb128 0x6
	.long	.LASF993
	.byte	0x3
	.value	0x481
	.byte	0x7
	.long	.LASF1037
	.long	0xa34a
	.byte	0x1
	.long	0x889b
	.long	0x88a6
	.uleb128 0x2
	.long	0xa33b
	.uleb128 0x1
	.long	0x882a
	.byte	0
	.uleb128 0x6
	.long	.LASF995
	.byte	0x3
	.value	0x487
	.byte	0x7
	.long	.LASF1038
	.long	0x86d0
	.byte	0x1
	.long	0x88c0
	.long	0x88cb
	.uleb128 0x2
	.long	0xa345
	.uleb128 0x1
	.long	0x882a
	.byte	0
	.uleb128 0x6
	.long	.LASF997
	.byte	0x3
	.value	0x48d
	.byte	0x7
	.long	.LASF1039
	.long	0xa340
	.byte	0x1
	.long	0x88e5
	.long	0x88eb
	.uleb128 0x2
	.long	0xa345
	.byte	0
	.uleb128 0xc
	.long	.LASF433
	.long	0x9f6c
	.uleb128 0xc
	.long	.LASF999
	.long	0x248c
	.byte	0
	.uleb128 0x7
	.long	0x86d0
	.uleb128 0x1a
	.long	.LASF1040
	.byte	0x1
	.byte	0x2e
	.byte	0x2f
	.byte	0xa
	.long	0x89f8
	.uleb128 0x5
	.byte	0x2e
	.byte	0x2f
	.byte	0xa
	.long	0x32dd
	.uleb128 0x5
	.byte	0x2e
	.byte	0x2f
	.byte	0xa
	.long	0x32a2
	.uleb128 0x5
	.byte	0x2e
	.byte	0x2f
	.byte	0xa
	.long	0x330b
	.uleb128 0x5
	.byte	0x2e
	.byte	0x2f
	.byte	0xa
	.long	0x3328
	.uleb128 0x31
	.long	0x3287
	.uleb128 0x8c
	.long	.LASF956
	.byte	0x2e
	.byte	0x63
	.byte	0x1d
	.long	0x320a
	.long	0x894c
	.uleb128 0x1
	.long	0xa061
	.byte	0
	.uleb128 0x8d
	.long	.LASF958
	.byte	0x2e
	.byte	0x67
	.byte	0x26
	.long	0x8964
	.uleb128 0x1
	.long	0xa066
	.uleb128 0x1
	.long	0xa066
	.byte	0
	.uleb128 0x62
	.long	.LASF960
	.byte	0x6b
	.long	0x8f23
	.uleb128 0x62
	.long	.LASF962
	.byte	0x6f
	.long	0x8f23
	.uleb128 0x62
	.long	.LASF964
	.byte	0x73
	.long	0x8f23
	.uleb128 0x62
	.long	.LASF966
	.byte	0x77
	.long	0x8f23
	.uleb128 0x62
	.long	.LASF968
	.byte	0x7b
	.long	0x8f23
	.uleb128 0x9
	.long	.LASF5
	.byte	0x2e
	.byte	0x37
	.byte	0x35
	.long	0x3356
	.uleb128 0x7
	.long	0x8996
	.uleb128 0x9
	.long	.LASF68
	.byte	0x2e
	.byte	0x38
	.byte	0x35
	.long	0x3295
	.uleb128 0x9
	.long	.LASF69
	.byte	0x2e
	.byte	0x3d
	.byte	0x35
	.long	0xa075
	.uleb128 0x9
	.long	.LASF72
	.byte	0x2e
	.byte	0x3e
	.byte	0x35
	.long	0xa07a
	.uleb128 0x1a
	.long	.LASF1041
	.byte	0x1
	.byte	0x2e
	.byte	0x7f
	.byte	0xe
	.long	0x89ee
	.uleb128 0x9
	.long	.LASF971
	.byte	0x2e
	.byte	0x80
	.byte	0x41
	.long	0x3363
	.uleb128 0x11
	.string	"_Tp"
	.long	0x9eb0
	.byte	0
	.uleb128 0xc
	.long	.LASF139
	.long	0x320a
	.byte	0
	.uleb128 0x4b
	.long	.LASF1042
	.byte	0x8
	.byte	0x3
	.value	0x402
	.long	0x8bee
	.uleb128 0x6a
	.long	.LASF974
	.long	0xa034
	.uleb128 0x29
	.long	.LASF975
	.byte	0x3
	.value	0x41d
	.byte	0x7
	.byte	0x1
	.long	0x8a20
	.long	0x8a26
	.uleb128 0x2
	.long	0xa223
	.byte	0
	.uleb128 0x76
	.long	.LASF975
	.byte	0x3
	.value	0x422
	.long	0x8a36
	.long	0x8a41
	.uleb128 0x2
	.long	0xa223
	.uleb128 0x1
	.long	0xa22d
	.byte	0
	.uleb128 0x14
	.long	.LASF69
	.byte	0x3
	.value	0x414
	.byte	0x32
	.long	0x5694
	.uleb128 0x1d
	.long	.LASF978
	.byte	0x3
	.value	0x441
	.byte	0x7
	.long	0x8a41
	.byte	0x1
	.long	0x8a64
	.long	0x8a6a
	.uleb128 0x2
	.long	0xa232
	.byte	0
	.uleb128 0x14
	.long	.LASF68
	.byte	0x3
	.value	0x415
	.byte	0x32
	.long	0x5688
	.uleb128 0x1d
	.long	.LASF980
	.byte	0x3
	.value	0x447
	.byte	0x7
	.long	0x8a6a
	.byte	0x1
	.long	0x8a8d
	.long	0x8a93
	.uleb128 0x2
	.long	0xa232
	.byte	0
	.uleb128 0x1d
	.long	.LASF982
	.byte	0x3
	.value	0x44d
	.byte	0x7
	.long	0xa23c
	.byte	0x1
	.long	0x8aa9
	.long	0x8aaf
	.uleb128 0x2
	.long	0xa223
	.byte	0
	.uleb128 0x1d
	.long	.LASF982
	.byte	0x3
	.value	0x456
	.byte	0x7
	.long	0x89f8
	.byte	0x1
	.long	0x8ac5
	.long	0x8ad0
	.uleb128 0x2
	.long	0xa223
	.uleb128 0x1
	.long	0x48
	.byte	0
	.uleb128 0x1d
	.long	.LASF985
	.byte	0x3
	.value	0x45e
	.byte	0x7
	.long	0xa23c
	.byte	0x1
	.long	0x8ae6
	.long	0x8aec
	.uleb128 0x2
	.long	0xa223
	.byte	0
	.uleb128 0x1d
	.long	.LASF985
	.byte	0x3
	.value	0x467
	.byte	0x7
	.long	0x89f8
	.byte	0x1
	.long	0x8b02
	.long	0x8b0d
	.uleb128 0x2
	.long	0xa223
	.uleb128 0x1
	.long	0x48
	.byte	0
	.uleb128 0x1d
	.long	.LASF206
	.byte	0x3
	.value	0x46f
	.byte	0x7
	.long	0x8a41
	.byte	0x1
	.long	0x8b23
	.long	0x8b2e
	.uleb128 0x2
	.long	0xa232
	.uleb128 0x1
	.long	0x8b2e
	.byte	0
	.uleb128 0x14
	.long	.LASF432
	.byte	0x3
	.value	0x413
	.byte	0x38
	.long	0x567c
	.uleb128 0x1d
	.long	.LASF989
	.byte	0x3
	.value	0x475
	.byte	0x7
	.long	0xa23c
	.byte	0x1
	.long	0x8b51
	.long	0x8b5c
	.uleb128 0x2
	.long	0xa223
	.uleb128 0x1
	.long	0x8b2e
	.byte	0
	.uleb128 0x1d
	.long	.LASF991
	.byte	0x3
	.value	0x47b
	.byte	0x7
	.long	0x89f8
	.byte	0x1
	.long	0x8b72
	.long	0x8b7d
	.uleb128 0x2
	.long	0xa232
	.uleb128 0x1
	.long	0x8b2e
	.byte	0
	.uleb128 0x1d
	.long	.LASF993
	.byte	0x3
	.value	0x481
	.byte	0x7
	.long	0xa23c
	.byte	0x1
	.long	0x8b93
	.long	0x8b9e
	.uleb128 0x2
	.long	0xa223
	.uleb128 0x1
	.long	0x8b2e
	.byte	0
	.uleb128 0x1d
	.long	.LASF995
	.byte	0x3
	.value	0x487
	.byte	0x7
	.long	0x89f8
	.byte	0x1
	.long	0x8bb4
	.long	0x8bbf
	.uleb128 0x2
	.long	0xa232
	.uleb128 0x1
	.long	0x8b2e
	.byte	0
	.uleb128 0x1d
	.long	.LASF997
	.byte	0x3
	.value	0x48d
	.byte	0x7
	.long	0xa22d
	.byte	0x1
	.long	0x8bd5
	.long	0x8bdb
	.uleb128 0x2
	.long	0xa232
	.byte	0
	.uleb128 0xc
	.long	.LASF433
	.long	0xa034
	.uleb128 0xc
	.long	.LASF999
	.long	0x3706
	.byte	0
	.uleb128 0x7
	.long	0x89f8
	.uleb128 0x2d
	.long	.LASF1043
	.uleb128 0x1a
	.long	.LASF1044
	.byte	0x1
	.byte	0x2e
	.byte	0x2f
	.byte	0xa
	.long	0x8d07
	.uleb128 0x5
	.byte	0x2e
	.byte	0x2f
	.byte	0xa
	.long	0x4548
	.uleb128 0x5
	.byte	0x2e
	.byte	0x2f
	.byte	0xa
	.long	0x4509
	.uleb128 0x5
	.byte	0x2e
	.byte	0x2f
	.byte	0xa
	.long	0x457a
	.uleb128 0x5
	.byte	0x2e
	.byte	0x2f
	.byte	0xa
	.long	0x459b
	.uleb128 0x31
	.long	0x44ee
	.uleb128 0x2e
	.long	.LASF956
	.byte	0x2e
	.byte	0x63
	.byte	0x1d
	.long	.LASF1045
	.long	0x4465
	.long	0x8c44
	.uleb128 0x1
	.long	0xa16f
	.byte	0
	.uleb128 0x49
	.long	.LASF958
	.byte	0x2e
	.byte	0x67
	.byte	0x26
	.long	.LASF1046
	.long	0x8c5f
	.uleb128 0x1
	.long	0xa174
	.uleb128 0x1
	.long	0xa174
	.byte	0
	.uleb128 0x2f
	.long	.LASF960
	.byte	0x6b
	.long	.LASF1047
	.long	0x8f23
	.uleb128 0x2f
	.long	.LASF962
	.byte	0x6f
	.long	.LASF1048
	.long	0x8f23
	.uleb128 0x2f
	.long	.LASF964
	.byte	0x73
	.long	.LASF1049
	.long	0x8f23
	.uleb128 0x2f
	.long	.LASF966
	.byte	0x77
	.long	.LASF1050
	.long	0x8f23
	.uleb128 0x2f
	.long	.LASF968
	.byte	0x7b
	.long	.LASF1051
	.long	0x8f23
	.uleb128 0x9
	.long	.LASF5
	.byte	0x2e
	.byte	0x37
	.byte	0x35
	.long	0x45d1
	.uleb128 0x7
	.long	0x8ca5
	.uleb128 0x9
	.long	.LASF68
	.byte	0x2e
	.byte	0x38
	.byte	0x35
	.long	0x44fc
	.uleb128 0x9
	.long	.LASF69
	.byte	0x2e
	.byte	0x3d
	.byte	0x35
	.long	0xa183
	.uleb128 0x9
	.long	.LASF72
	.byte	0x2e
	.byte	0x3e
	.byte	0x35
	.long	0xa188
	.uleb128 0x1a
	.long	.LASF1052
	.byte	0x1
	.byte	0x2e
	.byte	0x7f
	.byte	0xe
	.long	0x8cfd
	.uleb128 0x9
	.long	.LASF971
	.byte	0x2e
	.byte	0x80
	.byte	0x41
	.long	0x45de
	.uleb128 0x11
	.string	"_Tp"
	.long	0x48
	.byte	0
	.uleb128 0xc
	.long	.LASF139
	.long	0x4465
	.byte	0
	.uleb128 0x2d
	.long	.LASF1053
	.uleb128 0x2d
	.long	.LASF1054
	.uleb128 0x1a
	.long	.LASF1055
	.byte	0x1
	.byte	0x2e
	.byte	0x2f
	.byte	0xa
	.long	0x8e20
	.uleb128 0x5
	.byte	0x2e
	.byte	0x2f
	.byte	0xa
	.long	0x5930
	.uleb128 0x5
	.byte	0x2e
	.byte	0x2f
	.byte	0xa
	.long	0x58f1
	.uleb128 0x5
	.byte	0x2e
	.byte	0x2f
	.byte	0xa
	.long	0x5962
	.uleb128 0x5
	.byte	0x2e
	.byte	0x2f
	.byte	0xa
	.long	0x5983
	.uleb128 0x31
	.long	0x58d6
	.uleb128 0x2e
	.long	.LASF956
	.byte	0x2e
	.byte	0x63
	.byte	0x1d
	.long	.LASF1056
	.long	0x584d
	.long	0x8d5d
	.uleb128 0x1
	.long	0xa282
	.byte	0
	.uleb128 0x49
	.long	.LASF958
	.byte	0x2e
	.byte	0x67
	.byte	0x26
	.long	.LASF1057
	.long	0x8d78
	.uleb128 0x1
	.long	0xa287
	.uleb128 0x1
	.long	0xa287
	.byte	0
	.uleb128 0x2f
	.long	.LASF960
	.byte	0x6b
	.long	.LASF1058
	.long	0x8f23
	.uleb128 0x2f
	.long	.LASF962
	.byte	0x6f
	.long	.LASF1059
	.long	0x8f23
	.uleb128 0x2f
	.long	.LASF964
	.byte	0x73
	.long	.LASF1060
	.long	0x8f23
	.uleb128 0x2f
	.long	.LASF966
	.byte	0x77
	.long	.LASF1061
	.long	0x8f23
	.uleb128 0x2f
	.long	.LASF968
	.byte	0x7b
	.long	.LASF1062
	.long	0x8f23
	.uleb128 0x9
	.long	.LASF5
	.byte	0x2e
	.byte	0x37
	.byte	0x35
	.long	0x59b9
	.uleb128 0x7
	.long	0x8dbe
	.uleb128 0x9
	.long	.LASF68
	.byte	0x2e
	.byte	0x38
	.byte	0x35
	.long	0x58e4
	.uleb128 0x9
	.long	.LASF69
	.byte	0x2e
	.byte	0x3d
	.byte	0x35
	.long	0xa296
	.uleb128 0x9
	.long	.LASF72
	.byte	0x2e
	.byte	0x3e
	.byte	0x35
	.long	0xa29b
	.uleb128 0x1a
	.long	.LASF1063
	.byte	0x1
	.byte	0x2e
	.byte	0x7f
	.byte	0xe
	.long	0x8e16
	.uleb128 0x9
	.long	.LASF971
	.byte	0x2e
	.byte	0x80
	.byte	0x41
	.long	0x59c6
	.uleb128 0x11
	.string	"_Tp"
	.long	0x30
	.byte	0
	.uleb128 0xc
	.long	.LASF139
	.long	0x584d
	.byte	0
	.uleb128 0x2d
	.long	.LASF1064
	.uleb128 0x2d
	.long	.LASF1065
	.uleb128 0x42
	.long	.LASF1066
	.byte	0x3
	.value	0x4dd
	.byte	0x7
	.long	0x8f23
	.long	0x8e46
	.uleb128 0x1
	.long	0x10094
	.uleb128 0x1
	.long	0x10094
	.byte	0
	.uleb128 0x8e
	.long	.LASF1066
	.byte	0x3
	.value	0x4dd
	.byte	0x7
	.long	.LASF1067
	.long	0x8f23
	.uleb128 0x1
	.long	0x100ee
	.uleb128 0x1
	.long	0x100ee
	.byte	0
	.byte	0
	.uleb128 0x15
	.long	.LASF1068
	.byte	0x2c
	.value	0x199
	.byte	0x14
	.long	0x8e80
	.long	0x8e80
	.uleb128 0x1
	.long	0x77f3
	.uleb128 0x1
	.long	0x7cc2
	.byte	0
	.uleb128 0x2a
	.byte	0x10
	.byte	0x4
	.long	.LASF1069
	.uleb128 0x17
	.long	.LASF1070
	.byte	0x2c
	.value	0x1fc
	.byte	0x16
	.long	.LASF1071
	.long	0x8eac
	.long	0x8eac
	.uleb128 0x1
	.long	0x77f3
	.uleb128 0x1
	.long	0x7cc2
	.uleb128 0x1
	.long	0x48
	.byte	0
	.uleb128 0x2a
	.byte	0x8
	.byte	0x5
	.long	.LASF1072
	.uleb128 0x17
	.long	.LASF1073
	.byte	0x2c
	.value	0x201
	.byte	0x1f
	.long	.LASF1074
	.long	0x8ed8
	.long	0x8ed8
	.uleb128 0x1
	.long	0x77f3
	.uleb128 0x1
	.long	0x7cc2
	.uleb128 0x1
	.long	0x48
	.byte	0
	.uleb128 0x2a
	.byte	0x8
	.byte	0x7
	.long	.LASF1075
	.uleb128 0xb5
	.byte	0x20
	.byte	0x10
	.byte	0x24
	.value	0x1b8
	.byte	0x10
	.long	.LASF1416
	.long	0x8f0e
	.uleb128 0x92
	.long	.LASF1076
	.value	0x1b9
	.byte	0xd
	.long	0x8eac
	.byte	0x8
	.byte	0
	.uleb128 0x92
	.long	.LASF1077
	.value	0x1ba
	.byte	0xf
	.long	0x8e80
	.byte	0x10
	.byte	0x10
	.byte	0
	.uleb128 0xb6
	.long	.LASF1078
	.byte	0x24
	.value	0x1c3
	.byte	0x3
	.long	0x8edf
	.byte	0x10
	.uleb128 0xb7
	.long	.LASF1417
	.uleb128 0x2a
	.byte	0x1
	.byte	0x2
	.long	.LASF1079
	.uleb128 0x7
	.long	0x8f23
	.uleb128 0xd
	.long	0x330
	.uleb128 0xd
	.long	0x39e
	.uleb128 0x2a
	.byte	0x1
	.byte	0x8
	.long	.LASF1080
	.uleb128 0x7
	.long	0x8f39
	.uleb128 0x2a
	.byte	0x10
	.byte	0x7
	.long	.LASF1081
	.uleb128 0x2a
	.byte	0x1
	.byte	0x6
	.long	.LASF1082
	.uleb128 0x2a
	.byte	0x2
	.byte	0x5
	.long	.LASF1083
	.uleb128 0x2a
	.byte	0x10
	.byte	0x5
	.long	.LASF1084
	.uleb128 0x2a
	.byte	0x2
	.byte	0x10
	.long	.LASF1085
	.uleb128 0x2a
	.byte	0x4
	.byte	0x10
	.long	.LASF1086
	.uleb128 0xd
	.long	0x3d5
	.uleb128 0xd
	.long	0x5bd
	.uleb128 0xd
	.long	0x8f7e
	.uleb128 0xb8
	.uleb128 0xa
	.long	0x608
	.uleb128 0xa
	.long	0x5bd
	.uleb128 0x25
	.long	0x3d5
	.uleb128 0xa
	.long	0x3d5
	.uleb128 0xd
	.long	0x608
	.uleb128 0x1a
	.long	.LASF1087
	.byte	0x60
	.byte	0x2f
	.byte	0x33
	.byte	0x8
	.long	0x90df
	.uleb128 0xe
	.long	.LASF1088
	.byte	0x2f
	.byte	0x37
	.byte	0x9
	.long	0x37
	.byte	0
	.uleb128 0xe
	.long	.LASF1089
	.byte	0x2f
	.byte	0x38
	.byte	0x9
	.long	0x37
	.byte	0x8
	.uleb128 0xe
	.long	.LASF1090
	.byte	0x2f
	.byte	0x3e
	.byte	0x9
	.long	0x37
	.byte	0x10
	.uleb128 0xe
	.long	.LASF1091
	.byte	0x2f
	.byte	0x44
	.byte	0x9
	.long	0x37
	.byte	0x18
	.uleb128 0xe
	.long	.LASF1092
	.byte	0x2f
	.byte	0x45
	.byte	0x9
	.long	0x37
	.byte	0x20
	.uleb128 0xe
	.long	.LASF1093
	.byte	0x2f
	.byte	0x46
	.byte	0x9
	.long	0x37
	.byte	0x28
	.uleb128 0xe
	.long	.LASF1094
	.byte	0x2f
	.byte	0x47
	.byte	0x9
	.long	0x37
	.byte	0x30
	.uleb128 0xe
	.long	.LASF1095
	.byte	0x2f
	.byte	0x48
	.byte	0x9
	.long	0x37
	.byte	0x38
	.uleb128 0xe
	.long	.LASF1096
	.byte	0x2f
	.byte	0x49
	.byte	0x9
	.long	0x37
	.byte	0x40
	.uleb128 0xe
	.long	.LASF1097
	.byte	0x2f
	.byte	0x4a
	.byte	0x9
	.long	0x37
	.byte	0x48
	.uleb128 0xe
	.long	.LASF1098
	.byte	0x2f
	.byte	0x4b
	.byte	0x8
	.long	0x3c
	.byte	0x50
	.uleb128 0xe
	.long	.LASF1099
	.byte	0x2f
	.byte	0x4c
	.byte	0x8
	.long	0x3c
	.byte	0x51
	.uleb128 0xe
	.long	.LASF1100
	.byte	0x2f
	.byte	0x4e
	.byte	0x8
	.long	0x3c
	.byte	0x52
	.uleb128 0xe
	.long	.LASF1101
	.byte	0x2f
	.byte	0x50
	.byte	0x8
	.long	0x3c
	.byte	0x53
	.uleb128 0xe
	.long	.LASF1102
	.byte	0x2f
	.byte	0x52
	.byte	0x8
	.long	0x3c
	.byte	0x54
	.uleb128 0xe
	.long	.LASF1103
	.byte	0x2f
	.byte	0x54
	.byte	0x8
	.long	0x3c
	.byte	0x55
	.uleb128 0xe
	.long	.LASF1104
	.byte	0x2f
	.byte	0x5b
	.byte	0x8
	.long	0x3c
	.byte	0x56
	.uleb128 0xe
	.long	.LASF1105
	.byte	0x2f
	.byte	0x5c
	.byte	0x8
	.long	0x3c
	.byte	0x57
	.uleb128 0xe
	.long	.LASF1106
	.byte	0x2f
	.byte	0x5f
	.byte	0x8
	.long	0x3c
	.byte	0x58
	.uleb128 0xe
	.long	.LASF1107
	.byte	0x2f
	.byte	0x61
	.byte	0x8
	.long	0x3c
	.byte	0x59
	.uleb128 0xe
	.long	.LASF1108
	.byte	0x2f
	.byte	0x63
	.byte	0x8
	.long	0x3c
	.byte	0x5a
	.uleb128 0xe
	.long	.LASF1109
	.byte	0x2f
	.byte	0x65
	.byte	0x8
	.long	0x3c
	.byte	0x5b
	.uleb128 0xe
	.long	.LASF1110
	.byte	0x2f
	.byte	0x6c
	.byte	0x8
	.long	0x3c
	.byte	0x5c
	.uleb128 0xe
	.long	.LASF1111
	.byte	0x2f
	.byte	0x6d
	.byte	0x8
	.long	0x3c
	.byte	0x5d
	.byte	0
	.uleb128 0x21
	.long	.LASF1112
	.byte	0x2f
	.byte	0x7a
	.byte	0xe
	.long	0x37
	.long	0x90fa
	.uleb128 0x1
	.long	0x48
	.uleb128 0x1
	.long	0x7751
	.byte	0
	.uleb128 0x6b
	.long	.LASF1114
	.byte	0x2f
	.byte	0x7d
	.byte	0x16
	.long	0x9106
	.uleb128 0xd
	.long	0x8f99
	.uleb128 0x9
	.long	.LASF1115
	.byte	0x30
	.byte	0x25
	.byte	0x15
	.long	0x8f4c
	.uleb128 0x9
	.long	.LASF1116
	.byte	0x30
	.byte	0x26
	.byte	0x17
	.long	0x8f39
	.uleb128 0x9
	.long	.LASF1117
	.byte	0x30
	.byte	0x27
	.byte	0x1a
	.long	0x8f53
	.uleb128 0x9
	.long	.LASF1118
	.byte	0x30
	.byte	0x28
	.byte	0x1c
	.long	0x7745
	.uleb128 0x9
	.long	.LASF1119
	.byte	0x30
	.byte	0x29
	.byte	0x14
	.long	0x48
	.uleb128 0x7
	.long	0x913b
	.uleb128 0x9
	.long	.LASF1120
	.byte	0x30
	.byte	0x2a
	.byte	0x16
	.long	0x7508
	.uleb128 0x9
	.long	.LASF1121
	.byte	0x30
	.byte	0x2c
	.byte	0x19
	.long	0x7d2d
	.uleb128 0x9
	.long	.LASF1122
	.byte	0x30
	.byte	0x2d
	.byte	0x1b
	.long	0x74c6
	.uleb128 0x9
	.long	.LASF1123
	.byte	0x30
	.byte	0x34
	.byte	0x12
	.long	0x910b
	.uleb128 0x9
	.long	.LASF1124
	.byte	0x30
	.byte	0x35
	.byte	0x13
	.long	0x9117
	.uleb128 0x9
	.long	.LASF1125
	.byte	0x30
	.byte	0x36
	.byte	0x13
	.long	0x9123
	.uleb128 0x9
	.long	.LASF1126
	.byte	0x30
	.byte	0x37
	.byte	0x14
	.long	0x912f
	.uleb128 0x9
	.long	.LASF1127
	.byte	0x30
	.byte	0x38
	.byte	0x13
	.long	0x913b
	.uleb128 0x9
	.long	.LASF1128
	.byte	0x30
	.byte	0x39
	.byte	0x14
	.long	0x914c
	.uleb128 0x9
	.long	.LASF1129
	.byte	0x30
	.byte	0x3a
	.byte	0x13
	.long	0x9158
	.uleb128 0x9
	.long	.LASF1130
	.byte	0x30
	.byte	0x3b
	.byte	0x14
	.long	0x9164
	.uleb128 0x9
	.long	.LASF1131
	.byte	0x30
	.byte	0x48
	.byte	0x12
	.long	0x7d2d
	.uleb128 0x9
	.long	.LASF1132
	.byte	0x30
	.byte	0x49
	.byte	0x1b
	.long	0x74c6
	.uleb128 0x9
	.long	.LASF1133
	.byte	0x30
	.byte	0x98
	.byte	0x19
	.long	0x7d2d
	.uleb128 0x9
	.long	.LASF1134
	.byte	0x30
	.byte	0x99
	.byte	0x1b
	.long	0x7d2d
	.uleb128 0x9
	.long	.LASF1135
	.byte	0x30
	.byte	0x9c
	.byte	0x1b
	.long	0x7d2d
	.uleb128 0x9
	.long	.LASF1136
	.byte	0x30
	.byte	0xa0
	.byte	0x1a
	.long	0x7d2d
	.uleb128 0x9
	.long	.LASF1137
	.byte	0x30
	.byte	0xc5
	.byte	0x21
	.long	0x7d2d
	.uleb128 0x91
	.long	.LASF1138
	.byte	0x3
	.value	0xbb4
	.long	0x923b
	.uleb128 0xb9
	.byte	0x14
	.byte	0x3a
	.byte	0x18
	.long	0x6a3
	.byte	0
	.uleb128 0x69
	.byte	0x8
	.byte	0x31
	.byte	0x3c
	.byte	0x3
	.long	.LASF1140
	.long	0x9263
	.uleb128 0xe
	.long	.LASF1141
	.byte	0x31
	.byte	0x3d
	.byte	0x9
	.long	0x48
	.byte	0
	.uleb128 0x43
	.string	"rem"
	.byte	0x31
	.byte	0x3e
	.byte	0x9
	.long	0x48
	.byte	0x4
	.byte	0
	.uleb128 0x9
	.long	.LASF1142
	.byte	0x31
	.byte	0x3f
	.byte	0x5
	.long	0x923b
	.uleb128 0x69
	.byte	0x10
	.byte	0x31
	.byte	0x44
	.byte	0x3
	.long	.LASF1143
	.long	0x9297
	.uleb128 0xe
	.long	.LASF1141
	.byte	0x31
	.byte	0x45
	.byte	0xe
	.long	0x7d2d
	.byte	0
	.uleb128 0x43
	.string	"rem"
	.byte	0x31
	.byte	0x46
	.byte	0xe
	.long	0x7d2d
	.byte	0x8
	.byte	0
	.uleb128 0x9
	.long	.LASF1144
	.byte	0x31
	.byte	0x47
	.byte	0x5
	.long	0x926f
	.uleb128 0x69
	.byte	0x10
	.byte	0x31
	.byte	0x4e
	.byte	0x3
	.long	.LASF1145
	.long	0x92cb
	.uleb128 0xe
	.long	.LASF1141
	.byte	0x31
	.byte	0x4f
	.byte	0x13
	.long	0x8eac
	.byte	0
	.uleb128 0x43
	.string	"rem"
	.byte	0x31
	.byte	0x50
	.byte	0x13
	.long	0x8eac
	.byte	0x8
	.byte	0
	.uleb128 0x9
	.long	.LASF1146
	.byte	0x31
	.byte	0x51
	.byte	0x5
	.long	0x92a3
	.uleb128 0x9
	.long	.LASF1147
	.byte	0x32
	.byte	0x7
	.byte	0x13
	.long	0x9200
	.uleb128 0x9
	.long	.LASF1148
	.byte	0x33
	.byte	0xa
	.byte	0x12
	.long	0x920c
	.uleb128 0x7
	.long	0x92e3
	.uleb128 0x9
	.long	.LASF1149
	.byte	0x34
	.byte	0x18
	.byte	0x12
	.long	0x910b
	.uleb128 0x9
	.long	.LASF1150
	.byte	0x34
	.byte	0x19
	.byte	0x13
	.long	0x9123
	.uleb128 0x9
	.long	.LASF1151
	.byte	0x34
	.byte	0x1a
	.byte	0x13
	.long	0x913b
	.uleb128 0x9
	.long	.LASF1152
	.byte	0x34
	.byte	0x1b
	.byte	0x13
	.long	0x9158
	.uleb128 0x1a
	.long	.LASF1153
	.byte	0x10
	.byte	0x35
	.byte	0xb
	.byte	0x8
	.long	0x934c
	.uleb128 0xe
	.long	.LASF1154
	.byte	0x35
	.byte	0x10
	.byte	0xc
	.long	0x920c
	.byte	0
	.uleb128 0xe
	.long	.LASF1155
	.byte	0x35
	.byte	0x15
	.byte	0x15
	.long	0x9218
	.byte	0x8
	.byte	0
	.uleb128 0x1c
	.long	.LASF1156
	.byte	0x31
	.value	0x3b4
	.byte	0xf
	.long	0x9359
	.uleb128 0xd
	.long	0x935e
	.uleb128 0xba
	.long	0x48
	.long	0x9373
	.uleb128 0x1
	.long	0x8f79
	.uleb128 0x1
	.long	0x8f79
	.byte	0
	.uleb128 0x15
	.long	.LASF1157
	.byte	0x31
	.value	0x2de
	.byte	0xc
	.long	0x48
	.long	0x938a
	.uleb128 0x1
	.long	0x938a
	.byte	0
	.uleb128 0xd
	.long	0x938f
	.uleb128 0xbb
	.uleb128 0x17
	.long	.LASF1158
	.byte	0x31
	.value	0x2e3
	.byte	0x12
	.long	.LASF1158
	.long	0x48
	.long	0x93ac
	.uleb128 0x1
	.long	0x938a
	.byte	0
	.uleb128 0x21
	.long	.LASF1159
	.byte	0x36
	.byte	0x19
	.byte	0x1
	.long	0x7cbb
	.long	0x93c2
	.uleb128 0x1
	.long	0x7751
	.byte	0
	.uleb128 0x15
	.long	.LASF1160
	.byte	0x31
	.value	0x1e1
	.byte	0x1
	.long	0x48
	.long	0x93d9
	.uleb128 0x1
	.long	0x7751
	.byte	0
	.uleb128 0x15
	.long	.LASF1161
	.byte	0x31
	.value	0x1e6
	.byte	0x1
	.long	0x7d2d
	.long	0x93f0
	.uleb128 0x1
	.long	0x7751
	.byte	0
	.uleb128 0x21
	.long	.LASF1162
	.byte	0x37
	.byte	0x14
	.byte	0x1
	.long	0x750f
	.long	0x941a
	.uleb128 0x1
	.long	0x8f79
	.uleb128 0x1
	.long	0x8f79
	.uleb128 0x1
	.long	0x74b5
	.uleb128 0x1
	.long	0x74b5
	.uleb128 0x1
	.long	0x934c
	.byte	0
	.uleb128 0xbc
	.string	"div"
	.byte	0x31
	.value	0x3e0
	.byte	0xe
	.long	0x9263
	.long	0x9437
	.uleb128 0x1
	.long	0x48
	.uleb128 0x1
	.long	0x48
	.byte	0
	.uleb128 0x15
	.long	.LASF1163
	.byte	0x31
	.value	0x305
	.byte	0xe
	.long	0x37
	.long	0x944e
	.uleb128 0x1
	.long	0x7751
	.byte	0
	.uleb128 0x15
	.long	.LASF1164
	.byte	0x31
	.value	0x3e2
	.byte	0xf
	.long	0x9297
	.long	0x946a
	.uleb128 0x1
	.long	0x7d2d
	.uleb128 0x1
	.long	0x7d2d
	.byte	0
	.uleb128 0x15
	.long	.LASF1165
	.byte	0x31
	.value	0x426
	.byte	0xc
	.long	0x48
	.long	0x9486
	.uleb128 0x1
	.long	0x7751
	.uleb128 0x1
	.long	0x74b5
	.byte	0
	.uleb128 0x15
	.long	.LASF1166
	.byte	0x31
	.value	0x431
	.byte	0xf
	.long	0x74b5
	.long	0x94a7
	.uleb128 0x1
	.long	0x77aa
	.uleb128 0x1
	.long	0x7751
	.uleb128 0x1
	.long	0x74b5
	.byte	0
	.uleb128 0x15
	.long	.LASF1167
	.byte	0x31
	.value	0x429
	.byte	0xc
	.long	0x48
	.long	0x94c8
	.uleb128 0x1
	.long	0x77aa
	.uleb128 0x1
	.long	0x7751
	.uleb128 0x1
	.long	0x74b5
	.byte	0
	.uleb128 0x5b
	.long	.LASF1168
	.byte	0x31
	.value	0x3ca
	.long	0x94e9
	.uleb128 0x1
	.long	0x750f
	.uleb128 0x1
	.long	0x74b5
	.uleb128 0x1
	.long	0x74b5
	.uleb128 0x1
	.long	0x934c
	.byte	0
	.uleb128 0xbd
	.long	.LASF1169
	.byte	0x31
	.value	0x2fa
	.byte	0xd
	.long	0x94fd
	.uleb128 0x1
	.long	0x48
	.byte	0
	.uleb128 0x90
	.long	.LASF1170
	.byte	0x31
	.value	0x23d
	.byte	0xc
	.long	0x48
	.uleb128 0x5b
	.long	.LASF1171
	.byte	0x31
	.value	0x23f
	.long	0x951d
	.uleb128 0x1
	.long	0x7508
	.byte	0
	.uleb128 0x21
	.long	.LASF1172
	.byte	0x31
	.byte	0x76
	.byte	0xf
	.long	0x7cbb
	.long	0x9538
	.uleb128 0x1
	.long	0x7751
	.uleb128 0x1
	.long	0x9538
	.byte	0
	.uleb128 0xd
	.long	0x37
	.uleb128 0x2e
	.long	.LASF1173
	.byte	0x31
	.byte	0xd7
	.byte	0x11
	.long	.LASF1174
	.long	0x7d2d
	.long	0x9561
	.uleb128 0x1
	.long	0x7751
	.uleb128 0x1
	.long	0x9538
	.uleb128 0x1
	.long	0x48
	.byte	0
	.uleb128 0x2e
	.long	.LASF1175
	.byte	0x31
	.byte	0xdb
	.byte	0x1a
	.long	.LASF1176
	.long	0x74c6
	.long	0x9585
	.uleb128 0x1
	.long	0x7751
	.uleb128 0x1
	.long	0x9538
	.uleb128 0x1
	.long	0x48
	.byte	0
	.uleb128 0x15
	.long	.LASF1177
	.byte	0x31
	.value	0x39b
	.byte	0xc
	.long	0x48
	.long	0x959c
	.uleb128 0x1
	.long	0x7751
	.byte	0
	.uleb128 0x15
	.long	.LASF1178
	.byte	0x31
	.value	0x435
	.byte	0xf
	.long	0x74b5
	.long	0x95bd
	.uleb128 0x1
	.long	0x37
	.uleb128 0x1
	.long	0x77f3
	.uleb128 0x1
	.long	0x74b5
	.byte	0
	.uleb128 0x15
	.long	.LASF1179
	.byte	0x31
	.value	0x42d
	.byte	0xc
	.long	0x48
	.long	0x95d9
	.uleb128 0x1
	.long	0x37
	.uleb128 0x1
	.long	0x77af
	.byte	0
	.uleb128 0x15
	.long	.LASF1180
	.byte	0x31
	.value	0x3e6
	.byte	0x1e
	.long	0x92cb
	.long	0x95f5
	.uleb128 0x1
	.long	0x8eac
	.uleb128 0x1
	.long	0x8eac
	.byte	0
	.uleb128 0x15
	.long	.LASF1181
	.byte	0x31
	.value	0x1ed
	.byte	0x1
	.long	0x8eac
	.long	0x960c
	.uleb128 0x1
	.long	0x7751
	.byte	0
	.uleb128 0x2e
	.long	.LASF1182
	.byte	0x31
	.byte	0xee
	.byte	0x16
	.long	.LASF1183
	.long	0x8eac
	.long	0x9630
	.uleb128 0x1
	.long	0x7751
	.uleb128 0x1
	.long	0x9538
	.uleb128 0x1
	.long	0x48
	.byte	0
	.uleb128 0x2e
	.long	.LASF1184
	.byte	0x31
	.byte	0xf3
	.byte	0x1f
	.long	.LASF1185
	.long	0x8ed8
	.long	0x9654
	.uleb128 0x1
	.long	0x7751
	.uleb128 0x1
	.long	0x9538
	.uleb128 0x1
	.long	0x48
	.byte	0
	.uleb128 0x21
	.long	.LASF1186
	.byte	0x31
	.byte	0x7c
	.byte	0xe
	.long	0x30
	.long	0x966f
	.uleb128 0x1
	.long	0x7751
	.uleb128 0x1
	.long	0x9538
	.byte	0
	.uleb128 0x21
	.long	.LASF1187
	.byte	0x31
	.byte	0x7f
	.byte	0x14
	.long	0x8e80
	.long	0x968a
	.uleb128 0x1
	.long	0x7751
	.uleb128 0x1
	.long	0x9538
	.byte	0
	.uleb128 0x1a
	.long	.LASF1188
	.byte	0x10
	.byte	0x38
	.byte	0xa
	.byte	0x10
	.long	0x96b2
	.uleb128 0xe
	.long	.LASF1189
	.byte	0x38
	.byte	0xc
	.byte	0xb
	.long	0x91e8
	.byte	0
	.uleb128 0xe
	.long	.LASF1190
	.byte	0x38
	.byte	0xd
	.byte	0xf
	.long	0x7579
	.byte	0x8
	.byte	0
	.uleb128 0x9
	.long	.LASF1191
	.byte	0x38
	.byte	0xe
	.byte	0x3
	.long	0x968a
	.uleb128 0xbe
	.long	.LASF1418
	.byte	0x2a
	.byte	0x2c
	.byte	0xe
	.uleb128 0x7a
	.long	.LASF1192
	.uleb128 0xd
	.long	0x96c7
	.uleb128 0xd
	.long	0x75a2
	.uleb128 0x77
	.long	0x3c
	.long	0x96e6
	.uleb128 0x78
	.long	0x74c6
	.byte	0
	.byte	0
	.uleb128 0xd
	.long	0x96be
	.uleb128 0x7a
	.long	.LASF1193
	.uleb128 0xd
	.long	0x96eb
	.uleb128 0x7a
	.long	.LASF1194
	.uleb128 0xd
	.long	0x96f5
	.uleb128 0xd
	.long	0x96d1
	.uleb128 0x77
	.long	0x3c
	.long	0x9714
	.uleb128 0x78
	.long	0x74c6
	.byte	0x13
	.byte	0
	.uleb128 0x9
	.long	.LASF1195
	.byte	0x39
	.byte	0x55
	.byte	0x12
	.long	0x96b2
	.uleb128 0x7
	.long	0x9714
	.uleb128 0xd
	.long	0x7739
	.uleb128 0x5b
	.long	.LASF1196
	.byte	0x39
	.value	0x352
	.long	0x973c
	.uleb128 0x1
	.long	0x9725
	.byte	0
	.uleb128 0x21
	.long	.LASF1197
	.byte	0x39
	.byte	0xb8
	.byte	0xc
	.long	0x48
	.long	0x9752
	.uleb128 0x1
	.long	0x9725
	.byte	0
	.uleb128 0x15
	.long	.LASF1198
	.byte	0x39
	.value	0x354
	.byte	0xc
	.long	0x48
	.long	0x9769
	.uleb128 0x1
	.long	0x9725
	.byte	0
	.uleb128 0x15
	.long	.LASF1199
	.byte	0x39
	.value	0x356
	.byte	0xc
	.long	0x48
	.long	0x9780
	.uleb128 0x1
	.long	0x9725
	.byte	0
	.uleb128 0x21
	.long	.LASF1200
	.byte	0x39
	.byte	0xec
	.byte	0xc
	.long	0x48
	.long	0x9796
	.uleb128 0x1
	.long	0x9725
	.byte	0
	.uleb128 0x15
	.long	.LASF1201
	.byte	0x39
	.value	0x23f
	.byte	0xc
	.long	0x48
	.long	0x97ad
	.uleb128 0x1
	.long	0x9725
	.byte	0
	.uleb128 0x15
	.long	.LASF1202
	.byte	0x39
	.value	0x333
	.byte	0xc
	.long	0x48
	.long	0x97c9
	.uleb128 0x1
	.long	0x9725
	.uleb128 0x1
	.long	0x97c9
	.byte	0
	.uleb128 0xd
	.long	0x9714
	.uleb128 0x15
	.long	.LASF1203
	.byte	0x39
	.value	0x28e
	.byte	0xe
	.long	0x37
	.long	0x97ef
	.uleb128 0x1
	.long	0x37
	.uleb128 0x1
	.long	0x48
	.uleb128 0x1
	.long	0x9725
	.byte	0
	.uleb128 0x15
	.long	.LASF1204
	.byte	0x39
	.value	0x108
	.byte	0xe
	.long	0x9725
	.long	0x980b
	.uleb128 0x1
	.long	0x7751
	.uleb128 0x1
	.long	0x7751
	.byte	0
	.uleb128 0x15
	.long	.LASF1205
	.byte	0x39
	.value	0x2d8
	.byte	0xf
	.long	0x74b5
	.long	0x9831
	.uleb128 0x1
	.long	0x750f
	.uleb128 0x1
	.long	0x74b5
	.uleb128 0x1
	.long	0x74b5
	.uleb128 0x1
	.long	0x9725
	.byte	0
	.uleb128 0x15
	.long	.LASF1206
	.byte	0x39
	.value	0x10f
	.byte	0xe
	.long	0x9725
	.long	0x9852
	.uleb128 0x1
	.long	0x7751
	.uleb128 0x1
	.long	0x7751
	.uleb128 0x1
	.long	0x9725
	.byte	0
	.uleb128 0x15
	.long	.LASF1207
	.byte	0x39
	.value	0x301
	.byte	0xc
	.long	0x48
	.long	0x9873
	.uleb128 0x1
	.long	0x9725
	.uleb128 0x1
	.long	0x7d2d
	.uleb128 0x1
	.long	0x48
	.byte	0
	.uleb128 0x15
	.long	.LASF1208
	.byte	0x39
	.value	0x339
	.byte	0xc
	.long	0x48
	.long	0x988f
	.uleb128 0x1
	.long	0x9725
	.uleb128 0x1
	.long	0x988f
	.byte	0
	.uleb128 0xd
	.long	0x9720
	.uleb128 0x15
	.long	.LASF1209
	.byte	0x39
	.value	0x307
	.byte	0x11
	.long	0x7d2d
	.long	0x98ab
	.uleb128 0x1
	.long	0x9725
	.byte	0
	.uleb128 0x15
	.long	.LASF1210
	.byte	0x39
	.value	0x240
	.byte	0xc
	.long	0x48
	.long	0x98c2
	.uleb128 0x1
	.long	0x9725
	.byte	0
	.uleb128 0x6b
	.long	.LASF1211
	.byte	0x3a
	.byte	0x2f
	.byte	0x1
	.long	0x48
	.uleb128 0x5b
	.long	.LASF1212
	.byte	0x39
	.value	0x364
	.long	0x98e0
	.uleb128 0x1
	.long	0x7751
	.byte	0
	.uleb128 0x21
	.long	.LASF1213
	.byte	0x39
	.byte	0x9e
	.byte	0xc
	.long	0x48
	.long	0x98f6
	.uleb128 0x1
	.long	0x7751
	.byte	0
	.uleb128 0x21
	.long	.LASF1214
	.byte	0x39
	.byte	0xa0
	.byte	0xc
	.long	0x48
	.long	0x9911
	.uleb128 0x1
	.long	0x7751
	.uleb128 0x1
	.long	0x7751
	.byte	0
	.uleb128 0x5b
	.long	.LASF1215
	.byte	0x39
	.value	0x30c
	.long	0x9923
	.uleb128 0x1
	.long	0x9725
	.byte	0
	.uleb128 0x5b
	.long	.LASF1216
	.byte	0x39
	.value	0x14e
	.long	0x993a
	.uleb128 0x1
	.long	0x9725
	.uleb128 0x1
	.long	0x37
	.byte	0
	.uleb128 0x15
	.long	.LASF1217
	.byte	0x39
	.value	0x153
	.byte	0xc
	.long	0x48
	.long	0x9960
	.uleb128 0x1
	.long	0x9725
	.uleb128 0x1
	.long	0x37
	.uleb128 0x1
	.long	0x48
	.uleb128 0x1
	.long	0x74b5
	.byte	0
	.uleb128 0x6b
	.long	.LASF1218
	.byte	0x39
	.byte	0xc2
	.byte	0xe
	.long	0x9725
	.uleb128 0x21
	.long	.LASF1219
	.byte	0x39
	.byte	0xd3
	.byte	0xe
	.long	0x37
	.long	0x9982
	.uleb128 0x1
	.long	0x37
	.byte	0
	.uleb128 0x15
	.long	.LASF1220
	.byte	0x39
	.value	0x2d1
	.byte	0xc
	.long	0x48
	.long	0x999e
	.uleb128 0x1
	.long	0x48
	.uleb128 0x1
	.long	0x9725
	.byte	0
	.uleb128 0x9
	.long	.LASF1221
	.byte	0x3b
	.byte	0x18
	.byte	0x13
	.long	0x9117
	.uleb128 0x9
	.long	.LASF1222
	.byte	0x3b
	.byte	0x19
	.byte	0x14
	.long	0x912f
	.uleb128 0x9
	.long	.LASF1223
	.byte	0x3b
	.byte	0x1a
	.byte	0x14
	.long	0x914c
	.uleb128 0x9
	.long	.LASF1224
	.byte	0x3b
	.byte	0x1b
	.byte	0x14
	.long	0x9164
	.uleb128 0x9
	.long	.LASF1225
	.byte	0x3c
	.byte	0x19
	.byte	0x18
	.long	0x9170
	.uleb128 0x9
	.long	.LASF1226
	.byte	0x3c
	.byte	0x1a
	.byte	0x19
	.long	0x9188
	.uleb128 0x9
	.long	.LASF1227
	.byte	0x3c
	.byte	0x1b
	.byte	0x19
	.long	0x91a0
	.uleb128 0x9
	.long	.LASF1228
	.byte	0x3c
	.byte	0x1c
	.byte	0x19
	.long	0x91b8
	.uleb128 0x9
	.long	.LASF1229
	.byte	0x3c
	.byte	0x1f
	.byte	0x19
	.long	0x917c
	.uleb128 0x9
	.long	.LASF1230
	.byte	0x3c
	.byte	0x20
	.byte	0x1a
	.long	0x9194
	.uleb128 0x9
	.long	.LASF1231
	.byte	0x3c
	.byte	0x21
	.byte	0x1a
	.long	0x91ac
	.uleb128 0x9
	.long	.LASF1232
	.byte	0x3c
	.byte	0x22
	.byte	0x1a
	.long	0x91c4
	.uleb128 0x9
	.long	.LASF1233
	.byte	0x3d
	.byte	0x2f
	.byte	0x16
	.long	0x8f4c
	.uleb128 0x9
	.long	.LASF1234
	.byte	0x3d
	.byte	0x31
	.byte	0x13
	.long	0x7d2d
	.uleb128 0x9
	.long	.LASF1235
	.byte	0x3d
	.byte	0x32
	.byte	0x13
	.long	0x7d2d
	.uleb128 0x9
	.long	.LASF1236
	.byte	0x3d
	.byte	0x33
	.byte	0x13
	.long	0x7d2d
	.uleb128 0x9
	.long	.LASF1237
	.byte	0x3d
	.byte	0x3c
	.byte	0x18
	.long	0x8f39
	.uleb128 0x9
	.long	.LASF1238
	.byte	0x3d
	.byte	0x3e
	.byte	0x1b
	.long	0x74c6
	.uleb128 0x9
	.long	.LASF1239
	.byte	0x3d
	.byte	0x3f
	.byte	0x1b
	.long	0x74c6
	.uleb128 0x9
	.long	.LASF1240
	.byte	0x3d
	.byte	0x40
	.byte	0x1b
	.long	0x74c6
	.uleb128 0x9
	.long	.LASF1241
	.byte	0x3d
	.byte	0x4c
	.byte	0x13
	.long	0x7d2d
	.uleb128 0x9
	.long	.LASF1242
	.byte	0x3d
	.byte	0x4f
	.byte	0x1b
	.long	0x74c6
	.uleb128 0x9
	.long	.LASF1243
	.byte	0x3d
	.byte	0x5a
	.byte	0x15
	.long	0x91d0
	.uleb128 0x9
	.long	.LASF1244
	.byte	0x3d
	.byte	0x5b
	.byte	0x16
	.long	0x91dc
	.uleb128 0x2a
	.byte	0x4
	.byte	0x4
	.long	.LASF1245
	.uleb128 0x2a
	.byte	0x8
	.byte	0x4
	.long	.LASF1246
	.uleb128 0x2a
	.byte	0x10
	.byte	0x4
	.long	.LASF1247
	.uleb128 0x2a
	.byte	0x10
	.byte	0x4
	.long	.LASF1248
	.uleb128 0x6b
	.long	.LASF1249
	.byte	0x3e
	.byte	0x48
	.byte	0x10
	.long	0x92d7
	.uleb128 0x21
	.long	.LASF1250
	.byte	0x3e
	.byte	0x4f
	.byte	0xf
	.long	0x7cbb
	.long	0x9b01
	.uleb128 0x1
	.long	0x92e3
	.uleb128 0x1
	.long	0x92e3
	.byte	0
	.uleb128 0x21
	.long	.LASF1251
	.byte	0x3e
	.byte	0x52
	.byte	0xf
	.long	0x92e3
	.long	0x9b17
	.uleb128 0x1
	.long	0x9b17
	.byte	0
	.uleb128 0xd
	.long	0x7b41
	.uleb128 0x21
	.long	.LASF1252
	.byte	0x3e
	.byte	0x4c
	.byte	0xf
	.long	0x92e3
	.long	0x9b32
	.uleb128 0x1
	.long	0x9b32
	.byte	0
	.uleb128 0xd
	.long	0x92e3
	.uleb128 0x21
	.long	.LASF1253
	.byte	0x3e
	.byte	0xb3
	.byte	0xe
	.long	0x37
	.long	0x9b4d
	.uleb128 0x1
	.long	0x7b3c
	.byte	0
	.uleb128 0x21
	.long	.LASF1254
	.byte	0x3e
	.byte	0xb7
	.byte	0xe
	.long	0x37
	.long	0x9b63
	.uleb128 0x1
	.long	0x9b63
	.byte	0
	.uleb128 0xd
	.long	0x92ef
	.uleb128 0x21
	.long	.LASF1255
	.byte	0x3e
	.byte	0x84
	.byte	0x13
	.long	0x9b17
	.long	0x9b7e
	.uleb128 0x1
	.long	0x9b63
	.byte	0
	.uleb128 0x21
	.long	.LASF1256
	.byte	0x3e
	.byte	0x88
	.byte	0x13
	.long	0x9b17
	.long	0x9b94
	.uleb128 0x1
	.long	0x9b63
	.byte	0
	.uleb128 0x15
	.long	.LASF1257
	.byte	0x3e
	.value	0x17f
	.byte	0xc
	.long	0x48
	.long	0x9bb0
	.uleb128 0x1
	.long	0x9bb0
	.uleb128 0x1
	.long	0x48
	.byte	0
	.uleb128 0xd
	.long	0x9324
	.uleb128 0x9
	.long	.LASF1258
	.byte	0x3f
	.byte	0x26
	.byte	0x1b
	.long	0x74c6
	.uleb128 0x9
	.long	.LASF1259
	.byte	0x40
	.byte	0x30
	.byte	0x1a
	.long	0x9bcd
	.uleb128 0xd
	.long	0x9147
	.uleb128 0x21
	.long	.LASF1260
	.byte	0x3f
	.byte	0x9f
	.byte	0xc
	.long	0x48
	.long	0x9bed
	.uleb128 0x1
	.long	0x7512
	.uleb128 0x1
	.long	0x9bb5
	.byte	0
	.uleb128 0x21
	.long	.LASF1261
	.byte	0x40
	.byte	0x37
	.byte	0xf
	.long	0x7512
	.long	0x9c08
	.uleb128 0x1
	.long	0x7512
	.uleb128 0x1
	.long	0x9bc1
	.byte	0
	.uleb128 0x21
	.long	.LASF1262
	.byte	0x40
	.byte	0x34
	.byte	0x12
	.long	0x9bc1
	.long	0x9c1e
	.uleb128 0x1
	.long	0x7751
	.byte	0
	.uleb128 0x21
	.long	.LASF1263
	.byte	0x3f
	.byte	0x9b
	.byte	0x11
	.long	0x9bb5
	.long	0x9c34
	.uleb128 0x1
	.long	0x7751
	.byte	0
	.uleb128 0x93
	.long	0x8034
	.uleb128 0xbf
	.string	"fs"
	.byte	0x4
	.byte	0x9
	.byte	0xb
	.long	0xa30
	.uleb128 0xd
	.long	0xaaf
	.uleb128 0x7
	.long	0x9c46
	.uleb128 0xa
	.long	0xc4d
	.uleb128 0xa
	.long	0xaaf
	.uleb128 0xd
	.long	0x8f39
	.uleb128 0x7
	.long	0x9c5a
	.uleb128 0xd
	.long	0xc4d
	.uleb128 0x7
	.long	0x9c64
	.uleb128 0xa
	.long	0x8f39
	.uleb128 0xd
	.long	0x8f40
	.uleb128 0xa
	.long	0x8f40
	.uleb128 0xd
	.long	0xc52
	.uleb128 0x7
	.long	0x9c7d
	.uleb128 0xa
	.long	0xcd6
	.uleb128 0xa
	.long	0xc52
	.uleb128 0xa
	.long	0xd16
	.uleb128 0xa
	.long	0xd23
	.uleb128 0xa
	.long	0x80f4
	.uleb128 0xa
	.long	0x8100
	.uleb128 0xd
	.long	0xde6
	.uleb128 0x7
	.long	0x9ca5
	.uleb128 0x25
	.long	0xde6
	.uleb128 0xa
	.long	0xe8c
	.uleb128 0xa
	.long	0xde6
	.uleb128 0xd
	.long	0xe9d
	.uleb128 0x7
	.long	0x9cbe
	.uleb128 0xa
	.long	0xf6f
	.uleb128 0x25
	.long	0xe9d
	.uleb128 0x25
	.long	0xf63
	.uleb128 0xa
	.long	0xf63
	.uleb128 0xd
	.long	0xdd9
	.uleb128 0x7
	.long	0x9cdc
	.uleb128 0xd
	.long	0x117a
	.uleb128 0xa
	.long	0xfbd
	.uleb128 0x25
	.long	0xdd9
	.uleb128 0xa
	.long	0x1265
	.uleb128 0xd
	.long	0x11a2
	.uleb128 0x7
	.long	0x9cfa
	.uleb128 0xa
	.long	0x12bc
	.uleb128 0xa
	.long	0x132f
	.uleb128 0xa
	.long	0x1d7b
	.uleb128 0x25
	.long	0x11a2
	.uleb128 0xa
	.long	0x1d8c
	.uleb128 0xa
	.long	0x11a2
	.uleb128 0xd
	.long	0x1d7b
	.uleb128 0x7
	.long	0x9d22
	.uleb128 0x25
	.long	0x1322
	.uleb128 0xa
	.long	0x1272
	.uleb128 0x1a
	.long	.LASF1264
	.byte	0x28
	.byte	0x4
	.byte	0xb
	.byte	0x8
	.long	0x9e1b
	.uleb128 0xe
	.long	.LASF1265
	.byte	0x4
	.byte	0xc
	.byte	0xc
	.long	0x74b5
	.byte	0
	.uleb128 0xe
	.long	.LASF1266
	.byte	0x4
	.byte	0xd
	.byte	0xc
	.long	0x74b5
	.byte	0x8
	.uleb128 0xe
	.long	.LASF219
	.byte	0x4
	.byte	0xe
	.byte	0x20
	.long	0x11a2
	.byte	0x10
	.uleb128 0x40
	.long	.LASF1267
	.byte	0x4
	.byte	0x10
	.byte	0x13
	.long	.LASF1268
	.long	0x74b5
	.long	0x9d82
	.long	0x9d97
	.uleb128 0x2
	.long	0x9e20
	.uleb128 0x1
	.long	0x74b5
	.uleb128 0x1
	.long	0x74b5
	.uleb128 0x1
	.long	0x74b5
	.byte	0
	.uleb128 0x94
	.string	"at"
	.byte	0x1d
	.byte	0x1b
	.long	.LASF1269
	.long	0x9c6e
	.long	0x9dae
	.long	0x9dc3
	.uleb128 0x2
	.long	0x9e25
	.uleb128 0x1
	.long	0x74b5
	.uleb128 0x1
	.long	0x74b5
	.uleb128 0x1
	.long	0x74b5
	.byte	0
	.uleb128 0x94
	.string	"at"
	.byte	0x21
	.byte	0x21
	.long	.LASF1270
	.long	0x9c78
	.long	0x9dda
	.long	0x9def
	.uleb128 0x2
	.long	0x9e20
	.uleb128 0x1
	.long	0x74b5
	.uleb128 0x1
	.long	0x74b5
	.uleb128 0x1
	.long	0x74b5
	.byte	0
	.uleb128 0xc0
	.long	.LASF1271
	.long	.LASF1419
	.long	0x9e01
	.long	0x9e07
	.uleb128 0x2
	.long	0x9e25
	.byte	0
	.uleb128 0x65
	.long	.LASF1264
	.long	.LASF1272
	.long	0x9e14
	.uleb128 0x2
	.long	0x9e25
	.byte	0
	.byte	0
	.uleb128 0x7
	.long	0x9d36
	.uleb128 0xd
	.long	0x9e1b
	.uleb128 0xd
	.long	0x9d36
	.uleb128 0x7
	.long	0x9e25
	.uleb128 0x1a
	.long	.LASF1273
	.byte	0x30
	.byte	0x4
	.byte	0x26
	.byte	0x8
	.long	0x9e60
	.uleb128 0xe
	.long	.LASF219
	.byte	0x4
	.byte	0x27
	.byte	0xf
	.long	0x9d36
	.byte	0
	.uleb128 0x43
	.string	"u"
	.byte	0x4
	.byte	0x28
	.byte	0xb
	.long	0x30
	.byte	0x28
	.uleb128 0x43
	.string	"v"
	.byte	0x4
	.byte	0x29
	.byte	0xb
	.long	0x30
	.byte	0x2c
	.byte	0
	.uleb128 0x7
	.long	0x9e2f
	.uleb128 0x9
	.long	.LASF1274
	.byte	0x41
	.byte	0xa7
	.byte	0xf
	.long	0x30
	.uleb128 0x9
	.long	.LASF1275
	.byte	0x41
	.byte	0xa8
	.byte	0x10
	.long	0x7cbb
	.uleb128 0x2a
	.byte	0x8
	.byte	0x4
	.long	.LASF1276
	.uleb128 0x2a
	.byte	0x10
	.byte	0x4
	.long	.LASF1277
	.uleb128 0x63
	.long	.LASF1278
	.byte	0x42
	.byte	0xf
	.byte	0xb
	.long	0x9eaa
	.uleb128 0xc1
	.long	.LASF1420
	.byte	0x42
	.byte	0x11
	.byte	0xb
	.uleb128 0x82
	.string	"v1"
	.byte	0x42
	.byte	0x13
	.byte	0x12
	.byte	0
	.byte	0
	.uleb128 0xc2
	.long	0x9f49
	.uleb128 0x1a
	.long	.LASF1279
	.byte	0x30
	.byte	0x1
	.byte	0x10
	.byte	0x8
	.long	0x9f43
	.uleb128 0x43
	.string	"sx"
	.byte	0x1
	.byte	0x11
	.byte	0x9
	.long	0x48
	.byte	0
	.uleb128 0x43
	.string	"sy"
	.byte	0x1
	.byte	0x11
	.byte	0xd
	.long	0x48
	.byte	0x4
	.uleb128 0x43
	.string	"A"
	.byte	0x1
	.byte	0x12
	.byte	0xb
	.long	0x30
	.byte	0x8
	.uleb128 0x43
	.string	"B"
	.byte	0x1
	.byte	0x12
	.byte	0xe
	.long	0x30
	.byte	0xc
	.uleb128 0x43
	.string	"C"
	.byte	0x1
	.byte	0x12
	.byte	0x11
	.long	0x30
	.byte	0x10
	.uleb128 0x43
	.string	"D"
	.byte	0x1
	.byte	0x12
	.byte	0x14
	.long	0x30
	.byte	0x14
	.uleb128 0xe
	.long	.LASF1280
	.byte	0x1
	.byte	0x13
	.byte	0x9
	.long	0x48
	.byte	0x18
	.uleb128 0xe
	.long	.LASF1281
	.byte	0x1
	.byte	0x13
	.byte	0x12
	.long	0x48
	.byte	0x1c
	.uleb128 0xe
	.long	.LASF1282
	.byte	0x1
	.byte	0x13
	.byte	0x19
	.long	0x48
	.byte	0x20
	.uleb128 0xe
	.long	.LASF1283
	.byte	0x1
	.byte	0x13
	.byte	0x22
	.long	0x48
	.byte	0x24
	.uleb128 0xe
	.long	.LASF219
	.byte	0x1
	.byte	0x14
	.byte	0x1a
	.long	0x9c73
	.byte	0x28
	.byte	0
	.uleb128 0x7
	.long	0x9eb0
	.byte	0
	.uleb128 0xd
	.long	0x1db2
	.uleb128 0xa
	.long	0x1f50
	.uleb128 0xa
	.long	0x1db2
	.uleb128 0xd
	.long	0x9e2f
	.uleb128 0x7
	.long	0x9f58
	.uleb128 0xd
	.long	0x1f50
	.uleb128 0xa
	.long	0x9e2f
	.uleb128 0xd
	.long	0x9e60
	.uleb128 0x7
	.long	0x9f6c
	.uleb128 0xa
	.long	0x9e60
	.uleb128 0xd
	.long	0x1f55
	.uleb128 0xa
	.long	0x1fd9
	.uleb128 0xa
	.long	0x1f55
	.uleb128 0xa
	.long	0x2019
	.uleb128 0xa
	.long	0x2026
	.uleb128 0xa
	.long	0x843b
	.uleb128 0xa
	.long	0x8447
	.uleb128 0xd
	.long	0x20e9
	.uleb128 0x25
	.long	0x20e9
	.uleb128 0xa
	.long	0x218f
	.uleb128 0xa
	.long	0x20e9
	.uleb128 0xd
	.long	0x21a0
	.uleb128 0xa
	.long	0x2259
	.uleb128 0x25
	.long	0x21a0
	.uleb128 0x25
	.long	0x224d
	.uleb128 0xa
	.long	0x224d
	.uleb128 0xd
	.long	0x20dc
	.uleb128 0xd
	.long	0x2464
	.uleb128 0xa
	.long	0x22a7
	.uleb128 0x25
	.long	0x20dc
	.uleb128 0xa
	.long	0x254f
	.uleb128 0xd
	.long	0x248c
	.uleb128 0x7
	.long	0x9fe4
	.uleb128 0xa
	.long	0x25a6
	.uleb128 0xa
	.long	0x2614
	.uleb128 0xa
	.long	0x3034
	.uleb128 0x25
	.long	0x248c
	.uleb128 0xa
	.long	0x3045
	.uleb128 0xa
	.long	0x248c
	.uleb128 0xd
	.long	0x3034
	.uleb128 0x7
	.long	0xa00c
	.uleb128 0x25
	.long	0x2607
	.uleb128 0xa
	.long	0x255c
	.uleb128 0xd
	.long	0x3059
	.uleb128 0x7
	.long	0xa020
	.uleb128 0xa
	.long	0x3205
	.uleb128 0xa
	.long	0x3059
	.uleb128 0xd
	.long	0x9eb0
	.uleb128 0x7
	.long	0xa034
	.uleb128 0xd
	.long	0x3205
	.uleb128 0x7
	.long	0xa03e
	.uleb128 0xa
	.long	0x9eb0
	.uleb128 0xd
	.long	0x9f43
	.uleb128 0xa
	.long	0x9f43
	.uleb128 0xd
	.long	0x320a
	.uleb128 0x7
	.long	0xa057
	.uleb128 0xa
	.long	0x3282
	.uleb128 0xa
	.long	0x320a
	.uleb128 0xa
	.long	0x32be
	.uleb128 0xa
	.long	0x32cb
	.uleb128 0xa
	.long	0x8996
	.uleb128 0xa
	.long	0x89a2
	.uleb128 0xd
	.long	0x33b0
	.uleb128 0x7
	.long	0xa07f
	.uleb128 0x25
	.long	0x33b0
	.uleb128 0xa
	.long	0x3443
	.uleb128 0xa
	.long	0x33b0
	.uleb128 0xd
	.long	0x3454
	.uleb128 0x7
	.long	0xa098
	.uleb128 0xa
	.long	0x3505
	.uleb128 0x25
	.long	0x3454
	.uleb128 0x25
	.long	0x34f9
	.uleb128 0xa
	.long	0x34f9
	.uleb128 0xd
	.long	0x33a3
	.uleb128 0x7
	.long	0xa0b6
	.uleb128 0xd
	.long	0x36de
	.uleb128 0x7
	.long	0xa0c0
	.uleb128 0xa
	.long	0x354b
	.uleb128 0x25
	.long	0x33a3
	.uleb128 0xa
	.long	0x37be
	.uleb128 0xd
	.long	0x3706
	.uleb128 0x7
	.long	0xa0d9
	.uleb128 0xa
	.long	0x380e
	.uleb128 0xa
	.long	0x3879
	.uleb128 0xa
	.long	0x4262
	.uleb128 0x25
	.long	0x3706
	.uleb128 0xa
	.long	0x4273
	.uleb128 0xa
	.long	0x3706
	.uleb128 0xd
	.long	0x4262
	.uleb128 0x7
	.long	0xa101
	.uleb128 0x25
	.long	0x386c
	.uleb128 0xa
	.long	0x37cb
	.uleb128 0xd
	.long	0x849d
	.uleb128 0x7
	.long	0xa115
	.uleb128 0xa
	.long	0x9f5d
	.uleb128 0xd
	.long	0x86cb
	.uleb128 0x7
	.long	0xa124
	.uleb128 0xa
	.long	0x849d
	.uleb128 0xd
	.long	0x42c2
	.uleb128 0x7
	.long	0xa133
	.uleb128 0xa
	.long	0x4460
	.uleb128 0xa
	.long	0x42c2
	.uleb128 0xd
	.long	0x48
	.uleb128 0x7
	.long	0xa147
	.uleb128 0xd
	.long	0x4460
	.uleb128 0x7
	.long	0xa151
	.uleb128 0xa
	.long	0x48
	.uleb128 0xa
	.long	0x50
	.uleb128 0xd
	.long	0x4465
	.uleb128 0x7
	.long	0xa165
	.uleb128 0xa
	.long	0x44e9
	.uleb128 0xa
	.long	0x4465
	.uleb128 0xa
	.long	0x4529
	.uleb128 0xa
	.long	0x4536
	.uleb128 0xa
	.long	0x8ca5
	.uleb128 0xa
	.long	0x8cb1
	.uleb128 0xd
	.long	0x45f9
	.uleb128 0x7
	.long	0xa18d
	.uleb128 0x25
	.long	0x45f9
	.uleb128 0xa
	.long	0x469f
	.uleb128 0xa
	.long	0x45f9
	.uleb128 0xd
	.long	0x46b0
	.uleb128 0x7
	.long	0xa1a6
	.uleb128 0xa
	.long	0x4782
	.uleb128 0x25
	.long	0x46b0
	.uleb128 0x25
	.long	0x4776
	.uleb128 0xa
	.long	0x4776
	.uleb128 0xd
	.long	0x45ec
	.uleb128 0x7
	.long	0xa1c4
	.uleb128 0xd
	.long	0x498d
	.uleb128 0xa
	.long	0x47d0
	.uleb128 0x25
	.long	0x45ec
	.uleb128 0xa
	.long	0x4a78
	.uleb128 0xd
	.long	0x49b5
	.uleb128 0x7
	.long	0xa1e2
	.uleb128 0xa
	.long	0x4acf
	.uleb128 0xa
	.long	0x4b3d
	.uleb128 0xa
	.long	0x555d
	.uleb128 0x25
	.long	0x49b5
	.uleb128 0xa
	.long	0x556e
	.uleb128 0xa
	.long	0x49b5
	.uleb128 0xd
	.long	0x555d
	.uleb128 0x25
	.long	0x4b30
	.uleb128 0xa
	.long	0x4a85
	.uleb128 0xd
	.long	0x5573
	.uleb128 0xd
	.long	0x5660
	.uleb128 0xd
	.long	0x89f8
	.uleb128 0x7
	.long	0xa223
	.uleb128 0xa
	.long	0xa039
	.uleb128 0xd
	.long	0x8bee
	.uleb128 0x7
	.long	0xa232
	.uleb128 0xa
	.long	0x89f8
	.uleb128 0xd
	.long	0x56aa
	.uleb128 0x7
	.long	0xa241
	.uleb128 0xa
	.long	0x5848
	.uleb128 0xa
	.long	0x56aa
	.uleb128 0xd
	.long	0x30
	.uleb128 0x7
	.long	0xa255
	.uleb128 0xd
	.long	0x5848
	.uleb128 0x7
	.long	0xa25f
	.uleb128 0xa
	.long	0x30
	.uleb128 0xd
	.long	0x7ce3
	.uleb128 0xa
	.long	0x7ce3
	.uleb128 0xd
	.long	0x584d
	.uleb128 0x7
	.long	0xa278
	.uleb128 0xa
	.long	0x58d1
	.uleb128 0xa
	.long	0x584d
	.uleb128 0xa
	.long	0x5911
	.uleb128 0xa
	.long	0x591e
	.uleb128 0xa
	.long	0x8dbe
	.uleb128 0xa
	.long	0x8dca
	.uleb128 0xd
	.long	0x59e1
	.uleb128 0x7
	.long	0xa2a0
	.uleb128 0x25
	.long	0x59e1
	.uleb128 0xa
	.long	0x5a87
	.uleb128 0xa
	.long	0x59e1
	.uleb128 0xd
	.long	0x5a98
	.uleb128 0x7
	.long	0xa2b9
	.uleb128 0xa
	.long	0x5b6a
	.uleb128 0x25
	.long	0x5a98
	.uleb128 0x25
	.long	0x5b5e
	.uleb128 0xa
	.long	0x5b5e
	.uleb128 0xd
	.long	0x59d4
	.uleb128 0x7
	.long	0xa2d7
	.uleb128 0xd
	.long	0x5d75
	.uleb128 0xa
	.long	0x5bb8
	.uleb128 0x25
	.long	0x59d4
	.uleb128 0xa
	.long	0x5e60
	.uleb128 0xd
	.long	0x5d9d
	.uleb128 0x7
	.long	0xa2f5
	.uleb128 0xa
	.long	0x5eb7
	.uleb128 0xa
	.long	0x5f25
	.uleb128 0xa
	.long	0x6971
	.uleb128 0x25
	.long	0x5d9d
	.uleb128 0xa
	.long	0x6982
	.uleb128 0xa
	.long	0x5d9d
	.uleb128 0xd
	.long	0x6971
	.uleb128 0x7
	.long	0xa31d
	.uleb128 0x25
	.long	0x5f18
	.uleb128 0xa
	.long	0x5e6d
	.uleb128 0xd
	.long	0x6987
	.uleb128 0xd
	.long	0x6a74
	.uleb128 0xd
	.long	0x86d0
	.uleb128 0xa
	.long	0x9f71
	.uleb128 0xd
	.long	0x88fe
	.uleb128 0xa
	.long	0x86d0
	.uleb128 0xd
	.long	0x8156
	.uleb128 0x7
	.long	0xa34f
	.uleb128 0xa
	.long	0x9c5f
	.uleb128 0xd
	.long	0x8384
	.uleb128 0x7
	.long	0xa35e
	.uleb128 0xa
	.long	0x8156
	.uleb128 0xa
	.long	0x416c
	.uleb128 0xd
	.long	0x4179
	.uleb128 0x7
	.long	0xa372
	.uleb128 0xa
	.long	0x421e
	.uleb128 0xd
	.long	0x6b24
	.uleb128 0x7
	.long	0xa381
	.uleb128 0xa
	.long	0xa147
	.uleb128 0xd
	.long	0xa147
	.uleb128 0xa
	.long	0x6bf1
	.uleb128 0xd
	.long	0x6bf6
	.uleb128 0x7
	.long	0xa39a
	.uleb128 0xa
	.long	0xa255
	.uleb128 0xd
	.long	0xa255
	.uleb128 0xa
	.long	0x6cc3
	.uleb128 0x93
	.long	0x6cc8
	.uleb128 0x49
	.long	.LASF1284
	.byte	0x43
	.byte	0x6e
	.byte	0x6
	.long	.LASF1285
	.long	0xa3d4
	.uleb128 0x1
	.long	0x750f
	.uleb128 0x1
	.long	0x2b5
	.byte	0
	.uleb128 0x2e
	.long	.LASF1286
	.byte	0x43
	.byte	0x63
	.byte	0x1a
	.long	.LASF1287
	.long	0x750f
	.long	0xa3ee
	.uleb128 0x1
	.long	0x2b5
	.byte	0
	.uleb128 0xb
	.long	0xbac
	.long	0xa3fc
	.byte	0x3
	.long	0xa417
	.uleb128 0x8
	.long	.LASF1288
	.long	0x9c4b
	.uleb128 0x26
	.string	"__n"
	.byte	0x6
	.byte	0x81
	.byte	0x1a
	.long	0xbd5
	.uleb128 0x1
	.long	0x8f79
	.byte	0
	.uleb128 0xb
	.long	0xc25
	.long	0xa425
	.byte	0x3
	.long	0xa42f
	.uleb128 0x8
	.long	.LASF1288
	.long	0x9c69
	.byte	0
	.uleb128 0x12
	.long	0x6c90
	.byte	0x3
	.long	0xa45b
	.uleb128 0xc
	.long	.LASF732
	.long	0xa255
	.uleb128 0x37
	.long	.LASF1289
	.byte	0xc
	.byte	0x8e
	.byte	0x13
	.long	0xa255
	.uleb128 0x37
	.long	.LASF1290
	.byte	0xc
	.byte	0x8e
	.byte	0x22
	.long	0xa255
	.byte	0
	.uleb128 0x12
	.long	0x6bbe
	.byte	0x3
	.long	0xa487
	.uleb128 0xc
	.long	.LASF732
	.long	0xa147
	.uleb128 0x37
	.long	.LASF1289
	.byte	0xc
	.byte	0x8e
	.byte	0x13
	.long	0xa147
	.uleb128 0x37
	.long	.LASF1290
	.byte	0xc
	.byte	0x8e
	.byte	0x22
	.long	0xa147
	.byte	0
	.uleb128 0x12
	.long	0xcf6
	.byte	0x3
	.long	0xa4ac
	.uleb128 0xf
	.string	"__a"
	.byte	0x8
	.value	0x27d
	.byte	0x20
	.long	0x9c91
	.uleb128 0xf
	.string	"__n"
	.byte	0x8
	.value	0x27d
	.byte	0x2f
	.long	0xd28
	.byte	0
	.uleb128 0xb
	.long	0xc06
	.long	0xa4ba
	.byte	0x3
	.long	0xa4c4
	.uleb128 0x8
	.long	.LASF1288
	.long	0x9c69
	.byte	0
	.uleb128 0xb
	.long	0x6c3c
	.long	0xa4d2
	.byte	0x3
	.long	0xa4dc
	.uleb128 0x8
	.long	.LASF1288
	.long	0xa39f
	.byte	0
	.uleb128 0x12
	.long	0x6d05
	.byte	0x3
	.long	0xa519
	.uleb128 0x11
	.string	"_Tp"
	.long	0x30
	.uleb128 0x47
	.long	.LASF417
	.long	0xa4fe
	.uleb128 0x48
	.long	0xa273
	.byte	0
	.uleb128 0x26
	.string	"__p"
	.byte	0xb
	.byte	0x7b
	.byte	0x15
	.long	0xa255
	.uleb128 0x7b
	.long	.LASF1293
	.byte	0xb
	.byte	0x7b
	.byte	0x21
	.uleb128 0x1
	.long	0xa273
	.byte	0
	.byte	0
	.uleb128 0xb
	.long	0x6c22
	.long	0xa527
	.byte	0x2
	.long	0xa531
	.uleb128 0x8
	.long	.LASF1288
	.long	0xa39f
	.byte	0
	.uleb128 0x19
	.long	0xa519
	.long	.LASF1291
	.long	0xa542
	.long	0xa548
	.uleb128 0x3
	.long	0xa527
	.byte	0
	.uleb128 0xb
	.long	0x6c03
	.long	0xa556
	.byte	0x2
	.long	0xa56c
	.uleb128 0x8
	.long	.LASF1288
	.long	0xa39f
	.uleb128 0x37
	.long	.LASF1289
	.byte	0xc
	.byte	0x71
	.byte	0x2d
	.long	0xa3a4
	.byte	0
	.uleb128 0x19
	.long	0xa548
	.long	.LASF1292
	.long	0xa57d
	.long	0xa588
	.uleb128 0x3
	.long	0xa556
	.uleb128 0x3
	.long	0xa55f
	.byte	0
	.uleb128 0xb
	.long	0x57a7
	.long	0xa596
	.byte	0x3
	.long	0xa5b1
	.uleb128 0x8
	.long	.LASF1288
	.long	0xa246
	.uleb128 0x26
	.string	"__n"
	.byte	0x6
	.byte	0x81
	.byte	0x1a
	.long	0x57d0
	.uleb128 0x1
	.long	0x8f79
	.byte	0
	.uleb128 0xb
	.long	0x5820
	.long	0xa5bf
	.byte	0x3
	.long	0xa5c9
	.uleb128 0x8
	.long	.LASF1288
	.long	0xa264
	.byte	0
	.uleb128 0xb
	.long	0x6b6a
	.long	0xa5d7
	.byte	0x3
	.long	0xa5e1
	.uleb128 0x8
	.long	.LASF1288
	.long	0xa386
	.byte	0
	.uleb128 0x12
	.long	0x6d38
	.byte	0x3
	.long	0xa61e
	.uleb128 0x11
	.string	"_Tp"
	.long	0x48
	.uleb128 0x47
	.long	.LASF417
	.long	0xa603
	.uleb128 0x48
	.long	0xa160
	.byte	0
	.uleb128 0x26
	.string	"__p"
	.byte	0xb
	.byte	0x7b
	.byte	0x15
	.long	0xa147
	.uleb128 0x7b
	.long	.LASF1293
	.byte	0xb
	.byte	0x7b
	.byte	0x21
	.uleb128 0x1
	.long	0xa160
	.byte	0
	.byte	0
	.uleb128 0xb
	.long	0x6b50
	.long	0xa62c
	.byte	0x2
	.long	0xa636
	.uleb128 0x8
	.long	.LASF1288
	.long	0xa386
	.byte	0
	.uleb128 0x19
	.long	0xa61e
	.long	.LASF1294
	.long	0xa647
	.long	0xa64d
	.uleb128 0x3
	.long	0xa62c
	.byte	0
	.uleb128 0xb
	.long	0x6b31
	.long	0xa65b
	.byte	0x2
	.long	0xa671
	.uleb128 0x8
	.long	.LASF1288
	.long	0xa386
	.uleb128 0x37
	.long	.LASF1289
	.byte	0xc
	.byte	0x71
	.byte	0x2d
	.long	0xa38b
	.byte	0
	.uleb128 0x19
	.long	0xa64d
	.long	.LASF1295
	.long	0xa682
	.long	0xa68d
	.uleb128 0x3
	.long	0xa65b
	.uleb128 0x3
	.long	0xa664
	.byte	0
	.uleb128 0xb
	.long	0x43bf
	.long	0xa69b
	.byte	0x3
	.long	0xa6b6
	.uleb128 0x8
	.long	.LASF1288
	.long	0xa138
	.uleb128 0x26
	.string	"__n"
	.byte	0x6
	.byte	0x81
	.byte	0x1a
	.long	0x43e8
	.uleb128 0x1
	.long	0x8f79
	.byte	0
	.uleb128 0xb
	.long	0x4438
	.long	0xa6c4
	.byte	0x3
	.long	0xa6ce
	.uleb128 0x8
	.long	.LASF1288
	.long	0xa156
	.byte	0
	.uleb128 0x12
	.long	0x6d6b
	.byte	0x3
	.long	0xa72e
	.uleb128 0x11
	.string	"_Up"
	.long	0x8f39
	.uleb128 0x11
	.string	"_Tp"
	.long	0x8f39
	.uleb128 0x13
	.long	.LASF1289
	.byte	0xa
	.value	0x3a7
	.byte	0x14
	.long	0x9c5a
	.uleb128 0x13
	.long	.LASF1290
	.byte	0xa
	.value	0x3a7
	.byte	0x22
	.long	0x9c5a
	.uleb128 0xf
	.string	"__x"
	.byte	0xa
	.value	0x3a7
	.byte	0x35
	.long	0x9c78
	.uleb128 0x27
	.long	.LASF1296
	.byte	0xa
	.value	0x3ab
	.byte	0x11
	.long	0x8f40
	.uleb128 0x44
	.uleb128 0x27
	.long	.LASF1297
	.byte	0xa
	.value	0x3b4
	.byte	0x18
	.long	0x2c2
	.byte	0
	.byte	0
	.uleb128 0xb
	.long	0x1100
	.long	0xa73c
	.byte	0x3
	.long	0xa753
	.uleb128 0x8
	.long	.LASF1288
	.long	0x9ce1
	.uleb128 0xf
	.string	"__n"
	.byte	0x2
	.value	0x182
	.byte	0x1a
	.long	0x2b5
	.byte	0
	.uleb128 0x12
	.long	0xd88
	.byte	0x3
	.long	0xa76b
	.uleb128 0xf
	.string	"__a"
	.byte	0x8
	.value	0x2ed
	.byte	0x26
	.long	0x9c96
	.byte	0
	.uleb128 0x12
	.long	0x6d9e
	.byte	0x1
	.long	0xa7c5
	.uleb128 0xc
	.long	.LASF733
	.long	0xa255
	.uleb128 0xc
	.long	.LASF755
	.long	0x74c6
	.uleb128 0x11
	.string	"_Tp"
	.long	0x30
	.uleb128 0x13
	.long	.LASF1289
	.byte	0xc
	.value	0x1dd
	.byte	0x29
	.long	0xa255
	.uleb128 0xf
	.string	"__n"
	.byte	0xc
	.value	0x1dd
	.byte	0x38
	.long	0x74c6
	.uleb128 0xf
	.string	"__x"
	.byte	0xc
	.value	0x1dd
	.byte	0x48
	.long	0xa273
	.uleb128 0x27
	.long	.LASF1298
	.byte	0xc
	.value	0x1df
	.byte	0x2d
	.long	0x6bf6
	.byte	0
	.uleb128 0xb
	.long	0x57dc
	.long	0xa7d3
	.byte	0x3
	.long	0xa7f5
	.uleb128 0x8
	.long	.LASF1288
	.long	0xa246
	.uleb128 0x26
	.string	"__p"
	.byte	0x6
	.byte	0xa7
	.byte	0x17
	.long	0xa255
	.uleb128 0x26
	.string	"__n"
	.byte	0x6
	.byte	0xa7
	.byte	0x26
	.long	0x57d0
	.byte	0
	.uleb128 0x12
	.long	0x58f1
	.byte	0x3
	.long	0xa81a
	.uleb128 0xf
	.string	"__a"
	.byte	0x8
	.value	0x27d
	.byte	0x20
	.long	0xa28c
	.uleb128 0xf
	.string	"__n"
	.byte	0x8
	.value	0x27d
	.byte	0x2f
	.long	0x5923
	.byte	0
	.uleb128 0xb
	.long	0x5801
	.long	0xa828
	.byte	0x3
	.long	0xa832
	.uleb128 0x8
	.long	.LASF1288
	.long	0xa264
	.byte	0
	.uleb128 0x12
	.long	0x6dde
	.byte	0x1
	.long	0xa88c
	.uleb128 0xc
	.long	.LASF733
	.long	0xa147
	.uleb128 0xc
	.long	.LASF755
	.long	0x74c6
	.uleb128 0x11
	.string	"_Tp"
	.long	0x48
	.uleb128 0x13
	.long	.LASF1289
	.byte	0xc
	.value	0x1dd
	.byte	0x29
	.long	0xa147
	.uleb128 0xf
	.string	"__n"
	.byte	0xc
	.value	0x1dd
	.byte	0x38
	.long	0x74c6
	.uleb128 0xf
	.string	"__x"
	.byte	0xc
	.value	0x1dd
	.byte	0x48
	.long	0xa160
	.uleb128 0x27
	.long	.LASF1298
	.byte	0xc
	.value	0x1df
	.byte	0x2d
	.long	0x6b24
	.byte	0
	.uleb128 0xb
	.long	0x43f4
	.long	0xa89a
	.byte	0x3
	.long	0xa8bc
	.uleb128 0x8
	.long	.LASF1288
	.long	0xa138
	.uleb128 0x26
	.string	"__p"
	.byte	0x6
	.byte	0xa7
	.byte	0x17
	.long	0xa147
	.uleb128 0x26
	.string	"__n"
	.byte	0x6
	.byte	0xa7
	.byte	0x26
	.long	0x43e8
	.byte	0
	.uleb128 0x12
	.long	0x4509
	.byte	0x3
	.long	0xa8e1
	.uleb128 0xf
	.string	"__a"
	.byte	0x8
	.value	0x27d
	.byte	0x20
	.long	0xa179
	.uleb128 0xf
	.string	"__n"
	.byte	0x8
	.value	0x27d
	.byte	0x2f
	.long	0x453b
	.byte	0
	.uleb128 0xb
	.long	0x4419
	.long	0xa8ef
	.byte	0x3
	.long	0xa8f9
	.uleb128 0x8
	.long	.LASF1288
	.long	0xa156
	.byte	0
	.uleb128 0xb
	.long	0x31a8
	.long	0xa907
	.byte	0x3
	.long	0xa911
	.uleb128 0x8
	.long	.LASF1288
	.long	0xa043
	.byte	0
	.uleb128 0xb
	.long	0x318d
	.long	0xa91f
	.byte	0x3
	.long	0xa929
	.uleb128 0x8
	.long	.LASF1288
	.long	0xa043
	.byte	0
	.uleb128 0x12
	.long	0x6e1e
	.byte	0x3
	.long	0xa96d
	.uleb128 0xc
	.long	.LASF760
	.long	0x9c5a
	.uleb128 0x11
	.string	"_Tp"
	.long	0x8f39
	.uleb128 0x13
	.long	.LASF1289
	.byte	0xa
	.value	0x3d0
	.byte	0x14
	.long	0x9c5a
	.uleb128 0x13
	.long	.LASF1290
	.byte	0xa
	.value	0x3d0
	.byte	0x23
	.long	0x9c5a
	.uleb128 0x13
	.long	.LASF838
	.byte	0xa
	.value	0x3d0
	.byte	0x36
	.long	0x9c78
	.byte	0
	.uleb128 0x12
	.long	0x6e51
	.byte	0x3
	.long	0xa98e
	.uleb128 0xc
	.long	.LASF433
	.long	0x9c5a
	.uleb128 0x13
	.long	.LASF1299
	.byte	0x3
	.value	0xbce
	.byte	0x1c
	.long	0x9c5a
	.byte	0
	.uleb128 0x12
	.long	0x6e75
	.byte	0x3
	.long	0xa9db
	.uleb128 0xc
	.long	.LASF765
	.long	0x9c5a
	.uleb128 0xc
	.long	.LASF766
	.long	0x11a2
	.uleb128 0x11
	.string	"_Tp"
	.long	0x8f39
	.uleb128 0x13
	.long	.LASF1289
	.byte	0xa
	.value	0x3bc
	.byte	0x3b
	.long	0x8156
	.uleb128 0x13
	.long	.LASF1290
	.byte	0xa
	.value	0x3bd
	.byte	0x34
	.long	0x8156
	.uleb128 0x13
	.long	.LASF838
	.byte	0xa
	.value	0x3be
	.byte	0x13
	.long	0x9c78
	.byte	0
	.uleb128 0xb
	.long	0x8351
	.long	0xa9e9
	.byte	0x3
	.long	0xa9f3
	.uleb128 0x8
	.long	.LASF1288
	.long	0xa363
	.byte	0
	.uleb128 0xb
	.long	0x1146
	.long	0xaa01
	.byte	0x3
	.long	0xaa18
	.uleb128 0x8
	.long	.LASF1288
	.long	0x9ce1
	.uleb128 0xf
	.string	"__n"
	.byte	0x2
	.value	0x195
	.byte	0x20
	.long	0x2b5
	.byte	0
	.uleb128 0xb
	.long	0xece
	.long	0xaa26
	.byte	0x2
	.long	0xaa3c
	.uleb128 0x8
	.long	.LASF1288
	.long	0x9cc3
	.uleb128 0x26
	.string	"__a"
	.byte	0x2
	.byte	0x98
	.byte	0x25
	.long	0x9cc8
	.byte	0
	.uleb128 0x19
	.long	0xaa18
	.long	.LASF1300
	.long	0xaa4d
	.long	0xaa58
	.uleb128 0x3
	.long	0xaa26
	.uleb128 0x3
	.long	0xaa2f
	.byte	0
	.uleb128 0x12
	.long	0x1c6f
	.byte	0x3
	.long	0xaa8a
	.uleb128 0xf
	.string	"__a"
	.byte	0x2
	.value	0x8a4
	.byte	0x29
	.long	0x9d31
	.uleb128 0x27
	.long	.LASF1301
	.byte	0x2
	.value	0x8a9
	.byte	0xf
	.long	0x2c2
	.uleb128 0x27
	.long	.LASF1302
	.byte	0x2
	.value	0x8ab
	.byte	0xf
	.long	0x2c2
	.byte	0
	.uleb128 0x12
	.long	0x6eb1
	.byte	0x3
	.long	0xaad7
	.uleb128 0xc
	.long	.LASF733
	.long	0xa255
	.uleb128 0xc
	.long	.LASF755
	.long	0x74c6
	.uleb128 0x11
	.string	"_Tp"
	.long	0x30
	.uleb128 0x13
	.long	.LASF1289
	.byte	0xc
	.value	0x226
	.byte	0x2b
	.long	0xa255
	.uleb128 0xf
	.string	"__n"
	.byte	0xc
	.value	0x226
	.byte	0x3a
	.long	0x74c6
	.uleb128 0xf
	.string	"__x"
	.byte	0xc
	.value	0x226
	.byte	0x4a
	.long	0xa273
	.byte	0
	.uleb128 0x12
	.long	0x5962
	.byte	0x3
	.long	0xab09
	.uleb128 0xf
	.string	"__a"
	.byte	0x8
	.value	0x2b0
	.byte	0x22
	.long	0xa28c
	.uleb128 0xf
	.string	"__p"
	.byte	0x8
	.value	0x2b0
	.byte	0x2f
	.long	0x58e4
	.uleb128 0xf
	.string	"__n"
	.byte	0x8
	.value	0x2b0
	.byte	0x3e
	.long	0x5923
	.byte	0
	.uleb128 0xb
	.long	0x5cfb
	.long	0xab17
	.byte	0x3
	.long	0xab2e
	.uleb128 0x8
	.long	.LASF1288
	.long	0xa2dc
	.uleb128 0xf
	.string	"__n"
	.byte	0x2
	.value	0x182
	.byte	0x1a
	.long	0x2b5
	.byte	0
	.uleb128 0xb
	.long	0x5a15
	.long	0xab3c
	.byte	0x2
	.long	0xab46
	.uleb128 0x8
	.long	.LASF1288
	.long	0xa2a5
	.byte	0
	.uleb128 0x19
	.long	0xab2e
	.long	.LASF1303
	.long	0xab57
	.long	0xab5d
	.uleb128 0x3
	.long	0xab3c
	.byte	0
	.uleb128 0xb
	.long	0x56d1
	.long	0xab6b
	.byte	0x2
	.long	0xab7a
	.uleb128 0x8
	.long	.LASF1288
	.long	0xa246
	.uleb128 0x1
	.long	0xa24b
	.byte	0
	.uleb128 0x19
	.long	0xab5d
	.long	.LASF1304
	.long	0xab8b
	.long	0xab96
	.uleb128 0x3
	.long	0xab6b
	.uleb128 0x3
	.long	0xab74
	.byte	0
	.uleb128 0x12
	.long	0x5983
	.byte	0x3
	.long	0xabae
	.uleb128 0xf
	.string	"__a"
	.byte	0x8
	.value	0x2ed
	.byte	0x26
	.long	0xa291
	.byte	0
	.uleb128 0x12
	.long	0x6ef1
	.byte	0x3
	.long	0xabfb
	.uleb128 0xc
	.long	.LASF733
	.long	0xa147
	.uleb128 0xc
	.long	.LASF755
	.long	0x74c6
	.uleb128 0x11
	.string	"_Tp"
	.long	0x48
	.uleb128 0x13
	.long	.LASF1289
	.byte	0xc
	.value	0x226
	.byte	0x2b
	.long	0xa147
	.uleb128 0xf
	.string	"__n"
	.byte	0xc
	.value	0x226
	.byte	0x3a
	.long	0x74c6
	.uleb128 0xf
	.string	"__x"
	.byte	0xc
	.value	0x226
	.byte	0x4a
	.long	0xa160
	.byte	0
	.uleb128 0x12
	.long	0x457a
	.byte	0x3
	.long	0xac2d
	.uleb128 0xf
	.string	"__a"
	.byte	0x8
	.value	0x2b0
	.byte	0x22
	.long	0xa179
	.uleb128 0xf
	.string	"__p"
	.byte	0x8
	.value	0x2b0
	.byte	0x2f
	.long	0x44fc
	.uleb128 0xf
	.string	"__n"
	.byte	0x8
	.value	0x2b0
	.byte	0x3e
	.long	0x453b
	.byte	0
	.uleb128 0xb
	.long	0x4913
	.long	0xac3b
	.byte	0x3
	.long	0xac52
	.uleb128 0x8
	.long	.LASF1288
	.long	0xa1c9
	.uleb128 0xf
	.string	"__n"
	.byte	0x2
	.value	0x182
	.byte	0x1a
	.long	0x2b5
	.byte	0
	.uleb128 0xb
	.long	0x462d
	.long	0xac60
	.byte	0x2
	.long	0xac6a
	.uleb128 0x8
	.long	.LASF1288
	.long	0xa192
	.byte	0
	.uleb128 0x19
	.long	0xac52
	.long	.LASF1305
	.long	0xac7b
	.long	0xac81
	.uleb128 0x3
	.long	0xac60
	.byte	0
	.uleb128 0xb
	.long	0x42e9
	.long	0xac8f
	.byte	0x2
	.long	0xac9e
	.uleb128 0x8
	.long	.LASF1288
	.long	0xa138
	.uleb128 0x1
	.long	0xa13d
	.byte	0
	.uleb128 0x19
	.long	0xac81
	.long	.LASF1306
	.long	0xacaf
	.long	0xacba
	.uleb128 0x3
	.long	0xac8f
	.uleb128 0x3
	.long	0xac98
	.byte	0
	.uleb128 0x12
	.long	0x459b
	.byte	0x3
	.long	0xacd2
	.uleb128 0xf
	.string	"__a"
	.byte	0x8
	.value	0x2ed
	.byte	0x26
	.long	0xa17e
	.byte	0
	.uleb128 0xa
	.long	0x74cd
	.uleb128 0x12
	.long	0x6f31
	.byte	0x3
	.long	0xad05
	.uleb128 0x11
	.string	"_Tp"
	.long	0x74c6
	.uleb128 0xf
	.string	"__a"
	.byte	0xa
	.value	0x100
	.byte	0x14
	.long	0xacd2
	.uleb128 0xf
	.string	"__b"
	.byte	0xa
	.value	0x100
	.byte	0x24
	.long	0xacd2
	.byte	0
	.uleb128 0xb
	.long	0x313c
	.long	0xad13
	.byte	0x3
	.long	0xad2e
	.uleb128 0x8
	.long	.LASF1288
	.long	0xa025
	.uleb128 0x26
	.string	"__n"
	.byte	0x6
	.byte	0x81
	.byte	0x1a
	.long	0x3161
	.uleb128 0x1
	.long	0x8f79
	.byte	0
	.uleb128 0x12
	.long	0x3328
	.byte	0x3
	.long	0xad46
	.uleb128 0xf
	.string	"__a"
	.byte	0x8
	.value	0x2ed
	.byte	0x26
	.long	0xa070
	.byte	0
	.uleb128 0xb
	.long	0x316d
	.long	0xad54
	.byte	0x3
	.long	0xad76
	.uleb128 0x8
	.long	.LASF1288
	.long	0xa025
	.uleb128 0x26
	.string	"__p"
	.byte	0x6
	.byte	0xa7
	.byte	0x17
	.long	0xa034
	.uleb128 0x26
	.string	"__n"
	.byte	0x6
	.byte	0xa7
	.byte	0x26
	.long	0x3161
	.byte	0
	.uleb128 0x12
	.long	0x6f5a
	.byte	0x3
	.long	0xade2
	.uleb128 0xc
	.long	.LASF775
	.long	0x9c5a
	.uleb128 0xc
	.long	.LASF755
	.long	0x74c6
	.uleb128 0x11
	.string	"_Tp"
	.long	0x8f39
	.uleb128 0x13
	.long	.LASF1289
	.byte	0xa
	.value	0x475
	.byte	0x20
	.long	0x9c5a
	.uleb128 0xf
	.string	"__n"
	.byte	0xa
	.value	0x475
	.byte	0x2f
	.long	0x74c6
	.uleb128 0x13
	.long	.LASF838
	.byte	0xa
	.value	0x475
	.byte	0x3f
	.long	0x9c78
	.uleb128 0x1
	.long	0x690
	.uleb128 0x5c
	.string	"__d"
	.byte	0xa
	.value	0x47e
	.byte	0x42
	.long	0x6af6
	.uleb128 0x27
	.long	.LASF1290
	.byte	0xa
	.value	0x481
	.byte	0x17
	.long	0x9c5a
	.byte	0
	.uleb128 0x12
	.long	0x6f9f
	.byte	0x3
	.long	0xae40
	.uleb128 0xc
	.long	.LASF733
	.long	0x9c5a
	.uleb128 0xc
	.long	.LASF755
	.long	0x74c6
	.uleb128 0x11
	.string	"_Tp"
	.long	0x8f39
	.uleb128 0x13
	.long	.LASF1289
	.byte	0xc
	.value	0x226
	.byte	0x2b
	.long	0x9c5a
	.uleb128 0xf
	.string	"__n"
	.byte	0xc
	.value	0x226
	.byte	0x3a
	.long	0x74c6
	.uleb128 0xf
	.string	"__x"
	.byte	0xc
	.value	0x226
	.byte	0x4a
	.long	0x9c78
	.uleb128 0x44
	.uleb128 0x44
	.uleb128 0x27
	.long	.LASF1307
	.byte	0xc
	.value	0x23e
	.byte	0xb
	.long	0x750f
	.byte	0
	.byte	0
	.byte	0
	.uleb128 0x12
	.long	0x6fdf
	.byte	0x3
	.long	0xae84
	.uleb128 0xc
	.long	.LASF760
	.long	0x8156
	.uleb128 0x11
	.string	"_Tp"
	.long	0x8f39
	.uleb128 0x13
	.long	.LASF1289
	.byte	0xa
	.value	0x3d0
	.byte	0x14
	.long	0x8156
	.uleb128 0x13
	.long	.LASF1290
	.byte	0xa
	.value	0x3d0
	.byte	0x23
	.long	0x8156
	.uleb128 0x13
	.long	.LASF838
	.byte	0xa
	.value	0x3d0
	.byte	0x36
	.long	0x9c78
	.byte	0
	.uleb128 0xb
	.long	0x8188
	.long	0xae92
	.byte	0x2
	.long	0xaea9
	.uleb128 0x8
	.long	.LASF1288
	.long	0xa354
	.uleb128 0xf
	.string	"__i"
	.byte	0x3
	.value	0x422
	.byte	0x2a
	.long	0xa359
	.byte	0
	.uleb128 0x19
	.long	0xae84
	.long	.LASF1308
	.long	0xaeba
	.long	0xaec5
	.uleb128 0x3
	.long	0xae92
	.uleb128 0x3
	.long	0xae9b
	.byte	0
	.uleb128 0xb
	.long	0xe53
	.long	0xaed3
	.byte	0x3
	.long	0xaee9
	.uleb128 0x8
	.long	.LASF1288
	.long	0x9caa
	.uleb128 0x26
	.string	"__x"
	.byte	0x2
	.byte	0x77
	.byte	0x28
	.long	0x9cb4
	.byte	0
	.uleb128 0xb
	.long	0x1ad4
	.long	0xaef7
	.byte	0x3
	.long	0xaf1b
	.uleb128 0x8
	.long	.LASF1288
	.long	0x9cff
	.uleb128 0xf
	.string	"__n"
	.byte	0x2
	.value	0x7c3
	.byte	0x24
	.long	0x12e5
	.uleb128 0x13
	.long	.LASF838
	.byte	0x2
	.value	0x7c3
	.byte	0x3b
	.long	0x9d09
	.byte	0
	.uleb128 0xb
	.long	0x1035
	.long	0xaf29
	.byte	0x2
	.long	0xaf4d
	.uleb128 0x8
	.long	.LASF1288
	.long	0x9ce1
	.uleb128 0xf
	.string	"__n"
	.byte	0x2
	.value	0x153
	.byte	0x1b
	.long	0x2b5
	.uleb128 0xf
	.string	"__a"
	.byte	0x2
	.value	0x153
	.byte	0x36
	.long	0x9ceb
	.byte	0
	.uleb128 0x19
	.long	0xaf1b
	.long	.LASF1309
	.long	0xaf5e
	.long	0xaf6e
	.uleb128 0x3
	.long	0xaf29
	.uleb128 0x3
	.long	0xaf32
	.uleb128 0x3
	.long	0xaf3f
	.byte	0
	.uleb128 0x12
	.long	0x1c51
	.byte	0x3
	.long	0xaf93
	.uleb128 0xf
	.string	"__n"
	.byte	0x2
	.value	0x89b
	.byte	0x23
	.long	0x12e5
	.uleb128 0xf
	.string	"__a"
	.byte	0x2
	.value	0x89b
	.byte	0x3e
	.long	0x9d04
	.byte	0
	.uleb128 0xb
	.long	0xbe1
	.long	0xafa1
	.byte	0x3
	.long	0xafc3
	.uleb128 0x8
	.long	.LASF1288
	.long	0x9c4b
	.uleb128 0x26
	.string	"__p"
	.byte	0x6
	.byte	0xa7
	.byte	0x17
	.long	0x9c5a
	.uleb128 0x26
	.string	"__n"
	.byte	0x6
	.byte	0xa7
	.byte	0x26
	.long	0xbd5
	.byte	0
	.uleb128 0xb
	.long	0xad6
	.long	0xafd1
	.byte	0x2
	.long	0xafe0
	.uleb128 0x8
	.long	.LASF1288
	.long	0x9c4b
	.uleb128 0x1
	.long	0x9c50
	.byte	0
	.uleb128 0x19
	.long	0xafc3
	.long	.LASF1310
	.long	0xaff1
	.long	0xaffc
	.uleb128 0x3
	.long	0xafd1
	.uleb128 0x3
	.long	0xafda
	.byte	0
	.uleb128 0x12
	.long	0x7012
	.byte	0x3
	.long	0xb028
	.uleb128 0xc
	.long	.LASF733
	.long	0xa255
	.uleb128 0x37
	.long	.LASF1289
	.byte	0xb
	.byte	0xdb
	.byte	0x1f
	.long	0xa255
	.uleb128 0x37
	.long	.LASF1290
	.byte	0xb
	.byte	0xdb
	.byte	0x39
	.long	0xa255
	.byte	0
	.uleb128 0x12
	.long	0x7036
	.byte	0x3
	.long	0xb083
	.uleb128 0xc
	.long	.LASF733
	.long	0xa255
	.uleb128 0xc
	.long	.LASF755
	.long	0x74c6
	.uleb128 0x11
	.string	"_Tp"
	.long	0x30
	.uleb128 0xc
	.long	.LASF784
	.long	0x30
	.uleb128 0x13
	.long	.LASF1289
	.byte	0xc
	.value	0x303
	.byte	0x2f
	.long	0xa255
	.uleb128 0xf
	.string	"__n"
	.byte	0xc
	.value	0x303
	.byte	0x3e
	.long	0x74c6
	.uleb128 0xf
	.string	"__x"
	.byte	0xc
	.value	0x304
	.byte	0x14
	.long	0xa273
	.uleb128 0x1
	.long	0xa287
	.byte	0
	.uleb128 0xb
	.long	0x5d1e
	.long	0xb091
	.byte	0x3
	.long	0xb0b5
	.uleb128 0x8
	.long	.LASF1288
	.long	0xa2dc
	.uleb128 0xf
	.string	"__p"
	.byte	0x2
	.value	0x18a
	.byte	0x1d
	.long	0x5a8c
	.uleb128 0xf
	.string	"__n"
	.byte	0x2
	.value	0x18a
	.byte	0x29
	.long	0x2b5
	.byte	0
	.uleb128 0xb
	.long	0x5d41
	.long	0xb0c3
	.byte	0x3
	.long	0xb0da
	.uleb128 0x8
	.long	.LASF1288
	.long	0xa2dc
	.uleb128 0xf
	.string	"__n"
	.byte	0x2
	.value	0x195
	.byte	0x20
	.long	0x2b5
	.byte	0
	.uleb128 0xb
	.long	0x5ac9
	.long	0xb0e8
	.byte	0x2
	.long	0xb0fe
	.uleb128 0x8
	.long	.LASF1288
	.long	0xa2be
	.uleb128 0x26
	.string	"__a"
	.byte	0x2
	.byte	0x98
	.byte	0x25
	.long	0xa2c3
	.byte	0
	.uleb128 0x19
	.long	0xb0da
	.long	.LASF1311
	.long	0xb10f
	.long	0xb11a
	.uleb128 0x3
	.long	0xb0e8
	.uleb128 0x3
	.long	0xb0f1
	.byte	0
	.uleb128 0xb
	.long	0x587a
	.long	0xb128
	.byte	0x2
	.long	0xb13e
	.uleb128 0x8
	.long	.LASF1288
	.long	0xa27d
	.uleb128 0x26
	.string	"__a"
	.byte	0x5
	.byte	0xac
	.byte	0x22
	.long	0xa282
	.byte	0
	.uleb128 0x19
	.long	0xb11a
	.long	.LASF1312
	.long	0xb14f
	.long	0xb15a
	.uleb128 0x3
	.long	0xb128
	.uleb128 0x3
	.long	0xb131
	.byte	0
	.uleb128 0x12
	.long	0x6865
	.byte	0x3
	.long	0xb18c
	.uleb128 0xf
	.string	"__a"
	.byte	0x2
	.value	0x8a4
	.byte	0x29
	.long	0xa32c
	.uleb128 0x27
	.long	.LASF1301
	.byte	0x2
	.value	0x8a9
	.byte	0xf
	.long	0x2c2
	.uleb128 0x27
	.long	.LASF1302
	.byte	0x2
	.value	0x8ab
	.byte	0xf
	.long	0x2c2
	.byte	0
	.uleb128 0x12
	.long	0x7084
	.byte	0x3
	.long	0xb1b8
	.uleb128 0xc
	.long	.LASF733
	.long	0xa147
	.uleb128 0x37
	.long	.LASF1289
	.byte	0xb
	.byte	0xdb
	.byte	0x1f
	.long	0xa147
	.uleb128 0x37
	.long	.LASF1290
	.byte	0xb
	.byte	0xdb
	.byte	0x39
	.long	0xa147
	.byte	0
	.uleb128 0x12
	.long	0x70a8
	.byte	0x3
	.long	0xb213
	.uleb128 0xc
	.long	.LASF733
	.long	0xa147
	.uleb128 0xc
	.long	.LASF755
	.long	0x74c6
	.uleb128 0x11
	.string	"_Tp"
	.long	0x48
	.uleb128 0xc
	.long	.LASF784
	.long	0x48
	.uleb128 0x13
	.long	.LASF1289
	.byte	0xc
	.value	0x303
	.byte	0x2f
	.long	0xa147
	.uleb128 0xf
	.string	"__n"
	.byte	0xc
	.value	0x303
	.byte	0x3e
	.long	0x74c6
	.uleb128 0xf
	.string	"__x"
	.byte	0xc
	.value	0x304
	.byte	0x14
	.long	0xa160
	.uleb128 0x1
	.long	0xa174
	.byte	0
	.uleb128 0xb
	.long	0x4936
	.long	0xb221
	.byte	0x3
	.long	0xb245
	.uleb128 0x8
	.long	.LASF1288
	.long	0xa1c9
	.uleb128 0xf
	.string	"__p"
	.byte	0x2
	.value	0x18a
	.byte	0x1d
	.long	0x46a4
	.uleb128 0xf
	.string	"__n"
	.byte	0x2
	.value	0x18a
	.byte	0x29
	.long	0x2b5
	.byte	0
	.uleb128 0xb
	.long	0x4959
	.long	0xb253
	.byte	0x3
	.long	0xb26a
	.uleb128 0x8
	.long	.LASF1288
	.long	0xa1c9
	.uleb128 0xf
	.string	"__n"
	.byte	0x2
	.value	0x195
	.byte	0x20
	.long	0x2b5
	.byte	0
	.uleb128 0xb
	.long	0x46e1
	.long	0xb278
	.byte	0x2
	.long	0xb28e
	.uleb128 0x8
	.long	.LASF1288
	.long	0xa1ab
	.uleb128 0x26
	.string	"__a"
	.byte	0x2
	.byte	0x98
	.byte	0x25
	.long	0xa1b0
	.byte	0
	.uleb128 0x19
	.long	0xb26a
	.long	.LASF1313
	.long	0xb29f
	.long	0xb2aa
	.uleb128 0x3
	.long	0xb278
	.uleb128 0x3
	.long	0xb281
	.byte	0
	.uleb128 0xb
	.long	0x4492
	.long	0xb2b8
	.byte	0x2
	.long	0xb2ce
	.uleb128 0x8
	.long	.LASF1288
	.long	0xa16a
	.uleb128 0x26
	.string	"__a"
	.byte	0x5
	.byte	0xac
	.byte	0x22
	.long	0xa16f
	.byte	0
	.uleb128 0x19
	.long	0xb2aa
	.long	.LASF1314
	.long	0xb2df
	.long	0xb2ea
	.uleb128 0x3
	.long	0xb2b8
	.uleb128 0x3
	.long	0xb2c1
	.byte	0
	.uleb128 0x12
	.long	0x547d
	.byte	0x3
	.long	0xb31c
	.uleb128 0xf
	.string	"__a"
	.byte	0x2
	.value	0x8a4
	.byte	0x29
	.long	0xa214
	.uleb128 0x27
	.long	.LASF1301
	.byte	0x2
	.value	0x8a9
	.byte	0xf
	.long	0x2c2
	.uleb128 0x27
	.long	.LASF1302
	.byte	0x2
	.value	0x8ab
	.byte	0xf
	.long	0x2c2
	.byte	0
	.uleb128 0x12
	.long	0x70f6
	.byte	0x3
	.long	0xb33c
	.uleb128 0x11
	.string	"_Tp"
	.long	0x9eb0
	.uleb128 0x37
	.long	.LASF1315
	.byte	0x23
	.byte	0xcf
	.byte	0x17
	.long	0xa034
	.byte	0
	.uleb128 0xb
	.long	0x41d3
	.long	0xb34a
	.byte	0x2
	.long	0xb354
	.uleb128 0x8
	.long	.LASF1288
	.long	0xa377
	.byte	0
	.uleb128 0x3c
	.long	0xb33c
	.long	0xb361
	.long	0xb367
	.uleb128 0x3
	.long	0xb34a
	.byte	0
	.uleb128 0xb
	.long	0x41ae
	.long	0xb375
	.byte	0x2
	.long	0xb3a6
	.uleb128 0x8
	.long	.LASF1288
	.long	0xa377
	.uleb128 0xf
	.string	"__s"
	.byte	0x2
	.value	0x749
	.byte	0x17
	.long	0x378b
	.uleb128 0xf
	.string	"__l"
	.byte	0x2
	.value	0x749
	.byte	0x26
	.long	0x3833
	.uleb128 0x13
	.long	.LASF1316
	.byte	0x2
	.value	0x749
	.byte	0x32
	.long	0xa36d
	.byte	0
	.uleb128 0x3c
	.long	0xb367
	.long	0xb3b3
	.long	0xb3c8
	.uleb128 0x3
	.long	0xb375
	.uleb128 0x3
	.long	0xb37e
	.uleb128 0x3
	.long	0xb38b
	.uleb128 0x3
	.long	0xb398
	.byte	0
	.uleb128 0xb
	.long	0x4073
	.long	0xb3d6
	.byte	0x3
	.long	0xb407
	.uleb128 0x8
	.long	.LASF1288
	.long	0xa106
	.uleb128 0xf
	.string	"__n"
	.byte	0x2
	.value	0x890
	.byte	0x1e
	.long	0x3833
	.uleb128 0xf
	.string	"__s"
	.byte	0x2
	.value	0x890
	.byte	0x2f
	.long	0x7751
	.uleb128 0x27
	.long	.LASF1297
	.byte	0x2
	.value	0x895
	.byte	0x12
	.long	0x3840
	.byte	0
	.uleb128 0xb
	.long	0x31c3
	.long	0xb42d
	.byte	0x3
	.long	0xb451
	.uleb128 0x11
	.string	"_Up"
	.long	0x9eb0
	.uleb128 0x47
	.long	.LASF417
	.long	0xb42d
	.uleb128 0x48
	.long	0xa052
	.byte	0
	.uleb128 0x8
	.long	.LASF1288
	.long	0xa025
	.uleb128 0x26
	.string	"__p"
	.byte	0x6
	.byte	0xc9
	.byte	0x11
	.long	0xa034
	.uleb128 0x7b
	.long	.LASF1293
	.byte	0x6
	.byte	0xc9
	.byte	0x1d
	.uleb128 0x1
	.long	0xa052
	.byte	0
	.byte	0
	.uleb128 0x12
	.long	0x7122
	.byte	0x3
	.long	0xb4af
	.uleb128 0x11
	.string	"_Tp"
	.long	0x9eb0
	.uleb128 0x11
	.string	"_Up"
	.long	0x9eb0
	.uleb128 0x13
	.long	.LASF1289
	.byte	0xc
	.value	0x561
	.byte	0x19
	.long	0xa034
	.uleb128 0x13
	.long	.LASF1290
	.byte	0xc
	.value	0x561
	.byte	0x27
	.long	0xa034
	.uleb128 0x13
	.long	.LASF1317
	.byte	0xc
	.value	0x562
	.byte	0xb
	.long	0xa034
	.uleb128 0x13
	.long	.LASF1318
	.byte	0xc
	.value	0x563
	.byte	0x2b
	.long	0xa066
	.uleb128 0x27
	.long	.LASF837
	.byte	0xc
	.value	0x565
	.byte	0x11
	.long	0x623
	.byte	0
	.uleb128 0x12
	.long	0x715a
	.byte	0x3
	.long	0xb4d0
	.uleb128 0xc
	.long	.LASF433
	.long	0xa034
	.uleb128 0x13
	.long	.LASF1299
	.byte	0x3
	.value	0xbce
	.byte	0x1c
	.long	0xa034
	.byte	0
	.uleb128 0x12
	.long	0x32a2
	.byte	0x3
	.long	0xb4f5
	.uleb128 0xf
	.string	"__a"
	.byte	0x8
	.value	0x27d
	.byte	0x20
	.long	0xa06b
	.uleb128 0xf
	.string	"__n"
	.byte	0x8
	.value	0x27d
	.byte	0x2f
	.long	0x32d0
	.byte	0
	.uleb128 0xb
	.long	0x3524
	.long	0xb503
	.byte	0x3
	.long	0xb50d
	.uleb128 0x8
	.long	.LASF1288
	.long	0xa0c5
	.byte	0
	.uleb128 0x12
	.long	0x40b4
	.byte	0x3
	.long	0xb53f
	.uleb128 0xf
	.string	"__a"
	.byte	0x2
	.value	0x8a4
	.byte	0x29
	.long	0xa110
	.uleb128 0x27
	.long	.LASF1301
	.byte	0x2
	.value	0x8a9
	.byte	0xf
	.long	0x2c2
	.uleb128 0x27
	.long	.LASF1302
	.byte	0x2
	.value	0x8ab
	.byte	0xf
	.long	0x2c2
	.byte	0
	.uleb128 0x12
	.long	0x717a
	.byte	0x3
	.long	0xb56b
	.uleb128 0xc
	.long	.LASF733
	.long	0xa034
	.uleb128 0x37
	.long	.LASF1289
	.byte	0xb
	.byte	0xdb
	.byte	0x1f
	.long	0xa034
	.uleb128 0x37
	.long	.LASF1290
	.byte	0xb
	.byte	0xdb
	.byte	0x39
	.long	0xa034
	.byte	0
	.uleb128 0x12
	.long	0x330b
	.byte	0x3
	.long	0xb59d
	.uleb128 0xf
	.string	"__a"
	.byte	0x8
	.value	0x2b0
	.byte	0x22
	.long	0xa06b
	.uleb128 0xf
	.string	"__p"
	.byte	0x8
	.value	0x2b0
	.byte	0x2f
	.long	0x3295
	.uleb128 0xf
	.string	"__n"
	.byte	0x8
	.value	0x2b0
	.byte	0x3e
	.long	0x32d0
	.byte	0
	.uleb128 0xb
	.long	0x3065
	.long	0xb5ab
	.byte	0x2
	.long	0xb5b5
	.uleb128 0x8
	.long	.LASF1288
	.long	0xa025
	.byte	0
	.uleb128 0x3c
	.long	0xb59d
	.long	0xb5c2
	.long	0xb5c8
	.uleb128 0x3
	.long	0xb5ab
	.byte	0
	.uleb128 0x12
	.long	0x719b
	.byte	0x3
	.long	0xb615
	.uleb128 0x11
	.string	"_OI"
	.long	0x9c5a
	.uleb128 0xc
	.long	.LASF755
	.long	0x74c6
	.uleb128 0x11
	.string	"_Tp"
	.long	0x8f39
	.uleb128 0x13
	.long	.LASF1289
	.byte	0xa
	.value	0x49b
	.byte	0x10
	.long	0x9c5a
	.uleb128 0xf
	.string	"__n"
	.byte	0xa
	.value	0x49b
	.byte	0x1f
	.long	0x74c6
	.uleb128 0x13
	.long	.LASF838
	.byte	0xa
	.value	0x49b
	.byte	0x2f
	.long	0x9c78
	.byte	0
	.uleb128 0xb
	.long	0x1c88
	.long	0xb623
	.byte	0x3
	.long	0xb649
	.uleb128 0x8
	.long	.LASF1288
	.long	0x9cff
	.uleb128 0x13
	.long	.LASF1189
	.byte	0x2
	.value	0x8b5
	.byte	0x1f
	.long	0x122e
	.uleb128 0x44
	.uleb128 0x5c
	.string	"__n"
	.byte	0x2
	.value	0x8b7
	.byte	0x10
	.long	0x12e5
	.byte	0
	.byte	0
	.uleb128 0x12
	.long	0x71db
	.byte	0x3
	.long	0xb6a4
	.uleb128 0xc
	.long	.LASF733
	.long	0x9c5a
	.uleb128 0xc
	.long	.LASF755
	.long	0x74c6
	.uleb128 0x11
	.string	"_Tp"
	.long	0x8f39
	.uleb128 0xc
	.long	.LASF784
	.long	0x8f39
	.uleb128 0x13
	.long	.LASF1289
	.byte	0xc
	.value	0x303
	.byte	0x2f
	.long	0x9c5a
	.uleb128 0xf
	.string	"__n"
	.byte	0xc
	.value	0x303
	.byte	0x3e
	.long	0x74c6
	.uleb128 0xf
	.string	"__x"
	.byte	0xc
	.value	0x304
	.byte	0x14
	.long	0x9c78
	.uleb128 0x1
	.long	0x9c8c
	.byte	0
	.uleb128 0x12
	.long	0x7229
	.byte	0x3
	.long	0xb6e8
	.uleb128 0xc
	.long	.LASF733
	.long	0x8156
	.uleb128 0x11
	.string	"_Tp"
	.long	0x8f39
	.uleb128 0x13
	.long	.LASF1289
	.byte	0xa
	.value	0x3e9
	.byte	0x1b
	.long	0x8156
	.uleb128 0x13
	.long	.LASF1290
	.byte	0xa
	.value	0x3e9
	.byte	0x35
	.long	0x8156
	.uleb128 0x13
	.long	.LASF838
	.byte	0xa
	.value	0x3e9
	.byte	0x48
	.long	0x9c78
	.byte	0
	.uleb128 0xb
	.long	0x1560
	.long	0xb6f6
	.byte	0x3
	.long	0xb700
	.uleb128 0x8
	.long	.LASF1288
	.long	0x9cff
	.byte	0
	.uleb128 0xb
	.long	0x1513
	.long	0xb70e
	.byte	0x3
	.long	0xb718
	.uleb128 0x8
	.long	.LASF1288
	.long	0x9cff
	.byte	0
	.uleb128 0xb
	.long	0xe72
	.long	0xb726
	.byte	0x3
	.long	0xb748
	.uleb128 0x8
	.long	.LASF1288
	.long	0x9caa
	.uleb128 0x26
	.string	"__x"
	.byte	0x2
	.byte	0x80
	.byte	0x22
	.long	0x9cb9
	.uleb128 0x4a
	.long	.LASF1319
	.byte	0x2
	.byte	0x84
	.byte	0x16
	.long	0xde6
	.byte	0
	.uleb128 0xb
	.long	0x12f7
	.long	0xb756
	.byte	0x2
	.long	0xb787
	.uleb128 0x8
	.long	.LASF1288
	.long	0x9cff
	.uleb128 0xf
	.string	"__n"
	.byte	0x2
	.value	0x24d
	.byte	0x18
	.long	0x12e5
	.uleb128 0x13
	.long	.LASF838
	.byte	0x2
	.value	0x24d
	.byte	0x2f
	.long	0x9d09
	.uleb128 0xf
	.string	"__a"
	.byte	0x2
	.value	0x24e
	.byte	0x1d
	.long	0x9d04
	.byte	0
	.uleb128 0x19
	.long	0xb748
	.long	.LASF1320
	.long	0xb798
	.long	0xb7ad
	.uleb128 0x3
	.long	0xb756
	.uleb128 0x3
	.long	0xb75f
	.uleb128 0x3
	.long	0xb76c
	.uleb128 0x3
	.long	0xb779
	.byte	0
	.uleb128 0xb
	.long	0x1757
	.long	0xb7bb
	.byte	0x3
	.long	0xb7d2
	.uleb128 0x8
	.long	.LASF1288
	.long	0x9d27
	.uleb128 0x27
	.long	.LASF1321
	.byte	0x2
	.value	0x4b0
	.byte	0xc
	.long	0x623
	.byte	0
	.uleb128 0x12
	.long	0x725c
	.byte	0x3
	.long	0xb7fe
	.uleb128 0xc
	.long	.LASF733
	.long	0x9c5a
	.uleb128 0x37
	.long	.LASF1289
	.byte	0xb
	.byte	0xdb
	.byte	0x1f
	.long	0x9c5a
	.uleb128 0x37
	.long	.LASF1290
	.byte	0xb
	.byte	0xdb
	.byte	0x39
	.long	0x9c5a
	.byte	0
	.uleb128 0x12
	.long	0xd67
	.byte	0x3
	.long	0xb830
	.uleb128 0xf
	.string	"__a"
	.byte	0x8
	.value	0x2b0
	.byte	0x22
	.long	0x9c91
	.uleb128 0xf
	.string	"__p"
	.byte	0x8
	.value	0x2b0
	.byte	0x2f
	.long	0xce9
	.uleb128 0xf
	.string	"__n"
	.byte	0x8
	.value	0x2b0
	.byte	0x3e
	.long	0xd28
	.byte	0
	.uleb128 0xb
	.long	0xabb
	.long	0xb83e
	.byte	0x2
	.long	0xb848
	.uleb128 0x8
	.long	.LASF1288
	.long	0x9c4b
	.byte	0
	.uleb128 0x19
	.long	0xb830
	.long	.LASF1322
	.long	0xb859
	.long	0xb85f
	.uleb128 0x3
	.long	0xb83e
	.byte	0
	.uleb128 0x12
	.long	0x7280
	.byte	0x3
	.long	0xb88b
	.uleb128 0x11
	.string	"_Tp"
	.long	0x74c6
	.uleb128 0x26
	.string	"__a"
	.byte	0xa
	.byte	0xe8
	.byte	0x14
	.long	0xacd2
	.uleb128 0x26
	.string	"__b"
	.byte	0xa
	.byte	0xe8
	.byte	0x24
	.long	0xacd2
	.byte	0
	.uleb128 0xb
	.long	0xc7f
	.long	0xb899
	.byte	0x2
	.long	0xb8af
	.uleb128 0x8
	.long	.LASF1288
	.long	0x9c82
	.uleb128 0x26
	.string	"__a"
	.byte	0x5
	.byte	0xac
	.byte	0x22
	.long	0x9c87
	.byte	0
	.uleb128 0x19
	.long	0xb88b
	.long	.LASF1323
	.long	0xb8c0
	.long	0xb8cb
	.uleb128 0x3
	.long	0xb899
	.uleb128 0x3
	.long	0xb8a2
	.byte	0
	.uleb128 0x12
	.long	0x72a8
	.byte	0x3
	.long	0xb8f7
	.uleb128 0x11
	.string	"_Tp"
	.long	0x30
	.uleb128 0x26
	.string	"__a"
	.byte	0xa
	.byte	0xe8
	.byte	0x14
	.long	0xa273
	.uleb128 0x26
	.string	"__b"
	.byte	0xa
	.byte	0xe8
	.byte	0x24
	.long	0xa273
	.byte	0
	.uleb128 0x12
	.long	0x72d0
	.byte	0x3
	.long	0xb925
	.uleb128 0x11
	.string	"_Tp"
	.long	0x30
	.uleb128 0xf
	.string	"__a"
	.byte	0xa
	.value	0x100
	.byte	0x14
	.long	0xa273
	.uleb128 0xf
	.string	"__b"
	.byte	0xa
	.value	0x100
	.byte	0x24
	.long	0xa273
	.byte	0
	.uleb128 0xb
	.long	0x6932
	.long	0xb93c
	.byte	0x3
	.long	0xb953
	.uleb128 0x11
	.string	"_Up"
	.long	0x30
	.uleb128 0x8
	.long	.LASF1288
	.long	0xa322
	.uleb128 0x13
	.long	.LASF1315
	.byte	0x2
	.value	0x8ee
	.byte	0x13
	.long	0xa255
	.byte	0
	.uleb128 0x12
	.long	0x72f9
	.byte	0x3
	.long	0xb98f
	.uleb128 0xc
	.long	.LASF733
	.long	0xa255
	.uleb128 0x11
	.string	"_Tp"
	.long	0x30
	.uleb128 0x13
	.long	.LASF1289
	.byte	0x8
	.value	0x43a
	.byte	0x1f
	.long	0xa255
	.uleb128 0x13
	.long	.LASF1290
	.byte	0x8
	.value	0x43a
	.byte	0x39
	.long	0xa255
	.uleb128 0x1
	.long	0xa287
	.byte	0
	.uleb128 0xb
	.long	0x5b6f
	.long	0xb99d
	.byte	0x3
	.long	0xb9a7
	.uleb128 0x8
	.long	.LASF1288
	.long	0xa2dc
	.byte	0
	.uleb128 0xb
	.long	0x66ca
	.long	0xb9b5
	.byte	0x3
	.long	0xb9d9
	.uleb128 0x8
	.long	.LASF1288
	.long	0xa2fa
	.uleb128 0xf
	.string	"__n"
	.byte	0x2
	.value	0x7c3
	.byte	0x24
	.long	0x5ee0
	.uleb128 0x13
	.long	.LASF838
	.byte	0x2
	.value	0x7c3
	.byte	0x3b
	.long	0xa304
	.byte	0
	.uleb128 0xb
	.long	0x5cd5
	.long	0xb9e7
	.byte	0x2
	.long	0xba00
	.uleb128 0x8
	.long	.LASF1288
	.long	0xa2dc
	.uleb128 0x44
	.uleb128 0x5c
	.string	"__n"
	.byte	0x2
	.value	0x177
	.byte	0xc
	.long	0x623
	.byte	0
	.byte	0
	.uleb128 0x19
	.long	0xb9d9
	.long	.LASF1324
	.long	0xba11
	.long	0xba22
	.uleb128 0x3
	.long	0xb9e7
	.uleb128 0x6c
	.long	0xb9f0
	.uleb128 0x35
	.long	0xb9f1
	.byte	0
	.byte	0
	.uleb128 0xb
	.long	0x5c30
	.long	0xba30
	.byte	0x2
	.long	0xba54
	.uleb128 0x8
	.long	.LASF1288
	.long	0xa2dc
	.uleb128 0xf
	.string	"__n"
	.byte	0x2
	.value	0x153
	.byte	0x1b
	.long	0x2b5
	.uleb128 0xf
	.string	"__a"
	.byte	0x2
	.value	0x153
	.byte	0x36
	.long	0xa2e6
	.byte	0
	.uleb128 0x19
	.long	0xba22
	.long	.LASF1325
	.long	0xba65
	.long	0xba75
	.uleb128 0x3
	.long	0xba30
	.uleb128 0x3
	.long	0xba39
	.uleb128 0x3
	.long	0xba46
	.byte	0
	.uleb128 0x5d
	.long	0x5b4a
	.byte	0x2
	.byte	0x8b
	.byte	0xe
	.long	0xba85
	.long	0xba8f
	.uleb128 0x8
	.long	.LASF1288
	.long	0xa2be
	.byte	0
	.uleb128 0x19
	.long	0xba75
	.long	.LASF1326
	.long	0xbaa0
	.long	0xbaa6
	.uleb128 0x3
	.long	0xba85
	.byte	0
	.uleb128 0x12
	.long	0x6847
	.byte	0x3
	.long	0xbacb
	.uleb128 0xf
	.string	"__n"
	.byte	0x2
	.value	0x89b
	.byte	0x23
	.long	0x5ee0
	.uleb128 0xf
	.string	"__a"
	.byte	0x2
	.value	0x89b
	.byte	0x3e
	.long	0xa2ff
	.byte	0
	.uleb128 0xb
	.long	0x5714
	.long	0xbad9
	.byte	0x2
	.long	0xbae3
	.uleb128 0x8
	.long	.LASF1288
	.long	0xa246
	.byte	0
	.uleb128 0x19
	.long	0xbacb
	.long	.LASF1327
	.long	0xbaf4
	.long	0xbafa
	.uleb128 0x3
	.long	0xbad9
	.byte	0
	.uleb128 0xb
	.long	0x56b6
	.long	0xbb08
	.byte	0x2
	.long	0xbb12
	.uleb128 0x8
	.long	.LASF1288
	.long	0xa246
	.byte	0
	.uleb128 0x19
	.long	0xbafa
	.long	.LASF1328
	.long	0xbb23
	.long	0xbb29
	.uleb128 0x3
	.long	0xbb08
	.byte	0
	.uleb128 0xb
	.long	0x8a26
	.long	0xbb37
	.byte	0x2
	.long	0xbb4e
	.uleb128 0x8
	.long	.LASF1288
	.long	0xa228
	.uleb128 0xf
	.string	"__i"
	.byte	0x3
	.value	0x422
	.byte	0x2a
	.long	0xa22d
	.byte	0
	.uleb128 0x3c
	.long	0xbb29
	.long	0xbb5b
	.long	0xbb66
	.uleb128 0x3
	.long	0xbb37
	.uleb128 0x3
	.long	0xbb40
	.byte	0
	.uleb128 0x12
	.long	0x732c
	.byte	0x3
	.long	0xbba2
	.uleb128 0xc
	.long	.LASF733
	.long	0xa147
	.uleb128 0x11
	.string	"_Tp"
	.long	0x48
	.uleb128 0x13
	.long	.LASF1289
	.byte	0x8
	.value	0x43a
	.byte	0x1f
	.long	0xa147
	.uleb128 0x13
	.long	.LASF1290
	.byte	0x8
	.value	0x43a
	.byte	0x39
	.long	0xa147
	.uleb128 0x1
	.long	0xa174
	.byte	0
	.uleb128 0xb
	.long	0x4787
	.long	0xbbb0
	.byte	0x3
	.long	0xbbba
	.uleb128 0x8
	.long	.LASF1288
	.long	0xa1c9
	.byte	0
	.uleb128 0xb
	.long	0x52e2
	.long	0xbbc8
	.byte	0x3
	.long	0xbbec
	.uleb128 0x8
	.long	.LASF1288
	.long	0xa1e7
	.uleb128 0xf
	.string	"__n"
	.byte	0x2
	.value	0x7c3
	.byte	0x24
	.long	0x4af8
	.uleb128 0x13
	.long	.LASF838
	.byte	0x2
	.value	0x7c3
	.byte	0x3b
	.long	0xa1f1
	.byte	0
	.uleb128 0xb
	.long	0x48ed
	.long	0xbbfa
	.byte	0x2
	.long	0xbc13
	.uleb128 0x8
	.long	.LASF1288
	.long	0xa1c9
	.uleb128 0x44
	.uleb128 0x5c
	.string	"__n"
	.byte	0x2
	.value	0x177
	.byte	0xc
	.long	0x623
	.byte	0
	.byte	0
	.uleb128 0x19
	.long	0xbbec
	.long	.LASF1329
	.long	0xbc24
	.long	0xbc35
	.uleb128 0x3
	.long	0xbbfa
	.uleb128 0x6c
	.long	0xbc03
	.uleb128 0x35
	.long	0xbc04
	.byte	0
	.byte	0
	.uleb128 0xb
	.long	0x4848
	.long	0xbc43
	.byte	0x2
	.long	0xbc67
	.uleb128 0x8
	.long	.LASF1288
	.long	0xa1c9
	.uleb128 0xf
	.string	"__n"
	.byte	0x2
	.value	0x153
	.byte	0x1b
	.long	0x2b5
	.uleb128 0xf
	.string	"__a"
	.byte	0x2
	.value	0x153
	.byte	0x36
	.long	0xa1d3
	.byte	0
	.uleb128 0x19
	.long	0xbc35
	.long	.LASF1330
	.long	0xbc78
	.long	0xbc88
	.uleb128 0x3
	.long	0xbc43
	.uleb128 0x3
	.long	0xbc4c
	.uleb128 0x3
	.long	0xbc59
	.byte	0
	.uleb128 0x5d
	.long	0x4762
	.byte	0x2
	.byte	0x8b
	.byte	0xe
	.long	0xbc98
	.long	0xbca2
	.uleb128 0x8
	.long	.LASF1288
	.long	0xa1ab
	.byte	0
	.uleb128 0x19
	.long	0xbc88
	.long	.LASF1331
	.long	0xbcb3
	.long	0xbcb9
	.uleb128 0x3
	.long	0xbc98
	.byte	0
	.uleb128 0x12
	.long	0x545f
	.byte	0x3
	.long	0xbcde
	.uleb128 0xf
	.string	"__n"
	.byte	0x2
	.value	0x89b
	.byte	0x23
	.long	0x4af8
	.uleb128 0xf
	.string	"__a"
	.byte	0x2
	.value	0x89b
	.byte	0x3e
	.long	0xa1ec
	.byte	0
	.uleb128 0xb
	.long	0x432c
	.long	0xbcec
	.byte	0x2
	.long	0xbcf6
	.uleb128 0x8
	.long	.LASF1288
	.long	0xa138
	.byte	0
	.uleb128 0x19
	.long	0xbcde
	.long	.LASF1332
	.long	0xbd07
	.long	0xbd0d
	.uleb128 0x3
	.long	0xbcec
	.byte	0
	.uleb128 0xb
	.long	0x42ce
	.long	0xbd1b
	.byte	0x2
	.long	0xbd25
	.uleb128 0x8
	.long	.LASF1288
	.long	0xa138
	.byte	0
	.uleb128 0x19
	.long	0xbd0d
	.long	.LASF1333
	.long	0xbd36
	.long	0xbd3c
	.uleb128 0x3
	.long	0xbd1b
	.byte	0
	.uleb128 0xb
	.long	0x4223
	.long	0xbd59
	.byte	0x1
	.long	0xbdd4
	.uleb128 0x47
	.long	.LASF417
	.long	0xbd59
	.uleb128 0x48
	.long	0xa052
	.byte	0
	.uleb128 0x8
	.long	.LASF1288
	.long	0xa0de
	.uleb128 0xc3
	.long	.LASF1293
	.byte	0x7
	.value	0x236
	.byte	0x20
	.long	0xbd76
	.uleb128 0x1
	.long	0xa052
	.byte	0
	.uleb128 0x27
	.long	.LASF1297
	.byte	0x7
	.value	0x23e
	.byte	0x17
	.long	0x3840
	.uleb128 0x27
	.long	.LASF1334
	.byte	0x7
	.value	0x241
	.byte	0xf
	.long	0x378b
	.uleb128 0x27
	.long	.LASF1335
	.byte	0x7
	.value	0x242
	.byte	0xf
	.long	0x378b
	.uleb128 0x27
	.long	.LASF1336
	.byte	0x7
	.value	0x243
	.byte	0x17
	.long	0x3840
	.uleb128 0x27
	.long	.LASF1337
	.byte	0x7
	.value	0x244
	.byte	0xf
	.long	0x378b
	.uleb128 0x27
	.long	.LASF1338
	.byte	0x7
	.value	0x245
	.byte	0xf
	.long	0x378b
	.uleb128 0x44
	.uleb128 0x27
	.long	.LASF1298
	.byte	0x7
	.value	0x248
	.byte	0xf
	.long	0x4179
	.byte	0
	.byte	0
	.uleb128 0x12
	.long	0x3370
	.byte	0x3
	.long	0xbe21
	.uleb128 0x11
	.string	"_Up"
	.long	0x9eb0
	.uleb128 0x47
	.long	.LASF417
	.long	0xbdf6
	.uleb128 0x48
	.long	0xa052
	.byte	0
	.uleb128 0xf
	.string	"__a"
	.byte	0x8
	.value	0x2c1
	.byte	0x1c
	.long	0xa06b
	.uleb128 0xf
	.string	"__p"
	.byte	0x8
	.value	0x2c2
	.byte	0xa
	.long	0xa034
	.uleb128 0xc4
	.long	.LASF1293
	.byte	0x8
	.value	0x2c2
	.byte	0x16
	.uleb128 0x1
	.long	0xa052
	.byte	0
	.byte	0
	.uleb128 0xb
	.long	0x1d3c
	.long	0xbe38
	.byte	0x3
	.long	0xbe4f
	.uleb128 0x11
	.string	"_Up"
	.long	0x8f39
	.uleb128 0x8
	.long	.LASF1288
	.long	0x9d27
	.uleb128 0x13
	.long	.LASF1315
	.byte	0x2
	.value	0x8ee
	.byte	0x13
	.long	0x9c5a
	.byte	0
	.uleb128 0xb
	.long	0x84cf
	.long	0xbe5d
	.byte	0x2
	.long	0xbe74
	.uleb128 0x8
	.long	.LASF1288
	.long	0xa11a
	.uleb128 0xf
	.string	"__i"
	.byte	0x3
	.value	0x422
	.byte	0x2a
	.long	0xa11f
	.byte	0
	.uleb128 0x19
	.long	0xbe4f
	.long	.LASF1339
	.long	0xbe85
	.long	0xbe90
	.uleb128 0x3
	.long	0xbe5d
	.uleb128 0x3
	.long	0xbe66
	.byte	0
	.uleb128 0x12
	.long	0x735f
	.byte	0x3
	.long	0xbeea
	.uleb128 0xc
	.long	.LASF813
	.long	0xa034
	.uleb128 0xc
	.long	.LASF733
	.long	0xa034
	.uleb128 0xc
	.long	.LASF814
	.long	0x320a
	.uleb128 0x13
	.long	.LASF1289
	.byte	0xc
	.value	0x57c
	.byte	0x21
	.long	0xa034
	.uleb128 0x13
	.long	.LASF1290
	.byte	0xc
	.value	0x57c
	.byte	0x39
	.long	0xa034
	.uleb128 0x13
	.long	.LASF1317
	.byte	0xc
	.value	0x57d
	.byte	0x15
	.long	0xa034
	.uleb128 0x13
	.long	.LASF1318
	.byte	0xc
	.value	0x57d
	.byte	0x2b
	.long	0xa066
	.byte	0
	.uleb128 0xb
	.long	0x366f
	.long	0xbef8
	.byte	0x3
	.long	0xbf0f
	.uleb128 0x8
	.long	.LASF1288
	.long	0xa0bb
	.uleb128 0xf
	.string	"__n"
	.byte	0x2
	.value	0x182
	.byte	0x1a
	.long	0x2b5
	.byte	0
	.uleb128 0xb
	.long	0x3b9d
	.long	0xbf1d
	.byte	0x3
	.long	0xbf34
	.uleb128 0x8
	.long	.LASF1288
	.long	0xa106
	.uleb128 0x27
	.long	.LASF1321
	.byte	0x2
	.value	0x455
	.byte	0xc
	.long	0x623
	.byte	0
	.uleb128 0xb
	.long	0x3c2c
	.long	0xbf42
	.byte	0x3
	.long	0xbf59
	.uleb128 0x8
	.long	.LASF1288
	.long	0xa106
	.uleb128 0x27
	.long	.LASF1321
	.byte	0x2
	.value	0x4b0
	.byte	0xc
	.long	0x623
	.byte	0
	.uleb128 0xb
	.long	0x3bb9
	.long	0xbf67
	.byte	0x3
	.long	0xbf71
	.uleb128 0x8
	.long	.LASF1288
	.long	0xa106
	.byte	0
	.uleb128 0x12
	.long	0x73a0
	.byte	0x3
	.long	0xbfad
	.uleb128 0xc
	.long	.LASF733
	.long	0xa034
	.uleb128 0x11
	.string	"_Tp"
	.long	0x9eb0
	.uleb128 0x13
	.long	.LASF1289
	.byte	0x8
	.value	0x43a
	.byte	0x1f
	.long	0xa034
	.uleb128 0x13
	.long	.LASF1290
	.byte	0x8
	.value	0x43a
	.byte	0x39
	.long	0xa034
	.uleb128 0x1
	.long	0xa066
	.byte	0
	.uleb128 0xb
	.long	0x350a
	.long	0xbfbb
	.byte	0x3
	.long	0xbfc5
	.uleb128 0x8
	.long	.LASF1288
	.long	0xa0bb
	.byte	0
	.uleb128 0xb
	.long	0x368e
	.long	0xbfd3
	.byte	0x3
	.long	0xbff7
	.uleb128 0x8
	.long	.LASF1288
	.long	0xa0bb
	.uleb128 0xf
	.string	"__p"
	.byte	0x2
	.value	0x18a
	.byte	0x1d
	.long	0x3448
	.uleb128 0xf
	.string	"__n"
	.byte	0x2
	.value	0x18a
	.byte	0x29
	.long	0x2b5
	.byte	0
	.uleb128 0xb
	.long	0x30b6
	.long	0xc005
	.byte	0x2
	.long	0xc00f
	.uleb128 0x8
	.long	.LASF1288
	.long	0xa025
	.byte	0
	.uleb128 0x3c
	.long	0xbff7
	.long	0xc01c
	.long	0xc022
	.uleb128 0x3
	.long	0xc005
	.byte	0
	.uleb128 0xb
	.long	0x33e4
	.long	0xc030
	.byte	0x2
	.long	0xc03a
	.uleb128 0x8
	.long	.LASF1288
	.long	0xa084
	.byte	0
	.uleb128 0x3c
	.long	0xc022
	.long	0xc047
	.long	0xc04d
	.uleb128 0x3
	.long	0xc030
	.byte	0
	.uleb128 0xb
	.long	0x321c
	.long	0xc05b
	.byte	0x2
	.long	0xc065
	.uleb128 0x8
	.long	.LASF1288
	.long	0xa05c
	.byte	0
	.uleb128 0x3c
	.long	0xc04d
	.long	0xc072
	.long	0xc078
	.uleb128 0x3
	.long	0xc05b
	.byte	0
	.uleb128 0xb
	.long	0x1b1b
	.long	0xc086
	.byte	0x1
	.long	0xc0da
	.uleb128 0x8
	.long	.LASF1288
	.long	0x9cff
	.uleb128 0xf
	.string	"__n"
	.byte	0x7
	.value	0x113
	.byte	0x1b
	.long	0x2b5
	.uleb128 0x13
	.long	.LASF1296
	.byte	0x7
	.value	0x113
	.byte	0x32
	.long	0x9d09
	.uleb128 0x27
	.long	.LASF1340
	.byte	0x7
	.value	0x115
	.byte	0x17
	.long	0x12f2
	.uleb128 0xc5
	.long	0xc0ca
	.uleb128 0x27
	.long	.LASF1319
	.byte	0x7
	.value	0x11a
	.byte	0xb
	.long	0x11a2
	.byte	0
	.uleb128 0x44
	.uleb128 0x27
	.long	.LASF1341
	.byte	0x7
	.value	0x120
	.byte	0x14
	.long	0x12f2
	.byte	0
	.byte	0
	.uleb128 0x12
	.long	0x73cf
	.byte	0x3
	.long	0xc116
	.uleb128 0xc
	.long	.LASF733
	.long	0x9c5a
	.uleb128 0x11
	.string	"_Tp"
	.long	0x8f39
	.uleb128 0x13
	.long	.LASF1289
	.byte	0x8
	.value	0x43a
	.byte	0x1f
	.long	0x9c5a
	.uleb128 0x13
	.long	.LASF1290
	.byte	0x8
	.value	0x43a
	.byte	0x39
	.long	0x9c5a
	.uleb128 0x1
	.long	0x9c8c
	.byte	0
	.uleb128 0xb
	.long	0xf74
	.long	0xc124
	.byte	0x3
	.long	0xc12e
	.uleb128 0x8
	.long	.LASF1288
	.long	0x9ce1
	.byte	0
	.uleb128 0xb
	.long	0x1123
	.long	0xc13c
	.byte	0x3
	.long	0xc160
	.uleb128 0x8
	.long	.LASF1288
	.long	0x9ce1
	.uleb128 0xf
	.string	"__p"
	.byte	0x2
	.value	0x18a
	.byte	0x1d
	.long	0xe91
	.uleb128 0xf
	.string	"__n"
	.byte	0x2
	.value	0x18a
	.byte	0x29
	.long	0x2b5
	.byte	0
	.uleb128 0xb
	.long	0xb19
	.long	0xc16e
	.byte	0x2
	.long	0xc178
	.uleb128 0x8
	.long	.LASF1288
	.long	0x9c4b
	.byte	0
	.uleb128 0x19
	.long	0xc160
	.long	.LASF1342
	.long	0xc189
	.long	0xc18f
	.uleb128 0x3
	.long	0xc16e
	.byte	0
	.uleb128 0xb
	.long	0xe1a
	.long	0xc19d
	.byte	0x2
	.long	0xc1a7
	.uleb128 0x8
	.long	.LASF1288
	.long	0x9caa
	.byte	0
	.uleb128 0x19
	.long	0xc18f
	.long	.LASF1343
	.long	0xc1b8
	.long	0xc1be
	.uleb128 0x3
	.long	0xc19d
	.byte	0
	.uleb128 0xb
	.long	0xc64
	.long	0xc1cc
	.byte	0x2
	.long	0xc1d6
	.uleb128 0x8
	.long	.LASF1288
	.long	0x9c82
	.byte	0
	.uleb128 0x19
	.long	0xc1be
	.long	.LASF1344
	.long	0xc1e7
	.long	0xc1ed
	.uleb128 0x3
	.long	0xc1cc
	.byte	0
	.uleb128 0xb
	.long	0x16b4
	.long	0xc1fb
	.byte	0x3
	.long	0xc212
	.uleb128 0x8
	.long	.LASF1288
	.long	0x9d27
	.uleb128 0x27
	.long	.LASF1321
	.byte	0x2
	.value	0x455
	.byte	0xc
	.long	0x623
	.byte	0
	.uleb128 0x12
	.long	0x7402
	.byte	0x3
	.long	0xc24d
	.uleb128 0x11
	.string	"_Tp"
	.long	0x30
	.uleb128 0x13
	.long	.LASF1296
	.byte	0xd
	.value	0xe1e
	.byte	0x16
	.long	0xa273
	.uleb128 0x13
	.long	.LASF1345
	.byte	0xd
	.value	0xe1e
	.byte	0x28
	.long	0xa273
	.uleb128 0x13
	.long	.LASF1346
	.byte	0xd
	.value	0xe1e
	.byte	0x39
	.long	0xa273
	.byte	0
	.uleb128 0xb
	.long	0x64f4
	.long	0xc25b
	.byte	0x3
	.long	0xc265
	.uleb128 0x8
	.long	.LASF1288
	.long	0xa2fa
	.byte	0
	.uleb128 0xb
	.long	0x602b
	.long	0xc273
	.byte	0x2
	.long	0xc27d
	.uleb128 0x8
	.long	.LASF1288
	.long	0xa2fa
	.byte	0
	.uleb128 0x19
	.long	0xc265
	.long	.LASF1347
	.long	0xc28e
	.long	0xc294
	.uleb128 0x3
	.long	0xc273
	.byte	0
	.uleb128 0xb
	.long	0x5eed
	.long	0xc2a2
	.byte	0x2
	.long	0xc2d3
	.uleb128 0x8
	.long	.LASF1288
	.long	0xa2fa
	.uleb128 0xf
	.string	"__n"
	.byte	0x2
	.value	0x24d
	.byte	0x18
	.long	0x5ee0
	.uleb128 0x13
	.long	.LASF838
	.byte	0x2
	.value	0x24d
	.byte	0x2f
	.long	0xa304
	.uleb128 0xf
	.string	"__a"
	.byte	0x2
	.value	0x24e
	.byte	0x1d
	.long	0xa2ff
	.byte	0
	.uleb128 0x19
	.long	0xc294
	.long	.LASF1348
	.long	0xc2e4
	.long	0xc2f9
	.uleb128 0x3
	.long	0xc2a2
	.uleb128 0x3
	.long	0xc2ab
	.uleb128 0x3
	.long	0xc2b8
	.uleb128 0x3
	.long	0xc2c5
	.byte	0
	.uleb128 0xb
	.long	0x58bd
	.long	0xc307
	.byte	0x2
	.long	0xc311
	.uleb128 0x8
	.long	.LASF1288
	.long	0xa27d
	.byte	0
	.uleb128 0x19
	.long	0xc2f9
	.long	.LASF1349
	.long	0xc322
	.long	0xc328
	.uleb128 0x3
	.long	0xc307
	.byte	0
	.uleb128 0xb
	.long	0x585f
	.long	0xc336
	.byte	0x2
	.long	0xc340
	.uleb128 0x8
	.long	.LASF1288
	.long	0xa27d
	.byte	0
	.uleb128 0x19
	.long	0xc328
	.long	.LASF1350
	.long	0xc351
	.long	0xc357
	.uleb128 0x3
	.long	0xc336
	.byte	0
	.uleb128 0xb
	.long	0x4fd2
	.long	0xc365
	.byte	0x3
	.long	0xc37c
	.uleb128 0x8
	.long	.LASF1288
	.long	0xa1e7
	.uleb128 0xf
	.string	"__n"
	.byte	0x2
	.value	0x4e3
	.byte	0x1c
	.long	0x4af8
	.byte	0
	.uleb128 0xb
	.long	0x3a71
	.long	0xc38a
	.byte	0x3
	.long	0xc394
	.uleb128 0x8
	.long	.LASF1288
	.long	0xa0de
	.byte	0
	.uleb128 0xb
	.long	0x3a2c
	.long	0xc3a2
	.byte	0x3
	.long	0xc3ac
	.uleb128 0x8
	.long	.LASF1288
	.long	0xa0de
	.byte	0
	.uleb128 0xb
	.long	0x4c43
	.long	0xc3ba
	.byte	0x2
	.long	0xc3c4
	.uleb128 0x8
	.long	.LASF1288
	.long	0xa1e7
	.byte	0
	.uleb128 0x19
	.long	0xc3ac
	.long	.LASF1351
	.long	0xc3d5
	.long	0xc3db
	.uleb128 0x3
	.long	0xc3ba
	.byte	0
	.uleb128 0xb
	.long	0x4b05
	.long	0xc3e9
	.byte	0x2
	.long	0xc41a
	.uleb128 0x8
	.long	.LASF1288
	.long	0xa1e7
	.uleb128 0xf
	.string	"__n"
	.byte	0x2
	.value	0x24d
	.byte	0x18
	.long	0x4af8
	.uleb128 0x13
	.long	.LASF838
	.byte	0x2
	.value	0x24d
	.byte	0x2f
	.long	0xa1f1
	.uleb128 0xf
	.string	"__a"
	.byte	0x2
	.value	0x24e
	.byte	0x1d
	.long	0xa1ec
	.byte	0
	.uleb128 0x19
	.long	0xc3db
	.long	.LASF1352
	.long	0xc42b
	.long	0xc440
	.uleb128 0x3
	.long	0xc3e9
	.uleb128 0x3
	.long	0xc3f2
	.uleb128 0x3
	.long	0xc3ff
	.uleb128 0x3
	.long	0xc40c
	.byte	0
	.uleb128 0xb
	.long	0x44d5
	.long	0xc44e
	.byte	0x2
	.long	0xc458
	.uleb128 0x8
	.long	.LASF1288
	.long	0xa16a
	.byte	0
	.uleb128 0x19
	.long	0xc440
	.long	.LASF1353
	.long	0xc469
	.long	0xc46f
	.uleb128 0x3
	.long	0xc44e
	.byte	0
	.uleb128 0xb
	.long	0x4477
	.long	0xc47d
	.byte	0x2
	.long	0xc487
	.uleb128 0x8
	.long	.LASF1288
	.long	0xa16a
	.byte	0
	.uleb128 0x19
	.long	0xc46f
	.long	.LASF1354
	.long	0xc498
	.long	0xc49e
	.uleb128 0x3
	.long	0xc47d
	.byte	0
	.uleb128 0xb
	.long	0x3dda
	.long	0xc4ac
	.byte	0x3
	.long	0xc4c3
	.uleb128 0x8
	.long	.LASF1288
	.long	0xa0de
	.uleb128 0xf
	.string	"__x"
	.byte	0x2
	.value	0x57e
	.byte	0x23
	.long	0xa0e8
	.byte	0
	.uleb128 0xb
	.long	0x18fe
	.long	0xc4d1
	.byte	0x3
	.long	0xc4db
	.uleb128 0x8
	.long	.LASF1288
	.long	0x9cff
	.byte	0
	.uleb128 0x12
	.long	0x7430
	.byte	0x3
	.long	0xc507
	.uleb128 0x11
	.string	"_Tp"
	.long	0x48
	.uleb128 0x26
	.string	"__a"
	.byte	0xa
	.byte	0xe8
	.byte	0x14
	.long	0xa160
	.uleb128 0x26
	.string	"__b"
	.byte	0xa
	.byte	0xe8
	.byte	0x24
	.long	0xa160
	.byte	0
	.uleb128 0x12
	.long	0x7458
	.byte	0x3
	.long	0xc535
	.uleb128 0x11
	.string	"_Tp"
	.long	0x48
	.uleb128 0xf
	.string	"__a"
	.byte	0xa
	.value	0x100
	.byte	0x14
	.long	0xa160
	.uleb128 0xf
	.string	"__b"
	.byte	0xa
	.value	0x100
	.byte	0x24
	.long	0xa160
	.byte	0
	.uleb128 0xb
	.long	0x2845
	.long	0xc543
	.byte	0x3
	.long	0xc54d
	.uleb128 0x8
	.long	.LASF1288
	.long	0x9fe9
	.byte	0
	.uleb128 0xb
	.long	0x27f8
	.long	0xc55b
	.byte	0x3
	.long	0xc565
	.uleb128 0x8
	.long	.LASF1288
	.long	0x9fe9
	.byte	0
	.uleb128 0xb
	.long	0x3c64
	.long	0xc573
	.byte	0x1
	.long	0xc5a3
	.uleb128 0x8
	.long	.LASF1288
	.long	0xa0de
	.uleb128 0x26
	.string	"__n"
	.byte	0x7
	.byte	0x47
	.byte	0x17
	.long	0x3833
	.uleb128 0x44
	.uleb128 0x4a
	.long	.LASF1355
	.byte	0x7
	.byte	0x4d
	.byte	0x14
	.long	0x3840
	.uleb128 0x4a
	.long	.LASF1319
	.byte	0x7
	.byte	0x4e
	.byte	0xc
	.long	0x378b
	.byte	0
	.byte	0
	.uleb128 0xb
	.long	0x2999
	.long	0xc5b1
	.byte	0x3
	.long	0xc5c8
	.uleb128 0x8
	.long	.LASF1288
	.long	0xa011
	.uleb128 0x27
	.long	.LASF1321
	.byte	0x2
	.value	0x455
	.byte	0xc
	.long	0x623
	.byte	0
	.uleb128 0xb
	.long	0x3966
	.long	0xc5d6
	.byte	0x2
	.long	0xc5e0
	.uleb128 0x8
	.long	.LASF1288
	.long	0xa0de
	.byte	0
	.uleb128 0x3c
	.long	0xc5c8
	.long	0xc5ed
	.long	0xc5f3
	.uleb128 0x3
	.long	0xc5d6
	.byte	0
	.uleb128 0xb
	.long	0x364c
	.long	0xc601
	.byte	0x2
	.long	0xc61a
	.uleb128 0x8
	.long	.LASF1288
	.long	0xa0bb
	.uleb128 0x44
	.uleb128 0x5c
	.string	"__n"
	.byte	0x2
	.value	0x177
	.byte	0xc
	.long	0x623
	.byte	0
	.byte	0
	.uleb128 0x3c
	.long	0xc5f3
	.long	0xc627
	.long	0xc638
	.uleb128 0x3
	.long	0xc601
	.uleb128 0x6c
	.long	0xc60a
	.uleb128 0x35
	.long	0xc60b
	.byte	0
	.byte	0
	.uleb128 0xb
	.long	0x326d
	.long	0xc646
	.byte	0x2
	.long	0xc650
	.uleb128 0x8
	.long	.LASF1288
	.long	0xa05c
	.byte	0
	.uleb128 0x3c
	.long	0xc638
	.long	0xc65d
	.long	0xc663
	.uleb128 0x3
	.long	0xc646
	.byte	0
	.uleb128 0xb
	.long	0x346b
	.long	0xc671
	.byte	0x2
	.long	0xc67b
	.uleb128 0x8
	.long	.LASF1288
	.long	0xa09d
	.byte	0
	.uleb128 0x3c
	.long	0xc663
	.long	0xc688
	.long	0xc68e
	.uleb128 0x3
	.long	0xc671
	.byte	0
	.uleb128 0xb
	.long	0x14bf
	.long	0xc69c
	.byte	0x3
	.long	0xc6c0
	.uleb128 0x8
	.long	.LASF1288
	.long	0x9cff
	.uleb128 0xf
	.string	"__n"
	.byte	0x2
	.value	0x361
	.byte	0x18
	.long	0x12e5
	.uleb128 0x13
	.long	.LASF1296
	.byte	0x2
	.value	0x361
	.byte	0x2f
	.long	0x9d09
	.byte	0
	.uleb128 0xb
	.long	0x1435
	.long	0xc6ce
	.byte	0x2
	.long	0xc6d8
	.uleb128 0x8
	.long	.LASF1288
	.long	0x9cff
	.byte	0
	.uleb128 0x19
	.long	0xc6c0
	.long	.LASF1356
	.long	0xc6e9
	.long	0xc6ef
	.uleb128 0x3
	.long	0xc6ce
	.byte	0
	.uleb128 0xb
	.long	0x10da
	.long	0xc6fd
	.byte	0x2
	.long	0xc716
	.uleb128 0x8
	.long	.LASF1288
	.long	0x9ce1
	.uleb128 0x44
	.uleb128 0x5c
	.string	"__n"
	.byte	0x2
	.value	0x177
	.byte	0xc
	.long	0x623
	.byte	0
	.byte	0
	.uleb128 0x19
	.long	0xc6ef
	.long	.LASF1357
	.long	0xc727
	.long	0xc738
	.uleb128 0x3
	.long	0xc6fd
	.uleb128 0x6c
	.long	0xc706
	.uleb128 0x35
	.long	0xc707
	.byte	0
	.byte	0
	.uleb128 0xb
	.long	0xcc2
	.long	0xc746
	.byte	0x2
	.long	0xc750
	.uleb128 0x8
	.long	.LASF1288
	.long	0x9c82
	.byte	0
	.uleb128 0x19
	.long	0xc738
	.long	.LASF1358
	.long	0xc761
	.long	0xc767
	.uleb128 0x3
	.long	0xc746
	.byte	0
	.uleb128 0xb
	.long	0xeb4
	.long	0xc775
	.byte	0x2
	.long	0xc77f
	.uleb128 0x8
	.long	.LASF1288
	.long	0x9cc3
	.byte	0
	.uleb128 0x19
	.long	0xc767
	.long	.LASF1359
	.long	0xc790
	.long	0xc796
	.uleb128 0x3
	.long	0xc775
	.byte	0
	.uleb128 0xb
	.long	0x2b63
	.long	0xc7a4
	.byte	0x3
	.long	0xc7ae
	.uleb128 0x8
	.long	.LASF1288
	.long	0x9fe9
	.byte	0
	.uleb128 0xc6
	.long	.LASF1360
	.byte	0x1
	.byte	0x18
	.byte	0xb
	.long	.LASF1361
	.long	0x9d36
	.long	.LLRL0
	.uleb128 0x1
	.byte	0x9c
	.long	0x10034
	.uleb128 0x95
	.long	.LASF1362
	.byte	0x40
	.long	0xa007
	.long	.LLST1
	.long	.LVUS1
	.uleb128 0x95
	.long	.LASF1363
	.byte	0x54
	.long	0x30
	.long	.LLST2
	.long	.LVUS2
	.uleb128 0x4a
	.long	.LASF1265
	.byte	0x1
	.byte	0x19
	.byte	0x12
	.long	0x74c1
	.uleb128 0x4a
	.long	.LASF1266
	.byte	0x1
	.byte	0x1a
	.byte	0x12
	.long	0x74c1
	.uleb128 0x6d
	.string	"w"
	.byte	0x1b
	.byte	0xf
	.long	0x50
	.uleb128 0x6d
	.string	"h"
	.byte	0x1c
	.byte	0xf
	.long	0x50
	.uleb128 0x30
	.long	.LASF1364
	.byte	0x1e
	.byte	0xf
	.long	0x9d36
	.long	.LLST3
	.long	.LVUS3
	.uleb128 0x30
	.long	.LASF1365
	.byte	0x23
	.byte	0x1c
	.long	0x3706
	.long	.LLST4
	.long	.LVUS4
	.uleb128 0x4a
	.long	.LASF1366
	.byte	0x1
	.byte	0x40
	.byte	0x16
	.long	0x49b5
	.uleb128 0x4a
	.long	.LASF1367
	.byte	0x1
	.byte	0x52
	.byte	0x18
	.long	0x5d9d
	.uleb128 0x56
	.long	.LLRL116
	.long	0xd046
	.uleb128 0x38
	.string	"sub"
	.byte	0x26
	.byte	0x1c
	.long	0x9f67
	.long	.LLST117
	.long	.LVUS117
	.uleb128 0x96
	.long	.LASF1368
	.long	0xa007
	.long	.LLST118
	.long	.LVUS118
	.uleb128 0x57
	.long	.LASF1369
	.long	0x27eb
	.uleb128 0x57
	.long	.LASF1370
	.long	0x27eb
	.uleb128 0x56
	.long	.LLRL125
	.long	0xcf6f
	.uleb128 0x30
	.long	.LASF1371
	.byte	0x27
	.byte	0x15
	.long	0x7ce3
	.long	.LLST126
	.long	.LVUS126
	.uleb128 0x30
	.long	.LASF1372
	.byte	0x28
	.byte	0x15
	.long	0x7ce3
	.long	.LLST127
	.long	.LVUS127
	.uleb128 0x38
	.string	"p"
	.byte	0x2a
	.byte	0x13
	.long	0x9eb0
	.long	.LLST128
	.long	.LVUS128
	.uleb128 0x38
	.string	"dx"
	.byte	0x2e
	.byte	0x15
	.long	0x7ce3
	.long	.LLST129
	.long	.LVUS129
	.uleb128 0x38
	.string	"dy"
	.byte	0x2f
	.byte	0x15
	.long	0x7ce3
	.long	.LLST130
	.long	.LVUS130
	.uleb128 0x36
	.long	0x1028c
	.quad	.LBI1994
	.value	.LVU97
	.quad	.LBB1994
	.quad	.LBE1994-.LBB1994
	.byte	0x1
	.byte	0x2b
	.byte	0x2b
	.long	0xc92f
	.uleb128 0x4
	.long	0x10296
	.long	.LLST131
	.long	.LVUS131
	.byte	0
	.uleb128 0x36
	.long	0x1028c
	.quad	.LBI1996
	.value	.LVU103
	.quad	.LBB1996
	.quad	.LBE1996-.LBB1996
	.byte	0x1
	.byte	0x2c
	.byte	0x2b
	.long	0xc963
	.uleb128 0x4
	.long	0x10296
	.long	.LLST132
	.long	.LVUS132
	.byte	0
	.uleb128 0x36
	.long	0xc507
	.quad	.LBI1998
	.value	.LVU115
	.quad	.LBB1998
	.quad	.LBE1998-.LBB1998
	.byte	0x1
	.byte	0x36
	.byte	0x1d
	.long	0xc994
	.uleb128 0x3
	.long	0xc51a
	.uleb128 0x3
	.long	0xc527
	.byte	0
	.uleb128 0x39
	.long	0xc4db
	.quad	.LBI1999
	.value	.LVU120
	.long	.LLRL133
	.byte	0x1
	.byte	0x37
	.byte	0x1d
	.long	0xc9c1
	.uleb128 0x4
	.long	0xc4ee
	.long	.LLST134
	.long	.LVUS134
	.uleb128 0x3
	.long	0xc4fa
	.byte	0
	.uleb128 0x36
	.long	0xc507
	.quad	.LBI2002
	.value	.LVU126
	.quad	.LBB2002
	.quad	.LBE2002-.LBB2002
	.byte	0x1
	.byte	0x38
	.byte	0x1d
	.long	0xc9f2
	.uleb128 0x3
	.long	0xc51a
	.uleb128 0x3
	.long	0xc527
	.byte	0
	.uleb128 0x39
	.long	0xc4db
	.quad	.LBI2003
	.value	.LVU129
	.long	.LLRL135
	.byte	0x1
	.byte	0x39
	.byte	0x1d
	.long	0xca1f
	.uleb128 0x4
	.long	0xc4ee
	.long	.LLST136
	.long	.LVUS136
	.uleb128 0x3
	.long	0xc4fa
	.byte	0
	.uleb128 0x39
	.long	0xc4c3
	.quad	.LBI2006
	.value	.LVU135
	.long	.LLRL137
	.byte	0x1
	.byte	0x3a
	.byte	0x27
	.long	0xca47
	.uleb128 0x4
	.long	0xc4d1
	.long	.LLST138
	.long	.LVUS138
	.byte	0
	.uleb128 0x3d
	.long	0xc49e
	.quad	.LBI2011
	.value	.LVU153
	.long	.LLRL139
	.byte	0x1
	.byte	0x3d
	.byte	0x19
	.uleb128 0x4
	.long	0xc4ac
	.long	.LLST140
	.long	.LVUS140
	.uleb128 0x4
	.long	0xc4b5
	.long	.LLST141
	.long	.LVUS141
	.uleb128 0x33
	.long	0xbdd4
	.quad	.LBI2013
	.value	.LVU155
	.long	.LLRL142
	.byte	0x2
	.value	0x583
	.byte	0x1e
	.long	0xcae9
	.uleb128 0x4
	.long	0xbdf6
	.long	.LLST143
	.long	.LVUS143
	.uleb128 0x3
	.long	0xbe03
	.uleb128 0x4
	.long	0xbe1a
	.long	.LLST144
	.long	.LVUS144
	.uleb128 0x16
	.long	0xb407
	.quad	.LBI2014
	.value	.LVU156
	.long	.LLRL142
	.byte	0x8
	.value	0x2ca
	.byte	0x11
	.uleb128 0x4
	.long	0xb42d
	.long	.LLST145
	.long	.LVUS145
	.uleb128 0x3
	.long	0xb436
	.uleb128 0x4
	.long	0xb44a
	.long	.LLST146
	.long	.LVUS146
	.byte	0
	.byte	0
	.uleb128 0x16
	.long	0xbd3c
	.quad	.LBI2019
	.value	.LVU771
	.long	.LLRL147
	.byte	0x2
	.value	0x589
	.byte	0x15
	.uleb128 0x4
	.long	0xbd59
	.long	.LLST148
	.long	.LVUS148
	.uleb128 0x4
	.long	0xbd70
	.long	.LLST149
	.long	.LVUS149
	.uleb128 0x35
	.long	0xbd76
	.uleb128 0x3a
	.long	0xbd83
	.long	.LLST150
	.long	.LVUS150
	.uleb128 0x3a
	.long	0xbd90
	.long	.LLST151
	.long	.LVUS151
	.uleb128 0x3a
	.long	0xbd9d
	.long	.LLST152
	.long	.LVUS152
	.uleb128 0x3a
	.long	0xbdaa
	.long	.LLST153
	.long	.LVUS153
	.uleb128 0x3a
	.long	0xbdb7
	.long	.LLST154
	.long	.LVUS154
	.uleb128 0x33
	.long	0xb3c8
	.quad	.LBI2021
	.value	.LVU772
	.long	.LLRL155
	.byte	0x7
	.value	0x23e
	.byte	0x2b
	.long	0xcc34
	.uleb128 0x4
	.long	0xb3d6
	.long	.LLST156
	.long	.LVUS156
	.uleb128 0x4
	.long	0xb3df
	.long	.LLST157
	.long	.LVUS157
	.uleb128 0x4
	.long	0xb3ec
	.long	.LLST158
	.long	.LVUS158
	.uleb128 0x35
	.long	0xb3f9
	.uleb128 0x6e
	.long	0xbf0f
	.quad	.LBI2023
	.value	.LVU773
	.quad	.LBB2023
	.quad	.LBE2023-.LBB2023
	.value	0x892
	.byte	0x17
	.byte	0x1
	.long	0xcbe9
	.uleb128 0x4
	.long	0xbf1d
	.long	.LLST159
	.long	.LVUS159
	.uleb128 0x3a
	.long	0xbf26
	.long	.LLST160
	.long	.LVUS160
	.byte	0
	.uleb128 0x4c
	.long	0xacd7
	.quad	.LBI2025
	.value	.LVU783
	.long	.LLRL161
	.byte	0x2
	.value	0x895
	.byte	0x2d
	.byte	0x2
	.long	0xcc18
	.uleb128 0x3
	.long	0xacea
	.uleb128 0x4
	.long	0xacf7
	.long	.LLST162
	.long	.LVUS162
	.byte	0
	.uleb128 0x2c
	.quad	.LVL181
	.long	0x6cee
	.uleb128 0x22
	.uleb128 0x1
	.byte	0x55
	.uleb128 0x9
	.byte	0x3
	.quad	.LC2
	.byte	0
	.byte	0
	.uleb128 0x33
	.long	0xbeea
	.quad	.LBI2030
	.value	.LVU785
	.long	.LLRL163
	.byte	0x7
	.value	0x244
	.byte	0x2c
	.long	0xccda
	.uleb128 0x4
	.long	0xbef8
	.long	.LLST164
	.long	.LVUS164
	.uleb128 0x3
	.long	0xbf01
	.uleb128 0x55
	.long	0xb4d0
	.quad	.LBI2032
	.value	.LVU786
	.long	.LLRL165
	.byte	0x2
	.value	0x185
	.byte	0x21
	.byte	0x1
	.uleb128 0x4
	.long	0xb4da
	.long	.LLST166
	.long	.LVUS166
	.uleb128 0x3
	.long	0xb4e7
	.uleb128 0x16
	.long	0xad05
	.quad	.LBI2033
	.value	.LVU787
	.long	.LLRL167
	.byte	0x8
	.value	0x27e
	.byte	0x1c
	.uleb128 0x4
	.long	0xad28
	.long	.LLST168
	.long	.LVUS168
	.uleb128 0x4
	.long	0xad13
	.long	.LLST169
	.long	.LVUS169
	.uleb128 0x3
	.long	0xad1c
	.uleb128 0x2c
	.quad	.LVL155
	.long	0xa3d4
	.uleb128 0x22
	.uleb128 0x1
	.byte	0x55
	.uleb128 0x4
	.byte	0x91
	.sleb128 -128
	.byte	0x6
	.byte	0
	.byte	0
	.byte	0
	.byte	0
	.uleb128 0x6f
	.long	0xbdc4
	.long	.LLRL170
	.uleb128 0x35
	.long	0xbdc5
	.uleb128 0x4c
	.long	0xbdd4
	.quad	.LBI2049
	.value	.LVU798
	.long	.LLRL171
	.byte	0x7
	.value	0x252
	.byte	0x1a
	.byte	0x1
	.long	0xcd6b
	.uleb128 0x4
	.long	0xbdf6
	.long	.LLST172
	.long	.LVUS172
	.uleb128 0x4
	.long	0xbe03
	.long	.LLST173
	.long	.LVUS173
	.uleb128 0x4
	.long	0xbe1a
	.long	.LLST174
	.long	.LVUS174
	.uleb128 0x16
	.long	0xb407
	.quad	.LBI2050
	.value	.LVU799
	.long	.LLRL171
	.byte	0x8
	.value	0x2ca
	.byte	0x11
	.uleb128 0x4
	.long	0xb42d
	.long	.LLST175
	.long	.LVUS175
	.uleb128 0x4
	.long	0xb436
	.long	.LLST176
	.long	.LVUS176
	.uleb128 0x4
	.long	0xb44a
	.long	.LLST177
	.long	.LVUS177
	.byte	0
	.byte	0
	.uleb128 0x33
	.long	0xbe90
	.quad	.LBI2064
	.value	.LVU810
	.long	.LLRL178
	.byte	0x7
	.value	0x25f
	.byte	0x26
	.long	0xce29
	.uleb128 0x4
	.long	0xbeb5
	.long	.LLST179
	.long	.LVUS179
	.uleb128 0x3
	.long	0xbec2
	.uleb128 0x4
	.long	0xbecf
	.long	.LLST180
	.long	.LVUS180
	.uleb128 0x4
	.long	0xbedc
	.long	.LLST181
	.long	.LVUS181
	.uleb128 0x55
	.long	0xb451
	.quad	.LBI2065
	.value	.LVU811
	.long	.LLRL178
	.byte	0xc
	.value	0x582
	.byte	0x21
	.byte	0x3
	.uleb128 0x4
	.long	0xb46d
	.long	.LLST182
	.long	.LVUS182
	.uleb128 0x3
	.long	0xb47a
	.uleb128 0x4
	.long	0xb487
	.long	.LLST183
	.long	.LVUS183
	.uleb128 0x4
	.long	0xb494
	.long	.LLST184
	.long	.LVUS184
	.uleb128 0x3a
	.long	0xb4a1
	.long	.LLST185
	.long	.LVUS185
	.uleb128 0x2c
	.quad	.LVL159
	.long	0x10301
	.uleb128 0x22
	.uleb128 0x1
	.byte	0x55
	.uleb128 0x4
	.byte	0x91
	.sleb128 -136
	.byte	0x6
	.uleb128 0x22
	.uleb128 0x1
	.byte	0x54
	.uleb128 0x4
	.byte	0x91
	.sleb128 -216
	.byte	0x6
	.uleb128 0x22
	.uleb128 0x1
	.byte	0x51
	.uleb128 0x2
	.byte	0x76
	.sleb128 0
	.byte	0
	.byte	0
	.byte	0
	.uleb128 0x2b
	.long	0xb367
	.quad	.LBI2076
	.value	.LVU796
	.quad	.LBB2076
	.quad	.LBE2076-.LBB2076
	.byte	0x7
	.value	0x248
	.byte	0xf
	.long	0xce7d
	.uleb128 0x4
	.long	0xb375
	.long	.LLST186
	.long	.LVUS186
	.uleb128 0x4
	.long	0xb37e
	.long	.LLST187
	.long	.LVUS187
	.uleb128 0x3
	.long	0xb38b
	.uleb128 0x4
	.long	0xb398
	.long	.LLST188
	.long	.LVUS188
	.byte	0
	.uleb128 0x16
	.long	0xb33c
	.quad	.LBI2088
	.value	.LVU820
	.long	.LLRL189
	.byte	0x7
	.value	0x289
	.byte	0x7
	.uleb128 0x4
	.long	0xb34a
	.long	.LLST190
	.long	.LVUS190
	.uleb128 0x16
	.long	0xbfc5
	.quad	.LBI2090
	.value	.LVU825
	.long	.LLRL191
	.byte	0x2
	.value	0x751
	.byte	0x1b
	.uleb128 0x3
	.long	0xbfd3
	.uleb128 0x4
	.long	0xbfdc
	.long	.LLST192
	.long	.LVUS192
	.uleb128 0x3
	.long	0xbfe9
	.uleb128 0x16
	.long	0xbfc5
	.quad	.LBI2092
	.value	.LVU826
	.long	.LLRL193
	.byte	0x2
	.value	0x18a
	.byte	0x7
	.uleb128 0x3
	.long	0xbfd3
	.uleb128 0x4
	.long	0xbfdc
	.long	.LLST194
	.long	.LVUS194
	.uleb128 0x3
	.long	0xbfe9
	.uleb128 0x16
	.long	0xb56b
	.quad	.LBI2094
	.value	.LVU827
	.long	.LLRL195
	.byte	0x2
	.value	0x18e
	.byte	0x13
	.uleb128 0x3
	.long	0xb575
	.uleb128 0x4
	.long	0xb582
	.long	.LLST196
	.long	.LVUS196
	.uleb128 0x3
	.long	0xb58f
	.uleb128 0x16
	.long	0xad46
	.quad	.LBI2095
	.value	.LVU828
	.long	.LLRL197
	.byte	0x8
	.value	0x2b1
	.byte	0x17
	.uleb128 0x3
	.long	0xad54
	.uleb128 0x4
	.long	0xad5d
	.long	.LLST198
	.long	.LVUS198
	.uleb128 0x3
	.long	0xad69
	.uleb128 0x7c
	.quad	.LVL163
	.long	0xa3b9
	.byte	0
	.byte	0
	.byte	0
	.byte	0
	.byte	0
	.byte	0
	.byte	0
	.byte	0
	.byte	0
	.uleb128 0x39
	.long	0xc54d
	.quad	.LBI1987
	.value	.LVU78
	.long	.LLRL119
	.byte	0x1
	.byte	0x26
	.byte	0x22
	.long	0xcfc1
	.uleb128 0x4
	.long	0xc55b
	.long	.LLST120
	.long	.LVUS120
	.uleb128 0x16
	.long	0xbe4f
	.quad	.LBI1988
	.value	.LVU79
	.long	.LLRL119
	.byte	0x2
	.value	0x3dd
	.byte	0x10
	.uleb128 0x3
	.long	0xbe5d
	.uleb128 0x4
	.long	0xbe66
	.long	.LLST121
	.long	.LVUS121
	.byte	0
	.byte	0
	.uleb128 0x45
	.long	0xc535
	.quad	.LBI1990
	.value	.LVU81
	.long	.LLRL122
	.byte	0x1
	.byte	0x26
	.byte	0x22
	.byte	0x1
	.long	0xd014
	.uleb128 0x4
	.long	0xc543
	.long	.LLST123
	.long	.LVUS123
	.uleb128 0x16
	.long	0xbe4f
	.quad	.LBI1991
	.value	.LVU82
	.long	.LLRL122
	.byte	0x2
	.value	0x3f1
	.byte	0x10
	.uleb128 0x3
	.long	0xbe5d
	.uleb128 0x4
	.long	0xbe66
	.long	.LLST124
	.long	.LVUS124
	.byte	0
	.byte	0
	.uleb128 0x70
	.long	0x1004c
	.quad	.LBI2124
	.value	.LVU163
	.quad	.LBB2124
	.quad	.LBE2124-.LBB2124
	.byte	0x1
	.byte	0x26
	.byte	0x22
	.byte	0x4
	.uleb128 0x4
	.long	0x1005a
	.long	.LLST199
	.long	.LVUS199
	.byte	0
	.byte	0
	.uleb128 0x56
	.long	.LLRL260
	.long	0xd94f
	.uleb128 0x4a
	.long	.LASF1373
	.byte	0x1
	.byte	0x42
	.byte	0x1a
	.long	0x49b5
	.uleb128 0x56
	.long	.LLRL303
	.long	0xd248
	.uleb128 0x38
	.string	"p"
	.byte	0x43
	.byte	0x1f
	.long	0xa052
	.long	.LLST304
	.long	.LVUS304
	.uleb128 0x96
	.long	.LASF1368
	.long	0xa0fc
	.long	.LLST305
	.long	.LVUS305
	.uleb128 0x57
	.long	.LASF1369
	.long	0x3a1f
	.uleb128 0x57
	.long	.LASF1370
	.long	0x3a1f
	.uleb128 0x39
	.long	0xc394
	.quad	.LBI2278
	.value	.LVU270
	.long	.LLRL306
	.byte	0x1
	.byte	0x43
	.byte	0x23
	.long	0xd0eb
	.uleb128 0x4
	.long	0xc3a2
	.long	.LLST307
	.long	.LVUS307
	.uleb128 0x16
	.long	0xbb29
	.quad	.LBI2279
	.value	.LVU271
	.long	.LLRL306
	.byte	0x2
	.value	0x3dd
	.byte	0x10
	.uleb128 0x3
	.long	0xbb37
	.uleb128 0x4
	.long	0xbb40
	.long	.LLST308
	.long	.LVUS308
	.byte	0
	.byte	0
	.uleb128 0x45
	.long	0xc37c
	.quad	.LBI2281
	.value	.LVU273
	.long	.LLRL309
	.byte	0x1
	.byte	0x43
	.byte	0x23
	.byte	0x1
	.long	0xd13e
	.uleb128 0x4
	.long	0xc38a
	.long	.LLST310
	.long	.LVUS310
	.uleb128 0x16
	.long	0xbb29
	.quad	.LBI2282
	.value	.LVU274
	.long	.LLRL309
	.byte	0x2
	.value	0x3f1
	.byte	0x10
	.uleb128 0x3
	.long	0xbb37
	.uleb128 0x4
	.long	0xbb40
	.long	.LLST311
	.long	.LVUS311
	.byte	0
	.byte	0
	.uleb128 0x45
	.long	0x10034
	.quad	.LBI2284
	.value	.LVU313
	.long	.LLRL312
	.byte	0x1
	.byte	0x43
	.byte	0x23
	.byte	0x4
	.long	0xd167
	.uleb128 0x4
	.long	0x10042
	.long	.LLST313
	.long	.LVUS313
	.byte	0
	.uleb128 0x36
	.long	0xc357
	.quad	.LBI2286
	.value	.LVU287
	.quad	.LBB2286
	.quad	.LBE2286-.LBB2286
	.byte	0x1
	.byte	0x44
	.byte	0x35
	.long	0xd1a0
	.uleb128 0x3
	.long	0xc365
	.uleb128 0x4
	.long	0xc36e
	.long	.LLST314
	.long	.LVUS314
	.byte	0
	.uleb128 0x36
	.long	0xc357
	.quad	.LBI2288
	.value	.LVU295
	.quad	.LBB2288
	.quad	.LBE2288-.LBB2288
	.byte	0x1
	.byte	0x45
	.byte	0x35
	.long	0xd1d9
	.uleb128 0x3
	.long	0xc365
	.uleb128 0x4
	.long	0xc36e
	.long	.LLST315
	.long	.LVUS315
	.byte	0
	.uleb128 0x36
	.long	0xc357
	.quad	.LBI2290
	.value	.LVU301
	.quad	.LBB2290
	.quad	.LBE2290-.LBB2290
	.byte	0x1
	.byte	0x46
	.byte	0x35
	.long	0xd212
	.uleb128 0x3
	.long	0xc365
	.uleb128 0x4
	.long	0xc36e
	.long	.LLST316
	.long	.LVUS316
	.byte	0
	.uleb128 0x28
	.long	0xc357
	.quad	.LBI2292
	.value	.LVU307
	.quad	.LBB2292
	.quad	.LBE2292-.LBB2292
	.byte	0x1
	.byte	0x47
	.byte	0x35
	.uleb128 0x3
	.long	0xc365
	.uleb128 0x4
	.long	0xc36e
	.long	.LLST317
	.long	.LVUS317
	.byte	0
	.byte	0
	.uleb128 0x56
	.long	.LLRL321
	.long	0xd293
	.uleb128 0x38
	.string	"y"
	.byte	0x49
	.byte	0x12
	.long	0x48
	.long	.LLST322
	.long	.LVUS322
	.uleb128 0x58
	.long	.LLRL323
	.uleb128 0x38
	.string	"row"
	.byte	0x4a
	.byte	0x11
	.long	0x48
	.long	.LLST324
	.long	.LVUS324
	.uleb128 0x58
	.long	.LLRL325
	.uleb128 0x38
	.string	"x"
	.byte	0x4b
	.byte	0x16
	.long	0x48
	.long	.LLST326
	.long	.LVUS326
	.byte	0
	.byte	0
	.byte	0
	.uleb128 0x36
	.long	0xc46f
	.quad	.LBI2206
	.value	.LVU216
	.quad	.LBB2206
	.quad	.LBE2206-.LBB2206
	.byte	0x1
	.byte	0x42
	.byte	0x3c
	.long	0xd2e7
	.uleb128 0x3
	.long	0xc47d
	.uleb128 0x28
	.long	0xbd0d
	.quad	.LBI2207
	.value	.LVU217
	.quad	.LBB2207
	.quad	.LBE2207-.LBB2207
	.byte	0x5
	.byte	0xa8
	.byte	0x24
	.uleb128 0x3
	.long	0xbd1b
	.byte	0
	.byte	0
	.uleb128 0x45
	.long	0xc3db
	.quad	.LBI2208
	.value	.LVU222
	.long	.LLRL263
	.byte	0x1
	.byte	0x42
	.byte	0x3c
	.byte	0x1
	.long	0xd73e
	.uleb128 0x3
	.long	0xc3e9
	.uleb128 0x4
	.long	0xc3f2
	.long	.LLST264
	.long	.LVUS264
	.uleb128 0x3
	.long	0xc3ff
	.uleb128 0x3
	.long	0xc40c
	.uleb128 0x33
	.long	0xbcb9
	.quad	.LBI2209
	.value	.LVU223
	.long	.LLRL267
	.byte	0x2
	.value	0x24f
	.byte	0x2f
	.long	0xd41b
	.uleb128 0x4
	.long	0xbcc3
	.long	.LLST268
	.long	.LVUS268
	.uleb128 0x3
	.long	0xbcd0
	.uleb128 0x2b
	.long	0xb2aa
	.quad	.LBI2211
	.value	.LVU224
	.quad	.LBB2211
	.quad	.LBE2211-.LBB2211
	.byte	0x2
	.value	0x89d
	.byte	0x18
	.long	0xd3aa
	.uleb128 0x3
	.long	0xb2b8
	.uleb128 0x3
	.long	0xb2c1
	.uleb128 0x28
	.long	0xac81
	.quad	.LBI2212
	.value	.LVU225
	.quad	.LBB2212
	.quad	.LBE2212-.LBB2212
	.byte	0x5
	.byte	0xad
	.byte	0x22
	.uleb128 0x3
	.long	0xac8f
	.uleb128 0x3
	.long	0xac98
	.byte	0
	.byte	0
	.uleb128 0x6e
	.long	0xc440
	.quad	.LBI2213
	.value	.LVU227
	.quad	.LBB2213
	.quad	.LBE2213-.LBB2213
	.value	0x89d
	.byte	0x18
	.byte	0x2
	.long	0xd3ff
	.uleb128 0x3
	.long	0xc44e
	.uleb128 0x28
	.long	0xbcde
	.quad	.LBI2214
	.value	.LVU228
	.quad	.LBB2214
	.quad	.LBE2214-.LBB2214
	.byte	0x5
	.byte	0xbd
	.byte	0x27
	.uleb128 0x3
	.long	0xbcec
	.byte	0
	.byte	0
	.uleb128 0x2c
	.quad	.LVL184
	.long	0x6cee
	.uleb128 0x22
	.uleb128 0x1
	.byte	0x55
	.uleb128 0x9
	.byte	0x3
	.quad	.LC0
	.byte	0
	.byte	0
	.uleb128 0x4c
	.long	0xbc35
	.quad	.LBI2216
	.value	.LVU232
	.long	.LLRL272
	.byte	0x2
	.value	0x24f
	.byte	0x2f
	.byte	0x1
	.long	0xd5c4
	.uleb128 0x3
	.long	0xbc43
	.uleb128 0x4
	.long	0xbc4c
	.long	.LLST273
	.long	.LVUS273
	.uleb128 0x3
	.long	0xbc59
	.uleb128 0x2b
	.long	0xb26a
	.quad	.LBI2217
	.value	.LVU233
	.quad	.LBB2217
	.quad	.LBE2217-.LBB2217
	.byte	0x2
	.value	0x154
	.byte	0x9
	.long	0xd507
	.uleb128 0x3
	.long	0xb278
	.uleb128 0x3
	.long	0xb281
	.uleb128 0x36
	.long	0xb2aa
	.quad	.LBI2218
	.value	.LVU234
	.quad	.LBB2218
	.quad	.LBE2218-.LBB2218
	.byte	0x2
	.byte	0x99
	.byte	0x16
	.long	0xd4dd
	.uleb128 0x3
	.long	0xb2b8
	.uleb128 0x3
	.long	0xb2c1
	.uleb128 0x28
	.long	0xac81
	.quad	.LBI2219
	.value	.LVU235
	.quad	.LBB2219
	.quad	.LBE2219-.LBB2219
	.byte	0x5
	.byte	0xad
	.byte	0x22
	.uleb128 0x3
	.long	0xac8f
	.uleb128 0x3
	.long	0xac98
	.byte	0
	.byte	0
	.uleb128 0x70
	.long	0xac52
	.quad	.LBI2220
	.value	.LVU237
	.quad	.LBB2220
	.quad	.LBE2220-.LBB2220
	.byte	0x2
	.byte	0x99
	.byte	0x16
	.byte	0x1
	.uleb128 0x3
	.long	0xac60
	.byte	0
	.byte	0
	.uleb128 0x16
	.long	0xb245
	.quad	.LBI2221
	.value	.LVU239
	.long	.LLRL278
	.byte	0x2
	.value	0x155
	.byte	0x1a
	.uleb128 0x3
	.long	0xb253
	.uleb128 0x4
	.long	0xb25c
	.long	.LLST279
	.long	.LVUS279
	.uleb128 0x16
	.long	0xac2d
	.quad	.LBI2223
	.value	.LVU240
	.long	.LLRL280
	.byte	0x2
	.value	0x197
	.byte	0x2c
	.uleb128 0x3
	.long	0xac3b
	.uleb128 0x4
	.long	0xac44
	.long	.LLST281
	.long	.LVUS281
	.uleb128 0x55
	.long	0xa8bc
	.quad	.LBI2225
	.value	.LVU245
	.long	.LLRL282
	.byte	0x2
	.value	0x185
	.byte	0x21
	.byte	0x1
	.uleb128 0x3
	.long	0xa8c6
	.uleb128 0x3
	.long	0xa8d3
	.uleb128 0x16
	.long	0xa68d
	.quad	.LBI2226
	.value	.LVU246
	.long	.LLRL283
	.byte	0x8
	.value	0x27e
	.byte	0x1c
	.uleb128 0x3
	.long	0xa69b
	.uleb128 0x4
	.long	0xa6b0
	.long	.LLST284
	.long	.LVUS284
	.uleb128 0x3
	.long	0xa6a4
	.uleb128 0x2c
	.quad	.LVL53
	.long	0xa3d4
	.uleb128 0x22
	.uleb128 0x1
	.byte	0x55
	.uleb128 0x4
	.byte	0x91
	.sleb128 -208
	.byte	0x6
	.byte	0
	.byte	0
	.byte	0
	.byte	0
	.byte	0
	.byte	0
	.uleb128 0x16
	.long	0xbbba
	.quad	.LBI2241
	.value	.LVU251
	.long	.LLRL285
	.byte	0x2
	.value	0x250
	.byte	0x1b
	.uleb128 0x3
	.long	0xbbc8
	.uleb128 0x4
	.long	0xbbd1
	.long	.LLST286
	.long	.LVUS286
	.uleb128 0x3
	.long	0xbbde
	.uleb128 0x16
	.long	0xb1b8
	.quad	.LBI2242
	.value	.LVU252
	.long	.LLRL285
	.byte	0x2
	.value	0x7c6
	.byte	0x21
	.uleb128 0x4
	.long	0xb1e6
	.long	.LLST288
	.long	.LVUS288
	.uleb128 0x4
	.long	0xb1f3
	.long	.LLST289
	.long	.LVUS289
	.uleb128 0x3
	.long	0xb200
	.uleb128 0x3
	.long	0xb20d
	.uleb128 0x16
	.long	0xabae
	.quad	.LBI2243
	.value	.LVU253
	.long	.LLRL285
	.byte	0xc
	.value	0x30a
	.byte	0x27
	.uleb128 0x4
	.long	0xabd3
	.long	.LLST291
	.long	.LVUS291
	.uleb128 0x4
	.long	0xabe0
	.long	.LLST292
	.long	.LVUS292
	.uleb128 0x3
	.long	0xabed
	.uleb128 0x16
	.long	0xa832
	.quad	.LBI2245
	.value	.LVU254
	.long	.LLRL294
	.byte	0xc
	.value	0x253
	.byte	0x25
	.uleb128 0x4
	.long	0xa857
	.long	.LLST295
	.long	.LVUS295
	.uleb128 0x4
	.long	0xa864
	.long	.LLST296
	.long	.LVUS296
	.uleb128 0x3
	.long	0xa871
	.uleb128 0x35
	.long	0xa87e
	.uleb128 0x97
	.long	0xa5e1
	.long	.LLRL298
	.long	0xd6d2
	.uleb128 0x3
	.long	0xa603
	.uleb128 0x3
	.long	0xa617
	.uleb128 0x2c
	.quad	.LVL55
	.long	0x1030a
	.uleb128 0x22
	.uleb128 0x1
	.byte	0x54
	.uleb128 0x1
	.byte	0x30
	.uleb128 0x22
	.uleb128 0x1
	.byte	0x51
	.uleb128 0x4
	.byte	0x91
	.sleb128 -208
	.byte	0x6
	.byte	0
	.byte	0
	.uleb128 0x2b
	.long	0xa64d
	.quad	.LBI2251
	.value	.LVU255
	.quad	.LBB2251
	.quad	.LBE2251-.LBB2251
	.byte	0xc
	.value	0x1df
	.byte	0x2d
	.long	0xd714
	.uleb128 0x4
	.long	0xa65b
	.long	.LLST299
	.long	.LVUS299
	.uleb128 0x4
	.long	0xa664
	.long	.LLST300
	.long	.LVUS300
	.byte	0
	.uleb128 0x16
	.long	0xa61e
	.quad	.LBI2254
	.value	.LVU264
	.long	.LLRL301
	.byte	0xc
	.value	0x1ef
	.byte	0x5
	.uleb128 0x4
	.long	0xa62c
	.long	.LLST302
	.long	.LVUS302
	.byte	0
	.byte	0
	.byte	0
	.byte	0
	.byte	0
	.byte	0
	.uleb128 0x45
	.long	0xc440
	.quad	.LBI2298
	.value	.LVU266
	.long	.LLRL318
	.byte	0x1
	.byte	0x42
	.byte	0x3c
	.byte	0x2
	.long	0xd77b
	.uleb128 0x3
	.long	0xc44e
	.uleb128 0x3d
	.long	0xbcde
	.quad	.LBI2299
	.value	.LVU267
	.long	.LLRL318
	.byte	0x5
	.byte	0xbd
	.byte	0x27
	.uleb128 0x3
	.long	0xbcec
	.byte	0
	.byte	0
	.uleb128 0x3d
	.long	0xc3ac
	.quad	.LBI2315
	.value	.LVU351
	.long	.LLRL327
	.byte	0x1
	.byte	0x50
	.byte	0x5
	.uleb128 0x3
	.long	0xc3ba
	.uleb128 0x2b
	.long	0xbba2
	.quad	.LBI2316
	.value	.LVU352
	.quad	.LBB2316
	.quad	.LBE2316-.LBB2316
	.byte	0x2
	.value	0x319
	.byte	0x1c
	.long	0xd7c3
	.uleb128 0x3
	.long	0xbbb0
	.byte	0
	.uleb128 0x2b
	.long	0xbb66
	.quad	.LBI2317
	.value	.LVU354
	.quad	.LBB2317
	.quad	.LBE2317-.LBB2317
	.byte	0x2
	.value	0x318
	.byte	0xf
	.long	0xd7fa
	.uleb128 0x3
	.long	0xbb82
	.uleb128 0x3
	.long	0xbb8f
	.uleb128 0x3
	.long	0xbb9c
	.byte	0
	.uleb128 0x16
	.long	0xbbec
	.quad	.LBI2318
	.value	.LVU356
	.long	.LLRL328
	.byte	0x2
	.value	0x31b
	.byte	0x7
	.uleb128 0x3
	.long	0xbbfa
	.uleb128 0x71
	.long	0xbc03
	.quad	.LBB2319
	.quad	.LBE2319-.LBB2319
	.long	0xd8f7
	.uleb128 0x3a
	.long	0xbc04
	.long	.LLST329
	.long	.LVUS329
	.uleb128 0x23
	.long	0xb213
	.quad	.LBI2320
	.value	.LVU357
	.quad	.LBB2320
	.quad	.LBE2320-.LBB2320
	.byte	0x2
	.value	0x17a
	.byte	0xf
	.uleb128 0x3
	.long	0xb221
	.uleb128 0x4
	.long	0xb22a
	.long	.LLST330
	.long	.LVUS330
	.uleb128 0x4
	.long	0xb237
	.long	.LLST329
	.long	.LVUS329
	.uleb128 0x23
	.long	0xabfb
	.quad	.LBI2322
	.value	.LVU361
	.quad	.LBB2322
	.quad	.LBE2322-.LBB2322
	.byte	0x2
	.value	0x18e
	.byte	0x13
	.uleb128 0x3
	.long	0xac05
	.uleb128 0x4
	.long	0xac12
	.long	.LLST332
	.long	.LVUS332
	.uleb128 0x3
	.long	0xac1f
	.uleb128 0x16
	.long	0xa88c
	.quad	.LBI2323
	.value	.LVU362
	.long	.LLRL333
	.byte	0x8
	.value	0x2b1
	.byte	0x17
	.uleb128 0x3
	.long	0xa89a
	.uleb128 0x4
	.long	0xa8a3
	.long	.LLST334
	.long	.LVUS334
	.uleb128 0x3
	.long	0xa8af
	.uleb128 0x7c
	.quad	.LVL82
	.long	0xa3b9
	.byte	0
	.byte	0
	.byte	0
	.byte	0
	.uleb128 0x16
	.long	0xbc88
	.quad	.LBI2327
	.value	.LVU366
	.long	.LLRL335
	.byte	0x2
	.value	0x17b
	.byte	0x7
	.uleb128 0x3
	.long	0xbc98
	.uleb128 0x3d
	.long	0xc440
	.quad	.LBI2328
	.value	.LVU367
	.long	.LLRL335
	.byte	0x2
	.byte	0x8b
	.byte	0xe
	.uleb128 0x3
	.long	0xc44e
	.uleb128 0x3d
	.long	0xbcde
	.quad	.LBI2329
	.value	.LVU368
	.long	.LLRL335
	.byte	0x5
	.byte	0xbd
	.byte	0x27
	.uleb128 0x3
	.long	0xbcec
	.byte	0
	.byte	0
	.byte	0
	.byte	0
	.byte	0
	.byte	0
	.uleb128 0x56
	.long	.LLRL383
	.long	0xdaf7
	.uleb128 0x38
	.string	"p"
	.byte	0x54
	.byte	0x1b
	.long	0xa052
	.long	.LLST384
	.long	.LVUS384
	.uleb128 0x57
	.long	.LASF1368
	.long	0xa0fc
	.uleb128 0x57
	.long	.LASF1369
	.long	0x3a1f
	.uleb128 0x57
	.long	.LASF1370
	.long	0x3a1f
	.uleb128 0xc7
	.quad	.LBB2440
	.quad	.LBE2440-.LBB2440
	.uleb128 0x38
	.string	"y"
	.byte	0x55
	.byte	0x12
	.long	0x48
	.long	.LLST385
	.long	.LVUS385
	.uleb128 0x58
	.long	.LLRL386
	.uleb128 0x4a
	.long	.LASF1374
	.byte	0x1
	.byte	0x56
	.byte	0x14
	.long	0x74b5
	.uleb128 0x4a
	.long	.LASF1375
	.byte	0x1
	.byte	0x57
	.byte	0x14
	.long	0x74b5
	.uleb128 0x30
	.long	.LASF1376
	.byte	0x59
	.byte	0x13
	.long	0x30
	.long	.LLST387
	.long	.LVUS387
	.uleb128 0x30
	.long	.LASF1377
	.byte	0x5a
	.byte	0x13
	.long	0x30
	.long	.LLST388
	.long	.LVUS388
	.uleb128 0x30
	.long	.LASF1378
	.byte	0x5b
	.byte	0x13
	.long	0x30
	.long	.LLST389
	.long	.LVUS389
	.uleb128 0x30
	.long	.LASF1379
	.byte	0x5c
	.byte	0x13
	.long	0x30
	.long	.LLST390
	.long	.LVUS390
	.uleb128 0x30
	.long	.LASF1380
	.byte	0x5d
	.byte	0x13
	.long	0x30
	.long	.LLST391
	.long	.LVUS391
	.uleb128 0x30
	.long	.LASF1381
	.byte	0x5e
	.byte	0x13
	.long	0x30
	.long	.LLST392
	.long	.LVUS392
	.uleb128 0x30
	.long	.LASF1382
	.byte	0x60
	.byte	0x14
	.long	0xa255
	.long	.LLST393
	.long	.LVUS393
	.uleb128 0x58
	.long	.LLRL394
	.uleb128 0x38
	.string	"x"
	.byte	0x62
	.byte	0x16
	.long	0x48
	.long	.LLST395
	.long	.LVUS395
	.uleb128 0x58
	.long	.LLRL396
	.uleb128 0x38
	.string	"ir"
	.byte	0x63
	.byte	0x1e
	.long	0x74c1
	.long	.LLST397
	.long	.LVUS397
	.uleb128 0x6d
	.string	"br"
	.byte	0x64
	.byte	0x1e
	.long	0x74c1
	.uleb128 0x30
	.long	.LASF1383
	.byte	0x66
	.byte	0x1d
	.long	0x7ce3
	.long	.LLST398
	.long	.LVUS398
	.uleb128 0x30
	.long	.LASF1384
	.byte	0x67
	.byte	0x1d
	.long	0x7ce3
	.long	.LLST399
	.long	.LVUS399
	.uleb128 0x30
	.long	.LASF1385
	.byte	0x68
	.byte	0x1d
	.long	0x7ce3
	.long	.LLST400
	.long	.LVUS400
	.uleb128 0x30
	.long	.LASF1386
	.byte	0x69
	.byte	0x1d
	.long	0x7ce3
	.long	.LLST401
	.long	.LVUS401
	.uleb128 0x30
	.long	.LASF1387
	.byte	0x6a
	.byte	0x1d
	.long	0x7ce3
	.long	.LLST402
	.long	.LVUS402
	.uleb128 0x30
	.long	.LASF1388
	.byte	0x6b
	.byte	0x1d
	.long	0x7ce3
	.long	.LLST403
	.long	.LVUS403
	.byte	0
	.byte	0
	.byte	0
	.byte	0
	.byte	0
	.uleb128 0x56
	.long	.LLRL404
	.long	0xdd11
	.uleb128 0x38
	.string	"y"
	.byte	0x78
	.byte	0xe
	.long	0x48
	.long	.LLST405
	.long	.LVUS405
	.uleb128 0x58
	.long	.LLRL406
	.uleb128 0x38
	.string	"x"
	.byte	0x79
	.byte	0x12
	.long	0x48
	.long	.LLST407
	.long	.LVUS407
	.uleb128 0x58
	.long	.LLRL408
	.uleb128 0x38
	.string	"c"
	.byte	0x7a
	.byte	0x17
	.long	0x50
	.long	.LLST409
	.long	.LVUS409
	.uleb128 0x30
	.long	.LASF1389
	.byte	0x7c
	.byte	0x13
	.long	0x30
	.long	.LLST410
	.long	.LVUS410
	.uleb128 0x6d
	.string	"vp"
	.byte	0x7d
	.byte	0x1a
	.long	0xa26e
	.uleb128 0x30
	.long	.LASF1390
	.byte	0x7e
	.byte	0x1c
	.long	0x9c5a
	.long	.LLST411
	.long	.LVUS411
	.uleb128 0x39
	.long	0xc212
	.quad	.LBI2457
	.value	.LVU530
	.long	.LLRL412
	.byte	0x1
	.byte	0x7f
	.byte	0x30
	.long	0xdbe0
	.uleb128 0x3
	.long	0xc225
	.uleb128 0x3
	.long	0xc232
	.uleb128 0x3
	.long	0xc23f
	.uleb128 0x33
	.long	0xb8f7
	.quad	.LBI2458
	.value	.LVU532
	.long	.LLRL413
	.byte	0xd
	.value	0xe21
	.byte	0x16
	.long	0xdbbc
	.uleb128 0x3
	.long	0xb90a
	.uleb128 0x3
	.long	0xb917
	.byte	0
	.uleb128 0x55
	.long	0xb8cb
	.quad	.LBI2462
	.value	.LVU537
	.long	.LLRL414
	.byte	0xd
	.value	0xe21
	.byte	0x16
	.byte	0x1
	.uleb128 0x3
	.long	0xb8de
	.uleb128 0x3
	.long	0xb8ea
	.byte	0
	.byte	0
	.uleb128 0x39
	.long	0xc212
	.quad	.LBI2470
	.value	.LVU541
	.long	.LLRL415
	.byte	0x1
	.byte	0x80
	.byte	0x30
	.long	0xdc5f
	.uleb128 0x3
	.long	0xc225
	.uleb128 0x3
	.long	0xc232
	.uleb128 0x3
	.long	0xc23f
	.uleb128 0x4c
	.long	0xb8cb
	.quad	.LBI2471
	.value	.LVU548
	.long	.LLRL416
	.byte	0xd
	.value	0xe21
	.byte	0x16
	.byte	0x1
	.long	0xdc30
	.uleb128 0x3
	.long	0xb8de
	.uleb128 0x3
	.long	0xb8ea
	.byte	0
	.uleb128 0x23
	.long	0xb8f7
	.quad	.LBI2474
	.value	.LVU543
	.quad	.LBB2474
	.quad	.LBE2474-.LBB2474
	.byte	0xd
	.value	0xe21
	.byte	0x16
	.uleb128 0x3
	.long	0xb90a
	.uleb128 0x3
	.long	0xb917
	.byte	0
	.byte	0
	.uleb128 0x36
	.long	0xc4c3
	.quad	.LBI2479
	.value	.LVU526
	.quad	.LBB2479
	.quad	.LBE2479-.LBB2479
	.byte	0x1
	.byte	0x7e
	.byte	0x33
	.long	0xdc93
	.uleb128 0x4
	.long	0xc4d1
	.long	.LLST417
	.long	.LVUS417
	.byte	0
	.uleb128 0x3d
	.long	0xc212
	.quad	.LBI2486
	.value	.LVU552
	.long	.LLRL418
	.byte	0x1
	.byte	0x81
	.byte	0x30
	.uleb128 0x3
	.long	0xc225
	.uleb128 0x3
	.long	0xc232
	.uleb128 0x3
	.long	0xc23f
	.uleb128 0x2b
	.long	0xb8f7
	.quad	.LBI2487
	.value	.LVU554
	.quad	.LBB2487
	.quad	.LBE2487-.LBB2487
	.byte	0xd
	.value	0xe21
	.byte	0x16
	.long	0xdcea
	.uleb128 0x3
	.long	0xb90a
	.uleb128 0x3
	.long	0xb917
	.byte	0
	.uleb128 0x55
	.long	0xb8cb
	.quad	.LBI2489
	.value	.LVU559
	.long	.LLRL419
	.byte	0xd
	.value	0xe21
	.byte	0x16
	.byte	0x1
	.uleb128 0x3
	.long	0xb8de
	.uleb128 0x3
	.long	0xb8ea
	.byte	0
	.byte	0
	.byte	0
	.byte	0
	.byte	0
	.uleb128 0x39
	.long	0x101cc
	.quad	.LBI1815
	.value	.LVU27
	.long	.LLRL5
	.byte	0x1
	.byte	0x1e
	.byte	0xf
	.long	0xde30
	.uleb128 0x4
	.long	0x101dc
	.long	.LLST6
	.long	.LVUS6
	.uleb128 0x3d
	.long	0x101fd
	.quad	.LBI1816
	.value	.LVU28
	.long	.LLRL5
	.byte	0x4
	.byte	0xb
	.byte	0x8
	.uleb128 0x4
	.long	0x1020b
	.long	.LLST7
	.long	.LVUS7
	.uleb128 0x16
	.long	0x1022c
	.quad	.LBI1817
	.value	.LVU29
	.long	.LLRL5
	.byte	0x2
	.value	0x227
	.byte	0x7
	.uleb128 0x4
	.long	0x1023a
	.long	.LLST8
	.long	.LVUS8
	.uleb128 0x16
	.long	0xc767
	.quad	.LBI1818
	.value	.LVU30
	.long	.LLRL5
	.byte	0x2
	.value	0x141
	.byte	0x7
	.uleb128 0x4
	.long	0xc775
	.long	.LLST9
	.long	.LVUS9
	.uleb128 0x45
	.long	0xc18f
	.quad	.LBI1819
	.value	.LVU34
	.long	.LLRL10
	.byte	0x2
	.byte	0x94
	.byte	0x13
	.byte	0x1
	.long	0xddcc
	.uleb128 0x4
	.long	0xc19d
	.long	.LLST11
	.long	.LVUS11
	.byte	0
	.uleb128 0x28
	.long	0xc1be
	.quad	.LBI1823
	.value	.LVU31
	.quad	.LBB1823
	.quad	.LBE1823-.LBB1823
	.byte	0x2
	.byte	0x94
	.byte	0x13
	.uleb128 0x4
	.long	0xc1cc
	.long	.LLST12
	.long	.LVUS12
	.uleb128 0x28
	.long	0xb830
	.quad	.LBI1824
	.value	.LVU32
	.quad	.LBB1824
	.quad	.LBE1824-.LBB1824
	.byte	0x5
	.byte	0xa8
	.byte	0x24
	.uleb128 0x4
	.long	0xb83e
	.long	.LLST13
	.long	.LVUS13
	.byte	0
	.byte	0
	.byte	0
	.byte	0
	.byte	0
	.byte	0
	.uleb128 0x39
	.long	0xc796
	.quad	.LBI1832
	.value	.LVU5
	.long	.LLRL14
	.byte	0x1
	.byte	0x19
	.byte	0x2c
	.long	0xdea7
	.uleb128 0x4
	.long	0xc7a4
	.long	.LLST15
	.long	.LVUS15
	.uleb128 0x16
	.long	0xc54d
	.quad	.LBI1833
	.value	.LVU7
	.long	.LLRL14
	.byte	0x2
	.value	0x539
	.byte	0xf
	.uleb128 0x4
	.long	0xc55b
	.long	.LLST16
	.long	.LVUS16
	.uleb128 0x16
	.long	0xbe4f
	.quad	.LBI1834
	.value	.LVU8
	.long	.LLRL14
	.byte	0x2
	.value	0x3dd
	.byte	0x10
	.uleb128 0x3
	.long	0xbe5d
	.uleb128 0x4
	.long	0xbe66
	.long	.LLST17
	.long	.LVUS17
	.byte	0
	.byte	0
	.byte	0
	.uleb128 0x36
	.long	0xc796
	.quad	.LBI1840
	.value	.LVU19
	.quad	.LBB1840
	.quad	.LBE1840-.LBB1840
	.byte	0x1
	.byte	0x1a
	.byte	0x2d
	.long	0xdf42
	.uleb128 0x4
	.long	0xc7a4
	.long	.LLST18
	.long	.LVUS18
	.uleb128 0x23
	.long	0xc54d
	.quad	.LBI1841
	.value	.LVU21
	.quad	.LBB1841
	.quad	.LBE1841-.LBB1841
	.byte	0x2
	.value	0x539
	.byte	0xf
	.uleb128 0x4
	.long	0xc55b
	.long	.LLST19
	.long	.LVUS19
	.uleb128 0x23
	.long	0xbe4f
	.quad	.LBI1842
	.value	.LVU22
	.quad	.LBB1842
	.quad	.LBE1842-.LBB1842
	.byte	0x2
	.value	0x3dd
	.byte	0x10
	.uleb128 0x3
	.long	0xbe5d
	.uleb128 0x4
	.long	0xbe66
	.long	.LLST20
	.long	.LVUS20
	.byte	0
	.byte	0
	.byte	0
	.uleb128 0x39
	.long	0xc68e
	.quad	.LBI1844
	.value	.LVU42
	.long	.LLRL21
	.byte	0x1
	.byte	0x21
	.byte	0x17
	.long	0xe6ab
	.uleb128 0x4
	.long	0xc69c
	.long	.LLST22
	.long	.LVUS22
	.uleb128 0x4
	.long	0xc6a5
	.long	.LLST23
	.long	.LVUS23
	.uleb128 0x3
	.long	0xc6b2
	.uleb128 0x16
	.long	0xc078
	.quad	.LBI1845
	.value	.LVU43
	.long	.LLRL21
	.byte	0x2
	.value	0x362
	.byte	0x17
	.uleb128 0x4
	.long	0xc086
	.long	.LLST25
	.long	.LVUS25
	.uleb128 0x4
	.long	0xc08f
	.long	.LLST26
	.long	.LVUS26
	.uleb128 0x3
	.long	0xc09c
	.uleb128 0xc8
	.long	0xc0a9
	.byte	0
	.uleb128 0x6f
	.long	0xc0b6
	.long	.LLRL28
	.uleb128 0x35
	.long	0xc0bc
	.uleb128 0x4c
	.long	0xb748
	.quad	.LBI1849
	.value	.LVU638
	.long	.LLRL29
	.byte	0x7
	.value	0x11a
	.byte	0xb
	.byte	0x1
	.long	0xe42f
	.uleb128 0x4
	.long	0xb756
	.long	.LLST30
	.long	.LVUS30
	.uleb128 0x4
	.long	0xb75f
	.long	.LLST31
	.long	.LVUS31
	.uleb128 0x3
	.long	0xb76c
	.uleb128 0x4
	.long	0xb779
	.long	.LLST33
	.long	.LVUS33
	.uleb128 0x33
	.long	0xaf6e
	.quad	.LBI1850
	.value	.LVU639
	.long	.LLRL34
	.byte	0x2
	.value	0x24f
	.byte	0x2f
	.long	0xe123
	.uleb128 0x4
	.long	0xaf78
	.long	.LLST35
	.long	.LVUS35
	.uleb128 0x4
	.long	0xaf85
	.long	.LLST36
	.long	.LVUS36
	.uleb128 0x2b
	.long	0xb88b
	.quad	.LBI1852
	.value	.LVU640
	.quad	.LBB1852
	.quad	.LBE1852-.LBB1852
	.byte	0x2
	.value	0x89d
	.byte	0x18
	.long	0xe0b2
	.uleb128 0x3
	.long	0xb899
	.uleb128 0x4
	.long	0xb8a2
	.long	.LLST37
	.long	.LVUS37
	.uleb128 0x28
	.long	0xafc3
	.quad	.LBI1853
	.value	.LVU641
	.quad	.LBB1853
	.quad	.LBE1853-.LBB1853
	.byte	0x5
	.byte	0xad
	.byte	0x22
	.uleb128 0x3
	.long	0xafd1
	.uleb128 0x4
	.long	0xafda
	.long	.LLST38
	.long	.LVUS38
	.byte	0
	.byte	0
	.uleb128 0x6e
	.long	0xc738
	.quad	.LBI1854
	.value	.LVU643
	.quad	.LBB1854
	.quad	.LBE1854-.LBB1854
	.value	0x89d
	.byte	0x18
	.byte	0x2
	.long	0xe107
	.uleb128 0x3
	.long	0xc746
	.uleb128 0x28
	.long	0xc160
	.quad	.LBI1855
	.value	.LVU644
	.quad	.LBB1855
	.quad	.LBE1855-.LBB1855
	.byte	0x5
	.byte	0xbd
	.byte	0x27
	.uleb128 0x3
	.long	0xc16e
	.byte	0
	.byte	0
	.uleb128 0x2c
	.quad	.LVL183
	.long	0x6cee
	.uleb128 0x22
	.uleb128 0x1
	.byte	0x55
	.uleb128 0x9
	.byte	0x3
	.quad	.LC0
	.byte	0
	.byte	0
	.uleb128 0x4c
	.long	0xaf1b
	.quad	.LBI1857
	.value	.LVU647
	.long	.LLRL39
	.byte	0x2
	.value	0x24f
	.byte	0x2f
	.byte	0x1
	.long	0xe342
	.uleb128 0x4
	.long	0xaf29
	.long	.LLST40
	.long	.LVUS40
	.uleb128 0x4
	.long	0xaf32
	.long	.LLST41
	.long	.LVUS41
	.uleb128 0x4
	.long	0xaf3f
	.long	.LLST42
	.long	.LVUS42
	.uleb128 0x2b
	.long	0xaa18
	.quad	.LBI1858
	.value	.LVU648
	.quad	.LBB1858
	.quad	.LBE1858-.LBB1858
	.byte	0x2
	.value	0x154
	.byte	0x9
	.long	0xe257
	.uleb128 0x4
	.long	0xaa26
	.long	.LLST43
	.long	.LVUS43
	.uleb128 0x4
	.long	0xaa2f
	.long	.LLST44
	.long	.LVUS44
	.uleb128 0x36
	.long	0xb88b
	.quad	.LBI1859
	.value	.LVU649
	.quad	.LBB1859
	.quad	.LBE1859-.LBB1859
	.byte	0x2
	.byte	0x99
	.byte	0x16
	.long	0xe225
	.uleb128 0x4
	.long	0xb899
	.long	.LLST45
	.long	.LVUS45
	.uleb128 0x4
	.long	0xb8a2
	.long	.LLST46
	.long	.LVUS46
	.uleb128 0x28
	.long	0xafc3
	.quad	.LBI1860
	.value	.LVU650
	.quad	.LBB1860
	.quad	.LBE1860-.LBB1860
	.byte	0x5
	.byte	0xad
	.byte	0x22
	.uleb128 0x4
	.long	0xafd1
	.long	.LLST47
	.long	.LVUS47
	.uleb128 0x4
	.long	0xafda
	.long	.LLST48
	.long	.LVUS48
	.byte	0
	.byte	0
	.uleb128 0x70
	.long	0xc18f
	.quad	.LBI1861
	.value	.LVU652
	.quad	.LBB1861
	.quad	.LBE1861-.LBB1861
	.byte	0x2
	.byte	0x99
	.byte	0x16
	.byte	0x1
	.uleb128 0x4
	.long	0xc19d
	.long	.LLST49
	.long	.LVUS49
	.byte	0
	.byte	0
	.uleb128 0x16
	.long	0xa9f3
	.quad	.LBI1862
	.value	.LVU654
	.long	.LLRL50
	.byte	0x2
	.value	0x155
	.byte	0x1a
	.uleb128 0x4
	.long	0xaa01
	.long	.LLST51
	.long	.LVUS51
	.uleb128 0x4
	.long	0xaa0a
	.long	.LLST52
	.long	.LVUS52
	.uleb128 0x16
	.long	0xa72e
	.quad	.LBI1864
	.value	.LVU655
	.long	.LLRL53
	.byte	0x2
	.value	0x197
	.byte	0x2c
	.uleb128 0x4
	.long	0xa73c
	.long	.LLST54
	.long	.LVUS54
	.uleb128 0x4
	.long	0xa745
	.long	.LLST55
	.long	.LVUS55
	.uleb128 0x55
	.long	0xa487
	.quad	.LBI1866
	.value	.LVU656
	.long	.LLRL56
	.byte	0x2
	.value	0x185
	.byte	0x21
	.byte	0x1
	.uleb128 0x4
	.long	0xa491
	.long	.LLST57
	.long	.LVUS57
	.uleb128 0x4
	.long	0xa49e
	.long	.LLST58
	.long	.LVUS58
	.uleb128 0x16
	.long	0xa3ee
	.quad	.LBI1867
	.value	.LVU657
	.long	.LLRL59
	.byte	0x8
	.value	0x27e
	.byte	0x1c
	.uleb128 0x4
	.long	0xa3fc
	.long	.LLST60
	.long	.LVUS60
	.uleb128 0x4
	.long	0xa405
	.long	.LLST61
	.long	.LVUS61
	.uleb128 0x4
	.long	0xa411
	.long	.LLST62
	.long	.LVUS62
	.uleb128 0x2c
	.quad	.LVL135
	.long	0xa3d4
	.uleb128 0x22
	.uleb128 0x1
	.byte	0x55
	.uleb128 0x2
	.byte	0x7e
	.sleb128 0
	.byte	0
	.byte	0
	.byte	0
	.byte	0
	.byte	0
	.byte	0
	.uleb128 0x16
	.long	0xaee9
	.quad	.LBI1878
	.value	.LVU665
	.long	.LLRL63
	.byte	0x2
	.value	0x250
	.byte	0x1b
	.uleb128 0x4
	.long	0xaef7
	.long	.LLST64
	.long	.LVUS64
	.uleb128 0x4
	.long	0xaf00
	.long	.LLST65
	.long	.LVUS65
	.uleb128 0x3
	.long	0xaf0d
	.uleb128 0x16
	.long	0xb649
	.quad	.LBI1879
	.value	.LVU666
	.long	.LLRL63
	.byte	0x2
	.value	0x7c6
	.byte	0x21
	.uleb128 0x4
	.long	0xb677
	.long	.LLST67
	.long	.LVUS67
	.uleb128 0x4
	.long	0xb684
	.long	.LLST68
	.long	.LVUS68
	.uleb128 0x3
	.long	0xb691
	.uleb128 0x4
	.long	0xb69e
	.long	.LLST70
	.long	.LVUS70
	.uleb128 0x16
	.long	0xade2
	.quad	.LBI1880
	.value	.LVU667
	.long	.LLRL63
	.byte	0xc
	.value	0x30a
	.byte	0x27
	.uleb128 0x4
	.long	0xae07
	.long	.LLST71
	.long	.LVUS71
	.uleb128 0x4
	.long	0xae14
	.long	.LLST72
	.long	.LVUS72
	.uleb128 0x3
	.long	0xae21
	.uleb128 0x6f
	.long	0xae2e
	.long	.LLRL74
	.uleb128 0x6f
	.long	0xae2f
	.long	.LLRL75
	.uleb128 0x3a
	.long	0xae30
	.long	.LLST76
	.long	.LVUS76
	.uleb128 0x2c
	.quad	.LVL138
	.long	0x1030a
	.uleb128 0x22
	.uleb128 0x1
	.byte	0x54
	.uleb128 0x1
	.byte	0x30
	.uleb128 0x22
	.uleb128 0x1
	.byte	0x51
	.uleb128 0x2
	.byte	0x7e
	.sleb128 0
	.byte	0
	.byte	0
	.byte	0
	.byte	0
	.byte	0
	.byte	0
	.byte	0
	.uleb128 0x33
	.long	0xb718
	.quad	.LBI1896
	.value	.LVU672
	.long	.LLRL77
	.byte	0x7
	.value	0x11b
	.byte	0x1e
	.long	0xe4cf
	.uleb128 0x4
	.long	0xb726
	.long	.LLST78
	.long	.LVUS78
	.uleb128 0x4
	.long	0xb72f
	.long	.LLST79
	.long	.LVUS79
	.uleb128 0x35
	.long	0xb73b
	.uleb128 0x36
	.long	0xc18f
	.quad	.LBI1898
	.value	.LVU673
	.quad	.LBB1898
	.quad	.LBE1898-.LBB1898
	.byte	0x2
	.byte	0x84
	.byte	0x16
	.long	0xe49d
	.uleb128 0x4
	.long	0xc19d
	.long	.LLST80
	.long	.LVUS80
	.byte	0
	.uleb128 0x3d
	.long	0xaec5
	.quad	.LBI1899
	.value	.LVU675
	.long	.LLRL81
	.byte	0x2
	.byte	0x87
	.byte	0x14
	.uleb128 0x4
	.long	0xaed3
	.long	.LLST82
	.long	.LVUS82
	.uleb128 0x4
	.long	0xaedc
	.long	.LLST83
	.long	.LVUS83
	.byte	0
	.byte	0
	.uleb128 0x23
	.long	0xc6c0
	.quad	.LBI1908
	.value	.LVU683
	.quad	.LBB1908
	.quad	.LBE1908-.LBB1908
	.byte	0x7
	.value	0x11c
	.byte	0x2
	.uleb128 0x4
	.long	0xc6ce
	.long	.LLST84
	.long	.LVUS84
	.uleb128 0x2b
	.long	0xc116
	.quad	.LBI1909
	.value	.LVU684
	.quad	.LBB1909
	.quad	.LBE1909-.LBB1909
	.byte	0x2
	.value	0x319
	.byte	0x1c
	.long	0xe534
	.uleb128 0x4
	.long	0xc124
	.long	.LLST85
	.long	.LVUS85
	.byte	0
	.uleb128 0x2b
	.long	0xc0da
	.quad	.LBI1910
	.value	.LVU686
	.quad	.LBB1910
	.quad	.LBE1910-.LBB1910
	.byte	0x2
	.value	0x318
	.byte	0xf
	.long	0xe573
	.uleb128 0x3
	.long	0xc0f6
	.uleb128 0x3
	.long	0xc103
	.uleb128 0x4
	.long	0xc110
	.long	.LLST86
	.long	.LVUS86
	.byte	0
	.uleb128 0x23
	.long	0xc6ef
	.quad	.LBI1911
	.value	.LVU688
	.quad	.LBB1911
	.quad	.LBE1911-.LBB1911
	.byte	0x2
	.value	0x31b
	.byte	0x7
	.uleb128 0x4
	.long	0xc6fd
	.long	.LLST87
	.long	.LVUS87
	.uleb128 0x71
	.long	0xc706
	.quad	.LBB1912
	.quad	.LBE1912-.LBB1912
	.long	0xe615
	.uleb128 0x3a
	.long	0xc707
	.long	.LLST88
	.long	.LVUS88
	.uleb128 0x23
	.long	0xc12e
	.quad	.LBI1913
	.value	.LVU689
	.quad	.LBB1913
	.quad	.LBE1913-.LBB1913
	.byte	0x2
	.value	0x17a
	.byte	0xf
	.uleb128 0x4
	.long	0xc13c
	.long	.LLST89
	.long	.LVUS89
	.uleb128 0x4
	.long	0xc145
	.long	.LLST90
	.long	.LVUS90
	.uleb128 0x4
	.long	0xc152
	.long	.LLST90
	.long	.LVUS90
	.byte	0
	.byte	0
	.uleb128 0x23
	.long	0x1025b
	.quad	.LBI1914
	.value	.LVU691
	.quad	.LBB1914
	.quad	.LBE1914-.LBB1914
	.byte	0x2
	.value	0x17b
	.byte	0x7
	.uleb128 0x4
	.long	0x1026b
	.long	.LLST92
	.long	.LVUS92
	.uleb128 0x28
	.long	0xc738
	.quad	.LBI1915
	.value	.LVU692
	.quad	.LBB1915
	.quad	.LBE1915-.LBB1915
	.byte	0x2
	.byte	0x8b
	.byte	0xe
	.uleb128 0x4
	.long	0xc746
	.long	.LLST93
	.long	.LVUS93
	.uleb128 0x28
	.long	0xc160
	.quad	.LBI1916
	.value	.LVU693
	.quad	.LBB1916
	.quad	.LBE1916-.LBB1916
	.byte	0x5
	.byte	0xbd
	.byte	0x27
	.uleb128 0x4
	.long	0xc16e
	.long	.LLST94
	.long	.LVUS94
	.byte	0
	.byte	0
	.byte	0
	.byte	0
	.byte	0
	.byte	0
	.byte	0
	.byte	0
	.uleb128 0x39
	.long	0x10118
	.quad	.LBI1933
	.value	.LVU47
	.long	.LLRL95
	.byte	0x1
	.byte	0x23
	.byte	0x1c
	.long	0xe78d
	.uleb128 0x4
	.long	0x10126
	.long	.LLST96
	.long	.LVUS96
	.uleb128 0x16
	.long	0x10143
	.quad	.LBI1934
	.value	.LVU48
	.long	.LLRL95
	.byte	0x2
	.value	0x227
	.byte	0x7
	.uleb128 0x4
	.long	0x10151
	.long	.LLST97
	.long	.LVUS97
	.uleb128 0x16
	.long	0xc663
	.quad	.LBI1935
	.value	.LVU49
	.long	.LLRL95
	.byte	0x2
	.value	0x141
	.byte	0x7
	.uleb128 0x4
	.long	0xc671
	.long	.LLST98
	.long	.LVUS98
	.uleb128 0x39
	.long	0xc04d
	.quad	.LBI1936
	.value	.LVU50
	.long	.LLRL99
	.byte	0x2
	.byte	0x94
	.byte	0x13
	.long	0xe766
	.uleb128 0x4
	.long	0xc05b
	.long	.LLST100
	.long	.LVUS100
	.uleb128 0x3d
	.long	0xb59d
	.quad	.LBI1937
	.value	.LVU51
	.long	.LLRL99
	.byte	0x5
	.byte	0xa8
	.byte	0x24
	.uleb128 0x4
	.long	0xb5ab
	.long	.LLST101
	.long	.LVUS101
	.byte	0
	.byte	0
	.uleb128 0x98
	.long	0xc022
	.quad	.LBI1939
	.value	.LVU53
	.long	.LLRL102
	.byte	0x94
	.byte	0x13
	.uleb128 0x4
	.long	0xc030
	.long	.LLST103
	.long	.LVUS103
	.byte	0
	.byte	0
	.byte	0
	.byte	0
	.uleb128 0x39
	.long	0xc5a3
	.quad	.LBI1964
	.value	.LVU56
	.long	.LLRL104
	.byte	0x1
	.byte	0x24
	.byte	0x13
	.long	0xe7ba
	.uleb128 0x4
	.long	0xc5b1
	.long	.LLST105
	.long	.LVUS105
	.uleb128 0x35
	.long	0xc5ba
	.byte	0
	.uleb128 0x45
	.long	0xc565
	.quad	.LBI1969
	.value	.LVU59
	.long	.LLRL106
	.byte	0x1
	.byte	0x24
	.byte	0x13
	.byte	0x1
	.long	0xe8cc
	.uleb128 0x4
	.long	0xc573
	.long	.LLST107
	.long	.LVUS107
	.uleb128 0x4
	.long	0xc57c
	.long	.LLST108
	.long	.LVUS108
	.uleb128 0xc9
	.long	0xc588
	.quad	.LBB1971
	.quad	.LBE1971-.LBB1971
	.uleb128 0x3a
	.long	0xc589
	.long	.LLST109
	.long	.LVUS109
	.uleb128 0x3a
	.long	0xc595
	.long	.LLST110
	.long	.LVUS110
	.uleb128 0x28
	.long	0xbeea
	.quad	.LBI1972
	.value	.LVU66
	.quad	.LBB1972
	.quad	.LBE1972-.LBB1972
	.byte	0x7
	.byte	0x52
	.byte	0x21
	.uleb128 0x4
	.long	0xbef8
	.long	.LLST111
	.long	.LVUS111
	.uleb128 0x3
	.long	0xbf01
	.uleb128 0x55
	.long	0xb4d0
	.quad	.LBI1974
	.value	.LVU67
	.long	.LLRL112
	.byte	0x2
	.value	0x185
	.byte	0x21
	.byte	0x1
	.uleb128 0x4
	.long	0xb4da
	.long	.LLST113
	.long	.LVUS113
	.uleb128 0x3
	.long	0xb4e7
	.uleb128 0x16
	.long	0xad05
	.quad	.LBI1975
	.value	.LVU68
	.long	.LLRL112
	.byte	0x8
	.value	0x27e
	.byte	0x1c
	.uleb128 0x4
	.long	0xad28
	.long	.LLST114
	.long	.LVUS114
	.uleb128 0x4
	.long	0xad13
	.long	.LLST115
	.long	.LVUS115
	.uleb128 0x3
	.long	0xad1c
	.uleb128 0x2c
	.quad	.LVL13
	.long	0xa3d4
	.uleb128 0x22
	.uleb128 0x1
	.byte	0x55
	.uleb128 0x2
	.byte	0x7e
	.sleb128 0
	.byte	0
	.byte	0
	.byte	0
	.byte	0
	.byte	0
	.byte	0
	.uleb128 0x45
	.long	0xc5c8
	.quad	.LBI2132
	.value	.LVU601
	.long	.LLRL200
	.byte	0x1
	.byte	0x86
	.byte	0x1
	.byte	0x2
	.long	0xeb4c
	.uleb128 0x4
	.long	0xc5d6
	.long	.LLST201
	.long	.LVUS201
	.uleb128 0x33
	.long	0xc5f3
	.quad	.LBI2133
	.value	.LVU606
	.long	.LLRL202
	.byte	0x2
	.value	0x31b
	.byte	0x7
	.long	0xeadb
	.uleb128 0x4
	.long	0xc601
	.long	.LLST203
	.long	.LVUS203
	.uleb128 0x72
	.long	0xc60a
	.long	.LLRL204
	.long	0xea49
	.uleb128 0x35
	.long	0xc60b
	.uleb128 0x23
	.long	0xbfc5
	.quad	.LBI2135
	.value	.LVU607
	.quad	.LBB2135
	.quad	.LBE2135-.LBB2135
	.byte	0x2
	.value	0x17a
	.byte	0xf
	.uleb128 0x4
	.long	0xbfd3
	.long	.LLST205
	.long	.LVUS205
	.uleb128 0x4
	.long	0xbfdc
	.long	.LLST206
	.long	.LVUS206
	.uleb128 0x3
	.long	0xbfe9
	.uleb128 0x23
	.long	0xbfc5
	.quad	.LBI2137
	.value	.LVU609
	.quad	.LBB2137
	.quad	.LBE2137-.LBB2137
	.byte	0x2
	.value	0x18a
	.byte	0x7
	.uleb128 0x4
	.long	0xbfd3
	.long	.LLST207
	.long	.LVUS207
	.uleb128 0x4
	.long	0xbfdc
	.long	.LLST208
	.long	.LVUS208
	.uleb128 0x3
	.long	0xbfe9
	.uleb128 0x23
	.long	0xb56b
	.quad	.LBI2139
	.value	.LVU610
	.quad	.LBB2139
	.quad	.LBE2139-.LBB2139
	.byte	0x2
	.value	0x18e
	.byte	0x13
	.uleb128 0x3
	.long	0xb575
	.uleb128 0x4
	.long	0xb582
	.long	.LLST209
	.long	.LVUS209
	.uleb128 0x3
	.long	0xb58f
	.uleb128 0x23
	.long	0xad46
	.quad	.LBI2140
	.value	.LVU611
	.quad	.LBB2140
	.quad	.LBE2140-.LBB2140
	.byte	0x8
	.value	0x2b1
	.byte	0x17
	.uleb128 0x3
	.long	0xad54
	.uleb128 0x4
	.long	0xad5d
	.long	.LLST210
	.long	.LVUS210
	.uleb128 0x3
	.long	0xad69
	.uleb128 0x2c
	.quad	.LVL128
	.long	0xa3b9
	.uleb128 0x22
	.uleb128 0x1
	.byte	0x55
	.uleb128 0x4
	.byte	0x91
	.sleb128 -216
	.byte	0x6
	.uleb128 0x22
	.uleb128 0x1
	.byte	0x54
	.uleb128 0x4
	.byte	0x91
	.sleb128 -144
	.byte	0x6
	.byte	0
	.byte	0
	.byte	0
	.byte	0
	.byte	0
	.byte	0
	.uleb128 0x23
	.long	0x1016e
	.quad	.LBI2143
	.value	.LVU614
	.quad	.LBB2143
	.quad	.LBE2143-.LBB2143
	.byte	0x2
	.value	0x17b
	.byte	0x7
	.uleb128 0x4
	.long	0x1017e
	.long	.LLST211
	.long	.LVUS211
	.uleb128 0x28
	.long	0xc638
	.quad	.LBI2144
	.value	.LVU615
	.quad	.LBB2144
	.quad	.LBE2144-.LBB2144
	.byte	0x2
	.byte	0x8b
	.byte	0xe
	.uleb128 0x4
	.long	0xc646
	.long	.LLST212
	.long	.LVUS212
	.uleb128 0x28
	.long	0xbff7
	.quad	.LBI2145
	.value	.LVU616
	.quad	.LBB2145
	.quad	.LBE2145-.LBB2145
	.byte	0x5
	.byte	0xbd
	.byte	0x27
	.uleb128 0x4
	.long	0xc005
	.long	.LLST213
	.long	.LVUS213
	.byte	0
	.byte	0
	.byte	0
	.byte	0
	.uleb128 0x2b
	.long	0xbfad
	.quad	.LBI2146
	.value	.LVU602
	.quad	.LBB2146
	.quad	.LBE2146-.LBB2146
	.byte	0x2
	.value	0x319
	.byte	0x1c
	.long	0xeb10
	.uleb128 0x4
	.long	0xbfbb
	.long	.LLST214
	.long	.LVUS214
	.byte	0
	.uleb128 0x23
	.long	0xbf71
	.quad	.LBI2147
	.value	.LVU604
	.quad	.LBB2147
	.quad	.LBE2147-.LBB2147
	.byte	0x2
	.value	0x318
	.byte	0xf
	.uleb128 0x3
	.long	0xbf8d
	.uleb128 0x3
	.long	0xbf9a
	.uleb128 0x4
	.long	0xbfa7
	.long	.LLST215
	.long	.LVUS215
	.byte	0
	.byte	0
	.uleb128 0x36
	.long	0xc46f
	.quad	.LBI2149
	.value	.LVU171
	.quad	.LBB2149
	.quad	.LBE2149-.LBB2149
	.byte	0x1
	.byte	0x40
	.byte	0x2e
	.long	0xeba0
	.uleb128 0x3
	.long	0xc47d
	.uleb128 0x28
	.long	0xbd0d
	.quad	.LBI2150
	.value	.LVU172
	.quad	.LBB2150
	.quad	.LBE2150-.LBB2150
	.byte	0x5
	.byte	0xa8
	.byte	0x24
	.uleb128 0x3
	.long	0xbd1b
	.byte	0
	.byte	0
	.uleb128 0x45
	.long	0xc3db
	.quad	.LBI2151
	.value	.LVU174
	.long	.LLRL218
	.byte	0x1
	.byte	0x40
	.byte	0x2e
	.byte	0x1
	.long	0xf015
	.uleb128 0x3
	.long	0xc3e9
	.uleb128 0x4
	.long	0xc3f2
	.long	.LLST219
	.long	.LVUS219
	.uleb128 0x3
	.long	0xc3ff
	.uleb128 0x3
	.long	0xc40c
	.uleb128 0x33
	.long	0xbcb9
	.quad	.LBI2152
	.value	.LVU175
	.long	.LLRL222
	.byte	0x2
	.value	0x24f
	.byte	0x2f
	.long	0xecd4
	.uleb128 0x4
	.long	0xbcc3
	.long	.LLST223
	.long	.LVUS223
	.uleb128 0x3
	.long	0xbcd0
	.uleb128 0x2b
	.long	0xb2aa
	.quad	.LBI2154
	.value	.LVU176
	.quad	.LBB2154
	.quad	.LBE2154-.LBB2154
	.byte	0x2
	.value	0x89d
	.byte	0x18
	.long	0xec63
	.uleb128 0x3
	.long	0xb2b8
	.uleb128 0x3
	.long	0xb2c1
	.uleb128 0x28
	.long	0xac81
	.quad	.LBI2155
	.value	.LVU177
	.quad	.LBB2155
	.quad	.LBE2155-.LBB2155
	.byte	0x5
	.byte	0xad
	.byte	0x22
	.uleb128 0x3
	.long	0xac8f
	.uleb128 0x3
	.long	0xac98
	.byte	0
	.byte	0
	.uleb128 0x6e
	.long	0xc440
	.quad	.LBI2156
	.value	.LVU179
	.quad	.LBB2156
	.quad	.LBE2156-.LBB2156
	.value	0x89d
	.byte	0x18
	.byte	0x2
	.long	0xecb8
	.uleb128 0x3
	.long	0xc44e
	.uleb128 0x28
	.long	0xbcde
	.quad	.LBI2157
	.value	.LVU180
	.quad	.LBB2157
	.quad	.LBE2157-.LBB2157
	.byte	0x5
	.byte	0xbd
	.byte	0x27
	.uleb128 0x3
	.long	0xbcec
	.byte	0
	.byte	0
	.uleb128 0x2c
	.quad	.LVL179
	.long	0x6cee
	.uleb128 0x22
	.uleb128 0x1
	.byte	0x55
	.uleb128 0x9
	.byte	0x3
	.quad	.LC0
	.byte	0
	.byte	0
	.uleb128 0x4c
	.long	0xbc35
	.quad	.LBI2159
	.value	.LVU183
	.long	.LLRL227
	.byte	0x2
	.value	0x24f
	.byte	0x2f
	.byte	0x1
	.long	0xee8b
	.uleb128 0x3
	.long	0xbc43
	.uleb128 0x4
	.long	0xbc4c
	.long	.LLST228
	.long	.LVUS228
	.uleb128 0x3
	.long	0xbc59
	.uleb128 0x2b
	.long	0xb26a
	.quad	.LBI2160
	.value	.LVU184
	.quad	.LBB2160
	.quad	.LBE2160-.LBB2160
	.byte	0x2
	.value	0x154
	.byte	0x9
	.long	0xedc0
	.uleb128 0x3
	.long	0xb278
	.uleb128 0x3
	.long	0xb281
	.uleb128 0x36
	.long	0xb2aa
	.quad	.LBI2161
	.value	.LVU185
	.quad	.LBB2161
	.quad	.LBE2161-.LBB2161
	.byte	0x2
	.byte	0x99
	.byte	0x16
	.long	0xed96
	.uleb128 0x3
	.long	0xb2b8
	.uleb128 0x3
	.long	0xb2c1
	.uleb128 0x28
	.long	0xac81
	.quad	.LBI2162
	.value	.LVU186
	.quad	.LBB2162
	.quad	.LBE2162-.LBB2162
	.byte	0x5
	.byte	0xad
	.byte	0x22
	.uleb128 0x3
	.long	0xac8f
	.uleb128 0x3
	.long	0xac98
	.byte	0
	.byte	0
	.uleb128 0x70
	.long	0xac52
	.quad	.LBI2163
	.value	.LVU188
	.quad	.LBB2163
	.quad	.LBE2163-.LBB2163
	.byte	0x2
	.byte	0x99
	.byte	0x16
	.byte	0x1
	.uleb128 0x3
	.long	0xac60
	.byte	0
	.byte	0
	.uleb128 0x16
	.long	0xb245
	.quad	.LBI2164
	.value	.LVU190
	.long	.LLRL233
	.byte	0x2
	.value	0x155
	.byte	0x1a
	.uleb128 0x3
	.long	0xb253
	.uleb128 0x4
	.long	0xb25c
	.long	.LLST234
	.long	.LVUS234
	.uleb128 0x16
	.long	0xac2d
	.quad	.LBI2166
	.value	.LVU191
	.long	.LLRL235
	.byte	0x2
	.value	0x197
	.byte	0x2c
	.uleb128 0x3
	.long	0xac3b
	.uleb128 0x4
	.long	0xac44
	.long	.LLST236
	.long	.LVUS236
	.uleb128 0x55
	.long	0xa8bc
	.quad	.LBI2168
	.value	.LVU193
	.long	.LLRL237
	.byte	0x2
	.value	0x185
	.byte	0x21
	.byte	0x1
	.uleb128 0x3
	.long	0xa8c6
	.uleb128 0x4
	.long	0xa8d3
	.long	.LLST238
	.long	.LVUS238
	.uleb128 0x16
	.long	0xa68d
	.quad	.LBI2169
	.value	.LVU194
	.long	.LLRL237
	.byte	0x8
	.value	0x27e
	.byte	0x1c
	.uleb128 0x3
	.long	0xa69b
	.uleb128 0x4
	.long	0xa6b0
	.long	.LLST239
	.long	.LVUS239
	.uleb128 0x4
	.long	0xa6a4
	.long	.LLST240
	.long	.LVUS240
	.uleb128 0x2c
	.quad	.LVL45
	.long	0xa3d4
	.uleb128 0x22
	.uleb128 0x1
	.byte	0x55
	.uleb128 0x2
	.byte	0x7e
	.sleb128 0
	.byte	0
	.byte	0
	.byte	0
	.byte	0
	.byte	0
	.byte	0
	.uleb128 0x16
	.long	0xbbba
	.quad	.LBI2182
	.value	.LVU199
	.long	.LLRL241
	.byte	0x2
	.value	0x250
	.byte	0x1b
	.uleb128 0x3
	.long	0xbbc8
	.uleb128 0x4
	.long	0xbbd1
	.long	.LLST242
	.long	.LVUS242
	.uleb128 0x3
	.long	0xbbde
	.uleb128 0x16
	.long	0xb1b8
	.quad	.LBI2183
	.value	.LVU200
	.long	.LLRL241
	.byte	0x2
	.value	0x7c6
	.byte	0x21
	.uleb128 0x4
	.long	0xb1e6
	.long	.LLST244
	.long	.LVUS244
	.uleb128 0x4
	.long	0xb1f3
	.long	.LLST245
	.long	.LVUS245
	.uleb128 0x3
	.long	0xb200
	.uleb128 0x3
	.long	0xb20d
	.uleb128 0x16
	.long	0xabae
	.quad	.LBI2184
	.value	.LVU201
	.long	.LLRL241
	.byte	0xc
	.value	0x30a
	.byte	0x27
	.uleb128 0x4
	.long	0xabd3
	.long	.LLST247
	.long	.LVUS247
	.uleb128 0x4
	.long	0xabe0
	.long	.LLST248
	.long	.LVUS248
	.uleb128 0x3
	.long	0xabed
	.uleb128 0x16
	.long	0xa832
	.quad	.LBI2186
	.value	.LVU202
	.long	.LLRL250
	.byte	0xc
	.value	0x253
	.byte	0x25
	.uleb128 0x4
	.long	0xa857
	.long	.LLST251
	.long	.LVUS251
	.uleb128 0x4
	.long	0xa864
	.long	.LLST252
	.long	.LVUS252
	.uleb128 0x3
	.long	0xa871
	.uleb128 0x35
	.long	0xa87e
	.uleb128 0x97
	.long	0xa5e1
	.long	.LLRL254
	.long	0xef9d
	.uleb128 0x3
	.long	0xa603
	.uleb128 0x3
	.long	0xa617
	.uleb128 0x2c
	.quad	.LVL47
	.long	0x1030a
	.uleb128 0x22
	.uleb128 0x1
	.byte	0x55
	.uleb128 0x2
	.byte	0x7d
	.sleb128 0
	.uleb128 0x22
	.uleb128 0x1
	.byte	0x54
	.uleb128 0x1
	.byte	0x30
	.uleb128 0x22
	.uleb128 0x1
	.byte	0x51
	.uleb128 0x2
	.byte	0x7e
	.sleb128 0
	.byte	0
	.byte	0
	.uleb128 0x2b
	.long	0xa64d
	.quad	.LBI2191
	.value	.LVU203
	.quad	.LBB2191
	.quad	.LBE2191-.LBB2191
	.byte	0xc
	.value	0x1df
	.byte	0x2d
	.long	0xefdf
	.uleb128 0x4
	.long	0xa65b
	.long	.LLST255
	.long	.LVUS255
	.uleb128 0x4
	.long	0xa664
	.long	.LLST256
	.long	.LVUS256
	.byte	0
	.uleb128 0x23
	.long	0xa61e
	.quad	.LBI2193
	.value	.LVU209
	.quad	.LBB2193
	.quad	.LBE2193-.LBB2193
	.byte	0xc
	.value	0x1ef
	.byte	0x5
	.uleb128 0x4
	.long	0xa62c
	.long	.LLST257
	.long	.LVUS257
	.byte	0
	.byte	0
	.byte	0
	.byte	0
	.byte	0
	.byte	0
	.uleb128 0x73
	.long	0xc440
	.quad	.LBI2203
	.value	.LVU211
	.quad	.LBB2203
	.quad	.LBE2203-.LBB2203
	.byte	0x40
	.byte	0x2e
	.byte	0x2
	.long	0xf069
	.uleb128 0x3
	.long	0xc44e
	.uleb128 0x28
	.long	0xbcde
	.quad	.LBI2204
	.value	.LVU212
	.quad	.LBB2204
	.quad	.LBE2204-.LBB2204
	.byte	0x5
	.byte	0xbd
	.byte	0x27
	.uleb128 0x3
	.long	0xbcec
	.byte	0
	.byte	0
	.uleb128 0x39
	.long	0xc328
	.quad	.LBI2348
	.value	.LVU371
	.long	.LLRL336
	.byte	0x1
	.byte	0x52
	.byte	0x35
	.long	0xf0a5
	.uleb128 0x3
	.long	0xc336
	.uleb128 0x3d
	.long	0xbafa
	.quad	.LBI2349
	.value	.LVU372
	.long	.LLRL336
	.byte	0x5
	.byte	0xa8
	.byte	0x24
	.uleb128 0x3
	.long	0xbb08
	.byte	0
	.byte	0
	.uleb128 0x45
	.long	0xc294
	.quad	.LBI2352
	.value	.LVU374
	.long	.LLRL339
	.byte	0x1
	.byte	0x52
	.byte	0x35
	.byte	0x1
	.long	0xf494
	.uleb128 0x3
	.long	0xc2a2
	.uleb128 0x4
	.long	0xc2ab
	.long	.LLST340
	.long	.LVUS340
	.uleb128 0x3
	.long	0xc2b8
	.uleb128 0x3
	.long	0xc2c5
	.uleb128 0x33
	.long	0xbaa6
	.quad	.LBI2353
	.value	.LVU375
	.long	.LLRL343
	.byte	0x2
	.value	0x24f
	.byte	0x2f
	.long	0xf1aa
	.uleb128 0x4
	.long	0xbab0
	.long	.LLST344
	.long	.LVUS344
	.uleb128 0x3
	.long	0xbabd
	.uleb128 0x33
	.long	0xb11a
	.quad	.LBI2355
	.value	.LVU376
	.long	.LLRL346
	.byte	0x2
	.value	0x89d
	.byte	0x18
	.long	0xf150
	.uleb128 0x3
	.long	0xb128
	.uleb128 0x3
	.long	0xb131
	.uleb128 0x3d
	.long	0xab5d
	.quad	.LBI2356
	.value	.LVU377
	.long	.LLRL346
	.byte	0x5
	.byte	0xad
	.byte	0x22
	.uleb128 0x3
	.long	0xab6b
	.uleb128 0x3
	.long	0xab74
	.byte	0
	.byte	0
	.uleb128 0x4c
	.long	0xc2f9
	.quad	.LBI2359
	.value	.LVU379
	.long	.LLRL349
	.byte	0x2
	.value	0x89d
	.byte	0x18
	.byte	0x2
	.long	0xf18e
	.uleb128 0x3
	.long	0xc307
	.uleb128 0x3d
	.long	0xbacb
	.quad	.LBI2360
	.value	.LVU380
	.long	.LLRL349
	.byte	0x5
	.byte	0xbd
	.byte	0x27
	.uleb128 0x3
	.long	0xbad9
	.byte	0
	.byte	0
	.uleb128 0x2c
	.quad	.LVL180
	.long	0x6cee
	.uleb128 0x22
	.uleb128 0x1
	.byte	0x55
	.uleb128 0x9
	.byte	0x3
	.quad	.LC0
	.byte	0
	.byte	0
	.uleb128 0x4c
	.long	0xba22
	.quad	.LBI2370
	.value	.LVU383
	.long	.LLRL350
	.byte	0x2
	.value	0x24f
	.byte	0x2f
	.byte	0x1
	.long	0xf33f
	.uleb128 0x3
	.long	0xba30
	.uleb128 0x4
	.long	0xba39
	.long	.LLST351
	.long	.LVUS351
	.uleb128 0x3
	.long	0xba46
	.uleb128 0x33
	.long	0xb0da
	.quad	.LBI2371
	.value	.LVU384
	.long	.LLRL353
	.byte	0x2
	.value	0x154
	.byte	0x9
	.long	0xf265
	.uleb128 0x3
	.long	0xb0e8
	.uleb128 0x3
	.long	0xb0f1
	.uleb128 0x39
	.long	0xb11a
	.quad	.LBI2372
	.value	.LVU385
	.long	.LLRL355
	.byte	0x2
	.byte	0x99
	.byte	0x16
	.long	0xf248
	.uleb128 0x3
	.long	0xb128
	.uleb128 0x3
	.long	0xb131
	.uleb128 0x3d
	.long	0xab5d
	.quad	.LBI2373
	.value	.LVU386
	.long	.LLRL355
	.byte	0x5
	.byte	0xad
	.byte	0x22
	.uleb128 0x3
	.long	0xab6b
	.uleb128 0x3
	.long	0xab74
	.byte	0
	.byte	0
	.uleb128 0x98
	.long	0xab2e
	.quad	.LBI2376
	.value	.LVU388
	.long	.LLRL358
	.byte	0x99
	.byte	0x16
	.uleb128 0x3
	.long	0xab3c
	.byte	0
	.byte	0
	.uleb128 0x16
	.long	0xb0b5
	.quad	.LBI2381
	.value	.LVU390
	.long	.LLRL359
	.byte	0x2
	.value	0x155
	.byte	0x1a
	.uleb128 0x3
	.long	0xb0c3
	.uleb128 0x4
	.long	0xb0cc
	.long	.LLST360
	.long	.LVUS360
	.uleb128 0x16
	.long	0xab09
	.quad	.LBI2383
	.value	.LVU391
	.long	.LLRL361
	.byte	0x2
	.value	0x197
	.byte	0x2c
	.uleb128 0x3
	.long	0xab17
	.uleb128 0x4
	.long	0xab20
	.long	.LLST362
	.long	.LVUS362
	.uleb128 0xca
	.long	0xa7f5
	.quad	.LBI2385
	.value	.LVU395
	.quad	.LBB2385
	.quad	.LBE2385-.LBB2385
	.byte	0x2
	.value	0x185
	.byte	0x21
	.byte	0x1
	.uleb128 0x3
	.long	0xa7ff
	.uleb128 0x4
	.long	0xa80c
	.long	.LLST363
	.long	.LVUS363
	.uleb128 0x16
	.long	0xa588
	.quad	.LBI2386
	.value	.LVU396
	.long	.LLRL364
	.byte	0x8
	.value	0x27e
	.byte	0x1c
	.uleb128 0x3
	.long	0xa596
	.uleb128 0x4
	.long	0xa5ab
	.long	.LLST365
	.long	.LVUS365
	.uleb128 0x4
	.long	0xa59f
	.long	.LLST366
	.long	.LVUS366
	.uleb128 0x2c
	.quad	.LVL86
	.long	0xa3d4
	.uleb128 0x22
	.uleb128 0x1
	.byte	0x55
	.uleb128 0x4
	.byte	0x91
	.sleb128 -176
	.byte	0x6
	.byte	0
	.byte	0
	.byte	0
	.byte	0
	.byte	0
	.byte	0
	.uleb128 0x16
	.long	0xb9a7
	.quad	.LBI2414
	.value	.LVU399
	.long	.LLRL367
	.byte	0x2
	.value	0x250
	.byte	0x1b
	.uleb128 0x3
	.long	0xb9b5
	.uleb128 0x4
	.long	0xb9be
	.long	.LLST368
	.long	.LVUS368
	.uleb128 0x3
	.long	0xb9cb
	.uleb128 0x16
	.long	0xb028
	.quad	.LBI2415
	.value	.LVU400
	.long	.LLRL367
	.byte	0x2
	.value	0x7c6
	.byte	0x21
	.uleb128 0x4
	.long	0xb056
	.long	.LLST370
	.long	.LVUS370
	.uleb128 0x4
	.long	0xb063
	.long	.LLST371
	.long	.LVUS371
	.uleb128 0x3
	.long	0xb070
	.uleb128 0x3
	.long	0xb07d
	.uleb128 0x16
	.long	0xaa8a
	.quad	.LBI2416
	.value	.LVU401
	.long	.LLRL367
	.byte	0xc
	.value	0x30a
	.byte	0x27
	.uleb128 0x4
	.long	0xaaaf
	.long	.LLST373
	.long	.LVUS373
	.uleb128 0x4
	.long	0xaabc
	.long	.LLST374
	.long	.LVUS374
	.uleb128 0x3
	.long	0xaac9
	.uleb128 0x16
	.long	0xa76b
	.quad	.LBI2418
	.value	.LVU402
	.long	.LLRL376
	.byte	0xc
	.value	0x253
	.byte	0x25
	.uleb128 0x4
	.long	0xa790
	.long	.LLST377
	.long	.LVUS377
	.uleb128 0x4
	.long	0xa79d
	.long	.LLST378
	.long	.LVUS378
	.uleb128 0x3
	.long	0xa7aa
	.uleb128 0x35
	.long	0xa7b7
	.uleb128 0x2b
	.long	0xa548
	.quad	.LBI2420
	.value	.LVU403
	.quad	.LBB2420
	.quad	.LBE2420-.LBB2420
	.byte	0xc
	.value	0x1df
	.byte	0x2d
	.long	0xf45b
	.uleb128 0x4
	.long	0xa556
	.long	.LLST380
	.long	.LVUS380
	.uleb128 0x4
	.long	0xa55f
	.long	.LLST381
	.long	.LVUS381
	.byte	0
	.uleb128 0xcb
	.long	0xa4dc
	.long	.LLRL382
	.byte	0xc
	.value	0x1ec
	.byte	0x11
	.uleb128 0x3
	.long	0xa4fe
	.uleb128 0x3
	.long	0xa512
	.uleb128 0x2c
	.quad	.LVL87
	.long	0x1030a
	.uleb128 0x22
	.uleb128 0x1
	.byte	0x54
	.uleb128 0x1
	.byte	0x30
	.uleb128 0x22
	.uleb128 0x1
	.byte	0x51
	.uleb128 0x4
	.byte	0x91
	.sleb128 -176
	.byte	0x6
	.byte	0
	.byte	0
	.byte	0
	.byte	0
	.byte	0
	.byte	0
	.byte	0
	.uleb128 0x36
	.long	0xc265
	.quad	.LBI2503
	.value	.LVU569
	.quad	.LBB2503
	.quad	.LBE2503-.LBB2503
	.byte	0x1
	.byte	0x86
	.byte	0x1
	.long	0xf6cc
	.uleb128 0x3
	.long	0xc273
	.uleb128 0x2b
	.long	0xb98f
	.quad	.LBI2504
	.value	.LVU570
	.quad	.LBB2504
	.quad	.LBE2504-.LBB2504
	.byte	0x2
	.value	0x319
	.byte	0x1c
	.long	0xf4ec
	.uleb128 0x3
	.long	0xb99d
	.byte	0
	.uleb128 0x2b
	.long	0xb953
	.quad	.LBI2505
	.value	.LVU572
	.quad	.LBB2505
	.quad	.LBE2505-.LBB2505
	.byte	0x2
	.value	0x318
	.byte	0xf
	.long	0xf523
	.uleb128 0x3
	.long	0xb96f
	.uleb128 0x3
	.long	0xb97c
	.uleb128 0x3
	.long	0xb989
	.byte	0
	.uleb128 0x23
	.long	0xb9d9
	.quad	.LBI2506
	.value	.LVU574
	.quad	.LBB2506
	.quad	.LBE2506-.LBB2506
	.byte	0x2
	.value	0x31b
	.byte	0x7
	.uleb128 0x3
	.long	0xb9e7
	.uleb128 0x71
	.long	0xb9f0
	.quad	.LBB2507
	.quad	.LBE2507-.LBB2507
	.long	0xf651
	.uleb128 0x3a
	.long	0xb9f1
	.long	.LLST420
	.long	.LVUS420
	.uleb128 0x23
	.long	0xb083
	.quad	.LBI2508
	.value	.LVU575
	.quad	.LBB2508
	.quad	.LBE2508-.LBB2508
	.byte	0x2
	.value	0x17a
	.byte	0xf
	.uleb128 0x3
	.long	0xb091
	.uleb128 0x4
	.long	0xb09a
	.long	.LLST421
	.long	.LVUS421
	.uleb128 0x4
	.long	0xb0a7
	.long	.LLST422
	.long	.LVUS422
	.uleb128 0x23
	.long	0xaad7
	.quad	.LBI2510
	.value	.LVU577
	.quad	.LBB2510
	.quad	.LBE2510-.LBB2510
	.byte	0x2
	.value	0x18e
	.byte	0x13
	.uleb128 0x3
	.long	0xaae1
	.uleb128 0x4
	.long	0xaaee
	.long	.LLST423
	.long	.LVUS423
	.uleb128 0x4
	.long	0xaafb
	.long	.LLST424
	.long	.LVUS424
	.uleb128 0x23
	.long	0xa7c5
	.quad	.LBI2511
	.value	.LVU578
	.quad	.LBB2511
	.quad	.LBE2511-.LBB2511
	.byte	0x8
	.value	0x2b1
	.byte	0x17
	.uleb128 0x3
	.long	0xa7d3
	.uleb128 0x4
	.long	0xa7dc
	.long	.LLST425
	.long	.LVUS425
	.uleb128 0x4
	.long	0xa7e8
	.long	.LLST426
	.long	.LVUS426
	.uleb128 0x2c
	.quad	.LVL124
	.long	0xa3b9
	.uleb128 0x22
	.uleb128 0x1
	.byte	0x54
	.uleb128 0x4
	.byte	0x91
	.sleb128 -176
	.byte	0x6
	.byte	0
	.byte	0
	.byte	0
	.byte	0
	.byte	0
	.uleb128 0x23
	.long	0xba75
	.quad	.LBI2513
	.value	.LVU581
	.quad	.LBB2513
	.quad	.LBE2513-.LBB2513
	.byte	0x2
	.value	0x17b
	.byte	0x7
	.uleb128 0x3
	.long	0xba85
	.uleb128 0x28
	.long	0xc2f9
	.quad	.LBI2514
	.value	.LVU582
	.quad	.LBB2514
	.quad	.LBE2514-.LBB2514
	.byte	0x2
	.byte	0x8b
	.byte	0xe
	.uleb128 0x3
	.long	0xc307
	.uleb128 0x28
	.long	0xbacb
	.quad	.LBI2515
	.value	.LVU583
	.quad	.LBB2515
	.quad	.LBE2515-.LBB2515
	.byte	0x5
	.byte	0xbd
	.byte	0x27
	.uleb128 0x3
	.long	0xbad9
	.byte	0
	.byte	0
	.byte	0
	.byte	0
	.byte	0
	.uleb128 0x73
	.long	0xc3ac
	.quad	.LBI2516
	.value	.LVU585
	.quad	.LBB2516
	.quad	.LBE2516-.LBB2516
	.byte	0x86
	.byte	0x1
	.byte	0x1
	.long	0xf8ea
	.uleb128 0x3
	.long	0xc3ba
	.uleb128 0x2b
	.long	0xbba2
	.quad	.LBI2517
	.value	.LVU586
	.quad	.LBB2517
	.quad	.LBE2517-.LBB2517
	.byte	0x2
	.value	0x319
	.byte	0x1c
	.long	0xf724
	.uleb128 0x3
	.long	0xbbb0
	.byte	0
	.uleb128 0x2b
	.long	0xbb66
	.quad	.LBI2518
	.value	.LVU588
	.quad	.LBB2518
	.quad	.LBE2518-.LBB2518
	.byte	0x2
	.value	0x318
	.byte	0xf
	.long	0xf75b
	.uleb128 0x3
	.long	0xbb82
	.uleb128 0x3
	.long	0xbb8f
	.uleb128 0x3
	.long	0xbb9c
	.byte	0
	.uleb128 0x23
	.long	0xbbec
	.quad	.LBI2519
	.value	.LVU590
	.quad	.LBB2519
	.quad	.LBE2519-.LBB2519
	.byte	0x2
	.value	0x31b
	.byte	0x7
	.uleb128 0x3
	.long	0xbbfa
	.uleb128 0x71
	.long	0xbc03
	.quad	.LBB2520
	.quad	.LBE2520-.LBB2520
	.long	0xf86f
	.uleb128 0x35
	.long	0xbc04
	.uleb128 0x23
	.long	0xb213
	.quad	.LBI2521
	.value	.LVU591
	.quad	.LBB2521
	.quad	.LBE2521-.LBB2521
	.byte	0x2
	.value	0x17a
	.byte	0xf
	.uleb128 0x3
	.long	0xb221
	.uleb128 0x4
	.long	0xb22a
	.long	.LLST427
	.long	.LVUS427
	.uleb128 0x3
	.long	0xb237
	.uleb128 0x23
	.long	0xabfb
	.quad	.LBI2523
	.value	.LVU593
	.quad	.LBB2523
	.quad	.LBE2523-.LBB2523
	.byte	0x2
	.value	0x18e
	.byte	0x13
	.uleb128 0x3
	.long	0xac05
	.uleb128 0x4
	.long	0xac12
	.long	.LLST428
	.long	.LVUS428
	.uleb128 0x3
	.long	0xac1f
	.uleb128 0x23
	.long	0xa88c
	.quad	.LBI2524
	.value	.LVU594
	.quad	.LBB2524
	.quad	.LBE2524-.LBB2524
	.byte	0x8
	.value	0x2b1
	.byte	0x17
	.uleb128 0x3
	.long	0xa89a
	.uleb128 0x4
	.long	0xa8a3
	.long	.LLST429
	.long	.LVUS429
	.uleb128 0x3
	.long	0xa8af
	.uleb128 0x2c
	.quad	.LVL126
	.long	0xa3b9
	.uleb128 0x22
	.uleb128 0x1
	.byte	0x55
	.uleb128 0x2
	.byte	0x7d
	.sleb128 0
	.uleb128 0x22
	.uleb128 0x1
	.byte	0x54
	.uleb128 0x4
	.byte	0x91
	.sleb128 -136
	.byte	0x6
	.byte	0
	.byte	0
	.byte	0
	.byte	0
	.byte	0
	.uleb128 0x23
	.long	0xbc88
	.quad	.LBI2526
	.value	.LVU597
	.quad	.LBB2526
	.quad	.LBE2526-.LBB2526
	.byte	0x2
	.value	0x17b
	.byte	0x7
	.uleb128 0x3
	.long	0xbc98
	.uleb128 0x28
	.long	0xc440
	.quad	.LBI2527
	.value	.LVU598
	.quad	.LBB2527
	.quad	.LBE2527-.LBB2527
	.byte	0x2
	.byte	0x8b
	.byte	0xe
	.uleb128 0x3
	.long	0xc44e
	.uleb128 0x28
	.long	0xbcde
	.quad	.LBI2528
	.value	.LVU599
	.quad	.LBB2528
	.quad	.LBE2528-.LBB2528
	.byte	0x5
	.byte	0xbd
	.byte	0x27
	.uleb128 0x3
	.long	0xbcec
	.byte	0
	.byte	0
	.byte	0
	.byte	0
	.byte	0
	.uleb128 0x73
	.long	0xc5c8
	.quad	.LBI2567
	.value	.LVU888
	.quad	.LBB2567
	.quad	.LBE2567-.LBB2567
	.byte	0x86
	.byte	0x1
	.byte	0x5
	.long	0xfb4e
	.uleb128 0x4
	.long	0xc5d6
	.long	.LLST430
	.long	.LVUS430
	.uleb128 0x33
	.long	0xc5f3
	.quad	.LBI2568
	.value	.LVU893
	.long	.LLRL431
	.byte	0x2
	.value	0x31b
	.byte	0x7
	.long	0xfadd
	.uleb128 0x4
	.long	0xc601
	.long	.LLST432
	.long	.LVUS432
	.uleb128 0x72
	.long	0xc60a
	.long	.LLRL433
	.long	0xfa4b
	.uleb128 0x35
	.long	0xc60b
	.uleb128 0x16
	.long	0xbfc5
	.quad	.LBI2570
	.value	.LVU894
	.long	.LLRL434
	.byte	0x2
	.value	0x17a
	.byte	0xf
	.uleb128 0x4
	.long	0xbfd3
	.long	.LLST435
	.long	.LVUS435
	.uleb128 0x4
	.long	0xbfdc
	.long	.LLST436
	.long	.LVUS436
	.uleb128 0x3
	.long	0xbfe9
	.uleb128 0x16
	.long	0xbfc5
	.quad	.LBI2572
	.value	.LVU896
	.long	.LLRL437
	.byte	0x2
	.value	0x18a
	.byte	0x7
	.uleb128 0x4
	.long	0xbfd3
	.long	.LLST438
	.long	.LVUS438
	.uleb128 0x4
	.long	0xbfdc
	.long	.LLST439
	.long	.LVUS439
	.uleb128 0x3
	.long	0xbfe9
	.uleb128 0x16
	.long	0xb56b
	.quad	.LBI2574
	.value	.LVU897
	.long	.LLRL440
	.byte	0x2
	.value	0x18e
	.byte	0x13
	.uleb128 0x3
	.long	0xb575
	.uleb128 0x4
	.long	0xb582
	.long	.LLST441
	.long	.LVUS441
	.uleb128 0x3
	.long	0xb58f
	.uleb128 0x33
	.long	0xad46
	.quad	.LBI2575
	.value	.LVU898
	.long	.LLRL442
	.byte	0x8
	.value	0x2b1
	.byte	0x17
	.long	0xfa24
	.uleb128 0x3
	.long	0xad54
	.uleb128 0x4
	.long	0xad5d
	.long	.LLST443
	.long	.LVUS443
	.uleb128 0x3
	.long	0xad69
	.byte	0
	.uleb128 0x2c
	.quad	.LVL187
	.long	0xa3b9
	.uleb128 0x22
	.uleb128 0x1
	.byte	0x55
	.uleb128 0x4
	.byte	0x91
	.sleb128 -216
	.byte	0x6
	.uleb128 0x22
	.uleb128 0x1
	.byte	0x54
	.uleb128 0x9
	.byte	0x91
	.sleb128 -192
	.byte	0x6
	.byte	0x91
	.sleb128 -216
	.byte	0x6
	.byte	0x1c
	.byte	0
	.byte	0
	.byte	0
	.byte	0
	.byte	0
	.uleb128 0x23
	.long	0x1016e
	.quad	.LBI2586
	.value	.LVU902
	.quad	.LBB2586
	.quad	.LBE2586-.LBB2586
	.byte	0x2
	.value	0x17b
	.byte	0x7
	.uleb128 0x4
	.long	0x1017e
	.long	.LLST444
	.long	.LVUS444
	.uleb128 0x28
	.long	0xc638
	.quad	.LBI2587
	.value	.LVU903
	.quad	.LBB2587
	.quad	.LBE2587-.LBB2587
	.byte	0x2
	.byte	0x8b
	.byte	0xe
	.uleb128 0x4
	.long	0xc646
	.long	.LLST445
	.long	.LVUS445
	.uleb128 0x28
	.long	0xbff7
	.quad	.LBI2588
	.value	.LVU904
	.quad	.LBB2588
	.quad	.LBE2588-.LBB2588
	.byte	0x5
	.byte	0xbd
	.byte	0x27
	.uleb128 0x4
	.long	0xc005
	.long	.LLST446
	.long	.LVUS446
	.byte	0
	.byte	0
	.byte	0
	.byte	0
	.uleb128 0x2b
	.long	0xbfad
	.quad	.LBI2589
	.value	.LVU889
	.quad	.LBB2589
	.quad	.LBE2589-.LBB2589
	.byte	0x2
	.value	0x319
	.byte	0x1c
	.long	0xfb12
	.uleb128 0x4
	.long	0xbfbb
	.long	.LLST447
	.long	.LVUS447
	.byte	0
	.uleb128 0x23
	.long	0xbf71
	.quad	.LBI2590
	.value	.LVU891
	.quad	.LBB2590
	.quad	.LBE2590-.LBB2590
	.byte	0x2
	.value	0x318
	.byte	0xf
	.uleb128 0x3
	.long	0xbf8d
	.uleb128 0x3
	.long	0xbf9a
	.uleb128 0x4
	.long	0xbfa7
	.long	.LLST448
	.long	.LVUS448
	.byte	0
	.byte	0
	.uleb128 0x45
	.long	0x1019b
	.quad	.LBI2592
	.value	.LVU906
	.long	.LLRL449
	.byte	0x1
	.byte	0x86
	.byte	0x1
	.byte	0x6
	.long	0xfdbe
	.uleb128 0x4
	.long	0x101ab
	.long	.LLST450
	.long	.LVUS450
	.uleb128 0x3d
	.long	0xc6c0
	.quad	.LBI2593
	.value	.LVU907
	.long	.LLRL449
	.byte	0x4
	.byte	0xb
	.byte	0x8
	.uleb128 0x4
	.long	0xc6ce
	.long	.LLST451
	.long	.LVUS451
	.uleb128 0x2b
	.long	0xc116
	.quad	.LBI2594
	.value	.LVU908
	.quad	.LBB2594
	.quad	.LBE2594-.LBB2594
	.byte	0x2
	.value	0x319
	.byte	0x1c
	.long	0xfbce
	.uleb128 0x4
	.long	0xc124
	.long	.LLST452
	.long	.LVUS452
	.byte	0
	.uleb128 0x2b
	.long	0xc0da
	.quad	.LBI2595
	.value	.LVU910
	.quad	.LBB2595
	.quad	.LBE2595-.LBB2595
	.byte	0x2
	.value	0x318
	.byte	0xf
	.long	0xfc1d
	.uleb128 0x4
	.long	0xc0f6
	.long	.LLST453
	.long	.LVUS453
	.uleb128 0x4
	.long	0xc103
	.long	.LLST454
	.long	.LVUS454
	.uleb128 0x4
	.long	0xc110
	.long	.LLST455
	.long	.LVUS455
	.byte	0
	.uleb128 0x16
	.long	0xc6ef
	.quad	.LBI2596
	.value	.LVU912
	.long	.LLRL456
	.byte	0x2
	.value	0x31b
	.byte	0x7
	.uleb128 0x4
	.long	0xc6fd
	.long	.LLST457
	.long	.LVUS457
	.uleb128 0x72
	.long	0xc706
	.long	.LLRL458
	.long	0xfd2a
	.uleb128 0x3a
	.long	0xc707
	.long	.LLST459
	.long	.LVUS459
	.uleb128 0x16
	.long	0xc12e
	.quad	.LBI2598
	.value	.LVU914
	.long	.LLRL460
	.byte	0x2
	.value	0x17a
	.byte	0xf
	.uleb128 0x4
	.long	0xc13c
	.long	.LLST461
	.long	.LVUS461
	.uleb128 0x4
	.long	0xc145
	.long	.LLST462
	.long	.LVUS462
	.uleb128 0x4
	.long	0xc152
	.long	.LLST459
	.long	.LVUS459
	.uleb128 0x16
	.long	0xb7fe
	.quad	.LBI2600
	.value	.LVU916
	.long	.LLRL464
	.byte	0x2
	.value	0x18e
	.byte	0x13
	.uleb128 0x4
	.long	0xb808
	.long	.LLST465
	.long	.LVUS465
	.uleb128 0x4
	.long	0xb815
	.long	.LLST466
	.long	.LVUS466
	.uleb128 0x4
	.long	0xb822
	.long	.LLST467
	.long	.LVUS467
	.uleb128 0x33
	.long	0xaf93
	.quad	.LBI2601
	.value	.LVU917
	.long	.LLRL464
	.byte	0x8
	.value	0x2b1
	.byte	0x17
	.long	0xfd1a
	.uleb128 0x4
	.long	0xafa1
	.long	.LLST468
	.long	.LVUS468
	.uleb128 0x4
	.long	0xafaa
	.long	.LLST469
	.long	.LVUS469
	.uleb128 0x4
	.long	0xafb6
	.long	.LLST470
	.long	.LVUS470
	.byte	0
	.uleb128 0x7c
	.quad	.LVL190
	.long	0xa3b9
	.byte	0
	.byte	0
	.byte	0
	.uleb128 0x23
	.long	0x1025b
	.quad	.LBI2607
	.value	.LVU921
	.quad	.LBB2607
	.quad	.LBE2607-.LBB2607
	.byte	0x2
	.value	0x17b
	.byte	0x7
	.uleb128 0x4
	.long	0x1026b
	.long	.LLST471
	.long	.LVUS471
	.uleb128 0x28
	.long	0xc738
	.quad	.LBI2608
	.value	.LVU922
	.quad	.LBB2608
	.quad	.LBE2608-.LBB2608
	.byte	0x2
	.byte	0x8b
	.byte	0xe
	.uleb128 0x4
	.long	0xc746
	.long	.LLST472
	.long	.LVUS472
	.uleb128 0x28
	.long	0xc160
	.quad	.LBI2609
	.value	.LVU923
	.quad	.LBB2609
	.quad	.LBE2609-.LBB2609
	.byte	0x5
	.byte	0xbd
	.byte	0x27
	.uleb128 0x4
	.long	0xc16e
	.long	.LLST473
	.long	.LVUS473
	.byte	0
	.byte	0
	.byte	0
	.byte	0
	.byte	0
	.byte	0
	.uleb128 0x73
	.long	0xc3ac
	.quad	.LBI2613
	.value	.LVU927
	.quad	.LBB2613
	.quad	.LBE2613-.LBB2613
	.byte	0x86
	.byte	0x1
	.byte	0x4
	.long	0xffe3
	.uleb128 0x3
	.long	0xc3ba
	.uleb128 0x33
	.long	0xbbec
	.quad	.LBI2614
	.value	.LVU932
	.long	.LLRL474
	.byte	0x2
	.value	0x31b
	.byte	0x7
	.long	0xff82
	.uleb128 0x3
	.long	0xbbfa
	.uleb128 0x72
	.long	0xbc03
	.long	.LLRL475
	.long	0xff08
	.uleb128 0x3a
	.long	0xbc04
	.long	.LLST476
	.long	.LVUS476
	.uleb128 0x16
	.long	0xb213
	.quad	.LBI2616
	.value	.LVU933
	.long	.LLRL475
	.byte	0x2
	.value	0x17a
	.byte	0xf
	.uleb128 0x3
	.long	0xb221
	.uleb128 0x4
	.long	0xb22a
	.long	.LLST477
	.long	.LVUS477
	.uleb128 0x4
	.long	0xb237
	.long	.LLST478
	.long	.LVUS478
	.uleb128 0x23
	.long	0xabfb
	.quad	.LBI2618
	.value	.LVU935
	.quad	.LBB2618
	.quad	.LBE2618-.LBB2618
	.byte	0x2
	.value	0x18e
	.byte	0x13
	.uleb128 0x3
	.long	0xac05
	.uleb128 0x4
	.long	0xac12
	.long	.LLST479
	.long	.LVUS479
	.uleb128 0x4
	.long	0xac1f
	.long	.LLST480
	.long	.LVUS480
	.uleb128 0x23
	.long	0xa88c
	.quad	.LBI2619
	.value	.LVU936
	.quad	.LBB2619
	.quad	.LBE2619-.LBB2619
	.byte	0x8
	.value	0x2b1
	.byte	0x17
	.uleb128 0x3
	.long	0xa89a
	.uleb128 0x4
	.long	0xa8a3
	.long	.LLST481
	.long	.LVUS481
	.uleb128 0x4
	.long	0xa8af
	.long	.LLST482
	.long	.LVUS482
	.uleb128 0x5e
	.quad	.LVL194
	.uleb128 0x1
	.byte	0x30
	.uleb128 0x2c
	.quad	.LVL195
	.long	0xa3b9
	.uleb128 0x22
	.uleb128 0x1
	.byte	0x55
	.uleb128 0x2
	.byte	0x7d
	.sleb128 0
	.uleb128 0x22
	.uleb128 0x1
	.byte	0x54
	.uleb128 0x4
	.byte	0x91
	.sleb128 -136
	.byte	0x6
	.byte	0
	.byte	0
	.byte	0
	.byte	0
	.byte	0
	.uleb128 0x23
	.long	0xbc88
	.quad	.LBI2624
	.value	.LVU939
	.quad	.LBB2624
	.quad	.LBE2624-.LBB2624
	.byte	0x2
	.value	0x17b
	.byte	0x7
	.uleb128 0x3
	.long	0xbc98
	.uleb128 0x28
	.long	0xc440
	.quad	.LBI2625
	.value	.LVU940
	.quad	.LBB2625
	.quad	.LBE2625-.LBB2625
	.byte	0x2
	.byte	0x8b
	.byte	0xe
	.uleb128 0x3
	.long	0xc44e
	.uleb128 0x28
	.long	0xbcde
	.quad	.LBI2626
	.value	.LVU941
	.quad	.LBB2626
	.quad	.LBE2626-.LBB2626
	.byte	0x5
	.byte	0xbd
	.byte	0x27
	.uleb128 0x3
	.long	0xbcec
	.byte	0
	.byte	0
	.byte	0
	.byte	0
	.uleb128 0x2b
	.long	0xbba2
	.quad	.LBI2627
	.value	.LVU928
	.quad	.LBB2627
	.quad	.LBE2627-.LBB2627
	.byte	0x2
	.value	0x319
	.byte	0x1c
	.long	0xffaf
	.uleb128 0x3
	.long	0xbbb0
	.byte	0
	.uleb128 0x23
	.long	0xbb66
	.quad	.LBI2628
	.value	.LVU930
	.quad	.LBB2628
	.quad	.LBE2628-.LBB2628
	.byte	0x2
	.value	0x318
	.byte	0xf
	.uleb128 0x3
	.long	0xbb82
	.uleb128 0x3
	.long	0xbb8f
	.uleb128 0x3
	.long	0xbb9c
	.byte	0
	.byte	0
	.uleb128 0x5e
	.quad	.LVL174
	.uleb128 0x1
	.byte	0x30
	.uleb128 0x5e
	.quad	.LVL185
	.uleb128 0x1
	.byte	0x30
	.uleb128 0xcc
	.quad	.LVL191
	.long	0x10313
	.long	0x10012
	.uleb128 0x22
	.uleb128 0x1
	.byte	0x55
	.uleb128 0x2
	.byte	0x76
	.sleb128 0
	.byte	0
	.uleb128 0x5e
	.quad	.LVL197
	.uleb128 0x1
	.byte	0x30
	.uleb128 0x5e
	.quad	.LVL200
	.uleb128 0x1
	.byte	0x30
	.uleb128 0x5e
	.quad	.LVL202
	.uleb128 0x1
	.byte	0x30
	.byte	0
	.uleb128 0xb
	.long	0x8a93
	.long	0x10042
	.byte	0x3
	.long	0x1004c
	.uleb128 0x8
	.long	.LASF1288
	.long	0xa228
	.byte	0
	.uleb128 0xb
	.long	0x8548
	.long	0x1005a
	.byte	0x3
	.long	0x10064
	.uleb128 0x8
	.long	.LASF1288
	.long	0xa11a
	.byte	0
	.uleb128 0xb
	.long	0x8a4e
	.long	0x10072
	.byte	0x3
	.long	0x1007c
	.uleb128 0x8
	.long	.LASF1288
	.long	0xa237
	.byte	0
	.uleb128 0xb
	.long	0x8bbf
	.long	0x1008a
	.byte	0x3
	.long	0x10094
	.uleb128 0x8
	.long	.LASF1288
	.long	0xa237
	.byte	0
	.uleb128 0xa
	.long	0x8bee
	.uleb128 0x12
	.long	0x8e2a
	.byte	0x3
	.long	0x100be
	.uleb128 0x13
	.long	.LASF1391
	.byte	0x3
	.value	0x4dd
	.byte	0x2b
	.long	0x10094
	.uleb128 0x13
	.long	.LASF1392
	.byte	0x3
	.value	0x4dd
	.byte	0x4b
	.long	0x10094
	.byte	0
	.uleb128 0xb
	.long	0x84fb
	.long	0x100cc
	.byte	0x3
	.long	0x100d6
	.uleb128 0x8
	.long	.LASF1288
	.long	0xa129
	.byte	0
	.uleb128 0xb
	.long	0x8698
	.long	0x100e4
	.byte	0x3
	.long	0x100ee
	.uleb128 0x8
	.long	.LASF1288
	.long	0xa129
	.byte	0
	.uleb128 0xa
	.long	0x86cb
	.uleb128 0x12
	.long	0x8e46
	.byte	0x3
	.long	0x10118
	.uleb128 0x13
	.long	.LASF1391
	.byte	0x3
	.value	0x4dd
	.byte	0x2b
	.long	0x100ee
	.uleb128 0x13
	.long	.LASF1392
	.byte	0x3
	.value	0x4dd
	.byte	0x4b
	.long	0x100ee
	.byte	0
	.uleb128 0xb
	.long	0x37d0
	.long	0x10126
	.byte	0x2
	.long	0x10130
	.uleb128 0x8
	.long	.LASF1288
	.long	0xa0de
	.byte	0
	.uleb128 0x3c
	.long	0x10118
	.long	0x1013d
	.long	0x10143
	.uleb128 0x3
	.long	0x10126
	.byte	0
	.uleb128 0xb
	.long	0x356a
	.long	0x10151
	.byte	0x2
	.long	0x1015b
	.uleb128 0x8
	.long	.LASF1288
	.long	0xa0bb
	.byte	0
	.uleb128 0x3c
	.long	0x10143
	.long	0x10168
	.long	0x1016e
	.uleb128 0x3
	.long	0x10151
	.byte	0
	.uleb128 0x5d
	.long	0x34e8
	.byte	0x2
	.byte	0x8b
	.byte	0xe
	.long	0x1017e
	.long	0x10188
	.uleb128 0x8
	.long	.LASF1288
	.long	0xa09d
	.byte	0
	.uleb128 0x3c
	.long	0x1016e
	.long	0x10195
	.long	0x1019b
	.uleb128 0x3
	.long	0x1017e
	.byte	0
	.uleb128 0x5d
	.long	0x9def
	.byte	0x4
	.byte	0xb
	.byte	0x8
	.long	0x101ab
	.long	0x101b5
	.uleb128 0x8
	.long	.LASF1288
	.long	0x9e2a
	.byte	0
	.uleb128 0x19
	.long	0x1019b
	.long	.LASF1393
	.long	0x101c6
	.long	0x101cc
	.uleb128 0x3
	.long	0x101ab
	.byte	0
	.uleb128 0x5d
	.long	0x9e07
	.byte	0x4
	.byte	0xb
	.byte	0x8
	.long	0x101dc
	.long	0x101e6
	.uleb128 0x8
	.long	.LASF1288
	.long	0x9e2a
	.byte	0
	.uleb128 0x19
	.long	0x101cc
	.long	.LASF1394
	.long	0x101f7
	.long	0x101fd
	.uleb128 0x3
	.long	0x101dc
	.byte	0
	.uleb128 0xb
	.long	0x1277
	.long	0x1020b
	.byte	0x2
	.long	0x10215
	.uleb128 0x8
	.long	.LASF1288
	.long	0x9cff
	.byte	0
	.uleb128 0x19
	.long	0x101fd
	.long	.LASF1395
	.long	0x10226
	.long	0x1022c
	.uleb128 0x3
	.long	0x1020b
	.byte	0
	.uleb128 0xb
	.long	0xfe0
	.long	0x1023a
	.byte	0x2
	.long	0x10244
	.uleb128 0x8
	.long	.LASF1288
	.long	0x9ce1
	.byte	0
	.uleb128 0x19
	.long	0x1022c
	.long	.LASF1396
	.long	0x10255
	.long	0x1025b
	.uleb128 0x3
	.long	0x1023a
	.byte	0
	.uleb128 0x5d
	.long	0xf4f
	.byte	0x2
	.byte	0x8b
	.byte	0xe
	.long	0x1026b
	.long	0x10275
	.uleb128 0x8
	.long	.LASF1288
	.long	0x9cc3
	.byte	0
	.uleb128 0x19
	.long	0x1025b
	.long	.LASF1397
	.long	0x10286
	.long	0x1028c
	.uleb128 0x3
	.long	0x1026b
	.byte	0
	.uleb128 0x12
	.long	0x7481
	.byte	0x3
	.long	0x102a4
	.uleb128 0xf
	.string	"__x"
	.byte	0x9
	.value	0x108
	.byte	0xf
	.long	0x30
	.byte	0
	.uleb128 0x12
	.long	0x749c
	.byte	0x3
	.long	0x102bc
	.uleb128 0xf
	.string	"__n"
	.byte	0xa
	.value	0x3fd
	.byte	0x23
	.long	0x74c6
	.byte	0
	.uleb128 0xcd
	.long	.LASF1284
	.byte	0x43
	.byte	0xb1
	.byte	0x23
	.long	.LASF1398
	.byte	0x3
	.long	0x102d9
	.uleb128 0x1
	.long	0x750f
	.uleb128 0x1
	.long	0x750f
	.byte	0
	.uleb128 0xce
	.long	.LASF1286
	.byte	0x43
	.byte	0xa8
	.byte	0x7
	.long	.LASF1399
	.long	0x750f
	.byte	0x3
	.long	0x10301
	.uleb128 0x1
	.long	0x2b5
	.uleb128 0x26
	.string	"__p"
	.byte	0x43
	.byte	0xa8
	.byte	0x27
	.long	0x750f
	.byte	0
	.uleb128 0x7d
	.long	.LASF1400
	.long	.LASF1402
	.uleb128 0x7d
	.long	.LASF1401
	.long	.LASF1403
	.uleb128 0x7d
	.long	.LASF1404
	.long	.LASF1405
	.byte	0
	.section	.debug_abbrev,"",@progbits
.Ldebug_abbrev0:
	.uleb128 0x1
	.uleb128 0x5
	.byte	0
	.uleb128 0x49
	.uleb128 0x13
	.byte	0
	.byte	0
	.uleb128 0x2
	.uleb128 0x5
	.byte	0
	.uleb128 0x49
	.uleb128 0x13
	.uleb128 0x34
	.uleb128 0x19
	.byte	0
	.byte	0
	.uleb128 0x3
	.uleb128 0x5
	.byte	0
	.uleb128 0x31
	.uleb128 0x13
	.byte	0
	.byte	0
	.uleb128 0x4
	.uleb128 0x5
	.byte	0
	.uleb128 0x31
	.uleb128 0x13
	.uleb128 0x2
	.uleb128 0x17
	.uleb128 0x2137
	.uleb128 0x17
	.byte	0
	.byte	0
	.uleb128 0x5
	.uleb128 0x8
	.byte	0
	.uleb128 0x3a
	.uleb128 0xb
	.uleb128 0x3b
	.uleb128 0xb
	.uleb128 0x39
	.uleb128 0xb
	.uleb128 0x18
	.uleb128 0x13
	.byte	0
	.byte	0
	.uleb128 0x6
	.uleb128 0x2e
	.byte	0x1
	.uleb128 0x3f
	.uleb128 0x19
	.uleb128 0x3
	.uleb128 0xe
	.uleb128 0x3a
	.uleb128 0xb
	.uleb128 0x3b
	.uleb128 0x5
	.uleb128 0x39
	.uleb128 0xb
	.uleb128 0x6e
	.uleb128 0xe
	.uleb128 0x49
	.uleb128 0x13
	.uleb128 0x32
	.uleb128 0xb
	.uleb128 0x3c
	.uleb128 0x19
	.uleb128 0x64
	.uleb128 0x13
	.uleb128 0x1
	.uleb128 0x13
	.byte	0
	.byte	0
	.uleb128 0x7
	.uleb128 0x26
	.byte	0
	.uleb128 0x49
	.uleb128 0x13
	.byte	0
	.byte	0
	.uleb128 0x8
	.uleb128 0x5
	.byte	0
	.uleb128 0x3
	.uleb128 0xe
	.uleb128 0x49
	.uleb128 0x13
	.uleb128 0x34
	.uleb128 0x19
	.byte	0
	.byte	0
	.uleb128 0x9
	.uleb128 0x16
	.byte	0
	.uleb128 0x3
	.uleb128 0xe
	.uleb128 0x3a
	.uleb128 0xb
	.uleb128 0x3b
	.uleb128 0xb
	.uleb128 0x39
	.uleb128 0xb
	.uleb128 0x49
	.uleb128 0x13
	.byte	0
	.byte	0
	.uleb128 0xa
	.uleb128 0x10
	.byte	0
	.uleb128 0xb
	.uleb128 0x21
	.sleb128 8
	.uleb128 0x49
	.uleb128 0x13
	.byte	0
	.byte	0
	.uleb128 0xb
	.uleb128 0x2e
	.byte	0x1
	.uleb128 0x47
	.uleb128 0x13
	.uleb128 0x64
	.uleb128 0x13
	.uleb128 0x20
	.uleb128 0xb
	.uleb128 0x1
	.uleb128 0x13
	.byte	0
	.byte	0
	.uleb128 0xc
	.uleb128 0x2f
	.byte	0
	.uleb128 0x3
	.uleb128 0xe
	.uleb128 0x49
	.uleb128 0x13
	.byte	0
	.byte	0
	.uleb128 0xd
	.uleb128 0xf
	.byte	0
	.uleb128 0xb
	.uleb128 0x21
	.sleb128 8
	.uleb128 0x49
	.uleb128 0x13
	.byte	0
	.byte	0
	.uleb128 0xe
	.uleb128 0xd
	.byte	0
	.uleb128 0x3
	.uleb128 0xe
	.uleb128 0x3a
	.uleb128 0xb
	.uleb128 0x3b
	.uleb128 0xb
	.uleb128 0x39
	.uleb128 0xb
	.uleb128 0x49
	.uleb128 0x13
	.uleb128 0x38
	.uleb128 0xb
	.byte	0
	.byte	0
	.uleb128 0xf
	.uleb128 0x5
	.byte	0
	.uleb128 0x3
	.uleb128 0x8
	.uleb128 0x3a
	.uleb128 0xb
	.uleb128 0x3b
	.uleb128 0x5
	.uleb128 0x39
	.uleb128 0xb
	.uleb128 0x49
	.uleb128 0x13
	.byte	0
	.byte	0
	.uleb128 0x10
	.uleb128 0x2e
	.byte	0x1
	.uleb128 0x3f
	.uleb128 0x19
	.uleb128 0x3
	.uleb128 0xe
	.uleb128 0x3a
	.uleb128 0xb
	.uleb128 0x3b
	.uleb128 0x5
	.uleb128 0x39
	.uleb128 0xb
	.uleb128 0x6e
	.uleb128 0xe
	.uleb128 0x32
	.uleb128 0xb
	.uleb128 0x3c
	.uleb128 0x19
	.uleb128 0x64
	.uleb128 0x13
	.uleb128 0x1
	.uleb128 0x13
	.byte	0
	.byte	0
	.uleb128 0x11
	.uleb128 0x2f
	.byte	0
	.uleb128 0x3
	.uleb128 0x8
	.uleb128 0x49
	.uleb128 0x13
	.byte	0
	.byte	0
	.uleb128 0x12
	.uleb128 0x2e
	.byte	0x1
	.uleb128 0x47
	.uleb128 0x13
	.uleb128 0x20
	.uleb128 0xb
	.uleb128 0x1
	.uleb128 0x13
	.byte	0
	.byte	0
	.uleb128 0x13
	.uleb128 0x5
	.byte	0
	.uleb128 0x3
	.uleb128 0xe
	.uleb128 0x3a
	.uleb128 0xb
	.uleb128 0x3b
	.uleb128 0x5
	.uleb128 0x39
	.uleb128 0xb
	.uleb128 0x49
	.uleb128 0x13
	.byte	0
	.byte	0
	.uleb128 0x14
	.uleb128 0x16
	.byte	0
	.uleb128 0x3
	.uleb128 0xe
	.uleb128 0x3a
	.uleb128 0xb
	.uleb128 0x3b
	.uleb128 0x5
	.uleb128 0x39
	.uleb128 0xb
	.uleb128 0x49
	.uleb128 0x13
	.uleb128 0x32
	.uleb128 0x21
	.sleb128 1
	.byte	0
	.byte	0
	.uleb128 0x15
	.uleb128 0x2e
	.byte	0x1
	.uleb128 0x3f
	.uleb128 0x19
	.uleb128 0x3
	.uleb128 0xe
	.uleb128 0x3a
	.uleb128 0xb
	.uleb128 0x3b
	.uleb128 0x5
	.uleb128 0x39
	.uleb128 0xb
	.uleb128 0x49
	.uleb128 0x13
	.uleb128 0x3c
	.uleb128 0x19
	.uleb128 0x1
	.uleb128 0x13
	.byte	0
	.byte	0
	.uleb128 0x16
	.uleb128 0x1d
	.byte	0x1
	.uleb128 0x31
	.uleb128 0x13
	.uleb128 0x52
	.uleb128 0x1
	.uleb128 0x2138
	.uleb128 0x5
	.uleb128 0x55
	.uleb128 0x17
	.uleb128 0x58
	.uleb128 0xb
	.uleb128 0x59
	.uleb128 0x5
	.uleb128 0x57
	.uleb128 0xb
	.byte	0
	.byte	0
	.uleb128 0x17
	.uleb128 0x2e
	.byte	0x1
	.uleb128 0x3f
	.uleb128 0x19
	.uleb128 0x3
	.uleb128 0xe
	.uleb128 0x3a
	.uleb128 0xb
	.uleb128 0x3b
	.uleb128 0x5
	.uleb128 0x39
	.uleb128 0xb
	.uleb128 0x6e
	.uleb128 0xe
	.uleb128 0x49
	.uleb128 0x13
	.uleb128 0x3c
	.uleb128 0x19
	.uleb128 0x1
	.uleb128 0x13
	.byte	0
	.byte	0
	.uleb128 0x18
	.uleb128 0x8
	.byte	0
	.uleb128 0x3a
	.uleb128 0xb
	.uleb128 0x3b
	.uleb128 0x5
	.uleb128 0x39
	.uleb128 0xb
	.uleb128 0x18
	.uleb128 0x13
	.byte	0
	.byte	0
	.uleb128 0x19
	.uleb128 0x2e
	.byte	0x1
	.uleb128 0x31
	.uleb128 0x13
	.uleb128 0x6e
	.uleb128 0xe
	.uleb128 0x64
	.uleb128 0x13
	.uleb128 0x1
	.uleb128 0x13
	.byte	0
	.byte	0
	.uleb128 0x1a
	.uleb128 0x13
	.byte	0x1
	.uleb128 0x3
	.uleb128 0xe
	.uleb128 0xb
	.uleb128 0xb
	.uleb128 0x3a
	.uleb128 0xb
	.uleb128 0x3b
	.uleb128 0xb
	.uleb128 0x39
	.uleb128 0xb
	.uleb128 0x1
	.uleb128 0x13
	.byte	0
	.byte	0
	.uleb128 0x1b
	.uleb128 0x2e
	.byte	0x1
	.uleb128 0x3f
	.uleb128 0x19
	.uleb128 0x3
	.uleb128 0xe
	.uleb128 0x3a
	.uleb128 0x21
	.sleb128 2
	.uleb128 0x3b
	.uleb128 0x5
	.uleb128 0x39
	.uleb128 0x21
	.sleb128 7
	.uleb128 0x6e
	.uleb128 0xe
	.uleb128 0x3c
	.uleb128 0x19
	.uleb128 0x64
	.uleb128 0x13
	.uleb128 0x1
	.uleb128 0x13
	.byte	0
	.byte	0
	.uleb128 0x1c
	.uleb128 0x16
	.byte	0
	.uleb128 0x3
	.uleb128 0xe
	.uleb128 0x3a
	.uleb128 0xb
	.uleb128 0x3b
	.uleb128 0x5
	.uleb128 0x39
	.uleb128 0xb
	.uleb128 0x49
	.uleb128 0x13
	.byte	0
	.byte	0
	.uleb128 0x1d
	.uleb128 0x2e
	.byte	0x1
	.uleb128 0x3
	.uleb128 0xe
	.uleb128 0x3a
	.uleb128 0xb
	.uleb128 0x3b
	.uleb128 0x5
	.uleb128 0x39
	.uleb128 0xb
	.uleb128 0x49
	.uleb128 0x13
	.uleb128 0x32
	.uleb128 0xb
	.uleb128 0x3c
	.uleb128 0x19
	.uleb128 0x64
	.uleb128 0x13
	.uleb128 0x1
	.uleb128 0x13
	.byte	0
	.byte	0
	.uleb128 0x1e
	.uleb128 0x2e
	.byte	0x1
	.uleb128 0x3f
	.uleb128 0x19
	.uleb128 0x3
	.uleb128 0xe
	.uleb128 0x3a
	.uleb128 0xb
	.uleb128 0x3b
	.uleb128 0xb
	.uleb128 0x39
	.uleb128 0xb
	.uleb128 0x6e
	.uleb128 0xe
	.uleb128 0x3c
	.uleb128 0x19
	.uleb128 0x64
	.uleb128 0x13
	.uleb128 0x1
	.uleb128 0x13
	.byte	0
	.byte	0
	.uleb128 0x1f
	.uleb128 0x2e
	.byte	0x1
	.uleb128 0x3f
	.uleb128 0x19
	.uleb128 0x3
	.uleb128 0xe
	.uleb128 0x3a
	.uleb128 0xb
	.uleb128 0x3b
	.uleb128 0xb
	.uleb128 0x39
	.uleb128 0xb
	.uleb128 0x6e
	.uleb128 0xe
	.uleb128 0x32
	.uleb128 0xb
	.uleb128 0x3c
	.uleb128 0x19
	.uleb128 0x64
	.uleb128 0x13
	.uleb128 0x1
	.uleb128 0x13
	.byte	0
	.byte	0
	.uleb128 0x20
	.uleb128 0x2e
	.byte	0x1
	.uleb128 0x3f
	.uleb128 0x19
	.uleb128 0x3
	.uleb128 0xe
	.uleb128 0x3a
	.uleb128 0xb
	.uleb128 0x3b
	.uleb128 0xb
	.uleb128 0x39
	.uleb128 0xb
	.uleb128 0x6e
	.uleb128 0xe
	.uleb128 0x49
	.uleb128 0x13
	.uleb128 0x32
	.uleb128 0xb
	.uleb128 0x3c
	.uleb128 0x19
	.uleb128 0x64
	.uleb128 0x13
	.uleb128 0x1
	.uleb128 0x13
	.byte	0
	.byte	0
	.uleb128 0x21
	.uleb128 0x2e
	.byte	0x1
	.uleb128 0x3f
	.uleb128 0x19
	.uleb128 0x3
	.uleb128 0xe
	.uleb128 0x3a
	.uleb128 0xb
	.uleb128 0x3b
	.uleb128 0xb
	.uleb128 0x39
	.uleb128 0xb
	.uleb128 0x49
	.uleb128 0x13
	.uleb128 0x3c
	.uleb128 0x19
	.uleb128 0x1
	.uleb128 0x13
	.byte	0
	.byte	0
	.uleb128 0x22
	.uleb128 0x49
	.byte	0
	.uleb128 0x2
	.uleb128 0x18
	.uleb128 0x7e
	.uleb128 0x18
	.byte	0
	.byte	0
	.uleb128 0x23
	.uleb128 0x1d
	.byte	0x1
	.uleb128 0x31
	.uleb128 0x13
	.uleb128 0x52
	.uleb128 0x1
	.uleb128 0x2138
	.uleb128 0x5
	.uleb128 0x11
	.uleb128 0x1
	.uleb128 0x12
	.uleb128 0x7
	.uleb128 0x58
	.uleb128 0xb
	.uleb128 0x59
	.uleb128 0x5
	.uleb128 0x57
	.uleb128 0xb
	.byte	0
	.byte	0
	.uleb128 0x24
	.uleb128 0x16
	.byte	0
	.uleb128 0x3
	.uleb128 0xe
	.uleb128 0x3a
	.uleb128 0xb
	.uleb128 0x3b
	.uleb128 0xb
	.uleb128 0x39
	.uleb128 0xb
	.uleb128 0x49
	.uleb128 0x13
	.uleb128 0x32
	.uleb128 0x21
	.sleb128 1
	.byte	0
	.byte	0
	.uleb128 0x25
	.uleb128 0x42
	.byte	0
	.uleb128 0xb
	.uleb128 0x21
	.sleb128 8
	.uleb128 0x49
	.uleb128 0x13
	.byte	0
	.byte	0
	.uleb128 0x26
	.uleb128 0x5
	.byte	0
	.uleb128 0x3
	.uleb128 0x8
	.uleb128 0x3a
	.uleb128 0xb
	.uleb128 0x3b
	.uleb128 0xb
	.uleb128 0x39
	.uleb128 0xb
	.uleb128 0x49
	.uleb128 0x13
	.byte	0
	.byte	0
	.uleb128 0x27
	.uleb128 0x34
	.byte	0
	.uleb128 0x3
	.uleb128 0xe
	.uleb128 0x3a
	.uleb128 0xb
	.uleb128 0x3b
	.uleb128 0x5
	.uleb128 0x39
	.uleb128 0xb
	.uleb128 0x49
	.uleb128 0x13
	.byte	0
	.byte	0
	.uleb128 0x28
	.uleb128 0x1d
	.byte	0x1
	.uleb128 0x31
	.uleb128 0x13
	.uleb128 0x52
	.uleb128 0x1
	.uleb128 0x2138
	.uleb128 0x5
	.uleb128 0x11
	.uleb128 0x1
	.uleb128 0x12
	.uleb128 0x7
	.uleb128 0x58
	.uleb128 0xb
	.uleb128 0x59
	.uleb128 0xb
	.uleb128 0x57
	.uleb128 0xb
	.byte	0
	.byte	0
	.uleb128 0x29
	.uleb128 0x2e
	.byte	0x1
	.uleb128 0x3
	.uleb128 0xe
	.uleb128 0x3a
	.uleb128 0xb
	.uleb128 0x3b
	.uleb128 0x5
	.uleb128 0x39
	.uleb128 0xb
	.uleb128 0x32
	.uleb128 0xb
	.uleb128 0x3c
	.uleb128 0x19
	.uleb128 0x64
	.uleb128 0x13
	.uleb128 0x1
	.uleb128 0x13
	.byte	0
	.byte	0
	.uleb128 0x2a
	.uleb128 0x24
	.byte	0
	.uleb128 0xb
	.uleb128 0xb
	.uleb128 0x3e
	.uleb128 0xb
	.uleb128 0x3
	.uleb128 0xe
	.byte	0
	.byte	0
	.uleb128 0x2b
	.uleb128 0x1d
	.byte	0x1
	.uleb128 0x31
	.uleb128 0x13
	.uleb128 0x52
	.uleb128 0x1
	.uleb128 0x2138
	.uleb128 0x5
	.uleb128 0x11
	.uleb128 0x1
	.uleb128 0x12
	.uleb128 0x7
	.uleb128 0x58
	.uleb128 0xb
	.uleb128 0x59
	.uleb128 0x5
	.uleb128 0x57
	.uleb128 0xb
	.uleb128 0x1
	.uleb128 0x13
	.byte	0
	.byte	0
	.uleb128 0x2c
	.uleb128 0x48
	.byte	0x1
	.uleb128 0x7d
	.uleb128 0x1
	.uleb128 0x7f
	.uleb128 0x13
	.byte	0
	.byte	0
	.uleb128 0x2d
	.uleb128 0x2
	.byte	0
	.uleb128 0x3
	.uleb128 0xe
	.uleb128 0x3c
	.uleb128 0x19
	.byte	0
	.byte	0
	.uleb128 0x2e
	.uleb128 0x2e
	.byte	0x1
	.uleb128 0x3f
	.uleb128 0x19
	.uleb128 0x3
	.uleb128 0xe
	.uleb128 0x3a
	.uleb128 0xb
	.uleb128 0x3b
	.uleb128 0xb
	.uleb128 0x39
	.uleb128 0xb
	.uleb128 0x6e
	.uleb128 0xe
	.uleb128 0x49
	.uleb128 0x13
	.uleb128 0x3c
	.uleb128 0x19
	.uleb128 0x1
	.uleb128 0x13
	.byte	0
	.byte	0
	.uleb128 0x2f
	.uleb128 0x2e
	.byte	0
	.uleb128 0x3f
	.uleb128 0x19
	.uleb128 0x3
	.uleb128 0xe
	.uleb128 0x3a
	.uleb128 0x21
	.sleb128 46
	.uleb128 0x3b
	.uleb128 0xb
	.uleb128 0x39
	.uleb128 0x21
	.sleb128 27
	.uleb128 0x6e
	.uleb128 0xe
	.uleb128 0x49
	.uleb128 0x13
	.uleb128 0x3c
	.uleb128 0x19
	.byte	0
	.byte	0
	.uleb128 0x30
	.uleb128 0x34
	.byte	0
	.uleb128 0x3
	.uleb128 0xe
	.uleb128 0x3a
	.uleb128 0x21
	.sleb128 1
	.uleb128 0x3b
	.uleb128 0xb
	.uleb128 0x39
	.uleb128 0xb
	.uleb128 0x49
	.uleb128 0x13
	.uleb128 0x2
	.uleb128 0x17
	.uleb128 0x2137
	.uleb128 0x17
	.byte	0
	.byte	0
	.uleb128 0x31
	.uleb128 0x1c
	.byte	0
	.uleb128 0x49
	.uleb128 0x13
	.uleb128 0x38
	.uleb128 0x21
	.sleb128 0
	.byte	0
	.byte	0
	.uleb128 0x32
	.uleb128 0x2e
	.byte	0x1
	.uleb128 0x3f
	.uleb128 0x19
	.uleb128 0x3
	.uleb128 0xe
	.uleb128 0x3a
	.uleb128 0x21
	.sleb128 2
	.uleb128 0x3b
	.uleb128 0x5
	.uleb128 0x39
	.uleb128 0xb
	.uleb128 0x6e
	.uleb128 0xe
	.uleb128 0x49
	.uleb128 0x13
	.uleb128 0x3c
	.uleb128 0x19
	.uleb128 0x64
	.uleb128 0x13
	.uleb128 0x1
	.uleb128 0x13
	.byte	0
	.byte	0
	.uleb128 0x33
	.uleb128 0x1d
	.byte	0x1
	.uleb128 0x31
	.uleb128 0x13
	.uleb128 0x52
	.uleb128 0x1
	.uleb128 0x2138
	.uleb128 0x5
	.uleb128 0x55
	.uleb128 0x17
	.uleb128 0x58
	.uleb128 0xb
	.uleb128 0x59
	.uleb128 0x5
	.uleb128 0x57
	.uleb128 0xb
	.uleb128 0x1
	.uleb128 0x13
	.byte	0
	.byte	0
	.uleb128 0x34
	.uleb128 0x2e
	.byte	0x1
	.uleb128 0x3f
	.uleb128 0x19
	.uleb128 0x3
	.uleb128 0x8
	.uleb128 0x3a
	.uleb128 0x21
	.sleb128 2
	.uleb128 0x3b
	.uleb128 0x5
	.uleb128 0x39
	.uleb128 0x21
	.sleb128 7
	.uleb128 0x6e
	.uleb128 0xe
	.uleb128 0x49
	.uleb128 0x13
	.uleb128 0x32
	.uleb128 0x21
	.sleb128 1
	.uleb128 0x3c
	.uleb128 0x19
	.uleb128 0x64
	.uleb128 0x13
	.uleb128 0x1
	.uleb128 0x13
	.byte	0
	.byte	0
	.uleb128 0x35
	.uleb128 0x34
	.byte	0
	.uleb128 0x31
	.uleb128 0x13
	.byte	0
	.byte	0
	.uleb128 0x36
	.uleb128 0x1d
	.byte	0x1
	.uleb128 0x31
	.uleb128 0x13
	.uleb128 0x52
	.uleb128 0x1
	.uleb128 0x2138
	.uleb128 0x5
	.uleb128 0x11
	.uleb128 0x1
	.uleb128 0x12
	.uleb128 0x7
	.uleb128 0x58
	.uleb128 0xb
	.uleb128 0x59
	.uleb128 0xb
	.uleb128 0x57
	.uleb128 0xb
	.uleb128 0x1
	.uleb128 0x13
	.byte	0
	.byte	0
	.uleb128 0x37
	.uleb128 0x5
	.byte	0
	.uleb128 0x3
	.uleb128 0xe
	.uleb128 0x3a
	.uleb128 0xb
	.uleb128 0x3b
	.uleb128 0xb
	.uleb128 0x39
	.uleb128 0xb
	.uleb128 0x49
	.uleb128 0x13
	.byte	0
	.byte	0
	.uleb128 0x38
	.uleb128 0x34
	.byte	0
	.uleb128 0x3
	.uleb128 0x8
	.uleb128 0x3a
	.uleb128 0x21
	.sleb128 1
	.uleb128 0x3b
	.uleb128 0xb
	.uleb128 0x39
	.uleb128 0xb
	.uleb128 0x49
	.uleb128 0x13
	.uleb128 0x2
	.uleb128 0x17
	.uleb128 0x2137
	.uleb128 0x17
	.byte	0
	.byte	0
	.uleb128 0x39
	.uleb128 0x1d
	.byte	0x1
	.uleb128 0x31
	.uleb128 0x13
	.uleb128 0x52
	.uleb128 0x1
	.uleb128 0x2138
	.uleb128 0x5
	.uleb128 0x55
	.uleb128 0x17
	.uleb128 0x58
	.uleb128 0xb
	.uleb128 0x59
	.uleb128 0xb
	.uleb128 0x57
	.uleb128 0xb
	.uleb128 0x1
	.uleb128 0x13
	.byte	0
	.byte	0
	.uleb128 0x3a
	.uleb128 0x34
	.byte	0
	.uleb128 0x31
	.uleb128 0x13
	.uleb128 0x2
	.uleb128 0x17
	.uleb128 0x2137
	.uleb128 0x17
	.byte	0
	.byte	0
	.uleb128 0x3b
	.uleb128 0x2e
	.byte	0x1
	.uleb128 0x3
	.uleb128 0xe
	.uleb128 0x3a
	.uleb128 0x21
	.sleb128 2
	.uleb128 0x3b
	.uleb128 0x5
	.uleb128 0x39
	.uleb128 0xb
	.uleb128 0x3c
	.uleb128 0x19
	.uleb128 0x64
	.uleb128 0x13
	.uleb128 0x1
	.uleb128 0x13
	.byte	0
	.byte	0
	.uleb128 0x3c
	.uleb128 0x2e
	.byte	0x1
	.uleb128 0x31
	.uleb128 0x13
	.uleb128 0x64
	.uleb128 0x13
	.uleb128 0x1
	.uleb128 0x13
	.byte	0
	.byte	0
	.uleb128 0x3d
	.uleb128 0x1d
	.byte	0x1
	.uleb128 0x31
	.uleb128 0x13
	.uleb128 0x52
	.uleb128 0x1
	.uleb128 0x2138
	.uleb128 0x5
	.uleb128 0x55
	.uleb128 0x17
	.uleb128 0x58
	.uleb128 0xb
	.uleb128 0x59
	.uleb128 0xb
	.uleb128 0x57
	.uleb128 0xb
	.byte	0
	.byte	0
	.uleb128 0x3e
	.uleb128 0x2
	.byte	0x1
	.uleb128 0x3
	.uleb128 0xe
	.uleb128 0xb
	.uleb128 0xb
	.uleb128 0x3a
	.uleb128 0xb
	.uleb128 0x3b
	.uleb128 0xb
	.uleb128 0x39
	.uleb128 0x21
	.sleb128 11
	.uleb128 0x1
	.uleb128 0x13
	.byte	0
	.byte	0
	.uleb128 0x3f
	.uleb128 0x2e
	.byte	0x1
	.uleb128 0x3f
	.uleb128 0x19
	.uleb128 0x3
	.uleb128 0xe
	.uleb128 0x3a
	.uleb128 0xb
	.uleb128 0x3b
	.uleb128 0x5
	.uleb128 0x39
	.uleb128 0xb
	.uleb128 0x6e
	.uleb128 0xe
	.uleb128 0x3c
	.uleb128 0x19
	.uleb128 0x1
	.uleb128 0x13
	.byte	0
	.byte	0
	.uleb128 0x40
	.uleb128 0x2e
	.byte	0x1
	.uleb128 0x3f
	.uleb128 0x19
	.uleb128 0x3
	.uleb128 0xe
	.uleb128 0x3a
	.uleb128 0xb
	.uleb128 0x3b
	.uleb128 0xb
	.uleb128 0x39
	.uleb128 0xb
	.uleb128 0x6e
	.uleb128 0xe
	.uleb128 0x49
	.uleb128 0x13
	.uleb128 0x3c
	.uleb128 0x19
	.uleb128 0x64
	.uleb128 0x13
	.uleb128 0x1
	.uleb128 0x13
	.byte	0
	.byte	0
	.uleb128 0x41
	.uleb128 0x2e
	.byte	0x1
	.uleb128 0x3f
	.uleb128 0x19
	.uleb128 0x3
	.uleb128 0xe
	.uleb128 0x3a
	.uleb128 0xb
	.uleb128 0x3b
	.uleb128 0x5
	.uleb128 0x39
	.uleb128 0x21
	.sleb128 7
	.uleb128 0x6e
	.uleb128 0xe
	.uleb128 0x32
	.uleb128 0x21
	.sleb128 1
	.uleb128 0x3c
	.uleb128 0x19
	.uleb128 0x63
	.uleb128 0x19
	.uleb128 0x64
	.uleb128 0x13
	.uleb128 0x1
	.uleb128 0x13
	.byte	0
	.byte	0
	.uleb128 0x42
	.uleb128 0x2e
	.byte	0x1
	.uleb128 0x3
	.uleb128 0xe
	.uleb128 0x3a
	.uleb128 0xb
	.uleb128 0x3b
	.uleb128 0x5
	.uleb128 0x39
	.uleb128 0xb
	.uleb128 0x49
	.uleb128 0x13
	.uleb128 0x3c
	.uleb128 0x19
	.uleb128 0x1
	.uleb128 0x13
	.byte	0
	.byte	0
	.uleb128 0x43
	.uleb128 0xd
	.byte	0
	.uleb128 0x3
	.uleb128 0x8
	.uleb128 0x3a
	.uleb128 0xb
	.uleb128 0x3b
	.uleb128 0xb
	.uleb128 0x39
	.uleb128 0xb
	.uleb128 0x49
	.uleb128 0x13
	.uleb128 0x38
	.uleb128 0xb
	.byte	0
	.byte	0
	.uleb128 0x44
	.uleb128 0xb
	.byte	0x1
	.byte	0
	.byte	0
	.uleb128 0x45
	.uleb128 0x1d
	.byte	0x1
	.uleb128 0x31
	.uleb128 0x13
	.uleb128 0x52
	.uleb128 0x1
	.uleb128 0x2138
	.uleb128 0x5
	.uleb128 0x55
	.uleb128 0x17
	.uleb128 0x58
	.uleb128 0xb
	.uleb128 0x59
	.uleb128 0xb
	.uleb128 0x57
	.uleb128 0xb
	.uleb128 0x2136
	.uleb128 0xb
	.uleb128 0x1
	.uleb128 0x13
	.byte	0
	.byte	0
	.uleb128 0x46
	.uleb128 0x1c
	.byte	0
	.uleb128 0x49
	.uleb128 0x13
	.uleb128 0x38
	.uleb128 0x21
	.sleb128 0
	.uleb128 0x32
	.uleb128 0xb
	.byte	0
	.byte	0
	.uleb128 0x47
	.uleb128 0x4107
	.byte	0x1
	.uleb128 0x3
	.uleb128 0xe
	.uleb128 0x1
	.uleb128 0x13
	.byte	0
	.byte	0
	.uleb128 0x48
	.uleb128 0x2f
	.byte	0
	.uleb128 0x49
	.uleb128 0x13
	.byte	0
	.byte	0
	.uleb128 0x49
	.uleb128 0x2e
	.byte	0x1
	.uleb128 0x3f
	.uleb128 0x19
	.uleb128 0x3
	.uleb128 0xe
	.uleb128 0x3a
	.uleb128 0xb
	.uleb128 0x3b
	.uleb128 0xb
	.uleb128 0x39
	.uleb128 0xb
	.uleb128 0x6e
	.uleb128 0xe
	.uleb128 0x3c
	.uleb128 0x19
	.uleb128 0x1
	.uleb128 0x13
	.byte	0
	.byte	0
	.uleb128 0x4a
	.uleb128 0x34
	.byte	0
	.uleb128 0x3
	.uleb128 0xe
	.uleb128 0x3a
	.uleb128 0xb
	.uleb128 0x3b
	.uleb128 0xb
	.uleb128 0x39
	.uleb128 0xb
	.uleb128 0x49
	.uleb128 0x13
	.byte	0
	.byte	0
	.uleb128 0x4b
	.uleb128 0x2
	.byte	0x1
	.uleb128 0x3
	.uleb128 0xe
	.uleb128 0xb
	.uleb128 0xb
	.uleb128 0x3a
	.uleb128 0xb
	.uleb128 0x3b
	.uleb128 0x5
	.uleb128 0x39
	.uleb128 0x21
	.sleb128 11
	.uleb128 0x1
	.uleb128 0x13
	.byte	0
	.byte	0
	.uleb128 0x4c
	.uleb128 0x1d
	.byte	0x1
	.uleb128 0x31
	.uleb128 0x13
	.uleb128 0x52
	.uleb128 0x1
	.uleb128 0x2138
	.uleb128 0x5
	.uleb128 0x55
	.uleb128 0x17
	.uleb128 0x58
	.uleb128 0xb
	.uleb128 0x59
	.uleb128 0x5
	.uleb128 0x57
	.uleb128 0xb
	.uleb128 0x2136
	.uleb128 0xb
	.uleb128 0x1
	.uleb128 0x13
	.byte	0
	.byte	0
	.uleb128 0x4d
	.uleb128 0x2e
	.byte	0x1
	.uleb128 0x3f
	.uleb128 0x19
	.uleb128 0x3
	.uleb128 0xe
	.uleb128 0x3a
	.uleb128 0xb
	.uleb128 0x3b
	.uleb128 0xb
	.uleb128 0x39
	.uleb128 0xb
	.uleb128 0x6e
	.uleb128 0xe
	.uleb128 0x49
	.uleb128 0x13
	.uleb128 0x32
	.uleb128 0x21
	.sleb128 1
	.uleb128 0x3c
	.uleb128 0x19
	.uleb128 0x8b
	.uleb128 0x21
	.sleb128 1
	.uleb128 0x64
	.uleb128 0x13
	.uleb128 0x1
	.uleb128 0x13
	.byte	0
	.byte	0
	.uleb128 0x4e
	.uleb128 0x2e
	.byte	0x1
	.uleb128 0x3f
	.uleb128 0x19
	.uleb128 0x3
	.uleb128 0xe
	.uleb128 0x3a
	.uleb128 0x21
	.sleb128 2
	.uleb128 0x3b
	.uleb128 0x5
	.uleb128 0x39
	.uleb128 0x21
	.sleb128 7
	.uleb128 0x6e
	.uleb128 0xe
	.uleb128 0x3c
	.uleb128 0x19
	.uleb128 0x8b
	.uleb128 0x21
	.sleb128 1
	.uleb128 0x64
	.uleb128 0x13
	.uleb128 0x1
	.uleb128 0x13
	.byte	0
	.byte	0
	.uleb128 0x4f
	.uleb128 0xd
	.byte	0
	.uleb128 0x3
	.uleb128 0xe
	.uleb128 0x3a
	.uleb128 0x21
	.sleb128 2
	.uleb128 0x3b
	.uleb128 0x5
	.uleb128 0x39
	.uleb128 0xb
	.uleb128 0x49
	.uleb128 0x13
	.uleb128 0x38
	.uleb128 0xb
	.byte	0
	.byte	0
	.uleb128 0x50
	.uleb128 0x2e
	.byte	0x1
	.uleb128 0x3f
	.uleb128 0x19
	.uleb128 0x3
	.uleb128 0xe
	.uleb128 0x3a
	.uleb128 0x21
	.sleb128 2
	.uleb128 0x3b
	.uleb128 0x5
	.uleb128 0x39
	.uleb128 0x21
	.sleb128 7
	.uleb128 0x6e
	.uleb128 0xe
	.uleb128 0x32
	.uleb128 0x21
	.sleb128 1
	.uleb128 0x3c
	.uleb128 0x19
	.uleb128 0x8b
	.uleb128 0x21
	.sleb128 1
	.uleb128 0x64
	.uleb128 0x13
	.uleb128 0x1
	.uleb128 0x13
	.byte	0
	.byte	0
	.uleb128 0x51
	.uleb128 0x2e
	.byte	0x1
	.uleb128 0x3f
	.uleb128 0x19
	.uleb128 0x3
	.uleb128 0xe
	.uleb128 0x3a
	.uleb128 0x21
	.sleb128 2
	.uleb128 0x3b
	.uleb128 0x5
	.uleb128 0x39
	.uleb128 0x21
	.sleb128 7
	.uleb128 0x6e
	.uleb128 0xe
	.uleb128 0x49
	.uleb128 0x13
	.uleb128 0x32
	.uleb128 0x21
	.sleb128 2
	.uleb128 0x3c
	.uleb128 0x19
	.uleb128 0x1
	.uleb128 0x13
	.byte	0
	.byte	0
	.uleb128 0x52
	.uleb128 0x2e
	.byte	0x1
	.uleb128 0x3
	.uleb128 0xe
	.uleb128 0x3a
	.uleb128 0xb
	.uleb128 0x3b
	.uleb128 0xb
	.uleb128 0x39
	.uleb128 0xb
	.uleb128 0x32
	.uleb128 0x21
	.sleb128 1
	.uleb128 0x3c
	.uleb128 0x19
	.uleb128 0x64
	.uleb128 0x13
	.uleb128 0x1
	.uleb128 0x13
	.byte	0
	.byte	0
	.uleb128 0x53
	.uleb128 0x2e
	.byte	0x1
	.uleb128 0x3
	.uleb128 0xe
	.uleb128 0x3a
	.uleb128 0xb
	.uleb128 0x3b
	.uleb128 0xb
	.uleb128 0x39
	.uleb128 0xb
	.uleb128 0x49
	.uleb128 0x13
	.uleb128 0x32
	.uleb128 0xb
	.uleb128 0x3c
	.uleb128 0x19
	.uleb128 0x64
	.uleb128 0x13
	.uleb128 0x1
	.uleb128 0x13
	.byte	0
	.byte	0
	.uleb128 0x54
	.uleb128 0x2e
	.byte	0x1
	.uleb128 0x3
	.uleb128 0xe
	.uleb128 0x3a
	.uleb128 0x21
	.sleb128 2
	.uleb128 0x3b
	.uleb128 0xb
	.uleb128 0x39
	.uleb128 0x21
	.sleb128 2
	.uleb128 0x3c
	.uleb128 0x19
	.uleb128 0x64
	.uleb128 0x13
	.uleb128 0x1
	.uleb128 0x13
	.byte	0
	.byte	0
	.uleb128 0x55
	.uleb128 0x1d
	.byte	0x1
	.uleb128 0x31
	.uleb128 0x13
	.uleb128 0x52
	.uleb128 0x1
	.uleb128 0x2138
	.uleb128 0x5
	.uleb128 0x55
	.uleb128 0x17
	.uleb128 0x58
	.uleb128 0xb
	.uleb128 0x59
	.uleb128 0x5
	.uleb128 0x57
	.uleb128 0xb
	.uleb128 0x2136
	.uleb128 0xb
	.byte	0
	.byte	0
	.uleb128 0x56
	.uleb128 0xb
	.byte	0x1
	.uleb128 0x55
	.uleb128 0x17
	.uleb128 0x1
	.uleb128 0x13
	.byte	0
	.byte	0
	.uleb128 0x57
	.uleb128 0x34
	.byte	0
	.uleb128 0x3
	.uleb128 0xe
	.uleb128 0x49
	.uleb128 0x13
	.uleb128 0x34
	.uleb128 0x19
	.byte	0
	.byte	0
	.uleb128 0x58
	.uleb128 0xb
	.byte	0x1
	.uleb128 0x55
	.uleb128 0x17
	.byte	0
	.byte	0
	.uleb128 0x59
	.uleb128 0x13
	.byte	0x1
	.uleb128 0x3
	.uleb128 0xe
	.uleb128 0xb
	.uleb128 0xb
	.uleb128 0x3a
	.uleb128 0xb
	.uleb128 0x3b
	.uleb128 0x5
	.uleb128 0x39
	.uleb128 0xb
	.uleb128 0x1
	.uleb128 0x13
	.byte	0
	.byte	0
	.uleb128 0x5a
	.uleb128 0x18
	.byte	0
	.byte	0
	.byte	0
	.uleb128 0x5b
	.uleb128 0x2e
	.byte	0x1
	.uleb128 0x3f
	.uleb128 0x19
	.uleb128 0x3
	.uleb128 0xe
	.uleb128 0x3a
	.uleb128 0xb
	.uleb128 0x3b
	.uleb128 0x5
	.uleb128 0x39
	.uleb128 0x21
	.sleb128 13
	.uleb128 0x3c
	.uleb128 0x19
	.uleb128 0x1
	.uleb128 0x13
	.byte	0
	.byte	0
	.uleb128 0x5c
	.uleb128 0x34
	.byte	0
	.uleb128 0x3
	.uleb128 0x8
	.uleb128 0x3a
	.uleb128 0xb
	.uleb128 0x3b
	.uleb128 0x5
	.uleb128 0x39
	.uleb128 0xb
	.uleb128 0x49
	.uleb128 0x13
	.byte	0
	.byte	0
	.uleb128 0x5d
	.uleb128 0x2e
	.byte	0x1
	.uleb128 0x47
	.uleb128 0x13
	.uleb128 0x3a
	.uleb128 0xb
	.uleb128 0x3b
	.uleb128 0xb
	.uleb128 0x39
	.uleb128 0xb
	.uleb128 0x64
	.uleb128 0x13
	.uleb128 0x20
	.uleb128 0x21
	.sleb128 2
	.uleb128 0x1
	.uleb128 0x13
	.byte	0
	.byte	0
	.uleb128 0x5e
	.uleb128 0x48
	.byte	0
	.uleb128 0x7d
	.uleb128 0x1
	.uleb128 0x83
	.uleb128 0x18
	.byte	0
	.byte	0
	.uleb128 0x5f
	.uleb128 0x2e
	.byte	0x1
	.uleb128 0x3f
	.uleb128 0x19
	.uleb128 0x3
	.uleb128 0xe
	.uleb128 0x3a
	.uleb128 0x21
	.sleb128 2
	.uleb128 0x3b
	.uleb128 0xb
	.uleb128 0x39
	.uleb128 0x21
	.sleb128 2
	.uleb128 0x6e
	.uleb128 0xe
	.uleb128 0x3c
	.uleb128 0x19
	.uleb128 0x64
	.uleb128 0x13
	.byte	0
	.byte	0
	.uleb128 0x60
	.uleb128 0x2f
	.byte	0
	.uleb128 0x3
	.uleb128 0xe
	.uleb128 0x49
	.uleb128 0x13
	.uleb128 0x1e
	.uleb128 0x19
	.byte	0
	.byte	0
	.uleb128 0x61
	.uleb128 0x2e
	.byte	0x1
	.uleb128 0x3
	.uleb128 0xe
	.uleb128 0x3a
	.uleb128 0x21
	.sleb128 2
	.uleb128 0x3b
	.uleb128 0x5
	.uleb128 0x39
	.uleb128 0xb
	.uleb128 0x49
	.uleb128 0x13
	.uleb128 0x3c
	.uleb128 0x19
	.uleb128 0x64
	.uleb128 0x13
	.uleb128 0x1
	.uleb128 0x13
	.byte	0
	.byte	0
	.uleb128 0x62
	.uleb128 0x2e
	.byte	0
	.uleb128 0x3
	.uleb128 0xe
	.uleb128 0x3a
	.uleb128 0x21
	.sleb128 46
	.uleb128 0x3b
	.uleb128 0xb
	.uleb128 0x39
	.uleb128 0x21
	.sleb128 27
	.uleb128 0x49
	.uleb128 0x13
	.uleb128 0x3c
	.uleb128 0x19
	.byte	0
	.byte	0
	.uleb128 0x63
	.uleb128 0x39
	.byte	0x1
	.uleb128 0x3
	.uleb128 0xe
	.uleb128 0x3a
	.uleb128 0xb
	.uleb128 0x3b
	.uleb128 0xb
	.uleb128 0x39
	.uleb128 0xb
	.uleb128 0x1
	.uleb128 0x13
	.byte	0
	.byte	0
	.uleb128 0x64
	.uleb128 0x2e
	.byte	0x1
	.uleb128 0x3f
	.uleb128 0x19
	.uleb128 0x3
	.uleb128 0xe
	.uleb128 0x3a
	.uleb128 0x21
	.sleb128 5
	.uleb128 0x3b
	.uleb128 0x21
	.sleb128 189
	.uleb128 0x39
	.uleb128 0x21
	.sleb128 7
	.uleb128 0x6e
	.uleb128 0xe
	.uleb128 0x32
	.uleb128 0x21
	.sleb128 1
	.uleb128 0x3c
	.uleb128 0x19
	.uleb128 0x64
	.uleb128 0x13
	.byte	0
	.byte	0
	.uleb128 0x65
	.uleb128 0x2e
	.byte	0x1
	.uleb128 0x3f
	.uleb128 0x19
	.uleb128 0x3
	.uleb128 0xe
	.uleb128 0x6e
	.uleb128 0xe
	.uleb128 0x34
	.uleb128 0x19
	.uleb128 0x3c
	.uleb128 0x19
	.uleb128 0x64
	.uleb128 0x13
	.byte	0
	.byte	0
	.uleb128 0x66
	.uleb128 0x2e
	.byte	0
	.uleb128 0x3f
	.uleb128 0x19
	.uleb128 0x3
	.uleb128 0xe
	.uleb128 0x3a
	.uleb128 0x21
	.sleb128 2
	.uleb128 0x3b
	.uleb128 0x21
	.sleb128 515
	.uleb128 0x39
	.uleb128 0x21
	.sleb128 7
	.uleb128 0x6e
	.uleb128 0xe
	.uleb128 0x49
	.uleb128 0x13
	.uleb128 0x3c
	.uleb128 0x19
	.byte	0
	.byte	0
	.uleb128 0x67
	.uleb128 0x2e
	.byte	0x1
	.uleb128 0x3
	.uleb128 0x8
	.uleb128 0x3a
	.uleb128 0x21
	.sleb128 2
	.uleb128 0x3b
	.uleb128 0x5
	.uleb128 0x39
	.uleb128 0x21
	.sleb128 7
	.uleb128 0x49
	.uleb128 0x13
	.uleb128 0x32
	.uleb128 0x21
	.sleb128 1
	.uleb128 0x3c
	.uleb128 0x19
	.uleb128 0x64
	.uleb128 0x13
	.uleb128 0x1
	.uleb128 0x13
	.byte	0
	.byte	0
	.uleb128 0x68
	.uleb128 0xd
	.byte	0
	.uleb128 0x3
	.uleb128 0xe
	.uleb128 0x3a
	.uleb128 0x21
	.sleb128 37
	.uleb128 0x3b
	.uleb128 0x21
	.sleb128 0
	.uleb128 0x49
	.uleb128 0x13
	.uleb128 0x38
	.uleb128 0xb
	.byte	0
	.byte	0
	.uleb128 0x69
	.uleb128 0x13
	.byte	0x1
	.uleb128 0xb
	.uleb128 0xb
	.uleb128 0x3a
	.uleb128 0xb
	.uleb128 0x3b
	.uleb128 0xb
	.uleb128 0x39
	.uleb128 0xb
	.uleb128 0x6e
	.uleb128 0xe
	.uleb128 0x1
	.uleb128 0x13
	.byte	0
	.byte	0
	.uleb128 0x6a
	.uleb128 0xd
	.byte	0
	.uleb128 0x3
	.uleb128 0xe
	.uleb128 0x3a
	.uleb128 0x21
	.sleb128 3
	.uleb128 0x3b
	.uleb128 0x21
	.sleb128 1029
	.uleb128 0x39
	.uleb128 0x21
	.sleb128 17
	.uleb128 0x49
	.uleb128 0x13
	.uleb128 0x38
	.uleb128 0x21
	.sleb128 0
	.uleb128 0x32
	.uleb128 0x21
	.sleb128 2
	.byte	0
	.byte	0
	.uleb128 0x6b
	.uleb128 0x2e
	.byte	0
	.uleb128 0x3f
	.uleb128 0x19
	.uleb128 0x3
	.uleb128 0xe
	.uleb128 0x3a
	.uleb128 0xb
	.uleb128 0x3b
	.uleb128 0xb
	.uleb128 0x39
	.uleb128 0xb
	.uleb128 0x49
	.uleb128 0x13
	.uleb128 0x3c
	.uleb128 0x19
	.byte	0
	.byte	0
	.uleb128 0x6c
	.uleb128 0xb
	.byte	0x1
	.uleb128 0x31
	.uleb128 0x13
	.byte	0
	.byte	0
	.uleb128 0x6d
	.uleb128 0x34
	.byte	0
	.uleb128 0x3
	.uleb128 0x8
	.uleb128 0x3a
	.uleb128 0x21
	.sleb128 1
	.uleb128 0x3b
	.uleb128 0xb
	.uleb128 0x39
	.uleb128 0xb
	.uleb128 0x49
	.uleb128 0x13
	.byte	0
	.byte	0
	.uleb128 0x6e
	.uleb128 0x1d
	.byte	0x1
	.uleb128 0x31
	.uleb128 0x13
	.uleb128 0x52
	.uleb128 0x1
	.uleb128 0x2138
	.uleb128 0x5
	.uleb128 0x11
	.uleb128 0x1
	.uleb128 0x12
	.uleb128 0x7
	.uleb128 0x58
	.uleb128 0x21
	.sleb128 2
	.uleb128 0x59
	.uleb128 0x5
	.uleb128 0x57
	.uleb128 0xb
	.uleb128 0x2136
	.uleb128 0xb
	.uleb128 0x1
	.uleb128 0x13
	.byte	0
	.byte	0
	.uleb128 0x6f
	.uleb128 0xb
	.byte	0x1
	.uleb128 0x31
	.uleb128 0x13
	.uleb128 0x55
	.uleb128 0x17
	.byte	0
	.byte	0
	.uleb128 0x70
	.uleb128 0x1d
	.byte	0x1
	.uleb128 0x31
	.uleb128 0x13
	.uleb128 0x52
	.uleb128 0x1
	.uleb128 0x2138
	.uleb128 0x5
	.uleb128 0x11
	.uleb128 0x1
	.uleb128 0x12
	.uleb128 0x7
	.uleb128 0x58
	.uleb128 0xb
	.uleb128 0x59
	.uleb128 0xb
	.uleb128 0x57
	.uleb128 0xb
	.uleb128 0x2136
	.uleb128 0xb
	.byte	0
	.byte	0
	.uleb128 0x71
	.uleb128 0xb
	.byte	0x1
	.uleb128 0x31
	.uleb128 0x13
	.uleb128 0x11
	.uleb128 0x1
	.uleb128 0x12
	.uleb128 0x7
	.uleb128 0x1
	.uleb128 0x13
	.byte	0
	.byte	0
	.uleb128 0x72
	.uleb128 0xb
	.byte	0x1
	.uleb128 0x31
	.uleb128 0x13
	.uleb128 0x55
	.uleb128 0x17
	.uleb128 0x1
	.uleb128 0x13
	.byte	0
	.byte	0
	.uleb128 0x73
	.uleb128 0x1d
	.byte	0x1
	.uleb128 0x31
	.uleb128 0x13
	.uleb128 0x52
	.uleb128 0x1
	.uleb128 0x2138
	.uleb128 0x5
	.uleb128 0x11
	.uleb128 0x1
	.uleb128 0x12
	.uleb128 0x7
	.uleb128 0x58
	.uleb128 0x21
	.sleb128 1
	.uleb128 0x59
	.uleb128 0xb
	.uleb128 0x57
	.uleb128 0xb
	.uleb128 0x2136
	.uleb128 0xb
	.uleb128 0x1
	.uleb128 0x13
	.byte	0
	.byte	0
	.uleb128 0x74
	.uleb128 0x2e
	.byte	0x1
	.uleb128 0x3f
	.uleb128 0x19
	.uleb128 0x3
	.uleb128 0xe
	.uleb128 0x3a
	.uleb128 0xb
	.uleb128 0x3b
	.uleb128 0xb
	.uleb128 0x39
	.uleb128 0xb
	.uleb128 0x6e
	.uleb128 0xe
	.uleb128 0x3c
	.uleb128 0x19
	.uleb128 0x63
	.uleb128 0x19
	.uleb128 0x64
	.uleb128 0x13
	.uleb128 0x1
	.uleb128 0x13
	.byte	0
	.byte	0
	.uleb128 0x75
	.uleb128 0x39
	.byte	0
	.uleb128 0x3
	.uleb128 0xe
	.uleb128 0x3a
	.uleb128 0xb
	.uleb128 0x3b
	.uleb128 0xb
	.uleb128 0x39
	.uleb128 0xb
	.byte	0
	.byte	0
	.uleb128 0x76
	.uleb128 0x2e
	.byte	0x1
	.uleb128 0x3
	.uleb128 0xe
	.uleb128 0x3a
	.uleb128 0xb
	.uleb128 0x3b
	.uleb128 0x5
	.uleb128 0x39
	.uleb128 0x21
	.sleb128 7
	.uleb128 0x32
	.uleb128 0x21
	.sleb128 1
	.uleb128 0x3c
	.uleb128 0x19
	.uleb128 0x63
	.uleb128 0x19
	.uleb128 0x64
	.uleb128 0x13
	.uleb128 0x1
	.uleb128 0x13
	.byte	0
	.byte	0
	.uleb128 0x77
	.uleb128 0x1
	.byte	0x1
	.uleb128 0x49
	.uleb128 0x13
	.uleb128 0x1
	.uleb128 0x13
	.byte	0
	.byte	0
	.uleb128 0x78
	.uleb128 0x21
	.byte	0
	.uleb128 0x49
	.uleb128 0x13
	.uleb128 0x2f
	.uleb128 0xb
	.byte	0
	.byte	0
	.uleb128 0x79
	.uleb128 0x28
	.byte	0
	.uleb128 0x3
	.uleb128 0xe
	.uleb128 0x1c
	.uleb128 0xb
	.byte	0
	.byte	0
	.uleb128 0x7a
	.uleb128 0x13
	.byte	0
	.uleb128 0x3
	.uleb128 0xe
	.uleb128 0x3c
	.uleb128 0x19
	.byte	0
	.byte	0
	.uleb128 0x7b
	.uleb128 0x4108
	.byte	0x1
	.uleb128 0x3
	.uleb128 0xe
	.uleb128 0x3a
	.uleb128 0xb
	.uleb128 0x3b
	.uleb128 0xb
	.uleb128 0x39
	.uleb128 0xb
	.byte	0
	.byte	0
	.uleb128 0x7c
	.uleb128 0x48
	.byte	0
	.uleb128 0x7d
	.uleb128 0x1
	.uleb128 0x7f
	.uleb128 0x13
	.byte	0
	.byte	0
	.uleb128 0x7d
	.uleb128 0x2e
	.byte	0
	.uleb128 0x3f
	.uleb128 0x19
	.uleb128 0x3c
	.uleb128 0x19
	.uleb128 0x6e
	.uleb128 0xe
	.uleb128 0x3
	.uleb128 0xe
	.byte	0
	.byte	0
	.uleb128 0x7e
	.uleb128 0x30
	.byte	0
	.uleb128 0x3
	.uleb128 0x8
	.uleb128 0x49
	.uleb128 0x13
	.uleb128 0x1c
	.uleb128 0xb
	.byte	0
	.byte	0
	.uleb128 0x7f
	.uleb128 0x39
	.byte	0
	.uleb128 0x3
	.uleb128 0xe
	.uleb128 0x3a
	.uleb128 0x21
	.sleb128 16
	.uleb128 0x3b
	.uleb128 0x5
	.uleb128 0x39
	.uleb128 0x21
	.sleb128 13
	.byte	0
	.byte	0
	.uleb128 0x80
	.uleb128 0x2e
	.byte	0x1
	.uleb128 0x3f
	.uleb128 0x19
	.uleb128 0x3
	.uleb128 0xe
	.uleb128 0x3a
	.uleb128 0xb
	.uleb128 0x3b
	.uleb128 0xb
	.uleb128 0x39
	.uleb128 0xb
	.uleb128 0x6e
	.uleb128 0xe
	.uleb128 0x87
	.uleb128 0x19
	.uleb128 0x3c
	.uleb128 0x19
	.uleb128 0x1
	.uleb128 0x13
	.byte	0
	.byte	0
	.uleb128 0x81
	.uleb128 0x39
	.byte	0
	.uleb128 0x3
	.uleb128 0xe
	.uleb128 0x3a
	.uleb128 0xb
	.uleb128 0x3b
	.uleb128 0x5
	.uleb128 0x39
	.uleb128 0xb
	.uleb128 0x89
	.uleb128 0x19
	.byte	0
	.byte	0
	.uleb128 0x82
	.uleb128 0x39
	.byte	0
	.uleb128 0x3
	.uleb128 0x8
	.uleb128 0x3a
	.uleb128 0xb
	.uleb128 0x3b
	.uleb128 0xb
	.uleb128 0x39
	.uleb128 0xb
	.uleb128 0x89
	.uleb128 0x19
	.byte	0
	.byte	0
	.uleb128 0x83
	.uleb128 0x2e
	.byte	0x1
	.uleb128 0x3
	.uleb128 0xe
	.uleb128 0x3a
	.uleb128 0xb
	.uleb128 0x3b
	.uleb128 0xb
	.uleb128 0x39
	.uleb128 0xb
	.uleb128 0x49
	.uleb128 0x13
	.uleb128 0x32
	.uleb128 0x21
	.sleb128 1
	.uleb128 0x3c
	.uleb128 0x19
	.uleb128 0x8b
	.uleb128 0x21
	.sleb128 1
	.uleb128 0x64
	.uleb128 0x13
	.uleb128 0x1
	.uleb128 0x13
	.byte	0
	.byte	0
	.uleb128 0x84
	.uleb128 0x2e
	.byte	0x1
	.uleb128 0x3
	.uleb128 0xe
	.uleb128 0x3a
	.uleb128 0x21
	.sleb128 8
	.uleb128 0x3b
	.uleb128 0x5
	.uleb128 0x39
	.uleb128 0xb
	.uleb128 0x3c
	.uleb128 0x19
	.uleb128 0x1
	.uleb128 0x13
	.byte	0
	.byte	0
	.uleb128 0x85
	.uleb128 0x2e
	.byte	0x1
	.uleb128 0x3
	.uleb128 0xe
	.uleb128 0x3a
	.uleb128 0x21
	.sleb128 2
	.uleb128 0x3b
	.uleb128 0x5
	.uleb128 0x39
	.uleb128 0x21
	.sleb128 7
	.uleb128 0x3c
	.uleb128 0x19
	.uleb128 0x8b
	.uleb128 0x21
	.sleb128 1
	.uleb128 0x64
	.uleb128 0x13
	.uleb128 0x1
	.uleb128 0x13
	.byte	0
	.byte	0
	.uleb128 0x86
	.uleb128 0x2e
	.byte	0x1
	.uleb128 0x3
	.uleb128 0xe
	.uleb128 0x3a
	.uleb128 0x21
	.sleb128 2
	.uleb128 0x3b
	.uleb128 0x5
	.uleb128 0x39
	.uleb128 0x21
	.sleb128 7
	.uleb128 0x32
	.uleb128 0x21
	.sleb128 1
	.uleb128 0x3c
	.uleb128 0x19
	.uleb128 0x8b
	.uleb128 0x21
	.sleb128 1
	.uleb128 0x64
	.uleb128 0x13
	.uleb128 0x1
	.uleb128 0x13
	.byte	0
	.byte	0
	.uleb128 0x87
	.uleb128 0x2e
	.byte	0x1
	.uleb128 0x3
	.uleb128 0xe
	.uleb128 0x3a
	.uleb128 0x21
	.sleb128 2
	.uleb128 0x3b
	.uleb128 0x5
	.uleb128 0x39
	.uleb128 0x21
	.sleb128 7
	.uleb128 0x49
	.uleb128 0x13
	.uleb128 0x32
	.uleb128 0x21
	.sleb128 2
	.uleb128 0x3c
	.uleb128 0x19
	.uleb128 0x1
	.uleb128 0x13
	.byte	0
	.byte	0
	.uleb128 0x88
	.uleb128 0x2e
	.byte	0x1
	.uleb128 0x3f
	.uleb128 0x19
	.uleb128 0x3
	.uleb128 0x8
	.uleb128 0x3a
	.uleb128 0x21
	.sleb128 32
	.uleb128 0x3b
	.uleb128 0xb
	.uleb128 0x39
	.uleb128 0x21
	.sleb128 7
	.uleb128 0x6e
	.uleb128 0xe
	.uleb128 0x49
	.uleb128 0x13
	.uleb128 0x32
	.uleb128 0x21
	.sleb128 1
	.uleb128 0x3c
	.uleb128 0x19
	.uleb128 0x64
	.uleb128 0x13
	.uleb128 0x1
	.uleb128 0x13
	.byte	0
	.byte	0
	.uleb128 0x89
	.uleb128 0x2e
	.byte	0x1
	.uleb128 0x3f
	.uleb128 0x19
	.uleb128 0x3
	.uleb128 0xe
	.uleb128 0x3a
	.uleb128 0x21
	.sleb128 12
	.uleb128 0x3b
	.uleb128 0xb
	.uleb128 0x39
	.uleb128 0x21
	.sleb128 2
	.uleb128 0x6e
	.uleb128 0xe
	.uleb128 0x32
	.uleb128 0x21
	.sleb128 3
	.uleb128 0x3c
	.uleb128 0x19
	.uleb128 0x1
	.uleb128 0x13
	.byte	0
	.byte	0
	.uleb128 0x8a
	.uleb128 0x2f
	.byte	0
	.uleb128 0x3
	.uleb128 0xe
	.byte	0
	.byte	0
	.uleb128 0x8b
	.uleb128 0x2e
	.byte	0
	.uleb128 0x3f
	.uleb128 0x19
	.uleb128 0x3
	.uleb128 0xe
	.uleb128 0x3a
	.uleb128 0x21
	.sleb128 33
	.uleb128 0x3b
	.uleb128 0xb
	.uleb128 0x39
	.uleb128 0x21
	.sleb128 3
	.uleb128 0x6e
	.uleb128 0xe
	.uleb128 0x87
	.uleb128 0x19
	.uleb128 0x3c
	.uleb128 0x19
	.byte	0
	.byte	0
	.uleb128 0x8c
	.uleb128 0x2e
	.byte	0x1
	.uleb128 0x3
	.uleb128 0xe
	.uleb128 0x3a
	.uleb128 0xb
	.uleb128 0x3b
	.uleb128 0xb
	.uleb128 0x39
	.uleb128 0xb
	.uleb128 0x49
	.uleb128 0x13
	.uleb128 0x3c
	.uleb128 0x19
	.uleb128 0x1
	.uleb128 0x13
	.byte	0
	.byte	0
	.uleb128 0x8d
	.uleb128 0x2e
	.byte	0x1
	.uleb128 0x3
	.uleb128 0xe
	.uleb128 0x3a
	.uleb128 0xb
	.uleb128 0x3b
	.uleb128 0xb
	.uleb128 0x39
	.uleb128 0xb
	.uleb128 0x3c
	.uleb128 0x19
	.uleb128 0x1
	.uleb128 0x13
	.byte	0
	.byte	0
	.uleb128 0x8e
	.uleb128 0x2e
	.byte	0x1
	.uleb128 0x3f
	.uleb128 0x19
	.uleb128 0x3
	.uleb128 0xe
	.uleb128 0x3a
	.uleb128 0xb
	.uleb128 0x3b
	.uleb128 0x5
	.uleb128 0x39
	.uleb128 0xb
	.uleb128 0x6e
	.uleb128 0xe
	.uleb128 0x49
	.uleb128 0x13
	.uleb128 0x3c
	.uleb128 0x19
	.byte	0
	.byte	0
	.uleb128 0x8f
	.uleb128 0xd
	.byte	0
	.uleb128 0x3
	.uleb128 0xe
	.uleb128 0x3a
	.uleb128 0x21
	.sleb128 39
	.uleb128 0x3b
	.uleb128 0xb
	.uleb128 0x39
	.uleb128 0xb
	.uleb128 0x49
	.uleb128 0x13
	.byte	0
	.byte	0
	.uleb128 0x90
	.uleb128 0x2e
	.byte	0
	.uleb128 0x3f
	.uleb128 0x19
	.uleb128 0x3
	.uleb128 0xe
	.uleb128 0x3a
	.uleb128 0xb
	.uleb128 0x3b
	.uleb128 0x5
	.uleb128 0x39
	.uleb128 0xb
	.uleb128 0x49
	.uleb128 0x13
	.uleb128 0x3c
	.uleb128 0x19
	.byte	0
	.byte	0
	.uleb128 0x91
	.uleb128 0x39
	.byte	0x1
	.uleb128 0x3
	.uleb128 0xe
	.uleb128 0x3a
	.uleb128 0xb
	.uleb128 0x3b
	.uleb128 0x5
	.uleb128 0x39
	.uleb128 0x21
	.sleb128 11
	.uleb128 0x1
	.uleb128 0x13
	.byte	0
	.byte	0
	.uleb128 0x92
	.uleb128 0xd
	.byte	0
	.uleb128 0x3
	.uleb128 0xe
	.uleb128 0x3a
	.uleb128 0x21
	.sleb128 36
	.uleb128 0x3b
	.uleb128 0x5
	.uleb128 0x39
	.uleb128 0xb
	.uleb128 0x49
	.uleb128 0x13
	.uleb128 0x88
	.uleb128 0xb
	.uleb128 0x38
	.uleb128 0xb
	.byte	0
	.byte	0
	.uleb128 0x93
	.uleb128 0x34
	.byte	0
	.uleb128 0x47
	.uleb128 0x13
	.byte	0
	.byte	0
	.uleb128 0x94
	.uleb128 0x2e
	.byte	0x1
	.uleb128 0x3f
	.uleb128 0x19
	.uleb128 0x3
	.uleb128 0x8
	.uleb128 0x3a
	.uleb128 0x21
	.sleb128 4
	.uleb128 0x3b
	.uleb128 0xb
	.uleb128 0x39
	.uleb128 0xb
	.uleb128 0x6e
	.uleb128 0xe
	.uleb128 0x49
	.uleb128 0x13
	.uleb128 0x3c
	.uleb128 0x19
	.uleb128 0x64
	.uleb128 0x13
	.uleb128 0x1
	.uleb128 0x13
	.byte	0
	.byte	0
	.uleb128 0x95
	.uleb128 0x5
	.byte	0
	.uleb128 0x3
	.uleb128 0xe
	.uleb128 0x3a
	.uleb128 0x21
	.sleb128 1
	.uleb128 0x3b
	.uleb128 0x21
	.sleb128 24
	.uleb128 0x39
	.uleb128 0xb
	.uleb128 0x49
	.uleb128 0x13
	.uleb128 0x2
	.uleb128 0x17
	.uleb128 0x2137
	.uleb128 0x17
	.byte	0
	.byte	0
	.uleb128 0x96
	.uleb128 0x34
	.byte	0
	.uleb128 0x3
	.uleb128 0xe
	.uleb128 0x49
	.uleb128 0x13
	.uleb128 0x34
	.uleb128 0x19
	.uleb128 0x2
	.uleb128 0x17
	.uleb128 0x2137
	.uleb128 0x17
	.byte	0
	.byte	0
	.uleb128 0x97
	.uleb128 0x1d
	.byte	0x1
	.uleb128 0x31
	.uleb128 0x13
	.uleb128 0x55
	.uleb128 0x17
	.uleb128 0x58
	.uleb128 0x21
	.sleb128 12
	.uleb128 0x59
	.uleb128 0x21
	.sleb128 492
	.uleb128 0x57
	.uleb128 0x21
	.sleb128 17
	.uleb128 0x1
	.uleb128 0x13
	.byte	0
	.byte	0
	.uleb128 0x98
	.uleb128 0x1d
	.byte	0x1
	.uleb128 0x31
	.uleb128 0x13
	.uleb128 0x52
	.uleb128 0x1
	.uleb128 0x2138
	.uleb128 0x5
	.uleb128 0x55
	.uleb128 0x17
	.uleb128 0x58
	.uleb128 0x21
	.sleb128 2
	.uleb128 0x59
	.uleb128 0xb
	.uleb128 0x57
	.uleb128 0xb
	.uleb128 0x2136
	.uleb128 0x21
	.sleb128 1
	.byte	0
	.byte	0
	.uleb128 0x99
	.uleb128 0x11
	.byte	0x1
	.uleb128 0x25
	.uleb128 0xe
	.uleb128 0x13
	.uleb128 0xb
	.uleb128 0x90
	.uleb128 0xb
	.uleb128 0x91
	.uleb128 0x6
	.uleb128 0x3
	.uleb128 0x1f
	.uleb128 0x1b
	.uleb128 0x1f
	.uleb128 0x55
	.uleb128 0x17
	.uleb128 0x11
	.uleb128 0x1
	.uleb128 0x10
	.uleb128 0x17
	.byte	0
	.byte	0
	.uleb128 0x9a
	.uleb128 0x24
	.byte	0
	.uleb128 0xb
	.uleb128 0xb
	.uleb128 0x3e
	.uleb128 0xb
	.uleb128 0x3
	.uleb128 0x8
	.byte	0
	.byte	0
	.uleb128 0x9b
	.uleb128 0x39
	.byte	0x1
	.uleb128 0x3
	.uleb128 0x8
	.uleb128 0x3a
	.uleb128 0xb
	.uleb128 0x3b
	.uleb128 0x5
	.uleb128 0x39
	.uleb128 0xb
	.uleb128 0x1
	.uleb128 0x13
	.byte	0
	.byte	0
	.uleb128 0x9c
	.uleb128 0x2e
	.byte	0x1
	.uleb128 0x3f
	.uleb128 0x19
	.uleb128 0x3
	.uleb128 0xe
	.uleb128 0x3a
	.uleb128 0xb
	.uleb128 0x3b
	.uleb128 0xb
	.uleb128 0x39
	.uleb128 0xb
	.uleb128 0x6e
	.uleb128 0xe
	.uleb128 0x49
	.uleb128 0x13
	.uleb128 0x32
	.uleb128 0xb
	.uleb128 0x3c
	.uleb128 0x19
	.uleb128 0x63
	.uleb128 0x19
	.uleb128 0x64
	.uleb128 0x13
	.uleb128 0x1
	.uleb128 0x13
	.byte	0
	.byte	0
	.uleb128 0x9d
	.uleb128 0x2e
	.byte	0x1
	.uleb128 0x3f
	.uleb128 0x19
	.uleb128 0x3
	.uleb128 0xe
	.uleb128 0x3a
	.uleb128 0xb
	.uleb128 0x3b
	.uleb128 0xb
	.uleb128 0x39
	.uleb128 0xb
	.uleb128 0x6e
	.uleb128 0xe
	.uleb128 0x49
	.uleb128 0x13
	.uleb128 0x32
	.uleb128 0xb
	.uleb128 0x3c
	.uleb128 0x19
	.uleb128 0x64
	.uleb128 0x13
	.byte	0
	.byte	0
	.uleb128 0x9e
	.uleb128 0x2e
	.byte	0x1
	.uleb128 0x3f
	.uleb128 0x19
	.uleb128 0x3
	.uleb128 0xe
	.uleb128 0x3a
	.uleb128 0xb
	.uleb128 0x3b
	.uleb128 0x5
	.uleb128 0x39
	.uleb128 0xb
	.uleb128 0x6e
	.uleb128 0xe
	.uleb128 0x3c
	.uleb128 0x19
	.byte	0
	.byte	0
	.uleb128 0x9f
	.uleb128 0x13
	.byte	0
	.uleb128 0x3
	.uleb128 0xe
	.uleb128 0xb
	.uleb128 0xb
	.uleb128 0x3a
	.uleb128 0xb
	.uleb128 0x3b
	.uleb128 0xb
	.uleb128 0x39
	.uleb128 0xb
	.byte	0
	.byte	0
	.uleb128 0xa0
	.uleb128 0x39
	.byte	0
	.uleb128 0x3
	.uleb128 0x8
	.uleb128 0x3a
	.uleb128 0xb
	.uleb128 0x3b
	.uleb128 0xb
	.uleb128 0x39
	.uleb128 0xb
	.byte	0
	.byte	0
	.uleb128 0xa1
	.uleb128 0x39
	.byte	0
	.uleb128 0x3
	.uleb128 0x8
	.uleb128 0x3a
	.uleb128 0xb
	.uleb128 0x3b
	.uleb128 0x5
	.uleb128 0x39
	.uleb128 0xb
	.uleb128 0x89
	.uleb128 0x19
	.byte	0
	.byte	0
	.uleb128 0xa2
	.uleb128 0x3a
	.byte	0
	.uleb128 0x3a
	.uleb128 0xb
	.uleb128 0x3b
	.uleb128 0x5
	.uleb128 0x39
	.uleb128 0xb
	.uleb128 0x18
	.uleb128 0x13
	.byte	0
	.byte	0
	.uleb128 0xa3
	.uleb128 0x39
	.byte	0x1
	.uleb128 0x3
	.uleb128 0xe
	.uleb128 0x3a
	.uleb128 0xb
	.uleb128 0x3b
	.uleb128 0x5
	.uleb128 0x39
	.uleb128 0xb
	.uleb128 0x89
	.uleb128 0x19
	.uleb128 0x1
	.uleb128 0x13
	.byte	0
	.byte	0
	.uleb128 0xa4
	.uleb128 0x39
	.byte	0x1
	.uleb128 0x3
	.uleb128 0xe
	.uleb128 0x3a
	.uleb128 0xb
	.uleb128 0x3b
	.uleb128 0xb
	.uleb128 0x39
	.uleb128 0xb
	.uleb128 0x89
	.uleb128 0x19
	.byte	0
	.byte	0
	.uleb128 0xa5
	.uleb128 0x2e
	.byte	0x1
	.uleb128 0x3
	.uleb128 0xe
	.uleb128 0x3a
	.uleb128 0xb
	.uleb128 0x3b
	.uleb128 0xb
	.uleb128 0x39
	.uleb128 0xb
	.uleb128 0x49
	.uleb128 0x13
	.uleb128 0x3c
	.uleb128 0x19
	.uleb128 0x64
	.uleb128 0x13
	.uleb128 0x1
	.uleb128 0x13
	.byte	0
	.byte	0
	.uleb128 0xa6
	.uleb128 0x2e
	.byte	0x1
	.uleb128 0x3
	.uleb128 0xe
	.uleb128 0x3a
	.uleb128 0xb
	.uleb128 0x3b
	.uleb128 0xb
	.uleb128 0x39
	.uleb128 0xb
	.uleb128 0x32
	.uleb128 0xb
	.uleb128 0x3c
	.uleb128 0x19
	.uleb128 0x64
	.uleb128 0x13
	.byte	0
	.byte	0
	.uleb128 0xa7
	.uleb128 0x2e
	.byte	0x1
	.uleb128 0x3
	.uleb128 0xe
	.uleb128 0x3a
	.uleb128 0xb
	.uleb128 0x3b
	.uleb128 0x5
	.uleb128 0x39
	.uleb128 0xb
	.uleb128 0x3c
	.uleb128 0x19
	.byte	0
	.byte	0
	.uleb128 0xa8
	.uleb128 0x2e
	.byte	0x1
	.uleb128 0x3
	.uleb128 0xe
	.uleb128 0x3a
	.uleb128 0xb
	.uleb128 0x3b
	.uleb128 0xb
	.uleb128 0x39
	.uleb128 0xb
	.uleb128 0x3c
	.uleb128 0x19
	.uleb128 0x64
	.uleb128 0x13
	.byte	0
	.byte	0
	.uleb128 0xa9
	.uleb128 0x2e
	.byte	0x1
	.uleb128 0x3
	.uleb128 0xe
	.uleb128 0x34
	.uleb128 0x19
	.uleb128 0x3c
	.uleb128 0x19
	.uleb128 0x64
	.uleb128 0x13
	.byte	0
	.byte	0
	.uleb128 0xaa
	.uleb128 0x2e
	.byte	0
	.uleb128 0x3
	.uleb128 0xe
	.uleb128 0x3a
	.uleb128 0xb
	.uleb128 0x3b
	.uleb128 0x5
	.uleb128 0x39
	.uleb128 0xb
	.uleb128 0x49
	.uleb128 0x13
	.uleb128 0x3c
	.uleb128 0x19
	.byte	0
	.byte	0
	.uleb128 0xab
	.uleb128 0x2e
	.byte	0x1
	.uleb128 0x3
	.uleb128 0xe
	.uleb128 0x3a
	.uleb128 0xb
	.uleb128 0x3b
	.uleb128 0x5
	.uleb128 0x39
	.uleb128 0xb
	.uleb128 0x32
	.uleb128 0xb
	.uleb128 0x3c
	.uleb128 0x19
	.uleb128 0x64
	.uleb128 0x13
	.byte	0
	.byte	0
	.uleb128 0xac
	.uleb128 0x34
	.byte	0
	.uleb128 0x3
	.uleb128 0xe
	.uleb128 0x3a
	.uleb128 0xb
	.uleb128 0x3b
	.uleb128 0x5
	.uleb128 0x39
	.uleb128 0xb
	.uleb128 0x49
	.uleb128 0x13
	.uleb128 0x3c
	.uleb128 0x19
	.uleb128 0x1c
	.uleb128 0xb
	.uleb128 0x6c
	.uleb128 0x19
	.uleb128 0x20
	.uleb128 0xb
	.byte	0
	.byte	0
	.uleb128 0xad
	.uleb128 0x13
	.byte	0x1
	.uleb128 0x3
	.uleb128 0xe
	.uleb128 0xb
	.uleb128 0xb
	.uleb128 0x3a
	.uleb128 0xb
	.uleb128 0x3b
	.uleb128 0xb
	.uleb128 0x1
	.uleb128 0x13
	.byte	0
	.byte	0
	.uleb128 0xae
	.uleb128 0xf
	.byte	0
	.uleb128 0xb
	.uleb128 0xb
	.byte	0
	.byte	0
	.uleb128 0xaf
	.uleb128 0x17
	.byte	0x1
	.uleb128 0xb
	.uleb128 0xb
	.uleb128 0x3a
	.uleb128 0xb
	.uleb128 0x3b
	.uleb128 0xb
	.uleb128 0x39
	.uleb128 0xb
	.uleb128 0x1
	.uleb128 0x13
	.byte	0
	.byte	0
	.uleb128 0xb0
	.uleb128 0xd
	.byte	0
	.uleb128 0x3
	.uleb128 0xe
	.uleb128 0x3a
	.uleb128 0xb
	.uleb128 0x3b
	.uleb128 0xb
	.uleb128 0x39
	.uleb128 0xb
	.uleb128 0x49
	.uleb128 0x13
	.uleb128 0xd
	.uleb128 0xb
	.uleb128 0x6b
	.uleb128 0x5
	.byte	0
	.byte	0
	.uleb128 0xb1
	.uleb128 0x13
	.byte	0x1
	.uleb128 0x3
	.uleb128 0x8
	.uleb128 0xb
	.uleb128 0xb
	.uleb128 0x3a
	.uleb128 0xb
	.uleb128 0x3b
	.uleb128 0xb
	.uleb128 0x39
	.uleb128 0xb
	.uleb128 0x1
	.uleb128 0x13
	.byte	0
	.byte	0
	.uleb128 0xb2
	.uleb128 0x2e
	.byte	0x1
	.uleb128 0x3f
	.uleb128 0x19
	.uleb128 0x3
	.uleb128 0x8
	.uleb128 0x3a
	.uleb128 0xb
	.uleb128 0x3b
	.uleb128 0xb
	.uleb128 0x39
	.uleb128 0xb
	.uleb128 0x6e
	.uleb128 0xe
	.uleb128 0x49
	.uleb128 0x13
	.uleb128 0x3c
	.uleb128 0x19
	.uleb128 0x1
	.uleb128 0x13
	.byte	0
	.byte	0
	.uleb128 0xb3
	.uleb128 0x4
	.byte	0x1
	.uleb128 0x3
	.uleb128 0xe
	.uleb128 0x3e
	.uleb128 0xb
	.uleb128 0xb
	.uleb128 0xb
	.uleb128 0x49
	.uleb128 0x13
	.uleb128 0x3a
	.uleb128 0xb
	.uleb128 0x3b
	.uleb128 0xb
	.uleb128 0x39
	.uleb128 0xb
	.uleb128 0x1
	.uleb128 0x13
	.byte	0
	.byte	0
	.uleb128 0xb4
	.uleb128 0x34
	.byte	0
	.uleb128 0x3
	.uleb128 0xe
	.uleb128 0x3a
	.uleb128 0xb
	.uleb128 0x3b
	.uleb128 0xb
	.uleb128 0x39
	.uleb128 0xb
	.uleb128 0x6e
	.uleb128 0xe
	.uleb128 0x49
	.uleb128 0x13
	.uleb128 0x3f
	.uleb128 0x19
	.uleb128 0x3c
	.uleb128 0x19
	.uleb128 0x1c
	.uleb128 0xb
	.uleb128 0x20
	.uleb128 0xb
	.byte	0
	.byte	0
	.uleb128 0xb5
	.uleb128 0x13
	.byte	0x1
	.uleb128 0xb
	.uleb128 0xb
	.uleb128 0x88
	.uleb128 0xb
	.uleb128 0x3a
	.uleb128 0xb
	.uleb128 0x3b
	.uleb128 0x5
	.uleb128 0x39
	.uleb128 0xb
	.uleb128 0x6e
	.uleb128 0xe
	.uleb128 0x1
	.uleb128 0x13
	.byte	0
	.byte	0
	.uleb128 0xb6
	.uleb128 0x16
	.byte	0
	.uleb128 0x3
	.uleb128 0xe
	.uleb128 0x3a
	.uleb128 0xb
	.uleb128 0x3b
	.uleb128 0x5
	.uleb128 0x39
	.uleb128 0xb
	.uleb128 0x49
	.uleb128 0x13
	.uleb128 0x88
	.uleb128 0xb
	.byte	0
	.byte	0
	.uleb128 0xb7
	.uleb128 0x3b
	.byte	0
	.uleb128 0x3
	.uleb128 0xe
	.byte	0
	.byte	0
	.uleb128 0xb8
	.uleb128 0x26
	.byte	0
	.byte	0
	.byte	0
	.uleb128 0xb9
	.uleb128 0x3a
	.byte	0
	.uleb128 0x3a
	.uleb128 0xb
	.uleb128 0x3b
	.uleb128 0xb
	.uleb128 0x39
	.uleb128 0xb
	.uleb128 0x18
	.uleb128 0x13
	.byte	0
	.byte	0
	.uleb128 0xba
	.uleb128 0x15
	.byte	0x1
	.uleb128 0x49
	.uleb128 0x13
	.uleb128 0x1
	.uleb128 0x13
	.byte	0
	.byte	0
	.uleb128 0xbb
	.uleb128 0x15
	.byte	0
	.byte	0
	.byte	0
	.uleb128 0xbc
	.uleb128 0x2e
	.byte	0x1
	.uleb128 0x3f
	.uleb128 0x19
	.uleb128 0x3
	.uleb128 0x8
	.uleb128 0x3a
	.uleb128 0xb
	.uleb128 0x3b
	.uleb128 0x5
	.uleb128 0x39
	.uleb128 0xb
	.uleb128 0x49
	.uleb128 0x13
	.uleb128 0x3c
	.uleb128 0x19
	.uleb128 0x1
	.uleb128 0x13
	.byte	0
	.byte	0
	.uleb128 0xbd
	.uleb128 0x2e
	.byte	0x1
	.uleb128 0x3f
	.uleb128 0x19
	.uleb128 0x3
	.uleb128 0xe
	.uleb128 0x3a
	.uleb128 0xb
	.uleb128 0x3b
	.uleb128 0x5
	.uleb128 0x39
	.uleb128 0xb
	.uleb128 0x87
	.uleb128 0x19
	.uleb128 0x3c
	.uleb128 0x19
	.uleb128 0x1
	.uleb128 0x13
	.byte	0
	.byte	0
	.uleb128 0xbe
	.uleb128 0x16
	.byte	0
	.uleb128 0x3
	.uleb128 0xe
	.uleb128 0x3a
	.uleb128 0xb
	.uleb128 0x3b
	.uleb128 0xb
	.uleb128 0x39
	.uleb128 0xb
	.byte	0
	.byte	0
	.uleb128 0xbf
	.uleb128 0x8
	.byte	0
	.uleb128 0x3
	.uleb128 0x8
	.uleb128 0x3a
	.uleb128 0xb
	.uleb128 0x3b
	.uleb128 0xb
	.uleb128 0x39
	.uleb128 0xb
	.uleb128 0x18
	.uleb128 0x13
	.byte	0
	.byte	0
	.uleb128 0xc0
	.uleb128 0x2e
	.byte	0x1
	.uleb128 0x3f
	.uleb128 0x19
	.uleb128 0x3
	.uleb128 0xe
	.uleb128 0x6e
	.uleb128 0xe
	.uleb128 0x34
	.uleb128 0x19
	.uleb128 0x3c
	.uleb128 0x19
	.uleb128 0x64
	.uleb128 0x13
	.uleb128 0x1
	.uleb128 0x13
	.byte	0
	.byte	0
	.uleb128 0xc1
	.uleb128 0x39
	.byte	0x1
	.uleb128 0x3
	.uleb128 0xe
	.uleb128 0x3a
	.uleb128 0xb
	.uleb128 0x3b
	.uleb128 0xb
	.uleb128 0x39
	.uleb128 0xb
	.byte	0
	.byte	0
	.uleb128 0xc2
	.uleb128 0x39
	.byte	0x1
	.uleb128 0x89
	.uleb128 0x19
	.uleb128 0x1
	.uleb128 0x13
	.byte	0
	.byte	0
	.uleb128 0xc3
	.uleb128 0x4108
	.byte	0x1
	.uleb128 0x3
	.uleb128 0xe
	.uleb128 0x3a
	.uleb128 0xb
	.uleb128 0x3b
	.uleb128 0x5
	.uleb128 0x39
	.uleb128 0xb
	.uleb128 0x1
	.uleb128 0x13
	.byte	0
	.byte	0
	.uleb128 0xc4
	.uleb128 0x4108
	.byte	0x1
	.uleb128 0x3
	.uleb128 0xe
	.uleb128 0x3a
	.uleb128 0xb
	.uleb128 0x3b
	.uleb128 0x5
	.uleb128 0x39
	.uleb128 0xb
	.byte	0
	.byte	0
	.uleb128 0xc5
	.uleb128 0xb
	.byte	0x1
	.uleb128 0x1
	.uleb128 0x13
	.byte	0
	.byte	0
	.uleb128 0xc6
	.uleb128 0x2e
	.byte	0x1
	.uleb128 0x3f
	.uleb128 0x19
	.uleb128 0x3
	.uleb128 0xe
	.uleb128 0x3a
	.uleb128 0xb
	.uleb128 0x3b
	.uleb128 0xb
	.uleb128 0x39
	.uleb128 0xb
	.uleb128 0x6e
	.uleb128 0xe
	.uleb128 0x49
	.uleb128 0x13
	.uleb128 0x55
	.uleb128 0x17
	.uleb128 0x40
	.uleb128 0x18
	.uleb128 0x7a
	.uleb128 0x19
	.uleb128 0x1
	.uleb128 0x13
	.byte	0
	.byte	0
	.uleb128 0xc7
	.uleb128 0xb
	.byte	0x1
	.uleb128 0x11
	.uleb128 0x1
	.uleb128 0x12
	.uleb128 0x7
	.byte	0
	.byte	0
	.uleb128 0xc8
	.uleb128 0x34
	.byte	0
	.uleb128 0x31
	.uleb128 0x13
	.uleb128 0x1c
	.uleb128 0xb
	.byte	0
	.byte	0
	.uleb128 0xc9
	.uleb128 0xb
	.byte	0x1
	.uleb128 0x31
	.uleb128 0x13
	.uleb128 0x11
	.uleb128 0x1
	.uleb128 0x12
	.uleb128 0x7
	.byte	0
	.byte	0
	.uleb128 0xca
	.uleb128 0x1d
	.byte	0x1
	.uleb128 0x31
	.uleb128 0x13
	.uleb128 0x52
	.uleb128 0x1
	.uleb128 0x2138
	.uleb128 0x5
	.uleb128 0x11
	.uleb128 0x1
	.uleb128 0x12
	.uleb128 0x7
	.uleb128 0x58
	.uleb128 0xb
	.uleb128 0x59
	.uleb128 0x5
	.uleb128 0x57
	.uleb128 0xb
	.uleb128 0x2136
	.uleb128 0xb
	.byte	0
	.byte	0
	.uleb128 0xcb
	.uleb128 0x1d
	.byte	0x1
	.uleb128 0x31
	.uleb128 0x13
	.uleb128 0x55
	.uleb128 0x17
	.uleb128 0x58
	.uleb128 0xb
	.uleb128 0x59
	.uleb128 0x5
	.uleb128 0x57
	.uleb128 0xb
	.byte	0
	.byte	0
	.uleb128 0xcc
	.uleb128 0x48
	.byte	0x1
	.uleb128 0x7d
	.uleb128 0x1
	.uleb128 0x7f
	.uleb128 0x13
	.uleb128 0x1
	.uleb128 0x13
	.byte	0
	.byte	0
	.uleb128 0xcd
	.uleb128 0x2e
	.byte	0x1
	.uleb128 0x3f
	.uleb128 0x19
	.uleb128 0x3
	.uleb128 0xe
	.uleb128 0x3a
	.uleb128 0xb
	.uleb128 0x3b
	.uleb128 0xb
	.uleb128 0x39
	.uleb128 0xb
	.uleb128 0x6e
	.uleb128 0xe
	.uleb128 0x20
	.uleb128 0xb
	.uleb128 0x1
	.uleb128 0x13
	.byte	0
	.byte	0
	.uleb128 0xce
	.uleb128 0x2e
	.byte	0x1
	.uleb128 0x3f
	.uleb128 0x19
	.uleb128 0x3
	.uleb128 0xe
	.uleb128 0x3a
	.uleb128 0xb
	.uleb128 0x3b
	.uleb128 0xb
	.uleb128 0x39
	.uleb128 0xb
	.uleb128 0x6e
	.uleb128 0xe
	.uleb128 0x49
	.uleb128 0x13
	.uleb128 0x20
	.uleb128 0xb
	.uleb128 0x1
	.uleb128 0x13
	.byte	0
	.byte	0
	.byte	0
	.section	.debug_loclists,"",@progbits
	.long	.Ldebug_loc3-.Ldebug_loc2
.Ldebug_loc2:
	.value	0x5
	.byte	0x8
	.byte	0
	.long	0
.Ldebug_loc0:
.LVUS1:
	.uleb128 0
	.uleb128 .LVU15
	.uleb128 .LVU15
	.uleb128 .LVU71
	.uleb128 .LVU71
	.uleb128 .LVU619
	.uleb128 .LVU619
	.uleb128 .LVU631
	.uleb128 .LVU631
	.uleb128 .LVU637
	.uleb128 .LVU637
	.uleb128 .LVU714
	.uleb128 .LVU714
	.uleb128 .LVU875
	.uleb128 .LVU875
	.uleb128 .LVU876
	.uleb128 .LVU876
	.uleb128 0
	.uleb128 0
	.uleb128 .LVU881
	.uleb128 .LVU881
	.uleb128 .LVU884
	.uleb128 .LVU884
	.uleb128 .LVU944
	.uleb128 .LVU944
	.uleb128 .LVU946
	.uleb128 .LVU946
	.uleb128 0
.LLST1:
	.byte	0x6
	.quad	.LVL0
	.byte	0x4
	.uleb128 .LVL0-.LVL0
	.uleb128 .LVL4-.LVL0
	.uleb128 0x1
	.byte	0x54
	.byte	0x4
	.uleb128 .LVL4-.LVL0
	.uleb128 .LVL14-.LVL0
	.uleb128 0x1
	.byte	0x56
	.byte	0x4
	.uleb128 .LVL14-.LVL0
	.uleb128 .LVL129-.LVL0
	.uleb128 0x4
	.byte	0xa3
	.uleb128 0x1
	.byte	0x54
	.byte	0x9f
	.byte	0x4
	.uleb128 .LVL129-.LVL0
	.uleb128 .LVL131-.LVL0
	.uleb128 0x1
	.byte	0x56
	.byte	0x4
	.uleb128 .LVL131-.LVL0
	.uleb128 .LVL133-.LVL0
	.uleb128 0x4
	.byte	0xa3
	.uleb128 0x1
	.byte	0x54
	.byte	0x9f
	.byte	0x4
	.uleb128 .LVL133-.LVL0
	.uleb128 .LVL143-.LVL0
	.uleb128 0x1
	.byte	0x56
	.byte	0x4
	.uleb128 .LVL143-.LVL0
	.uleb128 .LVL177-.LVL0
	.uleb128 0x4
	.byte	0xa3
	.uleb128 0x1
	.byte	0x54
	.byte	0x9f
	.byte	0x4
	.uleb128 .LVL177-.LVL0
	.uleb128 .LVL178-.LVL0
	.uleb128 0x1
	.byte	0x56
	.byte	0x4
	.uleb128 .LVL178-.LVL0
	.uleb128 .LHOTE7-.LVL0
	.uleb128 0x4
	.byte	0xa3
	.uleb128 0x1
	.byte	0x54
	.byte	0x9f
	.byte	0x6
	.quad	.LFSB4421
	.byte	0x4
	.uleb128 .LFSB4421-.LFSB4421
	.uleb128 .LVL181-.LFSB4421
	.uleb128 0x4
	.byte	0xa3
	.uleb128 0x1
	.byte	0x54
	.byte	0x9f
	.byte	0x4
	.uleb128 .LVL181-.LFSB4421
	.uleb128 .LVL183-.LFSB4421
	.uleb128 0x1
	.byte	0x56
	.byte	0x4
	.uleb128 .LVL183-.LFSB4421
	.uleb128 .LVL198-.LFSB4421
	.uleb128 0x4
	.byte	0xa3
	.uleb128 0x1
	.byte	0x54
	.byte	0x9f
	.byte	0x4
	.uleb128 .LVL198-.LFSB4421
	.uleb128 .LVL199-.LFSB4421
	.uleb128 0x1
	.byte	0x56
	.byte	0x4
	.uleb128 .LVL199-.LFSB4421
	.uleb128 .LFE4421-.LFSB4421
	.uleb128 0x4
	.byte	0xa3
	.uleb128 0x1
	.byte	0x54
	.byte	0x9f
	.byte	0
.LVUS2:
	.uleb128 0
	.uleb128 .LVU13
	.uleb128 .LVU13
	.uleb128 .LVU64
	.uleb128 .LVU64
	.uleb128 .LVU619
	.uleb128 .LVU619
	.uleb128 .LVU634
	.uleb128 .LVU634
	.uleb128 .LVU637
	.uleb128 .LVU637
	.uleb128 .LVU659
	.uleb128 .LVU659
	.uleb128 .LVU713
	.uleb128 .LVU713
	.uleb128 0
	.uleb128 0
	.uleb128 .LVU881
	.uleb128 .LVU881
	.uleb128 .LVU884
	.uleb128 .LVU884
	.uleb128 0
.LLST2:
	.byte	0x6
	.quad	.LVL0
	.byte	0x4
	.uleb128 .LVL0-.LVL0
	.uleb128 .LVL3-.LVL0
	.uleb128 0x1
	.byte	0x61
	.byte	0x4
	.uleb128 .LVL3-.LVL0
	.uleb128 .LVL11-.LVL0
	.uleb128 0x1
	.byte	0x65
	.byte	0x4
	.uleb128 .LVL11-.LVL0
	.uleb128 .LVL129-.LVL0
	.uleb128 0x6
	.byte	0xa3
	.uleb128 0x3
	.byte	0xa5
	.uleb128 0x11
	.uleb128 0x30
	.byte	0x9f
	.byte	0x4
	.uleb128 .LVL129-.LVL0
	.uleb128 .LVL132-.LVL0
	.uleb128 0x1
	.byte	0x65
	.byte	0x4
	.uleb128 .LVL132-.LVL0
	.uleb128 .LVL133-.LVL0
	.uleb128 0x6
	.byte	0xa3
	.uleb128 0x3
	.byte	0xa5
	.uleb128 0x11
	.uleb128 0x30
	.byte	0x9f
	.byte	0x4
	.uleb128 .LVL133-.LVL0
	.uleb128 .LVL135-1-.LVL0
	.uleb128 0x1
	.byte	0x65
	.byte	0x4
	.uleb128 .LVL135-1-.LVL0
	.uleb128 .LVL142-.LVL0
	.uleb128 0x3
	.byte	0x91
	.sleb128 -192
	.byte	0x4
	.uleb128 .LVL142-.LVL0
	.uleb128 .LHOTE7-.LVL0
	.uleb128 0x6
	.byte	0xa3
	.uleb128 0x3
	.byte	0xa5
	.uleb128 0x11
	.uleb128 0x30
	.byte	0x9f
	.byte	0x6
	.quad	.LFSB4421
	.byte	0x4
	.uleb128 .LFSB4421-.LFSB4421
	.uleb128 .LVL181-.LFSB4421
	.uleb128 0x6
	.byte	0xa3
	.uleb128 0x3
	.byte	0xa5
	.uleb128 0x11
	.uleb128 0x30
	.byte	0x9f
	.byte	0x4
	.uleb128 .LVL181-.LFSB4421
	.uleb128 .LVL183-1-.LFSB4421
	.uleb128 0x1
	.byte	0x65
	.byte	0x4
	.uleb128 .LVL183-1-.LFSB4421
	.uleb128 .LFE4421-.LFSB4421
	.uleb128 0x6
	.byte	0xa3
	.uleb128 0x3
	.byte	0xa5
	.uleb128 0x11
	.uleb128 0x30
	.byte	0x9f
	.byte	0
.LVUS3:
	.uleb128 0
	.uleb128 .LVU40
	.uleb128 .LVU40
	.uleb128 .LVU415
	.uleb128 .LVU415
	.uleb128 .LVU503
	.uleb128 .LVU503
	.uleb128 .LVU619
	.uleb128 .LVU619
	.uleb128 0
	.uleb128 0
	.uleb128 0
.LLST3:
	.byte	0x6
	.quad	.LVL0
	.byte	0x4
	.uleb128 .LVL0-.LVL0
	.uleb128 .LVL6-.LVL0
	.uleb128 0x2
	.byte	0x75
	.sleb128 0
	.byte	0x4
	.uleb128 .LVL6-.LVL0
	.uleb128 .LVL89-.LVL0
	.uleb128 0x2
	.byte	0x73
	.sleb128 0
	.byte	0x4
	.uleb128 .LVL89-.LVL0
	.uleb128 .LVL112-.LVL0
	.uleb128 0x4
	.byte	0x91
	.sleb128 -128
	.byte	0x6
	.byte	0x4
	.uleb128 .LVL112-.LVL0
	.uleb128 .LVL129-.LVL0
	.uleb128 0x3
	.byte	0xa3
	.uleb128 0x1
	.byte	0x55
	.byte	0x4
	.uleb128 .LVL129-.LVL0
	.uleb128 .LHOTE7-.LVL0
	.uleb128 0x2
	.byte	0x73
	.sleb128 0
	.byte	0x8
	.quad	.LFSB4421
	.uleb128 .LCOLDE7-.LFSB4421
	.uleb128 0x2
	.byte	0x73
	.sleb128 0
	.byte	0
.LVUS4:
	.uleb128 .LVU54
	.uleb128 .LVU71
	.uleb128 .LVU71
	.uleb128 .LVU73
	.uleb128 .LVU73
	.uleb128 .LVU74
	.uleb128 .LVU89
	.uleb128 .LVU169
	.uleb128 .LVU169
	.uleb128 .LVU182
	.uleb128 .LVU619
	.uleb128 .LVU634
	.uleb128 .LVU703
	.uleb128 .LVU715
	.uleb128 .LVU770
	.uleb128 .LVU818
	.uleb128 .LVU818
	.uleb128 .LVU820
	.uleb128 .LVU820
	.uleb128 .LVU824
	.uleb128 .LVU824
	.uleb128 .LVU833
	.uleb128 .LVU833
	.uleb128 .LVU835
	.uleb128 .LVU835
	.uleb128 .LVU838
	.uleb128 .LVU874
	.uleb128 .LVU875
	.uleb128 .LVU876
	.uleb128 0
	.uleb128 0
	.uleb128 .LVU878
	.uleb128 .LVU879
	.uleb128 .LVU881
	.uleb128 .LVU885
	.uleb128 .LVU887
	.uleb128 .LVU887
	.uleb128 .LVU905
	.uleb128 .LVU943
	.uleb128 .LVU944
.LLST4:
	.byte	0x6
	.quad	.LVL8
	.byte	0x4
	.uleb128 .LVL8-.LVL8
	.uleb128 .LVL14-.LVL8
	.uleb128 0xc
	.byte	0x30
	.byte	0x9f
	.byte	0x93
	.uleb128 0x8
	.byte	0x30
	.byte	0x9f
	.byte	0x93
	.uleb128 0x8
	.byte	0x30
	.byte	0x9f
	.byte	0x93
	.uleb128 0x8
	.byte	0x4
	.uleb128 .LVL14-.LVL8
	.uleb128 .LVL15-.LVL8
	.uleb128 0xa
	.byte	0x50
	.byte	0x93
	.uleb128 0x8
	.byte	0x50
	.byte	0x93
	.uleb128 0x8
	.byte	0x30
	.byte	0x9f
	.byte	0x93
	.uleb128 0x8
	.byte	0x4
	.uleb128 .LVL15-.LVL8
	.uleb128 .LVL16-.LVL8
	.uleb128 0xa
	.byte	0x56
	.byte	0x93
	.uleb128 0x8
	.byte	0x56
	.byte	0x93
	.uleb128 0x8
	.byte	0x30
	.byte	0x9f
	.byte	0x93
	.uleb128 0x8
	.byte	0x4
	.uleb128 .LVL19-.LVL8
	.uleb128 .LVL42-.LVL8
	.uleb128 0x7
	.byte	0x91
	.sleb128 -216
	.byte	0x93
	.uleb128 0x8
	.byte	0x93
	.uleb128 0x10
	.byte	0x4
	.uleb128 .LVL42-.LVL8
	.uleb128 .LVL43-.LVL8
	.uleb128 0x7
	.byte	0x91
	.sleb128 -216
	.byte	0x93
	.uleb128 0x8
	.byte	0x93
	.uleb128 0x10
	.byte	0x4
	.uleb128 .LVL129-.LVL8
	.uleb128 .LVL132-.LVL8
	.uleb128 0xc
	.byte	0x30
	.byte	0x9f
	.byte	0x93
	.uleb128 0x8
	.byte	0x30
	.byte	0x9f
	.byte	0x93
	.uleb128 0x8
	.byte	0x30
	.byte	0x9f
	.byte	0x93
	.uleb128 0x8
	.byte	0x4
	.uleb128 .LVL140-.LVL8
	.uleb128 .LVL144-.LVL8
	.uleb128 0xc
	.byte	0x30
	.byte	0x9f
	.byte	0x93
	.uleb128 0x8
	.byte	0x30
	.byte	0x9f
	.byte	0x93
	.uleb128 0x8
	.byte	0x30
	.byte	0x9f
	.byte	0x93
	.uleb128 0x8
	.byte	0x4
	.uleb128 .LVL151-.LVL8
	.uleb128 .LVL160-.LVL8
	.uleb128 0x7
	.byte	0x91
	.sleb128 -216
	.byte	0x93
	.uleb128 0x8
	.byte	0x93
	.uleb128 0x10
	.byte	0x4
	.uleb128 .LVL160-.LVL8
	.uleb128 .LVL161-.LVL8
	.uleb128 0x13
	.byte	0x91
	.sleb128 -216
	.byte	0x93
	.uleb128 0x8
	.byte	0x91
	.sleb128 -136
	.byte	0x6
	.byte	0x76
	.sleb128 0
	.byte	0x22
	.byte	0x23
	.uleb128 0x30
	.byte	0x9f
	.byte	0x93
	.uleb128 0x8
	.byte	0x93
	.uleb128 0x8
	.byte	0x4
	.uleb128 .LVL161-.LVL8
	.uleb128 .LVL162-.LVL8
	.uleb128 0xa
	.byte	0x91
	.sleb128 -216
	.byte	0x93
	.uleb128 0x8
	.byte	0x56
	.byte	0x93
	.uleb128 0x8
	.byte	0x93
	.uleb128 0x8
	.byte	0x4
	.uleb128 .LVL162-.LVL8
	.uleb128 .LVL165-.LVL8
	.uleb128 0x7
	.byte	0x93
	.uleb128 0x8
	.byte	0x56
	.byte	0x93
	.uleb128 0x8
	.byte	0x93
	.uleb128 0x8
	.byte	0x4
	.uleb128 .LVL165-.LVL8
	.uleb128 .LVL166-.LVL8
	.uleb128 0x14
	.byte	0x91
	.sleb128 -136
	.byte	0x93
	.uleb128 0x8
	.byte	0x56
	.byte	0x93
	.uleb128 0x8
	.byte	0x91
	.sleb128 -136
	.byte	0x6
	.byte	0x91
	.sleb128 -128
	.byte	0x6
	.byte	0x22
	.byte	0x9f
	.byte	0x93
	.uleb128 0x8
	.byte	0x4
	.uleb128 .LVL166-.LVL8
	.uleb128 .LVL168-.LVL8
	.uleb128 0xb
	.byte	0x91
	.sleb128 -136
	.byte	0x93
	.uleb128 0x8
	.byte	0x56
	.byte	0x93
	.uleb128 0x8
	.byte	0x50
	.byte	0x93
	.uleb128 0x8
	.byte	0x4
	.uleb128 .LVL176-.LVL8
	.uleb128 .LVL177-.LVL8
	.uleb128 0x7
	.byte	0x91
	.sleb128 -216
	.byte	0x93
	.uleb128 0x8
	.byte	0x93
	.uleb128 0x10
	.byte	0x4
	.uleb128 .LVL178-.LVL8
	.uleb128 .LHOTE7-.LVL8
	.uleb128 0x7
	.byte	0x91
	.sleb128 -216
	.byte	0x93
	.uleb128 0x8
	.byte	0x93
	.uleb128 0x10
	.byte	0x6
	.quad	.LFSB4421
	.byte	0x4
	.uleb128 .LFSB4421-.LFSB4421
	.uleb128 .LVL179-.LFSB4421
	.uleb128 0x7
	.byte	0x91
	.sleb128 -216
	.byte	0x93
	.uleb128 0x8
	.byte	0x93
	.uleb128 0x10
	.byte	0x4
	.uleb128 .LVL180-.LFSB4421
	.uleb128 .LVL181-.LFSB4421
	.uleb128 0x7
	.byte	0x91
	.sleb128 -216
	.byte	0x93
	.uleb128 0x8
	.byte	0x93
	.uleb128 0x10
	.byte	0x4
	.uleb128 .LVL184-.LFSB4421
	.uleb128 .LVL185-.LFSB4421
	.uleb128 0x7
	.byte	0x91
	.sleb128 -216
	.byte	0x93
	.uleb128 0x8
	.byte	0x93
	.uleb128 0x10
	.byte	0x4
	.uleb128 .LVL185-.LFSB4421
	.uleb128 .LVL187-.LFSB4421
	.uleb128 0x7
	.byte	0x91
	.sleb128 -216
	.byte	0x93
	.uleb128 0x8
	.byte	0x93
	.uleb128 0x10
	.byte	0x4
	.uleb128 .LVL196-.LFSB4421
	.uleb128 .LVL198-.LFSB4421
	.uleb128 0x7
	.byte	0x91
	.sleb128 -216
	.byte	0x93
	.uleb128 0x8
	.byte	0x93
	.uleb128 0x10
	.byte	0
.LVUS117:
	.uleb128 .LVU89
	.uleb128 .LVU161
	.uleb128 .LVU770
	.uleb128 .LVU791
	.uleb128 .LVU791
	.uleb128 .LVU838
	.uleb128 .LVU874
	.uleb128 .LVU875
	.uleb128 .LVU879
	.uleb128 .LVU881
.LLST117:
	.byte	0x6
	.quad	.LVL19
	.byte	0x4
	.uleb128 .LVL19-.LVL19
	.uleb128 .LVL40-.LVL19
	.uleb128 0x1
	.byte	0x52
	.byte	0x4
	.uleb128 .LVL151-.LVL19
	.uleb128 .LVL155-1-.LVL19
	.uleb128 0x1
	.byte	0x52
	.byte	0x4
	.uleb128 .LVL155-1-.LVL19
	.uleb128 .LVL168-.LVL19
	.uleb128 0x3
	.byte	0x91
	.sleb128 -80
	.byte	0x4
	.uleb128 .LVL176-.LVL19
	.uleb128 .LVL177-.LVL19
	.uleb128 0x3
	.byte	0x91
	.sleb128 -80
	.byte	0x8
	.quad	.LVL180
	.uleb128 .LVL181-1-.LVL180
	.uleb128 0x1
	.byte	0x52
	.byte	0
.LVUS118:
	.uleb128 .LVU78
	.uleb128 .LVU619
	.uleb128 .LVU623
	.uleb128 .LVU631
	.uleb128 .LVU631
	.uleb128 .LVU637
	.uleb128 .LVU715
	.uleb128 .LVU875
	.uleb128 .LVU876
	.uleb128 0
	.uleb128 0
	.uleb128 .LVU881
	.uleb128 .LVU884
	.uleb128 .LVU905
	.uleb128 .LVU925
	.uleb128 .LVU944
	.uleb128 .LVU947
	.uleb128 0
.LLST118:
	.byte	0x6
	.quad	.LVL17
	.byte	0x4
	.uleb128 .LVL17-.LVL17
	.uleb128 .LVL129-.LVL17
	.uleb128 0x4
	.byte	0xa3
	.uleb128 0x1
	.byte	0x54
	.byte	0x9f
	.byte	0x4
	.uleb128 .LVL130-.LVL17
	.uleb128 .LVL131-.LVL17
	.uleb128 0x1
	.byte	0x56
	.byte	0x4
	.uleb128 .LVL131-.LVL17
	.uleb128 .LVL133-.LVL17
	.uleb128 0x4
	.byte	0xa3
	.uleb128 0x1
	.byte	0x54
	.byte	0x9f
	.byte	0x4
	.uleb128 .LVL144-.LVL17
	.uleb128 .LVL177-.LVL17
	.uleb128 0x4
	.byte	0xa3
	.uleb128 0x1
	.byte	0x54
	.byte	0x9f
	.byte	0x4
	.uleb128 .LVL178-.LVL17
	.uleb128 .LHOTE7-.LVL17
	.uleb128 0x4
	.byte	0xa3
	.uleb128 0x1
	.byte	0x54
	.byte	0x9f
	.byte	0x6
	.quad	.LFSB4421
	.byte	0x4
	.uleb128 .LFSB4421-.LFSB4421
	.uleb128 .LVL181-.LFSB4421
	.uleb128 0x4
	.byte	0xa3
	.uleb128 0x1
	.byte	0x54
	.byte	0x9f
	.byte	0x4
	.uleb128 .LVL183-.LFSB4421
	.uleb128 .LVL187-.LFSB4421
	.uleb128 0x4
	.byte	0xa3
	.uleb128 0x1
	.byte	0x54
	.byte	0x9f
	.byte	0x4
	.uleb128 .LVL191-.LFSB4421
	.uleb128 .LVL198-.LFSB4421
	.uleb128 0x4
	.byte	0xa3
	.uleb128 0x1
	.byte	0x54
	.byte	0x9f
	.byte	0x4
	.uleb128 .LVL201-.LFSB4421
	.uleb128 .LFE4421-.LFSB4421
	.uleb128 0x4
	.byte	0xa3
	.uleb128 0x1
	.byte	0x54
	.byte	0x9f
	.byte	0
.LVUS126:
	.uleb128 .LVU91
	.uleb128 .LVU161
	.uleb128 .LVU770
	.uleb128 .LVU791
	.uleb128 .LVU879
	.uleb128 .LVU881
.LLST126:
	.byte	0x6
	.quad	.LVL20
	.byte	0x4
	.uleb128 .LVL20-.LVL20
	.uleb128 .LVL40-.LVL20
	.uleb128 0x1
	.byte	0x64
	.byte	0x4
	.uleb128 .LVL151-.LVL20
	.uleb128 .LVL155-1-.LVL20
	.uleb128 0x1
	.byte	0x64
	.byte	0x8
	.quad	.LVL180
	.uleb128 .LVL181-1-.LVL180
	.uleb128 0x1
	.byte	0x64
	.byte	0
.LVUS127:
	.uleb128 .LVU95
	.uleb128 .LVU149
	.uleb128 .LVU149
	.uleb128 .LVU161
	.uleb128 .LVU770
	.uleb128 .LVU791
	.uleb128 .LVU879
	.uleb128 .LVU881
.LLST127:
	.byte	0x6
	.quad	.LVL21
	.byte	0x4
	.uleb128 .LVL21-.LVL21
	.uleb128 .LVL36-.LVL21
	.uleb128 0x1
	.byte	0x63
	.byte	0x4
	.uleb128 .LVL36-.LVL21
	.uleb128 .LVL40-.LVL21
	.uleb128 0xa
	.byte	0xa5
	.uleb128 0x15
	.uleb128 0x30
	.byte	0x72
	.sleb128 44
	.byte	0xa6
	.byte	0x4
	.uleb128 0x30
	.byte	0x1e
	.byte	0x9f
	.byte	0x4
	.uleb128 .LVL151-.LVL21
	.uleb128 .LVL155-1-.LVL21
	.uleb128 0xa
	.byte	0xa5
	.uleb128 0x15
	.uleb128 0x30
	.byte	0x72
	.sleb128 44
	.byte	0xa6
	.byte	0x4
	.uleb128 0x30
	.byte	0x1e
	.byte	0x9f
	.byte	0x8
	.quad	.LVL180
	.uleb128 .LVL181-1-.LVL180
	.uleb128 0xa
	.byte	0xa5
	.uleb128 0x15
	.uleb128 0x30
	.byte	0x72
	.sleb128 44
	.byte	0xa6
	.byte	0x4
	.uleb128 0x30
	.byte	0x1e
	.byte	0x9f
	.byte	0
.LVUS128:
	.uleb128 .LVU102
	.uleb128 .LVU108
	.uleb128 .LVU108
	.uleb128 .LVU111
	.uleb128 .LVU111
	.uleb128 .LVU112
	.uleb128 .LVU112
	.uleb128 .LVU113
	.uleb128 .LVU113
	.uleb128 .LVU114
	.uleb128 .LVU114
	.uleb128 .LVU119
	.uleb128 .LVU119
	.uleb128 .LVU124
	.uleb128 .LVU124
	.uleb128 .LVU141
	.uleb128 .LVU141
	.uleb128 .LVU142
	.uleb128 .LVU142
	.uleb128 .LVU144
	.uleb128 .LVU144
	.uleb128 .LVU145
	.uleb128 .LVU145
	.uleb128 .LVU147
	.uleb128 .LVU147
	.uleb128 .LVU148
	.uleb128 .LVU148
	.uleb128 .LVU149
	.uleb128 .LVU149
	.uleb128 .LVU152
	.uleb128 .LVU152
	.uleb128 .LVU161
	.uleb128 .LVU770
	.uleb128 .LVU791
	.uleb128 .LVU791
	.uleb128 .LVU816
	.uleb128 .LVU816
	.uleb128 .LVU838
	.uleb128 .LVU874
	.uleb128 .LVU875
	.uleb128 .LVU879
	.uleb128 .LVU881
	.uleb128 .LVU881
	.uleb128 .LVU881
	.uleb128 .LVU943
	.uleb128 .LVU944
.LLST128:
	.byte	0x6
	.quad	.LVL23
	.byte	0x4
	.uleb128 .LVL23-.LVL23
	.uleb128 .LVL25-.LVL23
	.uleb128 0x5
	.byte	0x59
	.byte	0x93
	.uleb128 0x4
	.byte	0x93
	.uleb128 0x2c
	.byte	0x4
	.uleb128 .LVL25-.LVL23
	.uleb128 .LVL25-.LVL23
	.uleb128 0x8
	.byte	0x59
	.byte	0x93
	.uleb128 0x4
	.byte	0x58
	.byte	0x93
	.uleb128 0x4
	.byte	0x93
	.uleb128 0x28
	.byte	0x4
	.uleb128 .LVL25-.LVL23
	.uleb128 .LVL25-.LVL23
	.uleb128 0x2a
	.byte	0x59
	.byte	0x93
	.uleb128 0x4
	.byte	0x58
	.byte	0x93
	.uleb128 0x4
	.byte	0xa5
	.uleb128 0x11
	.uleb128 0x30
	.byte	0xa4
	.uleb128 0x30
	.byte	0x4
	.long	0x3f800000
	.byte	0x22
	.byte	0xa5
	.uleb128 0x14
	.uleb128 0x30
	.byte	0x1c
	.byte	0xa5
	.uleb128 0x12
	.uleb128 0x30
	.byte	0xa4
	.uleb128 0x30
	.byte	0x4
	.long	0x3f800000
	.byte	0x22
	.byte	0xa5
	.uleb128 0x13
	.uleb128 0x30
	.byte	0x1c
	.byte	0x1e
	.byte	0x9f
	.byte	0x93
	.uleb128 0x4
	.byte	0x93
	.uleb128 0x24
	.byte	0x4
	.uleb128 .LVL25-.LVL23
	.uleb128 .LVL25-.LVL23
	.uleb128 0x44
	.byte	0x59
	.byte	0x93
	.uleb128 0x4
	.byte	0x58
	.byte	0x93
	.uleb128 0x4
	.byte	0xa5
	.uleb128 0x11
	.uleb128 0x30
	.byte	0xa4
	.uleb128 0x30
	.byte	0x4
	.long	0x3f800000
	.byte	0x22
	.byte	0xa5
	.uleb128 0x14
	.uleb128 0x30
	.byte	0x1c
	.byte	0xa5
	.uleb128 0x12
	.uleb128 0x30
	.byte	0xa4
	.uleb128 0x30
	.byte	0x4
	.long	0x3f800000
	.byte	0x22
	.byte	0xa5
	.uleb128 0x13
	.uleb128 0x30
	.byte	0x1c
	.byte	0x1e
	.byte	0x9f
	.byte	0x93
	.uleb128 0x4
	.byte	0xa5
	.uleb128 0x12
	.uleb128 0x30
	.byte	0xa4
	.uleb128 0x30
	.byte	0x4
	.long	0x3f800000
	.byte	0x22
	.byte	0xa5
	.uleb128 0x13
	.uleb128 0x30
	.byte	0x1c
	.byte	0xa5
	.uleb128 0x14
	.uleb128 0x30
	.byte	0xa5
	.uleb128 0x11
	.uleb128 0x30
	.byte	0x1c
	.byte	0x1e
	.byte	0x9f
	.byte	0x93
	.uleb128 0x4
	.byte	0x93
	.uleb128 0x20
	.byte	0x4
	.uleb128 .LVL25-.LVL23
	.uleb128 .LVL25-.LVL23
	.uleb128 0x5e
	.byte	0x59
	.byte	0x93
	.uleb128 0x4
	.byte	0x58
	.byte	0x93
	.uleb128 0x4
	.byte	0xa5
	.uleb128 0x11
	.uleb128 0x30
	.byte	0xa4
	.uleb128 0x30
	.byte	0x4
	.long	0x3f800000
	.byte	0x22
	.byte	0xa5
	.uleb128 0x14
	.uleb128 0x30
	.byte	0x1c
	.byte	0xa5
	.uleb128 0x12
	.uleb128 0x30
	.byte	0xa4
	.uleb128 0x30
	.byte	0x4
	.long	0x3f800000
	.byte	0x22
	.byte	0xa5
	.uleb128 0x13
	.uleb128 0x30
	.byte	0x1c
	.byte	0x1e
	.byte	0x9f
	.byte	0x93
	.uleb128 0x4
	.byte	0xa5
	.uleb128 0x12
	.uleb128 0x30
	.byte	0xa4
	.uleb128 0x30
	.byte	0x4
	.long	0x3f800000
	.byte	0x22
	.byte	0xa5
	.uleb128 0x13
	.uleb128 0x30
	.byte	0x1c
	.byte	0xa5
	.uleb128 0x14
	.uleb128 0x30
	.byte	0xa5
	.uleb128 0x11
	.uleb128 0x30
	.byte	0x1c
	.byte	0x1e
	.byte	0x9f
	.byte	0x93
	.uleb128 0x4
	.byte	0xa5
	.uleb128 0x11
	.uleb128 0x30
	.byte	0xa4
	.uleb128 0x30
	.byte	0x4
	.long	0x3f800000
	.byte	0x22
	.byte	0xa5
	.uleb128 0x14
	.uleb128 0x30
	.byte	0x1c
	.byte	0xa5
	.uleb128 0x13
	.uleb128 0x30
	.byte	0xa5
	.uleb128 0x12
	.uleb128 0x30
	.byte	0x1c
	.byte	0x1e
	.byte	0x9f
	.byte	0x93
	.uleb128 0x4
	.byte	0x93
	.uleb128 0x1c
	.byte	0x4
	.uleb128 .LVL25-.LVL23
	.uleb128 .LVL26-.LVL23
	.uleb128 0x70
	.byte	0x59
	.byte	0x93
	.uleb128 0x4
	.byte	0x58
	.byte	0x93
	.uleb128 0x4
	.byte	0xa5
	.uleb128 0x11
	.uleb128 0x30
	.byte	0xa4
	.uleb128 0x30
	.byte	0x4
	.long	0x3f800000
	.byte	0x22
	.byte	0xa5
	.uleb128 0x14
	.uleb128 0x30
	.byte	0x1c
	.byte	0xa5
	.uleb128 0x12
	.uleb128 0x30
	.byte	0xa4
	.uleb128 0x30
	.byte	0x4
	.long	0x3f800000
	.byte	0x22
	.byte	0xa5
	.uleb128 0x13
	.uleb128 0x30
	.byte	0x1c
	.byte	0x1e
	.byte	0x9f
	.byte	0x93
	.uleb128 0x4
	.byte	0xa5
	.uleb128 0x12
	.uleb128 0x30
	.byte	0xa4
	.uleb128 0x30
	.byte	0x4
	.long	0x3f800000
	.byte	0x22
	.byte	0xa5
	.uleb128 0x13
	.uleb128 0x30
	.byte	0x1c
	.byte	0xa5
	.uleb128 0x14
	.uleb128 0x30
	.byte	0xa5
	.uleb128 0x11
	.uleb128 0x30
	.byte	0x1c
	.byte	0x1e
	.byte	0x9f
	.byte	0x93
	.uleb128 0x4
	.byte	0xa5
	.uleb128 0x11
	.uleb128 0x30
	.byte	0xa4
	.uleb128 0x30
	.byte	0x4
	.long	0x3f800000
	.byte	0x22
	.byte	0xa5
	.uleb128 0x14
	.uleb128 0x30
	.byte	0x1c
	.byte	0xa5
	.uleb128 0x13
	.uleb128 0x30
	.byte	0xa5
	.uleb128 0x12
	.uleb128 0x30
	.byte	0x1c
	.byte	0x1e
	.byte	0x9f
	.byte	0x93
	.uleb128 0x4
	.byte	0xa5
	.uleb128 0x14
	.uleb128 0x30
	.byte	0xa5
	.uleb128 0x11
	.uleb128 0x30
	.byte	0x1c
	.byte	0xa5
	.uleb128 0x13
	.uleb128 0x30
	.byte	0xa5
	.uleb128 0x12
	.uleb128 0x30
	.byte	0x1c
	.byte	0x1e
	.byte	0x9f
	.byte	0x93
	.uleb128 0x4
	.byte	0x93
	.uleb128 0x18
	.byte	0x4
	.uleb128 .LVL26-.LVL23
	.uleb128 .LVL27-.LVL23
	.uleb128 0x73
	.byte	0x59
	.byte	0x93
	.uleb128 0x4
	.byte	0x58
	.byte	0x93
	.uleb128 0x4
	.byte	0xa5
	.uleb128 0x11
	.uleb128 0x30
	.byte	0xa4
	.uleb128 0x30
	.byte	0x4
	.long	0x3f800000
	.byte	0x22
	.byte	0xa5
	.uleb128 0x14
	.uleb128 0x30
	.byte	0x1c
	.byte	0xa5
	.uleb128 0x12
	.uleb128 0x30
	.byte	0xa4
	.uleb128 0x30
	.byte	0x4
	.long	0x3f800000
	.byte	0x22
	.byte	0xa5
	.uleb128 0x13
	.uleb128 0x30
	.byte	0x1c
	.byte	0x1e
	.byte	0x9f
	.byte	0x93
	.uleb128 0x4
	.byte	0xa5
	.uleb128 0x12
	.uleb128 0x30
	.byte	0xa4
	.uleb128 0x30
	.byte	0x4
	.long	0x3f800000
	.byte	0x22
	.byte	0xa5
	.uleb128 0x13
	.uleb128 0x30
	.byte	0x1c
	.byte	0xa5
	.uleb128 0x14
	.uleb128 0x30
	.byte	0xa5
	.uleb128 0x11
	.uleb128 0x30
	.byte	0x1c
	.byte	0x1e
	.byte	0x9f
	.byte	0x93
	.uleb128 0x4
	.byte	0xa5
	.uleb128 0x11
	.uleb128 0x30
	.byte	0xa4
	.uleb128 0x30
	.byte	0x4
	.long	0x3f800000
	.byte	0x22
	.byte	0xa5
	.uleb128 0x14
	.uleb128 0x30
	.byte	0x1c
	.byte	0xa5
	.uleb128 0x13
	.uleb128 0x30
	.byte	0xa5
	.uleb128 0x12
	.uleb128 0x30
	.byte	0x1c
	.byte	0x1e
	.byte	0x9f
	.byte	0x93
	.uleb128 0x4
	.byte	0xa5
	.uleb128 0x14
	.uleb128 0x30
	.byte	0xa5
	.uleb128 0x11
	.uleb128 0x30
	.byte	0x1c
	.byte	0xa5
	.uleb128 0x13
	.uleb128 0x30
	.byte	0xa5
	.uleb128 0x12
	.uleb128 0x30
	.byte	0x1c
	.byte	0x1e
	.byte	0x9f
	.byte	0x93
	.uleb128 0x4
	.byte	0x54
	.byte	0x93
	.uleb128 0x4
	.byte	0x93
	.uleb128 0x14
	.byte	0x4
	.uleb128 .LVL27-.LVL23
	.uleb128 .LVL30-.LVL23
	.uleb128 0x76
	.byte	0x59
	.byte	0x93
	.uleb128 0x4
	.byte	0x58
	.byte	0x93
	.uleb128 0x4
	.byte	0xa5
	.uleb128 0x11
	.uleb128 0x30
	.byte	0xa4
	.uleb128 0x30
	.byte	0x4
	.long	0x3f800000
	.byte	0x22
	.byte	0xa5
	.uleb128 0x14
	.uleb128 0x30
	.byte	0x1c
	.byte	0xa5
	.uleb128 0x12
	.uleb128 0x30
	.byte	0xa4
	.uleb128 0x30
	.byte	0x4
	.long	0x3f800000
	.byte	0x22
	.byte	0xa5
	.uleb128 0x13
	.uleb128 0x30
	.byte	0x1c
	.byte	0x1e
	.byte	0x9f
	.byte	0x93
	.uleb128 0x4
	.byte	0xa5
	.uleb128 0x12
	.uleb128 0x30
	.byte	0xa4
	.uleb128 0x30
	.byte	0x4
	.long	0x3f800000
	.byte	0x22
	.byte	0xa5
	.uleb128 0x13
	.uleb128 0x30
	.byte	0x1c
	.byte	0xa5
	.uleb128 0x14
	.uleb128 0x30
	.byte	0xa5
	.uleb128 0x11
	.uleb128 0x30
	.byte	0x1c
	.byte	0x1e
	.byte	0x9f
	.byte	0x93
	.uleb128 0x4
	.byte	0xa5
	.uleb128 0x11
	.uleb128 0x30
	.byte	0xa4
	.uleb128 0x30
	.byte	0x4
	.long	0x3f800000
	.byte	0x22
	.byte	0xa5
	.uleb128 0x14
	.uleb128 0x30
	.byte	0x1c
	.byte	0xa5
	.uleb128 0x13
	.uleb128 0x30
	.byte	0xa5
	.uleb128 0x12
	.uleb128 0x30
	.byte	0x1c
	.byte	0x1e
	.byte	0x9f
	.byte	0x93
	.uleb128 0x4
	.byte	0xa5
	.uleb128 0x14
	.uleb128 0x30
	.byte	0xa5
	.uleb128 0x11
	.uleb128 0x30
	.byte	0x1c
	.byte	0xa5
	.uleb128 0x13
	.uleb128 0x30
	.byte	0xa5
	.uleb128 0x12
	.uleb128 0x30
	.byte	0x1c
	.byte	0x1e
	.byte	0x9f
	.byte	0x93
	.uleb128 0x4
	.byte	0x54
	.byte	0x93
	.uleb128 0x4
	.byte	0x5d
	.byte	0x93
	.uleb128 0x4
	.byte	0x93
	.uleb128 0x10
	.byte	0x4
	.uleb128 .LVL30-.LVL23
	.uleb128 .LVL31-.LVL23
	.uleb128 0x6e
	.byte	0x59
	.byte	0x93
	.uleb128 0x4
	.byte	0x58
	.byte	0x93
	.uleb128 0x4
	.byte	0xa5
	.uleb128 0x11
	.uleb128 0x30
	.byte	0xa4
	.uleb128 0x30
	.byte	0x4
	.long	0x3f800000
	.byte	0x22
	.byte	0xa5
	.uleb128 0x14
	.uleb128 0x30
	.byte	0x1c
	.byte	0xa5
	.uleb128 0x12
	.uleb128 0x30
	.byte	0xa4
	.uleb128 0x30
	.byte	0x4
	.long	0x3f800000
	.byte	0x22
	.byte	0xa5
	.uleb128 0x13
	.uleb128 0x30
	.byte	0x1c
	.byte	0x1e
	.byte	0x9f
	.byte	0x93
	.uleb128 0x4
	.byte	0xa5
	.uleb128 0x12
	.uleb128 0x30
	.byte	0xa4
	.uleb128 0x30
	.byte	0x4
	.long	0x3f800000
	.byte	0x22
	.byte	0xa5
	.uleb128 0x13
	.uleb128 0x30
	.byte	0x1c
	.byte	0xa5
	.uleb128 0x14
	.uleb128 0x30
	.byte	0xa5
	.uleb128 0x11
	.uleb128 0x30
	.byte	0x1c
	.byte	0x1e
	.byte	0x9f
	.byte	0x93
	.uleb128 0x4
	.byte	0xa5
	.uleb128 0x11
	.uleb128 0x30
	.byte	0xa4
	.uleb128 0x30
	.byte	0x4
	.long	0x3f800000
	.byte	0x22
	.byte	0xa5
	.uleb128 0x14
	.uleb128 0x30
	.byte	0x1c
	.byte	0xa5
	.uleb128 0x17
	.uleb128 0x30
	.byte	0x1e
	.byte	0x9f
	.byte	0x93
	.uleb128 0x4
	.byte	0xa5
	.uleb128 0x14
	.uleb128 0x30
	.byte	0xa5
	.uleb128 0x11
	.uleb128 0x30
	.byte	0x1c
	.byte	0xa5
	.uleb128 0x17
	.uleb128 0x30
	.byte	0x1e
	.byte	0x9f
	.byte	0x93
	.uleb128 0x4
	.byte	0x54
	.byte	0x93
	.uleb128 0x4
	.byte	0x5d
	.byte	0x93
	.uleb128 0x4
	.byte	0x93
	.uleb128 0x10
	.byte	0x4
	.uleb128 .LVL31-.LVL23
	.uleb128 .LVL32-.LVL23
	.uleb128 0x66
	.byte	0x59
	.byte	0x93
	.uleb128 0x4
	.byte	0x58
	.byte	0x93
	.uleb128 0x4
	.byte	0xa5
	.uleb128 0x11
	.uleb128 0x30
	.byte	0xa4
	.uleb128 0x30
	.byte	0x4
	.long	0x3f800000
	.byte	0x22
	.byte	0xa5
	.uleb128 0x14
	.uleb128 0x30
	.byte	0x1c
	.byte	0xa5
	.uleb128 0x12
	.uleb128 0x30
	.byte	0xa4
	.uleb128 0x30
	.byte	0x4
	.long	0x3f800000
	.byte	0x22
	.byte	0xa5
	.uleb128 0x13
	.uleb128 0x30
	.byte	0x1c
	.byte	0x1e
	.byte	0x9f
	.byte	0x93
	.uleb128 0x4
	.byte	0xa5
	.uleb128 0x12
	.uleb128 0x30
	.byte	0xa4
	.uleb128 0x30
	.byte	0x4
	.long	0x3f800000
	.byte	0x22
	.byte	0xa5
	.uleb128 0x13
	.uleb128 0x30
	.byte	0x1c
	.byte	0xa5
	.uleb128 0x16
	.uleb128 0x30
	.byte	0x1e
	.byte	0x9f
	.byte	0x93
	.uleb128 0x4
	.byte	0xa5
	.uleb128 0x11
	.uleb128 0x30
	.byte	0xa4
	.uleb128 0x30
	.byte	0x4
	.long	0x3f800000
	.byte	0x22
	.byte	0xa5
	.uleb128 0x14
	.uleb128 0x30
	.byte	0x1c
	.byte	0xa5
	.uleb128 0x17
	.uleb128 0x30
	.byte	0x1e
	.byte	0x9f
	.byte	0x93
	.uleb128 0x4
	.byte	0xa5
	.uleb128 0x16
	.uleb128 0x30
	.byte	0xa5
	.uleb128 0x17
	.uleb128 0x30
	.byte	0x1e
	.byte	0x9f
	.byte	0x93
	.uleb128 0x4
	.byte	0x54
	.byte	0x93
	.uleb128 0x4
	.byte	0x5d
	.byte	0x93
	.uleb128 0x4
	.byte	0x93
	.uleb128 0x10
	.byte	0x4
	.uleb128 .LVL32-.LVL23
	.uleb128 .LVL33-.LVL23
	.uleb128 0x56
	.byte	0x59
	.byte	0x93
	.uleb128 0x4
	.byte	0x58
	.byte	0x93
	.uleb128 0x4
	.byte	0xa5
	.uleb128 0x11
	.uleb128 0x30
	.byte	0xa5
	.uleb128 0x14
	.uleb128 0x30
	.byte	0x1c
	.byte	0xa5
	.uleb128 0x12
	.uleb128 0x30
	.byte	0xa4
	.uleb128 0x30
	.byte	0x4
	.long	0x3f800000
	.byte	0x22
	.byte	0xa5
	.uleb128 0x13
	.uleb128 0x30
	.byte	0x1c
	.byte	0x1e
	.byte	0x9f
	.byte	0x93
	.uleb128 0x4
	.byte	0xa5
	.uleb128 0x12
	.uleb128 0x30
	.byte	0xa4
	.uleb128 0x30
	.byte	0x4
	.long	0x3f800000
	.byte	0x22
	.byte	0xa5
	.uleb128 0x13
	.uleb128 0x30
	.byte	0x1c
	.byte	0xa5
	.uleb128 0x16
	.uleb128 0x30
	.byte	0x1e
	.byte	0x9f
	.byte	0x93
	.uleb128 0x4
	.byte	0xa5
	.uleb128 0x11
	.uleb128 0x30
	.byte	0xa5
	.uleb128 0x14
	.uleb128 0x30
	.byte	0x1c
	.byte	0xa5
	.uleb128 0x17
	.uleb128 0x30
	.byte	0x1e
	.byte	0x9f
	.byte	0x93
	.uleb128 0x4
	.byte	0xa5
	.uleb128 0x16
	.uleb128 0x30
	.byte	0xa5
	.uleb128 0x17
	.uleb128 0x30
	.byte	0x1e
	.byte	0x9f
	.byte	0x93
	.uleb128 0x4
	.byte	0x54
	.byte	0x93
	.uleb128 0x4
	.byte	0x5d
	.byte	0x93
	.uleb128 0x4
	.byte	0x93
	.uleb128 0x10
	.byte	0x4
	.uleb128 .LVL33-.LVL23
	.uleb128 .LVL34-.LVL23
	.uleb128 0x46
	.byte	0x59
	.byte	0x93
	.uleb128 0x4
	.byte	0x58
	.byte	0x93
	.uleb128 0x4
	.byte	0xa5
	.uleb128 0x11
	.uleb128 0x30
	.byte	0xa5
	.uleb128 0x14
	.uleb128 0x30
	.byte	0x1c
	.byte	0xa5
	.uleb128 0x12
	.uleb128 0x30
	.byte	0xa5
	.uleb128 0x13
	.uleb128 0x30
	.byte	0x1c
	.byte	0x1e
	.byte	0x9f
	.byte	0x93
	.uleb128 0x4
	.byte	0xa5
	.uleb128 0x12
	.uleb128 0x30
	.byte	0xa5
	.uleb128 0x13
	.uleb128 0x30
	.byte	0x1c
	.byte	0xa5
	.uleb128 0x16
	.uleb128 0x30
	.byte	0x1e
	.byte	0x9f
	.byte	0x93
	.uleb128 0x4
	.byte	0xa5
	.uleb128 0x11
	.uleb128 0x30
	.byte	0xa5
	.uleb128 0x14
	.uleb128 0x30
	.byte	0x1c
	.byte	0xa5
	.uleb128 0x17
	.uleb128 0x30
	.byte	0x1e
	.byte	0x9f
	.byte	0x93
	.uleb128 0x4
	.byte	0xa5
	.uleb128 0x16
	.uleb128 0x30
	.byte	0xa5
	.uleb128 0x17
	.uleb128 0x30
	.byte	0x1e
	.byte	0x9f
	.byte	0x93
	.uleb128 0x4
	.byte	0x54
	.byte	0x93
	.uleb128 0x4
	.byte	0x5d
	.byte	0x93
	.uleb128 0x4
	.byte	0x93
	.uleb128 0x10
	.byte	0x4
	.uleb128 .LVL34-.LVL23
	.uleb128 .LVL35-.LVL23
	.uleb128 0x2a
	.byte	0x59
	.byte	0x93
	.uleb128 0x4
	.byte	0x58
	.byte	0x93
	.uleb128 0x4
	.byte	0x93
	.uleb128 0x4
	.byte	0xa5
	.uleb128 0x12
	.uleb128 0x30
	.byte	0xa5
	.uleb128 0x13
	.uleb128 0x30
	.byte	0x1c
	.byte	0xa5
	.uleb128 0x16
	.uleb128 0x30
	.byte	0x1e
	.byte	0x9f
	.byte	0x93
	.uleb128 0x4
	.byte	0x93
	.uleb128 0x4
	.byte	0xa5
	.uleb128 0x16
	.uleb128 0x30
	.byte	0xa5
	.uleb128 0x17
	.uleb128 0x30
	.byte	0x1e
	.byte	0x9f
	.byte	0x93
	.uleb128 0x4
	.byte	0x54
	.byte	0x93
	.uleb128 0x4
	.byte	0x5d
	.byte	0x93
	.uleb128 0x4
	.byte	0x93
	.uleb128 0x10
	.byte	0x4
	.uleb128 .LVL35-.LVL23
	.uleb128 .LVL36-.LVL23
	.uleb128 0x1a
	.byte	0x59
	.byte	0x93
	.uleb128 0x4
	.byte	0x58
	.byte	0x93
	.uleb128 0x4
	.byte	0x93
	.uleb128 0xc
	.byte	0xa5
	.uleb128 0x16
	.uleb128 0x30
	.byte	0xa5
	.uleb128 0x17
	.uleb128 0x30
	.byte	0x1e
	.byte	0x9f
	.byte	0x93
	.uleb128 0x4
	.byte	0x54
	.byte	0x93
	.uleb128 0x4
	.byte	0x5d
	.byte	0x93
	.uleb128 0x4
	.byte	0x93
	.uleb128 0x10
	.byte	0x4
	.uleb128 .LVL36-.LVL23
	.uleb128 .LVL37-.LVL23
	.uleb128 0x1a
	.byte	0x59
	.byte	0x93
	.uleb128 0x4
	.byte	0x58
	.byte	0x93
	.uleb128 0x4
	.byte	0x93
	.uleb128 0xc
	.byte	0xa5
	.uleb128 0x16
	.uleb128 0x30
	.byte	0xa5
	.uleb128 0x17
	.uleb128 0x30
	.byte	0x1e
	.byte	0x9f
	.byte	0x93
	.uleb128 0x4
	.byte	0x54
	.byte	0x93
	.uleb128 0x4
	.byte	0x5d
	.byte	0x93
	.uleb128 0x4
	.byte	0x93
	.uleb128 0x10
	.byte	0x4
	.uleb128 .LVL37-.LVL23
	.uleb128 .LVL40-.LVL23
	.uleb128 0x10
	.byte	0x59
	.byte	0x93
	.uleb128 0x4
	.byte	0x58
	.byte	0x93
	.uleb128 0x4
	.byte	0x93
	.uleb128 0x10
	.byte	0x54
	.byte	0x93
	.uleb128 0x4
	.byte	0x5d
	.byte	0x93
	.uleb128 0x4
	.byte	0x93
	.uleb128 0x10
	.byte	0x4
	.uleb128 .LVL151-.LVL23
	.uleb128 .LVL155-1-.LVL23
	.uleb128 0x10
	.byte	0x59
	.byte	0x93
	.uleb128 0x4
	.byte	0x58
	.byte	0x93
	.uleb128 0x4
	.byte	0x93
	.uleb128 0x10
	.byte	0x54
	.byte	0x93
	.uleb128 0x4
	.byte	0x5d
	.byte	0x93
	.uleb128 0x4
	.byte	0x93
	.uleb128 0x10
	.byte	0x4
	.uleb128 .LVL155-1-.LVL23
	.uleb128 .LVL158-.LVL23
	.uleb128 0x16
	.byte	0x91
	.sleb128 -108
	.byte	0x93
	.uleb128 0x4
	.byte	0x91
	.sleb128 -104
	.byte	0x93
	.uleb128 0x4
	.byte	0x93
	.uleb128 0x10
	.byte	0x91
	.sleb128 -84
	.byte	0x93
	.uleb128 0x4
	.byte	0x5d
	.byte	0x93
	.uleb128 0x4
	.byte	0x93
	.uleb128 0x10
	.byte	0x4
	.uleb128 .LVL158-.LVL23
	.uleb128 .LVL168-.LVL23
	.uleb128 0x13
	.byte	0x93
	.uleb128 0x4
	.byte	0x91
	.sleb128 -104
	.byte	0x93
	.uleb128 0x4
	.byte	0x93
	.uleb128 0x10
	.byte	0x91
	.sleb128 -84
	.byte	0x93
	.uleb128 0x4
	.byte	0x5d
	.byte	0x93
	.uleb128 0x4
	.byte	0x93
	.uleb128 0x10
	.byte	0x4
	.uleb128 .LVL176-.LVL23
	.uleb128 .LVL177-.LVL23
	.uleb128 0x16
	.byte	0x91
	.sleb128 -108
	.byte	0x93
	.uleb128 0x4
	.byte	0x91
	.sleb128 -104
	.byte	0x93
	.uleb128 0x4
	.byte	0x93
	.uleb128 0x10
	.byte	0x91
	.sleb128 -84
	.byte	0x93
	.uleb128 0x4
	.byte	0x5d
	.byte	0x93
	.uleb128 0x4
	.byte	0x93
	.uleb128 0x10
	.byte	0x6
	.quad	.LVL180
	.byte	0x4
	.uleb128 .LVL180-.LVL180
	.uleb128 .LVL181-1-.LVL180
	.uleb128 0x10
	.byte	0x59
	.byte	0x93
	.uleb128 0x4
	.byte	0x58
	.byte	0x93
	.uleb128 0x4
	.byte	0x93
	.uleb128 0x10
	.byte	0x54
	.byte	0x93
	.uleb128 0x4
	.byte	0x5d
	.byte	0x93
	.uleb128 0x4
	.byte	0x93
	.uleb128 0x10
	.byte	0x4
	.uleb128 .LVL181-1-.LVL180
	.uleb128 .LVL181-.LVL180
	.uleb128 0x7
	.byte	0x93
	.uleb128 0x1c
	.byte	0x5d
	.byte	0x93
	.uleb128 0x4
	.byte	0x93
	.uleb128 0x10
	.byte	0x4
	.uleb128 .LVL196-.LVL180
	.uleb128 .LVL198-.LVL180
	.uleb128 0x7
	.byte	0x93
	.uleb128 0x1c
	.byte	0x5d
	.byte	0x93
	.uleb128 0x4
	.byte	0x93
	.uleb128 0x10
	.byte	0
.LVUS129:
	.uleb128 .LVU109
	.uleb128 .LVU142
	.uleb128 .LVU142
	.uleb128 .LVU152
.LLST129:
	.byte	0x6
	.quad	.LVL25
	.byte	0x4
	.uleb128 .LVL25-.LVL25
	.uleb128 .LVL31-.LVL25
	.uleb128 0x8
	.byte	0xa5
	.uleb128 0x14
	.uleb128 0x30
	.byte	0xa5
	.uleb128 0x11
	.uleb128 0x30
	.byte	0x1c
	.byte	0x9f
	.byte	0x4
	.uleb128 .LVL31-.LVL25
	.uleb128 .LVL37-.LVL25
	.uleb128 0x1
	.byte	0x66
	.byte	0
.LVUS130:
	.uleb128 .LVU110
	.uleb128 .LVU141
	.uleb128 .LVU141
	.uleb128 .LVU161
	.uleb128 .LVU770
	.uleb128 .LVU791
	.uleb128 .LVU879
	.uleb128 .LVU881
.LLST130:
	.byte	0x6
	.quad	.LVL25
	.byte	0x4
	.uleb128 .LVL25-.LVL25
	.uleb128 .LVL30-.LVL25
	.uleb128 0x8
	.byte	0xa5
	.uleb128 0x13
	.uleb128 0x30
	.byte	0xa5
	.uleb128 0x12
	.uleb128 0x30
	.byte	0x1c
	.byte	0x9f
	.byte	0x4
	.uleb128 .LVL30-.LVL25
	.uleb128 .LVL40-.LVL25
	.uleb128 0x1
	.byte	0x67
	.byte	0x4
	.uleb128 .LVL151-.LVL25
	.uleb128 .LVL155-1-.LVL25
	.uleb128 0x1
	.byte	0x67
	.byte	0x8
	.quad	.LVL180
	.uleb128 .LVL181-1-.LVL180
	.uleb128 0x1
	.byte	0x67
	.byte	0
.LVUS131:
	.uleb128 .LVU97
	.uleb128 .LVU100
.LLST131:
	.byte	0x8
	.quad	.LVL21
	.uleb128 .LVL22-.LVL21
	.uleb128 0x1
	.byte	0x64
	.byte	0
.LVUS132:
	.uleb128 .LVU103
	.uleb128 .LVU106
.LLST132:
	.byte	0x8
	.quad	.LVL23
	.uleb128 .LVL24-.LVL23
	.uleb128 0x1
	.byte	0x63
	.byte	0
.LVUS134:
	.uleb128 .LVU120
	.uleb128 .LVU124
.LLST134:
	.byte	0x8
	.quad	.LVL26
	.uleb128 .LVL27-.LVL26
	.uleb128 0x6
	.byte	0xa0
	.long	.Ldebug_info0+51207
	.sleb128 0
	.byte	0
.LVUS136:
	.uleb128 .LVU129
	.uleb128 .LVU133
.LLST136:
	.byte	0x8
	.quad	.LVL28
	.uleb128 .LVL29-.LVL28
	.uleb128 0x6
	.byte	0xa0
	.long	.Ldebug_info0+51216
	.sleb128 0
	.byte	0
.LVUS138:
	.uleb128 .LVU135
	.uleb128 .LVU136
.LLST138:
	.byte	0x8
	.quad	.LVL29
	.uleb128 .LVL29-.LVL29
	.uleb128 0x3
	.byte	0x72
	.sleb128 16
	.byte	0x9f
	.byte	0
.LVUS140:
	.uleb128 .LVU153
	.uleb128 .LVU161
	.uleb128 .LVU770
	.uleb128 .LVU838
	.uleb128 .LVU874
	.uleb128 .LVU875
	.uleb128 .LVU879
	.uleb128 .LVU881
	.uleb128 .LVU943
	.uleb128 .LVU944
.LLST140:
	.byte	0x6
	.quad	.LVL37
	.byte	0x4
	.uleb128 .LVL37-.LVL37
	.uleb128 .LVL40-.LVL37
	.uleb128 0x6
	.byte	0xa0
	.long	.Ldebug_info0+51244
	.sleb128 0
	.byte	0x4
	.uleb128 .LVL151-.LVL37
	.uleb128 .LVL168-.LVL37
	.uleb128 0x6
	.byte	0xa0
	.long	.Ldebug_info0+51244
	.sleb128 0
	.byte	0x4
	.uleb128 .LVL176-.LVL37
	.uleb128 .LVL177-.LVL37
	.uleb128 0x6
	.byte	0xa0
	.long	.Ldebug_info0+51244
	.sleb128 0
	.byte	0x6
	.quad	.LVL180
	.byte	0x4
	.uleb128 .LVL180-.LVL180
	.uleb128 .LVL181-.LVL180
	.uleb128 0x6
	.byte	0xa0
	.long	.Ldebug_info0+51244
	.sleb128 0
	.byte	0x4
	.uleb128 .LVL196-.LVL180
	.uleb128 .LVL198-.LVL180
	.uleb128 0x6
	.byte	0xa0
	.long	.Ldebug_info0+51244
	.sleb128 0
	.byte	0
.LVUS141:
	.uleb128 .LVU153
	.uleb128 .LVU161
	.uleb128 .LVU770
	.uleb128 .LVU838
	.uleb128 .LVU874
	.uleb128 .LVU875
	.uleb128 .LVU879
	.uleb128 .LVU881
	.uleb128 .LVU943
	.uleb128 .LVU944
.LLST141:
	.byte	0x6
	.quad	.LVL37
	.byte	0x4
	.uleb128 .LVL37-.LVL37
	.uleb128 .LVL40-.LVL37
	.uleb128 0x6
	.byte	0xa0
	.long	.Ldebug_info0+51398
	.sleb128 0
	.byte	0x4
	.uleb128 .LVL151-.LVL37
	.uleb128 .LVL168-.LVL37
	.uleb128 0x6
	.byte	0xa0
	.long	.Ldebug_info0+51398
	.sleb128 0
	.byte	0x4
	.uleb128 .LVL176-.LVL37
	.uleb128 .LVL177-.LVL37
	.uleb128 0x6
	.byte	0xa0
	.long	.Ldebug_info0+51398
	.sleb128 0
	.byte	0x6
	.quad	.LVL180
	.byte	0x4
	.uleb128 .LVL180-.LVL180
	.uleb128 .LVL181-.LVL180
	.uleb128 0x6
	.byte	0xa0
	.long	.Ldebug_info0+51398
	.sleb128 0
	.byte	0x4
	.uleb128 .LVL196-.LVL180
	.uleb128 .LVL198-.LVL180
	.uleb128 0x6
	.byte	0xa0
	.long	.Ldebug_info0+51398
	.sleb128 0
	.byte	0
.LVUS143:
	.uleb128 .LVU155
	.uleb128 .LVU160
.LLST143:
	.byte	0x8
	.quad	.LVL38
	.uleb128 .LVL39-.LVL38
	.uleb128 0x6
	.byte	0xa0
	.long	.Ldebug_info0+51244
	.sleb128 0
	.byte	0
.LVUS144:
	.uleb128 .LVU155
	.uleb128 .LVU160
.LLST144:
	.byte	0x8
	.quad	.LVL38
	.uleb128 .LVL39-.LVL38
	.uleb128 0x6
	.byte	0xa0
	.long	.Ldebug_info0+51398
	.sleb128 0
	.byte	0
.LVUS145:
	.uleb128 .LVU156
	.uleb128 .LVU160
.LLST145:
	.byte	0x8
	.quad	.LVL38
	.uleb128 .LVL39-.LVL38
	.uleb128 0x6
	.byte	0xa0
	.long	.Ldebug_info0+51244
	.sleb128 0
	.byte	0
.LVUS146:
	.uleb128 .LVU156
	.uleb128 .LVU160
.LLST146:
	.byte	0x8
	.quad	.LVL38
	.uleb128 .LVL39-.LVL38
	.uleb128 0x6
	.byte	0xa0
	.long	.Ldebug_info0+51398
	.sleb128 0
	.byte	0
.LVUS148:
	.uleb128 .LVU770
	.uleb128 .LVU837
	.uleb128 .LVU874
	.uleb128 .LVU875
	.uleb128 .LVU879
	.uleb128 .LVU881
	.uleb128 .LVU943
	.uleb128 .LVU944
.LLST148:
	.byte	0x6
	.quad	.LVL151
	.byte	0x4
	.uleb128 .LVL151-.LVL151
	.uleb128 .LVL167-.LVL151
	.uleb128 0x6
	.byte	0xa0
	.long	.Ldebug_info0+51244
	.sleb128 0
	.byte	0x4
	.uleb128 .LVL176-.LVL151
	.uleb128 .LVL177-.LVL151
	.uleb128 0x6
	.byte	0xa0
	.long	.Ldebug_info0+51244
	.sleb128 0
	.byte	0x6
	.quad	.LVL180
	.byte	0x4
	.uleb128 .LVL180-.LVL180
	.uleb128 .LVL181-.LVL180
	.uleb128 0x6
	.byte	0xa0
	.long	.Ldebug_info0+51244
	.sleb128 0
	.byte	0x4
	.uleb128 .LVL196-.LVL180
	.uleb128 .LVL198-.LVL180
	.uleb128 0x6
	.byte	0xa0
	.long	.Ldebug_info0+51244
	.sleb128 0
	.byte	0
.LVUS149:
	.uleb128 .LVU770
	.uleb128 .LVU837
	.uleb128 .LVU874
	.uleb128 .LVU875
	.uleb128 .LVU879
	.uleb128 .LVU881
	.uleb128 .LVU943
	.uleb128 .LVU944
.LLST149:
	.byte	0x6
	.quad	.LVL151
	.byte	0x4
	.uleb128 .LVL151-.LVL151
	.uleb128 .LVL167-.LVL151
	.uleb128 0x6
	.byte	0xa0
	.long	.Ldebug_info0+51398
	.sleb128 0
	.byte	0x4
	.uleb128 .LVL176-.LVL151
	.uleb128 .LVL177-.LVL151
	.uleb128 0x6
	.byte	0xa0
	.long	.Ldebug_info0+51398
	.sleb128 0
	.byte	0x6
	.quad	.LVL180
	.byte	0x4
	.uleb128 .LVL180-.LVL180
	.uleb128 .LVL181-.LVL180
	.uleb128 0x6
	.byte	0xa0
	.long	.Ldebug_info0+51398
	.sleb128 0
	.byte	0x4
	.uleb128 .LVL196-.LVL180
	.uleb128 .LVL198-.LVL180
	.uleb128 0x6
	.byte	0xa0
	.long	.Ldebug_info0+51398
	.sleb128 0
	.byte	0
.LVUS150:
	.uleb128 .LVU784
	.uleb128 .LVU824
	.uleb128 .LVU874
	.uleb128 .LVU875
.LLST150:
	.byte	0x6
	.quad	.LVL154
	.byte	0x4
	.uleb128 .LVL154-.LVL154
	.uleb128 .LVL162-.LVL154
	.uleb128 0x3
	.byte	0x91
	.sleb128 -216
	.byte	0x4
	.uleb128 .LVL176-.LVL154
	.uleb128 .LVL177-.LVL154
	.uleb128 0x3
	.byte	0x91
	.sleb128 -216
	.byte	0
.LVUS151:
	.uleb128 .LVU818
	.uleb128 .LVU820
	.uleb128 .LVU820
	.uleb128 .LVU838
.LLST151:
	.byte	0x6
	.quad	.LVL160
	.byte	0x4
	.uleb128 .LVL160-.LVL160
	.uleb128 .LVL161-.LVL160
	.uleb128 0xa
	.byte	0x91
	.sleb128 -136
	.byte	0x6
	.byte	0x76
	.sleb128 0
	.byte	0x22
	.byte	0x23
	.uleb128 0x30
	.byte	0x9f
	.byte	0x4
	.uleb128 .LVL161-.LVL160
	.uleb128 .LVL168-.LVL160
	.uleb128 0x1
	.byte	0x56
	.byte	0
.LVUS152:
	.uleb128 .LVU784
	.uleb128 .LVU820
	.uleb128 .LVU820
	.uleb128 .LVU824
	.uleb128 .LVU874
	.uleb128 .LVU875
.LLST152:
	.byte	0x6
	.quad	.LVL154
	.byte	0x4
	.uleb128 .LVL154-.LVL154
	.uleb128 .LVL161-.LVL154
	.uleb128 0x6
	.byte	0x76
	.sleb128 0
	.byte	0x8
	.byte	0x30
	.byte	0x1b
	.byte	0x9f
	.byte	0x4
	.uleb128 .LVL161-.LVL154
	.uleb128 .LVL162-.LVL154
	.uleb128 0xd
	.byte	0x91
	.sleb128 -192
	.byte	0x6
	.byte	0x91
	.sleb128 -216
	.byte	0x6
	.byte	0x1c
	.byte	0x8
	.byte	0x30
	.byte	0x1b
	.byte	0x9f
	.byte	0x4
	.uleb128 .LVL176-.LVL154
	.uleb128 .LVL177-.LVL154
	.uleb128 0x6
	.byte	0x76
	.sleb128 0
	.byte	0x8
	.byte	0x30
	.byte	0x1b
	.byte	0x9f
	.byte	0
.LVUS153:
	.uleb128 .LVU795
	.uleb128 .LVU817
	.uleb128 .LVU817
	.uleb128 .LVU838
.LLST153:
	.byte	0x6
	.quad	.LVL156
	.byte	0x4
	.uleb128 .LVL156-.LVL156
	.uleb128 .LVL159-1-.LVL156
	.uleb128 0x1
	.byte	0x50
	.byte	0x4
	.uleb128 .LVL159-1-.LVL156
	.uleb128 .LVL168-.LVL156
	.uleb128 0x3
	.byte	0x91
	.sleb128 -136
	.byte	0
.LVUS154:
	.uleb128 .LVU795
	.uleb128 .LVU817
	.uleb128 .LVU817
	.uleb128 .LVU818
	.uleb128 .LVU818
	.uleb128 .LVU820
	.uleb128 .LVU820
	.uleb128 .LVU837
.LLST154:
	.byte	0x6
	.quad	.LVL156
	.byte	0x4
	.uleb128 .LVL156-.LVL156
	.uleb128 .LVL159-1-.LVL156
	.uleb128 0x1
	.byte	0x50
	.byte	0x4
	.uleb128 .LVL159-1-.LVL156
	.uleb128 .LVL160-.LVL156
	.uleb128 0x3
	.byte	0x91
	.sleb128 -136
	.byte	0x4
	.uleb128 .LVL160-.LVL156
	.uleb128 .LVL161-.LVL156
	.uleb128 0x8
	.byte	0x91
	.sleb128 -136
	.byte	0x6
	.byte	0x76
	.sleb128 0
	.byte	0x22
	.byte	0x9f
	.byte	0x4
	.uleb128 .LVL161-.LVL156
	.uleb128 .LVL167-.LVL156
	.uleb128 0x1
	.byte	0x56
	.byte	0
.LVUS156:
	.uleb128 .LVU772
	.uleb128 .LVU784
	.uleb128 .LVU879
	.uleb128 .LVU881
.LLST156:
	.byte	0x8
	.quad	.LVL151
	.uleb128 .LVL154-.LVL151
	.uleb128 0x6
	.byte	0xa0
	.long	.Ldebug_info0+51244
	.sleb128 0
	.byte	0x8
	.quad	.LVL180
	.uleb128 .LVL181-.LVL180
	.uleb128 0x6
	.byte	0xa0
	.long	.Ldebug_info0+51244
	.sleb128 0
	.byte	0
.LVUS157:
	.uleb128 .LVU772
	.uleb128 .LVU784
	.uleb128 .LVU879
	.uleb128 .LVU881
.LLST157:
	.byte	0x8
	.quad	.LVL151
	.uleb128 .LVL154-.LVL151
	.uleb128 0x2
	.byte	0x31
	.byte	0x9f
	.byte	0x8
	.quad	.LVL180
	.uleb128 .LVL181-.LVL180
	.uleb128 0x2
	.byte	0x31
	.byte	0x9f
	.byte	0
.LVUS158:
	.uleb128 .LVU772
	.uleb128 .LVU784
	.uleb128 .LVU879
	.uleb128 .LVU881
.LLST158:
	.byte	0x8
	.quad	.LVL151
	.uleb128 .LVL154-.LVL151
	.uleb128 0xa
	.byte	0x3
	.quad	.LC2
	.byte	0x9f
	.byte	0x8
	.quad	.LVL180
	.uleb128 .LVL181-.LVL180
	.uleb128 0xa
	.byte	0x3
	.quad	.LC2
	.byte	0x9f
	.byte	0
.LVUS159:
	.uleb128 .LVU773
	.uleb128 .LVU778
.LLST159:
	.byte	0x8
	.quad	.LVL151
	.uleb128 .LVL153-.LVL151
	.uleb128 0x6
	.byte	0xa0
	.long	.Ldebug_info0+51244
	.sleb128 0
	.byte	0
.LVUS160:
	.uleb128 .LVU777
	.uleb128 .LVU778
.LLST160:
	.byte	0x8
	.quad	.LVL152
	.uleb128 .LVL153-.LVL152
	.uleb128 0x6
	.byte	0x76
	.sleb128 0
	.byte	0x8
	.byte	0x30
	.byte	0x1b
	.byte	0x9f
	.byte	0
.LVUS162:
	.uleb128 .LVU783
	.uleb128 .LVU784
.LLST162:
	.byte	0x8
	.quad	.LVL154
	.uleb128 .LVL154-.LVL154
	.uleb128 0x6
	.byte	0xa0
	.long	.Ldebug_info0+52104
	.sleb128 0
	.byte	0
.LVUS164:
	.uleb128 .LVU784
	.uleb128 .LVU795
	.uleb128 .LVU874
	.uleb128 .LVU875
.LLST164:
	.byte	0x6
	.quad	.LVL154
	.byte	0x4
	.uleb128 .LVL154-.LVL154
	.uleb128 .LVL156-.LVL154
	.uleb128 0x6
	.byte	0xa0
	.long	.Ldebug_info0+51244
	.sleb128 0
	.byte	0x4
	.uleb128 .LVL176-.LVL154
	.uleb128 .LVL177-.LVL154
	.uleb128 0x6
	.byte	0xa0
	.long	.Ldebug_info0+51244
	.sleb128 0
	.byte	0
.LVUS166:
	.uleb128 .LVU786
	.uleb128 .LVU795
	.uleb128 .LVU874
	.uleb128 .LVU875
.LLST166:
	.byte	0x6
	.quad	.LVL154
	.byte	0x4
	.uleb128 .LVL154-.LVL154
	.uleb128 .LVL156-.LVL154
	.uleb128 0x6
	.byte	0xa0
	.long	.Ldebug_info0+51244
	.sleb128 0
	.byte	0x4
	.uleb128 .LVL176-.LVL154
	.uleb128 .LVL177-.LVL154
	.uleb128 0x6
	.byte	0xa0
	.long	.Ldebug_info0+51244
	.sleb128 0
	.byte	0
.LVUS168:
	.uleb128 .LVU788
	.uleb128 .LVU795
	.uleb128 .LVU874
	.uleb128 .LVU875
.LLST168:
	.byte	0x6
	.quad	.LVL154
	.byte	0x4
	.uleb128 .LVL154-.LVL154
	.uleb128 .LVL156-.LVL154
	.uleb128 0x2
	.byte	0x30
	.byte	0x9f
	.byte	0x4
	.uleb128 .LVL176-.LVL154
	.uleb128 .LVL177-.LVL154
	.uleb128 0x2
	.byte	0x30
	.byte	0x9f
	.byte	0
.LVUS169:
	.uleb128 .LVU788
	.uleb128 .LVU795
	.uleb128 .LVU874
	.uleb128 .LVU875
.LLST169:
	.byte	0x6
	.quad	.LVL154
	.byte	0x4
	.uleb128 .LVL154-.LVL154
	.uleb128 .LVL156-.LVL154
	.uleb128 0x6
	.byte	0xa0
	.long	.Ldebug_info0+51244
	.sleb128 0
	.byte	0x4
	.uleb128 .LVL176-.LVL154
	.uleb128 .LVL177-.LVL154
	.uleb128 0x6
	.byte	0xa0
	.long	.Ldebug_info0+51244
	.sleb128 0
	.byte	0
.LVUS172:
	.uleb128 .LVU797
	.uleb128 .LVU809
.LLST172:
	.byte	0x8
	.quad	.LVL156
	.uleb128 .LVL157-.LVL156
	.uleb128 0x6
	.byte	0xa0
	.long	.Ldebug_info0+51244
	.sleb128 0
	.byte	0
.LVUS173:
	.uleb128 .LVU797
	.uleb128 .LVU809
.LLST173:
	.byte	0x8
	.quad	.LVL156
	.uleb128 .LVL157-.LVL156
	.uleb128 0x6
	.byte	0x70
	.sleb128 0
	.byte	0x76
	.sleb128 0
	.byte	0x22
	.byte	0x9f
	.byte	0
.LVUS174:
	.uleb128 .LVU797
	.uleb128 .LVU809
.LLST174:
	.byte	0x8
	.quad	.LVL156
	.uleb128 .LVL157-.LVL156
	.uleb128 0x6
	.byte	0xa0
	.long	.Ldebug_info0+51398
	.sleb128 0
	.byte	0
.LVUS175:
	.uleb128 .LVU799
	.uleb128 .LVU809
.LLST175:
	.byte	0x8
	.quad	.LVL156
	.uleb128 .LVL157-.LVL156
	.uleb128 0x6
	.byte	0xa0
	.long	.Ldebug_info0+51244
	.sleb128 0
	.byte	0
.LVUS176:
	.uleb128 .LVU799
	.uleb128 .LVU809
.LLST176:
	.byte	0x8
	.quad	.LVL156
	.uleb128 .LVL157-.LVL156
	.uleb128 0x6
	.byte	0x70
	.sleb128 0
	.byte	0x76
	.sleb128 0
	.byte	0x22
	.byte	0x9f
	.byte	0
.LVUS177:
	.uleb128 .LVU799
	.uleb128 .LVU809
.LLST177:
	.byte	0x8
	.quad	.LVL156
	.uleb128 .LVL157-.LVL156
	.uleb128 0x6
	.byte	0xa0
	.long	.Ldebug_info0+51398
	.sleb128 0
	.byte	0
.LVUS179:
	.uleb128 .LVU809
	.uleb128 .LVU818
.LLST179:
	.byte	0x8
	.quad	.LVL157
	.uleb128 .LVL160-.LVL157
	.uleb128 0x3
	.byte	0x91
	.sleb128 -216
	.byte	0
.LVUS180:
	.uleb128 .LVU809
	.uleb128 .LVU817
	.uleb128 .LVU817
	.uleb128 .LVU818
.LLST180:
	.byte	0x6
	.quad	.LVL157
	.byte	0x4
	.uleb128 .LVL157-.LVL157
	.uleb128 .LVL159-1-.LVL157
	.uleb128 0x1
	.byte	0x50
	.byte	0x4
	.uleb128 .LVL159-1-.LVL157
	.uleb128 .LVL160-.LVL157
	.uleb128 0x3
	.byte	0x91
	.sleb128 -136
	.byte	0
.LVUS181:
	.uleb128 .LVU809
	.uleb128 .LVU818
.LLST181:
	.byte	0x8
	.quad	.LVL157
	.uleb128 .LVL160-.LVL157
	.uleb128 0x6
	.byte	0xa0
	.long	.Ldebug_info0+51244
	.sleb128 0
	.byte	0
.LVUS182:
	.uleb128 .LVU811
	.uleb128 .LVU818
.LLST182:
	.byte	0x8
	.quad	.LVL157
	.uleb128 .LVL160-.LVL157
	.uleb128 0x3
	.byte	0x91
	.sleb128 -216
	.byte	0
.LVUS183:
	.uleb128 .LVU811
	.uleb128 .LVU817
	.uleb128 .LVU817
	.uleb128 .LVU818
.LLST183:
	.byte	0x6
	.quad	.LVL157
	.byte	0x4
	.uleb128 .LVL157-.LVL157
	.uleb128 .LVL159-1-.LVL157
	.uleb128 0x1
	.byte	0x50
	.byte	0x4
	.uleb128 .LVL159-1-.LVL157
	.uleb128 .LVL160-.LVL157
	.uleb128 0x3
	.byte	0x91
	.sleb128 -136
	.byte	0
.LVUS184:
	.uleb128 .LVU811
	.uleb128 .LVU818
.LLST184:
	.byte	0x8
	.quad	.LVL157
	.uleb128 .LVL160-.LVL157
	.uleb128 0x6
	.byte	0xa0
	.long	.Ldebug_info0+51244
	.sleb128 0
	.byte	0
.LVUS185:
	.uleb128 .LVU812
	.uleb128 .LVU820
	.uleb128 .LVU820
	.uleb128 .LVU824
.LLST185:
	.byte	0x6
	.quad	.LVL157
	.byte	0x4
	.uleb128 .LVL157-.LVL157
	.uleb128 .LVL161-.LVL157
	.uleb128 0x6
	.byte	0x76
	.sleb128 0
	.byte	0x8
	.byte	0x30
	.byte	0x1b
	.byte	0x9f
	.byte	0x4
	.uleb128 .LVL161-.LVL157
	.uleb128 .LVL162-.LVL157
	.uleb128 0xd
	.byte	0x91
	.sleb128 -192
	.byte	0x6
	.byte	0x91
	.sleb128 -216
	.byte	0x6
	.byte	0x1c
	.byte	0x8
	.byte	0x30
	.byte	0x1b
	.byte	0x9f
	.byte	0
.LVUS186:
	.uleb128 .LVU795
	.uleb128 .LVU797
.LLST186:
	.byte	0x8
	.quad	.LVL156
	.uleb128 .LVL156-.LVL156
	.uleb128 0x6
	.byte	0xa0
	.long	.Ldebug_info0+52451
	.sleb128 0
	.byte	0
.LVUS187:
	.uleb128 .LVU795
	.uleb128 .LVU797
.LLST187:
	.byte	0x8
	.quad	.LVL156
	.uleb128 .LVL156-.LVL156
	.uleb128 0x1
	.byte	0x50
	.byte	0
.LVUS188:
	.uleb128 .LVU795
	.uleb128 .LVU797
.LLST188:
	.byte	0x8
	.quad	.LVL156
	.uleb128 .LVL156-.LVL156
	.uleb128 0x6
	.byte	0xa0
	.long	.Ldebug_info0+51244
	.sleb128 0
	.byte	0
.LVUS190:
	.uleb128 .LVU820
	.uleb128 .LVU833
.LLST190:
	.byte	0x8
	.quad	.LVL161
	.uleb128 .LVL165-.LVL161
	.uleb128 0x6
	.byte	0xa0
	.long	.Ldebug_info0+52451
	.sleb128 0
	.byte	0
.LVUS192:
	.uleb128 .LVU824
	.uleb128 .LVU831
.LLST192:
	.byte	0x8
	.quad	.LVL162
	.uleb128 .LVL163-1-.LVL162
	.uleb128 0x1
	.byte	0x50
	.byte	0
.LVUS194:
	.uleb128 .LVU826
	.uleb128 .LVU831
.LLST194:
	.byte	0x8
	.quad	.LVL162
	.uleb128 .LVL163-1-.LVL162
	.uleb128 0x1
	.byte	0x50
	.byte	0
.LVUS196:
	.uleb128 .LVU827
	.uleb128 .LVU831
.LLST196:
	.byte	0x8
	.quad	.LVL162
	.uleb128 .LVL163-1-.LVL162
	.uleb128 0x1
	.byte	0x50
	.byte	0
.LVUS198:
	.uleb128 .LVU828
	.uleb128 .LVU831
.LLST198:
	.byte	0x8
	.quad	.LVL162
	.uleb128 .LVL163-1-.LVL162
	.uleb128 0x1
	.byte	0x50
	.byte	0
.LVUS120:
	.uleb128 .LVU78
	.uleb128 .LVU80
	.uleb128 .LVU623
	.uleb128 .LVU625
.LLST120:
	.byte	0x8
	.quad	.LVL17
	.uleb128 .LVL17-.LVL17
	.uleb128 0x4
	.byte	0xa3
	.uleb128 0x1
	.byte	0x54
	.byte	0x9f
	.byte	0x8
	.quad	.LVL130
	.uleb128 .LVL130-.LVL130
	.uleb128 0x1
	.byte	0x56
	.byte	0
.LVUS121:
	.uleb128 .LVU79
	.uleb128 .LVU80
	.uleb128 .LVU624
	.uleb128 .LVU625
.LLST121:
	.byte	0x8
	.quad	.LVL17
	.uleb128 .LVL17-.LVL17
	.uleb128 0x4
	.byte	0xa3
	.uleb128 0x1
	.byte	0x54
	.byte	0x9f
	.byte	0x8
	.quad	.LVL130
	.uleb128 .LVL130-.LVL130
	.uleb128 0x1
	.byte	0x56
	.byte	0
.LVUS123:
	.uleb128 .LVU80
	.uleb128 .LVU83
	.uleb128 .LVU625
	.uleb128 .LVU628
.LLST123:
	.byte	0x8
	.quad	.LVL17
	.uleb128 .LVL17-.LVL17
	.uleb128 0x4
	.byte	0xa3
	.uleb128 0x1
	.byte	0x54
	.byte	0x9f
	.byte	0x8
	.quad	.LVL130
	.uleb128 .LVL130-.LVL130
	.uleb128 0x1
	.byte	0x56
	.byte	0
.LVUS124:
	.uleb128 .LVU82
	.uleb128 .LVU83
	.uleb128 .LVU627
	.uleb128 .LVU628
.LLST124:
	.byte	0x8
	.quad	.LVL17
	.uleb128 .LVL17-.LVL17
	.uleb128 0x6
	.byte	0xa3
	.uleb128 0x1
	.byte	0x54
	.byte	0x23
	.uleb128 0x8
	.byte	0x9f
	.byte	0x8
	.quad	.LVL130
	.uleb128 .LVL130-.LVL130
	.uleb128 0x3
	.byte	0x76
	.sleb128 8
	.byte	0x9f
	.byte	0
.LVUS199:
	.uleb128 .LVU163
	.uleb128 .LVU165
.LLST199:
	.byte	0x8
	.quad	.LVL40
	.uleb128 .LVL41-.LVL40
	.uleb128 0x6
	.byte	0xa0
	.long	.Ldebug_info0+51333
	.sleb128 0
	.byte	0
.LVUS304:
	.uleb128 .LVU280
	.uleb128 .LVU284
	.uleb128 .LVU284
	.uleb128 .LVU319
.LLST304:
	.byte	0x6
	.quad	.LVL58
	.byte	0x4
	.uleb128 .LVL58-.LVL58
	.uleb128 .LVL59-.LVL58
	.uleb128 0x1
	.byte	0x50
	.byte	0x4
	.uleb128 .LVL59-.LVL58
	.uleb128 .LVL66-.LVL58
	.uleb128 0x3
	.byte	0x70
	.sleb128 -48
	.byte	0x9f
	.byte	0
.LVUS305:
	.uleb128 .LVU270
	.uleb128 .LVU619
	.uleb128 .LVU715
	.uleb128 .LVU721
	.uleb128 .LVU728
	.uleb128 .LVU770
	.uleb128 .LVU838
	.uleb128 .LVU842
	.uleb128 .LVU844
	.uleb128 .LVU872
	.uleb128 .LVU878
	.uleb128 .LVU879
.LLST305:
	.byte	0x6
	.quad	.LVL56
	.byte	0x4
	.uleb128 .LVL56-.LVL56
	.uleb128 .LVL129-.LVL56
	.uleb128 0x6
	.byte	0xa0
	.long	.Ldebug_info0+51244
	.sleb128 0
	.byte	0x4
	.uleb128 .LVL144-.LVL56
	.uleb128 .LVL146-.LVL56
	.uleb128 0x6
	.byte	0xa0
	.long	.Ldebug_info0+51244
	.sleb128 0
	.byte	0x4
	.uleb128 .LVL146-.LVL56
	.uleb128 .LVL151-.LVL56
	.uleb128 0x6
	.byte	0xa0
	.long	.Ldebug_info0+51244
	.sleb128 0
	.byte	0x4
	.uleb128 .LVL168-.LVL56
	.uleb128 .LVL170-.LVL56
	.uleb128 0x6
	.byte	0xa0
	.long	.Ldebug_info0+51244
	.sleb128 0
	.byte	0x4
	.uleb128 .LVL171-.LVL56
	.uleb128 .LVL173-.LVL56
	.uleb128 0x6
	.byte	0xa0
	.long	.Ldebug_info0+51244
	.sleb128 0
	.byte	0x8
	.quad	.LVL179
	.uleb128 .LVL180-.LVL179
	.uleb128 0x6
	.byte	0xa0
	.long	.Ldebug_info0+51244
	.sleb128 0
	.byte	0
.LVUS307:
	.uleb128 .LVU270
	.uleb128 .LVU272
	.uleb128 .LVU728
	.uleb128 .LVU730
.LLST307:
	.byte	0x8
	.quad	.LVL56
	.uleb128 .LVL56-.LVL56
	.uleb128 0x6
	.byte	0xa0
	.long	.Ldebug_info0+51244
	.sleb128 0
	.byte	0x8
	.quad	.LVL146
	.uleb128 .LVL146-.LVL146
	.uleb128 0x6
	.byte	0xa0
	.long	.Ldebug_info0+51244
	.sleb128 0
	.byte	0
.LVUS308:
	.uleb128 .LVU271
	.uleb128 .LVU272
	.uleb128 .LVU729
	.uleb128 .LVU730
.LLST308:
	.byte	0x8
	.quad	.LVL56
	.uleb128 .LVL56-.LVL56
	.uleb128 0x6
	.byte	0xa0
	.long	.Ldebug_info0+51244
	.sleb128 0
	.byte	0x8
	.quad	.LVL146
	.uleb128 .LVL146-.LVL146
	.uleb128 0x6
	.byte	0xa0
	.long	.Ldebug_info0+51244
	.sleb128 0
	.byte	0
.LVUS310:
	.uleb128 .LVU272
	.uleb128 .LVU275
	.uleb128 .LVU730
	.uleb128 .LVU733
.LLST310:
	.byte	0x8
	.quad	.LVL56
	.uleb128 .LVL56-.LVL56
	.uleb128 0x6
	.byte	0xa0
	.long	.Ldebug_info0+51244
	.sleb128 0
	.byte	0x8
	.quad	.LVL146
	.uleb128 .LVL146-.LVL146
	.uleb128 0x6
	.byte	0xa0
	.long	.Ldebug_info0+51244
	.sleb128 0
	.byte	0
.LVUS311:
	.uleb128 .LVU274
	.uleb128 .LVU275
	.uleb128 .LVU732
	.uleb128 .LVU733
.LLST311:
	.byte	0x8
	.quad	.LVL56
	.uleb128 .LVL56-.LVL56
	.uleb128 0x6
	.byte	0xa0
	.long	.Ldebug_info0+51244
	.sleb128 8
	.byte	0x8
	.quad	.LVL146
	.uleb128 .LVL146-.LVL146
	.uleb128 0x6
	.byte	0xa0
	.long	.Ldebug_info0+51244
	.sleb128 8
	.byte	0
.LVUS313:
	.uleb128 .LVU313
	.uleb128 .LVU314
.LLST313:
	.byte	0x8
	.quad	.LVL64
	.uleb128 .LVL64-.LVL64
	.uleb128 0x6
	.byte	0xa0
	.long	.Ldebug_info0+53383
	.sleb128 0
	.byte	0
.LVUS314:
	.uleb128 .LVU287
	.uleb128 .LVU289
.LLST314:
	.byte	0x8
	.quad	.LVL60
	.uleb128 .LVL60-.LVL60
	.uleb128 0x6
	.byte	0x71
	.sleb128 0
	.byte	0x74
	.sleb128 0
	.byte	0x22
	.byte	0x9f
	.byte	0
.LVUS315:
	.uleb128 .LVU295
	.uleb128 .LVU297
.LLST315:
	.byte	0x8
	.quad	.LVL61
	.uleb128 .LVL61-.LVL61
	.uleb128 0x6
	.byte	0x71
	.sleb128 0
	.byte	0x72
	.sleb128 0
	.byte	0x22
	.byte	0x9f
	.byte	0
.LVUS316:
	.uleb128 .LVU301
	.uleb128 .LVU303
.LLST316:
	.byte	0x8
	.quad	.LVL62
	.uleb128 .LVL62-.LVL62
	.uleb128 0x6
	.byte	0x74
	.sleb128 0
	.byte	0x78
	.sleb128 0
	.byte	0x22
	.byte	0x9f
	.byte	0
.LVUS317:
	.uleb128 .LVU307
	.uleb128 .LVU309
.LLST317:
	.byte	0x8
	.quad	.LVL63
	.uleb128 .LVL63-.LVL63
	.uleb128 0x6
	.byte	0x72
	.sleb128 0
	.byte	0x78
	.sleb128 0
	.byte	0x22
	.byte	0x9f
	.byte	0
.LVUS322:
	.uleb128 .LVU317
	.uleb128 .LVU331
	.uleb128 .LVU331
	.uleb128 .LVU335
	.uleb128 .LVU335
	.uleb128 .LVU350
	.uleb128 .LVU737
	.uleb128 .LVU767
	.uleb128 .LVU840
	.uleb128 .LVU842
	.uleb128 .LVU844
	.uleb128 .LVU872
.LLST322:
	.byte	0x6
	.quad	.LVL65
	.byte	0x4
	.uleb128 .LVL65-.LVL65
	.uleb128 .LVL71-.LVL65
	.uleb128 0x2
	.byte	0x30
	.byte	0x9f
	.byte	0x4
	.uleb128 .LVL71-.LVL65
	.uleb128 .LVL72-.LVL65
	.uleb128 0x2
	.byte	0x31
	.byte	0x9f
	.byte	0x4
	.uleb128 .LVL72-.LVL65
	.uleb128 .LVL79-.LVL65
	.uleb128 0x1
	.byte	0x5b
	.byte	0x4
	.uleb128 .LVL147-.LVL65
	.uleb128 .LVL150-.LVL65
	.uleb128 0x2
	.byte	0x30
	.byte	0x9f
	.byte	0x4
	.uleb128 .LVL169-.LVL65
	.uleb128 .LVL170-.LVL65
	.uleb128 0x2
	.byte	0x30
	.byte	0x9f
	.byte	0x4
	.uleb128 .LVL171-.LVL65
	.uleb128 .LVL173-.LVL65
	.uleb128 0x2
	.byte	0x30
	.byte	0x9f
	.byte	0
.LVUS324:
	.uleb128 .LVU319
	.uleb128 .LVU322
	.uleb128 .LVU322
	.uleb128 .LVU335
	.uleb128 .LVU335
	.uleb128 .LVU338
	.uleb128 .LVU339
	.uleb128 .LVU350
.LLST324:
	.byte	0x6
	.quad	.LVL66
	.byte	0x4
	.uleb128 .LVL66-.LVL66
	.uleb128 .LVL67-.LVL66
	.uleb128 0x2
	.byte	0x30
	.byte	0x9f
	.byte	0x4
	.uleb128 .LVL67-.LVL66
	.uleb128 .LVL72-.LVL66
	.uleb128 0x1
	.byte	0x51
	.byte	0x4
	.uleb128 .LVL72-.LVL66
	.uleb128 .LVL73-.LVL66
	.uleb128 0x2
	.byte	0x30
	.byte	0x9f
	.byte	0x4
	.uleb128 .LVL74-.LVL66
	.uleb128 .LVL79-.LVL66
	.uleb128 0x1
	.byte	0x51
	.byte	0
.LVUS326:
	.uleb128 .LVU319
	.uleb128 .LVU322
	.uleb128 .LVU322
	.uleb128 .LVU328
	.uleb128 .LVU328
	.uleb128 .LVU329
	.uleb128 .LVU335
	.uleb128 .LVU338
	.uleb128 .LVU339
	.uleb128 .LVU346
	.uleb128 .LVU346
	.uleb128 .LVU347
.LLST326:
	.byte	0x6
	.quad	.LVL66
	.byte	0x4
	.uleb128 .LVL66-.LVL66
	.uleb128 .LVL67-.LVL66
	.uleb128 0x2
	.byte	0x30
	.byte	0x9f
	.byte	0x4
	.uleb128 .LVL67-.LVL66
	.uleb128 .LVL69-.LVL66
	.uleb128 0x1
	.byte	0x50
	.byte	0x4
	.uleb128 .LVL69-.LVL66
	.uleb128 .LVL70-.LVL66
	.uleb128 0x3
	.byte	0x70
	.sleb128 1
	.byte	0x9f
	.byte	0x4
	.uleb128 .LVL72-.LVL66
	.uleb128 .LVL73-.LVL66
	.uleb128 0x2
	.byte	0x30
	.byte	0x9f
	.byte	0x4
	.uleb128 .LVL74-.LVL66
	.uleb128 .LVL76-.LVL66
	.uleb128 0x1
	.byte	0x50
	.byte	0x4
	.uleb128 .LVL76-.LVL66
	.uleb128 .LVL77-.LVL66
	.uleb128 0x3
	.byte	0x70
	.sleb128 1
	.byte	0x9f
	.byte	0
.LVUS264:
	.uleb128 .LVU222
	.uleb128 .LVU230
	.uleb128 .LVU230
	.uleb128 .LVU243
	.uleb128 .LVU243
	.uleb128 .LVU244
	.uleb128 .LVU721
	.uleb128 .LVU723
	.uleb128 .LVU884
	.uleb128 .LVU885
	.uleb128 .LVU885
	.uleb128 .LVU885
.LLST264:
	.byte	0x6
	.quad	.LVL48
	.byte	0x4
	.uleb128 .LVL48-.LVL48
	.uleb128 .LVL49-.LVL48
	.uleb128 0x1
	.byte	0x50
	.byte	0x4
	.uleb128 .LVL49-.LVL48
	.uleb128 .LVL51-.LVL48
	.uleb128 0x1
	.byte	0x5a
	.byte	0x4
	.uleb128 .LVL51-.LVL48
	.uleb128 .LVL52-.LVL48
	.uleb128 0xa
	.byte	0x91
	.sleb128 -160
	.byte	0x6
	.byte	0x23
	.uleb128 0x1
	.byte	0x7e
	.sleb128 0
	.byte	0x1e
	.byte	0x9f
	.byte	0x4
	.uleb128 .LVL146-.LVL48
	.uleb128 .LVL146-.LVL48
	.uleb128 0x1
	.byte	0x5a
	.byte	0x6
	.quad	.LVL183
	.byte	0x4
	.uleb128 .LVL183-.LVL183
	.uleb128 .LVL184-1-.LVL183
	.uleb128 0x1
	.byte	0x5a
	.byte	0x4
	.uleb128 .LVL184-1-.LVL183
	.uleb128 .LVL184-.LVL183
	.uleb128 0xa
	.byte	0x91
	.sleb128 -160
	.byte	0x6
	.byte	0x23
	.uleb128 0x1
	.byte	0x7e
	.sleb128 0
	.byte	0x1e
	.byte	0x9f
	.byte	0
.LVUS268:
	.uleb128 .LVU223
	.uleb128 .LVU230
	.uleb128 .LVU230
	.uleb128 .LVU231
	.uleb128 .LVU884
	.uleb128 .LVU885
	.uleb128 .LVU885
	.uleb128 .LVU885
.LLST268:
	.byte	0x6
	.quad	.LVL48
	.byte	0x4
	.uleb128 .LVL48-.LVL48
	.uleb128 .LVL49-.LVL48
	.uleb128 0x1
	.byte	0x50
	.byte	0x4
	.uleb128 .LVL49-.LVL48
	.uleb128 .LVL50-.LVL48
	.uleb128 0x1
	.byte	0x5a
	.byte	0x6
	.quad	.LVL183
	.byte	0x4
	.uleb128 .LVL183-.LVL183
	.uleb128 .LVL184-1-.LVL183
	.uleb128 0x1
	.byte	0x5a
	.byte	0x4
	.uleb128 .LVL184-1-.LVL183
	.uleb128 .LVL184-.LVL183
	.uleb128 0xa
	.byte	0x91
	.sleb128 -160
	.byte	0x6
	.byte	0x23
	.uleb128 0x1
	.byte	0x7e
	.sleb128 0
	.byte	0x1e
	.byte	0x9f
	.byte	0
.LVUS273:
	.uleb128 .LVU231
	.uleb128 .LVU243
	.uleb128 .LVU243
	.uleb128 .LVU244
.LLST273:
	.byte	0x6
	.quad	.LVL50
	.byte	0x4
	.uleb128 .LVL50-.LVL50
	.uleb128 .LVL51-.LVL50
	.uleb128 0x1
	.byte	0x5a
	.byte	0x4
	.uleb128 .LVL51-.LVL50
	.uleb128 .LVL52-.LVL50
	.uleb128 0xa
	.byte	0x91
	.sleb128 -160
	.byte	0x6
	.byte	0x23
	.uleb128 0x1
	.byte	0x7e
	.sleb128 0
	.byte	0x1e
	.byte	0x9f
	.byte	0
.LVUS279:
	.uleb128 .LVU238
	.uleb128 .LVU243
	.uleb128 .LVU243
	.uleb128 .LVU244
.LLST279:
	.byte	0x6
	.quad	.LVL50
	.byte	0x4
	.uleb128 .LVL50-.LVL50
	.uleb128 .LVL51-.LVL50
	.uleb128 0x1
	.byte	0x5a
	.byte	0x4
	.uleb128 .LVL51-.LVL50
	.uleb128 .LVL52-.LVL50
	.uleb128 0xa
	.byte	0x91
	.sleb128 -160
	.byte	0x6
	.byte	0x23
	.uleb128 0x1
	.byte	0x7e
	.sleb128 0
	.byte	0x1e
	.byte	0x9f
	.byte	0
.LVUS281:
	.uleb128 .LVU240
	.uleb128 .LVU243
	.uleb128 .LVU243
	.uleb128 .LVU244
.LLST281:
	.byte	0x6
	.quad	.LVL50
	.byte	0x4
	.uleb128 .LVL50-.LVL50
	.uleb128 .LVL51-.LVL50
	.uleb128 0x1
	.byte	0x5a
	.byte	0x4
	.uleb128 .LVL51-.LVL50
	.uleb128 .LVL52-.LVL50
	.uleb128 0xa
	.byte	0x91
	.sleb128 -160
	.byte	0x6
	.byte	0x23
	.uleb128 0x1
	.byte	0x7e
	.sleb128 0
	.byte	0x1e
	.byte	0x9f
	.byte	0
.LVUS284:
	.uleb128 .LVU247
	.uleb128 .LVU250
.LLST284:
	.byte	0x8
	.quad	.LVL52
	.uleb128 .LVL54-.LVL52
	.uleb128 0x2
	.byte	0x30
	.byte	0x9f
	.byte	0
.LVUS286:
	.uleb128 .LVU250
	.uleb128 .LVU260
	.uleb128 .LVU260
	.uleb128 .LVU263
.LLST286:
	.byte	0x6
	.quad	.LVL54
	.byte	0x4
	.uleb128 .LVL54-.LVL54
	.uleb128 .LVL55-1-.LVL54
	.uleb128 0x1
	.byte	0x51
	.byte	0x4
	.uleb128 .LVL55-1-.LVL54
	.uleb128 .LVL56-.LVL54
	.uleb128 0x3
	.byte	0x91
	.sleb128 -208
	.byte	0
.LVUS288:
	.uleb128 .LVU252
	.uleb128 .LVU260
.LLST288:
	.byte	0x8
	.quad	.LVL54
	.uleb128 .LVL55-1-.LVL54
	.uleb128 0x1
	.byte	0x50
	.byte	0
.LVUS289:
	.uleb128 .LVU252
	.uleb128 .LVU260
	.uleb128 .LVU260
	.uleb128 .LVU263
.LLST289:
	.byte	0x6
	.quad	.LVL54
	.byte	0x4
	.uleb128 .LVL54-.LVL54
	.uleb128 .LVL55-1-.LVL54
	.uleb128 0x1
	.byte	0x51
	.byte	0x4
	.uleb128 .LVL55-1-.LVL54
	.uleb128 .LVL56-.LVL54
	.uleb128 0x3
	.byte	0x91
	.sleb128 -208
	.byte	0
.LVUS291:
	.uleb128 .LVU253
	.uleb128 .LVU260
.LLST291:
	.byte	0x8
	.quad	.LVL54
	.uleb128 .LVL55-1-.LVL54
	.uleb128 0x1
	.byte	0x50
	.byte	0
.LVUS292:
	.uleb128 .LVU253
	.uleb128 .LVU260
	.uleb128 .LVU260
	.uleb128 .LVU263
.LLST292:
	.byte	0x6
	.quad	.LVL54
	.byte	0x4
	.uleb128 .LVL54-.LVL54
	.uleb128 .LVL55-1-.LVL54
	.uleb128 0x1
	.byte	0x51
	.byte	0x4
	.uleb128 .LVL55-1-.LVL54
	.uleb128 .LVL56-.LVL54
	.uleb128 0x3
	.byte	0x91
	.sleb128 -208
	.byte	0
.LVUS295:
	.uleb128 .LVU254
	.uleb128 .LVU260
.LLST295:
	.byte	0x8
	.quad	.LVL54
	.uleb128 .LVL55-1-.LVL54
	.uleb128 0x1
	.byte	0x50
	.byte	0
.LVUS296:
	.uleb128 .LVU254
	.uleb128 .LVU259
	.uleb128 .LVU259
	.uleb128 .LVU260
	.uleb128 .LVU260
	.uleb128 .LVU263
.LLST296:
	.byte	0x6
	.quad	.LVL54
	.byte	0x4
	.uleb128 .LVL54-.LVL54
	.uleb128 .LVL54-.LVL54
	.uleb128 0x1
	.byte	0x51
	.byte	0x4
	.uleb128 .LVL54-.LVL54
	.uleb128 .LVL55-1-.LVL54
	.uleb128 0x3
	.byte	0x71
	.sleb128 -1
	.byte	0x9f
	.byte	0x4
	.uleb128 .LVL55-1-.LVL54
	.uleb128 .LVL56-.LVL54
	.uleb128 0x7
	.byte	0x91
	.sleb128 -208
	.byte	0x6
	.byte	0x31
	.byte	0x1c
	.byte	0x9f
	.byte	0
.LVUS299:
	.uleb128 .LVU255
	.uleb128 .LVU256
.LLST299:
	.byte	0x8
	.quad	.LVL54
	.uleb128 .LVL54-.LVL54
	.uleb128 0x6
	.byte	0xa0
	.long	.Ldebug_info0+54937
	.sleb128 0
	.byte	0
.LVUS300:
	.uleb128 .LVU255
	.uleb128 .LVU256
.LLST300:
	.byte	0x8
	.quad	.LVL54
	.uleb128 .LVL54-.LVL54
	.uleb128 0x6
	.byte	0xa0
	.long	.Ldebug_info0+54906
	.sleb128 0
	.byte	0
.LVUS302:
	.uleb128 .LVU263
	.uleb128 .LVU265
	.uleb128 .LVU721
	.uleb128 .LVU723
.LLST302:
	.byte	0x8
	.quad	.LVL56
	.uleb128 .LVL56-.LVL56
	.uleb128 0x6
	.byte	0xa0
	.long	.Ldebug_info0+54937
	.sleb128 0
	.byte	0x8
	.quad	.LVL146
	.uleb128 .LVL146-.LVL146
	.uleb128 0x6
	.byte	0xa0
	.long	.Ldebug_info0+54937
	.sleb128 0
	.byte	0
.LVUS329:
	.uleb128 .LVU357
	.uleb128 .LVU359
.LLST329:
	.byte	0x8
	.quad	.LVL79
	.uleb128 .LVL80-.LVL79
	.uleb128 0x5
	.byte	0x7a
	.sleb128 0
	.byte	0x34
	.byte	0x1b
	.byte	0x9f
	.byte	0
.LVUS330:
	.uleb128 .LVU357
	.uleb128 .LVU359
.LLST330:
	.byte	0x8
	.quad	.LVL79
	.uleb128 .LVL80-.LVL79
	.uleb128 0x1
	.byte	0x55
	.byte	0
.LVUS332:
	.uleb128 .LVU360
	.uleb128 .LVU364
.LLST332:
	.byte	0x8
	.quad	.LVL81
	.uleb128 .LVL82-1-.LVL81
	.uleb128 0x1
	.byte	0x55
	.byte	0
.LVUS334:
	.uleb128 .LVU362
	.uleb128 .LVU364
.LLST334:
	.byte	0x8
	.quad	.LVL81
	.uleb128 .LVL82-1-.LVL81
	.uleb128 0x1
	.byte	0x55
	.byte	0
.LVUS384:
	.uleb128 .LVU415
	.uleb128 .LVU500
	.uleb128 .LVU500
	.uleb128 .LVU503
.LLST384:
	.byte	0x6
	.quad	.LVL89
	.byte	0x4
	.uleb128 .LVL89-.LVL89
	.uleb128 .LVL110-.LVL89
	.uleb128 0x1
	.byte	0x50
	.byte	0x4
	.uleb128 .LVL110-.LVL89
	.uleb128 .LVL112-.LVL89
	.uleb128 0x3
	.byte	0x70
	.sleb128 -48
	.byte	0x9f
	.byte	0
.LVUS385:
	.uleb128 .LVU417
	.uleb128 .LVU503
.LLST385:
	.byte	0x8
	.quad	.LVL90
	.uleb128 .LVL112-.LVL90
	.uleb128 0x1
	.byte	0x5b
	.byte	0
.LVUS387:
	.uleb128 .LVU449
	.uleb128 .LVU455
	.uleb128 .LVU455
	.uleb128 .LVU471
	.uleb128 .LVU486
	.uleb128 .LVU496
.LLST387:
	.byte	0x6
	.quad	.LVL92
	.byte	0x4
	.uleb128 .LVL92-.LVL92
	.uleb128 .LVL94-.LVL92
	.uleb128 0x1
	.byte	0x6a
	.byte	0x4
	.uleb128 .LVL94-.LVL92
	.uleb128 .LVL101-.LVL92
	.uleb128 0x1
	.byte	0x64
	.byte	0x4
	.uleb128 .LVL107-.LVL92
	.uleb128 .LVL109-.LVL92
	.uleb128 0x1
	.byte	0x6a
	.byte	0
.LVUS388:
	.uleb128 .LVU449
	.uleb128 .LVU459
	.uleb128 .LVU459
	.uleb128 .LVU476
	.uleb128 .LVU487
	.uleb128 .LVU496
.LLST388:
	.byte	0x6
	.quad	.LVL92
	.byte	0x4
	.uleb128 .LVL92-.LVL92
	.uleb128 .LVL96-.LVL92
	.uleb128 0x1
	.byte	0x69
	.byte	0x4
	.uleb128 .LVL96-.LVL92
	.uleb128 .LVL103-.LVL92
	.uleb128 0x1
	.byte	0x63
	.byte	0x4
	.uleb128 .LVL107-.LVL92
	.uleb128 .LVL109-.LVL92
	.uleb128 0x1
	.byte	0x69
	.byte	0
.LVUS389:
	.uleb128 .LVU449
	.uleb128 .LVU461
	.uleb128 .LVU461
	.uleb128 .LVU481
	.uleb128 .LVU488
	.uleb128 .LVU496
.LLST389:
	.byte	0x6
	.quad	.LVL92
	.byte	0x4
	.uleb128 .LVL92-.LVL92
	.uleb128 .LVL97-.LVL92
	.uleb128 0x1
	.byte	0x68
	.byte	0x4
	.uleb128 .LVL97-.LVL92
	.uleb128 .LVL105-.LVL92
	.uleb128 0x1
	.byte	0x62
	.byte	0x4
	.uleb128 .LVL107-.LVL92
	.uleb128 .LVL109-.LVL92
	.uleb128 0x1
	.byte	0x68
	.byte	0
.LVUS390:
	.uleb128 .LVU449
	.uleb128 .LVU463
	.uleb128 .LVU463
	.uleb128 .LVU472
	.uleb128 .LVU489
	.uleb128 .LVU496
.LLST390:
	.byte	0x6
	.quad	.LVL92
	.byte	0x4
	.uleb128 .LVL92-.LVL92
	.uleb128 .LVL98-.LVL92
	.uleb128 0x1
	.byte	0x67
	.byte	0x4
	.uleb128 .LVL98-.LVL92
	.uleb128 .LVL102-.LVL92
	.uleb128 0x1
	.byte	0x6d
	.byte	0x4
	.uleb128 .LVL107-.LVL92
	.uleb128 .LVL109-.LVL92
	.uleb128 0x1
	.byte	0x67
	.byte	0
.LVUS391:
	.uleb128 .LVU449
	.uleb128 .LVU465
	.uleb128 .LVU465
	.uleb128 .LVU479
	.uleb128 .LVU490
	.uleb128 .LVU496
.LLST391:
	.byte	0x6
	.quad	.LVL92
	.byte	0x4
	.uleb128 .LVL92-.LVL92
	.uleb128 .LVL99-.LVL92
	.uleb128 0x1
	.byte	0x66
	.byte	0x4
	.uleb128 .LVL99-.LVL92
	.uleb128 .LVL104-.LVL92
	.uleb128 0x1
	.byte	0x6c
	.byte	0x4
	.uleb128 .LVL107-.LVL92
	.uleb128 .LVL109-.LVL92
	.uleb128 0x1
	.byte	0x66
	.byte	0
.LVUS392:
	.uleb128 .LVU449
	.uleb128 .LVU469
	.uleb128 .LVU469
	.uleb128 .LVU484
	.uleb128 .LVU491
	.uleb128 .LVU496
.LLST392:
	.byte	0x6
	.quad	.LVL92
	.byte	0x4
	.uleb128 .LVL92-.LVL92
	.uleb128 .LVL100-.LVL92
	.uleb128 0x1
	.byte	0x65
	.byte	0x4
	.uleb128 .LVL100-.LVL92
	.uleb128 .LVL106-.LVL92
	.uleb128 0x1
	.byte	0x6b
	.byte	0x4
	.uleb128 .LVL107-.LVL92
	.uleb128 .LVL109-.LVL92
	.uleb128 0x1
	.byte	0x65
	.byte	0
.LVUS393:
	.uleb128 .LVU449
	.uleb128 .LVU454
	.uleb128 .LVU454
	.uleb128 .LVU493
	.uleb128 .LVU493
	.uleb128 .LVU496
.LLST393:
	.byte	0x6
	.quad	.LVL92
	.byte	0x4
	.uleb128 .LVL92-.LVL92
	.uleb128 .LVL93-.LVL92
	.uleb128 0x1
	.byte	0x54
	.byte	0x4
	.uleb128 .LVL93-.LVL92
	.uleb128 .LVL107-.LVL92
	.uleb128 0x3
	.byte	0x74
	.sleb128 -12
	.byte	0x9f
	.byte	0x4
	.uleb128 .LVL107-.LVL92
	.uleb128 .LVL109-.LVL92
	.uleb128 0x1
	.byte	0x54
	.byte	0
.LVUS395:
	.uleb128 .LVU441
	.uleb128 .LVU449
.LLST395:
	.byte	0x8
	.quad	.LVL91
	.uleb128 .LVL92-.LVL91
	.uleb128 0x2
	.byte	0x70
	.sleb128 24
	.byte	0
.LVUS397:
	.uleb128 .LVU450
	.uleb128 .LVU458
	.uleb128 .LVU458
	.uleb128 .LVU496
.LLST397:
	.byte	0x6
	.quad	.LVL92
	.byte	0x4
	.uleb128 .LVL92-.LVL92
	.uleb128 .LVL95-.LVL92
	.uleb128 0x9
	.byte	0x75
	.sleb128 0
	.byte	0x70
	.sleb128 40
	.byte	0x6
	.byte	0x1c
	.byte	0x23
	.uleb128 0x3
	.byte	0x9f
	.byte	0x4
	.uleb128 .LVL95-.LVL92
	.uleb128 .LVL109-.LVL92
	.uleb128 0x7
	.byte	0x75
	.sleb128 0
	.byte	0x70
	.sleb128 40
	.byte	0x6
	.byte	0x1c
	.byte	0x9f
	.byte	0
.LVUS398:
	.uleb128 .LVU455
	.uleb128 .LVU496
.LLST398:
	.byte	0x8
	.quad	.LVL94
	.uleb128 .LVL109-.LVL94
	.uleb128 0x1
	.byte	0x6a
	.byte	0
.LVUS399:
	.uleb128 .LVU459
	.uleb128 .LVU496
.LLST399:
	.byte	0x8
	.quad	.LVL96
	.uleb128 .LVL109-.LVL96
	.uleb128 0x1
	.byte	0x69
	.byte	0
.LVUS400:
	.uleb128 .LVU461
	.uleb128 .LVU496
.LLST400:
	.byte	0x8
	.quad	.LVL97
	.uleb128 .LVL109-.LVL97
	.uleb128 0x1
	.byte	0x68
	.byte	0
.LVUS401:
	.uleb128 .LVU463
	.uleb128 .LVU496
.LLST401:
	.byte	0x8
	.quad	.LVL98
	.uleb128 .LVL109-.LVL98
	.uleb128 0x1
	.byte	0x67
	.byte	0
.LVUS402:
	.uleb128 .LVU465
	.uleb128 .LVU496
.LLST402:
	.byte	0x8
	.quad	.LVL99
	.uleb128 .LVL109-.LVL99
	.uleb128 0x1
	.byte	0x66
	.byte	0
.LVUS403:
	.uleb128 .LVU469
	.uleb128 .LVU496
.LLST403:
	.byte	0x8
	.quad	.LVL100
	.uleb128 .LVL109-.LVL100
	.uleb128 0x1
	.byte	0x65
	.byte	0
.LVUS405:
	.uleb128 .LVU502
	.uleb128 .LVU503
	.uleb128 .LVU510
	.uleb128 .LVU567
	.uleb128 .LVU719
	.uleb128 .LVU721
	.uleb128 .LVU838
	.uleb128 .LVU840
.LLST405:
	.byte	0x6
	.quad	.LVL111
	.byte	0x4
	.uleb128 .LVL111-.LVL111
	.uleb128 .LVL112-.LVL111
	.uleb128 0x2
	.byte	0x30
	.byte	0x9f
	.byte	0x4
	.uleb128 .LVL113-.LVL111
	.uleb128 .LVL122-.LVL111
	.uleb128 0x1
	.byte	0x58
	.byte	0x4
	.uleb128 .LVL145-.LVL111
	.uleb128 .LVL146-.LVL111
	.uleb128 0x2
	.byte	0x30
	.byte	0x9f
	.byte	0x4
	.uleb128 .LVL168-.LVL111
	.uleb128 .LVL169-.LVL111
	.uleb128 0x2
	.byte	0x30
	.byte	0x9f
	.byte	0
.LVUS407:
	.uleb128 .LVU510
	.uleb128 .LVU515
.LLST407:
	.byte	0x8
	.quad	.LVL113
	.uleb128 .LVL114-.LVL113
	.uleb128 0x2
	.byte	0x30
	.byte	0x9f
	.byte	0
.LVUS409:
	.uleb128 .LVU517
	.uleb128 .LVU521
	.uleb128 .LVU521
	.uleb128 .LVU564
	.uleb128 .LVU564
	.uleb128 .LVU567
.LLST409:
	.byte	0x6
	.quad	.LVL115
	.byte	0x4
	.uleb128 .LVL115-.LVL115
	.uleb128 .LVL116-.LVL115
	.uleb128 0x1
	.byte	0x52
	.byte	0x4
	.uleb128 .LVL116-.LVL115
	.uleb128 .LVL120-.LVL115
	.uleb128 0x2
	.byte	0x71
	.sleb128 0
	.byte	0x4
	.uleb128 .LVL120-.LVL115
	.uleb128 .LVL122-.LVL115
	.uleb128 0x2
	.byte	0x71
	.sleb128 -4
	.byte	0
.LVUS410:
	.uleb128 .LVU524
	.uleb128 .LVU550
.LLST410:
	.byte	0x8
	.quad	.LVL117
	.uleb128 .LVL118-.LVL117
	.uleb128 0x1
	.byte	0x62
	.byte	0
.LVUS411:
	.uleb128 .LVU527
	.uleb128 .LVU561
.LLST411:
	.byte	0x8
	.quad	.LVL117
	.uleb128 .LVL119-.LVL117
	.uleb128 0x1
	.byte	0x52
	.byte	0
.LVUS417:
	.uleb128 .LVU526
	.uleb128 .LVU527
.LLST417:
	.byte	0x8
	.quad	.LVL117
	.uleb128 .LVL117-.LVL117
	.uleb128 0x3
	.byte	0x73
	.sleb128 16
	.byte	0x9f
	.byte	0
.LVUS6:
	.uleb128 .LVU27
	.uleb128 .LVU35
.LLST6:
	.byte	0x8
	.quad	.LVL5
	.uleb128 .LVL5-.LVL5
	.uleb128 0x1
	.byte	0x55
	.byte	0
.LVUS7:
	.uleb128 .LVU28
	.uleb128 .LVU35
.LLST7:
	.byte	0x8
	.quad	.LVL5
	.uleb128 .LVL5-.LVL5
	.uleb128 0x3
	.byte	0x75
	.sleb128 16
	.byte	0x9f
	.byte	0
.LVUS8:
	.uleb128 .LVU29
	.uleb128 .LVU35
.LLST8:
	.byte	0x8
	.quad	.LVL5
	.uleb128 .LVL5-.LVL5
	.uleb128 0x3
	.byte	0x75
	.sleb128 16
	.byte	0x9f
	.byte	0
.LVUS9:
	.uleb128 .LVU30
	.uleb128 .LVU35
.LLST9:
	.byte	0x8
	.quad	.LVL5
	.uleb128 .LVL5-.LVL5
	.uleb128 0x3
	.byte	0x75
	.sleb128 16
	.byte	0x9f
	.byte	0
.LVUS11:
	.uleb128 .LVU33
	.uleb128 .LVU35
.LLST11:
	.byte	0x8
	.quad	.LVL5
	.uleb128 .LVL5-.LVL5
	.uleb128 0x3
	.byte	0x75
	.sleb128 16
	.byte	0x9f
	.byte	0
.LVUS12:
	.uleb128 .LVU31
	.uleb128 .LVU33
.LLST12:
	.byte	0x8
	.quad	.LVL5
	.uleb128 .LVL5-.LVL5
	.uleb128 0x3
	.byte	0x75
	.sleb128 16
	.byte	0x9f
	.byte	0
.LVUS13:
	.uleb128 .LVU32
	.uleb128 .LVU33
.LLST13:
	.byte	0x8
	.quad	.LVL5
	.uleb128 .LVL5-.LVL5
	.uleb128 0x3
	.byte	0x75
	.sleb128 16
	.byte	0x9f
	.byte	0
.LVUS15:
	.uleb128 .LVU5
	.uleb128 .LVU11
.LLST15:
	.byte	0x8
	.quad	.LVL1
	.uleb128 .LVL2-.LVL1
	.uleb128 0x1
	.byte	0x54
	.byte	0
.LVUS16:
	.uleb128 .LVU7
	.uleb128 .LVU11
.LLST16:
	.byte	0x8
	.quad	.LVL1
	.uleb128 .LVL2-.LVL1
	.uleb128 0x1
	.byte	0x54
	.byte	0
.LVUS17:
	.uleb128 .LVU8
	.uleb128 .LVU11
.LLST17:
	.byte	0x8
	.quad	.LVL1
	.uleb128 .LVL2-.LVL1
	.uleb128 0x1
	.byte	0x54
	.byte	0
.LVUS18:
	.uleb128 .LVU19
	.uleb128 .LVU23
.LLST18:
	.byte	0x8
	.quad	.LVL5
	.uleb128 .LVL5-.LVL5
	.uleb128 0x1
	.byte	0x56
	.byte	0
.LVUS19:
	.uleb128 .LVU21
	.uleb128 .LVU23
.LLST19:
	.byte	0x8
	.quad	.LVL5
	.uleb128 .LVL5-.LVL5
	.uleb128 0x1
	.byte	0x56
	.byte	0
.LVUS20:
	.uleb128 .LVU22
	.uleb128 .LVU23
.LLST20:
	.byte	0x8
	.quad	.LVL5
	.uleb128 .LVL5-.LVL5
	.uleb128 0x1
	.byte	0x56
	.byte	0
.LVUS22:
	.uleb128 .LVU42
	.uleb128 .LVU45
	.uleb128 .LVU637
	.uleb128 .LVU694
	.uleb128 .LVU881
	.uleb128 .LVU884
.LLST22:
	.byte	0x6
	.quad	.LVL7
	.byte	0x4
	.uleb128 .LVL7-.LVL7
	.uleb128 .LVL8-.LVL7
	.uleb128 0x3
	.byte	0x73
	.sleb128 16
	.byte	0x9f
	.byte	0x4
	.uleb128 .LVL133-.LVL7
	.uleb128 .LVL140-.LVL7
	.uleb128 0x3
	.byte	0x73
	.sleb128 16
	.byte	0x9f
	.byte	0x8
	.quad	.LVL181
	.uleb128 .LVL183-.LVL181
	.uleb128 0x3
	.byte	0x73
	.sleb128 16
	.byte	0x9f
	.byte	0
.LVUS23:
	.uleb128 .LVU42
	.uleb128 .LVU45
	.uleb128 .LVU637
	.uleb128 .LVU659
	.uleb128 .LVU659
	.uleb128 .LVU659
	.uleb128 .LVU659
	.uleb128 .LVU694
	.uleb128 .LVU881
	.uleb128 .LVU883
	.uleb128 .LVU883
	.uleb128 .LVU884
.LLST23:
	.byte	0x6
	.quad	.LVL7
	.byte	0x4
	.uleb128 .LVL7-.LVL7
	.uleb128 .LVL8-.LVL7
	.uleb128 0x1
	.byte	0x55
	.byte	0x4
	.uleb128 .LVL133-.LVL7
	.uleb128 .LVL135-1-.LVL7
	.uleb128 0x1
	.byte	0x55
	.byte	0x4
	.uleb128 .LVL135-1-.LVL7
	.uleb128 .LVL135-.LVL7
	.uleb128 0x3
	.byte	0x91
	.sleb128 -168
	.byte	0x4
	.uleb128 .LVL135-.LVL7
	.uleb128 .LVL140-.LVL7
	.uleb128 0x1
	.byte	0x5e
	.byte	0x6
	.quad	.LVL181
	.byte	0x4
	.uleb128 .LVL181-.LVL181
	.uleb128 .LVL182-.LVL181
	.uleb128 0x1
	.byte	0x55
	.byte	0x4
	.uleb128 .LVL182-.LVL181
	.uleb128 .LVL183-.LVL181
	.uleb128 0x3
	.byte	0x91
	.sleb128 -168
	.byte	0
.LVUS25:
	.uleb128 .LVU43
	.uleb128 .LVU45
	.uleb128 .LVU637
	.uleb128 .LVU694
	.uleb128 .LVU881
	.uleb128 .LVU884
.LLST25:
	.byte	0x6
	.quad	.LVL7
	.byte	0x4
	.uleb128 .LVL7-.LVL7
	.uleb128 .LVL8-.LVL7
	.uleb128 0x3
	.byte	0x73
	.sleb128 16
	.byte	0x9f
	.byte	0x4
	.uleb128 .LVL133-.LVL7
	.uleb128 .LVL140-.LVL7
	.uleb128 0x3
	.byte	0x73
	.sleb128 16
	.byte	0x9f
	.byte	0x8
	.quad	.LVL181
	.uleb128 .LVL183-.LVL181
	.uleb128 0x3
	.byte	0x73
	.sleb128 16
	.byte	0x9f
	.byte	0
.LVUS26:
	.uleb128 .LVU43
	.uleb128 .LVU45
	.uleb128 .LVU637
	.uleb128 .LVU659
	.uleb128 .LVU659
	.uleb128 .LVU659
	.uleb128 .LVU659
	.uleb128 .LVU694
	.uleb128 .LVU881
	.uleb128 .LVU883
	.uleb128 .LVU883
	.uleb128 .LVU884
.LLST26:
	.byte	0x6
	.quad	.LVL7
	.byte	0x4
	.uleb128 .LVL7-.LVL7
	.uleb128 .LVL8-.LVL7
	.uleb128 0x1
	.byte	0x55
	.byte	0x4
	.uleb128 .LVL133-.LVL7
	.uleb128 .LVL135-1-.LVL7
	.uleb128 0x1
	.byte	0x55
	.byte	0x4
	.uleb128 .LVL135-1-.LVL7
	.uleb128 .LVL135-.LVL7
	.uleb128 0x3
	.byte	0x91
	.sleb128 -168
	.byte	0x4
	.uleb128 .LVL135-.LVL7
	.uleb128 .LVL140-.LVL7
	.uleb128 0x1
	.byte	0x5e
	.byte	0x6
	.quad	.LVL181
	.byte	0x4
	.uleb128 .LVL181-.LVL181
	.uleb128 .LVL182-.LVL181
	.uleb128 0x1
	.byte	0x55
	.byte	0x4
	.uleb128 .LVL182-.LVL181
	.uleb128 .LVL183-.LVL181
	.uleb128 0x3
	.byte	0x91
	.sleb128 -168
	.byte	0
.LVUS30:
	.uleb128 .LVU637
	.uleb128 .LVU671
	.uleb128 .LVU881
	.uleb128 .LVU884
.LLST30:
	.byte	0x8
	.quad	.LVL133
	.uleb128 .LVL138-.LVL133
	.uleb128 0x6
	.byte	0xa0
	.long	.Ldebug_info0+57281
	.sleb128 0
	.byte	0x8
	.quad	.LVL181
	.uleb128 .LVL183-.LVL181
	.uleb128 0x6
	.byte	0xa0
	.long	.Ldebug_info0+57281
	.sleb128 0
	.byte	0
.LVUS31:
	.uleb128 .LVU637
	.uleb128 .LVU659
	.uleb128 .LVU659
	.uleb128 .LVU659
	.uleb128 .LVU659
	.uleb128 .LVU671
	.uleb128 .LVU881
	.uleb128 .LVU883
	.uleb128 .LVU883
	.uleb128 .LVU884
.LLST31:
	.byte	0x6
	.quad	.LVL133
	.byte	0x4
	.uleb128 .LVL133-.LVL133
	.uleb128 .LVL135-1-.LVL133
	.uleb128 0x1
	.byte	0x55
	.byte	0x4
	.uleb128 .LVL135-1-.LVL133
	.uleb128 .LVL135-.LVL133
	.uleb128 0x3
	.byte	0x91
	.sleb128 -168
	.byte	0x4
	.uleb128 .LVL135-.LVL133
	.uleb128 .LVL138-.LVL133
	.uleb128 0x1
	.byte	0x5e
	.byte	0x6
	.quad	.LVL181
	.byte	0x4
	.uleb128 .LVL181-.LVL181
	.uleb128 .LVL182-.LVL181
	.uleb128 0x1
	.byte	0x55
	.byte	0x4
	.uleb128 .LVL182-.LVL181
	.uleb128 .LVL183-.LVL181
	.uleb128 0x3
	.byte	0x91
	.sleb128 -168
	.byte	0
.LVUS33:
	.uleb128 .LVU637
	.uleb128 .LVU671
	.uleb128 .LVU881
	.uleb128 .LVU884
.LLST33:
	.byte	0x8
	.quad	.LVL133
	.uleb128 .LVL138-.LVL133
	.uleb128 0x3
	.byte	0x73
	.sleb128 16
	.byte	0x9f
	.byte	0x8
	.quad	.LVL181
	.uleb128 .LVL183-.LVL181
	.uleb128 0x3
	.byte	0x73
	.sleb128 16
	.byte	0x9f
	.byte	0
.LVUS35:
	.uleb128 .LVU639
	.uleb128 .LVU646
	.uleb128 .LVU881
	.uleb128 .LVU883
	.uleb128 .LVU883
	.uleb128 .LVU884
.LLST35:
	.byte	0x8
	.quad	.LVL133
	.uleb128 .LVL134-.LVL133
	.uleb128 0x1
	.byte	0x55
	.byte	0x6
	.quad	.LVL181
	.byte	0x4
	.uleb128 .LVL181-.LVL181
	.uleb128 .LVL182-.LVL181
	.uleb128 0x1
	.byte	0x55
	.byte	0x4
	.uleb128 .LVL182-.LVL181
	.uleb128 .LVL183-.LVL181
	.uleb128 0x3
	.byte	0x91
	.sleb128 -168
	.byte	0
.LVUS36:
	.uleb128 .LVU639
	.uleb128 .LVU646
	.uleb128 .LVU881
	.uleb128 .LVU884
.LLST36:
	.byte	0x8
	.quad	.LVL133
	.uleb128 .LVL134-.LVL133
	.uleb128 0x3
	.byte	0x73
	.sleb128 16
	.byte	0x9f
	.byte	0x8
	.quad	.LVL181
	.uleb128 .LVL183-.LVL181
	.uleb128 0x3
	.byte	0x73
	.sleb128 16
	.byte	0x9f
	.byte	0
.LVUS37:
	.uleb128 .LVU640
	.uleb128 .LVU642
.LLST37:
	.byte	0x8
	.quad	.LVL133
	.uleb128 .LVL133-.LVL133
	.uleb128 0x3
	.byte	0x73
	.sleb128 16
	.byte	0x9f
	.byte	0
.LVUS38:
	.uleb128 .LVU641
	.uleb128 .LVU642
.LLST38:
	.byte	0x8
	.quad	.LVL133
	.uleb128 .LVL133-.LVL133
	.uleb128 0x3
	.byte	0x73
	.sleb128 16
	.byte	0x9f
	.byte	0
.LVUS40:
	.uleb128 .LVU646
	.uleb128 .LVU664
.LLST40:
	.byte	0x8
	.quad	.LVL134
	.uleb128 .LVL137-.LVL134
	.uleb128 0x6
	.byte	0xa0
	.long	.Ldebug_info0+57281
	.sleb128 0
	.byte	0
.LVUS41:
	.uleb128 .LVU646
	.uleb128 .LVU659
	.uleb128 .LVU659
	.uleb128 .LVU659
	.uleb128 .LVU659
	.uleb128 .LVU664
.LLST41:
	.byte	0x6
	.quad	.LVL134
	.byte	0x4
	.uleb128 .LVL134-.LVL134
	.uleb128 .LVL135-1-.LVL134
	.uleb128 0x1
	.byte	0x55
	.byte	0x4
	.uleb128 .LVL135-1-.LVL134
	.uleb128 .LVL135-.LVL134
	.uleb128 0x3
	.byte	0x91
	.sleb128 -168
	.byte	0x4
	.uleb128 .LVL135-.LVL134
	.uleb128 .LVL137-.LVL134
	.uleb128 0x1
	.byte	0x5e
	.byte	0
.LVUS42:
	.uleb128 .LVU646
	.uleb128 .LVU664
.LLST42:
	.byte	0x8
	.quad	.LVL134
	.uleb128 .LVL137-.LVL134
	.uleb128 0x3
	.byte	0x73
	.sleb128 16
	.byte	0x9f
	.byte	0
.LVUS43:
	.uleb128 .LVU648
	.uleb128 .LVU653
.LLST43:
	.byte	0x8
	.quad	.LVL134
	.uleb128 .LVL134-.LVL134
	.uleb128 0x6
	.byte	0xa0
	.long	.Ldebug_info0+57281
	.sleb128 0
	.byte	0
.LVUS44:
	.uleb128 .LVU648
	.uleb128 .LVU653
.LLST44:
	.byte	0x8
	.quad	.LVL134
	.uleb128 .LVL134-.LVL134
	.uleb128 0x3
	.byte	0x73
	.sleb128 16
	.byte	0x9f
	.byte	0
.LVUS45:
	.uleb128 .LVU649
	.uleb128 .LVU651
.LLST45:
	.byte	0x8
	.quad	.LVL134
	.uleb128 .LVL134-.LVL134
	.uleb128 0x6
	.byte	0xa0
	.long	.Ldebug_info0+57281
	.sleb128 0
	.byte	0
.LVUS46:
	.uleb128 .LVU649
	.uleb128 .LVU651
.LLST46:
	.byte	0x8
	.quad	.LVL134
	.uleb128 .LVL134-.LVL134
	.uleb128 0x3
	.byte	0x73
	.sleb128 16
	.byte	0x9f
	.byte	0
.LVUS47:
	.uleb128 .LVU650
	.uleb128 .LVU651
.LLST47:
	.byte	0x8
	.quad	.LVL134
	.uleb128 .LVL134-.LVL134
	.uleb128 0x6
	.byte	0xa0
	.long	.Ldebug_info0+57281
	.sleb128 0
	.byte	0
.LVUS48:
	.uleb128 .LVU650
	.uleb128 .LVU651
.LLST48:
	.byte	0x8
	.quad	.LVL134
	.uleb128 .LVL134-.LVL134
	.uleb128 0x3
	.byte	0x73
	.sleb128 16
	.byte	0x9f
	.byte	0
.LVUS49:
	.uleb128 .LVU651
	.uleb128 .LVU653
.LLST49:
	.byte	0x8
	.quad	.LVL134
	.uleb128 .LVL134-.LVL134
	.uleb128 0x6
	.byte	0xa0
	.long	.Ldebug_info0+57281
	.sleb128 0
	.byte	0
.LVUS51:
	.uleb128 .LVU653
	.uleb128 .LVU664
.LLST51:
	.byte	0x8
	.quad	.LVL134
	.uleb128 .LVL137-.LVL134
	.uleb128 0x6
	.byte	0xa0
	.long	.Ldebug_info0+57281
	.sleb128 0
	.byte	0
.LVUS52:
	.uleb128 .LVU653
	.uleb128 .LVU659
	.uleb128 .LVU659
	.uleb128 .LVU659
	.uleb128 .LVU659
	.uleb128 .LVU664
.LLST52:
	.byte	0x6
	.quad	.LVL134
	.byte	0x4
	.uleb128 .LVL134-.LVL134
	.uleb128 .LVL135-1-.LVL134
	.uleb128 0x1
	.byte	0x55
	.byte	0x4
	.uleb128 .LVL135-1-.LVL134
	.uleb128 .LVL135-.LVL134
	.uleb128 0x3
	.byte	0x91
	.sleb128 -168
	.byte	0x4
	.uleb128 .LVL135-.LVL134
	.uleb128 .LVL137-.LVL134
	.uleb128 0x1
	.byte	0x5e
	.byte	0
.LVUS54:
	.uleb128 .LVU655
	.uleb128 .LVU662
.LLST54:
	.byte	0x8
	.quad	.LVL134
	.uleb128 .LVL136-.LVL134
	.uleb128 0x6
	.byte	0xa0
	.long	.Ldebug_info0+57281
	.sleb128 0
	.byte	0
.LVUS55:
	.uleb128 .LVU655
	.uleb128 .LVU659
	.uleb128 .LVU659
	.uleb128 .LVU659
	.uleb128 .LVU659
	.uleb128 .LVU662
.LLST55:
	.byte	0x6
	.quad	.LVL134
	.byte	0x4
	.uleb128 .LVL134-.LVL134
	.uleb128 .LVL135-1-.LVL134
	.uleb128 0x1
	.byte	0x55
	.byte	0x4
	.uleb128 .LVL135-1-.LVL134
	.uleb128 .LVL135-.LVL134
	.uleb128 0x3
	.byte	0x91
	.sleb128 -168
	.byte	0x4
	.uleb128 .LVL135-.LVL134
	.uleb128 .LVL136-.LVL134
	.uleb128 0x1
	.byte	0x5e
	.byte	0
.LVUS57:
	.uleb128 .LVU656
	.uleb128 .LVU662
.LLST57:
	.byte	0x8
	.quad	.LVL134
	.uleb128 .LVL136-.LVL134
	.uleb128 0x6
	.byte	0xa0
	.long	.Ldebug_info0+57281
	.sleb128 0
	.byte	0
.LVUS58:
	.uleb128 .LVU656
	.uleb128 .LVU659
	.uleb128 .LVU659
	.uleb128 .LVU659
	.uleb128 .LVU659
	.uleb128 .LVU662
.LLST58:
	.byte	0x6
	.quad	.LVL134
	.byte	0x4
	.uleb128 .LVL134-.LVL134
	.uleb128 .LVL135-1-.LVL134
	.uleb128 0x1
	.byte	0x55
	.byte	0x4
	.uleb128 .LVL135-1-.LVL134
	.uleb128 .LVL135-.LVL134
	.uleb128 0x3
	.byte	0x91
	.sleb128 -168
	.byte	0x4
	.uleb128 .LVL135-.LVL134
	.uleb128 .LVL136-.LVL134
	.uleb128 0x1
	.byte	0x5e
	.byte	0
.LVUS60:
	.uleb128 .LVU657
	.uleb128 .LVU662
.LLST60:
	.byte	0x8
	.quad	.LVL134
	.uleb128 .LVL136-.LVL134
	.uleb128 0x6
	.byte	0xa0
	.long	.Ldebug_info0+57281
	.sleb128 0
	.byte	0
.LVUS61:
	.uleb128 .LVU657
	.uleb128 .LVU659
	.uleb128 .LVU659
	.uleb128 .LVU659
	.uleb128 .LVU659
	.uleb128 .LVU662
.LLST61:
	.byte	0x6
	.quad	.LVL134
	.byte	0x4
	.uleb128 .LVL134-.LVL134
	.uleb128 .LVL135-1-.LVL134
	.uleb128 0x1
	.byte	0x55
	.byte	0x4
	.uleb128 .LVL135-1-.LVL134
	.uleb128 .LVL135-.LVL134
	.uleb128 0x3
	.byte	0x91
	.sleb128 -168
	.byte	0x4
	.uleb128 .LVL135-.LVL134
	.uleb128 .LVL136-.LVL134
	.uleb128 0x1
	.byte	0x5e
	.byte	0
.LVUS62:
	.uleb128 .LVU657
	.uleb128 .LVU662
.LLST62:
	.byte	0x8
	.quad	.LVL134
	.uleb128 .LVL136-.LVL134
	.uleb128 0x2
	.byte	0x30
	.byte	0x9f
	.byte	0
.LVUS64:
	.uleb128 .LVU664
	.uleb128 .LVU671
.LLST64:
	.byte	0x8
	.quad	.LVL137
	.uleb128 .LVL138-.LVL137
	.uleb128 0x6
	.byte	0xa0
	.long	.Ldebug_info0+57281
	.sleb128 0
	.byte	0
.LVUS65:
	.uleb128 .LVU664
	.uleb128 .LVU671
.LLST65:
	.byte	0x8
	.quad	.LVL137
	.uleb128 .LVL138-.LVL137
	.uleb128 0x1
	.byte	0x5e
	.byte	0
.LVUS67:
	.uleb128 .LVU666
	.uleb128 .LVU671
.LLST67:
	.byte	0x8
	.quad	.LVL137
	.uleb128 .LVL138-1-.LVL137
	.uleb128 0x1
	.byte	0x50
	.byte	0
.LVUS68:
	.uleb128 .LVU666
	.uleb128 .LVU671
.LLST68:
	.byte	0x8
	.quad	.LVL137
	.uleb128 .LVL138-.LVL137
	.uleb128 0x1
	.byte	0x5e
	.byte	0
.LVUS70:
	.uleb128 .LVU666
	.uleb128 .LVU671
.LLST70:
	.byte	0x8
	.quad	.LVL137
	.uleb128 .LVL138-.LVL137
	.uleb128 0x6
	.byte	0xa0
	.long	.Ldebug_info0+57281
	.sleb128 0
	.byte	0
.LVUS71:
	.uleb128 .LVU667
	.uleb128 .LVU671
.LLST71:
	.byte	0x8
	.quad	.LVL137
	.uleb128 .LVL138-1-.LVL137
	.uleb128 0x1
	.byte	0x50
	.byte	0
.LVUS72:
	.uleb128 .LVU667
	.uleb128 .LVU671
.LLST72:
	.byte	0x8
	.quad	.LVL137
	.uleb128 .LVL138-.LVL137
	.uleb128 0x1
	.byte	0x5e
	.byte	0
.LVUS76:
	.uleb128 .LVU668
	.uleb128 .LVU671
.LLST76:
	.byte	0x8
	.quad	.LVL137
	.uleb128 .LVL138-1-.LVL137
	.uleb128 0x1
	.byte	0x50
	.byte	0
.LVUS78:
	.uleb128 .LVU671
	.uleb128 .LVU682
.LLST78:
	.byte	0x8
	.quad	.LVL138
	.uleb128 .LVL140-.LVL138
	.uleb128 0x6
	.byte	0xa0
	.long	.Ldebug_info0+57281
	.sleb128 0
	.byte	0
.LVUS79:
	.uleb128 .LVU671
	.uleb128 .LVU682
.LLST79:
	.byte	0x8
	.quad	.LVL138
	.uleb128 .LVL140-.LVL138
	.uleb128 0x3
	.byte	0x73
	.sleb128 16
	.byte	0x9f
	.byte	0
.LVUS80:
	.uleb128 .LVU673
	.uleb128 .LVU674
.LLST80:
	.byte	0x8
	.quad	.LVL138
	.uleb128 .LVL138-.LVL138
	.uleb128 0x6
	.byte	0xa0
	.long	.Ldebug_info0+58468
	.sleb128 0
	.byte	0
.LVUS82:
	.uleb128 .LVU674
	.uleb128 .LVU682
.LLST82:
	.byte	0x8
	.quad	.LVL138
	.uleb128 .LVL140-.LVL138
	.uleb128 0x3
	.byte	0x73
	.sleb128 16
	.byte	0x9f
	.byte	0
.LVUS83:
	.uleb128 .LVU674
	.uleb128 .LVU682
.LLST83:
	.byte	0x8
	.quad	.LVL138
	.uleb128 .LVL140-.LVL138
	.uleb128 0x6
	.byte	0xa0
	.long	.Ldebug_info0+58468
	.sleb128 0
	.byte	0
.LVUS84:
	.uleb128 .LVU682
	.uleb128 .LVU694
.LLST84:
	.byte	0x8
	.quad	.LVL140
	.uleb128 .LVL140-.LVL140
	.uleb128 0x6
	.byte	0xa0
	.long	.Ldebug_info0+57281
	.sleb128 0
	.byte	0
.LVUS85:
	.uleb128 .LVU684
	.uleb128 .LVU685
.LLST85:
	.byte	0x8
	.quad	.LVL140
	.uleb128 .LVL140-.LVL140
	.uleb128 0x6
	.byte	0xa0
	.long	.Ldebug_info0+57281
	.sleb128 0
	.byte	0
.LVUS86:
	.uleb128 .LVU685
	.uleb128 .LVU687
.LLST86:
	.byte	0x8
	.quad	.LVL140
	.uleb128 .LVL140-.LVL140
	.uleb128 0x6
	.byte	0xa0
	.long	.Ldebug_info0+57281
	.sleb128 0
	.byte	0
.LVUS87:
	.uleb128 .LVU687
	.uleb128 .LVU694
.LLST87:
	.byte	0x8
	.quad	.LVL140
	.uleb128 .LVL140-.LVL140
	.uleb128 0x6
	.byte	0xa0
	.long	.Ldebug_info0+57281
	.sleb128 0
	.byte	0
.LVUS88:
	.uleb128 .LVU689
	.uleb128 .LVU694
.LLST88:
	.byte	0x8
	.quad	.LVL140
	.uleb128 .LVL140-.LVL140
	.uleb128 0x2
	.byte	0x30
	.byte	0x9f
	.byte	0
.LVUS89:
	.uleb128 .LVU689
	.uleb128 .LVU690
.LLST89:
	.byte	0x8
	.quad	.LVL140
	.uleb128 .LVL140-.LVL140
	.uleb128 0x6
	.byte	0xa0
	.long	.Ldebug_info0+57281
	.sleb128 0
	.byte	0
.LVUS90:
	.uleb128 .LVU689
	.uleb128 .LVU690
.LLST90:
	.byte	0x8
	.quad	.LVL140
	.uleb128 .LVL140-.LVL140
	.uleb128 0x2
	.byte	0x30
	.byte	0x9f
	.byte	0
.LVUS92:
	.uleb128 .LVU690
	.uleb128 .LVU694
.LLST92:
	.byte	0x8
	.quad	.LVL140
	.uleb128 .LVL140-.LVL140
	.uleb128 0x6
	.byte	0xa0
	.long	.Ldebug_info0+57281
	.sleb128 0
	.byte	0
.LVUS93:
	.uleb128 .LVU692
	.uleb128 .LVU694
.LLST93:
	.byte	0x8
	.quad	.LVL140
	.uleb128 .LVL140-.LVL140
	.uleb128 0x6
	.byte	0xa0
	.long	.Ldebug_info0+57281
	.sleb128 0
	.byte	0
.LVUS94:
	.uleb128 .LVU693
	.uleb128 .LVU694
.LLST94:
	.byte	0x8
	.quad	.LVL140
	.uleb128 .LVL140-.LVL140
	.uleb128 0x6
	.byte	0xa0
	.long	.Ldebug_info0+57281
	.sleb128 0
	.byte	0
.LVUS96:
	.uleb128 .LVU47
	.uleb128 .LVU54
	.uleb128 .LVU696
	.uleb128 .LVU703
.LLST96:
	.byte	0x8
	.quad	.LVL8
	.uleb128 .LVL8-.LVL8
	.uleb128 0x6
	.byte	0xa0
	.long	.Ldebug_info0+51244
	.sleb128 0
	.byte	0x8
	.quad	.LVL140
	.uleb128 .LVL140-.LVL140
	.uleb128 0x6
	.byte	0xa0
	.long	.Ldebug_info0+51244
	.sleb128 0
	.byte	0
.LVUS97:
	.uleb128 .LVU48
	.uleb128 .LVU54
	.uleb128 .LVU697
	.uleb128 .LVU703
.LLST97:
	.byte	0x8
	.quad	.LVL8
	.uleb128 .LVL8-.LVL8
	.uleb128 0x6
	.byte	0xa0
	.long	.Ldebug_info0+51244
	.sleb128 0
	.byte	0x8
	.quad	.LVL140
	.uleb128 .LVL140-.LVL140
	.uleb128 0x6
	.byte	0xa0
	.long	.Ldebug_info0+51244
	.sleb128 0
	.byte	0
.LVUS98:
	.uleb128 .LVU49
	.uleb128 .LVU54
	.uleb128 .LVU698
	.uleb128 .LVU703
.LLST98:
	.byte	0x8
	.quad	.LVL8
	.uleb128 .LVL8-.LVL8
	.uleb128 0x6
	.byte	0xa0
	.long	.Ldebug_info0+51244
	.sleb128 0
	.byte	0x8
	.quad	.LVL140
	.uleb128 .LVL140-.LVL140
	.uleb128 0x6
	.byte	0xa0
	.long	.Ldebug_info0+51244
	.sleb128 0
	.byte	0
.LVUS100:
	.uleb128 .LVU50
	.uleb128 .LVU52
	.uleb128 .LVU699
	.uleb128 .LVU701
.LLST100:
	.byte	0x8
	.quad	.LVL8
	.uleb128 .LVL8-.LVL8
	.uleb128 0x6
	.byte	0xa0
	.long	.Ldebug_info0+51244
	.sleb128 0
	.byte	0x8
	.quad	.LVL140
	.uleb128 .LVL140-.LVL140
	.uleb128 0x6
	.byte	0xa0
	.long	.Ldebug_info0+51244
	.sleb128 0
	.byte	0
.LVUS101:
	.uleb128 .LVU51
	.uleb128 .LVU52
	.uleb128 .LVU700
	.uleb128 .LVU701
.LLST101:
	.byte	0x8
	.quad	.LVL8
	.uleb128 .LVL8-.LVL8
	.uleb128 0x6
	.byte	0xa0
	.long	.Ldebug_info0+51244
	.sleb128 0
	.byte	0x8
	.quad	.LVL140
	.uleb128 .LVL140-.LVL140
	.uleb128 0x6
	.byte	0xa0
	.long	.Ldebug_info0+51244
	.sleb128 0
	.byte	0
.LVUS103:
	.uleb128 .LVU52
	.uleb128 .LVU54
	.uleb128 .LVU701
	.uleb128 .LVU703
.LLST103:
	.byte	0x8
	.quad	.LVL8
	.uleb128 .LVL8-.LVL8
	.uleb128 0x6
	.byte	0xa0
	.long	.Ldebug_info0+51244
	.sleb128 0
	.byte	0x8
	.quad	.LVL140
	.uleb128 .LVL140-.LVL140
	.uleb128 0x6
	.byte	0xa0
	.long	.Ldebug_info0+51244
	.sleb128 0
	.byte	0
.LVUS105:
	.uleb128 .LVU56
	.uleb128 .LVU58
	.uleb128 .LVU705
	.uleb128 .LVU706
.LLST105:
	.byte	0x8
	.quad	.LVL8
	.uleb128 .LVL9-.LVL8
	.uleb128 0x1
	.byte	0x56
	.byte	0x8
	.quad	.LVL140
	.uleb128 .LVL140-.LVL140
	.uleb128 0x1
	.byte	0x56
	.byte	0
.LVUS107:
	.uleb128 .LVU58
	.uleb128 .LVU77
	.uleb128 .LVU619
	.uleb128 .LVU622
	.uleb128 .LVU706
	.uleb128 .LVU715
.LLST107:
	.byte	0x6
	.quad	.LVL9
	.byte	0x4
	.uleb128 .LVL9-.LVL9
	.uleb128 .LVL17-.LVL9
	.uleb128 0x6
	.byte	0xa0
	.long	.Ldebug_info0+51244
	.sleb128 0
	.byte	0x4
	.uleb128 .LVL129-.LVL9
	.uleb128 .LVL130-.LVL9
	.uleb128 0x6
	.byte	0xa0
	.long	.Ldebug_info0+51244
	.sleb128 0
	.byte	0x4
	.uleb128 .LVL140-.LVL9
	.uleb128 .LVL144-.LVL9
	.uleb128 0x6
	.byte	0xa0
	.long	.Ldebug_info0+51244
	.sleb128 0
	.byte	0
.LVUS108:
	.uleb128 .LVU58
	.uleb128 .LVU63
	.uleb128 .LVU63
	.uleb128 .LVU64
	.uleb128 .LVU619
	.uleb128 .LVU622
	.uleb128 .LVU706
	.uleb128 .LVU711
	.uleb128 .LVU711
	.uleb128 .LVU715
.LLST108:
	.byte	0x6
	.quad	.LVL9
	.byte	0x4
	.uleb128 .LVL9-.LVL9
	.uleb128 .LVL10-.LVL9
	.uleb128 0x9
	.byte	0x71
	.sleb128 0
	.byte	0x72
	.sleb128 0
	.byte	0x1c
	.byte	0x8
	.byte	0x30
	.byte	0x1b
	.byte	0x9f
	.byte	0x4
	.uleb128 .LVL10-.LVL9
	.uleb128 .LVL11-.LVL9
	.uleb128 0x6
	.byte	0x75
	.sleb128 0
	.byte	0x8
	.byte	0x30
	.byte	0x1b
	.byte	0x9f
	.byte	0x4
	.uleb128 .LVL129-.LVL9
	.uleb128 .LVL130-.LVL9
	.uleb128 0x6
	.byte	0x75
	.sleb128 0
	.byte	0x8
	.byte	0x30
	.byte	0x1b
	.byte	0x9f
	.byte	0x4
	.uleb128 .LVL140-.LVL9
	.uleb128 .LVL141-.LVL9
	.uleb128 0x9
	.byte	0x70
	.sleb128 0
	.byte	0x72
	.sleb128 0
	.byte	0x1c
	.byte	0x8
	.byte	0x30
	.byte	0x1b
	.byte	0x9f
	.byte	0x4
	.uleb128 .LVL141-.LVL9
	.uleb128 .LVL144-.LVL9
	.uleb128 0x6
	.byte	0x70
	.sleb128 0
	.byte	0x8
	.byte	0x30
	.byte	0x1b
	.byte	0x9f
	.byte	0
.LVUS109:
	.uleb128 .LVU65
	.uleb128 .LVU74
.LLST109:
	.byte	0x8
	.quad	.LVL12
	.uleb128 .LVL16-.LVL12
	.uleb128 0x2
	.byte	0x30
	.byte	0x9f
	.byte	0
.LVUS110:
	.uleb128 .LVU71
	.uleb128 .LVU73
	.uleb128 .LVU73
	.uleb128 .LVU74
.LLST110:
	.byte	0x6
	.quad	.LVL14
	.byte	0x4
	.uleb128 .LVL14-.LVL14
	.uleb128 .LVL15-.LVL14
	.uleb128 0x1
	.byte	0x50
	.byte	0x4
	.uleb128 .LVL15-.LVL14
	.uleb128 .LVL16-.LVL14
	.uleb128 0x1
	.byte	0x56
	.byte	0
.LVUS111:
	.uleb128 .LVU65
	.uleb128 .LVU71
.LLST111:
	.byte	0x8
	.quad	.LVL12
	.uleb128 .LVL14-.LVL12
	.uleb128 0x6
	.byte	0xa0
	.long	.Ldebug_info0+51244
	.sleb128 0
	.byte	0
.LVUS113:
	.uleb128 .LVU67
	.uleb128 .LVU71
.LLST113:
	.byte	0x8
	.quad	.LVL12
	.uleb128 .LVL14-.LVL12
	.uleb128 0x6
	.byte	0xa0
	.long	.Ldebug_info0+51244
	.sleb128 0
	.byte	0
.LVUS114:
	.uleb128 .LVU69
	.uleb128 .LVU71
.LLST114:
	.byte	0x8
	.quad	.LVL12
	.uleb128 .LVL14-.LVL12
	.uleb128 0x2
	.byte	0x30
	.byte	0x9f
	.byte	0
.LVUS115:
	.uleb128 .LVU69
	.uleb128 .LVU71
.LLST115:
	.byte	0x8
	.quad	.LVL12
	.uleb128 .LVL14-.LVL12
	.uleb128 0x6
	.byte	0xa0
	.long	.Ldebug_info0+51244
	.sleb128 0
	.byte	0
.LVUS201:
	.uleb128 .LVU600
	.uleb128 .LVU617
.LLST201:
	.byte	0x8
	.quad	.LVL126
	.uleb128 .LVL128-.LVL126
	.uleb128 0x6
	.byte	0xa0
	.long	.Ldebug_info0+51244
	.sleb128 0
	.byte	0
.LVUS203:
	.uleb128 .LVU605
	.uleb128 .LVU617
.LLST203:
	.byte	0x8
	.quad	.LVL126
	.uleb128 .LVL128-.LVL126
	.uleb128 0x6
	.byte	0xa0
	.long	.Ldebug_info0+51244
	.sleb128 0
	.byte	0
.LVUS205:
	.uleb128 .LVU607
	.uleb128 .LVU613
.LLST205:
	.byte	0x8
	.quad	.LVL126
	.uleb128 .LVL128-.LVL126
	.uleb128 0x6
	.byte	0xa0
	.long	.Ldebug_info0+51244
	.sleb128 0
	.byte	0
.LVUS206:
	.uleb128 .LVU607
	.uleb128 .LVU613
.LLST206:
	.byte	0x8
	.quad	.LVL126
	.uleb128 .LVL128-.LVL126
	.uleb128 0x3
	.byte	0x91
	.sleb128 -216
	.byte	0
.LVUS207:
	.uleb128 .LVU610
	.uleb128 .LVU613
.LLST207:
	.byte	0x8
	.quad	.LVL127
	.uleb128 .LVL128-.LVL127
	.uleb128 0x6
	.byte	0xa0
	.long	.Ldebug_info0+51244
	.sleb128 0
	.byte	0
.LVUS208:
	.uleb128 .LVU609
	.uleb128 .LVU613
.LLST208:
	.byte	0x8
	.quad	.LVL127
	.uleb128 .LVL128-.LVL127
	.uleb128 0x3
	.byte	0x91
	.sleb128 -216
	.byte	0
.LVUS209:
	.uleb128 .LVU610
	.uleb128 .LVU613
.LLST209:
	.byte	0x8
	.quad	.LVL127
	.uleb128 .LVL128-.LVL127
	.uleb128 0x3
	.byte	0x91
	.sleb128 -216
	.byte	0
.LVUS210:
	.uleb128 .LVU611
	.uleb128 .LVU613
.LLST210:
	.byte	0x8
	.quad	.LVL127
	.uleb128 .LVL128-.LVL127
	.uleb128 0x3
	.byte	0x91
	.sleb128 -216
	.byte	0
.LVUS211:
	.uleb128 .LVU613
	.uleb128 .LVU617
.LLST211:
	.byte	0x8
	.quad	.LVL128
	.uleb128 .LVL128-.LVL128
	.uleb128 0x6
	.byte	0xa0
	.long	.Ldebug_info0+51244
	.sleb128 0
	.byte	0
.LVUS212:
	.uleb128 .LVU615
	.uleb128 .LVU617
.LLST212:
	.byte	0x8
	.quad	.LVL128
	.uleb128 .LVL128-.LVL128
	.uleb128 0x6
	.byte	0xa0
	.long	.Ldebug_info0+51244
	.sleb128 0
	.byte	0
.LVUS213:
	.uleb128 .LVU616
	.uleb128 .LVU617
.LLST213:
	.byte	0x8
	.quad	.LVL128
	.uleb128 .LVL128-.LVL128
	.uleb128 0x6
	.byte	0xa0
	.long	.Ldebug_info0+51244
	.sleb128 0
	.byte	0
.LVUS214:
	.uleb128 .LVU602
	.uleb128 .LVU603
.LLST214:
	.byte	0x8
	.quad	.LVL126
	.uleb128 .LVL126-.LVL126
	.uleb128 0x6
	.byte	0xa0
	.long	.Ldebug_info0+51244
	.sleb128 0
	.byte	0
.LVUS215:
	.uleb128 .LVU603
	.uleb128 .LVU605
.LLST215:
	.byte	0x8
	.quad	.LVL126
	.uleb128 .LVL126-.LVL126
	.uleb128 0x6
	.byte	0xa0
	.long	.Ldebug_info0+51244
	.sleb128 0
	.byte	0
.LVUS219:
	.uleb128 .LVU173
	.uleb128 .LVU182
	.uleb128 .LVU876
	.uleb128 0
	.uleb128 0
	.uleb128 .LVU878
	.uleb128 .LVU885
	.uleb128 .LVU887
.LLST219:
	.byte	0x6
	.quad	.LVL42
	.byte	0x4
	.uleb128 .LVL42-.LVL42
	.uleb128 .LVL43-.LVL42
	.uleb128 0x3
	.byte	0x91
	.sleb128 -176
	.byte	0x4
	.uleb128 .LVL178-.LVL42
	.uleb128 .LHOTE7-.LVL42
	.uleb128 0x3
	.byte	0x91
	.sleb128 -176
	.byte	0x6
	.quad	.LFSB4421
	.byte	0x4
	.uleb128 .LFSB4421-.LFSB4421
	.uleb128 .LVL179-.LFSB4421
	.uleb128 0x3
	.byte	0x91
	.sleb128 -176
	.byte	0x4
	.uleb128 .LVL184-.LFSB4421
	.uleb128 .LVL185-.LFSB4421
	.uleb128 0x3
	.byte	0x91
	.sleb128 -176
	.byte	0
.LVUS223:
	.uleb128 .LVU175
	.uleb128 .LVU182
	.uleb128 .LVU876
	.uleb128 0
	.uleb128 0
	.uleb128 .LVU878
	.uleb128 .LVU885
	.uleb128 .LVU887
.LLST223:
	.byte	0x6
	.quad	.LVL42
	.byte	0x4
	.uleb128 .LVL42-.LVL42
	.uleb128 .LVL43-.LVL42
	.uleb128 0x3
	.byte	0x91
	.sleb128 -176
	.byte	0x4
	.uleb128 .LVL178-.LVL42
	.uleb128 .LHOTE7-.LVL42
	.uleb128 0x3
	.byte	0x91
	.sleb128 -176
	.byte	0x6
	.quad	.LFSB4421
	.byte	0x4
	.uleb128 .LFSB4421-.LFSB4421
	.uleb128 .LVL179-.LFSB4421
	.uleb128 0x3
	.byte	0x91
	.sleb128 -176
	.byte	0x4
	.uleb128 .LVL184-.LFSB4421
	.uleb128 .LVL185-.LFSB4421
	.uleb128 0x3
	.byte	0x91
	.sleb128 -176
	.byte	0
.LVUS228:
	.uleb128 .LVU182
	.uleb128 .LVU198
	.uleb128 .LVU872
	.uleb128 .LVU873
.LLST228:
	.byte	0x6
	.quad	.LVL43
	.byte	0x4
	.uleb128 .LVL43-.LVL43
	.uleb128 .LVL46-.LVL43
	.uleb128 0x3
	.byte	0x91
	.sleb128 -176
	.byte	0x4
	.uleb128 .LVL173-.LVL43
	.uleb128 .LVL175-.LVL43
	.uleb128 0x3
	.byte	0x91
	.sleb128 -176
	.byte	0
.LVUS234:
	.uleb128 .LVU189
	.uleb128 .LVU198
	.uleb128 .LVU872
	.uleb128 .LVU873
.LLST234:
	.byte	0x6
	.quad	.LVL43
	.byte	0x4
	.uleb128 .LVL43-.LVL43
	.uleb128 .LVL46-.LVL43
	.uleb128 0x3
	.byte	0x91
	.sleb128 -176
	.byte	0x4
	.uleb128 .LVL173-.LVL43
	.uleb128 .LVL175-.LVL43
	.uleb128 0x3
	.byte	0x91
	.sleb128 -176
	.byte	0
.LVUS236:
	.uleb128 .LVU191
	.uleb128 .LVU198
	.uleb128 .LVU872
	.uleb128 .LVU873
.LLST236:
	.byte	0x6
	.quad	.LVL43
	.byte	0x4
	.uleb128 .LVL43-.LVL43
	.uleb128 .LVL46-.LVL43
	.uleb128 0x3
	.byte	0x91
	.sleb128 -176
	.byte	0x4
	.uleb128 .LVL173-.LVL43
	.uleb128 .LVL175-.LVL43
	.uleb128 0x3
	.byte	0x91
	.sleb128 -176
	.byte	0
.LVUS238:
	.uleb128 .LVU193
	.uleb128 .LVU198
	.uleb128 .LVU872
	.uleb128 .LVU873
.LLST238:
	.byte	0x6
	.quad	.LVL44
	.byte	0x4
	.uleb128 .LVL44-.LVL44
	.uleb128 .LVL46-.LVL44
	.uleb128 0x3
	.byte	0x91
	.sleb128 -176
	.byte	0x4
	.uleb128 .LVL173-.LVL44
	.uleb128 .LVL175-.LVL44
	.uleb128 0x3
	.byte	0x91
	.sleb128 -176
	.byte	0
.LVUS239:
	.uleb128 .LVU195
	.uleb128 .LVU198
	.uleb128 .LVU872
	.uleb128 .LVU873
.LLST239:
	.byte	0x6
	.quad	.LVL44
	.byte	0x4
	.uleb128 .LVL44-.LVL44
	.uleb128 .LVL46-.LVL44
	.uleb128 0x2
	.byte	0x30
	.byte	0x9f
	.byte	0x4
	.uleb128 .LVL173-.LVL44
	.uleb128 .LVL175-.LVL44
	.uleb128 0x2
	.byte	0x30
	.byte	0x9f
	.byte	0
.LVUS240:
	.uleb128 .LVU194
	.uleb128 .LVU198
	.uleb128 .LVU872
	.uleb128 .LVU873
.LLST240:
	.byte	0x6
	.quad	.LVL44
	.byte	0x4
	.uleb128 .LVL44-.LVL44
	.uleb128 .LVL46-.LVL44
	.uleb128 0x3
	.byte	0x91
	.sleb128 -176
	.byte	0x4
	.uleb128 .LVL173-.LVL44
	.uleb128 .LVL175-.LVL44
	.uleb128 0x3
	.byte	0x91
	.sleb128 -176
	.byte	0
.LVUS242:
	.uleb128 .LVU198
	.uleb128 .LVU208
.LLST242:
	.byte	0x8
	.quad	.LVL46
	.uleb128 .LVL47-.LVL46
	.uleb128 0x3
	.byte	0x91
	.sleb128 -176
	.byte	0
.LVUS244:
	.uleb128 .LVU200
	.uleb128 .LVU208
	.uleb128 .LVU208
	.uleb128 .LVU208
.LLST244:
	.byte	0x6
	.quad	.LVL46
	.byte	0x4
	.uleb128 .LVL46-.LVL46
	.uleb128 .LVL47-1-.LVL46
	.uleb128 0x1
	.byte	0x50
	.byte	0x4
	.uleb128 .LVL47-1-.LVL46
	.uleb128 .LVL47-.LVL46
	.uleb128 0x1
	.byte	0x5d
	.byte	0
.LVUS245:
	.uleb128 .LVU200
	.uleb128 .LVU208
.LLST245:
	.byte	0x8
	.quad	.LVL46
	.uleb128 .LVL47-.LVL46
	.uleb128 0x3
	.byte	0x91
	.sleb128 -176
	.byte	0
.LVUS247:
	.uleb128 .LVU201
	.uleb128 .LVU208
	.uleb128 .LVU208
	.uleb128 .LVU208
.LLST247:
	.byte	0x6
	.quad	.LVL46
	.byte	0x4
	.uleb128 .LVL46-.LVL46
	.uleb128 .LVL47-1-.LVL46
	.uleb128 0x1
	.byte	0x50
	.byte	0x4
	.uleb128 .LVL47-1-.LVL46
	.uleb128 .LVL47-.LVL46
	.uleb128 0x1
	.byte	0x5d
	.byte	0
.LVUS248:
	.uleb128 .LVU201
	.uleb128 .LVU208
.LLST248:
	.byte	0x8
	.quad	.LVL46
	.uleb128 .LVL47-.LVL46
	.uleb128 0x3
	.byte	0x91
	.sleb128 -176
	.byte	0
.LVUS251:
	.uleb128 .LVU202
	.uleb128 .LVU208
	.uleb128 .LVU208
	.uleb128 .LVU208
.LLST251:
	.byte	0x6
	.quad	.LVL46
	.byte	0x4
	.uleb128 .LVL46-.LVL46
	.uleb128 .LVL47-1-.LVL46
	.uleb128 0x1
	.byte	0x50
	.byte	0x4
	.uleb128 .LVL47-1-.LVL46
	.uleb128 .LVL47-.LVL46
	.uleb128 0x1
	.byte	0x5d
	.byte	0
.LVUS252:
	.uleb128 .LVU202
	.uleb128 .LVU207
	.uleb128 .LVU207
	.uleb128 .LVU208
.LLST252:
	.byte	0x6
	.quad	.LVL46
	.byte	0x4
	.uleb128 .LVL46-.LVL46
	.uleb128 .LVL46-.LVL46
	.uleb128 0x3
	.byte	0x91
	.sleb128 -176
	.byte	0x4
	.uleb128 .LVL46-.LVL46
	.uleb128 .LVL47-.LVL46
	.uleb128 0x7
	.byte	0x91
	.sleb128 -176
	.byte	0x6
	.byte	0x31
	.byte	0x1c
	.byte	0x9f
	.byte	0
.LVUS255:
	.uleb128 .LVU203
	.uleb128 .LVU204
.LLST255:
	.byte	0x8
	.quad	.LVL46
	.uleb128 .LVL46-.LVL46
	.uleb128 0x6
	.byte	0xa0
	.long	.Ldebug_info0+61280
	.sleb128 0
	.byte	0
.LVUS256:
	.uleb128 .LVU203
	.uleb128 .LVU204
.LLST256:
	.byte	0x8
	.quad	.LVL46
	.uleb128 .LVL46-.LVL46
	.uleb128 0x6
	.byte	0xa0
	.long	.Ldebug_info0+61249
	.sleb128 0
	.byte	0
.LVUS257:
	.uleb128 .LVU208
	.uleb128 .LVU210
.LLST257:
	.byte	0x8
	.quad	.LVL47
	.uleb128 .LVL47-.LVL47
	.uleb128 0x6
	.byte	0xa0
	.long	.Ldebug_info0+61280
	.sleb128 0
	.byte	0
.LVUS340:
	.uleb128 .LVU373
	.uleb128 .LVU411
	.uleb128 .LVU747
	.uleb128 .LVU767
	.uleb128 .LVU852
	.uleb128 .LVU872
	.uleb128 .LVU878
	.uleb128 .LVU879
.LLST340:
	.byte	0x6
	.quad	.LVL83
	.byte	0x4
	.uleb128 .LVL83-.LVL83
	.uleb128 .LVL88-.LVL83
	.uleb128 0x3
	.byte	0x91
	.sleb128 -168
	.byte	0x4
	.uleb128 .LVL148-.LVL83
	.uleb128 .LVL150-.LVL83
	.uleb128 0x3
	.byte	0x91
	.sleb128 -168
	.byte	0x4
	.uleb128 .LVL171-.LVL83
	.uleb128 .LVL173-.LVL83
	.uleb128 0x3
	.byte	0x91
	.sleb128 -168
	.byte	0x8
	.quad	.LVL179
	.uleb128 .LVL180-.LVL179
	.uleb128 0x3
	.byte	0x91
	.sleb128 -168
	.byte	0
.LVUS344:
	.uleb128 .LVU375
	.uleb128 .LVU382
	.uleb128 .LVU749
	.uleb128 .LVU756
	.uleb128 .LVU854
	.uleb128 .LVU861
	.uleb128 .LVU878
	.uleb128 .LVU879
.LLST344:
	.byte	0x6
	.quad	.LVL83
	.byte	0x4
	.uleb128 .LVL83-.LVL83
	.uleb128 .LVL84-.LVL83
	.uleb128 0x3
	.byte	0x91
	.sleb128 -168
	.byte	0x4
	.uleb128 .LVL148-.LVL83
	.uleb128 .LVL149-.LVL83
	.uleb128 0x3
	.byte	0x91
	.sleb128 -168
	.byte	0x4
	.uleb128 .LVL171-.LVL83
	.uleb128 .LVL172-.LVL83
	.uleb128 0x3
	.byte	0x91
	.sleb128 -168
	.byte	0x8
	.quad	.LVL179
	.uleb128 .LVL180-.LVL179
	.uleb128 0x3
	.byte	0x91
	.sleb128 -168
	.byte	0
.LVUS351:
	.uleb128 .LVU382
	.uleb128 .LVU398
	.uleb128 .LVU756
	.uleb128 .LVU767
	.uleb128 .LVU861
	.uleb128 .LVU872
.LLST351:
	.byte	0x6
	.quad	.LVL84
	.byte	0x4
	.uleb128 .LVL84-.LVL84
	.uleb128 .LVL86-.LVL84
	.uleb128 0x3
	.byte	0x91
	.sleb128 -168
	.byte	0x4
	.uleb128 .LVL149-.LVL84
	.uleb128 .LVL150-.LVL84
	.uleb128 0x3
	.byte	0x91
	.sleb128 -168
	.byte	0x4
	.uleb128 .LVL172-.LVL84
	.uleb128 .LVL173-.LVL84
	.uleb128 0x3
	.byte	0x91
	.sleb128 -168
	.byte	0
.LVUS360:
	.uleb128 .LVU389
	.uleb128 .LVU398
	.uleb128 .LVU763
	.uleb128 .LVU767
	.uleb128 .LVU868
	.uleb128 .LVU872
.LLST360:
	.byte	0x6
	.quad	.LVL84
	.byte	0x4
	.uleb128 .LVL84-.LVL84
	.uleb128 .LVL86-.LVL84
	.uleb128 0x3
	.byte	0x91
	.sleb128 -168
	.byte	0x4
	.uleb128 .LVL149-.LVL84
	.uleb128 .LVL150-.LVL84
	.uleb128 0x3
	.byte	0x91
	.sleb128 -168
	.byte	0x4
	.uleb128 .LVL172-.LVL84
	.uleb128 .LVL173-.LVL84
	.uleb128 0x3
	.byte	0x91
	.sleb128 -168
	.byte	0
.LVUS362:
	.uleb128 .LVU391
	.uleb128 .LVU398
	.uleb128 .LVU765
	.uleb128 .LVU767
	.uleb128 .LVU870
	.uleb128 .LVU872
.LLST362:
	.byte	0x6
	.quad	.LVL84
	.byte	0x4
	.uleb128 .LVL84-.LVL84
	.uleb128 .LVL86-.LVL84
	.uleb128 0x3
	.byte	0x91
	.sleb128 -168
	.byte	0x4
	.uleb128 .LVL149-.LVL84
	.uleb128 .LVL150-.LVL84
	.uleb128 0x3
	.byte	0x91
	.sleb128 -168
	.byte	0x4
	.uleb128 .LVL172-.LVL84
	.uleb128 .LVL173-.LVL84
	.uleb128 0x3
	.byte	0x91
	.sleb128 -168
	.byte	0
.LVUS363:
	.uleb128 .LVU394
	.uleb128 .LVU398
.LLST363:
	.byte	0x8
	.quad	.LVL85
	.uleb128 .LVL86-.LVL85
	.uleb128 0x3
	.byte	0x91
	.sleb128 -168
	.byte	0
.LVUS365:
	.uleb128 .LVU397
	.uleb128 .LVU398
.LLST365:
	.byte	0x8
	.quad	.LVL85
	.uleb128 .LVL86-.LVL85
	.uleb128 0x2
	.byte	0x30
	.byte	0x9f
	.byte	0
.LVUS366:
	.uleb128 .LVU396
	.uleb128 .LVU398
.LLST366:
	.byte	0x8
	.quad	.LVL85
	.uleb128 .LVL86-.LVL85
	.uleb128 0x3
	.byte	0x91
	.sleb128 -168
	.byte	0
.LVUS368:
	.uleb128 .LVU398
	.uleb128 .LVU411
.LLST368:
	.byte	0x8
	.quad	.LVL86
	.uleb128 .LVL88-.LVL86
	.uleb128 0x3
	.byte	0x91
	.sleb128 -168
	.byte	0
.LVUS370:
	.uleb128 .LVU400
	.uleb128 .LVU408
.LLST370:
	.byte	0x8
	.quad	.LVL86
	.uleb128 .LVL87-1-.LVL86
	.uleb128 0x1
	.byte	0x50
	.byte	0
.LVUS371:
	.uleb128 .LVU400
	.uleb128 .LVU411
.LLST371:
	.byte	0x8
	.quad	.LVL86
	.uleb128 .LVL88-.LVL86
	.uleb128 0x3
	.byte	0x91
	.sleb128 -168
	.byte	0
.LVUS373:
	.uleb128 .LVU401
	.uleb128 .LVU408
.LLST373:
	.byte	0x8
	.quad	.LVL86
	.uleb128 .LVL87-1-.LVL86
	.uleb128 0x1
	.byte	0x50
	.byte	0
.LVUS374:
	.uleb128 .LVU401
	.uleb128 .LVU411
.LLST374:
	.byte	0x8
	.quad	.LVL86
	.uleb128 .LVL88-.LVL86
	.uleb128 0x3
	.byte	0x91
	.sleb128 -168
	.byte	0
.LVUS377:
	.uleb128 .LVU402
	.uleb128 .LVU408
.LLST377:
	.byte	0x8
	.quad	.LVL86
	.uleb128 .LVL87-1-.LVL86
	.uleb128 0x1
	.byte	0x50
	.byte	0
.LVUS378:
	.uleb128 .LVU402
	.uleb128 .LVU407
	.uleb128 .LVU407
	.uleb128 .LVU411
.LLST378:
	.byte	0x6
	.quad	.LVL86
	.byte	0x4
	.uleb128 .LVL86-.LVL86
	.uleb128 .LVL86-.LVL86
	.uleb128 0x3
	.byte	0x91
	.sleb128 -168
	.byte	0x4
	.uleb128 .LVL86-.LVL86
	.uleb128 .LVL88-.LVL86
	.uleb128 0x7
	.byte	0x91
	.sleb128 -168
	.byte	0x6
	.byte	0x31
	.byte	0x1c
	.byte	0x9f
	.byte	0
.LVUS380:
	.uleb128 .LVU403
	.uleb128 .LVU404
.LLST380:
	.byte	0x8
	.quad	.LVL86
	.uleb128 .LVL86-.LVL86
	.uleb128 0x6
	.byte	0xa0
	.long	.Ldebug_info0+62484
	.sleb128 0
	.byte	0
.LVUS381:
	.uleb128 .LVU403
	.uleb128 .LVU404
.LLST381:
	.byte	0x8
	.quad	.LVL86
	.uleb128 .LVL86-.LVL86
	.uleb128 0x6
	.byte	0xa0
	.long	.Ldebug_info0+62453
	.sleb128 0
	.byte	0
.LVUS420:
	.uleb128 .LVU575
	.uleb128 .LVU591
.LLST420:
	.byte	0x8
	.quad	.LVL122
	.uleb128 .LVL124-.LVL122
	.uleb128 0x7
	.byte	0x91
	.sleb128 -176
	.byte	0x6
	.byte	0x34
	.byte	0x1b
	.byte	0x9f
	.byte	0
.LVUS421:
	.uleb128 .LVU575
	.uleb128 .LVU580
.LLST421:
	.byte	0x8
	.quad	.LVL122
	.uleb128 .LVL124-1-.LVL122
	.uleb128 0x1
	.byte	0x5a
	.byte	0
.LVUS422:
	.uleb128 .LVU575
	.uleb128 .LVU580
.LLST422:
	.byte	0x8
	.quad	.LVL122
	.uleb128 .LVL124-.LVL122
	.uleb128 0x7
	.byte	0x91
	.sleb128 -176
	.byte	0x6
	.byte	0x34
	.byte	0x1b
	.byte	0x9f
	.byte	0
.LVUS423:
	.uleb128 .LVU577
	.uleb128 .LVU580
.LLST423:
	.byte	0x8
	.quad	.LVL123
	.uleb128 .LVL124-1-.LVL123
	.uleb128 0x1
	.byte	0x5a
	.byte	0
.LVUS424:
	.uleb128 .LVU577
	.uleb128 .LVU580
.LLST424:
	.byte	0x8
	.quad	.LVL123
	.uleb128 .LVL124-.LVL123
	.uleb128 0x7
	.byte	0x91
	.sleb128 -176
	.byte	0x6
	.byte	0x34
	.byte	0x1b
	.byte	0x9f
	.byte	0
.LVUS425:
	.uleb128 .LVU578
	.uleb128 .LVU580
.LLST425:
	.byte	0x8
	.quad	.LVL123
	.uleb128 .LVL124-1-.LVL123
	.uleb128 0x1
	.byte	0x5a
	.byte	0
.LVUS426:
	.uleb128 .LVU578
	.uleb128 .LVU580
.LLST426:
	.byte	0x8
	.quad	.LVL123
	.uleb128 .LVL124-.LVL123
	.uleb128 0x7
	.byte	0x91
	.sleb128 -176
	.byte	0x6
	.byte	0x34
	.byte	0x1b
	.byte	0x9f
	.byte	0
.LVUS427:
	.uleb128 .LVU591
	.uleb128 .LVU596
.LLST427:
	.byte	0x8
	.quad	.LVL124
	.uleb128 .LVL126-.LVL124
	.uleb128 0x1
	.byte	0x5d
	.byte	0
.LVUS428:
	.uleb128 .LVU593
	.uleb128 .LVU596
.LLST428:
	.byte	0x8
	.quad	.LVL125
	.uleb128 .LVL126-.LVL125
	.uleb128 0x1
	.byte	0x5d
	.byte	0
.LVUS429:
	.uleb128 .LVU594
	.uleb128 .LVU596
.LLST429:
	.byte	0x8
	.quad	.LVL125
	.uleb128 .LVL126-.LVL125
	.uleb128 0x1
	.byte	0x5d
	.byte	0
.LVUS430:
	.uleb128 .LVU887
	.uleb128 .LVU905
.LLST430:
	.byte	0x8
	.quad	.LVL185
	.uleb128 .LVL187-.LVL185
	.uleb128 0x6
	.byte	0xa0
	.long	.Ldebug_info0+51244
	.sleb128 0
	.byte	0
.LVUS432:
	.uleb128 .LVU892
	.uleb128 .LVU905
.LLST432:
	.byte	0x8
	.quad	.LVL185
	.uleb128 .LVL187-.LVL185
	.uleb128 0x6
	.byte	0xa0
	.long	.Ldebug_info0+51244
	.sleb128 0
	.byte	0
.LVUS435:
	.uleb128 .LVU894
	.uleb128 .LVU901
.LLST435:
	.byte	0x8
	.quad	.LVL185
	.uleb128 .LVL187-.LVL185
	.uleb128 0x6
	.byte	0xa0
	.long	.Ldebug_info0+51244
	.sleb128 0
	.byte	0
.LVUS436:
	.uleb128 .LVU894
	.uleb128 .LVU901
.LLST436:
	.byte	0x8
	.quad	.LVL185
	.uleb128 .LVL187-.LVL185
	.uleb128 0x3
	.byte	0x91
	.sleb128 -216
	.byte	0
.LVUS438:
	.uleb128 .LVU897
	.uleb128 .LVU901
.LLST438:
	.byte	0x8
	.quad	.LVL186
	.uleb128 .LVL187-.LVL186
	.uleb128 0x6
	.byte	0xa0
	.long	.Ldebug_info0+51244
	.sleb128 0
	.byte	0
.LVUS439:
	.uleb128 .LVU896
	.uleb128 .LVU901
.LLST439:
	.byte	0x8
	.quad	.LVL186
	.uleb128 .LVL187-.LVL186
	.uleb128 0x3
	.byte	0x91
	.sleb128 -216
	.byte	0
.LVUS441:
	.uleb128 .LVU897
	.uleb128 .LVU901
.LLST441:
	.byte	0x8
	.quad	.LVL186
	.uleb128 .LVL187-.LVL186
	.uleb128 0x3
	.byte	0x91
	.sleb128 -216
	.byte	0
.LVUS443:
	.uleb128 .LVU898
	.uleb128 .LVU901
.LLST443:
	.byte	0x8
	.quad	.LVL186
	.uleb128 .LVL187-.LVL186
	.uleb128 0x3
	.byte	0x91
	.sleb128 -216
	.byte	0
.LVUS444:
	.uleb128 .LVU901
	.uleb128 .LVU905
.LLST444:
	.byte	0x8
	.quad	.LVL187
	.uleb128 .LVL187-.LVL187
	.uleb128 0x6
	.byte	0xa0
	.long	.Ldebug_info0+51244
	.sleb128 0
	.byte	0
.LVUS445:
	.uleb128 .LVU903
	.uleb128 .LVU905
.LLST445:
	.byte	0x8
	.quad	.LVL187
	.uleb128 .LVL187-.LVL187
	.uleb128 0x6
	.byte	0xa0
	.long	.Ldebug_info0+51244
	.sleb128 0
	.byte	0
.LVUS446:
	.uleb128 .LVU904
	.uleb128 .LVU905
.LLST446:
	.byte	0x8
	.quad	.LVL187
	.uleb128 .LVL187-.LVL187
	.uleb128 0x6
	.byte	0xa0
	.long	.Ldebug_info0+51244
	.sleb128 0
	.byte	0
.LVUS447:
	.uleb128 .LVU889
	.uleb128 .LVU890
.LLST447:
	.byte	0x8
	.quad	.LVL185
	.uleb128 .LVL185-.LVL185
	.uleb128 0x6
	.byte	0xa0
	.long	.Ldebug_info0+51244
	.sleb128 0
	.byte	0
.LVUS448:
	.uleb128 .LVU890
	.uleb128 .LVU892
.LLST448:
	.byte	0x8
	.quad	.LVL185
	.uleb128 .LVL185-.LVL185
	.uleb128 0x6
	.byte	0xa0
	.long	.Ldebug_info0+51244
	.sleb128 0
	.byte	0
.LVUS450:
	.uleb128 .LVU905
	.uleb128 .LVU924
.LLST450:
	.byte	0x8
	.quad	.LVL187
	.uleb128 .LVL190-.LVL187
	.uleb128 0x1
	.byte	0x53
	.byte	0
.LVUS451:
	.uleb128 .LVU907
	.uleb128 .LVU924
.LLST451:
	.byte	0x8
	.quad	.LVL187
	.uleb128 .LVL190-.LVL187
	.uleb128 0x3
	.byte	0x73
	.sleb128 16
	.byte	0x9f
	.byte	0
.LVUS452:
	.uleb128 .LVU908
	.uleb128 .LVU909
.LLST452:
	.byte	0x8
	.quad	.LVL187
	.uleb128 .LVL187-.LVL187
	.uleb128 0x3
	.byte	0x73
	.sleb128 16
	.byte	0x9f
	.byte	0
.LVUS453:
	.uleb128 .LVU909
	.uleb128 .LVU911
.LLST453:
	.byte	0x8
	.quad	.LVL187
	.uleb128 .LVL187-.LVL187
	.uleb128 0x2
	.byte	0x73
	.sleb128 16
	.byte	0
.LVUS454:
	.uleb128 .LVU909
	.uleb128 .LVU911
.LLST454:
	.byte	0x8
	.quad	.LVL187
	.uleb128 .LVL187-.LVL187
	.uleb128 0x2
	.byte	0x73
	.sleb128 24
	.byte	0
.LVUS455:
	.uleb128 .LVU909
	.uleb128 .LVU911
.LLST455:
	.byte	0x8
	.quad	.LVL187
	.uleb128 .LVL187-.LVL187
	.uleb128 0x3
	.byte	0x73
	.sleb128 16
	.byte	0x9f
	.byte	0
.LVUS457:
	.uleb128 .LVU911
	.uleb128 .LVU924
.LLST457:
	.byte	0x8
	.quad	.LVL187
	.uleb128 .LVL190-.LVL187
	.uleb128 0x3
	.byte	0x73
	.sleb128 16
	.byte	0x9f
	.byte	0
.LVUS459:
	.uleb128 .LVU914
	.uleb128 .LVU920
.LLST459:
	.byte	0x8
	.quad	.LVL188
	.uleb128 .LVL190-1-.LVL188
	.uleb128 0x7
	.byte	0x73
	.sleb128 32
	.byte	0x6
	.byte	0x75
	.sleb128 0
	.byte	0x1c
	.byte	0x9f
	.byte	0
.LVUS461:
	.uleb128 .LVU914
	.uleb128 .LVU920
.LLST461:
	.byte	0x8
	.quad	.LVL188
	.uleb128 .LVL190-.LVL188
	.uleb128 0x3
	.byte	0x73
	.sleb128 16
	.byte	0x9f
	.byte	0
.LVUS462:
	.uleb128 .LVU914
	.uleb128 .LVU920
.LLST462:
	.byte	0x8
	.quad	.LVL188
	.uleb128 .LVL190-1-.LVL188
	.uleb128 0x1
	.byte	0x55
	.byte	0
.LVUS465:
	.uleb128 .LVU916
	.uleb128 .LVU920
.LLST465:
	.byte	0x8
	.quad	.LVL189
	.uleb128 .LVL190-.LVL189
	.uleb128 0x3
	.byte	0x73
	.sleb128 16
	.byte	0x9f
	.byte	0
.LVUS466:
	.uleb128 .LVU916
	.uleb128 .LVU920
.LLST466:
	.byte	0x8
	.quad	.LVL189
	.uleb128 .LVL190-1-.LVL189
	.uleb128 0x1
	.byte	0x55
	.byte	0
.LVUS467:
	.uleb128 .LVU916
	.uleb128 .LVU920
.LLST467:
	.byte	0x8
	.quad	.LVL189
	.uleb128 .LVL190-1-.LVL189
	.uleb128 0x7
	.byte	0x73
	.sleb128 32
	.byte	0x6
	.byte	0x75
	.sleb128 0
	.byte	0x1c
	.byte	0x9f
	.byte	0
.LVUS468:
	.uleb128 .LVU917
	.uleb128 .LVU920
.LLST468:
	.byte	0x8
	.quad	.LVL189
	.uleb128 .LVL190-.LVL189
	.uleb128 0x3
	.byte	0x73
	.sleb128 16
	.byte	0x9f
	.byte	0
.LVUS469:
	.uleb128 .LVU917
	.uleb128 .LVU920
.LLST469:
	.byte	0x8
	.quad	.LVL189
	.uleb128 .LVL190-1-.LVL189
	.uleb128 0x1
	.byte	0x55
	.byte	0
.LVUS470:
	.uleb128 .LVU917
	.uleb128 .LVU920
.LLST470:
	.byte	0x8
	.quad	.LVL189
	.uleb128 .LVL190-1-.LVL189
	.uleb128 0x7
	.byte	0x73
	.sleb128 32
	.byte	0x6
	.byte	0x75
	.sleb128 0
	.byte	0x1c
	.byte	0x9f
	.byte	0
.LVUS471:
	.uleb128 .LVU920
	.uleb128 .LVU924
.LLST471:
	.byte	0x8
	.quad	.LVL190
	.uleb128 .LVL190-.LVL190
	.uleb128 0x3
	.byte	0x73
	.sleb128 16
	.byte	0x9f
	.byte	0
.LVUS472:
	.uleb128 .LVU922
	.uleb128 .LVU924
.LLST472:
	.byte	0x8
	.quad	.LVL190
	.uleb128 .LVL190-.LVL190
	.uleb128 0x3
	.byte	0x73
	.sleb128 16
	.byte	0x9f
	.byte	0
.LVUS473:
	.uleb128 .LVU923
	.uleb128 .LVU924
.LLST473:
	.byte	0x8
	.quad	.LVL190
	.uleb128 .LVL190-.LVL190
	.uleb128 0x3
	.byte	0x73
	.sleb128 16
	.byte	0x9f
	.byte	0
.LVUS476:
	.uleb128 .LVU933
	.uleb128 .LVU943
	.uleb128 .LVU947
	.uleb128 0
.LLST476:
	.byte	0x6
	.quad	.LVL192
	.byte	0x4
	.uleb128 .LVL192-.LVL192
	.uleb128 .LVL196-.LVL192
	.uleb128 0x7
	.byte	0x91
	.sleb128 -136
	.byte	0x6
	.byte	0x34
	.byte	0x1b
	.byte	0x9f
	.byte	0x4
	.uleb128 .LVL201-.LVL192
	.uleb128 .LFE4421-.LVL192
	.uleb128 0x7
	.byte	0x91
	.sleb128 -136
	.byte	0x6
	.byte	0x34
	.byte	0x1b
	.byte	0x9f
	.byte	0
.LVUS477:
	.uleb128 .LVU933
	.uleb128 .LVU938
	.uleb128 .LVU947
	.uleb128 0
.LLST477:
	.byte	0x6
	.quad	.LVL192
	.byte	0x4
	.uleb128 .LVL192-.LVL192
	.uleb128 .LVL195-.LVL192
	.uleb128 0x1
	.byte	0x5d
	.byte	0x4
	.uleb128 .LVL201-.LVL192
	.uleb128 .LFE4421-.LVL192
	.uleb128 0x1
	.byte	0x5d
	.byte	0
.LVUS478:
	.uleb128 .LVU933
	.uleb128 .LVU938
	.uleb128 .LVU947
	.uleb128 0
.LLST478:
	.byte	0x6
	.quad	.LVL192
	.byte	0x4
	.uleb128 .LVL192-.LVL192
	.uleb128 .LVL195-.LVL192
	.uleb128 0x7
	.byte	0x91
	.sleb128 -136
	.byte	0x6
	.byte	0x34
	.byte	0x1b
	.byte	0x9f
	.byte	0x4
	.uleb128 .LVL201-.LVL192
	.uleb128 .LFE4421-.LVL192
	.uleb128 0x7
	.byte	0x91
	.sleb128 -136
	.byte	0x6
	.byte	0x34
	.byte	0x1b
	.byte	0x9f
	.byte	0
.LVUS479:
	.uleb128 .LVU935
	.uleb128 .LVU938
.LLST479:
	.byte	0x8
	.quad	.LVL193
	.uleb128 .LVL195-.LVL193
	.uleb128 0x1
	.byte	0x5d
	.byte	0
.LVUS480:
	.uleb128 .LVU935
	.uleb128 .LVU938
.LLST480:
	.byte	0x8
	.quad	.LVL193
	.uleb128 .LVL195-.LVL193
	.uleb128 0x7
	.byte	0x91
	.sleb128 -136
	.byte	0x6
	.byte	0x34
	.byte	0x1b
	.byte	0x9f
	.byte	0
.LVUS481:
	.uleb128 .LVU936
	.uleb128 .LVU938
.LLST481:
	.byte	0x8
	.quad	.LVL193
	.uleb128 .LVL195-.LVL193
	.uleb128 0x1
	.byte	0x5d
	.byte	0
.LVUS482:
	.uleb128 .LVU936
	.uleb128 .LVU938
.LLST482:
	.byte	0x8
	.quad	.LVL193
	.uleb128 .LVL195-.LVL193
	.uleb128 0x7
	.byte	0x91
	.sleb128 -136
	.byte	0x6
	.byte	0x34
	.byte	0x1b
	.byte	0x9f
	.byte	0
.Ldebug_loc3:
	.section	.debug_aranges,"",@progbits
	.long	0x3c
	.value	0x2
	.long	.Ldebug_info0
	.byte	0x8
	.byte	0
	.value	0
	.value	0
	.quad	.Ltext0
	.quad	.Letext0-.Ltext0
	.quad	.Ltext_cold0
	.quad	.Letext_cold0-.Ltext_cold0
	.quad	0
	.quad	0
	.section	.debug_rnglists,"",@progbits
.Ldebug_ranges0:
	.long	.Ldebug_ranges3-.Ldebug_ranges2
.Ldebug_ranges2:
	.value	0x5
	.byte	0x8
	.byte	0
	.long	0
.LLRL0:
	.byte	0x7
	.quad	.LFB4421
	.uleb128 .LHOTE7-.LFB4421
	.byte	0x7
	.quad	.LFSB4421
	.uleb128 .LCOLDE7-.LFSB4421
	.byte	0
.LLRL5:
	.byte	0x5
	.quad	.LBB1815
	.byte	0x4
	.uleb128 .LBB1815-.LBB1815
	.uleb128 .LBE1815-.LBB1815
	.byte	0x4
	.uleb128 .LBB1839-.LBB1815
	.uleb128 .LBE1839-.LBB1815
	.byte	0x4
	.uleb128 .LBB1843-.LBB1815
	.uleb128 .LBE1843-.LBB1815
	.byte	0
.LLRL10:
	.byte	0x5
	.quad	.LBB1819
	.byte	0x4
	.uleb128 .LBB1819-.LBB1819
	.uleb128 .LBE1819-.LBB1819
	.byte	0x4
	.uleb128 .LBB1822-.LBB1819
	.uleb128 .LBE1822-.LBB1819
	.byte	0x4
	.uleb128 .LBB1825-.LBB1819
	.uleb128 .LBE1825-.LBB1819
	.byte	0
.LLRL14:
	.byte	0x5
	.quad	.LBB1832
	.byte	0x4
	.uleb128 .LBB1832-.LBB1832
	.uleb128 .LBE1832-.LBB1832
	.byte	0x4
	.uleb128 .LBB1838-.LBB1832
	.uleb128 .LBE1838-.LBB1832
	.byte	0
.LLRL21:
	.byte	0x5
	.quad	.LBB1844
	.byte	0x4
	.uleb128 .LBB1844-.LBB1844
	.uleb128 .LBE1844-.LBB1844
	.byte	0x4
	.uleb128 .LBB2536-.LBB1844
	.uleb128 .LBE2536-.LBB1844
	.byte	0x4
	.uleb128 .LBB2538-.LBB1844
	.uleb128 .LBE2538-.LBB1844
	.byte	0x4
	.uleb128 .LBB2540-.LBB1844
	.uleb128 .LBE2540-.LBB1844
	.byte	0x7
	.quad	.LBB2565
	.uleb128 .LBE2565-.LBB2565
	.byte	0
.LLRL28:
	.byte	0x5
	.quad	.LBB1848
	.byte	0x4
	.uleb128 .LBB1848-.LBB1848
	.uleb128 .LBE1848-.LBB1848
	.byte	0x4
	.uleb128 .LBB1918-.LBB1848
	.uleb128 .LBE1918-.LBB1848
	.byte	0x4
	.uleb128 .LBB1919-.LBB1848
	.uleb128 .LBE1919-.LBB1848
	.byte	0x7
	.quad	.LBB1920
	.uleb128 .LBE1920-.LBB1920
	.byte	0
.LLRL29:
	.byte	0x7
	.quad	.LBB1849
	.uleb128 .LBE1849-.LBB1849
	.byte	0x7
	.quad	.LBB1917
	.uleb128 .LBE1917-.LBB1917
	.byte	0
.LLRL34:
	.byte	0x7
	.quad	.LBB1850
	.uleb128 .LBE1850-.LBB1850
	.byte	0x7
	.quad	.LBB1895
	.uleb128 .LBE1895-.LBB1895
	.byte	0
.LLRL39:
	.byte	0x5
	.quad	.LBB1857
	.byte	0x4
	.uleb128 .LBB1857-.LBB1857
	.uleb128 .LBE1857-.LBB1857
	.byte	0x4
	.uleb128 .LBB1891-.LBB1857
	.uleb128 .LBE1891-.LBB1857
	.byte	0x4
	.uleb128 .LBB1893-.LBB1857
	.uleb128 .LBE1893-.LBB1857
	.byte	0
.LLRL50:
	.byte	0x5
	.quad	.LBB1862
	.byte	0x4
	.uleb128 .LBB1862-.LBB1862
	.uleb128 .LBE1862-.LBB1862
	.byte	0x4
	.uleb128 .LBB1876-.LBB1862
	.uleb128 .LBE1876-.LBB1862
	.byte	0x4
	.uleb128 .LBB1877-.LBB1862
	.uleb128 .LBE1877-.LBB1862
	.byte	0
.LLRL53:
	.byte	0x5
	.quad	.LBB1864
	.byte	0x4
	.uleb128 .LBB1864-.LBB1864
	.uleb128 .LBE1864-.LBB1864
	.byte	0x4
	.uleb128 .LBB1873-.LBB1864
	.uleb128 .LBE1873-.LBB1864
	.byte	0
.LLRL56:
	.byte	0x5
	.quad	.LBB1866
	.byte	0x4
	.uleb128 .LBB1866-.LBB1866
	.uleb128 .LBE1866-.LBB1866
	.byte	0x4
	.uleb128 .LBB1871-.LBB1866
	.uleb128 .LBE1871-.LBB1866
	.byte	0
.LLRL59:
	.byte	0x5
	.quad	.LBB1867
	.byte	0x4
	.uleb128 .LBB1867-.LBB1867
	.uleb128 .LBE1867-.LBB1867
	.byte	0x4
	.uleb128 .LBB1870-.LBB1867
	.uleb128 .LBE1870-.LBB1867
	.byte	0
.LLRL63:
	.byte	0x5
	.quad	.LBB1878
	.byte	0x4
	.uleb128 .LBB1878-.LBB1878
	.uleb128 .LBE1878-.LBB1878
	.byte	0x4
	.uleb128 .LBB1892-.LBB1878
	.uleb128 .LBE1892-.LBB1878
	.byte	0x4
	.uleb128 .LBB1894-.LBB1878
	.uleb128 .LBE1894-.LBB1878
	.byte	0
.LLRL74:
	.byte	0x5
	.quad	.LBB1882
	.byte	0x4
	.uleb128 .LBB1882-.LBB1882
	.uleb128 .LBE1882-.LBB1882
	.byte	0x4
	.uleb128 .LBB1885-.LBB1882
	.uleb128 .LBE1885-.LBB1882
	.byte	0
.LLRL75:
	.byte	0x5
	.quad	.LBB1883
	.byte	0x4
	.uleb128 .LBB1883-.LBB1883
	.uleb128 .LBE1883-.LBB1883
	.byte	0x4
	.uleb128 .LBB1884-.LBB1883
	.uleb128 .LBE1884-.LBB1883
	.byte	0
.LLRL77:
	.byte	0x5
	.quad	.LBB1896
	.byte	0x4
	.uleb128 .LBB1896-.LBB1896
	.uleb128 .LBE1896-.LBB1896
	.byte	0x4
	.uleb128 .LBB1906-.LBB1896
	.uleb128 .LBE1906-.LBB1896
	.byte	0x4
	.uleb128 .LBB1907-.LBB1896
	.uleb128 .LBE1907-.LBB1896
	.byte	0
.LLRL81:
	.byte	0x5
	.quad	.LBB1899
	.byte	0x4
	.uleb128 .LBB1899-.LBB1899
	.uleb128 .LBE1899-.LBB1899
	.byte	0x4
	.uleb128 .LBB1902-.LBB1899
	.uleb128 .LBE1902-.LBB1899
	.byte	0x4
	.uleb128 .LBB1903-.LBB1899
	.uleb128 .LBE1903-.LBB1899
	.byte	0
.LLRL95:
	.byte	0x5
	.quad	.LBB1933
	.byte	0x4
	.uleb128 .LBB1933-.LBB1933
	.uleb128 .LBE1933-.LBB1933
	.byte	0x4
	.uleb128 .LBB2130-.LBB1933
	.uleb128 .LBE2130-.LBB1933
	.byte	0x4
	.uleb128 .LBB2530-.LBB1933
	.uleb128 .LBE2530-.LBB1933
	.byte	0x4
	.uleb128 .LBB2532-.LBB1933
	.uleb128 .LBE2532-.LBB1933
	.byte	0x4
	.uleb128 .LBB2534-.LBB1933
	.uleb128 .LBE2534-.LBB1933
	.byte	0x4
	.uleb128 .LBB2541-.LBB1933
	.uleb128 .LBE2541-.LBB1933
	.byte	0x4
	.uleb128 .LBB2546-.LBB1933
	.uleb128 .LBE2546-.LBB1933
	.byte	0
.LLRL99:
	.byte	0x5
	.quad	.LBB1936
	.byte	0x4
	.uleb128 .LBB1936-.LBB1936
	.uleb128 .LBE1936-.LBB1936
	.byte	0x4
	.uleb128 .LBB1949-.LBB1936
	.uleb128 .LBE1949-.LBB1936
	.byte	0
.LLRL102:
	.byte	0x5
	.quad	.LBB1939
	.byte	0x4
	.uleb128 .LBB1939-.LBB1939
	.uleb128 .LBE1939-.LBB1939
	.byte	0x4
	.uleb128 .LBB1945-.LBB1939
	.uleb128 .LBE1945-.LBB1939
	.byte	0x4
	.uleb128 .LBB1946-.LBB1939
	.uleb128 .LBE1946-.LBB1939
	.byte	0x4
	.uleb128 .LBB1947-.LBB1939
	.uleb128 .LBE1947-.LBB1939
	.byte	0x4
	.uleb128 .LBB1948-.LBB1939
	.uleb128 .LBE1948-.LBB1939
	.byte	0x4
	.uleb128 .LBB1950-.LBB1939
	.uleb128 .LBE1950-.LBB1939
	.byte	0x4
	.uleb128 .LBB1951-.LBB1939
	.uleb128 .LBE1951-.LBB1939
	.byte	0
.LLRL104:
	.byte	0x5
	.quad	.LBB1964
	.byte	0x4
	.uleb128 .LBB1964-.LBB1964
	.uleb128 .LBE1964-.LBB1964
	.byte	0x4
	.uleb128 .LBB1984-.LBB1964
	.uleb128 .LBE1984-.LBB1964
	.byte	0x4
	.uleb128 .LBB2539-.LBB1964
	.uleb128 .LBE2539-.LBB1964
	.byte	0x4
	.uleb128 .LBB2542-.LBB1964
	.uleb128 .LBE2542-.LBB1964
	.byte	0x4
	.uleb128 .LBB2544-.LBB1964
	.uleb128 .LBE2544-.LBB1964
	.byte	0
.LLRL106:
	.byte	0x5
	.quad	.LBB1969
	.byte	0x4
	.uleb128 .LBB1969-.LBB1969
	.uleb128 .LBE1969-.LBB1969
	.byte	0x4
	.uleb128 .LBB1985-.LBB1969
	.uleb128 .LBE1985-.LBB1969
	.byte	0x4
	.uleb128 .LBB2537-.LBB1969
	.uleb128 .LBE2537-.LBB1969
	.byte	0x4
	.uleb128 .LBB2543-.LBB1969
	.uleb128 .LBE2543-.LBB1969
	.byte	0x4
	.uleb128 .LBB2545-.LBB1969
	.uleb128 .LBE2545-.LBB1969
	.byte	0
.LLRL112:
	.byte	0x5
	.quad	.LBB1974
	.byte	0x4
	.uleb128 .LBB1974-.LBB1974
	.uleb128 .LBE1974-.LBB1974
	.byte	0x4
	.uleb128 .LBB1979-.LBB1974
	.uleb128 .LBE1979-.LBB1974
	.byte	0
.LLRL116:
	.byte	0x5
	.quad	.LBB1986
	.byte	0x4
	.uleb128 .LBB1986-.LBB1986
	.uleb128 .LBE1986-.LBB1986
	.byte	0x4
	.uleb128 .LBB2131-.LBB1986
	.uleb128 .LBE2131-.LBB1986
	.byte	0x4
	.uleb128 .LBB2531-.LBB1986
	.uleb128 .LBE2531-.LBB1986
	.byte	0x4
	.uleb128 .LBB2533-.LBB1986
	.uleb128 .LBE2533-.LBB1986
	.byte	0x4
	.uleb128 .LBB2554-.LBB1986
	.uleb128 .LBE2554-.LBB1986
	.byte	0x4
	.uleb128 .LBB2557-.LBB1986
	.uleb128 .LBE2557-.LBB1986
	.byte	0x7
	.quad	.LBB2564
	.uleb128 .LBE2564-.LBB2564
	.byte	0
.LLRL119:
	.byte	0x5
	.quad	.LBB1987
	.byte	0x4
	.uleb128 .LBB1987-.LBB1987
	.uleb128 .LBE1987-.LBB1987
	.byte	0x4
	.uleb128 .LBB2126-.LBB1987
	.uleb128 .LBE2126-.LBB1987
	.byte	0
.LLRL122:
	.byte	0x5
	.quad	.LBB1990
	.byte	0x4
	.uleb128 .LBB1990-.LBB1990
	.uleb128 .LBE1990-.LBB1990
	.byte	0x4
	.uleb128 .LBB2127-.LBB1990
	.uleb128 .LBE2127-.LBB1990
	.byte	0
.LLRL125:
	.byte	0x5
	.quad	.LBB1993
	.byte	0x4
	.uleb128 .LBB1993-.LBB1993
	.uleb128 .LBE1993-.LBB1993
	.byte	0x4
	.uleb128 .LBB2128-.LBB1993
	.uleb128 .LBE2128-.LBB1993
	.byte	0x7
	.quad	.LBB2129
	.uleb128 .LBE2129-.LBB2129
	.byte	0
.LLRL133:
	.byte	0x5
	.quad	.LBB1999
	.byte	0x4
	.uleb128 .LBB1999-.LBB1999
	.uleb128 .LBE1999-.LBB1999
	.byte	0x4
	.uleb128 .LBB2001-.LBB1999
	.uleb128 .LBE2001-.LBB1999
	.byte	0
.LLRL135:
	.byte	0x5
	.quad	.LBB2003
	.byte	0x4
	.uleb128 .LBB2003-.LBB2003
	.uleb128 .LBE2003-.LBB2003
	.byte	0x4
	.uleb128 .LBB2005-.LBB2003
	.uleb128 .LBE2005-.LBB2003
	.byte	0
.LLRL137:
	.byte	0x5
	.quad	.LBB2006
	.byte	0x4
	.uleb128 .LBB2006-.LBB2006
	.uleb128 .LBE2006-.LBB2006
	.byte	0x4
	.uleb128 .LBB2009-.LBB2006
	.uleb128 .LBE2009-.LBB2006
	.byte	0x4
	.uleb128 .LBB2010-.LBB2006
	.uleb128 .LBE2010-.LBB2006
	.byte	0
.LLRL139:
	.byte	0x5
	.quad	.LBB2011
	.byte	0x4
	.uleb128 .LBB2011-.LBB2011
	.uleb128 .LBE2011-.LBB2011
	.byte	0x4
	.uleb128 .LBB2122-.LBB2011
	.uleb128 .LBE2122-.LBB2011
	.byte	0x7
	.quad	.LBB2123
	.uleb128 .LBE2123-.LBB2123
	.byte	0
.LLRL142:
	.byte	0x5
	.quad	.LBB2013
	.byte	0x4
	.uleb128 .LBB2013-.LBB2013
	.uleb128 .LBE2013-.LBB2013
	.byte	0x4
	.uleb128 .LBB2018-.LBB2013
	.uleb128 .LBE2018-.LBB2013
	.byte	0
.LLRL147:
	.byte	0x7
	.quad	.LBB2019
	.uleb128 .LBE2019-.LBB2019
	.byte	0x7
	.quad	.LBB2119
	.uleb128 .LBE2119-.LBB2119
	.byte	0
.LLRL155:
	.byte	0x5
	.quad	.LBB2021
	.byte	0x4
	.uleb128 .LBB2021-.LBB2021
	.uleb128 .LBE2021-.LBB2021
	.byte	0x4
	.uleb128 .LBB2046-.LBB2021
	.uleb128 .LBE2046-.LBB2021
	.byte	0x7
	.quad	.LBB2117
	.uleb128 .LBE2117-.LBB2117
	.byte	0
.LLRL161:
	.byte	0x5
	.quad	.LBB2025
	.byte	0x4
	.uleb128 .LBB2025-.LBB2025
	.uleb128 .LBE2025-.LBB2025
	.byte	0x4
	.uleb128 .LBB2027-.LBB2025
	.uleb128 .LBE2027-.LBB2025
	.byte	0
.LLRL163:
	.byte	0x5
	.quad	.LBB2030
	.byte	0x4
	.uleb128 .LBB2030-.LBB2030
	.uleb128 .LBE2030-.LBB2030
	.byte	0x4
	.uleb128 .LBB2047-.LBB2030
	.uleb128 .LBE2047-.LBB2030
	.byte	0x4
	.uleb128 .LBB2113-.LBB2030
	.uleb128 .LBE2113-.LBB2030
	.byte	0x4
	.uleb128 .LBB2115-.LBB2030
	.uleb128 .LBE2115-.LBB2030
	.byte	0
.LLRL165:
	.byte	0x5
	.quad	.LBB2032
	.byte	0x4
	.uleb128 .LBB2032-.LBB2032
	.uleb128 .LBE2032-.LBB2032
	.byte	0x4
	.uleb128 .LBB2040-.LBB2032
	.uleb128 .LBE2040-.LBB2032
	.byte	0x4
	.uleb128 .LBB2041-.LBB2032
	.uleb128 .LBE2041-.LBB2032
	.byte	0x4
	.uleb128 .LBB2042-.LBB2032
	.uleb128 .LBE2042-.LBB2032
	.byte	0
.LLRL167:
	.byte	0x5
	.quad	.LBB2033
	.byte	0x4
	.uleb128 .LBB2033-.LBB2033
	.uleb128 .LBE2033-.LBB2033
	.byte	0x4
	.uleb128 .LBB2037-.LBB2033
	.uleb128 .LBE2037-.LBB2033
	.byte	0x4
	.uleb128 .LBB2038-.LBB2033
	.uleb128 .LBE2038-.LBB2033
	.byte	0x4
	.uleb128 .LBB2039-.LBB2033
	.uleb128 .LBE2039-.LBB2033
	.byte	0
.LLRL170:
	.byte	0x5
	.quad	.LBB2048
	.byte	0x4
	.uleb128 .LBB2048-.LBB2048
	.uleb128 .LBE2048-.LBB2048
	.byte	0x4
	.uleb128 .LBB2114-.LBB2048
	.uleb128 .LBE2114-.LBB2048
	.byte	0x4
	.uleb128 .LBB2116-.LBB2048
	.uleb128 .LBE2116-.LBB2048
	.byte	0
.LLRL171:
	.byte	0x5
	.quad	.LBB2049
	.byte	0x4
	.uleb128 .LBB2049-.LBB2049
	.uleb128 .LBE2049-.LBB2049
	.byte	0x4
	.uleb128 .LBB2077-.LBB2049
	.uleb128 .LBE2077-.LBB2049
	.byte	0x4
	.uleb128 .LBB2078-.LBB2049
	.uleb128 .LBE2078-.LBB2049
	.byte	0x4
	.uleb128 .LBB2080-.LBB2049
	.uleb128 .LBE2080-.LBB2049
	.byte	0x4
	.uleb128 .LBB2082-.LBB2049
	.uleb128 .LBE2082-.LBB2049
	.byte	0x4
	.uleb128 .LBB2084-.LBB2049
	.uleb128 .LBE2084-.LBB2049
	.byte	0x4
	.uleb128 .LBB2086-.LBB2049
	.uleb128 .LBE2086-.LBB2049
	.byte	0
.LLRL178:
	.byte	0x5
	.quad	.LBB2064
	.byte	0x4
	.uleb128 .LBB2064-.LBB2064
	.uleb128 .LBE2064-.LBB2064
	.byte	0x4
	.uleb128 .LBB2079-.LBB2064
	.uleb128 .LBE2079-.LBB2064
	.byte	0x4
	.uleb128 .LBB2081-.LBB2064
	.uleb128 .LBE2081-.LBB2064
	.byte	0x4
	.uleb128 .LBB2083-.LBB2064
	.uleb128 .LBE2083-.LBB2064
	.byte	0x4
	.uleb128 .LBB2085-.LBB2064
	.uleb128 .LBE2085-.LBB2064
	.byte	0x4
	.uleb128 .LBB2087-.LBB2064
	.uleb128 .LBE2087-.LBB2064
	.byte	0
.LLRL189:
	.byte	0x5
	.quad	.LBB2088
	.byte	0x4
	.uleb128 .LBB2088-.LBB2088
	.uleb128 .LBE2088-.LBB2088
	.byte	0x4
	.uleb128 .LBB2111-.LBB2088
	.uleb128 .LBE2111-.LBB2088
	.byte	0x4
	.uleb128 .LBB2112-.LBB2088
	.uleb128 .LBE2112-.LBB2088
	.byte	0
.LLRL191:
	.byte	0x5
	.quad	.LBB2090
	.byte	0x4
	.uleb128 .LBB2090-.LBB2090
	.uleb128 .LBE2090-.LBB2090
	.byte	0x4
	.uleb128 .LBB2108-.LBB2090
	.uleb128 .LBE2108-.LBB2090
	.byte	0
.LLRL193:
	.byte	0x5
	.quad	.LBB2092
	.byte	0x4
	.uleb128 .LBB2092-.LBB2092
	.uleb128 .LBE2092-.LBB2092
	.byte	0x4
	.uleb128 .LBB2104-.LBB2092
	.uleb128 .LBE2104-.LBB2092
	.byte	0x4
	.uleb128 .LBB2105-.LBB2092
	.uleb128 .LBE2105-.LBB2092
	.byte	0
.LLRL195:
	.byte	0x5
	.quad	.LBB2094
	.byte	0x4
	.uleb128 .LBB2094-.LBB2094
	.uleb128 .LBE2094-.LBB2094
	.byte	0x4
	.uleb128 .LBB2100-.LBB2094
	.uleb128 .LBE2100-.LBB2094
	.byte	0x4
	.uleb128 .LBB2101-.LBB2094
	.uleb128 .LBE2101-.LBB2094
	.byte	0
.LLRL197:
	.byte	0x5
	.quad	.LBB2095
	.byte	0x4
	.uleb128 .LBB2095-.LBB2095
	.uleb128 .LBE2095-.LBB2095
	.byte	0x4
	.uleb128 .LBB2098-.LBB2095
	.uleb128 .LBE2098-.LBB2095
	.byte	0x4
	.uleb128 .LBB2099-.LBB2095
	.uleb128 .LBE2099-.LBB2095
	.byte	0
.LLRL200:
	.byte	0x5
	.quad	.LBB2132
	.byte	0x4
	.uleb128 .LBB2132-.LBB2132
	.uleb128 .LBE2132-.LBB2132
	.byte	0x4
	.uleb128 .LBB2529-.LBB2132
	.uleb128 .LBE2529-.LBB2132
	.byte	0
.LLRL202:
	.byte	0x5
	.quad	.LBB2133
	.byte	0x4
	.uleb128 .LBB2133-.LBB2133
	.uleb128 .LBE2133-.LBB2133
	.byte	0x4
	.uleb128 .LBB2148-.LBB2133
	.uleb128 .LBE2148-.LBB2133
	.byte	0
.LLRL204:
	.byte	0x5
	.quad	.LBB2134
	.byte	0x4
	.uleb128 .LBB2134-.LBB2134
	.uleb128 .LBE2134-.LBB2134
	.byte	0x4
	.uleb128 .LBB2142-.LBB2134
	.uleb128 .LBE2142-.LBB2134
	.byte	0
.LLRL218:
	.byte	0x5
	.quad	.LBB2151
	.byte	0x4
	.uleb128 .LBB2151-.LBB2151
	.uleb128 .LBE2151-.LBB2151
	.byte	0x4
	.uleb128 .LBB2535-.LBB2151
	.uleb128 .LBE2535-.LBB2151
	.byte	0x7
	.quad	.LBB2562
	.uleb128 .LBE2562-.LBB2562
	.byte	0
.LLRL222:
	.byte	0x7
	.quad	.LBB2152
	.uleb128 .LBE2152-.LBB2152
	.byte	0x7
	.quad	.LBB2202
	.uleb128 .LBE2202-.LBB2202
	.byte	0
.LLRL227:
	.byte	0x5
	.quad	.LBB2159
	.byte	0x4
	.uleb128 .LBB2159-.LBB2159
	.uleb128 .LBE2159-.LBB2159
	.byte	0x4
	.uleb128 .LBB2199-.LBB2159
	.uleb128 .LBE2199-.LBB2159
	.byte	0x4
	.uleb128 .LBB2201-.LBB2159
	.uleb128 .LBE2201-.LBB2159
	.byte	0
.LLRL233:
	.byte	0x5
	.quad	.LBB2164
	.byte	0x4
	.uleb128 .LBB2164-.LBB2164
	.uleb128 .LBE2164-.LBB2164
	.byte	0x4
	.uleb128 .LBB2180-.LBB2164
	.uleb128 .LBE2180-.LBB2164
	.byte	0x4
	.uleb128 .LBB2181-.LBB2164
	.uleb128 .LBE2181-.LBB2164
	.byte	0
.LLRL235:
	.byte	0x5
	.quad	.LBB2166
	.byte	0x4
	.uleb128 .LBB2166-.LBB2166
	.uleb128 .LBE2166-.LBB2166
	.byte	0x4
	.uleb128 .LBB2176-.LBB2166
	.uleb128 .LBE2176-.LBB2166
	.byte	0x4
	.uleb128 .LBB2177-.LBB2166
	.uleb128 .LBE2177-.LBB2166
	.byte	0
.LLRL237:
	.byte	0x5
	.quad	.LBB2168
	.byte	0x4
	.uleb128 .LBB2168-.LBB2168
	.uleb128 .LBE2168-.LBB2168
	.byte	0x4
	.uleb128 .LBB2173-.LBB2168
	.uleb128 .LBE2173-.LBB2168
	.byte	0
.LLRL241:
	.byte	0x5
	.quad	.LBB2182
	.byte	0x4
	.uleb128 .LBB2182-.LBB2182
	.uleb128 .LBE2182-.LBB2182
	.byte	0x4
	.uleb128 .LBB2200-.LBB2182
	.uleb128 .LBE2200-.LBB2182
	.byte	0
.LLRL250:
	.byte	0x5
	.quad	.LBB2186
	.byte	0x4
	.uleb128 .LBB2186-.LBB2186
	.uleb128 .LBE2186-.LBB2186
	.byte	0x4
	.uleb128 .LBB2195-.LBB2186
	.uleb128 .LBE2195-.LBB2186
	.byte	0
.LLRL254:
	.byte	0x5
	.quad	.LBB2188
	.byte	0x4
	.uleb128 .LBB2188-.LBB2188
	.uleb128 .LBE2188-.LBB2188
	.byte	0x4
	.uleb128 .LBB2192-.LBB2188
	.uleb128 .LBE2192-.LBB2188
	.byte	0
.LLRL260:
	.byte	0x5
	.quad	.LBB2205
	.byte	0x4
	.uleb128 .LBB2205-.LBB2205
	.uleb128 .LBE2205-.LBB2205
	.byte	0x4
	.uleb128 .LBB2551-.LBB2205
	.uleb128 .LBE2551-.LBB2205
	.byte	0x4
	.uleb128 .LBB2556-.LBB2205
	.uleb128 .LBE2556-.LBB2205
	.byte	0x4
	.uleb128 .LBB2558-.LBB2205
	.uleb128 .LBE2558-.LBB2205
	.byte	0x7
	.quad	.LBB2566
	.uleb128 .LBE2566-.LBB2566
	.byte	0
.LLRL263:
	.byte	0x5
	.quad	.LBB2208
	.byte	0x4
	.uleb128 .LBB2208-.LBB2208
	.uleb128 .LBE2208-.LBB2208
	.byte	0x4
	.uleb128 .LBB2297-.LBB2208
	.uleb128 .LBE2297-.LBB2208
	.byte	0x4
	.uleb128 .LBB2338-.LBB2208
	.uleb128 .LBE2338-.LBB2208
	.byte	0x4
	.uleb128 .LBB2341-.LBB2208
	.uleb128 .LBE2341-.LBB2208
	.byte	0x7
	.quad	.LBB2347
	.uleb128 .LBE2347-.LBB2347
	.byte	0
.LLRL267:
	.byte	0x7
	.quad	.LBB2209
	.uleb128 .LBE2209-.LBB2209
	.byte	0x7
	.quad	.LBB2276
	.uleb128 .LBE2276-.LBB2276
	.byte	0
.LLRL272:
	.byte	0x5
	.quad	.LBB2216
	.byte	0x4
	.uleb128 .LBB2216-.LBB2216
	.uleb128 .LBE2216-.LBB2216
	.byte	0x4
	.uleb128 .LBB2271-.LBB2216
	.uleb128 .LBE2271-.LBB2216
	.byte	0x4
	.uleb128 .LBB2275-.LBB2216
	.uleb128 .LBE2275-.LBB2216
	.byte	0
.LLRL278:
	.byte	0x5
	.quad	.LBB2221
	.byte	0x4
	.uleb128 .LBB2221-.LBB2221
	.uleb128 .LBE2221-.LBB2221
	.byte	0x4
	.uleb128 .LBB2239-.LBB2221
	.uleb128 .LBE2239-.LBB2221
	.byte	0x4
	.uleb128 .LBB2240-.LBB2221
	.uleb128 .LBE2240-.LBB2221
	.byte	0
.LLRL280:
	.byte	0x5
	.quad	.LBB2223
	.byte	0x4
	.uleb128 .LBB2223-.LBB2223
	.uleb128 .LBE2223-.LBB2223
	.byte	0x4
	.uleb128 .LBB2235-.LBB2223
	.uleb128 .LBE2235-.LBB2223
	.byte	0x4
	.uleb128 .LBB2236-.LBB2223
	.uleb128 .LBE2236-.LBB2223
	.byte	0
.LLRL282:
	.byte	0x5
	.quad	.LBB2225
	.byte	0x4
	.uleb128 .LBB2225-.LBB2225
	.uleb128 .LBE2225-.LBB2225
	.byte	0x4
	.uleb128 .LBB2232-.LBB2225
	.uleb128 .LBE2232-.LBB2225
	.byte	0
.LLRL283:
	.byte	0x5
	.quad	.LBB2226
	.byte	0x4
	.uleb128 .LBB2226-.LBB2226
	.uleb128 .LBE2226-.LBB2226
	.byte	0x4
	.uleb128 .LBB2230-.LBB2226
	.uleb128 .LBE2230-.LBB2226
	.byte	0x4
	.uleb128 .LBB2231-.LBB2226
	.uleb128 .LBE2231-.LBB2226
	.byte	0
.LLRL285:
	.byte	0x5
	.quad	.LBB2241
	.byte	0x4
	.uleb128 .LBB2241-.LBB2241
	.uleb128 .LBE2241-.LBB2241
	.byte	0x4
	.uleb128 .LBB2272-.LBB2241
	.uleb128 .LBE2272-.LBB2241
	.byte	0x4
	.uleb128 .LBB2273-.LBB2241
	.uleb128 .LBE2273-.LBB2241
	.byte	0x4
	.uleb128 .LBB2274-.LBB2241
	.uleb128 .LBE2274-.LBB2241
	.byte	0
.LLRL294:
	.byte	0x5
	.quad	.LBB2245
	.byte	0x4
	.uleb128 .LBB2245-.LBB2245
	.uleb128 .LBE2245-.LBB2245
	.byte	0x4
	.uleb128 .LBB2259-.LBB2245
	.uleb128 .LBE2259-.LBB2245
	.byte	0x4
	.uleb128 .LBB2260-.LBB2245
	.uleb128 .LBE2260-.LBB2245
	.byte	0x4
	.uleb128 .LBB2261-.LBB2245
	.uleb128 .LBE2261-.LBB2245
	.byte	0
.LLRL298:
	.byte	0x5
	.quad	.LBB2247
	.byte	0x4
	.uleb128 .LBB2247-.LBB2247
	.uleb128 .LBE2247-.LBB2247
	.byte	0x4
	.uleb128 .LBB2252-.LBB2247
	.uleb128 .LBE2252-.LBB2247
	.byte	0x4
	.uleb128 .LBB2253-.LBB2247
	.uleb128 .LBE2253-.LBB2247
	.byte	0
.LLRL301:
	.byte	0x5
	.quad	.LBB2254
	.byte	0x4
	.uleb128 .LBB2254-.LBB2254
	.uleb128 .LBE2254-.LBB2254
	.byte	0x4
	.uleb128 .LBB2255-.LBB2254
	.uleb128 .LBE2255-.LBB2254
	.byte	0
.LLRL303:
	.byte	0x5
	.quad	.LBB2277
	.byte	0x4
	.uleb128 .LBB2277-.LBB2277
	.uleb128 .LBE2277-.LBB2277
	.byte	0x4
	.uleb128 .LBB2301-.LBB2277
	.uleb128 .LBE2301-.LBB2277
	.byte	0x4
	.uleb128 .LBB2313-.LBB2277
	.uleb128 .LBE2313-.LBB2277
	.byte	0x4
	.uleb128 .LBB2340-.LBB2277
	.uleb128 .LBE2340-.LBB2277
	.byte	0x4
	.uleb128 .LBB2342-.LBB2277
	.uleb128 .LBE2342-.LBB2277
	.byte	0
.LLRL306:
	.byte	0x5
	.quad	.LBB2278
	.byte	0x4
	.uleb128 .LBB2278-.LBB2278
	.uleb128 .LBE2278-.LBB2278
	.byte	0x4
	.uleb128 .LBB2295-.LBB2278
	.uleb128 .LBE2295-.LBB2278
	.byte	0
.LLRL309:
	.byte	0x5
	.quad	.LBB2281
	.byte	0x4
	.uleb128 .LBB2281-.LBB2281
	.uleb128 .LBE2281-.LBB2281
	.byte	0x4
	.uleb128 .LBB2296-.LBB2281
	.uleb128 .LBE2296-.LBB2281
	.byte	0
.LLRL312:
	.byte	0x5
	.quad	.LBB2284
	.byte	0x4
	.uleb128 .LBB2284-.LBB2284
	.uleb128 .LBE2284-.LBB2284
	.byte	0x4
	.uleb128 .LBB2294-.LBB2284
	.uleb128 .LBE2294-.LBB2284
	.byte	0
.LLRL318:
	.byte	0x5
	.quad	.LBB2298
	.byte	0x4
	.uleb128 .LBB2298-.LBB2298
	.uleb128 .LBE2298-.LBB2298
	.byte	0x4
	.uleb128 .LBB2339-.LBB2298
	.uleb128 .LBE2339-.LBB2298
	.byte	0
.LLRL321:
	.byte	0x5
	.quad	.LBB2302
	.byte	0x4
	.uleb128 .LBB2302-.LBB2302
	.uleb128 .LBE2302-.LBB2302
	.byte	0x4
	.uleb128 .LBB2314-.LBB2302
	.uleb128 .LBE2314-.LBB2302
	.byte	0x4
	.uleb128 .LBB2343-.LBB2302
	.uleb128 .LBE2343-.LBB2302
	.byte	0x4
	.uleb128 .LBB2345-.LBB2302
	.uleb128 .LBE2345-.LBB2302
	.byte	0
.LLRL323:
	.byte	0x5
	.quad	.LBB2303
	.byte	0x4
	.uleb128 .LBB2303-.LBB2303
	.uleb128 .LBE2303-.LBB2303
	.byte	0x4
	.uleb128 .LBB2309-.LBB2303
	.uleb128 .LBE2309-.LBB2303
	.byte	0x4
	.uleb128 .LBB2310-.LBB2303
	.uleb128 .LBE2310-.LBB2303
	.byte	0x4
	.uleb128 .LBB2311-.LBB2303
	.uleb128 .LBE2311-.LBB2303
	.byte	0x4
	.uleb128 .LBB2312-.LBB2303
	.uleb128 .LBE2312-.LBB2303
	.byte	0
.LLRL325:
	.byte	0x5
	.quad	.LBB2304
	.byte	0x4
	.uleb128 .LBB2304-.LBB2304
	.uleb128 .LBE2304-.LBB2304
	.byte	0x4
	.uleb128 .LBB2305-.LBB2304
	.uleb128 .LBE2305-.LBB2304
	.byte	0x4
	.uleb128 .LBB2306-.LBB2304
	.uleb128 .LBE2306-.LBB2304
	.byte	0x4
	.uleb128 .LBB2307-.LBB2304
	.uleb128 .LBE2307-.LBB2304
	.byte	0x4
	.uleb128 .LBB2308-.LBB2304
	.uleb128 .LBE2308-.LBB2304
	.byte	0
.LLRL327:
	.byte	0x5
	.quad	.LBB2315
	.byte	0x4
	.uleb128 .LBB2315-.LBB2315
	.uleb128 .LBE2315-.LBB2315
	.byte	0x4
	.uleb128 .LBB2344-.LBB2315
	.uleb128 .LBE2344-.LBB2315
	.byte	0x4
	.uleb128 .LBB2346-.LBB2315
	.uleb128 .LBE2346-.LBB2315
	.byte	0
.LLRL328:
	.byte	0x5
	.quad	.LBB2318
	.byte	0x4
	.uleb128 .LBB2318-.LBB2318
	.uleb128 .LBE2318-.LBB2318
	.byte	0x4
	.uleb128 .LBB2336-.LBB2318
	.uleb128 .LBE2336-.LBB2318
	.byte	0x4
	.uleb128 .LBB2337-.LBB2318
	.uleb128 .LBE2337-.LBB2318
	.byte	0
.LLRL333:
	.byte	0x5
	.quad	.LBB2323
	.byte	0x4
	.uleb128 .LBB2323-.LBB2323
	.uleb128 .LBE2323-.LBB2323
	.byte	0x4
	.uleb128 .LBB2326-.LBB2323
	.uleb128 .LBE2326-.LBB2323
	.byte	0
.LLRL335:
	.byte	0x5
	.quad	.LBB2327
	.byte	0x4
	.uleb128 .LBB2327-.LBB2327
	.uleb128 .LBE2327-.LBB2327
	.byte	0x4
	.uleb128 .LBB2334-.LBB2327
	.uleb128 .LBE2334-.LBB2327
	.byte	0x4
	.uleb128 .LBB2335-.LBB2327
	.uleb128 .LBE2335-.LBB2327
	.byte	0
.LLRL336:
	.byte	0x5
	.quad	.LBB2348
	.byte	0x4
	.uleb128 .LBB2348-.LBB2348
	.uleb128 .LBE2348-.LBB2348
	.byte	0x4
	.uleb128 .LBB2552-.LBB2348
	.uleb128 .LBE2552-.LBB2348
	.byte	0x4
	.uleb128 .LBB2559-.LBB2348
	.uleb128 .LBE2559-.LBB2348
	.byte	0
.LLRL339:
	.byte	0x5
	.quad	.LBB2352
	.byte	0x4
	.uleb128 .LBB2352-.LBB2352
	.uleb128 .LBE2352-.LBB2352
	.byte	0x4
	.uleb128 .LBB2452-.LBB2352
	.uleb128 .LBE2452-.LBB2352
	.byte	0x4
	.uleb128 .LBB2501-.LBB2352
	.uleb128 .LBE2501-.LBB2352
	.byte	0x4
	.uleb128 .LBB2548-.LBB2352
	.uleb128 .LBE2548-.LBB2352
	.byte	0x4
	.uleb128 .LBB2553-.LBB2352
	.uleb128 .LBE2553-.LBB2352
	.byte	0x4
	.uleb128 .LBB2560-.LBB2352
	.uleb128 .LBE2560-.LBB2352
	.byte	0x5
	.quad	.LBB2561
	.byte	0x4
	.uleb128 .LBB2561-.LBB2561
	.uleb128 .LBE2561-.LBB2561
	.byte	0x4
	.uleb128 .LBB2563-.LBB2561
	.uleb128 .LBE2563-.LBB2561
	.byte	0
.LLRL343:
	.byte	0x5
	.quad	.LBB2353
	.byte	0x4
	.uleb128 .LBB2353-.LBB2353
	.uleb128 .LBE2353-.LBB2353
	.byte	0x4
	.uleb128 .LBB2433-.LBB2353
	.uleb128 .LBE2433-.LBB2353
	.byte	0x4
	.uleb128 .LBB2435-.LBB2353
	.uleb128 .LBE2435-.LBB2353
	.byte	0x7
	.quad	.LBB2438
	.uleb128 .LBE2438-.LBB2438
	.byte	0
.LLRL346:
	.byte	0x5
	.quad	.LBB2355
	.byte	0x4
	.uleb128 .LBB2355-.LBB2355
	.uleb128 .LBE2355-.LBB2355
	.byte	0x4
	.uleb128 .LBB2363-.LBB2355
	.uleb128 .LBE2363-.LBB2355
	.byte	0x4
	.uleb128 .LBB2365-.LBB2355
	.uleb128 .LBE2365-.LBB2355
	.byte	0
.LLRL349:
	.byte	0x5
	.quad	.LBB2359
	.byte	0x4
	.uleb128 .LBB2359-.LBB2359
	.uleb128 .LBE2359-.LBB2359
	.byte	0x4
	.uleb128 .LBB2364-.LBB2359
	.uleb128 .LBE2364-.LBB2359
	.byte	0x4
	.uleb128 .LBB2366-.LBB2359
	.uleb128 .LBE2366-.LBB2359
	.byte	0
.LLRL350:
	.byte	0x5
	.quad	.LBB2370
	.byte	0x4
	.uleb128 .LBB2370-.LBB2370
	.uleb128 .LBE2370-.LBB2370
	.byte	0x4
	.uleb128 .LBB2431-.LBB2370
	.uleb128 .LBE2431-.LBB2370
	.byte	0x4
	.uleb128 .LBB2432-.LBB2370
	.uleb128 .LBE2432-.LBB2370
	.byte	0x4
	.uleb128 .LBB2434-.LBB2370
	.uleb128 .LBE2434-.LBB2370
	.byte	0x4
	.uleb128 .LBB2436-.LBB2370
	.uleb128 .LBE2436-.LBB2370
	.byte	0x7
	.quad	.LBB2437
	.uleb128 .LBE2437-.LBB2437
	.byte	0
.LLRL353:
	.byte	0x5
	.quad	.LBB2371
	.byte	0x4
	.uleb128 .LBB2371-.LBB2371
	.uleb128 .LBE2371-.LBB2371
	.byte	0x4
	.uleb128 .LBB2409-.LBB2371
	.uleb128 .LBE2409-.LBB2371
	.byte	0x4
	.uleb128 .LBB2411-.LBB2371
	.uleb128 .LBE2411-.LBB2371
	.byte	0
.LLRL355:
	.byte	0x5
	.quad	.LBB2372
	.byte	0x4
	.uleb128 .LBB2372-.LBB2372
	.uleb128 .LBE2372-.LBB2372
	.byte	0x4
	.uleb128 .LBB2377-.LBB2372
	.uleb128 .LBE2377-.LBB2372
	.byte	0x4
	.uleb128 .LBB2379-.LBB2372
	.uleb128 .LBE2379-.LBB2372
	.byte	0
.LLRL358:
	.byte	0x5
	.quad	.LBB2376
	.byte	0x4
	.uleb128 .LBB2376-.LBB2376
	.uleb128 .LBE2376-.LBB2376
	.byte	0x4
	.uleb128 .LBB2378-.LBB2376
	.uleb128 .LBE2378-.LBB2376
	.byte	0x4
	.uleb128 .LBB2380-.LBB2376
	.uleb128 .LBE2380-.LBB2376
	.byte	0
.LLRL359:
	.byte	0x5
	.quad	.LBB2381
	.byte	0x4
	.uleb128 .LBB2381-.LBB2381
	.uleb128 .LBE2381-.LBB2381
	.byte	0x4
	.uleb128 .LBB2407-.LBB2381
	.uleb128 .LBE2407-.LBB2381
	.byte	0x4
	.uleb128 .LBB2408-.LBB2381
	.uleb128 .LBE2408-.LBB2381
	.byte	0x4
	.uleb128 .LBB2410-.LBB2381
	.uleb128 .LBE2410-.LBB2381
	.byte	0x4
	.uleb128 .LBB2412-.LBB2381
	.uleb128 .LBE2412-.LBB2381
	.byte	0x7
	.quad	.LBB2413
	.uleb128 .LBE2413-.LBB2413
	.byte	0
.LLRL361:
	.byte	0x5
	.quad	.LBB2383
	.byte	0x4
	.uleb128 .LBB2383-.LBB2383
	.uleb128 .LBE2383-.LBB2383
	.byte	0x4
	.uleb128 .LBB2396-.LBB2383
	.uleb128 .LBE2396-.LBB2383
	.byte	0x4
	.uleb128 .LBB2397-.LBB2383
	.uleb128 .LBE2397-.LBB2383
	.byte	0x4
	.uleb128 .LBB2398-.LBB2383
	.uleb128 .LBE2398-.LBB2383
	.byte	0x4
	.uleb128 .LBB2399-.LBB2383
	.uleb128 .LBE2399-.LBB2383
	.byte	0x4
	.uleb128 .LBB2400-.LBB2383
	.uleb128 .LBE2400-.LBB2383
	.byte	0x7
	.quad	.LBB2401
	.uleb128 .LBE2401-.LBB2401
	.byte	0
.LLRL364:
	.byte	0x5
	.quad	.LBB2386
	.byte	0x4
	.uleb128 .LBB2386-.LBB2386
	.uleb128 .LBE2386-.LBB2386
	.byte	0x4
	.uleb128 .LBB2389-.LBB2386
	.uleb128 .LBE2389-.LBB2386
	.byte	0
.LLRL367:
	.byte	0x5
	.quad	.LBB2414
	.byte	0x4
	.uleb128 .LBB2414-.LBB2414
	.uleb128 .LBE2414-.LBB2414
	.byte	0x4
	.uleb128 .LBB2430-.LBB2414
	.uleb128 .LBE2430-.LBB2414
	.byte	0
.LLRL376:
	.byte	0x5
	.quad	.LBB2418
	.byte	0x4
	.uleb128 .LBB2418-.LBB2418
	.uleb128 .LBE2418-.LBB2418
	.byte	0x4
	.uleb128 .LBB2426-.LBB2418
	.uleb128 .LBE2426-.LBB2418
	.byte	0
.LLRL382:
	.byte	0x5
	.quad	.LBB2421
	.byte	0x4
	.uleb128 .LBB2421-.LBB2421
	.uleb128 .LBE2421-.LBB2421
	.byte	0x4
	.uleb128 .LBB2424-.LBB2421
	.uleb128 .LBE2424-.LBB2421
	.byte	0
.LLRL383:
	.byte	0x5
	.quad	.LBB2439
	.byte	0x4
	.uleb128 .LBB2439-.LBB2439
	.uleb128 .LBE2439-.LBB2439
	.byte	0x4
	.uleb128 .LBB2453-.LBB2439
	.uleb128 .LBE2453-.LBB2439
	.byte	0x4
	.uleb128 .LBB2547-.LBB2439
	.uleb128 .LBE2547-.LBB2439
	.byte	0x4
	.uleb128 .LBB2549-.LBB2439
	.uleb128 .LBE2549-.LBB2439
	.byte	0
.LLRL386:
	.byte	0x5
	.quad	.LBB2441
	.byte	0x4
	.uleb128 .LBB2441-.LBB2441
	.uleb128 .LBE2441-.LBB2441
	.byte	0x4
	.uleb128 .LBB2451-.LBB2441
	.uleb128 .LBE2451-.LBB2441
	.byte	0
.LLRL394:
	.byte	0x5
	.quad	.LBB2442
	.byte	0x4
	.uleb128 .LBB2442-.LBB2442
	.uleb128 .LBE2442-.LBB2442
	.byte	0x4
	.uleb128 .LBB2447-.LBB2442
	.uleb128 .LBE2447-.LBB2442
	.byte	0x4
	.uleb128 .LBB2448-.LBB2442
	.uleb128 .LBE2448-.LBB2442
	.byte	0x4
	.uleb128 .LBB2449-.LBB2442
	.uleb128 .LBE2449-.LBB2442
	.byte	0x4
	.uleb128 .LBB2450-.LBB2442
	.uleb128 .LBE2450-.LBB2442
	.byte	0
.LLRL396:
	.byte	0x5
	.quad	.LBB2443
	.byte	0x4
	.uleb128 .LBB2443-.LBB2443
	.uleb128 .LBE2443-.LBB2443
	.byte	0x4
	.uleb128 .LBB2444-.LBB2443
	.uleb128 .LBE2444-.LBB2443
	.byte	0x4
	.uleb128 .LBB2445-.LBB2443
	.uleb128 .LBE2445-.LBB2443
	.byte	0x4
	.uleb128 .LBB2446-.LBB2443
	.uleb128 .LBE2446-.LBB2443
	.byte	0
.LLRL404:
	.byte	0x5
	.quad	.LBB2454
	.byte	0x4
	.uleb128 .LBB2454-.LBB2454
	.uleb128 .LBE2454-.LBB2454
	.byte	0x4
	.uleb128 .LBB2502-.LBB2454
	.uleb128 .LBE2502-.LBB2454
	.byte	0x4
	.uleb128 .LBB2550-.LBB2454
	.uleb128 .LBE2550-.LBB2454
	.byte	0x4
	.uleb128 .LBB2555-.LBB2454
	.uleb128 .LBE2555-.LBB2454
	.byte	0
.LLRL406:
	.byte	0x5
	.quad	.LBB2455
	.byte	0x4
	.uleb128 .LBB2455-.LBB2455
	.uleb128 .LBE2455-.LBB2455
	.byte	0x4
	.uleb128 .LBB2498-.LBB2455
	.uleb128 .LBE2498-.LBB2455
	.byte	0x4
	.uleb128 .LBB2499-.LBB2455
	.uleb128 .LBE2499-.LBB2455
	.byte	0x4
	.uleb128 .LBB2500-.LBB2455
	.uleb128 .LBE2500-.LBB2455
	.byte	0
.LLRL408:
	.byte	0x5
	.quad	.LBB2456
	.byte	0x4
	.uleb128 .LBB2456-.LBB2456
	.uleb128 .LBE2456-.LBB2456
	.byte	0x4
	.uleb128 .LBB2494-.LBB2456
	.uleb128 .LBE2494-.LBB2456
	.byte	0x4
	.uleb128 .LBB2495-.LBB2456
	.uleb128 .LBE2495-.LBB2456
	.byte	0x4
	.uleb128 .LBB2496-.LBB2456
	.uleb128 .LBE2496-.LBB2456
	.byte	0x4
	.uleb128 .LBB2497-.LBB2456
	.uleb128 .LBE2497-.LBB2456
	.byte	0
.LLRL412:
	.byte	0x5
	.quad	.LBB2457
	.byte	0x4
	.uleb128 .LBB2457-.LBB2457
	.uleb128 .LBE2457-.LBB2457
	.byte	0x4
	.uleb128 .LBB2469-.LBB2457
	.uleb128 .LBE2469-.LBB2457
	.byte	0x4
	.uleb128 .LBB2478-.LBB2457
	.uleb128 .LBE2478-.LBB2457
	.byte	0x4
	.uleb128 .LBB2480-.LBB2457
	.uleb128 .LBE2480-.LBB2457
	.byte	0x4
	.uleb128 .LBB2481-.LBB2457
	.uleb128 .LBE2481-.LBB2457
	.byte	0x4
	.uleb128 .LBB2482-.LBB2457
	.uleb128 .LBE2482-.LBB2457
	.byte	0
.LLRL413:
	.byte	0x5
	.quad	.LBB2458
	.byte	0x4
	.uleb128 .LBB2458-.LBB2458
	.uleb128 .LBE2458-.LBB2458
	.byte	0x4
	.uleb128 .LBB2465-.LBB2458
	.uleb128 .LBE2465-.LBB2458
	.byte	0x4
	.uleb128 .LBB2466-.LBB2458
	.uleb128 .LBE2466-.LBB2458
	.byte	0
.LLRL414:
	.byte	0x5
	.quad	.LBB2462
	.byte	0x4
	.uleb128 .LBB2462-.LBB2462
	.uleb128 .LBE2462-.LBB2462
	.byte	0x4
	.uleb128 .LBB2467-.LBB2462
	.uleb128 .LBE2467-.LBB2462
	.byte	0x4
	.uleb128 .LBB2468-.LBB2462
	.uleb128 .LBE2468-.LBB2462
	.byte	0
.LLRL415:
	.byte	0x5
	.quad	.LBB2470
	.byte	0x4
	.uleb128 .LBB2470-.LBB2470
	.uleb128 .LBE2470-.LBB2470
	.byte	0x4
	.uleb128 .LBB2483-.LBB2470
	.uleb128 .LBE2483-.LBB2470
	.byte	0x4
	.uleb128 .LBB2484-.LBB2470
	.uleb128 .LBE2484-.LBB2470
	.byte	0x4
	.uleb128 .LBB2485-.LBB2470
	.uleb128 .LBE2485-.LBB2470
	.byte	0
.LLRL416:
	.byte	0x5
	.quad	.LBB2471
	.byte	0x4
	.uleb128 .LBB2471-.LBB2471
	.uleb128 .LBE2471-.LBB2471
	.byte	0x4
	.uleb128 .LBB2476-.LBB2471
	.uleb128 .LBE2476-.LBB2471
	.byte	0x4
	.uleb128 .LBB2477-.LBB2471
	.uleb128 .LBE2477-.LBB2471
	.byte	0
.LLRL418:
	.byte	0x7
	.quad	.LBB2486
	.uleb128 .LBE2486-.LBB2486
.LLRL419:
	.byte	0x5
	.quad	.LBB2492
	.byte	0x4
	.uleb128 .LBB2492-.LBB2492
	.uleb128 .LBE2492-.LBB2492
	.byte	0x4
	.uleb128 .LBB2493-.LBB2492
	.uleb128 .LBE2493-.LBB2492
	.byte	0
.LLRL431:
	.byte	0x5
	.quad	.LBB2568
	.byte	0x4
	.uleb128 .LBB2568-.LBB2568
	.uleb128 .LBE2568-.LBB2568
	.byte	0x4
	.uleb128 .LBB2591-.LBB2568
	.uleb128 .LBE2591-.LBB2568
	.byte	0
.LLRL433:
	.byte	0x5
	.quad	.LBB2569
	.byte	0x4
	.uleb128 .LBB2569-.LBB2569
	.uleb128 .LBE2569-.LBB2569
	.byte	0x4
	.uleb128 .LBB2585-.LBB2569
	.uleb128 .LBE2585-.LBB2569
	.byte	0
.LLRL434:
	.byte	0x5
	.quad	.LBB2570
	.byte	0x4
	.uleb128 .LBB2570-.LBB2570
	.uleb128 .LBE2570-.LBB2570
	.byte	0x4
	.uleb128 .LBB2583-.LBB2570
	.uleb128 .LBE2583-.LBB2570
	.byte	0x4
	.uleb128 .LBB2584-.LBB2570
	.uleb128 .LBE2584-.LBB2570
	.byte	0
.LLRL437:
	.byte	0x5
	.quad	.LBB2572
	.byte	0x4
	.uleb128 .LBB2572-.LBB2572
	.uleb128 .LBE2572-.LBB2572
	.byte	0x4
	.uleb128 .LBB2580-.LBB2572
	.uleb128 .LBE2580-.LBB2572
	.byte	0
.LLRL440:
	.byte	0x5
	.quad	.LBB2574
	.byte	0x4
	.uleb128 .LBB2574-.LBB2574
	.uleb128 .LBE2574-.LBB2574
	.byte	0x4
	.uleb128 .LBB2578-.LBB2574
	.uleb128 .LBE2578-.LBB2574
	.byte	0
.LLRL442:
	.byte	0x5
	.quad	.LBB2575
	.byte	0x4
	.uleb128 .LBB2575-.LBB2575
	.uleb128 .LBE2575-.LBB2575
	.byte	0x4
	.uleb128 .LBB2577-.LBB2575
	.uleb128 .LBE2577-.LBB2575
	.byte	0
.LLRL449:
	.byte	0x5
	.quad	.LBB2592
	.byte	0x4
	.uleb128 .LBB2592-.LBB2592
	.uleb128 .LBE2592-.LBB2592
	.byte	0x4
	.uleb128 .LBB2630-.LBB2592
	.uleb128 .LBE2630-.LBB2592
	.byte	0
.LLRL456:
	.byte	0x5
	.quad	.LBB2596
	.byte	0x4
	.uleb128 .LBB2596-.LBB2596
	.uleb128 .LBE2596-.LBB2596
	.byte	0x4
	.uleb128 .LBB2611-.LBB2596
	.uleb128 .LBE2611-.LBB2596
	.byte	0
.LLRL458:
	.byte	0x5
	.quad	.LBB2597
	.byte	0x4
	.uleb128 .LBB2597-.LBB2597
	.uleb128 .LBE2597-.LBB2597
	.byte	0x4
	.uleb128 .LBB2610-.LBB2597
	.uleb128 .LBE2610-.LBB2597
	.byte	0
.LLRL460:
	.byte	0x5
	.quad	.LBB2598
	.byte	0x4
	.uleb128 .LBB2598-.LBB2598
	.uleb128 .LBE2598-.LBB2598
	.byte	0x4
	.uleb128 .LBB2606-.LBB2598
	.uleb128 .LBE2606-.LBB2598
	.byte	0
.LLRL464:
	.byte	0x5
	.quad	.LBB2600
	.byte	0x4
	.uleb128 .LBB2600-.LBB2600
	.uleb128 .LBE2600-.LBB2600
	.byte	0x4
	.uleb128 .LBB2604-.LBB2600
	.uleb128 .LBE2604-.LBB2600
	.byte	0
.LLRL474:
	.byte	0x5
	.quad	.LBB2614
	.byte	0x4
	.uleb128 .LBB2614-.LBB2614
	.uleb128 .LBE2614-.LBB2614
	.byte	0x4
	.uleb128 .LBB2629-.LBB2614
	.uleb128 .LBE2629-.LBB2614
	.byte	0
.LLRL475:
	.byte	0x5
	.quad	.LBB2615
	.byte	0x4
	.uleb128 .LBB2615-.LBB2615
	.uleb128 .LBE2615-.LBB2615
	.byte	0x4
	.uleb128 .LBB2623-.LBB2615
	.uleb128 .LBE2623-.LBB2615
	.byte	0
.LLRL483:
	.byte	0x7
	.quad	.Ltext0
	.uleb128 .Letext0-.Ltext0
	.byte	0x7
	.quad	.Ltext_cold0
	.uleb128 .Letext_cold0-.Ltext_cold0
	.byte	0
.Ldebug_ranges3:
	.section	.debug_line,"",@progbits
.Ldebug_line0:
	.section	.debug_str,"MS",@progbits,1
.LASF947:
	.string	"wcspbrk"
.LASF341:
	.string	"_ZNSt6vectorI16SubApertureImageSaIS0_EEC4EOS2_RKS1_St17integral_constantIbLb1EE"
.LASF1087:
	.string	"lconv"
.LASF656:
	.string	"_ZNKSt6vectorIfSaIfEE4cendEv"
.LASF145:
	.string	"_ZNSt6vectorIhSaIhEE19_S_nothrow_relocateESt17integral_constantIbLb1EE"
.LASF678:
	.string	"_ZNSt6vectorIfSaIfEE9push_backERKf"
.LASF519:
	.string	"_ZNKSt6vectorIiSaIiEE4sizeEv"
.LASF941:
	.string	"wmemmove"
.LASF566:
	.string	"initializer_list<int>"
.LASF128:
	.string	"_ZNSt12_Vector_baseIhSaIhEEC4EOS1_RKS0_"
.LASF1129:
	.string	"__int_least64_t"
.LASF1038:
	.string	"_ZNK9__gnu_cxx17__normal_iteratorIPK16SubApertureImageSt6vectorIS1_SaIS1_EEEmiEl"
.LASF404:
	.string	"_ZNSt6vectorI16SubApertureImageSaIS0_EE11_S_max_sizeERKS1_"
.LASF364:
	.string	"_ZNKSt6vectorI16SubApertureImageSaIS0_EE8max_sizeEv"
.LASF1299:
	.string	"__it"
.LASF159:
	.string	"_ZNSt6vectorIhSaIhEEC4EOS1_RKS0_"
.LASF1322:
	.string	"_ZNSt15__new_allocatorIhEC2Ev"
.LASF511:
	.string	"_ZNSt6vectorIiSaIiEE6rbeginEv"
.LASF176:
	.string	"reverse_iterator"
.LASF911:
	.string	"tm_sec"
.LASF410:
	.string	"initializer_list<SubApertureImage>"
.LASF581:
	.string	"_ZNKSt15__new_allocatorIfE7addressERf"
.LASF685:
	.string	"_ZNSt6vectorIfSaIfEE5eraseEN9__gnu_cxx17__normal_iteratorIPKfS1_EE"
.LASF407:
	.string	"_ZNSt6vectorI16SubApertureImageSaIS0_EE8_M_eraseEN9__gnu_cxx17__normal_iteratorIPS0_S2_EES6_"
.LASF73:
	.string	"allocate"
.LASF348:
	.string	"_ZNSt6vectorI16SubApertureImageSaIS0_EEaSESt16initializer_listIS0_E"
.LASF681:
	.string	"_ZNSt6vectorIfSaIfEE6insertEN9__gnu_cxx17__normal_iteratorIPKfS1_EERS4_"
.LASF1302:
	.string	"__allocmax"
.LASF1316:
	.string	"__vect"
.LASF880:
	.string	"fwide"
.LASF1388:
	.string	"pBRb"
.LASF602:
	.string	"_ZNSt12_Vector_baseIfSaIfEE17_Vector_impl_data12_M_swap_dataERS2_"
.LASF1054:
	.string	"__normal_iterator<int const*, std::vector<int, std::allocator<int> > >"
.LASF1387:
	.string	"pBRg"
.LASF1107:
	.string	"int_p_sep_by_space"
.LASF497:
	.string	"_ZNSt6vectorIiSaIiEEC4EOS1_RKS0_St17integral_constantIbLb1EE"
.LASF295:
	.string	"_ZNSt16allocator_traitsISaI16SubApertureImageEE8allocateERS1_mPKv"
.LASF208:
	.string	"_ZNKSt6vectorIhSaIhEEixEm"
.LASF1116:
	.string	"__uint8_t"
.LASF884:
	.string	"getwc"
.LASF154:
	.string	"_ZNSt6vectorIhSaIhEEC4ERKS1_"
.LASF1145:
	.string	"7lldiv_t"
.LASF633:
	.string	"_ZNSt6vectorIfSaIfEEC4EmRKfRKS0_"
.LASF961:
	.string	"_ZN9__gnu_cxx14__alloc_traitsISaIhEhE27_S_propagate_on_copy_assignEv"
.LASF1195:
	.string	"fpos_t"
.LASF289:
	.string	"_ZNSaI16SubApertureImageEC4Ev"
.LASF612:
	.string	"_ZNSt12_Vector_baseIfSaIfEEC4Ev"
.LASF1360:
	.string	"refocus_shift_and_sum"
.LASF620:
	.string	"_ZNSt12_Vector_baseIfSaIfEED4Ev"
.LASF1024:
	.string	"_ZNK9__gnu_cxx17__normal_iteratorIP16SubApertureImageSt6vectorIS1_SaIS1_EEE4baseEv"
.LASF1390:
	.string	"outp"
.LASF1273:
	.string	"SubApertureImage"
.LASF970:
	.string	"rebind<unsigned char>"
.LASF709:
	.string	"_ZNSt16initializer_listIfEC4EPKfm"
.LASF638:
	.string	"_ZNSt6vectorIfSaIfEEC4EOS1_RKS0_St17integral_constantIbLb0EE"
.LASF533:
	.string	"_ZNKSt6vectorIiSaIiEE5frontEv"
.LASF721:
	.string	"_UninitDestroyGuard"
.LASF600:
	.string	"_ZNSt12_Vector_baseIfSaIfEE17_Vector_impl_dataC4EOS2_"
.LASF436:
	.string	"_ZNSt15__new_allocatorIiEC4ERKS0_"
.LASF862:
	.string	"_shortbuf"
.LASF230:
	.string	"_ZNSt6vectorIhSaIhEE6insertEN9__gnu_cxx17__normal_iteratorIPKhS1_EESt16initializer_listIhE"
.LASF627:
	.string	"_ZNSt6vectorIfSaIfEE19_S_nothrow_relocateESt17integral_constantIbLb0EE"
.LASF784:
	.string	"_Tp2"
.LASF789:
	.string	"__to_address<(anonymous namespace)::SubParams>"
.LASF951:
	.string	"__gnu_cxx"
.LASF1329:
	.string	"_ZNSt12_Vector_baseIiSaIiEED2Ev"
.LASF162:
	.string	"_ZNSt6vectorIhSaIhEED4Ev"
.LASF1286:
	.string	"operator new"
.LASF52:
	.string	"__cxx11"
.LASF1033:
	.string	"_ZN9__gnu_cxx17__normal_iteratorIPK16SubApertureImageSt6vectorIS1_SaIS1_EEEmmEi"
.LASF1126:
	.string	"__uint_least16_t"
.LASF956:
	.string	"_S_select_on_copy"
.LASF1110:
	.string	"int_p_sign_posn"
.LASF1272:
	.string	"_ZN9ImageDataC4Ev"
.LASF987:
	.string	"_ZN9__gnu_cxx17__normal_iteratorIPhSt6vectorIhSaIhEEEmmEi"
.LASF897:
	.string	"__isoc23_vfwscanf"
.LASF1032:
	.string	"_ZN9__gnu_cxx17__normal_iteratorIPK16SubApertureImageSt6vectorIS1_SaIS1_EEEmmEv"
.LASF924:
	.string	"wcsncmp"
.LASF237:
	.string	"_ZNSt6vectorIhSaIhEE5clearEv"
.LASF409:
	.string	"_ZNSt6vectorI16SubApertureImageSaIS0_EE14_M_move_assignEOS2_St17integral_constantIbLb0EE"
.LASF470:
	.string	"_ZNKSt12_Vector_baseIiSaIiEE19_M_get_Tp_allocatorEv"
.LASF299:
	.string	"_ZNSt16allocator_traitsISaI16SubApertureImageEE37select_on_container_copy_constructionERKS1_"
.LASF301:
	.string	"_ZNSt12_Vector_baseI16SubApertureImageSaIS0_EE17_Vector_impl_dataC4Ev"
.LASF200:
	.string	"capacity"
.LASF1301:
	.string	"__diffmax"
.LASF197:
	.string	"_ZNSt6vectorIhSaIhEE6resizeEmRKh"
.LASF374:
	.string	"_ZNSt6vectorI16SubApertureImageSaIS0_EE2atEm"
.LASF283:
	.string	"_ZNKSt15__new_allocatorI16SubApertureImageE7addressERKS0_"
.LASF573:
	.string	"reverse_iterator<__gnu_cxx::__normal_iterator<int*, std::vector<int, std::allocator<int> > > >"
.LASF683:
	.string	"_ZNSt6vectorIfSaIfEE6insertEN9__gnu_cxx17__normal_iteratorIPKfS1_EESt16initializer_listIfE"
.LASF196:
	.string	"_ZNSt6vectorIhSaIhEE6resizeEm"
.LASF1074:
	.string	"__isoc23_wcstoull"
.LASF1198:
	.string	"feof"
.LASF1222:
	.string	"uint16_t"
.LASF688:
	.string	"_ZNSt6vectorIfSaIfEE5clearEv"
.LASF320:
	.string	"_ZNSt12_Vector_baseI16SubApertureImageSaIS0_EEC4EOS2_RKS1_"
.LASF585:
	.string	"_ZNKSt15__new_allocatorIfE8max_sizeEv"
.LASF1148:
	.string	"time_t"
.LASF118:
	.string	"_ZNKSt12_Vector_baseIhSaIhEE19_M_get_Tp_allocatorEv"
.LASF98:
	.string	"_Vector_base<unsigned char, std::allocator<unsigned char> >"
.LASF1004:
	.string	"_ZN9__gnu_cxx14__alloc_traitsISaI16SubApertureImageES1_E27_S_propagate_on_copy_assignEv"
.LASF1274:
	.string	"float_t"
.LASF1064:
	.string	"__normal_iterator<float*, std::vector<float, std::allocator<float> > >"
.LASF965:
	.string	"_ZN9__gnu_cxx14__alloc_traitsISaIhEhE20_S_propagate_on_swapEv"
.LASF201:
	.string	"_ZNKSt6vectorIhSaIhEE8capacityEv"
.LASF832:
	.string	"reg_save_area"
.LASF1304:
	.string	"_ZNSt15__new_allocatorIfEC2ERKS0_"
.LASF1350:
	.string	"_ZNSaIfEC2Ev"
.LASF820:
	.string	"min<int>"
.LASF1133:
	.string	"__off_t"
.LASF214:
	.string	"_ZNSt6vectorIhSaIhEE5frontEv"
.LASF70:
	.string	"const_pointer"
.LASF1366:
	.string	"counts"
.LASF420:
	.string	"vector<(anonymous namespace)::SubParams, std::allocator<(anonymous namespace)::SubParams> >"
.LASF649:
	.string	"_ZNSt6vectorIfSaIfEE3endEv"
.LASF79:
	.string	"_ZNKSt15__new_allocatorIhE8max_sizeEv"
.LASF13:
	.string	"_ZNKSt17integral_constantIbLb0EEcvbEv"
.LASF155:
	.string	"_ZNSt6vectorIhSaIhEEC4EOS1_"
.LASF76:
	.string	"deallocate"
.LASF1261:
	.string	"towctrans"
.LASF137:
	.string	"_M_create_storage"
.LASF6:
	.string	"operator std::integral_constant<bool, true>::value_type"
.LASF1397:
	.string	"_ZNSt12_Vector_baseIhSaIhEE12_Vector_implD2Ev"
.LASF672:
	.string	"_ZNSt6vectorIfSaIfEE5frontEv"
.LASF919:
	.string	"tm_isdst"
.LASF1247:
	.string	"_Float128"
.LASF1266:
	.string	"height"
.LASF204:
	.string	"reserve"
.LASF1090:
	.string	"grouping"
.LASF1295:
	.string	"_ZNSt19_UninitDestroyGuardIPivEC2ERS0_"
.LASF863:
	.string	"_lock"
.LASF83:
	.string	"allocator"
.LASF810:
	.string	"_Destroy<int*, int>"
.LASF1071:
	.string	"__isoc23_wcstoll"
.LASF1070:
	.string	"wcstoll"
.LASF129:
	.string	"_ZNSt12_Vector_baseIhSaIhEEC4ERKS0_OS1_"
.LASF512:
	.string	"_ZNKSt6vectorIiSaIiEE6rbeginEv"
.LASF1279:
	.string	"SubParams"
.LASF536:
	.string	"_ZNSt6vectorIiSaIiEE4dataEv"
.LASF767:
	.string	"uninitialized_fill_n<float*, long unsigned int, float>"
.LASF61:
	.string	"operator bool"
.LASF805:
	.string	"_ZSt3minIfERKT_S2_S2_"
.LASF676:
	.string	"_ZNSt6vectorIfSaIfEE4dataEv"
.LASF78:
	.string	"max_size"
.LASF291:
	.string	"_ZNSaI16SubApertureImageEaSERKS0_"
.LASF124:
	.string	"_ZNSt12_Vector_baseIhSaIhEEC4Em"
.LASF1077:
	.string	"__max_align_ld"
.LASF548:
	.string	"_ZNSt6vectorIiSaIiEE5clearEv"
.LASF1079:
	.string	"bool"
.LASF711:
	.string	"_ZNKSt16initializer_listIfE4sizeEv"
.LASF122:
	.string	"_ZNSt12_Vector_baseIhSaIhEEC4Ev"
.LASF1160:
	.string	"atoi"
.LASF1076:
	.string	"__max_align_ll"
.LASF1161:
	.string	"atol"
.LASF265:
	.string	"_ZNSt6vectorIhSaIhEE8_M_eraseEN9__gnu_cxx17__normal_iteratorIPhS1_EE"
.LASF8:
	.string	"_ZNKSt17integral_constantIbLb1EEcvbEv"
.LASF520:
	.string	"_ZNKSt6vectorIiSaIiEE8max_sizeEv"
.LASF925:
	.string	"wcsncpy"
.LASF1013:
	.string	"_ZNK9__gnu_cxx17__normal_iteratorIP16SubApertureImageSt6vectorIS1_SaIS1_EEEdeEv"
.LASF927:
	.string	"wcsspn"
.LASF1347:
	.string	"_ZNSt6vectorIfSaIfEED2Ev"
.LASF215:
	.string	"_ZNKSt6vectorIhSaIhEE5frontEv"
.LASF353:
	.string	"_ZNSt6vectorI16SubApertureImageSaIS0_EE3endEv"
.LASF14:
	.string	"_ZNKSt17integral_constantIbLb0EEclEv"
.LASF785:
	.string	"_Destroy<int*>"
.LASF603:
	.string	"_ZNSt12_Vector_baseIfSaIfEE12_Vector_implC4Ev"
.LASF149:
	.string	"vector"
.LASF257:
	.string	"_ZNKSt6vectorIhSaIhEE12_M_check_lenEmPKc"
.LASF1151:
	.string	"int32_t"
.LASF1243:
	.string	"intmax_t"
.LASF1189:
	.string	"__pos"
.LASF287:
	.string	"_ZNKSt15__new_allocatorI16SubApertureImageE11_M_max_sizeEv"
.LASF51:
	.string	"__debug"
.LASF746:
	.string	"_ZSt20__throw_length_errorPKc"
.LASF1262:
	.string	"wctrans"
.LASF487:
	.string	"_ZNSt6vectorIiSaIiEE19_S_nothrow_relocateESt17integral_constantIbLb0EE"
.LASF227:
	.string	"insert"
.LASF255:
	.string	"_ZNSt6vectorIhSaIhEE14_M_emplace_auxEN9__gnu_cxx17__normal_iteratorIPKhS1_EEOh"
.LASF495:
	.string	"_ZNSt6vectorIiSaIiEEC4EOS1_"
.LASF527:
	.string	"_ZNSt6vectorIiSaIiEEixEm"
.LASF1112:
	.string	"setlocale"
.LASF304:
	.string	"_ZNSt12_Vector_baseIhSaIhEE17_Vector_impl_data12_M_swap_dataERS2_"
.LASF168:
	.string	"_ZNSt6vectorIhSaIhEE6assignESt16initializer_listIhE"
.LASF1244:
	.string	"uintmax_t"
.LASF635:
	.string	"_ZNSt6vectorIfSaIfEEC4EOS1_"
.LASF1400:
	.string	"memcpy"
.LASF902:
	.string	"vwscanf"
.LASF262:
	.string	"_M_erase_at_end"
.LASF477:
	.string	"_ZNSt12_Vector_baseIiSaIiEEC4EOS0_"
.LASF589:
	.string	"_ZNSaIfEC4ERKS_"
.LASF489:
	.string	"_ZNSt6vectorIiSaIiEE11_S_relocateEPiS2_S2_RS0_"
.LASF617:
	.string	"_ZNSt12_Vector_baseIfSaIfEEC4EOS0_"
.LASF59:
	.string	"_ZNSt15__new_allocatorIhEC4Ev"
.LASF1416:
	.string	"11max_align_t"
.LASF637:
	.string	"_ZNSt6vectorIfSaIfEEC4EOS1_RKS0_St17integral_constantIbLb1EE"
.LASF261:
	.string	"_ZNSt6vectorIhSaIhEE11_S_max_sizeERKS0_"
.LASF531:
	.string	"_ZNKSt6vectorIiSaIiEE2atEm"
.LASF346:
	.string	"_ZNSt6vectorI16SubApertureImageSaIS0_EEaSERKS2_"
.LASF447:
	.string	"_ZNSaIiEC4ERKS_"
.LASF1128:
	.string	"__uint_least32_t"
.LASF1137:
	.string	"__syscall_slong_t"
.LASF1403:
	.string	"__builtin_memset"
.LASF883:
	.string	"__isoc23_fwscanf"
.LASF1406:
	.ascii	"GNU C++17 16.0.1 20260425 (prerelease) [gcc-16 r16-8812-gd9c"
	.ascii	"07462a22] -march=tigerlake -mmmx -mpopcnt -msse -msse2 -msse"
	.ascii	"3 -mssse3 -msse4.1 -msse4.2 -mavx -mno-sse4a -mno-fma4 -mno-"
	.ascii	"xop -mavx512f -mbmi -mbmi2 -maes -mpclmul -mavx512vl -mavx51"
	.ascii	"2bw -mavx512dq -mavx512cd -mavx512vbmi -mavx512ifma -mavx512"
	.ascii	"vpopcntdq -mavx512vbmi2 -mgfni -mvpclmulqdq -mavx512vnni -ma"
	.ascii	"vx512bitalg -mno-avx512bf16 -mavx512vp2intersect -mno-3dnow "
	.ascii	"-madx -mabm -mno-cldemote -mclflushopt -mclwb -mno-clzero -m"
	.ascii	"cx16 -mno-enqcmd -mf16c -mfsgsbase -mfxsr -mno-hle -msahf -m"
	.ascii	"no-lwp -mlzcnt -mmovbe -mmovdir64b -mmovdiri -mno-mwaitx -mn"
	.ascii	"o-pconfig -mpku -mprfchw -mno-ptwrite -mrdpid -mrdrnd -mrdse"
	.ascii	"ed -mno-rtm -mno-serialize -mno-sgx -msha -mshstk -mno-tbm -"
	.ascii	"mno-tsxldtrk -mvaes -mno-waitpkg -mno-wbnoinvd -mxsave -mxsa"
	.ascii	"vec -mxsaveopt -mxsaves -mno-amx-tile -mno-amx-int8 -mno-amx"
	.ascii	"-bf16 -mno-uintr -mno-hreset -mno-kl -mno-widekl -mno-avxvnn"
	.ascii	"i -mno-avx512fp16 -mno-avxifma -mno-avxvnniint8 -mno-avxneco"
	.ascii	"nvert -mno-cmpccxadd -mno-amx-fp16 -mno-prefetchi -mno-raoin"
	.ascii	"t -mno-amx-complex -mno-avxvnniint16 -mno-sm3 -mno-sha512 -m"
	.ascii	"no-sm4 -mno-apxf -mno-usermsr -mno-avx10.1 -mno-avx10.2 -mno"
	.ascii	"-amx-a"
	.string	"vx512 -mno-amx-tf32 -mno-amx-fp8 -mno-movrs -mno-amx-movrs -mno-avx512bmm --param=l1-cache-size=48 --param=l1-cache-line-size=64 --param=l2-cache-size=8192 -mtune=tigerlake -mavx2 -mfma -masm=intel -g -O3 -std=c++17 -ffast-math -fasynchronous-unwind-tables"
.LASF626:
	.string	"_ZNSt6vectorIfSaIfEE19_S_nothrow_relocateESt17integral_constantIbLb1EE"
.LASF849:
	.string	"_IO_write_end"
.LASF1174:
	.string	"__isoc23_strtol"
.LASF77:
	.string	"_ZNSt15__new_allocatorIhE10deallocateEPhm"
.LASF449:
	.string	"_ZNSaIiED4Ev"
.LASF771:
	.string	"max<long unsigned int>"
.LASF476:
	.string	"_ZNSt12_Vector_baseIiSaIiEEC4EOS1_"
.LASF1331:
	.string	"_ZNSt12_Vector_baseIiSaIiEE12_Vector_implD2Ev"
.LASF699:
	.string	"_ZNSt6vectorIfSaIfEE17_S_check_init_lenEmRKS0_"
.LASF5:
	.string	"value_type"
.LASF1228:
	.string	"int_least64_t"
.LASF616:
	.string	"_ZNSt12_Vector_baseIfSaIfEEC4EOS1_"
.LASF1179:
	.string	"wctomb"
.LASF45:
	.string	"nullptr_t"
.LASF934:
	.string	"long int"
.LASF657:
	.string	"_ZNKSt6vectorIfSaIfEE7crbeginEv"
.LASF226:
	.string	"_ZNSt6vectorIhSaIhEE8pop_backEv"
.LASF1040:
	.string	"__alloc_traits<std::allocator<(anonymous namespace)::SubParams>, (anonymous namespace)::SubParams>"
.LASF604:
	.string	"_ZNSt12_Vector_baseIfSaIfEE12_Vector_implC4ERKS0_"
.LASF1226:
	.string	"int_least16_t"
.LASF827:
	.string	"_ZSt17__size_to_integerm"
.LASF1059:
	.string	"_ZN9__gnu_cxx14__alloc_traitsISaIfEfE27_S_propagate_on_move_assignEv"
.LASF1267:
	.string	"index"
.LASF88:
	.string	"_ZNSaIhED4Ev"
.LASF1312:
	.string	"_ZNSaIfEC2ERKS_"
.LASF260:
	.string	"_S_max_size"
.LASF1183:
	.string	"__isoc23_strtoll"
.LASF577:
	.string	"_ZNSt15__new_allocatorIfEC4Ev"
.LASF1214:
	.string	"rename"
.LASF1323:
	.string	"_ZNSaIhEC2ERKS_"
.LASF946:
	.string	"wcschr"
.LASF171:
	.string	"_ZNSt6vectorIhSaIhEE5beginEv"
.LASF27:
	.string	"_ZNKSt15__exception_ptr13exception_ptr6_M_getEv"
.LASF1314:
	.string	"_ZNSaIiEC2ERKS_"
.LASF744:
	.string	"_ZSt17__throw_bad_allocv"
.LASF1058:
	.string	"_ZN9__gnu_cxx14__alloc_traitsISaIfEfE27_S_propagate_on_copy_assignEv"
.LASF1256:
	.string	"localtime"
.LASF724:
	.string	"_ZNSt19_UninitDestroyGuardIPivED4Ev"
.LASF1225:
	.string	"int_least8_t"
.LASF949:
	.string	"wcsstr"
.LASF680:
	.string	"_ZNSt6vectorIfSaIfEE8pop_backEv"
.LASF1205:
	.string	"fread"
.LASF1098:
	.string	"int_frac_digits"
.LASF1067:
	.string	"_ZN9__gnu_cxxneERKNS_17__normal_iteratorIP16SubApertureImageSt6vectorIS1_SaIS1_EEEES8_"
.LASF1340:
	.string	"__sz"
.LASF794:
	.string	"fill_n<unsigned char*, long unsigned int, unsigned char>"
.LASF735:
	.string	"_ZNSt19_UninitDestroyGuardIPfvEC4ERS0_"
.LASF453:
	.string	"_ZNSt16allocator_traitsISaIiEE10deallocateERS0_Pim"
.LASF313:
	.string	"_ZNKSt12_Vector_baseI16SubApertureImageSaIS0_EE13get_allocatorEv"
.LASF1089:
	.string	"thousands_sep"
.LASF1334:
	.string	"__old_start"
.LASF54:
	.string	"chrono_literals"
.LASF1213:
	.string	"remove"
.LASF621:
	.string	"_ZNSt12_Vector_baseIfSaIfEE11_M_allocateEm"
.LASF928:
	.string	"wcstod"
.LASF1132:
	.string	"__uintmax_t"
.LASF930:
	.string	"wcstof"
.LASF1362:
	.string	"subapertures"
.LASF599:
	.string	"_ZNSt12_Vector_baseIfSaIfEE17_Vector_impl_dataC4Ev"
.LASF931:
	.string	"wcstok"
.LASF932:
	.string	"wcstol"
.LASF444:
	.string	"_ZNKSt15__new_allocatorIiE11_M_max_sizeEv"
.LASF108:
	.string	"_M_swap_data"
.LASF669:
	.string	"_ZNKSt6vectorIfSaIfEE14_M_range_checkEm"
.LASF402:
	.string	"_ZNKSt6vectorI16SubApertureImageSaIS0_EE12_M_check_lenEmPKc"
.LASF405:
	.string	"_ZNSt6vectorI16SubApertureImageSaIS0_EE15_M_erase_at_endEPS0_"
.LASF426:
	.string	"~_Guard_alloc"
.LASF144:
	.string	"_S_nothrow_relocate"
.LASF1289:
	.string	"__first"
.LASF234:
	.string	"_ZNSt6vectorIhSaIhEE5eraseEN9__gnu_cxx17__normal_iteratorIPKhS1_EES6_"
.LASF1392:
	.string	"__rhs"
.LASF221:
	.string	"_ZNKSt6vectorIhSaIhEE4dataEv"
.LASF1146:
	.string	"lldiv_t"
.LASF1201:
	.string	"fgetc"
.LASF1180:
	.string	"lldiv"
.LASF1135:
	.string	"__clock_t"
.LASF670:
	.string	"_ZNSt6vectorIfSaIfEE2atEm"
.LASF445:
	.string	"allocator<int>"
.LASF814:
	.string	"_Allocator"
.LASF780:
	.string	"_Destroy<float*>"
.LASF35:
	.string	"_ZNSt15__exception_ptr13exception_ptraSERKS0_"
.LASF271:
	.string	"_ZNKSt6vectorIhSaIhEE11_M_data_ptrIhEEPT_S4_"
.LASF427:
	.string	"_M_realloc_append<const (anonymous namespace)::SubParams&>"
.LASF727:
	.string	"_M_first"
.LASF1039:
	.string	"_ZNK9__gnu_cxx17__normal_iteratorIPK16SubApertureImageSt6vectorIS1_SaIS1_EEE4baseEv"
.LASF978:
	.string	"operator*"
.LASF991:
	.string	"operator+"
.LASF995:
	.string	"operator-"
.LASF1138:
	.string	"__gnu_debug"
.LASF384:
	.string	"_ZNSt6vectorI16SubApertureImageSaIS0_EE8pop_backEv"
.LASF809:
	.string	"_ZSt8_DestroyIPffEvT_S1_RSaIT0_E"
.LASF1117:
	.string	"__int16_t"
.LASF942:
	.string	"wmemset"
.LASF34:
	.string	"operator="
.LASF1118:
	.string	"__uint16_t"
.LASF471:
	.string	"_ZNKSt12_Vector_baseIiSaIiEE13get_allocatorEv"
.LASF874:
	.string	"btowc"
.LASF166:
	.string	"assign"
.LASF439:
	.string	"_ZNKSt15__new_allocatorIiE7addressERi"
.LASF1293:
	.string	"__args"
.LASF684:
	.string	"_ZNSt6vectorIfSaIfEE6insertEN9__gnu_cxx17__normal_iteratorIPKfS1_EEmRS4_"
.LASF486:
	.string	"_ZNSt6vectorIiSaIiEE19_S_nothrow_relocateESt17integral_constantIbLb1EE"
.LASF251:
	.string	"_ZNSt6vectorIhSaIhEE16_M_shrink_to_fitEv"
.LASF890:
	.string	"putwchar"
.LASF618:
	.string	"_ZNSt12_Vector_baseIfSaIfEEC4EOS1_RKS0_"
.LASF1060:
	.string	"_ZN9__gnu_cxx14__alloc_traitsISaIfEfE20_S_propagate_on_swapEv"
.LASF490:
	.string	"_ZNSt6vectorIiSaIiEEC4Ev"
.LASF28:
	.string	"_M_exception_ptr_cast"
.LASF551:
	.string	"_ZNSt6vectorIiSaIiEE14_M_fill_assignEmRKi"
.LASF707:
	.string	"_ZNKSt6vectorIfSaIfEE11_M_data_ptrIfEEPT_S4_"
.LASF644:
	.string	"_ZNSt6vectorIfSaIfEEaSESt16initializer_listIfE"
.LASF1092:
	.string	"currency_symbol"
.LASF1275:
	.string	"double_t"
.LASF1352:
	.string	"_ZNSt6vectorIiSaIiEEC2EmRKiRKS0_"
.LASF718:
	.string	"iterator_traits<const SubApertureImage*>"
.LASF774:
	.string	"_ZSt10__fill_n_aIPhmhET_S1_T0_RKT1_St26random_access_iterator_tag"
.LASF559:
	.string	"_ZNSt6vectorIiSaIiEE17_S_check_init_lenEmRKS0_"
.LASF133:
	.string	"_M_allocate"
.LASF153:
	.string	"_ZNSt6vectorIhSaIhEEC4EmRKhRKS0_"
.LASF210:
	.string	"_ZNKSt6vectorIhSaIhEE14_M_range_checkEm"
.LASF1375:
	.string	"ind_bot"
.LASF285:
	.string	"_ZNSt15__new_allocatorI16SubApertureImageE10deallocateEPS0_m"
.LASF560:
	.string	"_ZNSt6vectorIiSaIiEE11_S_max_sizeERKS0_"
.LASF856:
	.string	"_chain"
.LASF113:
	.string	"_ZNSt12_Vector_baseIhSaIhEE12_Vector_implC4EOS0_"
.LASF1108:
	.string	"int_n_cs_precedes"
.LASF229:
	.string	"_ZNSt6vectorIhSaIhEE6insertEN9__gnu_cxx17__normal_iteratorIPKhS1_EEOh"
.LASF1008:
	.string	"_ZN9__gnu_cxx14__alloc_traitsISaI16SubApertureImageES1_E15_S_nothrow_moveEv"
.LASF568:
	.string	"initializer_list"
.LASF480:
	.string	"_ZNSt12_Vector_baseIiSaIiEED4Ev"
.LASF690:
	.string	"_ZNSt6vectorIfSaIfEE21_M_default_initializeEm"
.LASF1139:
	.string	"11__mbstate_t"
.LASF539:
	.string	"_ZNSt6vectorIiSaIiEE9push_backEOi"
.LASF1080:
	.string	"unsigned char"
.LASF1009:
	.string	"rebind<SubApertureImage>"
.LASF484:
	.string	"__type_identity<std::allocator<int> >"
.LASF1270:
	.string	"_ZNK9ImageData2atEmmm"
.LASF50:
	.string	"random_access_iterator_tag"
.LASF937:
	.string	"wcsxfrm"
.LASF440:
	.string	"_ZNKSt15__new_allocatorIiE7addressERKi"
.LASF1418:
	.string	"_IO_lock_t"
.LASF922:
	.string	"wcslen"
.LASF469:
	.string	"_ZNSt12_Vector_baseIiSaIiEE19_M_get_Tp_allocatorEv"
.LASF1046:
	.string	"_ZN9__gnu_cxx14__alloc_traitsISaIiEiE10_S_on_swapERS1_S3_"
.LASF2:
	.string	"float"
.LASF81:
	.string	"_ZNKSt15__new_allocatorIhE11_M_max_sizeEv"
.LASF324:
	.string	"_ZNSt12_Vector_baseI16SubApertureImageSaIS0_EE13_M_deallocateEPS0_m"
.LASF677:
	.string	"_ZNKSt6vectorIfSaIfEE4dataEv"
.LASF16:
	.string	"__bool_constant"
.LASF451:
	.string	"_ZNSt16allocator_traitsISaIiEE8allocateERS0_m"
.LASF465:
	.string	"_ZNSt12_Vector_baseIiSaIiEE12_Vector_implC4EOS0_OS2_"
.LASF900:
	.string	"__isoc23_vswscanf"
.LASF419:
	.string	"__type_identity<std::allocator<(anonymous namespace)::SubParams> >"
.LASF1239:
	.string	"uint_fast32_t"
.LASF394:
	.string	"_ZNSt6vectorI16SubApertureImageSaIS0_EE21_M_default_initializeEm"
.LASF1364:
	.string	"output"
.LASF117:
	.string	"_ZNSt12_Vector_baseIhSaIhEE19_M_get_Tp_allocatorEv"
.LASF1231:
	.string	"uint_least32_t"
.LASF966:
	.string	"_S_always_equal"
.LASF305:
	.string	"_ZNSt12_Vector_baseI16SubApertureImageSaIS0_EE17_Vector_impl_data12_M_swap_dataERS3_"
.LASF811:
	.string	"_ZSt8_DestroyIPiiEvT_S1_RSaIT0_E"
.LASF588:
	.string	"_ZNSaIfEC4Ev"
.LASF679:
	.string	"_ZNSt6vectorIfSaIfEE9push_backEOf"
.LASF181:
	.string	"rend"
.LASF736:
	.string	"_ZNSt19_UninitDestroyGuardIPfvED4Ev"
.LASF1216:
	.string	"setbuf"
.LASF492:
	.string	"_ZNSt6vectorIiSaIiEEC4EmRKS0_"
.LASF327:
	.string	"vector<SubApertureImage, std::allocator<SubApertureImage> >"
.LASF952:
	.string	"_S_single"
.LASF763:
	.string	"__fill_a1<unsigned char*, std::vector<unsigned char>, unsigned char>"
.LASF249:
	.string	"_ZNSt6vectorIhSaIhEE17_M_default_appendEm"
.LASF628:
	.string	"_ZNSt6vectorIfSaIfEE15_S_use_relocateEv"
.LASF38:
	.string	"_ZNSt15__exception_ptr13exception_ptrD4Ev"
.LASF15:
	.string	"false_type"
.LASF467:
	.string	"_ZNSt12_Vector_baseIhSaIhEE12_Vector_implD4Ev"
.LASF921:
	.string	"tm_zone"
.LASF1224:
	.string	"uint64_t"
.LASF64:
	.string	"~__new_allocator"
.LASF882:
	.string	"fwscanf"
.LASF1026:
	.string	"_ZN9__gnu_cxx17__normal_iteratorIPK16SubApertureImageSt6vectorIS1_SaIS1_EEEC4Ev"
.LASF252:
	.string	"_M_insert_rval"
.LASF910:
	.string	"wcsftime"
.LASF1028:
	.string	"_ZNK9__gnu_cxx17__normal_iteratorIPK16SubApertureImageSt6vectorIS1_SaIS1_EEEdeEv"
.LASF976:
	.string	"_ZN9__gnu_cxx17__normal_iteratorIPhSt6vectorIhSaIhEEEC4Ev"
.LASF450:
	.string	"allocator_traits<std::allocator<int> >"
.LASF22:
	.string	"_M_addref"
.LASF609:
	.string	"_ZNSt12_Vector_baseIfSaIfEE19_M_get_Tp_allocatorEv"
.LASF513:
	.string	"_ZNSt6vectorIiSaIiEE4rendEv"
.LASF369:
	.string	"_ZNKSt6vectorI16SubApertureImageSaIS0_EE5emptyEv"
.LASF62:
	.string	"_ZNKSt15__exception_ptr13exception_ptrcvbEv"
.LASF1271:
	.string	"~ImageData"
.LASF661:
	.string	"_ZNSt6vectorIfSaIfEE6resizeEm"
.LASF280:
	.string	"_ZNSt15__new_allocatorI16SubApertureImageEaSERKS1_"
.LASF653:
	.string	"_ZNSt6vectorIfSaIfEE4rendEv"
.LASF269:
	.string	"_ZNSt6vectorIhSaIhEE14_M_move_assignEOS1_St17integral_constantIbLb0EE"
.LASF75:
	.string	"size_type"
.LASF1215:
	.string	"rewind"
.LASF412:
	.string	"reverse_iterator<__gnu_cxx::__normal_iterator<const SubApertureImage*, std::vector<SubApertureImage, std::allocator<SubApertureImage> > > >"
.LASF1276:
	.string	"_Float32x"
.LASF362:
	.string	"_ZNKSt6vectorI16SubApertureImageSaIS0_EE5crendEv"
.LASF606:
	.string	"_ZNSt12_Vector_baseIfSaIfEE12_Vector_implC4EOS0_"
.LASF303:
	.string	"_ZNSt12_Vector_baseI16SubApertureImageSaIS0_EE17_Vector_impl_data12_M_copy_dataERKS3_"
.LASF1281:
	.string	"x_end"
.LASF1404:
	.string	"_Unwind_Resume"
.LASF540:
	.string	"_ZNSt6vectorIiSaIiEE8pop_backEv"
.LASF478:
	.string	"_ZNSt12_Vector_baseIiSaIiEEC4EOS1_RKS0_"
.LASF641:
	.string	"_ZNSt6vectorIfSaIfEED4Ev"
.LASF655:
	.string	"_ZNKSt6vectorIfSaIfEE6cbeginEv"
.LASF169:
	.string	"iterator"
.LASF1187:
	.string	"strtold"
.LASF1007:
	.string	"_ZN9__gnu_cxx14__alloc_traitsISaI16SubApertureImageES1_E15_S_always_equalEv"
.LASF1182:
	.string	"strtoll"
.LASF1035:
	.string	"_ZN9__gnu_cxx17__normal_iteratorIPK16SubApertureImageSt6vectorIS1_SaIS1_EEEpLEl"
.LASF689:
	.string	"_ZNSt6vectorIfSaIfEE18_M_fill_initializeEmRKf"
.LASF442:
	.string	"_ZNSt15__new_allocatorIiE10deallocateEPim"
.LASF584:
	.string	"_ZNSt15__new_allocatorIfE10deallocateEPfm"
.LASF990:
	.string	"_ZN9__gnu_cxx17__normal_iteratorIPhSt6vectorIhSaIhEEEpLEl"
.LASF1157:
	.string	"atexit"
.LASF848:
	.string	"_IO_write_ptr"
.LASF1169:
	.string	"quick_exit"
.LASF659:
	.string	"_ZNKSt6vectorIfSaIfEE4sizeEv"
.LASF403:
	.string	"_ZNSt6vectorI16SubApertureImageSaIS0_EE17_S_check_init_lenEmRKS1_"
.LASF1405:
	.string	"__builtin_unwind_resume"
.LASF1097:
	.string	"negative_sign"
.LASF575:
	.string	"iterator_traits<(anonymous namespace)::SubParams*>"
.LASF401:
	.string	"_ZNSt6vectorI16SubApertureImageSaIS0_EE14_M_emplace_auxEN9__gnu_cxx17__normal_iteratorIPKS0_S2_EEOS0_"
.LASF503:
	.string	"_ZNSt6vectorIiSaIiEEaSEOS1_"
.LASF1123:
	.string	"__int_least8_t"
.LASF905:
	.string	"wcscat"
.LASF643:
	.string	"_ZNSt6vectorIfSaIfEEaSEOS1_"
.LASF971:
	.string	"other"
.LASF795:
	.string	"_ZSt6fill_nIPhmhET_S1_T0_RKT1_"
.LASF138:
	.string	"_ZNSt12_Vector_baseIhSaIhEE17_M_create_storageEm"
.LASF625:
	.string	"vector<float, std::allocator<float> >"
.LASF422:
	.string	"_Guard_alloc"
.LASF161:
	.string	"~vector"
.LASF284:
	.string	"_ZNSt15__new_allocatorI16SubApertureImageE8allocateEmPKv"
.LASF590:
	.string	"_ZNSaIfEaSERKS_"
.LASF1209:
	.string	"ftell"
.LASF517:
	.string	"_ZNKSt6vectorIiSaIiEE7crbeginEv"
.LASF1263:
	.string	"wctype"
.LASF1091:
	.string	"int_curr_symbol"
.LASF9:
	.string	"_ZNKSt17integral_constantIbLb1EEclEv"
.LASF63:
	.string	"_ZNSt15__new_allocatorIhEaSERKS0_"
.LASF86:
	.string	"_ZNSaIhEaSERKS_"
.LASF151:
	.string	"_ZNSt6vectorIhSaIhEEC4ERKS0_"
.LASF793:
	.string	"_Destroy<(anonymous namespace)::SubParams*>"
.LASF448:
	.string	"_ZNSaIiEaSERKS_"
.LASF757:
	.string	"_ZSt18__do_uninit_fill_nIPimiET_S1_T0_RKT1_"
.LASF1011:
	.string	"_ZN9__gnu_cxx17__normal_iteratorIP16SubApertureImageSt6vectorIS1_SaIS1_EEEC4Ev"
.LASF605:
	.string	"_ZNSt12_Vector_baseIfSaIfEE12_Vector_implC4EOS2_"
.LASF1003:
	.string	"_ZN9__gnu_cxx14__alloc_traitsISaI16SubApertureImageES1_E10_S_on_swapERS2_S4_"
.LASF44:
	.string	"_ZSt17rethrow_exceptionNSt15__exception_ptr13exception_ptrE"
.LASF698:
	.string	"_ZNKSt6vectorIfSaIfEE12_M_check_lenEmPKc"
.LASF1020:
	.string	"_ZN9__gnu_cxx17__normal_iteratorIP16SubApertureImageSt6vectorIS1_SaIS1_EEEpLEl"
.LASF192:
	.string	"size"
.LASF509:
	.string	"_ZNSt6vectorIiSaIiEE3endEv"
.LASF1012:
	.string	"_ZN9__gnu_cxx17__normal_iteratorIP16SubApertureImageSt6vectorIS1_SaIS1_EEEC4ERKS2_"
.LASF17:
	.string	"__swappable_details"
.LASF1373:
	.string	"diff"
.LASF713:
	.string	"_ZNKSt16initializer_listIiE3endEv"
.LASF1269:
	.string	"_ZN9ImageData2atEmmm"
.LASF872:
	.string	"FILE"
.LASF212:
	.string	"_ZNKSt6vectorIhSaIhEE2atEm"
.LASF466:
	.string	"~_Vector_impl"
.LASF468:
	.string	"_ZNSt12_Vector_baseIiSaIiEE12_Vector_implD4Ev"
.LASF1393:
	.string	"_ZN9ImageDataD2Ev"
.LASF106:
	.string	"_M_copy_data"
.LASF1249:
	.string	"clock"
.LASF236:
	.string	"clear"
.LASF120:
	.string	"_ZNKSt12_Vector_baseIhSaIhEE13get_allocatorEv"
.LASF1253:
	.string	"asctime"
.LASF1014:
	.string	"_ZNK9__gnu_cxx17__normal_iteratorIP16SubApertureImageSt6vectorIS1_SaIS1_EEEptEv"
.LASF42:
	.string	"_ZNKSt15__exception_ptr13exception_ptr20__cxa_exception_typeEv"
.LASF1218:
	.string	"tmpfile"
.LASF105:
	.string	"_ZNSt12_Vector_baseIhSaIhEE17_Vector_impl_dataC4EOS2_"
.LASF693:
	.string	"_ZNSt6vectorIfSaIfEE14_M_fill_appendEmRKf"
.LASF737:
	.string	"_ZNSt19_UninitDestroyGuardIPfvE7releaseEv"
.LASF762:
	.string	"_ZSt12__niter_baseIPhET_S1_"
.LASF592:
	.string	"allocator_traits<std::allocator<float> >"
.LASF4:
	.string	"size_t"
.LASF797:
	.string	"_ZSt24__uninitialized_fill_n_aIPhmhhET_S1_T0_RKT1_RSaIT2_E"
.LASF614:
	.string	"_ZNSt12_Vector_baseIfSaIfEEC4Em"
.LASF1019:
	.string	"_ZNK9__gnu_cxx17__normal_iteratorIP16SubApertureImageSt6vectorIS1_SaIS1_EEEixEl"
.LASF1255:
	.string	"gmtime"
.LASF837:
	.string	"__count"
.LASF185:
	.string	"_ZNKSt6vectorIhSaIhEE6cbeginEv"
.LASF1221:
	.string	"uint8_t"
.LASF1141:
	.string	"quot"
.LASF705:
	.string	"_ZNSt6vectorIfSaIfEE14_M_move_assignEOS1_St17integral_constantIbLb0EE"
.LASF545:
	.string	"_ZNSt6vectorIiSaIiEE5eraseEN9__gnu_cxx17__normal_iteratorIPKiS1_EE"
.LASF213:
	.string	"front"
.LASF94:
	.string	"_ZNSt16allocator_traitsISaIhEE8max_sizeERKS0_"
.LASF290:
	.string	"_ZNSaI16SubApertureImageEC4ERKS0_"
.LASF278:
	.string	"_ZNSt15__new_allocatorI16SubApertureImageEC4Ev"
.LASF1333:
	.string	"_ZNSt15__new_allocatorIiEC2Ev"
.LASF760:
	.string	"_FIte"
.LASF1245:
	.string	"_Float32"
.LASF510:
	.string	"_ZNKSt6vectorIiSaIiEE3endEv"
.LASF1212:
	.string	"perror"
.LASF974:
	.string	"_M_current"
.LASF306:
	.string	"_ZNSt12_Vector_baseI16SubApertureImageSaIS0_EE12_Vector_implC4Ev"
.LASF332:
	.string	"_ZNSt6vectorI16SubApertureImageSaIS0_EE15_S_use_relocateEv"
.LASF1127:
	.string	"__int_least32_t"
.LASF392:
	.string	"_ZNSt6vectorI16SubApertureImageSaIS0_EE5clearEv"
.LASF715:
	.string	"reverse_iterator<__gnu_cxx::__normal_iterator<float*, std::vector<float, std::allocator<float> > > >"
.LASF1300:
	.string	"_ZNSt12_Vector_baseIhSaIhEE12_Vector_implC2ERKS0_"
.LASF244:
	.string	"_M_fill_insert"
.LASF875:
	.string	"fgetwc"
.LASF852:
	.string	"_IO_save_base"
.LASF1235:
	.string	"int_fast32_t"
.LASF355:
	.string	"_ZNSt6vectorI16SubApertureImageSaIS0_EE6rbeginEv"
.LASF700:
	.string	"_ZNSt6vectorIfSaIfEE11_S_max_sizeERKS0_"
.LASF1407:
	.string	"_ZNSt15__exception_ptr4swapERNS_13exception_ptrES1_"
.LASF647:
	.string	"_ZNSt6vectorIfSaIfEE5beginEv"
.LASF266:
	.string	"_ZNSt6vectorIhSaIhEE8_M_eraseEN9__gnu_cxx17__normal_iteratorIPhS1_EES5_"
.LASF408:
	.string	"_ZNSt6vectorI16SubApertureImageSaIS0_EE14_M_move_assignEOS2_St17integral_constantIbLb1EE"
.LASF938:
	.string	"wctob"
.LASF1094:
	.string	"mon_thousands_sep"
.LASF610:
	.string	"_ZNKSt12_Vector_baseIfSaIfEE19_M_get_Tp_allocatorEv"
.LASF623:
	.string	"_ZNSt12_Vector_baseIfSaIfEE17_M_create_storageEm"
.LASF297:
	.string	"_ZNSt16allocator_traitsISaI16SubApertureImageEE10deallocateERS1_PS0_m"
.LASF881:
	.string	"fwprintf"
.LASF1131:
	.string	"__intmax_t"
.LASF496:
	.string	"_ZNSt6vectorIiSaIiEEC4ERKS1_RKS0_"
.LASF136:
	.string	"_ZNSt12_Vector_baseIhSaIhEE13_M_deallocateEPhm"
.LASF425:
	.string	"_M_vect"
.LASF242:
	.string	"_M_fill_assign"
.LASF836:
	.string	"__wchb"
.LASF1264:
	.string	"ImageData"
.LASF666:
	.string	"_ZNSt6vectorIfSaIfEE7reserveEm"
.LASF1081:
	.string	"__int128 unsigned"
.LASF376:
	.string	"_ZNSt6vectorI16SubApertureImageSaIS0_EE5frontEv"
.LASF10:
	.string	"integral_constant<bool, true>"
.LASF728:
	.string	"_M_cur"
.LASF383:
	.string	"_ZNSt6vectorI16SubApertureImageSaIS0_EE9push_backEOS0_"
.LASF380:
	.string	"_ZNSt6vectorI16SubApertureImageSaIS0_EE4dataEv"
.LASF596:
	.string	"_ZNSt16allocator_traitsISaIfEE8max_sizeERKS0_"
.LASF740:
	.string	"_ZNSt19_UninitDestroyGuardIPfvE10_S_destroyIS0_EEvT_S3_"
.LASF256:
	.string	"_M_check_len"
.LASF460:
	.string	"_ZNSt12_Vector_baseIiSaIiEE17_Vector_impl_data12_M_swap_dataERS2_"
.LASF834:
	.string	"wint_t"
.LASF1165:
	.string	"mblen"
.LASF115:
	.string	"_Tp_alloc_type"
.LASF808:
	.string	"_Destroy<float*, float>"
.LASF895:
	.string	"vfwprintf"
.LASF743:
	.string	"_ZSt28__throw_bad_array_new_lengthv"
.LASF1370:
	.string	"__for_end"
.LASF89:
	.string	"allocator_traits<std::allocator<unsigned char> >"
.LASF455:
	.string	"_ZNSt16allocator_traitsISaIiEE37select_on_container_copy_constructionERKS0_"
.LASF65:
	.string	"_ZNSt15__new_allocatorIhED4Ev"
.LASF1326:
	.string	"_ZNSt12_Vector_baseIfSaIfEE12_Vector_implD2Ev"
.LASF579:
	.string	"_ZNSt15__new_allocatorIfEaSERKS0_"
.LASF1073:
	.string	"wcstoull"
.LASF866:
	.string	"_wide_data"
.LASF500:
	.string	"_ZNSt6vectorIiSaIiEEC4ESt16initializer_listIiERKS0_"
.LASF183:
	.string	"_ZNKSt6vectorIhSaIhEE4rendEv"
.LASF296:
	.string	"_ZNSt16allocator_traitsISaIhEE10deallocateERS0_Phm"
.LASF382:
	.string	"_ZNSt6vectorI16SubApertureImageSaIS0_EE9push_backERKS0_"
.LASF1056:
	.string	"_ZN9__gnu_cxx14__alloc_traitsISaIfEfE17_S_select_on_copyERKS1_"
.LASF703:
	.string	"_ZNSt6vectorIfSaIfEE8_M_eraseEN9__gnu_cxx17__normal_iteratorIPfS1_EES5_"
.LASF1200:
	.string	"fflush"
.LASF312:
	.string	"_ZNKSt12_Vector_baseI16SubApertureImageSaIS0_EE19_M_get_Tp_allocatorEv"
.LASF697:
	.string	"_ZNSt6vectorIfSaIfEE14_M_emplace_auxEN9__gnu_cxx17__normal_iteratorIPKfS1_EEOf"
.LASF1050:
	.string	"_ZN9__gnu_cxx14__alloc_traitsISaIiEiE15_S_always_equalEv"
.LASF878:
	.string	"fputwc"
.LASF1325:
	.string	"_ZNSt12_Vector_baseIfSaIfEEC2EmRKS0_"
.LASF1246:
	.string	"_Float64"
.LASF1285:
	.string	"_ZdlPvm"
.LASF390:
	.string	"_ZNSt6vectorI16SubApertureImageSaIS0_EE5eraseEN9__gnu_cxx17__normal_iteratorIPKS0_S2_EES7_"
.LASF398:
	.string	"_ZNSt6vectorI16SubApertureImageSaIS0_EE17_M_default_appendEm"
.LASF879:
	.string	"fputws"
.LASF385:
	.string	"_ZNSt6vectorI16SubApertureImageSaIS0_EE6insertEN9__gnu_cxx17__normal_iteratorIPKS0_S2_EERS5_"
.LASF1292:
	.string	"_ZNSt19_UninitDestroyGuardIPfvEC2ERS0_"
.LASF981:
	.string	"_ZNK9__gnu_cxx17__normal_iteratorIPhSt6vectorIhSaIhEEEptEv"
.LASF121:
	.string	"_Vector_base"
.LASF464:
	.string	"_ZNSt12_Vector_baseIiSaIiEE12_Vector_implC4EOS0_"
.LASF1336:
	.string	"__elems"
.LASF790:
	.string	"__enable_if_t"
.LASF769:
	.string	"uninitialized_fill_n<int*, long unsigned int, int>"
.LASF1342:
	.string	"_ZNSt15__new_allocatorIhED2Ev"
.LASF1315:
	.string	"__ptr"
.LASF96:
	.string	"_ZNSt16allocator_traitsISaIhEE37select_on_container_copy_constructionERKS0_"
.LASF999:
	.string	"_Container"
.LASF988:
	.string	"_ZNK9__gnu_cxx17__normal_iteratorIPhSt6vectorIhSaIhEEEixEl"
.LASF1121:
	.string	"__int64_t"
.LASF132:
	.string	"_M_impl"
.LASF792:
	.string	"__niter_base<(anonymous namespace)::SubParams*>"
.LASF1122:
	.string	"__uint64_t"
.LASF345:
	.string	"_ZNSt6vectorI16SubApertureImageSaIS0_EED4Ev"
.LASF569:
	.string	"_ZNSt16initializer_listIiEC4EPKim"
.LASF1330:
	.string	"_ZNSt12_Vector_baseIiSaIiEEC2EmRKS0_"
.LASF85:
	.string	"_ZNSaIhEC4ERKS_"
.LASF1371:
	.string	"shift_x"
.LASF1372:
	.string	"shift_y"
.LASF184:
	.string	"cbegin"
.LASF119:
	.string	"get_allocator"
.LASF277:
	.string	"__new_allocator<SubApertureImage>"
.LASF1310:
	.string	"_ZNSt15__new_allocatorIhEC2ERKS0_"
.LASF199:
	.string	"_ZNSt6vectorIhSaIhEE13shrink_to_fitEv"
.LASF1365:
	.string	"params"
.LASF187:
	.string	"_ZNKSt6vectorIhSaIhEE4cendEv"
.LASF156:
	.string	"_ZNSt6vectorIhSaIhEEC4ERKS1_RKS0_"
.LASF1088:
	.string	"decimal_point"
.LASF339:
	.string	"_ZNSt6vectorI16SubApertureImageSaIS0_EEC4EOS2_"
.LASF416:
	.string	"allocator_traits<std::allocator<(anonymous namespace)::SubParams> >"
.LASF66:
	.string	"address"
.LASF775:
	.string	"_OutputIterator"
.LASF1051:
	.string	"_ZN9__gnu_cxx14__alloc_traitsISaIiEiE15_S_nothrow_moveEv"
.LASF550:
	.string	"_ZNSt6vectorIiSaIiEE21_M_default_initializeEm"
.LASF389:
	.string	"_ZNSt6vectorI16SubApertureImageSaIS0_EE5eraseEN9__gnu_cxx17__normal_iteratorIPKS0_S2_EE"
.LASF71:
	.string	"_ZNKSt15__new_allocatorIhE7addressERKh"
.LASF1417:
	.string	"decltype(nullptr)"
.LASF1288:
	.string	"this"
.LASF514:
	.string	"_ZNKSt6vectorIiSaIiEE4rendEv"
.LASF190:
	.string	"crend"
.LASF654:
	.string	"_ZNKSt6vectorIfSaIfEE4rendEv"
.LASF1197:
	.string	"fclose"
.LASF1175:
	.string	"strtoul"
.LASF1327:
	.string	"_ZNSt15__new_allocatorIfED2Ev"
.LASF463:
	.string	"_ZNSt12_Vector_baseIiSaIiEE12_Vector_implC4EOS2_"
.LASF967:
	.string	"_ZN9__gnu_cxx14__alloc_traitsISaIhEhE15_S_always_equalEv"
.LASF957:
	.string	"_ZN9__gnu_cxx14__alloc_traitsISaIhEhE17_S_select_on_copyERKS1_"
.LASF704:
	.string	"_ZNSt6vectorIfSaIfEE14_M_move_assignEOS1_St17integral_constantIbLb1EE"
.LASF534:
	.string	"_ZNSt6vectorIiSaIiEE4backEv"
.LASF843:
	.string	"_flags"
.LASF1099:
	.string	"frac_digits"
.LASF506:
	.string	"_ZNSt6vectorIiSaIiEE6assignESt16initializer_listIiE"
.LASF1153:
	.string	"timespec"
.LASF354:
	.string	"_ZNKSt6vectorI16SubApertureImageSaIS0_EE3endEv"
.LASF563:
	.string	"_ZNSt6vectorIiSaIiEE8_M_eraseEN9__gnu_cxx17__normal_iteratorIPiS1_EES5_"
.LASF885:
	.string	"mbrlen"
.LASF674:
	.string	"_ZNSt6vectorIfSaIfEE4backEv"
.LASF1144:
	.string	"ldiv_t"
.LASF963:
	.string	"_ZN9__gnu_cxx14__alloc_traitsISaIhEhE27_S_propagate_on_move_assignEv"
.LASF206:
	.string	"operator[]"
.LASF56:
	.string	"__detail"
.LASF701:
	.string	"_ZNSt6vectorIfSaIfEE15_M_erase_at_endEPf"
.LASF1125:
	.string	"__int_least16_t"
.LASF695:
	.string	"_ZNSt6vectorIfSaIfEE16_M_shrink_to_fitEv"
.LASF1345:
	.string	"__lo"
.LASF333:
	.string	"_ZNSt6vectorI16SubApertureImageSaIS0_EE11_S_relocateEPS0_S3_S3_RS1_"
.LASF554:
	.string	"_ZNSt6vectorIiSaIiEE17_M_default_appendEm"
.LASF543:
	.string	"_ZNSt6vectorIiSaIiEE6insertEN9__gnu_cxx17__normal_iteratorIPKiS1_EESt16initializer_listIiE"
.LASF1296:
	.string	"__val"
.LASF1308:
	.string	"_ZN9__gnu_cxx17__normal_iteratorIPhSt6vectorIhSaIhEEEC2ERKS1_"
.LASF1001:
	.string	"__alloc_traits<std::allocator<SubApertureImage>, SubApertureImage>"
.LASF893:
	.string	"__isoc23_swscanf"
.LASF1309:
	.string	"_ZNSt12_Vector_baseIhSaIhEEC2EmRKS0_"
.LASF1178:
	.string	"wcstombs"
.LASF783:
	.string	"_ZSt24__uninitialized_fill_n_aIPfmffET_S1_T0_RKT1_RSaIT2_E"
.LASF663:
	.string	"_ZNSt6vectorIfSaIfEE13shrink_to_fitEv"
.LASF1354:
	.string	"_ZNSaIiEC2Ev"
.LASF1319:
	.string	"__tmp"
.LASF207:
	.string	"_ZNSt6vectorIhSaIhEEixEm"
.LASF241:
	.string	"_ZNSt6vectorIhSaIhEE21_M_default_initializeEm"
.LASF172:
	.string	"const_iterator"
.LASF1355:
	.string	"__old_size"
.LASF800:
	.string	"_Destroy<unsigned char*>"
.LASF397:
	.string	"_ZNSt6vectorI16SubApertureImageSaIS0_EE14_M_fill_appendEmRKS0_"
.LASF1045:
	.string	"_ZN9__gnu_cxx14__alloc_traitsISaIiEiE17_S_select_on_copyERKS1_"
.LASF1313:
	.string	"_ZNSt12_Vector_baseIiSaIiEE12_Vector_implC2ERKS0_"
.LASF597:
	.string	"_ZNSt16allocator_traitsISaIfEE37select_on_container_copy_constructionERKS0_"
.LASF90:
	.string	"allocator_type"
.LASF475:
	.string	"_ZNSt12_Vector_baseIiSaIiEEC4EmRKS0_"
.LASF508:
	.string	"_ZNKSt6vectorIiSaIiEE5beginEv"
.LASF1382:
	.string	"vrow"
.LASF1420:
	.string	"execution"
.LASF225:
	.string	"pop_back"
.LASF601:
	.string	"_ZNSt12_Vector_baseIfSaIfEE17_Vector_impl_data12_M_copy_dataERKS2_"
.LASF351:
	.string	"_ZNSt6vectorI16SubApertureImageSaIS0_EE5beginEv"
.LASF1341:
	.string	"__add"
.LASF824:
	.string	"floor"
.LASF342:
	.string	"_ZNSt6vectorI16SubApertureImageSaIS0_EEC4EOS2_RKS1_St17integral_constantIbLb0EE"
.LASF1234:
	.string	"int_fast16_t"
.LASF1191:
	.string	"__fpos_t"
.LASF687:
	.string	"_ZNSt6vectorIfSaIfEE4swapERS1_"
.LASF1344:
	.string	"_ZNSaIhEC2Ev"
.LASF528:
	.string	"_ZNKSt6vectorIiSaIiEEixEm"
.LASF298:
	.string	"_ZNSt16allocator_traitsISaI16SubApertureImageEE8max_sizeERKS1_"
.LASF779:
	.string	"_ZSt8__fill_aIN9__gnu_cxx17__normal_iteratorIPhSt6vectorIhSaIhEEEEhEvT_S7_RKT0_"
.LASF178:
	.string	"_ZNSt6vectorIhSaIhEE6rbeginEv"
.LASF395:
	.string	"_ZNSt6vectorI16SubApertureImageSaIS0_EE14_M_fill_assignEmRKS0_"
.LASF158:
	.string	"_ZNSt6vectorIhSaIhEEC4EOS1_RKS0_St17integral_constantIbLb0EE"
.LASF381:
	.string	"_ZNKSt6vectorI16SubApertureImageSaIS0_EE4dataEv"
.LASF103:
	.string	"_M_end_of_storage"
.LASF892:
	.string	"swscanf"
.LASF515:
	.string	"_ZNKSt6vectorIiSaIiEE6cbeginEv"
.LASF356:
	.string	"_ZNKSt6vectorI16SubApertureImageSaIS0_EE6rbeginEv"
.LASF1401:
	.string	"memset"
.LASF329:
	.string	"_ZNSt6vectorI16SubApertureImageSaIS0_EE19_S_nothrow_relocateESt17integral_constantIbLb0EE"
.LASF749:
	.string	"_Construct<int, int const&>"
.LASF1196:
	.string	"clearerr"
.LASF434:
	.string	"__new_allocator<int>"
.LASF722:
	.string	"_ZNSt19_UninitDestroyGuardIPivEC4ERS0_"
.LASF766:
	.string	"_Cont"
.LASF525:
	.string	"_ZNKSt6vectorIiSaIiEE5emptyEv"
.LASF254:
	.string	"_M_emplace_aux"
.LASF578:
	.string	"_ZNSt15__new_allocatorIfEC4ERKS0_"
.LASF1066:
	.string	"operator!="
.LASF1055:
	.string	"__alloc_traits<std::allocator<float>, float>"
.LASF1220:
	.string	"ungetc"
.LASF1149:
	.string	"int8_t"
.LASF483:
	.string	"_ZNSt12_Vector_baseIiSaIiEE17_M_create_storageEm"
.LASF854:
	.string	"_IO_save_end"
.LASF943:
	.string	"wprintf"
.LASF400:
	.string	"_ZNSt6vectorI16SubApertureImageSaIS0_EE14_M_insert_rvalEN9__gnu_cxx17__normal_iteratorIPKS0_S2_EEOS0_"
.LASF437:
	.string	"_ZNSt15__new_allocatorIiEaSERKS0_"
.LASF549:
	.string	"_ZNSt6vectorIiSaIiEE18_M_fill_initializeEmRKi"
.LASF960:
	.string	"_S_propagate_on_copy_assign"
.LASF791:
	.string	"__relocate_a_1<(anonymous namespace)::SubParams, (anonymous namespace)::SubParams>"
.LASF1238:
	.string	"uint_fast16_t"
.LASF1227:
	.string	"int_least32_t"
.LASF1171:
	.string	"srand"
.LASF57:
	.string	"__new_allocator<unsigned char>"
.LASF1100:
	.string	"p_cs_precedes"
.LASF906:
	.string	"wcscmp"
.LASF664:
	.string	"_ZNKSt6vectorIfSaIfEE8capacityEv"
.LASF652:
	.string	"_ZNKSt6vectorIfSaIfEE6rbeginEv"
.LASF558:
	.string	"_ZNKSt6vectorIiSaIiEE12_M_check_lenEmPKc"
.LASF788:
	.string	"_ZSt24__uninitialized_fill_n_aIPimiiET_S1_T0_RKT1_RSaIT2_E"
.LASF292:
	.string	"_ZNSaI16SubApertureImageED4Ev"
.LASF830:
	.string	"fp_offset"
.LASF141:
	.string	"type"
.LASF1136:
	.string	"__time_t"
.LASF888:
	.string	"mbsrtowcs"
.LASF26:
	.string	"_M_get"
.LASF1095:
	.string	"mon_grouping"
.LASF829:
	.string	"gp_offset"
.LASF1305:
	.string	"_ZNSt12_Vector_baseIiSaIiEE17_Vector_impl_dataC2Ev"
.LASF68:
	.string	"pointer"
.LASF502:
	.string	"_ZNSt6vectorIiSaIiEEaSERKS1_"
.LASF248:
	.string	"_M_default_append"
.LASF1029:
	.string	"_ZNK9__gnu_cxx17__normal_iteratorIPK16SubApertureImageSt6vectorIS1_SaIS1_EEEptEv"
.LASF1084:
	.string	"__int128"
.LASF177:
	.string	"rbegin"
.LASF1005:
	.string	"_ZN9__gnu_cxx14__alloc_traitsISaI16SubApertureImageES1_E27_S_propagate_on_move_assignEv"
.LASF143:
	.string	"vector<unsigned char, std::allocator<unsigned char> >"
.LASF773:
	.string	"__fill_n_a<unsigned char*, long unsigned int, unsigned char>"
.LASF918:
	.string	"tm_yday"
.LASF887:
	.string	"mbsinit"
.LASF193:
	.string	"_ZNKSt6vectorIhSaIhEE4sizeEv"
.LASF1034:
	.string	"_ZNK9__gnu_cxx17__normal_iteratorIPK16SubApertureImageSt6vectorIS1_SaIS1_EEEixEl"
.LASF37:
	.string	"~exception_ptr"
.LASF537:
	.string	"_ZNKSt6vectorIiSaIiEE4dataEv"
.LASF1078:
	.string	"max_align_t"
.LASF430:
	.string	"reverse_iterator<__gnu_cxx::__normal_iterator<const (anonymous namespace)::SubParams*, std::vector<(anonymous namespace)::SubParams, std::allocator<(anonymous namespace)::SubParams> > > >"
.LASF1096:
	.string	"positive_sign"
.LASF912:
	.string	"tm_min"
.LASF936:
	.string	"__isoc23_wcstoul"
.LASF1419:
	.string	"_ZN9ImageDataD4Ev"
.LASF36:
	.string	"_ZNSt15__exception_ptr13exception_ptraSEOS0_"
.LASF1177:
	.string	"system"
.LASF1150:
	.string	"int16_t"
.LASF1030:
	.string	"_ZN9__gnu_cxx17__normal_iteratorIPK16SubApertureImageSt6vectorIS1_SaIS1_EEEppEv"
.LASF418:
	.string	"_Vector_base<(anonymous namespace)::SubParams, std::allocator<(anonymous namespace)::SubParams> >"
.LASF813:
	.string	"_InputIterator"
.LASF873:
	.string	"short unsigned int"
.LASF243:
	.string	"_ZNSt6vectorIhSaIhEE14_M_fill_assignEmRKh"
.LASF1082:
	.string	"signed char"
.LASF747:
	.string	"_Construct<float, float const&>"
.LASF194:
	.string	"_ZNKSt6vectorIhSaIhEE8max_sizeEv"
.LASF368:
	.string	"_ZNKSt6vectorI16SubApertureImageSaIS0_EE8capacityEv"
.LASF726:
	.string	"_ZNSt19_UninitDestroyGuardIPivE7releaseEv"
.LASF107:
	.string	"_ZNSt12_Vector_baseIhSaIhEE17_Vector_impl_data12_M_copy_dataERKS2_"
.LASF493:
	.string	"_ZNSt6vectorIiSaIiEEC4EmRKiRKS0_"
.LASF1280:
	.string	"x_begin"
.LASF174:
	.string	"_ZNSt6vectorIhSaIhEE3endEv"
.LASF446:
	.string	"_ZNSaIiEC4Ev"
.LASF979:
	.string	"_ZNK9__gnu_cxx17__normal_iteratorIPhSt6vectorIhSaIhEEEdeEv"
.LASF432:
	.string	"difference_type"
.LASF538:
	.string	"_ZNSt6vectorIiSaIiEE9push_backERKi"
.LASF46:
	.string	"ptrdiff_t"
.LASF891:
	.string	"swprintf"
.LASF32:
	.string	"_ZNSt15__exception_ptr13exception_ptrC4EDn"
.LASF415:
	.string	"allocator<(anonymous namespace)::SubParams>"
.LASF91:
	.string	"_ZNSt16allocator_traitsISaIhEE8allocateERS0_m"
.LASF682:
	.string	"_ZNSt6vectorIfSaIfEE6insertEN9__gnu_cxx17__normal_iteratorIPKfS1_EEOf"
.LASF344:
	.string	"_ZNSt6vectorI16SubApertureImageSaIS0_EEC4ESt16initializer_listIS0_ERKS1_"
.LASF216:
	.string	"back"
.LASF706:
	.string	"_M_data_ptr<float>"
.LASF650:
	.string	"_ZNKSt6vectorIfSaIfEE3endEv"
.LASF840:
	.string	"mbstate_t"
.LASF945:
	.string	"__isoc23_wscanf"
.LASF435:
	.string	"_ZNSt15__new_allocatorIiEC4Ev"
.LASF1349:
	.string	"_ZNSaIfED2Ev"
.LASF379:
	.string	"_ZNKSt6vectorI16SubApertureImageSaIS0_EE4backEv"
.LASF615:
	.string	"_ZNSt12_Vector_baseIfSaIfEEC4EmRKS0_"
.LASF526:
	.string	"_ZNSt6vectorIiSaIiEE7reserveEm"
.LASF1134:
	.string	"__off64_t"
.LASF908:
	.string	"wcscpy"
.LASF877:
	.string	"wchar_t"
.LASF898:
	.string	"vswprintf"
.LASF1297:
	.string	"__len"
.LASF889:
	.string	"putwc"
.LASF150:
	.string	"_ZNSt6vectorIhSaIhEEC4Ev"
.LASF846:
	.string	"_IO_read_base"
.LASF180:
	.string	"_ZNKSt6vectorIhSaIhEE6rbeginEv"
.LASF367:
	.string	"_ZNSt6vectorI16SubApertureImageSaIS0_EE13shrink_to_fitEv"
.LASF864:
	.string	"_offset"
.LASF1037:
	.string	"_ZN9__gnu_cxx17__normal_iteratorIPK16SubApertureImageSt6vectorIS1_SaIS1_EEEmIEl"
.LASF1021:
	.string	"_ZNK9__gnu_cxx17__normal_iteratorIP16SubApertureImageSt6vectorIS1_SaIS1_EEEplEl"
.LASF1335:
	.string	"__old_finish"
.LASF218:
	.string	"_ZNKSt6vectorIhSaIhEE4backEv"
.LASF481:
	.string	"_ZNSt12_Vector_baseIiSaIiEE11_M_allocateEm"
.LASF276:
	.string	"reverse_iterator<__gnu_cxx::__normal_iterator<unsigned char const*, std::vector<unsigned char, std::allocator<unsigned char> > > >"
.LASF195:
	.string	"resize"
.LASF851:
	.string	"_IO_buf_end"
.LASF716:
	.string	"reverse_iterator<__gnu_cxx::__normal_iterator<float const*, std::vector<float, std::allocator<float> > > >"
.LASF175:
	.string	"_ZNKSt6vectorIhSaIhEE3endEv"
.LASF1166:
	.string	"mbstowcs"
.LASF1065:
	.string	"__normal_iterator<float const*, std::vector<float, std::allocator<float> > >"
.LASF112:
	.string	"_ZNSt12_Vector_baseIhSaIhEE12_Vector_implC4EOS2_"
.LASF456:
	.string	"_Vector_base<int, std::allocator<int> >"
.LASF1063:
	.string	"rebind<float>"
.LASF1105:
	.string	"n_sign_posn"
.LASF576:
	.string	"__new_allocator<float>"
.LASF973:
	.string	"_flags2"
.LASF817:
	.string	"_ZSt8_DestroyIPhhEvT_S1_RSaIT0_E"
.LASF754:
	.string	"_ZSt18__do_uninit_fill_nIPfmfET_S1_T0_RKT1_"
.LASF53:
	.string	"chrono"
.LASF926:
	.string	"wcsrtombs"
.LASF1188:
	.string	"_G_fpos_t"
.LASF157:
	.string	"_ZNSt6vectorIhSaIhEEC4EOS1_RKS0_St17integral_constantIbLb1EE"
.LASF264:
	.string	"_M_erase"
.LASF917:
	.string	"tm_wday"
.LASF131:
	.string	"_ZNSt12_Vector_baseIhSaIhEED4Ev"
.LASF562:
	.string	"_ZNSt6vectorIiSaIiEE8_M_eraseEN9__gnu_cxx17__normal_iteratorIPiS1_EE"
.LASF909:
	.string	"wcscspn"
.LASF593:
	.string	"_ZNSt16allocator_traitsISaIfEE8allocateERS0_m"
.LASF23:
	.string	"_M_release"
.LASF870:
	.string	"_mode"
.LASF521:
	.string	"_ZNSt6vectorIiSaIiEE6resizeEm"
.LASF361:
	.string	"_ZNKSt6vectorI16SubApertureImageSaIS0_EE7crbeginEv"
.LASF134:
	.string	"_ZNSt12_Vector_baseIhSaIhEE11_M_allocateEm"
.LASF357:
	.string	"_ZNSt6vectorI16SubApertureImageSaIS0_EE4rendEv"
.LASF847:
	.string	"_IO_write_base"
.LASF1282:
	.string	"y_begin"
.LASF530:
	.string	"_ZNSt6vectorIiSaIiEE2atEm"
.LASF1399:
	.string	"_ZnwmPv"
.LASF328:
	.string	"_ZNSt6vectorI16SubApertureImageSaIS0_EE19_S_nothrow_relocateESt17integral_constantIbLb1EE"
.LASF835:
	.string	"__wch"
.LASF311:
	.string	"_ZNSt12_Vector_baseI16SubApertureImageSaIS0_EE19_M_get_Tp_allocatorEv"
.LASF259:
	.string	"_ZNSt6vectorIhSaIhEE17_S_check_init_lenEmRKS0_"
.LASF565:
	.string	"_ZNSt6vectorIiSaIiEE14_M_move_assignEOS1_St17integral_constantIbLb0EE"
.LASF608:
	.string	"_ZNSt12_Vector_baseIfSaIfEE12_Vector_implD4Ev"
.LASF571:
	.string	"_ZNKSt16initializer_listIiE4sizeEv"
.LASF806:
	.string	"max<float>"
.LASF189:
	.string	"_ZNKSt6vectorIhSaIhEE7crbeginEv"
.LASF1343:
	.string	"_ZNSt12_Vector_baseIhSaIhEE17_Vector_impl_dataC2Ev"
.LASF505:
	.string	"_ZNSt6vectorIiSaIiEE6assignEmRKi"
.LASF815:
	.string	"_Destroy<(anonymous namespace)::SubParams*, (anonymous namespace)::SubParams>"
.LASF899:
	.string	"vswscanf"
.LASF473:
	.string	"_ZNSt12_Vector_baseIiSaIiEEC4ERKS0_"
.LASF1307:
	.string	"__dest"
.LASF915:
	.string	"tm_mon"
.LASF491:
	.string	"_ZNSt6vectorIiSaIiEEC4ERKS0_"
.LASF1359:
	.string	"_ZNSt12_Vector_baseIhSaIhEE12_Vector_implC2Ev"
.LASF1072:
	.string	"long long int"
.LASF1252:
	.string	"time"
.LASF488:
	.string	"_ZNSt6vectorIiSaIiEE15_S_use_relocateEv"
.LASF1185:
	.string	"__isoc23_strtoull"
.LASF1242:
	.string	"uintptr_t"
.LASF286:
	.string	"_ZNKSt15__new_allocatorI16SubApertureImageE8max_sizeEv"
.LASF41:
	.string	"__cxa_exception_type"
.LASF535:
	.string	"_ZNKSt6vectorIiSaIiEE4backEv"
.LASF7:
	.string	"operator()"
.LASF1283:
	.string	"y_end"
.LASF1202:
	.string	"fgetpos"
.LASF485:
	.string	"vector<int, std::allocator<int> >"
.LASF1391:
	.string	"__lhs"
.LASF675:
	.string	"_ZNKSt6vectorIfSaIfEE4backEv"
.LASF1306:
	.string	"_ZNSt15__new_allocatorIiEC2ERKS0_"
.LASF1022:
	.string	"_ZN9__gnu_cxx17__normal_iteratorIP16SubApertureImageSt6vectorIS1_SaIS1_EEEmIEl"
.LASF220:
	.string	"_ZNSt6vectorIhSaIhEE4dataEv"
.LASF377:
	.string	"_ZNKSt6vectorI16SubApertureImageSaIS0_EE5frontEv"
.LASF901:
	.string	"vwprintf"
.LASF1192:
	.string	"_IO_marker"
.LASF869:
	.string	"_prevchain"
.LASF494:
	.string	"_ZNSt6vectorIiSaIiEEC4ERKS1_"
.LASF1277:
	.string	"_Float64x"
.LASF916:
	.string	"tm_year"
.LASF1124:
	.string	"__uint_least8_t"
.LASF11:
	.string	"integral_constant<bool, false>"
.LASF310:
	.string	"_ZNSt12_Vector_baseI16SubApertureImageSaIS0_EE12_Vector_implC4EOS1_OS3_"
.LASF454:
	.string	"_ZNSt16allocator_traitsISaIiEE8max_sizeERKS0_"
.LASF1210:
	.string	"getc"
.LASF1294:
	.string	"_ZNSt19_UninitDestroyGuardIPivED2Ev"
.LASF944:
	.string	"wscanf"
.LASF347:
	.string	"_ZNSt6vectorI16SubApertureImageSaIS0_EEaSEOS2_"
.LASF702:
	.string	"_ZNSt6vectorIfSaIfEE8_M_eraseEN9__gnu_cxx17__normal_iteratorIPfS1_EE"
.LASF1298:
	.string	"__guard"
.LASF1159:
	.string	"atof"
.LASF645:
	.string	"_ZNSt6vectorIfSaIfEE6assignEmRKf"
.LASF544:
	.string	"_ZNSt6vectorIiSaIiEE6insertEN9__gnu_cxx17__normal_iteratorIPKiS1_EEmRS4_"
.LASF147:
	.string	"_S_relocate"
.LASF366:
	.string	"_ZNSt6vectorI16SubApertureImageSaIS0_EE6resizeEmRKS0_"
.LASF524:
	.string	"_ZNKSt6vectorIiSaIiEE8capacityEv"
.LASF411:
	.string	"reverse_iterator<__gnu_cxx::__normal_iterator<SubApertureImage*, std::vector<SubApertureImage, std::allocator<SubApertureImage> > > >"
.LASF1241:
	.string	"intptr_t"
.LASF719:
	.string	"iterator_traits<unsigned char*>"
.LASF839:
	.string	"__mbstate_t"
.LASF1093:
	.string	"mon_decimal_point"
.LASF1287:
	.string	"_Znwm"
.LASF413:
	.string	"__new_allocator<(anonymous namespace)::SubParams>"
.LASF1223:
	.string	"uint32_t"
.LASF39:
	.string	"swap"
.LASF992:
	.string	"_ZNK9__gnu_cxx17__normal_iteratorIPhSt6vectorIhSaIhEEEplEl"
.LASF331:
	.string	"_ZNSt6vectorIhSaIhEE15_S_use_relocateEv"
.LASF1193:
	.string	"_IO_codecvt"
.LASF761:
	.string	"__niter_base<unsigned char*>"
.LASF1324:
	.string	"_ZNSt12_Vector_baseIfSaIfEED2Ev"
.LASF803:
	.string	"_ZSt3minImERKT_S2_S2_"
.LASF580:
	.string	"_ZNSt15__new_allocatorIfED4Ev"
.LASF668:
	.string	"_ZNKSt6vectorIfSaIfEEixEm"
.LASF228:
	.string	"_ZNSt6vectorIhSaIhEE6insertEN9__gnu_cxx17__normal_iteratorIPKhS1_EERS4_"
.LASF770:
	.string	"_ZSt20uninitialized_fill_nIPimiET_S1_T0_RKT1_"
.LASF1172:
	.string	"strtod"
.LASF1186:
	.string	"strtof"
.LASF796:
	.string	"__uninitialized_fill_n_a<unsigned char*, long unsigned int, unsigned char, unsigned char>"
.LASF1173:
	.string	"strtol"
.LASF955:
	.string	"__alloc_traits<std::allocator<unsigned char>, unsigned char>"
.LASF1069:
	.string	"long double"
.LASF127:
	.string	"_ZNSt12_Vector_baseIhSaIhEEC4EOS0_"
.LASF82:
	.string	"allocator<unsigned char>"
.LASF696:
	.string	"_ZNSt6vectorIfSaIfEE14_M_insert_rvalEN9__gnu_cxx17__normal_iteratorIPKfS1_EEOf"
.LASF268:
	.string	"_ZNSt6vectorIhSaIhEE14_M_move_assignEOS1_St17integral_constantIbLb1EE"
.LASF998:
	.string	"_ZNK9__gnu_cxx17__normal_iteratorIPhSt6vectorIhSaIhEEE4baseEv"
.LASF1010:
	.string	"__normal_iterator<SubApertureImage*, std::vector<SubApertureImage, std::allocator<SubApertureImage> > >"
.LASF335:
	.string	"_ZNSt6vectorI16SubApertureImageSaIS0_EEC4ERKS1_"
.LASF1101:
	.string	"p_sep_by_space"
.LASF742:
	.string	"__throw_bad_alloc"
.LASF828:
	.string	"long unsigned int"
.LASF691:
	.string	"_ZNSt6vectorIfSaIfEE14_M_fill_assignEmRKf"
.LASF958:
	.string	"_S_on_swap"
.LASF307:
	.string	"_ZNSt12_Vector_baseI16SubApertureImageSaIS0_EE12_Vector_implC4ERKS1_"
.LASF989:
	.string	"operator+="
.LASF739:
	.string	"_S_destroy<float*>"
.LASF1378:
	.string	"pTLb"
.LASF717:
	.string	"enable_if<true, (anonymous namespace)::SubParams*>"
.LASF1377:
	.string	"pTLg"
.LASF126:
	.string	"_ZNSt12_Vector_baseIhSaIhEEC4EOS1_"
.LASF1219:
	.string	"tmpnam"
.LASF1376:
	.string	"pTLr"
.LASF818:
	.string	"clamp<float>"
.LASF1199:
	.string	"ferror"
.LASF139:
	.string	"_Alloc"
.LASF338:
	.string	"_ZNSt6vectorI16SubApertureImageSaIS0_EEC4ERKS2_"
.LASF245:
	.string	"_ZNSt6vectorIhSaIhEE14_M_fill_insertEN9__gnu_cxx17__normal_iteratorIPhS1_EEmRKh"
.LASF336:
	.string	"_ZNSt6vectorI16SubApertureImageSaIS0_EEC4EmRKS1_"
.LASF1395:
	.string	"_ZNSt6vectorIhSaIhEEC2Ev"
.LASF823:
	.string	"_ZSt3maxIiERKT_S2_S2_"
.LASF84:
	.string	"_ZNSaIhEC4Ev"
.LASF443:
	.string	"_ZNKSt15__new_allocatorIiE8max_sizeEv"
.LASF1258:
	.string	"wctype_t"
.LASF3:
	.string	"char"
.LASF904:
	.string	"wcrtomb"
.LASF933:
	.string	"__isoc23_wcstol"
.LASF270:
	.string	"_M_data_ptr<unsigned char>"
.LASF778:
	.string	"__fill_a<__gnu_cxx::__normal_iterator<unsigned char*, std::vector<unsigned char> >, unsigned char>"
.LASF222:
	.string	"push_back"
.LASF1068:
	.string	"wcstold"
.LASF673:
	.string	"_ZNKSt6vectorIfSaIfEE5frontEv"
.LASF1357:
	.string	"_ZNSt12_Vector_baseIhSaIhEED2Ev"
.LASF982:
	.string	"operator++"
.LASF1103:
	.string	"n_sep_by_space"
.LASF567:
	.string	"_M_array"
.LASF414:
	.string	"construct<(anonymous namespace)::SubParams, const (anonymous namespace)::SubParams&>"
.LASF859:
	.string	"_old_offset"
.LASF441:
	.string	"_ZNSt15__new_allocatorIiE8allocateEmPKv"
.LASF1338:
	.string	"__new_finish"
.LASF1006:
	.string	"_ZN9__gnu_cxx14__alloc_traitsISaI16SubApertureImageES1_E20_S_propagate_on_swapEv"
.LASF186:
	.string	"cend"
.LASF822:
	.string	"max<int>"
.LASF231:
	.string	"_ZNSt6vectorIhSaIhEE6insertEN9__gnu_cxx17__normal_iteratorIPKhS1_EEmRS4_"
.LASF850:
	.string	"_IO_buf_base"
.LASF564:
	.string	"_ZNSt6vectorIiSaIiEE14_M_move_assignEOS1_St17integral_constantIbLb1EE"
.LASF250:
	.string	"_M_shrink_to_fit"
.LASF373:
	.string	"_ZNKSt6vectorI16SubApertureImageSaIS0_EE14_M_range_checkEm"
.LASF142:
	.string	"_Type"
.LASF985:
	.string	"operator--"
.LASF741:
	.string	"__throw_bad_array_new_length"
.LASF871:
	.string	"_unused2"
.LASF570:
	.string	"_ZNSt16initializer_listIiEC4Ev"
.LASF87:
	.string	"~allocator"
.LASF993:
	.string	"operator-="
.LASF980:
	.string	"operator->"
.LASF1250:
	.string	"difftime"
.LASF1236:
	.string	"int_fast64_t"
.LASF518:
	.string	"_ZNKSt6vectorIiSaIiEE5crendEv"
.LASF29:
	.string	"_ZNKSt15__exception_ptr13exception_ptr21_M_exception_ptr_castERKSt9type_info"
.LASF845:
	.string	"_IO_read_end"
.LASF501:
	.string	"_ZNSt6vectorIiSaIiEED4Ev"
.LASF1318:
	.string	"__alloc"
.LASF352:
	.string	"_ZNKSt6vectorI16SubApertureImageSaIS0_EE5beginEv"
.LASF734:
	.string	"_UninitDestroyGuard<float*, void>"
.LASF167:
	.string	"_ZNSt6vectorIhSaIhEE6assignEmRKh"
.LASF458:
	.string	"_ZNSt12_Vector_baseIiSaIiEE17_Vector_impl_dataC4EOS2_"
.LASF842:
	.string	"_IO_FILE"
.LASF417:
	.string	"_Args"
.LASF950:
	.string	"wmemchr"
.LASF1348:
	.string	"_ZNSt6vectorIfSaIfEEC2EmRKfRKS0_"
.LASF393:
	.string	"_ZNSt6vectorI16SubApertureImageSaIS0_EE18_M_fill_initializeEmRKS0_"
.LASF1194:
	.string	"_IO_wide_data"
.LASF1052:
	.string	"rebind<int>"
.LASF632:
	.string	"_ZNSt6vectorIfSaIfEEC4EmRKS0_"
.LASF457:
	.string	"_ZNSt12_Vector_baseIiSaIiEE17_Vector_impl_dataC4Ev"
.LASF43:
	.string	"rethrow_exception"
.LASF1415:
	.string	"_ZN9__gnu_cxx21__default_lock_policyE"
.LASF913:
	.string	"tm_hour"
.LASF372:
	.string	"_ZNKSt6vectorI16SubApertureImageSaIS0_EEixEm"
.LASF748:
	.string	"_ZSt10_ConstructIfJRKfEEvPT_DpOT0_"
.LASF359:
	.string	"_ZNKSt6vectorI16SubApertureImageSaIS0_EE6cbeginEv"
.LASF25:
	.string	"_ZNSt15__exception_ptr13exception_ptr10_M_releaseEv"
.LASF751:
	.string	"__fill_a1<unsigned char, unsigned char>"
.LASF1086:
	.string	"char32_t"
.LASF1181:
	.string	"atoll"
.LASF667:
	.string	"_ZNSt6vectorIfSaIfEEixEm"
.LASF233:
	.string	"_ZNSt6vectorIhSaIhEE5eraseEN9__gnu_cxx17__normal_iteratorIPKhS1_EE"
.LASF1207:
	.string	"fseek"
.LASF738:
	.string	"_ZNSt19_UninitDestroyGuardIPfvEC4ERKS1_"
.LASF104:
	.string	"_ZNSt12_Vector_baseIhSaIhEE17_Vector_impl_dataC4Ev"
.LASF246:
	.string	"_M_fill_append"
.LASF316:
	.string	"_ZNSt12_Vector_baseI16SubApertureImageSaIS0_EEC4Em"
.LASF1240:
	.string	"uint_fast64_t"
.LASF314:
	.string	"_ZNSt12_Vector_baseI16SubApertureImageSaIS0_EEC4Ev"
.LASF732:
	.string	"_Iter"
.LASF607:
	.string	"_ZNSt12_Vector_baseIfSaIfEE12_Vector_implC4EOS0_OS2_"
.LASF1162:
	.string	"bsearch"
.LASF224:
	.string	"_ZNSt6vectorIhSaIhEE9push_backEOh"
.LASF1311:
	.string	"_ZNSt12_Vector_baseIfSaIfEE12_Vector_implC2ERKS0_"
.LASF552:
	.string	"_ZNSt6vectorIiSaIiEE14_M_fill_insertEN9__gnu_cxx17__normal_iteratorIPiS1_EEmRKi"
.LASF1119:
	.string	"__int32_t"
.LASF179:
	.string	"const_reverse_iterator"
.LASF1206:
	.string	"freopen"
.LASF1113:
	.string	"getwchar"
.LASF816:
	.string	"_Destroy<unsigned char*, unsigned char>"
.LASF1018:
	.string	"_ZN9__gnu_cxx17__normal_iteratorIP16SubApertureImageSt6vectorIS1_SaIS1_EEEmmEi"
.LASF1367:
	.string	"vals"
.LASF1111:
	.string	"int_n_sign_posn"
.LASF92:
	.string	"_ZNSt16allocator_traitsISaIhEE8allocateERS0_mPKv"
.LASF349:
	.string	"_ZNSt6vectorI16SubApertureImageSaIS0_EE6assignEmRKS0_"
.LASF31:
	.string	"_ZNSt15__exception_ptr13exception_ptrC4ERKS0_"
.LASF24:
	.string	"_ZNSt15__exception_ptr13exception_ptr9_M_addrefEv"
.LASF914:
	.string	"tm_mday"
.LASF710:
	.string	"_ZNSt16initializer_listIfEC4Ev"
.LASF1053:
	.string	"__normal_iterator<int*, std::vector<int, std::allocator<int> > >"
.LASF421:
	.string	"_Base"
.LASF93:
	.string	"const_void_pointer"
.LASF72:
	.string	"const_reference"
.LASF396:
	.string	"_ZNSt6vectorI16SubApertureImageSaIS0_EE14_M_fill_insertEN9__gnu_cxx17__normal_iteratorIPS0_S2_EEmRKS0_"
.LASF1017:
	.string	"_ZN9__gnu_cxx17__normal_iteratorIP16SubApertureImageSt6vectorIS1_SaIS1_EEEmmEv"
.LASF80:
	.string	"_M_max_size"
.LASF802:
	.string	"min<long unsigned int>"
.LASF1284:
	.string	"operator delete"
.LASF758:
	.string	"__fill_a<unsigned char*, unsigned char>"
.LASF671:
	.string	"_ZNKSt6vectorIfSaIfEE2atEm"
.LASF1257:
	.string	"timespec_get"
.LASF1036:
	.string	"_ZNK9__gnu_cxx17__normal_iteratorIPK16SubApertureImageSt6vectorIS1_SaIS1_EEEplEl"
.LASF21:
	.string	"_ZNSt15__exception_ptr13exception_ptrC4EPv"
.LASF1041:
	.string	"rebind<(anonymous namespace)::SubParams>"
.LASF555:
	.string	"_ZNSt6vectorIiSaIiEE16_M_shrink_to_fitEv"
.LASF1208:
	.string	"fsetpos"
.LASF591:
	.string	"_ZNSaIfED4Ev"
.LASF825:
	.string	"_ZSt5floorf"
.LASF378:
	.string	"_ZNSt6vectorI16SubApertureImageSaIS0_EE4backEv"
.LASF40:
	.string	"_ZNSt15__exception_ptr13exception_ptr4swapERS0_"
.LASF855:
	.string	"_markers"
.LASF1152:
	.string	"int64_t"
.LASF474:
	.string	"_ZNSt12_Vector_baseIiSaIiEEC4Em"
.LASF954:
	.string	"_S_atomic"
.LASF772:
	.string	"_ZSt3maxImERKT_S2_S2_"
.LASF472:
	.string	"_ZNSt12_Vector_baseIiSaIiEEC4Ev"
.LASF1414:
	.string	"__default_lock_policy"
.LASF317:
	.string	"_ZNSt12_Vector_baseI16SubApertureImageSaIS0_EEC4EmRKS1_"
.LASF733:
	.string	"_ForwardIterator"
.LASF1351:
	.string	"_ZNSt6vectorIiSaIiEED2Ev"
.LASF294:
	.string	"_ZNSt16allocator_traitsISaI16SubApertureImageEE8allocateERS1_m"
.LASF1278:
	.string	"__pstl"
.LASF798:
	.string	"fill<__gnu_cxx::__normal_iterator<unsigned char*, std::vector<unsigned char> >, unsigned char>"
.LASF611:
	.string	"_ZNKSt12_Vector_baseIfSaIfEE13get_allocatorEv"
.LASF173:
	.string	"_ZNKSt6vectorIhSaIhEE5beginEv"
.LASF865:
	.string	"_codecvt"
.LASF1229:
	.string	"uint_least8_t"
.LASF282:
	.string	"_ZNKSt15__new_allocatorI16SubApertureImageE7addressERS0_"
.LASF1385:
	.string	"pTRb"
.LASF1164:
	.string	"ldiv"
.LASF1384:
	.string	"pTRg"
.LASF152:
	.string	"_ZNSt6vectorIhSaIhEEC4EmRKS0_"
.LASF594:
	.string	"_ZNSt16allocator_traitsISaIfEE8allocateERS0_mPKv"
.LASF725:
	.string	"release"
.LASF1383:
	.string	"pTRr"
.LASF232:
	.string	"erase"
.LASF929:
	.string	"double"
.LASF100:
	.string	"_M_exception_object"
.LASF247:
	.string	"_ZNSt6vectorIhSaIhEE14_M_fill_appendEmRKh"
.LASF807:
	.string	"_ZSt3maxIfERKT_S2_S2_"
.LASF18:
	.string	"__swappable_with_details"
.LASF648:
	.string	"_ZNKSt6vectorIfSaIfEE5beginEv"
.LASF1402:
	.string	"__builtin_memcpy"
.LASF831:
	.string	"overflow_arg_area"
.LASF841:
	.string	"__FILE"
.LASF1411:
	.string	"typedef __va_list_tag __va_list_tag"
.LASF972:
	.string	"__normal_iterator<unsigned char*, std::vector<unsigned char, std::allocator<unsigned char> > >"
.LASF340:
	.string	"_ZNSt6vectorI16SubApertureImageSaIS0_EEC4ERKS2_RKS1_"
.LASF1130:
	.string	"__uint_least64_t"
.LASF1049:
	.string	"_ZN9__gnu_cxx14__alloc_traitsISaIiEiE20_S_propagate_on_swapEv"
.LASF423:
	.string	"_M_storage"
.LASF556:
	.string	"_ZNSt6vectorIiSaIiEE14_M_insert_rvalEN9__gnu_cxx17__normal_iteratorIPKiS1_EEOi"
.LASF1254:
	.string	"ctime"
.LASF969:
	.string	"_ZN9__gnu_cxx14__alloc_traitsISaIhEhE15_S_nothrow_moveEv"
.LASF730:
	.string	"_S_destroy<int*>"
.LASF203:
	.string	"_ZNKSt6vectorIhSaIhEE5emptyEv"
.LASF433:
	.string	"_Iterator"
.LASF639:
	.string	"_ZNSt6vectorIfSaIfEEC4EOS1_RKS0_"
.LASF1369:
	.string	"__for_begin"
.LASF504:
	.string	"_ZNSt6vectorIiSaIiEEaSESt16initializer_listIiE"
.LASF574:
	.string	"reverse_iterator<__gnu_cxx::__normal_iterator<int const*, std::vector<int, std::allocator<int> > > >"
.LASF238:
	.string	"_M_fill_initialize"
.LASF1031:
	.string	"_ZN9__gnu_cxx17__normal_iteratorIPK16SubApertureImageSt6vectorIS1_SaIS1_EEEppEi"
.LASF686:
	.string	"_ZNSt6vectorIfSaIfEE5eraseEN9__gnu_cxx17__normal_iteratorIPKfS1_EES6_"
.LASF1120:
	.string	"__uint32_t"
.LASF1168:
	.string	"qsort"
.LASF1043:
	.string	"__normal_iterator<const (anonymous namespace)::SubParams*, std::vector<(anonymous namespace)::SubParams, std::allocator<(anonymous namespace)::SubParams> > >"
.LASF984:
	.string	"_ZN9__gnu_cxx17__normal_iteratorIPhSt6vectorIhSaIhEEEppEi"
.LASF135:
	.string	"_M_deallocate"
.LASF315:
	.string	"_ZNSt12_Vector_baseI16SubApertureImageSaIS0_EEC4ERKS1_"
.LASF191:
	.string	"_ZNKSt6vectorIhSaIhEE5crendEv"
.LASF219:
	.string	"data"
.LASF532:
	.string	"_ZNSt6vectorIiSaIiEE5frontEv"
.LASF939:
	.string	"wmemcmp"
.LASF764:
	.string	"_ZSt9__fill_a1IPhSt6vectorIhSaIhEEhEvN9__gnu_cxx17__normal_iteratorIT_T0_EES8_RKT1_"
.LASF787:
	.string	"__uninitialized_fill_n_a<int*, long unsigned int, int, int>"
.LASF300:
	.string	"_Vector_base<SubApertureImage, std::allocator<SubApertureImage> >"
.LASF983:
	.string	"_ZN9__gnu_cxx17__normal_iteratorIPhSt6vectorIhSaIhEEEppEv"
.LASF781:
	.string	"_ZSt8_DestroyIPfEvT_S1_"
.LASF211:
	.string	"_ZNSt6vectorIhSaIhEE2atEm"
.LASF838:
	.string	"__value"
.LASF665:
	.string	"_ZNKSt6vectorIfSaIfEE5emptyEv"
.LASF30:
	.string	"_ZNSt15__exception_ptr13exception_ptrC4Ev"
.LASF1389:
	.string	"inv_c"
.LASF546:
	.string	"_ZNSt6vectorIiSaIiEE5eraseEN9__gnu_cxx17__normal_iteratorIPKiS1_EES6_"
.LASF110:
	.string	"_ZNSt12_Vector_baseIhSaIhEE12_Vector_implC4Ev"
.LASF1363:
	.string	"focus"
.LASF812:
	.string	"__relocate_a<(anonymous namespace)::SubParams*, (anonymous namespace)::SubParams*, std::allocator<(anonymous namespace)::SubParams> >"
.LASF1409:
	.string	"literals"
.LASF111:
	.string	"_ZNSt12_Vector_baseIhSaIhEE12_Vector_implC4ERKS0_"
.LASF288:
	.string	"allocator<SubApertureImage>"
.LASF752:
	.string	"_ZSt9__fill_a1IhhEN9__gnu_cxx11__enable_ifIXaasrSt9__is_byteIT_E7__valueoosrSt10__are_sameIS3_T0_E7__valuesrSt20__memcpyable_integerIS6_E7__widthEvE6__typeEPS3_SC_RKS6_"
.LASF1410:
	.string	"__is_nothrow_new_constructible"
.LASF1337:
	.string	"__new_start"
.LASF482:
	.string	"_ZNSt12_Vector_baseIiSaIiEE13_M_deallocateEPim"
.LASF239:
	.string	"_ZNSt6vectorIhSaIhEE18_M_fill_initializeEmRKh"
.LASF163:
	.string	"_ZNSt6vectorIhSaIhEEaSERKS1_"
.LASF1408:
	.string	"input_iterator_tag"
.LASF959:
	.string	"_ZN9__gnu_cxx14__alloc_traitsISaIhEhE10_S_on_swapERS1_S3_"
.LASF406:
	.string	"_ZNSt6vectorI16SubApertureImageSaIS0_EE8_M_eraseEN9__gnu_cxx17__normal_iteratorIPS0_S2_EE"
.LASF1265:
	.string	"width"
.LASF997:
	.string	"base"
.LASF33:
	.string	"_ZNSt15__exception_ptr13exception_ptrC4EOS0_"
.LASF182:
	.string	"_ZNSt6vectorIhSaIhEE4rendEv"
.LASF1015:
	.string	"_ZN9__gnu_cxx17__normal_iteratorIP16SubApertureImageSt6vectorIS1_SaIS1_EEEppEv"
.LASF375:
	.string	"_ZNKSt6vectorI16SubApertureImageSaIS0_EE2atEm"
.LASF1217:
	.string	"setvbuf"
.LASF140:
	.string	"__type_identity<std::allocator<unsigned char> >"
.LASF642:
	.string	"_ZNSt6vectorIfSaIfEEaSERKS1_"
.LASF1176:
	.string	"__isoc23_strtoul"
.LASF801:
	.string	"_ZSt8_DestroyIPhEvT_S1_"
.LASF630:
	.string	"_ZNSt6vectorIfSaIfEEC4Ev"
.LASF586:
	.string	"_ZNKSt15__new_allocatorIfE11_M_max_sizeEv"
.LASF1140:
	.string	"5div_t"
.LASF1143:
	.string	"6ldiv_t"
.LASF1142:
	.string	"div_t"
.LASF640:
	.string	"_ZNSt6vectorIfSaIfEEC4ESt16initializer_listIfERKS0_"
.LASF343:
	.string	"_ZNSt6vectorI16SubApertureImageSaIS0_EEC4EOS2_RKS1_"
.LASF1158:
	.string	"at_quick_exit"
.LASF755:
	.string	"_Size"
.LASF1230:
	.string	"uint_least16_t"
.LASF279:
	.string	"_ZNSt15__new_allocatorI16SubApertureImageEC4ERKS1_"
.LASF202:
	.string	"empty"
.LASF868:
	.string	"_freeres_buf"
.LASF1023:
	.string	"_ZNK9__gnu_cxx17__normal_iteratorIP16SubApertureImageSt6vectorIS1_SaIS1_EEEmiEl"
.LASF662:
	.string	"_ZNSt6vectorIfSaIfEE6resizeEmRKf"
.LASF714:
	.string	"_ZNKSt16initializer_listIfE3endEv"
.LASF1167:
	.string	"mbtowc"
.LASF1016:
	.string	"_ZN9__gnu_cxx17__normal_iteratorIP16SubApertureImageSt6vectorIS1_SaIS1_EEEppEi"
.LASF164:
	.string	"_ZNSt6vectorIhSaIhEEaSEOS1_"
.LASF48:
	.string	"forward_iterator_tag"
.LASF205:
	.string	"_ZNSt6vectorIhSaIhEE7reserveEm"
.LASF1154:
	.string	"tv_sec"
.LASF102:
	.string	"_M_finish"
.LASF964:
	.string	"_S_propagate_on_swap"
.LASF240:
	.string	"_M_default_initialize"
.LASF1075:
	.string	"long long unsigned int"
.LASF782:
	.string	"__uninitialized_fill_n_a<float*, long unsigned int, float, float>"
.LASF786:
	.string	"_ZSt8_DestroyIPiEvT_S1_"
.LASF886:
	.string	"mbrtowc"
.LASF860:
	.string	"_cur_column"
.LASF765:
	.string	"_Ite"
.LASF819:
	.string	"_ZSt5clampIfERKT_S2_S2_S2_"
.LASF940:
	.string	"wmemcpy"
.LASF1156:
	.string	"__compar_fn_t"
.LASF387:
	.string	"_ZNSt6vectorI16SubApertureImageSaIS0_EE6insertEN9__gnu_cxx17__normal_iteratorIPKS0_S2_EESt16initializer_listIS0_E"
.LASF281:
	.string	"_ZNSt15__new_allocatorI16SubApertureImageED4Ev"
.LASF1332:
	.string	"_ZNSt15__new_allocatorIiED2Ev"
.LASF223:
	.string	"_ZNSt6vectorIhSaIhEE9push_backERKh"
.LASF731:
	.string	"_ZNSt19_UninitDestroyGuardIPivE10_S_destroyIS0_EEvT_S3_"
.LASF582:
	.string	"_ZNKSt15__new_allocatorIfE7addressERKf"
.LASF1147:
	.string	"clock_t"
.LASF130:
	.string	"~_Vector_base"
.LASF371:
	.string	"_ZNSt6vectorI16SubApertureImageSaIS0_EEixEm"
.LASF498:
	.string	"_ZNSt6vectorIiSaIiEEC4EOS1_RKS0_St17integral_constantIbLb0EE"
.LASF1321:
	.string	"__dif"
.LASF629:
	.string	"_ZNSt6vectorIfSaIfEE11_S_relocateEPfS2_S2_RS0_"
.LASF720:
	.string	"_UninitDestroyGuard<int*, void>"
.LASF1356:
	.string	"_ZNSt6vectorIhSaIhEED2Ev"
.LASF459:
	.string	"_ZNSt12_Vector_baseIiSaIiEE17_Vector_impl_data12_M_copy_dataERKS2_"
.LASF461:
	.string	"_ZNSt12_Vector_baseIiSaIiEE12_Vector_implC4Ev"
.LASF326:
	.string	"__type_identity<std::allocator<SubApertureImage> >"
.LASF1394:
	.string	"_ZN9ImageDataC2Ev"
.LASF923:
	.string	"wcsncat"
.LASF114:
	.string	"_ZNSt12_Vector_baseIhSaIhEE12_Vector_implC4EOS0_OS2_"
.LASF1204:
	.string	"fopen"
.LASF542:
	.string	"_ZNSt6vectorIiSaIiEE6insertEN9__gnu_cxx17__normal_iteratorIPKiS1_EEOi"
.LASF920:
	.string	"tm_gmtoff"
.LASF60:
	.string	"_ZNSt15__new_allocatorIhEC4ERKS0_"
.LASF360:
	.string	"_ZNKSt6vectorI16SubApertureImageSaIS0_EE4cendEv"
.LASF272:
	.string	"__type_identity_t"
.LASF55:
	.string	"filesystem"
.LASF595:
	.string	"_ZNSt16allocator_traitsISaIfEE10deallocateERS0_Pfm"
.LASF853:
	.string	"_IO_backup_base"
.LASF953:
	.string	"_S_mutex"
.LASF319:
	.string	"_ZNSt12_Vector_baseI16SubApertureImageSaIS0_EEC4EOS1_"
.LASF1109:
	.string	"int_n_sep_by_space"
.LASF844:
	.string	"_IO_read_ptr"
.LASF619:
	.string	"_ZNSt12_Vector_baseIfSaIfEEC4ERKS0_OS1_"
.LASF598:
	.string	"_Vector_base<float, std::allocator<float> >"
.LASF273:
	.string	"type_info"
.LASF1203:
	.string	"fgets"
.LASF47:
	.string	"true_type"
.LASF712:
	.string	"_ZNKSt16initializer_listIfE5beginEv"
.LASF1233:
	.string	"int_fast8_t"
.LASF1163:
	.string	"getenv"
.LASF867:
	.string	"_freeres_list"
.LASF986:
	.string	"_ZN9__gnu_cxx17__normal_iteratorIPhSt6vectorIhSaIhEEEmmEv"
.LASF1248:
	.string	"__float128"
.LASF777:
	.string	"_ZSt20uninitialized_fill_nIPhmhET_S1_T0_RKT1_"
.LASF160:
	.string	"_ZNSt6vectorIhSaIhEEC4ESt16initializer_listIhERKS0_"
.LASF370:
	.string	"_ZNSt6vectorI16SubApertureImageSaIS0_EE7reserveEm"
.LASF660:
	.string	"_ZNKSt6vectorIfSaIfEE8max_sizeEv"
.LASF876:
	.string	"fgetws"
.LASF507:
	.string	"_ZNSt6vectorIiSaIiEE5beginEv"
.LASF318:
	.string	"_ZNSt12_Vector_baseI16SubApertureImageSaIS0_EEC4EOS2_"
.LASF1170:
	.string	"rand"
.LASF58:
	.string	"__new_allocator"
.LASF1361:
	.string	"_Z21refocus_shift_and_sumRSt6vectorI16SubApertureImageSaIS0_EEf"
.LASF429:
	.string	"reverse_iterator<__gnu_cxx::__normal_iterator<(anonymous namespace)::SubParams*, std::vector<(anonymous namespace)::SubParams, std::allocator<(anonymous namespace)::SubParams> > > >"
.LASF750:
	.string	"_ZSt10_ConstructIiJRKiEEvPT_DpOT0_"
.LASF123:
	.string	"_ZNSt12_Vector_baseIhSaIhEEC4ERKS0_"
.LASF386:
	.string	"_ZNSt6vectorI16SubApertureImageSaIS0_EE6insertEN9__gnu_cxx17__normal_iteratorIPKS0_S2_EEOS0_"
.LASF858:
	.string	"_short_backupbuf"
.LASF975:
	.string	"__normal_iterator"
.LASF756:
	.string	"__do_uninit_fill_n<int*, long unsigned int, int>"
.LASF1048:
	.string	"_ZN9__gnu_cxx14__alloc_traitsISaIiEiE27_S_propagate_on_move_assignEv"
.LASF587:
	.string	"allocator<float>"
.LASF977:
	.string	"_ZN9__gnu_cxx17__normal_iteratorIPhSt6vectorIhSaIhEEEC4ERKS1_"
.LASF907:
	.string	"wcscoll"
.LASF1398:
	.string	"_ZdlPvS_"
.LASF148:
	.string	"_ZNSt6vectorIhSaIhEE11_S_relocateEPhS2_S2_RS0_"
.LASF1259:
	.string	"wctrans_t"
.LASF95:
	.string	"select_on_container_copy_construction"
.LASF541:
	.string	"_ZNSt6vectorIiSaIiEE6insertEN9__gnu_cxx17__normal_iteratorIPKiS1_EERS4_"
.LASF267:
	.string	"_M_move_assign"
.LASF1027:
	.string	"_ZN9__gnu_cxx17__normal_iteratorIPK16SubApertureImageSt6vectorIS1_SaIS1_EEEC4ERKS3_"
.LASF776:
	.string	"uninitialized_fill_n<unsigned char*, long unsigned int, unsigned char>"
.LASF613:
	.string	"_ZNSt12_Vector_baseIfSaIfEEC4ERKS0_"
.LASF708:
	.string	"initializer_list<float>"
.LASF631:
	.string	"_ZNSt6vectorIfSaIfEEC4ERKS0_"
.LASF263:
	.string	"_ZNSt6vectorIhSaIhEE15_M_erase_at_endEPh"
.LASF1047:
	.string	"_ZN9__gnu_cxx14__alloc_traitsISaIiEiE27_S_propagate_on_copy_assignEv"
.LASF1104:
	.string	"p_sign_posn"
.LASF462:
	.string	"_ZNSt12_Vector_baseIiSaIiEE12_Vector_implC4ERKS0_"
.LASF388:
	.string	"_ZNSt6vectorI16SubApertureImageSaIS0_EE6insertEN9__gnu_cxx17__normal_iteratorIPKS0_S2_EEmRS5_"
.LASF948:
	.string	"wcsrchr"
.LASF646:
	.string	"_ZNSt6vectorIfSaIfEE6assignESt16initializer_listIfE"
.LASF1232:
	.string	"uint_least64_t"
.LASF658:
	.string	"_ZNKSt6vectorIfSaIfEE5crendEv"
.LASF323:
	.string	"_ZNSt12_Vector_baseI16SubApertureImageSaIS0_EE11_M_allocateEm"
.LASF996:
	.string	"_ZNK9__gnu_cxx17__normal_iteratorIPhSt6vectorIhSaIhEEEmiEl"
.LASF499:
	.string	"_ZNSt6vectorIiSaIiEEC4EOS1_RKS0_"
.LASF694:
	.string	"_ZNSt6vectorIfSaIfEE17_M_default_appendEm"
.LASF337:
	.string	"_ZNSt6vectorI16SubApertureImageSaIS0_EEC4EmRKS0_RKS1_"
.LASF1062:
	.string	"_ZN9__gnu_cxx14__alloc_traitsISaIfEfE15_S_nothrow_moveEv"
.LASF1320:
	.string	"_ZNSt6vectorIhSaIhEEC2EmRKhRKS0_"
.LASF553:
	.string	"_ZNSt6vectorIiSaIiEE14_M_fill_appendEmRKi"
.LASF330:
	.string	"_S_use_relocate"
.LASF146:
	.string	"_ZNSt6vectorIhSaIhEE19_S_nothrow_relocateESt17integral_constantIbLb0EE"
.LASF109:
	.string	"_Vector_impl"
.LASF1396:
	.string	"_ZNSt12_Vector_baseIhSaIhEEC2Ev"
.LASF1251:
	.string	"mktime"
.LASF1339:
	.string	"_ZN9__gnu_cxx17__normal_iteratorIP16SubApertureImageSt6vectorIS1_SaIS1_EEEC2ERKS2_"
.LASF1211:
	.string	"getchar"
.LASF1155:
	.string	"tv_nsec"
.LASF723:
	.string	"~_UninitDestroyGuard"
.LASF516:
	.string	"_ZNKSt6vectorIiSaIiEE4cendEv"
.LASF634:
	.string	"_ZNSt6vectorIfSaIfEEC4ERKS1_"
.LASF826:
	.string	"__size_to_integer"
.LASF523:
	.string	"_ZNSt6vectorIiSaIiEE13shrink_to_fitEv"
.LASF309:
	.string	"_ZNSt12_Vector_baseI16SubApertureImageSaIS0_EE12_Vector_implC4EOS1_"
.LASF1042:
	.string	"__normal_iterator<(anonymous namespace)::SubParams*, std::vector<(anonymous namespace)::SubParams, std::allocator<(anonymous namespace)::SubParams> > >"
.LASF101:
	.string	"_M_start"
.LASF547:
	.string	"_ZNSt6vectorIiSaIiEE4swapERS1_"
.LASF1290:
	.string	"__last"
.LASF321:
	.string	"_ZNSt12_Vector_baseI16SubApertureImageSaIS0_EEC4ERKS1_OS2_"
.LASF968:
	.string	"_S_nothrow_move"
.LASF894:
	.string	"ungetwc"
.LASF1381:
	.string	"pBLb"
.LASF274:
	.string	"initializer_list<unsigned char>"
.LASF1057:
	.string	"_ZN9__gnu_cxx14__alloc_traitsISaIfEfE10_S_on_swapERS1_S3_"
.LASF1380:
	.string	"pBLg"
.LASF1044:
	.string	"__alloc_traits<std::allocator<int>, int>"
.LASF253:
	.string	"_ZNSt6vectorIhSaIhEE14_M_insert_rvalEN9__gnu_cxx17__normal_iteratorIPKhS1_EEOh"
.LASF962:
	.string	"_S_propagate_on_move_assign"
.LASF235:
	.string	"_ZNSt6vectorIhSaIhEE4swapERS1_"
.LASF1379:
	.string	"pBLr"
.LASF1025:
	.string	"__normal_iterator<const SubApertureImage*, std::vector<SubApertureImage, std::allocator<SubApertureImage> > >"
.LASF759:
	.string	"_ZSt8__fill_aIPhhEvT_S1_RKT0_"
.LASF1000:
	.string	"__normal_iterator<unsigned char const*, std::vector<unsigned char, std::allocator<unsigned char> > >"
.LASF624:
	.string	"__type_identity<std::allocator<float> >"
.LASF1412:
	.string	"_ZN9__gnu_cxx3divExx"
.LASF896:
	.string	"vfwscanf"
.LASF1102:
	.string	"n_cs_precedes"
.LASF529:
	.string	"_ZNKSt6vectorIiSaIiEE14_M_range_checkEm"
.LASF74:
	.string	"_ZNSt15__new_allocatorIhE8allocateEmPKv"
.LASF116:
	.string	"_M_get_Tp_allocator"
.LASF1190:
	.string	"__state"
.LASF350:
	.string	"_ZNSt6vectorI16SubApertureImageSaIS0_EE6assignESt16initializer_listIS0_E"
.LASF428:
	.string	"initializer_list<(anonymous namespace)::SubParams>"
.LASF452:
	.string	"_ZNSt16allocator_traitsISaIiEE8allocateERS0_mPKv"
.LASF1114:
	.string	"localeconv"
.LASF69:
	.string	"reference"
.LASF19:
	.string	"__exception_ptr"
.LASF334:
	.string	"_ZNSt6vectorI16SubApertureImageSaIS0_EEC4Ev"
.LASF1085:
	.string	"char16_t"
.LASF1317:
	.string	"__result"
.LASF293:
	.string	"allocator_traits<std::allocator<SubApertureImage> >"
.LASF1413:
	.string	"_Lock_policy"
.LASF125:
	.string	"_ZNSt12_Vector_baseIhSaIhEEC4EmRKS0_"
.LASF1184:
	.string	"strtoull"
.LASF1353:
	.string	"_ZNSaIiED2Ev"
.LASF399:
	.string	"_ZNSt6vectorI16SubApertureImageSaIS0_EE16_M_shrink_to_fitEv"
.LASF522:
	.string	"_ZNSt6vectorIiSaIiEE6resizeEmRKi"
.LASF308:
	.string	"_ZNSt12_Vector_baseI16SubApertureImageSaIS0_EE12_Vector_implC4EOS3_"
.LASF1115:
	.string	"__int8_t"
.LASF363:
	.string	"_ZNKSt6vectorI16SubApertureImageSaIS0_EE4sizeEv"
.LASF365:
	.string	"_ZNSt6vectorI16SubApertureImageSaIS0_EE6resizeEm"
.LASF97:
	.string	"rebind_alloc"
.LASF198:
	.string	"shrink_to_fit"
.LASF804:
	.string	"min<float>"
.LASF358:
	.string	"_ZNKSt6vectorI16SubApertureImageSaIS0_EE4rendEv"
.LASF275:
	.string	"reverse_iterator<__gnu_cxx::__normal_iterator<unsigned char*, std::vector<unsigned char, std::allocator<unsigned char> > > >"
.LASF857:
	.string	"_fileno"
.LASF753:
	.string	"__do_uninit_fill_n<float*, long unsigned int, float>"
.LASF799:
	.string	"_ZSt4fillIN9__gnu_cxx17__normal_iteratorIPhSt6vectorIhSaIhEEEEhEvT_S7_RKT0_"
.LASF1358:
	.string	"_ZNSaIhED2Ev"
.LASF833:
	.string	"unsigned int"
.LASF729:
	.string	"_ZNSt19_UninitDestroyGuardIPivEC4ERKS1_"
.LASF1002:
	.string	"_ZN9__gnu_cxx14__alloc_traitsISaI16SubApertureImageES1_E17_S_select_on_copyERKS2_"
.LASF1328:
	.string	"_ZNSt15__new_allocatorIfEC2Ev"
.LASF1374:
	.string	"ind_top"
.LASF322:
	.string	"_ZNSt12_Vector_baseI16SubApertureImageSaIS0_EED4Ev"
.LASF67:
	.string	"_ZNKSt15__new_allocatorIhE7addressERh"
.LASF20:
	.string	"exception_ptr"
.LASF1061:
	.string	"_ZN9__gnu_cxx14__alloc_traitsISaIfEfE15_S_always_equalEv"
.LASF1237:
	.string	"uint_fast8_t"
.LASF99:
	.string	"_Vector_impl_data"
.LASF165:
	.string	"_ZNSt6vectorIhSaIhEEaSESt16initializer_listIhE"
.LASF438:
	.string	"_ZNSt15__new_allocatorIiED4Ev"
.LASF431:
	.string	"iterator_traits<SubApertureImage*>"
.LASF1368:
	.string	"__for_range"
.LASF994:
	.string	"_ZN9__gnu_cxx17__normal_iteratorIPhSt6vectorIhSaIhEEEmIEl"
.LASF572:
	.string	"_ZNKSt16initializer_listIiE5beginEv"
.LASF636:
	.string	"_ZNSt6vectorIfSaIfEEC4ERKS1_RKS0_"
.LASF217:
	.string	"_ZNSt6vectorIhSaIhEE4backEv"
.LASF1260:
	.string	"iswctype"
.LASF557:
	.string	"_ZNSt6vectorIiSaIiEE14_M_emplace_auxEN9__gnu_cxx17__normal_iteratorIPKiS1_EEOi"
.LASF1083:
	.string	"short int"
.LASF170:
	.string	"begin"
.LASF1106:
	.string	"int_p_cs_precedes"
.LASF745:
	.string	"__throw_length_error"
.LASF935:
	.string	"wcstoul"
.LASF1268:
	.string	"_ZNK9ImageData5indexEmmm"
.LASF188:
	.string	"crbegin"
.LASF821:
	.string	"_ZSt3minIiERKT_S2_S2_"
.LASF861:
	.string	"_vtable_offset"
.LASF302:
	.string	"_ZNSt12_Vector_baseI16SubApertureImageSaIS0_EE17_Vector_impl_dataC4EOS3_"
.LASF903:
	.string	"__isoc23_vwscanf"
.LASF479:
	.string	"_ZNSt12_Vector_baseIiSaIiEEC4ERKS0_OS1_"
.LASF1291:
	.string	"_ZNSt19_UninitDestroyGuardIPfvED2Ev"
.LASF391:
	.string	"_ZNSt6vectorI16SubApertureImageSaIS0_EE4swapERS2_"
.LASF325:
	.string	"_ZNSt12_Vector_baseI16SubApertureImageSaIS0_EE17_M_create_storageEm"
.LASF768:
	.string	"_ZSt20uninitialized_fill_nIPfmfET_S1_T0_RKT1_"
.LASF209:
	.string	"_M_range_check"
.LASF622:
	.string	"_ZNSt12_Vector_baseIfSaIfEE13_M_deallocateEPfm"
.LASF258:
	.string	"_S_check_init_len"
.LASF1346:
	.string	"__hi"
.LASF1386:
	.string	"pBRr"
.LASF1303:
	.string	"_ZNSt12_Vector_baseIfSaIfEE17_Vector_impl_dataC2Ev"
.LASF561:
	.string	"_ZNSt6vectorIiSaIiEE15_M_erase_at_endEPi"
.LASF583:
	.string	"_ZNSt15__new_allocatorIfE8allocateEmPKv"
.LASF12:
	.string	"operator std::integral_constant<bool, false>::value_type"
.LASF651:
	.string	"_ZNSt6vectorIfSaIfEE6rbeginEv"
.LASF49:
	.string	"bidirectional_iterator_tag"
.LASF692:
	.string	"_ZNSt6vectorIfSaIfEE14_M_fill_insertEN9__gnu_cxx17__normal_iteratorIPfS1_EEmRKf"
.LASF424:
	.string	"_M_len"
	.section	.debug_line_str,"MS",@progbits,1
.LASF1:
	.string	"/home/team15/tomasz-worktree-dir/cpp_refocus"
.LASF0:
	.string	"src/avx_analysis_code_ablations/opt7_5_abl_compiler_vec.cpp"
	.hidden	"DW.ref.__gxx_personality_v0"
	.weak	"DW.ref.__gxx_personality_v0"
	.section	.data.rel.local.DW.ref.__gxx_personality_v0,"awG",@progbits,DW.ref.__gxx_personality_v0,comdat
	.align 8
	.type	"DW.ref.__gxx_personality_v0", @object
	.size	"DW.ref.__gxx_personality_v0", 8
"DW.ref.__gxx_personality_v0":
	.quad	"__gxx_personality_v0"
	.globl	"__gxx_personality_v0"
	.ident	"GCC: (Debian 16-20260425-1) 16.0.1 20260425 (prerelease) [gcc-16 r16-8812-gd9c07462a22]"
	.section	.note.GNU-stack,"",@progbits
