	.file	"opt7_5.cpp"
	.intel_syntax noprefix
# GNU C++17 (Debian 16-20260425-1) version 16.0.1 20260425 (prerelease) [gcc-16 r16-8812-gd9c07462a22] (x86_64-linux-gnu)
#	compiled by GNU C version 16.0.1 20260425 (prerelease) [gcc-16 r16-8812-gd9c07462a22], GMP version 6.3.0, MPFR version 4.2.2, MPC version 1.3.1, isl version isl-0.27-GMP

# GGC heuristics: --param ggc-min-expand=30 --param ggc-min-heapsize=4096
# options passed: -march=tigerlake -mmmx -mpopcnt -msse -msse2 -msse3 -mssse3 -msse4.1 -msse4.2 -mavx -mavx2 -mno-sse4a -mno-fma4 -mno-xop -mfma -mavx512f -mbmi -mbmi2 -maes -mpclmul -mavx512vl -mavx512bw -mavx512dq -mavx512cd -mavx512vbmi -mavx512ifma -mavx512vpopcntdq -mavx512vbmi2 -mgfni -mvpclmulqdq -mavx512vnni -mavx512bitalg -mno-avx512bf16 -mavx512vp2intersect -mno-3dnow -madx -mabm -mno-cldemote -mclflushopt -mclwb -mno-clzero -mcx16 -mno-enqcmd -mf16c -mfsgsbase -mfxsr -mno-hle -msahf -mno-lwp -mlzcnt -mmovbe -mmovdir64b -mmovdiri -mno-mwaitx -mno-pconfig -mpku -mprfchw -mno-ptwrite -mrdpid -mrdrnd -mrdseed -mno-rtm -mno-serialize -mno-sgx -msha -mshstk -mno-tbm -mno-tsxldtrk -mvaes -mno-waitpkg -mno-wbnoinvd -mxsave -mxsavec -mxsaveopt -mxsaves -mno-amx-tile -mno-amx-int8 -mno-amx-bf16 -mno-uintr -mno-hreset -mno-kl -mno-widekl -mno-avxvnni -mno-avx512fp16 -mno-avxifma -mno-avxvnniint8 -mno-avxneconvert -mno-cmpccxadd -mno-amx-fp16 -mno-prefetchi -mno-raoint -mno-amx-complex -mno-avxvnniint16 -mno-sm3 -mno-sha512 -mno-sm4 -mno-apxf -mno-usermsr -mno-avx10.1 -mno-avx10.2 -mno-amx-avx512 -mno-amx-tf32 -mno-amx-fp8 -mno-movrs -mno-amx-movrs -mno-avx512bmm --param=l1-cache-size=48 --param=l1-cache-line-size=64 --param=l2-cache-size=8192 -mtune=tigerlake -masm=intel -g -O3 -std=c++17 -ffast-math -fno-tree-vectorize -fasynchronous-unwind-tables
	.text
.Ltext0:
	.file 0 "/home/team15/tomasz-worktree-dir/cpp_refocus" "src/opt7_5.cpp"
	.section	.rodata.str1.8,"aMS",@progbits,1
	.align 8
.LC0:
	.string	"cannot create std::vector larger than max_size()"
	.section	.rodata.str1.1,"aMS",@progbits,1
.LC2:
	.string	"vector::_M_realloc_append"
.LC8:
	.string	"X coordinate out of bounds"
.LC9:
	.string	"Y coordinate out of bounds"
	.section	.text.unlikely,"ax",@progbits
.LCOLDB10:
	.text
.LHOTB10:
	.p2align 4
	.section	.text.unlikely
.Ltext_cold0:
	.text
	.globl	"_Z21refocus_shift_and_sumRSt6vectorI16SubApertureImageSaIS0_EEf"
	.type	"_Z21refocus_shift_and_sumRSt6vectorI16SubApertureImageSaIS0_EEf", @function
"_Z21refocus_shift_and_sumRSt6vectorI16SubApertureImageSaIS0_EEf":
.LVL0:
.LFB4421:
	.file 1 "src/opt7_5.cpp"
	.loc 1 28 91 view -0
	.cfi_startproc
	.cfi_personality 0x9b,"DW.ref.__gxx_personality_v0"
	.cfi_lsda 0x1b,.LLSDA4421
	.loc 1 28 91 is_stmt 0 view .LVU1
	push	r15	#
	.cfi_def_cfa_offset 16
	.cfi_offset 15, -16
	vmovaps	xmm4, xmm0	# focus, focus
	push	r14	#
	.cfi_def_cfa_offset 24
	.cfi_offset 14, -24
	push	r13	#
	.cfi_def_cfa_offset 32
	.cfi_offset 13, -32
	push	r12	#
	.cfi_def_cfa_offset 40
	.cfi_offset 12, -40
	push	rbp	#
	.cfi_def_cfa_offset 48
	.cfi_offset 6, -48
	mov	rbp, rsi	# subapertures, subapertures
	push	rbx	#
	.cfi_def_cfa_offset 56
	.cfi_offset 3, -56
	mov	rbx, rdi	# <retval>, .result_ptr
	.loc 1 29 5 is_stmt 1 view .LVU2
.LVL1:
.LBB1942:
.LBI1942:
	.file 2 "/usr/include/c++/16/bits/stl_vector.h"
	.loc 2 1334 7 view .LVU3
	.loc 2 1336 2 discriminator 2 view .LVU4
.LBB1943:
.LBI1943:
	.loc 2 988 7 view .LVU5
.LBB1944:
.LBI1944:
	.file 3 "/usr/include/c++/16/bits/stl_iterator.h"
	.loc 3 1058 7 view .LVU6
.LBE1944:
.LBE1943:
.LBE1942:
# src/opt7_5.cpp:28: ImageData refocus_shift_and_sum(std::vector<SubApertureImage>& subapertures, float focus) {
	.loc 1 28 91 is_stmt 0 view .LVU7
	sub	rsp, 152	#,
	.cfi_def_cfa_offset 208
.LBB1948:
.LBB1947:
.LBB1946:
.LBB1945:
# /usr/include/c++/16/bits/stl_iterator.h:1059:       : _M_current(__i) { }
	.loc 3 1059 9 view .LVU8
	mov	r15, QWORD PTR [rsi]	# SR.262, MEM[(struct SubApertureImage * const &)subapertures_209(D)]
.LVL2:
	.loc 3 1059 9 view .LVU9
.LBE1945:
.LBE1946:
.LBE1947:
.LBE1948:
# src/opt7_5.cpp:30:     const size_t height = subapertures.front().data.height;
	.loc 1 30 53 discriminator 1 view .LVU10
	mov	rax, QWORD PTR 8[r15]	# height, MEM[(struct value_type &)_238].data.height
# src/opt7_5.cpp:29:     const size_t width = subapertures.front().data.width;
	.loc 1 29 52 discriminator 1 view .LVU11
	mov	r12, QWORD PTR [r15]	# width, MEM[(struct value_type &)_238].data.width
.LVL3:
	.loc 1 30 5 is_stmt 1 view .LVU12
.LBB1949:
.LBI1949:
	.loc 2 1334 7 view .LVU13
	.loc 2 1336 2 discriminator 2 view .LVU14
.LBB1950:
.LBI1950:
	.loc 2 988 7 view .LVU15
.LBB1951:
.LBI1951:
	.loc 3 1058 7 view .LVU16
	.loc 3 1058 7 is_stmt 0 view .LVU17
.LBE1951:
.LBE1950:
.LBE1949:
.LBB1952:
.LBB1953:
.LBB1954:
.LBB1955:
.LBB1956:
.LBB1957:
# /usr/include/c++/16/bits/stl_vector.h:106: 	: _M_start(), _M_finish(), _M_end_of_storage()
	.loc 2 106 4 view .LVU18
	mov	QWORD PTR 16[rdi], 0	# MEM[(struct _Vector_impl_data *)output_214(D) + 16B]._M_start,
# /usr/include/c++/16/bits/stl_vector.h:106: 	: _M_start(), _M_finish(), _M_end_of_storage()
	.loc 2 106 16 view .LVU19
	mov	QWORD PTR 24[rdi], 0	# MEM[(struct _Vector_impl_data *)output_214(D) + 16B]._M_finish,
.LBE1957:
.LBE1956:
.LBE1955:
.LBE1954:
.LBE1953:
.LBE1952:
# src/opt7_5.cpp:37:     output.data.assign(width * height * 3, 0);
	.loc 1 37 30 view .LVU20
	mov	rcx, rax	# _942, height
# src/opt7_5.cpp:30:     const size_t height = subapertures.front().data.height;
	.loc 1 30 53 discriminator 1 view .LVU21
	mov	QWORD PTR 40[rsp], rax	# %sfp, height
.LVL4:
	.loc 1 31 5 is_stmt 1 view .LVU22
	.loc 1 32 5 view .LVU23
	.loc 1 34 5 view .LVU24
.LBB1969:
.LBI1952:
	.file 4 "include/utils.hpp"
	.loc 4 11 8 view .LVU25
.LBB1967:
.LBI1953:
	.loc 2 551 7 view .LVU26
.LBB1965:
.LBI1954:
	.loc 2 321 7 view .LVU27
.LBB1963:
.LBI1955:
	.loc 2 143 2 view .LVU28
.LBB1959:
.LBI1959:
	.file 5 "/usr/include/c++/16/bits/allocator.h"
	.loc 5 168 7 view .LVU29
.LBB1960:
.LBI1960:
	.file 6 "/usr/include/c++/16/bits/new_allocator.h"
	.loc 6 88 7 view .LVU30
	.loc 6 88 7 is_stmt 0 view .LVU31
.LBE1960:
.LBE1959:
.LBB1961:
.LBI1956:
	.loc 2 105 2 is_stmt 1 view .LVU32
.LBE1961:
.LBE1963:
.LBE1965:
.LBE1967:
.LBE1969:
# src/opt7_5.cpp:37:     output.data.assign(width * height * 3, 0);
	.loc 1 37 30 is_stmt 0 view .LVU33
	imul	rcx, r12	# _942, width
.LBB1970:
.LBB1968:
.LBB1966:
.LBB1964:
.LBB1962:
.LBB1958:
# /usr/include/c++/16/bits/stl_vector.h:106: 	: _M_start(), _M_finish(), _M_end_of_storage()
	.loc 2 106 29 view .LVU34
	mov	QWORD PTR 32[rdi], 0	# MEM[(struct _Vector_impl_data *)output_214(D) + 16B]._M_end_of_storage,
.LVL5:
	.loc 2 106 29 view .LVU35
.LBE1958:
.LBE1962:
.LBE1964:
.LBE1966:
.LBE1968:
.LBE1970:
	.loc 1 35 5 is_stmt 1 view .LVU36
# src/opt7_5.cpp:35:     output.width = width;
	.loc 1 35 18 is_stmt 0 view .LVU37
	mov	QWORD PTR [rdi], r12	# output_214(D)->width, width
	.loc 1 36 5 is_stmt 1 view .LVU38
# src/opt7_5.cpp:36:     output.height = height;
	.loc 1 36 19 is_stmt 0 view .LVU39
	mov	QWORD PTR 8[rdi], rax	# output_214(D)->height, height
	.loc 1 37 5 is_stmt 1 view .LVU40
# src/opt7_5.cpp:37:     output.data.assign(width * height * 3, 0);
	.loc 1 37 23 is_stmt 0 view .LVU41
	lea	rsi, [rcx+rcx]	# tmp682,
.LVL6:
# src/opt7_5.cpp:37:     output.data.assign(width * height * 3, 0);
	.loc 1 37 30 view .LVU42
	mov	QWORD PTR 48[rsp], rcx	# %sfp, _942
# src/opt7_5.cpp:37:     output.data.assign(width * height * 3, 0);
	.loc 1 37 23 view .LVU43
	mov	QWORD PTR 88[rsp], rsi	# %sfp, tmp682
	add	rsi, rcx	# _5, _942
	mov	QWORD PTR 72[rsp], rsi	# %sfp, _5
.LVL7:
.LBB1971:
.LBI1971:
	.loc 2 865 7 is_stmt 1 view .LVU44
.LBB1972:
.LBI1972:
	.file 7 "/usr/include/c++/16/bits/vector.tcc"
	.loc 7 274 5 view .LVU45
.LBB1973:
.LBB1974:
# /usr/include/c++/16/bits/vector.tcc:278:       if (__n > capacity())
	.loc 7 278 7 is_stmt 0 discriminator 1 view .LVU46
	test	rcx, rcx	# _942
	jne	.L2	#,
.LVL8:
	.loc 7 278 7 discriminator 1 view .LVU47
.LBE1974:
.LBE1973:
.LBE1972:
.LBE1971:
	.loc 1 39 5 is_stmt 1 view .LVU48
.LBB2066:
.LBI2066:
	.loc 2 551 7 view .LVU49
.LBB2067:
.LBI2067:
	.loc 2 321 7 view .LVU50
.LBB2068:
.LBI2068:
	.loc 2 143 2 view .LVU51
.LBB2069:
.LBI2069:
	.loc 5 168 7 view .LVU52
.LBB2070:
.LBI2070:
	.loc 6 88 7 view .LVU53
	.loc 6 88 7 is_stmt 0 view .LVU54
.LBE2070:
.LBE2069:
.LBB2072:
.LBI2072:
	.loc 2 105 2 is_stmt 1 view .LVU55
	.loc 2 105 2 is_stmt 0 view .LVU56
.LBE2072:
.LBE2068:
.LBE2067:
.LBE2066:
	.loc 1 40 5 is_stmt 1 view .LVU57
.LBB2101:
.LBI2101:
	.loc 2 1107 7 view .LVU58
.LBB2102:
# /usr/include/c++/16/bits/stl_vector.h:1109: 	ptrdiff_t __dif = this->_M_impl._M_finish - this->_M_impl._M_start;
	.loc 2 1109 34 is_stmt 0 view .LVU59
	mov	rsi, QWORD PTR 8[rbp]	# _555, MEM[(const struct vector *)subapertures_209(D)].D.101674._M_impl.D.101021._M_finish
.LVL9:
	.loc 2 1109 34 view .LVU60
.LBE2102:
.LBE2101:
.LBB2106:
.LBI2106:
	.loc 7 70 5 is_stmt 1 view .LVU61
.LBB2107:
# /usr/include/c++/16/bits/vector.tcc:75:       if (this->capacity() < __n)
	.loc 7 75 7 is_stmt 0 discriminator 1 view .LVU62
	mov	rcx, rsi	# _59, _555
.LBE2107:
.LBE2106:
.LBB2121:
.LBB2103:
# /usr/include/c++/16/bits/stl_vector.h:1109: 	ptrdiff_t __dif = this->_M_impl._M_finish - this->_M_impl._M_start;
	.loc 2 1109 34 view .LVU63
	mov	QWORD PTR 24[rsp], rsi	# %sfp, _555
.LBE2103:
.LBE2121:
.LBB2122:
.LBB2118:
# /usr/include/c++/16/bits/vector.tcc:75:       if (this->capacity() < __n)
	.loc 7 75 7 discriminator 1 view .LVU64
	sub	rcx, r15	# _59, SR.262
.LVL10:
	.loc 7 75 7 discriminator 1 view .LVU65
	mov	QWORD PTR 64[rsp], rcx	# %sfp, _59
	je	.L194	#,
.LVL11:
.L4:
.LBB2108:
.LBB2109:
.LBB2110:
.LBB2111:
.LBB2112:
.LBB2113:
# /usr/include/c++/16/bits/new_allocator.h:162: 	  return static_cast<_Tp*>(_GLIBCXX_OPERATOR_NEW(__n * sizeof(_Tp)));
	.loc 6 162 68 view .LVU66
	mov	r14, QWORD PTR 64[rsp]	# _59, %sfp
	vmovss	DWORD PTR 16[rsp], xmm4	# %sfp, focus
.LVL12:
	.loc 6 162 68 view .LVU67
.LBE2113:
.LBE2112:
.LBE2111:
.LBE2110:
.LBI2109:
	.loc 2 386 7 is_stmt 1 view .LVU68
.LBB2117:
.LBB2116:
.LBI2111:
	.file 8 "/usr/include/c++/16/bits/alloc_traits.h"
	.loc 8 637 7 view .LVU69
.LBB2115:
.LBI2112:
	.loc 6 129 7 view .LVU70
.LBB2114:
# /usr/include/c++/16/bits/new_allocator.h:162: 	  return static_cast<_Tp*>(_GLIBCXX_OPERATOR_NEW(__n * sizeof(_Tp)));
	.loc 6 162 68 is_stmt 0 view .LVU71
	mov	rdi, r14	#, _59
.LEHB0:
	call	"_Znwm"@PLT	#
.LVL13:
.LEHE0:
	mov	QWORD PTR 8[rsp], rax	# %sfp, __new_finish
.LVL14:
	.loc 6 162 68 view .LVU72
.LBE2114:
.LBE2115:
.LBE2116:
.LBE2117:
.LBE2109:
# /usr/include/c++/16/bits/vector.tcc:101: 	  this->_M_impl._M_end_of_storage = this->_M_impl._M_start + __n;
	.loc 7 101 61 view .LVU73
	add	rax, r14	# params$_M_end_of_storage, _59
.LVL15:
	.loc 7 101 61 view .LVU74
	vmovss	xmm4, DWORD PTR 16[rsp]	# focus, %sfp
	mov	QWORD PTR 32[rsp], rax	# %sfp, params$_M_end_of_storage
.LVL16:
.L8:
	.loc 7 101 61 view .LVU75
.LBE2108:
.LBE2118:
.LBE2122:
# src/opt7_5.cpp:32:     const int h = static_cast<int>(height);
	.loc 1 32 15 view .LVU76
	mov	r14d, DWORD PTR 40[rsp]	# _554, %sfp
.LVL17:
	.loc 1 42 5 is_stmt 1 view .LVU77
.LBB2123:
.LBB2124:
.LBI2124:
	.loc 2 988 7 view .LVU78
.LBB2125:
.LBI2125:
	.loc 3 1058 7 view .LVU79
	.loc 3 1058 7 is_stmt 0 view .LVU80
.LBE2125:
.LBE2124:
.LBB2127:
.LBI2127:
	.loc 2 1008 7 is_stmt 1 view .LVU81
.LBB2128:
.LBI2128:
	.loc 3 1058 7 view .LVU82
	.loc 3 1058 7 is_stmt 0 view .LVU83
.LBE2128:
.LBE2127:
	.loc 1 42 34 is_stmt 1 discriminator 5 view .LVU84
.LBE2123:
# src/opt7_5.cpp:31:     const int w = static_cast<int>(width);
	.loc 1 31 15 is_stmt 0 view .LVU85
	mov	ecx, r12d	# _573, width
.LBB2267:
# src/opt7_5.cpp:42:     for (SubApertureImage& sub : subapertures) {
	.loc 1 42 34 discriminator 6 view .LVU86
	cmp	r15, QWORD PTR 24[rsp]	# SR.262, %sfp
	je	.L91	#,
.LVL18:
.L5:
	.loc 1 42 34 discriminator 6 view .LVU87
.LBE2267:
.LBB2268:
.LBB2094:
.LBB2087:
.LBB2079:
.LBB2073:
# /usr/include/c++/16/bits/stl_vector.h:106: 	: _M_start(), _M_finish(), _M_end_of_storage()
	.loc 2 106 29 view .LVU88
	mov	rax, QWORD PTR 8[rsp]	# __new_finish, %sfp
.LBE2073:
.LBE2079:
.LBE2087:
.LBE2094:
.LBE2268:
.LBB2269:
.LBB2130:
# src/opt7_5.cpp:58:         p.x_begin = std::max(0, -p.sx);
	.loc 1 58 33 view .LVU89
	xor	r11d, r11d	# tmp686
.LBE2130:
.LBE2269:
.LBB2270:
.LBB2095:
.LBB2088:
.LBB2080:
.LBB2074:
# /usr/include/c++/16/bits/stl_vector.h:106: 	: _M_start(), _M_finish(), _M_end_of_storage()
	.loc 2 106 29 view .LVU90
	mov	QWORD PTR 16[rsp], rax	# %sfp, __new_finish
.LVL19:
	.p2align 4,,10
	.p2align 3
.L17:
	.loc 2 106 29 view .LVU91
.LBE2074:
.LBE2080:
.LBE2088:
.LBE2095:
.LBE2270:
.LBB2271:
.LBB2260:
	.loc 1 43 9 is_stmt 1 view .LVU92
# src/opt7_5.cpp:43:         const float shift_x = focus * sub.u;
	.loc 1 43 21 is_stmt 0 view .LVU93
	vmulss	xmm3, xmm4, DWORD PTR 40[r15]	# shift_x, focus, MEM[(float *)SR.262_711 + 40B]
.LVL20:
	.loc 1 44 9 is_stmt 1 view .LVU94
# src/opt7_5.cpp:59:         p.x_end = std::min(w, w - p.sx - 1);
	.loc 1 59 33 is_stmt 0 view .LVU95
	mov	ebp, ecx	# _18, _573
# src/opt7_5.cpp:61:         p.y_end = std::min(h, h - p.sy - 1);
	.loc 1 61 33 view .LVU96
	mov	r13d, r14d	# _22, _554
# src/opt7_5.cpp:44:         const float shift_y = focus * sub.v;
	.loc 1 44 21 view .LVU97
	vmulss	xmm2, xmm4, DWORD PTR 44[r15]	# shift_y, focus, MEM[(float *)SR.262_711 + 44B]
.LVL21:
	.loc 1 46 9 is_stmt 1 view .LVU98
	.loc 1 47 9 view .LVU99
.LBB2131:
.LBI2131:
	.file 9 "/usr/include/c++/16/cmath"
	.loc 9 264 3 view .LVU100
.LBB2132:
	.loc 9 265 5 view .LVU101
# /usr/include/c++/16/cmath:265:   { return __builtin_floorf(__x); }
	.loc 9 265 28 is_stmt 0 view .LVU102
	vrndscaless	xmm0, xmm3, xmm3, 9	# _212, shift_x,
.LVL22:
	.loc 9 265 28 view .LVU103
.LBE2132:
.LBE2131:
# src/opt7_5.cpp:47:         p.sx = std::floor(shift_x);
	.loc 1 47 14 discriminator 1 view .LVU104
	vcvttss2si	r9d, xmm0	# _8, _212
.LVL23:
	.loc 1 48 9 is_stmt 1 view .LVU105
.LBB2133:
.LBI2133:
	.loc 9 264 3 view .LVU106
.LBB2134:
	.loc 9 265 5 view .LVU107
# /usr/include/c++/16/cmath:265:   { return __builtin_floorf(__x); }
	.loc 9 265 28 is_stmt 0 view .LVU108
	vrndscaless	xmm1, xmm2, xmm2, 9	# _220, shift_y,
.LVL24:
	.loc 9 265 28 view .LVU109
.LBE2134:
.LBE2133:
# src/opt7_5.cpp:48:         p.sy = std::floor(shift_y);
	.loc 1 48 14 discriminator 1 view .LVU110
	vcvttss2si	r8d, xmm1	# _9, _220
.LVL25:
	.loc 1 50 9 is_stmt 1 view .LVU111
	.loc 1 51 9 view .LVU112
	.loc 1 53 9 view .LVU113
	.loc 1 54 9 view .LVU114
	.loc 1 55 9 view .LVU115
	.loc 1 56 9 view .LVU116
	.loc 1 58 9 view .LVU117
.LBB2135:
.LBI2135:
	.file 10 "/usr/include/c++/16/bits/stl_algobase.h"
	.loc 10 256 5 view .LVU118
.LBE2135:
# src/opt7_5.cpp:58:         p.x_begin = std::max(0, -p.sx);
	.loc 1 58 33 is_stmt 0 view .LVU119
	mov	esi, r9d	# tmp685, _8
	neg	esi	# tmp685
	test	r9d, r9d	# _8
# src/opt7_5.cpp:60:         p.y_begin = std::max(0, -p.sy);
	.loc 1 60 33 view .LVU120
	mov	r10d, r8d	# tmp687, _9
# src/opt7_5.cpp:58:         p.x_begin = std::max(0, -p.sx);
	.loc 1 58 33 view .LVU121
	cmovns	esi, r11d	# tmp685,, _16, tmp686
.LVL26:
	.loc 1 59 9 is_stmt 1 view .LVU122
.LBB2136:
.LBI2136:
	.loc 10 232 5 view .LVU123
.LBE2136:
# src/opt7_5.cpp:59:         p.x_end = std::min(w, w - p.sx - 1);
	.loc 1 59 33 is_stmt 0 view .LVU124
	sub	ebp, r9d	# _18, _8
# src/opt7_5.cpp:59:         p.x_end = std::min(w, w - p.sx - 1);
	.loc 1 59 40 view .LVU125
	dec	ebp	# _19
.LBB2138:
.LBB2137:
# /usr/include/c++/16/bits/stl_algobase.h:237:       if (__b < __a)
	.loc 10 237 7 view .LVU126
	cmp	ebp, ecx	# _19, _573
	cmovg	ebp, ecx	# _19,, _251, _573
.LVL27:
	.loc 10 237 7 view .LVU127
.LBE2137:
.LBE2138:
	.loc 1 60 9 is_stmt 1 view .LVU128
.LBB2139:
.LBI2139:
	.loc 10 256 5 view .LVU129
.LBE2139:
# src/opt7_5.cpp:60:         p.y_begin = std::max(0, -p.sy);
	.loc 1 60 33 is_stmt 0 view .LVU130
	neg	r10d	# tmp687
	test	r8d, r8d	# _9
	cmovns	r10d, r11d	# tmp687,, _20, tmp686
	.loc 1 61 9 is_stmt 1 view .LVU131
.LVL28:
.LBB2140:
.LBI2140:
	.loc 10 232 5 view .LVU132
.LBE2140:
# src/opt7_5.cpp:61:         p.y_end = std::min(h, h - p.sy - 1);
	.loc 1 61 33 is_stmt 0 view .LVU133
	sub	r13d, r8d	# _22, _9
# src/opt7_5.cpp:61:         p.y_end = std::min(h, h - p.sy - 1);
	.loc 1 61 40 view .LVU134
	dec	r13d	# _23
.LBB2142:
.LBB2141:
# /usr/include/c++/16/bits/stl_algobase.h:237:       if (__b < __a)
	.loc 10 237 7 view .LVU135
	cmp	r13d, r14d	# _23, _554
	cmovg	r13d, r14d	# _23,, _252, _554
.LVL29:
	.loc 10 237 7 view .LVU136
.LBE2141:
.LBE2142:
	.loc 1 62 9 is_stmt 1 view .LVU137
.LBB2143:
.LBI2143:
	.loc 2 1385 7 view .LVU138
	.loc 2 1385 7 is_stmt 0 view .LVU139
.LBE2143:
	.loc 1 64 9 is_stmt 1 view .LVU140
# src/opt7_5.cpp:64:         if (p.x_begin >= p.x_end || p.y_begin >= p.y_end) continue;
	.loc 1 64 34 is_stmt 0 discriminator 1 view .LVU141
	cmp	esi, ebp	# _16, _251
	jge	.L12	#,
	.loc 1 64 34 discriminator 1 view .LVU142
	cmp	r10d, r13d	# _20, _252
	jge	.L12	#,
# src/opt7_5.cpp:51:         const float dy = shift_y - p.sy;
	.loc 1 51 21 view .LVU143
	vsubss	xmm6, xmm2, xmm1	# dy, shift_y, _220
.LVL30:
# src/opt7_5.cpp:50:         const float dx = shift_x - p.sx;
	.loc 1 50 21 view .LVU144
	vsubss	xmm5, xmm3, xmm0	# dx, shift_x, _212
.LVL31:
.LBB2146:
.LBB2144:
# /usr/include/c++/16/bits/stl_vector.h:1386:       { return _M_data_ptr(this->_M_impl._M_start); }
	.loc 2 1386 42 view .LVU145
	mov	rdx, QWORD PTR 16[r15]	# _231, MEM[(unsigned char * *)SR.262_711 + 16B]
.LBE2144:
.LBE2146:
.LBB2147:
.LBB2148:
# /usr/include/c++/16/bits/stl_vector.h:1408: 	if (this->_M_impl._M_finish != this->_M_impl._M_end_of_storage)
	.loc 2 1408 2 view .LVU146
	mov	rax, QWORD PTR 8[rsp]	# __new_finish, %sfp
.LBE2148:
.LBE2147:
# src/opt7_5.cpp:53:         p.A = (1 - dx) * (1 - dy);
	.loc 1 53 18 view .LVU147
	vaddss	xmm0, xmm0, DWORD PTR .LC1[rip]	# _684, _212,
.LVL32:
# src/opt7_5.cpp:53:         p.A = (1 - dx) * (1 - dy);
	.loc 1 53 29 view .LVU148
	vaddss	xmm1, xmm1, DWORD PTR .LC1[rip]	# _686, _220,
.LVL33:
.LBB2255:
.LBB2145:
# /usr/include/c++/16/bits/stl_vector.h:1386:       { return _M_data_ptr(this->_M_impl._M_start); }
	.loc 2 1386 42 view .LVU149
	mov	QWORD PTR 56[rsp], rdx	# %sfp, _231
.LBE2145:
.LBE2255:
	.loc 1 65 9 is_stmt 1 view .LVU150
.LVL34:
.LBB2256:
.LBI2147:
	.loc 2 1406 7 view .LVU151
.LBE2256:
# src/opt7_5.cpp:53:         p.A = (1 - dx) * (1 - dy);
	.loc 1 53 18 is_stmt 0 view .LVU152
	vsubss	xmm0, xmm0, xmm3	# _10, _684, shift_x
.LVL35:
# src/opt7_5.cpp:53:         p.A = (1 - dx) * (1 - dy);
	.loc 1 53 29 view .LVU153
	vsubss	xmm1, xmm1, xmm2	# _11, _686, shift_y
.LVL36:
# src/opt7_5.cpp:53:         p.A = (1 - dx) * (1 - dy);
	.loc 1 53 24 view .LVU154
	vmulss	xmm2, xmm0, xmm1	# _12, _10, _11
.LVL37:
# src/opt7_5.cpp:54:         p.B = dx * (1 - dy);
	.loc 1 54 18 view .LVU155
	vmulss	xmm1, xmm1, xmm5	# _13, _11, dx
# src/opt7_5.cpp:55:         p.C = (1 - dx) * dy;
	.loc 1 55 24 view .LVU156
	vmulss	xmm0, xmm0, xmm6	# _14, _10, dy
# src/opt7_5.cpp:56:         p.D = dx * dy;
	.loc 1 56 18 view .LVU157
	vmulss	xmm5, xmm5, xmm6	# _15, dx, dy
.LVL38:
.LBB2257:
.LBB2252:
# /usr/include/c++/16/bits/stl_vector.h:1408: 	if (this->_M_impl._M_finish != this->_M_impl._M_end_of_storage)
	.loc 2 1408 2 view .LVU158
	cmp	QWORD PTR 32[rsp], rax	# %sfp, __new_finish
	je	.L13	#,
.LVL39:
.LBB2149:
.LBI2149:
	.loc 8 705 2 is_stmt 1 view .LVU159
.LBB2150:
.LBI2150:
	.loc 6 201 2 view .LVU160
.LBB2151:
# /usr/include/c++/16/bits/new_allocator.h:203: 	{ ::new((void *)__p) _Up(std::forward<_Args>(__args)...); }
	.loc 6 203 4 is_stmt 0 discriminator 1 view .LVU161
	mov	DWORD PTR [rax], r9d	# params$_M_finish_201->sx, _8
.LBE2151:
.LBE2150:
.LBE2149:
# /usr/include/c++/16/bits/stl_vector.h:1413: 	    ++this->_M_impl._M_finish;
	.loc 2 1413 6 view .LVU162
	add	rax, 48	# __new_finish,
.LBB2154:
.LBB2153:
.LBB2152:
# /usr/include/c++/16/bits/new_allocator.h:203: 	{ ::new((void *)__p) _Up(std::forward<_Args>(__args)...); }
	.loc 6 203 4 discriminator 1 view .LVU163
	mov	DWORD PTR -44[rax], r8d	# params$_M_finish_201->sy, _9
	vmovss	DWORD PTR -40[rax], xmm2	# params$_M_finish_201->A, _12
	vmovss	DWORD PTR -36[rax], xmm1	# params$_M_finish_201->B, _13
	vmovss	DWORD PTR -32[rax], xmm0	# params$_M_finish_201->C, _14
	vmovss	DWORD PTR -28[rax], xmm5	# params$_M_finish_201->D, _15
	mov	DWORD PTR -24[rax], esi	# params$_M_finish_201->x_begin, _16
	mov	DWORD PTR -20[rax], ebp	# params$_M_finish_201->x_end, _251
	mov	DWORD PTR -16[rax], r10d	# params$_M_finish_201->y_begin, _20
	mov	DWORD PTR -12[rax], r13d	# params$_M_finish_201->y_end, _252
	mov	QWORD PTR -8[rax], rdx	# MEM <const unsigned char *> [(struct SubParams *)params$_M_finish_201 + 40B], _231
.LVL40:
	.loc 6 203 4 discriminator 1 view .LVU164
.LBE2152:
.LBE2153:
.LBE2154:
# /usr/include/c++/16/bits/stl_vector.h:1413: 	    ++this->_M_impl._M_finish;
	.loc 2 1413 6 view .LVU165
	mov	QWORD PTR 8[rsp], rax	# %sfp, __new_finish
.LVL41:
.L12:
	.loc 2 1413 6 view .LVU166
.LBE2252:
.LBE2257:
.LBE2260:
	.loc 1 42 5 is_stmt 1 discriminator 4 view .LVU167
.LBB2261:
.LBI2261:
	.loc 3 1101 7 view .LVU168
.LBB2262:
# /usr/include/c++/16/bits/stl_iterator.h:1103: 	++_M_current;
	.loc 3 1103 2 is_stmt 0 view .LVU169
	add	r15, 48	# SR.262,
.LVL42:
	.loc 3 1103 2 view .LVU170
.LBE2262:
.LBE2261:
	.loc 1 42 34 is_stmt 1 discriminator 5 view .LVU171
# src/opt7_5.cpp:42:     for (SubApertureImage& sub : subapertures) {
	.loc 1 42 34 is_stmt 0 discriminator 6 view .LVU172
	cmp	r15, QWORD PTR 24[rsp]	# SR.262, %sfp
	jne	.L17	#,
.LBE2271:
.LBB2272:
.LBB2273:
.LBB2274:
# /usr/include/c++/16/bits/stl_vector.h:375: 	ptrdiff_t __n = _M_impl._M_end_of_storage - _M_impl._M_start;
	.loc 2 375 44 view .LVU173
	mov	rax, QWORD PTR 32[rsp]	# _59, %sfp
	sub	rax, QWORD PTR 16[rsp]	# _59, %sfp
	mov	QWORD PTR 64[rsp], rax	# %sfp, _59
.LVL43:
.L9:
	.loc 2 375 44 view .LVU174
.LBE2274:
.LBE2273:
.LBE2272:
	.loc 1 68 5 is_stmt 1 view .LVU175
.LBB2289:
.LBI2289:
	.loc 5 168 7 view .LVU176
.LBB2290:
.LBI2290:
	.loc 6 88 7 view .LVU177
	.loc 6 88 7 is_stmt 0 view .LVU178
.LBE2290:
.LBE2289:
.LBB2291:
.LBI2291:
	.loc 2 589 7 is_stmt 1 view .LVU179
.LBB2292:
.LBI2292:
	.loc 2 2203 7 view .LVU180
.LBB2293:
.LBB2294:
.LBI2294:
	.loc 5 172 7 view .LVU181
.LBB2295:
.LBI2295:
	.loc 6 92 7 view .LVU182
	.loc 6 92 7 is_stmt 0 view .LVU183
.LBE2295:
.LBE2294:
.LBB2296:
.LBI2296:
	.loc 5 189 7 is_stmt 1 view .LVU184
.LBB2297:
.LBI2297:
	.loc 6 104 7 view .LVU185
.LBE2297:
.LBE2296:
# /usr/include/c++/16/bits/stl_vector.h:2205: 	if (__n > _S_max_size(_Tp_alloc_type(__a)))
	.loc 2 2205 2 is_stmt 0 discriminator 3 view .LVU186
	mov	rax, QWORD PTR 48[rsp]	# tmp745, %sfp
	shr	rax, 61	# tmp745,
	jne	.L176	#,
.LVL44:
	.loc 2 2205 2 discriminator 3 view .LVU187
.LBE2293:
.LBE2292:
.LBB2299:
.LBI2299:
	.loc 2 339 7 is_stmt 1 view .LVU188
.LBB2300:
.LBI2300:
	.loc 2 152 2 view .LVU189
.LBB2301:
.LBI2301:
	.loc 5 172 7 view .LVU190
.LBB2302:
.LBI2302:
	.loc 6 92 7 view .LVU191
	.loc 6 92 7 is_stmt 0 view .LVU192
.LBE2302:
.LBE2301:
.LBB2303:
.LBI2303:
	.loc 2 105 2 is_stmt 1 view .LVU193
	.loc 2 105 2 is_stmt 0 view .LVU194
.LBE2303:
.LBE2300:
.LBB2304:
.LBI2304:
	.loc 2 405 7 is_stmt 1 view .LVU195
.LBB2305:
.LBB2306:
.LBI2306:
	.loc 2 386 7 view .LVU196
.LBB2307:
# /usr/include/c++/16/bits/stl_vector.h:389: 	return __n != 0 ? _Tr::allocate(_M_impl, __n) : pointer();
	.loc 2 389 18 is_stmt 0 view .LVU197
	mov	rax, QWORD PTR 48[rsp]	# _942, %sfp
	test	rax, rax	# _942
	je	.L94	#,
.LBB2308:
.LBB2309:
.LBB2310:
# /usr/include/c++/16/bits/new_allocator.h:162: 	  return static_cast<_Tp*>(_GLIBCXX_OPERATOR_NEW(__n * sizeof(_Tp)));
	.loc 6 162 68 view .LVU198
	lea	rbp, 0[0+rax*4]	# _310,
	mov	DWORD PTR 24[rsp], ecx	# %sfp, _573
.LVL45:
	.loc 6 162 68 view .LVU199
.LBE2310:
.LBE2309:
.LBI2308:
	.loc 8 637 7 is_stmt 1 view .LVU200
.LBB2313:
.LBI2309:
	.loc 6 129 7 view .LVU201
.LBB2311:
# /usr/include/c++/16/bits/new_allocator.h:162: 	  return static_cast<_Tp*>(_GLIBCXX_OPERATOR_NEW(__n * sizeof(_Tp)));
	.loc 6 162 68 is_stmt 0 view .LVU202
	mov	rdi, rbp	#, _310
	mov	QWORD PTR 80[rsp], rbp	# %sfp, _310
.LEHB1:
	call	"_Znwm"@PLT	#
.LVL46:
.LEHE1:
.LBE2311:
.LBE2313:
.LBE2308:
.LBE2307:
.LBE2306:
.LBE2305:
.LBE2304:
.LBE2299:
.LBB2324:
.LBB2325:
.LBB2326:
.LBB2327:
.LBB2328:
.LBB2329:
.LBB2330:
.LBB2331:
# /usr/include/c++/16/bits/stl_construct.h:133:       ::new(static_cast<void*>(__p)) _Tp(std::forward<_Args>(__args)...);
	.file 11 "/usr/include/c++/16/bits/stl_construct.h"
	.loc 11 133 7 discriminator 1 view .LVU203
	mov	rdx, rbp	#, _310
	xor	esi, esi	#
	mov	rdi, rax	#, _308
.LBE2331:
.LBE2330:
.LBE2329:
.LBE2328:
.LBE2327:
.LBE2326:
.LBE2325:
.LBE2324:
.LBB2341:
.LBB2322:
.LBB2320:
.LBB2318:
.LBB2316:
.LBB2315:
.LBB2314:
.LBB2312:
# /usr/include/c++/16/bits/new_allocator.h:162: 	  return static_cast<_Tp*>(_GLIBCXX_OPERATOR_NEW(__n * sizeof(_Tp)));
	.loc 6 162 68 view .LVU204
	mov	r15, rax	# _308, _308
.LVL47:
	.loc 6 162 68 view .LVU205
.LBE2312:
.LBE2314:
.LBE2315:
.LBE2316:
.LBE2318:
.LBE2320:
.LBE2322:
.LBE2341:
.LBB2342:
.LBI2324:
	.loc 2 1987 7 is_stmt 1 view .LVU206
.LBB2340:
.LBI2325:
	.file 12 "/usr/include/c++/16/bits/stl_uninitialized.h"
	.loc 12 771 5 view .LVU207
.LBB2339:
.LBI2326:
	.loc 12 550 5 view .LVU208
.LBB2338:
.LBB2337:
.LBI2328:
	.loc 12 477 5 view .LVU209
.LBB2336:
.LBB2333:
.LBI2333:
	.loc 12 113 7 view .LVU210
	.loc 12 113 7 is_stmt 0 view .LVU211
.LBE2333:
	.loc 12 485 2 is_stmt 1 discriminator 2 view .LVU212
	.loc 12 491 7 discriminator 2 view .LVU213
.LBB2334:
.LBB2332:
# /usr/include/c++/16/bits/stl_construct.h:133:       ::new(static_cast<void*>(__p)) _Tp(std::forward<_Args>(__args)...);
	.loc 11 133 7 is_stmt 0 discriminator 1 view .LVU214
	call	"memset"@PLT	#
.LVL48:
	.loc 11 133 7 discriminator 1 view .LVU215
	mov	ecx, DWORD PTR 24[rsp]	# _573, %sfp
.LVL49:
.L18:
	.loc 11 133 7 discriminator 1 view .LVU216
.LBE2332:
.LBE2334:
.LBB2335:
.LBI2335:
	.loc 12 118 7 is_stmt 1 view .LVU217
	.loc 12 118 7 is_stmt 0 view .LVU218
.LBE2335:
.LBE2336:
.LBE2337:
.LBE2338:
.LBE2339:
.LBE2340:
.LBE2342:
.LBE2291:
.LBB2345:
.LBI2345:
	.loc 5 189 7 is_stmt 1 view .LVU219
.LBB2346:
.LBI2346:
	.loc 6 104 7 view .LVU220
	.loc 6 104 7 is_stmt 0 view .LVU221
.LBE2346:
.LBE2345:
	.loc 1 69 5 is_stmt 1 view .LVU222
.LBB2347:
.LBI2347:
	.loc 5 168 7 view .LVU223
.LBB2348:
.LBI2348:
	.loc 6 88 7 view .LVU224
	.loc 6 88 7 is_stmt 0 view .LVU225
.LBE2348:
.LBE2347:
# src/opt7_5.cpp:69:     std::vector<int> diff((width + 1) * (height + 1), 0);
	.loc 1 69 49 discriminator 1 view .LVU226
	mov	rax, QWORD PTR 40[rsp]	# height, %sfp
# src/opt7_5.cpp:69:     std::vector<int> diff((width + 1) * (height + 1), 0);
	.loc 1 69 34 discriminator 1 view .LVU227
	lea	r13, 1[r12]	# y_904,
# src/opt7_5.cpp:69:     std::vector<int> diff((width + 1) * (height + 1), 0);
	.loc 1 69 49 discriminator 1 view .LVU228
	inc	rax	# _25
# src/opt7_5.cpp:69:     std::vector<int> diff((width + 1) * (height + 1), 0);
	.loc 1 69 56 discriminator 1 view .LVU229
	imul	rax, r13	# _25, y_904
	mov	QWORD PTR 56[rsp], rax	# %sfp, _26
.LVL50:
.LBB2349:
.LBI2349:
	.loc 2 589 7 is_stmt 1 view .LVU230
.LBB2350:
.LBI2350:
	.loc 2 2203 7 view .LVU231
.LBB2351:
.LBB2352:
.LBI2352:
	.loc 5 172 7 view .LVU232
.LBB2353:
.LBI2353:
	.loc 6 92 7 view .LVU233
	.loc 6 92 7 is_stmt 0 view .LVU234
.LBE2353:
.LBE2352:
.LBB2354:
.LBI2354:
	.loc 5 189 7 is_stmt 1 view .LVU235
.LBB2355:
.LBI2355:
	.loc 6 104 7 view .LVU236
.LBE2355:
.LBE2354:
# /usr/include/c++/16/bits/stl_vector.h:2205: 	if (__n > _S_max_size(_Tp_alloc_type(__a)))
	.loc 2 2205 2 is_stmt 0 discriminator 3 view .LVU237
	shr	rax, 61	# tmp746,
.LVL51:
	.loc 2 2205 2 discriminator 3 view .LVU238
	jne	.L177	#,
.LVL52:
	.loc 2 2205 2 discriminator 3 view .LVU239
.LBE2351:
.LBE2350:
.LBB2357:
.LBI2357:
	.loc 2 339 7 is_stmt 1 view .LVU240
.LBB2358:
.LBI2358:
	.loc 2 152 2 view .LVU241
.LBB2359:
.LBI2359:
	.loc 5 172 7 view .LVU242
.LBB2360:
.LBI2360:
	.loc 6 92 7 view .LVU243
	.loc 6 92 7 is_stmt 0 view .LVU244
.LBE2360:
.LBE2359:
.LBB2361:
.LBI2361:
	.loc 2 105 2 is_stmt 1 view .LVU245
	.loc 2 105 2 is_stmt 0 view .LVU246
.LBE2361:
.LBE2358:
.LBB2362:
.LBI2362:
	.loc 2 405 7 is_stmt 1 view .LVU247
.LBB2363:
.LBB2364:
.LBI2364:
	.loc 2 386 7 view .LVU248
.LBB2365:
# /usr/include/c++/16/bits/stl_vector.h:389: 	return __n != 0 ? _Tr::allocate(_M_impl, __n) : pointer();
	.loc 2 389 18 is_stmt 0 view .LVU249
	mov	rax, QWORD PTR 56[rsp]	# _26, %sfp
	test	rax, rax	# _26
	je	.L95	#,
.LBB2366:
.LBB2367:
.LBB2368:
# /usr/include/c++/16/bits/new_allocator.h:162: 	  return static_cast<_Tp*>(_GLIBCXX_OPERATOR_NEW(__n * sizeof(_Tp)));
	.loc 6 162 68 view .LVU250
	sal	rax, 2	# _26,
	mov	DWORD PTR 24[rsp], ecx	# %sfp, _573
.LBE2368:
.LBE2367:
.LBI2366:
	.loc 8 637 7 is_stmt 1 view .LVU251
.LBB2371:
.LBI2367:
	.loc 6 129 7 view .LVU252
.LVL53:
.LBB2369:
# /usr/include/c++/16/bits/new_allocator.h:162: 	  return static_cast<_Tp*>(_GLIBCXX_OPERATOR_NEW(__n * sizeof(_Tp)));
	.loc 6 162 68 is_stmt 0 view .LVU253
	mov	rdi, rax	#, _26
	mov	QWORD PTR 56[rsp], rax	# %sfp, _26
.LVL54:
.LEHB2:
	.loc 6 162 68 view .LVU254
	call	"_Znwm"@PLT	#
.LVL55:
.LEHE2:
.LBE2369:
.LBE2371:
.LBE2366:
.LBE2365:
.LBE2364:
.LBE2363:
.LBE2362:
.LBE2357:
.LBB2382:
.LBB2383:
.LBB2384:
.LBB2385:
.LBB2386:
.LBB2387:
.LBB2388:
.LBB2389:
# /usr/include/c++/16/bits/stl_construct.h:133:       ::new(static_cast<void*>(__p)) _Tp(std::forward<_Args>(__args)...);
	.loc 11 133 7 discriminator 1 view .LVU255
	mov	rdx, QWORD PTR 56[rsp]	#, %sfp
	xor	esi, esi	#
	mov	rdi, rax	#, _416
.LBE2389:
.LBE2388:
.LBE2387:
.LBE2386:
.LBE2385:
.LBE2384:
.LBE2383:
.LBE2382:
.LBB2399:
.LBB2380:
.LBB2378:
.LBB2376:
.LBB2374:
.LBB2373:
.LBB2372:
.LBB2370:
# /usr/include/c++/16/bits/new_allocator.h:162: 	  return static_cast<_Tp*>(_GLIBCXX_OPERATOR_NEW(__n * sizeof(_Tp)));
	.loc 6 162 68 view .LVU256
	mov	rbp, rax	# _416, _416
.LVL56:
	.loc 6 162 68 view .LVU257
.LBE2370:
.LBE2372:
.LBE2373:
.LBE2374:
.LBE2376:
.LBE2378:
.LBE2380:
.LBE2399:
.LBB2400:
.LBI2382:
	.loc 2 1987 7 is_stmt 1 view .LVU258
.LBB2398:
.LBI2383:
	.loc 12 771 5 view .LVU259
.LBB2397:
.LBI2384:
	.loc 12 550 5 view .LVU260
.LBB2396:
.LBB2395:
.LBI2386:
	.loc 12 477 5 view .LVU261
.LBB2394:
.LBB2391:
.LBI2391:
	.loc 12 113 7 view .LVU262
	.loc 12 113 7 is_stmt 0 view .LVU263
.LBE2391:
	.loc 12 485 2 is_stmt 1 discriminator 2 view .LVU264
	.loc 12 491 7 discriminator 2 view .LVU265
.LBB2392:
.LBB2390:
# /usr/include/c++/16/bits/stl_construct.h:133:       ::new(static_cast<void*>(__p)) _Tp(std::forward<_Args>(__args)...);
	.loc 11 133 7 is_stmt 0 discriminator 1 view .LVU266
	call	"memset"@PLT	#
.LVL57:
	.loc 11 133 7 discriminator 1 view .LVU267
	mov	ecx, DWORD PTR 24[rsp]	# _573, %sfp
.LVL58:
.L23:
	.loc 11 133 7 discriminator 1 view .LVU268
.LBE2390:
.LBE2392:
.LBB2393:
.LBI2393:
	.loc 12 118 7 is_stmt 1 view .LVU269
	.loc 12 118 7 is_stmt 0 view .LVU270
.LBE2393:
.LBE2394:
.LBE2395:
.LBE2396:
.LBE2397:
.LBE2398:
.LBE2400:
.LBE2349:
.LBB2403:
.LBI2403:
	.loc 5 189 7 is_stmt 1 view .LVU271
.LBB2404:
.LBI2404:
	.loc 6 104 7 view .LVU272
	.loc 6 104 7 is_stmt 0 view .LVU273
.LBE2404:
.LBE2403:
	.loc 1 70 5 is_stmt 1 view .LVU274
.LBB2405:
.LBI2405:
	.loc 5 168 7 view .LVU275
.LBB2406:
.LBI2406:
	.loc 6 88 7 view .LVU276
	.loc 6 88 7 is_stmt 0 view .LVU277
.LBE2406:
.LBE2405:
.LBB2407:
.LBI2407:
	.loc 2 576 7 is_stmt 1 view .LVU278
.LBB2408:
.LBI2408:
	.loc 2 2203 7 view .LVU279
.LBB2409:
.LBB2410:
.LBI2410:
	.loc 5 172 7 view .LVU280
.LBB2411:
.LBI2411:
	.loc 6 92 7 view .LVU281
	.loc 6 92 7 is_stmt 0 view .LVU282
.LBE2411:
.LBE2410:
.LBB2412:
.LBI2412:
	.loc 5 189 7 is_stmt 1 view .LVU283
.LBB2413:
.LBI2413:
	.loc 6 104 7 view .LVU284
.LBE2413:
.LBE2412:
# /usr/include/c++/16/bits/stl_vector.h:2205: 	if (__n > _S_max_size(_Tp_alloc_type(__a)))
	.loc 2 2205 2 is_stmt 0 discriminator 3 view .LVU285
	mov	rax, QWORD PTR 72[rsp]	# _5, %sfp
	shr	rax, 61	# _5,
	jne	.L178	#,
.LVL59:
	.loc 2 2205 2 discriminator 3 view .LVU286
.LBE2409:
.LBE2408:
.LBB2415:
.LBI2415:
	.loc 2 339 7 is_stmt 1 view .LVU287
.LBB2416:
.LBI2416:
	.loc 2 152 2 view .LVU288
.LBB2417:
.LBI2417:
	.loc 5 172 7 view .LVU289
.LBB2418:
.LBI2418:
	.loc 6 92 7 view .LVU290
	.loc 6 92 7 is_stmt 0 view .LVU291
.LBE2418:
.LBE2417:
.LBB2419:
.LBI2419:
	.loc 2 105 2 is_stmt 1 view .LVU292
	.loc 2 105 2 is_stmt 0 view .LVU293
.LBE2419:
.LBE2416:
.LBB2420:
.LBI2420:
	.loc 2 405 7 is_stmt 1 view .LVU294
.LBB2421:
.LBB2422:
.LBI2422:
	.loc 2 386 7 view .LVU295
.LBB2423:
# /usr/include/c++/16/bits/stl_vector.h:389: 	return __n != 0 ? _Tr::allocate(_M_impl, __n) : pointer();
	.loc 2 389 18 is_stmt 0 view .LVU296
	cmp	QWORD PTR 48[rsp], 0	# %sfp,
	vxorps	xmm0, xmm0, xmm0	# tmp729
	je	.L195	#,
.LBB2424:
.LBB2425:
.LBB2426:
# /usr/include/c++/16/bits/new_allocator.h:162: 	  return static_cast<_Tp*>(_GLIBCXX_OPERATOR_NEW(__n * sizeof(_Tp)));
	.loc 6 162 68 view .LVU297
	mov	rdx, QWORD PTR 88[rsp]	# tmp682, %sfp
	mov	DWORD PTR 96[rsp], ecx	# %sfp, _573
.LVL60:
	.loc 6 162 68 view .LVU298
.LBE2426:
.LBE2425:
.LBI2424:
	.loc 8 637 7 is_stmt 1 view .LVU299
.LBB2429:
.LBI2425:
	.loc 6 129 7 view .LVU300
.LBB2427:
# /usr/include/c++/16/bits/new_allocator.h:162: 	  return static_cast<_Tp*>(_GLIBCXX_OPERATOR_NEW(__n * sizeof(_Tp)));
	.loc 6 162 68 is_stmt 0 view .LVU301
	add	rdx, QWORD PTR 48[rsp]	# tmp682, %sfp
	sal	rdx, 2	# tmp449,
	mov	rdi, rdx	# _942, tmp449
	mov	QWORD PTR 72[rsp], rdx	# %sfp, tmp449
.LVL61:
	.loc 6 162 68 view .LVU302
	mov	QWORD PTR 48[rsp], rdx	# %sfp, _942
.LVL62:
.LEHB3:
	.loc 6 162 68 view .LVU303
	call	"_Znwm"@PLT	#
.LVL63:
.LEHE3:
.LBE2427:
.LBE2429:
.LBE2424:
.LBE2423:
.LBE2422:
.LBE2421:
.LBE2420:
.LBE2415:
.LBB2440:
.LBB2441:
.LBB2442:
.LBB2443:
.LBB2444:
.LBB2445:
.LBB2446:
.LBB2447:
.LBB2448:
.LBB2449:
.LBB2450:
.LBB2451:
.LBB2452:
# /usr/include/c++/16/bits/stl_algobase.h:922:       for (; __first != __last; ++__first)
	.loc 10 922 22 discriminator 2 view .LVU304
	mov	rdx, QWORD PTR 72[rsp]	# tmp449, %sfp
	mov	ecx, DWORD PTR 96[rsp]	# _573, %sfp
.LBE2452:
.LBE2451:
.LBE2450:
.LBE2449:
.LBE2448:
.LBE2447:
.LBE2446:
.LBE2445:
.LBE2444:
.LBE2443:
.LBE2442:
.LBE2441:
.LBE2440:
.LBB2480:
.LBB2438:
.LBB2436:
.LBB2434:
.LBB2432:
.LBB2431:
.LBB2430:
.LBB2428:
# /usr/include/c++/16/bits/new_allocator.h:162: 	  return static_cast<_Tp*>(_GLIBCXX_OPERATOR_NEW(__n * sizeof(_Tp)));
	.loc 6 162 68 view .LVU305
	mov	QWORD PTR 24[rsp], rax	# %sfp, _656
.LVL64:
	.loc 6 162 68 view .LVU306
.LBE2428:
.LBE2430:
.LBE2431:
.LBE2432:
.LBE2434:
.LBE2436:
.LBE2438:
.LBE2480:
.LBB2481:
.LBI2440:
	.loc 2 1998 7 is_stmt 1 view .LVU307
.LBB2479:
.LBI2441:
	.loc 12 1051 5 view .LVU308
.LBB2478:
.LBI2442:
	.loc 12 982 5 view .LVU309
.LBB2477:
.LBB2476:
.LBI2444:
	.loc 12 939 9 view .LVU310
.LBB2475:
.LBI2445:
	.loc 12 939 9 view .LVU311
.LBB2474:
.LBB2468:
.LBI2468:
	.loc 11 123 5 view .LVU312
.LBE2468:
.LBB2470:
.LBB2465:
.LBB2462:
.LBB2459:
.LBB2456:
.LBB2453:
# /usr/include/c++/16/bits/stl_algobase.h:922:       for (; __first != __last; ++__first)
	.loc 10 922 22 is_stmt 0 discriminator 2 view .LVU313
	vxorps	xmm0, xmm0, xmm0	# tmp729
.LBE2453:
.LBE2456:
.LBE2459:
.LBE2462:
.LBE2465:
.LBE2470:
.LBB2471:
.LBB2469:
# /usr/include/c++/16/bits/stl_construct.h:133:       ::new(static_cast<void*>(__p)) _Tp(std::forward<_Args>(__args)...);
	.loc 11 133 7 discriminator 1 view .LVU314
	mov	DWORD PTR [rax], 0x00000000	# *_597,
.LVL65:
	.loc 11 133 7 discriminator 1 view .LVU315
.LBE2469:
.LBE2471:
.LBB2472:
.LBI2447:
	.loc 10 1179 5 is_stmt 1 view .LVU316
.LBB2466:
.LBI2448:
	.loc 10 1141 5 view .LVU317
.LBB2463:
.LBB2460:
.LBI2450:
	.loc 10 976 5 view .LVU318
.LBB2457:
.LBI2451:
	.loc 10 895 5 view .LVU319
.LBB2454:
	.loc 10 922 22 discriminator 2 view .LVU320
	cmp	rdx, 4	# tmp449,
	je	.L196	#,
# /usr/include/c++/16/bits/stl_algobase.h:923: 	*__first = __val;
	.loc 10 923 11 is_stmt 0 view .LVU321
	sub	rdx, 4	# _499,
.LVL66:
	.loc 10 923 11 view .LVU322
	xor	esi, esi	#
.LBE2454:
.LBE2457:
.LBE2460:
.LBE2463:
.LBE2466:
.LBE2472:
# /usr/include/c++/16/bits/stl_uninitialized.h:946: 	      ++__first;
	.loc 12 946 8 view .LVU323
	lea	rdi, 4[rax]	# __first_453,
.LVL67:
	.loc 12 946 8 view .LVU324
	mov	DWORD PTR 72[rsp], ecx	# %sfp, _573
.LVL68:
.LBB2473:
.LBB2467:
.LBB2464:
.LBB2461:
.LBB2458:
.LBB2455:
# /usr/include/c++/16/bits/stl_algobase.h:923: 	*__first = __val;
	.loc 10 923 11 view .LVU325
	call	"memset"@PLT	#
.LVL69:
	.loc 10 923 11 view .LVU326
.LBE2455:
.LBE2458:
.LBE2461:
.LBE2464:
.LBE2467:
.LBE2473:
.LBE2474:
.LBE2475:
.LBE2476:
.LBE2477:
.LBE2478:
.LBE2479:
.LBE2481:
.LBE2407:
.LBB2484:
.LBI2484:
	.loc 5 189 7 is_stmt 1 view .LVU327
.LBB2485:
.LBI2485:
	.loc 6 104 7 view .LVU328
	.loc 6 104 7 is_stmt 0 view .LVU329
.LBE2485:
.LBE2484:
	.loc 1 72 5 is_stmt 1 view .LVU330
.LBB2488:
.LBB2489:
.LBI2489:
	.loc 2 988 7 view .LVU331
.LBB2490:
.LBI2490:
	.loc 3 1058 7 view .LVU332
	.loc 3 1058 7 is_stmt 0 view .LVU333
.LBE2490:
.LBE2489:
.LBB2493:
.LBI2493:
	.loc 2 1008 7 is_stmt 1 view .LVU334
.LBB2494:
.LBI2494:
	.loc 3 1058 7 view .LVU335
	.loc 3 1058 7 is_stmt 0 view .LVU336
.LBE2494:
.LBE2493:
	.loc 1 72 31 is_stmt 1 discriminator 5 view .LVU337
# src/opt7_5.cpp:72:     for (const SubParams& p : params) {
	.loc 1 72 31 is_stmt 0 discriminator 6 view .LVU338
	mov	rcx, QWORD PTR 16[rsp]	# params$_M_start, %sfp
	vxorps	xmm0, xmm0, xmm0	# tmp729
	cmp	QWORD PTR 8[rsp], rcx	# %sfp, params$_M_start
	mov	ecx, DWORD PTR 72[rsp]	# _573, %sfp
	je	.L35	#,
.LVL70:
.L26:
# src/opt7_5.cpp:72:     for (const SubParams& p : params) {
	.loc 1 72 31 view .LVU339
	mov	rax, QWORD PTR 16[rsp]	# SR.264, %sfp
	mov	rdi, QWORD PTR 8[rsp]	# __new_finish, %sfp
.LVL71:
	.loc 1 72 31 view .LVU340
	.p2align 6
	.p2align 4,,10
	.p2align 3
.L36:
.LVL72:
	.loc 1 73 9 is_stmt 1 view .LVU341
# src/opt7_5.cpp:73:         diff[static_cast<size_t>(p.y_begin) * (width + 1) + p.x_begin] += 1;
	.loc 1 73 14 is_stmt 0 view .LVU342
	movsxd	rdx, DWORD PTR 32[rax]	# _28, MEM[(int *)SR.264_710 + 32B]
# src/opt7_5.cpp:73:         diff[static_cast<size_t>(p.y_begin) * (width + 1) + p.x_begin] += 1;
	.loc 1 73 63 view .LVU343
	movsxd	r8, DWORD PTR 24[rax]	# _31, MEM[(int *)SR.264_710 + 24B]
.LBB2497:
.LBB2498:
# /usr/include/c++/16/bits/stl_iterator.h:1103: 	++_M_current;
	.loc 3 1103 2 view .LVU344
	add	rax, 48	# SR.264,
.LVL73:
	.loc 3 1103 2 view .LVU345
.LBE2498:
.LBE2497:
# src/opt7_5.cpp:75:         diff[static_cast<size_t>(p.y_end) * (width + 1) + p.x_begin] -= 1;
	.loc 1 75 14 view .LVU346
	movsxd	r9, DWORD PTR -12[rax]	# _44, MEM[(int *)SR.264_710 + 36B]
# src/opt7_5.cpp:73:         diff[static_cast<size_t>(p.y_begin) * (width + 1) + p.x_begin] += 1;
	.loc 1 73 45 view .LVU347
	imul	rdx, r13	# _29, y_904
.LVL74:
.LBB2499:
.LBI2499:
	.loc 2 1251 7 is_stmt 1 view .LVU348
.LBB2500:
	.loc 2 1253 2 discriminator 2 view .LVU349
	.loc 2 1253 2 is_stmt 0 discriminator 2 view .LVU350
.LBE2500:
.LBE2499:
# src/opt7_5.cpp:75:         diff[static_cast<size_t>(p.y_end) * (width + 1) + p.x_begin] -= 1;
	.loc 1 75 43 view .LVU351
	imul	r9, r13	# _45, y_904
# src/opt7_5.cpp:73:         diff[static_cast<size_t>(p.y_begin) * (width + 1) + p.x_begin] += 1;
	.loc 1 73 70 view .LVU352
	lea	rsi, [rdx+r8]	# _32,
# src/opt7_5.cpp:73:         diff[static_cast<size_t>(p.y_begin) * (width + 1) + p.x_begin] += 1;
	.loc 1 73 72 discriminator 1 view .LVU353
	inc	DWORD PTR 0[rbp+rsi*4]	# *_333
	.loc 1 74 9 is_stmt 1 view .LVU354
# src/opt7_5.cpp:74:         diff[static_cast<size_t>(p.y_begin) * (width + 1) + p.x_end] -= 1;
	.loc 1 74 63 is_stmt 0 view .LVU355
	movsxd	rsi, DWORD PTR -20[rax]	# _39, MEM[(int *)SR.264_710 + 28B]
.LVL75:
.LBB2501:
.LBI2501:
	.loc 2 1251 7 is_stmt 1 view .LVU356
.LBB2502:
	.loc 2 1253 2 discriminator 2 view .LVU357
	.loc 2 1253 2 is_stmt 0 discriminator 2 view .LVU358
.LBE2502:
.LBE2501:
# src/opt7_5.cpp:74:         diff[static_cast<size_t>(p.y_begin) * (width + 1) + p.x_end] -= 1;
	.loc 1 74 68 view .LVU359
	add	rdx, rsi	# _40, _39
# src/opt7_5.cpp:74:         diff[static_cast<size_t>(p.y_begin) * (width + 1) + p.x_end] -= 1;
	.loc 1 74 70 discriminator 1 view .LVU360
	dec	DWORD PTR 0[rbp+rdx*4]	# *_330
	.loc 1 75 9 is_stmt 1 view .LVU361
.LVL76:
.LBB2503:
.LBI2503:
	.loc 2 1251 7 view .LVU362
.LBB2504:
	.loc 2 1253 2 discriminator 2 view .LVU363
	.loc 2 1253 2 is_stmt 0 discriminator 2 view .LVU364
.LBE2504:
.LBE2503:
# src/opt7_5.cpp:75:         diff[static_cast<size_t>(p.y_end) * (width + 1) + p.x_begin] -= 1;
	.loc 1 75 68 view .LVU365
	lea	rdx, [r8+r9]	# _48,
# src/opt7_5.cpp:75:         diff[static_cast<size_t>(p.y_end) * (width + 1) + p.x_begin] -= 1;
	.loc 1 75 70 discriminator 1 view .LVU366
	dec	DWORD PTR 0[rbp+rdx*4]	# *_328
	.loc 1 76 9 is_stmt 1 view .LVU367
.LVL77:
.LBB2505:
.LBI2505:
	.loc 2 1251 7 view .LVU368
.LBB2506:
	.loc 2 1253 2 discriminator 2 view .LVU369
	.loc 2 1253 2 is_stmt 0 discriminator 2 view .LVU370
.LBE2506:
.LBE2505:
# src/opt7_5.cpp:76:         diff[static_cast<size_t>(p.y_end) * (width + 1) + p.x_end] += 1;
	.loc 1 76 66 view .LVU371
	lea	rdx, [rsi+r9]	# _56,
# src/opt7_5.cpp:76:         diff[static_cast<size_t>(p.y_end) * (width + 1) + p.x_end] += 1;
	.loc 1 76 68 discriminator 1 view .LVU372
	inc	DWORD PTR 0[rbp+rdx*4]	# *_326
	.loc 1 72 5 is_stmt 1 discriminator 4 view .LVU373
.LVL78:
.LBB2507:
.LBI2497:
	.loc 3 1101 7 view .LVU374
	.loc 3 1101 7 is_stmt 0 view .LVU375
.LBE2507:
	.loc 1 72 31 is_stmt 1 discriminator 5 view .LVU376
# src/opt7_5.cpp:72:     for (const SubParams& p : params) {
	.loc 1 72 31 is_stmt 0 discriminator 6 view .LVU377
	cmp	rax, rdi	# SR.264, __new_finish
	jne	.L36	#,
.LVL79:
	.loc 1 72 31 discriminator 6 view .LVU378
.LBE2488:
.LBB2512:
	.loc 1 79 23 is_stmt 1 discriminator 2 view .LVU379
	test	r14d, r14d	# _554
	jle	.L37	#,
	test	ecx, ecx	# _573
	jle	.L183	#,
.LVL80:
.L38:
.LBB2513:
.LBB2514:
	.loc 1 81 27 discriminator 2 view .LVU380
	lea	ecx, -1[r12]	# _889,
.LBE2514:
.LBE2513:
.LBE2512:
.LBB2522:
# src/opt7_5.cpp:72:     for (const SubParams& p : params) {
	.loc 1 72 31 is_stmt 0 view .LVU381
	xor	eax, eax	# ivtmp.370
.LBE2522:
.LBB2523:
.LBB2519:
# src/opt7_5.cpp:80:         int row = 0;
	.loc 1 80 13 view .LVU382
	xor	edx, edx	# row
	lea	rdi, 1[rcx]	# _178,
.LVL81:
.L40:
.LBB2515:
	.loc 1 82 13 is_stmt 1 view .LVU383
# src/opt7_5.cpp:82:             row += diff[static_cast<size_t>(y) * (width + 1) + x];
	.loc 1 82 17 is_stmt 0 discriminator 1 view .LVU384
	add	edx, DWORD PTR 0[rbp+rax*4]	# row, MEM[(value_type &)_416 + ivtmp.370_893 * 4]
.LVL82:
	.loc 1 83 13 is_stmt 1 view .LVU385
# src/opt7_5.cpp:83:             counts[static_cast<size_t>(y) * width + x] =
	.loc 1 83 56 is_stmt 0 discriminator 2 view .LVU386
	mov	DWORD PTR [r15+rax*4], edx	# MEM[(value_type &)_682 + ivtmp.370_893 * 4], row
	.loc 1 81 9 is_stmt 1 discriminator 1 view .LVU387
.LVL83:
	.loc 1 81 27 discriminator 2 view .LVU388
	inc	rax	# ivtmp.370
.LVL84:
	.loc 1 81 27 is_stmt 0 discriminator 2 view .LVU389
	cmp	rdi, rax	# _178, ivtmp.370
	jne	.L40	#,
.LBE2515:
.LBE2519:
	.loc 1 79 5 is_stmt 1 discriminator 1 view .LVU390
.LVL85:
	.loc 1 79 23 discriminator 2 view .LVU391
	cmp	r14d, 1	# _554,
	jle	.L41	#,
	lea	rax, 0[0+r13*4]	# _918,
.LBB2520:
.LBB2516:
# src/opt7_5.cpp:81:         for (int x = 0; x < w; ++x) {
	.loc 1 81 27 is_stmt 0 discriminator 2 view .LVU392
	mov	r11, r12	# ivtmp.367, width
.LBE2516:
.LBE2520:
# src/opt7_5.cpp:79:     for (int y = 0; y < h; ++y) {
	.loc 1 79 14 view .LVU393
	mov	r10d, 1	# y,
	mov	QWORD PTR 72[rsp], rax	# %sfp, _918
	lea	rsi, 0[rbp+rax]	# ivtmp.366,
.LVL86:
.L43:
.LBB2521:
.LBB2517:
	.loc 1 81 27 is_stmt 1 discriminator 2 view .LVU394
# src/opt7_5.cpp:84:                 row + (y > 0 ? counts[static_cast<size_t>(y - 1) * width + x] : 0);
	.loc 1 84 39 is_stmt 0 discriminator 1 view .LVU395
	lea	eax, -1[r10]	# _1074,
	lea	r8, [r15+r11*4]	# _930,
.LBE2517:
# src/opt7_5.cpp:80:         int row = 0;
	.loc 1 80 13 view .LVU396
	xor	edx, edx	# row
	imul	rax, r12	# _1055, width
	lea	r9, [r15+rax*4]	# _932,
.LBB2518:
# src/opt7_5.cpp:84:                 row + (y > 0 ? counts[static_cast<size_t>(y - 1) * width + x] : 0);
	.loc 1 84 39 discriminator 1 view .LVU397
	xor	eax, eax	# ivtmp.353
.LVL87:
	.loc 1 84 39 discriminator 1 view .LVU398
	.p2align 5
	.p2align 4,,10
	.p2align 3
.L42:
.LVL88:
	.loc 1 82 13 is_stmt 1 view .LVU399
# src/opt7_5.cpp:84:                 row + (y > 0 ? counts[static_cast<size_t>(y - 1) * width + x] : 0);
	.loc 1 84 21 is_stmt 0 discriminator 4 view .LVU400
	mov	ecx, DWORD PTR [r9+rax*4]	# _1018, MEM[(value_type &)_932 + ivtmp.353_937 * 4]
# src/opt7_5.cpp:82:             row += diff[static_cast<size_t>(y) * (width + 1) + x];
	.loc 1 82 17 discriminator 1 view .LVU401
	add	edx, DWORD PTR [rsi+rax*4]	# row, MEM[(value_type &)_934 + ivtmp.353_937 * 4]
.LVL89:
	.loc 1 83 13 is_stmt 1 view .LVU402
# src/opt7_5.cpp:84:                 row + (y > 0 ? counts[static_cast<size_t>(y - 1) * width + x] : 0);
	.loc 1 84 21 is_stmt 0 discriminator 4 view .LVU403
	add	ecx, edx	# _1018, row
# src/opt7_5.cpp:83:             counts[static_cast<size_t>(y) * width + x] =
	.loc 1 83 56 discriminator 2 view .LVU404
	mov	DWORD PTR [r8+rax*4], ecx	# MEM[(value_type &)_930 + ivtmp.353_937 * 4], _1018
	.loc 1 81 9 is_stmt 1 discriminator 1 view .LVU405
.LVL90:
	.loc 1 81 27 discriminator 2 view .LVU406
	inc	rax	# ivtmp.353
.LVL91:
	.loc 1 81 27 is_stmt 0 discriminator 2 view .LVU407
	cmp	rdi, rax	# _178, ivtmp.353
	jne	.L42	#,
.LBE2518:
.LBE2521:
	.loc 1 79 5 is_stmt 1 discriminator 1 view .LVU408
	inc	r10d	# y
.LVL92:
	.loc 1 79 23 discriminator 2 view .LVU409
	add	rsi, QWORD PTR 72[rsp]	# ivtmp.366, %sfp
	add	r11, r12	# ivtmp.367, width
	cmp	r10d, r14d	# y, _554
	jl	.L43	#,
.LVL93:
.L183:
	.loc 1 79 23 is_stmt 0 discriminator 2 view .LVU410
.LBE2523:
.LBB2524:
	.loc 1 88 31 is_stmt 1 discriminator 5 view .LVU411
# src/opt7_5.cpp:88:     for (const SubParams& p : params) {
	.loc 1 88 31 is_stmt 0 discriminator 6 view .LVU412
	mov	rcx, QWORD PTR 16[rsp]	# params$_M_start, %sfp
	cmp	QWORD PTR 8[rsp], rcx	# %sfp, params$_M_start
	je	.L28	#,
.LVL94:
.L39:
	.loc 1 88 31 discriminator 6 view .LVU413
	mov	QWORD PTR 72[rsp], r15	# %sfp, _308
.LBB2525:
.LBB2526:
# src/opt7_5.cpp:92:             size_t ind_bot = ind_top + width * 3;
	.loc 1 92 46 view .LVU414
	lea	rcx, [r12+r12*2]	# _79,
.LVL95:
	.loc 1 92 46 view .LVU415
	mov	rax, QWORD PTR 16[rsp]	# ivtmp.351, %sfp
	mov	QWORD PTR 88[rsp], rbp	# %sfp, _416
	lea	r14, 0[0+rcx*4]	# tmp497,
	mov	QWORD PTR 96[rsp], r13	# %sfp, y_904
	mov	r13, QWORD PTR 24[rsp]	# _656, %sfp
	mov	QWORD PTR 104[rsp], rbx	# %sfp, <retval>
	mov	rbx, QWORD PTR 8[rsp]	# __new_finish, %sfp
.LVL96:
	.p2align 4,,10
	.p2align 3
.L53:
	.loc 1 89 9 is_stmt 1 view .LVU416
.LBE2526:
# src/opt7_5.cpp:89:         for (int y = p.y_begin; y < p.y_end; ++y) {
	.loc 1 89 18 is_stmt 0 view .LVU417
	mov	r10d, DWORD PTR 32[rax]	# y, MEM[(int *)_941 + 32B]
.LVL97:
	.loc 1 89 35 is_stmt 1 discriminator 2 view .LVU418
# src/opt7_5.cpp:89:         for (int y = p.y_begin; y < p.y_end; ++y) {
	.loc 1 89 39 is_stmt 0 discriminator 2 view .LVU419
	mov	r15d, DWORD PTR 36[rax]	# _762, MEM[(int *)_941 + 36B]
# src/opt7_5.cpp:89:         for (int y = p.y_begin; y < p.y_end; ++y) {
	.loc 1 89 35 discriminator 2 view .LVU420
	cmp	r10d, r15d	# y, _762
	jge	.L50	#,
.LBB2536:
# src/opt7_5.cpp:91:             size_t ind_top = ((y + p.sy) * width + (p.x_begin + p.sx)) * 3;
	.loc 1 91 55 view .LVU421
	mov	r8d, DWORD PTR 24[rax]	# _74, MEM[(int *)_941 + 24B]
.LBB2527:
# src/opt7_5.cpp:105:             for (int x = p.x_begin; x < p.x_end; ++x) {
	.loc 1 105 43 discriminator 2 view .LVU422
	mov	r11d, DWORD PTR 28[rax]	# _670, MEM[(int *)_941 + 28B]
	cmp	r8d, r11d	# _74, _670
	jge	.L50	#,
	movsxd	r9, DWORD PTR 4[rax]	# _284, MEM[(int *)_941 + 4B]
	movsxd	rdx, r10d	# _285, y
.LBE2527:
# src/opt7_5.cpp:103:                 + (static_cast<size_t>(y) * width + static_cast<size_t>(p.x_begin)) * 3;
	.loc 1 103 53 view .LVU423
	movsxd	rbp, r8d	# _99, _74
	sub	r11d, r8d	# _980, _74
# src/opt7_5.cpp:91:             size_t ind_top = ((y + p.sy) * width + (p.x_begin + p.sx)) * 3;
	.loc 1 91 67 view .LVU424
	movsxd	rdi, DWORD PTR [rax]	#, MEM[(int *)_941]
.LBB2532:
.LBB2528:
# src/opt7_5.cpp:118:                 vals_row[0] += p.A*pTLr + p.B*pTRr + p.C*pBLr + p.D*pBRr;
	.loc 1 118 34 view .LVU425
	vmovss	xmm16, DWORD PTR 8[rax]	# _123, MEM[(float *)_941 + 8B]
	add	r9, rdx	# _1003, _285
	imul	rdx, r12	# _986, width
# src/opt7_5.cpp:118:                 vals_row[0] += p.A*pTLr + p.B*pTRr + p.C*pBLr + p.D*pBRr;
	.loc 1 118 45 view .LVU426
	vmovss	xmm15, DWORD PTR 12[rax]	# _125, MEM[(float *)_941 + 12B]
# src/opt7_5.cpp:118:                 vals_row[0] += p.A*pTLr + p.B*pTRr + p.C*pBLr + p.D*pBRr;
	.loc 1 118 56 view .LVU427
	vmovss	xmm14, DWORD PTR 16[rax]	# _128, MEM[(float *)_941 + 16B]
	imul	r9, r12	# _1002, width
.LBE2528:
.LBE2532:
# src/opt7_5.cpp:91:             size_t ind_top = ((y + p.sy) * width + (p.x_begin + p.sx)) * 3;
	.loc 1 91 63 view .LVU428
	lea	esi, [r8+rdi]	# _76,
	add	rdi, rbp	# _1066, _99
.LBB2533:
.LBB2529:
# src/opt7_5.cpp:118:                 vals_row[0] += p.A*pTLr + p.B*pTRr + p.C*pBLr + p.D*pBRr;
	.loc 1 118 67 view .LVU429
	vmovss	xmm13, DWORD PTR 20[rax]	# _131, MEM[(float *)_941 + 20B]
.LBE2529:
.LBE2533:
# src/opt7_5.cpp:91:             size_t ind_top = ((y + p.sy) * width + (p.x_begin + p.sx)) * 3;
	.loc 1 91 63 view .LVU430
	movsxd	rsi, esi	# _77, _76
	add	rdx, rbp	# _984, _99
	lea	rbp, [rdi+rdi*2]	# _1065,
	add	rdx, r11	# _979, _980
	add	r9, rsi	# _1000, _77
	lea	rdx, [rdx+rdx*2]	# _978,
	lea	r9, [r9+r9*2]	# _999,
	lea	r8, 0[r13+rdx*4]	# ivtmp.344,
	lea	rdx, 0[0+r11*4]	# tmp517,
	add	r9, QWORD PTR 40[rax]	# ivtmp.338, MEM[(const unsigned char * *)_941 + 40B]
	sub	r11, rdx	# _963, tmp517
	lea	rdx, 0[0+rsi*4]	# tmp526,
	sub	rsi, rdx	# _960, tmp526
	sal	r11, 2	# tmp519,
	add	rbp, rsi	# _954, _960
	.p2align 4,,10
	.p2align 3
.L52:
	.loc 1 91 13 is_stmt 1 view .LVU431
.LVL98:
	.loc 1 92 13 view .LVU432
	.loc 1 94 13 view .LVU433
	.loc 1 95 13 view .LVU434
	.loc 1 96 13 view .LVU435
	.loc 1 98 13 view .LVU436
	.loc 1 99 13 view .LVU437
	.loc 1 100 13 view .LVU438
	.loc 1 102 13 view .LVU439
	.loc 1 105 13 view .LVU440
.LBB2534:
	.loc 1 105 39 discriminator 2 view .LVU441
.LBE2534:
# src/opt7_5.cpp:94:             float pTLr = p.data[ind_top];
	.loc 1 94 19 is_stmt 0 view .LVU442
	movzx	edx, BYTE PTR [r9]	# MEM[(const unsigned char *)_976], MEM[(const unsigned char *)_976]
	lea	rsi, [r9+rbp]	# ivtmp.329,
	vcvtusi2ss	xmm9, xmm0, edx	# tmp730, tmp729, MEM[(const unsigned char *)_976]
# src/opt7_5.cpp:95:             float pTLg = p.data[ind_top + 1];
	.loc 1 95 19 view .LVU443
	movzx	edx, BYTE PTR 1[r9]	# MEM[(const unsigned char *)_976 + 1B], MEM[(const unsigned char *)_976 + 1B]
	vcvtusi2ss	xmm8, xmm0, edx	# tmp731, tmp729, MEM[(const unsigned char *)_976 + 1B]
# src/opt7_5.cpp:96:             float pTLb = p.data[ind_top + 2];
	.loc 1 96 19 view .LVU444
	movzx	edx, BYTE PTR 2[r9]	# MEM[(const unsigned char *)_976 + 2B], MEM[(const unsigned char *)_976 + 2B]
	vcvtusi2ss	xmm7, xmm0, edx	# tmp732, tmp729, MEM[(const unsigned char *)_976 + 2B]
# src/opt7_5.cpp:98:             float pBLr = p.data[ind_bot];
	.loc 1 98 19 view .LVU445
	movzx	edx, BYTE PTR [r9+rcx]	# MEM[(const unsigned char *)_976 + _79 * 1], MEM[(const unsigned char *)_976 + _79 * 1]
	vcvtusi2ss	xmm6, xmm0, edx	# tmp733, tmp729, MEM[(const unsigned char *)_976 + _79 * 1]
# src/opt7_5.cpp:99:             float pBLg = p.data[ind_bot + 1];
	.loc 1 99 19 view .LVU446
	movzx	edx, BYTE PTR 1[r9+rcx]	# MEM[(const unsigned char *)_976 + 1B + _79 * 1], MEM[(const unsigned char *)_976 + 1B + _79 * 1]
	vcvtusi2ss	xmm5, xmm0, edx	# tmp734, tmp729, MEM[(const unsigned char *)_976 + 1B + _79 * 1]
# src/opt7_5.cpp:100:             float pBLb = p.data[ind_bot + 2];
	.loc 1 100 19 view .LVU447
	movzx	edx, BYTE PTR 2[r9+rcx]	# MEM[(const unsigned char *)_976 + 2B + _79 * 1], MEM[(const unsigned char *)_976 + 2B + _79 * 1]
	vcvtusi2ss	xmm4, xmm0, edx	# tmp735, tmp729, MEM[(const unsigned char *)_976 + 2B + _79 * 1]
# src/opt7_5.cpp:103:                 + (static_cast<size_t>(y) * width + static_cast<size_t>(p.x_begin)) * 3;
	.loc 1 103 87 view .LVU448
	lea	rdx, [r11+r8]	# vals_row,
.LVL99:
	.p2align 4,,10
	.p2align 3
.L51:
.LBB2535:
.LBB2530:
	.loc 1 107 17 is_stmt 1 view .LVU449
	.loc 1 108 17 view .LVU450
	.loc 1 110 17 view .LVU451
# src/opt7_5.cpp:110:                 const float pTRr = p.data[ind_top_r];
	.loc 1 110 29 is_stmt 0 view .LVU452
	movzx	edi, BYTE PTR 3[rsi]	# MEM[(const unsigned char *)_556 + 3B], MEM[(const unsigned char *)_556 + 3B]
	vmovaps	xmm3, xmm9	# pTLr, pTRr
	vmovaps	xmm2, xmm8	# pTLg, pTRg
	vmovaps	xmm1, xmm7	# pTLb, pTRb
	vmovaps	xmm12, xmm6	# pBLr, pBRr
	vmovaps	xmm17, xmm15	# _496, _125
	vmovaps	xmm11, xmm5	# pBLg, pBRg
# src/opt7_5.cpp:125:                 vals_row += 3;
	.loc 1 125 26 view .LVU453
	add	rdx, 12	# vals_row,
.LVL100:
# src/opt7_5.cpp:110:                 const float pTRr = p.data[ind_top_r];
	.loc 1 110 29 view .LVU454
	vcvtusi2ss	xmm9, xmm0, edi	# tmp736, tmp729, MEM[(const unsigned char *)_556 + 3B]
.LVL101:
	.loc 1 111 17 is_stmt 1 view .LVU455
# src/opt7_5.cpp:111:                 const float pTRg = p.data[ind_top_r + 1];
	.loc 1 111 29 is_stmt 0 view .LVU456
	movzx	edi, BYTE PTR 4[rsi]	# MEM[(const unsigned char *)_556 + 4B], MEM[(const unsigned char *)_556 + 4B]
	vmovaps	xmm10, xmm4	# pBLb, pBRb
.LBE2530:
# src/opt7_5.cpp:105:             for (int x = p.x_begin; x < p.x_end; ++x) {
	.loc 1 105 39 discriminator 2 view .LVU457
	add	rsi, 3	# ivtmp.329,
.LVL102:
.LBB2531:
# src/opt7_5.cpp:111:                 const float pTRg = p.data[ind_top_r + 1];
	.loc 1 111 29 view .LVU458
	vcvtusi2ss	xmm8, xmm0, edi	# tmp737, tmp729, MEM[(const unsigned char *)_556 + 4B]
.LVL103:
	.loc 1 112 17 is_stmt 1 view .LVU459
# src/opt7_5.cpp:112:                 const float pTRb = p.data[ind_top_r + 2];
	.loc 1 112 29 is_stmt 0 view .LVU460
	movzx	edi, BYTE PTR 2[rsi]	# MEM[(const unsigned char *)_556 + 5B], MEM[(const unsigned char *)_556 + 5B]
	vcvtusi2ss	xmm7, xmm0, edi	# tmp738, tmp729, MEM[(const unsigned char *)_556 + 5B]
.LVL104:
	.loc 1 114 17 is_stmt 1 view .LVU461
# src/opt7_5.cpp:114:                 const float pBRr = p.data[ind_bot_r];
	.loc 1 114 29 is_stmt 0 view .LVU462
	movzx	edi, BYTE PTR [rsi+rcx]	# MEM[(const unsigned char *)_556 + 3B + _79 * 1], MEM[(const unsigned char *)_556 + 3B + _79 * 1]
	vfmadd213ss	xmm17, xmm9, DWORD PTR -12[rdx]	# _496, pTRr, MEM[(float *)vals_row_658]
	vcvtusi2ss	xmm6, xmm0, edi	# tmp739, tmp729, MEM[(const unsigned char *)_556 + 3B + _79 * 1]
.LVL105:
	.loc 1 115 17 is_stmt 1 view .LVU463
# src/opt7_5.cpp:115:                 const float pBRg = p.data[ind_bot_r + 1];
	.loc 1 115 29 is_stmt 0 view .LVU464
	movzx	edi, BYTE PTR 1[rsi+rcx]	# MEM[(const unsigned char *)_556 + 4B + _79 * 1], MEM[(const unsigned char *)_556 + 4B + _79 * 1]
	vcvtusi2ss	xmm5, xmm0, edi	# tmp740, tmp729, MEM[(const unsigned char *)_556 + 4B + _79 * 1]
.LVL106:
	.loc 1 116 17 is_stmt 1 view .LVU465
# src/opt7_5.cpp:116:                 const float pBRb = p.data[ind_bot_r + 2];
	.loc 1 116 29 is_stmt 0 view .LVU466
	movzx	edi, BYTE PTR 2[rsi+rcx]	# MEM[(const unsigned char *)_556 + 5B + _79 * 1], MEM[(const unsigned char *)_556 + 5B + _79 * 1]
# src/opt7_5.cpp:118:                 vals_row[0] += p.A*pTLr + p.B*pTRr + p.C*pBLr + p.D*pBRr;
	.loc 1 118 68 view .LVU467
	vmulss	xmm18, xmm13, xmm6	# _132, _131, pBRr
# src/opt7_5.cpp:116:                 const float pBRb = p.data[ind_bot_r + 2];
	.loc 1 116 29 view .LVU468
	vcvtusi2ss	xmm4, xmm0, edi	# tmp741, tmp729, MEM[(const unsigned char *)_556 + 5B + _79 * 1]
.LVL107:
	.loc 1 118 17 is_stmt 1 view .LVU469
# src/opt7_5.cpp:118:                 vals_row[0] += p.A*pTLr + p.B*pTRr + p.C*pBLr + p.D*pBRr;
	.loc 1 118 29 is_stmt 0 view .LVU470
	vfmadd132ss	xmm3, xmm18, xmm16	# tmp541, _132, _123
.LVL108:
	.loc 1 118 29 view .LVU471
	vaddss	xmm3, xmm3, xmm17	# _666, tmp541, _496
	vfmadd132ss	xmm12, xmm3, xmm14	# tmp540, _666, _128
.LVL109:
	.loc 1 118 29 view .LVU472
	vmovaps	xmm3, xmm15	# _1082, _125
	vfmadd213ss	xmm3, xmm8, DWORD PTR -8[rdx]	# _1082, pTRg, MEM[(float *)vals_row_658 + 4B]
	vmovss	DWORD PTR -12[rdx], xmm12	# MEM[(float *)vals_row_658], tmp540
	.loc 1 119 17 is_stmt 1 view .LVU473
# src/opt7_5.cpp:119:                 vals_row[1] += p.A*pTLg + p.B*pTRg + p.C*pBLg + p.D*pBRg;
	.loc 1 119 68 is_stmt 0 view .LVU474
	vmulss	xmm12, xmm13, xmm5	# _145, _131, pBRg
# src/opt7_5.cpp:119:                 vals_row[1] += p.A*pTLg + p.B*pTRg + p.C*pBLg + p.D*pBRg;
	.loc 1 119 29 view .LVU475
	vfmadd132ss	xmm2, xmm12, xmm16	# tmp545, _145, _123
.LVL110:
	.loc 1 119 29 view .LVU476
	vaddss	xmm2, xmm2, xmm3	# _1075, tmp545, _1082
# src/opt7_5.cpp:120:                 vals_row[2] += p.A*pTLb + p.B*pTRb + p.C*pBLb + p.D*pBRb;
	.loc 1 120 68 view .LVU477
	vmulss	xmm3, xmm13, xmm4	# _158, _131, pBRb
# src/opt7_5.cpp:119:                 vals_row[1] += p.A*pTLg + p.B*pTRg + p.C*pBLg + p.D*pBRg;
	.loc 1 119 29 view .LVU478
	vfmadd132ss	xmm11, xmm2, xmm14	# tmp544, _1075, _128
.LVL111:
	.loc 1 119 29 view .LVU479
	vmovaps	xmm2, xmm15	# _1084, _125
	vfmadd213ss	xmm2, xmm7, DWORD PTR -4[rdx]	# _1084, pTRb, MEM[(float *)vals_row_658 + 8B]
# src/opt7_5.cpp:120:                 vals_row[2] += p.A*pTLb + p.B*pTRb + p.C*pBLb + p.D*pBRb;
	.loc 1 120 29 view .LVU480
	vfmadd132ss	xmm1, xmm3, xmm16	# tmp549, _158, _123
.LVL112:
# src/opt7_5.cpp:119:                 vals_row[1] += p.A*pTLg + p.B*pTRg + p.C*pBLg + p.D*pBRg;
	.loc 1 119 29 view .LVU481
	vmovss	DWORD PTR -8[rdx], xmm11	# MEM[(float *)vals_row_658 + 4B], tmp544
	.loc 1 120 17 is_stmt 1 view .LVU482
# src/opt7_5.cpp:120:                 vals_row[2] += p.A*pTLb + p.B*pTRb + p.C*pBLb + p.D*pBRb;
	.loc 1 120 29 is_stmt 0 view .LVU483
	vaddss	xmm1, xmm1, xmm2	# _1081, tmp549, _1084
	vfmadd132ss	xmm10, xmm1, xmm14	# tmp548, _1081, _128
.LVL113:
	.loc 1 120 29 view .LVU484
	vmovss	DWORD PTR -4[rdx], xmm10	# MEM[(float *)vals_row_658 + 8B], tmp548
	.loc 1 123 17 is_stmt 1 view .LVU485
.LVL114:
	.loc 1 123 30 view .LVU486
	.loc 1 123 43 view .LVU487
	.loc 1 124 17 view .LVU488
	.loc 1 124 30 view .LVU489
	.loc 1 124 43 view .LVU490
	.loc 1 125 17 view .LVU491
.LBE2531:
	.loc 1 105 13 discriminator 1 view .LVU492
	.loc 1 105 39 discriminator 2 view .LVU493
	cmp	rdx, r8	# vals_row, ivtmp.344
	jne	.L51	#,
.LBE2535:
.LBE2536:
	.loc 1 89 9 discriminator 1 view .LVU494
	inc	r10d	# y
.LVL115:
	.loc 1 89 35 discriminator 2 view .LVU495
	add	r9, rcx	# ivtmp.338, _79
	add	r8, r14	# ivtmp.344, tmp497
	cmp	r10d, r15d	# y, _762
	jne	.L52	#,
.LVL116:
.L50:
	.loc 1 89 35 is_stmt 0 discriminator 2 view .LVU496
.LBE2525:
	.loc 1 88 5 is_stmt 1 discriminator 4 view .LVU497
	.loc 1 88 31 discriminator 5 view .LVU498
# src/opt7_5.cpp:88:     for (const SubParams& p : params) {
	.loc 1 88 31 is_stmt 0 discriminator 6 view .LVU499
	add	rax, 48	# ivtmp.351,
.LVL117:
	.loc 1 88 31 discriminator 6 view .LVU500
	cmp	rbx, rax	# __new_finish, ivtmp.351
	jne	.L53	#,
	mov	r15, QWORD PTR 72[rsp]	# _308, %sfp
	mov	rbp, QWORD PTR 88[rsp]	# _416, %sfp
	mov	r13, QWORD PTR 96[rsp]	# y_904, %sfp
	mov	rbx, QWORD PTR 104[rsp]	# <retval>, %sfp
.LVL118:
.L49:
	.loc 1 88 31 discriminator 6 view .LVU501
.LBE2524:
.LBB2537:
	.loc 1 130 26 is_stmt 1 discriminator 2 view .LVU502
	cmp	QWORD PTR 40[rsp], 0	# %sfp,
	je	.L54	#,
.LVL119:
.L28:
.LBB2538:
	.loc 1 131 30 discriminator 2 view .LVU503
	test	r12, r12	# width
	je	.L55	#,
.LBB2539:
.LBB2540:
.LBB2541:
# /usr/include/c++/16/cmath:2695:   { return __builtin_roundf(__x); }
	.loc 9 2695 28 is_stmt 0 view .LVU504
	vmovss	xmm3, DWORD PTR .LC4[rip]	# tmp689,
	vbroadcastss	xmm4, DWORD PTR .LC6[rip]	# tmp690,
	lea	r8, 0[0+r12*4]	# _723,
	mov	rsi, r15	# ivtmp.320, _308
.LBE2541:
.LBE2540:
.LBB2546:
.LBB2547:
.LBB2548:
# /usr/include/c++/16/bits/stl_algobase.h:237:       if (__b < __a)
	.loc 10 237 7 view .LVU505
	vmovss	xmm5, DWORD PTR .LC7[rip]	# tmp693,
	mov	r9, QWORD PTR 40[rsp]	# height, %sfp
.LBE2548:
.LBE2547:
.LBE2546:
.LBE2539:
# src/opt7_5.cpp:131:         for (size_t x = 0; x < width; ++x) {
	.loc 1 131 30 discriminator 2 view .LVU506
	xor	edi, edi	# ivtmp.319
	xor	ecx, ecx	# y
.LBB2664:
.LBB2559:
.LBB2551:
.LBB2549:
# /usr/include/c++/16/bits/stl_algobase.h:237:       if (__b < __a)
	.loc 10 237 7 view .LVU507
	mov	r10, QWORD PTR 24[rsp]	# _656, %sfp
.LBE2549:
.LBE2551:
.LBE2559:
.LBB2560:
.LBB2542:
# /usr/include/c++/16/cmath:2695:   { return __builtin_roundf(__x); }
	.loc 9 2695 28 view .LVU508
	vandnps	xmm3, xmm4, xmm3	# tmp691, tmp690, tmp689
.LBE2542:
.LBE2560:
.LBB2561:
.LBB2552:
.LBB2553:
# /usr/include/c++/16/bits/stl_algobase.h:261:       if (__a < __b)
	.loc 10 261 7 view .LVU509
	vxorps	xmm6, xmm6, xmm6	# tmp692
.LVL120:
	.p2align 4,,10
	.p2align 3
.L73:
	.loc 10 261 7 view .LVU510
	lea	rax, [rdi+rdi*2]	# _578,
	lea	rdx, [r10+rax*4]	# ivtmp.313,
.LBE2553:
.LBE2552:
.LBE2561:
.LBE2664:
# src/opt7_5.cpp:131:         for (size_t x = 0; x < width; ++x) {
	.loc 1 131 21 view .LVU511
	xor	eax, eax	# x
	.p2align 4,,10
	.p2align 3
.L72:
.LVL121:
.LBB2665:
	.loc 1 132 13 is_stmt 1 view .LVU512
# src/opt7_5.cpp:132:             const int c = counts[y * width + x];
	.loc 1 132 47 is_stmt 0 discriminator 1 view .LVU513
	mov	r11d, DWORD PTR [rsi+rax*4]	# c, MEM[(value_type &)_495 + x_3 * 4]
.LVL122:
	.loc 1 133 13 is_stmt 1 view .LVU514
	test	r11d, r11d	# c
	je	.L56	#,
	.loc 1 136 13 view .LVU515
# src/opt7_5.cpp:136:             output.at(x, y, 0) = (unsigned char) std::clamp(std::round(vals[(y*width + x)*3]     / c), 0.0f, 255.0f);
	.loc 1 136 71 is_stmt 0 discriminator 1 view .LVU516
	vcvtsi2ss	xmm2, xmm0, r11d	# tmp742, tmp729, c
.LVL123:
.LBB2562:
.LBI2540:
	.loc 9 2694 3 is_stmt 1 view .LVU517
.LBB2543:
	.loc 9 2695 5 view .LVU518
.LBE2543:
.LBE2562:
# src/opt7_5.cpp:136:             output.at(x, y, 0) = (unsigned char) std::clamp(std::round(vals[(y*width + x)*3]     / c), 0.0f, 255.0f);
	.loc 1 136 71 is_stmt 0 discriminator 1 view .LVU519
	vmovss	xmm1, DWORD PTR [rdx]	# MEM[(value_type &)_280], MEM[(value_type &)_280]
.LBB2563:
.LBB2544:
# /usr/include/c++/16/cmath:2695:   { return __builtin_roundf(__x); }
	.loc 9 2695 28 view .LVU520
	vmovaps	xmm7, xmm4	# tmp966, tmp690
	mov	r11, QWORD PTR [rbx]	# _449, MEM[(long unsigned int *)output_214(D)]
.LVL124:
	.loc 9 2695 28 view .LVU521
	mov	r14, QWORD PTR 8[rbx]	# _450, MEM[(long unsigned int *)output_214(D) + 8B]
.LBE2544:
.LBE2563:
# src/opt7_5.cpp:136:             output.at(x, y, 0) = (unsigned char) std::clamp(std::round(vals[(y*width + x)*3]     / c), 0.0f, 255.0f);
	.loc 1 136 71 discriminator 1 view .LVU522
	vdivss	xmm1, xmm1, xmm2	# _167, MEM[(value_type &)_280], _166
.LVL125:
.LBB2564:
.LBB2545:
# /usr/include/c++/16/cmath:2695:   { return __builtin_roundf(__x); }
	.loc 9 2695 28 view .LVU523
	vpternlogd	xmm7, xmm1, xmm3, 234	# tmp966, _167, tmp691,
	vaddss	xmm1, xmm1, xmm7	# tmp564, _167, tmp558
.LVL126:
	.loc 9 2695 28 view .LVU524
	vrndscaless	xmm1, xmm1, xmm1, 3	# tmp565, tmp564,
.LVL127:
	.loc 9 2695 28 view .LVU525
.LBE2545:
.LBE2564:
.LBB2565:
.LBI2546:
	.file 13 "/usr/include/c++/16/bits/stl_algo.h"
	.loc 13 3614 5 is_stmt 1 view .LVU526
	.loc 13 3616 7 discriminator 2 view .LVU527
.LBB2555:
.LBI2552:
	.loc 10 256 5 view .LVU528
.LBE2555:
.LBB2556:
.LBI2547:
	.loc 10 232 5 view .LVU529
.LBE2556:
.LBB2557:
.LBB2554:
# /usr/include/c++/16/bits/stl_algobase.h:261:       if (__a < __b)
	.loc 10 261 7 is_stmt 0 view .LVU530
	vmaxss	xmm1, xmm1, xmm6	# _253, tmp565, tmp692
.LBE2554:
.LBE2557:
.LBB2558:
.LBB2550:
# /usr/include/c++/16/bits/stl_algobase.h:237:       if (__b < __a)
	.loc 10 237 7 view .LVU531
	vminss	xmm1, xmm1, xmm5	# _253, _253, tmp693
.LBE2550:
.LBE2558:
.LBE2565:
# src/opt7_5.cpp:136:             output.at(x, y, 0) = (unsigned char) std::clamp(std::round(vals[(y*width + x)*3]     / c), 0.0f, 255.0f);
	.loc 1 136 34 discriminator 3 view .LVU532
	vcvttss2si	r13d, xmm1	# tmp570, _253
.LVL128:
.LBB2566:
.LBI2566:
	.loc 4 29 27 is_stmt 1 view .LVU533
.LBB2567:
	.loc 4 30 9 view .LVU534
.LBB2568:
.LBI2568:
	.loc 4 16 19 view .LVU535
.LBB2569:
	.loc 4 17 9 view .LVU536
	cmp	rax, r11	# x, _449
	jnb	.L179	#,
	.loc 4 20 9 view .LVU537
	cmp	rcx, r14	# y, _450
	jnb	.L180	#,
	.loc 4 23 9 view .LVU538
	.loc 4 26 9 view .LVU539
.LVL129:
	.loc 4 26 9 is_stmt 0 view .LVU540
.LBE2569:
.LBE2568:
.LBB2574:
.LBI2574:
	.loc 2 1251 7 is_stmt 1 view .LVU541
.LBB2575:
	.loc 2 1253 2 discriminator 2 view .LVU542
	.loc 2 1253 2 is_stmt 0 discriminator 2 view .LVU543
.LBE2575:
.LBE2574:
.LBE2567:
.LBE2566:
# src/opt7_5.cpp:137:             output.at(x, y, 1) = (unsigned char) std::clamp(std::round(vals[(y*width + x)*3 + 1] / c), 0.0f, 255.0f);
	.loc 1 137 71 discriminator 1 view .LVU544
	vmovss	xmm1, DWORD PTR 4[rdx]	# MEM[(value_type &)_280 + 4], MEM[(value_type &)_280 + 4]
.LBB2584:
.LBB2580:
.LBB2576:
.LBB2570:
# include/utils.hpp:26:         return (y * width + x) * 3 + c;
	.loc 4 26 19 view .LVU545
	imul	r11, rcx	# _610, y
.LBE2570:
.LBE2576:
.LBE2580:
.LBE2584:
.LBB2585:
.LBB2586:
# /usr/include/c++/16/cmath:2695:   { return __builtin_roundf(__x); }
	.loc 9 2695 28 view .LVU546
	vmovaps	xmm7, xmm4	# tmp967, tmp690
.LBE2586:
.LBE2585:
# src/opt7_5.cpp:137:             output.at(x, y, 1) = (unsigned char) std::clamp(std::round(vals[(y*width + x)*3 + 1] / c), 0.0f, 255.0f);
	.loc 1 137 71 discriminator 1 view .LVU547
	vdivss	xmm1, xmm1, xmm2	# _171, MEM[(value_type &)_280 + 4], _166
.LBB2588:
.LBB2581:
.LBB2577:
.LBB2571:
# include/utils.hpp:26:         return (y * width + x) * 3 + c;
	.loc 4 26 32 view .LVU548
	add	r11, rax	# tmp582, x
.LBE2571:
.LBE2577:
.LBE2581:
.LBE2588:
# src/opt7_5.cpp:136:             output.at(x, y, 0) = (unsigned char) std::clamp(std::round(vals[(y*width + x)*3]     / c), 0.0f, 255.0f);
	.loc 1 136 32 discriminator 4 view .LVU549
	lea	r11, [r11+r11*2]	# tmp587,
	add	r11, QWORD PTR 16[rbx]	# tmp588, MEM[(struct vector *)output_214(D) + 16B].D.86825._M_impl.D.86136._M_start
	mov	BYTE PTR [r11], r13b	# MEM[(unsigned char &)_349], tmp570
	.loc 1 137 13 is_stmt 1 view .LVU550
.LVL130:
.LBB2589:
.LBI2585:
	.loc 9 2694 3 view .LVU551
.LBB2587:
	.loc 9 2695 5 view .LVU552
	mov	r11, QWORD PTR [rbx]	# _447, MEM[(long unsigned int *)output_214(D)]
	mov	r14, QWORD PTR 8[rbx]	# _448, MEM[(long unsigned int *)output_214(D) + 8B]
# /usr/include/c++/16/cmath:2695:   { return __builtin_roundf(__x); }
	.loc 9 2695 28 is_stmt 0 view .LVU553
	vpternlogd	xmm7, xmm1, xmm3, 234	# tmp967, _171, tmp691,
	vaddss	xmm1, xmm1, xmm7	# tmp597, _171, tmp591
.LVL131:
	.loc 9 2695 28 view .LVU554
	vrndscaless	xmm1, xmm1, xmm1, 3	# tmp598, tmp597,
.LVL132:
	.loc 9 2695 28 view .LVU555
.LBE2587:
.LBE2589:
.LBB2590:
.LBI2590:
	.loc 13 3614 5 is_stmt 1 view .LVU556
	.loc 13 3616 7 discriminator 2 view .LVU557
.LBB2591:
.LBI2591:
	.loc 10 256 5 view .LVU558
.LBE2591:
.LBB2593:
.LBI2593:
	.loc 10 232 5 view .LVU559
.LBE2593:
.LBB2595:
.LBB2592:
# /usr/include/c++/16/bits/stl_algobase.h:261:       if (__a < __b)
	.loc 10 261 7 is_stmt 0 view .LVU560
	vmaxss	xmm1, xmm1, xmm6	# _323, tmp598, tmp692
.LBE2592:
.LBE2595:
.LBB2596:
.LBB2594:
# /usr/include/c++/16/bits/stl_algobase.h:237:       if (__b < __a)
	.loc 10 237 7 view .LVU561
	vminss	xmm1, xmm1, xmm5	# _323, _323, tmp693
.LBE2594:
.LBE2596:
.LBE2590:
# src/opt7_5.cpp:137:             output.at(x, y, 1) = (unsigned char) std::clamp(std::round(vals[(y*width + x)*3 + 1] / c), 0.0f, 255.0f);
	.loc 1 137 34 discriminator 3 view .LVU562
	vcvttss2si	r13d, xmm1	# tmp603, _323
.LVL133:
.LBB2597:
.LBI2597:
	.loc 4 29 27 is_stmt 1 view .LVU563
.LBB2598:
	.loc 4 30 9 view .LVU564
.LBB2599:
.LBI2599:
	.loc 4 16 19 view .LVU565
.LBB2600:
	.loc 4 17 9 view .LVU566
	cmp	rax, r11	# x, _447
	jnb	.L197	#,
	.loc 4 20 9 view .LVU567
	cmp	rcx, r14	# y, _448
	jnb	.L181	#,
	.loc 4 23 9 view .LVU568
	.loc 4 26 9 view .LVU569
.LVL134:
	.loc 4 26 9 is_stmt 0 view .LVU570
.LBE2600:
.LBE2599:
.LBB2608:
.LBI2608:
	.loc 2 1251 7 is_stmt 1 view .LVU571
.LBB2609:
	.loc 2 1253 2 discriminator 2 view .LVU572
	.loc 2 1253 2 is_stmt 0 discriminator 2 view .LVU573
.LBE2609:
.LBE2608:
.LBE2598:
.LBE2597:
# src/opt7_5.cpp:138:             output.at(x, y, 2) = (unsigned char) std::clamp(std::round(vals[(y*width + x)*3 + 2] / c), 0.0f, 255.0f);
	.loc 1 138 71 discriminator 1 view .LVU574
	vmovss	xmm1, DWORD PTR 8[rdx]	# MEM[(value_type &)_280 + 8], MEM[(value_type &)_280 + 8]
.LBB2624:
.LBB2617:
.LBB2610:
.LBB2601:
# include/utils.hpp:26:         return (y * width + x) * 3 + c;
	.loc 4 26 19 view .LVU575
	imul	r11, rcx	# _619, y
.LBE2601:
.LBE2610:
.LBE2617:
.LBE2624:
.LBB2625:
.LBB2626:
# /usr/include/c++/16/cmath:2695:   { return __builtin_roundf(__x); }
	.loc 9 2695 28 view .LVU576
	vmovaps	xmm7, xmm4	# tmp968, tmp690
.LBE2626:
.LBE2625:
# src/opt7_5.cpp:138:             output.at(x, y, 2) = (unsigned char) std::clamp(std::round(vals[(y*width + x)*3 + 2] / c), 0.0f, 255.0f);
	.loc 1 138 71 discriminator 1 view .LVU577
	vdivss	xmm1, xmm1, xmm2	# _175, MEM[(value_type &)_280 + 8], _166
.LBB2628:
.LBB2618:
.LBB2611:
.LBB2602:
# include/utils.hpp:26:         return (y * width + x) * 3 + c;
	.loc 4 26 32 view .LVU578
	add	r11, rax	# tmp621, x
.LBE2602:
.LBE2611:
.LBE2618:
.LBE2628:
# src/opt7_5.cpp:137:             output.at(x, y, 1) = (unsigned char) std::clamp(std::round(vals[(y*width + x)*3 + 1] / c), 0.0f, 255.0f);
	.loc 1 137 32 discriminator 4 view .LVU579
	lea	r11, [r11+r11*2]	# tmp625,
	add	r11, QWORD PTR 16[rbx]	# tmp626, MEM[(struct vector *)output_214(D) + 16B].D.86825._M_impl.D.86136._M_start
	mov	BYTE PTR 1[r11], r13b	# MEM[(unsigned char &)_356], tmp603
	.loc 1 138 13 is_stmt 1 view .LVU580
.LVL135:
.LBB2629:
.LBI2625:
	.loc 9 2694 3 view .LVU581
.LBB2627:
	.loc 9 2695 5 view .LVU582
	mov	r11, QWORD PTR [rbx]	# _445, MEM[(long unsigned int *)output_214(D)]
	mov	r14, QWORD PTR 8[rbx]	# _446, MEM[(long unsigned int *)output_214(D) + 8B]
# /usr/include/c++/16/cmath:2695:   { return __builtin_roundf(__x); }
	.loc 9 2695 28 is_stmt 0 view .LVU583
	vpternlogd	xmm7, xmm1, xmm3, 234	# tmp968, _175, tmp691,
	vaddss	xmm1, xmm1, xmm7	# tmp636, _175, tmp968
.LVL136:
	.loc 9 2695 28 view .LVU584
	vrndscaless	xmm1, xmm1, xmm1, 3	# tmp637, tmp636,
.LVL137:
	.loc 9 2695 28 view .LVU585
.LBE2627:
.LBE2629:
.LBB2630:
.LBI2630:
	.loc 13 3614 5 is_stmt 1 view .LVU586
	.loc 13 3616 7 discriminator 2 view .LVU587
.LBB2631:
.LBI2631:
	.loc 10 256 5 view .LVU588
.LBE2631:
.LBB2633:
.LBI2633:
	.loc 10 232 5 view .LVU589
.LBE2633:
.LBB2635:
.LBB2632:
# /usr/include/c++/16/bits/stl_algobase.h:261:       if (__a < __b)
	.loc 10 261 7 is_stmt 0 view .LVU590
	vmaxss	xmm1, xmm1, xmm6	# _245, tmp637, tmp692
.LBE2632:
.LBE2635:
.LBB2636:
.LBB2634:
# /usr/include/c++/16/bits/stl_algobase.h:237:       if (__b < __a)
	.loc 10 237 7 view .LVU591
	vminss	xmm1, xmm1, xmm5	# _245, _245, tmp693
.LBE2634:
.LBE2636:
.LBE2630:
# src/opt7_5.cpp:138:             output.at(x, y, 2) = (unsigned char) std::clamp(std::round(vals[(y*width + x)*3 + 2] / c), 0.0f, 255.0f);
	.loc 1 138 34 discriminator 3 view .LVU592
	vcvttss2si	r13d, xmm1	# tmp642, _245
.LVL138:
.LBB2637:
.LBI2637:
	.loc 4 29 27 is_stmt 1 view .LVU593
.LBB2638:
	.loc 4 30 9 view .LVU594
.LBB2639:
.LBI2639:
	.loc 4 16 19 view .LVU595
.LBB2640:
	.loc 4 17 9 view .LVU596
	cmp	rax, r11	# x, _445
	jnb	.L198	#,
	.loc 4 20 9 view .LVU597
	cmp	rcx, r14	# y, _446
	jnb	.L182	#,
	.loc 4 23 9 view .LVU598
	.loc 4 26 9 view .LVU599
.LVL139:
	.loc 4 26 9 is_stmt 0 view .LVU600
.LBE2640:
.LBE2639:
.LBB2645:
.LBI2645:
	.loc 2 1251 7 is_stmt 1 view .LVU601
.LBB2646:
	.loc 2 1253 2 discriminator 2 view .LVU602
	.loc 2 1253 2 is_stmt 0 discriminator 2 view .LVU603
.LBE2646:
.LBE2645:
.LBB2647:
.LBB2641:
# include/utils.hpp:26:         return (y * width + x) * 3 + c;
	.loc 4 26 19 view .LVU604
	imul	r11, rcx	# _628, y
# include/utils.hpp:26:         return (y * width + x) * 3 + c;
	.loc 4 26 32 view .LVU605
	add	r11, rax	# tmp658, x
.LBE2641:
.LBE2647:
.LBE2638:
.LBE2637:
# src/opt7_5.cpp:138:             output.at(x, y, 2) = (unsigned char) std::clamp(std::round(vals[(y*width + x)*3 + 2] / c), 0.0f, 255.0f);
	.loc 1 138 32 discriminator 4 view .LVU606
	lea	r11, [r11+r11*2]	# tmp662,
	add	r11, QWORD PTR 16[rbx]	# tmp663, MEM[(struct vector *)output_214(D) + 16B].D.86825._M_impl.D.86136._M_start
	mov	BYTE PTR 2[r11], r13b	# MEM[(unsigned char &)_362], tmp642
.L56:
.LBE2665:
	.loc 1 131 9 is_stmt 1 discriminator 1 view .LVU607
	inc	rax	# x
.LVL140:
	.loc 1 131 30 discriminator 2 view .LVU608
	add	rdx, 12	# ivtmp.313,
	cmp	r12, rax	# width, x
	jne	.L72	#,
.LBE2538:
	.loc 1 130 5 discriminator 1 view .LVU609
	inc	rcx	# y
.LVL141:
	.loc 1 130 26 discriminator 2 view .LVU610
	add	rdi, r12	# ivtmp.319, width
	add	rsi, r8	# ivtmp.320, _723
.LVL142:
	.loc 1 130 26 is_stmt 0 discriminator 2 view .LVU611
	cmp	r9, rcx	# height, y
	jne	.L73	#,
.LVL143:
.L54:
	.loc 1 130 26 discriminator 2 view .LVU612
.LBE2537:
	.loc 1 142 5 is_stmt 1 view .LVU613
.LBB2679:
.LBI2679:
	.loc 2 790 7 view .LVU614
.LBB2680:
.LBI2680:
	.loc 2 307 7 view .LVU615
	.loc 2 307 7 is_stmt 0 view .LVU616
.LBE2680:
.LBB2681:
.LBI2681:
	.loc 8 1082 5 is_stmt 1 view .LVU617
	.loc 8 1082 5 is_stmt 0 view .LVU618
.LBE2681:
.LBB2682:
.LBI2682:
	.loc 2 373 7 is_stmt 1 view .LVU619
.LBB2683:
.LBB2684:
.LBI2684:
	.loc 2 394 7 view .LVU620
.LBB2685:
# /usr/include/c++/16/bits/stl_vector.h:397: 	if (__p)
	.loc 2 397 2 is_stmt 0 view .LVU621
	cmp	QWORD PTR 24[rsp], 0	# %sfp,
	je	.L29	#,
.LVL144:
.L34:
.LBB2686:
.LBI2686:
	.loc 8 688 7 is_stmt 1 view .LVU622
.LBB2687:
.LBI2687:
	.loc 6 167 7 view .LVU623
.LBB2688:
# /usr/include/c++/16/bits/new_allocator.h:183: 	_GLIBCXX_OPERATOR_DELETE(_GLIBCXX_SIZED_DEALLOC(__p, __n));
	.loc 6 183 59 is_stmt 0 view .LVU624
	mov	rsi, QWORD PTR 48[rsp]	#, %sfp
	mov	rdi, QWORD PTR 24[rsp]	#, %sfp
	call	"_ZdlPvm"@PLT	#
.LVL145:
	.loc 6 183 59 view .LVU625
.LBE2688:
.LBE2687:
.LBE2686:
.LBE2685:
.LBE2684:
.LBE2683:
.LBB2691:
.LBI2691:
	.loc 2 139 14 is_stmt 1 view .LVU626
.LBB2692:
.LBI2692:
	.loc 5 189 7 view .LVU627
.LBB2693:
.LBI2693:
	.loc 6 104 7 view .LVU628
	.loc 6 104 7 is_stmt 0 view .LVU629
.LBE2693:
.LBE2692:
.LBE2691:
.LBE2682:
.LBE2679:
.LBB2698:
.LBI2698:
	.loc 2 790 7 is_stmt 1 view .LVU630
.LBB2699:
.LBI2699:
	.loc 2 307 7 view .LVU631
	.loc 2 307 7 is_stmt 0 view .LVU632
.LBE2699:
.LBB2700:
.LBI2700:
	.loc 8 1082 5 is_stmt 1 view .LVU633
	.loc 8 1082 5 is_stmt 0 view .LVU634
.LBE2700:
.LBB2701:
.LBI2701:
	.loc 2 373 7 is_stmt 1 view .LVU635
.L29:
.LBB2702:
.LBB2703:
.LBI2703:
	.loc 2 394 7 view .LVU636
.LBB2704:
# /usr/include/c++/16/bits/stl_vector.h:397: 	if (__p)
	.loc 2 397 2 is_stmt 0 view .LVU637
	test	rbp, rbp	# _416
	je	.L75	#,
.LVL146:
.L47:
.LBB2705:
.LBI2705:
	.loc 8 688 7 is_stmt 1 view .LVU638
.LBB2706:
.LBI2706:
	.loc 6 167 7 view .LVU639
.LBB2707:
# /usr/include/c++/16/bits/new_allocator.h:183: 	_GLIBCXX_OPERATOR_DELETE(_GLIBCXX_SIZED_DEALLOC(__p, __n));
	.loc 6 183 59 is_stmt 0 view .LVU640
	mov	rsi, QWORD PTR 56[rsp]	#, %sfp
	mov	rdi, rbp	#, _416
	call	"_ZdlPvm"@PLT	#
.LVL147:
	.loc 6 183 59 view .LVU641
.LBE2707:
.LBE2706:
.LBE2705:
.LBE2704:
.LBE2703:
.LBE2702:
.LBB2708:
.LBI2708:
	.loc 2 139 14 is_stmt 1 view .LVU642
.LBB2709:
.LBI2709:
	.loc 5 189 7 view .LVU643
.LBB2710:
.LBI2710:
	.loc 6 104 7 view .LVU644
	.loc 6 104 7 is_stmt 0 view .LVU645
.LBE2710:
.LBE2709:
.LBE2708:
.LBE2701:
.LBE2698:
.LBB2711:
.LBI2711:
	.loc 2 790 7 is_stmt 1 view .LVU646
.LBB2712:
.LBI2712:
	.loc 2 307 7 view .LVU647
	.loc 2 307 7 is_stmt 0 view .LVU648
.LBE2712:
.LBB2713:
.LBI2713:
	.loc 8 1082 5 is_stmt 1 view .LVU649
	.loc 8 1082 5 is_stmt 0 view .LVU650
.LBE2713:
.LBB2714:
.LBI2714:
	.loc 2 373 7 is_stmt 1 view .LVU651
.L75:
.LBB2715:
.LBB2716:
.LBI2716:
	.loc 2 394 7 view .LVU652
.LBB2717:
# /usr/include/c++/16/bits/stl_vector.h:397: 	if (__p)
	.loc 2 397 2 is_stmt 0 view .LVU653
	test	r15, r15	# _308
	je	.L76	#,
.LVL148:
.LBB2718:
.LBI2718:
	.loc 8 688 7 is_stmt 1 view .LVU654
.LBB2719:
.LBI2719:
	.loc 6 167 7 view .LVU655
.LBB2720:
# /usr/include/c++/16/bits/new_allocator.h:183: 	_GLIBCXX_OPERATOR_DELETE(_GLIBCXX_SIZED_DEALLOC(__p, __n));
	.loc 6 183 59 is_stmt 0 view .LVU656
	mov	rsi, QWORD PTR 80[rsp]	#, %sfp
	mov	rdi, r15	#, _308
	call	"_ZdlPvm"@PLT	#
.LVL149:
.L76:
	.loc 6 183 59 view .LVU657
.LBE2720:
.LBE2719:
.LBE2718:
.LBE2717:
.LBE2716:
.LBE2715:
.LBB2721:
.LBI2721:
	.loc 2 139 14 is_stmt 1 view .LVU658
.LBB2722:
.LBI2722:
	.loc 5 189 7 view .LVU659
.LBB2723:
.LBI2723:
	.loc 6 104 7 view .LVU660
	.loc 6 104 7 is_stmt 0 view .LVU661
.LBE2723:
.LBE2722:
.LBE2721:
.LBE2714:
.LBE2711:
.LBB2724:
.LBI2272:
	.loc 2 790 7 is_stmt 1 view .LVU662
.LBB2286:
.LBI2286:
	.loc 2 307 7 view .LVU663
	.loc 2 307 7 is_stmt 0 view .LVU664
.LBE2286:
.LBB2287:
.LBI2287:
	.loc 8 1082 5 is_stmt 1 view .LVU665
	.loc 8 1082 5 is_stmt 0 view .LVU666
.LBE2287:
.LBB2288:
.LBI2273:
	.loc 2 373 7 is_stmt 1 view .LVU667
.LBB2282:
.LBB2275:
.LBI2275:
	.loc 2 394 7 view .LVU668
.LBB2276:
# /usr/include/c++/16/bits/stl_vector.h:397: 	if (__p)
	.loc 2 397 2 is_stmt 0 view .LVU669
	mov	rax, QWORD PTR 16[rsp]	# params$_M_start, %sfp
	test	rax, rax	# params$_M_start
	je	.L1	#,
.LVL150:
.LBB2277:
.LBI2277:
	.loc 2 394 7 is_stmt 1 view .LVU670
.LBB2278:
.LBB2279:
.LBI2279:
	.loc 8 688 7 view .LVU671
.LBB2280:
.LBI2280:
	.loc 6 167 7 view .LVU672
.LBB2281:
# /usr/include/c++/16/bits/new_allocator.h:183: 	_GLIBCXX_OPERATOR_DELETE(_GLIBCXX_SIZED_DEALLOC(__p, __n));
	.loc 6 183 59 is_stmt 0 view .LVU673
	mov	rsi, QWORD PTR 64[rsp]	#, %sfp
	mov	rdi, rax	#, params$_M_start
	call	"_ZdlPvm"@PLT	#
.LVL151:
	.loc 6 183 59 view .LVU674
.LBE2281:
.LBE2280:
.LBE2279:
.LBE2278:
.LBE2277:
.LBE2276:
.LBE2275:
.LBE2282:
.LBB2283:
.LBI2283:
	.loc 2 139 14 is_stmt 1 view .LVU675
.LBB2284:
.LBI2284:
	.loc 5 189 7 view .LVU676
.LBB2285:
.LBI2285:
	.loc 6 104 7 view .LVU677
.L1:
	.loc 6 104 7 is_stmt 0 view .LVU678
.LBE2285:
.LBE2284:
.LBE2283:
.LBE2288:
.LBE2724:
# src/opt7_5.cpp:143: }
	.loc 1 143 1 view .LVU679
	add	rsp, 152	#,
	.cfi_remember_state
	.cfi_def_cfa_offset 56
	mov	rax, rbx	#, <retval>
	pop	rbx	#
	.cfi_def_cfa_offset 48
	pop	rbp	#
	.cfi_def_cfa_offset 40
	pop	r12	#
	.cfi_def_cfa_offset 32
	pop	r13	#
	.cfi_def_cfa_offset 24
	pop	r14	#
	.cfi_def_cfa_offset 16
	pop	r15	#
	.cfi_def_cfa_offset 8
	ret	
.LVL152:
.L55:
	.cfi_restore_state
.LBB2725:
	.loc 1 130 5 is_stmt 1 discriminator 1 view .LVU680
	.loc 1 130 26 discriminator 2 view .LVU681
	mov	rax, QWORD PTR 40[rsp]	# height, %sfp
	cmp	rax, r13	# height, y_904
	je	.L54	#,
.LVL153:
.L199:
.LBB2672:
	.loc 1 131 30 discriminator 2 view .LVU682
.LBE2672:
	.loc 1 130 5 discriminator 1 view .LVU683
	add	r12, 2	# width,
.LVL154:
	.loc 1 130 26 discriminator 2 view .LVU684
	cmp	rax, r12	# height, width
	je	.L54	#,
	mov	rax, QWORD PTR 40[rsp]	# height, %sfp
	lea	r13, 1[r12]	# y_904,
.LVL155:
	.loc 1 130 5 discriminator 1 view .LVU685
	.loc 1 130 26 discriminator 2 view .LVU686
	cmp	rax, r13	# height, y_904
	jne	.L199	#,
	jmp	.L54	#
.LVL156:
.L194:
	.loc 1 130 26 is_stmt 0 discriminator 2 view .LVU687
.LBE2725:
.LBB2726:
.LBB2096:
.LBB2089:
.LBB2081:
.LBB2075:
# /usr/include/c++/16/bits/stl_vector.h:106: 	: _M_start(), _M_finish(), _M_end_of_storage()
	.loc 2 106 4 view .LVU688
	mov	QWORD PTR 8[rsp], 0	# %sfp,
.LBE2075:
.LBE2081:
.LBE2089:
.LBE2096:
.LBE2726:
# src/opt7_5.cpp:31:     const int w = static_cast<int>(width);
	.loc 1 31 15 view .LVU689
	mov	ecx, r12d	# _573, width
.LVL157:
# src/opt7_5.cpp:32:     const int h = static_cast<int>(height);
	.loc 1 32 15 view .LVU690
	mov	r14d, eax	# _554, height
.LVL158:
	.loc 1 42 5 is_stmt 1 view .LVU691
.LBB2727:
.LBB2263:
	.loc 2 988 7 view .LVU692
.LBB2126:
	.loc 3 1058 7 view .LVU693
	.loc 3 1058 7 is_stmt 0 view .LVU694
.LBE2126:
.LBE2263:
.LBB2264:
	.loc 2 1008 7 is_stmt 1 view .LVU695
.LBB2129:
	.loc 3 1058 7 view .LVU696
	.loc 3 1058 7 is_stmt 0 view .LVU697
.LBE2129:
.LBE2264:
	.loc 1 42 34 is_stmt 1 discriminator 5 view .LVU698
.LBE2727:
.LBB2728:
.LBB2097:
.LBB2090:
.LBB2082:
.LBB2076:
# /usr/include/c++/16/bits/stl_vector.h:106: 	: _M_start(), _M_finish(), _M_end_of_storage()
	.loc 2 106 29 is_stmt 0 view .LVU699
	mov	QWORD PTR 32[rsp], 0	# %sfp,
.LBE2076:
.LBE2082:
.LBE2090:
.LBE2097:
.LBE2728:
.LBB2729:
# src/opt7_5.cpp:42:     for (SubApertureImage& sub : subapertures) {
	.loc 1 42 34 discriminator 6 view .LVU700
	cmp	r15, rsi	# SR.262, _555
	jne	.L5	#,
.LBE2729:
.LBB2730:
.LBB2098:
.LBB2091:
.LBB2083:
.LBB2077:
# /usr/include/c++/16/bits/stl_vector.h:106: 	: _M_start(), _M_finish(), _M_end_of_storage()
	.loc 2 106 4 view .LVU701
	mov	QWORD PTR 16[rsp], 0	# %sfp,
.LVL159:
.L94:
	.loc 2 106 4 view .LVU702
.LBE2077:
.LBE2083:
.LBE2091:
.LBE2098:
.LBE2730:
.LBB2731:
.LBB2343:
.LBB2323:
.LBB2321:
# /usr/include/c++/16/bits/stl_vector.h:409: 	this->_M_impl._M_end_of_storage = this->_M_impl._M_start + __n;
	.loc 2 409 59 view .LVU703
	mov	QWORD PTR 80[rsp], 0	# %sfp,
.LBB2319:
.LBB2317:
# /usr/include/c++/16/bits/stl_vector.h:389: 	return __n != 0 ? _Tr::allocate(_M_impl, __n) : pointer();
	.loc 2 389 58 discriminator 3 view .LVU704
	xor	r15d, r15d	# _308
	jmp	.L18	#
.LVL160:
.L2:
	.loc 2 389 58 discriminator 3 view .LVU705
.LBE2317:
.LBE2319:
.LBE2321:
.LBE2323:
.LBE2343:
.LBE2731:
.LBB2732:
.LBB2062:
.LBB2058:
.LBB2054:
.LBB1975:
.LBB1976:
.LBI1976:
	.loc 2 589 7 is_stmt 1 view .LVU706
.LBB1977:
.LBI1977:
	.loc 2 2203 7 view .LVU707
.LBB1978:
.LBB1979:
.LBI1979:
	.loc 5 172 7 view .LVU708
.LBB1980:
.LBI1980:
	.loc 6 92 7 view .LVU709
	.loc 6 92 7 is_stmt 0 view .LVU710
.LBE1980:
.LBE1979:
.LBB1981:
.LBI1981:
	.loc 5 189 7 is_stmt 1 view .LVU711
.LBB1982:
.LBI1982:
	.loc 6 104 7 view .LVU712
.LBE1982:
.LBE1981:
# /usr/include/c++/16/bits/stl_vector.h:2205: 	if (__n > _S_max_size(_Tp_alloc_type(__a)))
	.loc 2 2205 2 is_stmt 0 discriminator 3 view .LVU713
	cmp	QWORD PTR 72[rsp], 0	# %sfp,
	js	.L174	#,
.LBE1978:
.LBE1977:
.LBB1984:
.LBB1985:
.LBB1986:
.LBB1987:
.LBB1988:
.LBB1989:
.LBB1990:
.LBB1991:
# /usr/include/c++/16/bits/new_allocator.h:162: 	  return static_cast<_Tp*>(_GLIBCXX_OPERATOR_NEW(__n * sizeof(_Tp)));
	.loc 6 162 68 view .LVU714
	mov	rdi, rsi	#, _5
	mov	r14, rsi	# _5, _5
	vmovss	DWORD PTR 8[rsp], xmm0	# %sfp, focus
.LVL161:
	.loc 6 162 68 view .LVU715
.LBE1991:
.LBE1990:
.LBE1989:
.LBE1988:
.LBE1987:
.LBE1986:
.LBE1985:
.LBI1984:
	.loc 2 339 7 is_stmt 1 view .LVU716
.LBB2000:
.LBI2000:
	.loc 2 152 2 view .LVU717
.LBB2001:
.LBI2001:
	.loc 5 172 7 view .LVU718
.LBB2002:
.LBI2002:
	.loc 6 92 7 view .LVU719
	.loc 6 92 7 is_stmt 0 view .LVU720
.LBE2002:
.LBE2001:
.LBB2003:
.LBI2003:
	.loc 2 105 2 is_stmt 1 view .LVU721
	.loc 2 105 2 is_stmt 0 view .LVU722
.LBE2003:
.LBE2000:
.LBB2004:
.LBI1985:
	.loc 2 405 7 is_stmt 1 view .LVU723
.LBB1997:
.LBB1996:
.LBI1987:
	.loc 2 386 7 view .LVU724
.LBB1995:
.LBB1994:
.LBI1989:
	.loc 8 637 7 view .LVU725
.LBB1993:
.LBI1990:
	.loc 6 129 7 view .LVU726
.LEHB4:
.LBB1992:
# /usr/include/c++/16/bits/new_allocator.h:162: 	  return static_cast<_Tp*>(_GLIBCXX_OPERATOR_NEW(__n * sizeof(_Tp)));
	.loc 6 162 68 is_stmt 0 view .LVU727
	call	"_Znwm"@PLT	#
.LVL162:
.LEHE4:
	.loc 6 162 68 view .LVU728
.LBE1992:
.LBE1993:
.LBE1994:
.LBE1995:
.LBE1996:
.LBE1997:
.LBE2004:
.LBE1984:
.LBB2007:
.LBB2008:
.LBB2009:
.LBB2010:
.LBB2011:
.LBB2012:
# /usr/include/c++/16/bits/stl_uninitialized.h:577: 		      __builtin_memset(__dest, (unsigned char)__x, __n);
	.loc 12 577 25 view .LVU729
	xor	esi, esi	#
.LBE2012:
.LBE2011:
.LBE2010:
.LBE2009:
.LBE2008:
.LBE2007:
.LBB2023:
.LBB2005:
.LBB1998:
# /usr/include/c++/16/bits/stl_vector.h:409: 	this->_M_impl._M_end_of_storage = this->_M_impl._M_start + __n;
	.loc 2 409 59 view .LVU730
	mov	rdx, r14	# _5, _5
.LBE1998:
.LBE2005:
.LBE2023:
.LBB2024:
.LBB2021:
.LBB2019:
.LBB2017:
.LBB2015:
.LBB2013:
# /usr/include/c++/16/bits/stl_uninitialized.h:577: 		      __builtin_memset(__dest, (unsigned char)__x, __n);
	.loc 12 577 25 view .LVU731
	mov	rdi, rax	#,
.LBE2013:
.LBE2015:
.LBE2017:
.LBE2019:
.LBE2021:
.LBE2024:
.LBB2025:
.LBB2006:
.LBB1999:
# /usr/include/c++/16/bits/stl_vector.h:409: 	this->_M_impl._M_end_of_storage = this->_M_impl._M_start + __n;
	.loc 2 409 59 view .LVU732
	lea	r13, [rax+r14]	# _604,
.LVL163:
	.loc 2 409 59 view .LVU733
.LBE1999:
.LBE2006:
.LBE2025:
.LBB2026:
.LBI2007:
	.loc 2 1987 7 is_stmt 1 view .LVU734
.LBB2022:
.LBI2008:
	.loc 12 771 5 view .LVU735
.LBB2020:
.LBI2009:
	.loc 12 550 5 view .LVU736
.LBB2018:
.LBB2016:
.LBB2014:
# /usr/include/c++/16/bits/stl_uninitialized.h:577: 		      __builtin_memset(__dest, (unsigned char)__x, __n);
	.loc 12 577 25 is_stmt 0 view .LVU737
	call	"memset"@PLT	#
.LVL164:
	.loc 12 577 25 view .LVU738
.LBE2014:
.LBE2016:
.LBE2018:
.LBE2020:
.LBE2022:
.LBE2026:
.LBE1976:
.LBB2028:
.LBI2028:
	.loc 2 128 2 is_stmt 1 view .LVU739
.LBB2029:
.LBB2030:
.LBI2030:
	.loc 2 105 2 view .LVU740
	.loc 2 105 2 is_stmt 0 view .LVU741
.LBE2030:
.LBB2031:
.LBI2031:
	.loc 2 119 2 is_stmt 1 view .LVU742
.LBB2032:
# /usr/include/c++/16/bits/stl_vector.h:122: 	  _M_finish = __x._M_finish;
	.loc 2 122 14 is_stmt 0 view .LVU743
	mov	QWORD PTR 24[rbx], r13	# MEM[(struct _Vector_impl_data *)output_214(D) + 16B]._M_finish, _604
.LBE2032:
.LBE2031:
.LBE2029:
.LBE2028:
.LBE1975:
.LBE2054:
.LBE2058:
.LBE2062:
.LBE2732:
.LBB2733:
.LBB2119:
# /usr/include/c++/16/bits/vector.tcc:75:       if (this->capacity() < __n)
	.loc 7 75 7 discriminator 1 view .LVU744
	vmovss	xmm4, DWORD PTR 8[rsp]	# focus, %sfp
.LBE2119:
.LBE2733:
.LBB2734:
.LBB2063:
.LBB2059:
.LBB2055:
.LBB2051:
.LBB2039:
.LBB2037:
.LBB2035:
.LBB2033:
# /usr/include/c++/16/bits/stl_vector.h:121: 	  _M_start = __x._M_start;
	.loc 2 121 13 view .LVU745
	mov	QWORD PTR 16[rbx], rax	# MEM[(struct _Vector_impl_data *)output_214(D) + 16B]._M_start,
.LBE2033:
.LBE2035:
.LBE2037:
.LBE2039:
.LBE2051:
.LBE2055:
.LBE2059:
.LBE2063:
.LBE2734:
.LBB2735:
.LBB2104:
# /usr/include/c++/16/bits/stl_vector.h:1109: 	ptrdiff_t __dif = this->_M_impl._M_finish - this->_M_impl._M_start;
	.loc 2 1109 34 view .LVU746
	mov	rax, QWORD PTR 8[rbp]	# _555, MEM[(const struct vector *)subapertures_209(D)].D.101674._M_impl.D.101021._M_finish
.LVL165:
	.loc 2 1109 34 view .LVU747
.LBE2104:
.LBE2735:
.LBB2736:
.LBB2064:
.LBB2060:
.LBB2056:
.LBB2052:
.LBB2040:
.LBB2038:
.LBB2036:
.LBB2034:
# /usr/include/c++/16/bits/stl_vector.h:123: 	  _M_end_of_storage = __x._M_end_of_storage;
	.loc 2 123 22 view .LVU748
	mov	QWORD PTR 32[rbx], r13	# MEM[(struct _Vector_impl_data *)output_214(D) + 16B]._M_end_of_storage, _604
.LVL166:
	.loc 2 123 22 view .LVU749
.LBE2034:
.LBE2036:
.LBE2038:
.LBE2040:
.LBB2041:
.LBI2041:
	.loc 2 790 7 is_stmt 1 view .LVU750
.LBB2042:
.LBI2042:
	.loc 2 307 7 view .LVU751
	.loc 2 307 7 is_stmt 0 view .LVU752
.LBE2042:
.LBB2043:
.LBI2043:
	.loc 8 1082 5 is_stmt 1 view .LVU753
	.loc 8 1082 5 is_stmt 0 view .LVU754
.LBE2043:
.LBB2044:
.LBI2044:
	.loc 2 373 7 is_stmt 1 view .LVU755
.LBB2045:
.LBB2046:
.LBI2046:
	.loc 2 394 7 view .LVU756
	.loc 2 394 7 is_stmt 0 view .LVU757
.LBE2046:
.LBE2045:
.LBB2047:
.LBI2047:
	.loc 2 139 14 is_stmt 1 view .LVU758
.LBB2048:
.LBI2048:
	.loc 5 189 7 view .LVU759
.LBB2049:
.LBI2049:
	.loc 6 104 7 view .LVU760
	.loc 6 104 7 is_stmt 0 view .LVU761
.LBE2049:
.LBE2048:
.LBE2047:
.LBE2044:
.LBE2041:
.LBE2052:
.LBE2056:
.LBE2060:
.LBE2064:
.LBE2736:
	.loc 1 39 5 is_stmt 1 view .LVU762
.LBB2737:
	.loc 2 551 7 view .LVU763
.LBB2099:
	.loc 2 321 7 view .LVU764
.LBB2092:
	.loc 2 143 2 view .LVU765
.LBB2084:
	.loc 5 168 7 view .LVU766
.LBB2071:
	.loc 6 88 7 view .LVU767
	.loc 6 88 7 is_stmt 0 view .LVU768
.LBE2071:
.LBE2084:
.LBB2085:
	.loc 2 105 2 is_stmt 1 view .LVU769
	.loc 2 105 2 is_stmt 0 view .LVU770
.LBE2085:
.LBE2092:
.LBE2099:
.LBE2737:
	.loc 1 40 5 is_stmt 1 view .LVU771
.LBB2738:
	.loc 2 1107 7 view .LVU772
	.loc 2 1107 7 is_stmt 0 view .LVU773
.LBE2738:
.LBB2739:
	.loc 7 70 5 is_stmt 1 view .LVU774
	.loc 7 70 5 is_stmt 0 view .LVU775
.LBE2739:
.LBB2740:
.LBB2105:
# /usr/include/c++/16/bits/stl_vector.h:1109: 	ptrdiff_t __dif = this->_M_impl._M_finish - this->_M_impl._M_start;
	.loc 2 1109 34 view .LVU776
	mov	QWORD PTR 24[rsp], rax	# %sfp, _555
.LBE2105:
.LBE2740:
.LBB2741:
.LBB2120:
# /usr/include/c++/16/bits/vector.tcc:75:       if (this->capacity() < __n)
	.loc 7 75 7 discriminator 1 view .LVU777
	sub	rax, r15	# _59, SR.262
.LVL167:
	.loc 7 75 7 discriminator 1 view .LVU778
	mov	QWORD PTR 64[rsp], rax	# %sfp, _59
	jne	.L4	#,
	.loc 7 75 7 discriminator 1 view .LVU779
.LBE2120:
.LBE2741:
.LBB2742:
.LBB2100:
.LBB2093:
.LBB2086:
.LBB2078:
# /usr/include/c++/16/bits/stl_vector.h:106: 	: _M_start(), _M_finish(), _M_end_of_storage()
	.loc 2 106 29 view .LVU780
	mov	QWORD PTR 32[rsp], 0	# %sfp,
# /usr/include/c++/16/bits/stl_vector.h:106: 	: _M_start(), _M_finish(), _M_end_of_storage()
	.loc 2 106 4 view .LVU781
	mov	QWORD PTR 8[rsp], 0	# %sfp,
.LVL168:
	.loc 2 106 4 view .LVU782
	jmp	.L8	#
.LVL169:
.L195:
	.loc 2 106 4 view .LVU783
.LBE2078:
.LBE2086:
.LBE2093:
.LBE2100:
.LBE2742:
.LBB2743:
	.loc 5 189 7 is_stmt 1 view .LVU784
.LBB2486:
	.loc 6 104 7 view .LVU785
	.loc 6 104 7 is_stmt 0 view .LVU786
.LBE2486:
.LBE2743:
	.loc 1 72 5 is_stmt 1 view .LVU787
.LBB2744:
.LBB2508:
	.loc 2 988 7 view .LVU788
.LBB2491:
	.loc 3 1058 7 view .LVU789
	.loc 3 1058 7 is_stmt 0 view .LVU790
.LBE2491:
.LBE2508:
.LBB2509:
	.loc 2 1008 7 is_stmt 1 view .LVU791
.LBB2495:
	.loc 3 1058 7 view .LVU792
	.loc 3 1058 7 is_stmt 0 view .LVU793
.LBE2495:
.LBE2509:
	.loc 1 72 31 is_stmt 1 discriminator 5 view .LVU794
# src/opt7_5.cpp:72:     for (const SubParams& p : params) {
	.loc 1 72 31 is_stmt 0 discriminator 6 view .LVU795
	mov	rsi, QWORD PTR 16[rsp]	# params$_M_start, %sfp
.LBE2744:
.LBB2745:
.LBB2482:
.LBB2439:
.LBB2437:
.LBB2435:
.LBB2433:
# /usr/include/c++/16/bits/stl_vector.h:389: 	return __n != 0 ? _Tr::allocate(_M_impl, __n) : pointer();
	.loc 2 389 58 discriminator 3 view .LVU796
	mov	QWORD PTR 24[rsp], 0	# %sfp,
.LBE2433:
.LBE2435:
.LBE2437:
.LBE2439:
.LBE2482:
.LBE2745:
.LBB2746:
# src/opt7_5.cpp:72:     for (const SubParams& p : params) {
	.loc 1 72 31 discriminator 6 view .LVU797
	cmp	QWORD PTR 8[rsp], rsi	# %sfp, params$_M_start
	jne	.L26	#,
.LVL170:
	.loc 1 72 31 discriminator 6 view .LVU798
.LBE2746:
.LBB2747:
	.loc 1 79 23 is_stmt 1 discriminator 2 view .LVU799
	test	r14d, r14d	# _554
	jg	.L27	#,
.LVL171:
	.loc 1 79 23 is_stmt 0 discriminator 2 view .LVU800
.LBE2747:
.LBB2748:
	.loc 1 130 26 is_stmt 1 discriminator 2 view .LVU801
	cmp	QWORD PTR 40[rsp], 0	# %sfp,
	jne	.L28	#,
	jmp	.L29	#
.LVL172:
	.p2align 4,,10
	.p2align 3
.L95:
	.loc 1 130 26 is_stmt 0 discriminator 2 view .LVU802
.LBE2748:
.LBB2749:
.LBB2401:
.LBB2381:
.LBB2379:
.LBB2377:
.LBB2375:
# /usr/include/c++/16/bits/stl_vector.h:389: 	return __n != 0 ? _Tr::allocate(_M_impl, __n) : pointer();
	.loc 2 389 58 discriminator 3 view .LVU803
	xor	ebp, ebp	# _416
	jmp	.L23	#
.LVL173:
.L13:
	.loc 2 389 58 discriminator 3 view .LVU804
.LBE2375:
.LBE2377:
.LBE2379:
.LBE2381:
.LBE2401:
.LBE2749:
.LBB2750:
.LBB2265:
.LBB2258:
.LBB2253:
.LBB2155:
.LBI2155:
	.loc 7 565 7 is_stmt 1 view .LVU805
.LBB2156:
.LBB2157:
.LBI2157:
	.loc 2 2192 7 view .LVU806
.LBB2158:
.LBB2159:
.LBI2159:
	.loc 2 1107 7 view .LVU807
.LBB2160:
# /usr/include/c++/16/bits/stl_vector.h:1109: 	ptrdiff_t __dif = this->_M_impl._M_finish - this->_M_impl._M_start;
	.loc 2 1109 44 is_stmt 0 view .LVU808
	mov	rax, QWORD PTR 32[rsp]	# _526, %sfp
	sub	rax, QWORD PTR 16[rsp]	# _526, %sfp
	mov	QWORD PTR 8[rsp], rax	# %sfp, _526
.LVL174:
# /usr/include/c++/16/bits/stl_vector.h:1109: 	ptrdiff_t __dif = this->_M_impl._M_finish - this->_M_impl._M_start;
	.loc 2 1109 12 view .LVU809
	sar	rax, 4	# tmp410,
.LVL175:
	.loc 2 1109 12 view .LVU810
	mov	rdx, rax	# tmp410, tmp410
	movabs	rax, -6148914691236517205	# tmp412,
	imul	rdx, rax	# __dif_527, tmp412
.LVL176:
	.loc 2 1109 12 view .LVU811
.LBE2160:
.LBE2159:
# /usr/include/c++/16/bits/stl_vector.h:2194: 	if (max_size() - size() < __n)
	.loc 2 2194 2 discriminator 2 view .LVU812
	movabs	rax, 192153584101141162	# tmp413,
	cmp	rdx, rax	# __dif_527, tmp413
	je	.L175	#,
.LBB2161:
.LBB2162:
# /usr/include/c++/16/bits/stl_algobase.h:261:       if (__a < __b)
	.loc 10 261 7 view .LVU813
	test	rdx, rdx	# __dif_527
	mov	eax, 1	# tmp743,
	mov	DWORD PTR 136[rsp], ecx	# %sfp, _573
	cmovne	rax, rdx	# __dif_527,, _529
	mov	DWORD PTR 132[rsp], r10d	# %sfp, _20
	mov	DWORD PTR 128[rsp], esi	# %sfp, _16
.LBE2162:
.LBE2161:
# /usr/include/c++/16/bits/stl_vector.h:2197: 	const size_type __len = size() + (std::max)(size(), __n);
	.loc 2 2197 18 discriminator 3 view .LVU814
	add	rax, rdx	# __len_530, __dif_527
# /usr/include/c++/16/bits/stl_vector.h:2198: 	return (__len < size() || __len > max_size()) ? max_size() : __len;
	.loc 2 2198 25 discriminator 3 view .LVU815
	movabs	rdx, 192153584101141162	# tmp744,
	mov	DWORD PTR 104[rsp], r8d	# %sfp, _9
	cmp	rax, rdx	# __len_530, tmp744
	mov	DWORD PTR 96[rsp], r9d	# %sfp, _8
.LVL177:
.LBB2163:
.LBI2161:
	.loc 10 256 5 is_stmt 1 view .LVU816
	.loc 10 256 5 is_stmt 0 view .LVU817
.LBE2163:
.LBE2158:
.LBE2157:
.LBB2166:
.LBI2166:
	.loc 2 386 7 is_stmt 1 view .LVU818
.LBB2167:
.LBB2168:
.LBI2168:
	.loc 8 637 7 view .LVU819
.LBB2169:
.LBI2169:
	.loc 6 129 7 view .LVU820
	.loc 6 129 7 is_stmt 0 view .LVU821
.LBE2169:
.LBE2168:
.LBE2167:
.LBE2166:
.LBB2182:
.LBB2164:
# /usr/include/c++/16/bits/stl_vector.h:2198: 	return (__len < size() || __len > max_size()) ? max_size() : __len;
	.loc 2 2198 25 discriminator 3 view .LVU822
	cmova	rax, rdx	# __len_530,, __len_530, tmp744
	vmovss	DWORD PTR 140[rsp], xmm4	# %sfp, focus
	vmovss	DWORD PTR 124[rsp], xmm5	# %sfp, _15
.LBE2164:
.LBE2182:
.LBB2183:
.LBB2179:
.LBB2176:
.LBB2173:
.LBB2170:
# /usr/include/c++/16/bits/new_allocator.h:162: 	  return static_cast<_Tp*>(_GLIBCXX_OPERATOR_NEW(__n * sizeof(_Tp)));
	.loc 6 162 68 view .LVU823
	lea	rax, [rax+rax*2]	# _547,
	vmovss	DWORD PTR 120[rsp], xmm0	# %sfp, _14
	sal	rax, 4	# _547,
	vmovss	DWORD PTR 116[rsp], xmm1	# %sfp, _13
	mov	rdi, rax	#, tmp420
	mov	QWORD PTR 80[rsp], rax	# %sfp, tmp420
	vmovss	DWORD PTR 112[rsp], xmm2	# %sfp, _12
.LEHB5:
	call	"_Znwm"@PLT	#
.LVL178:
.LEHE5:
	.loc 6 162 68 view .LVU824
.LBE2170:
.LBE2173:
.LBE2176:
.LBE2179:
.LBE2183:
.LBB2184:
# /usr/include/c++/16/bits/vector.tcc:594: 	_Alloc_traits::construct(this->_M_impl,
	.loc 7 594 26 view .LVU825
	mov	rdx, QWORD PTR 8[rsp]	# _526, %sfp
.LBB2185:
.LBB2186:
.LBB2187:
# /usr/include/c++/16/bits/new_allocator.h:203: 	{ ::new((void *)__p) _Up(std::forward<_Args>(__args)...); }
	.loc 6 203 4 discriminator 1 view .LVU826
	mov	esi, DWORD PTR 128[rsp]	# _16, %sfp
.LBE2187:
.LBE2186:
.LBE2185:
.LBE2184:
.LBB2245:
.LBB2180:
.LBB2177:
.LBB2174:
.LBB2171:
# /usr/include/c++/16/bits/new_allocator.h:162: 	  return static_cast<_Tp*>(_GLIBCXX_OPERATOR_NEW(__n * sizeof(_Tp)));
	.loc 6 162 68 view .LVU827
	mov	QWORD PTR 64[rsp], rax	# %sfp, _548
.LVL179:
	.loc 6 162 68 view .LVU828
.LBE2171:
.LBE2174:
.LBE2177:
.LBE2180:
.LBE2245:
.LBB2246:
.LBB2199:
.LBI2199:
	.loc 2 1865 2 is_stmt 1 view .LVU829
	.loc 2 1865 2 is_stmt 0 view .LVU830
.LBE2199:
.LBB2200:
.LBI2185:
	.loc 8 705 2 is_stmt 1 view .LVU831
.LBB2193:
.LBI2186:
	.loc 6 201 2 view .LVU832
.LBE2193:
.LBE2200:
.LBE2246:
.LBB2247:
.LBB2181:
.LBB2178:
.LBB2175:
.LBB2172:
# /usr/include/c++/16/bits/new_allocator.h:162: 	  return static_cast<_Tp*>(_GLIBCXX_OPERATOR_NEW(__n * sizeof(_Tp)));
	.loc 6 162 68 is_stmt 0 view .LVU833
	mov	rdi, rax	# _548,
.LBE2172:
.LBE2175:
.LBE2178:
.LBE2181:
.LBE2247:
.LBB2248:
.LBB2201:
.LBB2194:
.LBB2188:
# /usr/include/c++/16/bits/new_allocator.h:203: 	{ ::new((void *)__p) _Up(std::forward<_Args>(__args)...); }
	.loc 6 203 4 discriminator 1 view .LVU834
	mov	r9d, DWORD PTR 96[rsp]	# _8, %sfp
	mov	r8d, DWORD PTR 104[rsp]	# _9, %sfp
.LBE2188:
.LBE2194:
.LBE2201:
.LBB2202:
.LBB2203:
.LBB2204:
# /usr/include/c++/16/bits/stl_uninitialized.h:1382:       if (__count > 0)
	.loc 12 1382 7 view .LVU835
	mov	r11d, 0	# tmp686,
.LBE2204:
.LBE2203:
.LBE2202:
.LBB2212:
.LBB2195:
.LBB2189:
# /usr/include/c++/16/bits/new_allocator.h:203: 	{ ::new((void *)__p) _Up(std::forward<_Args>(__args)...); }
	.loc 6 203 4 discriminator 1 view .LVU836
	vmovss	xmm2, DWORD PTR 112[rsp]	# _12, %sfp
	vmovss	xmm1, DWORD PTR 116[rsp]	# _13, %sfp
	mov	DWORD PTR 24[rax+rdx], esi	# _535->x_begin, _16
.LBE2189:
.LBE2195:
.LBE2212:
.LBB2213:
.LBB2208:
.LBB2205:
# /usr/include/c++/16/bits/stl_uninitialized.h:1382:       if (__count > 0)
	.loc 12 1382 7 view .LVU837
	test	rdx, rdx	# _526
.LBE2205:
.LBE2208:
.LBE2213:
.LBB2214:
.LBB2196:
.LBB2190:
# /usr/include/c++/16/bits/new_allocator.h:203: 	{ ::new((void *)__p) _Up(std::forward<_Args>(__args)...); }
	.loc 6 203 4 discriminator 1 view .LVU838
	vmovss	xmm0, DWORD PTR 120[rsp]	# _14, %sfp
	vmovss	xmm5, DWORD PTR 124[rsp]	# _15, %sfp
	mov	DWORD PTR [rax+rdx], r9d	# _535->sx, _8
	mov	r10d, DWORD PTR 132[rsp]	# _20, %sfp
	mov	rsi, QWORD PTR 56[rsp]	# _231, %sfp
	mov	DWORD PTR 4[rax+rdx], r8d	# _535->sy, _9
.LBE2190:
.LBE2196:
.LBE2214:
.LBB2215:
.LBB2209:
.LBB2206:
# /usr/include/c++/16/bits/stl_uninitialized.h:1382:       if (__count > 0)
	.loc 12 1382 7 view .LVU839
	mov	ecx, DWORD PTR 136[rsp]	# _573, %sfp
	vmovss	xmm4, DWORD PTR 140[rsp]	# focus, %sfp
.LBE2206:
.LBE2209:
.LBE2215:
.LBB2216:
.LBB2197:
.LBB2191:
# /usr/include/c++/16/bits/new_allocator.h:203: 	{ ::new((void *)__p) _Up(std::forward<_Args>(__args)...); }
	.loc 6 203 4 discriminator 1 view .LVU840
	mov	DWORD PTR 28[rax+rdx], ebp	# _535->x_end, _251
	mov	DWORD PTR 32[rax+rdx], r10d	# _535->y_begin, _20
	mov	DWORD PTR 36[rax+rdx], r13d	# _535->y_end, _252
	mov	QWORD PTR 40[rax+rdx], rsi	# MEM <const unsigned char *> [(struct SubParams *)_535 + 40B], _231
.LVL180:
	.loc 6 203 4 discriminator 1 view .LVU841
.LBE2191:
.LBE2197:
.LBE2216:
.LBB2217:
.LBI2202:
	.loc 12 1404 5 is_stmt 1 view .LVU842
.LBB2210:
.LBI2203:
	.loc 12 1377 5 view .LVU843
	.loc 12 1377 5 is_stmt 0 view .LVU844
.LBE2210:
.LBE2217:
.LBB2218:
.LBB2198:
.LBB2192:
# /usr/include/c++/16/bits/new_allocator.h:203: 	{ ::new((void *)__p) _Up(std::forward<_Args>(__args)...); }
	.loc 6 203 4 discriminator 1 view .LVU845
	vmovss	DWORD PTR 8[rax+rdx], xmm2	# _535->A, _12
	vmovss	DWORD PTR 12[rax+rdx], xmm1	# _535->B, _13
	vmovss	DWORD PTR 16[rax+rdx], xmm0	# _535->C, _14
	vmovss	DWORD PTR 20[rax+rdx], xmm5	# _535->D, _15
.LBE2192:
.LBE2198:
.LBE2218:
.LBB2219:
.LBB2211:
.LBB2207:
# /usr/include/c++/16/bits/stl_uninitialized.h:1382:       if (__count > 0)
	.loc 12 1382 7 view .LVU846
	je	.L15	#,
# /usr/include/c++/16/bits/stl_uninitialized.h:1394: 	  __builtin_memcpy(__result, __first, __count * sizeof(_Tp));
	.loc 12 1394 20 view .LVU847
	mov	rsi, QWORD PTR 16[rsp]	#, %sfp
	mov	DWORD PTR 56[rsp], ecx	# %sfp, _573
	vmovss	DWORD PTR 96[rsp], xmm4	# %sfp, focus
.LVL181:
	.loc 12 1394 20 view .LVU848
	call	"memcpy"@PLT	#
.LVL182:
	.loc 12 1394 20 view .LVU849
	vmovss	xmm4, DWORD PTR 96[rsp]	# focus, %sfp
	mov	ecx, DWORD PTR 56[rsp]	# _573, %sfp
	xor	r11d, r11d	# tmp686
.L15:
.LVL183:
	.loc 12 1394 20 view .LVU850
.LBE2207:
.LBE2211:
.LBE2219:
# /usr/include/c++/16/bits/vector.tcc:610: 	    ++__new_finish;
	.loc 7 610 6 view .LVU851
	mov	rsi, QWORD PTR 8[rsp]	# _526, %sfp
	mov	rax, QWORD PTR 64[rsp]	# _548, %sfp
	lea	rax, 48[rax+rsi]	# __new_finish,
.LVL184:
	.loc 7 610 6 view .LVU852
	mov	QWORD PTR 8[rsp], rax	# %sfp, __new_finish
.LVL185:
.LBB2220:
.LBI2220:
	.loc 2 1870 2 is_stmt 1 view .LVU853
.LBB2221:
# /usr/include/c++/16/bits/stl_vector.h:1872: 	  if (_M_storage)
	.loc 2 1872 4 is_stmt 0 view .LVU854
	mov	rax, QWORD PTR 16[rsp]	# params$_M_start, %sfp
.LVL186:
	.loc 2 1872 4 view .LVU855
	test	rax, rax	# params$_M_start
	je	.L16	#,
.LBE2221:
.LBE2220:
# /usr/include/c++/16/bits/vector.tcc:648: 	__guard._M_len = this->_M_impl._M_end_of_storage - __old_start;
	.loc 7 648 51 view .LVU856
	mov	rsi, QWORD PTR 32[rsp]	# params$_M_end_of_storage, %sfp
.LBB2243:
.LBB2241:
.LBB2222:
.LBB2223:
.LBB2224:
.LBB2225:
.LBB2226:
.LBB2227:
.LBB2228:
# /usr/include/c++/16/bits/new_allocator.h:183: 	_GLIBCXX_OPERATOR_DELETE(_GLIBCXX_SIZED_DEALLOC(__p, __n));
	.loc 6 183 59 view .LVU857
	mov	rdi, rax	#, params$_M_start
	mov	DWORD PTR 16[rsp], ecx	# %sfp, _573
.LVL187:
	.loc 6 183 59 view .LVU858
.LBE2228:
.LBE2227:
.LBE2226:
.LBE2225:
.LBE2224:
.LBE2223:
.LBI2222:
	.loc 2 394 7 is_stmt 1 view .LVU859
.LBB2238:
.LBB2236:
.LBI2224:
	.loc 2 394 7 view .LVU860
.LBB2234:
.LBB2232:
.LBI2226:
	.loc 8 688 7 view .LVU861
.LBB2230:
.LBI2227:
	.loc 6 167 7 view .LVU862
	vmovss	DWORD PTR 56[rsp], xmm4	# %sfp, focus
.LBE2230:
.LBE2232:
.LBE2234:
.LBE2236:
.LBE2238:
.LBE2222:
.LBE2241:
.LBE2243:
# /usr/include/c++/16/bits/vector.tcc:648: 	__guard._M_len = this->_M_impl._M_end_of_storage - __old_start;
	.loc 7 648 51 is_stmt 0 view .LVU863
	sub	rsi, rax	# params$_M_end_of_storage, params$_M_start
.LBB2244:
.LBB2242:
.LBB2240:
.LBB2239:
.LBB2237:
.LBB2235:
.LBB2233:
.LBB2231:
.LBB2229:
# /usr/include/c++/16/bits/new_allocator.h:183: 	_GLIBCXX_OPERATOR_DELETE(_GLIBCXX_SIZED_DEALLOC(__p, __n));
	.loc 6 183 59 view .LVU864
	call	"_ZdlPvm"@PLT	#
.LVL188:
	.loc 6 183 59 view .LVU865
	vmovss	xmm4, DWORD PTR 56[rsp]	# focus, %sfp
	mov	ecx, DWORD PTR 16[rsp]	# _573, %sfp
.LVL189:
	.loc 6 183 59 view .LVU866
	xor	r11d, r11d	# tmp686
.LVL190:
.L16:
	.loc 6 183 59 view .LVU867
.LBE2229:
.LBE2231:
.LBE2233:
.LBE2235:
.LBE2237:
.LBE2239:
.LBE2240:
.LBE2242:
.LBE2244:
.LBE2248:
# /usr/include/c++/16/bits/vector.tcc:655:       this->_M_impl._M_end_of_storage = __new_start + __len;
	.loc 7 655 53 view .LVU868
	mov	rsi, QWORD PTR 64[rsp]	# _548, %sfp
	mov	rax, QWORD PTR 80[rsp]	# tmp420, %sfp
	add	rax, rsi	# tmp420, _548
.LVL191:
# /usr/include/c++/16/bits/vector.tcc:653:       this->_M_impl._M_start = __new_start;
	.loc 7 653 30 view .LVU869
	mov	QWORD PTR 16[rsp], rsi	# %sfp, _548
# /usr/include/c++/16/bits/vector.tcc:655:       this->_M_impl._M_end_of_storage = __new_start + __len;
	.loc 7 655 53 view .LVU870
	mov	QWORD PTR 32[rsp], rax	# %sfp, tmp420
.LVL192:
	.loc 7 655 53 view .LVU871
	jmp	.L12	#
.LVL193:
.L37:
	.loc 7 655 53 view .LVU872
.LBE2156:
.LBE2155:
.LBE2253:
.LBE2258:
.LBE2265:
.LBE2750:
.LBB2751:
	.loc 1 88 31 is_stmt 1 discriminator 5 view .LVU873
# src/opt7_5.cpp:88:     for (const SubParams& p : params) {
	.loc 1 88 31 is_stmt 0 discriminator 6 view .LVU874
	mov	rcx, QWORD PTR 16[rsp]	# params$_M_start, %sfp
	cmp	QWORD PTR 8[rsp], rcx	# %sfp, params$_M_start
	jne	.L39	#,
	jmp	.L49	#
.LVL194:
.L196:
	.loc 1 88 31 discriminator 6 view .LVU875
.LBE2751:
.LBB2752:
	.loc 5 189 7 is_stmt 1 view .LVU876
.LBB2487:
	.loc 6 104 7 view .LVU877
	.loc 6 104 7 is_stmt 0 view .LVU878
.LBE2487:
.LBE2752:
	.loc 1 72 5 is_stmt 1 view .LVU879
.LBB2753:
.LBB2510:
	.loc 2 988 7 view .LVU880
.LBB2492:
	.loc 3 1058 7 view .LVU881
	.loc 3 1058 7 is_stmt 0 view .LVU882
.LBE2492:
.LBE2510:
.LBB2511:
	.loc 2 1008 7 is_stmt 1 view .LVU883
.LBB2496:
	.loc 3 1058 7 view .LVU884
	.loc 3 1058 7 is_stmt 0 view .LVU885
.LBE2496:
.LBE2511:
	.loc 1 72 31 is_stmt 1 discriminator 5 view .LVU886
# src/opt7_5.cpp:72:     for (const SubParams& p : params) {
	.loc 1 72 31 is_stmt 0 discriminator 6 view .LVU887
	mov	rsi, QWORD PTR 16[rsp]	# params$_M_start, %sfp
	cmp	QWORD PTR 8[rsp], rsi	# %sfp, params$_M_start
	jne	.L26	#,
.LVL195:
.L35:
	.loc 1 72 31 discriminator 6 view .LVU888
.LBE2753:
.LBB2754:
	.loc 1 79 23 is_stmt 1 discriminator 2 view .LVU889
	test	r14d, r14d	# _554
	jle	.L200	#,
.LVL196:
.L27:
	.loc 1 79 23 is_stmt 0 discriminator 2 view .LVU890
	test	ecx, ecx	# _573
	jg	.L38	#,
	jmp	.L28	#
.LVL197:
	.p2align 4,,10
	.p2align 3
.L91:
	.loc 1 79 23 discriminator 2 view .LVU891
.LBE2754:
.LBB2755:
# src/opt7_5.cpp:42:     for (SubApertureImage& sub : subapertures) {
	.loc 1 42 34 discriminator 6 view .LVU892
	mov	rax, QWORD PTR 8[rsp]	# __new_finish, %sfp
	mov	QWORD PTR 16[rsp], rax	# %sfp, __new_finish
	jmp	.L9	#
.LVL198:
.L41:
	.loc 1 42 34 discriminator 6 view .LVU893
.LBE2755:
.LBB2756:
	.loc 1 88 31 is_stmt 1 discriminator 5 view .LVU894
# src/opt7_5.cpp:88:     for (const SubParams& p : params) {
	.loc 1 88 31 is_stmt 0 discriminator 6 view .LVU895
	mov	rcx, QWORD PTR 16[rsp]	# params$_M_start, %sfp
	cmp	QWORD PTR 8[rsp], rcx	# %sfp, params$_M_start
	jne	.L39	#,
.LVL199:
	.loc 1 88 31 discriminator 6 view .LVU896
.LBE2756:
.LBB2757:
	.loc 1 130 26 is_stmt 1 discriminator 2 view .LVU897
	cmp	QWORD PTR 40[rsp], 0	# %sfp,
	jne	.L28	#,
.LBE2757:
	.loc 1 142 5 view .LVU898
.LBB2758:
	.loc 2 790 7 view .LVU899
.LVL200:
.LBB2695:
	.loc 2 307 7 view .LVU900
	.loc 2 307 7 is_stmt 0 view .LVU901
.LBE2695:
.LBB2696:
	.loc 8 1082 5 is_stmt 1 view .LVU902
	.loc 8 1082 5 is_stmt 0 view .LVU903
.LBE2696:
.LBB2697:
	.loc 2 373 7 is_stmt 1 view .LVU904
.LBB2694:
.LBB2690:
	.loc 2 394 7 view .LVU905
.LBB2689:
# /usr/include/c++/16/bits/stl_vector.h:397: 	if (__p)
	.loc 2 397 2 is_stmt 0 view .LVU906
	cmp	QWORD PTR 24[rsp], 0	# %sfp,
	jne	.L34	#,
	jmp	.L47	#
.LVL201:
	.p2align 4,,10
	.p2align 3
.L200:
	.loc 2 397 2 view .LVU907
.LBE2689:
.LBE2690:
.LBE2694:
.LBE2697:
.LBE2758:
.LBB2759:
	.loc 1 130 26 is_stmt 1 discriminator 2 view .LVU908
	cmp	QWORD PTR 40[rsp], 0	# %sfp,
	jne	.L28	#,
	jmp	.L34	#
.LVL202:
.L168:
	.loc 1 130 26 is_stmt 0 discriminator 2 view .LVU909
	jmp	.L169	#
.LVL203:
.L170:
	.loc 1 130 26 discriminator 2 view .LVU910
	jmp	.L171	#
.LVL204:
.L172:
	.loc 1 130 26 discriminator 2 view .LVU911
	jmp	.L173	#
.LVL205:
.L110:
	.loc 1 130 26 discriminator 2 view .LVU912
	mov	rbp, rax	# tmp675, tmp708
	vzeroupper
.LVL206:
	jmp	.L21	#
.LVL207:
.L198:
.LBB2673:
.LBB2666:
.LBB2654:
.LBB2651:
.LBB2648:
.LBB2642:
	.loc 1 130 26 discriminator 2 view .LVU913
	jmp	.L65	#
.LVL208:
.L197:
	.loc 1 130 26 discriminator 2 view .LVU914
.LBE2642:
.LBE2648:
.LBE2651:
.LBE2654:
.LBB2655:
.LBB2619:
.LBB2612:
.LBB2603:
	jmp	.L59	#
.LVL209:
.L166:
	.loc 1 130 26 discriminator 2 view .LVU915
	jmp	.L167	#
.LVL210:
	.loc 1 130 26 discriminator 2 view .LVU916
.LBE2603:
.LBE2612:
.LBE2619:
.LBE2655:
.LBE2666:
.LBE2673:
.LBE2759:
	.section	.gcc_except_table,"a",@progbits
.LLSDA4421:
	.byte	0xff
	.byte	0xff
	.byte	0x1
	.uleb128 .LLSDACSE4421-.LLSDACSB4421
.LLSDACSB4421:
	.uleb128 .LEHB0-.LFB4421
	.uleb128 .LEHE0-.LEHB0
	.uleb128 .L166-.LFB4421
	.uleb128 0
	.uleb128 .LEHB1-.LFB4421
	.uleb128 .LEHE1-.LEHB1
	.uleb128 .L110-.LFB4421
	.uleb128 0
	.uleb128 .LEHB2-.LFB4421
	.uleb128 .LEHE2-.LEHB2
	.uleb128 .L168-.LFB4421
	.uleb128 0
	.uleb128 .LEHB3-.LFB4421
	.uleb128 .LEHE3-.LEHB3
	.uleb128 .L170-.LFB4421
	.uleb128 0
	.uleb128 .LEHB4-.LFB4421
	.uleb128 .LEHE4-.LEHB4
	.uleb128 0
	.uleb128 0
	.uleb128 .LEHB5-.LFB4421
	.uleb128 .LEHE5-.LEHB5
	.uleb128 .L172-.LFB4421
	.uleb128 0
.LLSDACSE4421:
	.text
	.cfi_endproc
	.section	.text.unlikely
	.cfi_startproc
	.cfi_personality 0x9b,"DW.ref.__gxx_personality_v0"
	.cfi_lsda 0x1b,.LLSDAC4421
	.type	"_Z21refocus_shift_and_sumRSt6vectorI16SubApertureImageSaIS0_EEf.cold", @function
"_Z21refocus_shift_and_sumRSt6vectorI16SubApertureImageSaIS0_EEf.cold":
.LFSB4421:
.LBB2760:
.LBB2674:
.LBB2667:
.LBB2656:
.LBB2620:
.LBB2613:
.LBB2604:
.L178:
	.cfi_def_cfa_offset 208
	.cfi_offset 3, -56
	.cfi_offset 6, -48
	.cfi_offset 12, -40
	.cfi_offset 13, -32
	.cfi_offset 14, -24
	.cfi_offset 15, -16
.LBE2604:
.LBE2613:
.LBE2620:
.LBE2656:
.LBE2667:
.LBE2674:
.LBE2760:
.LBB2761:
.LBB2483:
.LBB2414:
# /usr/include/c++/16/bits/stl_vector.h:2206: 	  __throw_length_error(
	.loc 2 2206 24 view -0
	lea	rdi, .LC0[rip]	#,
.LEHB6:
	call	"_ZSt20__throw_length_errorPKc"@PLT	#
.LVL211:
.LEHE6:
.L101:
.L169:
	.loc 2 2206 24 view .LVU918
.LBE2414:
.LBE2483:
.LBE2761:
.LBB2762:
.LBB2763:
.LBB2764:
.LBB2765:
.LBB2766:
# /usr/include/c++/16/bits/stl_vector.h:397: 	if (__p)
	.loc 2 397 2 view .LVU919
	mov	rbp, rax	# tmp673, tmp725
	vzeroupper
.LVL212:
.L81:
	.loc 2 397 2 view .LVU920
.LBE2766:
.LBE2765:
.LBE2764:
.LBE2763:
.LBI2762:
	.loc 2 790 7 is_stmt 1 view .LVU921
.LBB2776:
.LBI2776:
	.loc 2 307 7 view .LVU922
	.loc 2 307 7 is_stmt 0 view .LVU923
.LBE2776:
.LBB2777:
.LBI2777:
	.loc 8 1082 5 is_stmt 1 view .LVU924
	.loc 8 1082 5 is_stmt 0 view .LVU925
.LBE2777:
.LBB2778:
.LBI2763:
	.loc 2 373 7 is_stmt 1 view .LVU926
.LBB2772:
.LBB2771:
.LBI2765:
	.loc 2 394 7 view .LVU927
.LBB2770:
# /usr/include/c++/16/bits/stl_vector.h:397: 	if (__p)
	.loc 2 397 2 is_stmt 0 view .LVU928
	test	r15, r15	# _308
	je	.L21	#,
.LVL213:
.LBB2767:
.LBI2767:
	.loc 8 688 7 is_stmt 1 view .LVU929
.LBB2768:
.LBI2768:
	.loc 6 167 7 view .LVU930
.LBB2769:
# /usr/include/c++/16/bits/new_allocator.h:183: 	_GLIBCXX_OPERATOR_DELETE(_GLIBCXX_SIZED_DEALLOC(__p, __n));
	.loc 6 183 59 is_stmt 0 view .LVU931
	mov	rsi, QWORD PTR 80[rsp]	#, %sfp
	mov	rdi, r15	#, _308
	call	"_ZdlPvm"@PLT	#
.LVL214:
	.loc 6 183 59 view .LVU932
.LBE2769:
.LBE2768:
.LBE2767:
.LBE2770:
.LBE2771:
.LBE2772:
.LBB2773:
.LBI2773:
	.loc 2 139 14 is_stmt 1 view .LVU933
.LBB2774:
.LBI2774:
	.loc 5 189 7 view .LVU934
.LBB2775:
.LBI2775:
	.loc 6 104 7 view .LVU935
.L21:
	.loc 6 104 7 is_stmt 0 view .LVU936
.LBE2775:
.LBE2774:
.LBE2773:
.LBE2778:
.LBE2762:
.LBB2779:
.LBI2779:
	.loc 2 790 7 is_stmt 1 view .LVU937
.LBB2780:
.LBI2780:
	.loc 2 307 7 view .LVU938
	.loc 2 307 7 is_stmt 0 view .LVU939
.LBE2780:
.LBB2781:
.LBI2781:
	.loc 8 1082 5 is_stmt 1 view .LVU940
	.loc 8 1082 5 is_stmt 0 view .LVU941
.LBE2781:
.LBB2782:
.LBI2782:
	.loc 2 373 7 is_stmt 1 view .LVU942
.LBB2783:
.LBB2784:
.LBI2784:
	.loc 2 394 7 view .LVU943
.LBB2785:
# /usr/include/c++/16/bits/stl_vector.h:397: 	if (__p)
	.loc 2 397 2 is_stmt 0 view .LVU944
	cmp	QWORD PTR 16[rsp], 0	# %sfp,
	je	.L85	#,
.LVL215:
.LBB2786:
.LBI2786:
	.loc 2 394 7 is_stmt 1 view .LVU945
.LBB2787:
.LBB2788:
.LBI2788:
	.loc 8 688 7 view .LVU946
.LBB2789:
.LBI2789:
	.loc 6 167 7 view .LVU947
.LBE2789:
.LBE2788:
.LBE2787:
.LBE2786:
.LBE2785:
.LBE2784:
# /usr/include/c++/16/bits/stl_vector.h:375: 	ptrdiff_t __n = _M_impl._M_end_of_storage - _M_impl._M_start;
	.loc 2 375 44 is_stmt 0 view .LVU948
	mov	rsi, QWORD PTR 32[rsp]	# params$_M_end_of_storage, %sfp
	mov	rdi, QWORD PTR 16[rsp]	# params$_M_start, %sfp
	sub	rsi, rdi	# params$_M_end_of_storage, params$_M_start
.LBB2797:
.LBB2795:
.LBB2794:
.LBB2793:
.LBB2792:
.LBB2791:
.LBB2790:
# /usr/include/c++/16/bits/new_allocator.h:183: 	_GLIBCXX_OPERATOR_DELETE(_GLIBCXX_SIZED_DEALLOC(__p, __n));
	.loc 6 183 59 view .LVU949
	call	"_ZdlPvm"@PLT	#
.LVL216:
	.loc 6 183 59 view .LVU950
.LBE2790:
.LBE2791:
.LBE2792:
.LBE2793:
.LBE2794:
.LBE2795:
.LBE2797:
.LBE2783:
.LBB2799:
.LBI2799:
	.loc 2 139 14 is_stmt 1 view .LVU951
.LBB2800:
.LBI2800:
	.loc 5 189 7 view .LVU952
.LBB2801:
.LBI2801:
	.loc 6 104 7 view .LVU953
	.loc 6 104 7 is_stmt 0 view .LVU954
	jmp	.L85	#
.LVL217:
.L102:
.L171:
	.loc 6 104 7 view .LVU955
.LBE2801:
.LBE2800:
.LBE2799:
.LBE2782:
.LBE2779:
.LBB2804:
.LBB2805:
.LBB2806:
.LBB2807:
.LBB2808:
# /usr/include/c++/16/bits/stl_vector.h:397: 	if (__p)
	.loc 2 397 2 view .LVU956
	mov	r12, rax	# tmp671, tmp724
.LVL218:
	.loc 2 397 2 view .LVU957
	vzeroupper
.LVL219:
.L79:
	.loc 2 397 2 view .LVU958
.LBE2808:
.LBE2807:
.LBE2806:
.LBE2805:
.LBI2804:
	.loc 2 790 7 is_stmt 1 view .LVU959
.LBB2818:
.LBI2818:
	.loc 2 307 7 view .LVU960
	.loc 2 307 7 is_stmt 0 view .LVU961
.LBE2818:
.LBB2819:
.LBI2819:
	.loc 8 1082 5 is_stmt 1 view .LVU962
	.loc 8 1082 5 is_stmt 0 view .LVU963
.LBE2819:
.LBB2820:
.LBI2805:
	.loc 2 373 7 is_stmt 1 view .LVU964
.LBB2814:
.LBB2813:
.LBI2807:
	.loc 2 394 7 view .LVU965
.LBB2812:
# /usr/include/c++/16/bits/stl_vector.h:397: 	if (__p)
	.loc 2 397 2 is_stmt 0 view .LVU966
	test	rbp, rbp	# _416
	je	.L80	#,
.LVL220:
.LBB2809:
.LBI2809:
	.loc 8 688 7 is_stmt 1 view .LVU967
.LBB2810:
.LBI2810:
	.loc 6 167 7 view .LVU968
.LBB2811:
# /usr/include/c++/16/bits/new_allocator.h:183: 	_GLIBCXX_OPERATOR_DELETE(_GLIBCXX_SIZED_DEALLOC(__p, __n));
	.loc 6 183 59 is_stmt 0 view .LVU969
	mov	rsi, QWORD PTR 56[rsp]	#, %sfp
	mov	rdi, rbp	#, _416
	call	"_ZdlPvm"@PLT	#
.LVL221:
.L80:
	.loc 6 183 59 view .LVU970
.LBE2811:
.LBE2810:
.LBE2809:
.LBE2812:
.LBE2813:
.LBE2814:
.LBB2815:
.LBI2815:
	.loc 2 139 14 is_stmt 1 view .LVU971
.LBB2816:
.LBI2816:
	.loc 5 189 7 view .LVU972
.LBB2817:
.LBI2817:
	.loc 6 104 7 view .LVU973
	.loc 6 104 7 is_stmt 0 view .LVU974
	mov	rbp, r12	# tmp673, tmp671
	jmp	.L81	#
.LVL222:
.L176:
	.loc 6 104 7 view .LVU975
.LBE2817:
.LBE2816:
.LBE2815:
.LBE2820:
.LBE2804:
.LBB2821:
.LBB2344:
.LBB2298:
# /usr/include/c++/16/bits/stl_vector.h:2206: 	  __throw_length_error(
	.loc 2 2206 24 view .LVU976
	lea	rdi, .LC0[rip]	#,
.LEHB7:
	call	"_ZSt20__throw_length_errorPKc"@PLT	#
.LVL223:
.LEHE7:
.L181:
	.loc 2 2206 24 view .LVU977
.LBE2298:
.LBE2344:
.LBE2821:
.LBB2822:
.LBB2675:
.LBB2668:
.LBB2657:
.LBB2621:
.LBB2614:
.LBB2605:
	.loc 4 21 13 is_stmt 1 view .LVU978
# include/utils.hpp:21:             throw std::out_of_range("Y coordinate out of bounds");
	.loc 4 21 65 is_stmt 0 view .LVU979
	mov	edi, 16	#,
	call	"__cxa_allocate_exception"@PLT	#
.LVL224:
# include/utils.hpp:21:             throw std::out_of_range("Y coordinate out of bounds");
	.loc 4 21 65 discriminator 1 view .LVU980
	lea	rsi, .LC9[rip]	#,
	mov	rdi, rax	#, _617
# include/utils.hpp:21:             throw std::out_of_range("Y coordinate out of bounds");
	.loc 4 21 65 view .LVU981
	mov	r12, rax	# _617,
.LVL225:
.LEHB8:
# include/utils.hpp:21:             throw std::out_of_range("Y coordinate out of bounds");
	.loc 4 21 65 discriminator 1 view .LVU982
	call	"_ZNSt12out_of_rangeC1EPKc"@PLT	#
.LVL226:
.LEHE8:
# include/utils.hpp:21:             throw std::out_of_range("Y coordinate out of bounds");
	.loc 4 21 65 discriminator 2 view .LVU983
	mov	rdx, QWORD PTR "_ZNSt12out_of_rangeD1Ev"@GOTPCREL[rip]	#,
	lea	rsi, "_ZTISt12out_of_range"[rip]	#,
	mov	rdi, r12	#, _617
.LEHB9:
	call	"__cxa_throw"@PLT	#
.LVL227:
.LEHE9:
.L179:
	.loc 4 21 65 discriminator 2 view .LVU984
.LBE2605:
.LBE2614:
.LBE2621:
.LBE2657:
.LBB2658:
.LBB2582:
.LBB2578:
.LBB2572:
	.loc 4 18 13 is_stmt 1 view .LVU985
# include/utils.hpp:18:             throw std::out_of_range("X coordinate out of bounds");
	.loc 4 18 65 is_stmt 0 view .LVU986
	mov	edi, 16	#,
	call	"__cxa_allocate_exception"@PLT	#
.LVL228:
# include/utils.hpp:18:             throw std::out_of_range("X coordinate out of bounds");
	.loc 4 18 65 discriminator 1 view .LVU987
	lea	rsi, .LC8[rip]	#,
	mov	rdi, rax	#, _606
# include/utils.hpp:18:             throw std::out_of_range("X coordinate out of bounds");
	.loc 4 18 65 view .LVU988
	mov	r12, rax	# _606,
.LVL229:
.LEHB10:
# include/utils.hpp:18:             throw std::out_of_range("X coordinate out of bounds");
	.loc 4 18 65 discriminator 1 view .LVU989
	call	"_ZNSt12out_of_rangeC1EPKc"@PLT	#
.LVL230:
.LEHE10:
# include/utils.hpp:18:             throw std::out_of_range("X coordinate out of bounds");
	.loc 4 18 65 discriminator 2 view .LVU990
	mov	rdx, QWORD PTR "_ZNSt12out_of_rangeD1Ev"@GOTPCREL[rip]	#,
	lea	rsi, "_ZTISt12out_of_range"[rip]	#,
	mov	rdi, r12	#, _606
.LEHB11:
	call	"__cxa_throw"@PLT	#
.LVL231:
.LEHE11:
.L111:
.L173:
	.loc 4 18 65 discriminator 2 view .LVU991
	mov	rbp, rax	# tmp675, tmp726
.LVL232:
	.loc 4 18 65 discriminator 2 view .LVU992
	vzeroupper
.LVL233:
	jmp	.L21	#
.LVL234:
.L105:
.L191:
	.loc 4 18 65 discriminator 2 view .LVU993
.LBE2572:
.LBE2578:
.LBE2582:
.LBE2658:
.LBB2659:
.LBB2622:
.LBB2615:
.LBB2606:
# include/utils.hpp:21:             throw std::out_of_range("Y coordinate out of bounds");
	.loc 4 21 65 discriminator 3 view .LVU994
	mov	rdi, r12	#, _617
	mov	r13, rax	# tmp718,
	vzeroupper
.LVL235:
	call	"__cxa_free_exception"@PLT	#
.LVL236:
	jmp	.L62	#
.LVL237:
.L177:
	.loc 4 21 65 discriminator 3 view .LVU995
.LBE2606:
.LBE2615:
.LBE2622:
.LBE2659:
.LBE2668:
.LBE2675:
.LBE2822:
.LBB2823:
.LBB2402:
.LBB2356:
# /usr/include/c++/16/bits/stl_vector.h:2206: 	  __throw_length_error(
	.loc 2 2206 24 view .LVU996
	lea	rdi, .LC0[rip]	#,
.LEHB12:
	call	"_ZSt20__throw_length_errorPKc"@PLT	#
.LVL238:
.LEHE12:
.L182:
	.loc 2 2206 24 view .LVU997
.LBE2356:
.LBE2402:
.LBE2823:
.LBB2824:
.LBB2676:
.LBB2669:
.LBB2660:
.LBB2652:
.LBB2649:
.LBB2643:
	.loc 4 21 13 is_stmt 1 view .LVU998
# include/utils.hpp:21:             throw std::out_of_range("Y coordinate out of bounds");
	.loc 4 21 65 is_stmt 0 view .LVU999
	mov	edi, 16	#,
	call	"__cxa_allocate_exception"@PLT	#
.LVL239:
# include/utils.hpp:21:             throw std::out_of_range("Y coordinate out of bounds");
	.loc 4 21 65 discriminator 1 view .LVU1000
	lea	rsi, .LC9[rip]	#,
	mov	rdi, rax	#, _626
# include/utils.hpp:21:             throw std::out_of_range("Y coordinate out of bounds");
	.loc 4 21 65 view .LVU1001
	mov	r12, rax	# _626,
.LVL240:
.LEHB13:
# include/utils.hpp:21:             throw std::out_of_range("Y coordinate out of bounds");
	.loc 4 21 65 discriminator 1 view .LVU1002
	call	"_ZNSt12out_of_rangeC1EPKc"@PLT	#
.LVL241:
.LEHE13:
# include/utils.hpp:21:             throw std::out_of_range("Y coordinate out of bounds");
	.loc 4 21 65 discriminator 2 view .LVU1003
	mov	rdx, QWORD PTR "_ZNSt12out_of_rangeD1Ev"@GOTPCREL[rip]	#,
	lea	rsi, "_ZTISt12out_of_range"[rip]	#,
	mov	rdi, r12	#, _626
.LEHB14:
	call	"__cxa_throw"@PLT	#
.LVL242:
.LEHE14:
.L174:
	.loc 4 21 65 discriminator 2 view .LVU1004
.LBE2643:
.LBE2649:
.LBE2652:
.LBE2660:
.LBE2669:
.LBE2676:
.LBE2824:
.LBB2825:
.LBB2065:
.LBB2061:
.LBB2057:
.LBB2053:
.LBB2050:
.LBB2027:
.LBB1983:
# /usr/include/c++/16/bits/stl_vector.h:2206: 	  __throw_length_error(
	.loc 2 2206 24 view .LVU1005
	lea	rdi, .LC0[rip]	#,
.LEHB15:
	call	"_ZSt20__throw_length_errorPKc"@PLT	#
.LVL243:
.LEHE15:
.L108:
	.loc 2 2206 24 view .LVU1006
	jmp	.L191	#
.LVL244:
.L99:
.L167:
	.loc 2 2206 24 view .LVU1007
.LBE1983:
.LBE2027:
.LBE2050:
.LBE2053:
.LBE2057:
.LBE2061:
.LBE2065:
.LBE2825:
.LBB2826:
.LBB2827:
.LBB2828:
.LBB2829:
# /usr/include/c++/16/bits/stl_vector.h:375: 	ptrdiff_t __n = _M_impl._M_end_of_storage - _M_impl._M_start;
	.loc 2 375 54 view .LVU1008
	mov	rbp, rax	# tmp678, tmp728
.LVL245:
	.loc 2 375 54 view .LVU1009
	vzeroupper
.LVL246:
.L85:
	.loc 2 375 54 view .LVU1010
.LBE2829:
.LBE2828:
.LBE2827:
.LBI2826:
	.loc 4 11 8 is_stmt 1 view .LVU1011
.LBB2846:
.LBI2827:
	.loc 2 790 7 view .LVU1012
.LBB2843:
.LBI2843:
	.loc 2 307 7 view .LVU1013
	.loc 2 307 7 is_stmt 0 view .LVU1014
.LBE2843:
.LBB2844:
.LBI2844:
	.loc 8 1082 5 is_stmt 1 view .LVU1015
	.loc 8 1082 5 is_stmt 0 view .LVU1016
.LBE2844:
.LBB2845:
.LBI2828:
	.loc 2 373 7 is_stmt 1 view .LVU1017
.LBB2839:
# /usr/include/c++/16/bits/stl_vector.h:375: 	ptrdiff_t __n = _M_impl._M_end_of_storage - _M_impl._M_start;
	.loc 2 375 54 is_stmt 0 view .LVU1018
	mov	rdi, QWORD PTR 16[rbx]	# _399, MEM[(struct _Vector_base *)output_214(D) + 16B]._M_impl.D.86136._M_start
.LVL247:
.LBB2830:
.LBI2830:
	.loc 2 394 7 is_stmt 1 view .LVU1019
.LBB2831:
# /usr/include/c++/16/bits/stl_vector.h:397: 	if (__p)
	.loc 2 397 2 is_stmt 0 view .LVU1020
	test	rdi, rdi	# _399
	je	.L86	#,
.LVL248:
.LBB2832:
.LBI2832:
	.loc 8 688 7 is_stmt 1 view .LVU1021
.LBB2833:
.LBI2833:
	.loc 6 167 7 view .LVU1022
.LBE2833:
.LBE2832:
.LBE2831:
.LBE2830:
# /usr/include/c++/16/bits/stl_vector.h:375: 	ptrdiff_t __n = _M_impl._M_end_of_storage - _M_impl._M_start;
	.loc 2 375 12 is_stmt 0 view .LVU1023
	mov	rsi, QWORD PTR 32[rbx]	# MEM[(struct _Vector_base *)output_214(D) + 16B]._M_impl.D.86136._M_end_of_storage, MEM[(struct _Vector_base *)output_214(D) + 16B]._M_impl.D.86136._M_end_of_storage
	sub	rsi, rdi	# __n_400, _399
.LBB2838:
.LBB2837:
.LBB2836:
.LBB2835:
.LBB2834:
# /usr/include/c++/16/bits/new_allocator.h:183: 	_GLIBCXX_OPERATOR_DELETE(_GLIBCXX_SIZED_DEALLOC(__p, __n));
	.loc 6 183 59 view .LVU1024
	call	"_ZdlPvm"@PLT	#
.LVL249:
.L86:
	.loc 6 183 59 view .LVU1025
.LBE2834:
.LBE2835:
.LBE2836:
.LBE2837:
.LBE2838:
.LBE2839:
.LBB2840:
.LBI2840:
	.loc 2 139 14 is_stmt 1 view .LVU1026
.LBB2841:
.LBI2841:
	.loc 5 189 7 view .LVU1027
.LBB2842:
.LBI2842:
	.loc 6 104 7 view .LVU1028
	.loc 6 104 7 is_stmt 0 view .LVU1029
	mov	rdi, rbp	#, tmp678
.LEHB16:
	call	"_Unwind_Resume"@PLT	#
.LVL250:
.LEHE16:
.L100:
	.loc 6 104 7 view .LVU1030
.LBE2842:
.LBE2841:
.LBE2840:
.LBE2845:
.LBE2846:
.LBE2826:
.LBB2847:
.LBB2803:
.LBB2802:
.LBB2798:
.LBB2796:
# /usr/include/c++/16/bits/stl_vector.h:397: 	if (__p)
	.loc 2 397 2 view .LVU1031
	mov	rbp, rax	# tmp675, tmp727
	vzeroupper
.LVL251:
	jmp	.L21	#
.LVL252:
.L180:
	.loc 2 397 2 view .LVU1032
.LBE2796:
.LBE2798:
.LBE2802:
.LBE2803:
.LBE2847:
.LBB2848:
.LBB2677:
.LBB2670:
.LBB2661:
.LBB2583:
.LBB2579:
.LBB2573:
	.loc 4 21 13 is_stmt 1 view .LVU1033
# include/utils.hpp:21:             throw std::out_of_range("Y coordinate out of bounds");
	.loc 4 21 65 is_stmt 0 view .LVU1034
	mov	edi, 16	#,
	call	"__cxa_allocate_exception"@PLT	#
.LVL253:
# include/utils.hpp:21:             throw std::out_of_range("Y coordinate out of bounds");
	.loc 4 21 65 discriminator 1 view .LVU1035
	lea	rsi, .LC9[rip]	#,
	mov	rdi, rax	#, _608
# include/utils.hpp:21:             throw std::out_of_range("Y coordinate out of bounds");
	.loc 4 21 65 view .LVU1036
	mov	r12, rax	# _608,
.LVL254:
.LEHB17:
# include/utils.hpp:21:             throw std::out_of_range("Y coordinate out of bounds");
	.loc 4 21 65 discriminator 1 view .LVU1037
	call	"_ZNSt12out_of_rangeC1EPKc"@PLT	#
.LVL255:
.LEHE17:
# include/utils.hpp:21:             throw std::out_of_range("Y coordinate out of bounds");
	.loc 4 21 65 discriminator 2 view .LVU1038
	mov	rdx, QWORD PTR "_ZNSt12out_of_rangeD1Ev"@GOTPCREL[rip]	#,
	lea	rsi, "_ZTISt12out_of_range"[rip]	#,
	mov	rdi, r12	#, _608
.LEHB18:
	call	"__cxa_throw"@PLT	#
.LVL256:
.LEHE18:
.L104:
	jmp	.L191	#
.LVL257:
.L59:
	.loc 4 21 65 discriminator 2 view .LVU1039
.LBE2573:
.LBE2579:
.LBE2583:
.LBE2661:
.LBB2662:
.LBB2623:
.LBB2616:
.LBB2607:
	.loc 4 18 13 is_stmt 1 view .LVU1040
# include/utils.hpp:18:             throw std::out_of_range("X coordinate out of bounds");
	.loc 4 18 65 is_stmt 0 view .LVU1041
	mov	edi, 16	#,
	call	"__cxa_allocate_exception"@PLT	#
.LVL258:
# include/utils.hpp:18:             throw std::out_of_range("X coordinate out of bounds");
	.loc 4 18 65 discriminator 1 view .LVU1042
	lea	rsi, .LC8[rip]	#,
	mov	rdi, rax	#, _615
# include/utils.hpp:18:             throw std::out_of_range("X coordinate out of bounds");
	.loc 4 18 65 view .LVU1043
	mov	r12, rax	# _615,
.LVL259:
.LEHB19:
# include/utils.hpp:18:             throw std::out_of_range("X coordinate out of bounds");
	.loc 4 18 65 discriminator 1 view .LVU1044
	call	"_ZNSt12out_of_rangeC1EPKc"@PLT	#
.LVL260:
.LEHE19:
# include/utils.hpp:18:             throw std::out_of_range("X coordinate out of bounds");
	.loc 4 18 65 discriminator 2 view .LVU1045
	mov	rdx, QWORD PTR "_ZNSt12out_of_rangeD1Ev"@GOTPCREL[rip]	#,
	lea	rsi, "_ZTISt12out_of_range"[rip]	#,
	mov	rdi, r12	#, _615
.LEHB20:
	call	"__cxa_throw"@PLT	#
.LVL261:
.LEHE20:
.L103:
	.loc 4 18 65 discriminator 2 view .LVU1046
.LBE2607:
.LBE2616:
.LBE2623:
.LBE2662:
.LBE2670:
.LBE2677:
.LBE2848:
.LBB2849:
.LBB2850:
.LBB2851:
.LBB2852:
.LBB2853:
# /usr/include/c++/16/bits/stl_vector.h:397: 	if (__p)
	.loc 2 397 2 view .LVU1047
	mov	r13, rax	# tmp604, tmp723
	vzeroupper
.LVL262:
.L62:
.LBE2853:
.LBE2852:
.LBE2851:
.LBE2850:
.LBI2849:
	.loc 2 790 7 is_stmt 1 view .LVU1048
.LBB2863:
.LBI2863:
	.loc 2 307 7 view .LVU1049
	.loc 2 307 7 is_stmt 0 view .LVU1050
.LBE2863:
.LBB2864:
.LBI2864:
	.loc 8 1082 5 is_stmt 1 view .LVU1051
	.loc 8 1082 5 is_stmt 0 view .LVU1052
.LBE2864:
.LBB2865:
.LBI2850:
	.loc 2 373 7 is_stmt 1 view .LVU1053
.LBB2859:
.LBB2858:
.LBI2852:
	.loc 2 394 7 view .LVU1054
.LBB2857:
# /usr/include/c++/16/bits/stl_vector.h:397: 	if (__p)
	.loc 2 397 2 is_stmt 0 view .LVU1055
	cmp	QWORD PTR 24[rsp], 0	# %sfp,
	je	.L78	#,
.LVL263:
.LBB2854:
.LBI2854:
	.loc 8 688 7 is_stmt 1 view .LVU1056
.LBB2855:
.LBI2855:
	.loc 6 167 7 view .LVU1057
.LBB2856:
# /usr/include/c++/16/bits/new_allocator.h:183: 	_GLIBCXX_OPERATOR_DELETE(_GLIBCXX_SIZED_DEALLOC(__p, __n));
	.loc 6 183 59 is_stmt 0 view .LVU1058
	mov	rsi, QWORD PTR 48[rsp]	#, %sfp
	mov	rdi, QWORD PTR 24[rsp]	#, %sfp
	call	"_ZdlPvm"@PLT	#
.LVL264:
.L78:
	.loc 6 183 59 view .LVU1059
.LBE2856:
.LBE2855:
.LBE2854:
.LBE2857:
.LBE2858:
.LBE2859:
.LBB2860:
.LBI2860:
	.loc 2 139 14 is_stmt 1 view .LVU1060
.LBB2861:
.LBI2861:
	.loc 5 189 7 view .LVU1061
.LBB2862:
.LBI2862:
	.loc 6 104 7 view .LVU1062
	.loc 6 104 7 is_stmt 0 view .LVU1063
	mov	r12, r13	# tmp671, tmp604
	jmp	.L79	#
.LVL265:
.L106:
	.loc 6 104 7 view .LVU1064
	jmp	.L191	#
.L107:
	jmp	.L191	#
.LVL266:
.L65:
	.loc 6 104 7 view .LVU1065
.LBE2862:
.LBE2861:
.LBE2860:
.LBE2865:
.LBE2849:
.LBB2866:
.LBB2678:
.LBB2671:
.LBB2663:
.LBB2653:
.LBB2650:
.LBB2644:
	.loc 4 18 13 is_stmt 1 view .LVU1066
# include/utils.hpp:18:             throw std::out_of_range("X coordinate out of bounds");
	.loc 4 18 65 is_stmt 0 view .LVU1067
	mov	edi, 16	#,
	call	"__cxa_allocate_exception"@PLT	#
.LVL267:
# include/utils.hpp:18:             throw std::out_of_range("X coordinate out of bounds");
	.loc 4 18 65 discriminator 1 view .LVU1068
	lea	rsi, .LC8[rip]	#,
	mov	rdi, rax	#, _624
# include/utils.hpp:18:             throw std::out_of_range("X coordinate out of bounds");
	.loc 4 18 65 view .LVU1069
	mov	r12, rax	# _624,
.LVL268:
.LEHB21:
# include/utils.hpp:18:             throw std::out_of_range("X coordinate out of bounds");
	.loc 4 18 65 discriminator 1 view .LVU1070
	call	"_ZNSt12out_of_rangeC1EPKc"@PLT	#
.LVL269:
.LEHE21:
# include/utils.hpp:18:             throw std::out_of_range("X coordinate out of bounds");
	.loc 4 18 65 discriminator 2 view .LVU1071
	mov	rdx, QWORD PTR "_ZNSt12out_of_rangeD1Ev"@GOTPCREL[rip]	#,
	lea	rsi, "_ZTISt12out_of_range"[rip]	#,
	mov	rdi, r12	#, _624
.LEHB22:
	call	"__cxa_throw"@PLT	#
.LVL270:
.LEHE22:
.L109:
	jmp	.L191	#
.LVL271:
.L175:
	.loc 4 18 65 discriminator 2 view .LVU1072
.LBE2644:
.LBE2650:
.LBE2653:
.LBE2663:
.LBE2671:
.LBE2678:
.LBE2866:
.LBB2867:
.LBB2266:
.LBB2259:
.LBB2254:
.LBB2251:
.LBB2250:
.LBB2249:
.LBB2165:
# /usr/include/c++/16/bits/stl_vector.h:2195: 	  __throw_length_error(__N(__s));
	.loc 2 2195 24 view .LVU1073
	lea	rdi, .LC2[rip]	#,
.LEHB23:
	call	"_ZSt20__throw_length_errorPKc"@PLT	#
.LVL272:
.LEHE23:
	.loc 2 2195 24 view .LVU1074
.LBE2165:
.LBE2249:
.LBE2250:
.LBE2251:
.LBE2254:
.LBE2259:
.LBE2266:
.LBE2867:
	.cfi_endproc
.LFE4421:
	.section	.gcc_except_table
.LLSDAC4421:
	.byte	0xff
	.byte	0xff
	.byte	0x1
	.uleb128 .LLSDACSEC4421-.LLSDACSBC4421
.LLSDACSBC4421:
	.uleb128 .LEHB6-.LCOLDB10
	.uleb128 .LEHE6-.LEHB6
	.uleb128 .L102-.LCOLDB10
	.uleb128 0
	.uleb128 .LEHB7-.LCOLDB10
	.uleb128 .LEHE7-.LEHB7
	.uleb128 .L100-.LCOLDB10
	.uleb128 0
	.uleb128 .LEHB8-.LCOLDB10
	.uleb128 .LEHE8-.LEHB8
	.uleb128 .L106-.LCOLDB10
	.uleb128 0
	.uleb128 .LEHB9-.LCOLDB10
	.uleb128 .LEHE9-.LEHB9
	.uleb128 .L103-.LCOLDB10
	.uleb128 0
	.uleb128 .LEHB10-.LCOLDB10
	.uleb128 .LEHE10-.LEHB10
	.uleb128 .L105-.LCOLDB10
	.uleb128 0
	.uleb128 .LEHB11-.LCOLDB10
	.uleb128 .LEHE11-.LEHB11
	.uleb128 .L103-.LCOLDB10
	.uleb128 0
	.uleb128 .LEHB12-.LCOLDB10
	.uleb128 .LEHE12-.LEHB12
	.uleb128 .L101-.LCOLDB10
	.uleb128 0
	.uleb128 .LEHB13-.LCOLDB10
	.uleb128 .LEHE13-.LEHB13
	.uleb128 .L108-.LCOLDB10
	.uleb128 0
	.uleb128 .LEHB14-.LCOLDB10
	.uleb128 .LEHE14-.LEHB14
	.uleb128 .L103-.LCOLDB10
	.uleb128 0
	.uleb128 .LEHB15-.LCOLDB10
	.uleb128 .LEHE15-.LEHB15
	.uleb128 .L99-.LCOLDB10
	.uleb128 0
	.uleb128 .LEHB16-.LCOLDB10
	.uleb128 .LEHE16-.LEHB16
	.uleb128 0
	.uleb128 0
	.uleb128 .LEHB17-.LCOLDB10
	.uleb128 .LEHE17-.LEHB17
	.uleb128 .L104-.LCOLDB10
	.uleb128 0
	.uleb128 .LEHB18-.LCOLDB10
	.uleb128 .LEHE18-.LEHB18
	.uleb128 .L103-.LCOLDB10
	.uleb128 0
	.uleb128 .LEHB19-.LCOLDB10
	.uleb128 .LEHE19-.LEHB19
	.uleb128 .L107-.LCOLDB10
	.uleb128 0
	.uleb128 .LEHB20-.LCOLDB10
	.uleb128 .LEHE20-.LEHB20
	.uleb128 .L103-.LCOLDB10
	.uleb128 0
	.uleb128 .LEHB21-.LCOLDB10
	.uleb128 .LEHE21-.LEHB21
	.uleb128 .L109-.LCOLDB10
	.uleb128 0
	.uleb128 .LEHB22-.LCOLDB10
	.uleb128 .LEHE22-.LEHB22
	.uleb128 .L103-.LCOLDB10
	.uleb128 0
	.uleb128 .LEHB23-.LCOLDB10
	.uleb128 .LEHE23-.LEHB23
	.uleb128 .L111-.LCOLDB10
	.uleb128 0
.LLSDACSEC4421:
	.section	.text.unlikely
	.text
	.size	"_Z21refocus_shift_and_sumRSt6vectorI16SubApertureImageSaIS0_EEf", .-"_Z21refocus_shift_and_sumRSt6vectorI16SubApertureImageSaIS0_EEf"
	.section	.text.unlikely
	.size	"_Z21refocus_shift_and_sumRSt6vectorI16SubApertureImageSaIS0_EEf.cold", .-"_Z21refocus_shift_and_sumRSt6vectorI16SubApertureImageSaIS0_EEf.cold"
.LCOLDE10:
	.text
.LHOTE10:
	.section	.rodata.cst4,"aM",@progbits,4
	.align 4
.LC1:
	.long	1065353216
	.align 4
.LC4:
	.long	1056964607
	.align 4
.LC6:
	.long	-2147483648
	.align 4
.LC7:
	.long	1132396544
	.text
.Letext0:
	.section	.text.unlikely
.Letext_cold0:
	.file 14 "/usr/include/c++/16/cwchar"
	.file 15 "/usr/include/x86_64-linux-gnu/c++/16/bits/c++config.h"
	.file 16 "/usr/include/c++/16/type_traits"
	.file 17 "/usr/include/c++/16/bits/exception_ptr.h"
	.file 18 "/usr/include/c++/16/clocale"
	.file 19 "/usr/include/c++/16/bits/stl_iterator_base_types.h"
	.file 20 "/usr/include/c++/16/debug/debug.h"
	.file 21 "/usr/include/c++/16/cstdlib"
	.file 22 "/usr/include/c++/16/cstdio"
	.file 23 "/usr/include/c++/16/cstddef"
	.file 24 "/usr/include/c++/16/cstdint"
	.file 25 "/usr/include/c++/16/ctime"
	.file 26 "/usr/include/c++/16/bits/chrono.h"
	.file 27 "/usr/include/c++/16/system_error"
	.file 28 "/usr/include/c++/16/bits/fs_fwd.h"
	.file 29 "/usr/include/c++/16/bits/fs_path.h"
	.file 30 "/usr/include/c++/16/cwctype"
	.file 31 "/usr/include/c++/16/bits/shared_ptr_base.h"
	.file 32 "/usr/include/c++/16/initializer_list"
	.file 33 "/usr/include/c++/16/bits/stdexcept_except.h"
	.file 34 "/usr/include/c++/16/bits/new_throw.h"
	.file 35 "/usr/include/c++/16/bits/stdexcept_throwfwd.h"
	.file 36 "/usr/include/c++/16/bits/ptr_traits.h"
	.file 37 "/usr/lib/gcc/x86_64-linux-gnu/16/include/stddef.h"
	.file 38 "<built-in>"
	.file 39 "/usr/include/x86_64-linux-gnu/bits/types/wint_t.h"
	.file 40 "/usr/include/x86_64-linux-gnu/bits/types/__mbstate_t.h"
	.file 41 "/usr/include/x86_64-linux-gnu/bits/types/mbstate_t.h"
	.file 42 "/usr/include/x86_64-linux-gnu/bits/types/__FILE.h"
	.file 43 "/usr/include/x86_64-linux-gnu/bits/types/struct_FILE.h"
	.file 44 "/usr/include/x86_64-linux-gnu/bits/types/FILE.h"
	.file 45 "/usr/include/wchar.h"
	.file 46 "/usr/include/x86_64-linux-gnu/bits/types/struct_tm.h"
	.file 47 "/usr/include/c++/16/ext/alloc_traits.h"
	.file 48 "/usr/include/c++/16/ext/type_traits.h"
	.file 49 "/usr/include/locale.h"
	.file 50 "/usr/include/x86_64-linux-gnu/bits/types.h"
	.file 51 "/usr/include/stdlib.h"
	.file 52 "/usr/include/x86_64-linux-gnu/bits/types/clock_t.h"
	.file 53 "/usr/include/x86_64-linux-gnu/bits/types/time_t.h"
	.file 54 "/usr/include/x86_64-linux-gnu/bits/stdint-intn.h"
	.file 55 "/usr/include/x86_64-linux-gnu/bits/types/struct_timespec.h"
	.file 56 "/usr/include/x86_64-linux-gnu/bits/stdlib-float.h"
	.file 57 "/usr/include/x86_64-linux-gnu/bits/stdlib-bsearch.h"
	.file 58 "/usr/include/x86_64-linux-gnu/bits/types/__fpos_t.h"
	.file 59 "/usr/include/stdio.h"
	.file 60 "/usr/include/x86_64-linux-gnu/bits/stdio.h"
	.file 61 "/usr/include/x86_64-linux-gnu/bits/stdint-uintn.h"
	.file 62 "/usr/include/x86_64-linux-gnu/bits/stdint-least.h"
	.file 63 "/usr/include/stdint.h"
	.file 64 "/usr/include/time.h"
	.file 65 "/usr/include/x86_64-linux-gnu/bits/wctype-wchar.h"
	.file 66 "/usr/include/wctype.h"
	.file 67 "/usr/include/math.h"
	.file 68 "/usr/include/c++/16/pstl/execution_defs.h"
	.file 69 "/usr/include/c++/16/new"
	.file 70 "/usr/include/c++/16/bits/memory_resource.h"
	.file 71 "/usr/include/c++/16/string_view"
	.file 72 "/usr/include/c++/16/ext/concurrence.h"
	.section	.debug_info,"",@progbits
.Ldebug_info0:
	.long	0x1108c
	.value	0x5
	.byte	0x1
	.byte	0x8
	.long	.Ldebug_abbrev0
	.uleb128 0x9a
	.long	.LASF1422
	.byte	0x21
	.byte	0x4
	.long	0x313e7
	.long	.LASF0
	.long	.LASF1
	.long	.LLRL553
	.quad	0
	.long	.Ldebug_line0
	.uleb128 0x2b
	.byte	0x4
	.byte	0x4
	.long	.LASF2
	.uleb128 0xd
	.long	0x3c
	.uleb128 0x2b
	.byte	0x1
	.byte	0x6
	.long	.LASF3
	.uleb128 0x7
	.long	0x3c
	.uleb128 0x9b
	.byte	0x4
	.byte	0x5
	.string	"int"
	.uleb128 0x7
	.long	0x48
	.uleb128 0x9c
	.string	"std"
	.byte	0xf
	.value	0x156
	.byte	0xb
	.long	0x7545
	.uleb128 0x5
	.byte	0xe
	.byte	0x42
	.byte	0xb
	.long	0x7615
	.uleb128 0x5
	.byte	0xe
	.byte	0x8f
	.byte	0xb
	.long	0x75a2
	.uleb128 0x5
	.byte	0xe
	.byte	0x91
	.byte	0xb
	.long	0x77e6
	.uleb128 0x5
	.byte	0xe
	.byte	0x92
	.byte	0xb
	.long	0x77fd
	.uleb128 0x5
	.byte	0xe
	.byte	0x93
	.byte	0xb
	.long	0x7819
	.uleb128 0x5
	.byte	0xe
	.byte	0x94
	.byte	0xb
	.long	0x784b
	.uleb128 0x5
	.byte	0xe
	.byte	0x95
	.byte	0xb
	.long	0x7867
	.uleb128 0x5
	.byte	0xe
	.byte	0x96
	.byte	0xb
	.long	0x7888
	.uleb128 0x5
	.byte	0xe
	.byte	0x97
	.byte	0xb
	.long	0x78a4
	.uleb128 0x5
	.byte	0xe
	.byte	0x98
	.byte	0xb
	.long	0x78c1
	.uleb128 0x5
	.byte	0xe
	.byte	0x99
	.byte	0xb
	.long	0x78e2
	.uleb128 0x5
	.byte	0xe
	.byte	0x9a
	.byte	0xb
	.long	0x78f9
	.uleb128 0x5
	.byte	0xe
	.byte	0x9b
	.byte	0xb
	.long	0x7907
	.uleb128 0x5
	.byte	0xe
	.byte	0x9c
	.byte	0xb
	.long	0x792d
	.uleb128 0x5
	.byte	0xe
	.byte	0x9d
	.byte	0xb
	.long	0x7953
	.uleb128 0x5
	.byte	0xe
	.byte	0x9e
	.byte	0xb
	.long	0x796f
	.uleb128 0x5
	.byte	0xe
	.byte	0x9f
	.byte	0xb
	.long	0x799a
	.uleb128 0x5
	.byte	0xe
	.byte	0xa0
	.byte	0xb
	.long	0x79b6
	.uleb128 0x5
	.byte	0xe
	.byte	0xa2
	.byte	0xb
	.long	0x79cd
	.uleb128 0x5
	.byte	0xe
	.byte	0xa4
	.byte	0xb
	.long	0x79ef
	.uleb128 0x5
	.byte	0xe
	.byte	0xa5
	.byte	0xb
	.long	0x7a10
	.uleb128 0x5
	.byte	0xe
	.byte	0xa6
	.byte	0xb
	.long	0x7a2c
	.uleb128 0x5
	.byte	0xe
	.byte	0xa8
	.byte	0xb
	.long	0x7a52
	.uleb128 0x5
	.byte	0xe
	.byte	0xab
	.byte	0xb
	.long	0x7a77
	.uleb128 0x5
	.byte	0xe
	.byte	0xae
	.byte	0xb
	.long	0x7a9d
	.uleb128 0x5
	.byte	0xe
	.byte	0xb0
	.byte	0xb
	.long	0x7ac2
	.uleb128 0x5
	.byte	0xe
	.byte	0xb2
	.byte	0xb
	.long	0x7ade
	.uleb128 0x5
	.byte	0xe
	.byte	0xb4
	.byte	0xb
	.long	0x7afe
	.uleb128 0x5
	.byte	0xe
	.byte	0xb5
	.byte	0xb
	.long	0x7b1f
	.uleb128 0x5
	.byte	0xe
	.byte	0xb6
	.byte	0xb
	.long	0x7b3a
	.uleb128 0x5
	.byte	0xe
	.byte	0xb7
	.byte	0xb
	.long	0x7b55
	.uleb128 0x5
	.byte	0xe
	.byte	0xb8
	.byte	0xb
	.long	0x7b70
	.uleb128 0x5
	.byte	0xe
	.byte	0xb9
	.byte	0xb
	.long	0x7b8b
	.uleb128 0x5
	.byte	0xe
	.byte	0xba
	.byte	0xb
	.long	0x7ba6
	.uleb128 0x5
	.byte	0xe
	.byte	0xbb
	.byte	0xb
	.long	0x7c73
	.uleb128 0x5
	.byte	0xe
	.byte	0xbc
	.byte	0xb
	.long	0x7c89
	.uleb128 0x5
	.byte	0xe
	.byte	0xbd
	.byte	0xb
	.long	0x7ca9
	.uleb128 0x5
	.byte	0xe
	.byte	0xbe
	.byte	0xb
	.long	0x7cc9
	.uleb128 0x5
	.byte	0xe
	.byte	0xbf
	.byte	0xb
	.long	0x7ce9
	.uleb128 0x5
	.byte	0xe
	.byte	0xc0
	.byte	0xb
	.long	0x7d14
	.uleb128 0x5
	.byte	0xe
	.byte	0xc1
	.byte	0xb
	.long	0x7d2f
	.uleb128 0x5
	.byte	0xe
	.byte	0xc3
	.byte	0xb
	.long	0x7d57
	.uleb128 0x5
	.byte	0xe
	.byte	0xc5
	.byte	0xb
	.long	0x7d78
	.uleb128 0x5
	.byte	0xe
	.byte	0xc6
	.byte	0xb
	.long	0x7d98
	.uleb128 0x5
	.byte	0xe
	.byte	0xc7
	.byte	0xb
	.long	0x7dc4
	.uleb128 0x5
	.byte	0xe
	.byte	0xc8
	.byte	0xb
	.long	0x7de9
	.uleb128 0x5
	.byte	0xe
	.byte	0xc9
	.byte	0xb
	.long	0x7e09
	.uleb128 0x5
	.byte	0xe
	.byte	0xca
	.byte	0xb
	.long	0x7e20
	.uleb128 0x5
	.byte	0xe
	.byte	0xcb
	.byte	0xb
	.long	0x7e41
	.uleb128 0x5
	.byte	0xe
	.byte	0xcc
	.byte	0xb
	.long	0x7e62
	.uleb128 0x5
	.byte	0xe
	.byte	0xcd
	.byte	0xb
	.long	0x7e83
	.uleb128 0x5
	.byte	0xe
	.byte	0xce
	.byte	0xb
	.long	0x7ea4
	.uleb128 0x5
	.byte	0xe
	.byte	0xcf
	.byte	0xb
	.long	0x7ebc
	.uleb128 0x5
	.byte	0xe
	.byte	0xd0
	.byte	0xb
	.long	0x7ed8
	.uleb128 0x5
	.byte	0xe
	.byte	0xd0
	.byte	0xb
	.long	0x7ef7
	.uleb128 0x5
	.byte	0xe
	.byte	0xd1
	.byte	0xb
	.long	0x7f16
	.uleb128 0x5
	.byte	0xe
	.byte	0xd1
	.byte	0xb
	.long	0x7f35
	.uleb128 0x5
	.byte	0xe
	.byte	0xd2
	.byte	0xb
	.long	0x7f54
	.uleb128 0x5
	.byte	0xe
	.byte	0xd2
	.byte	0xb
	.long	0x7f73
	.uleb128 0x5
	.byte	0xe
	.byte	0xd3
	.byte	0xb
	.long	0x7f92
	.uleb128 0x5
	.byte	0xe
	.byte	0xd3
	.byte	0xb
	.long	0x7fb1
	.uleb128 0x5
	.byte	0xe
	.byte	0xd4
	.byte	0xb
	.long	0x7fd0
	.uleb128 0x5
	.byte	0xe
	.byte	0xd4
	.byte	0xb
	.long	0x7ff5
	.uleb128 0x19
	.byte	0xe
	.value	0x10d
	.byte	0x16
	.long	0x8f2a
	.uleb128 0x19
	.byte	0xe
	.value	0x10e
	.byte	0x16
	.long	0x8f4d
	.uleb128 0x19
	.byte	0xe
	.value	0x10f
	.byte	0x16
	.long	0x8f79
	.uleb128 0x19
	.byte	0xe
	.value	0x11d
	.byte	0xe
	.long	0x7d57
	.uleb128 0x19
	.byte	0xe
	.value	0x120
	.byte	0xe
	.long	0x7a52
	.uleb128 0x19
	.byte	0xe
	.value	0x123
	.byte	0xe
	.long	0x7a9d
	.uleb128 0x19
	.byte	0xe
	.value	0x126
	.byte	0xe
	.long	0x7ade
	.uleb128 0x19
	.byte	0xe
	.value	0x12a
	.byte	0xe
	.long	0x8f2a
	.uleb128 0x19
	.byte	0xe
	.value	0x12b
	.byte	0xe
	.long	0x8f4d
	.uleb128 0x19
	.byte	0xe
	.value	0x12c
	.byte	0xe
	.long	0x8f79
	.uleb128 0x1d
	.long	.LASF4
	.byte	0xf
	.value	0x158
	.byte	0x1a
	.long	0x7556
	.uleb128 0x7
	.long	0x2b5
	.uleb128 0x1a
	.long	.LASF10
	.byte	0x1
	.byte	0x10
	.byte	0x5f
	.byte	0xc
	.long	0x330
	.uleb128 0x9
	.long	.LASF5
	.byte	0x10
	.byte	0x62
	.byte	0xd
	.long	0x8fe9
	.uleb128 0x42
	.long	.LASF6
	.byte	0x10
	.byte	0x64
	.byte	0x11
	.long	.LASF8
	.long	0x2d4
	.long	0x2f8
	.long	0x2fe
	.uleb128 0x2
	.long	0x8ff5
	.byte	0
	.uleb128 0x42
	.long	.LASF7
	.byte	0x10
	.byte	0x67
	.byte	0x1c
	.long	.LASF9
	.long	0x2d4
	.long	0x316
	.long	0x31c
	.uleb128 0x2
	.long	0x8ff5
	.byte	0
	.uleb128 0xf
	.string	"_Tp"
	.long	0x8fe9
	.uleb128 0x7b
	.string	"__v"
	.long	0x8fe9
	.byte	0x1
	.byte	0
	.uleb128 0x7
	.long	0x2c7
	.uleb128 0x1a
	.long	.LASF11
	.byte	0x1
	.byte	0x10
	.byte	0x5f
	.byte	0xc
	.long	0x39e
	.uleb128 0x9
	.long	.LASF5
	.byte	0x10
	.byte	0x62
	.byte	0xd
	.long	0x8fe9
	.uleb128 0x42
	.long	.LASF12
	.byte	0x10
	.byte	0x64
	.byte	0x11
	.long	.LASF13
	.long	0x342
	.long	0x366
	.long	0x36c
	.uleb128 0x2
	.long	0x8ffa
	.byte	0
	.uleb128 0x42
	.long	.LASF7
	.byte	0x10
	.byte	0x67
	.byte	0x1c
	.long	.LASF14
	.long	0x342
	.long	0x384
	.long	0x38a
	.uleb128 0x2
	.long	0x8ffa
	.byte	0
	.uleb128 0xf
	.string	"_Tp"
	.long	0x8fe9
	.uleb128 0x7b
	.string	"__v"
	.long	0x8fe9
	.byte	0
	.byte	0
	.uleb128 0x7
	.long	0x335
	.uleb128 0x9
	.long	.LASF15
	.byte	0x10
	.byte	0x7a
	.byte	0x9
	.long	0x3af
	.uleb128 0x9
	.long	.LASF16
	.byte	0x10
	.byte	0x73
	.byte	0xb
	.long	0x335
	.uleb128 0x7c
	.long	.LASF17
	.value	0xbfb
	.uleb128 0x7c
	.long	.LASF18
	.value	0xc50
	.uleb128 0x69
	.long	.LASF19
	.byte	0x11
	.byte	0x3d
	.byte	0xd
	.long	0x5e4
	.uleb128 0x3f
	.long	.LASF20
	.byte	0x8
	.byte	0x11
	.byte	0x69
	.long	0x5bd
	.uleb128 0x10
	.long	.LASF106
	.byte	0x11
	.byte	0x6b
	.byte	0xd
	.long	0x759f
	.byte	0
	.uleb128 0x7d
	.long	.LASF20
	.byte	0x11
	.byte	0x7f
	.byte	0x10
	.long	.LASF21
	.long	0x402
	.long	0x40d
	.uleb128 0x2
	.long	0x9035
	.uleb128 0x1
	.long	0x759f
	.byte	0
	.uleb128 0x22
	.long	.LASF22
	.byte	0x11
	.byte	0x82
	.byte	0xc
	.long	.LASF24
	.long	0x421
	.long	0x427
	.uleb128 0x2
	.long	0x9035
	.byte	0
	.uleb128 0x22
	.long	.LASF23
	.byte	0x11
	.byte	0x83
	.byte	0xc
	.long	.LASF25
	.long	0x43b
	.long	0x441
	.uleb128 0x2
	.long	0x9035
	.byte	0
	.uleb128 0x42
	.long	.LASF26
	.byte	0x11
	.byte	0x85
	.byte	0xd
	.long	.LASF27
	.long	0x759f
	.long	0x459
	.long	0x45f
	.uleb128 0x2
	.long	0x903a
	.byte	0
	.uleb128 0x42
	.long	.LASF28
	.byte	0x11
	.byte	0x92
	.byte	0x13
	.long	.LASF29
	.long	0x903f
	.long	0x477
	.long	0x482
	.uleb128 0x2
	.long	0x903a
	.uleb128 0x1
	.long	0x9046
	.byte	0
	.uleb128 0x23
	.long	.LASF20
	.byte	0x11
	.byte	0x96
	.byte	0x1c
	.long	.LASF30
	.byte	0x1
	.long	0x497
	.long	0x49d
	.uleb128 0x2
	.long	0x9035
	.byte	0
	.uleb128 0x23
	.long	.LASF20
	.byte	0x11
	.byte	0x98
	.byte	0x1c
	.long	.LASF31
	.byte	0x1
	.long	0x4b2
	.long	0x4bd
	.uleb128 0x2
	.long	0x9035
	.uleb128 0x1
	.long	0x904b
	.byte	0
	.uleb128 0x23
	.long	.LASF20
	.byte	0x11
	.byte	0x9c
	.byte	0x1c
	.long	.LASF32
	.byte	0x1
	.long	0x4d2
	.long	0x4dd
	.uleb128 0x2
	.long	0x9035
	.uleb128 0x1
	.long	0x60c
	.byte	0
	.uleb128 0x23
	.long	.LASF20
	.byte	0x11
	.byte	0xa0
	.byte	0x1c
	.long	.LASF33
	.byte	0x1
	.long	0x4f2
	.long	0x4fd
	.uleb128 0x2
	.long	0x9035
	.uleb128 0x1
	.long	0x9050
	.byte	0
	.uleb128 0x21
	.long	.LASF34
	.byte	0x11
	.byte	0xad
	.byte	0x7
	.long	.LASF35
	.long	0x9055
	.byte	0x1
	.long	0x516
	.long	0x521
	.uleb128 0x2
	.long	0x9035
	.uleb128 0x1
	.long	0x904b
	.byte	0
	.uleb128 0x21
	.long	.LASF34
	.byte	0x11
	.byte	0xb1
	.byte	0x7
	.long	.LASF36
	.long	0x9055
	.byte	0x1
	.long	0x53a
	.long	0x545
	.uleb128 0x2
	.long	0x9035
	.uleb128 0x1
	.long	0x9050
	.byte	0
	.uleb128 0x23
	.long	.LASF37
	.byte	0x11
	.byte	0xb8
	.byte	0x1c
	.long	.LASF38
	.byte	0x1
	.long	0x55a
	.long	0x560
	.uleb128 0x2
	.long	0x9035
	.byte	0
	.uleb128 0x23
	.long	.LASF39
	.byte	0x11
	.byte	0xbb
	.byte	0x7
	.long	.LASF40
	.byte	0x1
	.long	0x575
	.long	0x580
	.uleb128 0x2
	.long	0x9035
	.uleb128 0x1
	.long	0x9055
	.byte	0
	.uleb128 0x9d
	.long	.LASF66
	.byte	0x11
	.byte	0xc6
	.byte	0x25
	.long	.LASF67
	.long	0x8fe9
	.byte	0x1
	.long	0x59a
	.long	0x5a0
	.uleb128 0x2
	.long	0x903a
	.byte	0
	.uleb128 0x9e
	.long	.LASF41
	.byte	0x11
	.byte	0xdf
	.byte	0x7
	.long	.LASF42
	.long	0x905a
	.byte	0x1
	.long	0x5b6
	.uleb128 0x2
	.long	0x903a
	.byte	0
	.byte	0
	.uleb128 0x7
	.long	0x3d5
	.uleb128 0x5
	.byte	0x11
	.byte	0x5d
	.byte	0x10
	.long	0x5ec
	.uleb128 0x9f
	.long	.LASF39
	.byte	0x11
	.value	0x120
	.byte	0x5
	.long	.LASF1423
	.uleb128 0x1
	.long	0x9055
	.uleb128 0x1
	.long	0x9055
	.byte	0
	.byte	0
	.uleb128 0x5
	.byte	0x11
	.byte	0x42
	.byte	0x1a
	.long	0x3d5
	.uleb128 0x7e
	.long	.LASF43
	.byte	0x11
	.byte	0x52
	.byte	0x8
	.long	.LASF44
	.long	0x602
	.uleb128 0x1
	.long	0x3d5
	.byte	0
	.uleb128 0x2f
	.long	.LASF279
	.uleb128 0x7
	.long	0x602
	.uleb128 0x1d
	.long	.LASF45
	.byte	0xf
	.value	0x15c
	.byte	0x1d
	.long	0x8fe3
	.uleb128 0x19
	.byte	0x11
	.value	0x12d
	.byte	0x1a
	.long	0x5ca
	.uleb128 0x1d
	.long	.LASF46
	.byte	0xf
	.value	0x159
	.byte	0x1c
	.long	0x7dbd
	.uleb128 0x9
	.long	.LASF47
	.byte	0x10
	.byte	0x77
	.byte	0x9
	.long	0x63b
	.uleb128 0x9
	.long	.LASF16
	.byte	0x10
	.byte	0x73
	.byte	0xb
	.long	0x2c7
	.uleb128 0x5
	.byte	0x12
	.byte	0x37
	.byte	0xb
	.long	0x905f
	.uleb128 0x5
	.byte	0x12
	.byte	0x38
	.byte	0xb
	.long	0x91a5
	.uleb128 0x5
	.byte	0x12
	.byte	0x39
	.byte	0xb
	.long	0x91c0
	.uleb128 0xa0
	.long	.LASF1424
	.byte	0x1
	.byte	0x13
	.byte	0x5f
	.byte	0xa
	.uleb128 0x1a
	.long	.LASF48
	.byte	0x1
	.byte	0x13
	.byte	0x65
	.byte	0xa
	.long	0x67c
	.uleb128 0x33
	.long	0x65f
	.byte	0
	.uleb128 0x1a
	.long	.LASF49
	.byte	0x1
	.byte	0x13
	.byte	0x69
	.byte	0xa
	.long	0x68f
	.uleb128 0x33
	.long	0x669
	.byte	0
	.uleb128 0x1a
	.long	.LASF50
	.byte	0x1
	.byte	0x13
	.byte	0x6d
	.byte	0xa
	.long	0x6a2
	.uleb128 0x33
	.long	0x67c
	.byte	0
	.uleb128 0x73
	.long	.LASF51
	.byte	0x14
	.byte	0x32
	.byte	0xd
	.uleb128 0x5
	.byte	0x15
	.byte	0x89
	.byte	0xb
	.long	0x9329
	.uleb128 0x5
	.byte	0x15
	.byte	0x8a
	.byte	0xb
	.long	0x935d
	.uleb128 0x5
	.byte	0x15
	.byte	0x90
	.byte	0xb
	.long	0x9439
	.uleb128 0x5
	.byte	0x15
	.byte	0x93
	.byte	0xb
	.long	0x9457
	.uleb128 0x5
	.byte	0x15
	.byte	0x96
	.byte	0xb
	.long	0x9472
	.uleb128 0x5
	.byte	0x15
	.byte	0x97
	.byte	0xb
	.long	0x9488
	.uleb128 0x5
	.byte	0x15
	.byte	0x98
	.byte	0xb
	.long	0x949f
	.uleb128 0x5
	.byte	0x15
	.byte	0x99
	.byte	0xb
	.long	0x94b6
	.uleb128 0x5
	.byte	0x15
	.byte	0x9b
	.byte	0xb
	.long	0x94e0
	.uleb128 0x5
	.byte	0x15
	.byte	0x9e
	.byte	0xb
	.long	0x94fd
	.uleb128 0x5
	.byte	0x15
	.byte	0xa0
	.byte	0xb
	.long	0x9514
	.uleb128 0x5
	.byte	0x15
	.byte	0xa3
	.byte	0xb
	.long	0x9530
	.uleb128 0x5
	.byte	0x15
	.byte	0xa4
	.byte	0xb
	.long	0x954c
	.uleb128 0x5
	.byte	0x15
	.byte	0xa5
	.byte	0xb
	.long	0x956d
	.uleb128 0x5
	.byte	0x15
	.byte	0xa7
	.byte	0xb
	.long	0x958e
	.uleb128 0x5
	.byte	0x15
	.byte	0xaa
	.byte	0xb
	.long	0x95af
	.uleb128 0x5
	.byte	0x15
	.byte	0xad
	.byte	0xb
	.long	0x95c3
	.uleb128 0x5
	.byte	0x15
	.byte	0xaf
	.byte	0xb
	.long	0x95d1
	.uleb128 0x5
	.byte	0x15
	.byte	0xb0
	.byte	0xb
	.long	0x95e3
	.uleb128 0x5
	.byte	0x15
	.byte	0xb1
	.byte	0xb
	.long	0x9603
	.uleb128 0x5
	.byte	0x15
	.byte	0xb2
	.byte	0xb
	.long	0x9627
	.uleb128 0x5
	.byte	0x15
	.byte	0xb3
	.byte	0xb
	.long	0x964b
	.uleb128 0x5
	.byte	0x15
	.byte	0xb5
	.byte	0xb
	.long	0x9662
	.uleb128 0x5
	.byte	0x15
	.byte	0xb6
	.byte	0xb
	.long	0x9683
	.uleb128 0x5
	.byte	0x15
	.byte	0xfd
	.byte	0x16
	.long	0x9391
	.uleb128 0x19
	.byte	0x15
	.value	0x102
	.byte	0x16
	.long	0x8079
	.uleb128 0x19
	.byte	0x15
	.value	0x103
	.byte	0x16
	.long	0x969f
	.uleb128 0x19
	.byte	0x15
	.value	0x105
	.byte	0x16
	.long	0x96bb
	.uleb128 0x19
	.byte	0x15
	.value	0x106
	.byte	0x16
	.long	0x971a
	.uleb128 0x19
	.byte	0x15
	.value	0x107
	.byte	0x16
	.long	0x96d2
	.uleb128 0x19
	.byte	0x15
	.value	0x108
	.byte	0x16
	.long	0x96f6
	.uleb128 0x19
	.byte	0x15
	.value	0x109
	.byte	0x16
	.long	0x9735
	.uleb128 0x5
	.byte	0x16
	.byte	0x64
	.byte	0xb
	.long	0x77c9
	.uleb128 0x5
	.byte	0x16
	.byte	0x65
	.byte	0xb
	.long	0x97da
	.uleb128 0x5
	.byte	0x16
	.byte	0x67
	.byte	0xb
	.long	0x97f0
	.uleb128 0x5
	.byte	0x16
	.byte	0x68
	.byte	0xb
	.long	0x9802
	.uleb128 0x5
	.byte	0x16
	.byte	0x69
	.byte	0xb
	.long	0x9818
	.uleb128 0x5
	.byte	0x16
	.byte	0x6a
	.byte	0xb
	.long	0x982f
	.uleb128 0x5
	.byte	0x16
	.byte	0x6b
	.byte	0xb
	.long	0x9846
	.uleb128 0x5
	.byte	0x16
	.byte	0x6c
	.byte	0xb
	.long	0x985c
	.uleb128 0x5
	.byte	0x16
	.byte	0x6d
	.byte	0xb
	.long	0x9873
	.uleb128 0x5
	.byte	0x16
	.byte	0x6e
	.byte	0xb
	.long	0x9894
	.uleb128 0x5
	.byte	0x16
	.byte	0x6f
	.byte	0xb
	.long	0x98b5
	.uleb128 0x5
	.byte	0x16
	.byte	0x73
	.byte	0xb
	.long	0x98d1
	.uleb128 0x5
	.byte	0x16
	.byte	0x74
	.byte	0xb
	.long	0x98f7
	.uleb128 0x5
	.byte	0x16
	.byte	0x76
	.byte	0xb
	.long	0x9918
	.uleb128 0x5
	.byte	0x16
	.byte	0x77
	.byte	0xb
	.long	0x9939
	.uleb128 0x5
	.byte	0x16
	.byte	0x78
	.byte	0xb
	.long	0x995a
	.uleb128 0x5
	.byte	0x16
	.byte	0x7a
	.byte	0xb
	.long	0x9971
	.uleb128 0x5
	.byte	0x16
	.byte	0x7b
	.byte	0xb
	.long	0x9988
	.uleb128 0x5
	.byte	0x16
	.byte	0x80
	.byte	0xb
	.long	0x9994
	.uleb128 0x5
	.byte	0x16
	.byte	0x85
	.byte	0xb
	.long	0x99a6
	.uleb128 0x5
	.byte	0x16
	.byte	0x86
	.byte	0xb
	.long	0x99bc
	.uleb128 0x5
	.byte	0x16
	.byte	0x87
	.byte	0xb
	.long	0x99d7
	.uleb128 0x5
	.byte	0x16
	.byte	0x89
	.byte	0xb
	.long	0x99e9
	.uleb128 0x5
	.byte	0x16
	.byte	0x8a
	.byte	0xb
	.long	0x9a00
	.uleb128 0x5
	.byte	0x16
	.byte	0x8d
	.byte	0xb
	.long	0x9a26
	.uleb128 0x5
	.byte	0x16
	.byte	0x8f
	.byte	0xb
	.long	0x9a32
	.uleb128 0x5
	.byte	0x16
	.byte	0x91
	.byte	0xb
	.long	0x9a48
	.uleb128 0x7f
	.long	.LASF52
	.byte	0xf
	.value	0x179
	.byte	0x41
	.uleb128 0x5
	.byte	0x17
	.byte	0x42
	.byte	0xb
	.long	0x8fd4
	.uleb128 0xa1
	.string	"pmr"
	.byte	0x46
	.byte	0x37
	.byte	0xb
	.uleb128 0x80
	.string	"_V2"
	.byte	0x1b
	.byte	0x54
	.byte	0x1
	.uleb128 0x5
	.byte	0x18
	.byte	0x35
	.byte	0xb
	.long	0x93ba
	.uleb128 0x5
	.byte	0x18
	.byte	0x36
	.byte	0xb
	.long	0x93c6
	.uleb128 0x5
	.byte	0x18
	.byte	0x37
	.byte	0xb
	.long	0x93d2
	.uleb128 0x5
	.byte	0x18
	.byte	0x38
	.byte	0xb
	.long	0x93de
	.uleb128 0x5
	.byte	0x18
	.byte	0x3a
	.byte	0xb
	.long	0x9af4
	.uleb128 0x5
	.byte	0x18
	.byte	0x3b
	.byte	0xb
	.long	0x9b00
	.uleb128 0x5
	.byte	0x18
	.byte	0x3c
	.byte	0xb
	.long	0x9b0c
	.uleb128 0x5
	.byte	0x18
	.byte	0x3d
	.byte	0xb
	.long	0x9b18
	.uleb128 0x5
	.byte	0x18
	.byte	0x3f
	.byte	0xb
	.long	0x9a94
	.uleb128 0x5
	.byte	0x18
	.byte	0x40
	.byte	0xb
	.long	0x9aa0
	.uleb128 0x5
	.byte	0x18
	.byte	0x41
	.byte	0xb
	.long	0x9aac
	.uleb128 0x5
	.byte	0x18
	.byte	0x42
	.byte	0xb
	.long	0x9ab8
	.uleb128 0x5
	.byte	0x18
	.byte	0x44
	.byte	0xb
	.long	0x9b6c
	.uleb128 0x5
	.byte	0x18
	.byte	0x45
	.byte	0xb
	.long	0x9b54
	.uleb128 0x5
	.byte	0x18
	.byte	0x47
	.byte	0xb
	.long	0x9a64
	.uleb128 0x5
	.byte	0x18
	.byte	0x48
	.byte	0xb
	.long	0x9a70
	.uleb128 0x5
	.byte	0x18
	.byte	0x49
	.byte	0xb
	.long	0x9a7c
	.uleb128 0x5
	.byte	0x18
	.byte	0x4a
	.byte	0xb
	.long	0x9a88
	.uleb128 0x5
	.byte	0x18
	.byte	0x4c
	.byte	0xb
	.long	0x9b24
	.uleb128 0x5
	.byte	0x18
	.byte	0x4d
	.byte	0xb
	.long	0x9b30
	.uleb128 0x5
	.byte	0x18
	.byte	0x4e
	.byte	0xb
	.long	0x9b3c
	.uleb128 0x5
	.byte	0x18
	.byte	0x4f
	.byte	0xb
	.long	0x9b48
	.uleb128 0x5
	.byte	0x18
	.byte	0x51
	.byte	0xb
	.long	0x9ac4
	.uleb128 0x5
	.byte	0x18
	.byte	0x52
	.byte	0xb
	.long	0x9ad0
	.uleb128 0x5
	.byte	0x18
	.byte	0x53
	.byte	0xb
	.long	0x9adc
	.uleb128 0x5
	.byte	0x18
	.byte	0x54
	.byte	0xb
	.long	0x9ae8
	.uleb128 0x5
	.byte	0x18
	.byte	0x56
	.byte	0xb
	.long	0x9b78
	.uleb128 0x5
	.byte	0x18
	.byte	0x57
	.byte	0xb
	.long	0x9b60
	.uleb128 0x5
	.byte	0x19
	.byte	0x3e
	.byte	0xb
	.long	0x939d
	.uleb128 0x5
	.byte	0x19
	.byte	0x3f
	.byte	0xb
	.long	0x93a9
	.uleb128 0x5
	.byte	0x19
	.byte	0x40
	.byte	0xb
	.long	0x7bd1
	.uleb128 0x5
	.byte	0x19
	.byte	0x42
	.byte	0xb
	.long	0x9ba0
	.uleb128 0x5
	.byte	0x19
	.byte	0x43
	.byte	0xb
	.long	0x9bac
	.uleb128 0x5
	.byte	0x19
	.byte	0x44
	.byte	0xb
	.long	0x9bc7
	.uleb128 0x5
	.byte	0x19
	.byte	0x45
	.byte	0xb
	.long	0x9be2
	.uleb128 0x5
	.byte	0x19
	.byte	0x46
	.byte	0xb
	.long	0x9bfd
	.uleb128 0x5
	.byte	0x19
	.byte	0x47
	.byte	0xb
	.long	0x9c13
	.uleb128 0x5
	.byte	0x19
	.byte	0x48
	.byte	0xb
	.long	0x9c2e
	.uleb128 0x5
	.byte	0x19
	.byte	0x49
	.byte	0xb
	.long	0x9c44
	.uleb128 0x5
	.byte	0x19
	.byte	0x51
	.byte	0xb
	.long	0x93ea
	.uleb128 0x5
	.byte	0x19
	.byte	0x52
	.byte	0xb
	.long	0x9c5a
	.uleb128 0x69
	.long	.LASF53
	.byte	0x1a
	.byte	0x3d
	.byte	0xd
	.long	0xa15
	.uleb128 0xa2
	.string	"_V2"
	.byte	0x1a
	.value	0x4c6
	.byte	0x1
	.uleb128 0xa3
	.byte	0x1a
	.value	0x5aa
	.byte	0x1f
	.long	0xa23
	.byte	0
	.uleb128 0xa4
	.long	.LASF1425
	.byte	0x47
	.value	0x369
	.byte	0x14
	.long	0xa2d
	.uleb128 0x7f
	.long	.LASF54
	.byte	0x1a
	.value	0x54e
	.byte	0x14
	.byte	0
	.uleb128 0x69
	.long	.LASF55
	.byte	0x1a
	.byte	0x3a
	.byte	0xd
	.long	0xa4c
	.uleb128 0xa5
	.long	.LASF52
	.byte	0x1c
	.byte	0x30
	.byte	0x3f
	.uleb128 0x73
	.long	.LASF56
	.byte	0x1d
	.byte	0x48
	.byte	0xb
	.byte	0
	.byte	0
	.uleb128 0x5
	.byte	0x1e
	.byte	0x54
	.byte	0xb
	.long	0x9c98
	.uleb128 0x5
	.byte	0x1e
	.byte	0x55
	.byte	0xb
	.long	0x9c8c
	.uleb128 0x5
	.byte	0x1e
	.byte	0x56
	.byte	0xb
	.long	0x75a2
	.uleb128 0x5
	.byte	0x1e
	.byte	0x5e
	.byte	0xb
	.long	0x9ca9
	.uleb128 0x5
	.byte	0x1e
	.byte	0x67
	.byte	0xb
	.long	0x9cc4
	.uleb128 0x5
	.byte	0x1e
	.byte	0x6a
	.byte	0xb
	.long	0x9cdf
	.uleb128 0x5
	.byte	0x1e
	.byte	0x6b
	.byte	0xb
	.long	0x9cf5
	.uleb128 0x5
	.byte	0x1f
	.byte	0x61
	.byte	0x14
	.long	0x8099
	.uleb128 0x5
	.byte	0x1f
	.byte	0x62
	.byte	0x14
	.long	0x9d0b
	.uleb128 0x5
	.byte	0x1f
	.byte	0x63
	.byte	0x14
	.long	0x80ac
	.uleb128 0x5
	.byte	0x1f
	.byte	0x64
	.byte	0x14
	.long	0x80b2
	.uleb128 0x5
	.byte	0x1f
	.byte	0x65
	.byte	0x14
	.long	0x80b8
	.uleb128 0x59
	.long	.LASF57
	.byte	0x1
	.byte	0xc
	.value	0x3a6
	.byte	0xc
	.long	0xaf7
	.uleb128 0x17
	.long	.LASF58
	.byte	0xc
	.value	0x3ab
	.byte	0x9
	.long	.LASF95
	.long	0xa313
	.long	0xaec
	.uleb128 0xc
	.long	.LASF59
	.long	0xa313
	.uleb128 0xc
	.long	.LASF60
	.long	0x7556
	.uleb128 0x1
	.long	0xa313
	.uleb128 0x1
	.long	0x7556
	.byte	0
	.uleb128 0x81
	.long	.LASF61
	.long	0x8fe9
	.byte	0
	.uleb128 0x3f
	.long	.LASF62
	.byte	0x1
	.byte	0x6
	.byte	0x3f
	.long	0xc95
	.uleb128 0x23
	.long	.LASF63
	.byte	0x6
	.byte	0x58
	.byte	0x7
	.long	.LASF64
	.byte	0x1
	.long	0xb18
	.long	0xb1e
	.uleb128 0x2
	.long	0x9d1d
	.byte	0
	.uleb128 0x23
	.long	.LASF63
	.byte	0x6
	.byte	0x5c
	.byte	0x7
	.long	.LASF65
	.byte	0x1
	.long	0xb33
	.long	0xb3e
	.uleb128 0x2
	.long	0x9d1d
	.uleb128 0x1
	.long	0x9d27
	.byte	0
	.uleb128 0x4c
	.long	.LASF34
	.byte	0x6
	.byte	0x64
	.byte	0x18
	.long	.LASF68
	.long	0x9d2c
	.long	0xb56
	.long	0xb61
	.uleb128 0x2
	.long	0x9d1d
	.uleb128 0x1
	.long	0x9d27
	.byte	0
	.uleb128 0x23
	.long	.LASF69
	.byte	0x6
	.byte	0x68
	.byte	0x7
	.long	.LASF70
	.byte	0x1
	.long	0xb76
	.long	0xb7c
	.uleb128 0x2
	.long	0x9d1d
	.byte	0
	.uleb128 0x27
	.long	.LASF73
	.byte	0x6
	.byte	0x46
	.byte	0x1a
	.long	0x9d31
	.uleb128 0x21
	.long	.LASF71
	.byte	0x6
	.byte	0x6b
	.byte	0x7
	.long	.LASF72
	.long	0xb7c
	.byte	0x1
	.long	0xba1
	.long	0xbac
	.uleb128 0x2
	.long	0x9d3b
	.uleb128 0x1
	.long	0xbac
	.byte	0
	.uleb128 0x27
	.long	.LASF74
	.byte	0x6
	.byte	0x48
	.byte	0x1a
	.long	0x9d45
	.uleb128 0x27
	.long	.LASF75
	.byte	0x6
	.byte	0x47
	.byte	0x1a
	.long	0x9d4a
	.uleb128 0x21
	.long	.LASF71
	.byte	0x6
	.byte	0x6f
	.byte	0x7
	.long	.LASF76
	.long	0xbb8
	.byte	0x1
	.long	0xbdd
	.long	0xbe8
	.uleb128 0x2
	.long	0x9d3b
	.uleb128 0x1
	.long	0xbe8
	.byte	0
	.uleb128 0x27
	.long	.LASF77
	.byte	0x6
	.byte	0x49
	.byte	0x1a
	.long	0x9d4f
	.uleb128 0x21
	.long	.LASF78
	.byte	0x6
	.byte	0x81
	.byte	0x7
	.long	.LASF79
	.long	0x9d31
	.byte	0x1
	.long	0xc0d
	.long	0xc1d
	.uleb128 0x2
	.long	0x9d1d
	.uleb128 0x1
	.long	0xc1d
	.uleb128 0x1
	.long	0x903f
	.byte	0
	.uleb128 0x27
	.long	.LASF80
	.byte	0x6
	.byte	0x43
	.byte	0x1f
	.long	0x2b5
	.uleb128 0x23
	.long	.LASF81
	.byte	0x6
	.byte	0xa7
	.byte	0x7
	.long	.LASF82
	.byte	0x1
	.long	0xc3e
	.long	0xc4e
	.uleb128 0x2
	.long	0x9d1d
	.uleb128 0x1
	.long	0x9d31
	.uleb128 0x1
	.long	0xc1d
	.byte	0
	.uleb128 0x21
	.long	.LASF83
	.byte	0x6
	.byte	0xc2
	.byte	0x7
	.long	.LASF84
	.long	0xc1d
	.byte	0x1
	.long	0xc67
	.long	0xc6d
	.uleb128 0x2
	.long	0x9d3b
	.byte	0
	.uleb128 0x42
	.long	.LASF85
	.byte	0x6
	.byte	0xf2
	.byte	0x7
	.long	.LASF86
	.long	0xc1d
	.long	0xc85
	.long	0xc8b
	.uleb128 0x2
	.long	0x9d3b
	.byte	0
	.uleb128 0xf
	.string	"_Tp"
	.long	0x8fff
	.byte	0
	.uleb128 0x7
	.long	0xaf7
	.uleb128 0x3f
	.long	.LASF87
	.byte	0x1
	.byte	0x5
	.byte	0x85
	.long	0xd1e
	.uleb128 0x46
	.long	0xaf7
	.byte	0x1
	.uleb128 0x23
	.long	.LASF88
	.byte	0x5
	.byte	0xa8
	.byte	0x7
	.long	.LASF89
	.byte	0x1
	.long	0xcc1
	.long	0xcc7
	.uleb128 0x2
	.long	0x9d54
	.byte	0
	.uleb128 0x23
	.long	.LASF88
	.byte	0x5
	.byte	0xac
	.byte	0x7
	.long	.LASF90
	.byte	0x1
	.long	0xcdc
	.long	0xce7
	.uleb128 0x2
	.long	0x9d54
	.uleb128 0x1
	.long	0x9d5e
	.byte	0
	.uleb128 0x4c
	.long	.LASF34
	.byte	0x5
	.byte	0xb1
	.byte	0x12
	.long	.LASF91
	.long	0x9d63
	.long	0xcff
	.long	0xd0a
	.uleb128 0x2
	.long	0x9d54
	.uleb128 0x1
	.long	0x9d5e
	.byte	0
	.uleb128 0x6a
	.long	.LASF92
	.long	.LASF93
	.long	0xd17
	.uleb128 0x2
	.long	0x9d54
	.byte	0
	.byte	0
	.uleb128 0x7
	.long	0xc9a
	.uleb128 0x59
	.long	.LASF94
	.byte	0x1
	.byte	0x8
	.value	0x248
	.byte	0xc
	.long	0xe21
	.uleb128 0x1d
	.long	.LASF73
	.byte	0x8
	.value	0x251
	.byte	0xd
	.long	0x9d31
	.uleb128 0x17
	.long	.LASF78
	.byte	0x8
	.value	0x27d
	.byte	0x7
	.long	.LASF96
	.long	0xd31
	.long	0xd5e
	.uleb128 0x1
	.long	0x9d68
	.uleb128 0x1
	.long	0xd70
	.byte	0
	.uleb128 0x1d
	.long	.LASF97
	.byte	0x8
	.value	0x24b
	.byte	0xd
	.long	0xc9a
	.uleb128 0x7
	.long	0xd5e
	.uleb128 0x1d
	.long	.LASF80
	.byte	0x8
	.value	0x260
	.byte	0xd
	.long	0x2b5
	.uleb128 0x17
	.long	.LASF78
	.byte	0x8
	.value	0x28c
	.byte	0x7
	.long	.LASF98
	.long	0xd31
	.long	0xda2
	.uleb128 0x1
	.long	0x9d68
	.uleb128 0x1
	.long	0xd70
	.uleb128 0x1
	.long	0xda2
	.byte	0
	.uleb128 0x1d
	.long	.LASF99
	.byte	0x8
	.value	0x25a
	.byte	0xd
	.long	0x903f
	.uleb128 0x3b
	.long	.LASF81
	.byte	0x8
	.value	0x2b0
	.byte	0x7
	.long	.LASF302
	.long	0xdd0
	.uleb128 0x1
	.long	0x9d68
	.uleb128 0x1
	.long	0xd31
	.uleb128 0x1
	.long	0xd70
	.byte	0
	.uleb128 0x17
	.long	.LASF83
	.byte	0x8
	.value	0x2ed
	.byte	0x7
	.long	.LASF100
	.long	0xd70
	.long	0xdeb
	.uleb128 0x1
	.long	0x9d6d
	.byte	0
	.uleb128 0x17
	.long	.LASF101
	.byte	0x8
	.value	0x2fd
	.byte	0x7
	.long	.LASF102
	.long	0xd5e
	.long	0xe06
	.uleb128 0x1
	.long	0x9d6d
	.byte	0
	.uleb128 0x1d
	.long	.LASF5
	.byte	0x8
	.value	0x24e
	.byte	0xd
	.long	0x8fff
	.uleb128 0x1d
	.long	.LASF103
	.byte	0x8
	.value	0x26f
	.byte	0x8
	.long	0xc9a
	.byte	0
	.uleb128 0x1a
	.long	.LASF104
	.byte	0x18
	.byte	0x2
	.byte	0x5b
	.byte	0xc
	.long	0x11c2
	.uleb128 0x1a
	.long	.LASF105
	.byte	0x18
	.byte	0x2
	.byte	0x62
	.byte	0xe
	.long	0xed4
	.uleb128 0x10
	.long	.LASF107
	.byte	0x2
	.byte	0x64
	.byte	0xa
	.long	0xed9
	.byte	0
	.uleb128 0x10
	.long	.LASF108
	.byte	0x2
	.byte	0x65
	.byte	0xa
	.long	0xed9
	.byte	0x8
	.uleb128 0x10
	.long	.LASF109
	.byte	0x2
	.byte	0x66
	.byte	0xa
	.long	0xed9
	.byte	0x10
	.uleb128 0x22
	.long	.LASF105
	.byte	0x2
	.byte	0x69
	.byte	0x2
	.long	.LASF110
	.long	0xe76
	.long	0xe7c
	.uleb128 0x2
	.long	0x9d7c
	.byte	0
	.uleb128 0x22
	.long	.LASF105
	.byte	0x2
	.byte	0x6f
	.byte	0x2
	.long	.LASF111
	.long	0xe90
	.long	0xe9b
	.uleb128 0x2
	.long	0x9d7c
	.uleb128 0x1
	.long	0x9d86
	.byte	0
	.uleb128 0x22
	.long	.LASF112
	.byte	0x2
	.byte	0x77
	.byte	0x2
	.long	.LASF113
	.long	0xeaf
	.long	0xeba
	.uleb128 0x2
	.long	0x9d7c
	.uleb128 0x1
	.long	0x9d8b
	.byte	0
	.uleb128 0x63
	.long	.LASF114
	.byte	0x80
	.long	.LASF310
	.long	0xec8
	.uleb128 0x2
	.long	0x9d7c
	.uleb128 0x1
	.long	0x9d90
	.byte	0
	.byte	0
	.uleb128 0x7
	.long	0xe2e
	.uleb128 0x9
	.long	.LASF73
	.byte	0x2
	.byte	0x60
	.byte	0x9
	.long	0x8195
	.uleb128 0x1a
	.long	.LASF115
	.byte	0x18
	.byte	0x2
	.byte	0x8b
	.byte	0xe
	.long	0xfab
	.uleb128 0x33
	.long	0xc9a
	.uleb128 0x33
	.long	0xe2e
	.uleb128 0x22
	.long	.LASF115
	.byte	0x2
	.byte	0x8f
	.byte	0x2
	.long	.LASF116
	.long	0xf10
	.long	0xf16
	.uleb128 0x2
	.long	0x9d95
	.byte	0
	.uleb128 0x22
	.long	.LASF115
	.byte	0x2
	.byte	0x98
	.byte	0x2
	.long	.LASF117
	.long	0xf2a
	.long	0xf35
	.uleb128 0x2
	.long	0x9d95
	.uleb128 0x1
	.long	0x9d9f
	.byte	0
	.uleb128 0x22
	.long	.LASF115
	.byte	0x2
	.byte	0xa0
	.byte	0x2
	.long	.LASF118
	.long	0xf49
	.long	0xf54
	.uleb128 0x2
	.long	0x9d95
	.uleb128 0x1
	.long	0x9da4
	.byte	0
	.uleb128 0x22
	.long	.LASF115
	.byte	0x2
	.byte	0xa5
	.byte	0x2
	.long	.LASF119
	.long	0xf68
	.long	0xf73
	.uleb128 0x2
	.long	0x9d95
	.uleb128 0x1
	.long	0x9da9
	.byte	0
	.uleb128 0x22
	.long	.LASF115
	.byte	0x2
	.byte	0xaa
	.byte	0x2
	.long	.LASF120
	.long	0xf87
	.long	0xf97
	.uleb128 0x2
	.long	0x9d95
	.uleb128 0x1
	.long	0x9da9
	.uleb128 0x1
	.long	0x9da4
	.byte	0
	.uleb128 0x6b
	.long	.LASF472
	.long	.LASF473
	.long	0xfa4
	.uleb128 0x2
	.long	0x9d95
	.byte	0
	.byte	0
	.uleb128 0x9
	.long	.LASF121
	.byte	0x2
	.byte	0x5e
	.byte	0x15
	.long	0x81c6
	.uleb128 0x7
	.long	0xfab
	.uleb128 0x34
	.long	.LASF122
	.value	0x133
	.byte	0x7
	.long	.LASF123
	.long	0x9dae
	.long	0xfd4
	.long	0xfda
	.uleb128 0x2
	.long	0x9db3
	.byte	0
	.uleb128 0x34
	.long	.LASF122
	.value	0x138
	.byte	0x7
	.long	.LASF124
	.long	0x9d9f
	.long	0xff2
	.long	0xff8
	.uleb128 0x2
	.long	0x9dbd
	.byte	0
	.uleb128 0x1d
	.long	.LASF97
	.byte	0x2
	.value	0x12f
	.byte	0x16
	.long	0xc9a
	.uleb128 0x7
	.long	0xff8
	.uleb128 0x34
	.long	.LASF125
	.value	0x13d
	.byte	0x7
	.long	.LASF126
	.long	0xff8
	.long	0x1022
	.long	0x1028
	.uleb128 0x2
	.long	0x9dbd
	.byte	0
	.uleb128 0x4d
	.long	.LASF127
	.value	0x141
	.long	.LASF128
	.long	0x103b
	.long	0x1041
	.uleb128 0x2
	.long	0x9db3
	.byte	0
	.uleb128 0x1c
	.long	.LASF127
	.value	0x147
	.long	.LASF129
	.long	0x1054
	.long	0x105f
	.uleb128 0x2
	.long	0x9db3
	.uleb128 0x1
	.long	0x9dc2
	.byte	0
	.uleb128 0x1c
	.long	.LASF127
	.value	0x14d
	.long	.LASF130
	.long	0x1072
	.long	0x107d
	.uleb128 0x2
	.long	0x9db3
	.uleb128 0x1
	.long	0x2b5
	.byte	0
	.uleb128 0x1c
	.long	.LASF127
	.value	0x153
	.long	.LASF131
	.long	0x1090
	.long	0x10a0
	.uleb128 0x2
	.long	0x9db3
	.uleb128 0x1
	.long	0x2b5
	.uleb128 0x1
	.long	0x9dc2
	.byte	0
	.uleb128 0x4d
	.long	.LASF127
	.value	0x158
	.long	.LASF132
	.long	0x10b3
	.long	0x10be
	.uleb128 0x2
	.long	0x9db3
	.uleb128 0x1
	.long	0x9dc7
	.byte	0
	.uleb128 0x1c
	.long	.LASF127
	.value	0x15d
	.long	.LASF133
	.long	0x10d1
	.long	0x10dc
	.uleb128 0x2
	.long	0x9db3
	.uleb128 0x1
	.long	0x9da9
	.byte	0
	.uleb128 0x1c
	.long	.LASF127
	.value	0x161
	.long	.LASF134
	.long	0x10ef
	.long	0x10ff
	.uleb128 0x2
	.long	0x9db3
	.uleb128 0x1
	.long	0x9dc7
	.uleb128 0x1
	.long	0x9dc2
	.byte	0
	.uleb128 0x1c
	.long	.LASF127
	.value	0x16f
	.long	.LASF135
	.long	0x1112
	.long	0x1122
	.uleb128 0x2
	.long	0x9db3
	.uleb128 0x1
	.long	0x9dc2
	.uleb128 0x1
	.long	0x9dc7
	.byte	0
	.uleb128 0x1c
	.long	.LASF136
	.value	0x175
	.long	.LASF137
	.long	0x1135
	.long	0x113b
	.uleb128 0x2
	.long	0x9db3
	.byte	0
	.uleb128 0x4e
	.long	.LASF138
	.value	0x17e
	.byte	0x14
	.long	0xee5
	.byte	0
	.uleb128 0x34
	.long	.LASF139
	.value	0x182
	.byte	0x7
	.long	.LASF140
	.long	0xed9
	.long	0x1160
	.long	0x116b
	.uleb128 0x2
	.long	0x9db3
	.uleb128 0x1
	.long	0x2b5
	.byte	0
	.uleb128 0x1c
	.long	.LASF141
	.value	0x18a
	.long	.LASF142
	.long	0x117e
	.long	0x118e
	.uleb128 0x2
	.long	0x9db3
	.uleb128 0x1
	.long	0xed9
	.uleb128 0x1
	.long	0x2b5
	.byte	0
	.uleb128 0x11
	.long	.LASF143
	.byte	0x2
	.value	0x195
	.byte	0x7
	.long	.LASF144
	.byte	0x2
	.long	0x11a4
	.long	0x11af
	.uleb128 0x2
	.long	0x9db3
	.uleb128 0x1
	.long	0x2b5
	.byte	0
	.uleb128 0xf
	.string	"_Tp"
	.long	0x8fff
	.uleb128 0xc
	.long	.LASF145
	.long	0xc9a
	.byte	0
	.uleb128 0x7
	.long	0xe21
	.uleb128 0x1a
	.long	.LASF146
	.byte	0x1
	.byte	0x10
	.byte	0xa9
	.byte	0xc
	.long	0x11ea
	.uleb128 0x9
	.long	.LASF147
	.byte	0x10
	.byte	0xaa
	.byte	0xd
	.long	0xc9a
	.uleb128 0xc
	.long	.LASF148
	.long	0xc9a
	.byte	0
	.uleb128 0x4a
	.long	.LASF149
	.byte	0x18
	.byte	0x2
	.value	0x1cc
	.long	0x1dc3
	.uleb128 0x19
	.byte	0x2
	.value	0x1cc
	.byte	0xb
	.long	0x1148
	.uleb128 0x19
	.byte	0x2
	.value	0x1cc
	.byte	0xb
	.long	0x116b
	.uleb128 0x19
	.byte	0x2
	.value	0x1cc
	.byte	0xb
	.long	0x113b
	.uleb128 0x19
	.byte	0x2
	.value	0x1cc
	.byte	0xb
	.long	0xfda
	.uleb128 0x19
	.byte	0x2
	.value	0x1cc
	.byte	0xb
	.long	0xfbc
	.uleb128 0x19
	.byte	0x2
	.value	0x1cc
	.byte	0xb
	.long	0x100a
	.uleb128 0x46
	.long	0xe21
	.byte	0x2
	.uleb128 0x17
	.long	.LASF150
	.byte	0x2
	.value	0x1f6
	.byte	0x7
	.long	.LASF151
	.long	0x8fe9
	.long	0x124e
	.uleb128 0x1
	.long	0x62f
	.byte	0
	.uleb128 0x17
	.long	.LASF150
	.byte	0x2
	.value	0x1ff
	.byte	0x7
	.long	.LASF152
	.long	0x8fe9
	.long	0x1269
	.uleb128 0x1
	.long	0x3a3
	.byte	0
	.uleb128 0x6c
	.long	.LASF336
	.long	.LASF337
	.long	0x8fe9
	.uleb128 0x16
	.long	.LASF73
	.byte	0x2
	.value	0x1e6
	.byte	0x29
	.long	0xed9
	.uleb128 0x17
	.long	.LASF153
	.byte	0x2
	.value	0x20c
	.byte	0x7
	.long	.LASF154
	.long	0x1276
	.long	0x12ad
	.uleb128 0x1
	.long	0x1276
	.uleb128 0x1
	.long	0x1276
	.uleb128 0x1
	.long	0x1276
	.uleb128 0x1
	.long	0x9dcc
	.byte	0
	.uleb128 0x1d
	.long	.LASF121
	.byte	0x2
	.value	0x1e1
	.byte	0x2f
	.long	0xfab
	.uleb128 0x7
	.long	0x12ad
	.uleb128 0x4f
	.long	.LASF155
	.value	0x227
	.long	.LASF156
	.long	0x12d2
	.long	0x12d8
	.uleb128 0x2
	.long	0x9dd1
	.byte	0
	.uleb128 0x43
	.long	.LASF155
	.byte	0x2
	.value	0x232
	.long	.LASF157
	.long	0x12ec
	.long	0x12f7
	.uleb128 0x2
	.long	0x9dd1
	.uleb128 0x1
	.long	0x9ddb
	.byte	0
	.uleb128 0x16
	.long	.LASF97
	.byte	0x2
	.value	0x1f1
	.byte	0x1a
	.long	0xc9a
	.uleb128 0x7
	.long	0x12f7
	.uleb128 0x43
	.long	.LASF155
	.byte	0x2
	.value	0x240
	.long	.LASF158
	.long	0x131d
	.long	0x132d
	.uleb128 0x2
	.long	0x9dd1
	.uleb128 0x1
	.long	0x132d
	.uleb128 0x1
	.long	0x9ddb
	.byte	0
	.uleb128 0x16
	.long	.LASF80
	.byte	0x2
	.value	0x1ef
	.byte	0x1a
	.long	0x2b5
	.uleb128 0x7
	.long	0x132d
	.uleb128 0x11
	.long	.LASF155
	.byte	0x2
	.value	0x24d
	.byte	0x7
	.long	.LASF159
	.byte	0x1
	.long	0x1355
	.long	0x136a
	.uleb128 0x2
	.long	0x9dd1
	.uleb128 0x1
	.long	0x132d
	.uleb128 0x1
	.long	0x9de0
	.uleb128 0x1
	.long	0x9ddb
	.byte	0
	.uleb128 0x16
	.long	.LASF5
	.byte	0x2
	.value	0x1e5
	.byte	0x17
	.long	0x8fff
	.uleb128 0x7
	.long	0x136a
	.uleb128 0x11
	.long	.LASF155
	.byte	0x2
	.value	0x26d
	.byte	0x7
	.long	.LASF160
	.byte	0x1
	.long	0x1392
	.long	0x139d
	.uleb128 0x2
	.long	0x9dd1
	.uleb128 0x1
	.long	0x9de5
	.byte	0
	.uleb128 0x4f
	.long	.LASF155
	.value	0x280
	.long	.LASF161
	.long	0x13b0
	.long	0x13bb
	.uleb128 0x2
	.long	0x9dd1
	.uleb128 0x1
	.long	0x9dea
	.byte	0
	.uleb128 0x11
	.long	.LASF155
	.byte	0x2
	.value	0x284
	.byte	0x7
	.long	.LASF162
	.byte	0x1
	.long	0x13d1
	.long	0x13e1
	.uleb128 0x2
	.long	0x9dd1
	.uleb128 0x1
	.long	0x9de5
	.uleb128 0x1
	.long	0x9def
	.byte	0
	.uleb128 0x1c
	.long	.LASF155
	.value	0x28f
	.long	.LASF163
	.long	0x13f4
	.long	0x1409
	.uleb128 0x2
	.long	0x9dd1
	.uleb128 0x1
	.long	0x9dea
	.uleb128 0x1
	.long	0x9ddb
	.uleb128 0x1
	.long	0x62f
	.byte	0
	.uleb128 0x1c
	.long	.LASF155
	.value	0x294
	.long	.LASF164
	.long	0x141c
	.long	0x1431
	.uleb128 0x2
	.long	0x9dd1
	.uleb128 0x1
	.long	0x9dea
	.uleb128 0x1
	.long	0x9ddb
	.uleb128 0x1
	.long	0x3a3
	.byte	0
	.uleb128 0x11
	.long	.LASF155
	.byte	0x2
	.value	0x2a7
	.byte	0x7
	.long	.LASF165
	.byte	0x1
	.long	0x1447
	.long	0x1457
	.uleb128 0x2
	.long	0x9dd1
	.uleb128 0x1
	.long	0x9dea
	.uleb128 0x1
	.long	0x9def
	.byte	0
	.uleb128 0x11
	.long	.LASF155
	.byte	0x2
	.value	0x2ba
	.byte	0x7
	.long	.LASF166
	.byte	0x1
	.long	0x146d
	.long	0x147d
	.uleb128 0x2
	.long	0x9dd1
	.uleb128 0x1
	.long	0x1dd9
	.uleb128 0x1
	.long	0x9ddb
	.byte	0
	.uleb128 0x11
	.long	.LASF167
	.byte	0x2
	.value	0x316
	.byte	0x7
	.long	.LASF168
	.byte	0x1
	.long	0x1493
	.long	0x1499
	.uleb128 0x2
	.long	0x9dd1
	.byte	0
	.uleb128 0x21
	.long	.LASF34
	.byte	0x7
	.byte	0xd6
	.byte	0x5
	.long	.LASF169
	.long	0x9df4
	.byte	0x1
	.long	0x14b2
	.long	0x14bd
	.uleb128 0x2
	.long	0x9dd1
	.uleb128 0x1
	.long	0x9de5
	.byte	0
	.uleb128 0x6
	.long	.LASF34
	.byte	0x2
	.value	0x337
	.byte	0x7
	.long	.LASF170
	.long	0x9df4
	.byte	0x1
	.long	0x14d7
	.long	0x14e2
	.uleb128 0x2
	.long	0x9dd1
	.uleb128 0x1
	.long	0x9dea
	.byte	0
	.uleb128 0x6
	.long	.LASF34
	.byte	0x2
	.value	0x34d
	.byte	0x7
	.long	.LASF171
	.long	0x9df4
	.byte	0x1
	.long	0x14fc
	.long	0x1507
	.uleb128 0x2
	.long	0x9dd1
	.uleb128 0x1
	.long	0x1dd9
	.byte	0
	.uleb128 0x11
	.long	.LASF172
	.byte	0x2
	.value	0x361
	.byte	0x7
	.long	.LASF173
	.byte	0x1
	.long	0x151d
	.long	0x152d
	.uleb128 0x2
	.long	0x9dd1
	.uleb128 0x1
	.long	0x132d
	.uleb128 0x1
	.long	0x9de0
	.byte	0
	.uleb128 0x11
	.long	.LASF172
	.byte	0x2
	.value	0x390
	.byte	0x7
	.long	.LASF174
	.byte	0x1
	.long	0x1543
	.long	0x154e
	.uleb128 0x2
	.long	0x9dd1
	.uleb128 0x1
	.long	0x1dd9
	.byte	0
	.uleb128 0x16
	.long	.LASF175
	.byte	0x2
	.value	0x1ea
	.byte	0x3d
	.long	0x81e6
	.uleb128 0x6
	.long	.LASF176
	.byte	0x2
	.value	0x3dc
	.byte	0x7
	.long	.LASF177
	.long	0x154e
	.byte	0x1
	.long	0x1575
	.long	0x157b
	.uleb128 0x2
	.long	0x9dd1
	.byte	0
	.uleb128 0x16
	.long	.LASF178
	.byte	0x2
	.value	0x1ec
	.byte	0x7
	.long	0x8419
	.uleb128 0x6
	.long	.LASF176
	.byte	0x2
	.value	0x3e6
	.byte	0x7
	.long	.LASF179
	.long	0x157b
	.byte	0x1
	.long	0x15a2
	.long	0x15a8
	.uleb128 0x2
	.long	0x9df9
	.byte	0
	.uleb128 0x37
	.string	"end"
	.value	0x3f0
	.long	.LASF180
	.long	0x154e
	.long	0x15bf
	.long	0x15c5
	.uleb128 0x2
	.long	0x9dd1
	.byte	0
	.uleb128 0x37
	.string	"end"
	.value	0x3fa
	.long	.LASF181
	.long	0x157b
	.long	0x15dc
	.long	0x15e2
	.uleb128 0x2
	.long	0x9df9
	.byte	0
	.uleb128 0x16
	.long	.LASF182
	.byte	0x2
	.value	0x1ee
	.byte	0x30
	.long	0x1dde
	.uleb128 0x6
	.long	.LASF183
	.byte	0x2
	.value	0x404
	.byte	0x7
	.long	.LASF184
	.long	0x15e2
	.byte	0x1
	.long	0x1609
	.long	0x160f
	.uleb128 0x2
	.long	0x9dd1
	.byte	0
	.uleb128 0x16
	.long	.LASF185
	.byte	0x2
	.value	0x1ed
	.byte	0x35
	.long	0x1de3
	.uleb128 0x6
	.long	.LASF183
	.byte	0x2
	.value	0x40e
	.byte	0x7
	.long	.LASF186
	.long	0x160f
	.byte	0x1
	.long	0x1636
	.long	0x163c
	.uleb128 0x2
	.long	0x9df9
	.byte	0
	.uleb128 0x6
	.long	.LASF187
	.byte	0x2
	.value	0x418
	.byte	0x7
	.long	.LASF188
	.long	0x15e2
	.byte	0x1
	.long	0x1656
	.long	0x165c
	.uleb128 0x2
	.long	0x9dd1
	.byte	0
	.uleb128 0x6
	.long	.LASF187
	.byte	0x2
	.value	0x422
	.byte	0x7
	.long	.LASF189
	.long	0x160f
	.byte	0x1
	.long	0x1676
	.long	0x167c
	.uleb128 0x2
	.long	0x9df9
	.byte	0
	.uleb128 0x6
	.long	.LASF190
	.byte	0x2
	.value	0x42d
	.byte	0x7
	.long	.LASF191
	.long	0x157b
	.byte	0x1
	.long	0x1696
	.long	0x169c
	.uleb128 0x2
	.long	0x9df9
	.byte	0
	.uleb128 0x6
	.long	.LASF192
	.byte	0x2
	.value	0x437
	.byte	0x7
	.long	.LASF193
	.long	0x157b
	.byte	0x1
	.long	0x16b6
	.long	0x16bc
	.uleb128 0x2
	.long	0x9df9
	.byte	0
	.uleb128 0x6
	.long	.LASF194
	.byte	0x2
	.value	0x441
	.byte	0x7
	.long	.LASF195
	.long	0x160f
	.byte	0x1
	.long	0x16d6
	.long	0x16dc
	.uleb128 0x2
	.long	0x9df9
	.byte	0
	.uleb128 0x6
	.long	.LASF196
	.byte	0x2
	.value	0x44b
	.byte	0x7
	.long	.LASF197
	.long	0x160f
	.byte	0x1
	.long	0x16f6
	.long	0x16fc
	.uleb128 0x2
	.long	0x9df9
	.byte	0
	.uleb128 0x6
	.long	.LASF198
	.byte	0x2
	.value	0x453
	.byte	0x7
	.long	.LASF199
	.long	0x132d
	.byte	0x1
	.long	0x1716
	.long	0x171c
	.uleb128 0x2
	.long	0x9df9
	.byte	0
	.uleb128 0x6
	.long	.LASF83
	.byte	0x2
	.value	0x45e
	.byte	0x7
	.long	.LASF200
	.long	0x132d
	.byte	0x1
	.long	0x1736
	.long	0x173c
	.uleb128 0x2
	.long	0x9df9
	.byte	0
	.uleb128 0x11
	.long	.LASF201
	.byte	0x2
	.value	0x46d
	.byte	0x7
	.long	.LASF202
	.byte	0x1
	.long	0x1752
	.long	0x175d
	.uleb128 0x2
	.long	0x9dd1
	.uleb128 0x1
	.long	0x132d
	.byte	0
	.uleb128 0x11
	.long	.LASF201
	.byte	0x2
	.value	0x482
	.byte	0x7
	.long	.LASF203
	.byte	0x1
	.long	0x1773
	.long	0x1783
	.uleb128 0x2
	.long	0x9dd1
	.uleb128 0x1
	.long	0x132d
	.uleb128 0x1
	.long	0x9de0
	.byte	0
	.uleb128 0x11
	.long	.LASF204
	.byte	0x2
	.value	0x4a4
	.byte	0x7
	.long	.LASF205
	.byte	0x1
	.long	0x1799
	.long	0x179f
	.uleb128 0x2
	.long	0x9dd1
	.byte	0
	.uleb128 0x6
	.long	.LASF206
	.byte	0x2
	.value	0x4ae
	.byte	0x7
	.long	.LASF207
	.long	0x132d
	.byte	0x1
	.long	0x17b9
	.long	0x17bf
	.uleb128 0x2
	.long	0x9df9
	.byte	0
	.uleb128 0x6
	.long	.LASF208
	.byte	0x2
	.value	0x4bd
	.byte	0x7
	.long	.LASF209
	.long	0x8fe9
	.byte	0x1
	.long	0x17d9
	.long	0x17df
	.uleb128 0x2
	.long	0x9df9
	.byte	0
	.uleb128 0x23
	.long	.LASF210
	.byte	0x7
	.byte	0x46
	.byte	0x5
	.long	.LASF211
	.byte	0x1
	.long	0x17f4
	.long	0x17ff
	.uleb128 0x2
	.long	0x9dd1
	.uleb128 0x1
	.long	0x132d
	.byte	0
	.uleb128 0x16
	.long	.LASF74
	.byte	0x2
	.value	0x1e8
	.byte	0x32
	.long	0x81a1
	.uleb128 0x6
	.long	.LASF212
	.byte	0x2
	.value	0x4e3
	.byte	0x7
	.long	.LASF213
	.long	0x17ff
	.byte	0x1
	.long	0x1826
	.long	0x1831
	.uleb128 0x2
	.long	0x9dd1
	.uleb128 0x1
	.long	0x132d
	.byte	0
	.uleb128 0x16
	.long	.LASF77
	.byte	0x2
	.value	0x1e9
	.byte	0x37
	.long	0x81ad
	.uleb128 0x6
	.long	.LASF212
	.byte	0x2
	.value	0x4f6
	.byte	0x7
	.long	.LASF214
	.long	0x1831
	.byte	0x1
	.long	0x1858
	.long	0x1863
	.uleb128 0x2
	.long	0x9df9
	.uleb128 0x1
	.long	0x132d
	.byte	0
	.uleb128 0x11
	.long	.LASF215
	.byte	0x2
	.value	0x500
	.byte	0x7
	.long	.LASF216
	.byte	0x2
	.long	0x1879
	.long	0x1884
	.uleb128 0x2
	.long	0x9df9
	.uleb128 0x1
	.long	0x132d
	.byte	0
	.uleb128 0x37
	.string	"at"
	.value	0x517
	.long	.LASF217
	.long	0x17ff
	.long	0x189a
	.long	0x18a5
	.uleb128 0x2
	.long	0x9dd1
	.uleb128 0x1
	.long	0x132d
	.byte	0
	.uleb128 0x37
	.string	"at"
	.value	0x52a
	.long	.LASF218
	.long	0x1831
	.long	0x18bb
	.long	0x18c6
	.uleb128 0x2
	.long	0x9df9
	.uleb128 0x1
	.long	0x132d
	.byte	0
	.uleb128 0x6
	.long	.LASF219
	.byte	0x2
	.value	0x536
	.byte	0x7
	.long	.LASF220
	.long	0x17ff
	.byte	0x1
	.long	0x18e0
	.long	0x18e6
	.uleb128 0x2
	.long	0x9dd1
	.byte	0
	.uleb128 0x6
	.long	.LASF219
	.byte	0x2
	.value	0x542
	.byte	0x7
	.long	.LASF221
	.long	0x1831
	.byte	0x1
	.long	0x1900
	.long	0x1906
	.uleb128 0x2
	.long	0x9df9
	.byte	0
	.uleb128 0x6
	.long	.LASF222
	.byte	0x2
	.value	0x54e
	.byte	0x7
	.long	.LASF223
	.long	0x17ff
	.byte	0x1
	.long	0x1920
	.long	0x1926
	.uleb128 0x2
	.long	0x9dd1
	.byte	0
	.uleb128 0x6
	.long	.LASF222
	.byte	0x2
	.value	0x55a
	.byte	0x7
	.long	.LASF224
	.long	0x1831
	.byte	0x1
	.long	0x1940
	.long	0x1946
	.uleb128 0x2
	.long	0x9df9
	.byte	0
	.uleb128 0x6
	.long	.LASF225
	.byte	0x2
	.value	0x569
	.byte	0x7
	.long	.LASF226
	.long	0x9d31
	.byte	0x1
	.long	0x1960
	.long	0x1966
	.uleb128 0x2
	.long	0x9dd1
	.byte	0
	.uleb128 0x6
	.long	.LASF225
	.byte	0x2
	.value	0x56e
	.byte	0x7
	.long	.LASF227
	.long	0x9d4a
	.byte	0x1
	.long	0x1980
	.long	0x1986
	.uleb128 0x2
	.long	0x9df9
	.byte	0
	.uleb128 0x11
	.long	.LASF228
	.byte	0x2
	.value	0x57e
	.byte	0x7
	.long	.LASF229
	.byte	0x1
	.long	0x199c
	.long	0x19a7
	.uleb128 0x2
	.long	0x9dd1
	.uleb128 0x1
	.long	0x9de0
	.byte	0
	.uleb128 0x11
	.long	.LASF228
	.byte	0x2
	.value	0x58f
	.byte	0x7
	.long	.LASF230
	.byte	0x1
	.long	0x19bd
	.long	0x19c8
	.uleb128 0x2
	.long	0x9dd1
	.uleb128 0x1
	.long	0x9e03
	.byte	0
	.uleb128 0x11
	.long	.LASF231
	.byte	0x2
	.value	0x5a7
	.byte	0x7
	.long	.LASF232
	.byte	0x1
	.long	0x19de
	.long	0x19e4
	.uleb128 0x2
	.long	0x9dd1
	.byte	0
	.uleb128 0x21
	.long	.LASF233
	.byte	0x7
	.byte	0x89
	.byte	0x5
	.long	.LASF234
	.long	0x154e
	.byte	0x1
	.long	0x19fd
	.long	0x1a0d
	.uleb128 0x2
	.long	0x9dd1
	.uleb128 0x1
	.long	0x157b
	.uleb128 0x1
	.long	0x9de0
	.byte	0
	.uleb128 0x6
	.long	.LASF233
	.byte	0x2
	.value	0x5ee
	.byte	0x7
	.long	.LASF235
	.long	0x154e
	.byte	0x1
	.long	0x1a27
	.long	0x1a37
	.uleb128 0x2
	.long	0x9dd1
	.uleb128 0x1
	.long	0x157b
	.uleb128 0x1
	.long	0x9e03
	.byte	0
	.uleb128 0x6
	.long	.LASF233
	.byte	0x2
	.value	0x600
	.byte	0x7
	.long	.LASF236
	.long	0x154e
	.byte	0x1
	.long	0x1a51
	.long	0x1a61
	.uleb128 0x2
	.long	0x9dd1
	.uleb128 0x1
	.long	0x157b
	.uleb128 0x1
	.long	0x1dd9
	.byte	0
	.uleb128 0x6
	.long	.LASF233
	.byte	0x2
	.value	0x61a
	.byte	0x7
	.long	.LASF237
	.long	0x154e
	.byte	0x1
	.long	0x1a7b
	.long	0x1a90
	.uleb128 0x2
	.long	0x9dd1
	.uleb128 0x1
	.long	0x157b
	.uleb128 0x1
	.long	0x132d
	.uleb128 0x1
	.long	0x9de0
	.byte	0
	.uleb128 0x6
	.long	.LASF238
	.byte	0x2
	.value	0x6f6
	.byte	0x7
	.long	.LASF239
	.long	0x154e
	.byte	0x1
	.long	0x1aaa
	.long	0x1ab5
	.uleb128 0x2
	.long	0x9dd1
	.uleb128 0x1
	.long	0x157b
	.byte	0
	.uleb128 0x6
	.long	.LASF238
	.byte	0x2
	.value	0x712
	.byte	0x7
	.long	.LASF240
	.long	0x154e
	.byte	0x1
	.long	0x1acf
	.long	0x1adf
	.uleb128 0x2
	.long	0x9dd1
	.uleb128 0x1
	.long	0x157b
	.uleb128 0x1
	.long	0x157b
	.byte	0
	.uleb128 0x11
	.long	.LASF39
	.byte	0x2
	.value	0x72a
	.byte	0x7
	.long	.LASF241
	.byte	0x1
	.long	0x1af5
	.long	0x1b00
	.uleb128 0x2
	.long	0x9dd1
	.uleb128 0x1
	.long	0x9df4
	.byte	0
	.uleb128 0x11
	.long	.LASF242
	.byte	0x2
	.value	0x73d
	.byte	0x7
	.long	.LASF243
	.byte	0x1
	.long	0x1b16
	.long	0x1b1c
	.uleb128 0x2
	.long	0x9dd1
	.byte	0
	.uleb128 0x11
	.long	.LASF244
	.byte	0x2
	.value	0x7c3
	.byte	0x7
	.long	.LASF245
	.byte	0x2
	.long	0x1b32
	.long	0x1b42
	.uleb128 0x2
	.long	0x9dd1
	.uleb128 0x1
	.long	0x132d
	.uleb128 0x1
	.long	0x9de0
	.byte	0
	.uleb128 0x11
	.long	.LASF246
	.byte	0x2
	.value	0x7ce
	.byte	0x7
	.long	.LASF247
	.byte	0x2
	.long	0x1b58
	.long	0x1b63
	.uleb128 0x2
	.long	0x9dd1
	.uleb128 0x1
	.long	0x132d
	.byte	0
	.uleb128 0x11
	.long	.LASF248
	.byte	0x7
	.value	0x112
	.byte	0x5
	.long	.LASF249
	.byte	0x2
	.long	0x1b79
	.long	0x1b89
	.uleb128 0x2
	.long	0x9dd1
	.uleb128 0x1
	.long	0x2b5
	.uleb128 0x1
	.long	0x9de0
	.byte	0
	.uleb128 0x11
	.long	.LASF250
	.byte	0x7
	.value	0x296
	.byte	0x5
	.long	.LASF251
	.byte	0x2
	.long	0x1b9f
	.long	0x1bb4
	.uleb128 0x2
	.long	0x9dd1
	.uleb128 0x1
	.long	0x154e
	.uleb128 0x1
	.long	0x132d
	.uleb128 0x1
	.long	0x9de0
	.byte	0
	.uleb128 0x11
	.long	.LASF252
	.byte	0x7
	.value	0x300
	.byte	0x5
	.long	.LASF253
	.byte	0x2
	.long	0x1bca
	.long	0x1bda
	.uleb128 0x2
	.long	0x9dd1
	.uleb128 0x1
	.long	0x132d
	.uleb128 0x1
	.long	0x9de0
	.byte	0
	.uleb128 0x11
	.long	.LASF254
	.byte	0x7
	.value	0x339
	.byte	0x5
	.long	.LASF255
	.byte	0x2
	.long	0x1bf0
	.long	0x1bfb
	.uleb128 0x2
	.long	0x9dd1
	.uleb128 0x1
	.long	0x132d
	.byte	0
	.uleb128 0x6
	.long	.LASF256
	.byte	0x7
	.value	0x396
	.byte	0x5
	.long	.LASF257
	.long	0x8fe9
	.byte	0x2
	.long	0x1c15
	.long	0x1c1b
	.uleb128 0x2
	.long	0x9dd1
	.byte	0
	.uleb128 0x6
	.long	.LASF258
	.byte	0x7
	.value	0x16f
	.byte	0x5
	.long	.LASF259
	.long	0x154e
	.byte	0x2
	.long	0x1c35
	.long	0x1c45
	.uleb128 0x2
	.long	0x9dd1
	.uleb128 0x1
	.long	0x157b
	.uleb128 0x1
	.long	0x9e03
	.byte	0
	.uleb128 0x6
	.long	.LASF260
	.byte	0x2
	.value	0x889
	.byte	0x7
	.long	.LASF261
	.long	0x154e
	.byte	0x2
	.long	0x1c5f
	.long	0x1c6f
	.uleb128 0x2
	.long	0x9dd1
	.uleb128 0x1
	.long	0x157b
	.uleb128 0x1
	.long	0x9e03
	.byte	0
	.uleb128 0x6
	.long	.LASF262
	.byte	0x2
	.value	0x890
	.byte	0x7
	.long	.LASF263
	.long	0x132d
	.byte	0x2
	.long	0x1c89
	.long	0x1c99
	.uleb128 0x2
	.long	0x9df9
	.uleb128 0x1
	.long	0x132d
	.uleb128 0x1
	.long	0x77e1
	.byte	0
	.uleb128 0x50
	.long	.LASF264
	.value	0x89b
	.long	.LASF265
	.long	0x132d
	.long	0x1cb7
	.uleb128 0x1
	.long	0x132d
	.uleb128 0x1
	.long	0x9ddb
	.byte	0
	.uleb128 0x50
	.long	.LASF266
	.value	0x8a4
	.long	.LASF267
	.long	0x132d
	.long	0x1cd0
	.uleb128 0x1
	.long	0x9e08
	.byte	0
	.uleb128 0x11
	.long	.LASF268
	.byte	0x2
	.value	0x8b5
	.byte	0x7
	.long	.LASF269
	.byte	0x2
	.long	0x1ce6
	.long	0x1cf1
	.uleb128 0x2
	.long	0x9dd1
	.uleb128 0x1
	.long	0x1276
	.byte	0
	.uleb128 0x21
	.long	.LASF270
	.byte	0x7
	.byte	0xb9
	.byte	0x5
	.long	.LASF271
	.long	0x154e
	.byte	0x2
	.long	0x1d0a
	.long	0x1d15
	.uleb128 0x2
	.long	0x9dd1
	.uleb128 0x1
	.long	0x154e
	.byte	0
	.uleb128 0x21
	.long	.LASF270
	.byte	0x7
	.byte	0xc7
	.byte	0x5
	.long	.LASF272
	.long	0x154e
	.byte	0x2
	.long	0x1d2e
	.long	0x1d3e
	.uleb128 0x2
	.long	0x9dd1
	.uleb128 0x1
	.long	0x154e
	.uleb128 0x1
	.long	0x154e
	.byte	0
	.uleb128 0x1c
	.long	.LASF273
	.value	0x8cf
	.long	.LASF274
	.long	0x1d51
	.long	0x1d61
	.uleb128 0x2
	.long	0x9dd1
	.uleb128 0x1
	.long	0x9dea
	.uleb128 0x1
	.long	0x62f
	.byte	0
	.uleb128 0x1c
	.long	.LASF273
	.value	0x8db
	.long	.LASF275
	.long	0x1d74
	.long	0x1d84
	.uleb128 0x2
	.long	0x9dd1
	.uleb128 0x1
	.long	0x9dea
	.uleb128 0x1
	.long	0x3a3
	.byte	0
	.uleb128 0x34
	.long	.LASF276
	.value	0x8ee
	.byte	0x2
	.long	.LASF277
	.long	0x9d31
	.long	0x1da5
	.long	0x1db0
	.uleb128 0xf
	.string	"_Up"
	.long	0x8fff
	.uleb128 0x2
	.long	0x9df9
	.uleb128 0x1
	.long	0x9d31
	.byte	0
	.uleb128 0xf
	.string	"_Tp"
	.long	0x8fff
	.uleb128 0x64
	.long	.LASF145
	.long	0xc9a
	.byte	0
	.uleb128 0x7
	.long	0x11ea
	.uleb128 0x9
	.long	.LASF278
	.byte	0x10
	.byte	0xad
	.byte	0xb
	.long	0x11d4
	.uleb128 0x7
	.long	0x1dc8
	.uleb128 0x2f
	.long	.LASF280
	.uleb128 0x2f
	.long	.LASF281
	.uleb128 0x2f
	.long	.LASF282
	.uleb128 0x19
	.byte	0x9
	.value	0x82c
	.byte	0xb
	.long	0x9f4d
	.uleb128 0x19
	.byte	0x9
	.value	0x82d
	.byte	0xb
	.long	0x9f41
	.uleb128 0x3f
	.long	.LASF283
	.byte	0x1
	.byte	0x6
	.byte	0x3f
	.long	0x1f98
	.uleb128 0x23
	.long	.LASF63
	.byte	0x6
	.byte	0x58
	.byte	0x7
	.long	.LASF284
	.byte	0x1
	.long	0x1e1b
	.long	0x1e21
	.uleb128 0x2
	.long	0xa025
	.byte	0
	.uleb128 0x23
	.long	.LASF63
	.byte	0x6
	.byte	0x5c
	.byte	0x7
	.long	.LASF285
	.byte	0x1
	.long	0x1e36
	.long	0x1e41
	.uleb128 0x2
	.long	0xa025
	.uleb128 0x1
	.long	0xa02a
	.byte	0
	.uleb128 0x4c
	.long	.LASF34
	.byte	0x6
	.byte	0x64
	.byte	0x18
	.long	.LASF286
	.long	0xa02f
	.long	0x1e59
	.long	0x1e64
	.uleb128 0x2
	.long	0xa025
	.uleb128 0x1
	.long	0xa02a
	.byte	0
	.uleb128 0x23
	.long	.LASF69
	.byte	0x6
	.byte	0x68
	.byte	0x7
	.long	.LASF287
	.byte	0x1
	.long	0x1e79
	.long	0x1e7f
	.uleb128 0x2
	.long	0xa025
	.byte	0
	.uleb128 0x27
	.long	.LASF73
	.byte	0x6
	.byte	0x46
	.byte	0x1a
	.long	0xa034
	.uleb128 0x21
	.long	.LASF71
	.byte	0x6
	.byte	0x6b
	.byte	0x7
	.long	.LASF288
	.long	0x1e7f
	.byte	0x1
	.long	0x1ea4
	.long	0x1eaf
	.uleb128 0x2
	.long	0xa03e
	.uleb128 0x1
	.long	0x1eaf
	.byte	0
	.uleb128 0x27
	.long	.LASF74
	.byte	0x6
	.byte	0x48
	.byte	0x1a
	.long	0xa043
	.uleb128 0x27
	.long	.LASF75
	.byte	0x6
	.byte	0x47
	.byte	0x1a
	.long	0xa048
	.uleb128 0x21
	.long	.LASF71
	.byte	0x6
	.byte	0x6f
	.byte	0x7
	.long	.LASF289
	.long	0x1ebb
	.byte	0x1
	.long	0x1ee0
	.long	0x1eeb
	.uleb128 0x2
	.long	0xa03e
	.uleb128 0x1
	.long	0x1eeb
	.byte	0
	.uleb128 0x27
	.long	.LASF77
	.byte	0x6
	.byte	0x49
	.byte	0x1a
	.long	0xa052
	.uleb128 0x21
	.long	.LASF78
	.byte	0x6
	.byte	0x81
	.byte	0x7
	.long	.LASF290
	.long	0xa034
	.byte	0x1
	.long	0x1f10
	.long	0x1f20
	.uleb128 0x2
	.long	0xa025
	.uleb128 0x1
	.long	0x1f20
	.uleb128 0x1
	.long	0x903f
	.byte	0
	.uleb128 0x27
	.long	.LASF80
	.byte	0x6
	.byte	0x43
	.byte	0x1f
	.long	0x2b5
	.uleb128 0x23
	.long	.LASF81
	.byte	0x6
	.byte	0xa7
	.byte	0x7
	.long	.LASF291
	.byte	0x1
	.long	0x1f41
	.long	0x1f51
	.uleb128 0x2
	.long	0xa025
	.uleb128 0x1
	.long	0xa034
	.uleb128 0x1
	.long	0x1f20
	.byte	0
	.uleb128 0x21
	.long	.LASF83
	.byte	0x6
	.byte	0xc2
	.byte	0x7
	.long	.LASF292
	.long	0x1f20
	.byte	0x1
	.long	0x1f6a
	.long	0x1f70
	.uleb128 0x2
	.long	0xa03e
	.byte	0
	.uleb128 0x42
	.long	.LASF85
	.byte	0x6
	.byte	0xf2
	.byte	0x7
	.long	.LASF293
	.long	0x1f20
	.long	0x1f88
	.long	0x1f8e
	.uleb128 0x2
	.long	0xa03e
	.byte	0
	.uleb128 0xf
	.string	"_Tp"
	.long	0x9f0b
	.byte	0
	.uleb128 0x7
	.long	0x1dfa
	.uleb128 0x3f
	.long	.LASF294
	.byte	0x1
	.byte	0x5
	.byte	0x85
	.long	0x2021
	.uleb128 0x46
	.long	0x1dfa
	.byte	0x1
	.uleb128 0x23
	.long	.LASF88
	.byte	0x5
	.byte	0xa8
	.byte	0x7
	.long	.LASF295
	.byte	0x1
	.long	0x1fc4
	.long	0x1fca
	.uleb128 0x2
	.long	0xa057
	.byte	0
	.uleb128 0x23
	.long	.LASF88
	.byte	0x5
	.byte	0xac
	.byte	0x7
	.long	.LASF296
	.byte	0x1
	.long	0x1fdf
	.long	0x1fea
	.uleb128 0x2
	.long	0xa057
	.uleb128 0x1
	.long	0xa05c
	.byte	0
	.uleb128 0x4c
	.long	.LASF34
	.byte	0x5
	.byte	0xb1
	.byte	0x12
	.long	.LASF297
	.long	0xa061
	.long	0x2002
	.long	0x200d
	.uleb128 0x2
	.long	0xa057
	.uleb128 0x1
	.long	0xa05c
	.byte	0
	.uleb128 0x6a
	.long	.LASF92
	.long	.LASF298
	.long	0x201a
	.uleb128 0x2
	.long	0xa057
	.byte	0
	.byte	0
	.uleb128 0x7
	.long	0x1f9d
	.uleb128 0x59
	.long	.LASF299
	.byte	0x1
	.byte	0x8
	.value	0x248
	.byte	0xc
	.long	0x2124
	.uleb128 0x1d
	.long	.LASF73
	.byte	0x8
	.value	0x251
	.byte	0xd
	.long	0xa034
	.uleb128 0x17
	.long	.LASF78
	.byte	0x8
	.value	0x27d
	.byte	0x7
	.long	.LASF300
	.long	0x2034
	.long	0x2061
	.uleb128 0x1
	.long	0xa066
	.uleb128 0x1
	.long	0x2073
	.byte	0
	.uleb128 0x1d
	.long	.LASF97
	.byte	0x8
	.value	0x24b
	.byte	0xd
	.long	0x1f9d
	.uleb128 0x7
	.long	0x2061
	.uleb128 0x1d
	.long	.LASF80
	.byte	0x8
	.value	0x260
	.byte	0xd
	.long	0x2b5
	.uleb128 0x17
	.long	.LASF78
	.byte	0x8
	.value	0x28c
	.byte	0x7
	.long	.LASF301
	.long	0x2034
	.long	0x20a5
	.uleb128 0x1
	.long	0xa066
	.uleb128 0x1
	.long	0x2073
	.uleb128 0x1
	.long	0x20a5
	.byte	0
	.uleb128 0x1d
	.long	.LASF99
	.byte	0x8
	.value	0x25a
	.byte	0xd
	.long	0x903f
	.uleb128 0x3b
	.long	.LASF81
	.byte	0x8
	.value	0x2b0
	.byte	0x7
	.long	.LASF303
	.long	0x20d3
	.uleb128 0x1
	.long	0xa066
	.uleb128 0x1
	.long	0x2034
	.uleb128 0x1
	.long	0x2073
	.byte	0
	.uleb128 0x17
	.long	.LASF83
	.byte	0x8
	.value	0x2ed
	.byte	0x7
	.long	.LASF304
	.long	0x2073
	.long	0x20ee
	.uleb128 0x1
	.long	0xa06b
	.byte	0
	.uleb128 0x17
	.long	.LASF101
	.byte	0x8
	.value	0x2fd
	.byte	0x7
	.long	.LASF305
	.long	0x2061
	.long	0x2109
	.uleb128 0x1
	.long	0xa06b
	.byte	0
	.uleb128 0x1d
	.long	.LASF5
	.byte	0x8
	.value	0x24e
	.byte	0xd
	.long	0x9f0b
	.uleb128 0x1d
	.long	.LASF103
	.byte	0x8
	.value	0x26f
	.byte	0x8
	.long	0x1f9d
	.byte	0
	.uleb128 0x1a
	.long	.LASF306
	.byte	0x18
	.byte	0x2
	.byte	0x5b
	.byte	0xc
	.long	0x24ac
	.uleb128 0x1a
	.long	.LASF105
	.byte	0x18
	.byte	0x2
	.byte	0x62
	.byte	0xe
	.long	0x21d7
	.uleb128 0x10
	.long	.LASF107
	.byte	0x2
	.byte	0x64
	.byte	0xa
	.long	0x21dc
	.byte	0
	.uleb128 0x10
	.long	.LASF108
	.byte	0x2
	.byte	0x65
	.byte	0xa
	.long	0x21dc
	.byte	0x8
	.uleb128 0x10
	.long	.LASF109
	.byte	0x2
	.byte	0x66
	.byte	0xa
	.long	0x21dc
	.byte	0x10
	.uleb128 0x22
	.long	.LASF105
	.byte	0x2
	.byte	0x69
	.byte	0x2
	.long	.LASF307
	.long	0x2179
	.long	0x217f
	.uleb128 0x2
	.long	0xa07a
	.byte	0
	.uleb128 0x22
	.long	.LASF105
	.byte	0x2
	.byte	0x6f
	.byte	0x2
	.long	.LASF308
	.long	0x2193
	.long	0x219e
	.uleb128 0x2
	.long	0xa07a
	.uleb128 0x1
	.long	0xa07f
	.byte	0
	.uleb128 0x22
	.long	.LASF112
	.byte	0x2
	.byte	0x77
	.byte	0x2
	.long	.LASF309
	.long	0x21b2
	.long	0x21bd
	.uleb128 0x2
	.long	0xa07a
	.uleb128 0x1
	.long	0xa084
	.byte	0
	.uleb128 0x63
	.long	.LASF114
	.byte	0x80
	.long	.LASF311
	.long	0x21cb
	.uleb128 0x2
	.long	0xa07a
	.uleb128 0x1
	.long	0xa089
	.byte	0
	.byte	0
	.uleb128 0x7
	.long	0x2131
	.uleb128 0x9
	.long	.LASF73
	.byte	0x2
	.byte	0x60
	.byte	0x9
	.long	0x84dc
	.uleb128 0x1a
	.long	.LASF115
	.byte	0x18
	.byte	0x2
	.byte	0x8b
	.byte	0xe
	.long	0x2295
	.uleb128 0x33
	.long	0x1f9d
	.uleb128 0x33
	.long	0x2131
	.uleb128 0x22
	.long	.LASF115
	.byte	0x2
	.byte	0x8f
	.byte	0x2
	.long	.LASF312
	.long	0x2213
	.long	0x2219
	.uleb128 0x2
	.long	0xa08e
	.byte	0
	.uleb128 0x22
	.long	.LASF115
	.byte	0x2
	.byte	0x98
	.byte	0x2
	.long	.LASF313
	.long	0x222d
	.long	0x2238
	.uleb128 0x2
	.long	0xa08e
	.uleb128 0x1
	.long	0xa093
	.byte	0
	.uleb128 0x22
	.long	.LASF115
	.byte	0x2
	.byte	0xa0
	.byte	0x2
	.long	.LASF314
	.long	0x224c
	.long	0x2257
	.uleb128 0x2
	.long	0xa08e
	.uleb128 0x1
	.long	0xa098
	.byte	0
	.uleb128 0x22
	.long	.LASF115
	.byte	0x2
	.byte	0xa5
	.byte	0x2
	.long	.LASF315
	.long	0x226b
	.long	0x2276
	.uleb128 0x2
	.long	0xa08e
	.uleb128 0x1
	.long	0xa09d
	.byte	0
	.uleb128 0x63
	.long	.LASF115
	.byte	0xaa
	.long	.LASF316
	.long	0x2284
	.uleb128 0x2
	.long	0xa08e
	.uleb128 0x1
	.long	0xa09d
	.uleb128 0x1
	.long	0xa098
	.byte	0
	.byte	0
	.uleb128 0x9
	.long	.LASF121
	.byte	0x2
	.byte	0x5e
	.byte	0x15
	.long	0x850d
	.uleb128 0x7
	.long	0x2295
	.uleb128 0x34
	.long	.LASF122
	.value	0x133
	.byte	0x7
	.long	.LASF317
	.long	0xa0a2
	.long	0x22be
	.long	0x22c4
	.uleb128 0x2
	.long	0xa0a7
	.byte	0
	.uleb128 0x34
	.long	.LASF122
	.value	0x138
	.byte	0x7
	.long	.LASF318
	.long	0xa093
	.long	0x22dc
	.long	0x22e2
	.uleb128 0x2
	.long	0xa0ac
	.byte	0
	.uleb128 0x1d
	.long	.LASF97
	.byte	0x2
	.value	0x12f
	.byte	0x16
	.long	0x1f9d
	.uleb128 0x7
	.long	0x22e2
	.uleb128 0x34
	.long	.LASF125
	.value	0x13d
	.byte	0x7
	.long	.LASF319
	.long	0x22e2
	.long	0x230c
	.long	0x2312
	.uleb128 0x2
	.long	0xa0ac
	.byte	0
	.uleb128 0x4d
	.long	.LASF127
	.value	0x141
	.long	.LASF320
	.long	0x2325
	.long	0x232b
	.uleb128 0x2
	.long	0xa0a7
	.byte	0
	.uleb128 0x1c
	.long	.LASF127
	.value	0x147
	.long	.LASF321
	.long	0x233e
	.long	0x2349
	.uleb128 0x2
	.long	0xa0a7
	.uleb128 0x1
	.long	0xa0b1
	.byte	0
	.uleb128 0x1c
	.long	.LASF127
	.value	0x14d
	.long	.LASF322
	.long	0x235c
	.long	0x2367
	.uleb128 0x2
	.long	0xa0a7
	.uleb128 0x1
	.long	0x2b5
	.byte	0
	.uleb128 0x1c
	.long	.LASF127
	.value	0x153
	.long	.LASF323
	.long	0x237a
	.long	0x238a
	.uleb128 0x2
	.long	0xa0a7
	.uleb128 0x1
	.long	0x2b5
	.uleb128 0x1
	.long	0xa0b1
	.byte	0
	.uleb128 0x4d
	.long	.LASF127
	.value	0x158
	.long	.LASF324
	.long	0x239d
	.long	0x23a8
	.uleb128 0x2
	.long	0xa0a7
	.uleb128 0x1
	.long	0xa0b6
	.byte	0
	.uleb128 0x1c
	.long	.LASF127
	.value	0x15d
	.long	.LASF325
	.long	0x23bb
	.long	0x23c6
	.uleb128 0x2
	.long	0xa0a7
	.uleb128 0x1
	.long	0xa09d
	.byte	0
	.uleb128 0x1c
	.long	.LASF127
	.value	0x161
	.long	.LASF326
	.long	0x23d9
	.long	0x23e9
	.uleb128 0x2
	.long	0xa0a7
	.uleb128 0x1
	.long	0xa0b6
	.uleb128 0x1
	.long	0xa0b1
	.byte	0
	.uleb128 0x1c
	.long	.LASF127
	.value	0x16f
	.long	.LASF327
	.long	0x23fc
	.long	0x240c
	.uleb128 0x2
	.long	0xa0a7
	.uleb128 0x1
	.long	0xa0b1
	.uleb128 0x1
	.long	0xa0b6
	.byte	0
	.uleb128 0x1c
	.long	.LASF136
	.value	0x175
	.long	.LASF328
	.long	0x241f
	.long	0x2425
	.uleb128 0x2
	.long	0xa0a7
	.byte	0
	.uleb128 0x4e
	.long	.LASF138
	.value	0x17e
	.byte	0x14
	.long	0x21e8
	.byte	0
	.uleb128 0x34
	.long	.LASF139
	.value	0x182
	.byte	0x7
	.long	.LASF329
	.long	0x21dc
	.long	0x244a
	.long	0x2455
	.uleb128 0x2
	.long	0xa0a7
	.uleb128 0x1
	.long	0x2b5
	.byte	0
	.uleb128 0x1c
	.long	.LASF141
	.value	0x18a
	.long	.LASF330
	.long	0x2468
	.long	0x2478
	.uleb128 0x2
	.long	0xa0a7
	.uleb128 0x1
	.long	0x21dc
	.uleb128 0x1
	.long	0x2b5
	.byte	0
	.uleb128 0x11
	.long	.LASF143
	.byte	0x2
	.value	0x195
	.byte	0x7
	.long	.LASF331
	.byte	0x2
	.long	0x248e
	.long	0x2499
	.uleb128 0x2
	.long	0xa0a7
	.uleb128 0x1
	.long	0x2b5
	.byte	0
	.uleb128 0xf
	.string	"_Tp"
	.long	0x9f0b
	.uleb128 0xc
	.long	.LASF145
	.long	0x1f9d
	.byte	0
	.uleb128 0x7
	.long	0x2124
	.uleb128 0x1a
	.long	.LASF332
	.byte	0x1
	.byte	0x10
	.byte	0xa9
	.byte	0xc
	.long	0x24d4
	.uleb128 0x9
	.long	.LASF147
	.byte	0x10
	.byte	0xaa
	.byte	0xd
	.long	0x1f9d
	.uleb128 0xc
	.long	.LASF148
	.long	0x1f9d
	.byte	0
	.uleb128 0x4a
	.long	.LASF333
	.byte	0x18
	.byte	0x2
	.value	0x1cc
	.long	0x307c
	.uleb128 0x19
	.byte	0x2
	.value	0x1cc
	.byte	0xb
	.long	0x2432
	.uleb128 0x19
	.byte	0x2
	.value	0x1cc
	.byte	0xb
	.long	0x2455
	.uleb128 0x19
	.byte	0x2
	.value	0x1cc
	.byte	0xb
	.long	0x2425
	.uleb128 0x19
	.byte	0x2
	.value	0x1cc
	.byte	0xb
	.long	0x22c4
	.uleb128 0x19
	.byte	0x2
	.value	0x1cc
	.byte	0xb
	.long	0x22a6
	.uleb128 0x19
	.byte	0x2
	.value	0x1cc
	.byte	0xb
	.long	0x22f4
	.uleb128 0x46
	.long	0x2124
	.byte	0x2
	.uleb128 0x17
	.long	.LASF150
	.byte	0x2
	.value	0x1f6
	.byte	0x7
	.long	.LASF334
	.long	0x8fe9
	.long	0x2538
	.uleb128 0x1
	.long	0x62f
	.byte	0
	.uleb128 0x17
	.long	.LASF150
	.byte	0x2
	.value	0x1ff
	.byte	0x7
	.long	.LASF335
	.long	0x8fe9
	.long	0x2553
	.uleb128 0x1
	.long	0x3a3
	.byte	0
	.uleb128 0x6c
	.long	.LASF336
	.long	.LASF338
	.long	0x8fe9
	.uleb128 0x16
	.long	.LASF73
	.byte	0x2
	.value	0x1e6
	.byte	0x29
	.long	0x21dc
	.uleb128 0x17
	.long	.LASF153
	.byte	0x2
	.value	0x20c
	.byte	0x7
	.long	.LASF339
	.long	0x2560
	.long	0x2597
	.uleb128 0x1
	.long	0x2560
	.uleb128 0x1
	.long	0x2560
	.uleb128 0x1
	.long	0x2560
	.uleb128 0x1
	.long	0xa0bb
	.byte	0
	.uleb128 0x1d
	.long	.LASF121
	.byte	0x2
	.value	0x1e1
	.byte	0x2f
	.long	0x2295
	.uleb128 0x7
	.long	0x2597
	.uleb128 0x4f
	.long	.LASF155
	.value	0x227
	.long	.LASF340
	.long	0x25bc
	.long	0x25c2
	.uleb128 0x2
	.long	0xa0c0
	.byte	0
	.uleb128 0x43
	.long	.LASF155
	.byte	0x2
	.value	0x232
	.long	.LASF341
	.long	0x25d6
	.long	0x25e1
	.uleb128 0x2
	.long	0xa0c0
	.uleb128 0x1
	.long	0xa0ca
	.byte	0
	.uleb128 0x16
	.long	.LASF97
	.byte	0x2
	.value	0x1f1
	.byte	0x1a
	.long	0x1f9d
	.uleb128 0x7
	.long	0x25e1
	.uleb128 0x43
	.long	.LASF155
	.byte	0x2
	.value	0x240
	.long	.LASF342
	.long	0x2607
	.long	0x2617
	.uleb128 0x2
	.long	0xa0c0
	.uleb128 0x1
	.long	0x2617
	.uleb128 0x1
	.long	0xa0ca
	.byte	0
	.uleb128 0x16
	.long	.LASF80
	.byte	0x2
	.value	0x1ef
	.byte	0x1a
	.long	0x2b5
	.uleb128 0x11
	.long	.LASF155
	.byte	0x2
	.value	0x24d
	.byte	0x7
	.long	.LASF343
	.byte	0x1
	.long	0x263a
	.long	0x264f
	.uleb128 0x2
	.long	0xa0c0
	.uleb128 0x1
	.long	0x2617
	.uleb128 0x1
	.long	0xa0cf
	.uleb128 0x1
	.long	0xa0ca
	.byte	0
	.uleb128 0x16
	.long	.LASF5
	.byte	0x2
	.value	0x1e5
	.byte	0x17
	.long	0x9f0b
	.uleb128 0x7
	.long	0x264f
	.uleb128 0x11
	.long	.LASF155
	.byte	0x2
	.value	0x26d
	.byte	0x7
	.long	.LASF344
	.byte	0x1
	.long	0x2677
	.long	0x2682
	.uleb128 0x2
	.long	0xa0c0
	.uleb128 0x1
	.long	0xa0d4
	.byte	0
	.uleb128 0x4f
	.long	.LASF155
	.value	0x280
	.long	.LASF345
	.long	0x2695
	.long	0x26a0
	.uleb128 0x2
	.long	0xa0c0
	.uleb128 0x1
	.long	0xa0d9
	.byte	0
	.uleb128 0x11
	.long	.LASF155
	.byte	0x2
	.value	0x284
	.byte	0x7
	.long	.LASF346
	.byte	0x1
	.long	0x26b6
	.long	0x26c6
	.uleb128 0x2
	.long	0xa0c0
	.uleb128 0x1
	.long	0xa0d4
	.uleb128 0x1
	.long	0xa0de
	.byte	0
	.uleb128 0x1c
	.long	.LASF155
	.value	0x28f
	.long	.LASF347
	.long	0x26d9
	.long	0x26ee
	.uleb128 0x2
	.long	0xa0c0
	.uleb128 0x1
	.long	0xa0d9
	.uleb128 0x1
	.long	0xa0ca
	.uleb128 0x1
	.long	0x62f
	.byte	0
	.uleb128 0x1c
	.long	.LASF155
	.value	0x294
	.long	.LASF348
	.long	0x2701
	.long	0x2716
	.uleb128 0x2
	.long	0xa0c0
	.uleb128 0x1
	.long	0xa0d9
	.uleb128 0x1
	.long	0xa0ca
	.uleb128 0x1
	.long	0x3a3
	.byte	0
	.uleb128 0x11
	.long	.LASF155
	.byte	0x2
	.value	0x2a7
	.byte	0x7
	.long	.LASF349
	.byte	0x1
	.long	0x272c
	.long	0x273c
	.uleb128 0x2
	.long	0xa0c0
	.uleb128 0x1
	.long	0xa0d9
	.uleb128 0x1
	.long	0xa0de
	.byte	0
	.uleb128 0x11
	.long	.LASF155
	.byte	0x2
	.value	0x2ba
	.byte	0x7
	.long	.LASF350
	.byte	0x1
	.long	0x2752
	.long	0x2762
	.uleb128 0x2
	.long	0xa0c0
	.uleb128 0x1
	.long	0x3092
	.uleb128 0x1
	.long	0xa0ca
	.byte	0
	.uleb128 0x11
	.long	.LASF167
	.byte	0x2
	.value	0x316
	.byte	0x7
	.long	.LASF351
	.byte	0x1
	.long	0x2778
	.long	0x277e
	.uleb128 0x2
	.long	0xa0c0
	.byte	0
	.uleb128 0x21
	.long	.LASF34
	.byte	0x7
	.byte	0xd6
	.byte	0x5
	.long	.LASF352
	.long	0xa0e3
	.byte	0x1
	.long	0x2797
	.long	0x27a2
	.uleb128 0x2
	.long	0xa0c0
	.uleb128 0x1
	.long	0xa0d4
	.byte	0
	.uleb128 0x6
	.long	.LASF34
	.byte	0x2
	.value	0x337
	.byte	0x7
	.long	.LASF353
	.long	0xa0e3
	.byte	0x1
	.long	0x27bc
	.long	0x27c7
	.uleb128 0x2
	.long	0xa0c0
	.uleb128 0x1
	.long	0xa0d9
	.byte	0
	.uleb128 0x6
	.long	.LASF34
	.byte	0x2
	.value	0x34d
	.byte	0x7
	.long	.LASF354
	.long	0xa0e3
	.byte	0x1
	.long	0x27e1
	.long	0x27ec
	.uleb128 0x2
	.long	0xa0c0
	.uleb128 0x1
	.long	0x3092
	.byte	0
	.uleb128 0x11
	.long	.LASF172
	.byte	0x2
	.value	0x361
	.byte	0x7
	.long	.LASF355
	.byte	0x1
	.long	0x2802
	.long	0x2812
	.uleb128 0x2
	.long	0xa0c0
	.uleb128 0x1
	.long	0x2617
	.uleb128 0x1
	.long	0xa0cf
	.byte	0
	.uleb128 0x11
	.long	.LASF172
	.byte	0x2
	.value	0x390
	.byte	0x7
	.long	.LASF356
	.byte	0x1
	.long	0x2828
	.long	0x2833
	.uleb128 0x2
	.long	0xa0c0
	.uleb128 0x1
	.long	0x3092
	.byte	0
	.uleb128 0x16
	.long	.LASF175
	.byte	0x2
	.value	0x1ea
	.byte	0x3d
	.long	0x852d
	.uleb128 0x6
	.long	.LASF176
	.byte	0x2
	.value	0x3dc
	.byte	0x7
	.long	.LASF357
	.long	0x2833
	.byte	0x1
	.long	0x285a
	.long	0x2860
	.uleb128 0x2
	.long	0xa0c0
	.byte	0
	.uleb128 0x16
	.long	.LASF178
	.byte	0x2
	.value	0x1ec
	.byte	0x7
	.long	0x8760
	.uleb128 0x6
	.long	.LASF176
	.byte	0x2
	.value	0x3e6
	.byte	0x7
	.long	.LASF358
	.long	0x2860
	.byte	0x1
	.long	0x2887
	.long	0x288d
	.uleb128 0x2
	.long	0xa0e8
	.byte	0
	.uleb128 0x37
	.string	"end"
	.value	0x3f0
	.long	.LASF359
	.long	0x2833
	.long	0x28a4
	.long	0x28aa
	.uleb128 0x2
	.long	0xa0c0
	.byte	0
	.uleb128 0x37
	.string	"end"
	.value	0x3fa
	.long	.LASF360
	.long	0x2860
	.long	0x28c1
	.long	0x28c7
	.uleb128 0x2
	.long	0xa0e8
	.byte	0
	.uleb128 0x16
	.long	.LASF182
	.byte	0x2
	.value	0x1ee
	.byte	0x30
	.long	0x3097
	.uleb128 0x6
	.long	.LASF183
	.byte	0x2
	.value	0x404
	.byte	0x7
	.long	.LASF361
	.long	0x28c7
	.byte	0x1
	.long	0x28ee
	.long	0x28f4
	.uleb128 0x2
	.long	0xa0c0
	.byte	0
	.uleb128 0x16
	.long	.LASF185
	.byte	0x2
	.value	0x1ed
	.byte	0x35
	.long	0x309c
	.uleb128 0x6
	.long	.LASF183
	.byte	0x2
	.value	0x40e
	.byte	0x7
	.long	.LASF362
	.long	0x28f4
	.byte	0x1
	.long	0x291b
	.long	0x2921
	.uleb128 0x2
	.long	0xa0e8
	.byte	0
	.uleb128 0x6
	.long	.LASF187
	.byte	0x2
	.value	0x418
	.byte	0x7
	.long	.LASF363
	.long	0x28c7
	.byte	0x1
	.long	0x293b
	.long	0x2941
	.uleb128 0x2
	.long	0xa0c0
	.byte	0
	.uleb128 0x6
	.long	.LASF187
	.byte	0x2
	.value	0x422
	.byte	0x7
	.long	.LASF364
	.long	0x28f4
	.byte	0x1
	.long	0x295b
	.long	0x2961
	.uleb128 0x2
	.long	0xa0e8
	.byte	0
	.uleb128 0x6
	.long	.LASF190
	.byte	0x2
	.value	0x42d
	.byte	0x7
	.long	.LASF365
	.long	0x2860
	.byte	0x1
	.long	0x297b
	.long	0x2981
	.uleb128 0x2
	.long	0xa0e8
	.byte	0
	.uleb128 0x6
	.long	.LASF192
	.byte	0x2
	.value	0x437
	.byte	0x7
	.long	.LASF366
	.long	0x2860
	.byte	0x1
	.long	0x299b
	.long	0x29a1
	.uleb128 0x2
	.long	0xa0e8
	.byte	0
	.uleb128 0x6
	.long	.LASF194
	.byte	0x2
	.value	0x441
	.byte	0x7
	.long	.LASF367
	.long	0x28f4
	.byte	0x1
	.long	0x29bb
	.long	0x29c1
	.uleb128 0x2
	.long	0xa0e8
	.byte	0
	.uleb128 0x6
	.long	.LASF196
	.byte	0x2
	.value	0x44b
	.byte	0x7
	.long	.LASF368
	.long	0x28f4
	.byte	0x1
	.long	0x29db
	.long	0x29e1
	.uleb128 0x2
	.long	0xa0e8
	.byte	0
	.uleb128 0x6
	.long	.LASF198
	.byte	0x2
	.value	0x453
	.byte	0x7
	.long	.LASF369
	.long	0x2617
	.byte	0x1
	.long	0x29fb
	.long	0x2a01
	.uleb128 0x2
	.long	0xa0e8
	.byte	0
	.uleb128 0x6
	.long	.LASF83
	.byte	0x2
	.value	0x45e
	.byte	0x7
	.long	.LASF370
	.long	0x2617
	.byte	0x1
	.long	0x2a1b
	.long	0x2a21
	.uleb128 0x2
	.long	0xa0e8
	.byte	0
	.uleb128 0x11
	.long	.LASF201
	.byte	0x2
	.value	0x46d
	.byte	0x7
	.long	.LASF371
	.byte	0x1
	.long	0x2a37
	.long	0x2a42
	.uleb128 0x2
	.long	0xa0c0
	.uleb128 0x1
	.long	0x2617
	.byte	0
	.uleb128 0x11
	.long	.LASF201
	.byte	0x2
	.value	0x482
	.byte	0x7
	.long	.LASF372
	.byte	0x1
	.long	0x2a58
	.long	0x2a68
	.uleb128 0x2
	.long	0xa0c0
	.uleb128 0x1
	.long	0x2617
	.uleb128 0x1
	.long	0xa0cf
	.byte	0
	.uleb128 0x11
	.long	.LASF204
	.byte	0x2
	.value	0x4a4
	.byte	0x7
	.long	.LASF373
	.byte	0x1
	.long	0x2a7e
	.long	0x2a84
	.uleb128 0x2
	.long	0xa0c0
	.byte	0
	.uleb128 0x6
	.long	.LASF206
	.byte	0x2
	.value	0x4ae
	.byte	0x7
	.long	.LASF374
	.long	0x2617
	.byte	0x1
	.long	0x2a9e
	.long	0x2aa4
	.uleb128 0x2
	.long	0xa0e8
	.byte	0
	.uleb128 0x6
	.long	.LASF208
	.byte	0x2
	.value	0x4bd
	.byte	0x7
	.long	.LASF375
	.long	0x8fe9
	.byte	0x1
	.long	0x2abe
	.long	0x2ac4
	.uleb128 0x2
	.long	0xa0e8
	.byte	0
	.uleb128 0x23
	.long	.LASF210
	.byte	0x7
	.byte	0x46
	.byte	0x5
	.long	.LASF376
	.byte	0x1
	.long	0x2ad9
	.long	0x2ae4
	.uleb128 0x2
	.long	0xa0c0
	.uleb128 0x1
	.long	0x2617
	.byte	0
	.uleb128 0x16
	.long	.LASF74
	.byte	0x2
	.value	0x1e8
	.byte	0x32
	.long	0x84e8
	.uleb128 0x6
	.long	.LASF212
	.byte	0x2
	.value	0x4e3
	.byte	0x7
	.long	.LASF377
	.long	0x2ae4
	.byte	0x1
	.long	0x2b0b
	.long	0x2b16
	.uleb128 0x2
	.long	0xa0c0
	.uleb128 0x1
	.long	0x2617
	.byte	0
	.uleb128 0x16
	.long	.LASF77
	.byte	0x2
	.value	0x1e9
	.byte	0x37
	.long	0x84f4
	.uleb128 0x6
	.long	.LASF212
	.byte	0x2
	.value	0x4f6
	.byte	0x7
	.long	.LASF378
	.long	0x2b16
	.byte	0x1
	.long	0x2b3d
	.long	0x2b48
	.uleb128 0x2
	.long	0xa0e8
	.uleb128 0x1
	.long	0x2617
	.byte	0
	.uleb128 0x11
	.long	.LASF215
	.byte	0x2
	.value	0x500
	.byte	0x7
	.long	.LASF379
	.byte	0x2
	.long	0x2b5e
	.long	0x2b69
	.uleb128 0x2
	.long	0xa0e8
	.uleb128 0x1
	.long	0x2617
	.byte	0
	.uleb128 0x37
	.string	"at"
	.value	0x517
	.long	.LASF380
	.long	0x2ae4
	.long	0x2b7f
	.long	0x2b8a
	.uleb128 0x2
	.long	0xa0c0
	.uleb128 0x1
	.long	0x2617
	.byte	0
	.uleb128 0x37
	.string	"at"
	.value	0x52a
	.long	.LASF381
	.long	0x2b16
	.long	0x2ba0
	.long	0x2bab
	.uleb128 0x2
	.long	0xa0e8
	.uleb128 0x1
	.long	0x2617
	.byte	0
	.uleb128 0x6
	.long	.LASF219
	.byte	0x2
	.value	0x536
	.byte	0x7
	.long	.LASF382
	.long	0x2ae4
	.byte	0x1
	.long	0x2bc5
	.long	0x2bcb
	.uleb128 0x2
	.long	0xa0c0
	.byte	0
	.uleb128 0x6
	.long	.LASF219
	.byte	0x2
	.value	0x542
	.byte	0x7
	.long	.LASF383
	.long	0x2b16
	.byte	0x1
	.long	0x2be5
	.long	0x2beb
	.uleb128 0x2
	.long	0xa0e8
	.byte	0
	.uleb128 0x6
	.long	.LASF222
	.byte	0x2
	.value	0x54e
	.byte	0x7
	.long	.LASF384
	.long	0x2ae4
	.byte	0x1
	.long	0x2c05
	.long	0x2c0b
	.uleb128 0x2
	.long	0xa0c0
	.byte	0
	.uleb128 0x6
	.long	.LASF222
	.byte	0x2
	.value	0x55a
	.byte	0x7
	.long	.LASF385
	.long	0x2b16
	.byte	0x1
	.long	0x2c25
	.long	0x2c2b
	.uleb128 0x2
	.long	0xa0e8
	.byte	0
	.uleb128 0x6
	.long	.LASF225
	.byte	0x2
	.value	0x569
	.byte	0x7
	.long	.LASF386
	.long	0xa034
	.byte	0x1
	.long	0x2c45
	.long	0x2c4b
	.uleb128 0x2
	.long	0xa0c0
	.byte	0
	.uleb128 0x6
	.long	.LASF225
	.byte	0x2
	.value	0x56e
	.byte	0x7
	.long	.LASF387
	.long	0xa048
	.byte	0x1
	.long	0x2c65
	.long	0x2c6b
	.uleb128 0x2
	.long	0xa0e8
	.byte	0
	.uleb128 0x11
	.long	.LASF228
	.byte	0x2
	.value	0x57e
	.byte	0x7
	.long	.LASF388
	.byte	0x1
	.long	0x2c81
	.long	0x2c8c
	.uleb128 0x2
	.long	0xa0c0
	.uleb128 0x1
	.long	0xa0cf
	.byte	0
	.uleb128 0x11
	.long	.LASF228
	.byte	0x2
	.value	0x58f
	.byte	0x7
	.long	.LASF389
	.byte	0x1
	.long	0x2ca2
	.long	0x2cad
	.uleb128 0x2
	.long	0xa0c0
	.uleb128 0x1
	.long	0xa0f2
	.byte	0
	.uleb128 0x11
	.long	.LASF231
	.byte	0x2
	.value	0x5a7
	.byte	0x7
	.long	.LASF390
	.byte	0x1
	.long	0x2cc3
	.long	0x2cc9
	.uleb128 0x2
	.long	0xa0c0
	.byte	0
	.uleb128 0x21
	.long	.LASF233
	.byte	0x7
	.byte	0x89
	.byte	0x5
	.long	.LASF391
	.long	0x2833
	.byte	0x1
	.long	0x2ce2
	.long	0x2cf2
	.uleb128 0x2
	.long	0xa0c0
	.uleb128 0x1
	.long	0x2860
	.uleb128 0x1
	.long	0xa0cf
	.byte	0
	.uleb128 0x6
	.long	.LASF233
	.byte	0x2
	.value	0x5ee
	.byte	0x7
	.long	.LASF392
	.long	0x2833
	.byte	0x1
	.long	0x2d0c
	.long	0x2d1c
	.uleb128 0x2
	.long	0xa0c0
	.uleb128 0x1
	.long	0x2860
	.uleb128 0x1
	.long	0xa0f2
	.byte	0
	.uleb128 0x6
	.long	.LASF233
	.byte	0x2
	.value	0x600
	.byte	0x7
	.long	.LASF393
	.long	0x2833
	.byte	0x1
	.long	0x2d36
	.long	0x2d46
	.uleb128 0x2
	.long	0xa0c0
	.uleb128 0x1
	.long	0x2860
	.uleb128 0x1
	.long	0x3092
	.byte	0
	.uleb128 0x6
	.long	.LASF233
	.byte	0x2
	.value	0x61a
	.byte	0x7
	.long	.LASF394
	.long	0x2833
	.byte	0x1
	.long	0x2d60
	.long	0x2d75
	.uleb128 0x2
	.long	0xa0c0
	.uleb128 0x1
	.long	0x2860
	.uleb128 0x1
	.long	0x2617
	.uleb128 0x1
	.long	0xa0cf
	.byte	0
	.uleb128 0x6
	.long	.LASF238
	.byte	0x2
	.value	0x6f6
	.byte	0x7
	.long	.LASF395
	.long	0x2833
	.byte	0x1
	.long	0x2d8f
	.long	0x2d9a
	.uleb128 0x2
	.long	0xa0c0
	.uleb128 0x1
	.long	0x2860
	.byte	0
	.uleb128 0x6
	.long	.LASF238
	.byte	0x2
	.value	0x712
	.byte	0x7
	.long	.LASF396
	.long	0x2833
	.byte	0x1
	.long	0x2db4
	.long	0x2dc4
	.uleb128 0x2
	.long	0xa0c0
	.uleb128 0x1
	.long	0x2860
	.uleb128 0x1
	.long	0x2860
	.byte	0
	.uleb128 0x11
	.long	.LASF39
	.byte	0x2
	.value	0x72a
	.byte	0x7
	.long	.LASF397
	.byte	0x1
	.long	0x2dda
	.long	0x2de5
	.uleb128 0x2
	.long	0xa0c0
	.uleb128 0x1
	.long	0xa0e3
	.byte	0
	.uleb128 0x11
	.long	.LASF242
	.byte	0x2
	.value	0x73d
	.byte	0x7
	.long	.LASF398
	.byte	0x1
	.long	0x2dfb
	.long	0x2e01
	.uleb128 0x2
	.long	0xa0c0
	.byte	0
	.uleb128 0x11
	.long	.LASF244
	.byte	0x2
	.value	0x7c3
	.byte	0x7
	.long	.LASF399
	.byte	0x2
	.long	0x2e17
	.long	0x2e27
	.uleb128 0x2
	.long	0xa0c0
	.uleb128 0x1
	.long	0x2617
	.uleb128 0x1
	.long	0xa0cf
	.byte	0
	.uleb128 0x11
	.long	.LASF246
	.byte	0x2
	.value	0x7ce
	.byte	0x7
	.long	.LASF400
	.byte	0x2
	.long	0x2e3d
	.long	0x2e48
	.uleb128 0x2
	.long	0xa0c0
	.uleb128 0x1
	.long	0x2617
	.byte	0
	.uleb128 0x11
	.long	.LASF248
	.byte	0x7
	.value	0x112
	.byte	0x5
	.long	.LASF401
	.byte	0x2
	.long	0x2e5e
	.long	0x2e6e
	.uleb128 0x2
	.long	0xa0c0
	.uleb128 0x1
	.long	0x2b5
	.uleb128 0x1
	.long	0xa0cf
	.byte	0
	.uleb128 0x11
	.long	.LASF250
	.byte	0x7
	.value	0x296
	.byte	0x5
	.long	.LASF402
	.byte	0x2
	.long	0x2e84
	.long	0x2e99
	.uleb128 0x2
	.long	0xa0c0
	.uleb128 0x1
	.long	0x2833
	.uleb128 0x1
	.long	0x2617
	.uleb128 0x1
	.long	0xa0cf
	.byte	0
	.uleb128 0x11
	.long	.LASF252
	.byte	0x7
	.value	0x300
	.byte	0x5
	.long	.LASF403
	.byte	0x2
	.long	0x2eaf
	.long	0x2ebf
	.uleb128 0x2
	.long	0xa0c0
	.uleb128 0x1
	.long	0x2617
	.uleb128 0x1
	.long	0xa0cf
	.byte	0
	.uleb128 0x11
	.long	.LASF254
	.byte	0x7
	.value	0x339
	.byte	0x5
	.long	.LASF404
	.byte	0x2
	.long	0x2ed5
	.long	0x2ee0
	.uleb128 0x2
	.long	0xa0c0
	.uleb128 0x1
	.long	0x2617
	.byte	0
	.uleb128 0x6
	.long	.LASF256
	.byte	0x7
	.value	0x396
	.byte	0x5
	.long	.LASF405
	.long	0x8fe9
	.byte	0x2
	.long	0x2efa
	.long	0x2f00
	.uleb128 0x2
	.long	0xa0c0
	.byte	0
	.uleb128 0x6
	.long	.LASF258
	.byte	0x7
	.value	0x16f
	.byte	0x5
	.long	.LASF406
	.long	0x2833
	.byte	0x2
	.long	0x2f1a
	.long	0x2f2a
	.uleb128 0x2
	.long	0xa0c0
	.uleb128 0x1
	.long	0x2860
	.uleb128 0x1
	.long	0xa0f2
	.byte	0
	.uleb128 0x6
	.long	.LASF260
	.byte	0x2
	.value	0x889
	.byte	0x7
	.long	.LASF407
	.long	0x2833
	.byte	0x2
	.long	0x2f44
	.long	0x2f54
	.uleb128 0x2
	.long	0xa0c0
	.uleb128 0x1
	.long	0x2860
	.uleb128 0x1
	.long	0xa0f2
	.byte	0
	.uleb128 0x6
	.long	.LASF262
	.byte	0x2
	.value	0x890
	.byte	0x7
	.long	.LASF408
	.long	0x2617
	.byte	0x2
	.long	0x2f6e
	.long	0x2f7e
	.uleb128 0x2
	.long	0xa0e8
	.uleb128 0x1
	.long	0x2617
	.uleb128 0x1
	.long	0x77e1
	.byte	0
	.uleb128 0x50
	.long	.LASF264
	.value	0x89b
	.long	.LASF409
	.long	0x2617
	.long	0x2f9c
	.uleb128 0x1
	.long	0x2617
	.uleb128 0x1
	.long	0xa0ca
	.byte	0
	.uleb128 0x50
	.long	.LASF266
	.value	0x8a4
	.long	.LASF410
	.long	0x2617
	.long	0x2fb5
	.uleb128 0x1
	.long	0xa0f7
	.byte	0
	.uleb128 0x11
	.long	.LASF268
	.byte	0x2
	.value	0x8b5
	.byte	0x7
	.long	.LASF411
	.byte	0x2
	.long	0x2fcb
	.long	0x2fd6
	.uleb128 0x2
	.long	0xa0c0
	.uleb128 0x1
	.long	0x2560
	.byte	0
	.uleb128 0x21
	.long	.LASF270
	.byte	0x7
	.byte	0xb9
	.byte	0x5
	.long	.LASF412
	.long	0x2833
	.byte	0x2
	.long	0x2fef
	.long	0x2ffa
	.uleb128 0x2
	.long	0xa0c0
	.uleb128 0x1
	.long	0x2833
	.byte	0
	.uleb128 0x21
	.long	.LASF270
	.byte	0x7
	.byte	0xc7
	.byte	0x5
	.long	.LASF413
	.long	0x2833
	.byte	0x2
	.long	0x3013
	.long	0x3023
	.uleb128 0x2
	.long	0xa0c0
	.uleb128 0x1
	.long	0x2833
	.uleb128 0x1
	.long	0x2833
	.byte	0
	.uleb128 0x1c
	.long	.LASF273
	.value	0x8cf
	.long	.LASF414
	.long	0x3036
	.long	0x3046
	.uleb128 0x2
	.long	0xa0c0
	.uleb128 0x1
	.long	0xa0d9
	.uleb128 0x1
	.long	0x62f
	.byte	0
	.uleb128 0x1c
	.long	.LASF273
	.value	0x8db
	.long	.LASF415
	.long	0x3059
	.long	0x3069
	.uleb128 0x2
	.long	0xa0c0
	.uleb128 0x1
	.long	0xa0d9
	.uleb128 0x1
	.long	0x3a3
	.byte	0
	.uleb128 0xf
	.string	"_Tp"
	.long	0x9f0b
	.uleb128 0x64
	.long	.LASF145
	.long	0x1f9d
	.byte	0
	.uleb128 0x7
	.long	0x24d4
	.uleb128 0x9
	.long	.LASF278
	.byte	0x10
	.byte	0xad
	.byte	0xb
	.long	0x24be
	.uleb128 0x7
	.long	0x3081
	.uleb128 0x2f
	.long	.LASF416
	.uleb128 0x2f
	.long	.LASF417
	.uleb128 0x2f
	.long	.LASF418
	.uleb128 0x3f
	.long	.LASF419
	.byte	0x1
	.byte	0x6
	.byte	0x3f
	.long	0x324d
	.uleb128 0x51
	.long	.LASF63
	.byte	0x6
	.byte	0x58
	.byte	0x7
	.long	0x30bd
	.long	0x30c3
	.uleb128 0x2
	.long	0xa0fc
	.byte	0
	.uleb128 0x51
	.long	.LASF63
	.byte	0x6
	.byte	0x5c
	.byte	0x7
	.long	0x30d3
	.long	0x30de
	.uleb128 0x2
	.long	0xa0fc
	.uleb128 0x1
	.long	0xa106
	.byte	0
	.uleb128 0x82
	.long	.LASF34
	.byte	0x6
	.byte	0x64
	.byte	0x18
	.long	0xa10b
	.long	0x30f3
	.long	0x30fe
	.uleb128 0x2
	.long	0xa0fc
	.uleb128 0x1
	.long	0xa106
	.byte	0
	.uleb128 0x51
	.long	.LASF69
	.byte	0x6
	.byte	0x68
	.byte	0x7
	.long	0x310e
	.long	0x3114
	.uleb128 0x2
	.long	0xa0fc
	.byte	0
	.uleb128 0x27
	.long	.LASF73
	.byte	0x6
	.byte	0x46
	.byte	0x1a
	.long	0xa110
	.uleb128 0x52
	.long	.LASF71
	.byte	0x6
	.byte	0x6b
	.byte	0x7
	.long	0x3114
	.byte	0x1
	.long	0x3135
	.long	0x3140
	.uleb128 0x2
	.long	0xa11a
	.uleb128 0x1
	.long	0x3140
	.byte	0
	.uleb128 0x27
	.long	.LASF74
	.byte	0x6
	.byte	0x48
	.byte	0x1a
	.long	0xa124
	.uleb128 0x27
	.long	.LASF75
	.byte	0x6
	.byte	0x47
	.byte	0x1a
	.long	0xa129
	.uleb128 0x52
	.long	.LASF71
	.byte	0x6
	.byte	0x6f
	.byte	0x7
	.long	0x314c
	.byte	0x1
	.long	0x316d
	.long	0x3178
	.uleb128 0x2
	.long	0xa11a
	.uleb128 0x1
	.long	0x3178
	.byte	0
	.uleb128 0x27
	.long	.LASF77
	.byte	0x6
	.byte	0x49
	.byte	0x1a
	.long	0xa12e
	.uleb128 0x52
	.long	.LASF78
	.byte	0x6
	.byte	0x81
	.byte	0x7
	.long	0xa110
	.byte	0x1
	.long	0x3199
	.long	0x31a9
	.uleb128 0x2
	.long	0xa0fc
	.uleb128 0x1
	.long	0x31a9
	.uleb128 0x1
	.long	0x903f
	.byte	0
	.uleb128 0x27
	.long	.LASF80
	.byte	0x6
	.byte	0x43
	.byte	0x1f
	.long	0x2b5
	.uleb128 0x51
	.long	.LASF81
	.byte	0x6
	.byte	0xa7
	.byte	0x7
	.long	0x31c5
	.long	0x31d5
	.uleb128 0x2
	.long	0xa0fc
	.uleb128 0x1
	.long	0xa110
	.uleb128 0x1
	.long	0x31a9
	.byte	0
	.uleb128 0x52
	.long	.LASF83
	.byte	0x6
	.byte	0xc2
	.byte	0x7
	.long	0x31a9
	.byte	0x1
	.long	0x31ea
	.long	0x31f0
	.uleb128 0x2
	.long	0xa11a
	.byte	0
	.uleb128 0xa6
	.long	.LASF85
	.byte	0x6
	.byte	0xf2
	.byte	0x7
	.long	0x31a9
	.long	0x3205
	.long	0x320b
	.uleb128 0x2
	.long	0xa11a
	.byte	0
	.uleb128 0x51
	.long	.LASF420
	.byte	0x6
	.byte	0xc9
	.byte	0x2
	.long	0x3233
	.long	0x3243
	.uleb128 0xf
	.string	"_Up"
	.long	0x9f8c
	.uleb128 0x53
	.long	.LASF423
	.long	0x3233
	.uleb128 0x54
	.long	0xa12e
	.byte	0
	.uleb128 0x2
	.long	0xa0fc
	.uleb128 0x1
	.long	0xa110
	.uleb128 0x1
	.long	0xa12e
	.byte	0
	.uleb128 0xf
	.string	"_Tp"
	.long	0x9f8c
	.byte	0
	.uleb128 0x7
	.long	0x30a1
	.uleb128 0x3f
	.long	.LASF421
	.byte	0x1
	.byte	0x5
	.byte	0x85
	.long	0x32ca
	.uleb128 0x46
	.long	0x30a1
	.byte	0x1
	.uleb128 0x51
	.long	.LASF88
	.byte	0x5
	.byte	0xa8
	.byte	0x7
	.long	0x3274
	.long	0x327a
	.uleb128 0x2
	.long	0xa133
	.byte	0
	.uleb128 0x51
	.long	.LASF88
	.byte	0x5
	.byte	0xac
	.byte	0x7
	.long	0x328a
	.long	0x3295
	.uleb128 0x2
	.long	0xa133
	.uleb128 0x1
	.long	0xa13d
	.byte	0
	.uleb128 0x82
	.long	.LASF34
	.byte	0x5
	.byte	0xb1
	.byte	0x12
	.long	0xa142
	.long	0x32aa
	.long	0x32b5
	.uleb128 0x2
	.long	0xa133
	.uleb128 0x1
	.long	0xa13d
	.byte	0
	.uleb128 0xa7
	.long	.LASF92
	.byte	0x5
	.byte	0xbd
	.byte	0x7
	.byte	0x1
	.long	0x32c3
	.uleb128 0x2
	.long	0xa133
	.byte	0
	.byte	0
	.uleb128 0x7
	.long	0x3252
	.uleb128 0x59
	.long	.LASF422
	.byte	0x1
	.byte	0x8
	.value	0x248
	.byte	0xc
	.long	0x33eb
	.uleb128 0x1d
	.long	.LASF73
	.byte	0x8
	.value	0x251
	.byte	0xd
	.long	0xa110
	.uleb128 0x44
	.long	.LASF78
	.byte	0x8
	.value	0x27d
	.byte	0x7
	.long	0x32dd
	.long	0x3306
	.uleb128 0x1
	.long	0xa147
	.uleb128 0x1
	.long	0x3318
	.byte	0
	.uleb128 0x1d
	.long	.LASF97
	.byte	0x8
	.value	0x24b
	.byte	0xd
	.long	0x3252
	.uleb128 0x7
	.long	0x3306
	.uleb128 0x1d
	.long	.LASF80
	.byte	0x8
	.value	0x260
	.byte	0xd
	.long	0x2b5
	.uleb128 0x44
	.long	.LASF78
	.byte	0x8
	.value	0x28c
	.byte	0x7
	.long	0x32dd
	.long	0x3346
	.uleb128 0x1
	.long	0xa147
	.uleb128 0x1
	.long	0x3318
	.uleb128 0x1
	.long	0x3346
	.byte	0
	.uleb128 0x1d
	.long	.LASF99
	.byte	0x8
	.value	0x25a
	.byte	0xd
	.long	0x903f
	.uleb128 0x83
	.long	.LASF81
	.value	0x2b0
	.byte	0x7
	.long	0x3370
	.uleb128 0x1
	.long	0xa147
	.uleb128 0x1
	.long	0x32dd
	.uleb128 0x1
	.long	0x3318
	.byte	0
	.uleb128 0x44
	.long	.LASF83
	.byte	0x8
	.value	0x2ed
	.byte	0x7
	.long	0x3318
	.long	0x3387
	.uleb128 0x1
	.long	0xa14c
	.byte	0
	.uleb128 0x44
	.long	.LASF101
	.byte	0x8
	.value	0x2fd
	.byte	0x7
	.long	0x3306
	.long	0x339e
	.uleb128 0x1
	.long	0xa14c
	.byte	0
	.uleb128 0x1d
	.long	.LASF5
	.byte	0x8
	.value	0x24e
	.byte	0xd
	.long	0x9f8c
	.uleb128 0x1d
	.long	.LASF103
	.byte	0x8
	.value	0x26f
	.byte	0x8
	.long	0x3252
	.uleb128 0xa8
	.long	.LASF420
	.byte	0x8
	.value	0x2c1
	.byte	0x2
	.uleb128 0xf
	.string	"_Up"
	.long	0x9f8c
	.uleb128 0x53
	.long	.LASF423
	.long	0x33da
	.uleb128 0x54
	.long	0xa12e
	.byte	0
	.uleb128 0x1
	.long	0xa147
	.uleb128 0x1
	.long	0xa110
	.uleb128 0x1
	.long	0xa12e
	.byte	0
	.byte	0
	.uleb128 0x1a
	.long	.LASF424
	.byte	0x18
	.byte	0x2
	.byte	0x5b
	.byte	0xc
	.long	0x3726
	.uleb128 0x1a
	.long	.LASF105
	.byte	0x18
	.byte	0x2
	.byte	0x62
	.byte	0xe
	.long	0x348b
	.uleb128 0x10
	.long	.LASF107
	.byte	0x2
	.byte	0x64
	.byte	0xa
	.long	0x3490
	.byte	0
	.uleb128 0x10
	.long	.LASF108
	.byte	0x2
	.byte	0x65
	.byte	0xa
	.long	0x3490
	.byte	0x8
	.uleb128 0x10
	.long	.LASF109
	.byte	0x2
	.byte	0x66
	.byte	0xa
	.long	0x3490
	.byte	0x10
	.uleb128 0x55
	.long	.LASF105
	.byte	0x69
	.long	0x343a
	.long	0x3440
	.uleb128 0x2
	.long	0xa15b
	.byte	0
	.uleb128 0x55
	.long	.LASF105
	.byte	0x6f
	.long	0x344e
	.long	0x3459
	.uleb128 0x2
	.long	0xa15b
	.uleb128 0x1
	.long	0xa165
	.byte	0
	.uleb128 0x55
	.long	.LASF112
	.byte	0x77
	.long	0x3467
	.long	0x3472
	.uleb128 0x2
	.long	0xa15b
	.uleb128 0x1
	.long	0xa16a
	.byte	0
	.uleb128 0xa9
	.long	.LASF114
	.byte	0x2
	.byte	0x80
	.byte	0x2
	.long	0x347f
	.uleb128 0x2
	.long	0xa15b
	.uleb128 0x1
	.long	0xa16f
	.byte	0
	.byte	0
	.uleb128 0x7
	.long	0x33f8
	.uleb128 0x9
	.long	.LASF73
	.byte	0x2
	.byte	0x60
	.byte	0x9
	.long	0x8a37
	.uleb128 0x1a
	.long	.LASF115
	.byte	0x18
	.byte	0x2
	.byte	0x8b
	.byte	0xe
	.long	0x3541
	.uleb128 0x33
	.long	0x3252
	.uleb128 0x33
	.long	0x33f8
	.uleb128 0x55
	.long	.LASF115
	.byte	0x8f
	.long	0x34c1
	.long	0x34c7
	.uleb128 0x2
	.long	0xa174
	.byte	0
	.uleb128 0x55
	.long	.LASF115
	.byte	0x98
	.long	0x34d5
	.long	0x34e0
	.uleb128 0x2
	.long	0xa174
	.uleb128 0x1
	.long	0xa17e
	.byte	0
	.uleb128 0x55
	.long	.LASF115
	.byte	0xa0
	.long	0x34ee
	.long	0x34f9
	.uleb128 0x2
	.long	0xa174
	.uleb128 0x1
	.long	0xa183
	.byte	0
	.uleb128 0x55
	.long	.LASF115
	.byte	0xa5
	.long	0x3507
	.long	0x3512
	.uleb128 0x2
	.long	0xa174
	.uleb128 0x1
	.long	0xa188
	.byte	0
	.uleb128 0x55
	.long	.LASF115
	.byte	0xaa
	.long	0x3520
	.long	0x3530
	.uleb128 0x2
	.long	0xa174
	.uleb128 0x1
	.long	0xa188
	.uleb128 0x1
	.long	0xa183
	.byte	0
	.uleb128 0xaa
	.long	.LASF472
	.long	0x353a
	.uleb128 0x2
	.long	0xa174
	.byte	0
	.byte	0
	.uleb128 0x9
	.long	.LASF121
	.byte	0x2
	.byte	0x5e
	.byte	0x15
	.long	0x8a68
	.uleb128 0x7
	.long	0x3541
	.uleb128 0x65
	.long	.LASF122
	.value	0x133
	.byte	0x7
	.long	0xa18d
	.long	0x3566
	.long	0x356c
	.uleb128 0x2
	.long	0xa192
	.byte	0
	.uleb128 0x65
	.long	.LASF122
	.value	0x138
	.byte	0x7
	.long	0xa17e
	.long	0x3580
	.long	0x3586
	.uleb128 0x2
	.long	0xa19c
	.byte	0
	.uleb128 0x1d
	.long	.LASF97
	.byte	0x2
	.value	0x12f
	.byte	0x16
	.long	0x3252
	.uleb128 0x7
	.long	0x3586
	.uleb128 0x65
	.long	.LASF125
	.value	0x13d
	.byte	0x7
	.long	0x3586
	.long	0x35ac
	.long	0x35b2
	.uleb128 0x2
	.long	0xa19c
	.byte	0
	.uleb128 0x84
	.long	.LASF127
	.value	0x141
	.long	0x35c2
	.long	0x35c8
	.uleb128 0x2
	.long	0xa192
	.byte	0
	.uleb128 0x3c
	.long	.LASF127
	.value	0x147
	.byte	0x7
	.long	0x35d8
	.long	0x35e3
	.uleb128 0x2
	.long	0xa192
	.uleb128 0x1
	.long	0xa1a6
	.byte	0
	.uleb128 0x3c
	.long	.LASF127
	.value	0x14d
	.byte	0x7
	.long	0x35f3
	.long	0x35fe
	.uleb128 0x2
	.long	0xa192
	.uleb128 0x1
	.long	0x2b5
	.byte	0
	.uleb128 0x3c
	.long	.LASF127
	.value	0x153
	.byte	0x7
	.long	0x360e
	.long	0x361e
	.uleb128 0x2
	.long	0xa192
	.uleb128 0x1
	.long	0x2b5
	.uleb128 0x1
	.long	0xa1a6
	.byte	0
	.uleb128 0x84
	.long	.LASF127
	.value	0x158
	.long	0x362e
	.long	0x3639
	.uleb128 0x2
	.long	0xa192
	.uleb128 0x1
	.long	0xa1ab
	.byte	0
	.uleb128 0x3c
	.long	.LASF127
	.value	0x15d
	.byte	0x7
	.long	0x3649
	.long	0x3654
	.uleb128 0x2
	.long	0xa192
	.uleb128 0x1
	.long	0xa188
	.byte	0
	.uleb128 0x3c
	.long	.LASF127
	.value	0x161
	.byte	0x7
	.long	0x3664
	.long	0x3674
	.uleb128 0x2
	.long	0xa192
	.uleb128 0x1
	.long	0xa1ab
	.uleb128 0x1
	.long	0xa1a6
	.byte	0
	.uleb128 0x3c
	.long	.LASF127
	.value	0x16f
	.byte	0x7
	.long	0x3684
	.long	0x3694
	.uleb128 0x2
	.long	0xa192
	.uleb128 0x1
	.long	0xa1a6
	.uleb128 0x1
	.long	0xa1ab
	.byte	0
	.uleb128 0x3c
	.long	.LASF136
	.value	0x175
	.byte	0x7
	.long	0x36a4
	.long	0x36aa
	.uleb128 0x2
	.long	0xa192
	.byte	0
	.uleb128 0x4e
	.long	.LASF138
	.value	0x17e
	.byte	0x14
	.long	0x349c
	.byte	0
	.uleb128 0x65
	.long	.LASF139
	.value	0x182
	.byte	0x7
	.long	0x3490
	.long	0x36cb
	.long	0x36d6
	.uleb128 0x2
	.long	0xa192
	.uleb128 0x1
	.long	0x2b5
	.byte	0
	.uleb128 0x3c
	.long	.LASF141
	.value	0x18a
	.byte	0x7
	.long	0x36e6
	.long	0x36f6
	.uleb128 0x2
	.long	0xa192
	.uleb128 0x1
	.long	0x3490
	.uleb128 0x1
	.long	0x2b5
	.byte	0
	.uleb128 0x29
	.long	.LASF143
	.byte	0x2
	.value	0x195
	.byte	0x7
	.byte	0x2
	.long	0x3708
	.long	0x3713
	.uleb128 0x2
	.long	0xa192
	.uleb128 0x1
	.long	0x2b5
	.byte	0
	.uleb128 0xf
	.string	"_Tp"
	.long	0x9f8c
	.uleb128 0xc
	.long	.LASF145
	.long	0x3252
	.byte	0
	.uleb128 0x7
	.long	0x33eb
	.uleb128 0x1a
	.long	.LASF425
	.byte	0x1
	.byte	0x10
	.byte	0xa9
	.byte	0xc
	.long	0x374e
	.uleb128 0x9
	.long	.LASF147
	.byte	0x10
	.byte	0xaa
	.byte	0xd
	.long	0x3252
	.uleb128 0xc
	.long	.LASF148
	.long	0x3252
	.byte	0
	.uleb128 0x4a
	.long	.LASF426
	.byte	0x18
	.byte	0x2
	.value	0x1cc
	.long	0x42aa
	.uleb128 0x19
	.byte	0x2
	.value	0x1cc
	.byte	0xb
	.long	0x36b7
	.uleb128 0x19
	.byte	0x2
	.value	0x1cc
	.byte	0xb
	.long	0x36d6
	.uleb128 0x19
	.byte	0x2
	.value	0x1cc
	.byte	0xb
	.long	0x36aa
	.uleb128 0x19
	.byte	0x2
	.value	0x1cc
	.byte	0xb
	.long	0x356c
	.uleb128 0x19
	.byte	0x2
	.value	0x1cc
	.byte	0xb
	.long	0x3552
	.uleb128 0x19
	.byte	0x2
	.value	0x1cc
	.byte	0xb
	.long	0x3598
	.uleb128 0x46
	.long	0x33eb
	.byte	0x2
	.uleb128 0x44
	.long	.LASF150
	.byte	0x2
	.value	0x1f6
	.byte	0x7
	.long	0x8fe9
	.long	0x37ae
	.uleb128 0x1
	.long	0x62f
	.byte	0
	.uleb128 0x44
	.long	.LASF150
	.byte	0x2
	.value	0x1ff
	.byte	0x7
	.long	0x8fe9
	.long	0x37c5
	.uleb128 0x1
	.long	0x3a3
	.byte	0
	.uleb128 0xab
	.long	.LASF336
	.byte	0x2
	.value	0x203
	.byte	0x7
	.long	0x8fe9
	.uleb128 0x16
	.long	.LASF73
	.byte	0x2
	.value	0x1e6
	.byte	0x29
	.long	0x3490
	.uleb128 0x44
	.long	.LASF153
	.byte	0x2
	.value	0x20c
	.byte	0x7
	.long	0x37d3
	.long	0x3806
	.uleb128 0x1
	.long	0x37d3
	.uleb128 0x1
	.long	0x37d3
	.uleb128 0x1
	.long	0x37d3
	.uleb128 0x1
	.long	0xa1b0
	.byte	0
	.uleb128 0x1d
	.long	.LASF121
	.byte	0x2
	.value	0x1e1
	.byte	0x2f
	.long	0x3541
	.uleb128 0x7
	.long	0x3806
	.uleb128 0x85
	.long	.LASF155
	.value	0x227
	.long	0x3828
	.long	0x382e
	.uleb128 0x2
	.long	0xa1b5
	.byte	0
	.uleb128 0x74
	.long	.LASF155
	.byte	0x2
	.value	0x232
	.long	0x383e
	.long	0x3849
	.uleb128 0x2
	.long	0xa1b5
	.uleb128 0x1
	.long	0xa1bf
	.byte	0
	.uleb128 0x16
	.long	.LASF97
	.byte	0x2
	.value	0x1f1
	.byte	0x1a
	.long	0x3252
	.uleb128 0x7
	.long	0x3849
	.uleb128 0x74
	.long	.LASF155
	.byte	0x2
	.value	0x240
	.long	0x386b
	.long	0x387b
	.uleb128 0x2
	.long	0xa1b5
	.uleb128 0x1
	.long	0x387b
	.uleb128 0x1
	.long	0xa1bf
	.byte	0
	.uleb128 0x16
	.long	.LASF80
	.byte	0x2
	.value	0x1ef
	.byte	0x1a
	.long	0x2b5
	.uleb128 0x7
	.long	0x387b
	.uleb128 0x29
	.long	.LASF155
	.byte	0x2
	.value	0x24d
	.byte	0x7
	.byte	0x1
	.long	0x389f
	.long	0x38b4
	.uleb128 0x2
	.long	0xa1b5
	.uleb128 0x1
	.long	0x387b
	.uleb128 0x1
	.long	0xa1c4
	.uleb128 0x1
	.long	0xa1bf
	.byte	0
	.uleb128 0x16
	.long	.LASF5
	.byte	0x2
	.value	0x1e5
	.byte	0x17
	.long	0x9f8c
	.uleb128 0x7
	.long	0x38b4
	.uleb128 0x29
	.long	.LASF155
	.byte	0x2
	.value	0x26d
	.byte	0x7
	.byte	0x1
	.long	0x38d8
	.long	0x38e3
	.uleb128 0x2
	.long	0xa1b5
	.uleb128 0x1
	.long	0xa1c9
	.byte	0
	.uleb128 0x85
	.long	.LASF155
	.value	0x280
	.long	0x38f3
	.long	0x38fe
	.uleb128 0x2
	.long	0xa1b5
	.uleb128 0x1
	.long	0xa1ce
	.byte	0
	.uleb128 0x29
	.long	.LASF155
	.byte	0x2
	.value	0x284
	.byte	0x7
	.byte	0x1
	.long	0x3910
	.long	0x3920
	.uleb128 0x2
	.long	0xa1b5
	.uleb128 0x1
	.long	0xa1c9
	.uleb128 0x1
	.long	0xa1d3
	.byte	0
	.uleb128 0x3c
	.long	.LASF155
	.value	0x28f
	.byte	0x7
	.long	0x3930
	.long	0x3945
	.uleb128 0x2
	.long	0xa1b5
	.uleb128 0x1
	.long	0xa1ce
	.uleb128 0x1
	.long	0xa1bf
	.uleb128 0x1
	.long	0x62f
	.byte	0
	.uleb128 0x3c
	.long	.LASF155
	.value	0x294
	.byte	0x7
	.long	0x3955
	.long	0x396a
	.uleb128 0x2
	.long	0xa1b5
	.uleb128 0x1
	.long	0xa1ce
	.uleb128 0x1
	.long	0xa1bf
	.uleb128 0x1
	.long	0x3a3
	.byte	0
	.uleb128 0x29
	.long	.LASF155
	.byte	0x2
	.value	0x2a7
	.byte	0x7
	.byte	0x1
	.long	0x397c
	.long	0x398c
	.uleb128 0x2
	.long	0xa1b5
	.uleb128 0x1
	.long	0xa1ce
	.uleb128 0x1
	.long	0xa1d3
	.byte	0
	.uleb128 0x29
	.long	.LASF155
	.byte	0x2
	.value	0x2ba
	.byte	0x7
	.byte	0x1
	.long	0x399e
	.long	0x39ae
	.uleb128 0x2
	.long	0xa1b5
	.uleb128 0x1
	.long	0x42c0
	.uleb128 0x1
	.long	0xa1bf
	.byte	0
	.uleb128 0x29
	.long	.LASF167
	.byte	0x2
	.value	0x316
	.byte	0x7
	.byte	0x1
	.long	0x39c0
	.long	0x39c6
	.uleb128 0x2
	.long	0xa1b5
	.byte	0
	.uleb128 0x52
	.long	.LASF34
	.byte	0x7
	.byte	0xd6
	.byte	0x5
	.long	0xa1d8
	.byte	0x1
	.long	0x39db
	.long	0x39e6
	.uleb128 0x2
	.long	0xa1b5
	.uleb128 0x1
	.long	0xa1c9
	.byte	0
	.uleb128 0x1e
	.long	.LASF34
	.byte	0x2
	.value	0x337
	.byte	0x7
	.long	0xa1d8
	.byte	0x1
	.long	0x39fc
	.long	0x3a07
	.uleb128 0x2
	.long	0xa1b5
	.uleb128 0x1
	.long	0xa1ce
	.byte	0
	.uleb128 0x1e
	.long	.LASF34
	.byte	0x2
	.value	0x34d
	.byte	0x7
	.long	0xa1d8
	.byte	0x1
	.long	0x3a1d
	.long	0x3a28
	.uleb128 0x2
	.long	0xa1b5
	.uleb128 0x1
	.long	0x42c0
	.byte	0
	.uleb128 0x29
	.long	.LASF172
	.byte	0x2
	.value	0x361
	.byte	0x7
	.byte	0x1
	.long	0x3a3a
	.long	0x3a4a
	.uleb128 0x2
	.long	0xa1b5
	.uleb128 0x1
	.long	0x387b
	.uleb128 0x1
	.long	0xa1c4
	.byte	0
	.uleb128 0x29
	.long	.LASF172
	.byte	0x2
	.value	0x390
	.byte	0x7
	.byte	0x1
	.long	0x3a5c
	.long	0x3a67
	.uleb128 0x2
	.long	0xa1b5
	.uleb128 0x1
	.long	0x42c0
	.byte	0
	.uleb128 0x16
	.long	.LASF175
	.byte	0x2
	.value	0x1ea
	.byte	0x3d
	.long	0x8a88
	.uleb128 0x1e
	.long	.LASF176
	.byte	0x2
	.value	0x3dc
	.byte	0x7
	.long	0x3a67
	.byte	0x1
	.long	0x3a8a
	.long	0x3a90
	.uleb128 0x2
	.long	0xa1b5
	.byte	0
	.uleb128 0x16
	.long	.LASF178
	.byte	0x2
	.value	0x1ec
	.byte	0x7
	.long	0x8c83
	.uleb128 0x1e
	.long	.LASF176
	.byte	0x2
	.value	0x3e6
	.byte	0x7
	.long	0x3a90
	.byte	0x1
	.long	0x3ab3
	.long	0x3ab9
	.uleb128 0x2
	.long	0xa1dd
	.byte	0
	.uleb128 0x6d
	.string	"end"
	.value	0x3f0
	.long	0x3a67
	.long	0x3acc
	.long	0x3ad2
	.uleb128 0x2
	.long	0xa1b5
	.byte	0
	.uleb128 0x6d
	.string	"end"
	.value	0x3fa
	.long	0x3a90
	.long	0x3ae5
	.long	0x3aeb
	.uleb128 0x2
	.long	0xa1dd
	.byte	0
	.uleb128 0x16
	.long	.LASF182
	.byte	0x2
	.value	0x1ee
	.byte	0x30
	.long	0x42c5
	.uleb128 0x1e
	.long	.LASF183
	.byte	0x2
	.value	0x404
	.byte	0x7
	.long	0x3aeb
	.byte	0x1
	.long	0x3b0e
	.long	0x3b14
	.uleb128 0x2
	.long	0xa1b5
	.byte	0
	.uleb128 0x16
	.long	.LASF185
	.byte	0x2
	.value	0x1ed
	.byte	0x35
	.long	0x42ca
	.uleb128 0x1e
	.long	.LASF183
	.byte	0x2
	.value	0x40e
	.byte	0x7
	.long	0x3b14
	.byte	0x1
	.long	0x3b37
	.long	0x3b3d
	.uleb128 0x2
	.long	0xa1dd
	.byte	0
	.uleb128 0x1e
	.long	.LASF187
	.byte	0x2
	.value	0x418
	.byte	0x7
	.long	0x3aeb
	.byte	0x1
	.long	0x3b53
	.long	0x3b59
	.uleb128 0x2
	.long	0xa1b5
	.byte	0
	.uleb128 0x1e
	.long	.LASF187
	.byte	0x2
	.value	0x422
	.byte	0x7
	.long	0x3b14
	.byte	0x1
	.long	0x3b6f
	.long	0x3b75
	.uleb128 0x2
	.long	0xa1dd
	.byte	0
	.uleb128 0x1e
	.long	.LASF190
	.byte	0x2
	.value	0x42d
	.byte	0x7
	.long	0x3a90
	.byte	0x1
	.long	0x3b8b
	.long	0x3b91
	.uleb128 0x2
	.long	0xa1dd
	.byte	0
	.uleb128 0x1e
	.long	.LASF192
	.byte	0x2
	.value	0x437
	.byte	0x7
	.long	0x3a90
	.byte	0x1
	.long	0x3ba7
	.long	0x3bad
	.uleb128 0x2
	.long	0xa1dd
	.byte	0
	.uleb128 0x1e
	.long	.LASF194
	.byte	0x2
	.value	0x441
	.byte	0x7
	.long	0x3b14
	.byte	0x1
	.long	0x3bc3
	.long	0x3bc9
	.uleb128 0x2
	.long	0xa1dd
	.byte	0
	.uleb128 0x1e
	.long	.LASF196
	.byte	0x2
	.value	0x44b
	.byte	0x7
	.long	0x3b14
	.byte	0x1
	.long	0x3bdf
	.long	0x3be5
	.uleb128 0x2
	.long	0xa1dd
	.byte	0
	.uleb128 0x1e
	.long	.LASF198
	.byte	0x2
	.value	0x453
	.byte	0x7
	.long	0x387b
	.byte	0x1
	.long	0x3bfb
	.long	0x3c01
	.uleb128 0x2
	.long	0xa1dd
	.byte	0
	.uleb128 0x1e
	.long	.LASF83
	.byte	0x2
	.value	0x45e
	.byte	0x7
	.long	0x387b
	.byte	0x1
	.long	0x3c17
	.long	0x3c1d
	.uleb128 0x2
	.long	0xa1dd
	.byte	0
	.uleb128 0x29
	.long	.LASF201
	.byte	0x2
	.value	0x46d
	.byte	0x7
	.byte	0x1
	.long	0x3c2f
	.long	0x3c3a
	.uleb128 0x2
	.long	0xa1b5
	.uleb128 0x1
	.long	0x387b
	.byte	0
	.uleb128 0x29
	.long	.LASF201
	.byte	0x2
	.value	0x482
	.byte	0x7
	.byte	0x1
	.long	0x3c4c
	.long	0x3c5c
	.uleb128 0x2
	.long	0xa1b5
	.uleb128 0x1
	.long	0x387b
	.uleb128 0x1
	.long	0xa1c4
	.byte	0
	.uleb128 0x29
	.long	.LASF204
	.byte	0x2
	.value	0x4a4
	.byte	0x7
	.byte	0x1
	.long	0x3c6e
	.long	0x3c74
	.uleb128 0x2
	.long	0xa1b5
	.byte	0
	.uleb128 0x1e
	.long	.LASF206
	.byte	0x2
	.value	0x4ae
	.byte	0x7
	.long	0x387b
	.byte	0x1
	.long	0x3c8a
	.long	0x3c90
	.uleb128 0x2
	.long	0xa1dd
	.byte	0
	.uleb128 0x1e
	.long	.LASF208
	.byte	0x2
	.value	0x4bd
	.byte	0x7
	.long	0x8fe9
	.byte	0x1
	.long	0x3ca6
	.long	0x3cac
	.uleb128 0x2
	.long	0xa1dd
	.byte	0
	.uleb128 0x51
	.long	.LASF210
	.byte	0x7
	.byte	0x46
	.byte	0x5
	.long	0x3cbc
	.long	0x3cc7
	.uleb128 0x2
	.long	0xa1b5
	.uleb128 0x1
	.long	0x387b
	.byte	0
	.uleb128 0x16
	.long	.LASF74
	.byte	0x2
	.value	0x1e8
	.byte	0x32
	.long	0x8a43
	.uleb128 0x1e
	.long	.LASF212
	.byte	0x2
	.value	0x4e3
	.byte	0x7
	.long	0x3cc7
	.byte	0x1
	.long	0x3cea
	.long	0x3cf5
	.uleb128 0x2
	.long	0xa1b5
	.uleb128 0x1
	.long	0x387b
	.byte	0
	.uleb128 0x16
	.long	.LASF77
	.byte	0x2
	.value	0x1e9
	.byte	0x37
	.long	0x8a4f
	.uleb128 0x1e
	.long	.LASF212
	.byte	0x2
	.value	0x4f6
	.byte	0x7
	.long	0x3cf5
	.byte	0x1
	.long	0x3d18
	.long	0x3d23
	.uleb128 0x2
	.long	0xa1dd
	.uleb128 0x1
	.long	0x387b
	.byte	0
	.uleb128 0x29
	.long	.LASF215
	.byte	0x2
	.value	0x500
	.byte	0x7
	.byte	0x2
	.long	0x3d35
	.long	0x3d40
	.uleb128 0x2
	.long	0xa1dd
	.uleb128 0x1
	.long	0x387b
	.byte	0
	.uleb128 0x6d
	.string	"at"
	.value	0x517
	.long	0x3cc7
	.long	0x3d52
	.long	0x3d5d
	.uleb128 0x2
	.long	0xa1b5
	.uleb128 0x1
	.long	0x387b
	.byte	0
	.uleb128 0x6d
	.string	"at"
	.value	0x52a
	.long	0x3cf5
	.long	0x3d6f
	.long	0x3d7a
	.uleb128 0x2
	.long	0xa1dd
	.uleb128 0x1
	.long	0x387b
	.byte	0
	.uleb128 0x1e
	.long	.LASF219
	.byte	0x2
	.value	0x536
	.byte	0x7
	.long	0x3cc7
	.byte	0x1
	.long	0x3d90
	.long	0x3d96
	.uleb128 0x2
	.long	0xa1b5
	.byte	0
	.uleb128 0x1e
	.long	.LASF219
	.byte	0x2
	.value	0x542
	.byte	0x7
	.long	0x3cf5
	.byte	0x1
	.long	0x3dac
	.long	0x3db2
	.uleb128 0x2
	.long	0xa1dd
	.byte	0
	.uleb128 0x1e
	.long	.LASF222
	.byte	0x2
	.value	0x54e
	.byte	0x7
	.long	0x3cc7
	.byte	0x1
	.long	0x3dc8
	.long	0x3dce
	.uleb128 0x2
	.long	0xa1b5
	.byte	0
	.uleb128 0x1e
	.long	.LASF222
	.byte	0x2
	.value	0x55a
	.byte	0x7
	.long	0x3cf5
	.byte	0x1
	.long	0x3de4
	.long	0x3dea
	.uleb128 0x2
	.long	0xa1dd
	.byte	0
	.uleb128 0x1e
	.long	.LASF225
	.byte	0x2
	.value	0x569
	.byte	0x7
	.long	0xa110
	.byte	0x1
	.long	0x3e00
	.long	0x3e06
	.uleb128 0x2
	.long	0xa1b5
	.byte	0
	.uleb128 0x1e
	.long	.LASF225
	.byte	0x2
	.value	0x56e
	.byte	0x7
	.long	0xa129
	.byte	0x1
	.long	0x3e1c
	.long	0x3e22
	.uleb128 0x2
	.long	0xa1dd
	.byte	0
	.uleb128 0x29
	.long	.LASF228
	.byte	0x2
	.value	0x57e
	.byte	0x7
	.byte	0x1
	.long	0x3e34
	.long	0x3e3f
	.uleb128 0x2
	.long	0xa1b5
	.uleb128 0x1
	.long	0xa1c4
	.byte	0
	.uleb128 0x29
	.long	.LASF228
	.byte	0x2
	.value	0x58f
	.byte	0x7
	.byte	0x1
	.long	0x3e51
	.long	0x3e5c
	.uleb128 0x2
	.long	0xa1b5
	.uleb128 0x1
	.long	0xa1e7
	.byte	0
	.uleb128 0x29
	.long	.LASF231
	.byte	0x2
	.value	0x5a7
	.byte	0x7
	.byte	0x1
	.long	0x3e6e
	.long	0x3e74
	.uleb128 0x2
	.long	0xa1b5
	.byte	0
	.uleb128 0x52
	.long	.LASF233
	.byte	0x7
	.byte	0x89
	.byte	0x5
	.long	0x3a67
	.byte	0x1
	.long	0x3e89
	.long	0x3e99
	.uleb128 0x2
	.long	0xa1b5
	.uleb128 0x1
	.long	0x3a90
	.uleb128 0x1
	.long	0xa1c4
	.byte	0
	.uleb128 0x1e
	.long	.LASF233
	.byte	0x2
	.value	0x5ee
	.byte	0x7
	.long	0x3a67
	.byte	0x1
	.long	0x3eaf
	.long	0x3ebf
	.uleb128 0x2
	.long	0xa1b5
	.uleb128 0x1
	.long	0x3a90
	.uleb128 0x1
	.long	0xa1e7
	.byte	0
	.uleb128 0x1e
	.long	.LASF233
	.byte	0x2
	.value	0x600
	.byte	0x7
	.long	0x3a67
	.byte	0x1
	.long	0x3ed5
	.long	0x3ee5
	.uleb128 0x2
	.long	0xa1b5
	.uleb128 0x1
	.long	0x3a90
	.uleb128 0x1
	.long	0x42c0
	.byte	0
	.uleb128 0x1e
	.long	.LASF233
	.byte	0x2
	.value	0x61a
	.byte	0x7
	.long	0x3a67
	.byte	0x1
	.long	0x3efb
	.long	0x3f10
	.uleb128 0x2
	.long	0xa1b5
	.uleb128 0x1
	.long	0x3a90
	.uleb128 0x1
	.long	0x387b
	.uleb128 0x1
	.long	0xa1c4
	.byte	0
	.uleb128 0x1e
	.long	.LASF238
	.byte	0x2
	.value	0x6f6
	.byte	0x7
	.long	0x3a67
	.byte	0x1
	.long	0x3f26
	.long	0x3f31
	.uleb128 0x2
	.long	0xa1b5
	.uleb128 0x1
	.long	0x3a90
	.byte	0
	.uleb128 0x1e
	.long	.LASF238
	.byte	0x2
	.value	0x712
	.byte	0x7
	.long	0x3a67
	.byte	0x1
	.long	0x3f47
	.long	0x3f57
	.uleb128 0x2
	.long	0xa1b5
	.uleb128 0x1
	.long	0x3a90
	.uleb128 0x1
	.long	0x3a90
	.byte	0
	.uleb128 0x29
	.long	.LASF39
	.byte	0x2
	.value	0x72a
	.byte	0x7
	.byte	0x1
	.long	0x3f69
	.long	0x3f74
	.uleb128 0x2
	.long	0xa1b5
	.uleb128 0x1
	.long	0xa1d8
	.byte	0
	.uleb128 0x29
	.long	.LASF242
	.byte	0x2
	.value	0x73d
	.byte	0x7
	.byte	0x1
	.long	0x3f86
	.long	0x3f8c
	.uleb128 0x2
	.long	0xa1b5
	.byte	0
	.uleb128 0x29
	.long	.LASF244
	.byte	0x2
	.value	0x7c3
	.byte	0x7
	.byte	0x2
	.long	0x3f9e
	.long	0x3fae
	.uleb128 0x2
	.long	0xa1b5
	.uleb128 0x1
	.long	0x387b
	.uleb128 0x1
	.long	0xa1c4
	.byte	0
	.uleb128 0x29
	.long	.LASF246
	.byte	0x2
	.value	0x7ce
	.byte	0x7
	.byte	0x2
	.long	0x3fc0
	.long	0x3fcb
	.uleb128 0x2
	.long	0xa1b5
	.uleb128 0x1
	.long	0x387b
	.byte	0
	.uleb128 0x29
	.long	.LASF248
	.byte	0x7
	.value	0x112
	.byte	0x5
	.byte	0x2
	.long	0x3fdd
	.long	0x3fed
	.uleb128 0x2
	.long	0xa1b5
	.uleb128 0x1
	.long	0x2b5
	.uleb128 0x1
	.long	0xa1c4
	.byte	0
	.uleb128 0x29
	.long	.LASF250
	.byte	0x7
	.value	0x296
	.byte	0x5
	.byte	0x2
	.long	0x3fff
	.long	0x4014
	.uleb128 0x2
	.long	0xa1b5
	.uleb128 0x1
	.long	0x3a67
	.uleb128 0x1
	.long	0x387b
	.uleb128 0x1
	.long	0xa1c4
	.byte	0
	.uleb128 0x29
	.long	.LASF252
	.byte	0x7
	.value	0x300
	.byte	0x5
	.byte	0x2
	.long	0x4026
	.long	0x4036
	.uleb128 0x2
	.long	0xa1b5
	.uleb128 0x1
	.long	0x387b
	.uleb128 0x1
	.long	0xa1c4
	.byte	0
	.uleb128 0x29
	.long	.LASF254
	.byte	0x7
	.value	0x339
	.byte	0x5
	.byte	0x2
	.long	0x4048
	.long	0x4053
	.uleb128 0x2
	.long	0xa1b5
	.uleb128 0x1
	.long	0x387b
	.byte	0
	.uleb128 0x1e
	.long	.LASF256
	.byte	0x7
	.value	0x396
	.byte	0x5
	.long	0x8fe9
	.byte	0x2
	.long	0x4069
	.long	0x406f
	.uleb128 0x2
	.long	0xa1b5
	.byte	0
	.uleb128 0x1e
	.long	.LASF258
	.byte	0x7
	.value	0x16f
	.byte	0x5
	.long	0x3a67
	.byte	0x2
	.long	0x4085
	.long	0x4095
	.uleb128 0x2
	.long	0xa1b5
	.uleb128 0x1
	.long	0x3a90
	.uleb128 0x1
	.long	0xa1e7
	.byte	0
	.uleb128 0x1e
	.long	.LASF260
	.byte	0x2
	.value	0x889
	.byte	0x7
	.long	0x3a67
	.byte	0x2
	.long	0x40ab
	.long	0x40bb
	.uleb128 0x2
	.long	0xa1b5
	.uleb128 0x1
	.long	0x3a90
	.uleb128 0x1
	.long	0xa1e7
	.byte	0
	.uleb128 0x1e
	.long	.LASF262
	.byte	0x2
	.value	0x890
	.byte	0x7
	.long	0x387b
	.byte	0x2
	.long	0x40d1
	.long	0x40e1
	.uleb128 0x2
	.long	0xa1dd
	.uleb128 0x1
	.long	0x387b
	.uleb128 0x1
	.long	0x77e1
	.byte	0
	.uleb128 0x86
	.long	.LASF264
	.value	0x89b
	.long	0x387b
	.long	0x40fc
	.uleb128 0x1
	.long	0x387b
	.uleb128 0x1
	.long	0xa1bf
	.byte	0
	.uleb128 0x86
	.long	.LASF266
	.value	0x8a4
	.long	0x387b
	.long	0x4112
	.uleb128 0x1
	.long	0xa1ec
	.byte	0
	.uleb128 0x29
	.long	.LASF268
	.byte	0x2
	.value	0x8b5
	.byte	0x7
	.byte	0x2
	.long	0x4124
	.long	0x412f
	.uleb128 0x2
	.long	0xa1b5
	.uleb128 0x1
	.long	0x37d3
	.byte	0
	.uleb128 0x52
	.long	.LASF270
	.byte	0x7
	.byte	0xb9
	.byte	0x5
	.long	0x3a67
	.byte	0x2
	.long	0x4144
	.long	0x414f
	.uleb128 0x2
	.long	0xa1b5
	.uleb128 0x1
	.long	0x3a67
	.byte	0
	.uleb128 0x52
	.long	.LASF270
	.byte	0x7
	.byte	0xc7
	.byte	0x5
	.long	0x3a67
	.byte	0x2
	.long	0x4164
	.long	0x4174
	.uleb128 0x2
	.long	0xa1b5
	.uleb128 0x1
	.long	0x3a67
	.uleb128 0x1
	.long	0x3a67
	.byte	0
	.uleb128 0x3c
	.long	.LASF273
	.value	0x8cf
	.byte	0x7
	.long	0x4184
	.long	0x4194
	.uleb128 0x2
	.long	0xa1b5
	.uleb128 0x1
	.long	0xa1ce
	.uleb128 0x1
	.long	0x62f
	.byte	0
	.uleb128 0x3c
	.long	.LASF273
	.value	0x8db
	.byte	0x7
	.long	0x41a4
	.long	0x41b4
	.uleb128 0x2
	.long	0xa1b5
	.uleb128 0x1
	.long	0xa1ce
	.uleb128 0x1
	.long	0x3a3
	.byte	0
	.uleb128 0x1d
	.long	.LASF427
	.byte	0x2
	.value	0x1e0
	.byte	0x2b
	.long	0x33eb
	.uleb128 0x59
	.long	.LASF428
	.byte	0x18
	.byte	0x2
	.value	0x742
	.byte	0xe
	.long	0x4266
	.uleb128 0x4e
	.long	.LASF429
	.value	0x744
	.byte	0xa
	.long	0x37d3
	.byte	0
	.uleb128 0x4e
	.long	.LASF430
	.value	0x745
	.byte	0xc
	.long	0x387b
	.byte	0x8
	.uleb128 0x4e
	.long	.LASF431
	.value	0x746
	.byte	0x9
	.long	0xa444
	.byte	0x10
	.uleb128 0x3c
	.long	.LASF428
	.value	0x749
	.byte	0x2
	.long	0x4206
	.long	0x421b
	.uleb128 0x2
	.long	0xa449
	.uleb128 0x1
	.long	0x37d3
	.uleb128 0x1
	.long	0x387b
	.uleb128 0x1
	.long	0xa444
	.byte	0
	.uleb128 0x3c
	.long	.LASF432
	.value	0x74e
	.byte	0x2
	.long	0x422b
	.long	0x4231
	.uleb128 0x2
	.long	0xa449
	.byte	0
	.uleb128 0x65
	.long	.LASF23
	.value	0x756
	.byte	0x2
	.long	0x37d3
	.long	0x4245
	.long	0x424b
	.uleb128 0x2
	.long	0xa449
	.byte	0
	.uleb128 0xac
	.long	.LASF428
	.byte	0x2
	.value	0x75e
	.byte	0x2
	.byte	0x3
	.long	0x425a
	.uleb128 0x2
	.long	0xa449
	.uleb128 0x1
	.long	0xa453
	.byte	0
	.byte	0
	.uleb128 0x7
	.long	0x41c1
	.uleb128 0x29
	.long	.LASF433
	.byte	0x7
	.value	0x235
	.byte	0x7
	.byte	0x2
	.long	0x428c
	.long	0x4297
	.uleb128 0x53
	.long	.LASF423
	.long	0x428c
	.uleb128 0x54
	.long	0xa12e
	.byte	0
	.uleb128 0x2
	.long	0xa1b5
	.uleb128 0x1
	.long	0xa12e
	.byte	0
	.uleb128 0xf
	.string	"_Tp"
	.long	0x9f8c
	.uleb128 0x64
	.long	.LASF145
	.long	0x3252
	.byte	0
	.uleb128 0x7
	.long	0x374e
	.uleb128 0x9
	.long	.LASF278
	.byte	0x10
	.byte	0xad
	.byte	0xb
	.long	0x3738
	.uleb128 0x7
	.long	0x42af
	.uleb128 0x2f
	.long	.LASF434
	.uleb128 0x2f
	.long	.LASF435
	.uleb128 0x2f
	.long	.LASF436
	.uleb128 0x1a
	.long	.LASF437
	.byte	0x1
	.byte	0x13
	.byte	0xd4
	.byte	0xc
	.long	0x430a
	.uleb128 0x9
	.long	.LASF438
	.byte	0x13
	.byte	0xd8
	.byte	0x2b
	.long	0x622
	.uleb128 0x9
	.long	.LASF73
	.byte	0x13
	.byte	0xd9
	.byte	0x2b
	.long	0xa034
	.uleb128 0x9
	.long	.LASF74
	.byte	0x13
	.byte	0xda
	.byte	0x2b
	.long	0xa043
	.uleb128 0xc
	.long	.LASF439
	.long	0xa034
	.byte	0
	.uleb128 0x3f
	.long	.LASF440
	.byte	0x1
	.byte	0x6
	.byte	0x3f
	.long	0x44a8
	.uleb128 0x23
	.long	.LASF63
	.byte	0x6
	.byte	0x58
	.byte	0x7
	.long	.LASF441
	.byte	0x1
	.long	0x432b
	.long	0x4331
	.uleb128 0x2
	.long	0xa20f
	.byte	0
	.uleb128 0x23
	.long	.LASF63
	.byte	0x6
	.byte	0x5c
	.byte	0x7
	.long	.LASF442
	.byte	0x1
	.long	0x4346
	.long	0x4351
	.uleb128 0x2
	.long	0xa20f
	.uleb128 0x1
	.long	0xa219
	.byte	0
	.uleb128 0x4c
	.long	.LASF34
	.byte	0x6
	.byte	0x64
	.byte	0x18
	.long	.LASF443
	.long	0xa21e
	.long	0x4369
	.long	0x4374
	.uleb128 0x2
	.long	0xa20f
	.uleb128 0x1
	.long	0xa219
	.byte	0
	.uleb128 0x23
	.long	.LASF69
	.byte	0x6
	.byte	0x68
	.byte	0x7
	.long	.LASF444
	.byte	0x1
	.long	0x4389
	.long	0x438f
	.uleb128 0x2
	.long	0xa20f
	.byte	0
	.uleb128 0x27
	.long	.LASF73
	.byte	0x6
	.byte	0x46
	.byte	0x1a
	.long	0xa223
	.uleb128 0x21
	.long	.LASF71
	.byte	0x6
	.byte	0x6b
	.byte	0x7
	.long	.LASF445
	.long	0x438f
	.byte	0x1
	.long	0x43b4
	.long	0x43bf
	.uleb128 0x2
	.long	0xa22d
	.uleb128 0x1
	.long	0x43bf
	.byte	0
	.uleb128 0x27
	.long	.LASF74
	.byte	0x6
	.byte	0x48
	.byte	0x1a
	.long	0xa237
	.uleb128 0x27
	.long	.LASF75
	.byte	0x6
	.byte	0x47
	.byte	0x1a
	.long	0x77dc
	.uleb128 0x21
	.long	.LASF71
	.byte	0x6
	.byte	0x6f
	.byte	0x7
	.long	.LASF446
	.long	0x43cb
	.byte	0x1
	.long	0x43f0
	.long	0x43fb
	.uleb128 0x2
	.long	0xa22d
	.uleb128 0x1
	.long	0x43fb
	.byte	0
	.uleb128 0x27
	.long	.LASF77
	.byte	0x6
	.byte	0x49
	.byte	0x1a
	.long	0xa23c
	.uleb128 0x21
	.long	.LASF78
	.byte	0x6
	.byte	0x81
	.byte	0x7
	.long	.LASF447
	.long	0xa223
	.byte	0x1
	.long	0x4420
	.long	0x4430
	.uleb128 0x2
	.long	0xa20f
	.uleb128 0x1
	.long	0x4430
	.uleb128 0x1
	.long	0x903f
	.byte	0
	.uleb128 0x27
	.long	.LASF80
	.byte	0x6
	.byte	0x43
	.byte	0x1f
	.long	0x2b5
	.uleb128 0x23
	.long	.LASF81
	.byte	0x6
	.byte	0xa7
	.byte	0x7
	.long	.LASF448
	.byte	0x1
	.long	0x4451
	.long	0x4461
	.uleb128 0x2
	.long	0xa20f
	.uleb128 0x1
	.long	0xa223
	.uleb128 0x1
	.long	0x4430
	.byte	0
	.uleb128 0x21
	.long	.LASF83
	.byte	0x6
	.byte	0xc2
	.byte	0x7
	.long	.LASF449
	.long	0x4430
	.byte	0x1
	.long	0x447a
	.long	0x4480
	.uleb128 0x2
	.long	0xa22d
	.byte	0
	.uleb128 0x42
	.long	.LASF85
	.byte	0x6
	.byte	0xf2
	.byte	0x7
	.long	.LASF450
	.long	0x4430
	.long	0x4498
	.long	0x449e
	.uleb128 0x2
	.long	0xa22d
	.byte	0
	.uleb128 0xf
	.string	"_Tp"
	.long	0x48
	.byte	0
	.uleb128 0x7
	.long	0x430a
	.uleb128 0x3f
	.long	.LASF451
	.byte	0x1
	.byte	0x5
	.byte	0x85
	.long	0x4531
	.uleb128 0x46
	.long	0x430a
	.byte	0x1
	.uleb128 0x23
	.long	.LASF88
	.byte	0x5
	.byte	0xa8
	.byte	0x7
	.long	.LASF452
	.byte	0x1
	.long	0x44d4
	.long	0x44da
	.uleb128 0x2
	.long	0xa241
	.byte	0
	.uleb128 0x23
	.long	.LASF88
	.byte	0x5
	.byte	0xac
	.byte	0x7
	.long	.LASF453
	.byte	0x1
	.long	0x44ef
	.long	0x44fa
	.uleb128 0x2
	.long	0xa241
	.uleb128 0x1
	.long	0xa24b
	.byte	0
	.uleb128 0x4c
	.long	.LASF34
	.byte	0x5
	.byte	0xb1
	.byte	0x12
	.long	.LASF454
	.long	0xa250
	.long	0x4512
	.long	0x451d
	.uleb128 0x2
	.long	0xa241
	.uleb128 0x1
	.long	0xa24b
	.byte	0
	.uleb128 0x6a
	.long	.LASF92
	.long	.LASF455
	.long	0x452a
	.uleb128 0x2
	.long	0xa241
	.byte	0
	.byte	0
	.uleb128 0x7
	.long	0x44ad
	.uleb128 0x59
	.long	.LASF456
	.byte	0x1
	.byte	0x8
	.value	0x248
	.byte	0xc
	.long	0x4634
	.uleb128 0x1d
	.long	.LASF73
	.byte	0x8
	.value	0x251
	.byte	0xd
	.long	0xa223
	.uleb128 0x17
	.long	.LASF78
	.byte	0x8
	.value	0x27d
	.byte	0x7
	.long	.LASF457
	.long	0x4544
	.long	0x4571
	.uleb128 0x1
	.long	0xa255
	.uleb128 0x1
	.long	0x4583
	.byte	0
	.uleb128 0x1d
	.long	.LASF97
	.byte	0x8
	.value	0x24b
	.byte	0xd
	.long	0x44ad
	.uleb128 0x7
	.long	0x4571
	.uleb128 0x1d
	.long	.LASF80
	.byte	0x8
	.value	0x260
	.byte	0xd
	.long	0x2b5
	.uleb128 0x17
	.long	.LASF78
	.byte	0x8
	.value	0x28c
	.byte	0x7
	.long	.LASF458
	.long	0x4544
	.long	0x45b5
	.uleb128 0x1
	.long	0xa255
	.uleb128 0x1
	.long	0x4583
	.uleb128 0x1
	.long	0x45b5
	.byte	0
	.uleb128 0x1d
	.long	.LASF99
	.byte	0x8
	.value	0x25a
	.byte	0xd
	.long	0x903f
	.uleb128 0x3b
	.long	.LASF81
	.byte	0x8
	.value	0x2b0
	.byte	0x7
	.long	.LASF459
	.long	0x45e3
	.uleb128 0x1
	.long	0xa255
	.uleb128 0x1
	.long	0x4544
	.uleb128 0x1
	.long	0x4583
	.byte	0
	.uleb128 0x17
	.long	.LASF83
	.byte	0x8
	.value	0x2ed
	.byte	0x7
	.long	.LASF460
	.long	0x4583
	.long	0x45fe
	.uleb128 0x1
	.long	0xa25a
	.byte	0
	.uleb128 0x17
	.long	.LASF101
	.byte	0x8
	.value	0x2fd
	.byte	0x7
	.long	.LASF461
	.long	0x4571
	.long	0x4619
	.uleb128 0x1
	.long	0xa25a
	.byte	0
	.uleb128 0x1d
	.long	.LASF5
	.byte	0x8
	.value	0x24e
	.byte	0xd
	.long	0x48
	.uleb128 0x1d
	.long	.LASF103
	.byte	0x8
	.value	0x26f
	.byte	0x8
	.long	0x44ad
	.byte	0
	.uleb128 0x1a
	.long	.LASF462
	.byte	0x18
	.byte	0x2
	.byte	0x5b
	.byte	0xc
	.long	0x49d5
	.uleb128 0x1a
	.long	.LASF105
	.byte	0x18
	.byte	0x2
	.byte	0x62
	.byte	0xe
	.long	0x46e7
	.uleb128 0x10
	.long	.LASF107
	.byte	0x2
	.byte	0x64
	.byte	0xa
	.long	0x46ec
	.byte	0
	.uleb128 0x10
	.long	.LASF108
	.byte	0x2
	.byte	0x65
	.byte	0xa
	.long	0x46ec
	.byte	0x8
	.uleb128 0x10
	.long	.LASF109
	.byte	0x2
	.byte	0x66
	.byte	0xa
	.long	0x46ec
	.byte	0x10
	.uleb128 0x22
	.long	.LASF105
	.byte	0x2
	.byte	0x69
	.byte	0x2
	.long	.LASF463
	.long	0x4689
	.long	0x468f
	.uleb128 0x2
	.long	0xa269
	.byte	0
	.uleb128 0x22
	.long	.LASF105
	.byte	0x2
	.byte	0x6f
	.byte	0x2
	.long	.LASF464
	.long	0x46a3
	.long	0x46ae
	.uleb128 0x2
	.long	0xa269
	.uleb128 0x1
	.long	0xa273
	.byte	0
	.uleb128 0x22
	.long	.LASF112
	.byte	0x2
	.byte	0x77
	.byte	0x2
	.long	.LASF465
	.long	0x46c2
	.long	0x46cd
	.uleb128 0x2
	.long	0xa269
	.uleb128 0x1
	.long	0xa278
	.byte	0
	.uleb128 0x63
	.long	.LASF114
	.byte	0x80
	.long	.LASF466
	.long	0x46db
	.uleb128 0x2
	.long	0xa269
	.uleb128 0x1
	.long	0xa27d
	.byte	0
	.byte	0
	.uleb128 0x7
	.long	0x4641
	.uleb128 0x9
	.long	.LASF73
	.byte	0x2
	.byte	0x60
	.byte	0x9
	.long	0x8d46
	.uleb128 0x1a
	.long	.LASF115
	.byte	0x18
	.byte	0x2
	.byte	0x8b
	.byte	0xe
	.long	0x47be
	.uleb128 0x33
	.long	0x44ad
	.uleb128 0x33
	.long	0x4641
	.uleb128 0x22
	.long	.LASF115
	.byte	0x2
	.byte	0x8f
	.byte	0x2
	.long	.LASF467
	.long	0x4723
	.long	0x4729
	.uleb128 0x2
	.long	0xa282
	.byte	0
	.uleb128 0x22
	.long	.LASF115
	.byte	0x2
	.byte	0x98
	.byte	0x2
	.long	.LASF468
	.long	0x473d
	.long	0x4748
	.uleb128 0x2
	.long	0xa282
	.uleb128 0x1
	.long	0xa28c
	.byte	0
	.uleb128 0x22
	.long	.LASF115
	.byte	0x2
	.byte	0xa0
	.byte	0x2
	.long	.LASF469
	.long	0x475c
	.long	0x4767
	.uleb128 0x2
	.long	0xa282
	.uleb128 0x1
	.long	0xa291
	.byte	0
	.uleb128 0x22
	.long	.LASF115
	.byte	0x2
	.byte	0xa5
	.byte	0x2
	.long	.LASF470
	.long	0x477b
	.long	0x4786
	.uleb128 0x2
	.long	0xa282
	.uleb128 0x1
	.long	0xa296
	.byte	0
	.uleb128 0x22
	.long	.LASF115
	.byte	0x2
	.byte	0xaa
	.byte	0x2
	.long	.LASF471
	.long	0x479a
	.long	0x47aa
	.uleb128 0x2
	.long	0xa282
	.uleb128 0x1
	.long	0xa296
	.uleb128 0x1
	.long	0xa291
	.byte	0
	.uleb128 0x6b
	.long	.LASF472
	.long	.LASF474
	.long	0x47b7
	.uleb128 0x2
	.long	0xa282
	.byte	0
	.byte	0
	.uleb128 0x9
	.long	.LASF121
	.byte	0x2
	.byte	0x5e
	.byte	0x15
	.long	0x8d77
	.uleb128 0x7
	.long	0x47be
	.uleb128 0x34
	.long	.LASF122
	.value	0x133
	.byte	0x7
	.long	.LASF475
	.long	0xa29b
	.long	0x47e7
	.long	0x47ed
	.uleb128 0x2
	.long	0xa2a0
	.byte	0
	.uleb128 0x34
	.long	.LASF122
	.value	0x138
	.byte	0x7
	.long	.LASF476
	.long	0xa28c
	.long	0x4805
	.long	0x480b
	.uleb128 0x2
	.long	0xa2aa
	.byte	0
	.uleb128 0x1d
	.long	.LASF97
	.byte	0x2
	.value	0x12f
	.byte	0x16
	.long	0x44ad
	.uleb128 0x7
	.long	0x480b
	.uleb128 0x34
	.long	.LASF125
	.value	0x13d
	.byte	0x7
	.long	.LASF477
	.long	0x480b
	.long	0x4835
	.long	0x483b
	.uleb128 0x2
	.long	0xa2aa
	.byte	0
	.uleb128 0x4d
	.long	.LASF127
	.value	0x141
	.long	.LASF478
	.long	0x484e
	.long	0x4854
	.uleb128 0x2
	.long	0xa2a0
	.byte	0
	.uleb128 0x1c
	.long	.LASF127
	.value	0x147
	.long	.LASF479
	.long	0x4867
	.long	0x4872
	.uleb128 0x2
	.long	0xa2a0
	.uleb128 0x1
	.long	0xa2af
	.byte	0
	.uleb128 0x1c
	.long	.LASF127
	.value	0x14d
	.long	.LASF480
	.long	0x4885
	.long	0x4890
	.uleb128 0x2
	.long	0xa2a0
	.uleb128 0x1
	.long	0x2b5
	.byte	0
	.uleb128 0x1c
	.long	.LASF127
	.value	0x153
	.long	.LASF481
	.long	0x48a3
	.long	0x48b3
	.uleb128 0x2
	.long	0xa2a0
	.uleb128 0x1
	.long	0x2b5
	.uleb128 0x1
	.long	0xa2af
	.byte	0
	.uleb128 0x4d
	.long	.LASF127
	.value	0x158
	.long	.LASF482
	.long	0x48c6
	.long	0x48d1
	.uleb128 0x2
	.long	0xa2a0
	.uleb128 0x1
	.long	0xa2b4
	.byte	0
	.uleb128 0x1c
	.long	.LASF127
	.value	0x15d
	.long	.LASF483
	.long	0x48e4
	.long	0x48ef
	.uleb128 0x2
	.long	0xa2a0
	.uleb128 0x1
	.long	0xa296
	.byte	0
	.uleb128 0x1c
	.long	.LASF127
	.value	0x161
	.long	.LASF484
	.long	0x4902
	.long	0x4912
	.uleb128 0x2
	.long	0xa2a0
	.uleb128 0x1
	.long	0xa2b4
	.uleb128 0x1
	.long	0xa2af
	.byte	0
	.uleb128 0x1c
	.long	.LASF127
	.value	0x16f
	.long	.LASF485
	.long	0x4925
	.long	0x4935
	.uleb128 0x2
	.long	0xa2a0
	.uleb128 0x1
	.long	0xa2af
	.uleb128 0x1
	.long	0xa2b4
	.byte	0
	.uleb128 0x1c
	.long	.LASF136
	.value	0x175
	.long	.LASF486
	.long	0x4948
	.long	0x494e
	.uleb128 0x2
	.long	0xa2a0
	.byte	0
	.uleb128 0x4e
	.long	.LASF138
	.value	0x17e
	.byte	0x14
	.long	0x46f8
	.byte	0
	.uleb128 0x34
	.long	.LASF139
	.value	0x182
	.byte	0x7
	.long	.LASF487
	.long	0x46ec
	.long	0x4973
	.long	0x497e
	.uleb128 0x2
	.long	0xa2a0
	.uleb128 0x1
	.long	0x2b5
	.byte	0
	.uleb128 0x1c
	.long	.LASF141
	.value	0x18a
	.long	.LASF488
	.long	0x4991
	.long	0x49a1
	.uleb128 0x2
	.long	0xa2a0
	.uleb128 0x1
	.long	0x46ec
	.uleb128 0x1
	.long	0x2b5
	.byte	0
	.uleb128 0x11
	.long	.LASF143
	.byte	0x2
	.value	0x195
	.byte	0x7
	.long	.LASF489
	.byte	0x2
	.long	0x49b7
	.long	0x49c2
	.uleb128 0x2
	.long	0xa2a0
	.uleb128 0x1
	.long	0x2b5
	.byte	0
	.uleb128 0xf
	.string	"_Tp"
	.long	0x48
	.uleb128 0xc
	.long	.LASF145
	.long	0x44ad
	.byte	0
	.uleb128 0x7
	.long	0x4634
	.uleb128 0x1a
	.long	.LASF490
	.byte	0x1
	.byte	0x10
	.byte	0xa9
	.byte	0xc
	.long	0x49fd
	.uleb128 0x9
	.long	.LASF147
	.byte	0x10
	.byte	0xaa
	.byte	0xd
	.long	0x44ad
	.uleb128 0xc
	.long	.LASF148
	.long	0x44ad
	.byte	0
	.uleb128 0x4a
	.long	.LASF491
	.byte	0x18
	.byte	0x2
	.value	0x1cc
	.long	0x55a5
	.uleb128 0x19
	.byte	0x2
	.value	0x1cc
	.byte	0xb
	.long	0x495b
	.uleb128 0x19
	.byte	0x2
	.value	0x1cc
	.byte	0xb
	.long	0x497e
	.uleb128 0x19
	.byte	0x2
	.value	0x1cc
	.byte	0xb
	.long	0x494e
	.uleb128 0x19
	.byte	0x2
	.value	0x1cc
	.byte	0xb
	.long	0x47ed
	.uleb128 0x19
	.byte	0x2
	.value	0x1cc
	.byte	0xb
	.long	0x47cf
	.uleb128 0x19
	.byte	0x2
	.value	0x1cc
	.byte	0xb
	.long	0x481d
	.uleb128 0x46
	.long	0x4634
	.byte	0x2
	.uleb128 0x17
	.long	.LASF150
	.byte	0x2
	.value	0x1f6
	.byte	0x7
	.long	.LASF492
	.long	0x8fe9
	.long	0x4a61
	.uleb128 0x1
	.long	0x62f
	.byte	0
	.uleb128 0x17
	.long	.LASF150
	.byte	0x2
	.value	0x1ff
	.byte	0x7
	.long	.LASF493
	.long	0x8fe9
	.long	0x4a7c
	.uleb128 0x1
	.long	0x3a3
	.byte	0
	.uleb128 0x6c
	.long	.LASF336
	.long	.LASF494
	.long	0x8fe9
	.uleb128 0x16
	.long	.LASF73
	.byte	0x2
	.value	0x1e6
	.byte	0x29
	.long	0x46ec
	.uleb128 0x17
	.long	.LASF153
	.byte	0x2
	.value	0x20c
	.byte	0x7
	.long	.LASF495
	.long	0x4a89
	.long	0x4ac0
	.uleb128 0x1
	.long	0x4a89
	.uleb128 0x1
	.long	0x4a89
	.uleb128 0x1
	.long	0x4a89
	.uleb128 0x1
	.long	0xa2b9
	.byte	0
	.uleb128 0x1d
	.long	.LASF121
	.byte	0x2
	.value	0x1e1
	.byte	0x2f
	.long	0x47be
	.uleb128 0x7
	.long	0x4ac0
	.uleb128 0x4f
	.long	.LASF155
	.value	0x227
	.long	.LASF496
	.long	0x4ae5
	.long	0x4aeb
	.uleb128 0x2
	.long	0xa2be
	.byte	0
	.uleb128 0x43
	.long	.LASF155
	.byte	0x2
	.value	0x232
	.long	.LASF497
	.long	0x4aff
	.long	0x4b0a
	.uleb128 0x2
	.long	0xa2be
	.uleb128 0x1
	.long	0xa2c8
	.byte	0
	.uleb128 0x16
	.long	.LASF97
	.byte	0x2
	.value	0x1f1
	.byte	0x1a
	.long	0x44ad
	.uleb128 0x7
	.long	0x4b0a
	.uleb128 0x43
	.long	.LASF155
	.byte	0x2
	.value	0x240
	.long	.LASF498
	.long	0x4b30
	.long	0x4b40
	.uleb128 0x2
	.long	0xa2be
	.uleb128 0x1
	.long	0x4b40
	.uleb128 0x1
	.long	0xa2c8
	.byte	0
	.uleb128 0x16
	.long	.LASF80
	.byte	0x2
	.value	0x1ef
	.byte	0x1a
	.long	0x2b5
	.uleb128 0x11
	.long	.LASF155
	.byte	0x2
	.value	0x24d
	.byte	0x7
	.long	.LASF499
	.byte	0x1
	.long	0x4b63
	.long	0x4b78
	.uleb128 0x2
	.long	0xa2be
	.uleb128 0x1
	.long	0x4b40
	.uleb128 0x1
	.long	0xa2cd
	.uleb128 0x1
	.long	0xa2c8
	.byte	0
	.uleb128 0x16
	.long	.LASF5
	.byte	0x2
	.value	0x1e5
	.byte	0x17
	.long	0x48
	.uleb128 0x7
	.long	0x4b78
	.uleb128 0x11
	.long	.LASF155
	.byte	0x2
	.value	0x26d
	.byte	0x7
	.long	.LASF500
	.byte	0x1
	.long	0x4ba0
	.long	0x4bab
	.uleb128 0x2
	.long	0xa2be
	.uleb128 0x1
	.long	0xa2d2
	.byte	0
	.uleb128 0x4f
	.long	.LASF155
	.value	0x280
	.long	.LASF501
	.long	0x4bbe
	.long	0x4bc9
	.uleb128 0x2
	.long	0xa2be
	.uleb128 0x1
	.long	0xa2d7
	.byte	0
	.uleb128 0x11
	.long	.LASF155
	.byte	0x2
	.value	0x284
	.byte	0x7
	.long	.LASF502
	.byte	0x1
	.long	0x4bdf
	.long	0x4bef
	.uleb128 0x2
	.long	0xa2be
	.uleb128 0x1
	.long	0xa2d2
	.uleb128 0x1
	.long	0xa2dc
	.byte	0
	.uleb128 0x1c
	.long	.LASF155
	.value	0x28f
	.long	.LASF503
	.long	0x4c02
	.long	0x4c17
	.uleb128 0x2
	.long	0xa2be
	.uleb128 0x1
	.long	0xa2d7
	.uleb128 0x1
	.long	0xa2c8
	.uleb128 0x1
	.long	0x62f
	.byte	0
	.uleb128 0x1c
	.long	.LASF155
	.value	0x294
	.long	.LASF504
	.long	0x4c2a
	.long	0x4c3f
	.uleb128 0x2
	.long	0xa2be
	.uleb128 0x1
	.long	0xa2d7
	.uleb128 0x1
	.long	0xa2c8
	.uleb128 0x1
	.long	0x3a3
	.byte	0
	.uleb128 0x11
	.long	.LASF155
	.byte	0x2
	.value	0x2a7
	.byte	0x7
	.long	.LASF505
	.byte	0x1
	.long	0x4c55
	.long	0x4c65
	.uleb128 0x2
	.long	0xa2be
	.uleb128 0x1
	.long	0xa2d7
	.uleb128 0x1
	.long	0xa2dc
	.byte	0
	.uleb128 0x11
	.long	.LASF155
	.byte	0x2
	.value	0x2ba
	.byte	0x7
	.long	.LASF506
	.byte	0x1
	.long	0x4c7b
	.long	0x4c8b
	.uleb128 0x2
	.long	0xa2be
	.uleb128 0x1
	.long	0x55bb
	.uleb128 0x1
	.long	0xa2c8
	.byte	0
	.uleb128 0x11
	.long	.LASF167
	.byte	0x2
	.value	0x316
	.byte	0x7
	.long	.LASF507
	.byte	0x1
	.long	0x4ca1
	.long	0x4ca7
	.uleb128 0x2
	.long	0xa2be
	.byte	0
	.uleb128 0x21
	.long	.LASF34
	.byte	0x7
	.byte	0xd6
	.byte	0x5
	.long	.LASF508
	.long	0xa2e1
	.byte	0x1
	.long	0x4cc0
	.long	0x4ccb
	.uleb128 0x2
	.long	0xa2be
	.uleb128 0x1
	.long	0xa2d2
	.byte	0
	.uleb128 0x6
	.long	.LASF34
	.byte	0x2
	.value	0x337
	.byte	0x7
	.long	.LASF509
	.long	0xa2e1
	.byte	0x1
	.long	0x4ce5
	.long	0x4cf0
	.uleb128 0x2
	.long	0xa2be
	.uleb128 0x1
	.long	0xa2d7
	.byte	0
	.uleb128 0x6
	.long	.LASF34
	.byte	0x2
	.value	0x34d
	.byte	0x7
	.long	.LASF510
	.long	0xa2e1
	.byte	0x1
	.long	0x4d0a
	.long	0x4d15
	.uleb128 0x2
	.long	0xa2be
	.uleb128 0x1
	.long	0x55bb
	.byte	0
	.uleb128 0x11
	.long	.LASF172
	.byte	0x2
	.value	0x361
	.byte	0x7
	.long	.LASF511
	.byte	0x1
	.long	0x4d2b
	.long	0x4d3b
	.uleb128 0x2
	.long	0xa2be
	.uleb128 0x1
	.long	0x4b40
	.uleb128 0x1
	.long	0xa2cd
	.byte	0
	.uleb128 0x11
	.long	.LASF172
	.byte	0x2
	.value	0x390
	.byte	0x7
	.long	.LASF512
	.byte	0x1
	.long	0x4d51
	.long	0x4d5c
	.uleb128 0x2
	.long	0xa2be
	.uleb128 0x1
	.long	0x55bb
	.byte	0
	.uleb128 0x16
	.long	.LASF175
	.byte	0x2
	.value	0x1ea
	.byte	0x3d
	.long	0x8d97
	.uleb128 0x6
	.long	.LASF176
	.byte	0x2
	.value	0x3dc
	.byte	0x7
	.long	.LASF513
	.long	0x4d5c
	.byte	0x1
	.long	0x4d83
	.long	0x4d89
	.uleb128 0x2
	.long	0xa2be
	.byte	0
	.uleb128 0x16
	.long	.LASF178
	.byte	0x2
	.value	0x1ec
	.byte	0x7
	.long	0x8d9c
	.uleb128 0x6
	.long	.LASF176
	.byte	0x2
	.value	0x3e6
	.byte	0x7
	.long	.LASF514
	.long	0x4d89
	.byte	0x1
	.long	0x4db0
	.long	0x4db6
	.uleb128 0x2
	.long	0xa2e6
	.byte	0
	.uleb128 0x37
	.string	"end"
	.value	0x3f0
	.long	.LASF515
	.long	0x4d5c
	.long	0x4dcd
	.long	0x4dd3
	.uleb128 0x2
	.long	0xa2be
	.byte	0
	.uleb128 0x37
	.string	"end"
	.value	0x3fa
	.long	.LASF516
	.long	0x4d89
	.long	0x4dea
	.long	0x4df0
	.uleb128 0x2
	.long	0xa2e6
	.byte	0
	.uleb128 0x16
	.long	.LASF182
	.byte	0x2
	.value	0x1ee
	.byte	0x30
	.long	0x56ad
	.uleb128 0x6
	.long	.LASF183
	.byte	0x2
	.value	0x404
	.byte	0x7
	.long	.LASF517
	.long	0x4df0
	.byte	0x1
	.long	0x4e17
	.long	0x4e1d
	.uleb128 0x2
	.long	0xa2be
	.byte	0
	.uleb128 0x16
	.long	.LASF185
	.byte	0x2
	.value	0x1ed
	.byte	0x35
	.long	0x56b2
	.uleb128 0x6
	.long	.LASF183
	.byte	0x2
	.value	0x40e
	.byte	0x7
	.long	.LASF518
	.long	0x4e1d
	.byte	0x1
	.long	0x4e44
	.long	0x4e4a
	.uleb128 0x2
	.long	0xa2e6
	.byte	0
	.uleb128 0x6
	.long	.LASF187
	.byte	0x2
	.value	0x418
	.byte	0x7
	.long	.LASF519
	.long	0x4df0
	.byte	0x1
	.long	0x4e64
	.long	0x4e6a
	.uleb128 0x2
	.long	0xa2be
	.byte	0
	.uleb128 0x6
	.long	.LASF187
	.byte	0x2
	.value	0x422
	.byte	0x7
	.long	.LASF520
	.long	0x4e1d
	.byte	0x1
	.long	0x4e84
	.long	0x4e8a
	.uleb128 0x2
	.long	0xa2e6
	.byte	0
	.uleb128 0x6
	.long	.LASF190
	.byte	0x2
	.value	0x42d
	.byte	0x7
	.long	.LASF521
	.long	0x4d89
	.byte	0x1
	.long	0x4ea4
	.long	0x4eaa
	.uleb128 0x2
	.long	0xa2e6
	.byte	0
	.uleb128 0x6
	.long	.LASF192
	.byte	0x2
	.value	0x437
	.byte	0x7
	.long	.LASF522
	.long	0x4d89
	.byte	0x1
	.long	0x4ec4
	.long	0x4eca
	.uleb128 0x2
	.long	0xa2e6
	.byte	0
	.uleb128 0x6
	.long	.LASF194
	.byte	0x2
	.value	0x441
	.byte	0x7
	.long	.LASF523
	.long	0x4e1d
	.byte	0x1
	.long	0x4ee4
	.long	0x4eea
	.uleb128 0x2
	.long	0xa2e6
	.byte	0
	.uleb128 0x6
	.long	.LASF196
	.byte	0x2
	.value	0x44b
	.byte	0x7
	.long	.LASF524
	.long	0x4e1d
	.byte	0x1
	.long	0x4f04
	.long	0x4f0a
	.uleb128 0x2
	.long	0xa2e6
	.byte	0
	.uleb128 0x6
	.long	.LASF198
	.byte	0x2
	.value	0x453
	.byte	0x7
	.long	.LASF525
	.long	0x4b40
	.byte	0x1
	.long	0x4f24
	.long	0x4f2a
	.uleb128 0x2
	.long	0xa2e6
	.byte	0
	.uleb128 0x6
	.long	.LASF83
	.byte	0x2
	.value	0x45e
	.byte	0x7
	.long	.LASF526
	.long	0x4b40
	.byte	0x1
	.long	0x4f44
	.long	0x4f4a
	.uleb128 0x2
	.long	0xa2e6
	.byte	0
	.uleb128 0x11
	.long	.LASF201
	.byte	0x2
	.value	0x46d
	.byte	0x7
	.long	.LASF527
	.byte	0x1
	.long	0x4f60
	.long	0x4f6b
	.uleb128 0x2
	.long	0xa2be
	.uleb128 0x1
	.long	0x4b40
	.byte	0
	.uleb128 0x11
	.long	.LASF201
	.byte	0x2
	.value	0x482
	.byte	0x7
	.long	.LASF528
	.byte	0x1
	.long	0x4f81
	.long	0x4f91
	.uleb128 0x2
	.long	0xa2be
	.uleb128 0x1
	.long	0x4b40
	.uleb128 0x1
	.long	0xa2cd
	.byte	0
	.uleb128 0x11
	.long	.LASF204
	.byte	0x2
	.value	0x4a4
	.byte	0x7
	.long	.LASF529
	.byte	0x1
	.long	0x4fa7
	.long	0x4fad
	.uleb128 0x2
	.long	0xa2be
	.byte	0
	.uleb128 0x6
	.long	.LASF206
	.byte	0x2
	.value	0x4ae
	.byte	0x7
	.long	.LASF530
	.long	0x4b40
	.byte	0x1
	.long	0x4fc7
	.long	0x4fcd
	.uleb128 0x2
	.long	0xa2e6
	.byte	0
	.uleb128 0x6
	.long	.LASF208
	.byte	0x2
	.value	0x4bd
	.byte	0x7
	.long	.LASF531
	.long	0x8fe9
	.byte	0x1
	.long	0x4fe7
	.long	0x4fed
	.uleb128 0x2
	.long	0xa2e6
	.byte	0
	.uleb128 0x23
	.long	.LASF210
	.byte	0x7
	.byte	0x46
	.byte	0x5
	.long	.LASF532
	.byte	0x1
	.long	0x5002
	.long	0x500d
	.uleb128 0x2
	.long	0xa2be
	.uleb128 0x1
	.long	0x4b40
	.byte	0
	.uleb128 0x16
	.long	.LASF74
	.byte	0x2
	.value	0x1e8
	.byte	0x32
	.long	0x8d52
	.uleb128 0x6
	.long	.LASF212
	.byte	0x2
	.value	0x4e3
	.byte	0x7
	.long	.LASF533
	.long	0x500d
	.byte	0x1
	.long	0x5034
	.long	0x503f
	.uleb128 0x2
	.long	0xa2be
	.uleb128 0x1
	.long	0x4b40
	.byte	0
	.uleb128 0x16
	.long	.LASF77
	.byte	0x2
	.value	0x1e9
	.byte	0x37
	.long	0x8d5e
	.uleb128 0x6
	.long	.LASF212
	.byte	0x2
	.value	0x4f6
	.byte	0x7
	.long	.LASF534
	.long	0x503f
	.byte	0x1
	.long	0x5066
	.long	0x5071
	.uleb128 0x2
	.long	0xa2e6
	.uleb128 0x1
	.long	0x4b40
	.byte	0
	.uleb128 0x11
	.long	.LASF215
	.byte	0x2
	.value	0x500
	.byte	0x7
	.long	.LASF535
	.byte	0x2
	.long	0x5087
	.long	0x5092
	.uleb128 0x2
	.long	0xa2e6
	.uleb128 0x1
	.long	0x4b40
	.byte	0
	.uleb128 0x37
	.string	"at"
	.value	0x517
	.long	.LASF536
	.long	0x500d
	.long	0x50a8
	.long	0x50b3
	.uleb128 0x2
	.long	0xa2be
	.uleb128 0x1
	.long	0x4b40
	.byte	0
	.uleb128 0x37
	.string	"at"
	.value	0x52a
	.long	.LASF537
	.long	0x503f
	.long	0x50c9
	.long	0x50d4
	.uleb128 0x2
	.long	0xa2e6
	.uleb128 0x1
	.long	0x4b40
	.byte	0
	.uleb128 0x6
	.long	.LASF219
	.byte	0x2
	.value	0x536
	.byte	0x7
	.long	.LASF538
	.long	0x500d
	.byte	0x1
	.long	0x50ee
	.long	0x50f4
	.uleb128 0x2
	.long	0xa2be
	.byte	0
	.uleb128 0x6
	.long	.LASF219
	.byte	0x2
	.value	0x542
	.byte	0x7
	.long	.LASF539
	.long	0x503f
	.byte	0x1
	.long	0x510e
	.long	0x5114
	.uleb128 0x2
	.long	0xa2e6
	.byte	0
	.uleb128 0x6
	.long	.LASF222
	.byte	0x2
	.value	0x54e
	.byte	0x7
	.long	.LASF540
	.long	0x500d
	.byte	0x1
	.long	0x512e
	.long	0x5134
	.uleb128 0x2
	.long	0xa2be
	.byte	0
	.uleb128 0x6
	.long	.LASF222
	.byte	0x2
	.value	0x55a
	.byte	0x7
	.long	.LASF541
	.long	0x503f
	.byte	0x1
	.long	0x514e
	.long	0x5154
	.uleb128 0x2
	.long	0xa2e6
	.byte	0
	.uleb128 0x6
	.long	.LASF225
	.byte	0x2
	.value	0x569
	.byte	0x7
	.long	.LASF542
	.long	0xa223
	.byte	0x1
	.long	0x516e
	.long	0x5174
	.uleb128 0x2
	.long	0xa2be
	.byte	0
	.uleb128 0x6
	.long	.LASF225
	.byte	0x2
	.value	0x56e
	.byte	0x7
	.long	.LASF543
	.long	0x77dc
	.byte	0x1
	.long	0x518e
	.long	0x5194
	.uleb128 0x2
	.long	0xa2e6
	.byte	0
	.uleb128 0x11
	.long	.LASF228
	.byte	0x2
	.value	0x57e
	.byte	0x7
	.long	.LASF544
	.byte	0x1
	.long	0x51aa
	.long	0x51b5
	.uleb128 0x2
	.long	0xa2be
	.uleb128 0x1
	.long	0xa2cd
	.byte	0
	.uleb128 0x11
	.long	.LASF228
	.byte	0x2
	.value	0x58f
	.byte	0x7
	.long	.LASF545
	.byte	0x1
	.long	0x51cb
	.long	0x51d6
	.uleb128 0x2
	.long	0xa2be
	.uleb128 0x1
	.long	0xa2eb
	.byte	0
	.uleb128 0x11
	.long	.LASF231
	.byte	0x2
	.value	0x5a7
	.byte	0x7
	.long	.LASF546
	.byte	0x1
	.long	0x51ec
	.long	0x51f2
	.uleb128 0x2
	.long	0xa2be
	.byte	0
	.uleb128 0x21
	.long	.LASF233
	.byte	0x7
	.byte	0x89
	.byte	0x5
	.long	.LASF547
	.long	0x4d5c
	.byte	0x1
	.long	0x520b
	.long	0x521b
	.uleb128 0x2
	.long	0xa2be
	.uleb128 0x1
	.long	0x4d89
	.uleb128 0x1
	.long	0xa2cd
	.byte	0
	.uleb128 0x6
	.long	.LASF233
	.byte	0x2
	.value	0x5ee
	.byte	0x7
	.long	.LASF548
	.long	0x4d5c
	.byte	0x1
	.long	0x5235
	.long	0x5245
	.uleb128 0x2
	.long	0xa2be
	.uleb128 0x1
	.long	0x4d89
	.uleb128 0x1
	.long	0xa2eb
	.byte	0
	.uleb128 0x6
	.long	.LASF233
	.byte	0x2
	.value	0x600
	.byte	0x7
	.long	.LASF549
	.long	0x4d5c
	.byte	0x1
	.long	0x525f
	.long	0x526f
	.uleb128 0x2
	.long	0xa2be
	.uleb128 0x1
	.long	0x4d89
	.uleb128 0x1
	.long	0x55bb
	.byte	0
	.uleb128 0x6
	.long	.LASF233
	.byte	0x2
	.value	0x61a
	.byte	0x7
	.long	.LASF550
	.long	0x4d5c
	.byte	0x1
	.long	0x5289
	.long	0x529e
	.uleb128 0x2
	.long	0xa2be
	.uleb128 0x1
	.long	0x4d89
	.uleb128 0x1
	.long	0x4b40
	.uleb128 0x1
	.long	0xa2cd
	.byte	0
	.uleb128 0x6
	.long	.LASF238
	.byte	0x2
	.value	0x6f6
	.byte	0x7
	.long	.LASF551
	.long	0x4d5c
	.byte	0x1
	.long	0x52b8
	.long	0x52c3
	.uleb128 0x2
	.long	0xa2be
	.uleb128 0x1
	.long	0x4d89
	.byte	0
	.uleb128 0x6
	.long	.LASF238
	.byte	0x2
	.value	0x712
	.byte	0x7
	.long	.LASF552
	.long	0x4d5c
	.byte	0x1
	.long	0x52dd
	.long	0x52ed
	.uleb128 0x2
	.long	0xa2be
	.uleb128 0x1
	.long	0x4d89
	.uleb128 0x1
	.long	0x4d89
	.byte	0
	.uleb128 0x11
	.long	.LASF39
	.byte	0x2
	.value	0x72a
	.byte	0x7
	.long	.LASF553
	.byte	0x1
	.long	0x5303
	.long	0x530e
	.uleb128 0x2
	.long	0xa2be
	.uleb128 0x1
	.long	0xa2e1
	.byte	0
	.uleb128 0x11
	.long	.LASF242
	.byte	0x2
	.value	0x73d
	.byte	0x7
	.long	.LASF554
	.byte	0x1
	.long	0x5324
	.long	0x532a
	.uleb128 0x2
	.long	0xa2be
	.byte	0
	.uleb128 0x11
	.long	.LASF244
	.byte	0x2
	.value	0x7c3
	.byte	0x7
	.long	.LASF555
	.byte	0x2
	.long	0x5340
	.long	0x5350
	.uleb128 0x2
	.long	0xa2be
	.uleb128 0x1
	.long	0x4b40
	.uleb128 0x1
	.long	0xa2cd
	.byte	0
	.uleb128 0x11
	.long	.LASF246
	.byte	0x2
	.value	0x7ce
	.byte	0x7
	.long	.LASF556
	.byte	0x2
	.long	0x5366
	.long	0x5371
	.uleb128 0x2
	.long	0xa2be
	.uleb128 0x1
	.long	0x4b40
	.byte	0
	.uleb128 0x11
	.long	.LASF248
	.byte	0x7
	.value	0x112
	.byte	0x5
	.long	.LASF557
	.byte	0x2
	.long	0x5387
	.long	0x5397
	.uleb128 0x2
	.long	0xa2be
	.uleb128 0x1
	.long	0x2b5
	.uleb128 0x1
	.long	0xa2cd
	.byte	0
	.uleb128 0x11
	.long	.LASF250
	.byte	0x7
	.value	0x296
	.byte	0x5
	.long	.LASF558
	.byte	0x2
	.long	0x53ad
	.long	0x53c2
	.uleb128 0x2
	.long	0xa2be
	.uleb128 0x1
	.long	0x4d5c
	.uleb128 0x1
	.long	0x4b40
	.uleb128 0x1
	.long	0xa2cd
	.byte	0
	.uleb128 0x11
	.long	.LASF252
	.byte	0x7
	.value	0x300
	.byte	0x5
	.long	.LASF559
	.byte	0x2
	.long	0x53d8
	.long	0x53e8
	.uleb128 0x2
	.long	0xa2be
	.uleb128 0x1
	.long	0x4b40
	.uleb128 0x1
	.long	0xa2cd
	.byte	0
	.uleb128 0x11
	.long	.LASF254
	.byte	0x7
	.value	0x339
	.byte	0x5
	.long	.LASF560
	.byte	0x2
	.long	0x53fe
	.long	0x5409
	.uleb128 0x2
	.long	0xa2be
	.uleb128 0x1
	.long	0x4b40
	.byte	0
	.uleb128 0x6
	.long	.LASF256
	.byte	0x7
	.value	0x396
	.byte	0x5
	.long	.LASF561
	.long	0x8fe9
	.byte	0x2
	.long	0x5423
	.long	0x5429
	.uleb128 0x2
	.long	0xa2be
	.byte	0
	.uleb128 0x6
	.long	.LASF258
	.byte	0x7
	.value	0x16f
	.byte	0x5
	.long	.LASF562
	.long	0x4d5c
	.byte	0x2
	.long	0x5443
	.long	0x5453
	.uleb128 0x2
	.long	0xa2be
	.uleb128 0x1
	.long	0x4d89
	.uleb128 0x1
	.long	0xa2eb
	.byte	0
	.uleb128 0x6
	.long	.LASF260
	.byte	0x2
	.value	0x889
	.byte	0x7
	.long	.LASF563
	.long	0x4d5c
	.byte	0x2
	.long	0x546d
	.long	0x547d
	.uleb128 0x2
	.long	0xa2be
	.uleb128 0x1
	.long	0x4d89
	.uleb128 0x1
	.long	0xa2eb
	.byte	0
	.uleb128 0x6
	.long	.LASF262
	.byte	0x2
	.value	0x890
	.byte	0x7
	.long	.LASF564
	.long	0x4b40
	.byte	0x2
	.long	0x5497
	.long	0x54a7
	.uleb128 0x2
	.long	0xa2e6
	.uleb128 0x1
	.long	0x4b40
	.uleb128 0x1
	.long	0x77e1
	.byte	0
	.uleb128 0x50
	.long	.LASF264
	.value	0x89b
	.long	.LASF565
	.long	0x4b40
	.long	0x54c5
	.uleb128 0x1
	.long	0x4b40
	.uleb128 0x1
	.long	0xa2c8
	.byte	0
	.uleb128 0x50
	.long	.LASF266
	.value	0x8a4
	.long	.LASF566
	.long	0x4b40
	.long	0x54de
	.uleb128 0x1
	.long	0xa2f0
	.byte	0
	.uleb128 0x11
	.long	.LASF268
	.byte	0x2
	.value	0x8b5
	.byte	0x7
	.long	.LASF567
	.byte	0x2
	.long	0x54f4
	.long	0x54ff
	.uleb128 0x2
	.long	0xa2be
	.uleb128 0x1
	.long	0x4a89
	.byte	0
	.uleb128 0x21
	.long	.LASF270
	.byte	0x7
	.byte	0xb9
	.byte	0x5
	.long	.LASF568
	.long	0x4d5c
	.byte	0x2
	.long	0x5518
	.long	0x5523
	.uleb128 0x2
	.long	0xa2be
	.uleb128 0x1
	.long	0x4d5c
	.byte	0
	.uleb128 0x21
	.long	.LASF270
	.byte	0x7
	.byte	0xc7
	.byte	0x5
	.long	.LASF569
	.long	0x4d5c
	.byte	0x2
	.long	0x553c
	.long	0x554c
	.uleb128 0x2
	.long	0xa2be
	.uleb128 0x1
	.long	0x4d5c
	.uleb128 0x1
	.long	0x4d5c
	.byte	0
	.uleb128 0x1c
	.long	.LASF273
	.value	0x8cf
	.long	.LASF570
	.long	0x555f
	.long	0x556f
	.uleb128 0x2
	.long	0xa2be
	.uleb128 0x1
	.long	0xa2d7
	.uleb128 0x1
	.long	0x62f
	.byte	0
	.uleb128 0x1c
	.long	.LASF273
	.value	0x8db
	.long	.LASF571
	.long	0x5582
	.long	0x5592
	.uleb128 0x2
	.long	0xa2be
	.uleb128 0x1
	.long	0xa2d7
	.uleb128 0x1
	.long	0x3a3
	.byte	0
	.uleb128 0xf
	.string	"_Tp"
	.long	0x48
	.uleb128 0x64
	.long	.LASF145
	.long	0x44ad
	.byte	0
	.uleb128 0x7
	.long	0x49fd
	.uleb128 0x9
	.long	.LASF278
	.byte	0x10
	.byte	0xad
	.byte	0xb
	.long	0x49e7
	.uleb128 0x7
	.long	0x55aa
	.uleb128 0x3f
	.long	.LASF572
	.byte	0x10
	.byte	0x20
	.byte	0x2f
	.long	0x56a8
	.uleb128 0x27
	.long	.LASF175
	.byte	0x20
	.byte	0x36
	.byte	0x1a
	.long	0x77dc
	.uleb128 0x10
	.long	.LASF573
	.byte	0x20
	.byte	0x3a
	.byte	0x12
	.long	0x55c7
	.byte	0
	.uleb128 0x27
	.long	.LASF80
	.byte	0x20
	.byte	0x35
	.byte	0x18
	.long	0x2b5
	.uleb128 0x10
	.long	.LASF430
	.byte	0x20
	.byte	0x3b
	.byte	0x13
	.long	0x55e0
	.byte	0x8
	.uleb128 0x22
	.long	.LASF574
	.byte	0x20
	.byte	0x3e
	.byte	0x11
	.long	.LASF575
	.long	0x560d
	.long	0x561d
	.uleb128 0x2
	.long	0xa2f5
	.uleb128 0x1
	.long	0x561d
	.uleb128 0x1
	.long	0x55e0
	.byte	0
	.uleb128 0x27
	.long	.LASF178
	.byte	0x20
	.byte	0x37
	.byte	0x1a
	.long	0x77dc
	.uleb128 0x23
	.long	.LASF574
	.byte	0x20
	.byte	0x42
	.byte	0x11
	.long	.LASF576
	.byte	0x1
	.long	0x563e
	.long	0x5644
	.uleb128 0x2
	.long	0xa2f5
	.byte	0
	.uleb128 0x21
	.long	.LASF198
	.byte	0x20
	.byte	0x47
	.byte	0x7
	.long	.LASF577
	.long	0x55e0
	.byte	0x1
	.long	0x565d
	.long	0x5663
	.uleb128 0x2
	.long	0xa2fa
	.byte	0
	.uleb128 0x21
	.long	.LASF176
	.byte	0x20
	.byte	0x4b
	.byte	0x7
	.long	.LASF578
	.long	0x561d
	.byte	0x1
	.long	0x567c
	.long	0x5682
	.uleb128 0x2
	.long	0xa2fa
	.byte	0
	.uleb128 0x87
	.string	"end"
	.byte	0x4f
	.long	.LASF718
	.long	0x561d
	.long	0x5699
	.long	0x569f
	.uleb128 0x2
	.long	0xa2fa
	.byte	0
	.uleb128 0xf
	.string	"_E"
	.long	0x48
	.byte	0
	.uleb128 0x7
	.long	0x55bb
	.uleb128 0x2f
	.long	.LASF579
	.uleb128 0x2f
	.long	.LASF580
	.uleb128 0x3f
	.long	.LASF581
	.byte	0x1
	.byte	0x6
	.byte	0x3f
	.long	0x5855
	.uleb128 0x23
	.long	.LASF63
	.byte	0x6
	.byte	0x58
	.byte	0x7
	.long	.LASF582
	.byte	0x1
	.long	0x56d8
	.long	0x56de
	.uleb128 0x2
	.long	0xa2ff
	.byte	0
	.uleb128 0x23
	.long	.LASF63
	.byte	0x6
	.byte	0x5c
	.byte	0x7
	.long	.LASF583
	.byte	0x1
	.long	0x56f3
	.long	0x56fe
	.uleb128 0x2
	.long	0xa2ff
	.uleb128 0x1
	.long	0xa309
	.byte	0
	.uleb128 0x4c
	.long	.LASF34
	.byte	0x6
	.byte	0x64
	.byte	0x18
	.long	.LASF584
	.long	0xa30e
	.long	0x5716
	.long	0x5721
	.uleb128 0x2
	.long	0xa2ff
	.uleb128 0x1
	.long	0xa309
	.byte	0
	.uleb128 0x23
	.long	.LASF69
	.byte	0x6
	.byte	0x68
	.byte	0x7
	.long	.LASF585
	.byte	0x1
	.long	0x5736
	.long	0x573c
	.uleb128 0x2
	.long	0xa2ff
	.byte	0
	.uleb128 0x27
	.long	.LASF73
	.byte	0x6
	.byte	0x46
	.byte	0x1a
	.long	0xa313
	.uleb128 0x21
	.long	.LASF71
	.byte	0x6
	.byte	0x6b
	.byte	0x7
	.long	.LASF586
	.long	0x573c
	.byte	0x1
	.long	0x5761
	.long	0x576c
	.uleb128 0x2
	.long	0xa318
	.uleb128 0x1
	.long	0x576c
	.byte	0
	.uleb128 0x27
	.long	.LASF74
	.byte	0x6
	.byte	0x48
	.byte	0x1a
	.long	0xa322
	.uleb128 0x27
	.long	.LASF75
	.byte	0x6
	.byte	0x47
	.byte	0x1a
	.long	0xa327
	.uleb128 0x21
	.long	.LASF71
	.byte	0x6
	.byte	0x6f
	.byte	0x7
	.long	.LASF587
	.long	0x5778
	.byte	0x1
	.long	0x579d
	.long	0x57a8
	.uleb128 0x2
	.long	0xa318
	.uleb128 0x1
	.long	0x57a8
	.byte	0
	.uleb128 0x27
	.long	.LASF77
	.byte	0x6
	.byte	0x49
	.byte	0x1a
	.long	0xa32c
	.uleb128 0x21
	.long	.LASF78
	.byte	0x6
	.byte	0x81
	.byte	0x7
	.long	.LASF588
	.long	0xa313
	.byte	0x1
	.long	0x57cd
	.long	0x57dd
	.uleb128 0x2
	.long	0xa2ff
	.uleb128 0x1
	.long	0x57dd
	.uleb128 0x1
	.long	0x903f
	.byte	0
	.uleb128 0x27
	.long	.LASF80
	.byte	0x6
	.byte	0x43
	.byte	0x1f
	.long	0x2b5
	.uleb128 0x23
	.long	.LASF81
	.byte	0x6
	.byte	0xa7
	.byte	0x7
	.long	.LASF589
	.byte	0x1
	.long	0x57fe
	.long	0x580e
	.uleb128 0x2
	.long	0xa2ff
	.uleb128 0x1
	.long	0xa313
	.uleb128 0x1
	.long	0x57dd
	.byte	0
	.uleb128 0x21
	.long	.LASF83
	.byte	0x6
	.byte	0xc2
	.byte	0x7
	.long	.LASF590
	.long	0x57dd
	.byte	0x1
	.long	0x5827
	.long	0x582d
	.uleb128 0x2
	.long	0xa318
	.byte	0
	.uleb128 0x42
	.long	.LASF85
	.byte	0x6
	.byte	0xf2
	.byte	0x7
	.long	.LASF591
	.long	0x57dd
	.long	0x5845
	.long	0x584b
	.uleb128 0x2
	.long	0xa318
	.byte	0
	.uleb128 0xf
	.string	"_Tp"
	.long	0x30
	.byte	0
	.uleb128 0x7
	.long	0x56b7
	.uleb128 0x3f
	.long	.LASF592
	.byte	0x1
	.byte	0x5
	.byte	0x85
	.long	0x58de
	.uleb128 0x46
	.long	0x56b7
	.byte	0x1
	.uleb128 0x23
	.long	.LASF88
	.byte	0x5
	.byte	0xa8
	.byte	0x7
	.long	.LASF593
	.byte	0x1
	.long	0x5881
	.long	0x5887
	.uleb128 0x2
	.long	0xa331
	.byte	0
	.uleb128 0x23
	.long	.LASF88
	.byte	0x5
	.byte	0xac
	.byte	0x7
	.long	.LASF594
	.byte	0x1
	.long	0x589c
	.long	0x58a7
	.uleb128 0x2
	.long	0xa331
	.uleb128 0x1
	.long	0xa33b
	.byte	0
	.uleb128 0x4c
	.long	.LASF34
	.byte	0x5
	.byte	0xb1
	.byte	0x12
	.long	.LASF595
	.long	0xa340
	.long	0x58bf
	.long	0x58ca
	.uleb128 0x2
	.long	0xa331
	.uleb128 0x1
	.long	0xa33b
	.byte	0
	.uleb128 0x6a
	.long	.LASF92
	.long	.LASF596
	.long	0x58d7
	.uleb128 0x2
	.long	0xa331
	.byte	0
	.byte	0
	.uleb128 0x7
	.long	0x585a
	.uleb128 0x59
	.long	.LASF597
	.byte	0x1
	.byte	0x8
	.value	0x248
	.byte	0xc
	.long	0x59e1
	.uleb128 0x1d
	.long	.LASF73
	.byte	0x8
	.value	0x251
	.byte	0xd
	.long	0xa313
	.uleb128 0x17
	.long	.LASF78
	.byte	0x8
	.value	0x27d
	.byte	0x7
	.long	.LASF598
	.long	0x58f1
	.long	0x591e
	.uleb128 0x1
	.long	0xa345
	.uleb128 0x1
	.long	0x5930
	.byte	0
	.uleb128 0x1d
	.long	.LASF97
	.byte	0x8
	.value	0x24b
	.byte	0xd
	.long	0x585a
	.uleb128 0x7
	.long	0x591e
	.uleb128 0x1d
	.long	.LASF80
	.byte	0x8
	.value	0x260
	.byte	0xd
	.long	0x2b5
	.uleb128 0x17
	.long	.LASF78
	.byte	0x8
	.value	0x28c
	.byte	0x7
	.long	.LASF599
	.long	0x58f1
	.long	0x5962
	.uleb128 0x1
	.long	0xa345
	.uleb128 0x1
	.long	0x5930
	.uleb128 0x1
	.long	0x5962
	.byte	0
	.uleb128 0x1d
	.long	.LASF99
	.byte	0x8
	.value	0x25a
	.byte	0xd
	.long	0x903f
	.uleb128 0x3b
	.long	.LASF81
	.byte	0x8
	.value	0x2b0
	.byte	0x7
	.long	.LASF600
	.long	0x5990
	.uleb128 0x1
	.long	0xa345
	.uleb128 0x1
	.long	0x58f1
	.uleb128 0x1
	.long	0x5930
	.byte	0
	.uleb128 0x17
	.long	.LASF83
	.byte	0x8
	.value	0x2ed
	.byte	0x7
	.long	.LASF601
	.long	0x5930
	.long	0x59ab
	.uleb128 0x1
	.long	0xa34a
	.byte	0
	.uleb128 0x17
	.long	.LASF101
	.byte	0x8
	.value	0x2fd
	.byte	0x7
	.long	.LASF602
	.long	0x591e
	.long	0x59c6
	.uleb128 0x1
	.long	0xa34a
	.byte	0
	.uleb128 0x1d
	.long	.LASF5
	.byte	0x8
	.value	0x24e
	.byte	0xd
	.long	0x30
	.uleb128 0x1d
	.long	.LASF103
	.byte	0x8
	.value	0x26f
	.byte	0x8
	.long	0x585a
	.byte	0
	.uleb128 0x1a
	.long	.LASF603
	.byte	0x18
	.byte	0x2
	.byte	0x5b
	.byte	0xc
	.long	0x5d82
	.uleb128 0x1a
	.long	.LASF105
	.byte	0x18
	.byte	0x2
	.byte	0x62
	.byte	0xe
	.long	0x5a94
	.uleb128 0x10
	.long	.LASF107
	.byte	0x2
	.byte	0x64
	.byte	0xa
	.long	0x5a99
	.byte	0
	.uleb128 0x10
	.long	.LASF108
	.byte	0x2
	.byte	0x65
	.byte	0xa
	.long	0x5a99
	.byte	0x8
	.uleb128 0x10
	.long	.LASF109
	.byte	0x2
	.byte	0x66
	.byte	0xa
	.long	0x5a99
	.byte	0x10
	.uleb128 0x22
	.long	.LASF105
	.byte	0x2
	.byte	0x69
	.byte	0x2
	.long	.LASF604
	.long	0x5a36
	.long	0x5a3c
	.uleb128 0x2
	.long	0xa359
	.byte	0
	.uleb128 0x22
	.long	.LASF105
	.byte	0x2
	.byte	0x6f
	.byte	0x2
	.long	.LASF605
	.long	0x5a50
	.long	0x5a5b
	.uleb128 0x2
	.long	0xa359
	.uleb128 0x1
	.long	0xa363
	.byte	0
	.uleb128 0x22
	.long	.LASF112
	.byte	0x2
	.byte	0x77
	.byte	0x2
	.long	.LASF606
	.long	0x5a6f
	.long	0x5a7a
	.uleb128 0x2
	.long	0xa359
	.uleb128 0x1
	.long	0xa368
	.byte	0
	.uleb128 0x63
	.long	.LASF114
	.byte	0x80
	.long	.LASF607
	.long	0x5a88
	.uleb128 0x2
	.long	0xa359
	.uleb128 0x1
	.long	0xa36d
	.byte	0
	.byte	0
	.uleb128 0x7
	.long	0x59ee
	.uleb128 0x9
	.long	.LASF73
	.byte	0x2
	.byte	0x60
	.byte	0x9
	.long	0x8e5f
	.uleb128 0x1a
	.long	.LASF115
	.byte	0x18
	.byte	0x2
	.byte	0x8b
	.byte	0xe
	.long	0x5b6b
	.uleb128 0x33
	.long	0x585a
	.uleb128 0x33
	.long	0x59ee
	.uleb128 0x22
	.long	.LASF115
	.byte	0x2
	.byte	0x8f
	.byte	0x2
	.long	.LASF608
	.long	0x5ad0
	.long	0x5ad6
	.uleb128 0x2
	.long	0xa372
	.byte	0
	.uleb128 0x22
	.long	.LASF115
	.byte	0x2
	.byte	0x98
	.byte	0x2
	.long	.LASF609
	.long	0x5aea
	.long	0x5af5
	.uleb128 0x2
	.long	0xa372
	.uleb128 0x1
	.long	0xa37c
	.byte	0
	.uleb128 0x22
	.long	.LASF115
	.byte	0x2
	.byte	0xa0
	.byte	0x2
	.long	.LASF610
	.long	0x5b09
	.long	0x5b14
	.uleb128 0x2
	.long	0xa372
	.uleb128 0x1
	.long	0xa381
	.byte	0
	.uleb128 0x22
	.long	.LASF115
	.byte	0x2
	.byte	0xa5
	.byte	0x2
	.long	.LASF611
	.long	0x5b28
	.long	0x5b33
	.uleb128 0x2
	.long	0xa372
	.uleb128 0x1
	.long	0xa386
	.byte	0
	.uleb128 0x22
	.long	.LASF115
	.byte	0x2
	.byte	0xaa
	.byte	0x2
	.long	.LASF612
	.long	0x5b47
	.long	0x5b57
	.uleb128 0x2
	.long	0xa372
	.uleb128 0x1
	.long	0xa386
	.uleb128 0x1
	.long	0xa381
	.byte	0
	.uleb128 0x6b
	.long	.LASF472
	.long	.LASF613
	.long	0x5b64
	.uleb128 0x2
	.long	0xa372
	.byte	0
	.byte	0
	.uleb128 0x9
	.long	.LASF121
	.byte	0x2
	.byte	0x5e
	.byte	0x15
	.long	0x8e90
	.uleb128 0x7
	.long	0x5b6b
	.uleb128 0x34
	.long	.LASF122
	.value	0x133
	.byte	0x7
	.long	.LASF614
	.long	0xa38b
	.long	0x5b94
	.long	0x5b9a
	.uleb128 0x2
	.long	0xa390
	.byte	0
	.uleb128 0x34
	.long	.LASF122
	.value	0x138
	.byte	0x7
	.long	.LASF615
	.long	0xa37c
	.long	0x5bb2
	.long	0x5bb8
	.uleb128 0x2
	.long	0xa39a
	.byte	0
	.uleb128 0x1d
	.long	.LASF97
	.byte	0x2
	.value	0x12f
	.byte	0x16
	.long	0x585a
	.uleb128 0x7
	.long	0x5bb8
	.uleb128 0x34
	.long	.LASF125
	.value	0x13d
	.byte	0x7
	.long	.LASF616
	.long	0x5bb8
	.long	0x5be2
	.long	0x5be8
	.uleb128 0x2
	.long	0xa39a
	.byte	0
	.uleb128 0x4d
	.long	.LASF127
	.value	0x141
	.long	.LASF617
	.long	0x5bfb
	.long	0x5c01
	.uleb128 0x2
	.long	0xa390
	.byte	0
	.uleb128 0x1c
	.long	.LASF127
	.value	0x147
	.long	.LASF618
	.long	0x5c14
	.long	0x5c1f
	.uleb128 0x2
	.long	0xa390
	.uleb128 0x1
	.long	0xa39f
	.byte	0
	.uleb128 0x1c
	.long	.LASF127
	.value	0x14d
	.long	.LASF619
	.long	0x5c32
	.long	0x5c3d
	.uleb128 0x2
	.long	0xa390
	.uleb128 0x1
	.long	0x2b5
	.byte	0
	.uleb128 0x1c
	.long	.LASF127
	.value	0x153
	.long	.LASF620
	.long	0x5c50
	.long	0x5c60
	.uleb128 0x2
	.long	0xa390
	.uleb128 0x1
	.long	0x2b5
	.uleb128 0x1
	.long	0xa39f
	.byte	0
	.uleb128 0x4d
	.long	.LASF127
	.value	0x158
	.long	.LASF621
	.long	0x5c73
	.long	0x5c7e
	.uleb128 0x2
	.long	0xa390
	.uleb128 0x1
	.long	0xa3a4
	.byte	0
	.uleb128 0x1c
	.long	.LASF127
	.value	0x15d
	.long	.LASF622
	.long	0x5c91
	.long	0x5c9c
	.uleb128 0x2
	.long	0xa390
	.uleb128 0x1
	.long	0xa386
	.byte	0
	.uleb128 0x1c
	.long	.LASF127
	.value	0x161
	.long	.LASF623
	.long	0x5caf
	.long	0x5cbf
	.uleb128 0x2
	.long	0xa390
	.uleb128 0x1
	.long	0xa3a4
	.uleb128 0x1
	.long	0xa39f
	.byte	0
	.uleb128 0x1c
	.long	.LASF127
	.value	0x16f
	.long	.LASF624
	.long	0x5cd2
	.long	0x5ce2
	.uleb128 0x2
	.long	0xa390
	.uleb128 0x1
	.long	0xa39f
	.uleb128 0x1
	.long	0xa3a4
	.byte	0
	.uleb128 0x1c
	.long	.LASF136
	.value	0x175
	.long	.LASF625
	.long	0x5cf5
	.long	0x5cfb
	.uleb128 0x2
	.long	0xa390
	.byte	0
	.uleb128 0x4e
	.long	.LASF138
	.value	0x17e
	.byte	0x14
	.long	0x5aa5
	.byte	0
	.uleb128 0x34
	.long	.LASF139
	.value	0x182
	.byte	0x7
	.long	.LASF626
	.long	0x5a99
	.long	0x5d20
	.long	0x5d2b
	.uleb128 0x2
	.long	0xa390
	.uleb128 0x1
	.long	0x2b5
	.byte	0
	.uleb128 0x1c
	.long	.LASF141
	.value	0x18a
	.long	.LASF627
	.long	0x5d3e
	.long	0x5d4e
	.uleb128 0x2
	.long	0xa390
	.uleb128 0x1
	.long	0x5a99
	.uleb128 0x1
	.long	0x2b5
	.byte	0
	.uleb128 0x11
	.long	.LASF143
	.byte	0x2
	.value	0x195
	.byte	0x7
	.long	.LASF628
	.byte	0x2
	.long	0x5d64
	.long	0x5d6f
	.uleb128 0x2
	.long	0xa390
	.uleb128 0x1
	.long	0x2b5
	.byte	0
	.uleb128 0xf
	.string	"_Tp"
	.long	0x30
	.uleb128 0xc
	.long	.LASF145
	.long	0x585a
	.byte	0
	.uleb128 0x7
	.long	0x59e1
	.uleb128 0x1a
	.long	.LASF629
	.byte	0x1
	.byte	0x10
	.byte	0xa9
	.byte	0xc
	.long	0x5daa
	.uleb128 0x9
	.long	.LASF147
	.byte	0x10
	.byte	0xaa
	.byte	0xd
	.long	0x585a
	.uleb128 0xc
	.long	.LASF148
	.long	0x585a
	.byte	0
	.uleb128 0x4a
	.long	.LASF630
	.byte	0x18
	.byte	0x2
	.value	0x1cc
	.long	0x697e
	.uleb128 0x19
	.byte	0x2
	.value	0x1cc
	.byte	0xb
	.long	0x5d08
	.uleb128 0x19
	.byte	0x2
	.value	0x1cc
	.byte	0xb
	.long	0x5d2b
	.uleb128 0x19
	.byte	0x2
	.value	0x1cc
	.byte	0xb
	.long	0x5cfb
	.uleb128 0x19
	.byte	0x2
	.value	0x1cc
	.byte	0xb
	.long	0x5b9a
	.uleb128 0x19
	.byte	0x2
	.value	0x1cc
	.byte	0xb
	.long	0x5b7c
	.uleb128 0x19
	.byte	0x2
	.value	0x1cc
	.byte	0xb
	.long	0x5bca
	.uleb128 0x46
	.long	0x59e1
	.byte	0x2
	.uleb128 0x17
	.long	.LASF150
	.byte	0x2
	.value	0x1f6
	.byte	0x7
	.long	.LASF631
	.long	0x8fe9
	.long	0x5e0e
	.uleb128 0x1
	.long	0x62f
	.byte	0
	.uleb128 0x17
	.long	.LASF150
	.byte	0x2
	.value	0x1ff
	.byte	0x7
	.long	.LASF632
	.long	0x8fe9
	.long	0x5e29
	.uleb128 0x1
	.long	0x3a3
	.byte	0
	.uleb128 0x6c
	.long	.LASF336
	.long	.LASF633
	.long	0x8fe9
	.uleb128 0x16
	.long	.LASF73
	.byte	0x2
	.value	0x1e6
	.byte	0x29
	.long	0x5a99
	.uleb128 0x17
	.long	.LASF153
	.byte	0x2
	.value	0x20c
	.byte	0x7
	.long	.LASF634
	.long	0x5e36
	.long	0x5e6d
	.uleb128 0x1
	.long	0x5e36
	.uleb128 0x1
	.long	0x5e36
	.uleb128 0x1
	.long	0x5e36
	.uleb128 0x1
	.long	0xa3a9
	.byte	0
	.uleb128 0x1d
	.long	.LASF121
	.byte	0x2
	.value	0x1e1
	.byte	0x2f
	.long	0x5b6b
	.uleb128 0x7
	.long	0x5e6d
	.uleb128 0x4f
	.long	.LASF155
	.value	0x227
	.long	.LASF635
	.long	0x5e92
	.long	0x5e98
	.uleb128 0x2
	.long	0xa3ae
	.byte	0
	.uleb128 0x43
	.long	.LASF155
	.byte	0x2
	.value	0x232
	.long	.LASF636
	.long	0x5eac
	.long	0x5eb7
	.uleb128 0x2
	.long	0xa3ae
	.uleb128 0x1
	.long	0xa3b8
	.byte	0
	.uleb128 0x16
	.long	.LASF97
	.byte	0x2
	.value	0x1f1
	.byte	0x1a
	.long	0x585a
	.uleb128 0x7
	.long	0x5eb7
	.uleb128 0x43
	.long	.LASF155
	.byte	0x2
	.value	0x240
	.long	.LASF637
	.long	0x5edd
	.long	0x5eed
	.uleb128 0x2
	.long	0xa3ae
	.uleb128 0x1
	.long	0x5eed
	.uleb128 0x1
	.long	0xa3b8
	.byte	0
	.uleb128 0x16
	.long	.LASF80
	.byte	0x2
	.value	0x1ef
	.byte	0x1a
	.long	0x2b5
	.uleb128 0x11
	.long	.LASF155
	.byte	0x2
	.value	0x24d
	.byte	0x7
	.long	.LASF638
	.byte	0x1
	.long	0x5f10
	.long	0x5f25
	.uleb128 0x2
	.long	0xa3ae
	.uleb128 0x1
	.long	0x5eed
	.uleb128 0x1
	.long	0xa3bd
	.uleb128 0x1
	.long	0xa3b8
	.byte	0
	.uleb128 0x16
	.long	.LASF5
	.byte	0x2
	.value	0x1e5
	.byte	0x17
	.long	0x30
	.uleb128 0x7
	.long	0x5f25
	.uleb128 0x11
	.long	.LASF155
	.byte	0x2
	.value	0x26d
	.byte	0x7
	.long	.LASF639
	.byte	0x1
	.long	0x5f4d
	.long	0x5f58
	.uleb128 0x2
	.long	0xa3ae
	.uleb128 0x1
	.long	0xa3c2
	.byte	0
	.uleb128 0x4f
	.long	.LASF155
	.value	0x280
	.long	.LASF640
	.long	0x5f6b
	.long	0x5f76
	.uleb128 0x2
	.long	0xa3ae
	.uleb128 0x1
	.long	0xa3c7
	.byte	0
	.uleb128 0x11
	.long	.LASF155
	.byte	0x2
	.value	0x284
	.byte	0x7
	.long	.LASF641
	.byte	0x1
	.long	0x5f8c
	.long	0x5f9c
	.uleb128 0x2
	.long	0xa3ae
	.uleb128 0x1
	.long	0xa3c2
	.uleb128 0x1
	.long	0xa3cc
	.byte	0
	.uleb128 0x1c
	.long	.LASF155
	.value	0x28f
	.long	.LASF642
	.long	0x5faf
	.long	0x5fc4
	.uleb128 0x2
	.long	0xa3ae
	.uleb128 0x1
	.long	0xa3c7
	.uleb128 0x1
	.long	0xa3b8
	.uleb128 0x1
	.long	0x62f
	.byte	0
	.uleb128 0x1c
	.long	.LASF155
	.value	0x294
	.long	.LASF643
	.long	0x5fd7
	.long	0x5fec
	.uleb128 0x2
	.long	0xa3ae
	.uleb128 0x1
	.long	0xa3c7
	.uleb128 0x1
	.long	0xa3b8
	.uleb128 0x1
	.long	0x3a3
	.byte	0
	.uleb128 0x11
	.long	.LASF155
	.byte	0x2
	.value	0x2a7
	.byte	0x7
	.long	.LASF644
	.byte	0x1
	.long	0x6002
	.long	0x6012
	.uleb128 0x2
	.long	0xa3ae
	.uleb128 0x1
	.long	0xa3c7
	.uleb128 0x1
	.long	0xa3cc
	.byte	0
	.uleb128 0x11
	.long	.LASF155
	.byte	0x2
	.value	0x2ba
	.byte	0x7
	.long	.LASF645
	.byte	0x1
	.long	0x6028
	.long	0x6038
	.uleb128 0x2
	.long	0xa3ae
	.uleb128 0x1
	.long	0x6994
	.uleb128 0x1
	.long	0xa3b8
	.byte	0
	.uleb128 0x11
	.long	.LASF167
	.byte	0x2
	.value	0x316
	.byte	0x7
	.long	.LASF646
	.byte	0x1
	.long	0x604e
	.long	0x6054
	.uleb128 0x2
	.long	0xa3ae
	.byte	0
	.uleb128 0x21
	.long	.LASF34
	.byte	0x7
	.byte	0xd6
	.byte	0x5
	.long	.LASF647
	.long	0xa3d1
	.byte	0x1
	.long	0x606d
	.long	0x6078
	.uleb128 0x2
	.long	0xa3ae
	.uleb128 0x1
	.long	0xa3c2
	.byte	0
	.uleb128 0x6
	.long	.LASF34
	.byte	0x2
	.value	0x337
	.byte	0x7
	.long	.LASF648
	.long	0xa3d1
	.byte	0x1
	.long	0x6092
	.long	0x609d
	.uleb128 0x2
	.long	0xa3ae
	.uleb128 0x1
	.long	0xa3c7
	.byte	0
	.uleb128 0x6
	.long	.LASF34
	.byte	0x2
	.value	0x34d
	.byte	0x7
	.long	.LASF649
	.long	0xa3d1
	.byte	0x1
	.long	0x60b7
	.long	0x60c2
	.uleb128 0x2
	.long	0xa3ae
	.uleb128 0x1
	.long	0x6994
	.byte	0
	.uleb128 0x11
	.long	.LASF172
	.byte	0x2
	.value	0x361
	.byte	0x7
	.long	.LASF650
	.byte	0x1
	.long	0x60d8
	.long	0x60e8
	.uleb128 0x2
	.long	0xa3ae
	.uleb128 0x1
	.long	0x5eed
	.uleb128 0x1
	.long	0xa3bd
	.byte	0
	.uleb128 0x11
	.long	.LASF172
	.byte	0x2
	.value	0x390
	.byte	0x7
	.long	.LASF651
	.byte	0x1
	.long	0x60fe
	.long	0x6109
	.uleb128 0x2
	.long	0xa3ae
	.uleb128 0x1
	.long	0x6994
	.byte	0
	.uleb128 0x16
	.long	.LASF175
	.byte	0x2
	.value	0x1ea
	.byte	0x3d
	.long	0x8eb0
	.uleb128 0x6
	.long	.LASF176
	.byte	0x2
	.value	0x3dc
	.byte	0x7
	.long	.LASF652
	.long	0x6109
	.byte	0x1
	.long	0x6130
	.long	0x6136
	.uleb128 0x2
	.long	0xa3ae
	.byte	0
	.uleb128 0x16
	.long	.LASF178
	.byte	0x2
	.value	0x1ec
	.byte	0x7
	.long	0x8eb5
	.uleb128 0x6
	.long	.LASF176
	.byte	0x2
	.value	0x3e6
	.byte	0x7
	.long	.LASF653
	.long	0x6136
	.byte	0x1
	.long	0x615d
	.long	0x6163
	.uleb128 0x2
	.long	0xa3d6
	.byte	0
	.uleb128 0x37
	.string	"end"
	.value	0x3f0
	.long	.LASF654
	.long	0x6109
	.long	0x617a
	.long	0x6180
	.uleb128 0x2
	.long	0xa3ae
	.byte	0
	.uleb128 0x37
	.string	"end"
	.value	0x3fa
	.long	.LASF655
	.long	0x6136
	.long	0x6197
	.long	0x619d
	.uleb128 0x2
	.long	0xa3d6
	.byte	0
	.uleb128 0x16
	.long	.LASF182
	.byte	0x2
	.value	0x1ee
	.byte	0x30
	.long	0x6a86
	.uleb128 0x6
	.long	.LASF183
	.byte	0x2
	.value	0x404
	.byte	0x7
	.long	.LASF656
	.long	0x619d
	.byte	0x1
	.long	0x61c4
	.long	0x61ca
	.uleb128 0x2
	.long	0xa3ae
	.byte	0
	.uleb128 0x16
	.long	.LASF185
	.byte	0x2
	.value	0x1ed
	.byte	0x35
	.long	0x6a8b
	.uleb128 0x6
	.long	.LASF183
	.byte	0x2
	.value	0x40e
	.byte	0x7
	.long	.LASF657
	.long	0x61ca
	.byte	0x1
	.long	0x61f1
	.long	0x61f7
	.uleb128 0x2
	.long	0xa3d6
	.byte	0
	.uleb128 0x6
	.long	.LASF187
	.byte	0x2
	.value	0x418
	.byte	0x7
	.long	.LASF658
	.long	0x619d
	.byte	0x1
	.long	0x6211
	.long	0x6217
	.uleb128 0x2
	.long	0xa3ae
	.byte	0
	.uleb128 0x6
	.long	.LASF187
	.byte	0x2
	.value	0x422
	.byte	0x7
	.long	.LASF659
	.long	0x61ca
	.byte	0x1
	.long	0x6231
	.long	0x6237
	.uleb128 0x2
	.long	0xa3d6
	.byte	0
	.uleb128 0x6
	.long	.LASF190
	.byte	0x2
	.value	0x42d
	.byte	0x7
	.long	.LASF660
	.long	0x6136
	.byte	0x1
	.long	0x6251
	.long	0x6257
	.uleb128 0x2
	.long	0xa3d6
	.byte	0
	.uleb128 0x6
	.long	.LASF192
	.byte	0x2
	.value	0x437
	.byte	0x7
	.long	.LASF661
	.long	0x6136
	.byte	0x1
	.long	0x6271
	.long	0x6277
	.uleb128 0x2
	.long	0xa3d6
	.byte	0
	.uleb128 0x6
	.long	.LASF194
	.byte	0x2
	.value	0x441
	.byte	0x7
	.long	.LASF662
	.long	0x61ca
	.byte	0x1
	.long	0x6291
	.long	0x6297
	.uleb128 0x2
	.long	0xa3d6
	.byte	0
	.uleb128 0x6
	.long	.LASF196
	.byte	0x2
	.value	0x44b
	.byte	0x7
	.long	.LASF663
	.long	0x61ca
	.byte	0x1
	.long	0x62b1
	.long	0x62b7
	.uleb128 0x2
	.long	0xa3d6
	.byte	0
	.uleb128 0x6
	.long	.LASF198
	.byte	0x2
	.value	0x453
	.byte	0x7
	.long	.LASF664
	.long	0x5eed
	.byte	0x1
	.long	0x62d1
	.long	0x62d7
	.uleb128 0x2
	.long	0xa3d6
	.byte	0
	.uleb128 0x6
	.long	.LASF83
	.byte	0x2
	.value	0x45e
	.byte	0x7
	.long	.LASF665
	.long	0x5eed
	.byte	0x1
	.long	0x62f1
	.long	0x62f7
	.uleb128 0x2
	.long	0xa3d6
	.byte	0
	.uleb128 0x11
	.long	.LASF201
	.byte	0x2
	.value	0x46d
	.byte	0x7
	.long	.LASF666
	.byte	0x1
	.long	0x630d
	.long	0x6318
	.uleb128 0x2
	.long	0xa3ae
	.uleb128 0x1
	.long	0x5eed
	.byte	0
	.uleb128 0x11
	.long	.LASF201
	.byte	0x2
	.value	0x482
	.byte	0x7
	.long	.LASF667
	.byte	0x1
	.long	0x632e
	.long	0x633e
	.uleb128 0x2
	.long	0xa3ae
	.uleb128 0x1
	.long	0x5eed
	.uleb128 0x1
	.long	0xa3bd
	.byte	0
	.uleb128 0x11
	.long	.LASF204
	.byte	0x2
	.value	0x4a4
	.byte	0x7
	.long	.LASF668
	.byte	0x1
	.long	0x6354
	.long	0x635a
	.uleb128 0x2
	.long	0xa3ae
	.byte	0
	.uleb128 0x6
	.long	.LASF206
	.byte	0x2
	.value	0x4ae
	.byte	0x7
	.long	.LASF669
	.long	0x5eed
	.byte	0x1
	.long	0x6374
	.long	0x637a
	.uleb128 0x2
	.long	0xa3d6
	.byte	0
	.uleb128 0x6
	.long	.LASF208
	.byte	0x2
	.value	0x4bd
	.byte	0x7
	.long	.LASF670
	.long	0x8fe9
	.byte	0x1
	.long	0x6394
	.long	0x639a
	.uleb128 0x2
	.long	0xa3d6
	.byte	0
	.uleb128 0x23
	.long	.LASF210
	.byte	0x7
	.byte	0x46
	.byte	0x5
	.long	.LASF671
	.byte	0x1
	.long	0x63af
	.long	0x63ba
	.uleb128 0x2
	.long	0xa3ae
	.uleb128 0x1
	.long	0x5eed
	.byte	0
	.uleb128 0x16
	.long	.LASF74
	.byte	0x2
	.value	0x1e8
	.byte	0x32
	.long	0x8e6b
	.uleb128 0x6
	.long	.LASF212
	.byte	0x2
	.value	0x4e3
	.byte	0x7
	.long	.LASF672
	.long	0x63ba
	.byte	0x1
	.long	0x63e1
	.long	0x63ec
	.uleb128 0x2
	.long	0xa3ae
	.uleb128 0x1
	.long	0x5eed
	.byte	0
	.uleb128 0x16
	.long	.LASF77
	.byte	0x2
	.value	0x1e9
	.byte	0x37
	.long	0x8e77
	.uleb128 0x6
	.long	.LASF212
	.byte	0x2
	.value	0x4f6
	.byte	0x7
	.long	.LASF673
	.long	0x63ec
	.byte	0x1
	.long	0x6413
	.long	0x641e
	.uleb128 0x2
	.long	0xa3d6
	.uleb128 0x1
	.long	0x5eed
	.byte	0
	.uleb128 0x11
	.long	.LASF215
	.byte	0x2
	.value	0x500
	.byte	0x7
	.long	.LASF674
	.byte	0x2
	.long	0x6434
	.long	0x643f
	.uleb128 0x2
	.long	0xa3d6
	.uleb128 0x1
	.long	0x5eed
	.byte	0
	.uleb128 0x37
	.string	"at"
	.value	0x517
	.long	.LASF675
	.long	0x63ba
	.long	0x6455
	.long	0x6460
	.uleb128 0x2
	.long	0xa3ae
	.uleb128 0x1
	.long	0x5eed
	.byte	0
	.uleb128 0x37
	.string	"at"
	.value	0x52a
	.long	.LASF676
	.long	0x63ec
	.long	0x6476
	.long	0x6481
	.uleb128 0x2
	.long	0xa3d6
	.uleb128 0x1
	.long	0x5eed
	.byte	0
	.uleb128 0x6
	.long	.LASF219
	.byte	0x2
	.value	0x536
	.byte	0x7
	.long	.LASF677
	.long	0x63ba
	.byte	0x1
	.long	0x649b
	.long	0x64a1
	.uleb128 0x2
	.long	0xa3ae
	.byte	0
	.uleb128 0x6
	.long	.LASF219
	.byte	0x2
	.value	0x542
	.byte	0x7
	.long	.LASF678
	.long	0x63ec
	.byte	0x1
	.long	0x64bb
	.long	0x64c1
	.uleb128 0x2
	.long	0xa3d6
	.byte	0
	.uleb128 0x6
	.long	.LASF222
	.byte	0x2
	.value	0x54e
	.byte	0x7
	.long	.LASF679
	.long	0x63ba
	.byte	0x1
	.long	0x64db
	.long	0x64e1
	.uleb128 0x2
	.long	0xa3ae
	.byte	0
	.uleb128 0x6
	.long	.LASF222
	.byte	0x2
	.value	0x55a
	.byte	0x7
	.long	.LASF680
	.long	0x63ec
	.byte	0x1
	.long	0x64fb
	.long	0x6501
	.uleb128 0x2
	.long	0xa3d6
	.byte	0
	.uleb128 0x6
	.long	.LASF225
	.byte	0x2
	.value	0x569
	.byte	0x7
	.long	.LASF681
	.long	0xa313
	.byte	0x1
	.long	0x651b
	.long	0x6521
	.uleb128 0x2
	.long	0xa3ae
	.byte	0
	.uleb128 0x6
	.long	.LASF225
	.byte	0x2
	.value	0x56e
	.byte	0x7
	.long	.LASF682
	.long	0xa327
	.byte	0x1
	.long	0x653b
	.long	0x6541
	.uleb128 0x2
	.long	0xa3d6
	.byte	0
	.uleb128 0x11
	.long	.LASF228
	.byte	0x2
	.value	0x57e
	.byte	0x7
	.long	.LASF683
	.byte	0x1
	.long	0x6557
	.long	0x6562
	.uleb128 0x2
	.long	0xa3ae
	.uleb128 0x1
	.long	0xa3bd
	.byte	0
	.uleb128 0x11
	.long	.LASF228
	.byte	0x2
	.value	0x58f
	.byte	0x7
	.long	.LASF684
	.byte	0x1
	.long	0x6578
	.long	0x6583
	.uleb128 0x2
	.long	0xa3ae
	.uleb128 0x1
	.long	0xa3e0
	.byte	0
	.uleb128 0x11
	.long	.LASF231
	.byte	0x2
	.value	0x5a7
	.byte	0x7
	.long	.LASF685
	.byte	0x1
	.long	0x6599
	.long	0x659f
	.uleb128 0x2
	.long	0xa3ae
	.byte	0
	.uleb128 0x21
	.long	.LASF233
	.byte	0x7
	.byte	0x89
	.byte	0x5
	.long	.LASF686
	.long	0x6109
	.byte	0x1
	.long	0x65b8
	.long	0x65c8
	.uleb128 0x2
	.long	0xa3ae
	.uleb128 0x1
	.long	0x6136
	.uleb128 0x1
	.long	0xa3bd
	.byte	0
	.uleb128 0x6
	.long	.LASF233
	.byte	0x2
	.value	0x5ee
	.byte	0x7
	.long	.LASF687
	.long	0x6109
	.byte	0x1
	.long	0x65e2
	.long	0x65f2
	.uleb128 0x2
	.long	0xa3ae
	.uleb128 0x1
	.long	0x6136
	.uleb128 0x1
	.long	0xa3e0
	.byte	0
	.uleb128 0x6
	.long	.LASF233
	.byte	0x2
	.value	0x600
	.byte	0x7
	.long	.LASF688
	.long	0x6109
	.byte	0x1
	.long	0x660c
	.long	0x661c
	.uleb128 0x2
	.long	0xa3ae
	.uleb128 0x1
	.long	0x6136
	.uleb128 0x1
	.long	0x6994
	.byte	0
	.uleb128 0x6
	.long	.LASF233
	.byte	0x2
	.value	0x61a
	.byte	0x7
	.long	.LASF689
	.long	0x6109
	.byte	0x1
	.long	0x6636
	.long	0x664b
	.uleb128 0x2
	.long	0xa3ae
	.uleb128 0x1
	.long	0x6136
	.uleb128 0x1
	.long	0x5eed
	.uleb128 0x1
	.long	0xa3bd
	.byte	0
	.uleb128 0x6
	.long	.LASF238
	.byte	0x2
	.value	0x6f6
	.byte	0x7
	.long	.LASF690
	.long	0x6109
	.byte	0x1
	.long	0x6665
	.long	0x6670
	.uleb128 0x2
	.long	0xa3ae
	.uleb128 0x1
	.long	0x6136
	.byte	0
	.uleb128 0x6
	.long	.LASF238
	.byte	0x2
	.value	0x712
	.byte	0x7
	.long	.LASF691
	.long	0x6109
	.byte	0x1
	.long	0x668a
	.long	0x669a
	.uleb128 0x2
	.long	0xa3ae
	.uleb128 0x1
	.long	0x6136
	.uleb128 0x1
	.long	0x6136
	.byte	0
	.uleb128 0x11
	.long	.LASF39
	.byte	0x2
	.value	0x72a
	.byte	0x7
	.long	.LASF692
	.byte	0x1
	.long	0x66b0
	.long	0x66bb
	.uleb128 0x2
	.long	0xa3ae
	.uleb128 0x1
	.long	0xa3d1
	.byte	0
	.uleb128 0x11
	.long	.LASF242
	.byte	0x2
	.value	0x73d
	.byte	0x7
	.long	.LASF693
	.byte	0x1
	.long	0x66d1
	.long	0x66d7
	.uleb128 0x2
	.long	0xa3ae
	.byte	0
	.uleb128 0x11
	.long	.LASF244
	.byte	0x2
	.value	0x7c3
	.byte	0x7
	.long	.LASF694
	.byte	0x2
	.long	0x66ed
	.long	0x66fd
	.uleb128 0x2
	.long	0xa3ae
	.uleb128 0x1
	.long	0x5eed
	.uleb128 0x1
	.long	0xa3bd
	.byte	0
	.uleb128 0x11
	.long	.LASF246
	.byte	0x2
	.value	0x7ce
	.byte	0x7
	.long	.LASF695
	.byte	0x2
	.long	0x6713
	.long	0x671e
	.uleb128 0x2
	.long	0xa3ae
	.uleb128 0x1
	.long	0x5eed
	.byte	0
	.uleb128 0x11
	.long	.LASF248
	.byte	0x7
	.value	0x112
	.byte	0x5
	.long	.LASF696
	.byte	0x2
	.long	0x6734
	.long	0x6744
	.uleb128 0x2
	.long	0xa3ae
	.uleb128 0x1
	.long	0x2b5
	.uleb128 0x1
	.long	0xa3bd
	.byte	0
	.uleb128 0x11
	.long	.LASF250
	.byte	0x7
	.value	0x296
	.byte	0x5
	.long	.LASF697
	.byte	0x2
	.long	0x675a
	.long	0x676f
	.uleb128 0x2
	.long	0xa3ae
	.uleb128 0x1
	.long	0x6109
	.uleb128 0x1
	.long	0x5eed
	.uleb128 0x1
	.long	0xa3bd
	.byte	0
	.uleb128 0x11
	.long	.LASF252
	.byte	0x7
	.value	0x300
	.byte	0x5
	.long	.LASF698
	.byte	0x2
	.long	0x6785
	.long	0x6795
	.uleb128 0x2
	.long	0xa3ae
	.uleb128 0x1
	.long	0x5eed
	.uleb128 0x1
	.long	0xa3bd
	.byte	0
	.uleb128 0x11
	.long	.LASF254
	.byte	0x7
	.value	0x339
	.byte	0x5
	.long	.LASF699
	.byte	0x2
	.long	0x67ab
	.long	0x67b6
	.uleb128 0x2
	.long	0xa3ae
	.uleb128 0x1
	.long	0x5eed
	.byte	0
	.uleb128 0x6
	.long	.LASF256
	.byte	0x7
	.value	0x396
	.byte	0x5
	.long	.LASF700
	.long	0x8fe9
	.byte	0x2
	.long	0x67d0
	.long	0x67d6
	.uleb128 0x2
	.long	0xa3ae
	.byte	0
	.uleb128 0x6
	.long	.LASF258
	.byte	0x7
	.value	0x16f
	.byte	0x5
	.long	.LASF701
	.long	0x6109
	.byte	0x2
	.long	0x67f0
	.long	0x6800
	.uleb128 0x2
	.long	0xa3ae
	.uleb128 0x1
	.long	0x6136
	.uleb128 0x1
	.long	0xa3e0
	.byte	0
	.uleb128 0x6
	.long	.LASF260
	.byte	0x2
	.value	0x889
	.byte	0x7
	.long	.LASF702
	.long	0x6109
	.byte	0x2
	.long	0x681a
	.long	0x682a
	.uleb128 0x2
	.long	0xa3ae
	.uleb128 0x1
	.long	0x6136
	.uleb128 0x1
	.long	0xa3e0
	.byte	0
	.uleb128 0x6
	.long	.LASF262
	.byte	0x2
	.value	0x890
	.byte	0x7
	.long	.LASF703
	.long	0x5eed
	.byte	0x2
	.long	0x6844
	.long	0x6854
	.uleb128 0x2
	.long	0xa3d6
	.uleb128 0x1
	.long	0x5eed
	.uleb128 0x1
	.long	0x77e1
	.byte	0
	.uleb128 0x50
	.long	.LASF264
	.value	0x89b
	.long	.LASF704
	.long	0x5eed
	.long	0x6872
	.uleb128 0x1
	.long	0x5eed
	.uleb128 0x1
	.long	0xa3b8
	.byte	0
	.uleb128 0x50
	.long	.LASF266
	.value	0x8a4
	.long	.LASF705
	.long	0x5eed
	.long	0x688b
	.uleb128 0x1
	.long	0xa3e5
	.byte	0
	.uleb128 0x11
	.long	.LASF268
	.byte	0x2
	.value	0x8b5
	.byte	0x7
	.long	.LASF706
	.byte	0x2
	.long	0x68a1
	.long	0x68ac
	.uleb128 0x2
	.long	0xa3ae
	.uleb128 0x1
	.long	0x5e36
	.byte	0
	.uleb128 0x21
	.long	.LASF270
	.byte	0x7
	.byte	0xb9
	.byte	0x5
	.long	.LASF707
	.long	0x6109
	.byte	0x2
	.long	0x68c5
	.long	0x68d0
	.uleb128 0x2
	.long	0xa3ae
	.uleb128 0x1
	.long	0x6109
	.byte	0
	.uleb128 0x21
	.long	.LASF270
	.byte	0x7
	.byte	0xc7
	.byte	0x5
	.long	.LASF708
	.long	0x6109
	.byte	0x2
	.long	0x68e9
	.long	0x68f9
	.uleb128 0x2
	.long	0xa3ae
	.uleb128 0x1
	.long	0x6109
	.uleb128 0x1
	.long	0x6109
	.byte	0
	.uleb128 0x1c
	.long	.LASF273
	.value	0x8cf
	.long	.LASF709
	.long	0x690c
	.long	0x691c
	.uleb128 0x2
	.long	0xa3ae
	.uleb128 0x1
	.long	0xa3c7
	.uleb128 0x1
	.long	0x62f
	.byte	0
	.uleb128 0x1c
	.long	.LASF273
	.value	0x8db
	.long	.LASF710
	.long	0x692f
	.long	0x693f
	.uleb128 0x2
	.long	0xa3ae
	.uleb128 0x1
	.long	0xa3c7
	.uleb128 0x1
	.long	0x3a3
	.byte	0
	.uleb128 0x34
	.long	.LASF711
	.value	0x8ee
	.byte	0x2
	.long	.LASF712
	.long	0xa313
	.long	0x6960
	.long	0x696b
	.uleb128 0xf
	.string	"_Up"
	.long	0x30
	.uleb128 0x2
	.long	0xa3d6
	.uleb128 0x1
	.long	0xa313
	.byte	0
	.uleb128 0xf
	.string	"_Tp"
	.long	0x30
	.uleb128 0x64
	.long	.LASF145
	.long	0x585a
	.byte	0
	.uleb128 0x7
	.long	0x5daa
	.uleb128 0x9
	.long	.LASF278
	.byte	0x10
	.byte	0xad
	.byte	0xb
	.long	0x5d94
	.uleb128 0x7
	.long	0x6983
	.uleb128 0x3f
	.long	.LASF713
	.byte	0x10
	.byte	0x20
	.byte	0x2f
	.long	0x6a81
	.uleb128 0x27
	.long	.LASF175
	.byte	0x20
	.byte	0x36
	.byte	0x1a
	.long	0xa327
	.uleb128 0x10
	.long	.LASF573
	.byte	0x20
	.byte	0x3a
	.byte	0x12
	.long	0x69a0
	.byte	0
	.uleb128 0x27
	.long	.LASF80
	.byte	0x20
	.byte	0x35
	.byte	0x18
	.long	0x2b5
	.uleb128 0x10
	.long	.LASF430
	.byte	0x20
	.byte	0x3b
	.byte	0x13
	.long	0x69b9
	.byte	0x8
	.uleb128 0x22
	.long	.LASF574
	.byte	0x20
	.byte	0x3e
	.byte	0x11
	.long	.LASF714
	.long	0x69e6
	.long	0x69f6
	.uleb128 0x2
	.long	0xa3ea
	.uleb128 0x1
	.long	0x69f6
	.uleb128 0x1
	.long	0x69b9
	.byte	0
	.uleb128 0x27
	.long	.LASF178
	.byte	0x20
	.byte	0x37
	.byte	0x1a
	.long	0xa327
	.uleb128 0x23
	.long	.LASF574
	.byte	0x20
	.byte	0x42
	.byte	0x11
	.long	.LASF715
	.byte	0x1
	.long	0x6a17
	.long	0x6a1d
	.uleb128 0x2
	.long	0xa3ea
	.byte	0
	.uleb128 0x21
	.long	.LASF198
	.byte	0x20
	.byte	0x47
	.byte	0x7
	.long	.LASF716
	.long	0x69b9
	.byte	0x1
	.long	0x6a36
	.long	0x6a3c
	.uleb128 0x2
	.long	0xa3ef
	.byte	0
	.uleb128 0x21
	.long	.LASF176
	.byte	0x20
	.byte	0x4b
	.byte	0x7
	.long	.LASF717
	.long	0x69f6
	.byte	0x1
	.long	0x6a55
	.long	0x6a5b
	.uleb128 0x2
	.long	0xa3ef
	.byte	0
	.uleb128 0x87
	.string	"end"
	.byte	0x4f
	.long	.LASF719
	.long	0x69f6
	.long	0x6a72
	.long	0x6a78
	.uleb128 0x2
	.long	0xa3ef
	.byte	0
	.uleb128 0xf
	.string	"_E"
	.long	0x30
	.byte	0
	.uleb128 0x7
	.long	0x6994
	.uleb128 0x2f
	.long	.LASF720
	.uleb128 0x2f
	.long	.LASF721
	.uleb128 0x1a
	.long	.LASF722
	.byte	0x1
	.byte	0x13
	.byte	0xd4
	.byte	0xc
	.long	0x6acb
	.uleb128 0x9
	.long	.LASF438
	.byte	0x13
	.byte	0xd8
	.byte	0x2b
	.long	0x622
	.uleb128 0x9
	.long	.LASF73
	.byte	0x13
	.byte	0xd9
	.byte	0x2b
	.long	0xa110
	.uleb128 0x9
	.long	.LASF74
	.byte	0x13
	.byte	0xda
	.byte	0x2b
	.long	0xa124
	.uleb128 0xc
	.long	.LASF439
	.long	0xa110
	.byte	0
	.uleb128 0x73
	.long	.LASF56
	.byte	0x10
	.byte	0xaf
	.byte	0xd
	.uleb128 0x1a
	.long	.LASF723
	.byte	0x1
	.byte	0x10
	.byte	0x8d
	.byte	0xc
	.long	0x6af6
	.uleb128 0x9
	.long	.LASF147
	.byte	0x10
	.byte	0x8e
	.byte	0xd
	.long	0xa110
	.uleb128 0xf
	.string	"_Tp"
	.long	0xa110
	.byte	0
	.uleb128 0x1a
	.long	.LASF724
	.byte	0x1
	.byte	0x13
	.byte	0xdf
	.byte	0xc
	.long	0x6b31
	.uleb128 0x9
	.long	.LASF438
	.byte	0x13
	.byte	0xe3
	.byte	0x2b
	.long	0x622
	.uleb128 0x9
	.long	.LASF73
	.byte	0x13
	.byte	0xe4
	.byte	0x2b
	.long	0xa048
	.uleb128 0x9
	.long	.LASF74
	.byte	0x13
	.byte	0xe5
	.byte	0x2b
	.long	0xa052
	.uleb128 0xc
	.long	.LASF439
	.long	0xa048
	.byte	0
	.uleb128 0x1a
	.long	.LASF725
	.byte	0x1
	.byte	0x13
	.byte	0xd4
	.byte	0xc
	.long	0x6b6c
	.uleb128 0x9
	.long	.LASF438
	.byte	0x13
	.byte	0xd8
	.byte	0x2b
	.long	0x622
	.uleb128 0x9
	.long	.LASF73
	.byte	0x13
	.byte	0xd9
	.byte	0x2b
	.long	0x9d31
	.uleb128 0x9
	.long	.LASF74
	.byte	0x13
	.byte	0xda
	.byte	0x2b
	.long	0x9d45
	.uleb128 0xc
	.long	.LASF439
	.long	0x9d31
	.byte	0
	.uleb128 0x1a
	.long	.LASF726
	.byte	0x1
	.byte	0x13
	.byte	0xd4
	.byte	0xc
	.long	0x6b9b
	.uleb128 0x9
	.long	.LASF5
	.byte	0x13
	.byte	0xd7
	.byte	0x2b
	.long	0x30
	.uleb128 0x9
	.long	.LASF438
	.byte	0x13
	.byte	0xd8
	.byte	0x2b
	.long	0x622
	.uleb128 0xc
	.long	.LASF439
	.long	0xa313
	.byte	0
	.uleb128 0x1a
	.long	.LASF727
	.byte	0x10
	.byte	0xc
	.byte	0x6d
	.byte	0xc
	.long	0x6c6b
	.uleb128 0x7d
	.long	.LASF728
	.byte	0xc
	.byte	0x71
	.byte	0x7
	.long	.LASF729
	.long	0x6bbc
	.long	0x6bc7
	.uleb128 0x2
	.long	0xa458
	.uleb128 0x1
	.long	0xa462
	.byte	0
	.uleb128 0x22
	.long	.LASF730
	.byte	0xc
	.byte	0x76
	.byte	0x7
	.long	.LASF731
	.long	0x6bdb
	.long	0x6be1
	.uleb128 0x2
	.long	0xa458
	.byte	0
	.uleb128 0x22
	.long	.LASF732
	.byte	0xc
	.byte	0x83
	.byte	0xc
	.long	.LASF733
	.long	0x6bf5
	.long	0x6bfb
	.uleb128 0x2
	.long	0xa458
	.byte	0
	.uleb128 0x10
	.long	.LASF734
	.byte	0xc
	.byte	0x85
	.byte	0x1e
	.long	0xa228
	.byte	0
	.uleb128 0x10
	.long	.LASF735
	.byte	0xc
	.byte	0x86
	.byte	0x19
	.long	0xa467
	.byte	0x8
	.uleb128 0x23
	.long	.LASF728
	.byte	0xc
	.byte	0x89
	.byte	0x7
	.long	.LASF736
	.byte	0x3
	.long	0x6c2a
	.long	0x6c35
	.uleb128 0x2
	.long	0xa458
	.uleb128 0x1
	.long	0xa46c
	.byte	0
	.uleb128 0xad
	.long	.LASF737
	.byte	0xc
	.byte	0x8e
	.byte	0x2
	.long	.LASF738
	.byte	0x3
	.long	0x6c5b
	.uleb128 0xc
	.long	.LASF739
	.long	0xa223
	.uleb128 0x1
	.long	0xa223
	.uleb128 0x1
	.long	0xa223
	.byte	0
	.uleb128 0xc
	.long	.LASF59
	.long	0xa223
	.uleb128 0xae
	.long	.LASF145
	.byte	0
	.uleb128 0x7
	.long	0x6b9b
	.uleb128 0xaf
	.long	.LASF1426
	.byte	0x10
	.value	0x6e5
	.byte	0x26
	.long	0x8ff0
	.byte	0x1
	.byte	0x3
	.uleb128 0xb0
	.long	.LASF740
	.long	0x6ccd
	.uleb128 0xb1
	.long	.LASF1427
	.byte	0x21
	.value	0x1bc
	.byte	0xd
	.long	.LASF1428
	.byte	0x1
	.long	0x6c80
	.byte	0x1
	.long	0x6ca7
	.byte	0
	.long	0x6cad
	.uleb128 0x2
	.long	0xa487
	.byte	0
	.uleb128 0xb2
	.long	.LASF740
	.byte	0x21
	.value	0x1b6
	.byte	0xe
	.long	.LASF741
	.byte	0x1
	.long	0x6cc1
	.byte	0
	.uleb128 0x2
	.long	0xa487
	.uleb128 0x1
	.long	0x77e1
	.byte	0
	.byte	0
	.uleb128 0x88
	.long	.LASF742
	.byte	0x45
	.long	.LASF744
	.uleb128 0x88
	.long	.LASF743
	.byte	0x42
	.long	.LASF745
	.uleb128 0x7e
	.long	.LASF746
	.byte	0x23
	.byte	0x4f
	.byte	0x3
	.long	.LASF747
	.long	0x6cf9
	.uleb128 0x1
	.long	0x77e1
	.byte	0
	.uleb128 0x3b
	.long	.LASF748
	.byte	0xa
	.value	0x37f
	.byte	0x5
	.long	.LASF749
	.long	0x6d2c
	.uleb128 0xc
	.long	.LASF59
	.long	0xa313
	.uleb128 0xf
	.string	"_Tp"
	.long	0x30
	.uleb128 0x1
	.long	0xa313
	.uleb128 0x1
	.long	0xa313
	.uleb128 0x1
	.long	0xa32c
	.byte	0
	.uleb128 0x3b
	.long	.LASF750
	.byte	0xa
	.value	0x3d0
	.byte	0x5
	.long	.LASF751
	.long	0x6d5f
	.uleb128 0xc
	.long	.LASF752
	.long	0xa313
	.uleb128 0xf
	.string	"_Tp"
	.long	0x30
	.uleb128 0x1
	.long	0xa313
	.uleb128 0x1
	.long	0xa313
	.uleb128 0x1
	.long	0xa32c
	.byte	0
	.uleb128 0x17
	.long	.LASF753
	.byte	0xa
	.value	0x475
	.byte	0x5
	.long	.LASF754
	.long	0xa313
	.long	0x6da4
	.uleb128 0xc
	.long	.LASF755
	.long	0xa313
	.uleb128 0xc
	.long	.LASF60
	.long	0x7556
	.uleb128 0xf
	.string	"_Tp"
	.long	0x30
	.uleb128 0x1
	.long	0xa313
	.uleb128 0x1
	.long	0x7556
	.uleb128 0x1
	.long	0xa32c
	.uleb128 0x1
	.long	0x68f
	.byte	0
	.uleb128 0x17
	.long	.LASF756
	.byte	0xa
	.value	0x49b
	.byte	0x5
	.long	.LASF757
	.long	0xa313
	.long	0x6de4
	.uleb128 0xf
	.string	"_OI"
	.long	0xa313
	.uleb128 0xc
	.long	.LASF60
	.long	0x7556
	.uleb128 0xf
	.string	"_Tp"
	.long	0x30
	.uleb128 0x1
	.long	0xa313
	.uleb128 0x1
	.long	0x7556
	.uleb128 0x1
	.long	0xa32c
	.byte	0
	.uleb128 0x47
	.long	.LASF758
	.byte	0xb
	.byte	0x7b
	.byte	0x5
	.long	.LASF759
	.long	0x6e09
	.uleb128 0xf
	.string	"_Tp"
	.long	0x30
	.uleb128 0x89
	.long	.LASF423
	.uleb128 0x1
	.long	0xa313
	.byte	0
	.uleb128 0x47
	.long	.LASF760
	.byte	0xb
	.byte	0x7b
	.byte	0x5
	.long	.LASF761
	.long	0x6e3c
	.uleb128 0xf
	.string	"_Tp"
	.long	0x48
	.uleb128 0x53
	.long	.LASF423
	.long	0x6e31
	.uleb128 0x54
	.long	0xa23c
	.byte	0
	.uleb128 0x1
	.long	0xa223
	.uleb128 0x1
	.long	0xa23c
	.byte	0
	.uleb128 0x3b
	.long	.LASF762
	.byte	0xa
	.value	0x3a7
	.byte	0x5
	.long	.LASF763
	.long	0x6e6f
	.uleb128 0xf
	.string	"_Up"
	.long	0x8fff
	.uleb128 0xf
	.string	"_Tp"
	.long	0x8fff
	.uleb128 0x1
	.long	0x9d31
	.uleb128 0x1
	.long	0x9d31
	.uleb128 0x1
	.long	0x9d4f
	.byte	0
	.uleb128 0x17
	.long	.LASF764
	.byte	0xc
	.value	0x1dd
	.byte	0x5
	.long	.LASF765
	.long	0xa223
	.long	0x6eaf
	.uleb128 0xc
	.long	.LASF59
	.long	0xa223
	.uleb128 0xc
	.long	.LASF60
	.long	0x7556
	.uleb128 0xf
	.string	"_Tp"
	.long	0x48
	.uleb128 0x1
	.long	0xa223
	.uleb128 0x1
	.long	0x7556
	.uleb128 0x1
	.long	0xa23c
	.byte	0
	.uleb128 0x3b
	.long	.LASF766
	.byte	0xa
	.value	0x3d0
	.byte	0x5
	.long	.LASF767
	.long	0x6ee2
	.uleb128 0xc
	.long	.LASF752
	.long	0x9d31
	.uleb128 0xf
	.string	"_Tp"
	.long	0x8fff
	.uleb128 0x1
	.long	0x9d31
	.uleb128 0x1
	.long	0x9d31
	.uleb128 0x1
	.long	0x9d4f
	.byte	0
	.uleb128 0x17
	.long	.LASF768
	.byte	0x3
	.value	0xbce
	.byte	0x5
	.long	.LASF769
	.long	0x9d31
	.long	0x6f06
	.uleb128 0xc
	.long	.LASF439
	.long	0x9d31
	.uleb128 0x1
	.long	0x9d31
	.byte	0
	.uleb128 0x3b
	.long	.LASF770
	.byte	0xa
	.value	0x3bc
	.byte	0x5
	.long	.LASF771
	.long	0x6f42
	.uleb128 0xc
	.long	.LASF772
	.long	0x9d31
	.uleb128 0xc
	.long	.LASF773
	.long	0x11ea
	.uleb128 0xf
	.string	"_Tp"
	.long	0x8fff
	.uleb128 0x1
	.long	0x81e6
	.uleb128 0x1
	.long	0x81e6
	.uleb128 0x1
	.long	0x9d4f
	.byte	0
	.uleb128 0x17
	.long	.LASF774
	.byte	0xc
	.value	0x3d6
	.byte	0x5
	.long	.LASF775
	.long	0xa313
	.long	0x6f74
	.uleb128 0xc
	.long	.LASF59
	.long	0xa313
	.uleb128 0xc
	.long	.LASF60
	.long	0x7556
	.uleb128 0x1
	.long	0xa313
	.uleb128 0x1
	.long	0x7556
	.byte	0
	.uleb128 0x17
	.long	.LASF776
	.byte	0xc
	.value	0x226
	.byte	0x5
	.long	.LASF777
	.long	0xa223
	.long	0x6fb4
	.uleb128 0xc
	.long	.LASF59
	.long	0xa223
	.uleb128 0xc
	.long	.LASF60
	.long	0x7556
	.uleb128 0xf
	.string	"_Tp"
	.long	0x48
	.uleb128 0x1
	.long	0xa223
	.uleb128 0x1
	.long	0x7556
	.uleb128 0x1
	.long	0xa23c
	.byte	0
	.uleb128 0x17
	.long	.LASF778
	.byte	0xa
	.value	0x100
	.byte	0x5
	.long	.LASF779
	.long	0xaea5
	.long	0x6fdd
	.uleb128 0xf
	.string	"_Tp"
	.long	0x7556
	.uleb128 0x1
	.long	0xaea5
	.uleb128 0x1
	.long	0xaea5
	.byte	0
	.uleb128 0x17
	.long	.LASF780
	.byte	0xa
	.value	0x475
	.byte	0x5
	.long	.LASF781
	.long	0x9d31
	.long	0x7022
	.uleb128 0xc
	.long	.LASF755
	.long	0x9d31
	.uleb128 0xc
	.long	.LASF60
	.long	0x7556
	.uleb128 0xf
	.string	"_Tp"
	.long	0x8fff
	.uleb128 0x1
	.long	0x9d31
	.uleb128 0x1
	.long	0x7556
	.uleb128 0x1
	.long	0x9d4f
	.uleb128 0x1
	.long	0x68f
	.byte	0
	.uleb128 0x17
	.long	.LASF782
	.byte	0xc
	.value	0x226
	.byte	0x5
	.long	.LASF783
	.long	0x9d31
	.long	0x7062
	.uleb128 0xc
	.long	.LASF59
	.long	0x9d31
	.uleb128 0xc
	.long	.LASF60
	.long	0x7556
	.uleb128 0xf
	.string	"_Tp"
	.long	0x8fff
	.uleb128 0x1
	.long	0x9d31
	.uleb128 0x1
	.long	0x7556
	.uleb128 0x1
	.long	0x9d4f
	.byte	0
	.uleb128 0x3b
	.long	.LASF784
	.byte	0xa
	.value	0x3d0
	.byte	0x5
	.long	.LASF785
	.long	0x7095
	.uleb128 0xc
	.long	.LASF752
	.long	0x81e6
	.uleb128 0xf
	.string	"_Tp"
	.long	0x8fff
	.uleb128 0x1
	.long	0x81e6
	.uleb128 0x1
	.long	0x81e6
	.uleb128 0x1
	.long	0x9d4f
	.byte	0
	.uleb128 0x47
	.long	.LASF786
	.byte	0xb
	.byte	0xdb
	.byte	0x5
	.long	.LASF787
	.long	0x70b9
	.uleb128 0xc
	.long	.LASF59
	.long	0xa313
	.uleb128 0x1
	.long	0xa313
	.uleb128 0x1
	.long	0xa313
	.byte	0
	.uleb128 0x17
	.long	.LASF788
	.byte	0xc
	.value	0x41b
	.byte	0x5
	.long	.LASF789
	.long	0xa313
	.long	0x70f9
	.uleb128 0xc
	.long	.LASF59
	.long	0xa313
	.uleb128 0xc
	.long	.LASF60
	.long	0x7556
	.uleb128 0xf
	.string	"_Tp"
	.long	0x30
	.uleb128 0x1
	.long	0xa313
	.uleb128 0x1
	.long	0x7556
	.uleb128 0x1
	.long	0xa340
	.byte	0
	.uleb128 0x47
	.long	.LASF790
	.byte	0xb
	.byte	0xdb
	.byte	0x5
	.long	.LASF791
	.long	0x711d
	.uleb128 0xc
	.long	.LASF59
	.long	0xa223
	.uleb128 0x1
	.long	0xa223
	.uleb128 0x1
	.long	0xa223
	.byte	0
	.uleb128 0x17
	.long	.LASF792
	.byte	0xc
	.value	0x303
	.byte	0x5
	.long	.LASF793
	.long	0xa223
	.long	0x716b
	.uleb128 0xc
	.long	.LASF59
	.long	0xa223
	.uleb128 0xc
	.long	.LASF60
	.long	0x7556
	.uleb128 0xf
	.string	"_Tp"
	.long	0x48
	.uleb128 0xc
	.long	.LASF794
	.long	0x48
	.uleb128 0x1
	.long	0xa223
	.uleb128 0x1
	.long	0x7556
	.uleb128 0x1
	.long	0xa23c
	.uleb128 0x1
	.long	0xa250
	.byte	0
	.uleb128 0x8a
	.long	.LASF795
	.byte	0x24
	.byte	0xcf
	.byte	0x5
	.long	0xa110
	.long	0x718b
	.uleb128 0xf
	.string	"_Tp"
	.long	0x9f8c
	.uleb128 0x1
	.long	0xa110
	.byte	0
	.uleb128 0x9
	.long	.LASF796
	.byte	0x10
	.byte	0x92
	.byte	0xb
	.long	0x6ae0
	.uleb128 0x44
	.long	.LASF797
	.byte	0xc
	.value	0x561
	.byte	0x5
	.long	0x718b
	.long	0x71cf
	.uleb128 0xf
	.string	"_Tp"
	.long	0x9f8c
	.uleb128 0xf
	.string	"_Up"
	.long	0x9f8c
	.uleb128 0x1
	.long	0xa110
	.uleb128 0x1
	.long	0xa110
	.uleb128 0x1
	.long	0xa110
	.uleb128 0x1
	.long	0xa142
	.byte	0
	.uleb128 0x44
	.long	.LASF798
	.byte	0x3
	.value	0xbce
	.byte	0x5
	.long	0xa110
	.long	0x71ef
	.uleb128 0xc
	.long	.LASF439
	.long	0xa110
	.uleb128 0x1
	.long	0xa110
	.byte	0
	.uleb128 0x8b
	.long	.LASF799
	.byte	0xb
	.byte	0xdb
	.byte	0x5
	.long	0x7210
	.uleb128 0xc
	.long	.LASF59
	.long	0xa110
	.uleb128 0x1
	.long	0xa110
	.uleb128 0x1
	.long	0xa110
	.byte	0
	.uleb128 0x17
	.long	.LASF800
	.byte	0xa
	.value	0x49b
	.byte	0x5
	.long	.LASF801
	.long	0x9d31
	.long	0x7250
	.uleb128 0xf
	.string	"_OI"
	.long	0x9d31
	.uleb128 0xc
	.long	.LASF60
	.long	0x7556
	.uleb128 0xf
	.string	"_Tp"
	.long	0x8fff
	.uleb128 0x1
	.long	0x9d31
	.uleb128 0x1
	.long	0x7556
	.uleb128 0x1
	.long	0x9d4f
	.byte	0
	.uleb128 0x17
	.long	.LASF802
	.byte	0xc
	.value	0x303
	.byte	0x5
	.long	.LASF803
	.long	0x9d31
	.long	0x729e
	.uleb128 0xc
	.long	.LASF59
	.long	0x9d31
	.uleb128 0xc
	.long	.LASF60
	.long	0x7556
	.uleb128 0xf
	.string	"_Tp"
	.long	0x8fff
	.uleb128 0xc
	.long	.LASF794
	.long	0x8fff
	.uleb128 0x1
	.long	0x9d31
	.uleb128 0x1
	.long	0x7556
	.uleb128 0x1
	.long	0x9d4f
	.uleb128 0x1
	.long	0x9d63
	.byte	0
	.uleb128 0x3b
	.long	.LASF804
	.byte	0xa
	.value	0x3e9
	.byte	0x5
	.long	.LASF805
	.long	0x72d1
	.uleb128 0xc
	.long	.LASF59
	.long	0x81e6
	.uleb128 0xf
	.string	"_Tp"
	.long	0x8fff
	.uleb128 0x1
	.long	0x81e6
	.uleb128 0x1
	.long	0x81e6
	.uleb128 0x1
	.long	0x9d4f
	.byte	0
	.uleb128 0x47
	.long	.LASF806
	.byte	0xb
	.byte	0xdb
	.byte	0x5
	.long	.LASF807
	.long	0x72f5
	.uleb128 0xc
	.long	.LASF59
	.long	0x9d31
	.uleb128 0x1
	.long	0x9d31
	.uleb128 0x1
	.long	0x9d31
	.byte	0
	.uleb128 0x30
	.long	.LASF808
	.byte	0xa
	.byte	0xe8
	.byte	0x5
	.long	.LASF809
	.long	0xaea5
	.long	0x731d
	.uleb128 0xf
	.string	"_Tp"
	.long	0x7556
	.uleb128 0x1
	.long	0xaea5
	.uleb128 0x1
	.long	0xaea5
	.byte	0
	.uleb128 0x30
	.long	.LASF810
	.byte	0xa
	.byte	0xe8
	.byte	0x5
	.long	.LASF811
	.long	0xa32c
	.long	0x7345
	.uleb128 0xf
	.string	"_Tp"
	.long	0x30
	.uleb128 0x1
	.long	0xa32c
	.uleb128 0x1
	.long	0xa32c
	.byte	0
	.uleb128 0x17
	.long	.LASF812
	.byte	0xa
	.value	0x100
	.byte	0x5
	.long	.LASF813
	.long	0xa32c
	.long	0x736e
	.uleb128 0xf
	.string	"_Tp"
	.long	0x30
	.uleb128 0x1
	.long	0xa32c
	.uleb128 0x1
	.long	0xa32c
	.byte	0
	.uleb128 0x3b
	.long	.LASF814
	.byte	0x8
	.value	0x43a
	.byte	0x5
	.long	.LASF815
	.long	0x73a1
	.uleb128 0xc
	.long	.LASF59
	.long	0xa313
	.uleb128 0xf
	.string	"_Tp"
	.long	0x30
	.uleb128 0x1
	.long	0xa313
	.uleb128 0x1
	.long	0xa313
	.uleb128 0x1
	.long	0xa340
	.byte	0
	.uleb128 0x3b
	.long	.LASF816
	.byte	0x8
	.value	0x43a
	.byte	0x5
	.long	.LASF817
	.long	0x73d4
	.uleb128 0xc
	.long	.LASF59
	.long	0xa223
	.uleb128 0xf
	.string	"_Tp"
	.long	0x48
	.uleb128 0x1
	.long	0xa223
	.uleb128 0x1
	.long	0xa223
	.uleb128 0x1
	.long	0xa250
	.byte	0
	.uleb128 0x44
	.long	.LASF818
	.byte	0xc
	.value	0x57c
	.byte	0x5
	.long	0xa110
	.long	0x7415
	.uleb128 0xc
	.long	.LASF819
	.long	0xa110
	.uleb128 0xc
	.long	.LASF59
	.long	0xa110
	.uleb128 0xc
	.long	.LASF820
	.long	0x3252
	.uleb128 0x1
	.long	0xa110
	.uleb128 0x1
	.long	0xa110
	.uleb128 0x1
	.long	0xa110
	.uleb128 0x1
	.long	0xa142
	.byte	0
	.uleb128 0x83
	.long	.LASF821
	.value	0x43a
	.byte	0x5
	.long	0x7444
	.uleb128 0xc
	.long	.LASF59
	.long	0xa110
	.uleb128 0xf
	.string	"_Tp"
	.long	0x9f8c
	.uleb128 0x1
	.long	0xa110
	.uleb128 0x1
	.long	0xa110
	.uleb128 0x1
	.long	0xa142
	.byte	0
	.uleb128 0x3b
	.long	.LASF822
	.byte	0x8
	.value	0x43a
	.byte	0x5
	.long	.LASF823
	.long	0x7477
	.uleb128 0xc
	.long	.LASF59
	.long	0x9d31
	.uleb128 0xf
	.string	"_Tp"
	.long	0x8fff
	.uleb128 0x1
	.long	0x9d31
	.uleb128 0x1
	.long	0x9d31
	.uleb128 0x1
	.long	0x9d63
	.byte	0
	.uleb128 0x17
	.long	.LASF824
	.byte	0xd
	.value	0xe1e
	.byte	0x5
	.long	.LASF825
	.long	0xa32c
	.long	0x74a5
	.uleb128 0xf
	.string	"_Tp"
	.long	0x30
	.uleb128 0x1
	.long	0xa32c
	.uleb128 0x1
	.long	0xa32c
	.uleb128 0x1
	.long	0xa32c
	.byte	0
	.uleb128 0x30
	.long	.LASF826
	.byte	0xa
	.byte	0xe8
	.byte	0x5
	.long	.LASF827
	.long	0xa23c
	.long	0x74cd
	.uleb128 0xf
	.string	"_Tp"
	.long	0x48
	.uleb128 0x1
	.long	0xa23c
	.uleb128 0x1
	.long	0xa23c
	.byte	0
	.uleb128 0x17
	.long	.LASF828
	.byte	0xa
	.value	0x100
	.byte	0x5
	.long	.LASF829
	.long	0xa23c
	.long	0x74f6
	.uleb128 0xf
	.string	"_Tp"
	.long	0x48
	.uleb128 0x1
	.long	0xa23c
	.uleb128 0x1
	.long	0xa23c
	.byte	0
	.uleb128 0x17
	.long	.LASF830
	.byte	0x9
	.value	0xa86
	.byte	0x3
	.long	.LASF831
	.long	0x30
	.long	0x7511
	.uleb128 0x1
	.long	0x30
	.byte	0
	.uleb128 0x17
	.long	.LASF832
	.byte	0x9
	.value	0x108
	.byte	0x3
	.long	.LASF833
	.long	0x30
	.long	0x752c
	.uleb128 0x1
	.long	0x30
	.byte	0
	.uleb128 0x8c
	.long	.LASF834
	.byte	0xa
	.value	0x3fd
	.byte	0x3
	.long	.LASF835
	.long	0x7556
	.uleb128 0x1
	.long	0x7556
	.byte	0
	.byte	0
	.uleb128 0x9
	.long	.LASF4
	.byte	0x25
	.byte	0xe5
	.byte	0x17
	.long	0x7556
	.uleb128 0x7
	.long	0x7545
	.uleb128 0x2b
	.byte	0x8
	.byte	0x7
	.long	.LASF836
	.uleb128 0x7
	.long	0x7556
	.uleb128 0xb3
	.long	.LASF1429
	.byte	0x18
	.byte	0x26
	.byte	0
	.long	0x7598
	.uleb128 0x6e
	.long	.LASF837
	.long	0x7598
	.byte	0
	.uleb128 0x6e
	.long	.LASF838
	.long	0x7598
	.byte	0x4
	.uleb128 0x6e
	.long	.LASF839
	.long	0x759f
	.byte	0x8
	.uleb128 0x6e
	.long	.LASF840
	.long	0x759f
	.byte	0x10
	.byte	0
	.uleb128 0x2b
	.byte	0x4
	.byte	0x7
	.long	.LASF841
	.uleb128 0xb4
	.byte	0x8
	.uleb128 0x9
	.long	.LASF842
	.byte	0x27
	.byte	0x14
	.byte	0x17
	.long	0x7598
	.uleb128 0x6f
	.byte	0x8
	.byte	0x28
	.byte	0xe
	.byte	0x1
	.long	.LASF1152
	.long	0x75f9
	.uleb128 0xb5
	.byte	0x4
	.byte	0x28
	.byte	0x11
	.byte	0x3
	.long	0x75de
	.uleb128 0x8d
	.long	.LASF843
	.byte	0x12
	.byte	0x13
	.long	0x7598
	.uleb128 0x8d
	.long	.LASF844
	.byte	0x13
	.byte	0xa
	.long	0x75f9
	.byte	0
	.uleb128 0x10
	.long	.LASF845
	.byte	0x28
	.byte	0xf
	.byte	0x7
	.long	0x48
	.byte	0
	.uleb128 0x10
	.long	.LASF846
	.byte	0x28
	.byte	0x14
	.byte	0x5
	.long	0x75bb
	.byte	0x4
	.byte	0
	.uleb128 0x75
	.long	0x3c
	.long	0x7609
	.uleb128 0x76
	.long	0x7556
	.byte	0x3
	.byte	0
	.uleb128 0x9
	.long	.LASF847
	.byte	0x28
	.byte	0x15
	.byte	0x3
	.long	0x75ae
	.uleb128 0x9
	.long	.LASF848
	.byte	0x29
	.byte	0x6
	.byte	0x15
	.long	0x7609
	.uleb128 0x7
	.long	0x7615
	.uleb128 0x9
	.long	.LASF849
	.byte	0x2a
	.byte	0x5
	.byte	0x19
	.long	0x7632
	.uleb128 0x1a
	.long	.LASF850
	.byte	0xd8
	.byte	0x2b
	.byte	0x32
	.byte	0x8
	.long	0x77c9
	.uleb128 0x10
	.long	.LASF851
	.byte	0x2b
	.byte	0x34
	.byte	0x7
	.long	0x48
	.byte	0
	.uleb128 0x10
	.long	.LASF852
	.byte	0x2b
	.byte	0x37
	.byte	0x9
	.long	0x37
	.byte	0x8
	.uleb128 0x10
	.long	.LASF853
	.byte	0x2b
	.byte	0x38
	.byte	0x9
	.long	0x37
	.byte	0x10
	.uleb128 0x10
	.long	.LASF854
	.byte	0x2b
	.byte	0x39
	.byte	0x9
	.long	0x37
	.byte	0x18
	.uleb128 0x10
	.long	.LASF855
	.byte	0x2b
	.byte	0x3a
	.byte	0x9
	.long	0x37
	.byte	0x20
	.uleb128 0x10
	.long	.LASF856
	.byte	0x2b
	.byte	0x3b
	.byte	0x9
	.long	0x37
	.byte	0x28
	.uleb128 0x10
	.long	.LASF857
	.byte	0x2b
	.byte	0x3c
	.byte	0x9
	.long	0x37
	.byte	0x30
	.uleb128 0x10
	.long	.LASF858
	.byte	0x2b
	.byte	0x3d
	.byte	0x9
	.long	0x37
	.byte	0x38
	.uleb128 0x10
	.long	.LASF859
	.byte	0x2b
	.byte	0x3e
	.byte	0x9
	.long	0x37
	.byte	0x40
	.uleb128 0x10
	.long	.LASF860
	.byte	0x2b
	.byte	0x41
	.byte	0x9
	.long	0x37
	.byte	0x48
	.uleb128 0x10
	.long	.LASF861
	.byte	0x2b
	.byte	0x42
	.byte	0x9
	.long	0x37
	.byte	0x50
	.uleb128 0x10
	.long	.LASF862
	.byte	0x2b
	.byte	0x43
	.byte	0x9
	.long	0x37
	.byte	0x58
	.uleb128 0x10
	.long	.LASF863
	.byte	0x2b
	.byte	0x45
	.byte	0x16
	.long	0x9792
	.byte	0x60
	.uleb128 0x10
	.long	.LASF864
	.byte	0x2b
	.byte	0x47
	.byte	0x14
	.long	0x9797
	.byte	0x68
	.uleb128 0x10
	.long	.LASF865
	.byte	0x2b
	.byte	0x49
	.byte	0x7
	.long	0x48
	.byte	0x70
	.uleb128 0xb6
	.long	.LASF981
	.byte	0x2b
	.byte	0x4a
	.byte	0x7
	.long	0x48
	.byte	0x18
	.value	0x3a0
	.uleb128 0x10
	.long	.LASF866
	.byte	0x2b
	.byte	0x4c
	.byte	0x8
	.long	0x979c
	.byte	0x77
	.uleb128 0x10
	.long	.LASF867
	.byte	0x2b
	.byte	0x4d
	.byte	0xb
	.long	0x92ae
	.byte	0x78
	.uleb128 0x10
	.long	.LASF868
	.byte	0x2b
	.byte	0x50
	.byte	0x12
	.long	0x77d5
	.byte	0x80
	.uleb128 0x10
	.long	.LASF869
	.byte	0x2b
	.byte	0x51
	.byte	0xf
	.long	0x9012
	.byte	0x82
	.uleb128 0x10
	.long	.LASF870
	.byte	0x2b
	.byte	0x52
	.byte	0x8
	.long	0x979c
	.byte	0x83
	.uleb128 0x10
	.long	.LASF871
	.byte	0x2b
	.byte	0x54
	.byte	0xf
	.long	0x97ac
	.byte	0x88
	.uleb128 0x10
	.long	.LASF872
	.byte	0x2b
	.byte	0x5c
	.byte	0xd
	.long	0x92ba
	.byte	0x90
	.uleb128 0x10
	.long	.LASF873
	.byte	0x2b
	.byte	0x5e
	.byte	0x17
	.long	0x97b6
	.byte	0x98
	.uleb128 0x10
	.long	.LASF874
	.byte	0x2b
	.byte	0x5f
	.byte	0x19
	.long	0x97c0
	.byte	0xa0
	.uleb128 0x10
	.long	.LASF875
	.byte	0x2b
	.byte	0x60
	.byte	0x14
	.long	0x9797
	.byte	0xa8
	.uleb128 0x10
	.long	.LASF876
	.byte	0x2b
	.byte	0x61
	.byte	0x9
	.long	0x759f
	.byte	0xb0
	.uleb128 0x10
	.long	.LASF877
	.byte	0x2b
	.byte	0x62
	.byte	0x15
	.long	0x97c5
	.byte	0xb8
	.uleb128 0x10
	.long	.LASF878
	.byte	0x2b
	.byte	0x63
	.byte	0x7
	.long	0x48
	.byte	0xc0
	.uleb128 0x10
	.long	.LASF879
	.byte	0x2b
	.byte	0x65
	.byte	0x8
	.long	0x97ca
	.byte	0xc4
	.byte	0
	.uleb128 0x9
	.long	.LASF880
	.byte	0x2c
	.byte	0x7
	.byte	0x19
	.long	0x7632
	.uleb128 0x2b
	.byte	0x2
	.byte	0x7
	.long	.LASF881
	.uleb128 0xd
	.long	0x50
	.uleb128 0xd
	.long	0x43
	.uleb128 0x18
	.long	.LASF882
	.byte	0x2d
	.value	0x157
	.byte	0x1
	.long	0x75a2
	.long	0x77fd
	.uleb128 0x1
	.long	0x48
	.byte	0
	.uleb128 0x18
	.long	.LASF883
	.byte	0x2d
	.value	0x3a7
	.byte	0xf
	.long	0x75a2
	.long	0x7814
	.uleb128 0x1
	.long	0x7814
	.byte	0
	.uleb128 0xd
	.long	0x7626
	.uleb128 0x18
	.long	.LASF884
	.byte	0x2d
	.value	0x3c4
	.byte	0x11
	.long	0x783a
	.long	0x783a
	.uleb128 0x1
	.long	0x783a
	.uleb128 0x1
	.long	0x48
	.uleb128 0x1
	.long	0x7814
	.byte	0
	.uleb128 0xd
	.long	0x783f
	.uleb128 0x2b
	.byte	0x4
	.byte	0x5
	.long	.LASF885
	.uleb128 0x7
	.long	0x783f
	.uleb128 0x18
	.long	.LASF886
	.byte	0x2d
	.value	0x3b5
	.byte	0xf
	.long	0x75a2
	.long	0x7867
	.uleb128 0x1
	.long	0x783f
	.uleb128 0x1
	.long	0x7814
	.byte	0
	.uleb128 0x18
	.long	.LASF887
	.byte	0x2d
	.value	0x3cb
	.byte	0xc
	.long	0x48
	.long	0x7883
	.uleb128 0x1
	.long	0x7883
	.uleb128 0x1
	.long	0x7814
	.byte	0
	.uleb128 0xd
	.long	0x7846
	.uleb128 0x18
	.long	.LASF888
	.byte	0x2d
	.value	0x2d5
	.byte	0xc
	.long	0x48
	.long	0x78a4
	.uleb128 0x1
	.long	0x7814
	.uleb128 0x1
	.long	0x48
	.byte	0
	.uleb128 0x18
	.long	.LASF889
	.byte	0x2d
	.value	0x2dc
	.byte	0xc
	.long	0x48
	.long	0x78c1
	.uleb128 0x1
	.long	0x7814
	.uleb128 0x1
	.long	0x7883
	.uleb128 0x5e
	.byte	0
	.uleb128 0x17
	.long	.LASF890
	.byte	0x2d
	.value	0x31b
	.byte	0xc
	.long	.LASF891
	.long	0x48
	.long	0x78e2
	.uleb128 0x1
	.long	0x7814
	.uleb128 0x1
	.long	0x7883
	.uleb128 0x5e
	.byte	0
	.uleb128 0x18
	.long	.LASF892
	.byte	0x2d
	.value	0x3a8
	.byte	0xf
	.long	0x75a2
	.long	0x78f9
	.uleb128 0x1
	.long	0x7814
	.byte	0
	.uleb128 0x8e
	.long	.LASF1126
	.byte	0x2d
	.value	0x3ae
	.byte	0xf
	.long	0x75a2
	.uleb128 0x18
	.long	.LASF893
	.byte	0x2d
	.value	0x162
	.byte	0x1
	.long	0x7545
	.long	0x7928
	.uleb128 0x1
	.long	0x77e1
	.uleb128 0x1
	.long	0x7545
	.uleb128 0x1
	.long	0x7928
	.byte	0
	.uleb128 0xd
	.long	0x7615
	.uleb128 0x18
	.long	.LASF894
	.byte	0x2d
	.value	0x141
	.byte	0xf
	.long	0x7545
	.long	0x7953
	.uleb128 0x1
	.long	0x783a
	.uleb128 0x1
	.long	0x77e1
	.uleb128 0x1
	.long	0x7545
	.uleb128 0x1
	.long	0x7928
	.byte	0
	.uleb128 0x18
	.long	.LASF895
	.byte	0x2d
	.value	0x13d
	.byte	0xc
	.long	0x48
	.long	0x796a
	.uleb128 0x1
	.long	0x796a
	.byte	0
	.uleb128 0xd
	.long	0x7621
	.uleb128 0x18
	.long	.LASF896
	.byte	0x2d
	.value	0x16a
	.byte	0xf
	.long	0x7545
	.long	0x7995
	.uleb128 0x1
	.long	0x783a
	.uleb128 0x1
	.long	0x7995
	.uleb128 0x1
	.long	0x7545
	.uleb128 0x1
	.long	0x7928
	.byte	0
	.uleb128 0xd
	.long	0x77e1
	.uleb128 0x18
	.long	.LASF897
	.byte	0x2d
	.value	0x3b6
	.byte	0xf
	.long	0x75a2
	.long	0x79b6
	.uleb128 0x1
	.long	0x783f
	.uleb128 0x1
	.long	0x7814
	.byte	0
	.uleb128 0x18
	.long	.LASF898
	.byte	0x2d
	.value	0x3bc
	.byte	0xf
	.long	0x75a2
	.long	0x79cd
	.uleb128 0x1
	.long	0x783f
	.byte	0
	.uleb128 0x18
	.long	.LASF899
	.byte	0x2d
	.value	0x2e6
	.byte	0xc
	.long	0x48
	.long	0x79ef
	.uleb128 0x1
	.long	0x783a
	.uleb128 0x1
	.long	0x7545
	.uleb128 0x1
	.long	0x7883
	.uleb128 0x5e
	.byte	0
	.uleb128 0x17
	.long	.LASF900
	.byte	0x2d
	.value	0x322
	.byte	0xc
	.long	.LASF901
	.long	0x48
	.long	0x7a10
	.uleb128 0x1
	.long	0x7883
	.uleb128 0x1
	.long	0x7883
	.uleb128 0x5e
	.byte	0
	.uleb128 0x18
	.long	.LASF902
	.byte	0x2d
	.value	0x3d3
	.byte	0xf
	.long	0x75a2
	.long	0x7a2c
	.uleb128 0x1
	.long	0x75a2
	.uleb128 0x1
	.long	0x7814
	.byte	0
	.uleb128 0x18
	.long	.LASF903
	.byte	0x2d
	.value	0x2ee
	.byte	0xc
	.long	0x48
	.long	0x7a4d
	.uleb128 0x1
	.long	0x7814
	.uleb128 0x1
	.long	0x7883
	.uleb128 0x1
	.long	0x7a4d
	.byte	0
	.uleb128 0xd
	.long	0x7562
	.uleb128 0x17
	.long	.LASF904
	.byte	0x2d
	.value	0x36b
	.byte	0xc
	.long	.LASF905
	.long	0x48
	.long	0x7a77
	.uleb128 0x1
	.long	0x7814
	.uleb128 0x1
	.long	0x7883
	.uleb128 0x1
	.long	0x7a4d
	.byte	0
	.uleb128 0x18
	.long	.LASF906
	.byte	0x2d
	.value	0x2fb
	.byte	0xc
	.long	0x48
	.long	0x7a9d
	.uleb128 0x1
	.long	0x783a
	.uleb128 0x1
	.long	0x7545
	.uleb128 0x1
	.long	0x7883
	.uleb128 0x1
	.long	0x7a4d
	.byte	0
	.uleb128 0x17
	.long	.LASF907
	.byte	0x2d
	.value	0x372
	.byte	0xc
	.long	.LASF908
	.long	0x48
	.long	0x7ac2
	.uleb128 0x1
	.long	0x7883
	.uleb128 0x1
	.long	0x7883
	.uleb128 0x1
	.long	0x7a4d
	.byte	0
	.uleb128 0x18
	.long	.LASF909
	.byte	0x2d
	.value	0x2f6
	.byte	0xc
	.long	0x48
	.long	0x7ade
	.uleb128 0x1
	.long	0x7883
	.uleb128 0x1
	.long	0x7a4d
	.byte	0
	.uleb128 0x17
	.long	.LASF910
	.byte	0x2d
	.value	0x36f
	.byte	0xc
	.long	.LASF911
	.long	0x48
	.long	0x7afe
	.uleb128 0x1
	.long	0x7883
	.uleb128 0x1
	.long	0x7a4d
	.byte	0
	.uleb128 0x18
	.long	.LASF912
	.byte	0x2d
	.value	0x146
	.byte	0xf
	.long	0x7545
	.long	0x7b1f
	.uleb128 0x1
	.long	0x37
	.uleb128 0x1
	.long	0x783f
	.uleb128 0x1
	.long	0x7928
	.byte	0
	.uleb128 0x25
	.long	.LASF913
	.byte	0x2d
	.byte	0x79
	.byte	0x11
	.long	0x783a
	.long	0x7b3a
	.uleb128 0x1
	.long	0x783a
	.uleb128 0x1
	.long	0x7883
	.byte	0
	.uleb128 0x25
	.long	.LASF914
	.byte	0x2d
	.byte	0x82
	.byte	0xc
	.long	0x48
	.long	0x7b55
	.uleb128 0x1
	.long	0x7883
	.uleb128 0x1
	.long	0x7883
	.byte	0
	.uleb128 0x25
	.long	.LASF915
	.byte	0x2d
	.byte	0x9b
	.byte	0xc
	.long	0x48
	.long	0x7b70
	.uleb128 0x1
	.long	0x7883
	.uleb128 0x1
	.long	0x7883
	.byte	0
	.uleb128 0x25
	.long	.LASF916
	.byte	0x2d
	.byte	0x62
	.byte	0x11
	.long	0x783a
	.long	0x7b8b
	.uleb128 0x1
	.long	0x783a
	.uleb128 0x1
	.long	0x7883
	.byte	0
	.uleb128 0x25
	.long	.LASF917
	.byte	0x2d
	.byte	0xd4
	.byte	0xf
	.long	0x7545
	.long	0x7ba6
	.uleb128 0x1
	.long	0x7883
	.uleb128 0x1
	.long	0x7883
	.byte	0
	.uleb128 0x18
	.long	.LASF918
	.byte	0x2d
	.value	0x413
	.byte	0xf
	.long	0x7545
	.long	0x7bcc
	.uleb128 0x1
	.long	0x783a
	.uleb128 0x1
	.long	0x7545
	.uleb128 0x1
	.long	0x7883
	.uleb128 0x1
	.long	0x7bcc
	.byte	0
	.uleb128 0xd
	.long	0x7c6e
	.uleb128 0xb7
	.string	"tm"
	.byte	0x38
	.byte	0x2e
	.byte	0x7
	.byte	0x8
	.long	0x7c6e
	.uleb128 0x10
	.long	.LASF919
	.byte	0x2e
	.byte	0x9
	.byte	0x7
	.long	0x48
	.byte	0
	.uleb128 0x10
	.long	.LASF920
	.byte	0x2e
	.byte	0xa
	.byte	0x7
	.long	0x48
	.byte	0x4
	.uleb128 0x10
	.long	.LASF921
	.byte	0x2e
	.byte	0xb
	.byte	0x7
	.long	0x48
	.byte	0x8
	.uleb128 0x10
	.long	.LASF922
	.byte	0x2e
	.byte	0xc
	.byte	0x7
	.long	0x48
	.byte	0xc
	.uleb128 0x10
	.long	.LASF923
	.byte	0x2e
	.byte	0xd
	.byte	0x7
	.long	0x48
	.byte	0x10
	.uleb128 0x10
	.long	.LASF924
	.byte	0x2e
	.byte	0xe
	.byte	0x7
	.long	0x48
	.byte	0x14
	.uleb128 0x10
	.long	.LASF925
	.byte	0x2e
	.byte	0xf
	.byte	0x7
	.long	0x48
	.byte	0x18
	.uleb128 0x10
	.long	.LASF926
	.byte	0x2e
	.byte	0x10
	.byte	0x7
	.long	0x48
	.byte	0x1c
	.uleb128 0x10
	.long	.LASF927
	.byte	0x2e
	.byte	0x11
	.byte	0x7
	.long	0x48
	.byte	0x20
	.uleb128 0x10
	.long	.LASF928
	.byte	0x2e
	.byte	0x14
	.byte	0xc
	.long	0x7dbd
	.byte	0x28
	.uleb128 0x10
	.long	.LASF929
	.byte	0x2e
	.byte	0x15
	.byte	0xf
	.long	0x77e1
	.byte	0x30
	.byte	0
	.uleb128 0x7
	.long	0x7bd1
	.uleb128 0x25
	.long	.LASF930
	.byte	0x2d
	.byte	0xf7
	.byte	0xf
	.long	0x7545
	.long	0x7c89
	.uleb128 0x1
	.long	0x7883
	.byte	0
	.uleb128 0x25
	.long	.LASF931
	.byte	0x2d
	.byte	0x7d
	.byte	0x11
	.long	0x783a
	.long	0x7ca9
	.uleb128 0x1
	.long	0x783a
	.uleb128 0x1
	.long	0x7883
	.uleb128 0x1
	.long	0x7545
	.byte	0
	.uleb128 0x25
	.long	.LASF932
	.byte	0x2d
	.byte	0x85
	.byte	0xc
	.long	0x48
	.long	0x7cc9
	.uleb128 0x1
	.long	0x7883
	.uleb128 0x1
	.long	0x7883
	.uleb128 0x1
	.long	0x7545
	.byte	0
	.uleb128 0x25
	.long	.LASF933
	.byte	0x2d
	.byte	0x67
	.byte	0x11
	.long	0x783a
	.long	0x7ce9
	.uleb128 0x1
	.long	0x783a
	.uleb128 0x1
	.long	0x7883
	.uleb128 0x1
	.long	0x7545
	.byte	0
	.uleb128 0x18
	.long	.LASF934
	.byte	0x2d
	.value	0x170
	.byte	0xf
	.long	0x7545
	.long	0x7d0f
	.uleb128 0x1
	.long	0x37
	.uleb128 0x1
	.long	0x7d0f
	.uleb128 0x1
	.long	0x7545
	.uleb128 0x1
	.long	0x7928
	.byte	0
	.uleb128 0xd
	.long	0x7883
	.uleb128 0x25
	.long	.LASF935
	.byte	0x2d
	.byte	0xd8
	.byte	0xf
	.long	0x7545
	.long	0x7d2f
	.uleb128 0x1
	.long	0x7883
	.uleb128 0x1
	.long	0x7883
	.byte	0
	.uleb128 0x18
	.long	.LASF936
	.byte	0x2d
	.value	0x192
	.byte	0xf
	.long	0x7d4b
	.long	0x7d4b
	.uleb128 0x1
	.long	0x7883
	.uleb128 0x1
	.long	0x7d52
	.byte	0
	.uleb128 0x2b
	.byte	0x8
	.byte	0x4
	.long	.LASF937
	.uleb128 0xd
	.long	0x783a
	.uleb128 0x18
	.long	.LASF938
	.byte	0x2d
	.value	0x197
	.byte	0xe
	.long	0x30
	.long	0x7d73
	.uleb128 0x1
	.long	0x7883
	.uleb128 0x1
	.long	0x7d52
	.byte	0
	.uleb128 0x7
	.long	0x30
	.uleb128 0x25
	.long	.LASF939
	.byte	0x2d
	.byte	0xf2
	.byte	0x11
	.long	0x783a
	.long	0x7d98
	.uleb128 0x1
	.long	0x783a
	.uleb128 0x1
	.long	0x7883
	.uleb128 0x1
	.long	0x7d52
	.byte	0
	.uleb128 0x17
	.long	.LASF940
	.byte	0x2d
	.value	0x1f4
	.byte	0x11
	.long	.LASF941
	.long	0x7dbd
	.long	0x7dbd
	.uleb128 0x1
	.long	0x7883
	.uleb128 0x1
	.long	0x7d52
	.uleb128 0x1
	.long	0x48
	.byte	0
	.uleb128 0x2b
	.byte	0x8
	.byte	0x5
	.long	.LASF942
	.uleb128 0x17
	.long	.LASF943
	.byte	0x2d
	.value	0x1f7
	.byte	0x1a
	.long	.LASF944
	.long	0x7556
	.long	0x7de9
	.uleb128 0x1
	.long	0x7883
	.uleb128 0x1
	.long	0x7d52
	.uleb128 0x1
	.long	0x48
	.byte	0
	.uleb128 0x25
	.long	.LASF945
	.byte	0x2d
	.byte	0x9f
	.byte	0xf
	.long	0x7545
	.long	0x7e09
	.uleb128 0x1
	.long	0x783a
	.uleb128 0x1
	.long	0x7883
	.uleb128 0x1
	.long	0x7545
	.byte	0
	.uleb128 0x18
	.long	.LASF946
	.byte	0x2d
	.value	0x15d
	.byte	0x1
	.long	0x48
	.long	0x7e20
	.uleb128 0x1
	.long	0x75a2
	.byte	0
	.uleb128 0x18
	.long	.LASF947
	.byte	0x2d
	.value	0x11b
	.byte	0xc
	.long	0x48
	.long	0x7e41
	.uleb128 0x1
	.long	0x7883
	.uleb128 0x1
	.long	0x7883
	.uleb128 0x1
	.long	0x7545
	.byte	0
	.uleb128 0x18
	.long	.LASF948
	.byte	0x2d
	.value	0x11f
	.byte	0x11
	.long	0x783a
	.long	0x7e62
	.uleb128 0x1
	.long	0x783a
	.uleb128 0x1
	.long	0x7883
	.uleb128 0x1
	.long	0x7545
	.byte	0
	.uleb128 0x18
	.long	.LASF949
	.byte	0x2d
	.value	0x124
	.byte	0x11
	.long	0x783a
	.long	0x7e83
	.uleb128 0x1
	.long	0x783a
	.uleb128 0x1
	.long	0x7883
	.uleb128 0x1
	.long	0x7545
	.byte	0
	.uleb128 0x18
	.long	.LASF950
	.byte	0x2d
	.value	0x128
	.byte	0x11
	.long	0x783a
	.long	0x7ea4
	.uleb128 0x1
	.long	0x783a
	.uleb128 0x1
	.long	0x783f
	.uleb128 0x1
	.long	0x7545
	.byte	0
	.uleb128 0x18
	.long	.LASF951
	.byte	0x2d
	.value	0x2e3
	.byte	0xc
	.long	0x48
	.long	0x7ebc
	.uleb128 0x1
	.long	0x7883
	.uleb128 0x5e
	.byte	0
	.uleb128 0x17
	.long	.LASF952
	.byte	0x2d
	.value	0x31f
	.byte	0xc
	.long	.LASF953
	.long	0x48
	.long	0x7ed8
	.uleb128 0x1
	.long	0x7883
	.uleb128 0x5e
	.byte	0
	.uleb128 0x30
	.long	.LASF954
	.byte	0x2d
	.byte	0xba
	.byte	0x1d
	.long	.LASF954
	.long	0x7883
	.long	0x7ef7
	.uleb128 0x1
	.long	0x7883
	.uleb128 0x1
	.long	0x783f
	.byte	0
	.uleb128 0x30
	.long	.LASF954
	.byte	0x2d
	.byte	0xb8
	.byte	0x17
	.long	.LASF954
	.long	0x783a
	.long	0x7f16
	.uleb128 0x1
	.long	0x783a
	.uleb128 0x1
	.long	0x783f
	.byte	0
	.uleb128 0x30
	.long	.LASF955
	.byte	0x2d
	.byte	0xde
	.byte	0x1d
	.long	.LASF955
	.long	0x7883
	.long	0x7f35
	.uleb128 0x1
	.long	0x7883
	.uleb128 0x1
	.long	0x7883
	.byte	0
	.uleb128 0x30
	.long	.LASF955
	.byte	0x2d
	.byte	0xdc
	.byte	0x17
	.long	.LASF955
	.long	0x783a
	.long	0x7f54
	.uleb128 0x1
	.long	0x783a
	.uleb128 0x1
	.long	0x7883
	.byte	0
	.uleb128 0x30
	.long	.LASF956
	.byte	0x2d
	.byte	0xc4
	.byte	0x1d
	.long	.LASF956
	.long	0x7883
	.long	0x7f73
	.uleb128 0x1
	.long	0x7883
	.uleb128 0x1
	.long	0x783f
	.byte	0
	.uleb128 0x30
	.long	.LASF956
	.byte	0x2d
	.byte	0xc2
	.byte	0x17
	.long	.LASF956
	.long	0x783a
	.long	0x7f92
	.uleb128 0x1
	.long	0x783a
	.uleb128 0x1
	.long	0x783f
	.byte	0
	.uleb128 0x30
	.long	.LASF957
	.byte	0x2d
	.byte	0xe9
	.byte	0x1d
	.long	.LASF957
	.long	0x7883
	.long	0x7fb1
	.uleb128 0x1
	.long	0x7883
	.uleb128 0x1
	.long	0x7883
	.byte	0
	.uleb128 0x30
	.long	.LASF957
	.byte	0x2d
	.byte	0xe7
	.byte	0x17
	.long	.LASF957
	.long	0x783a
	.long	0x7fd0
	.uleb128 0x1
	.long	0x783a
	.uleb128 0x1
	.long	0x7883
	.byte	0
	.uleb128 0x17
	.long	.LASF958
	.byte	0x2d
	.value	0x112
	.byte	0x1d
	.long	.LASF958
	.long	0x7883
	.long	0x7ff5
	.uleb128 0x1
	.long	0x7883
	.uleb128 0x1
	.long	0x783f
	.uleb128 0x1
	.long	0x7545
	.byte	0
	.uleb128 0x17
	.long	.LASF958
	.byte	0x2d
	.value	0x110
	.byte	0x17
	.long	.LASF958
	.long	0x783a
	.long	0x801a
	.uleb128 0x1
	.long	0x783a
	.uleb128 0x1
	.long	0x783f
	.uleb128 0x1
	.long	0x7545
	.byte	0
	.uleb128 0x8f
	.long	.LASF959
	.byte	0xf
	.value	0x17b
	.long	0x8f2a
	.uleb128 0x5
	.byte	0xe
	.byte	0xfd
	.byte	0xb
	.long	0x8f2a
	.uleb128 0x19
	.byte	0xe
	.value	0x106
	.byte	0xb
	.long	0x8f4d
	.uleb128 0x19
	.byte	0xe
	.value	0x107
	.byte	0xb
	.long	0x8f79
	.uleb128 0x5
	.byte	0x15
	.byte	0xd2
	.byte	0xb
	.long	0x9391
	.uleb128 0x5
	.byte	0x15
	.byte	0xe4
	.byte	0xb
	.long	0x969f
	.uleb128 0x5
	.byte	0x15
	.byte	0xf0
	.byte	0xb
	.long	0x96bb
	.uleb128 0x5
	.byte	0x15
	.byte	0xf1
	.byte	0xb
	.long	0x96d2
	.uleb128 0x5
	.byte	0x15
	.byte	0xf2
	.byte	0xb
	.long	0x96f6
	.uleb128 0x5
	.byte	0x15
	.byte	0xf4
	.byte	0xb
	.long	0x971a
	.uleb128 0x5
	.byte	0x15
	.byte	0xf5
	.byte	0xb
	.long	0x9735
	.uleb128 0xb8
	.string	"div"
	.byte	0x15
	.byte	0xe1
	.byte	0x3
	.long	.LASF1430
	.long	0x9391
	.long	0x8099
	.uleb128 0x1
	.long	0x8f72
	.uleb128 0x1
	.long	0x8f72
	.byte	0
	.uleb128 0xb9
	.long	.LASF1431
	.byte	0x7
	.byte	0x4
	.long	0x7598
	.byte	0x48
	.byte	0x36
	.byte	0x8
	.long	0x80bf
	.uleb128 0x77
	.long	.LASF960
	.byte	0
	.uleb128 0x77
	.long	.LASF961
	.byte	0x1
	.uleb128 0x77
	.long	.LASF962
	.byte	0x2
	.byte	0
	.uleb128 0x7
	.long	0x8099
	.uleb128 0xba
	.long	.LASF1432
	.byte	0x48
	.byte	0x3a
	.byte	0x28
	.long	.LASF1433
	.long	0x80bf
	.byte	0x2
	.byte	0x3
	.uleb128 0x1a
	.long	.LASF963
	.byte	0x1
	.byte	0x2f
	.byte	0x2f
	.byte	0xa
	.long	0x81e6
	.uleb128 0x5
	.byte	0x2f
	.byte	0x2f
	.byte	0xa
	.long	0xd7d
	.uleb128 0x5
	.byte	0x2f
	.byte	0x2f
	.byte	0xa
	.long	0xd3e
	.uleb128 0x5
	.byte	0x2f
	.byte	0x2f
	.byte	0xa
	.long	0xdaf
	.uleb128 0x5
	.byte	0x2f
	.byte	0x2f
	.byte	0xa
	.long	0xdd0
	.uleb128 0x33
	.long	0xd23
	.uleb128 0x30
	.long	.LASF964
	.byte	0x2f
	.byte	0x63
	.byte	0x1d
	.long	.LASF965
	.long	0xc9a
	.long	0x8123
	.uleb128 0x1
	.long	0x9d5e
	.byte	0
	.uleb128 0x47
	.long	.LASF966
	.byte	0x2f
	.byte	0x67
	.byte	0x26
	.long	.LASF967
	.long	0x813e
	.uleb128 0x1
	.long	0x9d63
	.uleb128 0x1
	.long	0x9d63
	.byte	0
	.uleb128 0x31
	.long	.LASF968
	.byte	0x6b
	.long	.LASF969
	.long	0x8fe9
	.uleb128 0x31
	.long	.LASF970
	.byte	0x6f
	.long	.LASF971
	.long	0x8fe9
	.uleb128 0x31
	.long	.LASF972
	.byte	0x73
	.long	.LASF973
	.long	0x8fe9
	.uleb128 0x31
	.long	.LASF974
	.byte	0x77
	.long	.LASF975
	.long	0x8fe9
	.uleb128 0x31
	.long	.LASF976
	.byte	0x7b
	.long	.LASF977
	.long	0x8fe9
	.uleb128 0x9
	.long	.LASF5
	.byte	0x2f
	.byte	0x37
	.byte	0x35
	.long	0xe06
	.uleb128 0x7
	.long	0x8184
	.uleb128 0x9
	.long	.LASF73
	.byte	0x2f
	.byte	0x38
	.byte	0x35
	.long	0xd31
	.uleb128 0x9
	.long	.LASF74
	.byte	0x2f
	.byte	0x3d
	.byte	0x35
	.long	0x9d72
	.uleb128 0x9
	.long	.LASF77
	.byte	0x2f
	.byte	0x3e
	.byte	0x35
	.long	0x9d77
	.uleb128 0x1a
	.long	.LASF978
	.byte	0x1
	.byte	0x2f
	.byte	0x7f
	.byte	0xe
	.long	0x81dc
	.uleb128 0x9
	.long	.LASF979
	.byte	0x2f
	.byte	0x80
	.byte	0x41
	.long	0xe13
	.uleb128 0xf
	.string	"_Tp"
	.long	0x8fff
	.byte	0
	.uleb128 0xc
	.long	.LASF145
	.long	0xc9a
	.byte	0
	.uleb128 0x4a
	.long	.LASF980
	.byte	0x8
	.byte	0x3
	.value	0x402
	.long	0x8414
	.uleb128 0x70
	.long	.LASF982
	.long	0x9d31
	.uleb128 0x11
	.long	.LASF983
	.byte	0x3
	.value	0x41d
	.byte	0x7
	.long	.LASF984
	.byte	0x1
	.long	0x8212
	.long	0x8218
	.uleb128 0x2
	.long	0xa426
	.byte	0
	.uleb128 0x43
	.long	.LASF983
	.byte	0x3
	.value	0x422
	.long	.LASF985
	.long	0x822c
	.long	0x8237
	.uleb128 0x2
	.long	0xa426
	.uleb128 0x1
	.long	0xa430
	.byte	0
	.uleb128 0x16
	.long	.LASF74
	.byte	0x3
	.value	0x414
	.byte	0x32
	.long	0x6b56
	.uleb128 0x6
	.long	.LASF986
	.byte	0x3
	.value	0x441
	.byte	0x7
	.long	.LASF987
	.long	0x8237
	.byte	0x1
	.long	0x825e
	.long	0x8264
	.uleb128 0x2
	.long	0xa435
	.byte	0
	.uleb128 0x16
	.long	.LASF73
	.byte	0x3
	.value	0x415
	.byte	0x32
	.long	0x6b4a
	.uleb128 0x6
	.long	.LASF988
	.byte	0x3
	.value	0x447
	.byte	0x7
	.long	.LASF989
	.long	0x8264
	.byte	0x1
	.long	0x828b
	.long	0x8291
	.uleb128 0x2
	.long	0xa435
	.byte	0
	.uleb128 0x6
	.long	.LASF990
	.byte	0x3
	.value	0x44d
	.byte	0x7
	.long	.LASF991
	.long	0xa43f
	.byte	0x1
	.long	0x82ab
	.long	0x82b1
	.uleb128 0x2
	.long	0xa426
	.byte	0
	.uleb128 0x6
	.long	.LASF990
	.byte	0x3
	.value	0x456
	.byte	0x7
	.long	.LASF992
	.long	0x81e6
	.byte	0x1
	.long	0x82cb
	.long	0x82d6
	.uleb128 0x2
	.long	0xa426
	.uleb128 0x1
	.long	0x48
	.byte	0
	.uleb128 0x6
	.long	.LASF993
	.byte	0x3
	.value	0x45e
	.byte	0x7
	.long	.LASF994
	.long	0xa43f
	.byte	0x1
	.long	0x82f0
	.long	0x82f6
	.uleb128 0x2
	.long	0xa426
	.byte	0
	.uleb128 0x6
	.long	.LASF993
	.byte	0x3
	.value	0x467
	.byte	0x7
	.long	.LASF995
	.long	0x81e6
	.byte	0x1
	.long	0x8310
	.long	0x831b
	.uleb128 0x2
	.long	0xa426
	.uleb128 0x1
	.long	0x48
	.byte	0
	.uleb128 0x6
	.long	.LASF212
	.byte	0x3
	.value	0x46f
	.byte	0x7
	.long	.LASF996
	.long	0x8237
	.byte	0x1
	.long	0x8335
	.long	0x8340
	.uleb128 0x2
	.long	0xa435
	.uleb128 0x1
	.long	0x8340
	.byte	0
	.uleb128 0x16
	.long	.LASF438
	.byte	0x3
	.value	0x413
	.byte	0x38
	.long	0x6b3e
	.uleb128 0x6
	.long	.LASF997
	.byte	0x3
	.value	0x475
	.byte	0x7
	.long	.LASF998
	.long	0xa43f
	.byte	0x1
	.long	0x8367
	.long	0x8372
	.uleb128 0x2
	.long	0xa426
	.uleb128 0x1
	.long	0x8340
	.byte	0
	.uleb128 0x6
	.long	.LASF999
	.byte	0x3
	.value	0x47b
	.byte	0x7
	.long	.LASF1000
	.long	0x81e6
	.byte	0x1
	.long	0x838c
	.long	0x8397
	.uleb128 0x2
	.long	0xa435
	.uleb128 0x1
	.long	0x8340
	.byte	0
	.uleb128 0x6
	.long	.LASF1001
	.byte	0x3
	.value	0x481
	.byte	0x7
	.long	.LASF1002
	.long	0xa43f
	.byte	0x1
	.long	0x83b1
	.long	0x83bc
	.uleb128 0x2
	.long	0xa426
	.uleb128 0x1
	.long	0x8340
	.byte	0
	.uleb128 0x6
	.long	.LASF1003
	.byte	0x3
	.value	0x487
	.byte	0x7
	.long	.LASF1004
	.long	0x81e6
	.byte	0x1
	.long	0x83d6
	.long	0x83e1
	.uleb128 0x2
	.long	0xa435
	.uleb128 0x1
	.long	0x8340
	.byte	0
	.uleb128 0x6
	.long	.LASF1005
	.byte	0x3
	.value	0x48d
	.byte	0x7
	.long	.LASF1006
	.long	0xa430
	.byte	0x1
	.long	0x83fb
	.long	0x8401
	.uleb128 0x2
	.long	0xa435
	.byte	0
	.uleb128 0xc
	.long	.LASF439
	.long	0x9d31
	.uleb128 0xc
	.long	.LASF1007
	.long	0x11ea
	.byte	0
	.uleb128 0x7
	.long	0x81e6
	.uleb128 0x2f
	.long	.LASF1008
	.uleb128 0x1a
	.long	.LASF1009
	.byte	0x1
	.byte	0x2f
	.byte	0x2f
	.byte	0xa
	.long	0x852d
	.uleb128 0x5
	.byte	0x2f
	.byte	0x2f
	.byte	0xa
	.long	0x2080
	.uleb128 0x5
	.byte	0x2f
	.byte	0x2f
	.byte	0xa
	.long	0x2041
	.uleb128 0x5
	.byte	0x2f
	.byte	0x2f
	.byte	0xa
	.long	0x20b2
	.uleb128 0x5
	.byte	0x2f
	.byte	0x2f
	.byte	0xa
	.long	0x20d3
	.uleb128 0x33
	.long	0x2026
	.uleb128 0x30
	.long	.LASF964
	.byte	0x2f
	.byte	0x63
	.byte	0x1d
	.long	.LASF1010
	.long	0x1f9d
	.long	0x846a
	.uleb128 0x1
	.long	0xa05c
	.byte	0
	.uleb128 0x47
	.long	.LASF966
	.byte	0x2f
	.byte	0x67
	.byte	0x26
	.long	.LASF1011
	.long	0x8485
	.uleb128 0x1
	.long	0xa061
	.uleb128 0x1
	.long	0xa061
	.byte	0
	.uleb128 0x31
	.long	.LASF968
	.byte	0x6b
	.long	.LASF1012
	.long	0x8fe9
	.uleb128 0x31
	.long	.LASF970
	.byte	0x6f
	.long	.LASF1013
	.long	0x8fe9
	.uleb128 0x31
	.long	.LASF972
	.byte	0x73
	.long	.LASF1014
	.long	0x8fe9
	.uleb128 0x31
	.long	.LASF974
	.byte	0x77
	.long	.LASF1015
	.long	0x8fe9
	.uleb128 0x31
	.long	.LASF976
	.byte	0x7b
	.long	.LASF1016
	.long	0x8fe9
	.uleb128 0x9
	.long	.LASF5
	.byte	0x2f
	.byte	0x37
	.byte	0x35
	.long	0x2109
	.uleb128 0x7
	.long	0x84cb
	.uleb128 0x9
	.long	.LASF73
	.byte	0x2f
	.byte	0x38
	.byte	0x35
	.long	0x2034
	.uleb128 0x9
	.long	.LASF74
	.byte	0x2f
	.byte	0x3d
	.byte	0x35
	.long	0xa070
	.uleb128 0x9
	.long	.LASF77
	.byte	0x2f
	.byte	0x3e
	.byte	0x35
	.long	0xa075
	.uleb128 0x1a
	.long	.LASF1017
	.byte	0x1
	.byte	0x2f
	.byte	0x7f
	.byte	0xe
	.long	0x8523
	.uleb128 0x9
	.long	.LASF979
	.byte	0x2f
	.byte	0x80
	.byte	0x41
	.long	0x2116
	.uleb128 0xf
	.string	"_Tp"
	.long	0x9f0b
	.byte	0
	.uleb128 0xc
	.long	.LASF145
	.long	0x1f9d
	.byte	0
	.uleb128 0x4a
	.long	.LASF1018
	.byte	0x8
	.byte	0x3
	.value	0x402
	.long	0x875b
	.uleb128 0x70
	.long	.LASF982
	.long	0xa034
	.uleb128 0x11
	.long	.LASF983
	.byte	0x3
	.value	0x41d
	.byte	0x7
	.long	.LASF1019
	.byte	0x1
	.long	0x8559
	.long	0x855f
	.uleb128 0x2
	.long	0xa1f1
	.byte	0
	.uleb128 0x43
	.long	.LASF983
	.byte	0x3
	.value	0x422
	.long	.LASF1020
	.long	0x8573
	.long	0x857e
	.uleb128 0x2
	.long	0xa1f1
	.uleb128 0x1
	.long	0xa1fb
	.byte	0
	.uleb128 0x16
	.long	.LASF74
	.byte	0x3
	.value	0x414
	.byte	0x32
	.long	0x42f4
	.uleb128 0x6
	.long	.LASF986
	.byte	0x3
	.value	0x441
	.byte	0x7
	.long	.LASF1021
	.long	0x857e
	.byte	0x1
	.long	0x85a5
	.long	0x85ab
	.uleb128 0x2
	.long	0xa200
	.byte	0
	.uleb128 0x16
	.long	.LASF73
	.byte	0x3
	.value	0x415
	.byte	0x32
	.long	0x42e8
	.uleb128 0x6
	.long	.LASF988
	.byte	0x3
	.value	0x447
	.byte	0x7
	.long	.LASF1022
	.long	0x85ab
	.byte	0x1
	.long	0x85d2
	.long	0x85d8
	.uleb128 0x2
	.long	0xa200
	.byte	0
	.uleb128 0x6
	.long	.LASF990
	.byte	0x3
	.value	0x44d
	.byte	0x7
	.long	.LASF1023
	.long	0xa20a
	.byte	0x1
	.long	0x85f2
	.long	0x85f8
	.uleb128 0x2
	.long	0xa1f1
	.byte	0
	.uleb128 0x6
	.long	.LASF990
	.byte	0x3
	.value	0x456
	.byte	0x7
	.long	.LASF1024
	.long	0x852d
	.byte	0x1
	.long	0x8612
	.long	0x861d
	.uleb128 0x2
	.long	0xa1f1
	.uleb128 0x1
	.long	0x48
	.byte	0
	.uleb128 0x6
	.long	.LASF993
	.byte	0x3
	.value	0x45e
	.byte	0x7
	.long	.LASF1025
	.long	0xa20a
	.byte	0x1
	.long	0x8637
	.long	0x863d
	.uleb128 0x2
	.long	0xa1f1
	.byte	0
	.uleb128 0x6
	.long	.LASF993
	.byte	0x3
	.value	0x467
	.byte	0x7
	.long	.LASF1026
	.long	0x852d
	.byte	0x1
	.long	0x8657
	.long	0x8662
	.uleb128 0x2
	.long	0xa1f1
	.uleb128 0x1
	.long	0x48
	.byte	0
	.uleb128 0x6
	.long	.LASF212
	.byte	0x3
	.value	0x46f
	.byte	0x7
	.long	.LASF1027
	.long	0x857e
	.byte	0x1
	.long	0x867c
	.long	0x8687
	.uleb128 0x2
	.long	0xa200
	.uleb128 0x1
	.long	0x8687
	.byte	0
	.uleb128 0x16
	.long	.LASF438
	.byte	0x3
	.value	0x413
	.byte	0x38
	.long	0x42dc
	.uleb128 0x6
	.long	.LASF997
	.byte	0x3
	.value	0x475
	.byte	0x7
	.long	.LASF1028
	.long	0xa20a
	.byte	0x1
	.long	0x86ae
	.long	0x86b9
	.uleb128 0x2
	.long	0xa1f1
	.uleb128 0x1
	.long	0x8687
	.byte	0
	.uleb128 0x6
	.long	.LASF999
	.byte	0x3
	.value	0x47b
	.byte	0x7
	.long	.LASF1029
	.long	0x852d
	.byte	0x1
	.long	0x86d3
	.long	0x86de
	.uleb128 0x2
	.long	0xa200
	.uleb128 0x1
	.long	0x8687
	.byte	0
	.uleb128 0x6
	.long	.LASF1001
	.byte	0x3
	.value	0x481
	.byte	0x7
	.long	.LASF1030
	.long	0xa20a
	.byte	0x1
	.long	0x86f8
	.long	0x8703
	.uleb128 0x2
	.long	0xa1f1
	.uleb128 0x1
	.long	0x8687
	.byte	0
	.uleb128 0x6
	.long	.LASF1003
	.byte	0x3
	.value	0x487
	.byte	0x7
	.long	.LASF1031
	.long	0x852d
	.byte	0x1
	.long	0x871d
	.long	0x8728
	.uleb128 0x2
	.long	0xa200
	.uleb128 0x1
	.long	0x8687
	.byte	0
	.uleb128 0x6
	.long	.LASF1005
	.byte	0x3
	.value	0x48d
	.byte	0x7
	.long	.LASF1032
	.long	0xa1fb
	.byte	0x1
	.long	0x8742
	.long	0x8748
	.uleb128 0x2
	.long	0xa200
	.byte	0
	.uleb128 0xc
	.long	.LASF439
	.long	0xa034
	.uleb128 0xc
	.long	.LASF1007
	.long	0x24d4
	.byte	0
	.uleb128 0x7
	.long	0x852d
	.uleb128 0x4a
	.long	.LASF1033
	.byte	0x8
	.byte	0x3
	.value	0x402
	.long	0x898e
	.uleb128 0x70
	.long	.LASF982
	.long	0xa048
	.uleb128 0x11
	.long	.LASF983
	.byte	0x3
	.value	0x41d
	.byte	0x7
	.long	.LASF1034
	.byte	0x1
	.long	0x878c
	.long	0x8792
	.uleb128 0x2
	.long	0xa412
	.byte	0
	.uleb128 0x43
	.long	.LASF983
	.byte	0x3
	.value	0x422
	.long	.LASF1035
	.long	0x87a6
	.long	0x87b1
	.uleb128 0x2
	.long	0xa412
	.uleb128 0x1
	.long	0xa417
	.byte	0
	.uleb128 0x16
	.long	.LASF74
	.byte	0x3
	.value	0x414
	.byte	0x32
	.long	0x6b1b
	.uleb128 0x6
	.long	.LASF986
	.byte	0x3
	.value	0x441
	.byte	0x7
	.long	.LASF1036
	.long	0x87b1
	.byte	0x1
	.long	0x87d8
	.long	0x87de
	.uleb128 0x2
	.long	0xa41c
	.byte	0
	.uleb128 0x16
	.long	.LASF73
	.byte	0x3
	.value	0x415
	.byte	0x32
	.long	0x6b0f
	.uleb128 0x6
	.long	.LASF988
	.byte	0x3
	.value	0x447
	.byte	0x7
	.long	.LASF1037
	.long	0x87de
	.byte	0x1
	.long	0x8805
	.long	0x880b
	.uleb128 0x2
	.long	0xa41c
	.byte	0
	.uleb128 0x6
	.long	.LASF990
	.byte	0x3
	.value	0x44d
	.byte	0x7
	.long	.LASF1038
	.long	0xa421
	.byte	0x1
	.long	0x8825
	.long	0x882b
	.uleb128 0x2
	.long	0xa412
	.byte	0
	.uleb128 0x6
	.long	.LASF990
	.byte	0x3
	.value	0x456
	.byte	0x7
	.long	.LASF1039
	.long	0x8760
	.byte	0x1
	.long	0x8845
	.long	0x8850
	.uleb128 0x2
	.long	0xa412
	.uleb128 0x1
	.long	0x48
	.byte	0
	.uleb128 0x6
	.long	.LASF993
	.byte	0x3
	.value	0x45e
	.byte	0x7
	.long	.LASF1040
	.long	0xa421
	.byte	0x1
	.long	0x886a
	.long	0x8870
	.uleb128 0x2
	.long	0xa412
	.byte	0
	.uleb128 0x6
	.long	.LASF993
	.byte	0x3
	.value	0x467
	.byte	0x7
	.long	.LASF1041
	.long	0x8760
	.byte	0x1
	.long	0x888a
	.long	0x8895
	.uleb128 0x2
	.long	0xa412
	.uleb128 0x1
	.long	0x48
	.byte	0
	.uleb128 0x6
	.long	.LASF212
	.byte	0x3
	.value	0x46f
	.byte	0x7
	.long	.LASF1042
	.long	0x87b1
	.byte	0x1
	.long	0x88af
	.long	0x88ba
	.uleb128 0x2
	.long	0xa41c
	.uleb128 0x1
	.long	0x88ba
	.byte	0
	.uleb128 0x16
	.long	.LASF438
	.byte	0x3
	.value	0x413
	.byte	0x38
	.long	0x6b03
	.uleb128 0x6
	.long	.LASF997
	.byte	0x3
	.value	0x475
	.byte	0x7
	.long	.LASF1043
	.long	0xa421
	.byte	0x1
	.long	0x88e1
	.long	0x88ec
	.uleb128 0x2
	.long	0xa412
	.uleb128 0x1
	.long	0x88ba
	.byte	0
	.uleb128 0x6
	.long	.LASF999
	.byte	0x3
	.value	0x47b
	.byte	0x7
	.long	.LASF1044
	.long	0x8760
	.byte	0x1
	.long	0x8906
	.long	0x8911
	.uleb128 0x2
	.long	0xa41c
	.uleb128 0x1
	.long	0x88ba
	.byte	0
	.uleb128 0x6
	.long	.LASF1001
	.byte	0x3
	.value	0x481
	.byte	0x7
	.long	.LASF1045
	.long	0xa421
	.byte	0x1
	.long	0x892b
	.long	0x8936
	.uleb128 0x2
	.long	0xa412
	.uleb128 0x1
	.long	0x88ba
	.byte	0
	.uleb128 0x6
	.long	.LASF1003
	.byte	0x3
	.value	0x487
	.byte	0x7
	.long	.LASF1046
	.long	0x8760
	.byte	0x1
	.long	0x8950
	.long	0x895b
	.uleb128 0x2
	.long	0xa41c
	.uleb128 0x1
	.long	0x88ba
	.byte	0
	.uleb128 0x6
	.long	.LASF1005
	.byte	0x3
	.value	0x48d
	.byte	0x7
	.long	.LASF1047
	.long	0xa417
	.byte	0x1
	.long	0x8975
	.long	0x897b
	.uleb128 0x2
	.long	0xa41c
	.byte	0
	.uleb128 0xc
	.long	.LASF439
	.long	0xa048
	.uleb128 0xc
	.long	.LASF1007
	.long	0x24d4
	.byte	0
	.uleb128 0x7
	.long	0x8760
	.uleb128 0x1a
	.long	.LASF1048
	.byte	0x1
	.byte	0x2f
	.byte	0x2f
	.byte	0xa
	.long	0x8a88
	.uleb128 0x5
	.byte	0x2f
	.byte	0x2f
	.byte	0xa
	.long	0x3325
	.uleb128 0x5
	.byte	0x2f
	.byte	0x2f
	.byte	0xa
	.long	0x32ea
	.uleb128 0x5
	.byte	0x2f
	.byte	0x2f
	.byte	0xa
	.long	0x3353
	.uleb128 0x5
	.byte	0x2f
	.byte	0x2f
	.byte	0xa
	.long	0x3370
	.uleb128 0x33
	.long	0x32cf
	.uleb128 0x8a
	.long	.LASF964
	.byte	0x2f
	.byte	0x63
	.byte	0x1d
	.long	0x3252
	.long	0x89dc
	.uleb128 0x1
	.long	0xa13d
	.byte	0
	.uleb128 0x8b
	.long	.LASF966
	.byte	0x2f
	.byte	0x67
	.byte	0x26
	.long	0x89f4
	.uleb128 0x1
	.long	0xa142
	.uleb128 0x1
	.long	0xa142
	.byte	0
	.uleb128 0x66
	.long	.LASF968
	.byte	0x6b
	.long	0x8fe9
	.uleb128 0x66
	.long	.LASF970
	.byte	0x6f
	.long	0x8fe9
	.uleb128 0x66
	.long	.LASF972
	.byte	0x73
	.long	0x8fe9
	.uleb128 0x66
	.long	.LASF974
	.byte	0x77
	.long	0x8fe9
	.uleb128 0x66
	.long	.LASF976
	.byte	0x7b
	.long	0x8fe9
	.uleb128 0x9
	.long	.LASF5
	.byte	0x2f
	.byte	0x37
	.byte	0x35
	.long	0x339e
	.uleb128 0x7
	.long	0x8a26
	.uleb128 0x9
	.long	.LASF73
	.byte	0x2f
	.byte	0x38
	.byte	0x35
	.long	0x32dd
	.uleb128 0x9
	.long	.LASF74
	.byte	0x2f
	.byte	0x3d
	.byte	0x35
	.long	0xa151
	.uleb128 0x9
	.long	.LASF77
	.byte	0x2f
	.byte	0x3e
	.byte	0x35
	.long	0xa156
	.uleb128 0x1a
	.long	.LASF1049
	.byte	0x1
	.byte	0x2f
	.byte	0x7f
	.byte	0xe
	.long	0x8a7e
	.uleb128 0x9
	.long	.LASF979
	.byte	0x2f
	.byte	0x80
	.byte	0x41
	.long	0x33ab
	.uleb128 0xf
	.string	"_Tp"
	.long	0x9f8c
	.byte	0
	.uleb128 0xc
	.long	.LASF145
	.long	0x3252
	.byte	0
	.uleb128 0x4a
	.long	.LASF1050
	.byte	0x8
	.byte	0x3
	.value	0x402
	.long	0x8c7e
	.uleb128 0x70
	.long	.LASF982
	.long	0xa110
	.uleb128 0x29
	.long	.LASF983
	.byte	0x3
	.value	0x41d
	.byte	0x7
	.byte	0x1
	.long	0x8ab0
	.long	0x8ab6
	.uleb128 0x2
	.long	0xa3f4
	.byte	0
	.uleb128 0x74
	.long	.LASF983
	.byte	0x3
	.value	0x422
	.long	0x8ac6
	.long	0x8ad1
	.uleb128 0x2
	.long	0xa3f4
	.uleb128 0x1
	.long	0xa3fe
	.byte	0
	.uleb128 0x16
	.long	.LASF74
	.byte	0x3
	.value	0x414
	.byte	0x32
	.long	0x6ab5
	.uleb128 0x1e
	.long	.LASF986
	.byte	0x3
	.value	0x441
	.byte	0x7
	.long	0x8ad1
	.byte	0x1
	.long	0x8af4
	.long	0x8afa
	.uleb128 0x2
	.long	0xa403
	.byte	0
	.uleb128 0x16
	.long	.LASF73
	.byte	0x3
	.value	0x415
	.byte	0x32
	.long	0x6aa9
	.uleb128 0x1e
	.long	.LASF988
	.byte	0x3
	.value	0x447
	.byte	0x7
	.long	0x8afa
	.byte	0x1
	.long	0x8b1d
	.long	0x8b23
	.uleb128 0x2
	.long	0xa403
	.byte	0
	.uleb128 0x1e
	.long	.LASF990
	.byte	0x3
	.value	0x44d
	.byte	0x7
	.long	0xa40d
	.byte	0x1
	.long	0x8b39
	.long	0x8b3f
	.uleb128 0x2
	.long	0xa3f4
	.byte	0
	.uleb128 0x1e
	.long	.LASF990
	.byte	0x3
	.value	0x456
	.byte	0x7
	.long	0x8a88
	.byte	0x1
	.long	0x8b55
	.long	0x8b60
	.uleb128 0x2
	.long	0xa3f4
	.uleb128 0x1
	.long	0x48
	.byte	0
	.uleb128 0x1e
	.long	.LASF993
	.byte	0x3
	.value	0x45e
	.byte	0x7
	.long	0xa40d
	.byte	0x1
	.long	0x8b76
	.long	0x8b7c
	.uleb128 0x2
	.long	0xa3f4
	.byte	0
	.uleb128 0x1e
	.long	.LASF993
	.byte	0x3
	.value	0x467
	.byte	0x7
	.long	0x8a88
	.byte	0x1
	.long	0x8b92
	.long	0x8b9d
	.uleb128 0x2
	.long	0xa3f4
	.uleb128 0x1
	.long	0x48
	.byte	0
	.uleb128 0x1e
	.long	.LASF212
	.byte	0x3
	.value	0x46f
	.byte	0x7
	.long	0x8ad1
	.byte	0x1
	.long	0x8bb3
	.long	0x8bbe
	.uleb128 0x2
	.long	0xa403
	.uleb128 0x1
	.long	0x8bbe
	.byte	0
	.uleb128 0x16
	.long	.LASF438
	.byte	0x3
	.value	0x413
	.byte	0x38
	.long	0x6a9d
	.uleb128 0x1e
	.long	.LASF997
	.byte	0x3
	.value	0x475
	.byte	0x7
	.long	0xa40d
	.byte	0x1
	.long	0x8be1
	.long	0x8bec
	.uleb128 0x2
	.long	0xa3f4
	.uleb128 0x1
	.long	0x8bbe
	.byte	0
	.uleb128 0x1e
	.long	.LASF999
	.byte	0x3
	.value	0x47b
	.byte	0x7
	.long	0x8a88
	.byte	0x1
	.long	0x8c02
	.long	0x8c0d
	.uleb128 0x2
	.long	0xa403
	.uleb128 0x1
	.long	0x8bbe
	.byte	0
	.uleb128 0x1e
	.long	.LASF1001
	.byte	0x3
	.value	0x481
	.byte	0x7
	.long	0xa40d
	.byte	0x1
	.long	0x8c23
	.long	0x8c2e
	.uleb128 0x2
	.long	0xa3f4
	.uleb128 0x1
	.long	0x8bbe
	.byte	0
	.uleb128 0x1e
	.long	.LASF1003
	.byte	0x3
	.value	0x487
	.byte	0x7
	.long	0x8a88
	.byte	0x1
	.long	0x8c44
	.long	0x8c4f
	.uleb128 0x2
	.long	0xa403
	.uleb128 0x1
	.long	0x8bbe
	.byte	0
	.uleb128 0x1e
	.long	.LASF1005
	.byte	0x3
	.value	0x48d
	.byte	0x7
	.long	0xa3fe
	.byte	0x1
	.long	0x8c65
	.long	0x8c6b
	.uleb128 0x2
	.long	0xa403
	.byte	0
	.uleb128 0xc
	.long	.LASF439
	.long	0xa110
	.uleb128 0xc
	.long	.LASF1007
	.long	0x374e
	.byte	0
	.uleb128 0x7
	.long	0x8a88
	.uleb128 0x2f
	.long	.LASF1051
	.uleb128 0x1a
	.long	.LASF1052
	.byte	0x1
	.byte	0x2f
	.byte	0x2f
	.byte	0xa
	.long	0x8d97
	.uleb128 0x5
	.byte	0x2f
	.byte	0x2f
	.byte	0xa
	.long	0x4590
	.uleb128 0x5
	.byte	0x2f
	.byte	0x2f
	.byte	0xa
	.long	0x4551
	.uleb128 0x5
	.byte	0x2f
	.byte	0x2f
	.byte	0xa
	.long	0x45c2
	.uleb128 0x5
	.byte	0x2f
	.byte	0x2f
	.byte	0xa
	.long	0x45e3
	.uleb128 0x33
	.long	0x4536
	.uleb128 0x30
	.long	.LASF964
	.byte	0x2f
	.byte	0x63
	.byte	0x1d
	.long	.LASF1053
	.long	0x44ad
	.long	0x8cd4
	.uleb128 0x1
	.long	0xa24b
	.byte	0
	.uleb128 0x47
	.long	.LASF966
	.byte	0x2f
	.byte	0x67
	.byte	0x26
	.long	.LASF1054
	.long	0x8cef
	.uleb128 0x1
	.long	0xa250
	.uleb128 0x1
	.long	0xa250
	.byte	0
	.uleb128 0x31
	.long	.LASF968
	.byte	0x6b
	.long	.LASF1055
	.long	0x8fe9
	.uleb128 0x31
	.long	.LASF970
	.byte	0x6f
	.long	.LASF1056
	.long	0x8fe9
	.uleb128 0x31
	.long	.LASF972
	.byte	0x73
	.long	.LASF1057
	.long	0x8fe9
	.uleb128 0x31
	.long	.LASF974
	.byte	0x77
	.long	.LASF1058
	.long	0x8fe9
	.uleb128 0x31
	.long	.LASF976
	.byte	0x7b
	.long	.LASF1059
	.long	0x8fe9
	.uleb128 0x9
	.long	.LASF5
	.byte	0x2f
	.byte	0x37
	.byte	0x35
	.long	0x4619
	.uleb128 0x7
	.long	0x8d35
	.uleb128 0x9
	.long	.LASF73
	.byte	0x2f
	.byte	0x38
	.byte	0x35
	.long	0x4544
	.uleb128 0x9
	.long	.LASF74
	.byte	0x2f
	.byte	0x3d
	.byte	0x35
	.long	0xa25f
	.uleb128 0x9
	.long	.LASF77
	.byte	0x2f
	.byte	0x3e
	.byte	0x35
	.long	0xa264
	.uleb128 0x1a
	.long	.LASF1060
	.byte	0x1
	.byte	0x2f
	.byte	0x7f
	.byte	0xe
	.long	0x8d8d
	.uleb128 0x9
	.long	.LASF979
	.byte	0x2f
	.byte	0x80
	.byte	0x41
	.long	0x4626
	.uleb128 0xf
	.string	"_Tp"
	.long	0x48
	.byte	0
	.uleb128 0xc
	.long	.LASF145
	.long	0x44ad
	.byte	0
	.uleb128 0x2f
	.long	.LASF1061
	.uleb128 0x2f
	.long	.LASF1062
	.uleb128 0x1a
	.long	.LASF1063
	.byte	0x1
	.byte	0x2f
	.byte	0x2f
	.byte	0xa
	.long	0x8eb0
	.uleb128 0x5
	.byte	0x2f
	.byte	0x2f
	.byte	0xa
	.long	0x593d
	.uleb128 0x5
	.byte	0x2f
	.byte	0x2f
	.byte	0xa
	.long	0x58fe
	.uleb128 0x5
	.byte	0x2f
	.byte	0x2f
	.byte	0xa
	.long	0x596f
	.uleb128 0x5
	.byte	0x2f
	.byte	0x2f
	.byte	0xa
	.long	0x5990
	.uleb128 0x33
	.long	0x58e3
	.uleb128 0x30
	.long	.LASF964
	.byte	0x2f
	.byte	0x63
	.byte	0x1d
	.long	.LASF1064
	.long	0x585a
	.long	0x8ded
	.uleb128 0x1
	.long	0xa33b
	.byte	0
	.uleb128 0x47
	.long	.LASF966
	.byte	0x2f
	.byte	0x67
	.byte	0x26
	.long	.LASF1065
	.long	0x8e08
	.uleb128 0x1
	.long	0xa340
	.uleb128 0x1
	.long	0xa340
	.byte	0
	.uleb128 0x31
	.long	.LASF968
	.byte	0x6b
	.long	.LASF1066
	.long	0x8fe9
	.uleb128 0x31
	.long	.LASF970
	.byte	0x6f
	.long	.LASF1067
	.long	0x8fe9
	.uleb128 0x31
	.long	.LASF972
	.byte	0x73
	.long	.LASF1068
	.long	0x8fe9
	.uleb128 0x31
	.long	.LASF974
	.byte	0x77
	.long	.LASF1069
	.long	0x8fe9
	.uleb128 0x31
	.long	.LASF976
	.byte	0x7b
	.long	.LASF1070
	.long	0x8fe9
	.uleb128 0x9
	.long	.LASF5
	.byte	0x2f
	.byte	0x37
	.byte	0x35
	.long	0x59c6
	.uleb128 0x7
	.long	0x8e4e
	.uleb128 0x9
	.long	.LASF73
	.byte	0x2f
	.byte	0x38
	.byte	0x35
	.long	0x58f1
	.uleb128 0x9
	.long	.LASF74
	.byte	0x2f
	.byte	0x3d
	.byte	0x35
	.long	0xa34f
	.uleb128 0x9
	.long	.LASF77
	.byte	0x2f
	.byte	0x3e
	.byte	0x35
	.long	0xa354
	.uleb128 0x1a
	.long	.LASF1071
	.byte	0x1
	.byte	0x2f
	.byte	0x7f
	.byte	0xe
	.long	0x8ea6
	.uleb128 0x9
	.long	.LASF979
	.byte	0x2f
	.byte	0x80
	.byte	0x41
	.long	0x59d3
	.uleb128 0xf
	.string	"_Tp"
	.long	0x30
	.byte	0
	.uleb128 0xc
	.long	.LASF145
	.long	0x585a
	.byte	0
	.uleb128 0x2f
	.long	.LASF1072
	.uleb128 0x2f
	.long	.LASF1073
	.uleb128 0x1a
	.long	.LASF1074
	.byte	0x1
	.byte	0x30
	.byte	0x3c
	.byte	0xc
	.long	0x8ef0
	.uleb128 0x9
	.long	.LASF1075
	.byte	0x30
	.byte	0x3d
	.byte	0x17
	.long	0x7d73
	.uleb128 0x81
	.long	.LASF1076
	.long	0x8fe9
	.uleb128 0xc
	.long	.LASF1077
	.long	0x7d73
	.uleb128 0xc
	.long	.LASF1078
	.long	0xa32c
	.byte	0
	.uleb128 0x44
	.long	.LASF1079
	.byte	0x3
	.value	0x4dd
	.byte	0x7
	.long	0x8fe9
	.long	0x8f0c
	.uleb128 0x1
	.long	0x10d83
	.uleb128 0x1
	.long	0x10d83
	.byte	0
	.uleb128 0x8c
	.long	.LASF1079
	.byte	0x3
	.value	0x4dd
	.byte	0x7
	.long	.LASF1080
	.long	0x8fe9
	.uleb128 0x1
	.long	0x10ddd
	.uleb128 0x1
	.long	0x10ddd
	.byte	0
	.byte	0
	.uleb128 0x18
	.long	.LASF1081
	.byte	0x2d
	.value	0x199
	.byte	0x14
	.long	0x8f46
	.long	0x8f46
	.uleb128 0x1
	.long	0x7883
	.uleb128 0x1
	.long	0x7d52
	.byte	0
	.uleb128 0x2b
	.byte	0x10
	.byte	0x4
	.long	.LASF1082
	.uleb128 0x17
	.long	.LASF1083
	.byte	0x2d
	.value	0x1fc
	.byte	0x16
	.long	.LASF1084
	.long	0x8f72
	.long	0x8f72
	.uleb128 0x1
	.long	0x7883
	.uleb128 0x1
	.long	0x7d52
	.uleb128 0x1
	.long	0x48
	.byte	0
	.uleb128 0x2b
	.byte	0x8
	.byte	0x5
	.long	.LASF1085
	.uleb128 0x17
	.long	.LASF1086
	.byte	0x2d
	.value	0x201
	.byte	0x1f
	.long	.LASF1087
	.long	0x8f9e
	.long	0x8f9e
	.uleb128 0x1
	.long	0x7883
	.uleb128 0x1
	.long	0x7d52
	.uleb128 0x1
	.long	0x48
	.byte	0
	.uleb128 0x2b
	.byte	0x8
	.byte	0x7
	.long	.LASF1088
	.uleb128 0xbb
	.byte	0x20
	.byte	0x10
	.byte	0x25
	.value	0x1b8
	.byte	0x10
	.long	.LASF1434
	.long	0x8fd4
	.uleb128 0x90
	.long	.LASF1089
	.value	0x1b9
	.byte	0xd
	.long	0x8f72
	.byte	0x8
	.byte	0
	.uleb128 0x90
	.long	.LASF1090
	.value	0x1ba
	.byte	0xf
	.long	0x8f46
	.byte	0x10
	.byte	0x10
	.byte	0
	.uleb128 0xbc
	.long	.LASF1091
	.byte	0x25
	.value	0x1c3
	.byte	0x3
	.long	0x8fa5
	.byte	0x10
	.uleb128 0xbd
	.long	.LASF1435
	.uleb128 0x2b
	.byte	0x1
	.byte	0x2
	.long	.LASF1092
	.uleb128 0x7
	.long	0x8fe9
	.uleb128 0xd
	.long	0x330
	.uleb128 0xd
	.long	0x39e
	.uleb128 0x2b
	.byte	0x1
	.byte	0x8
	.long	.LASF1093
	.uleb128 0x7
	.long	0x8fff
	.uleb128 0x2b
	.byte	0x10
	.byte	0x7
	.long	.LASF1094
	.uleb128 0x2b
	.byte	0x1
	.byte	0x6
	.long	.LASF1095
	.uleb128 0x2b
	.byte	0x2
	.byte	0x5
	.long	.LASF1096
	.uleb128 0x2b
	.byte	0x10
	.byte	0x5
	.long	.LASF1097
	.uleb128 0x2b
	.byte	0x2
	.byte	0x10
	.long	.LASF1098
	.uleb128 0x2b
	.byte	0x4
	.byte	0x10
	.long	.LASF1099
	.uleb128 0xd
	.long	0x3d5
	.uleb128 0xd
	.long	0x5bd
	.uleb128 0xd
	.long	0x9044
	.uleb128 0xbe
	.uleb128 0xb
	.long	0x607
	.uleb128 0xb
	.long	0x5bd
	.uleb128 0x28
	.long	0x3d5
	.uleb128 0xb
	.long	0x3d5
	.uleb128 0xd
	.long	0x607
	.uleb128 0x1a
	.long	.LASF1100
	.byte	0x60
	.byte	0x31
	.byte	0x33
	.byte	0x8
	.long	0x91a5
	.uleb128 0x10
	.long	.LASF1101
	.byte	0x31
	.byte	0x37
	.byte	0x9
	.long	0x37
	.byte	0
	.uleb128 0x10
	.long	.LASF1102
	.byte	0x31
	.byte	0x38
	.byte	0x9
	.long	0x37
	.byte	0x8
	.uleb128 0x10
	.long	.LASF1103
	.byte	0x31
	.byte	0x3e
	.byte	0x9
	.long	0x37
	.byte	0x10
	.uleb128 0x10
	.long	.LASF1104
	.byte	0x31
	.byte	0x44
	.byte	0x9
	.long	0x37
	.byte	0x18
	.uleb128 0x10
	.long	.LASF1105
	.byte	0x31
	.byte	0x45
	.byte	0x9
	.long	0x37
	.byte	0x20
	.uleb128 0x10
	.long	.LASF1106
	.byte	0x31
	.byte	0x46
	.byte	0x9
	.long	0x37
	.byte	0x28
	.uleb128 0x10
	.long	.LASF1107
	.byte	0x31
	.byte	0x47
	.byte	0x9
	.long	0x37
	.byte	0x30
	.uleb128 0x10
	.long	.LASF1108
	.byte	0x31
	.byte	0x48
	.byte	0x9
	.long	0x37
	.byte	0x38
	.uleb128 0x10
	.long	.LASF1109
	.byte	0x31
	.byte	0x49
	.byte	0x9
	.long	0x37
	.byte	0x40
	.uleb128 0x10
	.long	.LASF1110
	.byte	0x31
	.byte	0x4a
	.byte	0x9
	.long	0x37
	.byte	0x48
	.uleb128 0x10
	.long	.LASF1111
	.byte	0x31
	.byte	0x4b
	.byte	0x8
	.long	0x3c
	.byte	0x50
	.uleb128 0x10
	.long	.LASF1112
	.byte	0x31
	.byte	0x4c
	.byte	0x8
	.long	0x3c
	.byte	0x51
	.uleb128 0x10
	.long	.LASF1113
	.byte	0x31
	.byte	0x4e
	.byte	0x8
	.long	0x3c
	.byte	0x52
	.uleb128 0x10
	.long	.LASF1114
	.byte	0x31
	.byte	0x50
	.byte	0x8
	.long	0x3c
	.byte	0x53
	.uleb128 0x10
	.long	.LASF1115
	.byte	0x31
	.byte	0x52
	.byte	0x8
	.long	0x3c
	.byte	0x54
	.uleb128 0x10
	.long	.LASF1116
	.byte	0x31
	.byte	0x54
	.byte	0x8
	.long	0x3c
	.byte	0x55
	.uleb128 0x10
	.long	.LASF1117
	.byte	0x31
	.byte	0x5b
	.byte	0x8
	.long	0x3c
	.byte	0x56
	.uleb128 0x10
	.long	.LASF1118
	.byte	0x31
	.byte	0x5c
	.byte	0x8
	.long	0x3c
	.byte	0x57
	.uleb128 0x10
	.long	.LASF1119
	.byte	0x31
	.byte	0x5f
	.byte	0x8
	.long	0x3c
	.byte	0x58
	.uleb128 0x10
	.long	.LASF1120
	.byte	0x31
	.byte	0x61
	.byte	0x8
	.long	0x3c
	.byte	0x59
	.uleb128 0x10
	.long	.LASF1121
	.byte	0x31
	.byte	0x63
	.byte	0x8
	.long	0x3c
	.byte	0x5a
	.uleb128 0x10
	.long	.LASF1122
	.byte	0x31
	.byte	0x65
	.byte	0x8
	.long	0x3c
	.byte	0x5b
	.uleb128 0x10
	.long	.LASF1123
	.byte	0x31
	.byte	0x6c
	.byte	0x8
	.long	0x3c
	.byte	0x5c
	.uleb128 0x10
	.long	.LASF1124
	.byte	0x31
	.byte	0x6d
	.byte	0x8
	.long	0x3c
	.byte	0x5d
	.byte	0
	.uleb128 0x25
	.long	.LASF1125
	.byte	0x31
	.byte	0x7a
	.byte	0xe
	.long	0x37
	.long	0x91c0
	.uleb128 0x1
	.long	0x48
	.uleb128 0x1
	.long	0x77e1
	.byte	0
	.uleb128 0x71
	.long	.LASF1127
	.byte	0x31
	.byte	0x7d
	.byte	0x16
	.long	0x91cc
	.uleb128 0xd
	.long	0x905f
	.uleb128 0x9
	.long	.LASF1128
	.byte	0x32
	.byte	0x25
	.byte	0x15
	.long	0x9012
	.uleb128 0x9
	.long	.LASF1129
	.byte	0x32
	.byte	0x26
	.byte	0x17
	.long	0x8fff
	.uleb128 0x9
	.long	.LASF1130
	.byte	0x32
	.byte	0x27
	.byte	0x1a
	.long	0x9019
	.uleb128 0x9
	.long	.LASF1131
	.byte	0x32
	.byte	0x28
	.byte	0x1c
	.long	0x77d5
	.uleb128 0x9
	.long	.LASF1132
	.byte	0x32
	.byte	0x29
	.byte	0x14
	.long	0x48
	.uleb128 0x7
	.long	0x9201
	.uleb128 0x9
	.long	.LASF1133
	.byte	0x32
	.byte	0x2a
	.byte	0x16
	.long	0x7598
	.uleb128 0x9
	.long	.LASF1134
	.byte	0x32
	.byte	0x2c
	.byte	0x19
	.long	0x7dbd
	.uleb128 0x9
	.long	.LASF1135
	.byte	0x32
	.byte	0x2d
	.byte	0x1b
	.long	0x7556
	.uleb128 0x9
	.long	.LASF1136
	.byte	0x32
	.byte	0x34
	.byte	0x12
	.long	0x91d1
	.uleb128 0x9
	.long	.LASF1137
	.byte	0x32
	.byte	0x35
	.byte	0x13
	.long	0x91dd
	.uleb128 0x9
	.long	.LASF1138
	.byte	0x32
	.byte	0x36
	.byte	0x13
	.long	0x91e9
	.uleb128 0x9
	.long	.LASF1139
	.byte	0x32
	.byte	0x37
	.byte	0x14
	.long	0x91f5
	.uleb128 0x9
	.long	.LASF1140
	.byte	0x32
	.byte	0x38
	.byte	0x13
	.long	0x9201
	.uleb128 0x9
	.long	.LASF1141
	.byte	0x32
	.byte	0x39
	.byte	0x14
	.long	0x9212
	.uleb128 0x9
	.long	.LASF1142
	.byte	0x32
	.byte	0x3a
	.byte	0x13
	.long	0x921e
	.uleb128 0x9
	.long	.LASF1143
	.byte	0x32
	.byte	0x3b
	.byte	0x14
	.long	0x922a
	.uleb128 0x9
	.long	.LASF1144
	.byte	0x32
	.byte	0x48
	.byte	0x12
	.long	0x7dbd
	.uleb128 0x9
	.long	.LASF1145
	.byte	0x32
	.byte	0x49
	.byte	0x1b
	.long	0x7556
	.uleb128 0x9
	.long	.LASF1146
	.byte	0x32
	.byte	0x98
	.byte	0x19
	.long	0x7dbd
	.uleb128 0x9
	.long	.LASF1147
	.byte	0x32
	.byte	0x99
	.byte	0x1b
	.long	0x7dbd
	.uleb128 0x9
	.long	.LASF1148
	.byte	0x32
	.byte	0x9c
	.byte	0x1b
	.long	0x7dbd
	.uleb128 0x9
	.long	.LASF1149
	.byte	0x32
	.byte	0xa0
	.byte	0x1a
	.long	0x7dbd
	.uleb128 0x9
	.long	.LASF1150
	.byte	0x32
	.byte	0xc5
	.byte	0x21
	.long	0x7dbd
	.uleb128 0x8f
	.long	.LASF1151
	.byte	0x3
	.value	0xbb4
	.long	0x9301
	.uleb128 0xbf
	.byte	0x14
	.byte	0x3a
	.byte	0x18
	.long	0x6a2
	.byte	0
	.uleb128 0x6f
	.byte	0x8
	.byte	0x33
	.byte	0x3c
	.byte	0x3
	.long	.LASF1153
	.long	0x9329
	.uleb128 0x10
	.long	.LASF1154
	.byte	0x33
	.byte	0x3d
	.byte	0x9
	.long	0x48
	.byte	0
	.uleb128 0x45
	.string	"rem"
	.byte	0x33
	.byte	0x3e
	.byte	0x9
	.long	0x48
	.byte	0x4
	.byte	0
	.uleb128 0x9
	.long	.LASF1155
	.byte	0x33
	.byte	0x3f
	.byte	0x5
	.long	0x9301
	.uleb128 0x6f
	.byte	0x10
	.byte	0x33
	.byte	0x44
	.byte	0x3
	.long	.LASF1156
	.long	0x935d
	.uleb128 0x10
	.long	.LASF1154
	.byte	0x33
	.byte	0x45
	.byte	0xe
	.long	0x7dbd
	.byte	0
	.uleb128 0x45
	.string	"rem"
	.byte	0x33
	.byte	0x46
	.byte	0xe
	.long	0x7dbd
	.byte	0x8
	.byte	0
	.uleb128 0x9
	.long	.LASF1157
	.byte	0x33
	.byte	0x47
	.byte	0x5
	.long	0x9335
	.uleb128 0x6f
	.byte	0x10
	.byte	0x33
	.byte	0x4e
	.byte	0x3
	.long	.LASF1158
	.long	0x9391
	.uleb128 0x10
	.long	.LASF1154
	.byte	0x33
	.byte	0x4f
	.byte	0x13
	.long	0x8f72
	.byte	0
	.uleb128 0x45
	.string	"rem"
	.byte	0x33
	.byte	0x50
	.byte	0x13
	.long	0x8f72
	.byte	0x8
	.byte	0
	.uleb128 0x9
	.long	.LASF1159
	.byte	0x33
	.byte	0x51
	.byte	0x5
	.long	0x9369
	.uleb128 0x9
	.long	.LASF1160
	.byte	0x34
	.byte	0x7
	.byte	0x13
	.long	0x92c6
	.uleb128 0x9
	.long	.LASF1161
	.byte	0x35
	.byte	0xa
	.byte	0x12
	.long	0x92d2
	.uleb128 0x7
	.long	0x93a9
	.uleb128 0x9
	.long	.LASF1162
	.byte	0x36
	.byte	0x18
	.byte	0x12
	.long	0x91d1
	.uleb128 0x9
	.long	.LASF1163
	.byte	0x36
	.byte	0x19
	.byte	0x13
	.long	0x91e9
	.uleb128 0x9
	.long	.LASF1164
	.byte	0x36
	.byte	0x1a
	.byte	0x13
	.long	0x9201
	.uleb128 0x9
	.long	.LASF1165
	.byte	0x36
	.byte	0x1b
	.byte	0x13
	.long	0x921e
	.uleb128 0x1a
	.long	.LASF1166
	.byte	0x10
	.byte	0x37
	.byte	0xb
	.byte	0x8
	.long	0x9412
	.uleb128 0x10
	.long	.LASF1167
	.byte	0x37
	.byte	0x10
	.byte	0xc
	.long	0x92d2
	.byte	0
	.uleb128 0x10
	.long	.LASF1168
	.byte	0x37
	.byte	0x15
	.byte	0x15
	.long	0x92de
	.byte	0x8
	.byte	0
	.uleb128 0x1d
	.long	.LASF1169
	.byte	0x33
	.value	0x3b4
	.byte	0xf
	.long	0x941f
	.uleb128 0xd
	.long	0x9424
	.uleb128 0xc0
	.long	0x48
	.long	0x9439
	.uleb128 0x1
	.long	0x903f
	.uleb128 0x1
	.long	0x903f
	.byte	0
	.uleb128 0x18
	.long	.LASF1170
	.byte	0x33
	.value	0x2de
	.byte	0xc
	.long	0x48
	.long	0x9450
	.uleb128 0x1
	.long	0x9450
	.byte	0
	.uleb128 0xd
	.long	0x9455
	.uleb128 0xc1
	.uleb128 0x17
	.long	.LASF1171
	.byte	0x33
	.value	0x2e3
	.byte	0x12
	.long	.LASF1171
	.long	0x48
	.long	0x9472
	.uleb128 0x1
	.long	0x9450
	.byte	0
	.uleb128 0x25
	.long	.LASF1172
	.byte	0x38
	.byte	0x19
	.byte	0x1
	.long	0x7d4b
	.long	0x9488
	.uleb128 0x1
	.long	0x77e1
	.byte	0
	.uleb128 0x18
	.long	.LASF1173
	.byte	0x33
	.value	0x1e1
	.byte	0x1
	.long	0x48
	.long	0x949f
	.uleb128 0x1
	.long	0x77e1
	.byte	0
	.uleb128 0x18
	.long	.LASF1174
	.byte	0x33
	.value	0x1e6
	.byte	0x1
	.long	0x7dbd
	.long	0x94b6
	.uleb128 0x1
	.long	0x77e1
	.byte	0
	.uleb128 0x25
	.long	.LASF1175
	.byte	0x39
	.byte	0x14
	.byte	0x1
	.long	0x759f
	.long	0x94e0
	.uleb128 0x1
	.long	0x903f
	.uleb128 0x1
	.long	0x903f
	.uleb128 0x1
	.long	0x7545
	.uleb128 0x1
	.long	0x7545
	.uleb128 0x1
	.long	0x9412
	.byte	0
	.uleb128 0xc2
	.string	"div"
	.byte	0x33
	.value	0x3e0
	.byte	0xe
	.long	0x9329
	.long	0x94fd
	.uleb128 0x1
	.long	0x48
	.uleb128 0x1
	.long	0x48
	.byte	0
	.uleb128 0x18
	.long	.LASF1176
	.byte	0x33
	.value	0x305
	.byte	0xe
	.long	0x37
	.long	0x9514
	.uleb128 0x1
	.long	0x77e1
	.byte	0
	.uleb128 0x18
	.long	.LASF1177
	.byte	0x33
	.value	0x3e2
	.byte	0xf
	.long	0x935d
	.long	0x9530
	.uleb128 0x1
	.long	0x7dbd
	.uleb128 0x1
	.long	0x7dbd
	.byte	0
	.uleb128 0x18
	.long	.LASF1178
	.byte	0x33
	.value	0x426
	.byte	0xc
	.long	0x48
	.long	0x954c
	.uleb128 0x1
	.long	0x77e1
	.uleb128 0x1
	.long	0x7545
	.byte	0
	.uleb128 0x18
	.long	.LASF1179
	.byte	0x33
	.value	0x431
	.byte	0xf
	.long	0x7545
	.long	0x956d
	.uleb128 0x1
	.long	0x783a
	.uleb128 0x1
	.long	0x77e1
	.uleb128 0x1
	.long	0x7545
	.byte	0
	.uleb128 0x18
	.long	.LASF1180
	.byte	0x33
	.value	0x429
	.byte	0xc
	.long	0x48
	.long	0x958e
	.uleb128 0x1
	.long	0x783a
	.uleb128 0x1
	.long	0x77e1
	.uleb128 0x1
	.long	0x7545
	.byte	0
	.uleb128 0x5f
	.long	.LASF1181
	.byte	0x33
	.value	0x3ca
	.long	0x95af
	.uleb128 0x1
	.long	0x759f
	.uleb128 0x1
	.long	0x7545
	.uleb128 0x1
	.long	0x7545
	.uleb128 0x1
	.long	0x9412
	.byte	0
	.uleb128 0xc3
	.long	.LASF1182
	.byte	0x33
	.value	0x2fa
	.byte	0xd
	.long	0x95c3
	.uleb128 0x1
	.long	0x48
	.byte	0
	.uleb128 0x8e
	.long	.LASF1183
	.byte	0x33
	.value	0x23d
	.byte	0xc
	.long	0x48
	.uleb128 0x5f
	.long	.LASF1184
	.byte	0x33
	.value	0x23f
	.long	0x95e3
	.uleb128 0x1
	.long	0x7598
	.byte	0
	.uleb128 0x25
	.long	.LASF1185
	.byte	0x33
	.byte	0x76
	.byte	0xf
	.long	0x7d4b
	.long	0x95fe
	.uleb128 0x1
	.long	0x77e1
	.uleb128 0x1
	.long	0x95fe
	.byte	0
	.uleb128 0xd
	.long	0x37
	.uleb128 0x30
	.long	.LASF1186
	.byte	0x33
	.byte	0xd7
	.byte	0x11
	.long	.LASF1187
	.long	0x7dbd
	.long	0x9627
	.uleb128 0x1
	.long	0x77e1
	.uleb128 0x1
	.long	0x95fe
	.uleb128 0x1
	.long	0x48
	.byte	0
	.uleb128 0x30
	.long	.LASF1188
	.byte	0x33
	.byte	0xdb
	.byte	0x1a
	.long	.LASF1189
	.long	0x7556
	.long	0x964b
	.uleb128 0x1
	.long	0x77e1
	.uleb128 0x1
	.long	0x95fe
	.uleb128 0x1
	.long	0x48
	.byte	0
	.uleb128 0x18
	.long	.LASF1190
	.byte	0x33
	.value	0x39b
	.byte	0xc
	.long	0x48
	.long	0x9662
	.uleb128 0x1
	.long	0x77e1
	.byte	0
	.uleb128 0x18
	.long	.LASF1191
	.byte	0x33
	.value	0x435
	.byte	0xf
	.long	0x7545
	.long	0x9683
	.uleb128 0x1
	.long	0x37
	.uleb128 0x1
	.long	0x7883
	.uleb128 0x1
	.long	0x7545
	.byte	0
	.uleb128 0x18
	.long	.LASF1192
	.byte	0x33
	.value	0x42d
	.byte	0xc
	.long	0x48
	.long	0x969f
	.uleb128 0x1
	.long	0x37
	.uleb128 0x1
	.long	0x783f
	.byte	0
	.uleb128 0x18
	.long	.LASF1193
	.byte	0x33
	.value	0x3e6
	.byte	0x1e
	.long	0x9391
	.long	0x96bb
	.uleb128 0x1
	.long	0x8f72
	.uleb128 0x1
	.long	0x8f72
	.byte	0
	.uleb128 0x18
	.long	.LASF1194
	.byte	0x33
	.value	0x1ed
	.byte	0x1
	.long	0x8f72
	.long	0x96d2
	.uleb128 0x1
	.long	0x77e1
	.byte	0
	.uleb128 0x30
	.long	.LASF1195
	.byte	0x33
	.byte	0xee
	.byte	0x16
	.long	.LASF1196
	.long	0x8f72
	.long	0x96f6
	.uleb128 0x1
	.long	0x77e1
	.uleb128 0x1
	.long	0x95fe
	.uleb128 0x1
	.long	0x48
	.byte	0
	.uleb128 0x30
	.long	.LASF1197
	.byte	0x33
	.byte	0xf3
	.byte	0x1f
	.long	.LASF1198
	.long	0x8f9e
	.long	0x971a
	.uleb128 0x1
	.long	0x77e1
	.uleb128 0x1
	.long	0x95fe
	.uleb128 0x1
	.long	0x48
	.byte	0
	.uleb128 0x25
	.long	.LASF1199
	.byte	0x33
	.byte	0x7c
	.byte	0xe
	.long	0x30
	.long	0x9735
	.uleb128 0x1
	.long	0x77e1
	.uleb128 0x1
	.long	0x95fe
	.byte	0
	.uleb128 0x25
	.long	.LASF1200
	.byte	0x33
	.byte	0x7f
	.byte	0x14
	.long	0x8f46
	.long	0x9750
	.uleb128 0x1
	.long	0x77e1
	.uleb128 0x1
	.long	0x95fe
	.byte	0
	.uleb128 0x1a
	.long	.LASF1201
	.byte	0x10
	.byte	0x3a
	.byte	0xa
	.byte	0x10
	.long	0x9778
	.uleb128 0x10
	.long	.LASF1202
	.byte	0x3a
	.byte	0xc
	.byte	0xb
	.long	0x92ae
	.byte	0
	.uleb128 0x10
	.long	.LASF1203
	.byte	0x3a
	.byte	0xd
	.byte	0xf
	.long	0x7609
	.byte	0x8
	.byte	0
	.uleb128 0x9
	.long	.LASF1204
	.byte	0x3a
	.byte	0xe
	.byte	0x3
	.long	0x9750
	.uleb128 0xc4
	.long	.LASF1436
	.byte	0x2b
	.byte	0x2c
	.byte	0xe
	.uleb128 0x78
	.long	.LASF1205
	.uleb128 0xd
	.long	0x978d
	.uleb128 0xd
	.long	0x7632
	.uleb128 0x75
	.long	0x3c
	.long	0x97ac
	.uleb128 0x76
	.long	0x7556
	.byte	0
	.byte	0
	.uleb128 0xd
	.long	0x9784
	.uleb128 0x78
	.long	.LASF1206
	.uleb128 0xd
	.long	0x97b1
	.uleb128 0x78
	.long	.LASF1207
	.uleb128 0xd
	.long	0x97bb
	.uleb128 0xd
	.long	0x9797
	.uleb128 0x75
	.long	0x3c
	.long	0x97da
	.uleb128 0x76
	.long	0x7556
	.byte	0x13
	.byte	0
	.uleb128 0x9
	.long	.LASF1208
	.byte	0x3b
	.byte	0x55
	.byte	0x12
	.long	0x9778
	.uleb128 0x7
	.long	0x97da
	.uleb128 0xd
	.long	0x77c9
	.uleb128 0x5f
	.long	.LASF1209
	.byte	0x3b
	.value	0x352
	.long	0x9802
	.uleb128 0x1
	.long	0x97eb
	.byte	0
	.uleb128 0x25
	.long	.LASF1210
	.byte	0x3b
	.byte	0xb8
	.byte	0xc
	.long	0x48
	.long	0x9818
	.uleb128 0x1
	.long	0x97eb
	.byte	0
	.uleb128 0x18
	.long	.LASF1211
	.byte	0x3b
	.value	0x354
	.byte	0xc
	.long	0x48
	.long	0x982f
	.uleb128 0x1
	.long	0x97eb
	.byte	0
	.uleb128 0x18
	.long	.LASF1212
	.byte	0x3b
	.value	0x356
	.byte	0xc
	.long	0x48
	.long	0x9846
	.uleb128 0x1
	.long	0x97eb
	.byte	0
	.uleb128 0x25
	.long	.LASF1213
	.byte	0x3b
	.byte	0xec
	.byte	0xc
	.long	0x48
	.long	0x985c
	.uleb128 0x1
	.long	0x97eb
	.byte	0
	.uleb128 0x18
	.long	.LASF1214
	.byte	0x3b
	.value	0x23f
	.byte	0xc
	.long	0x48
	.long	0x9873
	.uleb128 0x1
	.long	0x97eb
	.byte	0
	.uleb128 0x18
	.long	.LASF1215
	.byte	0x3b
	.value	0x333
	.byte	0xc
	.long	0x48
	.long	0x988f
	.uleb128 0x1
	.long	0x97eb
	.uleb128 0x1
	.long	0x988f
	.byte	0
	.uleb128 0xd
	.long	0x97da
	.uleb128 0x18
	.long	.LASF1216
	.byte	0x3b
	.value	0x28e
	.byte	0xe
	.long	0x37
	.long	0x98b5
	.uleb128 0x1
	.long	0x37
	.uleb128 0x1
	.long	0x48
	.uleb128 0x1
	.long	0x97eb
	.byte	0
	.uleb128 0x18
	.long	.LASF1217
	.byte	0x3b
	.value	0x108
	.byte	0xe
	.long	0x97eb
	.long	0x98d1
	.uleb128 0x1
	.long	0x77e1
	.uleb128 0x1
	.long	0x77e1
	.byte	0
	.uleb128 0x18
	.long	.LASF1218
	.byte	0x3b
	.value	0x2d8
	.byte	0xf
	.long	0x7545
	.long	0x98f7
	.uleb128 0x1
	.long	0x759f
	.uleb128 0x1
	.long	0x7545
	.uleb128 0x1
	.long	0x7545
	.uleb128 0x1
	.long	0x97eb
	.byte	0
	.uleb128 0x18
	.long	.LASF1219
	.byte	0x3b
	.value	0x10f
	.byte	0xe
	.long	0x97eb
	.long	0x9918
	.uleb128 0x1
	.long	0x77e1
	.uleb128 0x1
	.long	0x77e1
	.uleb128 0x1
	.long	0x97eb
	.byte	0
	.uleb128 0x18
	.long	.LASF1220
	.byte	0x3b
	.value	0x301
	.byte	0xc
	.long	0x48
	.long	0x9939
	.uleb128 0x1
	.long	0x97eb
	.uleb128 0x1
	.long	0x7dbd
	.uleb128 0x1
	.long	0x48
	.byte	0
	.uleb128 0x18
	.long	.LASF1221
	.byte	0x3b
	.value	0x339
	.byte	0xc
	.long	0x48
	.long	0x9955
	.uleb128 0x1
	.long	0x97eb
	.uleb128 0x1
	.long	0x9955
	.byte	0
	.uleb128 0xd
	.long	0x97e6
	.uleb128 0x18
	.long	.LASF1222
	.byte	0x3b
	.value	0x307
	.byte	0x11
	.long	0x7dbd
	.long	0x9971
	.uleb128 0x1
	.long	0x97eb
	.byte	0
	.uleb128 0x18
	.long	.LASF1223
	.byte	0x3b
	.value	0x240
	.byte	0xc
	.long	0x48
	.long	0x9988
	.uleb128 0x1
	.long	0x97eb
	.byte	0
	.uleb128 0x71
	.long	.LASF1224
	.byte	0x3c
	.byte	0x2f
	.byte	0x1
	.long	0x48
	.uleb128 0x5f
	.long	.LASF1225
	.byte	0x3b
	.value	0x364
	.long	0x99a6
	.uleb128 0x1
	.long	0x77e1
	.byte	0
	.uleb128 0x25
	.long	.LASF1226
	.byte	0x3b
	.byte	0x9e
	.byte	0xc
	.long	0x48
	.long	0x99bc
	.uleb128 0x1
	.long	0x77e1
	.byte	0
	.uleb128 0x25
	.long	.LASF1227
	.byte	0x3b
	.byte	0xa0
	.byte	0xc
	.long	0x48
	.long	0x99d7
	.uleb128 0x1
	.long	0x77e1
	.uleb128 0x1
	.long	0x77e1
	.byte	0
	.uleb128 0x5f
	.long	.LASF1228
	.byte	0x3b
	.value	0x30c
	.long	0x99e9
	.uleb128 0x1
	.long	0x97eb
	.byte	0
	.uleb128 0x5f
	.long	.LASF1229
	.byte	0x3b
	.value	0x14e
	.long	0x9a00
	.uleb128 0x1
	.long	0x97eb
	.uleb128 0x1
	.long	0x37
	.byte	0
	.uleb128 0x18
	.long	.LASF1230
	.byte	0x3b
	.value	0x153
	.byte	0xc
	.long	0x48
	.long	0x9a26
	.uleb128 0x1
	.long	0x97eb
	.uleb128 0x1
	.long	0x37
	.uleb128 0x1
	.long	0x48
	.uleb128 0x1
	.long	0x7545
	.byte	0
	.uleb128 0x71
	.long	.LASF1231
	.byte	0x3b
	.byte	0xc2
	.byte	0xe
	.long	0x97eb
	.uleb128 0x25
	.long	.LASF1232
	.byte	0x3b
	.byte	0xd3
	.byte	0xe
	.long	0x37
	.long	0x9a48
	.uleb128 0x1
	.long	0x37
	.byte	0
	.uleb128 0x18
	.long	.LASF1233
	.byte	0x3b
	.value	0x2d1
	.byte	0xc
	.long	0x48
	.long	0x9a64
	.uleb128 0x1
	.long	0x48
	.uleb128 0x1
	.long	0x97eb
	.byte	0
	.uleb128 0x9
	.long	.LASF1234
	.byte	0x3d
	.byte	0x18
	.byte	0x13
	.long	0x91dd
	.uleb128 0x9
	.long	.LASF1235
	.byte	0x3d
	.byte	0x19
	.byte	0x14
	.long	0x91f5
	.uleb128 0x9
	.long	.LASF1236
	.byte	0x3d
	.byte	0x1a
	.byte	0x14
	.long	0x9212
	.uleb128 0x9
	.long	.LASF1237
	.byte	0x3d
	.byte	0x1b
	.byte	0x14
	.long	0x922a
	.uleb128 0x9
	.long	.LASF1238
	.byte	0x3e
	.byte	0x19
	.byte	0x18
	.long	0x9236
	.uleb128 0x9
	.long	.LASF1239
	.byte	0x3e
	.byte	0x1a
	.byte	0x19
	.long	0x924e
	.uleb128 0x9
	.long	.LASF1240
	.byte	0x3e
	.byte	0x1b
	.byte	0x19
	.long	0x9266
	.uleb128 0x9
	.long	.LASF1241
	.byte	0x3e
	.byte	0x1c
	.byte	0x19
	.long	0x927e
	.uleb128 0x9
	.long	.LASF1242
	.byte	0x3e
	.byte	0x1f
	.byte	0x19
	.long	0x9242
	.uleb128 0x9
	.long	.LASF1243
	.byte	0x3e
	.byte	0x20
	.byte	0x1a
	.long	0x925a
	.uleb128 0x9
	.long	.LASF1244
	.byte	0x3e
	.byte	0x21
	.byte	0x1a
	.long	0x9272
	.uleb128 0x9
	.long	.LASF1245
	.byte	0x3e
	.byte	0x22
	.byte	0x1a
	.long	0x928a
	.uleb128 0x9
	.long	.LASF1246
	.byte	0x3f
	.byte	0x2f
	.byte	0x16
	.long	0x9012
	.uleb128 0x9
	.long	.LASF1247
	.byte	0x3f
	.byte	0x31
	.byte	0x13
	.long	0x7dbd
	.uleb128 0x9
	.long	.LASF1248
	.byte	0x3f
	.byte	0x32
	.byte	0x13
	.long	0x7dbd
	.uleb128 0x9
	.long	.LASF1249
	.byte	0x3f
	.byte	0x33
	.byte	0x13
	.long	0x7dbd
	.uleb128 0x9
	.long	.LASF1250
	.byte	0x3f
	.byte	0x3c
	.byte	0x18
	.long	0x8fff
	.uleb128 0x9
	.long	.LASF1251
	.byte	0x3f
	.byte	0x3e
	.byte	0x1b
	.long	0x7556
	.uleb128 0x9
	.long	.LASF1252
	.byte	0x3f
	.byte	0x3f
	.byte	0x1b
	.long	0x7556
	.uleb128 0x9
	.long	.LASF1253
	.byte	0x3f
	.byte	0x40
	.byte	0x1b
	.long	0x7556
	.uleb128 0x9
	.long	.LASF1254
	.byte	0x3f
	.byte	0x4c
	.byte	0x13
	.long	0x7dbd
	.uleb128 0x9
	.long	.LASF1255
	.byte	0x3f
	.byte	0x4f
	.byte	0x1b
	.long	0x7556
	.uleb128 0x9
	.long	.LASF1256
	.byte	0x3f
	.byte	0x5a
	.byte	0x15
	.long	0x9296
	.uleb128 0x9
	.long	.LASF1257
	.byte	0x3f
	.byte	0x5b
	.byte	0x16
	.long	0x92a2
	.uleb128 0x2b
	.byte	0x4
	.byte	0x4
	.long	.LASF1258
	.uleb128 0x2b
	.byte	0x8
	.byte	0x4
	.long	.LASF1259
	.uleb128 0x2b
	.byte	0x10
	.byte	0x4
	.long	.LASF1260
	.uleb128 0x2b
	.byte	0x10
	.byte	0x4
	.long	.LASF1261
	.uleb128 0x71
	.long	.LASF1262
	.byte	0x40
	.byte	0x48
	.byte	0x10
	.long	0x939d
	.uleb128 0x25
	.long	.LASF1263
	.byte	0x40
	.byte	0x4f
	.byte	0xf
	.long	0x7d4b
	.long	0x9bc7
	.uleb128 0x1
	.long	0x93a9
	.uleb128 0x1
	.long	0x93a9
	.byte	0
	.uleb128 0x25
	.long	.LASF1264
	.byte	0x40
	.byte	0x52
	.byte	0xf
	.long	0x93a9
	.long	0x9bdd
	.uleb128 0x1
	.long	0x9bdd
	.byte	0
	.uleb128 0xd
	.long	0x7bd1
	.uleb128 0x25
	.long	.LASF1265
	.byte	0x40
	.byte	0x4c
	.byte	0xf
	.long	0x93a9
	.long	0x9bf8
	.uleb128 0x1
	.long	0x9bf8
	.byte	0
	.uleb128 0xd
	.long	0x93a9
	.uleb128 0x25
	.long	.LASF1266
	.byte	0x40
	.byte	0xb3
	.byte	0xe
	.long	0x37
	.long	0x9c13
	.uleb128 0x1
	.long	0x7bcc
	.byte	0
	.uleb128 0x25
	.long	.LASF1267
	.byte	0x40
	.byte	0xb7
	.byte	0xe
	.long	0x37
	.long	0x9c29
	.uleb128 0x1
	.long	0x9c29
	.byte	0
	.uleb128 0xd
	.long	0x93b5
	.uleb128 0x25
	.long	.LASF1268
	.byte	0x40
	.byte	0x84
	.byte	0x13
	.long	0x9bdd
	.long	0x9c44
	.uleb128 0x1
	.long	0x9c29
	.byte	0
	.uleb128 0x25
	.long	.LASF1269
	.byte	0x40
	.byte	0x88
	.byte	0x13
	.long	0x9bdd
	.long	0x9c5a
	.uleb128 0x1
	.long	0x9c29
	.byte	0
	.uleb128 0x18
	.long	.LASF1270
	.byte	0x40
	.value	0x17f
	.byte	0xc
	.long	0x48
	.long	0x9c76
	.uleb128 0x1
	.long	0x9c76
	.uleb128 0x1
	.long	0x48
	.byte	0
	.uleb128 0xd
	.long	0x93ea
	.uleb128 0xc5
	.long	0x9c87
	.uleb128 0x1
	.long	0x759f
	.byte	0
	.uleb128 0xd
	.long	0x9c7b
	.uleb128 0x9
	.long	.LASF1271
	.byte	0x41
	.byte	0x26
	.byte	0x1b
	.long	0x7556
	.uleb128 0x9
	.long	.LASF1272
	.byte	0x42
	.byte	0x30
	.byte	0x1a
	.long	0x9ca4
	.uleb128 0xd
	.long	0x920d
	.uleb128 0x25
	.long	.LASF1273
	.byte	0x41
	.byte	0x9f
	.byte	0xc
	.long	0x48
	.long	0x9cc4
	.uleb128 0x1
	.long	0x75a2
	.uleb128 0x1
	.long	0x9c8c
	.byte	0
	.uleb128 0x25
	.long	.LASF1274
	.byte	0x42
	.byte	0x37
	.byte	0xf
	.long	0x75a2
	.long	0x9cdf
	.uleb128 0x1
	.long	0x75a2
	.uleb128 0x1
	.long	0x9c98
	.byte	0
	.uleb128 0x25
	.long	.LASF1275
	.byte	0x42
	.byte	0x34
	.byte	0x12
	.long	0x9c98
	.long	0x9cf5
	.uleb128 0x1
	.long	0x77e1
	.byte	0
	.uleb128 0x25
	.long	.LASF1276
	.byte	0x41
	.byte	0x9b
	.byte	0x11
	.long	0x9c8c
	.long	0x9d0b
	.uleb128 0x1
	.long	0x77e1
	.byte	0
	.uleb128 0x91
	.long	0x80c4
	.uleb128 0xc6
	.string	"fs"
	.byte	0x4
	.byte	0x9
	.byte	0xb
	.long	0xa2d
	.uleb128 0xd
	.long	0xaf7
	.uleb128 0x7
	.long	0x9d1d
	.uleb128 0xb
	.long	0xc95
	.uleb128 0xb
	.long	0xaf7
	.uleb128 0xd
	.long	0x8fff
	.uleb128 0x7
	.long	0x9d31
	.uleb128 0xd
	.long	0xc95
	.uleb128 0x7
	.long	0x9d3b
	.uleb128 0xb
	.long	0x8fff
	.uleb128 0xd
	.long	0x9006
	.uleb128 0xb
	.long	0x9006
	.uleb128 0xd
	.long	0xc9a
	.uleb128 0x7
	.long	0x9d54
	.uleb128 0xb
	.long	0xd1e
	.uleb128 0xb
	.long	0xc9a
	.uleb128 0xb
	.long	0xd5e
	.uleb128 0xb
	.long	0xd6b
	.uleb128 0xb
	.long	0x8184
	.uleb128 0xb
	.long	0x8190
	.uleb128 0xd
	.long	0xe2e
	.uleb128 0x7
	.long	0x9d7c
	.uleb128 0x28
	.long	0xe2e
	.uleb128 0xb
	.long	0xed4
	.uleb128 0xb
	.long	0xe2e
	.uleb128 0xd
	.long	0xee5
	.uleb128 0x7
	.long	0x9d95
	.uleb128 0xb
	.long	0xfb7
	.uleb128 0x28
	.long	0xee5
	.uleb128 0x28
	.long	0xfab
	.uleb128 0xb
	.long	0xfab
	.uleb128 0xd
	.long	0xe21
	.uleb128 0x7
	.long	0x9db3
	.uleb128 0xd
	.long	0x11c2
	.uleb128 0xb
	.long	0x1005
	.uleb128 0x28
	.long	0xe21
	.uleb128 0xb
	.long	0x12ad
	.uleb128 0xd
	.long	0x11ea
	.uleb128 0x7
	.long	0x9dd1
	.uleb128 0xb
	.long	0x1304
	.uleb128 0xb
	.long	0x1377
	.uleb128 0xb
	.long	0x1dc3
	.uleb128 0x28
	.long	0x11ea
	.uleb128 0xb
	.long	0x1dd4
	.uleb128 0xb
	.long	0x11ea
	.uleb128 0xd
	.long	0x1dc3
	.uleb128 0x7
	.long	0x9df9
	.uleb128 0x28
	.long	0x136a
	.uleb128 0xb
	.long	0x12ba
	.uleb128 0x1a
	.long	.LASF1277
	.byte	0x28
	.byte	0x4
	.byte	0xb
	.byte	0x8
	.long	0x9ef2
	.uleb128 0x10
	.long	.LASF1278
	.byte	0x4
	.byte	0xc
	.byte	0xc
	.long	0x7545
	.byte	0
	.uleb128 0x10
	.long	.LASF1279
	.byte	0x4
	.byte	0xd
	.byte	0xc
	.long	0x7545
	.byte	0x8
	.uleb128 0x10
	.long	.LASF225
	.byte	0x4
	.byte	0xe
	.byte	0x20
	.long	0x11ea
	.byte	0x10
	.uleb128 0x42
	.long	.LASF1280
	.byte	0x4
	.byte	0x10
	.byte	0x13
	.long	.LASF1281
	.long	0x7545
	.long	0x9e59
	.long	0x9e6e
	.uleb128 0x2
	.long	0x9ef7
	.uleb128 0x1
	.long	0x7545
	.uleb128 0x1
	.long	0x7545
	.uleb128 0x1
	.long	0x7545
	.byte	0
	.uleb128 0x92
	.string	"at"
	.byte	0x1d
	.byte	0x1b
	.long	.LASF1282
	.long	0x9d45
	.long	0x9e85
	.long	0x9e9a
	.uleb128 0x2
	.long	0x9f01
	.uleb128 0x1
	.long	0x7545
	.uleb128 0x1
	.long	0x7545
	.uleb128 0x1
	.long	0x7545
	.byte	0
	.uleb128 0x92
	.string	"at"
	.byte	0x21
	.byte	0x21
	.long	.LASF1283
	.long	0x9d4f
	.long	0x9eb1
	.long	0x9ec6
	.uleb128 0x2
	.long	0x9ef7
	.uleb128 0x1
	.long	0x7545
	.uleb128 0x1
	.long	0x7545
	.uleb128 0x1
	.long	0x7545
	.byte	0
	.uleb128 0xc7
	.long	.LASF1284
	.long	.LASF1437
	.long	0x9ed8
	.long	0x9ede
	.uleb128 0x2
	.long	0x9f01
	.byte	0
	.uleb128 0x6b
	.long	.LASF1277
	.long	.LASF1285
	.long	0x9eeb
	.uleb128 0x2
	.long	0x9f01
	.byte	0
	.byte	0
	.uleb128 0x7
	.long	0x9e0d
	.uleb128 0xd
	.long	0x9ef2
	.uleb128 0x7
	.long	0x9ef7
	.uleb128 0xd
	.long	0x9e0d
	.uleb128 0x7
	.long	0x9f01
	.uleb128 0x1a
	.long	.LASF1286
	.byte	0x30
	.byte	0x4
	.byte	0x26
	.byte	0x8
	.long	0x9f3c
	.uleb128 0x10
	.long	.LASF225
	.byte	0x4
	.byte	0x27
	.byte	0xf
	.long	0x9e0d
	.byte	0
	.uleb128 0x45
	.string	"u"
	.byte	0x4
	.byte	0x28
	.byte	0xb
	.long	0x30
	.byte	0x28
	.uleb128 0x45
	.string	"v"
	.byte	0x4
	.byte	0x29
	.byte	0xb
	.long	0x30
	.byte	0x2c
	.byte	0
	.uleb128 0x7
	.long	0x9f0b
	.uleb128 0x9
	.long	.LASF1287
	.byte	0x43
	.byte	0xa7
	.byte	0xf
	.long	0x30
	.uleb128 0x9
	.long	.LASF1288
	.byte	0x43
	.byte	0xa8
	.byte	0x10
	.long	0x7d4b
	.uleb128 0x2b
	.byte	0x8
	.byte	0x4
	.long	.LASF1289
	.uleb128 0x2b
	.byte	0x10
	.byte	0x4
	.long	.LASF1290
	.uleb128 0x69
	.long	.LASF1291
	.byte	0x44
	.byte	0xf
	.byte	0xb
	.long	0x9f86
	.uleb128 0xc8
	.long	.LASF1438
	.byte	0x44
	.byte	0x11
	.byte	0xb
	.uleb128 0x80
	.string	"v1"
	.byte	0x44
	.byte	0x13
	.byte	0x12
	.byte	0
	.byte	0
	.uleb128 0xc9
	.long	0xa025
	.uleb128 0x1a
	.long	.LASF1292
	.byte	0x30
	.byte	0x1
	.byte	0x14
	.byte	0x8
	.long	0xa01f
	.uleb128 0x45
	.string	"sx"
	.byte	0x1
	.byte	0x15
	.byte	0x9
	.long	0x48
	.byte	0
	.uleb128 0x45
	.string	"sy"
	.byte	0x1
	.byte	0x15
	.byte	0xd
	.long	0x48
	.byte	0x4
	.uleb128 0x45
	.string	"A"
	.byte	0x1
	.byte	0x16
	.byte	0xb
	.long	0x30
	.byte	0x8
	.uleb128 0x45
	.string	"B"
	.byte	0x1
	.byte	0x16
	.byte	0xe
	.long	0x30
	.byte	0xc
	.uleb128 0x45
	.string	"C"
	.byte	0x1
	.byte	0x16
	.byte	0x11
	.long	0x30
	.byte	0x10
	.uleb128 0x45
	.string	"D"
	.byte	0x1
	.byte	0x16
	.byte	0x14
	.long	0x30
	.byte	0x14
	.uleb128 0x10
	.long	.LASF1293
	.byte	0x1
	.byte	0x17
	.byte	0x9
	.long	0x48
	.byte	0x18
	.uleb128 0x10
	.long	.LASF1294
	.byte	0x1
	.byte	0x17
	.byte	0x12
	.long	0x48
	.byte	0x1c
	.uleb128 0x10
	.long	.LASF1295
	.byte	0x1
	.byte	0x17
	.byte	0x19
	.long	0x48
	.byte	0x20
	.uleb128 0x10
	.long	.LASF1296
	.byte	0x1
	.byte	0x17
	.byte	0x22
	.long	0x48
	.byte	0x24
	.uleb128 0x10
	.long	.LASF225
	.byte	0x1
	.byte	0x18
	.byte	0x1a
	.long	0x9d4a
	.byte	0x28
	.byte	0
	.uleb128 0x7
	.long	0x9f8c
	.byte	0
	.uleb128 0xd
	.long	0x1dfa
	.uleb128 0xb
	.long	0x1f98
	.uleb128 0xb
	.long	0x1dfa
	.uleb128 0xd
	.long	0x9f0b
	.uleb128 0x7
	.long	0xa034
	.uleb128 0xd
	.long	0x1f98
	.uleb128 0xb
	.long	0x9f0b
	.uleb128 0xd
	.long	0x9f3c
	.uleb128 0x7
	.long	0xa048
	.uleb128 0xb
	.long	0x9f3c
	.uleb128 0xd
	.long	0x1f9d
	.uleb128 0xb
	.long	0x2021
	.uleb128 0xb
	.long	0x1f9d
	.uleb128 0xb
	.long	0x2061
	.uleb128 0xb
	.long	0x206e
	.uleb128 0xb
	.long	0x84cb
	.uleb128 0xb
	.long	0x84d7
	.uleb128 0xd
	.long	0x2131
	.uleb128 0x28
	.long	0x2131
	.uleb128 0xb
	.long	0x21d7
	.uleb128 0xb
	.long	0x2131
	.uleb128 0xd
	.long	0x21e8
	.uleb128 0xb
	.long	0x22a1
	.uleb128 0x28
	.long	0x21e8
	.uleb128 0x28
	.long	0x2295
	.uleb128 0xb
	.long	0x2295
	.uleb128 0xd
	.long	0x2124
	.uleb128 0xd
	.long	0x24ac
	.uleb128 0xb
	.long	0x22ef
	.uleb128 0x28
	.long	0x2124
	.uleb128 0xb
	.long	0x2597
	.uleb128 0xd
	.long	0x24d4
	.uleb128 0x7
	.long	0xa0c0
	.uleb128 0xb
	.long	0x25ee
	.uleb128 0xb
	.long	0x265c
	.uleb128 0xb
	.long	0x307c
	.uleb128 0x28
	.long	0x24d4
	.uleb128 0xb
	.long	0x308d
	.uleb128 0xb
	.long	0x24d4
	.uleb128 0xd
	.long	0x307c
	.uleb128 0x7
	.long	0xa0e8
	.uleb128 0x28
	.long	0x264f
	.uleb128 0xb
	.long	0x25a4
	.uleb128 0xd
	.long	0x30a1
	.uleb128 0x7
	.long	0xa0fc
	.uleb128 0xb
	.long	0x324d
	.uleb128 0xb
	.long	0x30a1
	.uleb128 0xd
	.long	0x9f8c
	.uleb128 0x7
	.long	0xa110
	.uleb128 0xd
	.long	0x324d
	.uleb128 0x7
	.long	0xa11a
	.uleb128 0xb
	.long	0x9f8c
	.uleb128 0xd
	.long	0xa01f
	.uleb128 0xb
	.long	0xa01f
	.uleb128 0xd
	.long	0x3252
	.uleb128 0x7
	.long	0xa133
	.uleb128 0xb
	.long	0x32ca
	.uleb128 0xb
	.long	0x3252
	.uleb128 0xb
	.long	0x3306
	.uleb128 0xb
	.long	0x3313
	.uleb128 0xb
	.long	0x8a26
	.uleb128 0xb
	.long	0x8a32
	.uleb128 0xd
	.long	0x33f8
	.uleb128 0x7
	.long	0xa15b
	.uleb128 0x28
	.long	0x33f8
	.uleb128 0xb
	.long	0x348b
	.uleb128 0xb
	.long	0x33f8
	.uleb128 0xd
	.long	0x349c
	.uleb128 0x7
	.long	0xa174
	.uleb128 0xb
	.long	0x354d
	.uleb128 0x28
	.long	0x349c
	.uleb128 0x28
	.long	0x3541
	.uleb128 0xb
	.long	0x3541
	.uleb128 0xd
	.long	0x33eb
	.uleb128 0x7
	.long	0xa192
	.uleb128 0xd
	.long	0x3726
	.uleb128 0x7
	.long	0xa19c
	.uleb128 0xb
	.long	0x3593
	.uleb128 0x28
	.long	0x33eb
	.uleb128 0xb
	.long	0x3806
	.uleb128 0xd
	.long	0x374e
	.uleb128 0x7
	.long	0xa1b5
	.uleb128 0xb
	.long	0x3856
	.uleb128 0xb
	.long	0x38c1
	.uleb128 0xb
	.long	0x42aa
	.uleb128 0x28
	.long	0x374e
	.uleb128 0xb
	.long	0x42bb
	.uleb128 0xb
	.long	0x374e
	.uleb128 0xd
	.long	0x42aa
	.uleb128 0x7
	.long	0xa1dd
	.uleb128 0x28
	.long	0x38b4
	.uleb128 0xb
	.long	0x3813
	.uleb128 0xd
	.long	0x852d
	.uleb128 0x7
	.long	0xa1f1
	.uleb128 0xb
	.long	0xa039
	.uleb128 0xd
	.long	0x875b
	.uleb128 0x7
	.long	0xa200
	.uleb128 0xb
	.long	0x852d
	.uleb128 0xd
	.long	0x430a
	.uleb128 0x7
	.long	0xa20f
	.uleb128 0xb
	.long	0x44a8
	.uleb128 0xb
	.long	0x430a
	.uleb128 0xd
	.long	0x48
	.uleb128 0x7
	.long	0xa223
	.uleb128 0xd
	.long	0x44a8
	.uleb128 0x7
	.long	0xa22d
	.uleb128 0xb
	.long	0x48
	.uleb128 0xb
	.long	0x50
	.uleb128 0xd
	.long	0x44ad
	.uleb128 0x7
	.long	0xa241
	.uleb128 0xb
	.long	0x4531
	.uleb128 0xb
	.long	0x44ad
	.uleb128 0xb
	.long	0x4571
	.uleb128 0xb
	.long	0x457e
	.uleb128 0xb
	.long	0x8d35
	.uleb128 0xb
	.long	0x8d41
	.uleb128 0xd
	.long	0x4641
	.uleb128 0x7
	.long	0xa269
	.uleb128 0x28
	.long	0x4641
	.uleb128 0xb
	.long	0x46e7
	.uleb128 0xb
	.long	0x4641
	.uleb128 0xd
	.long	0x46f8
	.uleb128 0x7
	.long	0xa282
	.uleb128 0xb
	.long	0x47ca
	.uleb128 0x28
	.long	0x46f8
	.uleb128 0x28
	.long	0x47be
	.uleb128 0xb
	.long	0x47be
	.uleb128 0xd
	.long	0x4634
	.uleb128 0x7
	.long	0xa2a0
	.uleb128 0xd
	.long	0x49d5
	.uleb128 0xb
	.long	0x4818
	.uleb128 0x28
	.long	0x4634
	.uleb128 0xb
	.long	0x4ac0
	.uleb128 0xd
	.long	0x49fd
	.uleb128 0x7
	.long	0xa2be
	.uleb128 0xb
	.long	0x4b17
	.uleb128 0xb
	.long	0x4b85
	.uleb128 0xb
	.long	0x55a5
	.uleb128 0x28
	.long	0x49fd
	.uleb128 0xb
	.long	0x55b6
	.uleb128 0xb
	.long	0x49fd
	.uleb128 0xd
	.long	0x55a5
	.uleb128 0x28
	.long	0x4b78
	.uleb128 0xb
	.long	0x4acd
	.uleb128 0xd
	.long	0x55bb
	.uleb128 0xd
	.long	0x56a8
	.uleb128 0xd
	.long	0x56b7
	.uleb128 0x7
	.long	0xa2ff
	.uleb128 0xb
	.long	0x5855
	.uleb128 0xb
	.long	0x56b7
	.uleb128 0xd
	.long	0x30
	.uleb128 0xd
	.long	0x5855
	.uleb128 0x7
	.long	0xa318
	.uleb128 0xb
	.long	0x30
	.uleb128 0xd
	.long	0x7d73
	.uleb128 0xb
	.long	0x7d73
	.uleb128 0xd
	.long	0x585a
	.uleb128 0x7
	.long	0xa331
	.uleb128 0xb
	.long	0x58de
	.uleb128 0xb
	.long	0x585a
	.uleb128 0xb
	.long	0x591e
	.uleb128 0xb
	.long	0x592b
	.uleb128 0xb
	.long	0x8e4e
	.uleb128 0xb
	.long	0x8e5a
	.uleb128 0xd
	.long	0x59ee
	.uleb128 0x7
	.long	0xa359
	.uleb128 0x28
	.long	0x59ee
	.uleb128 0xb
	.long	0x5a94
	.uleb128 0xb
	.long	0x59ee
	.uleb128 0xd
	.long	0x5aa5
	.uleb128 0x7
	.long	0xa372
	.uleb128 0xb
	.long	0x5b77
	.uleb128 0x28
	.long	0x5aa5
	.uleb128 0x28
	.long	0x5b6b
	.uleb128 0xb
	.long	0x5b6b
	.uleb128 0xd
	.long	0x59e1
	.uleb128 0x7
	.long	0xa390
	.uleb128 0xd
	.long	0x5d82
	.uleb128 0xb
	.long	0x5bc5
	.uleb128 0x28
	.long	0x59e1
	.uleb128 0xb
	.long	0x5e6d
	.uleb128 0xd
	.long	0x5daa
	.uleb128 0x7
	.long	0xa3ae
	.uleb128 0xb
	.long	0x5ec4
	.uleb128 0xb
	.long	0x5f32
	.uleb128 0xb
	.long	0x697e
	.uleb128 0x28
	.long	0x5daa
	.uleb128 0xb
	.long	0x698f
	.uleb128 0xb
	.long	0x5daa
	.uleb128 0xd
	.long	0x697e
	.uleb128 0x7
	.long	0xa3d6
	.uleb128 0x28
	.long	0x5f25
	.uleb128 0xb
	.long	0x5e7a
	.uleb128 0xd
	.long	0x6994
	.uleb128 0xd
	.long	0x6a81
	.uleb128 0xd
	.long	0x8a88
	.uleb128 0x7
	.long	0xa3f4
	.uleb128 0xb
	.long	0xa115
	.uleb128 0xd
	.long	0x8c7e
	.uleb128 0x7
	.long	0xa403
	.uleb128 0xb
	.long	0x8a88
	.uleb128 0xd
	.long	0x8760
	.uleb128 0xb
	.long	0xa04d
	.uleb128 0xd
	.long	0x898e
	.uleb128 0xb
	.long	0x8760
	.uleb128 0xd
	.long	0x81e6
	.uleb128 0x7
	.long	0xa426
	.uleb128 0xb
	.long	0x9d36
	.uleb128 0xd
	.long	0x8414
	.uleb128 0x7
	.long	0xa435
	.uleb128 0xb
	.long	0x81e6
	.uleb128 0xb
	.long	0x41b4
	.uleb128 0xd
	.long	0x41c1
	.uleb128 0x7
	.long	0xa449
	.uleb128 0xb
	.long	0x4266
	.uleb128 0xd
	.long	0x6b9b
	.uleb128 0x7
	.long	0xa458
	.uleb128 0xb
	.long	0xa223
	.uleb128 0xd
	.long	0xa223
	.uleb128 0xb
	.long	0x6c6b
	.uleb128 0x91
	.long	0x6c70
	.uleb128 0xca
	.long	.LASF1439
	.long	0xa487
	.uleb128 0x1
	.long	0x759f
	.byte	0
	.uleb128 0xd
	.long	0x6c80
	.uleb128 0x7
	.long	0xa487
	.uleb128 0x1b
	.long	0x6c8a
	.long	.LASF1298
	.long	0xa4a2
	.long	0xa4ac
	.uleb128 0x8
	.long	.LASF1300
	.long	0xa48c
	.byte	0
	.uleb128 0xcb
	.long	.LASF1297
	.long	0xa4c6
	.uleb128 0x1
	.long	0x759f
	.uleb128 0x1
	.long	0x759f
	.uleb128 0x1
	.long	0x9c87
	.byte	0
	.uleb128 0x1b
	.long	0x6cad
	.long	.LASF1299
	.long	0xa4d7
	.long	0xa4e6
	.uleb128 0x8
	.long	.LASF1300
	.long	0xa48c
	.uleb128 0x1
	.long	0x77e1
	.byte	0
	.uleb128 0xcc
	.long	.LASF1301
	.long	0x759f
	.long	0xa4fa
	.uleb128 0x1
	.long	0x7556
	.byte	0
	.uleb128 0x47
	.long	.LASF1302
	.byte	0x45
	.byte	0x6e
	.byte	0x6
	.long	.LASF1303
	.long	0xa515
	.uleb128 0x1
	.long	0x759f
	.uleb128 0x1
	.long	0x2b5
	.byte	0
	.uleb128 0x30
	.long	.LASF1304
	.byte	0x45
	.byte	0x63
	.byte	0x1a
	.long	.LASF1305
	.long	0x759f
	.long	0xa52f
	.uleb128 0x1
	.long	0x2b5
	.byte	0
	.uleb128 0x13
	.long	0x6cf9
	.byte	0x3
	.long	0xa59b
	.uleb128 0xc
	.long	.LASF59
	.long	0xa313
	.uleb128 0xf
	.string	"_Tp"
	.long	0x30
	.uleb128 0x12
	.long	.LASF1306
	.byte	0xa
	.value	0x37f
	.byte	0x20
	.long	0xa313
	.uleb128 0x12
	.long	.LASF1307
	.byte	0xa
	.value	0x37f
	.byte	0x3a
	.long	0xa313
	.uleb128 0x12
	.long	.LASF846
	.byte	0xa
	.value	0x380
	.byte	0x13
	.long	0xa32c
	.uleb128 0x26
	.long	.LASF1308
	.byte	0xa
	.value	0x388
	.byte	0x12
	.long	0x8ff0
	.uleb128 0xcd
	.string	"_Up"
	.byte	0xa
	.value	0x398
	.byte	0x20
	.long	0x8ec7
	.uleb128 0x26
	.long	.LASF1309
	.byte	0xa
	.value	0x399
	.byte	0xb
	.long	0xa57f
	.byte	0
	.uleb128 0x13
	.long	0x6d2c
	.byte	0x3
	.long	0xa5df
	.uleb128 0xc
	.long	.LASF752
	.long	0xa313
	.uleb128 0xf
	.string	"_Tp"
	.long	0x30
	.uleb128 0x12
	.long	.LASF1306
	.byte	0xa
	.value	0x3d0
	.byte	0x14
	.long	0xa313
	.uleb128 0x12
	.long	.LASF1307
	.byte	0xa
	.value	0x3d0
	.byte	0x23
	.long	0xa313
	.uleb128 0x12
	.long	.LASF846
	.byte	0xa
	.value	0x3d0
	.byte	0x36
	.long	0xa32c
	.byte	0
	.uleb128 0xa
	.long	0xbf4
	.long	0xa5ed
	.byte	0x3
	.long	0xa608
	.uleb128 0x8
	.long	.LASF1300
	.long	0x9d22
	.uleb128 0x24
	.string	"__n"
	.byte	0x6
	.byte	0x81
	.byte	0x1a
	.long	0xc1d
	.uleb128 0x1
	.long	0x903f
	.byte	0
	.uleb128 0xa
	.long	0xc6d
	.long	0xa616
	.byte	0x3
	.long	0xa620
	.uleb128 0x8
	.long	.LASF1300
	.long	0x9d40
	.byte	0
	.uleb128 0x13
	.long	0x6d5f
	.byte	0x3
	.long	0xa68c
	.uleb128 0xc
	.long	.LASF755
	.long	0xa313
	.uleb128 0xc
	.long	.LASF60
	.long	0x7556
	.uleb128 0xf
	.string	"_Tp"
	.long	0x30
	.uleb128 0x12
	.long	.LASF1306
	.byte	0xa
	.value	0x475
	.byte	0x20
	.long	0xa313
	.uleb128 0xe
	.string	"__n"
	.byte	0xa
	.value	0x475
	.byte	0x2f
	.long	0x7556
	.uleb128 0x12
	.long	.LASF846
	.byte	0xa
	.value	0x475
	.byte	0x3f
	.long	0xa32c
	.uleb128 0x1
	.long	0x68f
	.uleb128 0x5a
	.string	"__d"
	.byte	0xa
	.value	0x47e
	.byte	0x42
	.long	0x6b85
	.uleb128 0x26
	.long	.LASF1307
	.byte	0xa
	.value	0x481
	.byte	0x17
	.long	0xa313
	.byte	0
	.uleb128 0x13
	.long	0x6c35
	.byte	0x3
	.long	0xa6b8
	.uleb128 0xc
	.long	.LASF739
	.long	0xa223
	.uleb128 0x40
	.long	.LASF1306
	.byte	0xc
	.byte	0x8e
	.byte	0x13
	.long	0xa223
	.uleb128 0x40
	.long	.LASF1307
	.byte	0xc
	.byte	0x8e
	.byte	0x22
	.long	0xa223
	.byte	0
	.uleb128 0x13
	.long	0xd3e
	.byte	0x3
	.long	0xa6dd
	.uleb128 0xe
	.string	"__a"
	.byte	0x8
	.value	0x27d
	.byte	0x20
	.long	0x9d68
	.uleb128 0xe
	.string	"__n"
	.byte	0x8
	.value	0x27d
	.byte	0x2f
	.long	0xd70
	.byte	0
	.uleb128 0xa
	.long	0xc4e
	.long	0xa6eb
	.byte	0x3
	.long	0xa6f5
	.uleb128 0x8
	.long	.LASF1300
	.long	0x9d40
	.byte	0
	.uleb128 0x13
	.long	0x6da4
	.byte	0x3
	.long	0xa742
	.uleb128 0xf
	.string	"_OI"
	.long	0xa313
	.uleb128 0xc
	.long	.LASF60
	.long	0x7556
	.uleb128 0xf
	.string	"_Tp"
	.long	0x30
	.uleb128 0x12
	.long	.LASF1306
	.byte	0xa
	.value	0x49b
	.byte	0x10
	.long	0xa313
	.uleb128 0xe
	.string	"__n"
	.byte	0xa
	.value	0x49b
	.byte	0x1f
	.long	0x7556
	.uleb128 0x12
	.long	.LASF846
	.byte	0xa
	.value	0x49b
	.byte	0x2f
	.long	0xa32c
	.byte	0
	.uleb128 0x13
	.long	0x6de4
	.byte	0x3
	.long	0xa771
	.uleb128 0xf
	.string	"_Tp"
	.long	0x30
	.uleb128 0x89
	.long	.LASF423
	.uleb128 0x24
	.string	"__p"
	.byte	0xb
	.byte	0x7b
	.byte	0x15
	.long	0xa313
	.uleb128 0xce
	.long	.LASF1332
	.byte	0xb
	.byte	0x7b
	.byte	0x21
	.byte	0
	.uleb128 0xa
	.long	0x57b4
	.long	0xa77f
	.byte	0x3
	.long	0xa79a
	.uleb128 0x8
	.long	.LASF1300
	.long	0xa304
	.uleb128 0x24
	.string	"__n"
	.byte	0x6
	.byte	0x81
	.byte	0x1a
	.long	0x57dd
	.uleb128 0x1
	.long	0x903f
	.byte	0
	.uleb128 0xa
	.long	0x582d
	.long	0xa7a8
	.byte	0x3
	.long	0xa7b2
	.uleb128 0x8
	.long	.LASF1300
	.long	0xa31d
	.byte	0
	.uleb128 0xa
	.long	0x6be1
	.long	0xa7c0
	.byte	0x3
	.long	0xa7ca
	.uleb128 0x8
	.long	.LASF1300
	.long	0xa45d
	.byte	0
	.uleb128 0x13
	.long	0x6e09
	.byte	0x3
	.long	0xa808
	.uleb128 0xf
	.string	"_Tp"
	.long	0x48
	.uleb128 0x53
	.long	.LASF423
	.long	0xa7ec
	.uleb128 0x54
	.long	0xa23c
	.byte	0
	.uleb128 0x24
	.string	"__p"
	.byte	0xb
	.byte	0x7b
	.byte	0x15
	.long	0xa223
	.uleb128 0x93
	.long	.LASF1332
	.byte	0xb
	.byte	0x7b
	.byte	0x21
	.uleb128 0x1
	.long	0xa23c
	.byte	0
	.byte	0
	.uleb128 0xa
	.long	0x6bc7
	.long	0xa816
	.byte	0x2
	.long	0xa820
	.uleb128 0x8
	.long	.LASF1300
	.long	0xa45d
	.byte	0
	.uleb128 0x1b
	.long	0xa808
	.long	.LASF1310
	.long	0xa831
	.long	0xa837
	.uleb128 0x3
	.long	0xa816
	.byte	0
	.uleb128 0xa
	.long	0x6ba8
	.long	0xa845
	.byte	0x2
	.long	0xa85b
	.uleb128 0x8
	.long	.LASF1300
	.long	0xa45d
	.uleb128 0x40
	.long	.LASF1306
	.byte	0xc
	.byte	0x71
	.byte	0x2d
	.long	0xa462
	.byte	0
	.uleb128 0x1b
	.long	0xa837
	.long	.LASF1311
	.long	0xa86c
	.long	0xa877
	.uleb128 0x3
	.long	0xa845
	.uleb128 0x3
	.long	0xa84e
	.byte	0
	.uleb128 0xa
	.long	0x4407
	.long	0xa885
	.byte	0x3
	.long	0xa8a0
	.uleb128 0x8
	.long	.LASF1300
	.long	0xa214
	.uleb128 0x24
	.string	"__n"
	.byte	0x6
	.byte	0x81
	.byte	0x1a
	.long	0x4430
	.uleb128 0x1
	.long	0x903f
	.byte	0
	.uleb128 0xa
	.long	0x4480
	.long	0xa8ae
	.byte	0x3
	.long	0xa8b8
	.uleb128 0x8
	.long	.LASF1300
	.long	0xa232
	.byte	0
	.uleb128 0x13
	.long	0x6e3c
	.byte	0x3
	.long	0xa918
	.uleb128 0xf
	.string	"_Up"
	.long	0x8fff
	.uleb128 0xf
	.string	"_Tp"
	.long	0x8fff
	.uleb128 0x12
	.long	.LASF1306
	.byte	0xa
	.value	0x3a7
	.byte	0x14
	.long	0x9d31
	.uleb128 0x12
	.long	.LASF1307
	.byte	0xa
	.value	0x3a7
	.byte	0x22
	.long	0x9d31
	.uleb128 0xe
	.string	"__x"
	.byte	0xa
	.value	0x3a7
	.byte	0x35
	.long	0x9d4f
	.uleb128 0x26
	.long	.LASF1309
	.byte	0xa
	.value	0x3ab
	.byte	0x11
	.long	0x9006
	.uleb128 0x41
	.uleb128 0x26
	.long	.LASF1312
	.byte	0xa
	.value	0x3b4
	.byte	0x18
	.long	0x2c2
	.byte	0
	.byte	0
	.uleb128 0xa
	.long	0x1148
	.long	0xa926
	.byte	0x3
	.long	0xa93d
	.uleb128 0x8
	.long	.LASF1300
	.long	0x9db8
	.uleb128 0xe
	.string	"__n"
	.byte	0x2
	.value	0x182
	.byte	0x1a
	.long	0x2b5
	.byte	0
	.uleb128 0x13
	.long	0xdd0
	.byte	0x3
	.long	0xa955
	.uleb128 0xe
	.string	"__a"
	.byte	0x8
	.value	0x2ed
	.byte	0x26
	.long	0x9d6d
	.byte	0
	.uleb128 0x13
	.long	0xaba
	.byte	0x3
	.long	0xa99b
	.uleb128 0xc
	.long	.LASF59
	.long	0xa313
	.uleb128 0xc
	.long	.LASF60
	.long	0x7556
	.uleb128 0x12
	.long	.LASF1306
	.byte	0xc
	.value	0x3ab
	.byte	0x2d
	.long	0xa313
	.uleb128 0xe
	.string	"__n"
	.byte	0xc
	.value	0x3ab
	.byte	0x3c
	.long	0x7556
	.uleb128 0x41
	.uleb128 0x26
	.long	.LASF1309
	.byte	0xc
	.value	0x3af
	.byte	0x40
	.long	0xa99b
	.byte	0
	.byte	0
	.uleb128 0xd
	.long	0x6b79
	.uleb128 0xa
	.long	0x57e9
	.long	0xa9ae
	.byte	0x3
	.long	0xa9d0
	.uleb128 0x8
	.long	.LASF1300
	.long	0xa304
	.uleb128 0x24
	.string	"__p"
	.byte	0x6
	.byte	0xa7
	.byte	0x17
	.long	0xa313
	.uleb128 0x24
	.string	"__n"
	.byte	0x6
	.byte	0xa7
	.byte	0x26
	.long	0x57dd
	.byte	0
	.uleb128 0x13
	.long	0x58fe
	.byte	0x3
	.long	0xa9f5
	.uleb128 0xe
	.string	"__a"
	.byte	0x8
	.value	0x27d
	.byte	0x20
	.long	0xa345
	.uleb128 0xe
	.string	"__n"
	.byte	0x8
	.value	0x27d
	.byte	0x2f
	.long	0x5930
	.byte	0
	.uleb128 0xa
	.long	0x580e
	.long	0xaa03
	.byte	0x3
	.long	0xaa0d
	.uleb128 0x8
	.long	.LASF1300
	.long	0xa31d
	.byte	0
	.uleb128 0x13
	.long	0x6e6f
	.byte	0x1
	.long	0xaa67
	.uleb128 0xc
	.long	.LASF59
	.long	0xa223
	.uleb128 0xc
	.long	.LASF60
	.long	0x7556
	.uleb128 0xf
	.string	"_Tp"
	.long	0x48
	.uleb128 0x12
	.long	.LASF1306
	.byte	0xc
	.value	0x1dd
	.byte	0x29
	.long	0xa223
	.uleb128 0xe
	.string	"__n"
	.byte	0xc
	.value	0x1dd
	.byte	0x38
	.long	0x7556
	.uleb128 0xe
	.string	"__x"
	.byte	0xc
	.value	0x1dd
	.byte	0x48
	.long	0xa23c
	.uleb128 0x26
	.long	.LASF1313
	.byte	0xc
	.value	0x1df
	.byte	0x2d
	.long	0x6b9b
	.byte	0
	.uleb128 0xa
	.long	0x443c
	.long	0xaa75
	.byte	0x3
	.long	0xaa97
	.uleb128 0x8
	.long	.LASF1300
	.long	0xa214
	.uleb128 0x24
	.string	"__p"
	.byte	0x6
	.byte	0xa7
	.byte	0x17
	.long	0xa223
	.uleb128 0x24
	.string	"__n"
	.byte	0x6
	.byte	0xa7
	.byte	0x26
	.long	0x4430
	.byte	0
	.uleb128 0x13
	.long	0x4551
	.byte	0x3
	.long	0xaabc
	.uleb128 0xe
	.string	"__a"
	.byte	0x8
	.value	0x27d
	.byte	0x20
	.long	0xa255
	.uleb128 0xe
	.string	"__n"
	.byte	0x8
	.value	0x27d
	.byte	0x2f
	.long	0x4583
	.byte	0
	.uleb128 0xa
	.long	0x4461
	.long	0xaaca
	.byte	0x3
	.long	0xaad4
	.uleb128 0x8
	.long	.LASF1300
	.long	0xa232
	.byte	0
	.uleb128 0xa
	.long	0x31f0
	.long	0xaae2
	.byte	0x3
	.long	0xaaec
	.uleb128 0x8
	.long	.LASF1300
	.long	0xa11f
	.byte	0
	.uleb128 0xa
	.long	0x31d5
	.long	0xaafa
	.byte	0x3
	.long	0xab04
	.uleb128 0x8
	.long	.LASF1300
	.long	0xa11f
	.byte	0
	.uleb128 0x13
	.long	0x6eaf
	.byte	0x3
	.long	0xab48
	.uleb128 0xc
	.long	.LASF752
	.long	0x9d31
	.uleb128 0xf
	.string	"_Tp"
	.long	0x8fff
	.uleb128 0x12
	.long	.LASF1306
	.byte	0xa
	.value	0x3d0
	.byte	0x14
	.long	0x9d31
	.uleb128 0x12
	.long	.LASF1307
	.byte	0xa
	.value	0x3d0
	.byte	0x23
	.long	0x9d31
	.uleb128 0x12
	.long	.LASF846
	.byte	0xa
	.value	0x3d0
	.byte	0x36
	.long	0x9d4f
	.byte	0
	.uleb128 0x13
	.long	0x6ee2
	.byte	0x3
	.long	0xab69
	.uleb128 0xc
	.long	.LASF439
	.long	0x9d31
	.uleb128 0x12
	.long	.LASF1314
	.byte	0x3
	.value	0xbce
	.byte	0x1c
	.long	0x9d31
	.byte	0
	.uleb128 0x13
	.long	0x6f06
	.byte	0x3
	.long	0xabb6
	.uleb128 0xc
	.long	.LASF772
	.long	0x9d31
	.uleb128 0xc
	.long	.LASF773
	.long	0x11ea
	.uleb128 0xf
	.string	"_Tp"
	.long	0x8fff
	.uleb128 0x12
	.long	.LASF1306
	.byte	0xa
	.value	0x3bc
	.byte	0x3b
	.long	0x81e6
	.uleb128 0x12
	.long	.LASF1307
	.byte	0xa
	.value	0x3bd
	.byte	0x34
	.long	0x81e6
	.uleb128 0x12
	.long	.LASF846
	.byte	0xa
	.value	0x3be
	.byte	0x13
	.long	0x9d4f
	.byte	0
	.uleb128 0xa
	.long	0x83e1
	.long	0xabc4
	.byte	0x3
	.long	0xabce
	.uleb128 0x8
	.long	.LASF1300
	.long	0xa43a
	.byte	0
	.uleb128 0xa
	.long	0x118e
	.long	0xabdc
	.byte	0x3
	.long	0xabf3
	.uleb128 0x8
	.long	.LASF1300
	.long	0x9db8
	.uleb128 0xe
	.string	"__n"
	.byte	0x2
	.value	0x195
	.byte	0x20
	.long	0x2b5
	.byte	0
	.uleb128 0xa
	.long	0xf16
	.long	0xac01
	.byte	0x2
	.long	0xac17
	.uleb128 0x8
	.long	.LASF1300
	.long	0x9d9a
	.uleb128 0x24
	.string	"__a"
	.byte	0x2
	.byte	0x98
	.byte	0x25
	.long	0x9d9f
	.byte	0
	.uleb128 0x1b
	.long	0xabf3
	.long	.LASF1315
	.long	0xac28
	.long	0xac33
	.uleb128 0x3
	.long	0xac01
	.uleb128 0x3
	.long	0xac0a
	.byte	0
	.uleb128 0x13
	.long	0x1cb7
	.byte	0x3
	.long	0xac65
	.uleb128 0xe
	.string	"__a"
	.byte	0x2
	.value	0x8a4
	.byte	0x29
	.long	0x9e08
	.uleb128 0x26
	.long	.LASF1316
	.byte	0x2
	.value	0x8a9
	.byte	0xf
	.long	0x2c2
	.uleb128 0x26
	.long	.LASF1317
	.byte	0x2
	.value	0x8ab
	.byte	0xf
	.long	0x2c2
	.byte	0
	.uleb128 0x13
	.long	0x6f42
	.byte	0x3
	.long	0xacaa
	.uleb128 0xc
	.long	.LASF59
	.long	0xa313
	.uleb128 0xc
	.long	.LASF60
	.long	0x7556
	.uleb128 0x12
	.long	.LASF1306
	.byte	0xc
	.value	0x3d6
	.byte	0x30
	.long	0xa313
	.uleb128 0xe
	.string	"__n"
	.byte	0xc
	.value	0x3d6
	.byte	0x3f
	.long	0x7556
	.uleb128 0xcf
	.long	.LASF1440
	.byte	0xc
	.value	0x3e1
	.byte	0x16
	.long	0x8ff0
	.byte	0
	.uleb128 0x13
	.long	0x596f
	.byte	0x3
	.long	0xacdc
	.uleb128 0xe
	.string	"__a"
	.byte	0x8
	.value	0x2b0
	.byte	0x22
	.long	0xa345
	.uleb128 0xe
	.string	"__p"
	.byte	0x8
	.value	0x2b0
	.byte	0x2f
	.long	0x58f1
	.uleb128 0xe
	.string	"__n"
	.byte	0x8
	.value	0x2b0
	.byte	0x3e
	.long	0x5930
	.byte	0
	.uleb128 0xa
	.long	0x5d08
	.long	0xacea
	.byte	0x3
	.long	0xad01
	.uleb128 0x8
	.long	.LASF1300
	.long	0xa395
	.uleb128 0xe
	.string	"__n"
	.byte	0x2
	.value	0x182
	.byte	0x1a
	.long	0x2b5
	.byte	0
	.uleb128 0xa
	.long	0x5a22
	.long	0xad0f
	.byte	0x2
	.long	0xad19
	.uleb128 0x8
	.long	.LASF1300
	.long	0xa35e
	.byte	0
	.uleb128 0x1b
	.long	0xad01
	.long	.LASF1318
	.long	0xad2a
	.long	0xad30
	.uleb128 0x3
	.long	0xad0f
	.byte	0
	.uleb128 0xa
	.long	0x56de
	.long	0xad3e
	.byte	0x2
	.long	0xad4d
	.uleb128 0x8
	.long	.LASF1300
	.long	0xa304
	.uleb128 0x1
	.long	0xa309
	.byte	0
	.uleb128 0x1b
	.long	0xad30
	.long	.LASF1319
	.long	0xad5e
	.long	0xad69
	.uleb128 0x3
	.long	0xad3e
	.uleb128 0x3
	.long	0xad47
	.byte	0
	.uleb128 0x13
	.long	0x5990
	.byte	0x3
	.long	0xad81
	.uleb128 0xe
	.string	"__a"
	.byte	0x8
	.value	0x2ed
	.byte	0x26
	.long	0xa34a
	.byte	0
	.uleb128 0x13
	.long	0x6f74
	.byte	0x3
	.long	0xadce
	.uleb128 0xc
	.long	.LASF59
	.long	0xa223
	.uleb128 0xc
	.long	.LASF60
	.long	0x7556
	.uleb128 0xf
	.string	"_Tp"
	.long	0x48
	.uleb128 0x12
	.long	.LASF1306
	.byte	0xc
	.value	0x226
	.byte	0x2b
	.long	0xa223
	.uleb128 0xe
	.string	"__n"
	.byte	0xc
	.value	0x226
	.byte	0x3a
	.long	0x7556
	.uleb128 0xe
	.string	"__x"
	.byte	0xc
	.value	0x226
	.byte	0x4a
	.long	0xa23c
	.byte	0
	.uleb128 0x13
	.long	0x45c2
	.byte	0x3
	.long	0xae00
	.uleb128 0xe
	.string	"__a"
	.byte	0x8
	.value	0x2b0
	.byte	0x22
	.long	0xa255
	.uleb128 0xe
	.string	"__p"
	.byte	0x8
	.value	0x2b0
	.byte	0x2f
	.long	0x4544
	.uleb128 0xe
	.string	"__n"
	.byte	0x8
	.value	0x2b0
	.byte	0x3e
	.long	0x4583
	.byte	0
	.uleb128 0xa
	.long	0x495b
	.long	0xae0e
	.byte	0x3
	.long	0xae25
	.uleb128 0x8
	.long	.LASF1300
	.long	0xa2a5
	.uleb128 0xe
	.string	"__n"
	.byte	0x2
	.value	0x182
	.byte	0x1a
	.long	0x2b5
	.byte	0
	.uleb128 0xa
	.long	0x4675
	.long	0xae33
	.byte	0x2
	.long	0xae3d
	.uleb128 0x8
	.long	.LASF1300
	.long	0xa26e
	.byte	0
	.uleb128 0x1b
	.long	0xae25
	.long	.LASF1320
	.long	0xae4e
	.long	0xae54
	.uleb128 0x3
	.long	0xae33
	.byte	0
	.uleb128 0xa
	.long	0x4331
	.long	0xae62
	.byte	0x2
	.long	0xae71
	.uleb128 0x8
	.long	.LASF1300
	.long	0xa214
	.uleb128 0x1
	.long	0xa219
	.byte	0
	.uleb128 0x1b
	.long	0xae54
	.long	.LASF1321
	.long	0xae82
	.long	0xae8d
	.uleb128 0x3
	.long	0xae62
	.uleb128 0x3
	.long	0xae6b
	.byte	0
	.uleb128 0x13
	.long	0x45e3
	.byte	0x3
	.long	0xaea5
	.uleb128 0xe
	.string	"__a"
	.byte	0x8
	.value	0x2ed
	.byte	0x26
	.long	0xa25a
	.byte	0
	.uleb128 0xb
	.long	0x755d
	.uleb128 0x13
	.long	0x6fb4
	.byte	0x3
	.long	0xaed8
	.uleb128 0xf
	.string	"_Tp"
	.long	0x7556
	.uleb128 0xe
	.string	"__a"
	.byte	0xa
	.value	0x100
	.byte	0x14
	.long	0xaea5
	.uleb128 0xe
	.string	"__b"
	.byte	0xa
	.value	0x100
	.byte	0x24
	.long	0xaea5
	.byte	0
	.uleb128 0xa
	.long	0x3184
	.long	0xaee6
	.byte	0x3
	.long	0xaf01
	.uleb128 0x8
	.long	.LASF1300
	.long	0xa101
	.uleb128 0x24
	.string	"__n"
	.byte	0x6
	.byte	0x81
	.byte	0x1a
	.long	0x31a9
	.uleb128 0x1
	.long	0x903f
	.byte	0
	.uleb128 0x13
	.long	0x3370
	.byte	0x3
	.long	0xaf19
	.uleb128 0xe
	.string	"__a"
	.byte	0x8
	.value	0x2ed
	.byte	0x26
	.long	0xa14c
	.byte	0
	.uleb128 0xa
	.long	0x31b5
	.long	0xaf27
	.byte	0x3
	.long	0xaf49
	.uleb128 0x8
	.long	.LASF1300
	.long	0xa101
	.uleb128 0x24
	.string	"__p"
	.byte	0x6
	.byte	0xa7
	.byte	0x17
	.long	0xa110
	.uleb128 0x24
	.string	"__n"
	.byte	0x6
	.byte	0xa7
	.byte	0x26
	.long	0x31a9
	.byte	0
	.uleb128 0x13
	.long	0x6fdd
	.byte	0x3
	.long	0xafb5
	.uleb128 0xc
	.long	.LASF755
	.long	0x9d31
	.uleb128 0xc
	.long	.LASF60
	.long	0x7556
	.uleb128 0xf
	.string	"_Tp"
	.long	0x8fff
	.uleb128 0x12
	.long	.LASF1306
	.byte	0xa
	.value	0x475
	.byte	0x20
	.long	0x9d31
	.uleb128 0xe
	.string	"__n"
	.byte	0xa
	.value	0x475
	.byte	0x2f
	.long	0x7556
	.uleb128 0x12
	.long	.LASF846
	.byte	0xa
	.value	0x475
	.byte	0x3f
	.long	0x9d4f
	.uleb128 0x1
	.long	0x68f
	.uleb128 0x5a
	.string	"__d"
	.byte	0xa
	.value	0x47e
	.byte	0x42
	.long	0x6b3e
	.uleb128 0x26
	.long	.LASF1307
	.byte	0xa
	.value	0x481
	.byte	0x17
	.long	0x9d31
	.byte	0
	.uleb128 0x13
	.long	0x7022
	.byte	0x3
	.long	0xb013
	.uleb128 0xc
	.long	.LASF59
	.long	0x9d31
	.uleb128 0xc
	.long	.LASF60
	.long	0x7556
	.uleb128 0xf
	.string	"_Tp"
	.long	0x8fff
	.uleb128 0x12
	.long	.LASF1306
	.byte	0xc
	.value	0x226
	.byte	0x2b
	.long	0x9d31
	.uleb128 0xe
	.string	"__n"
	.byte	0xc
	.value	0x226
	.byte	0x3a
	.long	0x7556
	.uleb128 0xe
	.string	"__x"
	.byte	0xc
	.value	0x226
	.byte	0x4a
	.long	0x9d4f
	.uleb128 0x41
	.uleb128 0x41
	.uleb128 0x26
	.long	.LASF1322
	.byte	0xc
	.value	0x23e
	.byte	0xb
	.long	0x759f
	.byte	0
	.byte	0
	.byte	0
	.uleb128 0x13
	.long	0x7062
	.byte	0x3
	.long	0xb057
	.uleb128 0xc
	.long	.LASF752
	.long	0x81e6
	.uleb128 0xf
	.string	"_Tp"
	.long	0x8fff
	.uleb128 0x12
	.long	.LASF1306
	.byte	0xa
	.value	0x3d0
	.byte	0x14
	.long	0x81e6
	.uleb128 0x12
	.long	.LASF1307
	.byte	0xa
	.value	0x3d0
	.byte	0x23
	.long	0x81e6
	.uleb128 0x12
	.long	.LASF846
	.byte	0xa
	.value	0x3d0
	.byte	0x36
	.long	0x9d4f
	.byte	0
	.uleb128 0xa
	.long	0x8218
	.long	0xb065
	.byte	0x2
	.long	0xb07c
	.uleb128 0x8
	.long	.LASF1300
	.long	0xa42b
	.uleb128 0xe
	.string	"__i"
	.byte	0x3
	.value	0x422
	.byte	0x2a
	.long	0xa430
	.byte	0
	.uleb128 0x1b
	.long	0xb057
	.long	.LASF1323
	.long	0xb08d
	.long	0xb098
	.uleb128 0x3
	.long	0xb065
	.uleb128 0x3
	.long	0xb06e
	.byte	0
	.uleb128 0xa
	.long	0xe9b
	.long	0xb0a6
	.byte	0x3
	.long	0xb0bc
	.uleb128 0x8
	.long	.LASF1300
	.long	0x9d81
	.uleb128 0x24
	.string	"__x"
	.byte	0x2
	.byte	0x77
	.byte	0x28
	.long	0x9d8b
	.byte	0
	.uleb128 0xa
	.long	0x1b1c
	.long	0xb0ca
	.byte	0x3
	.long	0xb0ee
	.uleb128 0x8
	.long	.LASF1300
	.long	0x9dd6
	.uleb128 0xe
	.string	"__n"
	.byte	0x2
	.value	0x7c3
	.byte	0x24
	.long	0x132d
	.uleb128 0x12
	.long	.LASF846
	.byte	0x2
	.value	0x7c3
	.byte	0x3b
	.long	0x9de0
	.byte	0
	.uleb128 0xa
	.long	0x107d
	.long	0xb0fc
	.byte	0x2
	.long	0xb120
	.uleb128 0x8
	.long	.LASF1300
	.long	0x9db8
	.uleb128 0xe
	.string	"__n"
	.byte	0x2
	.value	0x153
	.byte	0x1b
	.long	0x2b5
	.uleb128 0xe
	.string	"__a"
	.byte	0x2
	.value	0x153
	.byte	0x36
	.long	0x9dc2
	.byte	0
	.uleb128 0x1b
	.long	0xb0ee
	.long	.LASF1324
	.long	0xb131
	.long	0xb141
	.uleb128 0x3
	.long	0xb0fc
	.uleb128 0x3
	.long	0xb105
	.uleb128 0x3
	.long	0xb112
	.byte	0
	.uleb128 0x13
	.long	0x1c99
	.byte	0x3
	.long	0xb166
	.uleb128 0xe
	.string	"__n"
	.byte	0x2
	.value	0x89b
	.byte	0x23
	.long	0x132d
	.uleb128 0xe
	.string	"__a"
	.byte	0x2
	.value	0x89b
	.byte	0x3e
	.long	0x9ddb
	.byte	0
	.uleb128 0xa
	.long	0xc29
	.long	0xb174
	.byte	0x3
	.long	0xb196
	.uleb128 0x8
	.long	.LASF1300
	.long	0x9d22
	.uleb128 0x24
	.string	"__p"
	.byte	0x6
	.byte	0xa7
	.byte	0x17
	.long	0x9d31
	.uleb128 0x24
	.string	"__n"
	.byte	0x6
	.byte	0xa7
	.byte	0x26
	.long	0xc1d
	.byte	0
	.uleb128 0xa
	.long	0xb1e
	.long	0xb1a4
	.byte	0x2
	.long	0xb1b3
	.uleb128 0x8
	.long	.LASF1300
	.long	0x9d22
	.uleb128 0x1
	.long	0x9d27
	.byte	0
	.uleb128 0x1b
	.long	0xb196
	.long	.LASF1325
	.long	0xb1c4
	.long	0xb1cf
	.uleb128 0x3
	.long	0xb1a4
	.uleb128 0x3
	.long	0xb1ad
	.byte	0
	.uleb128 0x13
	.long	0x7095
	.byte	0x3
	.long	0xb1fb
	.uleb128 0xc
	.long	.LASF59
	.long	0xa313
	.uleb128 0x40
	.long	.LASF1306
	.byte	0xb
	.byte	0xdb
	.byte	0x1f
	.long	0xa313
	.uleb128 0x40
	.long	.LASF1307
	.byte	0xb
	.byte	0xdb
	.byte	0x39
	.long	0xa313
	.byte	0
	.uleb128 0x13
	.long	0x70b9
	.byte	0x3
	.long	0xb240
	.uleb128 0xc
	.long	.LASF59
	.long	0xa313
	.uleb128 0xc
	.long	.LASF60
	.long	0x7556
	.uleb128 0xf
	.string	"_Tp"
	.long	0x30
	.uleb128 0x12
	.long	.LASF1306
	.byte	0xc
	.value	0x41b
	.byte	0x32
	.long	0xa313
	.uleb128 0xe
	.string	"__n"
	.byte	0xc
	.value	0x41b
	.byte	0x41
	.long	0x7556
	.uleb128 0x1
	.long	0xa340
	.byte	0
	.uleb128 0xa
	.long	0x5d2b
	.long	0xb24e
	.byte	0x3
	.long	0xb272
	.uleb128 0x8
	.long	.LASF1300
	.long	0xa395
	.uleb128 0xe
	.string	"__p"
	.byte	0x2
	.value	0x18a
	.byte	0x1d
	.long	0x5a99
	.uleb128 0xe
	.string	"__n"
	.byte	0x2
	.value	0x18a
	.byte	0x29
	.long	0x2b5
	.byte	0
	.uleb128 0xa
	.long	0x5d4e
	.long	0xb280
	.byte	0x3
	.long	0xb297
	.uleb128 0x8
	.long	.LASF1300
	.long	0xa395
	.uleb128 0xe
	.string	"__n"
	.byte	0x2
	.value	0x195
	.byte	0x20
	.long	0x2b5
	.byte	0
	.uleb128 0xa
	.long	0x5ad6
	.long	0xb2a5
	.byte	0x2
	.long	0xb2bb
	.uleb128 0x8
	.long	.LASF1300
	.long	0xa377
	.uleb128 0x24
	.string	"__a"
	.byte	0x2
	.byte	0x98
	.byte	0x25
	.long	0xa37c
	.byte	0
	.uleb128 0x1b
	.long	0xb297
	.long	.LASF1326
	.long	0xb2cc
	.long	0xb2d7
	.uleb128 0x3
	.long	0xb2a5
	.uleb128 0x3
	.long	0xb2ae
	.byte	0
	.uleb128 0xa
	.long	0x5887
	.long	0xb2e5
	.byte	0x2
	.long	0xb2fb
	.uleb128 0x8
	.long	.LASF1300
	.long	0xa336
	.uleb128 0x24
	.string	"__a"
	.byte	0x5
	.byte	0xac
	.byte	0x22
	.long	0xa33b
	.byte	0
	.uleb128 0x1b
	.long	0xb2d7
	.long	.LASF1327
	.long	0xb30c
	.long	0xb317
	.uleb128 0x3
	.long	0xb2e5
	.uleb128 0x3
	.long	0xb2ee
	.byte	0
	.uleb128 0x13
	.long	0x6872
	.byte	0x3
	.long	0xb349
	.uleb128 0xe
	.string	"__a"
	.byte	0x2
	.value	0x8a4
	.byte	0x29
	.long	0xa3e5
	.uleb128 0x26
	.long	.LASF1316
	.byte	0x2
	.value	0x8a9
	.byte	0xf
	.long	0x2c2
	.uleb128 0x26
	.long	.LASF1317
	.byte	0x2
	.value	0x8ab
	.byte	0xf
	.long	0x2c2
	.byte	0
	.uleb128 0x13
	.long	0x70f9
	.byte	0x3
	.long	0xb375
	.uleb128 0xc
	.long	.LASF59
	.long	0xa223
	.uleb128 0x40
	.long	.LASF1306
	.byte	0xb
	.byte	0xdb
	.byte	0x1f
	.long	0xa223
	.uleb128 0x40
	.long	.LASF1307
	.byte	0xb
	.byte	0xdb
	.byte	0x39
	.long	0xa223
	.byte	0
	.uleb128 0x13
	.long	0x711d
	.byte	0x3
	.long	0xb3d0
	.uleb128 0xc
	.long	.LASF59
	.long	0xa223
	.uleb128 0xc
	.long	.LASF60
	.long	0x7556
	.uleb128 0xf
	.string	"_Tp"
	.long	0x48
	.uleb128 0xc
	.long	.LASF794
	.long	0x48
	.uleb128 0x12
	.long	.LASF1306
	.byte	0xc
	.value	0x303
	.byte	0x2f
	.long	0xa223
	.uleb128 0xe
	.string	"__n"
	.byte	0xc
	.value	0x303
	.byte	0x3e
	.long	0x7556
	.uleb128 0xe
	.string	"__x"
	.byte	0xc
	.value	0x304
	.byte	0x14
	.long	0xa23c
	.uleb128 0x1
	.long	0xa250
	.byte	0
	.uleb128 0xa
	.long	0x497e
	.long	0xb3de
	.byte	0x3
	.long	0xb402
	.uleb128 0x8
	.long	.LASF1300
	.long	0xa2a5
	.uleb128 0xe
	.string	"__p"
	.byte	0x2
	.value	0x18a
	.byte	0x1d
	.long	0x46ec
	.uleb128 0xe
	.string	"__n"
	.byte	0x2
	.value	0x18a
	.byte	0x29
	.long	0x2b5
	.byte	0
	.uleb128 0xa
	.long	0x49a1
	.long	0xb410
	.byte	0x3
	.long	0xb427
	.uleb128 0x8
	.long	.LASF1300
	.long	0xa2a5
	.uleb128 0xe
	.string	"__n"
	.byte	0x2
	.value	0x195
	.byte	0x20
	.long	0x2b5
	.byte	0
	.uleb128 0xa
	.long	0x4729
	.long	0xb435
	.byte	0x2
	.long	0xb44b
	.uleb128 0x8
	.long	.LASF1300
	.long	0xa287
	.uleb128 0x24
	.string	"__a"
	.byte	0x2
	.byte	0x98
	.byte	0x25
	.long	0xa28c
	.byte	0
	.uleb128 0x1b
	.long	0xb427
	.long	.LASF1328
	.long	0xb45c
	.long	0xb467
	.uleb128 0x3
	.long	0xb435
	.uleb128 0x3
	.long	0xb43e
	.byte	0
	.uleb128 0xa
	.long	0x44da
	.long	0xb475
	.byte	0x2
	.long	0xb48b
	.uleb128 0x8
	.long	.LASF1300
	.long	0xa246
	.uleb128 0x24
	.string	"__a"
	.byte	0x5
	.byte	0xac
	.byte	0x22
	.long	0xa24b
	.byte	0
	.uleb128 0x1b
	.long	0xb467
	.long	.LASF1329
	.long	0xb49c
	.long	0xb4a7
	.uleb128 0x3
	.long	0xb475
	.uleb128 0x3
	.long	0xb47e
	.byte	0
	.uleb128 0x13
	.long	0x54c5
	.byte	0x3
	.long	0xb4d9
	.uleb128 0xe
	.string	"__a"
	.byte	0x2
	.value	0x8a4
	.byte	0x29
	.long	0xa2f0
	.uleb128 0x26
	.long	.LASF1316
	.byte	0x2
	.value	0x8a9
	.byte	0xf
	.long	0x2c2
	.uleb128 0x26
	.long	.LASF1317
	.byte	0x2
	.value	0x8ab
	.byte	0xf
	.long	0x2c2
	.byte	0
	.uleb128 0x13
	.long	0x716b
	.byte	0x3
	.long	0xb4f9
	.uleb128 0xf
	.string	"_Tp"
	.long	0x9f8c
	.uleb128 0x40
	.long	.LASF1330
	.byte	0x24
	.byte	0xcf
	.byte	0x17
	.long	0xa110
	.byte	0
	.uleb128 0xa
	.long	0x421b
	.long	0xb507
	.byte	0x2
	.long	0xb511
	.uleb128 0x8
	.long	.LASF1300
	.long	0xa44e
	.byte	0
	.uleb128 0x3d
	.long	0xb4f9
	.long	0xb51e
	.long	0xb524
	.uleb128 0x3
	.long	0xb507
	.byte	0
	.uleb128 0xa
	.long	0x41f6
	.long	0xb532
	.byte	0x2
	.long	0xb563
	.uleb128 0x8
	.long	.LASF1300
	.long	0xa44e
	.uleb128 0xe
	.string	"__s"
	.byte	0x2
	.value	0x749
	.byte	0x17
	.long	0x37d3
	.uleb128 0xe
	.string	"__l"
	.byte	0x2
	.value	0x749
	.byte	0x26
	.long	0x387b
	.uleb128 0x12
	.long	.LASF1331
	.byte	0x2
	.value	0x749
	.byte	0x32
	.long	0xa444
	.byte	0
	.uleb128 0x3d
	.long	0xb524
	.long	0xb570
	.long	0xb585
	.uleb128 0x3
	.long	0xb532
	.uleb128 0x3
	.long	0xb53b
	.uleb128 0x3
	.long	0xb548
	.uleb128 0x3
	.long	0xb555
	.byte	0
	.uleb128 0xa
	.long	0x40bb
	.long	0xb593
	.byte	0x3
	.long	0xb5c4
	.uleb128 0x8
	.long	.LASF1300
	.long	0xa1e2
	.uleb128 0xe
	.string	"__n"
	.byte	0x2
	.value	0x890
	.byte	0x1e
	.long	0x387b
	.uleb128 0xe
	.string	"__s"
	.byte	0x2
	.value	0x890
	.byte	0x2f
	.long	0x77e1
	.uleb128 0x26
	.long	.LASF1312
	.byte	0x2
	.value	0x895
	.byte	0x12
	.long	0x3888
	.byte	0
	.uleb128 0xa
	.long	0x320b
	.long	0xb5ea
	.byte	0x3
	.long	0xb60f
	.uleb128 0xf
	.string	"_Up"
	.long	0x9f8c
	.uleb128 0x53
	.long	.LASF423
	.long	0xb5ea
	.uleb128 0x54
	.long	0xa12e
	.byte	0
	.uleb128 0x8
	.long	.LASF1300
	.long	0xa101
	.uleb128 0x24
	.string	"__p"
	.byte	0x6
	.byte	0xc9
	.byte	0x11
	.long	0xa110
	.uleb128 0x93
	.long	.LASF1332
	.byte	0x6
	.byte	0xc9
	.byte	0x1d
	.uleb128 0x1
	.long	0xa12e
	.byte	0
	.byte	0
	.uleb128 0x13
	.long	0x7197
	.byte	0x3
	.long	0xb66d
	.uleb128 0xf
	.string	"_Tp"
	.long	0x9f8c
	.uleb128 0xf
	.string	"_Up"
	.long	0x9f8c
	.uleb128 0x12
	.long	.LASF1306
	.byte	0xc
	.value	0x561
	.byte	0x19
	.long	0xa110
	.uleb128 0x12
	.long	.LASF1307
	.byte	0xc
	.value	0x561
	.byte	0x27
	.long	0xa110
	.uleb128 0x12
	.long	.LASF1333
	.byte	0xc
	.value	0x562
	.byte	0xb
	.long	0xa110
	.uleb128 0x12
	.long	.LASF1334
	.byte	0xc
	.value	0x563
	.byte	0x2b
	.long	0xa142
	.uleb128 0x26
	.long	.LASF845
	.byte	0xc
	.value	0x565
	.byte	0x11
	.long	0x622
	.byte	0
	.uleb128 0x13
	.long	0x71cf
	.byte	0x3
	.long	0xb68e
	.uleb128 0xc
	.long	.LASF439
	.long	0xa110
	.uleb128 0x12
	.long	.LASF1314
	.byte	0x3
	.value	0xbce
	.byte	0x1c
	.long	0xa110
	.byte	0
	.uleb128 0x13
	.long	0x32ea
	.byte	0x3
	.long	0xb6b3
	.uleb128 0xe
	.string	"__a"
	.byte	0x8
	.value	0x27d
	.byte	0x20
	.long	0xa147
	.uleb128 0xe
	.string	"__n"
	.byte	0x8
	.value	0x27d
	.byte	0x2f
	.long	0x3318
	.byte	0
	.uleb128 0xa
	.long	0x356c
	.long	0xb6c1
	.byte	0x3
	.long	0xb6cb
	.uleb128 0x8
	.long	.LASF1300
	.long	0xa1a1
	.byte	0
	.uleb128 0x13
	.long	0x40fc
	.byte	0x3
	.long	0xb6fd
	.uleb128 0xe
	.string	"__a"
	.byte	0x2
	.value	0x8a4
	.byte	0x29
	.long	0xa1ec
	.uleb128 0x26
	.long	.LASF1316
	.byte	0x2
	.value	0x8a9
	.byte	0xf
	.long	0x2c2
	.uleb128 0x26
	.long	.LASF1317
	.byte	0x2
	.value	0x8ab
	.byte	0xf
	.long	0x2c2
	.byte	0
	.uleb128 0x13
	.long	0x71ef
	.byte	0x3
	.long	0xb729
	.uleb128 0xc
	.long	.LASF59
	.long	0xa110
	.uleb128 0x40
	.long	.LASF1306
	.byte	0xb
	.byte	0xdb
	.byte	0x1f
	.long	0xa110
	.uleb128 0x40
	.long	.LASF1307
	.byte	0xb
	.byte	0xdb
	.byte	0x39
	.long	0xa110
	.byte	0
	.uleb128 0x13
	.long	0x3353
	.byte	0x3
	.long	0xb75b
	.uleb128 0xe
	.string	"__a"
	.byte	0x8
	.value	0x2b0
	.byte	0x22
	.long	0xa147
	.uleb128 0xe
	.string	"__p"
	.byte	0x8
	.value	0x2b0
	.byte	0x2f
	.long	0x32dd
	.uleb128 0xe
	.string	"__n"
	.byte	0x8
	.value	0x2b0
	.byte	0x3e
	.long	0x3318
	.byte	0
	.uleb128 0xa
	.long	0x30ad
	.long	0xb769
	.byte	0x2
	.long	0xb773
	.uleb128 0x8
	.long	.LASF1300
	.long	0xa101
	.byte	0
	.uleb128 0x3d
	.long	0xb75b
	.long	0xb780
	.long	0xb786
	.uleb128 0x3
	.long	0xb769
	.byte	0
	.uleb128 0x13
	.long	0x7210
	.byte	0x3
	.long	0xb7d3
	.uleb128 0xf
	.string	"_OI"
	.long	0x9d31
	.uleb128 0xc
	.long	.LASF60
	.long	0x7556
	.uleb128 0xf
	.string	"_Tp"
	.long	0x8fff
	.uleb128 0x12
	.long	.LASF1306
	.byte	0xa
	.value	0x49b
	.byte	0x10
	.long	0x9d31
	.uleb128 0xe
	.string	"__n"
	.byte	0xa
	.value	0x49b
	.byte	0x1f
	.long	0x7556
	.uleb128 0x12
	.long	.LASF846
	.byte	0xa
	.value	0x49b
	.byte	0x2f
	.long	0x9d4f
	.byte	0
	.uleb128 0xa
	.long	0x1cd0
	.long	0xb7e1
	.byte	0x3
	.long	0xb807
	.uleb128 0x8
	.long	.LASF1300
	.long	0x9dd6
	.uleb128 0x12
	.long	.LASF1202
	.byte	0x2
	.value	0x8b5
	.byte	0x1f
	.long	0x1276
	.uleb128 0x41
	.uleb128 0x5a
	.string	"__n"
	.byte	0x2
	.value	0x8b7
	.byte	0x10
	.long	0x132d
	.byte	0
	.byte	0
	.uleb128 0x13
	.long	0x7250
	.byte	0x3
	.long	0xb862
	.uleb128 0xc
	.long	.LASF59
	.long	0x9d31
	.uleb128 0xc
	.long	.LASF60
	.long	0x7556
	.uleb128 0xf
	.string	"_Tp"
	.long	0x8fff
	.uleb128 0xc
	.long	.LASF794
	.long	0x8fff
	.uleb128 0x12
	.long	.LASF1306
	.byte	0xc
	.value	0x303
	.byte	0x2f
	.long	0x9d31
	.uleb128 0xe
	.string	"__n"
	.byte	0xc
	.value	0x303
	.byte	0x3e
	.long	0x7556
	.uleb128 0xe
	.string	"__x"
	.byte	0xc
	.value	0x304
	.byte	0x14
	.long	0x9d4f
	.uleb128 0x1
	.long	0x9d63
	.byte	0
	.uleb128 0x13
	.long	0x729e
	.byte	0x3
	.long	0xb8a6
	.uleb128 0xc
	.long	.LASF59
	.long	0x81e6
	.uleb128 0xf
	.string	"_Tp"
	.long	0x8fff
	.uleb128 0x12
	.long	.LASF1306
	.byte	0xa
	.value	0x3e9
	.byte	0x1b
	.long	0x81e6
	.uleb128 0x12
	.long	.LASF1307
	.byte	0xa
	.value	0x3e9
	.byte	0x35
	.long	0x81e6
	.uleb128 0x12
	.long	.LASF846
	.byte	0xa
	.value	0x3e9
	.byte	0x48
	.long	0x9d4f
	.byte	0
	.uleb128 0xa
	.long	0x15a8
	.long	0xb8b4
	.byte	0x3
	.long	0xb8be
	.uleb128 0x8
	.long	.LASF1300
	.long	0x9dd6
	.byte	0
	.uleb128 0xa
	.long	0x155b
	.long	0xb8cc
	.byte	0x3
	.long	0xb8d6
	.uleb128 0x8
	.long	.LASF1300
	.long	0x9dd6
	.byte	0
	.uleb128 0xa
	.long	0xeba
	.long	0xb8e4
	.byte	0x3
	.long	0xb906
	.uleb128 0x8
	.long	.LASF1300
	.long	0x9d81
	.uleb128 0x24
	.string	"__x"
	.byte	0x2
	.byte	0x80
	.byte	0x22
	.long	0x9d90
	.uleb128 0x4b
	.long	.LASF1335
	.byte	0x2
	.byte	0x84
	.byte	0x16
	.long	0xe2e
	.byte	0
	.uleb128 0xa
	.long	0x133f
	.long	0xb914
	.byte	0x2
	.long	0xb945
	.uleb128 0x8
	.long	.LASF1300
	.long	0x9dd6
	.uleb128 0xe
	.string	"__n"
	.byte	0x2
	.value	0x24d
	.byte	0x18
	.long	0x132d
	.uleb128 0x12
	.long	.LASF846
	.byte	0x2
	.value	0x24d
	.byte	0x2f
	.long	0x9de0
	.uleb128 0xe
	.string	"__a"
	.byte	0x2
	.value	0x24e
	.byte	0x1d
	.long	0x9ddb
	.byte	0
	.uleb128 0x1b
	.long	0xb906
	.long	.LASF1336
	.long	0xb956
	.long	0xb96b
	.uleb128 0x3
	.long	0xb914
	.uleb128 0x3
	.long	0xb91d
	.uleb128 0x3
	.long	0xb92a
	.uleb128 0x3
	.long	0xb937
	.byte	0
	.uleb128 0xa
	.long	0x179f
	.long	0xb979
	.byte	0x3
	.long	0xb990
	.uleb128 0x8
	.long	.LASF1300
	.long	0x9dfe
	.uleb128 0x26
	.long	.LASF1337
	.byte	0x2
	.value	0x4b0
	.byte	0xc
	.long	0x622
	.byte	0
	.uleb128 0x13
	.long	0x72d1
	.byte	0x3
	.long	0xb9bc
	.uleb128 0xc
	.long	.LASF59
	.long	0x9d31
	.uleb128 0x40
	.long	.LASF1306
	.byte	0xb
	.byte	0xdb
	.byte	0x1f
	.long	0x9d31
	.uleb128 0x40
	.long	.LASF1307
	.byte	0xb
	.byte	0xdb
	.byte	0x39
	.long	0x9d31
	.byte	0
	.uleb128 0x13
	.long	0xdaf
	.byte	0x3
	.long	0xb9ee
	.uleb128 0xe
	.string	"__a"
	.byte	0x8
	.value	0x2b0
	.byte	0x22
	.long	0x9d68
	.uleb128 0xe
	.string	"__p"
	.byte	0x8
	.value	0x2b0
	.byte	0x2f
	.long	0xd31
	.uleb128 0xe
	.string	"__n"
	.byte	0x8
	.value	0x2b0
	.byte	0x3e
	.long	0xd70
	.byte	0
	.uleb128 0xa
	.long	0xb03
	.long	0xb9fc
	.byte	0x2
	.long	0xba06
	.uleb128 0x8
	.long	.LASF1300
	.long	0x9d22
	.byte	0
	.uleb128 0x1b
	.long	0xb9ee
	.long	.LASF1338
	.long	0xba17
	.long	0xba1d
	.uleb128 0x3
	.long	0xb9fc
	.byte	0
	.uleb128 0x13
	.long	0x72f5
	.byte	0x3
	.long	0xba49
	.uleb128 0xf
	.string	"_Tp"
	.long	0x7556
	.uleb128 0x24
	.string	"__a"
	.byte	0xa
	.byte	0xe8
	.byte	0x14
	.long	0xaea5
	.uleb128 0x24
	.string	"__b"
	.byte	0xa
	.byte	0xe8
	.byte	0x24
	.long	0xaea5
	.byte	0
	.uleb128 0xa
	.long	0xcc7
	.long	0xba57
	.byte	0x2
	.long	0xba6d
	.uleb128 0x8
	.long	.LASF1300
	.long	0x9d59
	.uleb128 0x24
	.string	"__a"
	.byte	0x5
	.byte	0xac
	.byte	0x22
	.long	0x9d5e
	.byte	0
	.uleb128 0x1b
	.long	0xba49
	.long	.LASF1339
	.long	0xba7e
	.long	0xba89
	.uleb128 0x3
	.long	0xba57
	.uleb128 0x3
	.long	0xba60
	.byte	0
	.uleb128 0x13
	.long	0x731d
	.byte	0x3
	.long	0xbab5
	.uleb128 0xf
	.string	"_Tp"
	.long	0x30
	.uleb128 0x24
	.string	"__a"
	.byte	0xa
	.byte	0xe8
	.byte	0x14
	.long	0xa32c
	.uleb128 0x24
	.string	"__b"
	.byte	0xa
	.byte	0xe8
	.byte	0x24
	.long	0xa32c
	.byte	0
	.uleb128 0x13
	.long	0x7345
	.byte	0x3
	.long	0xbae3
	.uleb128 0xf
	.string	"_Tp"
	.long	0x30
	.uleb128 0xe
	.string	"__a"
	.byte	0xa
	.value	0x100
	.byte	0x14
	.long	0xa32c
	.uleb128 0xe
	.string	"__b"
	.byte	0xa
	.value	0x100
	.byte	0x24
	.long	0xa32c
	.byte	0
	.uleb128 0xa
	.long	0x693f
	.long	0xbafa
	.byte	0x3
	.long	0xbb11
	.uleb128 0xf
	.string	"_Up"
	.long	0x30
	.uleb128 0x8
	.long	.LASF1300
	.long	0xa3db
	.uleb128 0x12
	.long	.LASF1330
	.byte	0x2
	.value	0x8ee
	.byte	0x13
	.long	0xa313
	.byte	0
	.uleb128 0xa
	.long	0x8ab6
	.long	0xbb1f
	.byte	0x2
	.long	0xbb36
	.uleb128 0x8
	.long	.LASF1300
	.long	0xa3f9
	.uleb128 0xe
	.string	"__i"
	.byte	0x3
	.value	0x422
	.byte	0x2a
	.long	0xa3fe
	.byte	0
	.uleb128 0x3d
	.long	0xbb11
	.long	0xbb43
	.long	0xbb4e
	.uleb128 0x3
	.long	0xbb1f
	.uleb128 0x3
	.long	0xbb28
	.byte	0
	.uleb128 0x13
	.long	0x736e
	.byte	0x3
	.long	0xbb8a
	.uleb128 0xc
	.long	.LASF59
	.long	0xa313
	.uleb128 0xf
	.string	"_Tp"
	.long	0x30
	.uleb128 0x12
	.long	.LASF1306
	.byte	0x8
	.value	0x43a
	.byte	0x1f
	.long	0xa313
	.uleb128 0x12
	.long	.LASF1307
	.byte	0x8
	.value	0x43a
	.byte	0x39
	.long	0xa313
	.uleb128 0x1
	.long	0xa340
	.byte	0
	.uleb128 0xa
	.long	0x5b7c
	.long	0xbb98
	.byte	0x3
	.long	0xbba2
	.uleb128 0x8
	.long	.LASF1300
	.long	0xa395
	.byte	0
	.uleb128 0xa
	.long	0x66fd
	.long	0xbbb0
	.byte	0x3
	.long	0xbbc7
	.uleb128 0x8
	.long	.LASF1300
	.long	0xa3b3
	.uleb128 0xe
	.string	"__n"
	.byte	0x2
	.value	0x7ce
	.byte	0x27
	.long	0x5eed
	.byte	0
	.uleb128 0xa
	.long	0x5ce2
	.long	0xbbd5
	.byte	0x2
	.long	0xbbee
	.uleb128 0x8
	.long	.LASF1300
	.long	0xa395
	.uleb128 0x41
	.uleb128 0x5a
	.string	"__n"
	.byte	0x2
	.value	0x177
	.byte	0xc
	.long	0x622
	.byte	0
	.byte	0
	.uleb128 0x1b
	.long	0xbbc7
	.long	.LASF1340
	.long	0xbbff
	.long	0xbc10
	.uleb128 0x3
	.long	0xbbd5
	.uleb128 0x72
	.long	0xbbde
	.uleb128 0x38
	.long	0xbbdf
	.byte	0
	.byte	0
	.uleb128 0xa
	.long	0x5c3d
	.long	0xbc1e
	.byte	0x2
	.long	0xbc42
	.uleb128 0x8
	.long	.LASF1300
	.long	0xa395
	.uleb128 0xe
	.string	"__n"
	.byte	0x2
	.value	0x153
	.byte	0x1b
	.long	0x2b5
	.uleb128 0xe
	.string	"__a"
	.byte	0x2
	.value	0x153
	.byte	0x36
	.long	0xa39f
	.byte	0
	.uleb128 0x1b
	.long	0xbc10
	.long	.LASF1341
	.long	0xbc53
	.long	0xbc63
	.uleb128 0x3
	.long	0xbc1e
	.uleb128 0x3
	.long	0xbc27
	.uleb128 0x3
	.long	0xbc34
	.byte	0
	.uleb128 0x60
	.long	0x5b57
	.byte	0x2
	.byte	0x8b
	.byte	0xe
	.long	0xbc73
	.long	0xbc7d
	.uleb128 0x8
	.long	.LASF1300
	.long	0xa377
	.byte	0
	.uleb128 0x1b
	.long	0xbc63
	.long	.LASF1342
	.long	0xbc8e
	.long	0xbc94
	.uleb128 0x3
	.long	0xbc73
	.byte	0
	.uleb128 0x13
	.long	0x6854
	.byte	0x3
	.long	0xbcb9
	.uleb128 0xe
	.string	"__n"
	.byte	0x2
	.value	0x89b
	.byte	0x23
	.long	0x5eed
	.uleb128 0xe
	.string	"__a"
	.byte	0x2
	.value	0x89b
	.byte	0x3e
	.long	0xa3b8
	.byte	0
	.uleb128 0xa
	.long	0x5721
	.long	0xbcc7
	.byte	0x2
	.long	0xbcd1
	.uleb128 0x8
	.long	.LASF1300
	.long	0xa304
	.byte	0
	.uleb128 0x1b
	.long	0xbcb9
	.long	.LASF1343
	.long	0xbce2
	.long	0xbce8
	.uleb128 0x3
	.long	0xbcc7
	.byte	0
	.uleb128 0xa
	.long	0x56c3
	.long	0xbcf6
	.byte	0x2
	.long	0xbd00
	.uleb128 0x8
	.long	.LASF1300
	.long	0xa304
	.byte	0
	.uleb128 0x1b
	.long	0xbce8
	.long	.LASF1344
	.long	0xbd11
	.long	0xbd17
	.uleb128 0x3
	.long	0xbcf6
	.byte	0
	.uleb128 0x13
	.long	0x73a1
	.byte	0x3
	.long	0xbd53
	.uleb128 0xc
	.long	.LASF59
	.long	0xa223
	.uleb128 0xf
	.string	"_Tp"
	.long	0x48
	.uleb128 0x12
	.long	.LASF1306
	.byte	0x8
	.value	0x43a
	.byte	0x1f
	.long	0xa223
	.uleb128 0x12
	.long	.LASF1307
	.byte	0x8
	.value	0x43a
	.byte	0x39
	.long	0xa223
	.uleb128 0x1
	.long	0xa250
	.byte	0
	.uleb128 0xa
	.long	0x47cf
	.long	0xbd61
	.byte	0x3
	.long	0xbd6b
	.uleb128 0x8
	.long	.LASF1300
	.long	0xa2a5
	.byte	0
	.uleb128 0xa
	.long	0x532a
	.long	0xbd79
	.byte	0x3
	.long	0xbd9d
	.uleb128 0x8
	.long	.LASF1300
	.long	0xa2c3
	.uleb128 0xe
	.string	"__n"
	.byte	0x2
	.value	0x7c3
	.byte	0x24
	.long	0x4b40
	.uleb128 0x12
	.long	.LASF846
	.byte	0x2
	.value	0x7c3
	.byte	0x3b
	.long	0xa2cd
	.byte	0
	.uleb128 0xa
	.long	0x4935
	.long	0xbdab
	.byte	0x2
	.long	0xbdc4
	.uleb128 0x8
	.long	.LASF1300
	.long	0xa2a5
	.uleb128 0x41
	.uleb128 0x5a
	.string	"__n"
	.byte	0x2
	.value	0x177
	.byte	0xc
	.long	0x622
	.byte	0
	.byte	0
	.uleb128 0x1b
	.long	0xbd9d
	.long	.LASF1345
	.long	0xbdd5
	.long	0xbde6
	.uleb128 0x3
	.long	0xbdab
	.uleb128 0x72
	.long	0xbdb4
	.uleb128 0x38
	.long	0xbdb5
	.byte	0
	.byte	0
	.uleb128 0xa
	.long	0x4890
	.long	0xbdf4
	.byte	0x2
	.long	0xbe18
	.uleb128 0x8
	.long	.LASF1300
	.long	0xa2a5
	.uleb128 0xe
	.string	"__n"
	.byte	0x2
	.value	0x153
	.byte	0x1b
	.long	0x2b5
	.uleb128 0xe
	.string	"__a"
	.byte	0x2
	.value	0x153
	.byte	0x36
	.long	0xa2af
	.byte	0
	.uleb128 0x1b
	.long	0xbde6
	.long	.LASF1346
	.long	0xbe29
	.long	0xbe39
	.uleb128 0x3
	.long	0xbdf4
	.uleb128 0x3
	.long	0xbdfd
	.uleb128 0x3
	.long	0xbe0a
	.byte	0
	.uleb128 0x60
	.long	0x47aa
	.byte	0x2
	.byte	0x8b
	.byte	0xe
	.long	0xbe49
	.long	0xbe53
	.uleb128 0x8
	.long	.LASF1300
	.long	0xa287
	.byte	0
	.uleb128 0x1b
	.long	0xbe39
	.long	.LASF1347
	.long	0xbe64
	.long	0xbe6a
	.uleb128 0x3
	.long	0xbe49
	.byte	0
	.uleb128 0x13
	.long	0x54a7
	.byte	0x3
	.long	0xbe8f
	.uleb128 0xe
	.string	"__n"
	.byte	0x2
	.value	0x89b
	.byte	0x23
	.long	0x4b40
	.uleb128 0xe
	.string	"__a"
	.byte	0x2
	.value	0x89b
	.byte	0x3e
	.long	0xa2c8
	.byte	0
	.uleb128 0xa
	.long	0x4374
	.long	0xbe9d
	.byte	0x2
	.long	0xbea7
	.uleb128 0x8
	.long	.LASF1300
	.long	0xa214
	.byte	0
	.uleb128 0x1b
	.long	0xbe8f
	.long	.LASF1348
	.long	0xbeb8
	.long	0xbebe
	.uleb128 0x3
	.long	0xbe9d
	.byte	0
	.uleb128 0xa
	.long	0x4316
	.long	0xbecc
	.byte	0x2
	.long	0xbed6
	.uleb128 0x8
	.long	.LASF1300
	.long	0xa214
	.byte	0
	.uleb128 0x1b
	.long	0xbebe
	.long	.LASF1349
	.long	0xbee7
	.long	0xbeed
	.uleb128 0x3
	.long	0xbecc
	.byte	0
	.uleb128 0xa
	.long	0x426b
	.long	0xbf0a
	.byte	0x1
	.long	0xbf85
	.uleb128 0x53
	.long	.LASF423
	.long	0xbf0a
	.uleb128 0x54
	.long	0xa12e
	.byte	0
	.uleb128 0x8
	.long	.LASF1300
	.long	0xa1ba
	.uleb128 0xd0
	.long	.LASF1332
	.byte	0x7
	.value	0x236
	.byte	0x20
	.long	0xbf27
	.uleb128 0x1
	.long	0xa12e
	.byte	0
	.uleb128 0x26
	.long	.LASF1312
	.byte	0x7
	.value	0x23e
	.byte	0x17
	.long	0x3888
	.uleb128 0x26
	.long	.LASF1350
	.byte	0x7
	.value	0x241
	.byte	0xf
	.long	0x37d3
	.uleb128 0x26
	.long	.LASF1351
	.byte	0x7
	.value	0x242
	.byte	0xf
	.long	0x37d3
	.uleb128 0x26
	.long	.LASF1352
	.byte	0x7
	.value	0x243
	.byte	0x17
	.long	0x3888
	.uleb128 0x26
	.long	.LASF1353
	.byte	0x7
	.value	0x244
	.byte	0xf
	.long	0x37d3
	.uleb128 0x26
	.long	.LASF1354
	.byte	0x7
	.value	0x245
	.byte	0xf
	.long	0x37d3
	.uleb128 0x41
	.uleb128 0x26
	.long	.LASF1313
	.byte	0x7
	.value	0x248
	.byte	0xf
	.long	0x41c1
	.byte	0
	.byte	0
	.uleb128 0x13
	.long	0x33b8
	.byte	0x3
	.long	0xbfd2
	.uleb128 0xf
	.string	"_Up"
	.long	0x9f8c
	.uleb128 0x53
	.long	.LASF423
	.long	0xbfa7
	.uleb128 0x54
	.long	0xa12e
	.byte	0
	.uleb128 0xe
	.string	"__a"
	.byte	0x8
	.value	0x2c1
	.byte	0x1c
	.long	0xa147
	.uleb128 0xe
	.string	"__p"
	.byte	0x8
	.value	0x2c2
	.byte	0xa
	.long	0xa110
	.uleb128 0xd1
	.long	.LASF1332
	.byte	0x8
	.value	0x2c2
	.byte	0x16
	.uleb128 0x1
	.long	0xa12e
	.byte	0
	.byte	0
	.uleb128 0xa
	.long	0x1d84
	.long	0xbfe9
	.byte	0x3
	.long	0xc000
	.uleb128 0xf
	.string	"_Up"
	.long	0x8fff
	.uleb128 0x8
	.long	.LASF1300
	.long	0x9dfe
	.uleb128 0x12
	.long	.LASF1330
	.byte	0x2
	.value	0x8ee
	.byte	0x13
	.long	0x9d31
	.byte	0
	.uleb128 0xa
	.long	0x855f
	.long	0xc00e
	.byte	0x2
	.long	0xc025
	.uleb128 0x8
	.long	.LASF1300
	.long	0xa1f6
	.uleb128 0xe
	.string	"__i"
	.byte	0x3
	.value	0x422
	.byte	0x2a
	.long	0xa1fb
	.byte	0
	.uleb128 0x1b
	.long	0xc000
	.long	.LASF1355
	.long	0xc036
	.long	0xc041
	.uleb128 0x3
	.long	0xc00e
	.uleb128 0x3
	.long	0xc017
	.byte	0
	.uleb128 0x13
	.long	0x73d4
	.byte	0x3
	.long	0xc09b
	.uleb128 0xc
	.long	.LASF819
	.long	0xa110
	.uleb128 0xc
	.long	.LASF59
	.long	0xa110
	.uleb128 0xc
	.long	.LASF820
	.long	0x3252
	.uleb128 0x12
	.long	.LASF1306
	.byte	0xc
	.value	0x57c
	.byte	0x21
	.long	0xa110
	.uleb128 0x12
	.long	.LASF1307
	.byte	0xc
	.value	0x57c
	.byte	0x39
	.long	0xa110
	.uleb128 0x12
	.long	.LASF1333
	.byte	0xc
	.value	0x57d
	.byte	0x15
	.long	0xa110
	.uleb128 0x12
	.long	.LASF1334
	.byte	0xc
	.value	0x57d
	.byte	0x2b
	.long	0xa142
	.byte	0
	.uleb128 0xa
	.long	0x36b7
	.long	0xc0a9
	.byte	0x3
	.long	0xc0c0
	.uleb128 0x8
	.long	.LASF1300
	.long	0xa197
	.uleb128 0xe
	.string	"__n"
	.byte	0x2
	.value	0x182
	.byte	0x1a
	.long	0x2b5
	.byte	0
	.uleb128 0xa
	.long	0x3be5
	.long	0xc0ce
	.byte	0x3
	.long	0xc0e5
	.uleb128 0x8
	.long	.LASF1300
	.long	0xa1e2
	.uleb128 0x26
	.long	.LASF1337
	.byte	0x2
	.value	0x455
	.byte	0xc
	.long	0x622
	.byte	0
	.uleb128 0xa
	.long	0x3c74
	.long	0xc0f3
	.byte	0x3
	.long	0xc10a
	.uleb128 0x8
	.long	.LASF1300
	.long	0xa1e2
	.uleb128 0x26
	.long	.LASF1337
	.byte	0x2
	.value	0x4b0
	.byte	0xc
	.long	0x622
	.byte	0
	.uleb128 0xa
	.long	0x3c01
	.long	0xc118
	.byte	0x3
	.long	0xc122
	.uleb128 0x8
	.long	.LASF1300
	.long	0xa1e2
	.byte	0
	.uleb128 0x13
	.long	0x7415
	.byte	0x3
	.long	0xc15e
	.uleb128 0xc
	.long	.LASF59
	.long	0xa110
	.uleb128 0xf
	.string	"_Tp"
	.long	0x9f8c
	.uleb128 0x12
	.long	.LASF1306
	.byte	0x8
	.value	0x43a
	.byte	0x1f
	.long	0xa110
	.uleb128 0x12
	.long	.LASF1307
	.byte	0x8
	.value	0x43a
	.byte	0x39
	.long	0xa110
	.uleb128 0x1
	.long	0xa142
	.byte	0
	.uleb128 0xa
	.long	0x3552
	.long	0xc16c
	.byte	0x3
	.long	0xc176
	.uleb128 0x8
	.long	.LASF1300
	.long	0xa197
	.byte	0
	.uleb128 0xa
	.long	0x36d6
	.long	0xc184
	.byte	0x3
	.long	0xc1a8
	.uleb128 0x8
	.long	.LASF1300
	.long	0xa197
	.uleb128 0xe
	.string	"__p"
	.byte	0x2
	.value	0x18a
	.byte	0x1d
	.long	0x3490
	.uleb128 0xe
	.string	"__n"
	.byte	0x2
	.value	0x18a
	.byte	0x29
	.long	0x2b5
	.byte	0
	.uleb128 0xa
	.long	0x30fe
	.long	0xc1b6
	.byte	0x2
	.long	0xc1c0
	.uleb128 0x8
	.long	.LASF1300
	.long	0xa101
	.byte	0
	.uleb128 0x3d
	.long	0xc1a8
	.long	0xc1cd
	.long	0xc1d3
	.uleb128 0x3
	.long	0xc1b6
	.byte	0
	.uleb128 0xa
	.long	0x342c
	.long	0xc1e1
	.byte	0x2
	.long	0xc1eb
	.uleb128 0x8
	.long	.LASF1300
	.long	0xa160
	.byte	0
	.uleb128 0x3d
	.long	0xc1d3
	.long	0xc1f8
	.long	0xc1fe
	.uleb128 0x3
	.long	0xc1e1
	.byte	0
	.uleb128 0xa
	.long	0x3264
	.long	0xc20c
	.byte	0x2
	.long	0xc216
	.uleb128 0x8
	.long	.LASF1300
	.long	0xa138
	.byte	0
	.uleb128 0x3d
	.long	0xc1fe
	.long	0xc223
	.long	0xc229
	.uleb128 0x3
	.long	0xc20c
	.byte	0
	.uleb128 0xa
	.long	0x1b63
	.long	0xc237
	.byte	0x1
	.long	0xc28b
	.uleb128 0x8
	.long	.LASF1300
	.long	0x9dd6
	.uleb128 0xe
	.string	"__n"
	.byte	0x7
	.value	0x113
	.byte	0x1b
	.long	0x2b5
	.uleb128 0x12
	.long	.LASF1309
	.byte	0x7
	.value	0x113
	.byte	0x32
	.long	0x9de0
	.uleb128 0x26
	.long	.LASF1356
	.byte	0x7
	.value	0x115
	.byte	0x17
	.long	0x133a
	.uleb128 0xd2
	.long	0xc27b
	.uleb128 0x26
	.long	.LASF1335
	.byte	0x7
	.value	0x11a
	.byte	0xb
	.long	0x11ea
	.byte	0
	.uleb128 0x41
	.uleb128 0x26
	.long	.LASF1357
	.byte	0x7
	.value	0x120
	.byte	0x14
	.long	0x133a
	.byte	0
	.byte	0
	.uleb128 0x13
	.long	0x7444
	.byte	0x3
	.long	0xc2c7
	.uleb128 0xc
	.long	.LASF59
	.long	0x9d31
	.uleb128 0xf
	.string	"_Tp"
	.long	0x8fff
	.uleb128 0x12
	.long	.LASF1306
	.byte	0x8
	.value	0x43a
	.byte	0x1f
	.long	0x9d31
	.uleb128 0x12
	.long	.LASF1307
	.byte	0x8
	.value	0x43a
	.byte	0x39
	.long	0x9d31
	.uleb128 0x1
	.long	0x9d63
	.byte	0
	.uleb128 0xa
	.long	0xfbc
	.long	0xc2d5
	.byte	0x3
	.long	0xc2df
	.uleb128 0x8
	.long	.LASF1300
	.long	0x9db8
	.byte	0
	.uleb128 0xa
	.long	0x116b
	.long	0xc2ed
	.byte	0x3
	.long	0xc311
	.uleb128 0x8
	.long	.LASF1300
	.long	0x9db8
	.uleb128 0xe
	.string	"__p"
	.byte	0x2
	.value	0x18a
	.byte	0x1d
	.long	0xed9
	.uleb128 0xe
	.string	"__n"
	.byte	0x2
	.value	0x18a
	.byte	0x29
	.long	0x2b5
	.byte	0
	.uleb128 0xa
	.long	0xb61
	.long	0xc31f
	.byte	0x2
	.long	0xc329
	.uleb128 0x8
	.long	.LASF1300
	.long	0x9d22
	.byte	0
	.uleb128 0x1b
	.long	0xc311
	.long	.LASF1358
	.long	0xc33a
	.long	0xc340
	.uleb128 0x3
	.long	0xc31f
	.byte	0
	.uleb128 0xa
	.long	0xe62
	.long	0xc34e
	.byte	0x2
	.long	0xc358
	.uleb128 0x8
	.long	.LASF1300
	.long	0x9d81
	.byte	0
	.uleb128 0x1b
	.long	0xc340
	.long	.LASF1359
	.long	0xc369
	.long	0xc36f
	.uleb128 0x3
	.long	0xc34e
	.byte	0
	.uleb128 0xa
	.long	0xcac
	.long	0xc37d
	.byte	0x2
	.long	0xc387
	.uleb128 0x8
	.long	.LASF1300
	.long	0x9d59
	.byte	0
	.uleb128 0x1b
	.long	0xc36f
	.long	.LASF1360
	.long	0xc398
	.long	0xc39e
	.uleb128 0x3
	.long	0xc37d
	.byte	0
	.uleb128 0xa
	.long	0x16fc
	.long	0xc3ac
	.byte	0x3
	.long	0xc3c3
	.uleb128 0x8
	.long	.LASF1300
	.long	0x9dfe
	.uleb128 0x26
	.long	.LASF1337
	.byte	0x2
	.value	0x455
	.byte	0xc
	.long	0x622
	.byte	0
	.uleb128 0x13
	.long	0x7477
	.byte	0x3
	.long	0xc3fe
	.uleb128 0xf
	.string	"_Tp"
	.long	0x30
	.uleb128 0x12
	.long	.LASF1309
	.byte	0xd
	.value	0xe1e
	.byte	0x16
	.long	0xa32c
	.uleb128 0x12
	.long	.LASF1361
	.byte	0xd
	.value	0xe1e
	.byte	0x28
	.long	0xa32c
	.uleb128 0x12
	.long	.LASF1362
	.byte	0xd
	.value	0xe1e
	.byte	0x39
	.long	0xa32c
	.byte	0
	.uleb128 0xa
	.long	0x63c7
	.long	0xc40c
	.byte	0x3
	.long	0xc423
	.uleb128 0x8
	.long	.LASF1300
	.long	0xa3b3
	.uleb128 0xe
	.string	"__n"
	.byte	0x2
	.value	0x4e3
	.byte	0x1c
	.long	0x5eed
	.byte	0
	.uleb128 0xa
	.long	0x6501
	.long	0xc431
	.byte	0x3
	.long	0xc43b
	.uleb128 0x8
	.long	.LASF1300
	.long	0xa3b3
	.byte	0
	.uleb128 0xa
	.long	0x501a
	.long	0xc449
	.byte	0x3
	.long	0xc460
	.uleb128 0x8
	.long	.LASF1300
	.long	0xa2c3
	.uleb128 0xe
	.string	"__n"
	.byte	0x2
	.value	0x4e3
	.byte	0x1c
	.long	0x4b40
	.byte	0
	.uleb128 0xa
	.long	0x3ab9
	.long	0xc46e
	.byte	0x3
	.long	0xc478
	.uleb128 0x8
	.long	.LASF1300
	.long	0xa1ba
	.byte	0
	.uleb128 0xa
	.long	0x3a74
	.long	0xc486
	.byte	0x3
	.long	0xc490
	.uleb128 0x8
	.long	.LASF1300
	.long	0xa1ba
	.byte	0
	.uleb128 0xa
	.long	0x6038
	.long	0xc49e
	.byte	0x2
	.long	0xc4a8
	.uleb128 0x8
	.long	.LASF1300
	.long	0xa3b3
	.byte	0
	.uleb128 0x1b
	.long	0xc490
	.long	.LASF1363
	.long	0xc4b9
	.long	0xc4bf
	.uleb128 0x3
	.long	0xc49e
	.byte	0
	.uleb128 0xa
	.long	0x5ec9
	.long	0xc4cd
	.byte	0x2
	.long	0xc4f1
	.uleb128 0x8
	.long	.LASF1300
	.long	0xa3b3
	.uleb128 0xe
	.string	"__n"
	.byte	0x2
	.value	0x240
	.byte	0x18
	.long	0x5eed
	.uleb128 0xe
	.string	"__a"
	.byte	0x2
	.value	0x240
	.byte	0x33
	.long	0xa3b8
	.byte	0
	.uleb128 0x1b
	.long	0xc4bf
	.long	.LASF1364
	.long	0xc502
	.long	0xc512
	.uleb128 0x3
	.long	0xc4cd
	.uleb128 0x3
	.long	0xc4d6
	.uleb128 0x3
	.long	0xc4e3
	.byte	0
	.uleb128 0xa
	.long	0x58ca
	.long	0xc520
	.byte	0x2
	.long	0xc52a
	.uleb128 0x8
	.long	.LASF1300
	.long	0xa336
	.byte	0
	.uleb128 0x1b
	.long	0xc512
	.long	.LASF1365
	.long	0xc53b
	.long	0xc541
	.uleb128 0x3
	.long	0xc520
	.byte	0
	.uleb128 0xa
	.long	0x586c
	.long	0xc54f
	.byte	0x2
	.long	0xc559
	.uleb128 0x8
	.long	.LASF1300
	.long	0xa336
	.byte	0
	.uleb128 0x1b
	.long	0xc541
	.long	.LASF1366
	.long	0xc56a
	.long	0xc570
	.uleb128 0x3
	.long	0xc54f
	.byte	0
	.uleb128 0xa
	.long	0x4c8b
	.long	0xc57e
	.byte	0x2
	.long	0xc588
	.uleb128 0x8
	.long	.LASF1300
	.long	0xa2c3
	.byte	0
	.uleb128 0x1b
	.long	0xc570
	.long	.LASF1367
	.long	0xc599
	.long	0xc59f
	.uleb128 0x3
	.long	0xc57e
	.byte	0
	.uleb128 0xa
	.long	0x4b4d
	.long	0xc5ad
	.byte	0x2
	.long	0xc5de
	.uleb128 0x8
	.long	.LASF1300
	.long	0xa2c3
	.uleb128 0xe
	.string	"__n"
	.byte	0x2
	.value	0x24d
	.byte	0x18
	.long	0x4b40
	.uleb128 0x12
	.long	.LASF846
	.byte	0x2
	.value	0x24d
	.byte	0x2f
	.long	0xa2cd
	.uleb128 0xe
	.string	"__a"
	.byte	0x2
	.value	0x24e
	.byte	0x1d
	.long	0xa2c8
	.byte	0
	.uleb128 0x1b
	.long	0xc59f
	.long	.LASF1368
	.long	0xc5ef
	.long	0xc604
	.uleb128 0x3
	.long	0xc5ad
	.uleb128 0x3
	.long	0xc5b6
	.uleb128 0x3
	.long	0xc5c3
	.uleb128 0x3
	.long	0xc5d0
	.byte	0
	.uleb128 0xa
	.long	0x451d
	.long	0xc612
	.byte	0x2
	.long	0xc61c
	.uleb128 0x8
	.long	.LASF1300
	.long	0xa246
	.byte	0
	.uleb128 0x1b
	.long	0xc604
	.long	.LASF1369
	.long	0xc62d
	.long	0xc633
	.uleb128 0x3
	.long	0xc612
	.byte	0
	.uleb128 0xa
	.long	0x44bf
	.long	0xc641
	.byte	0x2
	.long	0xc64b
	.uleb128 0x8
	.long	.LASF1300
	.long	0xa246
	.byte	0
	.uleb128 0x1b
	.long	0xc633
	.long	.LASF1370
	.long	0xc65c
	.long	0xc662
	.uleb128 0x3
	.long	0xc641
	.byte	0
	.uleb128 0xa
	.long	0x3e22
	.long	0xc670
	.byte	0x3
	.long	0xc687
	.uleb128 0x8
	.long	.LASF1300
	.long	0xa1ba
	.uleb128 0xe
	.string	"__x"
	.byte	0x2
	.value	0x57e
	.byte	0x23
	.long	0xa1c4
	.byte	0
	.uleb128 0xa
	.long	0x1946
	.long	0xc695
	.byte	0x3
	.long	0xc69f
	.uleb128 0x8
	.long	.LASF1300
	.long	0x9dd6
	.byte	0
	.uleb128 0x13
	.long	0x74a5
	.byte	0x3
	.long	0xc6cb
	.uleb128 0xf
	.string	"_Tp"
	.long	0x48
	.uleb128 0x24
	.string	"__a"
	.byte	0xa
	.byte	0xe8
	.byte	0x14
	.long	0xa23c
	.uleb128 0x24
	.string	"__b"
	.byte	0xa
	.byte	0xe8
	.byte	0x24
	.long	0xa23c
	.byte	0
	.uleb128 0x13
	.long	0x74cd
	.byte	0x3
	.long	0xc6f9
	.uleb128 0xf
	.string	"_Tp"
	.long	0x48
	.uleb128 0xe
	.string	"__a"
	.byte	0xa
	.value	0x100
	.byte	0x14
	.long	0xa23c
	.uleb128 0xe
	.string	"__b"
	.byte	0xa
	.value	0x100
	.byte	0x24
	.long	0xa23c
	.byte	0
	.uleb128 0xa
	.long	0x288d
	.long	0xc707
	.byte	0x3
	.long	0xc711
	.uleb128 0x8
	.long	.LASF1300
	.long	0xa0c5
	.byte	0
	.uleb128 0xa
	.long	0x2840
	.long	0xc71f
	.byte	0x3
	.long	0xc729
	.uleb128 0x8
	.long	.LASF1300
	.long	0xa0c5
	.byte	0
	.uleb128 0xa
	.long	0x3cac
	.long	0xc737
	.byte	0x1
	.long	0xc767
	.uleb128 0x8
	.long	.LASF1300
	.long	0xa1ba
	.uleb128 0x24
	.string	"__n"
	.byte	0x7
	.byte	0x47
	.byte	0x17
	.long	0x387b
	.uleb128 0x41
	.uleb128 0x4b
	.long	.LASF1371
	.byte	0x7
	.byte	0x4d
	.byte	0x14
	.long	0x3888
	.uleb128 0x4b
	.long	.LASF1335
	.byte	0x7
	.byte	0x4e
	.byte	0xc
	.long	0x37d3
	.byte	0
	.byte	0
	.uleb128 0xa
	.long	0x29e1
	.long	0xc775
	.byte	0x3
	.long	0xc78c
	.uleb128 0x8
	.long	.LASF1300
	.long	0xa0ed
	.uleb128 0x26
	.long	.LASF1337
	.byte	0x2
	.value	0x455
	.byte	0xc
	.long	0x622
	.byte	0
	.uleb128 0xa
	.long	0x39ae
	.long	0xc79a
	.byte	0x2
	.long	0xc7a4
	.uleb128 0x8
	.long	.LASF1300
	.long	0xa1ba
	.byte	0
	.uleb128 0x3d
	.long	0xc78c
	.long	0xc7b1
	.long	0xc7b7
	.uleb128 0x3
	.long	0xc79a
	.byte	0
	.uleb128 0xa
	.long	0x3694
	.long	0xc7c5
	.byte	0x2
	.long	0xc7de
	.uleb128 0x8
	.long	.LASF1300
	.long	0xa197
	.uleb128 0x41
	.uleb128 0x5a
	.string	"__n"
	.byte	0x2
	.value	0x177
	.byte	0xc
	.long	0x622
	.byte	0
	.byte	0
	.uleb128 0x3d
	.long	0xc7b7
	.long	0xc7eb
	.long	0xc7fc
	.uleb128 0x3
	.long	0xc7c5
	.uleb128 0x72
	.long	0xc7ce
	.uleb128 0x38
	.long	0xc7cf
	.byte	0
	.byte	0
	.uleb128 0xa
	.long	0x32b5
	.long	0xc80a
	.byte	0x2
	.long	0xc814
	.uleb128 0x8
	.long	.LASF1300
	.long	0xa138
	.byte	0
	.uleb128 0x3d
	.long	0xc7fc
	.long	0xc821
	.long	0xc827
	.uleb128 0x3
	.long	0xc80a
	.byte	0
	.uleb128 0xa
	.long	0x34b3
	.long	0xc835
	.byte	0x2
	.long	0xc83f
	.uleb128 0x8
	.long	.LASF1300
	.long	0xa179
	.byte	0
	.uleb128 0x3d
	.long	0xc827
	.long	0xc84c
	.long	0xc852
	.uleb128 0x3
	.long	0xc835
	.byte	0
	.uleb128 0xa
	.long	0x1507
	.long	0xc860
	.byte	0x3
	.long	0xc884
	.uleb128 0x8
	.long	.LASF1300
	.long	0x9dd6
	.uleb128 0xe
	.string	"__n"
	.byte	0x2
	.value	0x361
	.byte	0x18
	.long	0x132d
	.uleb128 0x12
	.long	.LASF1309
	.byte	0x2
	.value	0x361
	.byte	0x2f
	.long	0x9de0
	.byte	0
	.uleb128 0xa
	.long	0x147d
	.long	0xc892
	.byte	0x2
	.long	0xc89c
	.uleb128 0x8
	.long	.LASF1300
	.long	0x9dd6
	.byte	0
	.uleb128 0x1b
	.long	0xc884
	.long	.LASF1372
	.long	0xc8ad
	.long	0xc8b3
	.uleb128 0x3
	.long	0xc892
	.byte	0
	.uleb128 0xa
	.long	0x1122
	.long	0xc8c1
	.byte	0x2
	.long	0xc8da
	.uleb128 0x8
	.long	.LASF1300
	.long	0x9db8
	.uleb128 0x41
	.uleb128 0x5a
	.string	"__n"
	.byte	0x2
	.value	0x177
	.byte	0xc
	.long	0x622
	.byte	0
	.byte	0
	.uleb128 0x1b
	.long	0xc8b3
	.long	.LASF1373
	.long	0xc8eb
	.long	0xc8fc
	.uleb128 0x3
	.long	0xc8c1
	.uleb128 0x72
	.long	0xc8ca
	.uleb128 0x38
	.long	0xc8cb
	.byte	0
	.byte	0
	.uleb128 0xa
	.long	0xd0a
	.long	0xc90a
	.byte	0x2
	.long	0xc914
	.uleb128 0x8
	.long	.LASF1300
	.long	0x9d59
	.byte	0
	.uleb128 0x1b
	.long	0xc8fc
	.long	.LASF1374
	.long	0xc925
	.long	0xc92b
	.uleb128 0x3
	.long	0xc90a
	.byte	0
	.uleb128 0xa
	.long	0xefc
	.long	0xc939
	.byte	0x2
	.long	0xc943
	.uleb128 0x8
	.long	.LASF1300
	.long	0x9d9a
	.byte	0
	.uleb128 0x1b
	.long	0xc92b
	.long	.LASF1375
	.long	0xc954
	.long	0xc95a
	.uleb128 0x3
	.long	0xc939
	.byte	0
	.uleb128 0xa
	.long	0x2bab
	.long	0xc968
	.byte	0x3
	.long	0xc972
	.uleb128 0x8
	.long	.LASF1300
	.long	0xa0c5
	.byte	0
	.uleb128 0xa
	.long	0x180c
	.long	0xc980
	.byte	0x3
	.long	0xc997
	.uleb128 0x8
	.long	.LASF1300
	.long	0x9dd6
	.uleb128 0xe
	.string	"__n"
	.byte	0x2
	.value	0x4e3
	.byte	0x1c
	.long	0x132d
	.byte	0
	.uleb128 0xd3
	.long	.LASF1376
	.byte	0x1
	.byte	0x1c
	.byte	0xb
	.long	.LASF1377
	.long	0x9e0d
	.long	.LLRL0
	.uleb128 0x1
	.byte	0x9c
	.long	0x10d23
	.uleb128 0x94
	.long	.LASF1378
	.byte	0x40
	.long	0xa0e3
	.long	.LLST1
	.long	.LVUS1
	.uleb128 0x94
	.long	.LASF1379
	.byte	0x54
	.long	0x30
	.long	.LLST2
	.long	.LVUS2
	.uleb128 0x32
	.long	.LASF1278
	.byte	0x1d
	.byte	0x12
	.long	0x7551
	.long	.LLST3
	.long	.LVUS3
	.uleb128 0x32
	.long	.LASF1279
	.byte	0x1e
	.byte	0x12
	.long	0x7551
	.long	.LLST4
	.long	.LVUS4
	.uleb128 0x95
	.string	"w"
	.byte	0x1f
	.long	0x50
	.uleb128 0x95
	.string	"h"
	.byte	0x20
	.long	0x50
	.uleb128 0x32
	.long	.LASF1380
	.byte	0x22
	.byte	0xf
	.long	0x9e0d
	.long	.LLST5
	.long	.LVUS5
	.uleb128 0x32
	.long	.LASF1381
	.byte	0x27
	.byte	0x1c
	.long	0x374e
	.long	.LLST6
	.long	.LVUS6
	.uleb128 0x4b
	.long	.LASF1382
	.byte	0x1
	.byte	0x44
	.byte	0x16
	.long	0x49fd
	.uleb128 0x4b
	.long	.LASF1383
	.byte	0x1
	.byte	0x45
	.byte	0x16
	.long	0x49fd
	.uleb128 0x4b
	.long	.LASF1384
	.byte	0x1
	.byte	0x46
	.byte	0x18
	.long	0x5daa
	.uleb128 0x61
	.long	.LLRL118
	.long	0xd24c
	.uleb128 0x3e
	.string	"sub"
	.byte	0x2a
	.byte	0x1c
	.long	0xa043
	.long	.LLST119
	.long	.LVUS119
	.uleb128 0x96
	.long	.LASF1385
	.long	0xa0e3
	.long	.LLST120
	.long	.LVUS120
	.uleb128 0x5b
	.long	.LASF1386
	.long	0x2833
	.uleb128 0x5b
	.long	.LASF1387
	.long	0x2833
	.uleb128 0x61
	.long	.LLRL127
	.long	0xd175
	.uleb128 0x32
	.long	.LASF1388
	.byte	0x2b
	.byte	0x15
	.long	0x7d73
	.long	.LLST128
	.long	.LVUS128
	.uleb128 0x32
	.long	.LASF1389
	.byte	0x2c
	.byte	0x15
	.long	0x7d73
	.long	.LLST129
	.long	.LVUS129
	.uleb128 0x3e
	.string	"p"
	.byte	0x2e
	.byte	0x13
	.long	0x9f8c
	.long	.LLST130
	.long	.LVUS130
	.uleb128 0x3e
	.string	"dx"
	.byte	0x32
	.byte	0x15
	.long	0x7d73
	.long	.LLST131
	.long	.LVUS131
	.uleb128 0x3e
	.string	"dy"
	.byte	0x33
	.byte	0x15
	.long	0x7d73
	.long	.LLST132
	.long	.LVUS132
	.uleb128 0x39
	.long	0x10f93
	.quad	.LBI2131
	.value	.LVU100
	.quad	.LBB2131
	.quad	.LBE2131-.LBB2131
	.byte	0x1
	.byte	0x2f
	.byte	0x1a
	.long	0xcb32
	.uleb128 0x4
	.long	0x10f9d
	.long	.LLST133
	.long	.LVUS133
	.byte	0
	.uleb128 0x39
	.long	0x10f93
	.quad	.LBI2133
	.value	.LVU106
	.quad	.LBB2133
	.quad	.LBE2133-.LBB2133
	.byte	0x1
	.byte	0x30
	.byte	0x1a
	.long	0xcb66
	.uleb128 0x4
	.long	0x10f9d
	.long	.LLST134
	.long	.LVUS134
	.byte	0
	.uleb128 0x39
	.long	0xc6cb
	.quad	.LBI2135
	.value	.LVU118
	.quad	.LBB2135
	.quad	.LBE2135-.LBB2135
	.byte	0x1
	.byte	0x3a
	.byte	0x1d
	.long	0xcb97
	.uleb128 0x3
	.long	0xc6de
	.uleb128 0x3
	.long	0xc6eb
	.byte	0
	.uleb128 0x3a
	.long	0xc69f
	.quad	.LBI2136
	.value	.LVU123
	.long	.LLRL135
	.byte	0x1
	.byte	0x3b
	.byte	0x1b
	.long	0xcbc4
	.uleb128 0x4
	.long	0xc6b2
	.long	.LLST136
	.long	.LVUS136
	.uleb128 0x3
	.long	0xc6be
	.byte	0
	.uleb128 0x39
	.long	0xc6cb
	.quad	.LBI2139
	.value	.LVU129
	.quad	.LBB2139
	.quad	.LBE2139-.LBB2139
	.byte	0x1
	.byte	0x3c
	.byte	0x1d
	.long	0xcbf5
	.uleb128 0x3
	.long	0xc6de
	.uleb128 0x3
	.long	0xc6eb
	.byte	0
	.uleb128 0x3a
	.long	0xc69f
	.quad	.LBI2140
	.value	.LVU132
	.long	.LLRL137
	.byte	0x1
	.byte	0x3d
	.byte	0x1b
	.long	0xcc22
	.uleb128 0x4
	.long	0xc6b2
	.long	.LLST138
	.long	.LVUS138
	.uleb128 0x3
	.long	0xc6be
	.byte	0
	.uleb128 0x3a
	.long	0xc687
	.quad	.LBI2143
	.value	.LVU138
	.long	.LLRL139
	.byte	0x1
	.byte	0x3e
	.byte	0x24
	.long	0xcc4a
	.uleb128 0x4
	.long	0xc695
	.long	.LLST140
	.long	.LVUS140
	.byte	0
	.uleb128 0x62
	.long	0xc662
	.quad	.LBI2147
	.value	.LVU151
	.long	.LLRL141
	.byte	0x1
	.byte	0x41
	.byte	0x19
	.uleb128 0x4
	.long	0xc670
	.long	.LLST142
	.long	.LVUS142
	.uleb128 0x4
	.long	0xc679
	.long	.LLST143
	.long	.LVUS143
	.uleb128 0x2d
	.long	0xbf85
	.quad	.LBI2149
	.value	.LVU159
	.long	.LLRL144
	.byte	0x2
	.value	0x583
	.byte	0x1e
	.long	0xccec
	.uleb128 0x4
	.long	0xbfa7
	.long	.LLST145
	.long	.LVUS145
	.uleb128 0x3
	.long	0xbfb4
	.uleb128 0x4
	.long	0xbfcb
	.long	.LLST146
	.long	.LVUS146
	.uleb128 0x15
	.long	0xb5c4
	.quad	.LBI2150
	.value	.LVU160
	.long	.LLRL144
	.byte	0x8
	.value	0x2ca
	.byte	0x11
	.uleb128 0x4
	.long	0xb5ea
	.long	.LLST147
	.long	.LVUS147
	.uleb128 0x3
	.long	0xb5f3
	.uleb128 0x4
	.long	0xb608
	.long	.LLST148
	.long	.LVUS148
	.byte	0
	.byte	0
	.uleb128 0x15
	.long	0xbeed
	.quad	.LBI2155
	.value	.LVU805
	.long	.LLRL149
	.byte	0x2
	.value	0x589
	.byte	0x15
	.uleb128 0x4
	.long	0xbf0a
	.long	.LLST150
	.long	.LVUS150
	.uleb128 0x4
	.long	0xbf21
	.long	.LLST151
	.long	.LVUS151
	.uleb128 0x38
	.long	0xbf27
	.uleb128 0x2e
	.long	0xbf34
	.long	.LLST152
	.long	.LVUS152
	.uleb128 0x2e
	.long	0xbf41
	.long	.LLST153
	.long	.LVUS153
	.uleb128 0x2e
	.long	0xbf4e
	.long	.LLST154
	.long	.LVUS154
	.uleb128 0x2e
	.long	0xbf5b
	.long	.LLST155
	.long	.LVUS155
	.uleb128 0x2e
	.long	0xbf68
	.long	.LLST156
	.long	.LVUS156
	.uleb128 0x2d
	.long	0xb585
	.quad	.LBI2157
	.value	.LVU806
	.long	.LLRL157
	.byte	0x7
	.value	0x23e
	.byte	0x2b
	.long	0xce37
	.uleb128 0x4
	.long	0xb593
	.long	.LLST158
	.long	.LVUS158
	.uleb128 0x4
	.long	0xb59c
	.long	.LLST159
	.long	.LVUS159
	.uleb128 0x4
	.long	0xb5a9
	.long	.LLST160
	.long	.LVUS160
	.uleb128 0x38
	.long	0xb5b6
	.uleb128 0x67
	.long	0xc0c0
	.quad	.LBI2159
	.value	.LVU807
	.quad	.LBB2159
	.quad	.LBE2159-.LBB2159
	.value	0x892
	.byte	0x17
	.byte	0x1
	.long	0xcdec
	.uleb128 0x4
	.long	0xc0ce
	.long	.LLST161
	.long	.LVUS161
	.uleb128 0x2e
	.long	0xc0d7
	.long	.LLST162
	.long	.LVUS162
	.byte	0
	.uleb128 0x56
	.long	0xaeaa
	.quad	.LBI2161
	.value	.LVU816
	.long	.LLRL163
	.byte	0x2
	.value	0x895
	.byte	0x2d
	.byte	0x2
	.long	0xce1b
	.uleb128 0x3
	.long	0xaebd
	.uleb128 0x4
	.long	0xaeca
	.long	.LLST164
	.long	.LVUS164
	.byte	0
	.uleb128 0x2a
	.quad	.LVL272
	.long	0x6ce3
	.uleb128 0x14
	.uleb128 0x1
	.byte	0x55
	.uleb128 0x9
	.byte	0x3
	.quad	.LC2
	.byte	0
	.byte	0
	.uleb128 0x2d
	.long	0xc09b
	.quad	.LBI2166
	.value	.LVU818
	.long	.LLRL165
	.byte	0x7
	.value	0x244
	.byte	0x2c
	.long	0xcedd
	.uleb128 0x4
	.long	0xc0a9
	.long	.LLST166
	.long	.LVUS166
	.uleb128 0x3
	.long	0xc0b2
	.uleb128 0x48
	.long	0xb68e
	.quad	.LBI2168
	.value	.LVU819
	.long	.LLRL167
	.byte	0x2
	.value	0x185
	.byte	0x21
	.byte	0x1
	.uleb128 0x4
	.long	0xb698
	.long	.LLST168
	.long	.LVUS168
	.uleb128 0x3
	.long	0xb6a5
	.uleb128 0x15
	.long	0xaed8
	.quad	.LBI2169
	.value	.LVU820
	.long	.LLRL169
	.byte	0x8
	.value	0x27e
	.byte	0x1c
	.uleb128 0x4
	.long	0xaefb
	.long	.LLST170
	.long	.LVUS170
	.uleb128 0x4
	.long	0xaee6
	.long	.LLST171
	.long	.LVUS171
	.uleb128 0x3
	.long	0xaeef
	.uleb128 0x2a
	.quad	.LVL178
	.long	0xa515
	.uleb128 0x14
	.uleb128 0x1
	.byte	0x55
	.uleb128 0x4
	.byte	0x91
	.sleb128 -128
	.byte	0x6
	.byte	0
	.byte	0
	.byte	0
	.byte	0
	.uleb128 0x68
	.long	0xbf75
	.long	.LLRL172
	.uleb128 0x38
	.long	0xbf76
	.uleb128 0x56
	.long	0xbf85
	.quad	.LBI2185
	.value	.LVU831
	.long	.LLRL173
	.byte	0x7
	.value	0x252
	.byte	0x1a
	.byte	0x1
	.long	0xcf6e
	.uleb128 0x4
	.long	0xbfa7
	.long	.LLST174
	.long	.LVUS174
	.uleb128 0x4
	.long	0xbfb4
	.long	.LLST175
	.long	.LVUS175
	.uleb128 0x4
	.long	0xbfcb
	.long	.LLST176
	.long	.LVUS176
	.uleb128 0x15
	.long	0xb5c4
	.quad	.LBI2186
	.value	.LVU832
	.long	.LLRL173
	.byte	0x8
	.value	0x2ca
	.byte	0x11
	.uleb128 0x4
	.long	0xb5ea
	.long	.LLST177
	.long	.LVUS177
	.uleb128 0x4
	.long	0xb5f3
	.long	.LLST178
	.long	.LVUS178
	.uleb128 0x4
	.long	0xb608
	.long	.LLST179
	.long	.LVUS179
	.byte	0
	.byte	0
	.uleb128 0x2c
	.long	0xb524
	.quad	.LBI2199
	.value	.LVU829
	.quad	.LBB2199
	.quad	.LBE2199-.LBB2199
	.byte	0x7
	.value	0x248
	.byte	0xf
	.long	0xcfc2
	.uleb128 0x4
	.long	0xb532
	.long	.LLST180
	.long	.LVUS180
	.uleb128 0x4
	.long	0xb53b
	.long	.LLST181
	.long	.LVUS181
	.uleb128 0x3
	.long	0xb548
	.uleb128 0x4
	.long	0xb555
	.long	.LLST182
	.long	.LVUS182
	.byte	0
	.uleb128 0x2d
	.long	0xc041
	.quad	.LBI2202
	.value	.LVU842
	.long	.LLRL183
	.byte	0x7
	.value	0x25f
	.byte	0x26
	.long	0xd082
	.uleb128 0x4
	.long	0xc066
	.long	.LLST184
	.long	.LVUS184
	.uleb128 0x3
	.long	0xc073
	.uleb128 0x4
	.long	0xc080
	.long	.LLST185
	.long	.LVUS185
	.uleb128 0x4
	.long	0xc08d
	.long	.LLST186
	.long	.LVUS186
	.uleb128 0x48
	.long	0xb60f
	.quad	.LBI2203
	.value	.LVU843
	.long	.LLRL183
	.byte	0xc
	.value	0x582
	.byte	0x21
	.byte	0x3
	.uleb128 0x4
	.long	0xb62b
	.long	.LLST187
	.long	.LVUS187
	.uleb128 0x3
	.long	0xb638
	.uleb128 0x4
	.long	0xb645
	.long	.LLST188
	.long	.LVUS188
	.uleb128 0x4
	.long	0xb652
	.long	.LLST189
	.long	.LVUS189
	.uleb128 0x2e
	.long	0xb65f
	.long	.LLST190
	.long	.LVUS190
	.uleb128 0x2a
	.quad	.LVL182
	.long	0x11074
	.uleb128 0x14
	.uleb128 0x1
	.byte	0x55
	.uleb128 0x4
	.byte	0x91
	.sleb128 -144
	.byte	0x6
	.uleb128 0x14
	.uleb128 0x1
	.byte	0x54
	.uleb128 0x4
	.byte	0x91
	.sleb128 -192
	.byte	0x6
	.uleb128 0x14
	.uleb128 0x1
	.byte	0x51
	.uleb128 0x4
	.byte	0x91
	.sleb128 -200
	.byte	0x6
	.byte	0
	.byte	0
	.byte	0
	.uleb128 0x15
	.long	0xb4f9
	.quad	.LBI2220
	.value	.LVU853
	.long	.LLRL191
	.byte	0x7
	.value	0x289
	.byte	0x7
	.uleb128 0x4
	.long	0xb507
	.long	.LLST192
	.long	.LVUS192
	.uleb128 0x15
	.long	0xc176
	.quad	.LBI2222
	.value	.LVU859
	.long	.LLRL193
	.byte	0x2
	.value	0x751
	.byte	0x1b
	.uleb128 0x3
	.long	0xc184
	.uleb128 0x4
	.long	0xc18d
	.long	.LLST194
	.long	.LVUS194
	.uleb128 0x3
	.long	0xc19a
	.uleb128 0x15
	.long	0xc176
	.quad	.LBI2224
	.value	.LVU860
	.long	.LLRL195
	.byte	0x2
	.value	0x18a
	.byte	0x7
	.uleb128 0x3
	.long	0xc184
	.uleb128 0x4
	.long	0xc18d
	.long	.LLST196
	.long	.LVUS196
	.uleb128 0x3
	.long	0xc19a
	.uleb128 0x15
	.long	0xb729
	.quad	.LBI2226
	.value	.LVU861
	.long	.LLRL197
	.byte	0x2
	.value	0x18e
	.byte	0x13
	.uleb128 0x3
	.long	0xb733
	.uleb128 0x4
	.long	0xb740
	.long	.LLST198
	.long	.LVUS198
	.uleb128 0x3
	.long	0xb74d
	.uleb128 0x15
	.long	0xaf19
	.quad	.LBI2227
	.value	.LVU862
	.long	.LLRL199
	.byte	0x8
	.value	0x2b1
	.byte	0x17
	.uleb128 0x3
	.long	0xaf27
	.uleb128 0x4
	.long	0xaf30
	.long	.LLST200
	.long	.LVUS200
	.uleb128 0x3
	.long	0xaf3c
	.uleb128 0x97
	.quad	.LVL188
	.long	0xa4fa
	.byte	0
	.byte	0
	.byte	0
	.byte	0
	.byte	0
	.byte	0
	.byte	0
	.byte	0
	.byte	0
	.uleb128 0x3a
	.long	0xc711
	.quad	.LBI2124
	.value	.LVU78
	.long	.LLRL121
	.byte	0x1
	.byte	0x2a
	.byte	0x22
	.long	0xd1c7
	.uleb128 0x4
	.long	0xc71f
	.long	.LLST122
	.long	.LVUS122
	.uleb128 0x15
	.long	0xc000
	.quad	.LBI2125
	.value	.LVU79
	.long	.LLRL121
	.byte	0x2
	.value	0x3dd
	.byte	0x10
	.uleb128 0x3
	.long	0xc00e
	.uleb128 0x4
	.long	0xc017
	.long	.LLST123
	.long	.LVUS123
	.byte	0
	.byte	0
	.uleb128 0x35
	.long	0xc6f9
	.quad	.LBI2127
	.value	.LVU81
	.long	.LLRL124
	.byte	0x1
	.byte	0x2a
	.byte	0x22
	.byte	0x1
	.long	0xd21a
	.uleb128 0x4
	.long	0xc707
	.long	.LLST125
	.long	.LVUS125
	.uleb128 0x15
	.long	0xc000
	.quad	.LBI2128
	.value	.LVU82
	.long	.LLRL124
	.byte	0x2
	.value	0x3f1
	.byte	0x10
	.uleb128 0x3
	.long	0xc00e
	.uleb128 0x4
	.long	0xc017
	.long	.LLST126
	.long	.LVUS126
	.byte	0
	.byte	0
	.uleb128 0x57
	.long	0x10d3b
	.quad	.LBI2261
	.value	.LVU168
	.quad	.LBB2261
	.quad	.LBE2261-.LBB2261
	.byte	0x1
	.byte	0x2a
	.byte	0x22
	.byte	0x4
	.uleb128 0x4
	.long	0x10d49
	.long	.LLST201
	.long	.LVUS201
	.byte	0
	.byte	0
	.uleb128 0x61
	.long	.LLRL370
	.long	0xd439
	.uleb128 0x3e
	.string	"p"
	.byte	0x48
	.byte	0x1b
	.long	0xa12e
	.long	.LLST371
	.long	.LVUS371
	.uleb128 0x96
	.long	.LASF1385
	.long	0xa1d8
	.long	.LLST372
	.long	.LVUS372
	.uleb128 0x5b
	.long	.LASF1386
	.long	0x3a67
	.uleb128 0x5b
	.long	.LASF1387
	.long	0x3a67
	.uleb128 0x3a
	.long	0xc478
	.quad	.LBI2489
	.value	.LVU331
	.long	.LLRL373
	.byte	0x1
	.byte	0x48
	.byte	0x1f
	.long	0xd2dc
	.uleb128 0x4
	.long	0xc486
	.long	.LLST374
	.long	.LVUS374
	.uleb128 0x15
	.long	0xbb11
	.quad	.LBI2490
	.value	.LVU332
	.long	.LLRL373
	.byte	0x2
	.value	0x3dd
	.byte	0x10
	.uleb128 0x3
	.long	0xbb1f
	.uleb128 0x4
	.long	0xbb28
	.long	.LLST375
	.long	.LVUS375
	.byte	0
	.byte	0
	.uleb128 0x35
	.long	0xc460
	.quad	.LBI2493
	.value	.LVU334
	.long	.LLRL376
	.byte	0x1
	.byte	0x48
	.byte	0x1f
	.byte	0x1
	.long	0xd32f
	.uleb128 0x4
	.long	0xc46e
	.long	.LLST377
	.long	.LVUS377
	.uleb128 0x15
	.long	0xbb11
	.quad	.LBI2494
	.value	.LVU335
	.long	.LLRL376
	.byte	0x2
	.value	0x3f1
	.byte	0x10
	.uleb128 0x3
	.long	0xbb1f
	.uleb128 0x4
	.long	0xbb28
	.long	.LLST378
	.long	.LVUS378
	.byte	0
	.byte	0
	.uleb128 0x35
	.long	0x10d23
	.quad	.LBI2497
	.value	.LVU374
	.long	.LLRL379
	.byte	0x1
	.byte	0x48
	.byte	0x1f
	.byte	0x4
	.long	0xd358
	.uleb128 0x4
	.long	0x10d31
	.long	.LLST380
	.long	.LVUS380
	.byte	0
	.uleb128 0x39
	.long	0xc43b
	.quad	.LBI2499
	.value	.LVU348
	.quad	.LBB2499
	.quad	.LBE2499-.LBB2499
	.byte	0x1
	.byte	0x49
	.byte	0x46
	.long	0xd391
	.uleb128 0x3
	.long	0xc449
	.uleb128 0x4
	.long	0xc452
	.long	.LLST381
	.long	.LVUS381
	.byte	0
	.uleb128 0x39
	.long	0xc43b
	.quad	.LBI2501
	.value	.LVU356
	.quad	.LBB2501
	.quad	.LBE2501-.LBB2501
	.byte	0x1
	.byte	0x4a
	.byte	0x44
	.long	0xd3ca
	.uleb128 0x3
	.long	0xc449
	.uleb128 0x4
	.long	0xc452
	.long	.LLST382
	.long	.LVUS382
	.byte	0
	.uleb128 0x39
	.long	0xc43b
	.quad	.LBI2503
	.value	.LVU362
	.quad	.LBB2503
	.quad	.LBE2503-.LBB2503
	.byte	0x1
	.byte	0x4b
	.byte	0x44
	.long	0xd403
	.uleb128 0x3
	.long	0xc449
	.uleb128 0x4
	.long	0xc452
	.long	.LLST383
	.long	.LVUS383
	.byte	0
	.uleb128 0x20
	.long	0xc43b
	.quad	.LBI2505
	.value	.LVU368
	.quad	.LBB2505
	.quad	.LBE2505-.LBB2505
	.byte	0x1
	.byte	0x4c
	.byte	0x42
	.uleb128 0x3
	.long	0xc449
	.uleb128 0x4
	.long	0xc452
	.long	.LLST384
	.long	.LVUS384
	.byte	0
	.byte	0
	.uleb128 0x61
	.long	.LLRL385
	.long	0xd484
	.uleb128 0x3e
	.string	"y"
	.byte	0x4f
	.byte	0xe
	.long	0x48
	.long	.LLST386
	.long	.LVUS386
	.uleb128 0x5c
	.long	.LLRL387
	.uleb128 0x3e
	.string	"row"
	.byte	0x50
	.byte	0xd
	.long	0x48
	.long	.LLST388
	.long	.LVUS388
	.uleb128 0x5c
	.long	.LLRL389
	.uleb128 0x3e
	.string	"x"
	.byte	0x51
	.byte	0x12
	.long	0x48
	.long	.LLST390
	.long	.LVUS390
	.byte	0
	.byte	0
	.byte	0
	.uleb128 0x61
	.long	.LLRL391
	.long	0xd62f
	.uleb128 0x3e
	.string	"p"
	.byte	0x58
	.byte	0x1b
	.long	0xa12e
	.long	.LLST392
	.long	.LVUS392
	.uleb128 0x5b
	.long	.LASF1385
	.long	0xa1d8
	.uleb128 0x5b
	.long	.LASF1386
	.long	0x3a67
	.uleb128 0x5b
	.long	.LASF1387
	.long	0x3a67
	.uleb128 0xd4
	.quad	.LBB2525
	.quad	.LBE2525-.LBB2525
	.uleb128 0x3e
	.string	"y"
	.byte	0x59
	.byte	0x12
	.long	0x48
	.long	.LLST393
	.long	.LVUS393
	.uleb128 0x5c
	.long	.LLRL394
	.uleb128 0x4b
	.long	.LASF1390
	.byte	0x1
	.byte	0x5b
	.byte	0x14
	.long	0x7545
	.uleb128 0x4b
	.long	.LASF1391
	.byte	0x1
	.byte	0x5c
	.byte	0x14
	.long	0x7545
	.uleb128 0x32
	.long	.LASF1392
	.byte	0x5e
	.byte	0x13
	.long	0x30
	.long	.LLST395
	.long	.LVUS395
	.uleb128 0x32
	.long	.LASF1393
	.byte	0x5f
	.byte	0x13
	.long	0x30
	.long	.LLST396
	.long	.LVUS396
	.uleb128 0x32
	.long	.LASF1394
	.byte	0x60
	.byte	0x13
	.long	0x30
	.long	.LLST397
	.long	.LVUS397
	.uleb128 0x32
	.long	.LASF1395
	.byte	0x62
	.byte	0x13
	.long	0x30
	.long	.LLST398
	.long	.LVUS398
	.uleb128 0x32
	.long	.LASF1396
	.byte	0x63
	.byte	0x13
	.long	0x30
	.long	.LLST399
	.long	.LVUS399
	.uleb128 0x32
	.long	.LASF1397
	.byte	0x64
	.byte	0x13
	.long	0x30
	.long	.LLST400
	.long	.LVUS400
	.uleb128 0x32
	.long	.LASF1398
	.byte	0x66
	.byte	0x14
	.long	0xa313
	.long	.LLST401
	.long	.LVUS401
	.uleb128 0x5c
	.long	.LLRL402
	.uleb128 0x3e
	.string	"x"
	.byte	0x69
	.byte	0x16
	.long	0x48
	.long	.LLST403
	.long	.LVUS403
	.uleb128 0x5c
	.long	.LLRL404
	.uleb128 0x32
	.long	.LASF1399
	.byte	0x6b
	.byte	0x1e
	.long	0x7551
	.long	.LLST405
	.long	.LVUS405
	.uleb128 0x4b
	.long	.LASF1400
	.byte	0x1
	.byte	0x6c
	.byte	0x1e
	.long	0x7551
	.uleb128 0x32
	.long	.LASF1401
	.byte	0x6e
	.byte	0x1d
	.long	0x7d73
	.long	.LLST406
	.long	.LVUS406
	.uleb128 0x32
	.long	.LASF1402
	.byte	0x6f
	.byte	0x1d
	.long	0x7d73
	.long	.LLST407
	.long	.LVUS407
	.uleb128 0x32
	.long	.LASF1403
	.byte	0x70
	.byte	0x1d
	.long	0x7d73
	.long	.LLST408
	.long	.LVUS408
	.uleb128 0x32
	.long	.LASF1404
	.byte	0x72
	.byte	0x1d
	.long	0x7d73
	.long	.LLST409
	.long	.LVUS409
	.uleb128 0x32
	.long	.LASF1405
	.byte	0x73
	.byte	0x1d
	.long	0x7d73
	.long	.LLST410
	.long	.LVUS410
	.uleb128 0x32
	.long	.LASF1406
	.byte	0x74
	.byte	0x1d
	.long	0x7d73
	.long	.LLST411
	.long	.LVUS411
	.byte	0
	.byte	0
	.byte	0
	.byte	0
	.byte	0
	.uleb128 0x61
	.long	.LLRL412
	.long	0xdcf8
	.uleb128 0x3e
	.string	"y"
	.byte	0x82
	.byte	0x11
	.long	0x7545
	.long	.LLST413
	.long	.LVUS413
	.uleb128 0x5c
	.long	.LLRL414
	.uleb128 0x3e
	.string	"x"
	.byte	0x83
	.byte	0x15
	.long	0x7545
	.long	.LLST415
	.long	.LVUS415
	.uleb128 0x5c
	.long	.LLRL416
	.uleb128 0x3e
	.string	"c"
	.byte	0x84
	.byte	0x17
	.long	0x50
	.long	.LLST417
	.long	.LVUS417
	.uleb128 0x35
	.long	0x10f7b
	.quad	.LBI2540
	.value	.LVU517
	.long	.LLRL418
	.byte	0x1
	.byte	0x88
	.byte	0x47
	.byte	0x1
	.long	0xd69e
	.uleb128 0x4
	.long	0x10f85
	.long	.LLST419
	.long	.LVUS419
	.byte	0
	.uleb128 0x35
	.long	0xc3c3
	.quad	.LBI2546
	.value	.LVU526
	.long	.LLRL420
	.byte	0x1
	.byte	0x88
	.byte	0x3c
	.byte	0x2
	.long	0xd712
	.uleb128 0x3
	.long	0xc3d6
	.uleb128 0x3
	.long	0xc3e3
	.uleb128 0x3
	.long	0xc3f0
	.uleb128 0x56
	.long	0xba89
	.quad	.LBI2547
	.value	.LVU529
	.long	.LLRL421
	.byte	0xd
	.value	0xe21
	.byte	0x16
	.byte	0x1
	.long	0xd6ef
	.uleb128 0x3
	.long	0xba9c
	.uleb128 0x3
	.long	0xbaa8
	.byte	0
	.uleb128 0x15
	.long	0xbab5
	.quad	.LBI2552
	.value	.LVU528
	.long	.LLRL422
	.byte	0xd
	.value	0xe21
	.byte	0x16
	.uleb128 0x3
	.long	0xbac8
	.uleb128 0x3
	.long	0xbad5
	.byte	0
	.byte	0
	.uleb128 0x35
	.long	0x10fab
	.quad	.LBI2566
	.value	.LVU533
	.long	.LLRL423
	.byte	0x1
	.byte	0x88
	.byte	0x16
	.byte	0x3
	.long	0xd883
	.uleb128 0x4
	.long	0x10fb9
	.long	.LLST424
	.long	.LVUS424
	.uleb128 0x4
	.long	0x10fc2
	.long	.LLST425
	.long	.LVUS425
	.uleb128 0x3
	.long	0x10fcc
	.uleb128 0x4
	.long	0x10fd6
	.long	.LLST426
	.long	.LVUS426
	.uleb128 0x3a
	.long	0x10fe1
	.quad	.LBI2568
	.value	.LVU535
	.long	.LLRL427
	.byte	0x4
	.byte	0x1e
	.byte	0x23
	.long	0xd844
	.uleb128 0x4
	.long	0x10fef
	.long	.LLST428
	.long	.LVUS428
	.uleb128 0x4
	.long	0x1100c
	.long	.LLST429
	.long	.LVUS429
	.uleb128 0x4
	.long	0x10ff8
	.long	.LLST430
	.long	.LVUS430
	.uleb128 0x3
	.long	0x11002
	.uleb128 0x36
	.quad	.LVL228
	.long	0xa4e6
	.long	0xd7b6
	.uleb128 0x14
	.uleb128 0x1
	.byte	0x55
	.uleb128 0x1
	.byte	0x40
	.byte	0
	.uleb128 0x36
	.quad	.LVL230
	.long	0xa4c6
	.long	0xd7db
	.uleb128 0x14
	.uleb128 0x1
	.byte	0x55
	.uleb128 0x2
	.byte	0x7c
	.sleb128 0
	.uleb128 0x14
	.uleb128 0x1
	.byte	0x54
	.uleb128 0x9
	.byte	0x3
	.quad	.LC8
	.byte	0
	.uleb128 0x36
	.quad	.LVL231
	.long	0xa4ac
	.long	0xd7f3
	.uleb128 0x14
	.uleb128 0x1
	.byte	0x55
	.uleb128 0x2
	.byte	0x7c
	.sleb128 0
	.byte	0
	.uleb128 0x36
	.quad	.LVL253
	.long	0xa4e6
	.long	0xd80a
	.uleb128 0x14
	.uleb128 0x1
	.byte	0x55
	.uleb128 0x1
	.byte	0x40
	.byte	0
	.uleb128 0x36
	.quad	.LVL255
	.long	0xa4c6
	.long	0xd82f
	.uleb128 0x14
	.uleb128 0x1
	.byte	0x55
	.uleb128 0x2
	.byte	0x7c
	.sleb128 0
	.uleb128 0x14
	.uleb128 0x1
	.byte	0x54
	.uleb128 0x9
	.byte	0x3
	.quad	.LC9
	.byte	0
	.uleb128 0x2a
	.quad	.LVL256
	.long	0xa4ac
	.uleb128 0x14
	.uleb128 0x1
	.byte	0x55
	.uleb128 0x2
	.byte	0x7c
	.sleb128 0
	.byte	0
	.byte	0
	.uleb128 0x57
	.long	0xc972
	.quad	.LBI2574
	.value	.LVU541
	.quad	.LBB2574
	.quad	.LBE2574-.LBB2574
	.byte	0x4
	.byte	0x1e
	.byte	0x23
	.byte	0x1
	.uleb128 0x4
	.long	0xc980
	.long	.LLST431
	.long	.LVUS431
	.uleb128 0x4
	.long	0xc989
	.long	.LLST432
	.long	.LVUS432
	.byte	0
	.byte	0
	.uleb128 0x35
	.long	0x10f7b
	.quad	.LBI2585
	.value	.LVU551
	.long	.LLRL433
	.byte	0x1
	.byte	0x89
	.byte	0x47
	.byte	0x1
	.long	0xd8ac
	.uleb128 0x4
	.long	0x10f85
	.long	.LLST434
	.long	.LVUS434
	.byte	0
	.uleb128 0x49
	.long	0xc3c3
	.quad	.LBI2590
	.value	.LVU556
	.quad	.LBB2590
	.quad	.LBE2590-.LBB2590
	.byte	0x89
	.byte	0x3c
	.byte	0x2
	.long	0xd92b
	.uleb128 0x3
	.long	0xc3d6
	.uleb128 0x3
	.long	0xc3e3
	.uleb128 0x3
	.long	0xc3f0
	.uleb128 0x2d
	.long	0xbab5
	.quad	.LBI2591
	.value	.LVU558
	.long	.LLRL435
	.byte	0xd
	.value	0xe21
	.byte	0x16
	.long	0xd907
	.uleb128 0x3
	.long	0xbac8
	.uleb128 0x3
	.long	0xbad5
	.byte	0
	.uleb128 0x48
	.long	0xba89
	.quad	.LBI2593
	.value	.LVU559
	.long	.LLRL436
	.byte	0xd
	.value	0xe21
	.byte	0x16
	.byte	0x1
	.uleb128 0x3
	.long	0xba9c
	.uleb128 0x3
	.long	0xbaa8
	.byte	0
	.byte	0
	.uleb128 0x35
	.long	0x10fab
	.quad	.LBI2597
	.value	.LVU563
	.long	.LLRL437
	.byte	0x1
	.byte	0x89
	.byte	0x16
	.byte	0x3
	.long	0xdacf
	.uleb128 0x4
	.long	0x10fb9
	.long	.LLST438
	.long	.LVUS438
	.uleb128 0x4
	.long	0x10fc2
	.long	.LLST439
	.long	.LVUS439
	.uleb128 0x4
	.long	0x10fcc
	.long	.LLST440
	.long	.LVUS440
	.uleb128 0x4
	.long	0x10fd6
	.long	.LLST441
	.long	.LVUS441
	.uleb128 0x3a
	.long	0x10fe1
	.quad	.LBI2599
	.value	.LVU565
	.long	.LLRL442
	.byte	0x4
	.byte	0x1e
	.byte	0x23
	.long	0xda90
	.uleb128 0x4
	.long	0x10fef
	.long	.LLST443
	.long	.LVUS443
	.uleb128 0x4
	.long	0x1100c
	.long	.LLST444
	.long	.LVUS444
	.uleb128 0x4
	.long	0x10ff8
	.long	.LLST445
	.long	.LVUS445
	.uleb128 0x4
	.long	0x11002
	.long	.LLST446
	.long	.LVUS446
	.uleb128 0x36
	.quad	.LVL224
	.long	0xa4e6
	.long	0xd9df
	.uleb128 0x14
	.uleb128 0x1
	.byte	0x55
	.uleb128 0x1
	.byte	0x40
	.byte	0
	.uleb128 0x36
	.quad	.LVL226
	.long	0xa4c6
	.long	0xda04
	.uleb128 0x14
	.uleb128 0x1
	.byte	0x55
	.uleb128 0x2
	.byte	0x7c
	.sleb128 0
	.uleb128 0x14
	.uleb128 0x1
	.byte	0x54
	.uleb128 0x9
	.byte	0x3
	.quad	.LC9
	.byte	0
	.uleb128 0x36
	.quad	.LVL227
	.long	0xa4ac
	.long	0xda1c
	.uleb128 0x14
	.uleb128 0x1
	.byte	0x55
	.uleb128 0x2
	.byte	0x7c
	.sleb128 0
	.byte	0
	.uleb128 0x58
	.quad	.LVL235
	.uleb128 0x1
	.byte	0x30
	.uleb128 0x36
	.quad	.LVL236
	.long	0xa477
	.long	0xda3f
	.uleb128 0x14
	.uleb128 0x1
	.byte	0x55
	.uleb128 0x2
	.byte	0x7c
	.sleb128 0
	.byte	0
	.uleb128 0x36
	.quad	.LVL258
	.long	0xa4e6
	.long	0xda56
	.uleb128 0x14
	.uleb128 0x1
	.byte	0x55
	.uleb128 0x1
	.byte	0x40
	.byte	0
	.uleb128 0x36
	.quad	.LVL260
	.long	0xa4c6
	.long	0xda7b
	.uleb128 0x14
	.uleb128 0x1
	.byte	0x55
	.uleb128 0x2
	.byte	0x7c
	.sleb128 0
	.uleb128 0x14
	.uleb128 0x1
	.byte	0x54
	.uleb128 0x9
	.byte	0x3
	.quad	.LC8
	.byte	0
	.uleb128 0x2a
	.quad	.LVL261
	.long	0xa4ac
	.uleb128 0x14
	.uleb128 0x1
	.byte	0x55
	.uleb128 0x2
	.byte	0x7c
	.sleb128 0
	.byte	0
	.byte	0
	.uleb128 0x57
	.long	0xc972
	.quad	.LBI2608
	.value	.LVU571
	.quad	.LBB2608
	.quad	.LBE2608-.LBB2608
	.byte	0x4
	.byte	0x1e
	.byte	0x23
	.byte	0x1
	.uleb128 0x4
	.long	0xc980
	.long	.LLST447
	.long	.LVUS447
	.uleb128 0x4
	.long	0xc989
	.long	.LLST448
	.long	.LVUS448
	.byte	0
	.byte	0
	.uleb128 0x35
	.long	0x10f7b
	.quad	.LBI2625
	.value	.LVU581
	.long	.LLRL449
	.byte	0x1
	.byte	0x8a
	.byte	0x47
	.byte	0x1
	.long	0xdaf8
	.uleb128 0x4
	.long	0x10f85
	.long	.LLST450
	.long	.LVUS450
	.byte	0
	.uleb128 0x49
	.long	0xc3c3
	.quad	.LBI2630
	.value	.LVU586
	.quad	.LBB2630
	.quad	.LBE2630-.LBB2630
	.byte	0x8a
	.byte	0x3c
	.byte	0x2
	.long	0xdb77
	.uleb128 0x3
	.long	0xc3d6
	.uleb128 0x3
	.long	0xc3e3
	.uleb128 0x3
	.long	0xc3f0
	.uleb128 0x2d
	.long	0xbab5
	.quad	.LBI2631
	.value	.LVU588
	.long	.LLRL451
	.byte	0xd
	.value	0xe21
	.byte	0x16
	.long	0xdb53
	.uleb128 0x3
	.long	0xbac8
	.uleb128 0x3
	.long	0xbad5
	.byte	0
	.uleb128 0x48
	.long	0xba89
	.quad	.LBI2633
	.value	.LVU589
	.long	.LLRL452
	.byte	0xd
	.value	0xe21
	.byte	0x16
	.byte	0x1
	.uleb128 0x3
	.long	0xba9c
	.uleb128 0x3
	.long	0xbaa8
	.byte	0
	.byte	0
	.uleb128 0x98
	.long	0x10fab
	.quad	.LBI2637
	.value	.LVU593
	.long	.LLRL453
	.byte	0x1
	.byte	0x8a
	.byte	0x16
	.byte	0x3
	.uleb128 0x4
	.long	0x10fb9
	.long	.LLST454
	.long	.LVUS454
	.uleb128 0x4
	.long	0x10fc2
	.long	.LLST455
	.long	.LVUS455
	.uleb128 0x4
	.long	0x10fcc
	.long	.LLST456
	.long	.LVUS456
	.uleb128 0x4
	.long	0x10fd6
	.long	.LLST457
	.long	.LVUS457
	.uleb128 0x3a
	.long	0x10fe1
	.quad	.LBI2639
	.value	.LVU595
	.long	.LLRL458
	.byte	0x4
	.byte	0x1e
	.byte	0x23
	.long	0xdcb6
	.uleb128 0x4
	.long	0x10fef
	.long	.LLST459
	.long	.LVUS459
	.uleb128 0x4
	.long	0x1100c
	.long	.LLST460
	.long	.LVUS460
	.uleb128 0x4
	.long	0x10ff8
	.long	.LLST461
	.long	.LVUS461
	.uleb128 0x4
	.long	0x11002
	.long	.LLST462
	.long	.LVUS462
	.uleb128 0x36
	.quad	.LVL239
	.long	0xa4e6
	.long	0xdc28
	.uleb128 0x14
	.uleb128 0x1
	.byte	0x55
	.uleb128 0x1
	.byte	0x40
	.byte	0
	.uleb128 0x36
	.quad	.LVL241
	.long	0xa4c6
	.long	0xdc4d
	.uleb128 0x14
	.uleb128 0x1
	.byte	0x55
	.uleb128 0x2
	.byte	0x7c
	.sleb128 0
	.uleb128 0x14
	.uleb128 0x1
	.byte	0x54
	.uleb128 0x9
	.byte	0x3
	.quad	.LC9
	.byte	0
	.uleb128 0x36
	.quad	.LVL242
	.long	0xa4ac
	.long	0xdc65
	.uleb128 0x14
	.uleb128 0x1
	.byte	0x55
	.uleb128 0x2
	.byte	0x7c
	.sleb128 0
	.byte	0
	.uleb128 0x36
	.quad	.LVL267
	.long	0xa4e6
	.long	0xdc7c
	.uleb128 0x14
	.uleb128 0x1
	.byte	0x55
	.uleb128 0x1
	.byte	0x40
	.byte	0
	.uleb128 0x36
	.quad	.LVL269
	.long	0xa4c6
	.long	0xdca1
	.uleb128 0x14
	.uleb128 0x1
	.byte	0x55
	.uleb128 0x2
	.byte	0x7c
	.sleb128 0
	.uleb128 0x14
	.uleb128 0x1
	.byte	0x54
	.uleb128 0x9
	.byte	0x3
	.quad	.LC8
	.byte	0
	.uleb128 0x2a
	.quad	.LVL270
	.long	0xa4ac
	.uleb128 0x14
	.uleb128 0x1
	.byte	0x55
	.uleb128 0x2
	.byte	0x7c
	.sleb128 0
	.byte	0
	.byte	0
	.uleb128 0x57
	.long	0xc972
	.quad	.LBI2645
	.value	.LVU601
	.quad	.LBB2645
	.quad	.LBE2645-.LBB2645
	.byte	0x4
	.byte	0x1e
	.byte	0x23
	.byte	0x1
	.uleb128 0x4
	.long	0xc980
	.long	.LLST463
	.long	.LVUS463
	.uleb128 0x4
	.long	0xc989
	.long	.LLST464
	.long	.LVUS464
	.byte	0
	.byte	0
	.byte	0
	.byte	0
	.byte	0
	.uleb128 0x3a
	.long	0xc95a
	.quad	.LBI1942
	.value	.LVU3
	.long	.LLRL7
	.byte	0x1
	.byte	0x1d
	.byte	0x2c
	.long	0xdd6f
	.uleb128 0x4
	.long	0xc968
	.long	.LLST8
	.long	.LVUS8
	.uleb128 0x15
	.long	0xc711
	.quad	.LBI1943
	.value	.LVU5
	.long	.LLRL7
	.byte	0x2
	.value	0x539
	.byte	0xf
	.uleb128 0x4
	.long	0xc71f
	.long	.LLST9
	.long	.LVUS9
	.uleb128 0x15
	.long	0xc000
	.quad	.LBI1944
	.value	.LVU6
	.long	.LLRL7
	.byte	0x2
	.value	0x3dd
	.byte	0x10
	.uleb128 0x3
	.long	0xc00e
	.uleb128 0x4
	.long	0xc017
	.long	.LLST10
	.long	.LVUS10
	.byte	0
	.byte	0
	.byte	0
	.uleb128 0x39
	.long	0xc95a
	.quad	.LBI1949
	.value	.LVU13
	.quad	.LBB1949
	.quad	.LBE1949-.LBB1949
	.byte	0x1
	.byte	0x1e
	.byte	0x2d
	.long	0xde0a
	.uleb128 0x4
	.long	0xc968
	.long	.LLST11
	.long	.LVUS11
	.uleb128 0x1f
	.long	0xc711
	.quad	.LBI1950
	.value	.LVU15
	.quad	.LBB1950
	.quad	.LBE1950-.LBB1950
	.byte	0x2
	.value	0x539
	.byte	0xf
	.uleb128 0x4
	.long	0xc71f
	.long	.LLST12
	.long	.LVUS12
	.uleb128 0x1f
	.long	0xc000
	.quad	.LBI1951
	.value	.LVU16
	.quad	.LBB1951
	.quad	.LBE1951-.LBB1951
	.byte	0x2
	.value	0x3dd
	.byte	0x10
	.uleb128 0x3
	.long	0xc00e
	.uleb128 0x4
	.long	0xc017
	.long	.LLST13
	.long	.LVUS13
	.byte	0
	.byte	0
	.byte	0
	.uleb128 0x3a
	.long	0x10ebb
	.quad	.LBI1952
	.value	.LVU25
	.long	.LLRL14
	.byte	0x1
	.byte	0x22
	.byte	0xf
	.long	0xdf29
	.uleb128 0x4
	.long	0x10ecb
	.long	.LLST15
	.long	.LVUS15
	.uleb128 0x62
	.long	0x10eec
	.quad	.LBI1953
	.value	.LVU26
	.long	.LLRL14
	.byte	0x4
	.byte	0xb
	.byte	0x8
	.uleb128 0x4
	.long	0x10efa
	.long	.LLST16
	.long	.LVUS16
	.uleb128 0x15
	.long	0x10f1b
	.quad	.LBI1954
	.value	.LVU27
	.long	.LLRL14
	.byte	0x2
	.value	0x227
	.byte	0x7
	.uleb128 0x4
	.long	0x10f29
	.long	.LLST17
	.long	.LVUS17
	.uleb128 0x15
	.long	0xc92b
	.quad	.LBI1955
	.value	.LVU28
	.long	.LLRL14
	.byte	0x2
	.value	0x141
	.byte	0x7
	.uleb128 0x4
	.long	0xc939
	.long	.LLST18
	.long	.LVUS18
	.uleb128 0x35
	.long	0xc340
	.quad	.LBI1956
	.value	.LVU32
	.long	.LLRL19
	.byte	0x2
	.byte	0x94
	.byte	0x13
	.byte	0x1
	.long	0xdec5
	.uleb128 0x4
	.long	0xc34e
	.long	.LLST20
	.long	.LVUS20
	.byte	0
	.uleb128 0x20
	.long	0xc36f
	.quad	.LBI1959
	.value	.LVU29
	.quad	.LBB1959
	.quad	.LBE1959-.LBB1959
	.byte	0x2
	.byte	0x94
	.byte	0x13
	.uleb128 0x4
	.long	0xc37d
	.long	.LLST21
	.long	.LVUS21
	.uleb128 0x20
	.long	0xb9ee
	.quad	.LBI1960
	.value	.LVU30
	.quad	.LBB1960
	.quad	.LBE1960-.LBB1960
	.byte	0x5
	.byte	0xa8
	.byte	0x24
	.uleb128 0x4
	.long	0xb9fc
	.long	.LLST22
	.long	.LVUS22
	.byte	0
	.byte	0
	.byte	0
	.byte	0
	.byte	0
	.byte	0
	.uleb128 0x3a
	.long	0xc852
	.quad	.LBI1971
	.value	.LVU44
	.long	.LLRL23
	.byte	0x1
	.byte	0x25
	.byte	0x17
	.long	0xe692
	.uleb128 0x4
	.long	0xc860
	.long	.LLST24
	.long	.LVUS24
	.uleb128 0x4
	.long	0xc869
	.long	.LLST25
	.long	.LVUS25
	.uleb128 0x3
	.long	0xc876
	.uleb128 0x15
	.long	0xc229
	.quad	.LBI1972
	.value	.LVU45
	.long	.LLRL23
	.byte	0x2
	.value	0x362
	.byte	0x17
	.uleb128 0x4
	.long	0xc237
	.long	.LLST27
	.long	.LVUS27
	.uleb128 0x4
	.long	0xc240
	.long	.LLST28
	.long	.LVUS28
	.uleb128 0x3
	.long	0xc24d
	.uleb128 0xd5
	.long	0xc25a
	.byte	0
	.uleb128 0x68
	.long	0xc267
	.long	.LLRL30
	.uleb128 0x38
	.long	0xc26d
	.uleb128 0x56
	.long	0xb906
	.quad	.LBI1976
	.value	.LVU706
	.long	.LLRL31
	.byte	0x7
	.value	0x11a
	.byte	0xb
	.byte	0x1
	.long	0xe416
	.uleb128 0x4
	.long	0xb914
	.long	.LLST32
	.long	.LVUS32
	.uleb128 0x4
	.long	0xb91d
	.long	.LLST33
	.long	.LVUS33
	.uleb128 0x3
	.long	0xb92a
	.uleb128 0x4
	.long	0xb937
	.long	.LLST35
	.long	.LVUS35
	.uleb128 0x2d
	.long	0xb141
	.quad	.LBI1977
	.value	.LVU707
	.long	.LLRL36
	.byte	0x2
	.value	0x24f
	.byte	0x2f
	.long	0xe10a
	.uleb128 0x4
	.long	0xb14b
	.long	.LLST37
	.long	.LVUS37
	.uleb128 0x4
	.long	0xb158
	.long	.LLST38
	.long	.LVUS38
	.uleb128 0x2c
	.long	0xba49
	.quad	.LBI1979
	.value	.LVU708
	.quad	.LBB1979
	.quad	.LBE1979-.LBB1979
	.byte	0x2
	.value	0x89d
	.byte	0x18
	.long	0xe099
	.uleb128 0x3
	.long	0xba57
	.uleb128 0x4
	.long	0xba60
	.long	.LLST39
	.long	.LVUS39
	.uleb128 0x20
	.long	0xb196
	.quad	.LBI1980
	.value	.LVU709
	.quad	.LBB1980
	.quad	.LBE1980-.LBB1980
	.byte	0x5
	.byte	0xad
	.byte	0x22
	.uleb128 0x3
	.long	0xb1a4
	.uleb128 0x4
	.long	0xb1ad
	.long	.LLST40
	.long	.LVUS40
	.byte	0
	.byte	0
	.uleb128 0x67
	.long	0xc8fc
	.quad	.LBI1981
	.value	.LVU711
	.quad	.LBB1981
	.quad	.LBE1981-.LBB1981
	.value	0x89d
	.byte	0x18
	.byte	0x2
	.long	0xe0ee
	.uleb128 0x3
	.long	0xc90a
	.uleb128 0x20
	.long	0xc311
	.quad	.LBI1982
	.value	.LVU712
	.quad	.LBB1982
	.quad	.LBE1982-.LBB1982
	.byte	0x5
	.byte	0xbd
	.byte	0x27
	.uleb128 0x3
	.long	0xc31f
	.byte	0
	.byte	0
	.uleb128 0x2a
	.quad	.LVL243
	.long	0x6ce3
	.uleb128 0x14
	.uleb128 0x1
	.byte	0x55
	.uleb128 0x9
	.byte	0x3
	.quad	.LC0
	.byte	0
	.byte	0
	.uleb128 0x56
	.long	0xb0ee
	.quad	.LBI1984
	.value	.LVU716
	.long	.LLRL41
	.byte	0x2
	.value	0x24f
	.byte	0x2f
	.byte	0x1
	.long	0xe329
	.uleb128 0x4
	.long	0xb0fc
	.long	.LLST42
	.long	.LVUS42
	.uleb128 0x4
	.long	0xb105
	.long	.LLST43
	.long	.LVUS43
	.uleb128 0x4
	.long	0xb112
	.long	.LLST44
	.long	.LVUS44
	.uleb128 0x2d
	.long	0xabce
	.quad	.LBI1985
	.value	.LVU723
	.long	.LLRL45
	.byte	0x2
	.value	0x155
	.byte	0x1a
	.long	0xe23b
	.uleb128 0x4
	.long	0xabdc
	.long	.LLST46
	.long	.LVUS46
	.uleb128 0x4
	.long	0xabe5
	.long	.LLST47
	.long	.LVUS47
	.uleb128 0x15
	.long	0xa918
	.quad	.LBI1987
	.value	.LVU724
	.long	.LLRL48
	.byte	0x2
	.value	0x197
	.byte	0x2c
	.uleb128 0x4
	.long	0xa926
	.long	.LLST49
	.long	.LVUS49
	.uleb128 0x4
	.long	0xa92f
	.long	.LLST50
	.long	.LVUS50
	.uleb128 0x48
	.long	0xa6b8
	.quad	.LBI1989
	.value	.LVU725
	.long	.LLRL51
	.byte	0x2
	.value	0x185
	.byte	0x21
	.byte	0x1
	.uleb128 0x4
	.long	0xa6c2
	.long	.LLST52
	.long	.LVUS52
	.uleb128 0x4
	.long	0xa6cf
	.long	.LLST53
	.long	.LVUS53
	.uleb128 0x15
	.long	0xa5df
	.quad	.LBI1990
	.value	.LVU726
	.long	.LLRL54
	.byte	0x8
	.value	0x27e
	.byte	0x1c
	.uleb128 0x4
	.long	0xa5ed
	.long	.LLST55
	.long	.LVUS55
	.uleb128 0x4
	.long	0xa5f6
	.long	.LLST56
	.long	.LVUS56
	.uleb128 0x4
	.long	0xa602
	.long	.LLST57
	.long	.LVUS57
	.uleb128 0x2a
	.quad	.LVL162
	.long	0xa515
	.uleb128 0x14
	.uleb128 0x1
	.byte	0x55
	.uleb128 0x2
	.byte	0x7e
	.sleb128 0
	.byte	0
	.byte	0
	.byte	0
	.byte	0
	.byte	0
	.uleb128 0x1f
	.long	0xabf3
	.quad	.LBI2000
	.value	.LVU717
	.quad	.LBB2000
	.quad	.LBE2000-.LBB2000
	.byte	0x2
	.value	0x154
	.byte	0x9
	.uleb128 0x4
	.long	0xac01
	.long	.LLST58
	.long	.LVUS58
	.uleb128 0x4
	.long	0xac0a
	.long	.LLST59
	.long	.LVUS59
	.uleb128 0x39
	.long	0xba49
	.quad	.LBI2001
	.value	.LVU718
	.quad	.LBB2001
	.quad	.LBE2001-.LBB2001
	.byte	0x2
	.byte	0x99
	.byte	0x16
	.long	0xe2f6
	.uleb128 0x4
	.long	0xba57
	.long	.LLST60
	.long	.LVUS60
	.uleb128 0x4
	.long	0xba60
	.long	.LLST61
	.long	.LVUS61
	.uleb128 0x20
	.long	0xb196
	.quad	.LBI2002
	.value	.LVU719
	.quad	.LBB2002
	.quad	.LBE2002-.LBB2002
	.byte	0x5
	.byte	0xad
	.byte	0x22
	.uleb128 0x4
	.long	0xb1a4
	.long	.LLST62
	.long	.LVUS62
	.uleb128 0x4
	.long	0xb1ad
	.long	.LLST63
	.long	.LVUS63
	.byte	0
	.byte	0
	.uleb128 0x57
	.long	0xc340
	.quad	.LBI2003
	.value	.LVU721
	.quad	.LBB2003
	.quad	.LBE2003-.LBB2003
	.byte	0x2
	.byte	0x99
	.byte	0x16
	.byte	0x1
	.uleb128 0x4
	.long	0xc34e
	.long	.LLST64
	.long	.LVUS64
	.byte	0
	.byte	0
	.byte	0
	.uleb128 0x15
	.long	0xb0bc
	.quad	.LBI2007
	.value	.LVU734
	.long	.LLRL65
	.byte	0x2
	.value	0x250
	.byte	0x1b
	.uleb128 0x4
	.long	0xb0ca
	.long	.LLST66
	.long	.LVUS66
	.uleb128 0x4
	.long	0xb0d3
	.long	.LLST67
	.long	.LVUS67
	.uleb128 0x3
	.long	0xb0e0
	.uleb128 0x15
	.long	0xb807
	.quad	.LBI2008
	.value	.LVU735
	.long	.LLRL65
	.byte	0x2
	.value	0x7c6
	.byte	0x21
	.uleb128 0x4
	.long	0xb835
	.long	.LLST69
	.long	.LVUS69
	.uleb128 0x4
	.long	0xb842
	.long	.LLST70
	.long	.LVUS70
	.uleb128 0x3
	.long	0xb84f
	.uleb128 0x4
	.long	0xb85c
	.long	.LLST72
	.long	.LVUS72
	.uleb128 0x15
	.long	0xafb5
	.quad	.LBI2009
	.value	.LVU736
	.long	.LLRL65
	.byte	0xc
	.value	0x30a
	.byte	0x27
	.uleb128 0x4
	.long	0xafda
	.long	.LLST73
	.long	.LVUS73
	.uleb128 0x4
	.long	0xafe7
	.long	.LLST74
	.long	.LVUS74
	.uleb128 0x3
	.long	0xaff4
	.uleb128 0x68
	.long	0xb001
	.long	.LLRL76
	.uleb128 0x68
	.long	0xb002
	.long	.LLRL77
	.uleb128 0x2e
	.long	0xb003
	.long	.LLST78
	.long	.LVUS78
	.uleb128 0x2a
	.quad	.LVL164
	.long	0x1107d
	.uleb128 0x14
	.uleb128 0x1
	.byte	0x54
	.uleb128 0x1
	.byte	0x30
	.uleb128 0x14
	.uleb128 0x1
	.byte	0x51
	.uleb128 0x2
	.byte	0x7e
	.sleb128 0
	.byte	0
	.byte	0
	.byte	0
	.byte	0
	.byte	0
	.byte	0
	.byte	0
	.uleb128 0x2d
	.long	0xb8d6
	.quad	.LBI2028
	.value	.LVU739
	.long	.LLRL79
	.byte	0x7
	.value	0x11b
	.byte	0x1e
	.long	0xe4b6
	.uleb128 0x4
	.long	0xb8e4
	.long	.LLST80
	.long	.LVUS80
	.uleb128 0x4
	.long	0xb8ed
	.long	.LLST81
	.long	.LVUS81
	.uleb128 0x38
	.long	0xb8f9
	.uleb128 0x39
	.long	0xc340
	.quad	.LBI2030
	.value	.LVU740
	.quad	.LBB2030
	.quad	.LBE2030-.LBB2030
	.byte	0x2
	.byte	0x84
	.byte	0x16
	.long	0xe484
	.uleb128 0x4
	.long	0xc34e
	.long	.LLST82
	.long	.LVUS82
	.byte	0
	.uleb128 0x62
	.long	0xb098
	.quad	.LBI2031
	.value	.LVU742
	.long	.LLRL83
	.byte	0x2
	.byte	0x87
	.byte	0x14
	.uleb128 0x4
	.long	0xb0a6
	.long	.LLST84
	.long	.LVUS84
	.uleb128 0x4
	.long	0xb0af
	.long	.LLST85
	.long	.LVUS85
	.byte	0
	.byte	0
	.uleb128 0x1f
	.long	0xc884
	.quad	.LBI2041
	.value	.LVU750
	.quad	.LBB2041
	.quad	.LBE2041-.LBB2041
	.byte	0x7
	.value	0x11c
	.byte	0x2
	.uleb128 0x4
	.long	0xc892
	.long	.LLST86
	.long	.LVUS86
	.uleb128 0x2c
	.long	0xc2c7
	.quad	.LBI2042
	.value	.LVU751
	.quad	.LBB2042
	.quad	.LBE2042-.LBB2042
	.byte	0x2
	.value	0x319
	.byte	0x1c
	.long	0xe51b
	.uleb128 0x4
	.long	0xc2d5
	.long	.LLST87
	.long	.LVUS87
	.byte	0
	.uleb128 0x2c
	.long	0xc28b
	.quad	.LBI2043
	.value	.LVU753
	.quad	.LBB2043
	.quad	.LBE2043-.LBB2043
	.byte	0x2
	.value	0x318
	.byte	0xf
	.long	0xe55a
	.uleb128 0x3
	.long	0xc2a7
	.uleb128 0x3
	.long	0xc2b4
	.uleb128 0x4
	.long	0xc2c1
	.long	.LLST88
	.long	.LVUS88
	.byte	0
	.uleb128 0x1f
	.long	0xc8b3
	.quad	.LBI2044
	.value	.LVU755
	.quad	.LBB2044
	.quad	.LBE2044-.LBB2044
	.byte	0x2
	.value	0x31b
	.byte	0x7
	.uleb128 0x4
	.long	0xc8c1
	.long	.LLST89
	.long	.LVUS89
	.uleb128 0x79
	.long	0xc8ca
	.quad	.LBB2045
	.quad	.LBE2045-.LBB2045
	.long	0xe5fc
	.uleb128 0x2e
	.long	0xc8cb
	.long	.LLST90
	.long	.LVUS90
	.uleb128 0x1f
	.long	0xc2df
	.quad	.LBI2046
	.value	.LVU756
	.quad	.LBB2046
	.quad	.LBE2046-.LBB2046
	.byte	0x2
	.value	0x17a
	.byte	0xf
	.uleb128 0x4
	.long	0xc2ed
	.long	.LLST91
	.long	.LVUS91
	.uleb128 0x4
	.long	0xc2f6
	.long	.LLST92
	.long	.LVUS92
	.uleb128 0x4
	.long	0xc303
	.long	.LLST92
	.long	.LVUS92
	.byte	0
	.byte	0
	.uleb128 0x1f
	.long	0x10f4a
	.quad	.LBI2047
	.value	.LVU758
	.quad	.LBB2047
	.quad	.LBE2047-.LBB2047
	.byte	0x2
	.value	0x17b
	.byte	0x7
	.uleb128 0x4
	.long	0x10f5a
	.long	.LLST94
	.long	.LVUS94
	.uleb128 0x20
	.long	0xc8fc
	.quad	.LBI2048
	.value	.LVU759
	.quad	.LBB2048
	.quad	.LBE2048-.LBB2048
	.byte	0x2
	.byte	0x8b
	.byte	0xe
	.uleb128 0x4
	.long	0xc90a
	.long	.LLST95
	.long	.LVUS95
	.uleb128 0x20
	.long	0xc311
	.quad	.LBI2049
	.value	.LVU760
	.quad	.LBB2049
	.quad	.LBE2049-.LBB2049
	.byte	0x5
	.byte	0xbd
	.byte	0x27
	.uleb128 0x4
	.long	0xc31f
	.long	.LLST96
	.long	.LVUS96
	.byte	0
	.byte	0
	.byte	0
	.byte	0
	.byte	0
	.byte	0
	.byte	0
	.byte	0
	.uleb128 0x3a
	.long	0x10e07
	.quad	.LBI2066
	.value	.LVU49
	.long	.LLRL97
	.byte	0x1
	.byte	0x27
	.byte	0x1c
	.long	0xe776
	.uleb128 0x4
	.long	0x10e15
	.long	.LLST98
	.long	.LVUS98
	.uleb128 0x15
	.long	0x10e32
	.quad	.LBI2067
	.value	.LVU50
	.long	.LLRL97
	.byte	0x2
	.value	0x227
	.byte	0x7
	.uleb128 0x4
	.long	0x10e40
	.long	.LLST99
	.long	.LVUS99
	.uleb128 0x15
	.long	0xc827
	.quad	.LBI2068
	.value	.LVU51
	.long	.LLRL97
	.byte	0x2
	.value	0x141
	.byte	0x7
	.uleb128 0x4
	.long	0xc835
	.long	.LLST100
	.long	.LVUS100
	.uleb128 0x3a
	.long	0xc1fe
	.quad	.LBI2069
	.value	.LVU52
	.long	.LLRL101
	.byte	0x2
	.byte	0x94
	.byte	0x13
	.long	0xe74d
	.uleb128 0x4
	.long	0xc20c
	.long	.LLST102
	.long	.LVUS102
	.uleb128 0x62
	.long	0xb75b
	.quad	.LBI2070
	.value	.LVU53
	.long	.LLRL101
	.byte	0x5
	.byte	0xa8
	.byte	0x24
	.uleb128 0x4
	.long	0xb769
	.long	.LLST103
	.long	.LVUS103
	.byte	0
	.byte	0
	.uleb128 0x98
	.long	0xc1d3
	.quad	.LBI2072
	.value	.LVU55
	.long	.LLRL104
	.byte	0x2
	.byte	0x94
	.byte	0x13
	.byte	0x1
	.uleb128 0x4
	.long	0xc1e1
	.long	.LLST105
	.long	.LVUS105
	.byte	0
	.byte	0
	.byte	0
	.byte	0
	.uleb128 0x3a
	.long	0xc767
	.quad	.LBI2101
	.value	.LVU58
	.long	.LLRL106
	.byte	0x1
	.byte	0x28
	.byte	0x13
	.long	0xe7a3
	.uleb128 0x4
	.long	0xc775
	.long	.LLST107
	.long	.LVUS107
	.uleb128 0x38
	.long	0xc77e
	.byte	0
	.uleb128 0x35
	.long	0xc729
	.quad	.LBI2106
	.value	.LVU61
	.long	.LLRL108
	.byte	0x1
	.byte	0x28
	.byte	0x13
	.byte	0x1
	.long	0xe8b5
	.uleb128 0x4
	.long	0xc737
	.long	.LLST109
	.long	.LVUS109
	.uleb128 0x4
	.long	0xc740
	.long	.LLST110
	.long	.LVUS110
	.uleb128 0xd6
	.long	0xc74c
	.quad	.LBB2108
	.quad	.LBE2108-.LBB2108
	.uleb128 0x2e
	.long	0xc74d
	.long	.LLST111
	.long	.LVUS111
	.uleb128 0x2e
	.long	0xc759
	.long	.LLST112
	.long	.LVUS112
	.uleb128 0x20
	.long	0xc09b
	.quad	.LBI2109
	.value	.LVU68
	.quad	.LBB2109
	.quad	.LBE2109-.LBB2109
	.byte	0x7
	.byte	0x52
	.byte	0x21
	.uleb128 0x4
	.long	0xc0a9
	.long	.LLST113
	.long	.LVUS113
	.uleb128 0x3
	.long	0xc0b2
	.uleb128 0x48
	.long	0xb68e
	.quad	.LBI2111
	.value	.LVU69
	.long	.LLRL114
	.byte	0x2
	.value	0x185
	.byte	0x21
	.byte	0x1
	.uleb128 0x4
	.long	0xb698
	.long	.LLST115
	.long	.LVUS115
	.uleb128 0x3
	.long	0xb6a5
	.uleb128 0x15
	.long	0xaed8
	.quad	.LBI2112
	.value	.LVU70
	.long	.LLRL114
	.byte	0x8
	.value	0x27e
	.byte	0x1c
	.uleb128 0x4
	.long	0xaefb
	.long	.LLST116
	.long	.LVUS116
	.uleb128 0x4
	.long	0xaee6
	.long	.LLST117
	.long	.LVUS117
	.uleb128 0x3
	.long	0xaeef
	.uleb128 0x2a
	.quad	.LVL13
	.long	0xa515
	.uleb128 0x14
	.uleb128 0x1
	.byte	0x55
	.uleb128 0x2
	.byte	0x7e
	.sleb128 0
	.byte	0
	.byte	0
	.byte	0
	.byte	0
	.byte	0
	.byte	0
	.uleb128 0x35
	.long	0xc78c
	.quad	.LBI2272
	.value	.LVU662
	.long	.LLRL202
	.byte	0x1
	.byte	0x8f
	.byte	0x1
	.byte	0x3
	.long	0xeb35
	.uleb128 0x4
	.long	0xc79a
	.long	.LLST203
	.long	.LVUS203
	.uleb128 0x2d
	.long	0xc7b7
	.quad	.LBI2273
	.value	.LVU667
	.long	.LLRL204
	.byte	0x2
	.value	0x31b
	.byte	0x7
	.long	0xeac4
	.uleb128 0x4
	.long	0xc7c5
	.long	.LLST205
	.long	.LVUS205
	.uleb128 0x5d
	.long	0xc7ce
	.long	.LLRL206
	.long	0xea32
	.uleb128 0x38
	.long	0xc7cf
	.uleb128 0x1f
	.long	0xc176
	.quad	.LBI2275
	.value	.LVU668
	.quad	.LBB2275
	.quad	.LBE2275-.LBB2275
	.byte	0x2
	.value	0x17a
	.byte	0xf
	.uleb128 0x4
	.long	0xc184
	.long	.LLST207
	.long	.LVUS207
	.uleb128 0x4
	.long	0xc18d
	.long	.LLST208
	.long	.LVUS208
	.uleb128 0x3
	.long	0xc19a
	.uleb128 0x1f
	.long	0xc176
	.quad	.LBI2277
	.value	.LVU670
	.quad	.LBB2277
	.quad	.LBE2277-.LBB2277
	.byte	0x2
	.value	0x18a
	.byte	0x7
	.uleb128 0x4
	.long	0xc184
	.long	.LLST209
	.long	.LVUS209
	.uleb128 0x4
	.long	0xc18d
	.long	.LLST210
	.long	.LVUS210
	.uleb128 0x3
	.long	0xc19a
	.uleb128 0x1f
	.long	0xb729
	.quad	.LBI2279
	.value	.LVU671
	.quad	.LBB2279
	.quad	.LBE2279-.LBB2279
	.byte	0x2
	.value	0x18e
	.byte	0x13
	.uleb128 0x3
	.long	0xb733
	.uleb128 0x4
	.long	0xb740
	.long	.LLST211
	.long	.LVUS211
	.uleb128 0x3
	.long	0xb74d
	.uleb128 0x1f
	.long	0xaf19
	.quad	.LBI2280
	.value	.LVU672
	.quad	.LBB2280
	.quad	.LBE2280-.LBB2280
	.byte	0x8
	.value	0x2b1
	.byte	0x17
	.uleb128 0x3
	.long	0xaf27
	.uleb128 0x4
	.long	0xaf30
	.long	.LLST212
	.long	.LVUS212
	.uleb128 0x3
	.long	0xaf3c
	.uleb128 0x2a
	.quad	.LVL151
	.long	0xa4fa
	.uleb128 0x14
	.uleb128 0x1
	.byte	0x55
	.uleb128 0x4
	.byte	0x91
	.sleb128 -192
	.byte	0x6
	.uleb128 0x14
	.uleb128 0x1
	.byte	0x54
	.uleb128 0x4
	.byte	0x91
	.sleb128 -144
	.byte	0x6
	.byte	0
	.byte	0
	.byte	0
	.byte	0
	.byte	0
	.byte	0
	.uleb128 0x1f
	.long	0x10e5d
	.quad	.LBI2283
	.value	.LVU675
	.quad	.LBB2283
	.quad	.LBE2283-.LBB2283
	.byte	0x2
	.value	0x17b
	.byte	0x7
	.uleb128 0x4
	.long	0x10e6d
	.long	.LLST213
	.long	.LVUS213
	.uleb128 0x20
	.long	0xc7fc
	.quad	.LBI2284
	.value	.LVU676
	.quad	.LBB2284
	.quad	.LBE2284-.LBB2284
	.byte	0x2
	.byte	0x8b
	.byte	0xe
	.uleb128 0x4
	.long	0xc80a
	.long	.LLST214
	.long	.LVUS214
	.uleb128 0x20
	.long	0xc1a8
	.quad	.LBI2285
	.value	.LVU677
	.quad	.LBB2285
	.quad	.LBE2285-.LBB2285
	.byte	0x5
	.byte	0xbd
	.byte	0x27
	.uleb128 0x4
	.long	0xc1b6
	.long	.LLST215
	.long	.LVUS215
	.byte	0
	.byte	0
	.byte	0
	.byte	0
	.uleb128 0x2c
	.long	0xc15e
	.quad	.LBI2286
	.value	.LVU663
	.quad	.LBB2286
	.quad	.LBE2286-.LBB2286
	.byte	0x2
	.value	0x319
	.byte	0x1c
	.long	0xeaf9
	.uleb128 0x4
	.long	0xc16c
	.long	.LLST216
	.long	.LVUS216
	.byte	0
	.uleb128 0x1f
	.long	0xc122
	.quad	.LBI2287
	.value	.LVU665
	.quad	.LBB2287
	.quad	.LBE2287-.LBB2287
	.byte	0x2
	.value	0x318
	.byte	0xf
	.uleb128 0x3
	.long	0xc13e
	.uleb128 0x3
	.long	0xc14b
	.uleb128 0x4
	.long	0xc158
	.long	.LLST217
	.long	.LVUS217
	.byte	0
	.byte	0
	.uleb128 0x39
	.long	0xc633
	.quad	.LBI2289
	.value	.LVU176
	.quad	.LBB2289
	.quad	.LBE2289-.LBB2289
	.byte	0x1
	.byte	0x44
	.byte	0x2e
	.long	0xeb89
	.uleb128 0x3
	.long	0xc641
	.uleb128 0x20
	.long	0xbebe
	.quad	.LBI2290
	.value	.LVU177
	.quad	.LBB2290
	.quad	.LBE2290-.LBB2290
	.byte	0x5
	.byte	0xa8
	.byte	0x24
	.uleb128 0x3
	.long	0xbecc
	.byte	0
	.byte	0
	.uleb128 0x35
	.long	0xc59f
	.quad	.LBI2291
	.value	.LVU179
	.long	.LLRL220
	.byte	0x1
	.byte	0x44
	.byte	0x2e
	.byte	0x1
	.long	0xeffe
	.uleb128 0x3
	.long	0xc5ad
	.uleb128 0x4
	.long	0xc5b6
	.long	.LLST221
	.long	.LVUS221
	.uleb128 0x3
	.long	0xc5c3
	.uleb128 0x3
	.long	0xc5d0
	.uleb128 0x2d
	.long	0xbe6a
	.quad	.LBI2292
	.value	.LVU180
	.long	.LLRL224
	.byte	0x2
	.value	0x24f
	.byte	0x2f
	.long	0xecbd
	.uleb128 0x4
	.long	0xbe74
	.long	.LLST225
	.long	.LVUS225
	.uleb128 0x3
	.long	0xbe81
	.uleb128 0x2c
	.long	0xb467
	.quad	.LBI2294
	.value	.LVU181
	.quad	.LBB2294
	.quad	.LBE2294-.LBB2294
	.byte	0x2
	.value	0x89d
	.byte	0x18
	.long	0xec4c
	.uleb128 0x3
	.long	0xb475
	.uleb128 0x3
	.long	0xb47e
	.uleb128 0x20
	.long	0xae54
	.quad	.LBI2295
	.value	.LVU182
	.quad	.LBB2295
	.quad	.LBE2295-.LBB2295
	.byte	0x5
	.byte	0xad
	.byte	0x22
	.uleb128 0x3
	.long	0xae62
	.uleb128 0x3
	.long	0xae6b
	.byte	0
	.byte	0
	.uleb128 0x67
	.long	0xc604
	.quad	.LBI2296
	.value	.LVU184
	.quad	.LBB2296
	.quad	.LBE2296-.LBB2296
	.value	0x89d
	.byte	0x18
	.byte	0x2
	.long	0xeca1
	.uleb128 0x3
	.long	0xc612
	.uleb128 0x20
	.long	0xbe8f
	.quad	.LBI2297
	.value	.LVU185
	.quad	.LBB2297
	.quad	.LBE2297-.LBB2297
	.byte	0x5
	.byte	0xbd
	.byte	0x27
	.uleb128 0x3
	.long	0xbe9d
	.byte	0
	.byte	0
	.uleb128 0x2a
	.quad	.LVL223
	.long	0x6ce3
	.uleb128 0x14
	.uleb128 0x1
	.byte	0x55
	.uleb128 0x9
	.byte	0x3
	.quad	.LC0
	.byte	0
	.byte	0
	.uleb128 0x56
	.long	0xbde6
	.quad	.LBI2299
	.value	.LVU188
	.long	.LLRL229
	.byte	0x2
	.value	0x24f
	.byte	0x2f
	.byte	0x1
	.long	0xee74
	.uleb128 0x3
	.long	0xbdf4
	.uleb128 0x4
	.long	0xbdfd
	.long	.LLST230
	.long	.LVUS230
	.uleb128 0x3
	.long	0xbe0a
	.uleb128 0x2c
	.long	0xb427
	.quad	.LBI2300
	.value	.LVU189
	.quad	.LBB2300
	.quad	.LBE2300-.LBB2300
	.byte	0x2
	.value	0x154
	.byte	0x9
	.long	0xeda9
	.uleb128 0x3
	.long	0xb435
	.uleb128 0x3
	.long	0xb43e
	.uleb128 0x39
	.long	0xb467
	.quad	.LBI2301
	.value	.LVU190
	.quad	.LBB2301
	.quad	.LBE2301-.LBB2301
	.byte	0x2
	.byte	0x99
	.byte	0x16
	.long	0xed7f
	.uleb128 0x3
	.long	0xb475
	.uleb128 0x3
	.long	0xb47e
	.uleb128 0x20
	.long	0xae54
	.quad	.LBI2302
	.value	.LVU191
	.quad	.LBB2302
	.quad	.LBE2302-.LBB2302
	.byte	0x5
	.byte	0xad
	.byte	0x22
	.uleb128 0x3
	.long	0xae62
	.uleb128 0x3
	.long	0xae6b
	.byte	0
	.byte	0
	.uleb128 0x57
	.long	0xae25
	.quad	.LBI2303
	.value	.LVU193
	.quad	.LBB2303
	.quad	.LBE2303-.LBB2303
	.byte	0x2
	.byte	0x99
	.byte	0x16
	.byte	0x1
	.uleb128 0x3
	.long	0xae33
	.byte	0
	.byte	0
	.uleb128 0x15
	.long	0xb402
	.quad	.LBI2304
	.value	.LVU195
	.long	.LLRL235
	.byte	0x2
	.value	0x155
	.byte	0x1a
	.uleb128 0x3
	.long	0xb410
	.uleb128 0x4
	.long	0xb419
	.long	.LLST236
	.long	.LVUS236
	.uleb128 0x15
	.long	0xae00
	.quad	.LBI2306
	.value	.LVU196
	.long	.LLRL237
	.byte	0x2
	.value	0x197
	.byte	0x2c
	.uleb128 0x3
	.long	0xae0e
	.uleb128 0x4
	.long	0xae17
	.long	.LLST238
	.long	.LVUS238
	.uleb128 0x48
	.long	0xaa97
	.quad	.LBI2308
	.value	.LVU200
	.long	.LLRL239
	.byte	0x2
	.value	0x185
	.byte	0x21
	.byte	0x1
	.uleb128 0x3
	.long	0xaaa1
	.uleb128 0x4
	.long	0xaaae
	.long	.LLST240
	.long	.LVUS240
	.uleb128 0x15
	.long	0xa877
	.quad	.LBI2309
	.value	.LVU201
	.long	.LLRL241
	.byte	0x8
	.value	0x27e
	.byte	0x1c
	.uleb128 0x3
	.long	0xa885
	.uleb128 0x4
	.long	0xa89a
	.long	.LLST242
	.long	.LVUS242
	.uleb128 0x4
	.long	0xa88e
	.long	.LLST243
	.long	.LVUS243
	.uleb128 0x2a
	.quad	.LVL46
	.long	0xa515
	.uleb128 0x14
	.uleb128 0x1
	.byte	0x55
	.uleb128 0x2
	.byte	0x76
	.sleb128 0
	.byte	0
	.byte	0
	.byte	0
	.byte	0
	.byte	0
	.byte	0
	.uleb128 0x15
	.long	0xbd6b
	.quad	.LBI2324
	.value	.LVU206
	.long	.LLRL244
	.byte	0x2
	.value	0x250
	.byte	0x1b
	.uleb128 0x3
	.long	0xbd79
	.uleb128 0x4
	.long	0xbd82
	.long	.LLST245
	.long	.LVUS245
	.uleb128 0x3
	.long	0xbd8f
	.uleb128 0x15
	.long	0xb375
	.quad	.LBI2325
	.value	.LVU207
	.long	.LLRL244
	.byte	0x2
	.value	0x7c6
	.byte	0x21
	.uleb128 0x4
	.long	0xb3a3
	.long	.LLST247
	.long	.LVUS247
	.uleb128 0x4
	.long	0xb3b0
	.long	.LLST248
	.long	.LVUS248
	.uleb128 0x3
	.long	0xb3bd
	.uleb128 0x3
	.long	0xb3ca
	.uleb128 0x15
	.long	0xad81
	.quad	.LBI2326
	.value	.LVU208
	.long	.LLRL244
	.byte	0xc
	.value	0x30a
	.byte	0x27
	.uleb128 0x4
	.long	0xada6
	.long	.LLST250
	.long	.LVUS250
	.uleb128 0x4
	.long	0xadb3
	.long	.LLST251
	.long	.LVUS251
	.uleb128 0x3
	.long	0xadc0
	.uleb128 0x15
	.long	0xaa0d
	.quad	.LBI2328
	.value	.LVU209
	.long	.LLRL253
	.byte	0xc
	.value	0x253
	.byte	0x25
	.uleb128 0x4
	.long	0xaa32
	.long	.LLST254
	.long	.LVUS254
	.uleb128 0x4
	.long	0xaa3f
	.long	.LLST255
	.long	.LVUS255
	.uleb128 0x3
	.long	0xaa4c
	.uleb128 0x38
	.long	0xaa59
	.uleb128 0x99
	.long	0xa7ca
	.long	.LLRL257
	.long	0xef86
	.uleb128 0x3
	.long	0xa7ec
	.uleb128 0x3
	.long	0xa801
	.uleb128 0x2a
	.quad	.LVL48
	.long	0x1107d
	.uleb128 0x14
	.uleb128 0x1
	.byte	0x55
	.uleb128 0x2
	.byte	0x7f
	.sleb128 0
	.uleb128 0x14
	.uleb128 0x1
	.byte	0x54
	.uleb128 0x1
	.byte	0x30
	.uleb128 0x14
	.uleb128 0x1
	.byte	0x51
	.uleb128 0x2
	.byte	0x76
	.sleb128 0
	.byte	0
	.byte	0
	.uleb128 0x2c
	.long	0xa837
	.quad	.LBI2333
	.value	.LVU210
	.quad	.LBB2333
	.quad	.LBE2333-.LBB2333
	.byte	0xc
	.value	0x1df
	.byte	0x2d
	.long	0xefc8
	.uleb128 0x4
	.long	0xa845
	.long	.LLST258
	.long	.LVUS258
	.uleb128 0x4
	.long	0xa84e
	.long	.LLST259
	.long	.LVUS259
	.byte	0
	.uleb128 0x1f
	.long	0xa808
	.quad	.LBI2335
	.value	.LVU217
	.quad	.LBB2335
	.quad	.LBE2335-.LBB2335
	.byte	0xc
	.value	0x1ef
	.byte	0x5
	.uleb128 0x4
	.long	0xa816
	.long	.LLST260
	.long	.LVUS260
	.byte	0
	.byte	0
	.byte	0
	.byte	0
	.byte	0
	.byte	0
	.uleb128 0x49
	.long	0xc604
	.quad	.LBI2345
	.value	.LVU219
	.quad	.LBB2345
	.quad	.LBE2345-.LBB2345
	.byte	0x44
	.byte	0x2e
	.byte	0x2
	.long	0xf052
	.uleb128 0x3
	.long	0xc612
	.uleb128 0x20
	.long	0xbe8f
	.quad	.LBI2346
	.value	.LVU220
	.quad	.LBB2346
	.quad	.LBE2346-.LBB2346
	.byte	0x5
	.byte	0xbd
	.byte	0x27
	.uleb128 0x3
	.long	0xbe9d
	.byte	0
	.byte	0
	.uleb128 0x39
	.long	0xc633
	.quad	.LBI2347
	.value	.LVU223
	.quad	.LBB2347
	.quad	.LBE2347-.LBB2347
	.byte	0x1
	.byte	0x45
	.byte	0x38
	.long	0xf0a6
	.uleb128 0x3
	.long	0xc641
	.uleb128 0x20
	.long	0xbebe
	.quad	.LBI2348
	.value	.LVU224
	.quad	.LBB2348
	.quad	.LBE2348-.LBB2348
	.byte	0x5
	.byte	0xa8
	.byte	0x24
	.uleb128 0x3
	.long	0xbecc
	.byte	0
	.byte	0
	.uleb128 0x35
	.long	0xc59f
	.quad	.LBI2349
	.value	.LVU230
	.long	.LLRL265
	.byte	0x1
	.byte	0x45
	.byte	0x38
	.byte	0x1
	.long	0xf50f
	.uleb128 0x3
	.long	0xc5ad
	.uleb128 0x4
	.long	0xc5b6
	.long	.LLST266
	.long	.LVUS266
	.uleb128 0x3
	.long	0xc5c3
	.uleb128 0x3
	.long	0xc5d0
	.uleb128 0x2d
	.long	0xbe6a
	.quad	.LBI2350
	.value	.LVU231
	.long	.LLRL269
	.byte	0x2
	.value	0x24f
	.byte	0x2f
	.long	0xf1da
	.uleb128 0x4
	.long	0xbe74
	.long	.LLST270
	.long	.LVUS270
	.uleb128 0x3
	.long	0xbe81
	.uleb128 0x2c
	.long	0xb467
	.quad	.LBI2352
	.value	.LVU232
	.quad	.LBB2352
	.quad	.LBE2352-.LBB2352
	.byte	0x2
	.value	0x89d
	.byte	0x18
	.long	0xf169
	.uleb128 0x3
	.long	0xb475
	.uleb128 0x3
	.long	0xb47e
	.uleb128 0x20
	.long	0xae54
	.quad	.LBI2353
	.value	.LVU233
	.quad	.LBB2353
	.quad	.LBE2353-.LBB2353
	.byte	0x5
	.byte	0xad
	.byte	0x22
	.uleb128 0x3
	.long	0xae62
	.uleb128 0x3
	.long	0xae6b
	.byte	0
	.byte	0
	.uleb128 0x67
	.long	0xc604
	.quad	.LBI2354
	.value	.LVU235
	.quad	.LBB2354
	.quad	.LBE2354-.LBB2354
	.value	0x89d
	.byte	0x18
	.byte	0x2
	.long	0xf1be
	.uleb128 0x3
	.long	0xc612
	.uleb128 0x20
	.long	0xbe8f
	.quad	.LBI2355
	.value	.LVU236
	.quad	.LBB2355
	.quad	.LBE2355-.LBB2355
	.byte	0x5
	.byte	0xbd
	.byte	0x27
	.uleb128 0x3
	.long	0xbe9d
	.byte	0
	.byte	0
	.uleb128 0x2a
	.quad	.LVL238
	.long	0x6ce3
	.uleb128 0x14
	.uleb128 0x1
	.byte	0x55
	.uleb128 0x9
	.byte	0x3
	.quad	.LC0
	.byte	0
	.byte	0
	.uleb128 0x56
	.long	0xbde6
	.quad	.LBI2357
	.value	.LVU240
	.long	.LLRL274
	.byte	0x2
	.value	0x24f
	.byte	0x2f
	.byte	0x1
	.long	0xf383
	.uleb128 0x3
	.long	0xbdf4
	.uleb128 0x4
	.long	0xbdfd
	.long	.LLST275
	.long	.LVUS275
	.uleb128 0x3
	.long	0xbe0a
	.uleb128 0x2c
	.long	0xb427
	.quad	.LBI2358
	.value	.LVU241
	.quad	.LBB2358
	.quad	.LBE2358-.LBB2358
	.byte	0x2
	.value	0x154
	.byte	0x9
	.long	0xf2c6
	.uleb128 0x3
	.long	0xb435
	.uleb128 0x3
	.long	0xb43e
	.uleb128 0x39
	.long	0xb467
	.quad	.LBI2359
	.value	.LVU242
	.quad	.LBB2359
	.quad	.LBE2359-.LBB2359
	.byte	0x2
	.byte	0x99
	.byte	0x16
	.long	0xf29c
	.uleb128 0x3
	.long	0xb475
	.uleb128 0x3
	.long	0xb47e
	.uleb128 0x20
	.long	0xae54
	.quad	.LBI2360
	.value	.LVU243
	.quad	.LBB2360
	.quad	.LBE2360-.LBB2360
	.byte	0x5
	.byte	0xad
	.byte	0x22
	.uleb128 0x3
	.long	0xae62
	.uleb128 0x3
	.long	0xae6b
	.byte	0
	.byte	0
	.uleb128 0x57
	.long	0xae25
	.quad	.LBI2361
	.value	.LVU245
	.quad	.LBB2361
	.quad	.LBE2361-.LBB2361
	.byte	0x2
	.byte	0x99
	.byte	0x16
	.byte	0x1
	.uleb128 0x3
	.long	0xae33
	.byte	0
	.byte	0
	.uleb128 0x15
	.long	0xb402
	.quad	.LBI2362
	.value	.LVU247
	.long	.LLRL280
	.byte	0x2
	.value	0x155
	.byte	0x1a
	.uleb128 0x3
	.long	0xb410
	.uleb128 0x4
	.long	0xb419
	.long	.LLST281
	.long	.LVUS281
	.uleb128 0x15
	.long	0xae00
	.quad	.LBI2364
	.value	.LVU248
	.long	.LLRL282
	.byte	0x2
	.value	0x197
	.byte	0x2c
	.uleb128 0x3
	.long	0xae0e
	.uleb128 0x4
	.long	0xae17
	.long	.LLST283
	.long	.LVUS283
	.uleb128 0x48
	.long	0xaa97
	.quad	.LBI2366
	.value	.LVU251
	.long	.LLRL284
	.byte	0x2
	.value	0x185
	.byte	0x21
	.byte	0x1
	.uleb128 0x3
	.long	0xaaa1
	.uleb128 0x3
	.long	0xaaae
	.uleb128 0x15
	.long	0xa877
	.quad	.LBI2367
	.value	.LVU252
	.long	.LLRL285
	.byte	0x8
	.value	0x27e
	.byte	0x1c
	.uleb128 0x3
	.long	0xa885
	.uleb128 0x4
	.long	0xa89a
	.long	.LLST286
	.long	.LVUS286
	.uleb128 0x3
	.long	0xa88e
	.uleb128 0x2a
	.quad	.LVL55
	.long	0xa515
	.uleb128 0x14
	.uleb128 0x1
	.byte	0x55
	.uleb128 0x4
	.byte	0x91
	.sleb128 -152
	.byte	0x6
	.byte	0
	.byte	0
	.byte	0
	.byte	0
	.byte	0
	.byte	0
	.uleb128 0x15
	.long	0xbd6b
	.quad	.LBI2382
	.value	.LVU258
	.long	.LLRL287
	.byte	0x2
	.value	0x250
	.byte	0x1b
	.uleb128 0x3
	.long	0xbd79
	.uleb128 0x4
	.long	0xbd82
	.long	.LLST288
	.long	.LVUS288
	.uleb128 0x3
	.long	0xbd8f
	.uleb128 0x15
	.long	0xb375
	.quad	.LBI2383
	.value	.LVU259
	.long	.LLRL287
	.byte	0x2
	.value	0x7c6
	.byte	0x21
	.uleb128 0x4
	.long	0xb3a3
	.long	.LLST290
	.long	.LVUS290
	.uleb128 0x4
	.long	0xb3b0
	.long	.LLST291
	.long	.LVUS291
	.uleb128 0x3
	.long	0xb3bd
	.uleb128 0x3
	.long	0xb3ca
	.uleb128 0x15
	.long	0xad81
	.quad	.LBI2384
	.value	.LVU260
	.long	.LLRL287
	.byte	0xc
	.value	0x30a
	.byte	0x27
	.uleb128 0x4
	.long	0xada6
	.long	.LLST293
	.long	.LVUS293
	.uleb128 0x4
	.long	0xadb3
	.long	.LLST294
	.long	.LVUS294
	.uleb128 0x3
	.long	0xadc0
	.uleb128 0x15
	.long	0xaa0d
	.quad	.LBI2386
	.value	.LVU261
	.long	.LLRL296
	.byte	0xc
	.value	0x253
	.byte	0x25
	.uleb128 0x4
	.long	0xaa32
	.long	.LLST297
	.long	.LVUS297
	.uleb128 0x4
	.long	0xaa3f
	.long	.LLST298
	.long	.LVUS298
	.uleb128 0x3
	.long	0xaa4c
	.uleb128 0x38
	.long	0xaa59
	.uleb128 0x99
	.long	0xa7ca
	.long	.LLRL300
	.long	0xf497
	.uleb128 0x3
	.long	0xa7ec
	.uleb128 0x3
	.long	0xa801
	.uleb128 0x2a
	.quad	.LVL57
	.long	0x1107d
	.uleb128 0x14
	.uleb128 0x1
	.byte	0x55
	.uleb128 0x2
	.byte	0x76
	.sleb128 0
	.uleb128 0x14
	.uleb128 0x1
	.byte	0x54
	.uleb128 0x1
	.byte	0x30
	.uleb128 0x14
	.uleb128 0x1
	.byte	0x51
	.uleb128 0x4
	.byte	0x91
	.sleb128 -152
	.byte	0x6
	.byte	0
	.byte	0
	.uleb128 0x2c
	.long	0xa837
	.quad	.LBI2391
	.value	.LVU262
	.quad	.LBB2391
	.quad	.LBE2391-.LBB2391
	.byte	0xc
	.value	0x1df
	.byte	0x2d
	.long	0xf4d9
	.uleb128 0x4
	.long	0xa845
	.long	.LLST301
	.long	.LVUS301
	.uleb128 0x4
	.long	0xa84e
	.long	.LLST302
	.long	.LVUS302
	.byte	0
	.uleb128 0x1f
	.long	0xa808
	.quad	.LBI2393
	.value	.LVU269
	.quad	.LBB2393
	.quad	.LBE2393-.LBB2393
	.byte	0xc
	.value	0x1ef
	.byte	0x5
	.uleb128 0x4
	.long	0xa816
	.long	.LLST303
	.long	.LVUS303
	.byte	0
	.byte	0
	.byte	0
	.byte	0
	.byte	0
	.byte	0
	.uleb128 0x49
	.long	0xc604
	.quad	.LBI2403
	.value	.LVU271
	.quad	.LBB2403
	.quad	.LBE2403-.LBB2403
	.byte	0x45
	.byte	0x38
	.byte	0x2
	.long	0xf563
	.uleb128 0x3
	.long	0xc612
	.uleb128 0x20
	.long	0xbe8f
	.quad	.LBI2404
	.value	.LVU272
	.quad	.LBB2404
	.quad	.LBE2404-.LBB2404
	.byte	0x5
	.byte	0xbd
	.byte	0x27
	.uleb128 0x3
	.long	0xbe9d
	.byte	0
	.byte	0
	.uleb128 0x39
	.long	0xc541
	.quad	.LBI2405
	.value	.LVU275
	.quad	.LBB2405
	.quad	.LBE2405-.LBB2405
	.byte	0x1
	.byte	0x46
	.byte	0x2f
	.long	0xf5b7
	.uleb128 0x3
	.long	0xc54f
	.uleb128 0x20
	.long	0xbce8
	.quad	.LBI2406
	.value	.LVU276
	.quad	.LBB2406
	.quad	.LBE2406-.LBB2406
	.byte	0x5
	.byte	0xa8
	.byte	0x24
	.uleb128 0x3
	.long	0xbcf6
	.byte	0
	.byte	0
	.uleb128 0x35
	.long	0xc4bf
	.quad	.LBI2407
	.value	.LVU278
	.long	.LLRL308
	.byte	0x1
	.byte	0x46
	.byte	0x2f
	.byte	0x1
	.long	0xfb37
	.uleb128 0x3
	.long	0xc4cd
	.uleb128 0x4
	.long	0xc4d6
	.long	.LLST309
	.long	.LVUS309
	.uleb128 0x3
	.long	0xc4e3
	.uleb128 0x2d
	.long	0xbc94
	.quad	.LBI2408
	.value	.LVU279
	.long	.LLRL311
	.byte	0x2
	.value	0x241
	.byte	0x2f
	.long	0xf6e6
	.uleb128 0x4
	.long	0xbc9e
	.long	.LLST312
	.long	.LVUS312
	.uleb128 0x3
	.long	0xbcab
	.uleb128 0x2c
	.long	0xb2d7
	.quad	.LBI2410
	.value	.LVU280
	.quad	.LBB2410
	.quad	.LBE2410-.LBB2410
	.byte	0x2
	.value	0x89d
	.byte	0x18
	.long	0xf675
	.uleb128 0x3
	.long	0xb2e5
	.uleb128 0x3
	.long	0xb2ee
	.uleb128 0x20
	.long	0xad30
	.quad	.LBI2411
	.value	.LVU281
	.quad	.LBB2411
	.quad	.LBE2411-.LBB2411
	.byte	0x5
	.byte	0xad
	.byte	0x22
	.uleb128 0x3
	.long	0xad3e
	.uleb128 0x3
	.long	0xad47
	.byte	0
	.byte	0
	.uleb128 0x67
	.long	0xc512
	.quad	.LBI2412
	.value	.LVU283
	.quad	.LBB2412
	.quad	.LBE2412-.LBB2412
	.value	0x89d
	.byte	0x18
	.byte	0x2
	.long	0xf6ca
	.uleb128 0x3
	.long	0xc520
	.uleb128 0x20
	.long	0xbcb9
	.quad	.LBI2413
	.value	.LVU284
	.quad	.LBB2413
	.quad	.LBE2413-.LBB2413
	.byte	0x5
	.byte	0xbd
	.byte	0x27
	.uleb128 0x3
	.long	0xbcc7
	.byte	0
	.byte	0
	.uleb128 0x2a
	.quad	.LVL211
	.long	0x6ce3
	.uleb128 0x14
	.uleb128 0x1
	.byte	0x55
	.uleb128 0x9
	.byte	0x3
	.quad	.LC0
	.byte	0
	.byte	0
	.uleb128 0x56
	.long	0xbc10
	.quad	.LBI2415
	.value	.LVU287
	.long	.LLRL316
	.byte	0x2
	.value	0x241
	.byte	0x2f
	.byte	0x1
	.long	0xf89f
	.uleb128 0x3
	.long	0xbc1e
	.uleb128 0x4
	.long	0xbc27
	.long	.LLST317
	.long	.LVUS317
	.uleb128 0x3
	.long	0xbc34
	.uleb128 0x2c
	.long	0xb297
	.quad	.LBI2416
	.value	.LVU288
	.quad	.LBB2416
	.quad	.LBE2416-.LBB2416
	.byte	0x2
	.value	0x154
	.byte	0x9
	.long	0xf7d2
	.uleb128 0x3
	.long	0xb2a5
	.uleb128 0x3
	.long	0xb2ae
	.uleb128 0x39
	.long	0xb2d7
	.quad	.LBI2417
	.value	.LVU289
	.quad	.LBB2417
	.quad	.LBE2417-.LBB2417
	.byte	0x2
	.byte	0x99
	.byte	0x16
	.long	0xf7a8
	.uleb128 0x3
	.long	0xb2e5
	.uleb128 0x3
	.long	0xb2ee
	.uleb128 0x20
	.long	0xad30
	.quad	.LBI2418
	.value	.LVU290
	.quad	.LBB2418
	.quad	.LBE2418-.LBB2418
	.byte	0x5
	.byte	0xad
	.byte	0x22
	.uleb128 0x3
	.long	0xad3e
	.uleb128 0x3
	.long	0xad47
	.byte	0
	.byte	0
	.uleb128 0x57
	.long	0xad01
	.quad	.LBI2419
	.value	.LVU292
	.quad	.LBB2419
	.quad	.LBE2419-.LBB2419
	.byte	0x2
	.byte	0x99
	.byte	0x16
	.byte	0x1
	.uleb128 0x3
	.long	0xad0f
	.byte	0
	.byte	0
	.uleb128 0x15
	.long	0xb272
	.quad	.LBI2420
	.value	.LVU294
	.long	.LLRL322
	.byte	0x2
	.value	0x155
	.byte	0x1a
	.uleb128 0x3
	.long	0xb280
	.uleb128 0x4
	.long	0xb289
	.long	.LLST323
	.long	.LVUS323
	.uleb128 0x15
	.long	0xacdc
	.quad	.LBI2422
	.value	.LVU295
	.long	.LLRL324
	.byte	0x2
	.value	0x197
	.byte	0x2c
	.uleb128 0x3
	.long	0xacea
	.uleb128 0x4
	.long	0xacf3
	.long	.LLST325
	.long	.LVUS325
	.uleb128 0x48
	.long	0xa9d0
	.quad	.LBI2424
	.value	.LVU299
	.long	.LLRL326
	.byte	0x2
	.value	0x185
	.byte	0x21
	.byte	0x1
	.uleb128 0x3
	.long	0xa9da
	.uleb128 0x4
	.long	0xa9e7
	.long	.LLST327
	.long	.LVUS327
	.uleb128 0x15
	.long	0xa771
	.quad	.LBI2425
	.value	.LVU300
	.long	.LLRL328
	.byte	0x8
	.value	0x27e
	.byte	0x1c
	.uleb128 0x3
	.long	0xa77f
	.uleb128 0x4
	.long	0xa794
	.long	.LLST329
	.long	.LVUS329
	.uleb128 0x4
	.long	0xa788
	.long	.LLST330
	.long	.LVUS330
	.uleb128 0x2a
	.quad	.LVL63
	.long	0xa515
	.uleb128 0x14
	.uleb128 0x1
	.byte	0x55
	.uleb128 0x4
	.byte	0x91
	.sleb128 -160
	.byte	0x6
	.byte	0
	.byte	0
	.byte	0
	.byte	0
	.byte	0
	.byte	0
	.uleb128 0x15
	.long	0xbba2
	.quad	.LBI2440
	.value	.LVU307
	.long	.LLRL331
	.byte	0x2
	.value	0x242
	.byte	0x1e
	.uleb128 0x3
	.long	0xbbb0
	.uleb128 0x4
	.long	0xbbb9
	.long	.LLST332
	.long	.LVUS332
	.uleb128 0x15
	.long	0xb1fb
	.quad	.LBI2441
	.value	.LVU308
	.long	.LLRL331
	.byte	0x2
	.value	0x7d1
	.byte	0x24
	.uleb128 0x4
	.long	0xb220
	.long	.LLST333
	.long	.LVUS333
	.uleb128 0x4
	.long	0xb22d
	.long	.LLST334
	.long	.LVUS334
	.uleb128 0x3
	.long	0xb23a
	.uleb128 0x15
	.long	0xac65
	.quad	.LBI2442
	.value	.LVU309
	.long	.LLRL331
	.byte	0xc
	.value	0x41d
	.byte	0x2c
	.uleb128 0x4
	.long	0xac81
	.long	.LLST335
	.long	.LVUS335
	.uleb128 0x4
	.long	0xac8e
	.long	.LLST336
	.long	.LVUS336
	.uleb128 0x2e
	.long	0xac9b
	.long	.LLST337
	.long	.LVUS337
	.uleb128 0x15
	.long	0xa955
	.quad	.LBI2444
	.value	.LVU310
	.long	.LLRL338
	.byte	0xc
	.value	0x3e6
	.byte	0x14
	.uleb128 0x4
	.long	0xa971
	.long	.LLST339
	.long	.LVUS339
	.uleb128 0x4
	.long	0xa97e
	.long	.LLST340
	.long	.LVUS340
	.uleb128 0x15
	.long	0xa955
	.quad	.LBI2445
	.value	.LVU311
	.long	.LLRL341
	.byte	0xc
	.value	0x3ab
	.byte	0x9
	.uleb128 0x4
	.long	0xa971
	.long	.LLST342
	.long	.LVUS342
	.uleb128 0x4
	.long	0xa97e
	.long	.LLST343
	.long	.LVUS343
	.uleb128 0x68
	.long	0xa98b
	.long	.LLRL344
	.uleb128 0x2e
	.long	0xa98c
	.long	.LLST345
	.long	.LVUS345
	.uleb128 0x2d
	.long	0xa6f5
	.quad	.LBI2447
	.value	.LVU316
	.long	.LLRL346
	.byte	0xc
	.value	0x3b3
	.byte	0x1d
	.long	0xfb0b
	.uleb128 0x4
	.long	0xa71a
	.long	.LLST347
	.long	.LVUS347
	.uleb128 0x4
	.long	0xa727
	.long	.LLST348
	.long	.LVUS348
	.uleb128 0x4
	.long	0xa734
	.long	.LLST349
	.long	.LVUS349
	.uleb128 0x48
	.long	0xa620
	.quad	.LBI2448
	.value	.LVU317
	.long	.LLRL346
	.byte	0xa
	.value	0x4a0
	.byte	0x1d
	.byte	0x1
	.uleb128 0x4
	.long	0xa645
	.long	.LLST350
	.long	.LVUS350
	.uleb128 0x4
	.long	0xa652
	.long	.LLST351
	.long	.LVUS351
	.uleb128 0x4
	.long	0xa65f
	.long	.LLST352
	.long	.LVUS352
	.uleb128 0x3
	.long	0xa66c
	.uleb128 0x2e
	.long	0xa671
	.long	.LLST353
	.long	.LVUS353
	.uleb128 0x2e
	.long	0xa67e
	.long	.LLST354
	.long	.LVUS354
	.uleb128 0x15
	.long	0xa59b
	.quad	.LBI2450
	.value	.LVU318
	.long	.LLRL355
	.byte	0xa
	.value	0x482
	.byte	0x14
	.uleb128 0x4
	.long	0xa5b7
	.long	.LLST356
	.long	.LVUS356
	.uleb128 0x4
	.long	0xa5c4
	.long	.LLST354
	.long	.LVUS354
	.uleb128 0x4
	.long	0xa5d1
	.long	.LLST358
	.long	.LVUS358
	.uleb128 0x15
	.long	0xa52f
	.quad	.LBI2451
	.value	.LVU319
	.long	.LLRL359
	.byte	0xa
	.value	0x3d1
	.byte	0x15
	.uleb128 0x4
	.long	0xa54b
	.long	.LLST360
	.long	.LVUS360
	.uleb128 0x4
	.long	0xa558
	.long	.LLST361
	.long	.LVUS361
	.uleb128 0x4
	.long	0xa565
	.long	.LLST362
	.long	.LVUS362
	.uleb128 0x2e
	.long	0xa572
	.long	.LLST363
	.long	.LVUS363
	.uleb128 0x2e
	.long	0xa58d
	.long	.LLST364
	.long	.LVUS364
	.uleb128 0x2a
	.quad	.LVL69
	.long	0x1107d
	.uleb128 0x14
	.uleb128 0x1
	.byte	0x55
	.uleb128 0x6
	.byte	0x91
	.sleb128 -184
	.byte	0x6
	.byte	0x23
	.uleb128 0x4
	.uleb128 0x14
	.uleb128 0x1
	.byte	0x54
	.uleb128 0x1
	.byte	0x30
	.byte	0
	.byte	0
	.byte	0
	.byte	0
	.byte	0
	.uleb128 0x15
	.long	0xa742
	.quad	.LBI2468
	.value	.LVU312
	.long	.LLRL365
	.byte	0xc
	.value	0x3b1
	.byte	0x17
	.uleb128 0x4
	.long	0xa75b
	.long	.LLST366
	.long	.LVUS366
	.byte	0
	.byte	0
	.byte	0
	.byte	0
	.byte	0
	.byte	0
	.byte	0
	.byte	0
	.uleb128 0x35
	.long	0xc512
	.quad	.LBI2484
	.value	.LVU327
	.long	.LLRL367
	.byte	0x1
	.byte	0x46
	.byte	0x2f
	.byte	0x2
	.long	0xfb74
	.uleb128 0x3
	.long	0xc520
	.uleb128 0x62
	.long	0xbcb9
	.quad	.LBI2485
	.value	.LVU328
	.long	.LLRL367
	.byte	0x5
	.byte	0xbd
	.byte	0x27
	.uleb128 0x3
	.long	0xbcc7
	.byte	0
	.byte	0
	.uleb128 0x3a
	.long	0xc490
	.quad	.LBI2679
	.value	.LVU614
	.long	.LLRL465
	.byte	0x1
	.byte	0x8f
	.byte	0x1
	.long	0xfd5c
	.uleb128 0x3
	.long	0xc49e
	.uleb128 0x2d
	.long	0xbb8a
	.quad	.LBI2680
	.value	.LVU615
	.long	.LLRL466
	.byte	0x2
	.value	0x319
	.byte	0x1c
	.long	0xfbb4
	.uleb128 0x3
	.long	0xbb98
	.byte	0
	.uleb128 0x2d
	.long	0xbb4e
	.quad	.LBI2681
	.value	.LVU617
	.long	.LLRL467
	.byte	0x2
	.value	0x318
	.byte	0xf
	.long	0xfbdf
	.uleb128 0x3
	.long	0xbb6a
	.uleb128 0x3
	.long	0xbb77
	.uleb128 0x3
	.long	0xbb84
	.byte	0
	.uleb128 0x15
	.long	0xbbc7
	.quad	.LBI2682
	.value	.LVU619
	.long	.LLRL468
	.byte	0x2
	.value	0x31b
	.byte	0x7
	.uleb128 0x3
	.long	0xbbd5
	.uleb128 0x5d
	.long	0xbbde
	.long	.LLRL469
	.long	0xfce1
	.uleb128 0x2e
	.long	0xbbdf
	.long	.LLST470
	.long	.LVUS470
	.uleb128 0x15
	.long	0xb240
	.quad	.LBI2684
	.value	.LVU620
	.long	.LLRL469
	.byte	0x2
	.value	0x17a
	.byte	0xf
	.uleb128 0x3
	.long	0xb24e
	.uleb128 0x4
	.long	0xb257
	.long	.LLST471
	.long	.LVUS471
	.uleb128 0x4
	.long	0xb264
	.long	.LLST470
	.long	.LVUS470
	.uleb128 0x1f
	.long	0xacaa
	.quad	.LBI2686
	.value	.LVU622
	.quad	.LBB2686
	.quad	.LBE2686-.LBB2686
	.byte	0x2
	.value	0x18e
	.byte	0x13
	.uleb128 0x3
	.long	0xacb4
	.uleb128 0x4
	.long	0xacc1
	.long	.LLST473
	.long	.LVUS473
	.uleb128 0x3
	.long	0xacce
	.uleb128 0x1f
	.long	0xa9a0
	.quad	.LBI2687
	.value	.LVU623
	.quad	.LBB2687
	.quad	.LBE2687-.LBB2687
	.byte	0x8
	.value	0x2b1
	.byte	0x17
	.uleb128 0x3
	.long	0xa9ae
	.uleb128 0x4
	.long	0xa9b7
	.long	.LLST474
	.long	.LVUS474
	.uleb128 0x3
	.long	0xa9c3
	.uleb128 0x2a
	.quad	.LVL145
	.long	0xa4fa
	.uleb128 0x14
	.uleb128 0x1
	.byte	0x55
	.uleb128 0x4
	.byte	0x91
	.sleb128 -184
	.byte	0x6
	.uleb128 0x14
	.uleb128 0x1
	.byte	0x54
	.uleb128 0x4
	.byte	0x91
	.sleb128 -160
	.byte	0x6
	.byte	0
	.byte	0
	.byte	0
	.byte	0
	.byte	0
	.uleb128 0x1f
	.long	0xbc63
	.quad	.LBI2691
	.value	.LVU626
	.quad	.LBB2691
	.quad	.LBE2691-.LBB2691
	.byte	0x2
	.value	0x17b
	.byte	0x7
	.uleb128 0x3
	.long	0xbc73
	.uleb128 0x20
	.long	0xc512
	.quad	.LBI2692
	.value	.LVU627
	.quad	.LBB2692
	.quad	.LBE2692-.LBB2692
	.byte	0x2
	.byte	0x8b
	.byte	0xe
	.uleb128 0x3
	.long	0xc520
	.uleb128 0x20
	.long	0xbcb9
	.quad	.LBI2693
	.value	.LVU628
	.quad	.LBB2693
	.quad	.LBE2693-.LBB2693
	.byte	0x5
	.byte	0xbd
	.byte	0x27
	.uleb128 0x3
	.long	0xbcc7
	.byte	0
	.byte	0
	.byte	0
	.byte	0
	.byte	0
	.uleb128 0x49
	.long	0xc570
	.quad	.LBI2698
	.value	.LVU630
	.quad	.LBB2698
	.quad	.LBE2698-.LBB2698
	.byte	0x8f
	.byte	0x1
	.byte	0x1
	.long	0xff7a
	.uleb128 0x3
	.long	0xc57e
	.uleb128 0x2c
	.long	0xbd53
	.quad	.LBI2699
	.value	.LVU631
	.quad	.LBB2699
	.quad	.LBE2699-.LBB2699
	.byte	0x2
	.value	0x319
	.byte	0x1c
	.long	0xfdb4
	.uleb128 0x3
	.long	0xbd61
	.byte	0
	.uleb128 0x2c
	.long	0xbd17
	.quad	.LBI2700
	.value	.LVU633
	.quad	.LBB2700
	.quad	.LBE2700-.LBB2700
	.byte	0x2
	.value	0x318
	.byte	0xf
	.long	0xfdeb
	.uleb128 0x3
	.long	0xbd33
	.uleb128 0x3
	.long	0xbd40
	.uleb128 0x3
	.long	0xbd4d
	.byte	0
	.uleb128 0x1f
	.long	0xbd9d
	.quad	.LBI2701
	.value	.LVU635
	.quad	.LBB2701
	.quad	.LBE2701-.LBB2701
	.byte	0x2
	.value	0x31b
	.byte	0x7
	.uleb128 0x3
	.long	0xbdab
	.uleb128 0x79
	.long	0xbdb4
	.quad	.LBB2702
	.quad	.LBE2702-.LBB2702
	.long	0xfeff
	.uleb128 0x38
	.long	0xbdb5
	.uleb128 0x1f
	.long	0xb3d0
	.quad	.LBI2703
	.value	.LVU636
	.quad	.LBB2703
	.quad	.LBE2703-.LBB2703
	.byte	0x2
	.value	0x17a
	.byte	0xf
	.uleb128 0x3
	.long	0xb3de
	.uleb128 0x4
	.long	0xb3e7
	.long	.LLST475
	.long	.LVUS475
	.uleb128 0x3
	.long	0xb3f4
	.uleb128 0x1f
	.long	0xadce
	.quad	.LBI2705
	.value	.LVU638
	.quad	.LBB2705
	.quad	.LBE2705-.LBB2705
	.byte	0x2
	.value	0x18e
	.byte	0x13
	.uleb128 0x3
	.long	0xadd8
	.uleb128 0x4
	.long	0xade5
	.long	.LLST476
	.long	.LVUS476
	.uleb128 0x3
	.long	0xadf2
	.uleb128 0x1f
	.long	0xaa67
	.quad	.LBI2706
	.value	.LVU639
	.quad	.LBB2706
	.quad	.LBE2706-.LBB2706
	.byte	0x8
	.value	0x2b1
	.byte	0x17
	.uleb128 0x3
	.long	0xaa75
	.uleb128 0x4
	.long	0xaa7e
	.long	.LLST477
	.long	.LVUS477
	.uleb128 0x3
	.long	0xaa8a
	.uleb128 0x2a
	.quad	.LVL147
	.long	0xa4fa
	.uleb128 0x14
	.uleb128 0x1
	.byte	0x55
	.uleb128 0x2
	.byte	0x76
	.sleb128 0
	.uleb128 0x14
	.uleb128 0x1
	.byte	0x54
	.uleb128 0x4
	.byte	0x91
	.sleb128 -152
	.byte	0x6
	.byte	0
	.byte	0
	.byte	0
	.byte	0
	.byte	0
	.uleb128 0x1f
	.long	0xbe39
	.quad	.LBI2708
	.value	.LVU642
	.quad	.LBB2708
	.quad	.LBE2708-.LBB2708
	.byte	0x2
	.value	0x17b
	.byte	0x7
	.uleb128 0x3
	.long	0xbe49
	.uleb128 0x20
	.long	0xc604
	.quad	.LBI2709
	.value	.LVU643
	.quad	.LBB2709
	.quad	.LBE2709-.LBB2709
	.byte	0x2
	.byte	0x8b
	.byte	0xe
	.uleb128 0x3
	.long	0xc612
	.uleb128 0x20
	.long	0xbe8f
	.quad	.LBI2710
	.value	.LVU644
	.quad	.LBB2710
	.quad	.LBE2710-.LBB2710
	.byte	0x5
	.byte	0xbd
	.byte	0x27
	.uleb128 0x3
	.long	0xbe9d
	.byte	0
	.byte	0
	.byte	0
	.byte	0
	.byte	0
	.uleb128 0x49
	.long	0xc570
	.quad	.LBI2711
	.value	.LVU646
	.quad	.LBB2711
	.quad	.LBE2711-.LBB2711
	.byte	0x8f
	.byte	0x1
	.byte	0x2
	.long	0x10198
	.uleb128 0x3
	.long	0xc57e
	.uleb128 0x2c
	.long	0xbd53
	.quad	.LBI2712
	.value	.LVU647
	.quad	.LBB2712
	.quad	.LBE2712-.LBB2712
	.byte	0x2
	.value	0x319
	.byte	0x1c
	.long	0xffd2
	.uleb128 0x3
	.long	0xbd61
	.byte	0
	.uleb128 0x2c
	.long	0xbd17
	.quad	.LBI2713
	.value	.LVU649
	.quad	.LBB2713
	.quad	.LBE2713-.LBB2713
	.byte	0x2
	.value	0x318
	.byte	0xf
	.long	0x10009
	.uleb128 0x3
	.long	0xbd33
	.uleb128 0x3
	.long	0xbd40
	.uleb128 0x3
	.long	0xbd4d
	.byte	0
	.uleb128 0x1f
	.long	0xbd9d
	.quad	.LBI2714
	.value	.LVU651
	.quad	.LBB2714
	.quad	.LBE2714-.LBB2714
	.byte	0x2
	.value	0x31b
	.byte	0x7
	.uleb128 0x3
	.long	0xbdab
	.uleb128 0x79
	.long	0xbdb4
	.quad	.LBB2715
	.quad	.LBE2715-.LBB2715
	.long	0x1011d
	.uleb128 0x38
	.long	0xbdb5
	.uleb128 0x1f
	.long	0xb3d0
	.quad	.LBI2716
	.value	.LVU652
	.quad	.LBB2716
	.quad	.LBE2716-.LBB2716
	.byte	0x2
	.value	0x17a
	.byte	0xf
	.uleb128 0x3
	.long	0xb3de
	.uleb128 0x4
	.long	0xb3e7
	.long	.LLST478
	.long	.LVUS478
	.uleb128 0x3
	.long	0xb3f4
	.uleb128 0x1f
	.long	0xadce
	.quad	.LBI2718
	.value	.LVU654
	.quad	.LBB2718
	.quad	.LBE2718-.LBB2718
	.byte	0x2
	.value	0x18e
	.byte	0x13
	.uleb128 0x3
	.long	0xadd8
	.uleb128 0x4
	.long	0xade5
	.long	.LLST479
	.long	.LVUS479
	.uleb128 0x3
	.long	0xadf2
	.uleb128 0x1f
	.long	0xaa67
	.quad	.LBI2719
	.value	.LVU655
	.quad	.LBB2719
	.quad	.LBE2719-.LBB2719
	.byte	0x8
	.value	0x2b1
	.byte	0x17
	.uleb128 0x3
	.long	0xaa75
	.uleb128 0x4
	.long	0xaa7e
	.long	.LLST480
	.long	.LVUS480
	.uleb128 0x3
	.long	0xaa8a
	.uleb128 0x2a
	.quad	.LVL149
	.long	0xa4fa
	.uleb128 0x14
	.uleb128 0x1
	.byte	0x55
	.uleb128 0x2
	.byte	0x7f
	.sleb128 0
	.uleb128 0x14
	.uleb128 0x1
	.byte	0x54
	.uleb128 0x4
	.byte	0x91
	.sleb128 -128
	.byte	0x6
	.byte	0
	.byte	0
	.byte	0
	.byte	0
	.byte	0
	.uleb128 0x1f
	.long	0xbe39
	.quad	.LBI2721
	.value	.LVU658
	.quad	.LBB2721
	.quad	.LBE2721-.LBB2721
	.byte	0x2
	.value	0x17b
	.byte	0x7
	.uleb128 0x3
	.long	0xbe49
	.uleb128 0x20
	.long	0xc604
	.quad	.LBI2722
	.value	.LVU659
	.quad	.LBB2722
	.quad	.LBE2722-.LBB2722
	.byte	0x2
	.byte	0x8b
	.byte	0xe
	.uleb128 0x3
	.long	0xc612
	.uleb128 0x20
	.long	0xbe8f
	.quad	.LBI2723
	.value	.LVU660
	.quad	.LBB2723
	.quad	.LBE2723-.LBB2723
	.byte	0x5
	.byte	0xbd
	.byte	0x27
	.uleb128 0x3
	.long	0xbe9d
	.byte	0
	.byte	0
	.byte	0
	.byte	0
	.byte	0
	.uleb128 0x49
	.long	0xc570
	.quad	.LBI2762
	.value	.LVU921
	.quad	.LBB2762
	.quad	.LBE2762-.LBB2762
	.byte	0x8f
	.byte	0x1
	.byte	0x6
	.long	0x103b2
	.uleb128 0x3
	.long	0xc57e
	.uleb128 0x2d
	.long	0xbd9d
	.quad	.LBI2763
	.value	.LVU926
	.long	.LLRL481
	.byte	0x2
	.value	0x31b
	.byte	0x7
	.long	0x10351
	.uleb128 0x3
	.long	0xbdab
	.uleb128 0x5d
	.long	0xbdb4
	.long	.LLRL482
	.long	0x102d7
	.uleb128 0x2e
	.long	0xbdb5
	.long	.LLST483
	.long	.LVUS483
	.uleb128 0x15
	.long	0xb3d0
	.quad	.LBI2765
	.value	.LVU927
	.long	.LLRL482
	.byte	0x2
	.value	0x17a
	.byte	0xf
	.uleb128 0x3
	.long	0xb3de
	.uleb128 0x4
	.long	0xb3e7
	.long	.LLST484
	.long	.LVUS484
	.uleb128 0x4
	.long	0xb3f4
	.long	.LLST485
	.long	.LVUS485
	.uleb128 0x1f
	.long	0xadce
	.quad	.LBI2767
	.value	.LVU929
	.quad	.LBB2767
	.quad	.LBE2767-.LBB2767
	.byte	0x2
	.value	0x18e
	.byte	0x13
	.uleb128 0x3
	.long	0xadd8
	.uleb128 0x4
	.long	0xade5
	.long	.LLST486
	.long	.LVUS486
	.uleb128 0x4
	.long	0xadf2
	.long	.LLST487
	.long	.LVUS487
	.uleb128 0x1f
	.long	0xaa67
	.quad	.LBI2768
	.value	.LVU930
	.quad	.LBB2768
	.quad	.LBE2768-.LBB2768
	.byte	0x8
	.value	0x2b1
	.byte	0x17
	.uleb128 0x3
	.long	0xaa75
	.uleb128 0x4
	.long	0xaa7e
	.long	.LLST488
	.long	.LVUS488
	.uleb128 0x4
	.long	0xaa8a
	.long	.LLST489
	.long	.LVUS489
	.uleb128 0x2a
	.quad	.LVL214
	.long	0xa4fa
	.uleb128 0x14
	.uleb128 0x1
	.byte	0x55
	.uleb128 0x2
	.byte	0x7f
	.sleb128 0
	.uleb128 0x14
	.uleb128 0x1
	.byte	0x54
	.uleb128 0x4
	.byte	0x91
	.sleb128 -128
	.byte	0x6
	.byte	0
	.byte	0
	.byte	0
	.byte	0
	.byte	0
	.uleb128 0x1f
	.long	0xbe39
	.quad	.LBI2773
	.value	.LVU933
	.quad	.LBB2773
	.quad	.LBE2773-.LBB2773
	.byte	0x2
	.value	0x17b
	.byte	0x7
	.uleb128 0x3
	.long	0xbe49
	.uleb128 0x20
	.long	0xc604
	.quad	.LBI2774
	.value	.LVU934
	.quad	.LBB2774
	.quad	.LBE2774-.LBB2774
	.byte	0x2
	.byte	0x8b
	.byte	0xe
	.uleb128 0x3
	.long	0xc612
	.uleb128 0x20
	.long	0xbe8f
	.quad	.LBI2775
	.value	.LVU935
	.quad	.LBB2775
	.quad	.LBE2775-.LBB2775
	.byte	0x5
	.byte	0xbd
	.byte	0x27
	.uleb128 0x3
	.long	0xbe9d
	.byte	0
	.byte	0
	.byte	0
	.byte	0
	.uleb128 0x2c
	.long	0xbd53
	.quad	.LBI2776
	.value	.LVU922
	.quad	.LBB2776
	.quad	.LBE2776-.LBB2776
	.byte	0x2
	.value	0x319
	.byte	0x1c
	.long	0x1037e
	.uleb128 0x3
	.long	0xbd61
	.byte	0
	.uleb128 0x1f
	.long	0xbd17
	.quad	.LBI2777
	.value	.LVU924
	.quad	.LBB2777
	.quad	.LBE2777-.LBB2777
	.byte	0x2
	.value	0x318
	.byte	0xf
	.uleb128 0x3
	.long	0xbd33
	.uleb128 0x3
	.long	0xbd40
	.uleb128 0x3
	.long	0xbd4d
	.byte	0
	.byte	0
	.uleb128 0x35
	.long	0xc78c
	.quad	.LBI2779
	.value	.LVU937
	.long	.LLRL490
	.byte	0x1
	.byte	0x8f
	.byte	0x1
	.byte	0x7
	.long	0x1060b
	.uleb128 0x4
	.long	0xc79a
	.long	.LLST491
	.long	.LVUS491
	.uleb128 0x2c
	.long	0xc15e
	.quad	.LBI2780
	.value	.LVU938
	.quad	.LBB2780
	.quad	.LBE2780-.LBB2780
	.byte	0x2
	.value	0x319
	.byte	0x1c
	.long	0x1040f
	.uleb128 0x4
	.long	0xc16c
	.long	.LLST492
	.long	.LVUS492
	.byte	0
	.uleb128 0x2c
	.long	0xc122
	.quad	.LBI2781
	.value	.LVU940
	.quad	.LBB2781
	.quad	.LBE2781-.LBB2781
	.byte	0x2
	.value	0x318
	.byte	0xf
	.long	0x1044e
	.uleb128 0x3
	.long	0xc13e
	.uleb128 0x3
	.long	0xc14b
	.uleb128 0x4
	.long	0xc158
	.long	.LLST493
	.long	.LVUS493
	.byte	0
	.uleb128 0x15
	.long	0xc7b7
	.quad	.LBI2782
	.value	.LVU942
	.long	.LLRL494
	.byte	0x2
	.value	0x31b
	.byte	0x7
	.uleb128 0x4
	.long	0xc7c5
	.long	.LLST495
	.long	.LVUS495
	.uleb128 0x5d
	.long	0xc7ce
	.long	.LLRL496
	.long	0x10578
	.uleb128 0x38
	.long	0xc7cf
	.uleb128 0x15
	.long	0xc176
	.quad	.LBI2784
	.value	.LVU943
	.long	.LLRL497
	.byte	0x2
	.value	0x17a
	.byte	0xf
	.uleb128 0x4
	.long	0xc184
	.long	.LLST498
	.long	.LVUS498
	.uleb128 0x4
	.long	0xc18d
	.long	.LLST499
	.long	.LVUS499
	.uleb128 0x3
	.long	0xc19a
	.uleb128 0x15
	.long	0xc176
	.quad	.LBI2786
	.value	.LVU945
	.long	.LLRL500
	.byte	0x2
	.value	0x18a
	.byte	0x7
	.uleb128 0x4
	.long	0xc184
	.long	.LLST501
	.long	.LVUS501
	.uleb128 0x4
	.long	0xc18d
	.long	.LLST502
	.long	.LVUS502
	.uleb128 0x3
	.long	0xc19a
	.uleb128 0x15
	.long	0xb729
	.quad	.LBI2788
	.value	.LVU946
	.long	.LLRL503
	.byte	0x2
	.value	0x18e
	.byte	0x13
	.uleb128 0x3
	.long	0xb733
	.uleb128 0x4
	.long	0xb740
	.long	.LLST504
	.long	.LVUS504
	.uleb128 0x3
	.long	0xb74d
	.uleb128 0x2d
	.long	0xaf19
	.quad	.LBI2789
	.value	.LVU947
	.long	.LLRL505
	.byte	0x8
	.value	0x2b1
	.byte	0x17
	.long	0x10551
	.uleb128 0x3
	.long	0xaf27
	.uleb128 0x4
	.long	0xaf30
	.long	.LLST506
	.long	.LVUS506
	.uleb128 0x3
	.long	0xaf3c
	.byte	0
	.uleb128 0x2a
	.quad	.LVL216
	.long	0xa4fa
	.uleb128 0x14
	.uleb128 0x1
	.byte	0x55
	.uleb128 0x4
	.byte	0x91
	.sleb128 -192
	.byte	0x6
	.uleb128 0x14
	.uleb128 0x1
	.byte	0x54
	.uleb128 0x9
	.byte	0x91
	.sleb128 -176
	.byte	0x6
	.byte	0x91
	.sleb128 -192
	.byte	0x6
	.byte	0x1c
	.byte	0
	.byte	0
	.byte	0
	.byte	0
	.byte	0
	.uleb128 0x1f
	.long	0x10e5d
	.quad	.LBI2799
	.value	.LVU951
	.quad	.LBB2799
	.quad	.LBE2799-.LBB2799
	.byte	0x2
	.value	0x17b
	.byte	0x7
	.uleb128 0x4
	.long	0x10e6d
	.long	.LLST507
	.long	.LVUS507
	.uleb128 0x20
	.long	0xc7fc
	.quad	.LBI2800
	.value	.LVU952
	.quad	.LBB2800
	.quad	.LBE2800-.LBB2800
	.byte	0x2
	.byte	0x8b
	.byte	0xe
	.uleb128 0x4
	.long	0xc80a
	.long	.LLST508
	.long	.LVUS508
	.uleb128 0x20
	.long	0xc1a8
	.quad	.LBI2801
	.value	.LVU953
	.quad	.LBB2801
	.quad	.LBE2801-.LBB2801
	.byte	0x5
	.byte	0xbd
	.byte	0x27
	.uleb128 0x4
	.long	0xc1b6
	.long	.LLST509
	.long	.LVUS509
	.byte	0
	.byte	0
	.byte	0
	.byte	0
	.byte	0
	.uleb128 0x49
	.long	0xc570
	.quad	.LBI2804
	.value	.LVU959
	.quad	.LBB2804
	.quad	.LBE2804-.LBB2804
	.byte	0x8f
	.byte	0x1
	.byte	0x5
	.long	0x10825
	.uleb128 0x3
	.long	0xc57e
	.uleb128 0x2d
	.long	0xbd9d
	.quad	.LBI2805
	.value	.LVU964
	.long	.LLRL510
	.byte	0x2
	.value	0x31b
	.byte	0x7
	.long	0x107c4
	.uleb128 0x3
	.long	0xbdab
	.uleb128 0x5d
	.long	0xbdb4
	.long	.LLRL511
	.long	0x1074a
	.uleb128 0x2e
	.long	0xbdb5
	.long	.LLST512
	.long	.LVUS512
	.uleb128 0x15
	.long	0xb3d0
	.quad	.LBI2807
	.value	.LVU965
	.long	.LLRL511
	.byte	0x2
	.value	0x17a
	.byte	0xf
	.uleb128 0x3
	.long	0xb3de
	.uleb128 0x4
	.long	0xb3e7
	.long	.LLST513
	.long	.LVUS513
	.uleb128 0x4
	.long	0xb3f4
	.long	.LLST514
	.long	.LVUS514
	.uleb128 0x1f
	.long	0xadce
	.quad	.LBI2809
	.value	.LVU967
	.quad	.LBB2809
	.quad	.LBE2809-.LBB2809
	.byte	0x2
	.value	0x18e
	.byte	0x13
	.uleb128 0x3
	.long	0xadd8
	.uleb128 0x4
	.long	0xade5
	.long	.LLST515
	.long	.LVUS515
	.uleb128 0x4
	.long	0xadf2
	.long	.LLST516
	.long	.LVUS516
	.uleb128 0x1f
	.long	0xaa67
	.quad	.LBI2810
	.value	.LVU968
	.quad	.LBB2810
	.quad	.LBE2810-.LBB2810
	.byte	0x8
	.value	0x2b1
	.byte	0x17
	.uleb128 0x3
	.long	0xaa75
	.uleb128 0x4
	.long	0xaa7e
	.long	.LLST517
	.long	.LVUS517
	.uleb128 0x4
	.long	0xaa8a
	.long	.LLST518
	.long	.LVUS518
	.uleb128 0x2a
	.quad	.LVL221
	.long	0xa4fa
	.uleb128 0x14
	.uleb128 0x1
	.byte	0x55
	.uleb128 0x2
	.byte	0x76
	.sleb128 0
	.uleb128 0x14
	.uleb128 0x1
	.byte	0x54
	.uleb128 0x4
	.byte	0x91
	.sleb128 -152
	.byte	0x6
	.byte	0
	.byte	0
	.byte	0
	.byte	0
	.byte	0
	.uleb128 0x1f
	.long	0xbe39
	.quad	.LBI2815
	.value	.LVU971
	.quad	.LBB2815
	.quad	.LBE2815-.LBB2815
	.byte	0x2
	.value	0x17b
	.byte	0x7
	.uleb128 0x3
	.long	0xbe49
	.uleb128 0x20
	.long	0xc604
	.quad	.LBI2816
	.value	.LVU972
	.quad	.LBB2816
	.quad	.LBE2816-.LBB2816
	.byte	0x2
	.byte	0x8b
	.byte	0xe
	.uleb128 0x3
	.long	0xc612
	.uleb128 0x20
	.long	0xbe8f
	.quad	.LBI2817
	.value	.LVU973
	.quad	.LBB2817
	.quad	.LBE2817-.LBB2817
	.byte	0x5
	.byte	0xbd
	.byte	0x27
	.uleb128 0x3
	.long	0xbe9d
	.byte	0
	.byte	0
	.byte	0
	.byte	0
	.uleb128 0x2c
	.long	0xbd53
	.quad	.LBI2818
	.value	.LVU960
	.quad	.LBB2818
	.quad	.LBE2818-.LBB2818
	.byte	0x2
	.value	0x319
	.byte	0x1c
	.long	0x107f1
	.uleb128 0x3
	.long	0xbd61
	.byte	0
	.uleb128 0x1f
	.long	0xbd17
	.quad	.LBI2819
	.value	.LVU962
	.quad	.LBB2819
	.quad	.LBE2819-.LBB2819
	.byte	0x2
	.value	0x318
	.byte	0xf
	.uleb128 0x3
	.long	0xbd33
	.uleb128 0x3
	.long	0xbd40
	.uleb128 0x3
	.long	0xbd4d
	.byte	0
	.byte	0
	.uleb128 0x49
	.long	0x10e8a
	.quad	.LBI2826
	.value	.LVU1011
	.quad	.LBB2826
	.quad	.LBE2826-.LBB2826
	.byte	0x8f
	.byte	0x1
	.byte	0x8
	.long	0x10aa1
	.uleb128 0x4
	.long	0x10e9a
	.long	.LLST519
	.long	.LVUS519
	.uleb128 0x62
	.long	0xc884
	.quad	.LBI2827
	.value	.LVU1012
	.long	.LLRL520
	.byte	0x4
	.byte	0xb
	.byte	0x8
	.uleb128 0x4
	.long	0xc892
	.long	.LLST521
	.long	.LVUS521
	.uleb128 0x2d
	.long	0xc8b3
	.quad	.LBI2828
	.value	.LVU1017
	.long	.LLRL522
	.byte	0x2
	.value	0x31b
	.byte	0x7
	.long	0x10a1f
	.uleb128 0x4
	.long	0xc8c1
	.long	.LLST523
	.long	.LVUS523
	.uleb128 0x5d
	.long	0xc8ca
	.long	.LLRL524
	.long	0x1098d
	.uleb128 0x2e
	.long	0xc8cb
	.long	.LLST525
	.long	.LVUS525
	.uleb128 0x15
	.long	0xc2df
	.quad	.LBI2830
	.value	.LVU1019
	.long	.LLRL526
	.byte	0x2
	.value	0x17a
	.byte	0xf
	.uleb128 0x4
	.long	0xc2ed
	.long	.LLST527
	.long	.LVUS527
	.uleb128 0x4
	.long	0xc2f6
	.long	.LLST528
	.long	.LVUS528
	.uleb128 0x4
	.long	0xc303
	.long	.LLST525
	.long	.LVUS525
	.uleb128 0x15
	.long	0xb9bc
	.quad	.LBI2832
	.value	.LVU1021
	.long	.LLRL530
	.byte	0x2
	.value	0x18e
	.byte	0x13
	.uleb128 0x4
	.long	0xb9c6
	.long	.LLST531
	.long	.LVUS531
	.uleb128 0x4
	.long	0xb9d3
	.long	.LLST532
	.long	.LVUS532
	.uleb128 0x4
	.long	0xb9e0
	.long	.LLST533
	.long	.LVUS533
	.uleb128 0x2d
	.long	0xb166
	.quad	.LBI2833
	.value	.LVU1022
	.long	.LLRL530
	.byte	0x8
	.value	0x2b1
	.byte	0x17
	.long	0x1097c
	.uleb128 0x4
	.long	0xb174
	.long	.LLST534
	.long	.LVUS534
	.uleb128 0x4
	.long	0xb17d
	.long	.LLST535
	.long	.LVUS535
	.uleb128 0x4
	.long	0xb189
	.long	.LLST536
	.long	.LVUS536
	.byte	0
	.uleb128 0x97
	.quad	.LVL249
	.long	0xa4fa
	.byte	0
	.byte	0
	.byte	0
	.uleb128 0x1f
	.long	0x10f4a
	.quad	.LBI2840
	.value	.LVU1026
	.quad	.LBB2840
	.quad	.LBE2840-.LBB2840
	.byte	0x2
	.value	0x17b
	.byte	0x7
	.uleb128 0x4
	.long	0x10f5a
	.long	.LLST537
	.long	.LVUS537
	.uleb128 0x20
	.long	0xc8fc
	.quad	.LBI2841
	.value	.LVU1027
	.quad	.LBB2841
	.quad	.LBE2841-.LBB2841
	.byte	0x2
	.byte	0x8b
	.byte	0xe
	.uleb128 0x4
	.long	0xc90a
	.long	.LLST538
	.long	.LVUS538
	.uleb128 0x20
	.long	0xc311
	.quad	.LBI2842
	.value	.LVU1028
	.quad	.LBB2842
	.quad	.LBE2842-.LBB2842
	.byte	0x5
	.byte	0xbd
	.byte	0x27
	.uleb128 0x4
	.long	0xc31f
	.long	.LLST539
	.long	.LVUS539
	.byte	0
	.byte	0
	.byte	0
	.byte	0
	.uleb128 0x2c
	.long	0xc2c7
	.quad	.LBI2843
	.value	.LVU1013
	.quad	.LBB2843
	.quad	.LBE2843-.LBB2843
	.byte	0x2
	.value	0x319
	.byte	0x1c
	.long	0x10a54
	.uleb128 0x4
	.long	0xc2d5
	.long	.LLST540
	.long	.LVUS540
	.byte	0
	.uleb128 0x1f
	.long	0xc28b
	.quad	.LBI2844
	.value	.LVU1015
	.quad	.LBB2844
	.quad	.LBE2844-.LBB2844
	.byte	0x2
	.value	0x318
	.byte	0xf
	.uleb128 0x4
	.long	0xc2a7
	.long	.LLST541
	.long	.LVUS541
	.uleb128 0x4
	.long	0xc2b4
	.long	.LLST542
	.long	.LVUS542
	.uleb128 0x4
	.long	0xc2c1
	.long	.LLST543
	.long	.LVUS543
	.byte	0
	.byte	0
	.byte	0
	.uleb128 0x49
	.long	0xc490
	.quad	.LBI2849
	.value	.LVU1048
	.quad	.LBB2849
	.quad	.LBE2849-.LBB2849
	.byte	0x8f
	.byte	0x1
	.byte	0x4
	.long	0x10cbd
	.uleb128 0x3
	.long	0xc49e
	.uleb128 0x2d
	.long	0xbbc7
	.quad	.LBI2850
	.value	.LVU1053
	.long	.LLRL544
	.byte	0x2
	.value	0x31b
	.byte	0x7
	.long	0x10c5c
	.uleb128 0x3
	.long	0xbbd5
	.uleb128 0x5d
	.long	0xbbde
	.long	.LLRL545
	.long	0x10be2
	.uleb128 0x2e
	.long	0xbbdf
	.long	.LLST546
	.long	.LVUS546
	.uleb128 0x15
	.long	0xb240
	.quad	.LBI2852
	.value	.LVU1054
	.long	.LLRL545
	.byte	0x2
	.value	0x17a
	.byte	0xf
	.uleb128 0x3
	.long	0xb24e
	.uleb128 0x4
	.long	0xb257
	.long	.LLST547
	.long	.LVUS547
	.uleb128 0x4
	.long	0xb264
	.long	.LLST548
	.long	.LVUS548
	.uleb128 0x1f
	.long	0xacaa
	.quad	.LBI2854
	.value	.LVU1056
	.quad	.LBB2854
	.quad	.LBE2854-.LBB2854
	.byte	0x2
	.value	0x18e
	.byte	0x13
	.uleb128 0x3
	.long	0xacb4
	.uleb128 0x4
	.long	0xacc1
	.long	.LLST549
	.long	.LVUS549
	.uleb128 0x4
	.long	0xacce
	.long	.LLST550
	.long	.LVUS550
	.uleb128 0x1f
	.long	0xa9a0
	.quad	.LBI2855
	.value	.LVU1057
	.quad	.LBB2855
	.quad	.LBE2855-.LBB2855
	.byte	0x8
	.value	0x2b1
	.byte	0x17
	.uleb128 0x3
	.long	0xa9ae
	.uleb128 0x4
	.long	0xa9b7
	.long	.LLST551
	.long	.LVUS551
	.uleb128 0x4
	.long	0xa9c3
	.long	.LLST552
	.long	.LVUS552
	.uleb128 0x2a
	.quad	.LVL264
	.long	0xa4fa
	.uleb128 0x14
	.uleb128 0x1
	.byte	0x55
	.uleb128 0x4
	.byte	0x91
	.sleb128 -184
	.byte	0x6
	.uleb128 0x14
	.uleb128 0x1
	.byte	0x54
	.uleb128 0x4
	.byte	0x91
	.sleb128 -160
	.byte	0x6
	.byte	0
	.byte	0
	.byte	0
	.byte	0
	.byte	0
	.uleb128 0x1f
	.long	0xbc63
	.quad	.LBI2860
	.value	.LVU1060
	.quad	.LBB2860
	.quad	.LBE2860-.LBB2860
	.byte	0x2
	.value	0x17b
	.byte	0x7
	.uleb128 0x3
	.long	0xbc73
	.uleb128 0x20
	.long	0xc512
	.quad	.LBI2861
	.value	.LVU1061
	.quad	.LBB2861
	.quad	.LBE2861-.LBB2861
	.byte	0x2
	.byte	0x8b
	.byte	0xe
	.uleb128 0x3
	.long	0xc520
	.uleb128 0x20
	.long	0xbcb9
	.quad	.LBI2862
	.value	.LVU1062
	.quad	.LBB2862
	.quad	.LBE2862-.LBB2862
	.byte	0x5
	.byte	0xbd
	.byte	0x27
	.uleb128 0x3
	.long	0xbcc7
	.byte	0
	.byte	0
	.byte	0
	.byte	0
	.uleb128 0x2c
	.long	0xbb8a
	.quad	.LBI2863
	.value	.LVU1049
	.quad	.LBB2863
	.quad	.LBE2863-.LBB2863
	.byte	0x2
	.value	0x319
	.byte	0x1c
	.long	0x10c89
	.uleb128 0x3
	.long	0xbb98
	.byte	0
	.uleb128 0x1f
	.long	0xbb4e
	.quad	.LBI2864
	.value	.LVU1051
	.quad	.LBB2864
	.quad	.LBE2864-.LBB2864
	.byte	0x2
	.value	0x318
	.byte	0xf
	.uleb128 0x3
	.long	0xbb6a
	.uleb128 0x3
	.long	0xbb77
	.uleb128 0x3
	.long	0xbb84
	.byte	0
	.byte	0
	.uleb128 0x58
	.quad	.LVL206
	.uleb128 0x1
	.byte	0x30
	.uleb128 0x58
	.quad	.LVL212
	.uleb128 0x1
	.byte	0x30
	.uleb128 0x58
	.quad	.LVL219
	.uleb128 0x1
	.byte	0x30
	.uleb128 0x58
	.quad	.LVL233
	.uleb128 0x1
	.byte	0x30
	.uleb128 0x58
	.quad	.LVL246
	.uleb128 0x1
	.byte	0x30
	.uleb128 0x36
	.quad	.LVL250
	.long	0x11086
	.long	0x10d0c
	.uleb128 0x14
	.uleb128 0x1
	.byte	0x55
	.uleb128 0x2
	.byte	0x76
	.sleb128 0
	.byte	0
	.uleb128 0x58
	.quad	.LVL251
	.uleb128 0x1
	.byte	0x30
	.uleb128 0x58
	.quad	.LVL262
	.uleb128 0x1
	.byte	0x30
	.byte	0
	.uleb128 0xa
	.long	0x8b23
	.long	0x10d31
	.byte	0x3
	.long	0x10d3b
	.uleb128 0x8
	.long	.LASF1300
	.long	0xa3f9
	.byte	0
	.uleb128 0xa
	.long	0x85d8
	.long	0x10d49
	.byte	0x3
	.long	0x10d53
	.uleb128 0x8
	.long	.LASF1300
	.long	0xa1f6
	.byte	0
	.uleb128 0xa
	.long	0x8ade
	.long	0x10d61
	.byte	0x3
	.long	0x10d6b
	.uleb128 0x8
	.long	.LASF1300
	.long	0xa408
	.byte	0
	.uleb128 0xa
	.long	0x8c4f
	.long	0x10d79
	.byte	0x3
	.long	0x10d83
	.uleb128 0x8
	.long	.LASF1300
	.long	0xa408
	.byte	0
	.uleb128 0xb
	.long	0x8c7e
	.uleb128 0x13
	.long	0x8ef0
	.byte	0x3
	.long	0x10dad
	.uleb128 0x12
	.long	.LASF1407
	.byte	0x3
	.value	0x4dd
	.byte	0x2b
	.long	0x10d83
	.uleb128 0x12
	.long	.LASF1408
	.byte	0x3
	.value	0x4dd
	.byte	0x4b
	.long	0x10d83
	.byte	0
	.uleb128 0xa
	.long	0x858b
	.long	0x10dbb
	.byte	0x3
	.long	0x10dc5
	.uleb128 0x8
	.long	.LASF1300
	.long	0xa205
	.byte	0
	.uleb128 0xa
	.long	0x8728
	.long	0x10dd3
	.byte	0x3
	.long	0x10ddd
	.uleb128 0x8
	.long	.LASF1300
	.long	0xa205
	.byte	0
	.uleb128 0xb
	.long	0x875b
	.uleb128 0x13
	.long	0x8f0c
	.byte	0x3
	.long	0x10e07
	.uleb128 0x12
	.long	.LASF1407
	.byte	0x3
	.value	0x4dd
	.byte	0x2b
	.long	0x10ddd
	.uleb128 0x12
	.long	.LASF1408
	.byte	0x3
	.value	0x4dd
	.byte	0x4b
	.long	0x10ddd
	.byte	0
	.uleb128 0xa
	.long	0x3818
	.long	0x10e15
	.byte	0x2
	.long	0x10e1f
	.uleb128 0x8
	.long	.LASF1300
	.long	0xa1ba
	.byte	0
	.uleb128 0x3d
	.long	0x10e07
	.long	0x10e2c
	.long	0x10e32
	.uleb128 0x3
	.long	0x10e15
	.byte	0
	.uleb128 0xa
	.long	0x35b2
	.long	0x10e40
	.byte	0x2
	.long	0x10e4a
	.uleb128 0x8
	.long	.LASF1300
	.long	0xa197
	.byte	0
	.uleb128 0x3d
	.long	0x10e32
	.long	0x10e57
	.long	0x10e5d
	.uleb128 0x3
	.long	0x10e40
	.byte	0
	.uleb128 0x60
	.long	0x3530
	.byte	0x2
	.byte	0x8b
	.byte	0xe
	.long	0x10e6d
	.long	0x10e77
	.uleb128 0x8
	.long	.LASF1300
	.long	0xa179
	.byte	0
	.uleb128 0x3d
	.long	0x10e5d
	.long	0x10e84
	.long	0x10e8a
	.uleb128 0x3
	.long	0x10e6d
	.byte	0
	.uleb128 0x60
	.long	0x9ec6
	.byte	0x4
	.byte	0xb
	.byte	0x8
	.long	0x10e9a
	.long	0x10ea4
	.uleb128 0x8
	.long	.LASF1300
	.long	0x9f06
	.byte	0
	.uleb128 0x1b
	.long	0x10e8a
	.long	.LASF1409
	.long	0x10eb5
	.long	0x10ebb
	.uleb128 0x3
	.long	0x10e9a
	.byte	0
	.uleb128 0x60
	.long	0x9ede
	.byte	0x4
	.byte	0xb
	.byte	0x8
	.long	0x10ecb
	.long	0x10ed5
	.uleb128 0x8
	.long	.LASF1300
	.long	0x9f06
	.byte	0
	.uleb128 0x1b
	.long	0x10ebb
	.long	.LASF1410
	.long	0x10ee6
	.long	0x10eec
	.uleb128 0x3
	.long	0x10ecb
	.byte	0
	.uleb128 0xa
	.long	0x12bf
	.long	0x10efa
	.byte	0x2
	.long	0x10f04
	.uleb128 0x8
	.long	.LASF1300
	.long	0x9dd6
	.byte	0
	.uleb128 0x1b
	.long	0x10eec
	.long	.LASF1411
	.long	0x10f15
	.long	0x10f1b
	.uleb128 0x3
	.long	0x10efa
	.byte	0
	.uleb128 0xa
	.long	0x1028
	.long	0x10f29
	.byte	0x2
	.long	0x10f33
	.uleb128 0x8
	.long	.LASF1300
	.long	0x9db8
	.byte	0
	.uleb128 0x1b
	.long	0x10f1b
	.long	.LASF1412
	.long	0x10f44
	.long	0x10f4a
	.uleb128 0x3
	.long	0x10f29
	.byte	0
	.uleb128 0x60
	.long	0xf97
	.byte	0x2
	.byte	0x8b
	.byte	0xe
	.long	0x10f5a
	.long	0x10f64
	.uleb128 0x8
	.long	.LASF1300
	.long	0x9d9a
	.byte	0
	.uleb128 0x1b
	.long	0x10f4a
	.long	.LASF1413
	.long	0x10f75
	.long	0x10f7b
	.uleb128 0x3
	.long	0x10f5a
	.byte	0
	.uleb128 0x13
	.long	0x74f6
	.byte	0x3
	.long	0x10f93
	.uleb128 0xe
	.string	"__x"
	.byte	0x9
	.value	0xa86
	.byte	0xf
	.long	0x30
	.byte	0
	.uleb128 0x13
	.long	0x7511
	.byte	0x3
	.long	0x10fab
	.uleb128 0xe
	.string	"__x"
	.byte	0x9
	.value	0x108
	.byte	0xf
	.long	0x30
	.byte	0
	.uleb128 0xa
	.long	0x9e6e
	.long	0x10fb9
	.byte	0x3
	.long	0x10fe1
	.uleb128 0x8
	.long	.LASF1300
	.long	0x9f06
	.uleb128 0x24
	.string	"x"
	.byte	0x4
	.byte	0x1d
	.byte	0x25
	.long	0x7545
	.uleb128 0x24
	.string	"y"
	.byte	0x4
	.byte	0x1d
	.byte	0x2f
	.long	0x7545
	.uleb128 0x24
	.string	"c"
	.byte	0x4
	.byte	0x1d
	.byte	0x39
	.long	0x7545
	.byte	0
	.uleb128 0xa
	.long	0x9e41
	.long	0x10fef
	.byte	0x3
	.long	0x11017
	.uleb128 0x8
	.long	.LASF1300
	.long	0x9efc
	.uleb128 0x24
	.string	"x"
	.byte	0x4
	.byte	0x10
	.byte	0x20
	.long	0x7545
	.uleb128 0x24
	.string	"y"
	.byte	0x4
	.byte	0x10
	.byte	0x2a
	.long	0x7545
	.uleb128 0x24
	.string	"c"
	.byte	0x4
	.byte	0x10
	.byte	0x34
	.long	0x7545
	.byte	0
	.uleb128 0x13
	.long	0x752c
	.byte	0x3
	.long	0x1102f
	.uleb128 0xe
	.string	"__n"
	.byte	0xa
	.value	0x3fd
	.byte	0x23
	.long	0x7556
	.byte	0
	.uleb128 0xd7
	.long	.LASF1302
	.byte	0x45
	.byte	0xb1
	.byte	0x23
	.long	.LASF1414
	.byte	0x3
	.long	0x1104c
	.uleb128 0x1
	.long	0x759f
	.uleb128 0x1
	.long	0x759f
	.byte	0
	.uleb128 0xd8
	.long	.LASF1304
	.byte	0x45
	.byte	0xa8
	.byte	0x7
	.long	.LASF1415
	.long	0x759f
	.byte	0x3
	.long	0x11074
	.uleb128 0x1
	.long	0x2b5
	.uleb128 0x24
	.string	"__p"
	.byte	0x45
	.byte	0xa8
	.byte	0x27
	.long	0x759f
	.byte	0
	.uleb128 0x7a
	.long	.LASF1416
	.long	.LASF1418
	.uleb128 0x7a
	.long	.LASF1417
	.long	.LASF1419
	.uleb128 0x7a
	.long	.LASF1420
	.long	.LASF1421
	.byte	0
	.section	.debug_abbrev,"",@progbits
.Ldebug_abbrev0:
	.uleb128 0x1
	.uleb128 0x5
	.byte	0
	.uleb128 0x49
	.uleb128 0x13
	.byte	0
	.byte	0
	.uleb128 0x2
	.uleb128 0x5
	.byte	0
	.uleb128 0x49
	.uleb128 0x13
	.uleb128 0x34
	.uleb128 0x19
	.byte	0
	.byte	0
	.uleb128 0x3
	.uleb128 0x5
	.byte	0
	.uleb128 0x31
	.uleb128 0x13
	.byte	0
	.byte	0
	.uleb128 0x4
	.uleb128 0x5
	.byte	0
	.uleb128 0x31
	.uleb128 0x13
	.uleb128 0x2
	.uleb128 0x17
	.uleb128 0x2137
	.uleb128 0x17
	.byte	0
	.byte	0
	.uleb128 0x5
	.uleb128 0x8
	.byte	0
	.uleb128 0x3a
	.uleb128 0xb
	.uleb128 0x3b
	.uleb128 0xb
	.uleb128 0x39
	.uleb128 0xb
	.uleb128 0x18
	.uleb128 0x13
	.byte	0
	.byte	0
	.uleb128 0x6
	.uleb128 0x2e
	.byte	0x1
	.uleb128 0x3f
	.uleb128 0x19
	.uleb128 0x3
	.uleb128 0xe
	.uleb128 0x3a
	.uleb128 0xb
	.uleb128 0x3b
	.uleb128 0x5
	.uleb128 0x39
	.uleb128 0xb
	.uleb128 0x6e
	.uleb128 0xe
	.uleb128 0x49
	.uleb128 0x13
	.uleb128 0x32
	.uleb128 0xb
	.uleb128 0x3c
	.uleb128 0x19
	.uleb128 0x64
	.uleb128 0x13
	.uleb128 0x1
	.uleb128 0x13
	.byte	0
	.byte	0
	.uleb128 0x7
	.uleb128 0x26
	.byte	0
	.uleb128 0x49
	.uleb128 0x13
	.byte	0
	.byte	0
	.uleb128 0x8
	.uleb128 0x5
	.byte	0
	.uleb128 0x3
	.uleb128 0xe
	.uleb128 0x49
	.uleb128 0x13
	.uleb128 0x34
	.uleb128 0x19
	.byte	0
	.byte	0
	.uleb128 0x9
	.uleb128 0x16
	.byte	0
	.uleb128 0x3
	.uleb128 0xe
	.uleb128 0x3a
	.uleb128 0xb
	.uleb128 0x3b
	.uleb128 0xb
	.uleb128 0x39
	.uleb128 0xb
	.uleb128 0x49
	.uleb128 0x13
	.byte	0
	.byte	0
	.uleb128 0xa
	.uleb128 0x2e
	.byte	0x1
	.uleb128 0x47
	.uleb128 0x13
	.uleb128 0x64
	.uleb128 0x13
	.uleb128 0x20
	.uleb128 0xb
	.uleb128 0x1
	.uleb128 0x13
	.byte	0
	.byte	0
	.uleb128 0xb
	.uleb128 0x10
	.byte	0
	.uleb128 0xb
	.uleb128 0x21
	.sleb128 8
	.uleb128 0x49
	.uleb128 0x13
	.byte	0
	.byte	0
	.uleb128 0xc
	.uleb128 0x2f
	.byte	0
	.uleb128 0x3
	.uleb128 0xe
	.uleb128 0x49
	.uleb128 0x13
	.byte	0
	.byte	0
	.uleb128 0xd
	.uleb128 0xf
	.byte	0
	.uleb128 0xb
	.uleb128 0x21
	.sleb128 8
	.uleb128 0x49
	.uleb128 0x13
	.byte	0
	.byte	0
	.uleb128 0xe
	.uleb128 0x5
	.byte	0
	.uleb128 0x3
	.uleb128 0x8
	.uleb128 0x3a
	.uleb128 0xb
	.uleb128 0x3b
	.uleb128 0x5
	.uleb128 0x39
	.uleb128 0xb
	.uleb128 0x49
	.uleb128 0x13
	.byte	0
	.byte	0
	.uleb128 0xf
	.uleb128 0x2f
	.byte	0
	.uleb128 0x3
	.uleb128 0x8
	.uleb128 0x49
	.uleb128 0x13
	.byte	0
	.byte	0
	.uleb128 0x10
	.uleb128 0xd
	.byte	0
	.uleb128 0x3
	.uleb128 0xe
	.uleb128 0x3a
	.uleb128 0xb
	.uleb128 0x3b
	.uleb128 0xb
	.uleb128 0x39
	.uleb128 0xb
	.uleb128 0x49
	.uleb128 0x13
	.uleb128 0x38
	.uleb128 0xb
	.byte	0
	.byte	0
	.uleb128 0x11
	.uleb128 0x2e
	.byte	0x1
	.uleb128 0x3f
	.uleb128 0x19
	.uleb128 0x3
	.uleb128 0xe
	.uleb128 0x3a
	.uleb128 0xb
	.uleb128 0x3b
	.uleb128 0x5
	.uleb128 0x39
	.uleb128 0xb
	.uleb128 0x6e
	.uleb128 0xe
	.uleb128 0x32
	.uleb128 0xb
	.uleb128 0x3c
	.uleb128 0x19
	.uleb128 0x64
	.uleb128 0x13
	.uleb128 0x1
	.uleb128 0x13
	.byte	0
	.byte	0
	.uleb128 0x12
	.uleb128 0x5
	.byte	0
	.uleb128 0x3
	.uleb128 0xe
	.uleb128 0x3a
	.uleb128 0xb
	.uleb128 0x3b
	.uleb128 0x5
	.uleb128 0x39
	.uleb128 0xb
	.uleb128 0x49
	.uleb128 0x13
	.byte	0
	.byte	0
	.uleb128 0x13
	.uleb128 0x2e
	.byte	0x1
	.uleb128 0x47
	.uleb128 0x13
	.uleb128 0x20
	.uleb128 0xb
	.uleb128 0x1
	.uleb128 0x13
	.byte	0
	.byte	0
	.uleb128 0x14
	.uleb128 0x49
	.byte	0
	.uleb128 0x2
	.uleb128 0x18
	.uleb128 0x7e
	.uleb128 0x18
	.byte	0
	.byte	0
	.uleb128 0x15
	.uleb128 0x1d
	.byte	0x1
	.uleb128 0x31
	.uleb128 0x13
	.uleb128 0x52
	.uleb128 0x1
	.uleb128 0x2138
	.uleb128 0x5
	.uleb128 0x55
	.uleb128 0x17
	.uleb128 0x58
	.uleb128 0xb
	.uleb128 0x59
	.uleb128 0x5
	.uleb128 0x57
	.uleb128 0xb
	.byte	0
	.byte	0
	.uleb128 0x16
	.uleb128 0x16
	.byte	0
	.uleb128 0x3
	.uleb128 0xe
	.uleb128 0x3a
	.uleb128 0xb
	.uleb128 0x3b
	.uleb128 0x5
	.uleb128 0x39
	.uleb128 0xb
	.uleb128 0x49
	.uleb128 0x13
	.uleb128 0x32
	.uleb128 0x21
	.sleb128 1
	.byte	0
	.byte	0
	.uleb128 0x17
	.uleb128 0x2e
	.byte	0x1
	.uleb128 0x3f
	.uleb128 0x19
	.uleb128 0x3
	.uleb128 0xe
	.uleb128 0x3a
	.uleb128 0xb
	.uleb128 0x3b
	.uleb128 0x5
	.uleb128 0x39
	.uleb128 0xb
	.uleb128 0x6e
	.uleb128 0xe
	.uleb128 0x49
	.uleb128 0x13
	.uleb128 0x3c
	.uleb128 0x19
	.uleb128 0x1
	.uleb128 0x13
	.byte	0
	.byte	0
	.uleb128 0x18
	.uleb128 0x2e
	.byte	0x1
	.uleb128 0x3f
	.uleb128 0x19
	.uleb128 0x3
	.uleb128 0xe
	.uleb128 0x3a
	.uleb128 0xb
	.uleb128 0x3b
	.uleb128 0x5
	.uleb128 0x39
	.uleb128 0xb
	.uleb128 0x49
	.uleb128 0x13
	.uleb128 0x3c
	.uleb128 0x19
	.uleb128 0x1
	.uleb128 0x13
	.byte	0
	.byte	0
	.uleb128 0x19
	.uleb128 0x8
	.byte	0
	.uleb128 0x3a
	.uleb128 0xb
	.uleb128 0x3b
	.uleb128 0x5
	.uleb128 0x39
	.uleb128 0xb
	.uleb128 0x18
	.uleb128 0x13
	.byte	0
	.byte	0
	.uleb128 0x1a
	.uleb128 0x13
	.byte	0x1
	.uleb128 0x3
	.uleb128 0xe
	.uleb128 0xb
	.uleb128 0xb
	.uleb128 0x3a
	.uleb128 0xb
	.uleb128 0x3b
	.uleb128 0xb
	.uleb128 0x39
	.uleb128 0xb
	.uleb128 0x1
	.uleb128 0x13
	.byte	0
	.byte	0
	.uleb128 0x1b
	.uleb128 0x2e
	.byte	0x1
	.uleb128 0x31
	.uleb128 0x13
	.uleb128 0x6e
	.uleb128 0xe
	.uleb128 0x64
	.uleb128 0x13
	.uleb128 0x1
	.uleb128 0x13
	.byte	0
	.byte	0
	.uleb128 0x1c
	.uleb128 0x2e
	.byte	0x1
	.uleb128 0x3f
	.uleb128 0x19
	.uleb128 0x3
	.uleb128 0xe
	.uleb128 0x3a
	.uleb128 0x21
	.sleb128 2
	.uleb128 0x3b
	.uleb128 0x5
	.uleb128 0x39
	.uleb128 0x21
	.sleb128 7
	.uleb128 0x6e
	.uleb128 0xe
	.uleb128 0x3c
	.uleb128 0x19
	.uleb128 0x64
	.uleb128 0x13
	.uleb128 0x1
	.uleb128 0x13
	.byte	0
	.byte	0
	.uleb128 0x1d
	.uleb128 0x16
	.byte	0
	.uleb128 0x3
	.uleb128 0xe
	.uleb128 0x3a
	.uleb128 0xb
	.uleb128 0x3b
	.uleb128 0x5
	.uleb128 0x39
	.uleb128 0xb
	.uleb128 0x49
	.uleb128 0x13
	.byte	0
	.byte	0
	.uleb128 0x1e
	.uleb128 0x2e
	.byte	0x1
	.uleb128 0x3
	.uleb128 0xe
	.uleb128 0x3a
	.uleb128 0xb
	.uleb128 0x3b
	.uleb128 0x5
	.uleb128 0x39
	.uleb128 0xb
	.uleb128 0x49
	.uleb128 0x13
	.uleb128 0x32
	.uleb128 0xb
	.uleb128 0x3c
	.uleb128 0x19
	.uleb128 0x64
	.uleb128 0x13
	.uleb128 0x1
	.uleb128 0x13
	.byte	0
	.byte	0
	.uleb128 0x1f
	.uleb128 0x1d
	.byte	0x1
	.uleb128 0x31
	.uleb128 0x13
	.uleb128 0x52
	.uleb128 0x1
	.uleb128 0x2138
	.uleb128 0x5
	.uleb128 0x11
	.uleb128 0x1
	.uleb128 0x12
	.uleb128 0x7
	.uleb128 0x58
	.uleb128 0xb
	.uleb128 0x59
	.uleb128 0x5
	.uleb128 0x57
	.uleb128 0xb
	.byte	0
	.byte	0
	.uleb128 0x20
	.uleb128 0x1d
	.byte	0x1
	.uleb128 0x31
	.uleb128 0x13
	.uleb128 0x52
	.uleb128 0x1
	.uleb128 0x2138
	.uleb128 0x5
	.uleb128 0x11
	.uleb128 0x1
	.uleb128 0x12
	.uleb128 0x7
	.uleb128 0x58
	.uleb128 0xb
	.uleb128 0x59
	.uleb128 0xb
	.uleb128 0x57
	.uleb128 0xb
	.byte	0
	.byte	0
	.uleb128 0x21
	.uleb128 0x2e
	.byte	0x1
	.uleb128 0x3f
	.uleb128 0x19
	.uleb128 0x3
	.uleb128 0xe
	.uleb128 0x3a
	.uleb128 0xb
	.uleb128 0x3b
	.uleb128 0xb
	.uleb128 0x39
	.uleb128 0xb
	.uleb128 0x6e
	.uleb128 0xe
	.uleb128 0x49
	.uleb128 0x13
	.uleb128 0x32
	.uleb128 0xb
	.uleb128 0x3c
	.uleb128 0x19
	.uleb128 0x64
	.uleb128 0x13
	.uleb128 0x1
	.uleb128 0x13
	.byte	0
	.byte	0
	.uleb128 0x22
	.uleb128 0x2e
	.byte	0x1
	.uleb128 0x3f
	.uleb128 0x19
	.uleb128 0x3
	.uleb128 0xe
	.uleb128 0x3a
	.uleb128 0xb
	.uleb128 0x3b
	.uleb128 0xb
	.uleb128 0x39
	.uleb128 0xb
	.uleb128 0x6e
	.uleb128 0xe
	.uleb128 0x3c
	.uleb128 0x19
	.uleb128 0x64
	.uleb128 0x13
	.uleb128 0x1
	.uleb128 0x13
	.byte	0
	.byte	0
	.uleb128 0x23
	.uleb128 0x2e
	.byte	0x1
	.uleb128 0x3f
	.uleb128 0x19
	.uleb128 0x3
	.uleb128 0xe
	.uleb128 0x3a
	.uleb128 0xb
	.uleb128 0x3b
	.uleb128 0xb
	.uleb128 0x39
	.uleb128 0xb
	.uleb128 0x6e
	.uleb128 0xe
	.uleb128 0x32
	.uleb128 0xb
	.uleb128 0x3c
	.uleb128 0x19
	.uleb128 0x64
	.uleb128 0x13
	.uleb128 0x1
	.uleb128 0x13
	.byte	0
	.byte	0
	.uleb128 0x24
	.uleb128 0x5
	.byte	0
	.uleb128 0x3
	.uleb128 0x8
	.uleb128 0x3a
	.uleb128 0xb
	.uleb128 0x3b
	.uleb128 0xb
	.uleb128 0x39
	.uleb128 0xb
	.uleb128 0x49
	.uleb128 0x13
	.byte	0
	.byte	0
	.uleb128 0x25
	.uleb128 0x2e
	.byte	0x1
	.uleb128 0x3f
	.uleb128 0x19
	.uleb128 0x3
	.uleb128 0xe
	.uleb128 0x3a
	.uleb128 0xb
	.uleb128 0x3b
	.uleb128 0xb
	.uleb128 0x39
	.uleb128 0xb
	.uleb128 0x49
	.uleb128 0x13
	.uleb128 0x3c
	.uleb128 0x19
	.uleb128 0x1
	.uleb128 0x13
	.byte	0
	.byte	0
	.uleb128 0x26
	.uleb128 0x34
	.byte	0
	.uleb128 0x3
	.uleb128 0xe
	.uleb128 0x3a
	.uleb128 0xb
	.uleb128 0x3b
	.uleb128 0x5
	.uleb128 0x39
	.uleb128 0xb
	.uleb128 0x49
	.uleb128 0x13
	.byte	0
	.byte	0
	.uleb128 0x27
	.uleb128 0x16
	.byte	0
	.uleb128 0x3
	.uleb128 0xe
	.uleb128 0x3a
	.uleb128 0xb
	.uleb128 0x3b
	.uleb128 0xb
	.uleb128 0x39
	.uleb128 0xb
	.uleb128 0x49
	.uleb128 0x13
	.uleb128 0x32
	.uleb128 0x21
	.sleb128 1
	.byte	0
	.byte	0
	.uleb128 0x28
	.uleb128 0x42
	.byte	0
	.uleb128 0xb
	.uleb128 0x21
	.sleb128 8
	.uleb128 0x49
	.uleb128 0x13
	.byte	0
	.byte	0
	.uleb128 0x29
	.uleb128 0x2e
	.byte	0x1
	.uleb128 0x3
	.uleb128 0xe
	.uleb128 0x3a
	.uleb128 0xb
	.uleb128 0x3b
	.uleb128 0x5
	.uleb128 0x39
	.uleb128 0xb
	.uleb128 0x32
	.uleb128 0xb
	.uleb128 0x3c
	.uleb128 0x19
	.uleb128 0x64
	.uleb128 0x13
	.uleb128 0x1
	.uleb128 0x13
	.byte	0
	.byte	0
	.uleb128 0x2a
	.uleb128 0x48
	.byte	0x1
	.uleb128 0x7d
	.uleb128 0x1
	.uleb128 0x7f
	.uleb128 0x13
	.byte	0
	.byte	0
	.uleb128 0x2b
	.uleb128 0x24
	.byte	0
	.uleb128 0xb
	.uleb128 0xb
	.uleb128 0x3e
	.uleb128 0xb
	.uleb128 0x3
	.uleb128 0xe
	.byte	0
	.byte	0
	.uleb128 0x2c
	.uleb128 0x1d
	.byte	0x1
	.uleb128 0x31
	.uleb128 0x13
	.uleb128 0x52
	.uleb128 0x1
	.uleb128 0x2138
	.uleb128 0x5
	.uleb128 0x11
	.uleb128 0x1
	.uleb128 0x12
	.uleb128 0x7
	.uleb128 0x58
	.uleb128 0xb
	.uleb128 0x59
	.uleb128 0x5
	.uleb128 0x57
	.uleb128 0xb
	.uleb128 0x1
	.uleb128 0x13
	.byte	0
	.byte	0
	.uleb128 0x2d
	.uleb128 0x1d
	.byte	0x1
	.uleb128 0x31
	.uleb128 0x13
	.uleb128 0x52
	.uleb128 0x1
	.uleb128 0x2138
	.uleb128 0x5
	.uleb128 0x55
	.uleb128 0x17
	.uleb128 0x58
	.uleb128 0xb
	.uleb128 0x59
	.uleb128 0x5
	.uleb128 0x57
	.uleb128 0xb
	.uleb128 0x1
	.uleb128 0x13
	.byte	0
	.byte	0
	.uleb128 0x2e
	.uleb128 0x34
	.byte	0
	.uleb128 0x31
	.uleb128 0x13
	.uleb128 0x2
	.uleb128 0x17
	.uleb128 0x2137
	.uleb128 0x17
	.byte	0
	.byte	0
	.uleb128 0x2f
	.uleb128 0x2
	.byte	0
	.uleb128 0x3
	.uleb128 0xe
	.uleb128 0x3c
	.uleb128 0x19
	.byte	0
	.byte	0
	.uleb128 0x30
	.uleb128 0x2e
	.byte	0x1
	.uleb128 0x3f
	.uleb128 0x19
	.uleb128 0x3
	.uleb128 0xe
	.uleb128 0x3a
	.uleb128 0xb
	.uleb128 0x3b
	.uleb128 0xb
	.uleb128 0x39
	.uleb128 0xb
	.uleb128 0x6e
	.uleb128 0xe
	.uleb128 0x49
	.uleb128 0x13
	.uleb128 0x3c
	.uleb128 0x19
	.uleb128 0x1
	.uleb128 0x13
	.byte	0
	.byte	0
	.uleb128 0x31
	.uleb128 0x2e
	.byte	0
	.uleb128 0x3f
	.uleb128 0x19
	.uleb128 0x3
	.uleb128 0xe
	.uleb128 0x3a
	.uleb128 0x21
	.sleb128 47
	.uleb128 0x3b
	.uleb128 0xb
	.uleb128 0x39
	.uleb128 0x21
	.sleb128 27
	.uleb128 0x6e
	.uleb128 0xe
	.uleb128 0x49
	.uleb128 0x13
	.uleb128 0x3c
	.uleb128 0x19
	.byte	0
	.byte	0
	.uleb128 0x32
	.uleb128 0x34
	.byte	0
	.uleb128 0x3
	.uleb128 0xe
	.uleb128 0x3a
	.uleb128 0x21
	.sleb128 1
	.uleb128 0x3b
	.uleb128 0xb
	.uleb128 0x39
	.uleb128 0xb
	.uleb128 0x49
	.uleb128 0x13
	.uleb128 0x2
	.uleb128 0x17
	.uleb128 0x2137
	.uleb128 0x17
	.byte	0
	.byte	0
	.uleb128 0x33
	.uleb128 0x1c
	.byte	0
	.uleb128 0x49
	.uleb128 0x13
	.uleb128 0x38
	.uleb128 0x21
	.sleb128 0
	.byte	0
	.byte	0
	.uleb128 0x34
	.uleb128 0x2e
	.byte	0x1
	.uleb128 0x3f
	.uleb128 0x19
	.uleb128 0x3
	.uleb128 0xe
	.uleb128 0x3a
	.uleb128 0x21
	.sleb128 2
	.uleb128 0x3b
	.uleb128 0x5
	.uleb128 0x39
	.uleb128 0xb
	.uleb128 0x6e
	.uleb128 0xe
	.uleb128 0x49
	.uleb128 0x13
	.uleb128 0x3c
	.uleb128 0x19
	.uleb128 0x64
	.uleb128 0x13
	.uleb128 0x1
	.uleb128 0x13
	.byte	0
	.byte	0
	.uleb128 0x35
	.uleb128 0x1d
	.byte	0x1
	.uleb128 0x31
	.uleb128 0x13
	.uleb128 0x52
	.uleb128 0x1
	.uleb128 0x2138
	.uleb128 0x5
	.uleb128 0x55
	.uleb128 0x17
	.uleb128 0x58
	.uleb128 0xb
	.uleb128 0x59
	.uleb128 0xb
	.uleb128 0x57
	.uleb128 0xb
	.uleb128 0x2136
	.uleb128 0xb
	.uleb128 0x1
	.uleb128 0x13
	.byte	0
	.byte	0
	.uleb128 0x36
	.uleb128 0x48
	.byte	0x1
	.uleb128 0x7d
	.uleb128 0x1
	.uleb128 0x7f
	.uleb128 0x13
	.uleb128 0x1
	.uleb128 0x13
	.byte	0
	.byte	0
	.uleb128 0x37
	.uleb128 0x2e
	.byte	0x1
	.uleb128 0x3f
	.uleb128 0x19
	.uleb128 0x3
	.uleb128 0x8
	.uleb128 0x3a
	.uleb128 0x21
	.sleb128 2
	.uleb128 0x3b
	.uleb128 0x5
	.uleb128 0x39
	.uleb128 0x21
	.sleb128 7
	.uleb128 0x6e
	.uleb128 0xe
	.uleb128 0x49
	.uleb128 0x13
	.uleb128 0x32
	.uleb128 0x21
	.sleb128 1
	.uleb128 0x3c
	.uleb128 0x19
	.uleb128 0x64
	.uleb128 0x13
	.uleb128 0x1
	.uleb128 0x13
	.byte	0
	.byte	0
	.uleb128 0x38
	.uleb128 0x34
	.byte	0
	.uleb128 0x31
	.uleb128 0x13
	.byte	0
	.byte	0
	.uleb128 0x39
	.uleb128 0x1d
	.byte	0x1
	.uleb128 0x31
	.uleb128 0x13
	.uleb128 0x52
	.uleb128 0x1
	.uleb128 0x2138
	.uleb128 0x5
	.uleb128 0x11
	.uleb128 0x1
	.uleb128 0x12
	.uleb128 0x7
	.uleb128 0x58
	.uleb128 0xb
	.uleb128 0x59
	.uleb128 0xb
	.uleb128 0x57
	.uleb128 0xb
	.uleb128 0x1
	.uleb128 0x13
	.byte	0
	.byte	0
	.uleb128 0x3a
	.uleb128 0x1d
	.byte	0x1
	.uleb128 0x31
	.uleb128 0x13
	.uleb128 0x52
	.uleb128 0x1
	.uleb128 0x2138
	.uleb128 0x5
	.uleb128 0x55
	.uleb128 0x17
	.uleb128 0x58
	.uleb128 0xb
	.uleb128 0x59
	.uleb128 0xb
	.uleb128 0x57
	.uleb128 0xb
	.uleb128 0x1
	.uleb128 0x13
	.byte	0
	.byte	0
	.uleb128 0x3b
	.uleb128 0x2e
	.byte	0x1
	.uleb128 0x3f
	.uleb128 0x19
	.uleb128 0x3
	.uleb128 0xe
	.uleb128 0x3a
	.uleb128 0xb
	.uleb128 0x3b
	.uleb128 0x5
	.uleb128 0x39
	.uleb128 0xb
	.uleb128 0x6e
	.uleb128 0xe
	.uleb128 0x3c
	.uleb128 0x19
	.uleb128 0x1
	.uleb128 0x13
	.byte	0
	.byte	0
	.uleb128 0x3c
	.uleb128 0x2e
	.byte	0x1
	.uleb128 0x3
	.uleb128 0xe
	.uleb128 0x3a
	.uleb128 0x21
	.sleb128 2
	.uleb128 0x3b
	.uleb128 0x5
	.uleb128 0x39
	.uleb128 0xb
	.uleb128 0x3c
	.uleb128 0x19
	.uleb128 0x64
	.uleb128 0x13
	.uleb128 0x1
	.uleb128 0x13
	.byte	0
	.byte	0
	.uleb128 0x3d
	.uleb128 0x2e
	.byte	0x1
	.uleb128 0x31
	.uleb128 0x13
	.uleb128 0x64
	.uleb128 0x13
	.uleb128 0x1
	.uleb128 0x13
	.byte	0
	.byte	0
	.uleb128 0x3e
	.uleb128 0x34
	.byte	0
	.uleb128 0x3
	.uleb128 0x8
	.uleb128 0x3a
	.uleb128 0x21
	.sleb128 1
	.uleb128 0x3b
	.uleb128 0xb
	.uleb128 0x39
	.uleb128 0xb
	.uleb128 0x49
	.uleb128 0x13
	.uleb128 0x2
	.uleb128 0x17
	.uleb128 0x2137
	.uleb128 0x17
	.byte	0
	.byte	0
	.uleb128 0x3f
	.uleb128 0x2
	.byte	0x1
	.uleb128 0x3
	.uleb128 0xe
	.uleb128 0xb
	.uleb128 0xb
	.uleb128 0x3a
	.uleb128 0xb
	.uleb128 0x3b
	.uleb128 0xb
	.uleb128 0x39
	.uleb128 0x21
	.sleb128 11
	.uleb128 0x1
	.uleb128 0x13
	.byte	0
	.byte	0
	.uleb128 0x40
	.uleb128 0x5
	.byte	0
	.uleb128 0x3
	.uleb128 0xe
	.uleb128 0x3a
	.uleb128 0xb
	.uleb128 0x3b
	.uleb128 0xb
	.uleb128 0x39
	.uleb128 0xb
	.uleb128 0x49
	.uleb128 0x13
	.byte	0
	.byte	0
	.uleb128 0x41
	.uleb128 0xb
	.byte	0x1
	.byte	0
	.byte	0
	.uleb128 0x42
	.uleb128 0x2e
	.byte	0x1
	.uleb128 0x3f
	.uleb128 0x19
	.uleb128 0x3
	.uleb128 0xe
	.uleb128 0x3a
	.uleb128 0xb
	.uleb128 0x3b
	.uleb128 0xb
	.uleb128 0x39
	.uleb128 0xb
	.uleb128 0x6e
	.uleb128 0xe
	.uleb128 0x49
	.uleb128 0x13
	.uleb128 0x3c
	.uleb128 0x19
	.uleb128 0x64
	.uleb128 0x13
	.uleb128 0x1
	.uleb128 0x13
	.byte	0
	.byte	0
	.uleb128 0x43
	.uleb128 0x2e
	.byte	0x1
	.uleb128 0x3f
	.uleb128 0x19
	.uleb128 0x3
	.uleb128 0xe
	.uleb128 0x3a
	.uleb128 0xb
	.uleb128 0x3b
	.uleb128 0x5
	.uleb128 0x39
	.uleb128 0x21
	.sleb128 7
	.uleb128 0x6e
	.uleb128 0xe
	.uleb128 0x32
	.uleb128 0x21
	.sleb128 1
	.uleb128 0x3c
	.uleb128 0x19
	.uleb128 0x63
	.uleb128 0x19
	.uleb128 0x64
	.uleb128 0x13
	.uleb128 0x1
	.uleb128 0x13
	.byte	0
	.byte	0
	.uleb128 0x44
	.uleb128 0x2e
	.byte	0x1
	.uleb128 0x3
	.uleb128 0xe
	.uleb128 0x3a
	.uleb128 0xb
	.uleb128 0x3b
	.uleb128 0x5
	.uleb128 0x39
	.uleb128 0xb
	.uleb128 0x49
	.uleb128 0x13
	.uleb128 0x3c
	.uleb128 0x19
	.uleb128 0x1
	.uleb128 0x13
	.byte	0
	.byte	0
	.uleb128 0x45
	.uleb128 0xd
	.byte	0
	.uleb128 0x3
	.uleb128 0x8
	.uleb128 0x3a
	.uleb128 0xb
	.uleb128 0x3b
	.uleb128 0xb
	.uleb128 0x39
	.uleb128 0xb
	.uleb128 0x49
	.uleb128 0x13
	.uleb128 0x38
	.uleb128 0xb
	.byte	0
	.byte	0
	.uleb128 0x46
	.uleb128 0x1c
	.byte	0
	.uleb128 0x49
	.uleb128 0x13
	.uleb128 0x38
	.uleb128 0x21
	.sleb128 0
	.uleb128 0x32
	.uleb128 0xb
	.byte	0
	.byte	0
	.uleb128 0x47
	.uleb128 0x2e
	.byte	0x1
	.uleb128 0x3f
	.uleb128 0x19
	.uleb128 0x3
	.uleb128 0xe
	.uleb128 0x3a
	.uleb128 0xb
	.uleb128 0x3b
	.uleb128 0xb
	.uleb128 0x39
	.uleb128 0xb
	.uleb128 0x6e
	.uleb128 0xe
	.uleb128 0x3c
	.uleb128 0x19
	.uleb128 0x1
	.uleb128 0x13
	.byte	0
	.byte	0
	.uleb128 0x48
	.uleb128 0x1d
	.byte	0x1
	.uleb128 0x31
	.uleb128 0x13
	.uleb128 0x52
	.uleb128 0x1
	.uleb128 0x2138
	.uleb128 0x5
	.uleb128 0x55
	.uleb128 0x17
	.uleb128 0x58
	.uleb128 0xb
	.uleb128 0x59
	.uleb128 0x5
	.uleb128 0x57
	.uleb128 0xb
	.uleb128 0x2136
	.uleb128 0xb
	.byte	0
	.byte	0
	.uleb128 0x49
	.uleb128 0x1d
	.byte	0x1
	.uleb128 0x31
	.uleb128 0x13
	.uleb128 0x52
	.uleb128 0x1
	.uleb128 0x2138
	.uleb128 0x5
	.uleb128 0x11
	.uleb128 0x1
	.uleb128 0x12
	.uleb128 0x7
	.uleb128 0x58
	.uleb128 0x21
	.sleb128 1
	.uleb128 0x59
	.uleb128 0xb
	.uleb128 0x57
	.uleb128 0xb
	.uleb128 0x2136
	.uleb128 0xb
	.uleb128 0x1
	.uleb128 0x13
	.byte	0
	.byte	0
	.uleb128 0x4a
	.uleb128 0x2
	.byte	0x1
	.uleb128 0x3
	.uleb128 0xe
	.uleb128 0xb
	.uleb128 0xb
	.uleb128 0x3a
	.uleb128 0xb
	.uleb128 0x3b
	.uleb128 0x5
	.uleb128 0x39
	.uleb128 0x21
	.sleb128 11
	.uleb128 0x1
	.uleb128 0x13
	.byte	0
	.byte	0
	.uleb128 0x4b
	.uleb128 0x34
	.byte	0
	.uleb128 0x3
	.uleb128 0xe
	.uleb128 0x3a
	.uleb128 0xb
	.uleb128 0x3b
	.uleb128 0xb
	.uleb128 0x39
	.uleb128 0xb
	.uleb128 0x49
	.uleb128 0x13
	.byte	0
	.byte	0
	.uleb128 0x4c
	.uleb128 0x2e
	.byte	0x1
	.uleb128 0x3f
	.uleb128 0x19
	.uleb128 0x3
	.uleb128 0xe
	.uleb128 0x3a
	.uleb128 0xb
	.uleb128 0x3b
	.uleb128 0xb
	.uleb128 0x39
	.uleb128 0xb
	.uleb128 0x6e
	.uleb128 0xe
	.uleb128 0x49
	.uleb128 0x13
	.uleb128 0x32
	.uleb128 0x21
	.sleb128 1
	.uleb128 0x3c
	.uleb128 0x19
	.uleb128 0x8b
	.uleb128 0x21
	.sleb128 1
	.uleb128 0x64
	.uleb128 0x13
	.uleb128 0x1
	.uleb128 0x13
	.byte	0
	.byte	0
	.uleb128 0x4d
	.uleb128 0x2e
	.byte	0x1
	.uleb128 0x3f
	.uleb128 0x19
	.uleb128 0x3
	.uleb128 0xe
	.uleb128 0x3a
	.uleb128 0x21
	.sleb128 2
	.uleb128 0x3b
	.uleb128 0x5
	.uleb128 0x39
	.uleb128 0x21
	.sleb128 7
	.uleb128 0x6e
	.uleb128 0xe
	.uleb128 0x3c
	.uleb128 0x19
	.uleb128 0x8b
	.uleb128 0x21
	.sleb128 1
	.uleb128 0x64
	.uleb128 0x13
	.uleb128 0x1
	.uleb128 0x13
	.byte	0
	.byte	0
	.uleb128 0x4e
	.uleb128 0xd
	.byte	0
	.uleb128 0x3
	.uleb128 0xe
	.uleb128 0x3a
	.uleb128 0x21
	.sleb128 2
	.uleb128 0x3b
	.uleb128 0x5
	.uleb128 0x39
	.uleb128 0xb
	.uleb128 0x49
	.uleb128 0x13
	.uleb128 0x38
	.uleb128 0xb
	.byte	0
	.byte	0
	.uleb128 0x4f
	.uleb128 0x2e
	.byte	0x1
	.uleb128 0x3f
	.uleb128 0x19
	.uleb128 0x3
	.uleb128 0xe
	.uleb128 0x3a
	.uleb128 0x21
	.sleb128 2
	.uleb128 0x3b
	.uleb128 0x5
	.uleb128 0x39
	.uleb128 0x21
	.sleb128 7
	.uleb128 0x6e
	.uleb128 0xe
	.uleb128 0x32
	.uleb128 0x21
	.sleb128 1
	.uleb128 0x3c
	.uleb128 0x19
	.uleb128 0x8b
	.uleb128 0x21
	.sleb128 1
	.uleb128 0x64
	.uleb128 0x13
	.uleb128 0x1
	.uleb128 0x13
	.byte	0
	.byte	0
	.uleb128 0x50
	.uleb128 0x2e
	.byte	0x1
	.uleb128 0x3f
	.uleb128 0x19
	.uleb128 0x3
	.uleb128 0xe
	.uleb128 0x3a
	.uleb128 0x21
	.sleb128 2
	.uleb128 0x3b
	.uleb128 0x5
	.uleb128 0x39
	.uleb128 0x21
	.sleb128 7
	.uleb128 0x6e
	.uleb128 0xe
	.uleb128 0x49
	.uleb128 0x13
	.uleb128 0x32
	.uleb128 0x21
	.sleb128 2
	.uleb128 0x3c
	.uleb128 0x19
	.uleb128 0x1
	.uleb128 0x13
	.byte	0
	.byte	0
	.uleb128 0x51
	.uleb128 0x2e
	.byte	0x1
	.uleb128 0x3
	.uleb128 0xe
	.uleb128 0x3a
	.uleb128 0xb
	.uleb128 0x3b
	.uleb128 0xb
	.uleb128 0x39
	.uleb128 0xb
	.uleb128 0x32
	.uleb128 0x21
	.sleb128 1
	.uleb128 0x3c
	.uleb128 0x19
	.uleb128 0x64
	.uleb128 0x13
	.uleb128 0x1
	.uleb128 0x13
	.byte	0
	.byte	0
	.uleb128 0x52
	.uleb128 0x2e
	.byte	0x1
	.uleb128 0x3
	.uleb128 0xe
	.uleb128 0x3a
	.uleb128 0xb
	.uleb128 0x3b
	.uleb128 0xb
	.uleb128 0x39
	.uleb128 0xb
	.uleb128 0x49
	.uleb128 0x13
	.uleb128 0x32
	.uleb128 0xb
	.uleb128 0x3c
	.uleb128 0x19
	.uleb128 0x64
	.uleb128 0x13
	.uleb128 0x1
	.uleb128 0x13
	.byte	0
	.byte	0
	.uleb128 0x53
	.uleb128 0x4107
	.byte	0x1
	.uleb128 0x3
	.uleb128 0xe
	.uleb128 0x1
	.uleb128 0x13
	.byte	0
	.byte	0
	.uleb128 0x54
	.uleb128 0x2f
	.byte	0
	.uleb128 0x49
	.uleb128 0x13
	.byte	0
	.byte	0
	.uleb128 0x55
	.uleb128 0x2e
	.byte	0x1
	.uleb128 0x3
	.uleb128 0xe
	.uleb128 0x3a
	.uleb128 0x21
	.sleb128 2
	.uleb128 0x3b
	.uleb128 0xb
	.uleb128 0x39
	.uleb128 0x21
	.sleb128 2
	.uleb128 0x3c
	.uleb128 0x19
	.uleb128 0x64
	.uleb128 0x13
	.uleb128 0x1
	.uleb128 0x13
	.byte	0
	.byte	0
	.uleb128 0x56
	.uleb128 0x1d
	.byte	0x1
	.uleb128 0x31
	.uleb128 0x13
	.uleb128 0x52
	.uleb128 0x1
	.uleb128 0x2138
	.uleb128 0x5
	.uleb128 0x55
	.uleb128 0x17
	.uleb128 0x58
	.uleb128 0xb
	.uleb128 0x59
	.uleb128 0x5
	.uleb128 0x57
	.uleb128 0xb
	.uleb128 0x2136
	.uleb128 0xb
	.uleb128 0x1
	.uleb128 0x13
	.byte	0
	.byte	0
	.uleb128 0x57
	.uleb128 0x1d
	.byte	0x1
	.uleb128 0x31
	.uleb128 0x13
	.uleb128 0x52
	.uleb128 0x1
	.uleb128 0x2138
	.uleb128 0x5
	.uleb128 0x11
	.uleb128 0x1
	.uleb128 0x12
	.uleb128 0x7
	.uleb128 0x58
	.uleb128 0xb
	.uleb128 0x59
	.uleb128 0xb
	.uleb128 0x57
	.uleb128 0xb
	.uleb128 0x2136
	.uleb128 0xb
	.byte	0
	.byte	0
	.uleb128 0x58
	.uleb128 0x48
	.byte	0
	.uleb128 0x7d
	.uleb128 0x1
	.uleb128 0x83
	.uleb128 0x18
	.byte	0
	.byte	0
	.uleb128 0x59
	.uleb128 0x13
	.byte	0x1
	.uleb128 0x3
	.uleb128 0xe
	.uleb128 0xb
	.uleb128 0xb
	.uleb128 0x3a
	.uleb128 0xb
	.uleb128 0x3b
	.uleb128 0x5
	.uleb128 0x39
	.uleb128 0xb
	.uleb128 0x1
	.uleb128 0x13
	.byte	0
	.byte	0
	.uleb128 0x5a
	.uleb128 0x34
	.byte	0
	.uleb128 0x3
	.uleb128 0x8
	.uleb128 0x3a
	.uleb128 0xb
	.uleb128 0x3b
	.uleb128 0x5
	.uleb128 0x39
	.uleb128 0xb
	.uleb128 0x49
	.uleb128 0x13
	.byte	0
	.byte	0
	.uleb128 0x5b
	.uleb128 0x34
	.byte	0
	.uleb128 0x3
	.uleb128 0xe
	.uleb128 0x49
	.uleb128 0x13
	.uleb128 0x34
	.uleb128 0x19
	.byte	0
	.byte	0
	.uleb128 0x5c
	.uleb128 0xb
	.byte	0x1
	.uleb128 0x55
	.uleb128 0x17
	.byte	0
	.byte	0
	.uleb128 0x5d
	.uleb128 0xb
	.byte	0x1
	.uleb128 0x31
	.uleb128 0x13
	.uleb128 0x55
	.uleb128 0x17
	.uleb128 0x1
	.uleb128 0x13
	.byte	0
	.byte	0
	.uleb128 0x5e
	.uleb128 0x18
	.byte	0
	.byte	0
	.byte	0
	.uleb128 0x5f
	.uleb128 0x2e
	.byte	0x1
	.uleb128 0x3f
	.uleb128 0x19
	.uleb128 0x3
	.uleb128 0xe
	.uleb128 0x3a
	.uleb128 0xb
	.uleb128 0x3b
	.uleb128 0x5
	.uleb128 0x39
	.uleb128 0x21
	.sleb128 13
	.uleb128 0x3c
	.uleb128 0x19
	.uleb128 0x1
	.uleb128 0x13
	.byte	0
	.byte	0
	.uleb128 0x60
	.uleb128 0x2e
	.byte	0x1
	.uleb128 0x47
	.uleb128 0x13
	.uleb128 0x3a
	.uleb128 0xb
	.uleb128 0x3b
	.uleb128 0xb
	.uleb128 0x39
	.uleb128 0xb
	.uleb128 0x64
	.uleb128 0x13
	.uleb128 0x20
	.uleb128 0x21
	.sleb128 2
	.uleb128 0x1
	.uleb128 0x13
	.byte	0
	.byte	0
	.uleb128 0x61
	.uleb128 0xb
	.byte	0x1
	.uleb128 0x55
	.uleb128 0x17
	.uleb128 0x1
	.uleb128 0x13
	.byte	0
	.byte	0
	.uleb128 0x62
	.uleb128 0x1d
	.byte	0x1
	.uleb128 0x31
	.uleb128 0x13
	.uleb128 0x52
	.uleb128 0x1
	.uleb128 0x2138
	.uleb128 0x5
	.uleb128 0x55
	.uleb128 0x17
	.uleb128 0x58
	.uleb128 0xb
	.uleb128 0x59
	.uleb128 0xb
	.uleb128 0x57
	.uleb128 0xb
	.byte	0
	.byte	0
	.uleb128 0x63
	.uleb128 0x2e
	.byte	0x1
	.uleb128 0x3f
	.uleb128 0x19
	.uleb128 0x3
	.uleb128 0xe
	.uleb128 0x3a
	.uleb128 0x21
	.sleb128 2
	.uleb128 0x3b
	.uleb128 0xb
	.uleb128 0x39
	.uleb128 0x21
	.sleb128 2
	.uleb128 0x6e
	.uleb128 0xe
	.uleb128 0x3c
	.uleb128 0x19
	.uleb128 0x64
	.uleb128 0x13
	.byte	0
	.byte	0
	.uleb128 0x64
	.uleb128 0x2f
	.byte	0
	.uleb128 0x3
	.uleb128 0xe
	.uleb128 0x49
	.uleb128 0x13
	.uleb128 0x1e
	.uleb128 0x19
	.byte	0
	.byte	0
	.uleb128 0x65
	.uleb128 0x2e
	.byte	0x1
	.uleb128 0x3
	.uleb128 0xe
	.uleb128 0x3a
	.uleb128 0x21
	.sleb128 2
	.uleb128 0x3b
	.uleb128 0x5
	.uleb128 0x39
	.uleb128 0xb
	.uleb128 0x49
	.uleb128 0x13
	.uleb128 0x3c
	.uleb128 0x19
	.uleb128 0x64
	.uleb128 0x13
	.uleb128 0x1
	.uleb128 0x13
	.byte	0
	.byte	0
	.uleb128 0x66
	.uleb128 0x2e
	.byte	0
	.uleb128 0x3
	.uleb128 0xe
	.uleb128 0x3a
	.uleb128 0x21
	.sleb128 47
	.uleb128 0x3b
	.uleb128 0xb
	.uleb128 0x39
	.uleb128 0x21
	.sleb128 27
	.uleb128 0x49
	.uleb128 0x13
	.uleb128 0x3c
	.uleb128 0x19
	.byte	0
	.byte	0
	.uleb128 0x67
	.uleb128 0x1d
	.byte	0x1
	.uleb128 0x31
	.uleb128 0x13
	.uleb128 0x52
	.uleb128 0x1
	.uleb128 0x2138
	.uleb128 0x5
	.uleb128 0x11
	.uleb128 0x1
	.uleb128 0x12
	.uleb128 0x7
	.uleb128 0x58
	.uleb128 0x21
	.sleb128 2
	.uleb128 0x59
	.uleb128 0x5
	.uleb128 0x57
	.uleb128 0xb
	.uleb128 0x2136
	.uleb128 0xb
	.uleb128 0x1
	.uleb128 0x13
	.byte	0
	.byte	0
	.uleb128 0x68
	.uleb128 0xb
	.byte	0x1
	.uleb128 0x31
	.uleb128 0x13
	.uleb128 0x55
	.uleb128 0x17
	.byte	0
	.byte	0
	.uleb128 0x69
	.uleb128 0x39
	.byte	0x1
	.uleb128 0x3
	.uleb128 0xe
	.uleb128 0x3a
	.uleb128 0xb
	.uleb128 0x3b
	.uleb128 0xb
	.uleb128 0x39
	.uleb128 0xb
	.uleb128 0x1
	.uleb128 0x13
	.byte	0
	.byte	0
	.uleb128 0x6a
	.uleb128 0x2e
	.byte	0x1
	.uleb128 0x3f
	.uleb128 0x19
	.uleb128 0x3
	.uleb128 0xe
	.uleb128 0x3a
	.uleb128 0x21
	.sleb128 5
	.uleb128 0x3b
	.uleb128 0x21
	.sleb128 189
	.uleb128 0x39
	.uleb128 0x21
	.sleb128 7
	.uleb128 0x6e
	.uleb128 0xe
	.uleb128 0x32
	.uleb128 0x21
	.sleb128 1
	.uleb128 0x3c
	.uleb128 0x19
	.uleb128 0x64
	.uleb128 0x13
	.byte	0
	.byte	0
	.uleb128 0x6b
	.uleb128 0x2e
	.byte	0x1
	.uleb128 0x3f
	.uleb128 0x19
	.uleb128 0x3
	.uleb128 0xe
	.uleb128 0x6e
	.uleb128 0xe
	.uleb128 0x34
	.uleb128 0x19
	.uleb128 0x3c
	.uleb128 0x19
	.uleb128 0x64
	.uleb128 0x13
	.byte	0
	.byte	0
	.uleb128 0x6c
	.uleb128 0x2e
	.byte	0
	.uleb128 0x3f
	.uleb128 0x19
	.uleb128 0x3
	.uleb128 0xe
	.uleb128 0x3a
	.uleb128 0x21
	.sleb128 2
	.uleb128 0x3b
	.uleb128 0x21
	.sleb128 515
	.uleb128 0x39
	.uleb128 0x21
	.sleb128 7
	.uleb128 0x6e
	.uleb128 0xe
	.uleb128 0x49
	.uleb128 0x13
	.uleb128 0x3c
	.uleb128 0x19
	.byte	0
	.byte	0
	.uleb128 0x6d
	.uleb128 0x2e
	.byte	0x1
	.uleb128 0x3
	.uleb128 0x8
	.uleb128 0x3a
	.uleb128 0x21
	.sleb128 2
	.uleb128 0x3b
	.uleb128 0x5
	.uleb128 0x39
	.uleb128 0x21
	.sleb128 7
	.uleb128 0x49
	.uleb128 0x13
	.uleb128 0x32
	.uleb128 0x21
	.sleb128 1
	.uleb128 0x3c
	.uleb128 0x19
	.uleb128 0x64
	.uleb128 0x13
	.uleb128 0x1
	.uleb128 0x13
	.byte	0
	.byte	0
	.uleb128 0x6e
	.uleb128 0xd
	.byte	0
	.uleb128 0x3
	.uleb128 0xe
	.uleb128 0x3a
	.uleb128 0x21
	.sleb128 38
	.uleb128 0x3b
	.uleb128 0x21
	.sleb128 0
	.uleb128 0x49
	.uleb128 0x13
	.uleb128 0x38
	.uleb128 0xb
	.byte	0
	.byte	0
	.uleb128 0x6f
	.uleb128 0x13
	.byte	0x1
	.uleb128 0xb
	.uleb128 0xb
	.uleb128 0x3a
	.uleb128 0xb
	.uleb128 0x3b
	.uleb128 0xb
	.uleb128 0x39
	.uleb128 0xb
	.uleb128 0x6e
	.uleb128 0xe
	.uleb128 0x1
	.uleb128 0x13
	.byte	0
	.byte	0
	.uleb128 0x70
	.uleb128 0xd
	.byte	0
	.uleb128 0x3
	.uleb128 0xe
	.uleb128 0x3a
	.uleb128 0x21
	.sleb128 3
	.uleb128 0x3b
	.uleb128 0x21
	.sleb128 1029
	.uleb128 0x39
	.uleb128 0x21
	.sleb128 17
	.uleb128 0x49
	.uleb128 0x13
	.uleb128 0x38
	.uleb128 0x21
	.sleb128 0
	.uleb128 0x32
	.uleb128 0x21
	.sleb128 2
	.byte	0
	.byte	0
	.uleb128 0x71
	.uleb128 0x2e
	.byte	0
	.uleb128 0x3f
	.uleb128 0x19
	.uleb128 0x3
	.uleb128 0xe
	.uleb128 0x3a
	.uleb128 0xb
	.uleb128 0x3b
	.uleb128 0xb
	.uleb128 0x39
	.uleb128 0xb
	.uleb128 0x49
	.uleb128 0x13
	.uleb128 0x3c
	.uleb128 0x19
	.byte	0
	.byte	0
	.uleb128 0x72
	.uleb128 0xb
	.byte	0x1
	.uleb128 0x31
	.uleb128 0x13
	.byte	0
	.byte	0
	.uleb128 0x73
	.uleb128 0x39
	.byte	0
	.uleb128 0x3
	.uleb128 0xe
	.uleb128 0x3a
	.uleb128 0xb
	.uleb128 0x3b
	.uleb128 0xb
	.uleb128 0x39
	.uleb128 0xb
	.byte	0
	.byte	0
	.uleb128 0x74
	.uleb128 0x2e
	.byte	0x1
	.uleb128 0x3
	.uleb128 0xe
	.uleb128 0x3a
	.uleb128 0xb
	.uleb128 0x3b
	.uleb128 0x5
	.uleb128 0x39
	.uleb128 0x21
	.sleb128 7
	.uleb128 0x32
	.uleb128 0x21
	.sleb128 1
	.uleb128 0x3c
	.uleb128 0x19
	.uleb128 0x63
	.uleb128 0x19
	.uleb128 0x64
	.uleb128 0x13
	.uleb128 0x1
	.uleb128 0x13
	.byte	0
	.byte	0
	.uleb128 0x75
	.uleb128 0x1
	.byte	0x1
	.uleb128 0x49
	.uleb128 0x13
	.uleb128 0x1
	.uleb128 0x13
	.byte	0
	.byte	0
	.uleb128 0x76
	.uleb128 0x21
	.byte	0
	.uleb128 0x49
	.uleb128 0x13
	.uleb128 0x2f
	.uleb128 0xb
	.byte	0
	.byte	0
	.uleb128 0x77
	.uleb128 0x28
	.byte	0
	.uleb128 0x3
	.uleb128 0xe
	.uleb128 0x1c
	.uleb128 0xb
	.byte	0
	.byte	0
	.uleb128 0x78
	.uleb128 0x13
	.byte	0
	.uleb128 0x3
	.uleb128 0xe
	.uleb128 0x3c
	.uleb128 0x19
	.byte	0
	.byte	0
	.uleb128 0x79
	.uleb128 0xb
	.byte	0x1
	.uleb128 0x31
	.uleb128 0x13
	.uleb128 0x11
	.uleb128 0x1
	.uleb128 0x12
	.uleb128 0x7
	.uleb128 0x1
	.uleb128 0x13
	.byte	0
	.byte	0
	.uleb128 0x7a
	.uleb128 0x2e
	.byte	0
	.uleb128 0x3f
	.uleb128 0x19
	.uleb128 0x3c
	.uleb128 0x19
	.uleb128 0x6e
	.uleb128 0xe
	.uleb128 0x3
	.uleb128 0xe
	.byte	0
	.byte	0
	.uleb128 0x7b
	.uleb128 0x30
	.byte	0
	.uleb128 0x3
	.uleb128 0x8
	.uleb128 0x49
	.uleb128 0x13
	.uleb128 0x1c
	.uleb128 0xb
	.byte	0
	.byte	0
	.uleb128 0x7c
	.uleb128 0x39
	.byte	0
	.uleb128 0x3
	.uleb128 0xe
	.uleb128 0x3a
	.uleb128 0x21
	.sleb128 16
	.uleb128 0x3b
	.uleb128 0x5
	.uleb128 0x39
	.uleb128 0x21
	.sleb128 13
	.byte	0
	.byte	0
	.uleb128 0x7d
	.uleb128 0x2e
	.byte	0x1
	.uleb128 0x3f
	.uleb128 0x19
	.uleb128 0x3
	.uleb128 0xe
	.uleb128 0x3a
	.uleb128 0xb
	.uleb128 0x3b
	.uleb128 0xb
	.uleb128 0x39
	.uleb128 0xb
	.uleb128 0x6e
	.uleb128 0xe
	.uleb128 0x3c
	.uleb128 0x19
	.uleb128 0x63
	.uleb128 0x19
	.uleb128 0x64
	.uleb128 0x13
	.uleb128 0x1
	.uleb128 0x13
	.byte	0
	.byte	0
	.uleb128 0x7e
	.uleb128 0x2e
	.byte	0x1
	.uleb128 0x3f
	.uleb128 0x19
	.uleb128 0x3
	.uleb128 0xe
	.uleb128 0x3a
	.uleb128 0xb
	.uleb128 0x3b
	.uleb128 0xb
	.uleb128 0x39
	.uleb128 0xb
	.uleb128 0x6e
	.uleb128 0xe
	.uleb128 0x87
	.uleb128 0x19
	.uleb128 0x3c
	.uleb128 0x19
	.uleb128 0x1
	.uleb128 0x13
	.byte	0
	.byte	0
	.uleb128 0x7f
	.uleb128 0x39
	.byte	0
	.uleb128 0x3
	.uleb128 0xe
	.uleb128 0x3a
	.uleb128 0xb
	.uleb128 0x3b
	.uleb128 0x5
	.uleb128 0x39
	.uleb128 0xb
	.uleb128 0x89
	.uleb128 0x19
	.byte	0
	.byte	0
	.uleb128 0x80
	.uleb128 0x39
	.byte	0
	.uleb128 0x3
	.uleb128 0x8
	.uleb128 0x3a
	.uleb128 0xb
	.uleb128 0x3b
	.uleb128 0xb
	.uleb128 0x39
	.uleb128 0xb
	.uleb128 0x89
	.uleb128 0x19
	.byte	0
	.byte	0
	.uleb128 0x81
	.uleb128 0x30
	.byte	0
	.uleb128 0x3
	.uleb128 0xe
	.uleb128 0x49
	.uleb128 0x13
	.uleb128 0x1c
	.uleb128 0x21
	.sleb128 1
	.byte	0
	.byte	0
	.uleb128 0x82
	.uleb128 0x2e
	.byte	0x1
	.uleb128 0x3
	.uleb128 0xe
	.uleb128 0x3a
	.uleb128 0xb
	.uleb128 0x3b
	.uleb128 0xb
	.uleb128 0x39
	.uleb128 0xb
	.uleb128 0x49
	.uleb128 0x13
	.uleb128 0x32
	.uleb128 0x21
	.sleb128 1
	.uleb128 0x3c
	.uleb128 0x19
	.uleb128 0x8b
	.uleb128 0x21
	.sleb128 1
	.uleb128 0x64
	.uleb128 0x13
	.uleb128 0x1
	.uleb128 0x13
	.byte	0
	.byte	0
	.uleb128 0x83
	.uleb128 0x2e
	.byte	0x1
	.uleb128 0x3
	.uleb128 0xe
	.uleb128 0x3a
	.uleb128 0x21
	.sleb128 8
	.uleb128 0x3b
	.uleb128 0x5
	.uleb128 0x39
	.uleb128 0xb
	.uleb128 0x3c
	.uleb128 0x19
	.uleb128 0x1
	.uleb128 0x13
	.byte	0
	.byte	0
	.uleb128 0x84
	.uleb128 0x2e
	.byte	0x1
	.uleb128 0x3
	.uleb128 0xe
	.uleb128 0x3a
	.uleb128 0x21
	.sleb128 2
	.uleb128 0x3b
	.uleb128 0x5
	.uleb128 0x39
	.uleb128 0x21
	.sleb128 7
	.uleb128 0x3c
	.uleb128 0x19
	.uleb128 0x8b
	.uleb128 0x21
	.sleb128 1
	.uleb128 0x64
	.uleb128 0x13
	.uleb128 0x1
	.uleb128 0x13
	.byte	0
	.byte	0
	.uleb128 0x85
	.uleb128 0x2e
	.byte	0x1
	.uleb128 0x3
	.uleb128 0xe
	.uleb128 0x3a
	.uleb128 0x21
	.sleb128 2
	.uleb128 0x3b
	.uleb128 0x5
	.uleb128 0x39
	.uleb128 0x21
	.sleb128 7
	.uleb128 0x32
	.uleb128 0x21
	.sleb128 1
	.uleb128 0x3c
	.uleb128 0x19
	.uleb128 0x8b
	.uleb128 0x21
	.sleb128 1
	.uleb128 0x64
	.uleb128 0x13
	.uleb128 0x1
	.uleb128 0x13
	.byte	0
	.byte	0
	.uleb128 0x86
	.uleb128 0x2e
	.byte	0x1
	.uleb128 0x3
	.uleb128 0xe
	.uleb128 0x3a
	.uleb128 0x21
	.sleb128 2
	.uleb128 0x3b
	.uleb128 0x5
	.uleb128 0x39
	.uleb128 0x21
	.sleb128 7
	.uleb128 0x49
	.uleb128 0x13
	.uleb128 0x32
	.uleb128 0x21
	.sleb128 2
	.uleb128 0x3c
	.uleb128 0x19
	.uleb128 0x1
	.uleb128 0x13
	.byte	0
	.byte	0
	.uleb128 0x87
	.uleb128 0x2e
	.byte	0x1
	.uleb128 0x3f
	.uleb128 0x19
	.uleb128 0x3
	.uleb128 0x8
	.uleb128 0x3a
	.uleb128 0x21
	.sleb128 32
	.uleb128 0x3b
	.uleb128 0xb
	.uleb128 0x39
	.uleb128 0x21
	.sleb128 7
	.uleb128 0x6e
	.uleb128 0xe
	.uleb128 0x49
	.uleb128 0x13
	.uleb128 0x32
	.uleb128 0x21
	.sleb128 1
	.uleb128 0x3c
	.uleb128 0x19
	.uleb128 0x64
	.uleb128 0x13
	.uleb128 0x1
	.uleb128 0x13
	.byte	0
	.byte	0
	.uleb128 0x88
	.uleb128 0x2e
	.byte	0
	.uleb128 0x3f
	.uleb128 0x19
	.uleb128 0x3
	.uleb128 0xe
	.uleb128 0x3a
	.uleb128 0x21
	.sleb128 34
	.uleb128 0x3b
	.uleb128 0xb
	.uleb128 0x39
	.uleb128 0x21
	.sleb128 3
	.uleb128 0x6e
	.uleb128 0xe
	.uleb128 0x87
	.uleb128 0x19
	.uleb128 0x3c
	.uleb128 0x19
	.byte	0
	.byte	0
	.uleb128 0x89
	.uleb128 0x4107
	.byte	0
	.uleb128 0x3
	.uleb128 0xe
	.byte	0
	.byte	0
	.uleb128 0x8a
	.uleb128 0x2e
	.byte	0x1
	.uleb128 0x3
	.uleb128 0xe
	.uleb128 0x3a
	.uleb128 0xb
	.uleb128 0x3b
	.uleb128 0xb
	.uleb128 0x39
	.uleb128 0xb
	.uleb128 0x49
	.uleb128 0x13
	.uleb128 0x3c
	.uleb128 0x19
	.uleb128 0x1
	.uleb128 0x13
	.byte	0
	.byte	0
	.uleb128 0x8b
	.uleb128 0x2e
	.byte	0x1
	.uleb128 0x3
	.uleb128 0xe
	.uleb128 0x3a
	.uleb128 0xb
	.uleb128 0x3b
	.uleb128 0xb
	.uleb128 0x39
	.uleb128 0xb
	.uleb128 0x3c
	.uleb128 0x19
	.uleb128 0x1
	.uleb128 0x13
	.byte	0
	.byte	0
	.uleb128 0x8c
	.uleb128 0x2e
	.byte	0x1
	.uleb128 0x3f
	.uleb128 0x19
	.uleb128 0x3
	.uleb128 0xe
	.uleb128 0x3a
	.uleb128 0xb
	.uleb128 0x3b
	.uleb128 0x5
	.uleb128 0x39
	.uleb128 0xb
	.uleb128 0x6e
	.uleb128 0xe
	.uleb128 0x49
	.uleb128 0x13
	.uleb128 0x3c
	.uleb128 0x19
	.byte	0
	.byte	0
	.uleb128 0x8d
	.uleb128 0xd
	.byte	0
	.uleb128 0x3
	.uleb128 0xe
	.uleb128 0x3a
	.uleb128 0x21
	.sleb128 40
	.uleb128 0x3b
	.uleb128 0xb
	.uleb128 0x39
	.uleb128 0xb
	.uleb128 0x49
	.uleb128 0x13
	.byte	0
	.byte	0
	.uleb128 0x8e
	.uleb128 0x2e
	.byte	0
	.uleb128 0x3f
	.uleb128 0x19
	.uleb128 0x3
	.uleb128 0xe
	.uleb128 0x3a
	.uleb128 0xb
	.uleb128 0x3b
	.uleb128 0x5
	.uleb128 0x39
	.uleb128 0xb
	.uleb128 0x49
	.uleb128 0x13
	.uleb128 0x3c
	.uleb128 0x19
	.byte	0
	.byte	0
	.uleb128 0x8f
	.uleb128 0x39
	.byte	0x1
	.uleb128 0x3
	.uleb128 0xe
	.uleb128 0x3a
	.uleb128 0xb
	.uleb128 0x3b
	.uleb128 0x5
	.uleb128 0x39
	.uleb128 0x21
	.sleb128 11
	.uleb128 0x1
	.uleb128 0x13
	.byte	0
	.byte	0
	.uleb128 0x90
	.uleb128 0xd
	.byte	0
	.uleb128 0x3
	.uleb128 0xe
	.uleb128 0x3a
	.uleb128 0x21
	.sleb128 37
	.uleb128 0x3b
	.uleb128 0x5
	.uleb128 0x39
	.uleb128 0xb
	.uleb128 0x49
	.uleb128 0x13
	.uleb128 0x88
	.uleb128 0xb
	.uleb128 0x38
	.uleb128 0xb
	.byte	0
	.byte	0
	.uleb128 0x91
	.uleb128 0x34
	.byte	0
	.uleb128 0x47
	.uleb128 0x13
	.byte	0
	.byte	0
	.uleb128 0x92
	.uleb128 0x2e
	.byte	0x1
	.uleb128 0x3f
	.uleb128 0x19
	.uleb128 0x3
	.uleb128 0x8
	.uleb128 0x3a
	.uleb128 0x21
	.sleb128 4
	.uleb128 0x3b
	.uleb128 0xb
	.uleb128 0x39
	.uleb128 0xb
	.uleb128 0x6e
	.uleb128 0xe
	.uleb128 0x49
	.uleb128 0x13
	.uleb128 0x3c
	.uleb128 0x19
	.uleb128 0x64
	.uleb128 0x13
	.uleb128 0x1
	.uleb128 0x13
	.byte	0
	.byte	0
	.uleb128 0x93
	.uleb128 0x4108
	.byte	0x1
	.uleb128 0x3
	.uleb128 0xe
	.uleb128 0x3a
	.uleb128 0xb
	.uleb128 0x3b
	.uleb128 0xb
	.uleb128 0x39
	.uleb128 0xb
	.byte	0
	.byte	0
	.uleb128 0x94
	.uleb128 0x5
	.byte	0
	.uleb128 0x3
	.uleb128 0xe
	.uleb128 0x3a
	.uleb128 0x21
	.sleb128 1
	.uleb128 0x3b
	.uleb128 0x21
	.sleb128 28
	.uleb128 0x39
	.uleb128 0xb
	.uleb128 0x49
	.uleb128 0x13
	.uleb128 0x2
	.uleb128 0x17
	.uleb128 0x2137
	.uleb128 0x17
	.byte	0
	.byte	0
	.uleb128 0x95
	.uleb128 0x34
	.byte	0
	.uleb128 0x3
	.uleb128 0x8
	.uleb128 0x3a
	.uleb128 0x21
	.sleb128 1
	.uleb128 0x3b
	.uleb128 0xb
	.uleb128 0x39
	.uleb128 0x21
	.sleb128 15
	.uleb128 0x49
	.uleb128 0x13
	.byte	0
	.byte	0
	.uleb128 0x96
	.uleb128 0x34
	.byte	0
	.uleb128 0x3
	.uleb128 0xe
	.uleb128 0x49
	.uleb128 0x13
	.uleb128 0x34
	.uleb128 0x19
	.uleb128 0x2
	.uleb128 0x17
	.uleb128 0x2137
	.uleb128 0x17
	.byte	0
	.byte	0
	.uleb128 0x97
	.uleb128 0x48
	.byte	0
	.uleb128 0x7d
	.uleb128 0x1
	.uleb128 0x7f
	.uleb128 0x13
	.byte	0
	.byte	0
	.uleb128 0x98
	.uleb128 0x1d
	.byte	0x1
	.uleb128 0x31
	.uleb128 0x13
	.uleb128 0x52
	.uleb128 0x1
	.uleb128 0x2138
	.uleb128 0x5
	.uleb128 0x55
	.uleb128 0x17
	.uleb128 0x58
	.uleb128 0xb
	.uleb128 0x59
	.uleb128 0xb
	.uleb128 0x57
	.uleb128 0xb
	.uleb128 0x2136
	.uleb128 0xb
	.byte	0
	.byte	0
	.uleb128 0x99
	.uleb128 0x1d
	.byte	0x1
	.uleb128 0x31
	.uleb128 0x13
	.uleb128 0x55
	.uleb128 0x17
	.uleb128 0x58
	.uleb128 0x21
	.sleb128 12
	.uleb128 0x59
	.uleb128 0x21
	.sleb128 492
	.uleb128 0x57
	.uleb128 0x21
	.sleb128 17
	.uleb128 0x1
	.uleb128 0x13
	.byte	0
	.byte	0
	.uleb128 0x9a
	.uleb128 0x11
	.byte	0x1
	.uleb128 0x25
	.uleb128 0xe
	.uleb128 0x13
	.uleb128 0xb
	.uleb128 0x90
	.uleb128 0xb
	.uleb128 0x91
	.uleb128 0x6
	.uleb128 0x3
	.uleb128 0x1f
	.uleb128 0x1b
	.uleb128 0x1f
	.uleb128 0x55
	.uleb128 0x17
	.uleb128 0x11
	.uleb128 0x1
	.uleb128 0x10
	.uleb128 0x17
	.byte	0
	.byte	0
	.uleb128 0x9b
	.uleb128 0x24
	.byte	0
	.uleb128 0xb
	.uleb128 0xb
	.uleb128 0x3e
	.uleb128 0xb
	.uleb128 0x3
	.uleb128 0x8
	.byte	0
	.byte	0
	.uleb128 0x9c
	.uleb128 0x39
	.byte	0x1
	.uleb128 0x3
	.uleb128 0x8
	.uleb128 0x3a
	.uleb128 0xb
	.uleb128 0x3b
	.uleb128 0x5
	.uleb128 0x39
	.uleb128 0xb
	.uleb128 0x1
	.uleb128 0x13
	.byte	0
	.byte	0
	.uleb128 0x9d
	.uleb128 0x2e
	.byte	0x1
	.uleb128 0x3f
	.uleb128 0x19
	.uleb128 0x3
	.uleb128 0xe
	.uleb128 0x3a
	.uleb128 0xb
	.uleb128 0x3b
	.uleb128 0xb
	.uleb128 0x39
	.uleb128 0xb
	.uleb128 0x6e
	.uleb128 0xe
	.uleb128 0x49
	.uleb128 0x13
	.uleb128 0x32
	.uleb128 0xb
	.uleb128 0x3c
	.uleb128 0x19
	.uleb128 0x63
	.uleb128 0x19
	.uleb128 0x64
	.uleb128 0x13
	.uleb128 0x1
	.uleb128 0x13
	.byte	0
	.byte	0
	.uleb128 0x9e
	.uleb128 0x2e
	.byte	0x1
	.uleb128 0x3f
	.uleb128 0x19
	.uleb128 0x3
	.uleb128 0xe
	.uleb128 0x3a
	.uleb128 0xb
	.uleb128 0x3b
	.uleb128 0xb
	.uleb128 0x39
	.uleb128 0xb
	.uleb128 0x6e
	.uleb128 0xe
	.uleb128 0x49
	.uleb128 0x13
	.uleb128 0x32
	.uleb128 0xb
	.uleb128 0x3c
	.uleb128 0x19
	.uleb128 0x64
	.uleb128 0x13
	.byte	0
	.byte	0
	.uleb128 0x9f
	.uleb128 0x2e
	.byte	0x1
	.uleb128 0x3f
	.uleb128 0x19
	.uleb128 0x3
	.uleb128 0xe
	.uleb128 0x3a
	.uleb128 0xb
	.uleb128 0x3b
	.uleb128 0x5
	.uleb128 0x39
	.uleb128 0xb
	.uleb128 0x6e
	.uleb128 0xe
	.uleb128 0x3c
	.uleb128 0x19
	.byte	0
	.byte	0
	.uleb128 0xa0
	.uleb128 0x13
	.byte	0
	.uleb128 0x3
	.uleb128 0xe
	.uleb128 0xb
	.uleb128 0xb
	.uleb128 0x3a
	.uleb128 0xb
	.uleb128 0x3b
	.uleb128 0xb
	.uleb128 0x39
	.uleb128 0xb
	.byte	0
	.byte	0
	.uleb128 0xa1
	.uleb128 0x39
	.byte	0
	.uleb128 0x3
	.uleb128 0x8
	.uleb128 0x3a
	.uleb128 0xb
	.uleb128 0x3b
	.uleb128 0xb
	.uleb128 0x39
	.uleb128 0xb
	.byte	0
	.byte	0
	.uleb128 0xa2
	.uleb128 0x39
	.byte	0
	.uleb128 0x3
	.uleb128 0x8
	.uleb128 0x3a
	.uleb128 0xb
	.uleb128 0x3b
	.uleb128 0x5
	.uleb128 0x39
	.uleb128 0xb
	.uleb128 0x89
	.uleb128 0x19
	.byte	0
	.byte	0
	.uleb128 0xa3
	.uleb128 0x3a
	.byte	0
	.uleb128 0x3a
	.uleb128 0xb
	.uleb128 0x3b
	.uleb128 0x5
	.uleb128 0x39
	.uleb128 0xb
	.uleb128 0x18
	.uleb128 0x13
	.byte	0
	.byte	0
	.uleb128 0xa4
	.uleb128 0x39
	.byte	0x1
	.uleb128 0x3
	.uleb128 0xe
	.uleb128 0x3a
	.uleb128 0xb
	.uleb128 0x3b
	.uleb128 0x5
	.uleb128 0x39
	.uleb128 0xb
	.uleb128 0x89
	.uleb128 0x19
	.uleb128 0x1
	.uleb128 0x13
	.byte	0
	.byte	0
	.uleb128 0xa5
	.uleb128 0x39
	.byte	0x1
	.uleb128 0x3
	.uleb128 0xe
	.uleb128 0x3a
	.uleb128 0xb
	.uleb128 0x3b
	.uleb128 0xb
	.uleb128 0x39
	.uleb128 0xb
	.uleb128 0x89
	.uleb128 0x19
	.byte	0
	.byte	0
	.uleb128 0xa6
	.uleb128 0x2e
	.byte	0x1
	.uleb128 0x3
	.uleb128 0xe
	.uleb128 0x3a
	.uleb128 0xb
	.uleb128 0x3b
	.uleb128 0xb
	.uleb128 0x39
	.uleb128 0xb
	.uleb128 0x49
	.uleb128 0x13
	.uleb128 0x3c
	.uleb128 0x19
	.uleb128 0x64
	.uleb128 0x13
	.uleb128 0x1
	.uleb128 0x13
	.byte	0
	.byte	0
	.uleb128 0xa7
	.uleb128 0x2e
	.byte	0x1
	.uleb128 0x3
	.uleb128 0xe
	.uleb128 0x3a
	.uleb128 0xb
	.uleb128 0x3b
	.uleb128 0xb
	.uleb128 0x39
	.uleb128 0xb
	.uleb128 0x32
	.uleb128 0xb
	.uleb128 0x3c
	.uleb128 0x19
	.uleb128 0x64
	.uleb128 0x13
	.byte	0
	.byte	0
	.uleb128 0xa8
	.uleb128 0x2e
	.byte	0x1
	.uleb128 0x3
	.uleb128 0xe
	.uleb128 0x3a
	.uleb128 0xb
	.uleb128 0x3b
	.uleb128 0x5
	.uleb128 0x39
	.uleb128 0xb
	.uleb128 0x3c
	.uleb128 0x19
	.byte	0
	.byte	0
	.uleb128 0xa9
	.uleb128 0x2e
	.byte	0x1
	.uleb128 0x3
	.uleb128 0xe
	.uleb128 0x3a
	.uleb128 0xb
	.uleb128 0x3b
	.uleb128 0xb
	.uleb128 0x39
	.uleb128 0xb
	.uleb128 0x3c
	.uleb128 0x19
	.uleb128 0x64
	.uleb128 0x13
	.byte	0
	.byte	0
	.uleb128 0xaa
	.uleb128 0x2e
	.byte	0x1
	.uleb128 0x3
	.uleb128 0xe
	.uleb128 0x34
	.uleb128 0x19
	.uleb128 0x3c
	.uleb128 0x19
	.uleb128 0x64
	.uleb128 0x13
	.byte	0
	.byte	0
	.uleb128 0xab
	.uleb128 0x2e
	.byte	0
	.uleb128 0x3
	.uleb128 0xe
	.uleb128 0x3a
	.uleb128 0xb
	.uleb128 0x3b
	.uleb128 0x5
	.uleb128 0x39
	.uleb128 0xb
	.uleb128 0x49
	.uleb128 0x13
	.uleb128 0x3c
	.uleb128 0x19
	.byte	0
	.byte	0
	.uleb128 0xac
	.uleb128 0x2e
	.byte	0x1
	.uleb128 0x3
	.uleb128 0xe
	.uleb128 0x3a
	.uleb128 0xb
	.uleb128 0x3b
	.uleb128 0x5
	.uleb128 0x39
	.uleb128 0xb
	.uleb128 0x32
	.uleb128 0xb
	.uleb128 0x3c
	.uleb128 0x19
	.uleb128 0x64
	.uleb128 0x13
	.byte	0
	.byte	0
	.uleb128 0xad
	.uleb128 0x2e
	.byte	0x1
	.uleb128 0x3f
	.uleb128 0x19
	.uleb128 0x3
	.uleb128 0xe
	.uleb128 0x3a
	.uleb128 0xb
	.uleb128 0x3b
	.uleb128 0xb
	.uleb128 0x39
	.uleb128 0xb
	.uleb128 0x6e
	.uleb128 0xe
	.uleb128 0x32
	.uleb128 0xb
	.uleb128 0x3c
	.uleb128 0x19
	.uleb128 0x1
	.uleb128 0x13
	.byte	0
	.byte	0
	.uleb128 0xae
	.uleb128 0x2f
	.byte	0
	.uleb128 0x3
	.uleb128 0xe
	.byte	0
	.byte	0
	.uleb128 0xaf
	.uleb128 0x34
	.byte	0
	.uleb128 0x3
	.uleb128 0xe
	.uleb128 0x3a
	.uleb128 0xb
	.uleb128 0x3b
	.uleb128 0x5
	.uleb128 0x39
	.uleb128 0xb
	.uleb128 0x49
	.uleb128 0x13
	.uleb128 0x3c
	.uleb128 0x19
	.uleb128 0x1c
	.uleb128 0xb
	.uleb128 0x6c
	.uleb128 0x19
	.uleb128 0x20
	.uleb128 0xb
	.byte	0
	.byte	0
	.uleb128 0xb0
	.uleb128 0x2
	.byte	0x1
	.uleb128 0x3
	.uleb128 0xe
	.uleb128 0x3c
	.uleb128 0x19
	.uleb128 0x1
	.uleb128 0x13
	.byte	0
	.byte	0
	.uleb128 0xb1
	.uleb128 0x2e
	.byte	0x1
	.uleb128 0x3f
	.uleb128 0x19
	.uleb128 0x3
	.uleb128 0xe
	.uleb128 0x3a
	.uleb128 0xb
	.uleb128 0x3b
	.uleb128 0x5
	.uleb128 0x39
	.uleb128 0xb
	.uleb128 0x6e
	.uleb128 0xe
	.uleb128 0x4c
	.uleb128 0xb
	.uleb128 0x1d
	.uleb128 0x13
	.uleb128 0x32
	.uleb128 0xb
	.uleb128 0x3c
	.uleb128 0x19
	.uleb128 0x64
	.uleb128 0x13
	.uleb128 0x20
	.uleb128 0xb
	.uleb128 0x1
	.uleb128 0x13
	.byte	0
	.byte	0
	.uleb128 0xb2
	.uleb128 0x2e
	.byte	0x1
	.uleb128 0x3f
	.uleb128 0x19
	.uleb128 0x3
	.uleb128 0xe
	.uleb128 0x3a
	.uleb128 0xb
	.uleb128 0x3b
	.uleb128 0x5
	.uleb128 0x39
	.uleb128 0xb
	.uleb128 0x6e
	.uleb128 0xe
	.uleb128 0x32
	.uleb128 0xb
	.uleb128 0x3c
	.uleb128 0x19
	.uleb128 0x63
	.uleb128 0x19
	.uleb128 0x64
	.uleb128 0x13
	.uleb128 0x20
	.uleb128 0xb
	.byte	0
	.byte	0
	.uleb128 0xb3
	.uleb128 0x13
	.byte	0x1
	.uleb128 0x3
	.uleb128 0xe
	.uleb128 0xb
	.uleb128 0xb
	.uleb128 0x3a
	.uleb128 0xb
	.uleb128 0x3b
	.uleb128 0xb
	.uleb128 0x1
	.uleb128 0x13
	.byte	0
	.byte	0
	.uleb128 0xb4
	.uleb128 0xf
	.byte	0
	.uleb128 0xb
	.uleb128 0xb
	.byte	0
	.byte	0
	.uleb128 0xb5
	.uleb128 0x17
	.byte	0x1
	.uleb128 0xb
	.uleb128 0xb
	.uleb128 0x3a
	.uleb128 0xb
	.uleb128 0x3b
	.uleb128 0xb
	.uleb128 0x39
	.uleb128 0xb
	.uleb128 0x1
	.uleb128 0x13
	.byte	0
	.byte	0
	.uleb128 0xb6
	.uleb128 0xd
	.byte	0
	.uleb128 0x3
	.uleb128 0xe
	.uleb128 0x3a
	.uleb128 0xb
	.uleb128 0x3b
	.uleb128 0xb
	.uleb128 0x39
	.uleb128 0xb
	.uleb128 0x49
	.uleb128 0x13
	.uleb128 0xd
	.uleb128 0xb
	.uleb128 0x6b
	.uleb128 0x5
	.byte	0
	.byte	0
	.uleb128 0xb7
	.uleb128 0x13
	.byte	0x1
	.uleb128 0x3
	.uleb128 0x8
	.uleb128 0xb
	.uleb128 0xb
	.uleb128 0x3a
	.uleb128 0xb
	.uleb128 0x3b
	.uleb128 0xb
	.uleb128 0x39
	.uleb128 0xb
	.uleb128 0x1
	.uleb128 0x13
	.byte	0
	.byte	0
	.uleb128 0xb8
	.uleb128 0x2e
	.byte	0x1
	.uleb128 0x3f
	.uleb128 0x19
	.uleb128 0x3
	.uleb128 0x8
	.uleb128 0x3a
	.uleb128 0xb
	.uleb128 0x3b
	.uleb128 0xb
	.uleb128 0x39
	.uleb128 0xb
	.uleb128 0x6e
	.uleb128 0xe
	.uleb128 0x49
	.uleb128 0x13
	.uleb128 0x3c
	.uleb128 0x19
	.uleb128 0x1
	.uleb128 0x13
	.byte	0
	.byte	0
	.uleb128 0xb9
	.uleb128 0x4
	.byte	0x1
	.uleb128 0x3
	.uleb128 0xe
	.uleb128 0x3e
	.uleb128 0xb
	.uleb128 0xb
	.uleb128 0xb
	.uleb128 0x49
	.uleb128 0x13
	.uleb128 0x3a
	.uleb128 0xb
	.uleb128 0x3b
	.uleb128 0xb
	.uleb128 0x39
	.uleb128 0xb
	.uleb128 0x1
	.uleb128 0x13
	.byte	0
	.byte	0
	.uleb128 0xba
	.uleb128 0x34
	.byte	0
	.uleb128 0x3
	.uleb128 0xe
	.uleb128 0x3a
	.uleb128 0xb
	.uleb128 0x3b
	.uleb128 0xb
	.uleb128 0x39
	.uleb128 0xb
	.uleb128 0x6e
	.uleb128 0xe
	.uleb128 0x49
	.uleb128 0x13
	.uleb128 0x3f
	.uleb128 0x19
	.uleb128 0x3c
	.uleb128 0x19
	.uleb128 0x1c
	.uleb128 0xb
	.uleb128 0x20
	.uleb128 0xb
	.byte	0
	.byte	0
	.uleb128 0xbb
	.uleb128 0x13
	.byte	0x1
	.uleb128 0xb
	.uleb128 0xb
	.uleb128 0x88
	.uleb128 0xb
	.uleb128 0x3a
	.uleb128 0xb
	.uleb128 0x3b
	.uleb128 0x5
	.uleb128 0x39
	.uleb128 0xb
	.uleb128 0x6e
	.uleb128 0xe
	.uleb128 0x1
	.uleb128 0x13
	.byte	0
	.byte	0
	.uleb128 0xbc
	.uleb128 0x16
	.byte	0
	.uleb128 0x3
	.uleb128 0xe
	.uleb128 0x3a
	.uleb128 0xb
	.uleb128 0x3b
	.uleb128 0x5
	.uleb128 0x39
	.uleb128 0xb
	.uleb128 0x49
	.uleb128 0x13
	.uleb128 0x88
	.uleb128 0xb
	.byte	0
	.byte	0
	.uleb128 0xbd
	.uleb128 0x3b
	.byte	0
	.uleb128 0x3
	.uleb128 0xe
	.byte	0
	.byte	0
	.uleb128 0xbe
	.uleb128 0x26
	.byte	0
	.byte	0
	.byte	0
	.uleb128 0xbf
	.uleb128 0x3a
	.byte	0
	.uleb128 0x3a
	.uleb128 0xb
	.uleb128 0x3b
	.uleb128 0xb
	.uleb128 0x39
	.uleb128 0xb
	.uleb128 0x18
	.uleb128 0x13
	.byte	0
	.byte	0
	.uleb128 0xc0
	.uleb128 0x15
	.byte	0x1
	.uleb128 0x49
	.uleb128 0x13
	.uleb128 0x1
	.uleb128 0x13
	.byte	0
	.byte	0
	.uleb128 0xc1
	.uleb128 0x15
	.byte	0
	.byte	0
	.byte	0
	.uleb128 0xc2
	.uleb128 0x2e
	.byte	0x1
	.uleb128 0x3f
	.uleb128 0x19
	.uleb128 0x3
	.uleb128 0x8
	.uleb128 0x3a
	.uleb128 0xb
	.uleb128 0x3b
	.uleb128 0x5
	.uleb128 0x39
	.uleb128 0xb
	.uleb128 0x49
	.uleb128 0x13
	.uleb128 0x3c
	.uleb128 0x19
	.uleb128 0x1
	.uleb128 0x13
	.byte	0
	.byte	0
	.uleb128 0xc3
	.uleb128 0x2e
	.byte	0x1
	.uleb128 0x3f
	.uleb128 0x19
	.uleb128 0x3
	.uleb128 0xe
	.uleb128 0x3a
	.uleb128 0xb
	.uleb128 0x3b
	.uleb128 0x5
	.uleb128 0x39
	.uleb128 0xb
	.uleb128 0x87
	.uleb128 0x19
	.uleb128 0x3c
	.uleb128 0x19
	.uleb128 0x1
	.uleb128 0x13
	.byte	0
	.byte	0
	.uleb128 0xc4
	.uleb128 0x16
	.byte	0
	.uleb128 0x3
	.uleb128 0xe
	.uleb128 0x3a
	.uleb128 0xb
	.uleb128 0x3b
	.uleb128 0xb
	.uleb128 0x39
	.uleb128 0xb
	.byte	0
	.byte	0
	.uleb128 0xc5
	.uleb128 0x15
	.byte	0x1
	.uleb128 0x1
	.uleb128 0x13
	.byte	0
	.byte	0
	.uleb128 0xc6
	.uleb128 0x8
	.byte	0
	.uleb128 0x3
	.uleb128 0x8
	.uleb128 0x3a
	.uleb128 0xb
	.uleb128 0x3b
	.uleb128 0xb
	.uleb128 0x39
	.uleb128 0xb
	.uleb128 0x18
	.uleb128 0x13
	.byte	0
	.byte	0
	.uleb128 0xc7
	.uleb128 0x2e
	.byte	0x1
	.uleb128 0x3f
	.uleb128 0x19
	.uleb128 0x3
	.uleb128 0xe
	.uleb128 0x6e
	.uleb128 0xe
	.uleb128 0x34
	.uleb128 0x19
	.uleb128 0x3c
	.uleb128 0x19
	.uleb128 0x64
	.uleb128 0x13
	.uleb128 0x1
	.uleb128 0x13
	.byte	0
	.byte	0
	.uleb128 0xc8
	.uleb128 0x39
	.byte	0x1
	.uleb128 0x3
	.uleb128 0xe
	.uleb128 0x3a
	.uleb128 0xb
	.uleb128 0x3b
	.uleb128 0xb
	.uleb128 0x39
	.uleb128 0xb
	.byte	0
	.byte	0
	.uleb128 0xc9
	.uleb128 0x39
	.byte	0x1
	.uleb128 0x89
	.uleb128 0x19
	.uleb128 0x1
	.uleb128 0x13
	.byte	0
	.byte	0
	.uleb128 0xca
	.uleb128 0x2e
	.byte	0x1
	.uleb128 0x3f
	.uleb128 0x19
	.uleb128 0x3
	.uleb128 0xe
	.uleb128 0x34
	.uleb128 0x19
	.uleb128 0x3c
	.uleb128 0x19
	.uleb128 0x1
	.uleb128 0x13
	.byte	0
	.byte	0
	.uleb128 0xcb
	.uleb128 0x2e
	.byte	0x1
	.uleb128 0x3f
	.uleb128 0x19
	.uleb128 0x3
	.uleb128 0xe
	.uleb128 0x34
	.uleb128 0x19
	.uleb128 0x87
	.uleb128 0x19
	.uleb128 0x3c
	.uleb128 0x19
	.uleb128 0x1
	.uleb128 0x13
	.byte	0
	.byte	0
	.uleb128 0xcc
	.uleb128 0x2e
	.byte	0x1
	.uleb128 0x3f
	.uleb128 0x19
	.uleb128 0x3
	.uleb128 0xe
	.uleb128 0x49
	.uleb128 0x13
	.uleb128 0x34
	.uleb128 0x19
	.uleb128 0x3c
	.uleb128 0x19
	.uleb128 0x1
	.uleb128 0x13
	.byte	0
	.byte	0
	.uleb128 0xcd
	.uleb128 0x16
	.byte	0
	.uleb128 0x3
	.uleb128 0x8
	.uleb128 0x3a
	.uleb128 0xb
	.uleb128 0x3b
	.uleb128 0x5
	.uleb128 0x39
	.uleb128 0xb
	.uleb128 0x49
	.uleb128 0x13
	.byte	0
	.byte	0
	.uleb128 0xce
	.uleb128 0x4108
	.byte	0
	.uleb128 0x3
	.uleb128 0xe
	.uleb128 0x3a
	.uleb128 0xb
	.uleb128 0x3b
	.uleb128 0xb
	.uleb128 0x39
	.uleb128 0xb
	.byte	0
	.byte	0
	.uleb128 0xcf
	.uleb128 0x34
	.byte	0
	.uleb128 0x3
	.uleb128 0xe
	.uleb128 0x3a
	.uleb128 0xb
	.uleb128 0x3b
	.uleb128 0x5
	.uleb128 0x39
	.uleb128 0xb
	.uleb128 0x49
	.uleb128 0x13
	.uleb128 0x6c
	.uleb128 0x19
	.byte	0
	.byte	0
	.uleb128 0xd0
	.uleb128 0x4108
	.byte	0x1
	.uleb128 0x3
	.uleb128 0xe
	.uleb128 0x3a
	.uleb128 0xb
	.uleb128 0x3b
	.uleb128 0x5
	.uleb128 0x39
	.uleb128 0xb
	.uleb128 0x1
	.uleb128 0x13
	.byte	0
	.byte	0
	.uleb128 0xd1
	.uleb128 0x4108
	.byte	0x1
	.uleb128 0x3
	.uleb128 0xe
	.uleb128 0x3a
	.uleb128 0xb
	.uleb128 0x3b
	.uleb128 0x5
	.uleb128 0x39
	.uleb128 0xb
	.byte	0
	.byte	0
	.uleb128 0xd2
	.uleb128 0xb
	.byte	0x1
	.uleb128 0x1
	.uleb128 0x13
	.byte	0
	.byte	0
	.uleb128 0xd3
	.uleb128 0x2e
	.byte	0x1
	.uleb128 0x3f
	.uleb128 0x19
	.uleb128 0x3
	.uleb128 0xe
	.uleb128 0x3a
	.uleb128 0xb
	.uleb128 0x3b
	.uleb128 0xb
	.uleb128 0x39
	.uleb128 0xb
	.uleb128 0x6e
	.uleb128 0xe
	.uleb128 0x49
	.uleb128 0x13
	.uleb128 0x55
	.uleb128 0x17
	.uleb128 0x40
	.uleb128 0x18
	.uleb128 0x7a
	.uleb128 0x19
	.uleb128 0x1
	.uleb128 0x13
	.byte	0
	.byte	0
	.uleb128 0xd4
	.uleb128 0xb
	.byte	0x1
	.uleb128 0x11
	.uleb128 0x1
	.uleb128 0x12
	.uleb128 0x7
	.byte	0
	.byte	0
	.uleb128 0xd5
	.uleb128 0x34
	.byte	0
	.uleb128 0x31
	.uleb128 0x13
	.uleb128 0x1c
	.uleb128 0xb
	.byte	0
	.byte	0
	.uleb128 0xd6
	.uleb128 0xb
	.byte	0x1
	.uleb128 0x31
	.uleb128 0x13
	.uleb128 0x11
	.uleb128 0x1
	.uleb128 0x12
	.uleb128 0x7
	.byte	0
	.byte	0
	.uleb128 0xd7
	.uleb128 0x2e
	.byte	0x1
	.uleb128 0x3f
	.uleb128 0x19
	.uleb128 0x3
	.uleb128 0xe
	.uleb128 0x3a
	.uleb128 0xb
	.uleb128 0x3b
	.uleb128 0xb
	.uleb128 0x39
	.uleb128 0xb
	.uleb128 0x6e
	.uleb128 0xe
	.uleb128 0x20
	.uleb128 0xb
	.uleb128 0x1
	.uleb128 0x13
	.byte	0
	.byte	0
	.uleb128 0xd8
	.uleb128 0x2e
	.byte	0x1
	.uleb128 0x3f
	.uleb128 0x19
	.uleb128 0x3
	.uleb128 0xe
	.uleb128 0x3a
	.uleb128 0xb
	.uleb128 0x3b
	.uleb128 0xb
	.uleb128 0x39
	.uleb128 0xb
	.uleb128 0x6e
	.uleb128 0xe
	.uleb128 0x49
	.uleb128 0x13
	.uleb128 0x20
	.uleb128 0xb
	.uleb128 0x1
	.uleb128 0x13
	.byte	0
	.byte	0
	.byte	0
	.section	.debug_loclists,"",@progbits
	.long	.Ldebug_loc3-.Ldebug_loc2
.Ldebug_loc2:
	.value	0x5
	.byte	0x8
	.byte	0
	.long	0
.Ldebug_loc0:
.LVUS1:
	.uleb128 0
	.uleb128 .LVU42
	.uleb128 .LVU42
	.uleb128 .LVU91
	.uleb128 .LVU91
	.uleb128 .LVU687
	.uleb128 .LVU687
	.uleb128 .LVU702
	.uleb128 .LVU702
	.uleb128 .LVU705
	.uleb128 .LVU705
	.uleb128 .LVU783
	.uleb128 .LVU783
	.uleb128 .LVU891
	.uleb128 .LVU891
	.uleb128 .LVU893
	.uleb128 .LVU893
	.uleb128 .LVU915
	.uleb128 .LVU915
	.uleb128 .LVU916
	.uleb128 .LVU916
	.uleb128 0
	.uleb128 0
	.uleb128 .LVU1004
	.uleb128 .LVU1004
	.uleb128 .LVU1006
	.uleb128 .LVU1006
	.uleb128 .LVU1007
	.uleb128 .LVU1007
	.uleb128 .LVU1009
	.uleb128 .LVU1009
	.uleb128 0
.LLST1:
	.byte	0x6
	.quad	.LVL0
	.byte	0x4
	.uleb128 .LVL0-.LVL0
	.uleb128 .LVL6-.LVL0
	.uleb128 0x1
	.byte	0x54
	.byte	0x4
	.uleb128 .LVL6-.LVL0
	.uleb128 .LVL19-.LVL0
	.uleb128 0x1
	.byte	0x56
	.byte	0x4
	.uleb128 .LVL19-.LVL0
	.uleb128 .LVL156-.LVL0
	.uleb128 0x4
	.byte	0xa3
	.uleb128 0x1
	.byte	0x54
	.byte	0x9f
	.byte	0x4
	.uleb128 .LVL156-.LVL0
	.uleb128 .LVL159-.LVL0
	.uleb128 0x1
	.byte	0x56
	.byte	0x4
	.uleb128 .LVL159-.LVL0
	.uleb128 .LVL160-.LVL0
	.uleb128 0x4
	.byte	0xa3
	.uleb128 0x1
	.byte	0x54
	.byte	0x9f
	.byte	0x4
	.uleb128 .LVL160-.LVL0
	.uleb128 .LVL169-.LVL0
	.uleb128 0x1
	.byte	0x56
	.byte	0x4
	.uleb128 .LVL169-.LVL0
	.uleb128 .LVL197-.LVL0
	.uleb128 0x4
	.byte	0xa3
	.uleb128 0x1
	.byte	0x54
	.byte	0x9f
	.byte	0x4
	.uleb128 .LVL197-.LVL0
	.uleb128 .LVL198-.LVL0
	.uleb128 0x1
	.byte	0x56
	.byte	0x4
	.uleb128 .LVL198-.LVL0
	.uleb128 .LVL209-.LVL0
	.uleb128 0x4
	.byte	0xa3
	.uleb128 0x1
	.byte	0x54
	.byte	0x9f
	.byte	0x4
	.uleb128 .LVL209-.LVL0
	.uleb128 .LVL210-.LVL0
	.uleb128 0x1
	.byte	0x56
	.byte	0x4
	.uleb128 .LVL210-.LVL0
	.uleb128 .LHOTE10-.LVL0
	.uleb128 0x4
	.byte	0xa3
	.uleb128 0x1
	.byte	0x54
	.byte	0x9f
	.byte	0x6
	.quad	.LFSB4421
	.byte	0x4
	.uleb128 .LFSB4421-.LFSB4421
	.uleb128 .LVL242-.LFSB4421
	.uleb128 0x4
	.byte	0xa3
	.uleb128 0x1
	.byte	0x54
	.byte	0x9f
	.byte	0x4
	.uleb128 .LVL242-.LFSB4421
	.uleb128 .LVL243-.LFSB4421
	.uleb128 0x1
	.byte	0x56
	.byte	0x4
	.uleb128 .LVL243-.LFSB4421
	.uleb128 .LVL244-.LFSB4421
	.uleb128 0x4
	.byte	0xa3
	.uleb128 0x1
	.byte	0x54
	.byte	0x9f
	.byte	0x4
	.uleb128 .LVL244-.LFSB4421
	.uleb128 .LVL245-.LFSB4421
	.uleb128 0x1
	.byte	0x56
	.byte	0x4
	.uleb128 .LVL245-.LFSB4421
	.uleb128 .LFE4421-.LFSB4421
	.uleb128 0x4
	.byte	0xa3
	.uleb128 0x1
	.byte	0x54
	.byte	0x9f
	.byte	0
.LVUS2:
	.uleb128 0
	.uleb128 .LVU66
	.uleb128 .LVU66
	.uleb128 .LVU687
	.uleb128 .LVU687
	.uleb128 .LVU702
	.uleb128 .LVU702
	.uleb128 .LVU705
	.uleb128 .LVU705
	.uleb128 .LVU728
	.uleb128 .LVU728
	.uleb128 .LVU782
	.uleb128 .LVU782
	.uleb128 0
	.uleb128 0
	.uleb128 .LVU1004
	.uleb128 .LVU1004
	.uleb128 .LVU1006
	.uleb128 .LVU1006
	.uleb128 0
.LLST2:
	.byte	0x6
	.quad	.LVL0
	.byte	0x4
	.uleb128 .LVL0-.LVL0
	.uleb128 .LVL11-.LVL0
	.uleb128 0x1
	.byte	0x61
	.byte	0x4
	.uleb128 .LVL11-.LVL0
	.uleb128 .LVL156-.LVL0
	.uleb128 0x6
	.byte	0xa3
	.uleb128 0x3
	.byte	0xa5
	.uleb128 0x11
	.uleb128 0x30
	.byte	0x9f
	.byte	0x4
	.uleb128 .LVL156-.LVL0
	.uleb128 .LVL159-.LVL0
	.uleb128 0x1
	.byte	0x61
	.byte	0x4
	.uleb128 .LVL159-.LVL0
	.uleb128 .LVL160-.LVL0
	.uleb128 0x6
	.byte	0xa3
	.uleb128 0x3
	.byte	0xa5
	.uleb128 0x11
	.uleb128 0x30
	.byte	0x9f
	.byte	0x4
	.uleb128 .LVL160-.LVL0
	.uleb128 .LVL162-1-.LVL0
	.uleb128 0x1
	.byte	0x61
	.byte	0x4
	.uleb128 .LVL162-1-.LVL0
	.uleb128 .LVL168-.LVL0
	.uleb128 0x3
	.byte	0x91
	.sleb128 -200
	.byte	0x4
	.uleb128 .LVL168-.LVL0
	.uleb128 .LHOTE10-.LVL0
	.uleb128 0x6
	.byte	0xa3
	.uleb128 0x3
	.byte	0xa5
	.uleb128 0x11
	.uleb128 0x30
	.byte	0x9f
	.byte	0x6
	.quad	.LFSB4421
	.byte	0x4
	.uleb128 .LFSB4421-.LFSB4421
	.uleb128 .LVL242-.LFSB4421
	.uleb128 0x6
	.byte	0xa3
	.uleb128 0x3
	.byte	0xa5
	.uleb128 0x11
	.uleb128 0x30
	.byte	0x9f
	.byte	0x4
	.uleb128 .LVL242-.LFSB4421
	.uleb128 .LVL243-1-.LFSB4421
	.uleb128 0x1
	.byte	0x61
	.byte	0x4
	.uleb128 .LVL243-1-.LFSB4421
	.uleb128 .LFE4421-.LFSB4421
	.uleb128 0x6
	.byte	0xa3
	.uleb128 0x3
	.byte	0xa5
	.uleb128 0x11
	.uleb128 0x30
	.byte	0x9f
	.byte	0
.LVUS3:
	.uleb128 .LVU12
	.uleb128 .LVU612
	.uleb128 .LVU680
	.uleb128 .LVU682
	.uleb128 .LVU687
	.uleb128 0
	.uleb128 0
	.uleb128 .LVU920
	.uleb128 .LVU955
	.uleb128 .LVU957
	.uleb128 .LVU957
	.uleb128 .LVU958
	.uleb128 .LVU975
	.uleb128 .LVU982
	.uleb128 .LVU984
	.uleb128 .LVU989
	.uleb128 .LVU991
	.uleb128 .LVU993
	.uleb128 .LVU995
	.uleb128 .LVU1002
	.uleb128 .LVU1004
	.uleb128 .LVU1006
	.uleb128 .LVU1007
	.uleb128 .LVU1010
	.uleb128 .LVU1030
	.uleb128 .LVU1037
	.uleb128 .LVU1039
	.uleb128 .LVU1044
	.uleb128 .LVU1065
	.uleb128 .LVU1070
	.uleb128 .LVU1072
	.uleb128 0
.LLST3:
	.byte	0x6
	.quad	.LVL3
	.byte	0x4
	.uleb128 .LVL3-.LVL3
	.uleb128 .LVL143-.LVL3
	.uleb128 0x1
	.byte	0x5c
	.byte	0x4
	.uleb128 .LVL152-.LVL3
	.uleb128 .LVL153-.LVL3
	.uleb128 0x1
	.byte	0x5c
	.byte	0x4
	.uleb128 .LVL156-.LVL3
	.uleb128 .LHOTE10-.LVL3
	.uleb128 0x1
	.byte	0x5c
	.byte	0x6
	.quad	.LFSB4421
	.byte	0x4
	.uleb128 .LFSB4421-.LFSB4421
	.uleb128 .LVL212-.LFSB4421
	.uleb128 0x1
	.byte	0x5c
	.byte	0x4
	.uleb128 .LVL217-.LFSB4421
	.uleb128 .LVL218-.LFSB4421
	.uleb128 0x1
	.byte	0x5c
	.byte	0x4
	.uleb128 .LVL218-.LFSB4421
	.uleb128 .LVL219-.LFSB4421
	.uleb128 0x3
	.byte	0x7d
	.sleb128 -1
	.byte	0x9f
	.byte	0x4
	.uleb128 .LVL222-.LFSB4421
	.uleb128 .LVL225-.LFSB4421
	.uleb128 0x1
	.byte	0x5c
	.byte	0x4
	.uleb128 .LVL227-.LFSB4421
	.uleb128 .LVL229-.LFSB4421
	.uleb128 0x1
	.byte	0x5c
	.byte	0x4
	.uleb128 .LVL231-.LFSB4421
	.uleb128 .LVL234-.LFSB4421
	.uleb128 0x1
	.byte	0x5c
	.byte	0x4
	.uleb128 .LVL237-.LFSB4421
	.uleb128 .LVL240-.LFSB4421
	.uleb128 0x1
	.byte	0x5c
	.byte	0x4
	.uleb128 .LVL242-.LFSB4421
	.uleb128 .LVL243-.LFSB4421
	.uleb128 0x1
	.byte	0x5c
	.byte	0x4
	.uleb128 .LVL244-.LFSB4421
	.uleb128 .LVL246-.LFSB4421
	.uleb128 0x1
	.byte	0x5c
	.byte	0x4
	.uleb128 .LVL250-.LFSB4421
	.uleb128 .LVL254-.LFSB4421
	.uleb128 0x1
	.byte	0x5c
	.byte	0x4
	.uleb128 .LVL257-.LFSB4421
	.uleb128 .LVL259-.LFSB4421
	.uleb128 0x1
	.byte	0x5c
	.byte	0x4
	.uleb128 .LVL266-.LFSB4421
	.uleb128 .LVL268-.LFSB4421
	.uleb128 0x1
	.byte	0x5c
	.byte	0x4
	.uleb128 .LVL271-.LFSB4421
	.uleb128 .LFE4421-.LFSB4421
	.uleb128 0x1
	.byte	0x5c
	.byte	0
.LVUS4:
	.uleb128 .LVU22
	.uleb128 .LVU66
	.uleb128 .LVU66
	.uleb128 .LVU687
	.uleb128 .LVU687
	.uleb128 .LVU702
	.uleb128 .LVU702
	.uleb128 .LVU705
	.uleb128 .LVU705
	.uleb128 .LVU728
	.uleb128 .LVU728
	.uleb128 0
	.uleb128 0
	.uleb128 .LVU1004
	.uleb128 .LVU1004
	.uleb128 .LVU1006
	.uleb128 .LVU1006
	.uleb128 0
.LLST4:
	.byte	0x6
	.quad	.LVL4
	.byte	0x4
	.uleb128 .LVL4-.LVL4
	.uleb128 .LVL11-.LVL4
	.uleb128 0x1
	.byte	0x50
	.byte	0x4
	.uleb128 .LVL11-.LVL4
	.uleb128 .LVL156-.LVL4
	.uleb128 0x3
	.byte	0x91
	.sleb128 -168
	.byte	0x4
	.uleb128 .LVL156-.LVL4
	.uleb128 .LVL159-.LVL4
	.uleb128 0x1
	.byte	0x50
	.byte	0x4
	.uleb128 .LVL159-.LVL4
	.uleb128 .LVL160-.LVL4
	.uleb128 0x3
	.byte	0x91
	.sleb128 -168
	.byte	0x4
	.uleb128 .LVL160-.LVL4
	.uleb128 .LVL162-1-.LVL4
	.uleb128 0x1
	.byte	0x50
	.byte	0x4
	.uleb128 .LVL162-1-.LVL4
	.uleb128 .LHOTE10-.LVL4
	.uleb128 0x3
	.byte	0x91
	.sleb128 -168
	.byte	0x6
	.quad	.LFSB4421
	.byte	0x4
	.uleb128 .LFSB4421-.LFSB4421
	.uleb128 .LVL242-.LFSB4421
	.uleb128 0x3
	.byte	0x91
	.sleb128 -168
	.byte	0x4
	.uleb128 .LVL242-.LFSB4421
	.uleb128 .LVL243-1-.LFSB4421
	.uleb128 0x1
	.byte	0x50
	.byte	0x4
	.uleb128 .LVL243-1-.LFSB4421
	.uleb128 .LFE4421-.LFSB4421
	.uleb128 0x3
	.byte	0x91
	.sleb128 -168
	.byte	0
.LVUS5:
	.uleb128 0
	.uleb128 .LVU66
	.uleb128 .LVU66
	.uleb128 .LVU416
	.uleb128 .LVU416
	.uleb128 .LVU501
	.uleb128 .LVU501
	.uleb128 .LVU687
	.uleb128 .LVU687
	.uleb128 .LVU913
	.uleb128 .LVU913
	.uleb128 .LVU915
	.uleb128 .LVU915
	.uleb128 0
	.uleb128 0
	.uleb128 .LVU920
	.uleb128 .LVU920
	.uleb128 .LVU955
	.uleb128 .LVU955
	.uleb128 .LVU958
	.uleb128 .LVU958
	.uleb128 .LVU975
	.uleb128 .LVU975
	.uleb128 .LVU977
	.uleb128 .LVU977
	.uleb128 .LVU991
	.uleb128 .LVU991
	.uleb128 .LVU993
	.uleb128 .LVU993
	.uleb128 .LVU995
	.uleb128 .LVU995
	.uleb128 .LVU997
	.uleb128 .LVU997
	.uleb128 .LVU1004
	.uleb128 .LVU1004
	.uleb128 .LVU1006
	.uleb128 .LVU1006
	.uleb128 .LVU1007
	.uleb128 .LVU1007
	.uleb128 .LVU1010
	.uleb128 .LVU1010
	.uleb128 .LVU1030
	.uleb128 .LVU1030
	.uleb128 .LVU1032
	.uleb128 .LVU1032
	.uleb128 .LVU1072
	.uleb128 .LVU1072
	.uleb128 0
.LLST5:
	.byte	0x6
	.quad	.LVL0
	.byte	0x4
	.uleb128 .LVL0-.LVL0
	.uleb128 .LVL11-.LVL0
	.uleb128 0x2
	.byte	0x75
	.sleb128 0
	.byte	0x4
	.uleb128 .LVL11-.LVL0
	.uleb128 .LVL96-.LVL0
	.uleb128 0x2
	.byte	0x73
	.sleb128 0
	.byte	0x4
	.uleb128 .LVL96-.LVL0
	.uleb128 .LVL118-.LVL0
	.uleb128 0x4
	.byte	0x91
	.sleb128 -104
	.byte	0x6
	.byte	0x4
	.uleb128 .LVL118-.LVL0
	.uleb128 .LVL156-.LVL0
	.uleb128 0x3
	.byte	0xa3
	.uleb128 0x1
	.byte	0x55
	.byte	0x4
	.uleb128 .LVL156-.LVL0
	.uleb128 .LVL207-.LVL0
	.uleb128 0x2
	.byte	0x73
	.sleb128 0
	.byte	0x4
	.uleb128 .LVL207-.LVL0
	.uleb128 .LVL209-.LVL0
	.uleb128 0x3
	.byte	0xa3
	.uleb128 0x1
	.byte	0x55
	.byte	0x4
	.uleb128 .LVL209-.LVL0
	.uleb128 .LHOTE10-.LVL0
	.uleb128 0x2
	.byte	0x73
	.sleb128 0
	.byte	0x6
	.quad	.LFSB4421
	.byte	0x4
	.uleb128 .LFSB4421-.LFSB4421
	.uleb128 .LVL212-.LFSB4421
	.uleb128 0x2
	.byte	0x73
	.sleb128 0
	.byte	0x4
	.uleb128 .LVL212-.LFSB4421
	.uleb128 .LVL217-.LFSB4421
	.uleb128 0x3
	.byte	0xa3
	.uleb128 0x1
	.byte	0x55
	.byte	0x4
	.uleb128 .LVL217-.LFSB4421
	.uleb128 .LVL219-.LFSB4421
	.uleb128 0x2
	.byte	0x73
	.sleb128 0
	.byte	0x4
	.uleb128 .LVL219-.LFSB4421
	.uleb128 .LVL222-.LFSB4421
	.uleb128 0x3
	.byte	0xa3
	.uleb128 0x1
	.byte	0x55
	.byte	0x4
	.uleb128 .LVL222-.LFSB4421
	.uleb128 .LVL223-.LFSB4421
	.uleb128 0x2
	.byte	0x73
	.sleb128 0
	.byte	0x4
	.uleb128 .LVL223-.LFSB4421
	.uleb128 .LVL231-.LFSB4421
	.uleb128 0x3
	.byte	0xa3
	.uleb128 0x1
	.byte	0x55
	.byte	0x4
	.uleb128 .LVL231-.LFSB4421
	.uleb128 .LVL234-.LFSB4421
	.uleb128 0x2
	.byte	0x73
	.sleb128 0
	.byte	0x4
	.uleb128 .LVL234-.LFSB4421
	.uleb128 .LVL237-.LFSB4421
	.uleb128 0x3
	.byte	0xa3
	.uleb128 0x1
	.byte	0x55
	.byte	0x4
	.uleb128 .LVL237-.LFSB4421
	.uleb128 .LVL238-.LFSB4421
	.uleb128 0x2
	.byte	0x73
	.sleb128 0
	.byte	0x4
	.uleb128 .LVL238-.LFSB4421
	.uleb128 .LVL242-.LFSB4421
	.uleb128 0x3
	.byte	0xa3
	.uleb128 0x1
	.byte	0x55
	.byte	0x4
	.uleb128 .LVL242-.LFSB4421
	.uleb128 .LVL243-.LFSB4421
	.uleb128 0x2
	.byte	0x73
	.sleb128 0
	.byte	0x4
	.uleb128 .LVL243-.LFSB4421
	.uleb128 .LVL244-.LFSB4421
	.uleb128 0x3
	.byte	0xa3
	.uleb128 0x1
	.byte	0x55
	.byte	0x4
	.uleb128 .LVL244-.LFSB4421
	.uleb128 .LVL246-.LFSB4421
	.uleb128 0x2
	.byte	0x73
	.sleb128 0
	.byte	0x4
	.uleb128 .LVL246-.LFSB4421
	.uleb128 .LVL250-.LFSB4421
	.uleb128 0x3
	.byte	0xa3
	.uleb128 0x1
	.byte	0x55
	.byte	0x4
	.uleb128 .LVL250-.LFSB4421
	.uleb128 .LVL252-.LFSB4421
	.uleb128 0x2
	.byte	0x73
	.sleb128 0
	.byte	0x4
	.uleb128 .LVL252-.LFSB4421
	.uleb128 .LVL271-.LFSB4421
	.uleb128 0x3
	.byte	0xa3
	.uleb128 0x1
	.byte	0x55
	.byte	0x4
	.uleb128 .LVL271-.LFSB4421
	.uleb128 .LFE4421-.LFSB4421
	.uleb128 0x2
	.byte	0x73
	.sleb128 0
	.byte	0
.LVUS6:
	.uleb128 .LVU56
	.uleb128 .LVU72
	.uleb128 .LVU72
	.uleb128 .LVU74
	.uleb128 .LVU74
	.uleb128 .LVU75
	.uleb128 .LVU91
	.uleb128 .LVU174
	.uleb128 .LVU174
	.uleb128 .LVU187
	.uleb128 .LVU687
	.uleb128 .LVU702
	.uleb128 .LVU770
	.uleb128 .LVU783
	.uleb128 .LVU804
	.uleb128 .LVU850
	.uleb128 .LVU850
	.uleb128 .LVU852
	.uleb128 .LVU852
	.uleb128 .LVU855
	.uleb128 .LVU855
	.uleb128 .LVU858
	.uleb128 .LVU858
	.uleb128 .LVU867
	.uleb128 .LVU867
	.uleb128 .LVU869
	.uleb128 .LVU869
	.uleb128 .LVU872
	.uleb128 .LVU911
	.uleb128 .LVU912
	.uleb128 .LVU915
	.uleb128 .LVU916
	.uleb128 .LVU936
	.uleb128 .LVU955
	.uleb128 .LVU975
	.uleb128 .LVU977
	.uleb128 .LVU991
	.uleb128 .LVU993
	.uleb128 .LVU1030
	.uleb128 .LVU1032
	.uleb128 .LVU1072
	.uleb128 0
.LLST6:
	.byte	0x6
	.quad	.LVL8
	.byte	0x4
	.uleb128 .LVL8-.LVL8
	.uleb128 .LVL14-.LVL8
	.uleb128 0xc
	.byte	0x30
	.byte	0x9f
	.byte	0x93
	.uleb128 0x8
	.byte	0x30
	.byte	0x9f
	.byte	0x93
	.uleb128 0x8
	.byte	0x30
	.byte	0x9f
	.byte	0x93
	.uleb128 0x8
	.byte	0x4
	.uleb128 .LVL14-.LVL8
	.uleb128 .LVL15-.LVL8
	.uleb128 0xa
	.byte	0x50
	.byte	0x93
	.uleb128 0x8
	.byte	0x50
	.byte	0x93
	.uleb128 0x8
	.byte	0x30
	.byte	0x9f
	.byte	0x93
	.uleb128 0x8
	.byte	0x4
	.uleb128 .LVL15-.LVL8
	.uleb128 .LVL16-.LVL8
	.uleb128 0xe
	.byte	0x91
	.sleb128 -200
	.byte	0x93
	.uleb128 0x8
	.byte	0x91
	.sleb128 -200
	.byte	0x93
	.uleb128 0x8
	.byte	0x30
	.byte	0x9f
	.byte	0x93
	.uleb128 0x8
	.byte	0x4
	.uleb128 .LVL19-.LVL8
	.uleb128 .LVL43-.LVL8
	.uleb128 0x7
	.byte	0x91
	.sleb128 -192
	.byte	0x93
	.uleb128 0x8
	.byte	0x93
	.uleb128 0x10
	.byte	0x4
	.uleb128 .LVL43-.LVL8
	.uleb128 .LVL44-.LVL8
	.uleb128 0x7
	.byte	0x91
	.sleb128 -192
	.byte	0x93
	.uleb128 0x8
	.byte	0x93
	.uleb128 0x10
	.byte	0x4
	.uleb128 .LVL156-.LVL8
	.uleb128 .LVL159-.LVL8
	.uleb128 0xc
	.byte	0x30
	.byte	0x9f
	.byte	0x93
	.uleb128 0x8
	.byte	0x30
	.byte	0x9f
	.byte	0x93
	.uleb128 0x8
	.byte	0x30
	.byte	0x9f
	.byte	0x93
	.uleb128 0x8
	.byte	0x4
	.uleb128 .LVL166-.LVL8
	.uleb128 .LVL169-.LVL8
	.uleb128 0xc
	.byte	0x30
	.byte	0x9f
	.byte	0x93
	.uleb128 0x8
	.byte	0x30
	.byte	0x9f
	.byte	0x93
	.uleb128 0x8
	.byte	0x30
	.byte	0x9f
	.byte	0x93
	.uleb128 0x8
	.byte	0x4
	.uleb128 .LVL173-.LVL8
	.uleb128 .LVL183-.LVL8
	.uleb128 0x7
	.byte	0x91
	.sleb128 -192
	.byte	0x93
	.uleb128 0x8
	.byte	0x93
	.uleb128 0x10
	.byte	0x4
	.uleb128 .LVL183-.LVL8
	.uleb128 .LVL184-.LVL8
	.uleb128 0x15
	.byte	0x91
	.sleb128 -192
	.byte	0x93
	.uleb128 0x8
	.byte	0x91
	.sleb128 -144
	.byte	0x6
	.byte	0x91
	.sleb128 -200
	.byte	0x6
	.byte	0x22
	.byte	0x23
	.uleb128 0x30
	.byte	0x9f
	.byte	0x93
	.uleb128 0x8
	.byte	0x93
	.uleb128 0x8
	.byte	0x4
	.uleb128 .LVL184-.LVL8
	.uleb128 .LVL186-.LVL8
	.uleb128 0xa
	.byte	0x91
	.sleb128 -192
	.byte	0x93
	.uleb128 0x8
	.byte	0x50
	.byte	0x93
	.uleb128 0x8
	.byte	0x93
	.uleb128 0x8
	.byte	0x4
	.uleb128 .LVL186-.LVL8
	.uleb128 .LVL187-.LVL8
	.uleb128 0xc
	.byte	0x91
	.sleb128 -192
	.byte	0x93
	.uleb128 0x8
	.byte	0x91
	.sleb128 -200
	.byte	0x93
	.uleb128 0x8
	.byte	0x93
	.uleb128 0x8
	.byte	0x4
	.uleb128 .LVL187-.LVL8
	.uleb128 .LVL190-.LVL8
	.uleb128 0x9
	.byte	0x93
	.uleb128 0x8
	.byte	0x91
	.sleb128 -200
	.byte	0x93
	.uleb128 0x8
	.byte	0x93
	.uleb128 0x8
	.byte	0x4
	.uleb128 .LVL190-.LVL8
	.uleb128 .LVL191-.LVL8
	.uleb128 0x16
	.byte	0x91
	.sleb128 -144
	.byte	0x93
	.uleb128 0x8
	.byte	0x91
	.sleb128 -200
	.byte	0x93
	.uleb128 0x8
	.byte	0x91
	.sleb128 -144
	.byte	0x6
	.byte	0x91
	.sleb128 -128
	.byte	0x6
	.byte	0x22
	.byte	0x9f
	.byte	0x93
	.uleb128 0x8
	.byte	0x4
	.uleb128 .LVL191-.LVL8
	.uleb128 .LVL193-.LVL8
	.uleb128 0xd
	.byte	0x91
	.sleb128 -144
	.byte	0x93
	.uleb128 0x8
	.byte	0x91
	.sleb128 -200
	.byte	0x93
	.uleb128 0x8
	.byte	0x50
	.byte	0x93
	.uleb128 0x8
	.byte	0x4
	.uleb128 .LVL204-.LVL8
	.uleb128 .LVL205-.LVL8
	.uleb128 0x7
	.byte	0x91
	.sleb128 -192
	.byte	0x93
	.uleb128 0x8
	.byte	0x93
	.uleb128 0x10
	.byte	0x4
	.uleb128 .LVL209-.LVL8
	.uleb128 .LVL210-.LVL8
	.uleb128 0xc
	.byte	0x30
	.byte	0x9f
	.byte	0x93
	.uleb128 0x8
	.byte	0x30
	.byte	0x9f
	.byte	0x93
	.uleb128 0x8
	.byte	0x30
	.byte	0x9f
	.byte	0x93
	.uleb128 0x8
	.byte	0x6
	.quad	.LVL214
	.byte	0x4
	.uleb128 .LVL214-.LVL214
	.uleb128 .LVL217-.LVL214
	.uleb128 0x7
	.byte	0x91
	.sleb128 -192
	.byte	0x93
	.uleb128 0x8
	.byte	0x93
	.uleb128 0x10
	.byte	0x4
	.uleb128 .LVL222-.LVL214
	.uleb128 .LVL223-.LVL214
	.uleb128 0x7
	.byte	0x91
	.sleb128 -192
	.byte	0x93
	.uleb128 0x8
	.byte	0x93
	.uleb128 0x10
	.byte	0x4
	.uleb128 .LVL231-.LVL214
	.uleb128 .LVL234-.LVL214
	.uleb128 0x7
	.byte	0x91
	.sleb128 -192
	.byte	0x93
	.uleb128 0x8
	.byte	0x93
	.uleb128 0x10
	.byte	0x4
	.uleb128 .LVL250-.LVL214
	.uleb128 .LVL252-.LVL214
	.uleb128 0x7
	.byte	0x91
	.sleb128 -192
	.byte	0x93
	.uleb128 0x8
	.byte	0x93
	.uleb128 0x10
	.byte	0x4
	.uleb128 .LVL271-.LVL214
	.uleb128 .LFE4421-.LVL214
	.uleb128 0x7
	.byte	0x91
	.sleb128 -192
	.byte	0x93
	.uleb128 0x8
	.byte	0x93
	.uleb128 0x10
	.byte	0
.LVUS119:
	.uleb128 .LVU91
	.uleb128 .LVU170
	.uleb128 .LVU170
	.uleb128 .LVU174
	.uleb128 .LVU804
	.uleb128 .LVU872
	.uleb128 .LVU911
	.uleb128 .LVU912
	.uleb128 .LVU991
	.uleb128 .LVU993
	.uleb128 .LVU1072
	.uleb128 0
.LLST119:
	.byte	0x6
	.quad	.LVL19
	.byte	0x4
	.uleb128 .LVL19-.LVL19
	.uleb128 .LVL42-.LVL19
	.uleb128 0x1
	.byte	0x5f
	.byte	0x4
	.uleb128 .LVL42-.LVL19
	.uleb128 .LVL43-.LVL19
	.uleb128 0x3
	.byte	0x7f
	.sleb128 -48
	.byte	0x9f
	.byte	0x4
	.uleb128 .LVL173-.LVL19
	.uleb128 .LVL193-.LVL19
	.uleb128 0x1
	.byte	0x5f
	.byte	0x4
	.uleb128 .LVL204-.LVL19
	.uleb128 .LVL205-.LVL19
	.uleb128 0x1
	.byte	0x5f
	.byte	0x6
	.quad	.LVL231
	.byte	0x4
	.uleb128 .LVL231-.LVL231
	.uleb128 .LVL234-.LVL231
	.uleb128 0x1
	.byte	0x5f
	.byte	0x4
	.uleb128 .LVL271-.LVL231
	.uleb128 .LFE4421-.LVL231
	.uleb128 0x1
	.byte	0x5f
	.byte	0
.LVUS120:
	.uleb128 .LVU78
	.uleb128 .LVU91
	.uleb128 .LVU91
	.uleb128 .LVU687
	.uleb128 .LVU692
	.uleb128 .LVU702
	.uleb128 .LVU702
	.uleb128 .LVU705
	.uleb128 .LVU783
	.uleb128 .LVU891
	.uleb128 .LVU891
	.uleb128 .LVU893
	.uleb128 .LVU893
	.uleb128 .LVU915
	.uleb128 .LVU916
	.uleb128 0
	.uleb128 0
	.uleb128 .LVU1004
	.uleb128 .LVU1006
	.uleb128 .LVU1007
	.uleb128 .LVU1030
	.uleb128 0
.LLST120:
	.byte	0x6
	.quad	.LVL17
	.byte	0x4
	.uleb128 .LVL17-.LVL17
	.uleb128 .LVL19-.LVL17
	.uleb128 0x1
	.byte	0x56
	.byte	0x4
	.uleb128 .LVL19-.LVL17
	.uleb128 .LVL156-.LVL17
	.uleb128 0x4
	.byte	0xa3
	.uleb128 0x1
	.byte	0x54
	.byte	0x9f
	.byte	0x4
	.uleb128 .LVL158-.LVL17
	.uleb128 .LVL159-.LVL17
	.uleb128 0x1
	.byte	0x56
	.byte	0x4
	.uleb128 .LVL159-.LVL17
	.uleb128 .LVL160-.LVL17
	.uleb128 0x4
	.byte	0xa3
	.uleb128 0x1
	.byte	0x54
	.byte	0x9f
	.byte	0x4
	.uleb128 .LVL169-.LVL17
	.uleb128 .LVL197-.LVL17
	.uleb128 0x4
	.byte	0xa3
	.uleb128 0x1
	.byte	0x54
	.byte	0x9f
	.byte	0x4
	.uleb128 .LVL197-.LVL17
	.uleb128 .LVL198-.LVL17
	.uleb128 0x1
	.byte	0x56
	.byte	0x4
	.uleb128 .LVL198-.LVL17
	.uleb128 .LVL209-.LVL17
	.uleb128 0x4
	.byte	0xa3
	.uleb128 0x1
	.byte	0x54
	.byte	0x9f
	.byte	0x4
	.uleb128 .LVL210-.LVL17
	.uleb128 .LHOTE10-.LVL17
	.uleb128 0x4
	.byte	0xa3
	.uleb128 0x1
	.byte	0x54
	.byte	0x9f
	.byte	0x6
	.quad	.LFSB4421
	.byte	0x4
	.uleb128 .LFSB4421-.LFSB4421
	.uleb128 .LVL242-.LFSB4421
	.uleb128 0x4
	.byte	0xa3
	.uleb128 0x1
	.byte	0x54
	.byte	0x9f
	.byte	0x4
	.uleb128 .LVL243-.LFSB4421
	.uleb128 .LVL244-.LFSB4421
	.uleb128 0x4
	.byte	0xa3
	.uleb128 0x1
	.byte	0x54
	.byte	0x9f
	.byte	0x4
	.uleb128 .LVL250-.LFSB4421
	.uleb128 .LFE4421-.LFSB4421
	.uleb128 0x4
	.byte	0xa3
	.uleb128 0x1
	.byte	0x54
	.byte	0x9f
	.byte	0
.LVUS128:
	.uleb128 .LVU94
	.uleb128 .LVU166
	.uleb128 .LVU804
	.uleb128 .LVU824
	.uleb128 .LVU1072
	.uleb128 .LVU1074
.LLST128:
	.byte	0x6
	.quad	.LVL20
	.byte	0x4
	.uleb128 .LVL20-.LVL20
	.uleb128 .LVL41-.LVL20
	.uleb128 0x1
	.byte	0x64
	.byte	0x4
	.uleb128 .LVL173-.LVL20
	.uleb128 .LVL178-1-.LVL20
	.uleb128 0x1
	.byte	0x64
	.byte	0x8
	.quad	.LVL271
	.uleb128 .LVL272-1-.LVL271
	.uleb128 0x1
	.byte	0x64
	.byte	0
.LVUS129:
	.uleb128 .LVU98
	.uleb128 .LVU155
	.uleb128 .LVU155
	.uleb128 .LVU166
	.uleb128 .LVU804
	.uleb128 .LVU824
	.uleb128 .LVU1072
	.uleb128 .LVU1074
.LLST129:
	.byte	0x6
	.quad	.LVL21
	.byte	0x4
	.uleb128 .LVL21-.LVL21
	.uleb128 .LVL37-.LVL21
	.uleb128 0x1
	.byte	0x63
	.byte	0x4
	.uleb128 .LVL37-.LVL21
	.uleb128 .LVL41-.LVL21
	.uleb128 0xa
	.byte	0xa5
	.uleb128 0x15
	.uleb128 0x30
	.byte	0x7f
	.sleb128 44
	.byte	0xa6
	.byte	0x4
	.uleb128 0x30
	.byte	0x1e
	.byte	0x9f
	.byte	0x4
	.uleb128 .LVL173-.LVL21
	.uleb128 .LVL178-1-.LVL21
	.uleb128 0xa
	.byte	0xa5
	.uleb128 0x15
	.uleb128 0x30
	.byte	0x7f
	.sleb128 44
	.byte	0xa6
	.byte	0x4
	.uleb128 0x30
	.byte	0x1e
	.byte	0x9f
	.byte	0x8
	.quad	.LVL271
	.uleb128 .LVL272-1-.LVL271
	.uleb128 0xa
	.byte	0xa5
	.uleb128 0x15
	.uleb128 0x30
	.byte	0x7f
	.sleb128 44
	.byte	0xa6
	.byte	0x4
	.uleb128 0x30
	.byte	0x1e
	.byte	0x9f
	.byte	0
.LVUS130:
	.uleb128 .LVU105
	.uleb128 .LVU111
	.uleb128 .LVU111
	.uleb128 .LVU114
	.uleb128 .LVU114
	.uleb128 .LVU115
	.uleb128 .LVU115
	.uleb128 .LVU116
	.uleb128 .LVU116
	.uleb128 .LVU117
	.uleb128 .LVU117
	.uleb128 .LVU122
	.uleb128 .LVU122
	.uleb128 .LVU127
	.uleb128 .LVU127
	.uleb128 .LVU144
	.uleb128 .LVU144
	.uleb128 .LVU145
	.uleb128 .LVU145
	.uleb128 .LVU148
	.uleb128 .LVU148
	.uleb128 .LVU149
	.uleb128 .LVU149
	.uleb128 .LVU153
	.uleb128 .LVU153
	.uleb128 .LVU154
	.uleb128 .LVU154
	.uleb128 .LVU155
	.uleb128 .LVU155
	.uleb128 .LVU158
	.uleb128 .LVU158
	.uleb128 .LVU166
	.uleb128 .LVU804
	.uleb128 .LVU824
	.uleb128 .LVU824
	.uleb128 .LVU848
	.uleb128 .LVU848
	.uleb128 .LVU872
	.uleb128 .LVU911
	.uleb128 .LVU912
	.uleb128 .LVU991
	.uleb128 .LVU992
	.uleb128 .LVU1072
	.uleb128 .LVU1074
	.uleb128 .LVU1074
	.uleb128 0
.LLST130:
	.byte	0x6
	.quad	.LVL23
	.byte	0x4
	.uleb128 .LVL23-.LVL23
	.uleb128 .LVL25-.LVL23
	.uleb128 0x5
	.byte	0x59
	.byte	0x93
	.uleb128 0x4
	.byte	0x93
	.uleb128 0x2c
	.byte	0x4
	.uleb128 .LVL25-.LVL23
	.uleb128 .LVL25-.LVL23
	.uleb128 0x8
	.byte	0x59
	.byte	0x93
	.uleb128 0x4
	.byte	0x58
	.byte	0x93
	.uleb128 0x4
	.byte	0x93
	.uleb128 0x28
	.byte	0x4
	.uleb128 .LVL25-.LVL23
	.uleb128 .LVL25-.LVL23
	.uleb128 0x2a
	.byte	0x59
	.byte	0x93
	.uleb128 0x4
	.byte	0x58
	.byte	0x93
	.uleb128 0x4
	.byte	0xa5
	.uleb128 0x11
	.uleb128 0x30
	.byte	0xa4
	.uleb128 0x30
	.byte	0x4
	.long	0x3f800000
	.byte	0x22
	.byte	0xa5
	.uleb128 0x14
	.uleb128 0x30
	.byte	0x1c
	.byte	0xa5
	.uleb128 0x12
	.uleb128 0x30
	.byte	0xa4
	.uleb128 0x30
	.byte	0x4
	.long	0x3f800000
	.byte	0x22
	.byte	0xa5
	.uleb128 0x13
	.uleb128 0x30
	.byte	0x1c
	.byte	0x1e
	.byte	0x9f
	.byte	0x93
	.uleb128 0x4
	.byte	0x93
	.uleb128 0x24
	.byte	0x4
	.uleb128 .LVL25-.LVL23
	.uleb128 .LVL25-.LVL23
	.uleb128 0x44
	.byte	0x59
	.byte	0x93
	.uleb128 0x4
	.byte	0x58
	.byte	0x93
	.uleb128 0x4
	.byte	0xa5
	.uleb128 0x11
	.uleb128 0x30
	.byte	0xa4
	.uleb128 0x30
	.byte	0x4
	.long	0x3f800000
	.byte	0x22
	.byte	0xa5
	.uleb128 0x14
	.uleb128 0x30
	.byte	0x1c
	.byte	0xa5
	.uleb128 0x12
	.uleb128 0x30
	.byte	0xa4
	.uleb128 0x30
	.byte	0x4
	.long	0x3f800000
	.byte	0x22
	.byte	0xa5
	.uleb128 0x13
	.uleb128 0x30
	.byte	0x1c
	.byte	0x1e
	.byte	0x9f
	.byte	0x93
	.uleb128 0x4
	.byte	0xa5
	.uleb128 0x12
	.uleb128 0x30
	.byte	0xa4
	.uleb128 0x30
	.byte	0x4
	.long	0x3f800000
	.byte	0x22
	.byte	0xa5
	.uleb128 0x13
	.uleb128 0x30
	.byte	0x1c
	.byte	0xa5
	.uleb128 0x14
	.uleb128 0x30
	.byte	0xa5
	.uleb128 0x11
	.uleb128 0x30
	.byte	0x1c
	.byte	0x1e
	.byte	0x9f
	.byte	0x93
	.uleb128 0x4
	.byte	0x93
	.uleb128 0x20
	.byte	0x4
	.uleb128 .LVL25-.LVL23
	.uleb128 .LVL25-.LVL23
	.uleb128 0x5e
	.byte	0x59
	.byte	0x93
	.uleb128 0x4
	.byte	0x58
	.byte	0x93
	.uleb128 0x4
	.byte	0xa5
	.uleb128 0x11
	.uleb128 0x30
	.byte	0xa4
	.uleb128 0x30
	.byte	0x4
	.long	0x3f800000
	.byte	0x22
	.byte	0xa5
	.uleb128 0x14
	.uleb128 0x30
	.byte	0x1c
	.byte	0xa5
	.uleb128 0x12
	.uleb128 0x30
	.byte	0xa4
	.uleb128 0x30
	.byte	0x4
	.long	0x3f800000
	.byte	0x22
	.byte	0xa5
	.uleb128 0x13
	.uleb128 0x30
	.byte	0x1c
	.byte	0x1e
	.byte	0x9f
	.byte	0x93
	.uleb128 0x4
	.byte	0xa5
	.uleb128 0x12
	.uleb128 0x30
	.byte	0xa4
	.uleb128 0x30
	.byte	0x4
	.long	0x3f800000
	.byte	0x22
	.byte	0xa5
	.uleb128 0x13
	.uleb128 0x30
	.byte	0x1c
	.byte	0xa5
	.uleb128 0x14
	.uleb128 0x30
	.byte	0xa5
	.uleb128 0x11
	.uleb128 0x30
	.byte	0x1c
	.byte	0x1e
	.byte	0x9f
	.byte	0x93
	.uleb128 0x4
	.byte	0xa5
	.uleb128 0x11
	.uleb128 0x30
	.byte	0xa4
	.uleb128 0x30
	.byte	0x4
	.long	0x3f800000
	.byte	0x22
	.byte	0xa5
	.uleb128 0x14
	.uleb128 0x30
	.byte	0x1c
	.byte	0xa5
	.uleb128 0x13
	.uleb128 0x30
	.byte	0xa5
	.uleb128 0x12
	.uleb128 0x30
	.byte	0x1c
	.byte	0x1e
	.byte	0x9f
	.byte	0x93
	.uleb128 0x4
	.byte	0x93
	.uleb128 0x1c
	.byte	0x4
	.uleb128 .LVL25-.LVL23
	.uleb128 .LVL26-.LVL23
	.uleb128 0x70
	.byte	0x59
	.byte	0x93
	.uleb128 0x4
	.byte	0x58
	.byte	0x93
	.uleb128 0x4
	.byte	0xa5
	.uleb128 0x11
	.uleb128 0x30
	.byte	0xa4
	.uleb128 0x30
	.byte	0x4
	.long	0x3f800000
	.byte	0x22
	.byte	0xa5
	.uleb128 0x14
	.uleb128 0x30
	.byte	0x1c
	.byte	0xa5
	.uleb128 0x12
	.uleb128 0x30
	.byte	0xa4
	.uleb128 0x30
	.byte	0x4
	.long	0x3f800000
	.byte	0x22
	.byte	0xa5
	.uleb128 0x13
	.uleb128 0x30
	.byte	0x1c
	.byte	0x1e
	.byte	0x9f
	.byte	0x93
	.uleb128 0x4
	.byte	0xa5
	.uleb128 0x12
	.uleb128 0x30
	.byte	0xa4
	.uleb128 0x30
	.byte	0x4
	.long	0x3f800000
	.byte	0x22
	.byte	0xa5
	.uleb128 0x13
	.uleb128 0x30
	.byte	0x1c
	.byte	0xa5
	.uleb128 0x14
	.uleb128 0x30
	.byte	0xa5
	.uleb128 0x11
	.uleb128 0x30
	.byte	0x1c
	.byte	0x1e
	.byte	0x9f
	.byte	0x93
	.uleb128 0x4
	.byte	0xa5
	.uleb128 0x11
	.uleb128 0x30
	.byte	0xa4
	.uleb128 0x30
	.byte	0x4
	.long	0x3f800000
	.byte	0x22
	.byte	0xa5
	.uleb128 0x14
	.uleb128 0x30
	.byte	0x1c
	.byte	0xa5
	.uleb128 0x13
	.uleb128 0x30
	.byte	0xa5
	.uleb128 0x12
	.uleb128 0x30
	.byte	0x1c
	.byte	0x1e
	.byte	0x9f
	.byte	0x93
	.uleb128 0x4
	.byte	0xa5
	.uleb128 0x14
	.uleb128 0x30
	.byte	0xa5
	.uleb128 0x11
	.uleb128 0x30
	.byte	0x1c
	.byte	0xa5
	.uleb128 0x13
	.uleb128 0x30
	.byte	0xa5
	.uleb128 0x12
	.uleb128 0x30
	.byte	0x1c
	.byte	0x1e
	.byte	0x9f
	.byte	0x93
	.uleb128 0x4
	.byte	0x93
	.uleb128 0x18
	.byte	0x4
	.uleb128 .LVL26-.LVL23
	.uleb128 .LVL27-.LVL23
	.uleb128 0x73
	.byte	0x59
	.byte	0x93
	.uleb128 0x4
	.byte	0x58
	.byte	0x93
	.uleb128 0x4
	.byte	0xa5
	.uleb128 0x11
	.uleb128 0x30
	.byte	0xa4
	.uleb128 0x30
	.byte	0x4
	.long	0x3f800000
	.byte	0x22
	.byte	0xa5
	.uleb128 0x14
	.uleb128 0x30
	.byte	0x1c
	.byte	0xa5
	.uleb128 0x12
	.uleb128 0x30
	.byte	0xa4
	.uleb128 0x30
	.byte	0x4
	.long	0x3f800000
	.byte	0x22
	.byte	0xa5
	.uleb128 0x13
	.uleb128 0x30
	.byte	0x1c
	.byte	0x1e
	.byte	0x9f
	.byte	0x93
	.uleb128 0x4
	.byte	0xa5
	.uleb128 0x12
	.uleb128 0x30
	.byte	0xa4
	.uleb128 0x30
	.byte	0x4
	.long	0x3f800000
	.byte	0x22
	.byte	0xa5
	.uleb128 0x13
	.uleb128 0x30
	.byte	0x1c
	.byte	0xa5
	.uleb128 0x14
	.uleb128 0x30
	.byte	0xa5
	.uleb128 0x11
	.uleb128 0x30
	.byte	0x1c
	.byte	0x1e
	.byte	0x9f
	.byte	0x93
	.uleb128 0x4
	.byte	0xa5
	.uleb128 0x11
	.uleb128 0x30
	.byte	0xa4
	.uleb128 0x30
	.byte	0x4
	.long	0x3f800000
	.byte	0x22
	.byte	0xa5
	.uleb128 0x14
	.uleb128 0x30
	.byte	0x1c
	.byte	0xa5
	.uleb128 0x13
	.uleb128 0x30
	.byte	0xa5
	.uleb128 0x12
	.uleb128 0x30
	.byte	0x1c
	.byte	0x1e
	.byte	0x9f
	.byte	0x93
	.uleb128 0x4
	.byte	0xa5
	.uleb128 0x14
	.uleb128 0x30
	.byte	0xa5
	.uleb128 0x11
	.uleb128 0x30
	.byte	0x1c
	.byte	0xa5
	.uleb128 0x13
	.uleb128 0x30
	.byte	0xa5
	.uleb128 0x12
	.uleb128 0x30
	.byte	0x1c
	.byte	0x1e
	.byte	0x9f
	.byte	0x93
	.uleb128 0x4
	.byte	0x54
	.byte	0x93
	.uleb128 0x4
	.byte	0x93
	.uleb128 0x14
	.byte	0x4
	.uleb128 .LVL27-.LVL23
	.uleb128 .LVL30-.LVL23
	.uleb128 0x76
	.byte	0x59
	.byte	0x93
	.uleb128 0x4
	.byte	0x58
	.byte	0x93
	.uleb128 0x4
	.byte	0xa5
	.uleb128 0x11
	.uleb128 0x30
	.byte	0xa4
	.uleb128 0x30
	.byte	0x4
	.long	0x3f800000
	.byte	0x22
	.byte	0xa5
	.uleb128 0x14
	.uleb128 0x30
	.byte	0x1c
	.byte	0xa5
	.uleb128 0x12
	.uleb128 0x30
	.byte	0xa4
	.uleb128 0x30
	.byte	0x4
	.long	0x3f800000
	.byte	0x22
	.byte	0xa5
	.uleb128 0x13
	.uleb128 0x30
	.byte	0x1c
	.byte	0x1e
	.byte	0x9f
	.byte	0x93
	.uleb128 0x4
	.byte	0xa5
	.uleb128 0x12
	.uleb128 0x30
	.byte	0xa4
	.uleb128 0x30
	.byte	0x4
	.long	0x3f800000
	.byte	0x22
	.byte	0xa5
	.uleb128 0x13
	.uleb128 0x30
	.byte	0x1c
	.byte	0xa5
	.uleb128 0x14
	.uleb128 0x30
	.byte	0xa5
	.uleb128 0x11
	.uleb128 0x30
	.byte	0x1c
	.byte	0x1e
	.byte	0x9f
	.byte	0x93
	.uleb128 0x4
	.byte	0xa5
	.uleb128 0x11
	.uleb128 0x30
	.byte	0xa4
	.uleb128 0x30
	.byte	0x4
	.long	0x3f800000
	.byte	0x22
	.byte	0xa5
	.uleb128 0x14
	.uleb128 0x30
	.byte	0x1c
	.byte	0xa5
	.uleb128 0x13
	.uleb128 0x30
	.byte	0xa5
	.uleb128 0x12
	.uleb128 0x30
	.byte	0x1c
	.byte	0x1e
	.byte	0x9f
	.byte	0x93
	.uleb128 0x4
	.byte	0xa5
	.uleb128 0x14
	.uleb128 0x30
	.byte	0xa5
	.uleb128 0x11
	.uleb128 0x30
	.byte	0x1c
	.byte	0xa5
	.uleb128 0x13
	.uleb128 0x30
	.byte	0xa5
	.uleb128 0x12
	.uleb128 0x30
	.byte	0x1c
	.byte	0x1e
	.byte	0x9f
	.byte	0x93
	.uleb128 0x4
	.byte	0x54
	.byte	0x93
	.uleb128 0x4
	.byte	0x56
	.byte	0x93
	.uleb128 0x4
	.byte	0x93
	.uleb128 0x10
	.byte	0x4
	.uleb128 .LVL30-.LVL23
	.uleb128 .LVL31-.LVL23
	.uleb128 0x6e
	.byte	0x59
	.byte	0x93
	.uleb128 0x4
	.byte	0x58
	.byte	0x93
	.uleb128 0x4
	.byte	0xa5
	.uleb128 0x11
	.uleb128 0x30
	.byte	0xa4
	.uleb128 0x30
	.byte	0x4
	.long	0x3f800000
	.byte	0x22
	.byte	0xa5
	.uleb128 0x14
	.uleb128 0x30
	.byte	0x1c
	.byte	0xa5
	.uleb128 0x12
	.uleb128 0x30
	.byte	0xa4
	.uleb128 0x30
	.byte	0x4
	.long	0x3f800000
	.byte	0x22
	.byte	0xa5
	.uleb128 0x13
	.uleb128 0x30
	.byte	0x1c
	.byte	0x1e
	.byte	0x9f
	.byte	0x93
	.uleb128 0x4
	.byte	0xa5
	.uleb128 0x12
	.uleb128 0x30
	.byte	0xa4
	.uleb128 0x30
	.byte	0x4
	.long	0x3f800000
	.byte	0x22
	.byte	0xa5
	.uleb128 0x13
	.uleb128 0x30
	.byte	0x1c
	.byte	0xa5
	.uleb128 0x14
	.uleb128 0x30
	.byte	0xa5
	.uleb128 0x11
	.uleb128 0x30
	.byte	0x1c
	.byte	0x1e
	.byte	0x9f
	.byte	0x93
	.uleb128 0x4
	.byte	0xa5
	.uleb128 0x11
	.uleb128 0x30
	.byte	0xa4
	.uleb128 0x30
	.byte	0x4
	.long	0x3f800000
	.byte	0x22
	.byte	0xa5
	.uleb128 0x14
	.uleb128 0x30
	.byte	0x1c
	.byte	0xa5
	.uleb128 0x17
	.uleb128 0x30
	.byte	0x1e
	.byte	0x9f
	.byte	0x93
	.uleb128 0x4
	.byte	0xa5
	.uleb128 0x14
	.uleb128 0x30
	.byte	0xa5
	.uleb128 0x11
	.uleb128 0x30
	.byte	0x1c
	.byte	0xa5
	.uleb128 0x17
	.uleb128 0x30
	.byte	0x1e
	.byte	0x9f
	.byte	0x93
	.uleb128 0x4
	.byte	0x54
	.byte	0x93
	.uleb128 0x4
	.byte	0x56
	.byte	0x93
	.uleb128 0x4
	.byte	0x93
	.uleb128 0x10
	.byte	0x4
	.uleb128 .LVL31-.LVL23
	.uleb128 .LVL32-.LVL23
	.uleb128 0x66
	.byte	0x59
	.byte	0x93
	.uleb128 0x4
	.byte	0x58
	.byte	0x93
	.uleb128 0x4
	.byte	0xa5
	.uleb128 0x11
	.uleb128 0x30
	.byte	0xa4
	.uleb128 0x30
	.byte	0x4
	.long	0x3f800000
	.byte	0x22
	.byte	0xa5
	.uleb128 0x14
	.uleb128 0x30
	.byte	0x1c
	.byte	0xa5
	.uleb128 0x12
	.uleb128 0x30
	.byte	0xa4
	.uleb128 0x30
	.byte	0x4
	.long	0x3f800000
	.byte	0x22
	.byte	0xa5
	.uleb128 0x13
	.uleb128 0x30
	.byte	0x1c
	.byte	0x1e
	.byte	0x9f
	.byte	0x93
	.uleb128 0x4
	.byte	0xa5
	.uleb128 0x12
	.uleb128 0x30
	.byte	0xa4
	.uleb128 0x30
	.byte	0x4
	.long	0x3f800000
	.byte	0x22
	.byte	0xa5
	.uleb128 0x13
	.uleb128 0x30
	.byte	0x1c
	.byte	0xa5
	.uleb128 0x16
	.uleb128 0x30
	.byte	0x1e
	.byte	0x9f
	.byte	0x93
	.uleb128 0x4
	.byte	0xa5
	.uleb128 0x11
	.uleb128 0x30
	.byte	0xa4
	.uleb128 0x30
	.byte	0x4
	.long	0x3f800000
	.byte	0x22
	.byte	0xa5
	.uleb128 0x14
	.uleb128 0x30
	.byte	0x1c
	.byte	0xa5
	.uleb128 0x17
	.uleb128 0x30
	.byte	0x1e
	.byte	0x9f
	.byte	0x93
	.uleb128 0x4
	.byte	0xa5
	.uleb128 0x16
	.uleb128 0x30
	.byte	0xa5
	.uleb128 0x17
	.uleb128 0x30
	.byte	0x1e
	.byte	0x9f
	.byte	0x93
	.uleb128 0x4
	.byte	0x54
	.byte	0x93
	.uleb128 0x4
	.byte	0x56
	.byte	0x93
	.uleb128 0x4
	.byte	0x93
	.uleb128 0x10
	.byte	0x4
	.uleb128 .LVL32-.LVL23
	.uleb128 .LVL33-.LVL23
	.uleb128 0x56
	.byte	0x59
	.byte	0x93
	.uleb128 0x4
	.byte	0x58
	.byte	0x93
	.uleb128 0x4
	.byte	0xa5
	.uleb128 0x11
	.uleb128 0x30
	.byte	0xa5
	.uleb128 0x14
	.uleb128 0x30
	.byte	0x1c
	.byte	0xa5
	.uleb128 0x12
	.uleb128 0x30
	.byte	0xa4
	.uleb128 0x30
	.byte	0x4
	.long	0x3f800000
	.byte	0x22
	.byte	0xa5
	.uleb128 0x13
	.uleb128 0x30
	.byte	0x1c
	.byte	0x1e
	.byte	0x9f
	.byte	0x93
	.uleb128 0x4
	.byte	0xa5
	.uleb128 0x12
	.uleb128 0x30
	.byte	0xa4
	.uleb128 0x30
	.byte	0x4
	.long	0x3f800000
	.byte	0x22
	.byte	0xa5
	.uleb128 0x13
	.uleb128 0x30
	.byte	0x1c
	.byte	0xa5
	.uleb128 0x16
	.uleb128 0x30
	.byte	0x1e
	.byte	0x9f
	.byte	0x93
	.uleb128 0x4
	.byte	0xa5
	.uleb128 0x11
	.uleb128 0x30
	.byte	0xa5
	.uleb128 0x14
	.uleb128 0x30
	.byte	0x1c
	.byte	0xa5
	.uleb128 0x17
	.uleb128 0x30
	.byte	0x1e
	.byte	0x9f
	.byte	0x93
	.uleb128 0x4
	.byte	0xa5
	.uleb128 0x16
	.uleb128 0x30
	.byte	0xa5
	.uleb128 0x17
	.uleb128 0x30
	.byte	0x1e
	.byte	0x9f
	.byte	0x93
	.uleb128 0x4
	.byte	0x54
	.byte	0x93
	.uleb128 0x4
	.byte	0x56
	.byte	0x93
	.uleb128 0x4
	.byte	0x93
	.uleb128 0x10
	.byte	0x4
	.uleb128 .LVL33-.LVL23
	.uleb128 .LVL35-.LVL23
	.uleb128 0x46
	.byte	0x59
	.byte	0x93
	.uleb128 0x4
	.byte	0x58
	.byte	0x93
	.uleb128 0x4
	.byte	0xa5
	.uleb128 0x11
	.uleb128 0x30
	.byte	0xa5
	.uleb128 0x14
	.uleb128 0x30
	.byte	0x1c
	.byte	0xa5
	.uleb128 0x12
	.uleb128 0x30
	.byte	0xa5
	.uleb128 0x13
	.uleb128 0x30
	.byte	0x1c
	.byte	0x1e
	.byte	0x9f
	.byte	0x93
	.uleb128 0x4
	.byte	0xa5
	.uleb128 0x12
	.uleb128 0x30
	.byte	0xa5
	.uleb128 0x13
	.uleb128 0x30
	.byte	0x1c
	.byte	0xa5
	.uleb128 0x16
	.uleb128 0x30
	.byte	0x1e
	.byte	0x9f
	.byte	0x93
	.uleb128 0x4
	.byte	0xa5
	.uleb128 0x11
	.uleb128 0x30
	.byte	0xa5
	.uleb128 0x14
	.uleb128 0x30
	.byte	0x1c
	.byte	0xa5
	.uleb128 0x17
	.uleb128 0x30
	.byte	0x1e
	.byte	0x9f
	.byte	0x93
	.uleb128 0x4
	.byte	0xa5
	.uleb128 0x16
	.uleb128 0x30
	.byte	0xa5
	.uleb128 0x17
	.uleb128 0x30
	.byte	0x1e
	.byte	0x9f
	.byte	0x93
	.uleb128 0x4
	.byte	0x54
	.byte	0x93
	.uleb128 0x4
	.byte	0x56
	.byte	0x93
	.uleb128 0x4
	.byte	0x93
	.uleb128 0x10
	.byte	0x4
	.uleb128 .LVL35-.LVL23
	.uleb128 .LVL36-.LVL23
	.uleb128 0x2a
	.byte	0x59
	.byte	0x93
	.uleb128 0x4
	.byte	0x58
	.byte	0x93
	.uleb128 0x4
	.byte	0x93
	.uleb128 0x4
	.byte	0xa5
	.uleb128 0x12
	.uleb128 0x30
	.byte	0xa5
	.uleb128 0x13
	.uleb128 0x30
	.byte	0x1c
	.byte	0xa5
	.uleb128 0x16
	.uleb128 0x30
	.byte	0x1e
	.byte	0x9f
	.byte	0x93
	.uleb128 0x4
	.byte	0x93
	.uleb128 0x4
	.byte	0xa5
	.uleb128 0x16
	.uleb128 0x30
	.byte	0xa5
	.uleb128 0x17
	.uleb128 0x30
	.byte	0x1e
	.byte	0x9f
	.byte	0x93
	.uleb128 0x4
	.byte	0x54
	.byte	0x93
	.uleb128 0x4
	.byte	0x56
	.byte	0x93
	.uleb128 0x4
	.byte	0x93
	.uleb128 0x10
	.byte	0x4
	.uleb128 .LVL36-.LVL23
	.uleb128 .LVL37-.LVL23
	.uleb128 0x1a
	.byte	0x59
	.byte	0x93
	.uleb128 0x4
	.byte	0x58
	.byte	0x93
	.uleb128 0x4
	.byte	0x93
	.uleb128 0xc
	.byte	0xa5
	.uleb128 0x16
	.uleb128 0x30
	.byte	0xa5
	.uleb128 0x17
	.uleb128 0x30
	.byte	0x1e
	.byte	0x9f
	.byte	0x93
	.uleb128 0x4
	.byte	0x54
	.byte	0x93
	.uleb128 0x4
	.byte	0x56
	.byte	0x93
	.uleb128 0x4
	.byte	0x93
	.uleb128 0x10
	.byte	0x4
	.uleb128 .LVL37-.LVL23
	.uleb128 .LVL38-.LVL23
	.uleb128 0x1a
	.byte	0x59
	.byte	0x93
	.uleb128 0x4
	.byte	0x58
	.byte	0x93
	.uleb128 0x4
	.byte	0x93
	.uleb128 0xc
	.byte	0xa5
	.uleb128 0x16
	.uleb128 0x30
	.byte	0xa5
	.uleb128 0x17
	.uleb128 0x30
	.byte	0x1e
	.byte	0x9f
	.byte	0x93
	.uleb128 0x4
	.byte	0x54
	.byte	0x93
	.uleb128 0x4
	.byte	0x56
	.byte	0x93
	.uleb128 0x4
	.byte	0x93
	.uleb128 0x10
	.byte	0x4
	.uleb128 .LVL38-.LVL23
	.uleb128 .LVL41-.LVL23
	.uleb128 0x10
	.byte	0x59
	.byte	0x93
	.uleb128 0x4
	.byte	0x58
	.byte	0x93
	.uleb128 0x4
	.byte	0x93
	.uleb128 0x10
	.byte	0x54
	.byte	0x93
	.uleb128 0x4
	.byte	0x56
	.byte	0x93
	.uleb128 0x4
	.byte	0x93
	.uleb128 0x10
	.byte	0x4
	.uleb128 .LVL173-.LVL23
	.uleb128 .LVL178-1-.LVL23
	.uleb128 0x10
	.byte	0x59
	.byte	0x93
	.uleb128 0x4
	.byte	0x58
	.byte	0x93
	.uleb128 0x4
	.byte	0x93
	.uleb128 0x10
	.byte	0x54
	.byte	0x93
	.uleb128 0x4
	.byte	0x56
	.byte	0x93
	.uleb128 0x4
	.byte	0x93
	.uleb128 0x10
	.byte	0x4
	.uleb128 .LVL178-1-.LVL23
	.uleb128 .LVL181-.LVL23
	.uleb128 0x16
	.byte	0x91
	.sleb128 -112
	.byte	0x93
	.uleb128 0x4
	.byte	0x91
	.sleb128 -104
	.byte	0x93
	.uleb128 0x4
	.byte	0x93
	.uleb128 0x10
	.byte	0x91
	.sleb128 -80
	.byte	0x93
	.uleb128 0x4
	.byte	0x56
	.byte	0x93
	.uleb128 0x4
	.byte	0x93
	.uleb128 0x10
	.byte	0x4
	.uleb128 .LVL181-.LVL23
	.uleb128 .LVL193-.LVL23
	.uleb128 0x13
	.byte	0x93
	.uleb128 0x4
	.byte	0x91
	.sleb128 -104
	.byte	0x93
	.uleb128 0x4
	.byte	0x93
	.uleb128 0x10
	.byte	0x91
	.sleb128 -80
	.byte	0x93
	.uleb128 0x4
	.byte	0x56
	.byte	0x93
	.uleb128 0x4
	.byte	0x93
	.uleb128 0x10
	.byte	0x4
	.uleb128 .LVL204-.LVL23
	.uleb128 .LVL205-.LVL23
	.uleb128 0x16
	.byte	0x91
	.sleb128 -112
	.byte	0x93
	.uleb128 0x4
	.byte	0x91
	.sleb128 -104
	.byte	0x93
	.uleb128 0x4
	.byte	0x93
	.uleb128 0x10
	.byte	0x91
	.sleb128 -80
	.byte	0x93
	.uleb128 0x4
	.byte	0x56
	.byte	0x93
	.uleb128 0x4
	.byte	0x93
	.uleb128 0x10
	.byte	0x6
	.quad	.LVL231
	.byte	0x4
	.uleb128 .LVL231-.LVL231
	.uleb128 .LVL232-.LVL231
	.uleb128 0x7
	.byte	0x93
	.uleb128 0x1c
	.byte	0x56
	.byte	0x93
	.uleb128 0x4
	.byte	0x93
	.uleb128 0x10
	.byte	0x4
	.uleb128 .LVL271-.LVL231
	.uleb128 .LVL272-1-.LVL231
	.uleb128 0x10
	.byte	0x59
	.byte	0x93
	.uleb128 0x4
	.byte	0x58
	.byte	0x93
	.uleb128 0x4
	.byte	0x93
	.uleb128 0x10
	.byte	0x54
	.byte	0x93
	.uleb128 0x4
	.byte	0x56
	.byte	0x93
	.uleb128 0x4
	.byte	0x93
	.uleb128 0x10
	.byte	0x4
	.uleb128 .LVL272-1-.LVL231
	.uleb128 .LFE4421-.LVL231
	.uleb128 0x7
	.byte	0x93
	.uleb128 0x1c
	.byte	0x56
	.byte	0x93
	.uleb128 0x4
	.byte	0x93
	.uleb128 0x10
	.byte	0
.LVUS131:
	.uleb128 .LVU112
	.uleb128 .LVU145
	.uleb128 .LVU145
	.uleb128 .LVU158
.LLST131:
	.byte	0x6
	.quad	.LVL25
	.byte	0x4
	.uleb128 .LVL25-.LVL25
	.uleb128 .LVL31-.LVL25
	.uleb128 0x8
	.byte	0xa5
	.uleb128 0x14
	.uleb128 0x30
	.byte	0xa5
	.uleb128 0x11
	.uleb128 0x30
	.byte	0x1c
	.byte	0x9f
	.byte	0x4
	.uleb128 .LVL31-.LVL25
	.uleb128 .LVL38-.LVL25
	.uleb128 0x1
	.byte	0x66
	.byte	0
.LVUS132:
	.uleb128 .LVU113
	.uleb128 .LVU144
	.uleb128 .LVU144
	.uleb128 .LVU166
	.uleb128 .LVU804
	.uleb128 .LVU824
	.uleb128 .LVU1072
	.uleb128 .LVU1074
.LLST132:
	.byte	0x6
	.quad	.LVL25
	.byte	0x4
	.uleb128 .LVL25-.LVL25
	.uleb128 .LVL30-.LVL25
	.uleb128 0x8
	.byte	0xa5
	.uleb128 0x13
	.uleb128 0x30
	.byte	0xa5
	.uleb128 0x12
	.uleb128 0x30
	.byte	0x1c
	.byte	0x9f
	.byte	0x4
	.uleb128 .LVL30-.LVL25
	.uleb128 .LVL41-.LVL25
	.uleb128 0x1
	.byte	0x67
	.byte	0x4
	.uleb128 .LVL173-.LVL25
	.uleb128 .LVL178-1-.LVL25
	.uleb128 0x1
	.byte	0x67
	.byte	0x8
	.quad	.LVL271
	.uleb128 .LVL272-1-.LVL271
	.uleb128 0x1
	.byte	0x67
	.byte	0
.LVUS133:
	.uleb128 .LVU100
	.uleb128 .LVU103
.LLST133:
	.byte	0x8
	.quad	.LVL21
	.uleb128 .LVL22-.LVL21
	.uleb128 0x1
	.byte	0x64
	.byte	0
.LVUS134:
	.uleb128 .LVU106
	.uleb128 .LVU109
.LLST134:
	.byte	0x8
	.quad	.LVL23
	.uleb128 .LVL24-.LVL23
	.uleb128 0x1
	.byte	0x63
	.byte	0
.LVUS136:
	.uleb128 .LVU123
	.uleb128 .LVU127
.LLST136:
	.byte	0x8
	.quad	.LVL26
	.uleb128 .LVL27-.LVL26
	.uleb128 0x6
	.byte	0xa0
	.long	.Ldebug_info0+51710
	.sleb128 0
	.byte	0
.LVUS138:
	.uleb128 .LVU132
	.uleb128 .LVU136
.LLST138:
	.byte	0x8
	.quad	.LVL28
	.uleb128 .LVL29-.LVL28
	.uleb128 0x6
	.byte	0xa0
	.long	.Ldebug_info0+51719
	.sleb128 0
	.byte	0
.LVUS140:
	.uleb128 .LVU138
	.uleb128 .LVU139
.LLST140:
	.byte	0x8
	.quad	.LVL29
	.uleb128 .LVL29-.LVL29
	.uleb128 0x3
	.byte	0x7f
	.sleb128 16
	.byte	0x9f
	.byte	0
.LVUS142:
	.uleb128 .LVU151
	.uleb128 .LVU166
	.uleb128 .LVU804
	.uleb128 .LVU872
	.uleb128 .LVU911
	.uleb128 .LVU912
	.uleb128 .LVU991
	.uleb128 .LVU993
	.uleb128 .LVU1072
	.uleb128 0
.LLST142:
	.byte	0x6
	.quad	.LVL34
	.byte	0x4
	.uleb128 .LVL34-.LVL34
	.uleb128 .LVL41-.LVL34
	.uleb128 0x6
	.byte	0xa0
	.long	.Ldebug_info0+51747
	.sleb128 0
	.byte	0x4
	.uleb128 .LVL173-.LVL34
	.uleb128 .LVL193-.LVL34
	.uleb128 0x6
	.byte	0xa0
	.long	.Ldebug_info0+51747
	.sleb128 0
	.byte	0x4
	.uleb128 .LVL204-.LVL34
	.uleb128 .LVL205-.LVL34
	.uleb128 0x6
	.byte	0xa0
	.long	.Ldebug_info0+51747
	.sleb128 0
	.byte	0x6
	.quad	.LVL231
	.byte	0x4
	.uleb128 .LVL231-.LVL231
	.uleb128 .LVL234-.LVL231
	.uleb128 0x6
	.byte	0xa0
	.long	.Ldebug_info0+51747
	.sleb128 0
	.byte	0x4
	.uleb128 .LVL271-.LVL231
	.uleb128 .LFE4421-.LVL231
	.uleb128 0x6
	.byte	0xa0
	.long	.Ldebug_info0+51747
	.sleb128 0
	.byte	0
.LVUS143:
	.uleb128 .LVU151
	.uleb128 .LVU166
	.uleb128 .LVU804
	.uleb128 .LVU872
	.uleb128 .LVU911
	.uleb128 .LVU912
	.uleb128 .LVU991
	.uleb128 .LVU993
	.uleb128 .LVU1072
	.uleb128 0
.LLST143:
	.byte	0x6
	.quad	.LVL34
	.byte	0x4
	.uleb128 .LVL34-.LVL34
	.uleb128 .LVL41-.LVL34
	.uleb128 0x6
	.byte	0xa0
	.long	.Ldebug_info0+51913
	.sleb128 0
	.byte	0x4
	.uleb128 .LVL173-.LVL34
	.uleb128 .LVL193-.LVL34
	.uleb128 0x6
	.byte	0xa0
	.long	.Ldebug_info0+51913
	.sleb128 0
	.byte	0x4
	.uleb128 .LVL204-.LVL34
	.uleb128 .LVL205-.LVL34
	.uleb128 0x6
	.byte	0xa0
	.long	.Ldebug_info0+51913
	.sleb128 0
	.byte	0x6
	.quad	.LVL231
	.byte	0x4
	.uleb128 .LVL231-.LVL231
	.uleb128 .LVL234-.LVL231
	.uleb128 0x6
	.byte	0xa0
	.long	.Ldebug_info0+51913
	.sleb128 0
	.byte	0x4
	.uleb128 .LVL271-.LVL231
	.uleb128 .LFE4421-.LVL231
	.uleb128 0x6
	.byte	0xa0
	.long	.Ldebug_info0+51913
	.sleb128 0
	.byte	0
.LVUS145:
	.uleb128 .LVU159
	.uleb128 .LVU164
.LLST145:
	.byte	0x8
	.quad	.LVL39
	.uleb128 .LVL40-.LVL39
	.uleb128 0x6
	.byte	0xa0
	.long	.Ldebug_info0+51747
	.sleb128 0
	.byte	0
.LVUS146:
	.uleb128 .LVU159
	.uleb128 .LVU164
.LLST146:
	.byte	0x8
	.quad	.LVL39
	.uleb128 .LVL40-.LVL39
	.uleb128 0x6
	.byte	0xa0
	.long	.Ldebug_info0+51913
	.sleb128 0
	.byte	0
.LVUS147:
	.uleb128 .LVU160
	.uleb128 .LVU164
.LLST147:
	.byte	0x8
	.quad	.LVL39
	.uleb128 .LVL40-.LVL39
	.uleb128 0x6
	.byte	0xa0
	.long	.Ldebug_info0+51747
	.sleb128 0
	.byte	0
.LVUS148:
	.uleb128 .LVU160
	.uleb128 .LVU164
.LLST148:
	.byte	0x8
	.quad	.LVL39
	.uleb128 .LVL40-.LVL39
	.uleb128 0x6
	.byte	0xa0
	.long	.Ldebug_info0+51913
	.sleb128 0
	.byte	0
.LVUS150:
	.uleb128 .LVU804
	.uleb128 .LVU871
	.uleb128 .LVU911
	.uleb128 .LVU912
	.uleb128 .LVU991
	.uleb128 .LVU993
	.uleb128 .LVU1072
	.uleb128 0
.LLST150:
	.byte	0x6
	.quad	.LVL173
	.byte	0x4
	.uleb128 .LVL173-.LVL173
	.uleb128 .LVL192-.LVL173
	.uleb128 0x6
	.byte	0xa0
	.long	.Ldebug_info0+51747
	.sleb128 0
	.byte	0x4
	.uleb128 .LVL204-.LVL173
	.uleb128 .LVL205-.LVL173
	.uleb128 0x6
	.byte	0xa0
	.long	.Ldebug_info0+51747
	.sleb128 0
	.byte	0x6
	.quad	.LVL231
	.byte	0x4
	.uleb128 .LVL231-.LVL231
	.uleb128 .LVL234-.LVL231
	.uleb128 0x6
	.byte	0xa0
	.long	.Ldebug_info0+51747
	.sleb128 0
	.byte	0x4
	.uleb128 .LVL271-.LVL231
	.uleb128 .LFE4421-.LVL231
	.uleb128 0x6
	.byte	0xa0
	.long	.Ldebug_info0+51747
	.sleb128 0
	.byte	0
.LVUS151:
	.uleb128 .LVU804
	.uleb128 .LVU871
	.uleb128 .LVU911
	.uleb128 .LVU912
	.uleb128 .LVU991
	.uleb128 .LVU993
	.uleb128 .LVU1072
	.uleb128 0
.LLST151:
	.byte	0x6
	.quad	.LVL173
	.byte	0x4
	.uleb128 .LVL173-.LVL173
	.uleb128 .LVL192-.LVL173
	.uleb128 0x6
	.byte	0xa0
	.long	.Ldebug_info0+51913
	.sleb128 0
	.byte	0x4
	.uleb128 .LVL204-.LVL173
	.uleb128 .LVL205-.LVL173
	.uleb128 0x6
	.byte	0xa0
	.long	.Ldebug_info0+51913
	.sleb128 0
	.byte	0x6
	.quad	.LVL231
	.byte	0x4
	.uleb128 .LVL231-.LVL231
	.uleb128 .LVL234-.LVL231
	.uleb128 0x6
	.byte	0xa0
	.long	.Ldebug_info0+51913
	.sleb128 0
	.byte	0x4
	.uleb128 .LVL271-.LVL231
	.uleb128 .LFE4421-.LVL231
	.uleb128 0x6
	.byte	0xa0
	.long	.Ldebug_info0+51913
	.sleb128 0
	.byte	0
.LVUS152:
	.uleb128 .LVU817
	.uleb128 .LVU858
	.uleb128 .LVU911
	.uleb128 .LVU912
.LLST152:
	.byte	0x6
	.quad	.LVL177
	.byte	0x4
	.uleb128 .LVL177-.LVL177
	.uleb128 .LVL187-.LVL177
	.uleb128 0x3
	.byte	0x91
	.sleb128 -192
	.byte	0x4
	.uleb128 .LVL204-.LVL177
	.uleb128 .LVL205-.LVL177
	.uleb128 0x3
	.byte	0x91
	.sleb128 -192
	.byte	0
.LVUS153:
	.uleb128 .LVU850
	.uleb128 .LVU852
	.uleb128 .LVU852
	.uleb128 .LVU855
	.uleb128 .LVU855
	.uleb128 .LVU872
.LLST153:
	.byte	0x6
	.quad	.LVL183
	.byte	0x4
	.uleb128 .LVL183-.LVL183
	.uleb128 .LVL184-.LVL183
	.uleb128 0xc
	.byte	0x91
	.sleb128 -144
	.byte	0x6
	.byte	0x91
	.sleb128 -200
	.byte	0x6
	.byte	0x22
	.byte	0x23
	.uleb128 0x30
	.byte	0x9f
	.byte	0x4
	.uleb128 .LVL184-.LVL183
	.uleb128 .LVL186-.LVL183
	.uleb128 0x1
	.byte	0x50
	.byte	0x4
	.uleb128 .LVL186-.LVL183
	.uleb128 .LVL193-.LVL183
	.uleb128 0x3
	.byte	0x91
	.sleb128 -200
	.byte	0
.LVUS154:
	.uleb128 .LVU817
	.uleb128 .LVU853
	.uleb128 .LVU853
	.uleb128 .LVU858
	.uleb128 .LVU911
	.uleb128 .LVU912
.LLST154:
	.byte	0x6
	.quad	.LVL177
	.byte	0x4
	.uleb128 .LVL177-.LVL177
	.uleb128 .LVL185-.LVL177
	.uleb128 0x8
	.byte	0x91
	.sleb128 -200
	.byte	0x6
	.byte	0x8
	.byte	0x30
	.byte	0x1b
	.byte	0x9f
	.byte	0x4
	.uleb128 .LVL185-.LVL177
	.uleb128 .LVL187-.LVL177
	.uleb128 0xd
	.byte	0x91
	.sleb128 -176
	.byte	0x6
	.byte	0x91
	.sleb128 -192
	.byte	0x6
	.byte	0x1c
	.byte	0x8
	.byte	0x30
	.byte	0x1b
	.byte	0x9f
	.byte	0x4
	.uleb128 .LVL204-.LVL177
	.uleb128 .LVL205-.LVL177
	.uleb128 0x8
	.byte	0x91
	.sleb128 -200
	.byte	0x6
	.byte	0x8
	.byte	0x30
	.byte	0x1b
	.byte	0x9f
	.byte	0
.LVUS155:
	.uleb128 .LVU828
	.uleb128 .LVU849
	.uleb128 .LVU849
	.uleb128 .LVU872
.LLST155:
	.byte	0x6
	.quad	.LVL179
	.byte	0x4
	.uleb128 .LVL179-.LVL179
	.uleb128 .LVL182-1-.LVL179
	.uleb128 0x1
	.byte	0x50
	.byte	0x4
	.uleb128 .LVL182-1-.LVL179
	.uleb128 .LVL193-.LVL179
	.uleb128 0x3
	.byte	0x91
	.sleb128 -144
	.byte	0
.LVUS156:
	.uleb128 .LVU828
	.uleb128 .LVU849
	.uleb128 .LVU849
	.uleb128 .LVU850
	.uleb128 .LVU850
	.uleb128 .LVU853
	.uleb128 .LVU853
	.uleb128 .LVU855
	.uleb128 .LVU855
	.uleb128 .LVU871
.LLST156:
	.byte	0x6
	.quad	.LVL179
	.byte	0x4
	.uleb128 .LVL179-.LVL179
	.uleb128 .LVL182-1-.LVL179
	.uleb128 0x1
	.byte	0x50
	.byte	0x4
	.uleb128 .LVL182-1-.LVL179
	.uleb128 .LVL183-.LVL179
	.uleb128 0x3
	.byte	0x91
	.sleb128 -144
	.byte	0x4
	.uleb128 .LVL183-.LVL179
	.uleb128 .LVL185-.LVL179
	.uleb128 0xa
	.byte	0x91
	.sleb128 -144
	.byte	0x6
	.byte	0x91
	.sleb128 -200
	.byte	0x6
	.byte	0x22
	.byte	0x9f
	.byte	0x4
	.uleb128 .LVL185-.LVL179
	.uleb128 .LVL186-.LVL179
	.uleb128 0x1
	.byte	0x50
	.byte	0x4
	.uleb128 .LVL186-.LVL179
	.uleb128 .LVL192-.LVL179
	.uleb128 0x3
	.byte	0x91
	.sleb128 -200
	.byte	0
.LVUS158:
	.uleb128 .LVU806
	.uleb128 .LVU817
	.uleb128 .LVU1072
	.uleb128 0
.LLST158:
	.byte	0x8
	.quad	.LVL173
	.uleb128 .LVL177-.LVL173
	.uleb128 0x6
	.byte	0xa0
	.long	.Ldebug_info0+51747
	.sleb128 0
	.byte	0x8
	.quad	.LVL271
	.uleb128 .LFE4421-.LVL271
	.uleb128 0x6
	.byte	0xa0
	.long	.Ldebug_info0+51747
	.sleb128 0
	.byte	0
.LVUS159:
	.uleb128 .LVU806
	.uleb128 .LVU817
	.uleb128 .LVU1072
	.uleb128 0
.LLST159:
	.byte	0x8
	.quad	.LVL173
	.uleb128 .LVL177-.LVL173
	.uleb128 0x2
	.byte	0x31
	.byte	0x9f
	.byte	0x8
	.quad	.LVL271
	.uleb128 .LFE4421-.LVL271
	.uleb128 0x2
	.byte	0x31
	.byte	0x9f
	.byte	0
.LVUS160:
	.uleb128 .LVU806
	.uleb128 .LVU817
	.uleb128 .LVU1072
	.uleb128 0
.LLST160:
	.byte	0x8
	.quad	.LVL173
	.uleb128 .LVL177-.LVL173
	.uleb128 0xa
	.byte	0x3
	.quad	.LC2
	.byte	0x9f
	.byte	0x8
	.quad	.LVL271
	.uleb128 .LFE4421-.LVL271
	.uleb128 0xa
	.byte	0x3
	.quad	.LC2
	.byte	0x9f
	.byte	0
.LVUS161:
	.uleb128 .LVU807
	.uleb128 .LVU811
.LLST161:
	.byte	0x8
	.quad	.LVL173
	.uleb128 .LVL176-.LVL173
	.uleb128 0x6
	.byte	0xa0
	.long	.Ldebug_info0+51747
	.sleb128 0
	.byte	0
.LVUS162:
	.uleb128 .LVU809
	.uleb128 .LVU810
	.uleb128 .LVU810
	.uleb128 .LVU811
.LLST162:
	.byte	0x6
	.quad	.LVL174
	.byte	0x4
	.uleb128 .LVL174-.LVL174
	.uleb128 .LVL175-.LVL174
	.uleb128 0x6
	.byte	0x70
	.sleb128 0
	.byte	0x8
	.byte	0x30
	.byte	0x1b
	.byte	0x9f
	.byte	0x4
	.uleb128 .LVL175-.LVL174
	.uleb128 .LVL176-.LVL174
	.uleb128 0x8
	.byte	0x91
	.sleb128 -200
	.byte	0x6
	.byte	0x8
	.byte	0x30
	.byte	0x1b
	.byte	0x9f
	.byte	0
.LVUS164:
	.uleb128 .LVU816
	.uleb128 .LVU817
.LLST164:
	.byte	0x8
	.quad	.LVL177
	.uleb128 .LVL177-.LVL177
	.uleb128 0x6
	.byte	0xa0
	.long	.Ldebug_info0+52619
	.sleb128 0
	.byte	0
.LVUS166:
	.uleb128 .LVU817
	.uleb128 .LVU828
	.uleb128 .LVU911
	.uleb128 .LVU912
.LLST166:
	.byte	0x6
	.quad	.LVL177
	.byte	0x4
	.uleb128 .LVL177-.LVL177
	.uleb128 .LVL179-.LVL177
	.uleb128 0x6
	.byte	0xa0
	.long	.Ldebug_info0+51747
	.sleb128 0
	.byte	0x4
	.uleb128 .LVL204-.LVL177
	.uleb128 .LVL205-.LVL177
	.uleb128 0x6
	.byte	0xa0
	.long	.Ldebug_info0+51747
	.sleb128 0
	.byte	0
.LVUS168:
	.uleb128 .LVU819
	.uleb128 .LVU828
	.uleb128 .LVU911
	.uleb128 .LVU912
.LLST168:
	.byte	0x6
	.quad	.LVL177
	.byte	0x4
	.uleb128 .LVL177-.LVL177
	.uleb128 .LVL179-.LVL177
	.uleb128 0x6
	.byte	0xa0
	.long	.Ldebug_info0+51747
	.sleb128 0
	.byte	0x4
	.uleb128 .LVL204-.LVL177
	.uleb128 .LVL205-.LVL177
	.uleb128 0x6
	.byte	0xa0
	.long	.Ldebug_info0+51747
	.sleb128 0
	.byte	0
.LVUS170:
	.uleb128 .LVU821
	.uleb128 .LVU828
	.uleb128 .LVU911
	.uleb128 .LVU912
.LLST170:
	.byte	0x6
	.quad	.LVL177
	.byte	0x4
	.uleb128 .LVL177-.LVL177
	.uleb128 .LVL179-.LVL177
	.uleb128 0x2
	.byte	0x30
	.byte	0x9f
	.byte	0x4
	.uleb128 .LVL204-.LVL177
	.uleb128 .LVL205-.LVL177
	.uleb128 0x2
	.byte	0x30
	.byte	0x9f
	.byte	0
.LVUS171:
	.uleb128 .LVU821
	.uleb128 .LVU828
	.uleb128 .LVU911
	.uleb128 .LVU912
.LLST171:
	.byte	0x6
	.quad	.LVL177
	.byte	0x4
	.uleb128 .LVL177-.LVL177
	.uleb128 .LVL179-.LVL177
	.uleb128 0x6
	.byte	0xa0
	.long	.Ldebug_info0+51747
	.sleb128 0
	.byte	0x4
	.uleb128 .LVL204-.LVL177
	.uleb128 .LVL205-.LVL177
	.uleb128 0x6
	.byte	0xa0
	.long	.Ldebug_info0+51747
	.sleb128 0
	.byte	0
.LVUS174:
	.uleb128 .LVU830
	.uleb128 .LVU841
.LLST174:
	.byte	0x8
	.quad	.LVL179
	.uleb128 .LVL180-.LVL179
	.uleb128 0x6
	.byte	0xa0
	.long	.Ldebug_info0+51747
	.sleb128 0
	.byte	0
.LVUS175:
	.uleb128 .LVU830
	.uleb128 .LVU841
.LLST175:
	.byte	0x8
	.quad	.LVL179
	.uleb128 .LVL180-.LVL179
	.uleb128 0x6
	.byte	0x70
	.sleb128 0
	.byte	0x71
	.sleb128 0
	.byte	0x22
	.byte	0x9f
	.byte	0
.LVUS176:
	.uleb128 .LVU830
	.uleb128 .LVU841
.LLST176:
	.byte	0x8
	.quad	.LVL179
	.uleb128 .LVL180-.LVL179
	.uleb128 0x6
	.byte	0xa0
	.long	.Ldebug_info0+51913
	.sleb128 0
	.byte	0
.LVUS177:
	.uleb128 .LVU832
	.uleb128 .LVU841
.LLST177:
	.byte	0x8
	.quad	.LVL179
	.uleb128 .LVL180-.LVL179
	.uleb128 0x6
	.byte	0xa0
	.long	.Ldebug_info0+51747
	.sleb128 0
	.byte	0
.LVUS178:
	.uleb128 .LVU832
	.uleb128 .LVU841
.LLST178:
	.byte	0x8
	.quad	.LVL179
	.uleb128 .LVL180-.LVL179
	.uleb128 0x6
	.byte	0x70
	.sleb128 0
	.byte	0x71
	.sleb128 0
	.byte	0x22
	.byte	0x9f
	.byte	0
.LVUS179:
	.uleb128 .LVU832
	.uleb128 .LVU841
.LLST179:
	.byte	0x8
	.quad	.LVL179
	.uleb128 .LVL180-.LVL179
	.uleb128 0x6
	.byte	0xa0
	.long	.Ldebug_info0+51913
	.sleb128 0
	.byte	0
.LVUS180:
	.uleb128 .LVU828
	.uleb128 .LVU830
.LLST180:
	.byte	0x8
	.quad	.LVL179
	.uleb128 .LVL179-.LVL179
	.uleb128 0x6
	.byte	0xa0
	.long	.Ldebug_info0+52966
	.sleb128 0
	.byte	0
.LVUS181:
	.uleb128 .LVU828
	.uleb128 .LVU830
.LLST181:
	.byte	0x8
	.quad	.LVL179
	.uleb128 .LVL179-.LVL179
	.uleb128 0x1
	.byte	0x50
	.byte	0
.LVUS182:
	.uleb128 .LVU828
	.uleb128 .LVU830
.LLST182:
	.byte	0x8
	.quad	.LVL179
	.uleb128 .LVL179-.LVL179
	.uleb128 0x6
	.byte	0xa0
	.long	.Ldebug_info0+51747
	.sleb128 0
	.byte	0
.LVUS184:
	.uleb128 .LVU841
	.uleb128 .LVU850
.LLST184:
	.byte	0x8
	.quad	.LVL180
	.uleb128 .LVL183-.LVL180
	.uleb128 0x3
	.byte	0x91
	.sleb128 -192
	.byte	0
.LVUS185:
	.uleb128 .LVU841
	.uleb128 .LVU849
	.uleb128 .LVU849
	.uleb128 .LVU850
.LLST185:
	.byte	0x6
	.quad	.LVL180
	.byte	0x4
	.uleb128 .LVL180-.LVL180
	.uleb128 .LVL182-1-.LVL180
	.uleb128 0x1
	.byte	0x50
	.byte	0x4
	.uleb128 .LVL182-1-.LVL180
	.uleb128 .LVL183-.LVL180
	.uleb128 0x3
	.byte	0x91
	.sleb128 -144
	.byte	0
.LVUS186:
	.uleb128 .LVU841
	.uleb128 .LVU850
.LLST186:
	.byte	0x8
	.quad	.LVL180
	.uleb128 .LVL183-.LVL180
	.uleb128 0x6
	.byte	0xa0
	.long	.Ldebug_info0+51747
	.sleb128 0
	.byte	0
.LVUS187:
	.uleb128 .LVU843
	.uleb128 .LVU850
.LLST187:
	.byte	0x8
	.quad	.LVL180
	.uleb128 .LVL183-.LVL180
	.uleb128 0x3
	.byte	0x91
	.sleb128 -192
	.byte	0
.LVUS188:
	.uleb128 .LVU843
	.uleb128 .LVU849
	.uleb128 .LVU849
	.uleb128 .LVU850
.LLST188:
	.byte	0x6
	.quad	.LVL180
	.byte	0x4
	.uleb128 .LVL180-.LVL180
	.uleb128 .LVL182-1-.LVL180
	.uleb128 0x1
	.byte	0x50
	.byte	0x4
	.uleb128 .LVL182-1-.LVL180
	.uleb128 .LVL183-.LVL180
	.uleb128 0x3
	.byte	0x91
	.sleb128 -144
	.byte	0
.LVUS189:
	.uleb128 .LVU843
	.uleb128 .LVU850
.LLST189:
	.byte	0x8
	.quad	.LVL180
	.uleb128 .LVL183-.LVL180
	.uleb128 0x6
	.byte	0xa0
	.long	.Ldebug_info0+51747
	.sleb128 0
	.byte	0
.LVUS190:
	.uleb128 .LVU844
	.uleb128 .LVU849
	.uleb128 .LVU849
	.uleb128 .LVU853
.LLST190:
	.byte	0x6
	.quad	.LVL180
	.byte	0x4
	.uleb128 .LVL180-.LVL180
	.uleb128 .LVL182-1-.LVL180
	.uleb128 0x6
	.byte	0x71
	.sleb128 0
	.byte	0x8
	.byte	0x30
	.byte	0x1b
	.byte	0x9f
	.byte	0x4
	.uleb128 .LVL182-1-.LVL180
	.uleb128 .LVL185-.LVL180
	.uleb128 0x8
	.byte	0x91
	.sleb128 -200
	.byte	0x6
	.byte	0x8
	.byte	0x30
	.byte	0x1b
	.byte	0x9f
	.byte	0
.LVUS192:
	.uleb128 .LVU853
	.uleb128 .LVU867
.LLST192:
	.byte	0x8
	.quad	.LVL185
	.uleb128 .LVL190-.LVL185
	.uleb128 0x6
	.byte	0xa0
	.long	.Ldebug_info0+52966
	.sleb128 0
	.byte	0
.LVUS194:
	.uleb128 .LVU858
	.uleb128 .LVU865
.LLST194:
	.byte	0x8
	.quad	.LVL187
	.uleb128 .LVL188-1-.LVL187
	.uleb128 0x1
	.byte	0x50
	.byte	0
.LVUS196:
	.uleb128 .LVU860
	.uleb128 .LVU865
.LLST196:
	.byte	0x8
	.quad	.LVL187
	.uleb128 .LVL188-1-.LVL187
	.uleb128 0x1
	.byte	0x50
	.byte	0
.LVUS198:
	.uleb128 .LVU861
	.uleb128 .LVU865
.LLST198:
	.byte	0x8
	.quad	.LVL187
	.uleb128 .LVL188-1-.LVL187
	.uleb128 0x1
	.byte	0x50
	.byte	0
.LVUS200:
	.uleb128 .LVU862
	.uleb128 .LVU865
.LLST200:
	.byte	0x8
	.quad	.LVL187
	.uleb128 .LVL188-1-.LVL187
	.uleb128 0x1
	.byte	0x50
	.byte	0
.LVUS122:
	.uleb128 .LVU78
	.uleb128 .LVU80
	.uleb128 .LVU692
	.uleb128 .LVU694
.LLST122:
	.byte	0x8
	.quad	.LVL17
	.uleb128 .LVL17-.LVL17
	.uleb128 0x1
	.byte	0x56
	.byte	0x8
	.quad	.LVL158
	.uleb128 .LVL158-.LVL158
	.uleb128 0x1
	.byte	0x56
	.byte	0
.LVUS123:
	.uleb128 .LVU79
	.uleb128 .LVU80
	.uleb128 .LVU693
	.uleb128 .LVU694
.LLST123:
	.byte	0x8
	.quad	.LVL17
	.uleb128 .LVL17-.LVL17
	.uleb128 0x1
	.byte	0x56
	.byte	0x8
	.quad	.LVL158
	.uleb128 .LVL158-.LVL158
	.uleb128 0x1
	.byte	0x56
	.byte	0
.LVUS125:
	.uleb128 .LVU80
	.uleb128 .LVU83
	.uleb128 .LVU694
	.uleb128 .LVU697
.LLST125:
	.byte	0x8
	.quad	.LVL17
	.uleb128 .LVL17-.LVL17
	.uleb128 0x1
	.byte	0x56
	.byte	0x8
	.quad	.LVL158
	.uleb128 .LVL158-.LVL158
	.uleb128 0x1
	.byte	0x56
	.byte	0
.LVUS126:
	.uleb128 .LVU82
	.uleb128 .LVU83
	.uleb128 .LVU696
	.uleb128 .LVU697
.LLST126:
	.byte	0x8
	.quad	.LVL17
	.uleb128 .LVL17-.LVL17
	.uleb128 0x3
	.byte	0x76
	.sleb128 8
	.byte	0x9f
	.byte	0x8
	.quad	.LVL158
	.uleb128 .LVL158-.LVL158
	.uleb128 0x3
	.byte	0x76
	.sleb128 8
	.byte	0x9f
	.byte	0
.LVUS201:
	.uleb128 .LVU168
	.uleb128 .LVU170
.LLST201:
	.byte	0x8
	.quad	.LVL41
	.uleb128 .LVL42-.LVL41
	.uleb128 0x6
	.byte	0xa0
	.long	.Ldebug_info0+51848
	.sleb128 0
	.byte	0
.LVUS371:
	.uleb128 .LVU341
	.uleb128 .LVU345
	.uleb128 .LVU345
	.uleb128 .LVU380
	.uleb128 .LVU872
	.uleb128 .LVU875
.LLST371:
	.byte	0x6
	.quad	.LVL72
	.byte	0x4
	.uleb128 .LVL72-.LVL72
	.uleb128 .LVL73-.LVL72
	.uleb128 0x1
	.byte	0x50
	.byte	0x4
	.uleb128 .LVL73-.LVL72
	.uleb128 .LVL80-.LVL72
	.uleb128 0x3
	.byte	0x70
	.sleb128 -48
	.byte	0x9f
	.byte	0x4
	.uleb128 .LVL193-.LVL72
	.uleb128 .LVL194-.LVL72
	.uleb128 0x3
	.byte	0x70
	.sleb128 -48
	.byte	0x9f
	.byte	0
.LVUS372:
	.uleb128 .LVU331
	.uleb128 .LVU687
	.uleb128 .LVU788
	.uleb128 .LVU802
	.uleb128 .LVU872
	.uleb128 .LVU875
	.uleb128 .LVU880
	.uleb128 .LVU891
	.uleb128 .LVU893
	.uleb128 .LVU909
	.uleb128 .LVU913
	.uleb128 .LVU915
	.uleb128 .LVU977
	.uleb128 .LVU991
	.uleb128 .LVU993
	.uleb128 .LVU995
	.uleb128 .LVU997
	.uleb128 .LVU1004
	.uleb128 .LVU1006
	.uleb128 .LVU1007
	.uleb128 .LVU1032
	.uleb128 .LVU1072
.LLST372:
	.byte	0x6
	.quad	.LVL69
	.byte	0x4
	.uleb128 .LVL69-.LVL69
	.uleb128 .LVL156-.LVL69
	.uleb128 0x6
	.byte	0xa0
	.long	.Ldebug_info0+51747
	.sleb128 0
	.byte	0x4
	.uleb128 .LVL169-.LVL69
	.uleb128 .LVL172-.LVL69
	.uleb128 0x6
	.byte	0xa0
	.long	.Ldebug_info0+51747
	.sleb128 0
	.byte	0x4
	.uleb128 .LVL193-.LVL69
	.uleb128 .LVL194-.LVL69
	.uleb128 0x6
	.byte	0xa0
	.long	.Ldebug_info0+51747
	.sleb128 0
	.byte	0x4
	.uleb128 .LVL194-.LVL69
	.uleb128 .LVL197-.LVL69
	.uleb128 0x6
	.byte	0xa0
	.long	.Ldebug_info0+51747
	.sleb128 0
	.byte	0x4
	.uleb128 .LVL198-.LVL69
	.uleb128 .LVL202-.LVL69
	.uleb128 0x6
	.byte	0xa0
	.long	.Ldebug_info0+51747
	.sleb128 0
	.byte	0x4
	.uleb128 .LVL207-.LVL69
	.uleb128 .LVL209-.LVL69
	.uleb128 0x6
	.byte	0xa0
	.long	.Ldebug_info0+51747
	.sleb128 0
	.byte	0x6
	.quad	.LVL223
	.byte	0x4
	.uleb128 .LVL223-.LVL223
	.uleb128 .LVL231-.LVL223
	.uleb128 0x6
	.byte	0xa0
	.long	.Ldebug_info0+51747
	.sleb128 0
	.byte	0x4
	.uleb128 .LVL234-.LVL223
	.uleb128 .LVL237-.LVL223
	.uleb128 0x6
	.byte	0xa0
	.long	.Ldebug_info0+51747
	.sleb128 0
	.byte	0x4
	.uleb128 .LVL238-.LVL223
	.uleb128 .LVL242-.LVL223
	.uleb128 0x6
	.byte	0xa0
	.long	.Ldebug_info0+51747
	.sleb128 0
	.byte	0x4
	.uleb128 .LVL243-.LVL223
	.uleb128 .LVL244-.LVL223
	.uleb128 0x6
	.byte	0xa0
	.long	.Ldebug_info0+51747
	.sleb128 0
	.byte	0x4
	.uleb128 .LVL252-.LVL223
	.uleb128 .LVL271-.LVL223
	.uleb128 0x6
	.byte	0xa0
	.long	.Ldebug_info0+51747
	.sleb128 0
	.byte	0
.LVUS374:
	.uleb128 .LVU331
	.uleb128 .LVU333
	.uleb128 .LVU788
	.uleb128 .LVU790
	.uleb128 .LVU880
	.uleb128 .LVU882
.LLST374:
	.byte	0x8
	.quad	.LVL69
	.uleb128 .LVL69-.LVL69
	.uleb128 0x6
	.byte	0xa0
	.long	.Ldebug_info0+51747
	.sleb128 0
	.byte	0x8
	.quad	.LVL169
	.uleb128 .LVL169-.LVL169
	.uleb128 0x6
	.byte	0xa0
	.long	.Ldebug_info0+51747
	.sleb128 0
	.byte	0x8
	.quad	.LVL194
	.uleb128 .LVL194-.LVL194
	.uleb128 0x6
	.byte	0xa0
	.long	.Ldebug_info0+51747
	.sleb128 0
	.byte	0
.LVUS375:
	.uleb128 .LVU332
	.uleb128 .LVU333
	.uleb128 .LVU789
	.uleb128 .LVU790
	.uleb128 .LVU881
	.uleb128 .LVU882
.LLST375:
	.byte	0x8
	.quad	.LVL69
	.uleb128 .LVL69-.LVL69
	.uleb128 0x6
	.byte	0xa0
	.long	.Ldebug_info0+51747
	.sleb128 0
	.byte	0x8
	.quad	.LVL169
	.uleb128 .LVL169-.LVL169
	.uleb128 0x6
	.byte	0xa0
	.long	.Ldebug_info0+51747
	.sleb128 0
	.byte	0x8
	.quad	.LVL194
	.uleb128 .LVL194-.LVL194
	.uleb128 0x6
	.byte	0xa0
	.long	.Ldebug_info0+51747
	.sleb128 0
	.byte	0
.LVUS377:
	.uleb128 .LVU333
	.uleb128 .LVU336
	.uleb128 .LVU790
	.uleb128 .LVU793
	.uleb128 .LVU882
	.uleb128 .LVU885
.LLST377:
	.byte	0x8
	.quad	.LVL69
	.uleb128 .LVL69-.LVL69
	.uleb128 0x6
	.byte	0xa0
	.long	.Ldebug_info0+51747
	.sleb128 0
	.byte	0x8
	.quad	.LVL169
	.uleb128 .LVL169-.LVL169
	.uleb128 0x6
	.byte	0xa0
	.long	.Ldebug_info0+51747
	.sleb128 0
	.byte	0x8
	.quad	.LVL194
	.uleb128 .LVL194-.LVL194
	.uleb128 0x6
	.byte	0xa0
	.long	.Ldebug_info0+51747
	.sleb128 0
	.byte	0
.LVUS378:
	.uleb128 .LVU335
	.uleb128 .LVU336
	.uleb128 .LVU792
	.uleb128 .LVU793
	.uleb128 .LVU884
	.uleb128 .LVU885
.LLST378:
	.byte	0x8
	.quad	.LVL69
	.uleb128 .LVL69-.LVL69
	.uleb128 0x6
	.byte	0xa0
	.long	.Ldebug_info0+51747
	.sleb128 8
	.byte	0x8
	.quad	.LVL169
	.uleb128 .LVL169-.LVL169
	.uleb128 0x6
	.byte	0xa0
	.long	.Ldebug_info0+51747
	.sleb128 8
	.byte	0x8
	.quad	.LVL194
	.uleb128 .LVL194-.LVL194
	.uleb128 0x6
	.byte	0xa0
	.long	.Ldebug_info0+51747
	.sleb128 8
	.byte	0
.LVUS380:
	.uleb128 .LVU374
	.uleb128 .LVU375
.LLST380:
	.byte	0x8
	.quad	.LVL78
	.uleb128 .LVL78-.LVL78
	.uleb128 0x6
	.byte	0xa0
	.long	.Ldebug_info0+53880
	.sleb128 0
	.byte	0
.LVUS381:
	.uleb128 .LVU348
	.uleb128 .LVU350
.LLST381:
	.byte	0x8
	.quad	.LVL74
	.uleb128 .LVL74-.LVL74
	.uleb128 0x6
	.byte	0x71
	.sleb128 0
	.byte	0x78
	.sleb128 0
	.byte	0x22
	.byte	0x9f
	.byte	0
.LVUS382:
	.uleb128 .LVU356
	.uleb128 .LVU358
.LLST382:
	.byte	0x8
	.quad	.LVL75
	.uleb128 .LVL75-.LVL75
	.uleb128 0x6
	.byte	0x71
	.sleb128 0
	.byte	0x74
	.sleb128 0
	.byte	0x22
	.byte	0x9f
	.byte	0
.LVUS383:
	.uleb128 .LVU362
	.uleb128 .LVU364
.LLST383:
	.byte	0x8
	.quad	.LVL76
	.uleb128 .LVL76-.LVL76
	.uleb128 0x6
	.byte	0x78
	.sleb128 0
	.byte	0x79
	.sleb128 0
	.byte	0x22
	.byte	0x9f
	.byte	0
.LVUS384:
	.uleb128 .LVU368
	.uleb128 .LVU370
.LLST384:
	.byte	0x8
	.quad	.LVL77
	.uleb128 .LVL77-.LVL77
	.uleb128 0x6
	.byte	0x74
	.sleb128 0
	.byte	0x79
	.sleb128 0
	.byte	0x22
	.byte	0x9f
	.byte	0
.LVUS386:
	.uleb128 .LVU378
	.uleb128 .LVU391
	.uleb128 .LVU391
	.uleb128 .LVU394
	.uleb128 .LVU394
	.uleb128 .LVU410
	.uleb128 .LVU798
	.uleb128 .LVU802
	.uleb128 .LVU872
	.uleb128 .LVU875
	.uleb128 .LVU888
	.uleb128 .LVU891
	.uleb128 .LVU893
	.uleb128 .LVU907
	.uleb128 .LVU907
	.uleb128 .LVU909
.LLST386:
	.byte	0x6
	.quad	.LVL79
	.byte	0x4
	.uleb128 .LVL79-.LVL79
	.uleb128 .LVL85-.LVL79
	.uleb128 0x2
	.byte	0x30
	.byte	0x9f
	.byte	0x4
	.uleb128 .LVL85-.LVL79
	.uleb128 .LVL86-.LVL79
	.uleb128 0x2
	.byte	0x31
	.byte	0x9f
	.byte	0x4
	.uleb128 .LVL86-.LVL79
	.uleb128 .LVL93-.LVL79
	.uleb128 0x1
	.byte	0x5a
	.byte	0x4
	.uleb128 .LVL170-.LVL79
	.uleb128 .LVL172-.LVL79
	.uleb128 0x2
	.byte	0x30
	.byte	0x9f
	.byte	0x4
	.uleb128 .LVL193-.LVL79
	.uleb128 .LVL194-.LVL79
	.uleb128 0x2
	.byte	0x30
	.byte	0x9f
	.byte	0x4
	.uleb128 .LVL195-.LVL79
	.uleb128 .LVL197-.LVL79
	.uleb128 0x2
	.byte	0x30
	.byte	0x9f
	.byte	0x4
	.uleb128 .LVL198-.LVL79
	.uleb128 .LVL201-.LVL79
	.uleb128 0x2
	.byte	0x31
	.byte	0x9f
	.byte	0x4
	.uleb128 .LVL201-.LVL79
	.uleb128 .LVL202-.LVL79
	.uleb128 0x2
	.byte	0x30
	.byte	0x9f
	.byte	0
.LVUS388:
	.uleb128 .LVU380
	.uleb128 .LVU383
	.uleb128 .LVU383
	.uleb128 .LVU394
	.uleb128 .LVU394
	.uleb128 .LVU398
	.uleb128 .LVU399
	.uleb128 .LVU410
	.uleb128 .LVU893
	.uleb128 .LVU907
.LLST388:
	.byte	0x6
	.quad	.LVL80
	.byte	0x4
	.uleb128 .LVL80-.LVL80
	.uleb128 .LVL81-.LVL80
	.uleb128 0x2
	.byte	0x30
	.byte	0x9f
	.byte	0x4
	.uleb128 .LVL81-.LVL80
	.uleb128 .LVL86-.LVL80
	.uleb128 0x1
	.byte	0x51
	.byte	0x4
	.uleb128 .LVL86-.LVL80
	.uleb128 .LVL87-.LVL80
	.uleb128 0x2
	.byte	0x30
	.byte	0x9f
	.byte	0x4
	.uleb128 .LVL88-.LVL80
	.uleb128 .LVL93-.LVL80
	.uleb128 0x1
	.byte	0x51
	.byte	0x4
	.uleb128 .LVL198-.LVL80
	.uleb128 .LVL201-.LVL80
	.uleb128 0x1
	.byte	0x51
	.byte	0
.LVUS390:
	.uleb128 .LVU380
	.uleb128 .LVU383
	.uleb128 .LVU383
	.uleb128 .LVU388
	.uleb128 .LVU388
	.uleb128 .LVU389
	.uleb128 .LVU394
	.uleb128 .LVU398
	.uleb128 .LVU399
	.uleb128 .LVU406
	.uleb128 .LVU406
	.uleb128 .LVU407
.LLST390:
	.byte	0x6
	.quad	.LVL80
	.byte	0x4
	.uleb128 .LVL80-.LVL80
	.uleb128 .LVL81-.LVL80
	.uleb128 0x2
	.byte	0x30
	.byte	0x9f
	.byte	0x4
	.uleb128 .LVL81-.LVL80
	.uleb128 .LVL83-.LVL80
	.uleb128 0x1
	.byte	0x50
	.byte	0x4
	.uleb128 .LVL83-.LVL80
	.uleb128 .LVL84-.LVL80
	.uleb128 0x3
	.byte	0x70
	.sleb128 1
	.byte	0x9f
	.byte	0x4
	.uleb128 .LVL86-.LVL80
	.uleb128 .LVL87-.LVL80
	.uleb128 0x2
	.byte	0x30
	.byte	0x9f
	.byte	0x4
	.uleb128 .LVL88-.LVL80
	.uleb128 .LVL90-.LVL80
	.uleb128 0x1
	.byte	0x50
	.byte	0x4
	.uleb128 .LVL90-.LVL80
	.uleb128 .LVL91-.LVL80
	.uleb128 0x3
	.byte	0x70
	.sleb128 1
	.byte	0x9f
	.byte	0
.LVUS392:
	.uleb128 .LVU416
	.uleb128 .LVU500
	.uleb128 .LVU500
	.uleb128 .LVU501
.LLST392:
	.byte	0x6
	.quad	.LVL96
	.byte	0x4
	.uleb128 .LVL96-.LVL96
	.uleb128 .LVL117-.LVL96
	.uleb128 0x1
	.byte	0x50
	.byte	0x4
	.uleb128 .LVL117-.LVL96
	.uleb128 .LVL118-.LVL96
	.uleb128 0x3
	.byte	0x70
	.sleb128 -48
	.byte	0x9f
	.byte	0
.LVUS393:
	.uleb128 .LVU418
	.uleb128 .LVU501
.LLST393:
	.byte	0x8
	.quad	.LVL97
	.uleb128 .LVL118-.LVL97
	.uleb128 0x1
	.byte	0x5a
	.byte	0
.LVUS395:
	.uleb128 .LVU449
	.uleb128 .LVU455
	.uleb128 .LVU455
	.uleb128 .LVU471
	.uleb128 .LVU486
	.uleb128 .LVU496
.LLST395:
	.byte	0x6
	.quad	.LVL99
	.byte	0x4
	.uleb128 .LVL99-.LVL99
	.uleb128 .LVL101-.LVL99
	.uleb128 0x1
	.byte	0x6a
	.byte	0x4
	.uleb128 .LVL101-.LVL99
	.uleb128 .LVL108-.LVL99
	.uleb128 0x1
	.byte	0x64
	.byte	0x4
	.uleb128 .LVL114-.LVL99
	.uleb128 .LVL116-.LVL99
	.uleb128 0x1
	.byte	0x6a
	.byte	0
.LVUS396:
	.uleb128 .LVU449
	.uleb128 .LVU459
	.uleb128 .LVU459
	.uleb128 .LVU476
	.uleb128 .LVU487
	.uleb128 .LVU496
.LLST396:
	.byte	0x6
	.quad	.LVL99
	.byte	0x4
	.uleb128 .LVL99-.LVL99
	.uleb128 .LVL103-.LVL99
	.uleb128 0x1
	.byte	0x69
	.byte	0x4
	.uleb128 .LVL103-.LVL99
	.uleb128 .LVL110-.LVL99
	.uleb128 0x1
	.byte	0x63
	.byte	0x4
	.uleb128 .LVL114-.LVL99
	.uleb128 .LVL116-.LVL99
	.uleb128 0x1
	.byte	0x69
	.byte	0
.LVUS397:
	.uleb128 .LVU449
	.uleb128 .LVU461
	.uleb128 .LVU461
	.uleb128 .LVU481
	.uleb128 .LVU488
	.uleb128 .LVU496
.LLST397:
	.byte	0x6
	.quad	.LVL99
	.byte	0x4
	.uleb128 .LVL99-.LVL99
	.uleb128 .LVL104-.LVL99
	.uleb128 0x1
	.byte	0x68
	.byte	0x4
	.uleb128 .LVL104-.LVL99
	.uleb128 .LVL112-.LVL99
	.uleb128 0x1
	.byte	0x62
	.byte	0x4
	.uleb128 .LVL114-.LVL99
	.uleb128 .LVL116-.LVL99
	.uleb128 0x1
	.byte	0x68
	.byte	0
.LVUS398:
	.uleb128 .LVU449
	.uleb128 .LVU463
	.uleb128 .LVU463
	.uleb128 .LVU472
	.uleb128 .LVU489
	.uleb128 .LVU496
.LLST398:
	.byte	0x6
	.quad	.LVL99
	.byte	0x4
	.uleb128 .LVL99-.LVL99
	.uleb128 .LVL105-.LVL99
	.uleb128 0x1
	.byte	0x67
	.byte	0x4
	.uleb128 .LVL105-.LVL99
	.uleb128 .LVL109-.LVL99
	.uleb128 0x1
	.byte	0x6d
	.byte	0x4
	.uleb128 .LVL114-.LVL99
	.uleb128 .LVL116-.LVL99
	.uleb128 0x1
	.byte	0x67
	.byte	0
.LVUS399:
	.uleb128 .LVU449
	.uleb128 .LVU465
	.uleb128 .LVU465
	.uleb128 .LVU479
	.uleb128 .LVU490
	.uleb128 .LVU496
.LLST399:
	.byte	0x6
	.quad	.LVL99
	.byte	0x4
	.uleb128 .LVL99-.LVL99
	.uleb128 .LVL106-.LVL99
	.uleb128 0x1
	.byte	0x66
	.byte	0x4
	.uleb128 .LVL106-.LVL99
	.uleb128 .LVL111-.LVL99
	.uleb128 0x1
	.byte	0x6c
	.byte	0x4
	.uleb128 .LVL114-.LVL99
	.uleb128 .LVL116-.LVL99
	.uleb128 0x1
	.byte	0x66
	.byte	0
.LVUS400:
	.uleb128 .LVU449
	.uleb128 .LVU469
	.uleb128 .LVU469
	.uleb128 .LVU484
	.uleb128 .LVU491
	.uleb128 .LVU496
.LLST400:
	.byte	0x6
	.quad	.LVL99
	.byte	0x4
	.uleb128 .LVL99-.LVL99
	.uleb128 .LVL107-.LVL99
	.uleb128 0x1
	.byte	0x65
	.byte	0x4
	.uleb128 .LVL107-.LVL99
	.uleb128 .LVL113-.LVL99
	.uleb128 0x1
	.byte	0x6b
	.byte	0x4
	.uleb128 .LVL114-.LVL99
	.uleb128 .LVL116-.LVL99
	.uleb128 0x1
	.byte	0x65
	.byte	0
.LVUS401:
	.uleb128 .LVU449
	.uleb128 .LVU454
	.uleb128 .LVU454
	.uleb128 .LVU493
	.uleb128 .LVU493
	.uleb128 .LVU496
.LLST401:
	.byte	0x6
	.quad	.LVL99
	.byte	0x4
	.uleb128 .LVL99-.LVL99
	.uleb128 .LVL100-.LVL99
	.uleb128 0x1
	.byte	0x51
	.byte	0x4
	.uleb128 .LVL100-.LVL99
	.uleb128 .LVL114-.LVL99
	.uleb128 0x3
	.byte	0x71
	.sleb128 -12
	.byte	0x9f
	.byte	0x4
	.uleb128 .LVL114-.LVL99
	.uleb128 .LVL116-.LVL99
	.uleb128 0x1
	.byte	0x51
	.byte	0
.LVUS403:
	.uleb128 .LVU441
	.uleb128 .LVU449
.LLST403:
	.byte	0x8
	.quad	.LVL98
	.uleb128 .LVL99-.LVL98
	.uleb128 0x2
	.byte	0x70
	.sleb128 24
	.byte	0
.LVUS405:
	.uleb128 .LVU450
	.uleb128 .LVU458
	.uleb128 .LVU458
	.uleb128 .LVU496
.LLST405:
	.byte	0x6
	.quad	.LVL99
	.byte	0x4
	.uleb128 .LVL99-.LVL99
	.uleb128 .LVL102-.LVL99
	.uleb128 0x9
	.byte	0x74
	.sleb128 0
	.byte	0x70
	.sleb128 40
	.byte	0x6
	.byte	0x1c
	.byte	0x23
	.uleb128 0x3
	.byte	0x9f
	.byte	0x4
	.uleb128 .LVL102-.LVL99
	.uleb128 .LVL116-.LVL99
	.uleb128 0x7
	.byte	0x74
	.sleb128 0
	.byte	0x70
	.sleb128 40
	.byte	0x6
	.byte	0x1c
	.byte	0x9f
	.byte	0
.LVUS406:
	.uleb128 .LVU455
	.uleb128 .LVU496
.LLST406:
	.byte	0x8
	.quad	.LVL101
	.uleb128 .LVL116-.LVL101
	.uleb128 0x1
	.byte	0x6a
	.byte	0
.LVUS407:
	.uleb128 .LVU459
	.uleb128 .LVU496
.LLST407:
	.byte	0x8
	.quad	.LVL103
	.uleb128 .LVL116-.LVL103
	.uleb128 0x1
	.byte	0x69
	.byte	0
.LVUS408:
	.uleb128 .LVU461
	.uleb128 .LVU496
.LLST408:
	.byte	0x8
	.quad	.LVL104
	.uleb128 .LVL116-.LVL104
	.uleb128 0x1
	.byte	0x68
	.byte	0
.LVUS409:
	.uleb128 .LVU463
	.uleb128 .LVU496
.LLST409:
	.byte	0x8
	.quad	.LVL105
	.uleb128 .LVL116-.LVL105
	.uleb128 0x1
	.byte	0x67
	.byte	0
.LVUS410:
	.uleb128 .LVU465
	.uleb128 .LVU496
.LLST410:
	.byte	0x8
	.quad	.LVL106
	.uleb128 .LVL116-.LVL106
	.uleb128 0x1
	.byte	0x66
	.byte	0
.LVUS411:
	.uleb128 .LVU469
	.uleb128 .LVU496
.LLST411:
	.byte	0x8
	.quad	.LVL107
	.uleb128 .LVL116-.LVL107
	.uleb128 0x1
	.byte	0x65
	.byte	0
.LVUS413:
	.uleb128 .LVU501
	.uleb128 .LVU510
	.uleb128 .LVU610
	.uleb128 .LVU612
	.uleb128 .LVU681
	.uleb128 .LVU682
	.uleb128 .LVU684
	.uleb128 .LVU685
	.uleb128 .LVU686
	.uleb128 .LVU687
	.uleb128 .LVU800
	.uleb128 .LVU802
	.uleb128 .LVU896
	.uleb128 .LVU909
.LLST413:
	.byte	0x6
	.quad	.LVL118
	.byte	0x4
	.uleb128 .LVL118-.LVL118
	.uleb128 .LVL120-.LVL118
	.uleb128 0x2
	.byte	0x30
	.byte	0x9f
	.byte	0x4
	.uleb128 .LVL141-.LVL118
	.uleb128 .LVL143-.LVL118
	.uleb128 0x1
	.byte	0x52
	.byte	0x4
	.uleb128 .LVL152-.LVL118
	.uleb128 .LVL153-.LVL118
	.uleb128 0x3
	.byte	0x7c
	.sleb128 1
	.byte	0x9f
	.byte	0x4
	.uleb128 .LVL154-.LVL118
	.uleb128 .LVL155-.LVL118
	.uleb128 0x1
	.byte	0x5c
	.byte	0x4
	.uleb128 .LVL155-.LVL118
	.uleb128 .LVL156-.LVL118
	.uleb128 0x1
	.byte	0x5d
	.byte	0x4
	.uleb128 .LVL171-.LVL118
	.uleb128 .LVL172-.LVL118
	.uleb128 0x2
	.byte	0x30
	.byte	0x9f
	.byte	0x4
	.uleb128 .LVL199-.LVL118
	.uleb128 .LVL202-.LVL118
	.uleb128 0x2
	.byte	0x30
	.byte	0x9f
	.byte	0
.LVUS415:
	.uleb128 .LVU503
	.uleb128 .LVU510
	.uleb128 .LVU512
	.uleb128 .LVU612
	.uleb128 .LVU682
	.uleb128 .LVU685
	.uleb128 .LVU913
	.uleb128 .LVU915
	.uleb128 .LVU977
	.uleb128 .LVU980
	.uleb128 .LVU984
	.uleb128 .LVU987
	.uleb128 .LVU997
	.uleb128 .LVU1000
	.uleb128 .LVU1032
	.uleb128 .LVU1035
	.uleb128 .LVU1039
	.uleb128 .LVU1042
	.uleb128 .LVU1065
	.uleb128 .LVU1068
.LLST415:
	.byte	0x6
	.quad	.LVL119
	.byte	0x4
	.uleb128 .LVL119-.LVL119
	.uleb128 .LVL120-.LVL119
	.uleb128 0x2
	.byte	0x30
	.byte	0x9f
	.byte	0x4
	.uleb128 .LVL121-.LVL119
	.uleb128 .LVL143-.LVL119
	.uleb128 0x1
	.byte	0x50
	.byte	0x4
	.uleb128 .LVL153-.LVL119
	.uleb128 .LVL155-.LVL119
	.uleb128 0x2
	.byte	0x30
	.byte	0x9f
	.byte	0x4
	.uleb128 .LVL207-.LVL119
	.uleb128 .LVL209-.LVL119
	.uleb128 0x1
	.byte	0x50
	.byte	0x6
	.quad	.LVL223
	.byte	0x4
	.uleb128 .LVL223-.LVL223
	.uleb128 .LVL224-1-.LVL223
	.uleb128 0x1
	.byte	0x50
	.byte	0x4
	.uleb128 .LVL227-.LVL223
	.uleb128 .LVL228-1-.LVL223
	.uleb128 0x1
	.byte	0x50
	.byte	0x4
	.uleb128 .LVL238-.LVL223
	.uleb128 .LVL239-1-.LVL223
	.uleb128 0x1
	.byte	0x50
	.byte	0x4
	.uleb128 .LVL252-.LVL223
	.uleb128 .LVL253-1-.LVL223
	.uleb128 0x1
	.byte	0x50
	.byte	0x4
	.uleb128 .LVL257-.LVL223
	.uleb128 .LVL258-1-.LVL223
	.uleb128 0x1
	.byte	0x50
	.byte	0x4
	.uleb128 .LVL266-.LVL223
	.uleb128 .LVL267-1-.LVL223
	.uleb128 0x1
	.byte	0x50
	.byte	0
.LVUS417:
	.uleb128 .LVU514
	.uleb128 .LVU521
	.uleb128 .LVU521
	.uleb128 .LVU608
	.uleb128 .LVU608
	.uleb128 .LVU611
	.uleb128 .LVU913
	.uleb128 .LVU915
	.uleb128 .LVU977
	.uleb128 .LVU980
	.uleb128 .LVU984
	.uleb128 .LVU987
	.uleb128 .LVU997
	.uleb128 .LVU1000
	.uleb128 .LVU1032
	.uleb128 .LVU1035
	.uleb128 .LVU1039
	.uleb128 .LVU1042
	.uleb128 .LVU1065
	.uleb128 .LVU1068
.LLST417:
	.byte	0x6
	.quad	.LVL122
	.byte	0x4
	.uleb128 .LVL122-.LVL122
	.uleb128 .LVL124-.LVL122
	.uleb128 0x1
	.byte	0x5b
	.byte	0x4
	.uleb128 .LVL124-.LVL122
	.uleb128 .LVL140-.LVL122
	.uleb128 0x7
	.byte	0x70
	.sleb128 0
	.byte	0x32
	.byte	0x24
	.byte	0x74
	.sleb128 0
	.byte	0x22
	.byte	0x4
	.uleb128 .LVL140-.LVL122
	.uleb128 .LVL142-.LVL122
	.uleb128 0x7
	.byte	0x70
	.sleb128 -1
	.byte	0x32
	.byte	0x24
	.byte	0x74
	.sleb128 0
	.byte	0x22
	.byte	0x4
	.uleb128 .LVL207-.LVL122
	.uleb128 .LVL209-.LVL122
	.uleb128 0x7
	.byte	0x70
	.sleb128 0
	.byte	0x32
	.byte	0x24
	.byte	0x74
	.sleb128 0
	.byte	0x22
	.byte	0x6
	.quad	.LVL223
	.byte	0x4
	.uleb128 .LVL223-.LVL223
	.uleb128 .LVL224-1-.LVL223
	.uleb128 0x7
	.byte	0x70
	.sleb128 0
	.byte	0x32
	.byte	0x24
	.byte	0x74
	.sleb128 0
	.byte	0x22
	.byte	0x4
	.uleb128 .LVL227-.LVL223
	.uleb128 .LVL228-1-.LVL223
	.uleb128 0x7
	.byte	0x70
	.sleb128 0
	.byte	0x32
	.byte	0x24
	.byte	0x74
	.sleb128 0
	.byte	0x22
	.byte	0x4
	.uleb128 .LVL238-.LVL223
	.uleb128 .LVL239-1-.LVL223
	.uleb128 0x7
	.byte	0x70
	.sleb128 0
	.byte	0x32
	.byte	0x24
	.byte	0x74
	.sleb128 0
	.byte	0x22
	.byte	0x4
	.uleb128 .LVL252-.LVL223
	.uleb128 .LVL253-1-.LVL223
	.uleb128 0x7
	.byte	0x70
	.sleb128 0
	.byte	0x32
	.byte	0x24
	.byte	0x74
	.sleb128 0
	.byte	0x22
	.byte	0x4
	.uleb128 .LVL257-.LVL223
	.uleb128 .LVL258-1-.LVL223
	.uleb128 0x7
	.byte	0x70
	.sleb128 0
	.byte	0x32
	.byte	0x24
	.byte	0x74
	.sleb128 0
	.byte	0x22
	.byte	0x4
	.uleb128 .LVL266-.LVL223
	.uleb128 .LVL267-1-.LVL223
	.uleb128 0x7
	.byte	0x70
	.sleb128 0
	.byte	0x32
	.byte	0x24
	.byte	0x74
	.sleb128 0
	.byte	0x22
	.byte	0
.LVUS419:
	.uleb128 .LVU517
	.uleb128 .LVU523
	.uleb128 .LVU523
	.uleb128 .LVU524
	.uleb128 .LVU524
	.uleb128 .LVU525
.LLST419:
	.byte	0x6
	.quad	.LVL123
	.byte	0x4
	.uleb128 .LVL123-.LVL123
	.uleb128 .LVL125-.LVL123
	.uleb128 0xa
	.byte	0x71
	.sleb128 0
	.byte	0xa6
	.byte	0x4
	.uleb128 0x30
	.byte	0xa5
	.uleb128 0x13
	.uleb128 0x30
	.byte	0x1b
	.byte	0x9f
	.byte	0x4
	.uleb128 .LVL125-.LVL123
	.uleb128 .LVL126-.LVL123
	.uleb128 0x1
	.byte	0x62
	.byte	0x4
	.uleb128 .LVL126-.LVL123
	.uleb128 .LVL127-.LVL123
	.uleb128 0xa
	.byte	0x71
	.sleb128 0
	.byte	0xa6
	.byte	0x4
	.uleb128 0x30
	.byte	0xa5
	.uleb128 0x13
	.uleb128 0x30
	.byte	0x1b
	.byte	0x9f
	.byte	0
.LVUS424:
	.uleb128 .LVU533
	.uleb128 .LVU543
	.uleb128 .LVU984
	.uleb128 .LVU991
	.uleb128 .LVU1032
	.uleb128 .LVU1039
.LLST424:
	.byte	0x8
	.quad	.LVL128
	.uleb128 .LVL129-.LVL128
	.uleb128 0x1
	.byte	0x53
	.byte	0x6
	.quad	.LVL227
	.byte	0x4
	.uleb128 .LVL227-.LVL227
	.uleb128 .LVL231-.LVL227
	.uleb128 0x1
	.byte	0x53
	.byte	0x4
	.uleb128 .LVL252-.LVL227
	.uleb128 .LVL257-.LVL227
	.uleb128 0x1
	.byte	0x53
	.byte	0
.LVUS425:
	.uleb128 .LVU533
	.uleb128 .LVU543
	.uleb128 .LVU984
	.uleb128 .LVU987
	.uleb128 .LVU1032
	.uleb128 .LVU1035
.LLST425:
	.byte	0x8
	.quad	.LVL128
	.uleb128 .LVL129-.LVL128
	.uleb128 0x1
	.byte	0x50
	.byte	0x6
	.quad	.LVL227
	.byte	0x4
	.uleb128 .LVL227-.LVL227
	.uleb128 .LVL228-1-.LVL227
	.uleb128 0x1
	.byte	0x50
	.byte	0x4
	.uleb128 .LVL252-.LVL227
	.uleb128 .LVL253-1-.LVL227
	.uleb128 0x1
	.byte	0x50
	.byte	0
.LVUS426:
	.uleb128 .LVU533
	.uleb128 .LVU543
	.uleb128 .LVU984
	.uleb128 .LVU991
	.uleb128 .LVU1032
	.uleb128 .LVU1039
.LLST426:
	.byte	0x8
	.quad	.LVL128
	.uleb128 .LVL129-.LVL128
	.uleb128 0x2
	.byte	0x30
	.byte	0x9f
	.byte	0x6
	.quad	.LVL227
	.byte	0x4
	.uleb128 .LVL227-.LVL227
	.uleb128 .LVL231-.LVL227
	.uleb128 0x2
	.byte	0x30
	.byte	0x9f
	.byte	0x4
	.uleb128 .LVL252-.LVL227
	.uleb128 .LVL257-.LVL227
	.uleb128 0x2
	.byte	0x30
	.byte	0x9f
	.byte	0
.LVUS428:
	.uleb128 .LVU536
	.uleb128 .LVU540
	.uleb128 .LVU984
	.uleb128 .LVU991
	.uleb128 .LVU1032
	.uleb128 .LVU1039
.LLST428:
	.byte	0x8
	.quad	.LVL128
	.uleb128 .LVL129-.LVL128
	.uleb128 0x1
	.byte	0x53
	.byte	0x6
	.quad	.LVL227
	.byte	0x4
	.uleb128 .LVL227-.LVL227
	.uleb128 .LVL231-.LVL227
	.uleb128 0x1
	.byte	0x53
	.byte	0x4
	.uleb128 .LVL252-.LVL227
	.uleb128 .LVL257-.LVL227
	.uleb128 0x1
	.byte	0x53
	.byte	0
.LVUS429:
	.uleb128 .LVU536
	.uleb128 .LVU540
	.uleb128 .LVU984
	.uleb128 .LVU991
	.uleb128 .LVU1032
	.uleb128 .LVU1039
.LLST429:
	.byte	0x8
	.quad	.LVL128
	.uleb128 .LVL129-.LVL128
	.uleb128 0x2
	.byte	0x30
	.byte	0x9f
	.byte	0x6
	.quad	.LVL227
	.byte	0x4
	.uleb128 .LVL227-.LVL227
	.uleb128 .LVL231-.LVL227
	.uleb128 0x2
	.byte	0x30
	.byte	0x9f
	.byte	0x4
	.uleb128 .LVL252-.LVL227
	.uleb128 .LVL257-.LVL227
	.uleb128 0x2
	.byte	0x30
	.byte	0x9f
	.byte	0
.LVUS430:
	.uleb128 .LVU535
	.uleb128 .LVU540
	.uleb128 .LVU984
	.uleb128 .LVU987
	.uleb128 .LVU1032
	.uleb128 .LVU1035
.LLST430:
	.byte	0x8
	.quad	.LVL128
	.uleb128 .LVL129-.LVL128
	.uleb128 0x1
	.byte	0x50
	.byte	0x6
	.quad	.LVL227
	.byte	0x4
	.uleb128 .LVL227-.LVL227
	.uleb128 .LVL228-1-.LVL227
	.uleb128 0x1
	.byte	0x50
	.byte	0x4
	.uleb128 .LVL252-.LVL227
	.uleb128 .LVL253-1-.LVL227
	.uleb128 0x1
	.byte	0x50
	.byte	0
.LVUS431:
	.uleb128 .LVU540
	.uleb128 .LVU543
.LLST431:
	.byte	0x8
	.quad	.LVL129
	.uleb128 .LVL129-.LVL129
	.uleb128 0x3
	.byte	0x73
	.sleb128 16
	.byte	0x9f
	.byte	0
.LVUS432:
	.uleb128 .LVU540
	.uleb128 .LVU543
.LLST432:
	.byte	0x8
	.quad	.LVL129
	.uleb128 .LVL129-.LVL129
	.uleb128 0xb
	.byte	0x7b
	.sleb128 0
	.byte	0x72
	.sleb128 0
	.byte	0x1e
	.byte	0x70
	.sleb128 0
	.byte	0x22
	.byte	0x33
	.byte	0x1e
	.byte	0x9f
	.byte	0
.LVUS434:
	.uleb128 .LVU551
	.uleb128 .LVU554
	.uleb128 .LVU554
	.uleb128 .LVU555
.LLST434:
	.byte	0x6
	.quad	.LVL130
	.byte	0x4
	.uleb128 .LVL130-.LVL130
	.uleb128 .LVL131-.LVL130
	.uleb128 0x1
	.byte	0x62
	.byte	0x4
	.uleb128 .LVL131-.LVL130
	.uleb128 .LVL132-.LVL130
	.uleb128 0xa
	.byte	0x71
	.sleb128 4
	.byte	0xa6
	.byte	0x4
	.uleb128 0x30
	.byte	0xa5
	.uleb128 0x13
	.uleb128 0x30
	.byte	0x1b
	.byte	0x9f
	.byte	0
.LVUS438:
	.uleb128 .LVU563
	.uleb128 .LVU573
	.uleb128 .LVU914
	.uleb128 .LVU915
	.uleb128 .LVU977
	.uleb128 .LVU984
	.uleb128 .LVU1039
	.uleb128 .LVU1046
	.uleb128 .LVU1064
	.uleb128 .LVU1065
.LLST438:
	.byte	0x6
	.quad	.LVL133
	.byte	0x4
	.uleb128 .LVL133-.LVL133
	.uleb128 .LVL134-.LVL133
	.uleb128 0x1
	.byte	0x53
	.byte	0x4
	.uleb128 .LVL208-.LVL133
	.uleb128 .LVL209-.LVL133
	.uleb128 0x1
	.byte	0x53
	.byte	0x6
	.quad	.LVL223
	.byte	0x4
	.uleb128 .LVL223-.LVL223
	.uleb128 .LVL227-.LVL223
	.uleb128 0x1
	.byte	0x53
	.byte	0x4
	.uleb128 .LVL257-.LVL223
	.uleb128 .LVL261-.LVL223
	.uleb128 0x1
	.byte	0x53
	.byte	0x4
	.uleb128 .LVL265-.LVL223
	.uleb128 .LVL266-.LVL223
	.uleb128 0x1
	.byte	0x53
	.byte	0
.LVUS439:
	.uleb128 .LVU563
	.uleb128 .LVU573
	.uleb128 .LVU914
	.uleb128 .LVU915
	.uleb128 .LVU977
	.uleb128 .LVU980
	.uleb128 .LVU1039
	.uleb128 .LVU1042
.LLST439:
	.byte	0x6
	.quad	.LVL133
	.byte	0x4
	.uleb128 .LVL133-.LVL133
	.uleb128 .LVL134-.LVL133
	.uleb128 0x1
	.byte	0x50
	.byte	0x4
	.uleb128 .LVL208-.LVL133
	.uleb128 .LVL209-.LVL133
	.uleb128 0x1
	.byte	0x50
	.byte	0x6
	.quad	.LVL223
	.byte	0x4
	.uleb128 .LVL223-.LVL223
	.uleb128 .LVL224-1-.LVL223
	.uleb128 0x1
	.byte	0x50
	.byte	0x4
	.uleb128 .LVL257-.LVL223
	.uleb128 .LVL258-1-.LVL223
	.uleb128 0x1
	.byte	0x50
	.byte	0
.LVUS440:
	.uleb128 .LVU563
	.uleb128 .LVU573
	.uleb128 .LVU914
	.uleb128 .LVU915
	.uleb128 .LVU977
	.uleb128 .LVU980
	.uleb128 .LVU1039
	.uleb128 .LVU1042
.LLST440:
	.byte	0x6
	.quad	.LVL133
	.byte	0x4
	.uleb128 .LVL133-.LVL133
	.uleb128 .LVL134-.LVL133
	.uleb128 0x1
	.byte	0x52
	.byte	0x4
	.uleb128 .LVL208-.LVL133
	.uleb128 .LVL209-.LVL133
	.uleb128 0x1
	.byte	0x52
	.byte	0x6
	.quad	.LVL223
	.byte	0x4
	.uleb128 .LVL223-.LVL223
	.uleb128 .LVL224-1-.LVL223
	.uleb128 0x1
	.byte	0x52
	.byte	0x4
	.uleb128 .LVL257-.LVL223
	.uleb128 .LVL258-1-.LVL223
	.uleb128 0x1
	.byte	0x52
	.byte	0
.LVUS441:
	.uleb128 .LVU563
	.uleb128 .LVU573
	.uleb128 .LVU914
	.uleb128 .LVU915
	.uleb128 .LVU977
	.uleb128 .LVU984
	.uleb128 .LVU1039
	.uleb128 .LVU1046
	.uleb128 .LVU1064
	.uleb128 .LVU1065
.LLST441:
	.byte	0x6
	.quad	.LVL133
	.byte	0x4
	.uleb128 .LVL133-.LVL133
	.uleb128 .LVL134-.LVL133
	.uleb128 0x2
	.byte	0x31
	.byte	0x9f
	.byte	0x4
	.uleb128 .LVL208-.LVL133
	.uleb128 .LVL209-.LVL133
	.uleb128 0x2
	.byte	0x31
	.byte	0x9f
	.byte	0x6
	.quad	.LVL223
	.byte	0x4
	.uleb128 .LVL223-.LVL223
	.uleb128 .LVL227-.LVL223
	.uleb128 0x2
	.byte	0x31
	.byte	0x9f
	.byte	0x4
	.uleb128 .LVL257-.LVL223
	.uleb128 .LVL261-.LVL223
	.uleb128 0x2
	.byte	0x31
	.byte	0x9f
	.byte	0x4
	.uleb128 .LVL265-.LVL223
	.uleb128 .LVL266-.LVL223
	.uleb128 0x2
	.byte	0x31
	.byte	0x9f
	.byte	0
.LVUS443:
	.uleb128 .LVU566
	.uleb128 .LVU570
	.uleb128 .LVU914
	.uleb128 .LVU915
	.uleb128 .LVU977
	.uleb128 .LVU984
	.uleb128 .LVU1039
	.uleb128 .LVU1046
	.uleb128 .LVU1064
	.uleb128 .LVU1065
.LLST443:
	.byte	0x6
	.quad	.LVL133
	.byte	0x4
	.uleb128 .LVL133-.LVL133
	.uleb128 .LVL134-.LVL133
	.uleb128 0x1
	.byte	0x53
	.byte	0x4
	.uleb128 .LVL208-.LVL133
	.uleb128 .LVL209-.LVL133
	.uleb128 0x1
	.byte	0x53
	.byte	0x6
	.quad	.LVL223
	.byte	0x4
	.uleb128 .LVL223-.LVL223
	.uleb128 .LVL227-.LVL223
	.uleb128 0x1
	.byte	0x53
	.byte	0x4
	.uleb128 .LVL257-.LVL223
	.uleb128 .LVL261-.LVL223
	.uleb128 0x1
	.byte	0x53
	.byte	0x4
	.uleb128 .LVL265-.LVL223
	.uleb128 .LVL266-.LVL223
	.uleb128 0x1
	.byte	0x53
	.byte	0
.LVUS444:
	.uleb128 .LVU566
	.uleb128 .LVU570
	.uleb128 .LVU914
	.uleb128 .LVU915
	.uleb128 .LVU977
	.uleb128 .LVU984
	.uleb128 .LVU1039
	.uleb128 .LVU1046
	.uleb128 .LVU1064
	.uleb128 .LVU1065
.LLST444:
	.byte	0x6
	.quad	.LVL133
	.byte	0x4
	.uleb128 .LVL133-.LVL133
	.uleb128 .LVL134-.LVL133
	.uleb128 0x2
	.byte	0x31
	.byte	0x9f
	.byte	0x4
	.uleb128 .LVL208-.LVL133
	.uleb128 .LVL209-.LVL133
	.uleb128 0x2
	.byte	0x31
	.byte	0x9f
	.byte	0x6
	.quad	.LVL223
	.byte	0x4
	.uleb128 .LVL223-.LVL223
	.uleb128 .LVL227-.LVL223
	.uleb128 0x2
	.byte	0x31
	.byte	0x9f
	.byte	0x4
	.uleb128 .LVL257-.LVL223
	.uleb128 .LVL261-.LVL223
	.uleb128 0x2
	.byte	0x31
	.byte	0x9f
	.byte	0x4
	.uleb128 .LVL265-.LVL223
	.uleb128 .LVL266-.LVL223
	.uleb128 0x2
	.byte	0x31
	.byte	0x9f
	.byte	0
.LVUS445:
	.uleb128 .LVU565
	.uleb128 .LVU570
	.uleb128 .LVU914
	.uleb128 .LVU915
	.uleb128 .LVU977
	.uleb128 .LVU980
	.uleb128 .LVU1039
	.uleb128 .LVU1042
.LLST445:
	.byte	0x6
	.quad	.LVL133
	.byte	0x4
	.uleb128 .LVL133-.LVL133
	.uleb128 .LVL134-.LVL133
	.uleb128 0x1
	.byte	0x50
	.byte	0x4
	.uleb128 .LVL208-.LVL133
	.uleb128 .LVL209-.LVL133
	.uleb128 0x1
	.byte	0x50
	.byte	0x6
	.quad	.LVL223
	.byte	0x4
	.uleb128 .LVL223-.LVL223
	.uleb128 .LVL224-1-.LVL223
	.uleb128 0x1
	.byte	0x50
	.byte	0x4
	.uleb128 .LVL257-.LVL223
	.uleb128 .LVL258-1-.LVL223
	.uleb128 0x1
	.byte	0x50
	.byte	0
.LVUS446:
	.uleb128 .LVU565
	.uleb128 .LVU570
	.uleb128 .LVU914
	.uleb128 .LVU915
	.uleb128 .LVU977
	.uleb128 .LVU980
	.uleb128 .LVU1039
	.uleb128 .LVU1042
.LLST446:
	.byte	0x6
	.quad	.LVL133
	.byte	0x4
	.uleb128 .LVL133-.LVL133
	.uleb128 .LVL134-.LVL133
	.uleb128 0x1
	.byte	0x52
	.byte	0x4
	.uleb128 .LVL208-.LVL133
	.uleb128 .LVL209-.LVL133
	.uleb128 0x1
	.byte	0x52
	.byte	0x6
	.quad	.LVL223
	.byte	0x4
	.uleb128 .LVL223-.LVL223
	.uleb128 .LVL224-1-.LVL223
	.uleb128 0x1
	.byte	0x52
	.byte	0x4
	.uleb128 .LVL257-.LVL223
	.uleb128 .LVL258-1-.LVL223
	.uleb128 0x1
	.byte	0x52
	.byte	0
.LVUS447:
	.uleb128 .LVU570
	.uleb128 .LVU573
.LLST447:
	.byte	0x8
	.quad	.LVL134
	.uleb128 .LVL134-.LVL134
	.uleb128 0x3
	.byte	0x73
	.sleb128 16
	.byte	0x9f
	.byte	0
.LVUS448:
	.uleb128 .LVU570
	.uleb128 .LVU573
.LLST448:
	.byte	0x8
	.quad	.LVL134
	.uleb128 .LVL134-.LVL134
	.uleb128 0xd
	.byte	0x7b
	.sleb128 0
	.byte	0x72
	.sleb128 0
	.byte	0x1e
	.byte	0x70
	.sleb128 0
	.byte	0x22
	.byte	0x33
	.byte	0x1e
	.byte	0x23
	.uleb128 0x1
	.byte	0x9f
	.byte	0
.LVUS450:
	.uleb128 .LVU581
	.uleb128 .LVU584
	.uleb128 .LVU584
	.uleb128 .LVU585
.LLST450:
	.byte	0x6
	.quad	.LVL135
	.byte	0x4
	.uleb128 .LVL135-.LVL135
	.uleb128 .LVL136-.LVL135
	.uleb128 0x1
	.byte	0x62
	.byte	0x4
	.uleb128 .LVL136-.LVL135
	.uleb128 .LVL137-.LVL135
	.uleb128 0xa
	.byte	0x71
	.sleb128 8
	.byte	0xa6
	.byte	0x4
	.uleb128 0x30
	.byte	0xa5
	.uleb128 0x13
	.uleb128 0x30
	.byte	0x1b
	.byte	0x9f
	.byte	0
.LVUS454:
	.uleb128 .LVU593
	.uleb128 .LVU603
	.uleb128 .LVU913
	.uleb128 .LVU914
	.uleb128 .LVU997
	.uleb128 .LVU1004
	.uleb128 .LVU1006
	.uleb128 .LVU1007
	.uleb128 .LVU1065
	.uleb128 .LVU1072
.LLST454:
	.byte	0x6
	.quad	.LVL138
	.byte	0x4
	.uleb128 .LVL138-.LVL138
	.uleb128 .LVL139-.LVL138
	.uleb128 0x1
	.byte	0x53
	.byte	0x4
	.uleb128 .LVL207-.LVL138
	.uleb128 .LVL208-.LVL138
	.uleb128 0x1
	.byte	0x53
	.byte	0x6
	.quad	.LVL238
	.byte	0x4
	.uleb128 .LVL238-.LVL238
	.uleb128 .LVL242-.LVL238
	.uleb128 0x1
	.byte	0x53
	.byte	0x4
	.uleb128 .LVL243-.LVL238
	.uleb128 .LVL244-.LVL238
	.uleb128 0x1
	.byte	0x53
	.byte	0x4
	.uleb128 .LVL266-.LVL238
	.uleb128 .LVL271-.LVL238
	.uleb128 0x1
	.byte	0x53
	.byte	0
.LVUS455:
	.uleb128 .LVU593
	.uleb128 .LVU603
	.uleb128 .LVU913
	.uleb128 .LVU914
	.uleb128 .LVU997
	.uleb128 .LVU1000
	.uleb128 .LVU1065
	.uleb128 .LVU1068
.LLST455:
	.byte	0x6
	.quad	.LVL138
	.byte	0x4
	.uleb128 .LVL138-.LVL138
	.uleb128 .LVL139-.LVL138
	.uleb128 0x1
	.byte	0x50
	.byte	0x4
	.uleb128 .LVL207-.LVL138
	.uleb128 .LVL208-.LVL138
	.uleb128 0x1
	.byte	0x50
	.byte	0x6
	.quad	.LVL238
	.byte	0x4
	.uleb128 .LVL238-.LVL238
	.uleb128 .LVL239-1-.LVL238
	.uleb128 0x1
	.byte	0x50
	.byte	0x4
	.uleb128 .LVL266-.LVL238
	.uleb128 .LVL267-1-.LVL238
	.uleb128 0x1
	.byte	0x50
	.byte	0
.LVUS456:
	.uleb128 .LVU593
	.uleb128 .LVU603
	.uleb128 .LVU913
	.uleb128 .LVU914
	.uleb128 .LVU997
	.uleb128 .LVU1000
	.uleb128 .LVU1065
	.uleb128 .LVU1068
.LLST456:
	.byte	0x6
	.quad	.LVL138
	.byte	0x4
	.uleb128 .LVL138-.LVL138
	.uleb128 .LVL139-.LVL138
	.uleb128 0x1
	.byte	0x52
	.byte	0x4
	.uleb128 .LVL207-.LVL138
	.uleb128 .LVL208-.LVL138
	.uleb128 0x1
	.byte	0x52
	.byte	0x6
	.quad	.LVL238
	.byte	0x4
	.uleb128 .LVL238-.LVL238
	.uleb128 .LVL239-1-.LVL238
	.uleb128 0x1
	.byte	0x52
	.byte	0x4
	.uleb128 .LVL266-.LVL238
	.uleb128 .LVL267-1-.LVL238
	.uleb128 0x1
	.byte	0x52
	.byte	0
.LVUS457:
	.uleb128 .LVU593
	.uleb128 .LVU603
	.uleb128 .LVU913
	.uleb128 .LVU914
	.uleb128 .LVU997
	.uleb128 .LVU1004
	.uleb128 .LVU1006
	.uleb128 .LVU1007
	.uleb128 .LVU1065
	.uleb128 .LVU1072
.LLST457:
	.byte	0x6
	.quad	.LVL138
	.byte	0x4
	.uleb128 .LVL138-.LVL138
	.uleb128 .LVL139-.LVL138
	.uleb128 0x2
	.byte	0x32
	.byte	0x9f
	.byte	0x4
	.uleb128 .LVL207-.LVL138
	.uleb128 .LVL208-.LVL138
	.uleb128 0x2
	.byte	0x32
	.byte	0x9f
	.byte	0x6
	.quad	.LVL238
	.byte	0x4
	.uleb128 .LVL238-.LVL238
	.uleb128 .LVL242-.LVL238
	.uleb128 0x2
	.byte	0x32
	.byte	0x9f
	.byte	0x4
	.uleb128 .LVL243-.LVL238
	.uleb128 .LVL244-.LVL238
	.uleb128 0x2
	.byte	0x32
	.byte	0x9f
	.byte	0x4
	.uleb128 .LVL266-.LVL238
	.uleb128 .LVL271-.LVL238
	.uleb128 0x2
	.byte	0x32
	.byte	0x9f
	.byte	0
.LVUS459:
	.uleb128 .LVU596
	.uleb128 .LVU600
	.uleb128 .LVU913
	.uleb128 .LVU914
	.uleb128 .LVU997
	.uleb128 .LVU1004
	.uleb128 .LVU1006
	.uleb128 .LVU1007
	.uleb128 .LVU1065
	.uleb128 .LVU1072
.LLST459:
	.byte	0x6
	.quad	.LVL138
	.byte	0x4
	.uleb128 .LVL138-.LVL138
	.uleb128 .LVL139-.LVL138
	.uleb128 0x1
	.byte	0x53
	.byte	0x4
	.uleb128 .LVL207-.LVL138
	.uleb128 .LVL208-.LVL138
	.uleb128 0x1
	.byte	0x53
	.byte	0x6
	.quad	.LVL238
	.byte	0x4
	.uleb128 .LVL238-.LVL238
	.uleb128 .LVL242-.LVL238
	.uleb128 0x1
	.byte	0x53
	.byte	0x4
	.uleb128 .LVL243-.LVL238
	.uleb128 .LVL244-.LVL238
	.uleb128 0x1
	.byte	0x53
	.byte	0x4
	.uleb128 .LVL266-.LVL238
	.uleb128 .LVL271-.LVL238
	.uleb128 0x1
	.byte	0x53
	.byte	0
.LVUS460:
	.uleb128 .LVU596
	.uleb128 .LVU600
	.uleb128 .LVU913
	.uleb128 .LVU914
	.uleb128 .LVU997
	.uleb128 .LVU1004
	.uleb128 .LVU1006
	.uleb128 .LVU1007
	.uleb128 .LVU1065
	.uleb128 .LVU1072
.LLST460:
	.byte	0x6
	.quad	.LVL138
	.byte	0x4
	.uleb128 .LVL138-.LVL138
	.uleb128 .LVL139-.LVL138
	.uleb128 0x2
	.byte	0x32
	.byte	0x9f
	.byte	0x4
	.uleb128 .LVL207-.LVL138
	.uleb128 .LVL208-.LVL138
	.uleb128 0x2
	.byte	0x32
	.byte	0x9f
	.byte	0x6
	.quad	.LVL238
	.byte	0x4
	.uleb128 .LVL238-.LVL238
	.uleb128 .LVL242-.LVL238
	.uleb128 0x2
	.byte	0x32
	.byte	0x9f
	.byte	0x4
	.uleb128 .LVL243-.LVL238
	.uleb128 .LVL244-.LVL238
	.uleb128 0x2
	.byte	0x32
	.byte	0x9f
	.byte	0x4
	.uleb128 .LVL266-.LVL238
	.uleb128 .LVL271-.LVL238
	.uleb128 0x2
	.byte	0x32
	.byte	0x9f
	.byte	0
.LVUS461:
	.uleb128 .LVU595
	.uleb128 .LVU600
	.uleb128 .LVU913
	.uleb128 .LVU914
	.uleb128 .LVU997
	.uleb128 .LVU1000
	.uleb128 .LVU1065
	.uleb128 .LVU1068
.LLST461:
	.byte	0x6
	.quad	.LVL138
	.byte	0x4
	.uleb128 .LVL138-.LVL138
	.uleb128 .LVL139-.LVL138
	.uleb128 0x1
	.byte	0x50
	.byte	0x4
	.uleb128 .LVL207-.LVL138
	.uleb128 .LVL208-.LVL138
	.uleb128 0x1
	.byte	0x50
	.byte	0x6
	.quad	.LVL238
	.byte	0x4
	.uleb128 .LVL238-.LVL238
	.uleb128 .LVL239-1-.LVL238
	.uleb128 0x1
	.byte	0x50
	.byte	0x4
	.uleb128 .LVL266-.LVL238
	.uleb128 .LVL267-1-.LVL238
	.uleb128 0x1
	.byte	0x50
	.byte	0
.LVUS462:
	.uleb128 .LVU595
	.uleb128 .LVU600
	.uleb128 .LVU913
	.uleb128 .LVU914
	.uleb128 .LVU997
	.uleb128 .LVU1000
	.uleb128 .LVU1065
	.uleb128 .LVU1068
.LLST462:
	.byte	0x6
	.quad	.LVL138
	.byte	0x4
	.uleb128 .LVL138-.LVL138
	.uleb128 .LVL139-.LVL138
	.uleb128 0x1
	.byte	0x52
	.byte	0x4
	.uleb128 .LVL207-.LVL138
	.uleb128 .LVL208-.LVL138
	.uleb128 0x1
	.byte	0x52
	.byte	0x6
	.quad	.LVL238
	.byte	0x4
	.uleb128 .LVL238-.LVL238
	.uleb128 .LVL239-1-.LVL238
	.uleb128 0x1
	.byte	0x52
	.byte	0x4
	.uleb128 .LVL266-.LVL238
	.uleb128 .LVL267-1-.LVL238
	.uleb128 0x1
	.byte	0x52
	.byte	0
.LVUS463:
	.uleb128 .LVU600
	.uleb128 .LVU603
.LLST463:
	.byte	0x8
	.quad	.LVL139
	.uleb128 .LVL139-.LVL139
	.uleb128 0x3
	.byte	0x73
	.sleb128 16
	.byte	0x9f
	.byte	0
.LVUS464:
	.uleb128 .LVU600
	.uleb128 .LVU603
.LLST464:
	.byte	0x8
	.quad	.LVL139
	.uleb128 .LVL139-.LVL139
	.uleb128 0xd
	.byte	0x7b
	.sleb128 0
	.byte	0x72
	.sleb128 0
	.byte	0x1e
	.byte	0x70
	.sleb128 0
	.byte	0x22
	.byte	0x33
	.byte	0x1e
	.byte	0x23
	.uleb128 0x2
	.byte	0x9f
	.byte	0
.LVUS8:
	.uleb128 .LVU3
	.uleb128 .LVU9
.LLST8:
	.byte	0x8
	.quad	.LVL1
	.uleb128 .LVL2-.LVL1
	.uleb128 0x1
	.byte	0x54
	.byte	0
.LVUS9:
	.uleb128 .LVU5
	.uleb128 .LVU9
.LLST9:
	.byte	0x8
	.quad	.LVL1
	.uleb128 .LVL2-.LVL1
	.uleb128 0x1
	.byte	0x54
	.byte	0
.LVUS10:
	.uleb128 .LVU6
	.uleb128 .LVU9
.LLST10:
	.byte	0x8
	.quad	.LVL1
	.uleb128 .LVL2-.LVL1
	.uleb128 0x1
	.byte	0x54
	.byte	0
.LVUS11:
	.uleb128 .LVU13
	.uleb128 .LVU17
.LLST11:
	.byte	0x8
	.quad	.LVL3
	.uleb128 .LVL3-.LVL3
	.uleb128 0x1
	.byte	0x54
	.byte	0
.LVUS12:
	.uleb128 .LVU15
	.uleb128 .LVU17
.LLST12:
	.byte	0x8
	.quad	.LVL3
	.uleb128 .LVL3-.LVL3
	.uleb128 0x1
	.byte	0x54
	.byte	0
.LVUS13:
	.uleb128 .LVU16
	.uleb128 .LVU17
.LLST13:
	.byte	0x8
	.quad	.LVL3
	.uleb128 .LVL3-.LVL3
	.uleb128 0x1
	.byte	0x54
	.byte	0
.LVUS15:
	.uleb128 .LVU25
	.uleb128 .LVU35
.LLST15:
	.byte	0x8
	.quad	.LVL4
	.uleb128 .LVL5-.LVL4
	.uleb128 0x1
	.byte	0x55
	.byte	0
.LVUS16:
	.uleb128 .LVU26
	.uleb128 .LVU35
.LLST16:
	.byte	0x8
	.quad	.LVL4
	.uleb128 .LVL5-.LVL4
	.uleb128 0x3
	.byte	0x75
	.sleb128 16
	.byte	0x9f
	.byte	0
.LVUS17:
	.uleb128 .LVU27
	.uleb128 .LVU35
.LLST17:
	.byte	0x8
	.quad	.LVL4
	.uleb128 .LVL5-.LVL4
	.uleb128 0x3
	.byte	0x75
	.sleb128 16
	.byte	0x9f
	.byte	0
.LVUS18:
	.uleb128 .LVU28
	.uleb128 .LVU35
.LLST18:
	.byte	0x8
	.quad	.LVL4
	.uleb128 .LVL5-.LVL4
	.uleb128 0x3
	.byte	0x75
	.sleb128 16
	.byte	0x9f
	.byte	0
.LVUS20:
	.uleb128 .LVU31
	.uleb128 .LVU35
.LLST20:
	.byte	0x8
	.quad	.LVL4
	.uleb128 .LVL5-.LVL4
	.uleb128 0x3
	.byte	0x75
	.sleb128 16
	.byte	0x9f
	.byte	0
.LVUS21:
	.uleb128 .LVU29
	.uleb128 .LVU31
.LLST21:
	.byte	0x8
	.quad	.LVL4
	.uleb128 .LVL4-.LVL4
	.uleb128 0x3
	.byte	0x75
	.sleb128 16
	.byte	0x9f
	.byte	0
.LVUS22:
	.uleb128 .LVU30
	.uleb128 .LVU31
.LLST22:
	.byte	0x8
	.quad	.LVL4
	.uleb128 .LVL4-.LVL4
	.uleb128 0x3
	.byte	0x75
	.sleb128 16
	.byte	0x9f
	.byte	0
.LVUS24:
	.uleb128 .LVU44
	.uleb128 .LVU47
	.uleb128 .LVU705
	.uleb128 .LVU761
	.uleb128 .LVU1004
	.uleb128 .LVU1006
.LLST24:
	.byte	0x6
	.quad	.LVL7
	.byte	0x4
	.uleb128 .LVL7-.LVL7
	.uleb128 .LVL8-.LVL7
	.uleb128 0x3
	.byte	0x75
	.sleb128 16
	.byte	0x9f
	.byte	0x4
	.uleb128 .LVL160-.LVL7
	.uleb128 .LVL166-.LVL7
	.uleb128 0x3
	.byte	0x73
	.sleb128 16
	.byte	0x9f
	.byte	0x8
	.quad	.LVL242
	.uleb128 .LVL243-.LVL242
	.uleb128 0x3
	.byte	0x73
	.sleb128 16
	.byte	0x9f
	.byte	0
.LVUS25:
	.uleb128 .LVU44
	.uleb128 .LVU47
	.uleb128 .LVU705
	.uleb128 .LVU728
	.uleb128 .LVU728
	.uleb128 .LVU761
	.uleb128 .LVU1004
	.uleb128 .LVU1006
	.uleb128 .LVU1006
	.uleb128 .LVU1006
.LLST25:
	.byte	0x6
	.quad	.LVL7
	.byte	0x4
	.uleb128 .LVL7-.LVL7
	.uleb128 .LVL8-.LVL7
	.uleb128 0x1
	.byte	0x54
	.byte	0x4
	.uleb128 .LVL160-.LVL7
	.uleb128 .LVL162-1-.LVL7
	.uleb128 0x1
	.byte	0x54
	.byte	0x4
	.uleb128 .LVL162-1-.LVL7
	.uleb128 .LVL166-.LVL7
	.uleb128 0x3
	.byte	0x91
	.sleb128 -136
	.byte	0x6
	.quad	.LVL242
	.byte	0x4
	.uleb128 .LVL242-.LVL242
	.uleb128 .LVL243-1-.LVL242
	.uleb128 0x1
	.byte	0x54
	.byte	0x4
	.uleb128 .LVL243-1-.LVL242
	.uleb128 .LVL243-.LVL242
	.uleb128 0x3
	.byte	0x91
	.sleb128 -136
	.byte	0
.LVUS27:
	.uleb128 .LVU45
	.uleb128 .LVU47
	.uleb128 .LVU705
	.uleb128 .LVU761
	.uleb128 .LVU1004
	.uleb128 .LVU1006
.LLST27:
	.byte	0x6
	.quad	.LVL7
	.byte	0x4
	.uleb128 .LVL7-.LVL7
	.uleb128 .LVL8-.LVL7
	.uleb128 0x3
	.byte	0x75
	.sleb128 16
	.byte	0x9f
	.byte	0x4
	.uleb128 .LVL160-.LVL7
	.uleb128 .LVL166-.LVL7
	.uleb128 0x3
	.byte	0x73
	.sleb128 16
	.byte	0x9f
	.byte	0x8
	.quad	.LVL242
	.uleb128 .LVL243-.LVL242
	.uleb128 0x3
	.byte	0x73
	.sleb128 16
	.byte	0x9f
	.byte	0
.LVUS28:
	.uleb128 .LVU45
	.uleb128 .LVU47
	.uleb128 .LVU705
	.uleb128 .LVU728
	.uleb128 .LVU728
	.uleb128 .LVU761
	.uleb128 .LVU1004
	.uleb128 .LVU1006
	.uleb128 .LVU1006
	.uleb128 .LVU1006
.LLST28:
	.byte	0x6
	.quad	.LVL7
	.byte	0x4
	.uleb128 .LVL7-.LVL7
	.uleb128 .LVL8-.LVL7
	.uleb128 0x1
	.byte	0x54
	.byte	0x4
	.uleb128 .LVL160-.LVL7
	.uleb128 .LVL162-1-.LVL7
	.uleb128 0x1
	.byte	0x54
	.byte	0x4
	.uleb128 .LVL162-1-.LVL7
	.uleb128 .LVL166-.LVL7
	.uleb128 0x3
	.byte	0x91
	.sleb128 -136
	.byte	0x6
	.quad	.LVL242
	.byte	0x4
	.uleb128 .LVL242-.LVL242
	.uleb128 .LVL243-1-.LVL242
	.uleb128 0x1
	.byte	0x54
	.byte	0x4
	.uleb128 .LVL243-1-.LVL242
	.uleb128 .LVL243-.LVL242
	.uleb128 0x3
	.byte	0x91
	.sleb128 -136
	.byte	0
.LVUS32:
	.uleb128 .LVU705
	.uleb128 .LVU738
	.uleb128 .LVU1004
	.uleb128 .LVU1006
.LLST32:
	.byte	0x8
	.quad	.LVL160
	.uleb128 .LVL164-.LVL160
	.uleb128 0x6
	.byte	0xa0
	.long	.Ldebug_info0+57256
	.sleb128 0
	.byte	0x8
	.quad	.LVL242
	.uleb128 .LVL243-.LVL242
	.uleb128 0x6
	.byte	0xa0
	.long	.Ldebug_info0+57256
	.sleb128 0
	.byte	0
.LVUS33:
	.uleb128 .LVU705
	.uleb128 .LVU728
	.uleb128 .LVU728
	.uleb128 .LVU738
	.uleb128 .LVU1004
	.uleb128 .LVU1006
	.uleb128 .LVU1006
	.uleb128 .LVU1006
.LLST33:
	.byte	0x6
	.quad	.LVL160
	.byte	0x4
	.uleb128 .LVL160-.LVL160
	.uleb128 .LVL162-1-.LVL160
	.uleb128 0x1
	.byte	0x54
	.byte	0x4
	.uleb128 .LVL162-1-.LVL160
	.uleb128 .LVL164-.LVL160
	.uleb128 0x3
	.byte	0x91
	.sleb128 -136
	.byte	0x6
	.quad	.LVL242
	.byte	0x4
	.uleb128 .LVL242-.LVL242
	.uleb128 .LVL243-1-.LVL242
	.uleb128 0x1
	.byte	0x54
	.byte	0x4
	.uleb128 .LVL243-1-.LVL242
	.uleb128 .LVL243-.LVL242
	.uleb128 0x3
	.byte	0x91
	.sleb128 -136
	.byte	0
.LVUS35:
	.uleb128 .LVU705
	.uleb128 .LVU738
	.uleb128 .LVU1004
	.uleb128 .LVU1006
.LLST35:
	.byte	0x8
	.quad	.LVL160
	.uleb128 .LVL164-.LVL160
	.uleb128 0x3
	.byte	0x73
	.sleb128 16
	.byte	0x9f
	.byte	0x8
	.quad	.LVL242
	.uleb128 .LVL243-.LVL242
	.uleb128 0x3
	.byte	0x73
	.sleb128 16
	.byte	0x9f
	.byte	0
.LVUS37:
	.uleb128 .LVU707
	.uleb128 .LVU715
	.uleb128 .LVU1004
	.uleb128 .LVU1006
	.uleb128 .LVU1006
	.uleb128 .LVU1006
.LLST37:
	.byte	0x8
	.quad	.LVL160
	.uleb128 .LVL161-.LVL160
	.uleb128 0x1
	.byte	0x54
	.byte	0x6
	.quad	.LVL242
	.byte	0x4
	.uleb128 .LVL242-.LVL242
	.uleb128 .LVL243-1-.LVL242
	.uleb128 0x1
	.byte	0x54
	.byte	0x4
	.uleb128 .LVL243-1-.LVL242
	.uleb128 .LVL243-.LVL242
	.uleb128 0x3
	.byte	0x91
	.sleb128 -136
	.byte	0
.LVUS38:
	.uleb128 .LVU707
	.uleb128 .LVU715
	.uleb128 .LVU1004
	.uleb128 .LVU1006
.LLST38:
	.byte	0x8
	.quad	.LVL160
	.uleb128 .LVL161-.LVL160
	.uleb128 0x3
	.byte	0x73
	.sleb128 16
	.byte	0x9f
	.byte	0x8
	.quad	.LVL242
	.uleb128 .LVL243-.LVL242
	.uleb128 0x3
	.byte	0x73
	.sleb128 16
	.byte	0x9f
	.byte	0
.LVUS39:
	.uleb128 .LVU708
	.uleb128 .LVU710
.LLST39:
	.byte	0x8
	.quad	.LVL160
	.uleb128 .LVL160-.LVL160
	.uleb128 0x3
	.byte	0x73
	.sleb128 16
	.byte	0x9f
	.byte	0
.LVUS40:
	.uleb128 .LVU709
	.uleb128 .LVU710
.LLST40:
	.byte	0x8
	.quad	.LVL160
	.uleb128 .LVL160-.LVL160
	.uleb128 0x3
	.byte	0x73
	.sleb128 16
	.byte	0x9f
	.byte	0
.LVUS42:
	.uleb128 .LVU715
	.uleb128 .LVU733
.LLST42:
	.byte	0x8
	.quad	.LVL161
	.uleb128 .LVL163-.LVL161
	.uleb128 0x6
	.byte	0xa0
	.long	.Ldebug_info0+57256
	.sleb128 0
	.byte	0
.LVUS43:
	.uleb128 .LVU715
	.uleb128 .LVU728
	.uleb128 .LVU728
	.uleb128 .LVU733
.LLST43:
	.byte	0x6
	.quad	.LVL161
	.byte	0x4
	.uleb128 .LVL161-.LVL161
	.uleb128 .LVL162-1-.LVL161
	.uleb128 0x1
	.byte	0x54
	.byte	0x4
	.uleb128 .LVL162-1-.LVL161
	.uleb128 .LVL163-.LVL161
	.uleb128 0x3
	.byte	0x91
	.sleb128 -136
	.byte	0
.LVUS44:
	.uleb128 .LVU715
	.uleb128 .LVU733
.LLST44:
	.byte	0x8
	.quad	.LVL161
	.uleb128 .LVL163-.LVL161
	.uleb128 0x3
	.byte	0x73
	.sleb128 16
	.byte	0x9f
	.byte	0
.LVUS46:
	.uleb128 .LVU722
	.uleb128 .LVU733
.LLST46:
	.byte	0x8
	.quad	.LVL161
	.uleb128 .LVL163-.LVL161
	.uleb128 0x6
	.byte	0xa0
	.long	.Ldebug_info0+57256
	.sleb128 0
	.byte	0
.LVUS47:
	.uleb128 .LVU722
	.uleb128 .LVU728
	.uleb128 .LVU728
	.uleb128 .LVU733
.LLST47:
	.byte	0x6
	.quad	.LVL161
	.byte	0x4
	.uleb128 .LVL161-.LVL161
	.uleb128 .LVL162-1-.LVL161
	.uleb128 0x1
	.byte	0x54
	.byte	0x4
	.uleb128 .LVL162-1-.LVL161
	.uleb128 .LVL163-.LVL161
	.uleb128 0x3
	.byte	0x91
	.sleb128 -136
	.byte	0
.LVUS49:
	.uleb128 .LVU724
	.uleb128 .LVU728
.LLST49:
	.byte	0x8
	.quad	.LVL161
	.uleb128 .LVL162-.LVL161
	.uleb128 0x6
	.byte	0xa0
	.long	.Ldebug_info0+57256
	.sleb128 0
	.byte	0
.LVUS50:
	.uleb128 .LVU724
	.uleb128 .LVU728
	.uleb128 .LVU728
	.uleb128 .LVU728
.LLST50:
	.byte	0x6
	.quad	.LVL161
	.byte	0x4
	.uleb128 .LVL161-.LVL161
	.uleb128 .LVL162-1-.LVL161
	.uleb128 0x1
	.byte	0x54
	.byte	0x4
	.uleb128 .LVL162-1-.LVL161
	.uleb128 .LVL162-.LVL161
	.uleb128 0x3
	.byte	0x91
	.sleb128 -136
	.byte	0
.LVUS52:
	.uleb128 .LVU725
	.uleb128 .LVU728
.LLST52:
	.byte	0x8
	.quad	.LVL161
	.uleb128 .LVL162-.LVL161
	.uleb128 0x6
	.byte	0xa0
	.long	.Ldebug_info0+57256
	.sleb128 0
	.byte	0
.LVUS53:
	.uleb128 .LVU725
	.uleb128 .LVU728
	.uleb128 .LVU728
	.uleb128 .LVU728
.LLST53:
	.byte	0x6
	.quad	.LVL161
	.byte	0x4
	.uleb128 .LVL161-.LVL161
	.uleb128 .LVL162-1-.LVL161
	.uleb128 0x1
	.byte	0x54
	.byte	0x4
	.uleb128 .LVL162-1-.LVL161
	.uleb128 .LVL162-.LVL161
	.uleb128 0x3
	.byte	0x91
	.sleb128 -136
	.byte	0
.LVUS55:
	.uleb128 .LVU726
	.uleb128 .LVU728
.LLST55:
	.byte	0x8
	.quad	.LVL161
	.uleb128 .LVL162-.LVL161
	.uleb128 0x6
	.byte	0xa0
	.long	.Ldebug_info0+57256
	.sleb128 0
	.byte	0
.LVUS56:
	.uleb128 .LVU726
	.uleb128 .LVU728
	.uleb128 .LVU728
	.uleb128 .LVU728
.LLST56:
	.byte	0x6
	.quad	.LVL161
	.byte	0x4
	.uleb128 .LVL161-.LVL161
	.uleb128 .LVL162-1-.LVL161
	.uleb128 0x1
	.byte	0x54
	.byte	0x4
	.uleb128 .LVL162-1-.LVL161
	.uleb128 .LVL162-.LVL161
	.uleb128 0x3
	.byte	0x91
	.sleb128 -136
	.byte	0
.LVUS57:
	.uleb128 .LVU726
	.uleb128 .LVU728
.LLST57:
	.byte	0x8
	.quad	.LVL161
	.uleb128 .LVL162-.LVL161
	.uleb128 0x2
	.byte	0x30
	.byte	0x9f
	.byte	0
.LVUS58:
	.uleb128 .LVU717
	.uleb128 .LVU722
.LLST58:
	.byte	0x8
	.quad	.LVL161
	.uleb128 .LVL161-.LVL161
	.uleb128 0x6
	.byte	0xa0
	.long	.Ldebug_info0+57256
	.sleb128 0
	.byte	0
.LVUS59:
	.uleb128 .LVU717
	.uleb128 .LVU722
.LLST59:
	.byte	0x8
	.quad	.LVL161
	.uleb128 .LVL161-.LVL161
	.uleb128 0x3
	.byte	0x73
	.sleb128 16
	.byte	0x9f
	.byte	0
.LVUS60:
	.uleb128 .LVU718
	.uleb128 .LVU720
.LLST60:
	.byte	0x8
	.quad	.LVL161
	.uleb128 .LVL161-.LVL161
	.uleb128 0x6
	.byte	0xa0
	.long	.Ldebug_info0+57256
	.sleb128 0
	.byte	0
.LVUS61:
	.uleb128 .LVU718
	.uleb128 .LVU720
.LLST61:
	.byte	0x8
	.quad	.LVL161
	.uleb128 .LVL161-.LVL161
	.uleb128 0x3
	.byte	0x73
	.sleb128 16
	.byte	0x9f
	.byte	0
.LVUS62:
	.uleb128 .LVU719
	.uleb128 .LVU720
.LLST62:
	.byte	0x8
	.quad	.LVL161
	.uleb128 .LVL161-.LVL161
	.uleb128 0x6
	.byte	0xa0
	.long	.Ldebug_info0+57256
	.sleb128 0
	.byte	0
.LVUS63:
	.uleb128 .LVU719
	.uleb128 .LVU720
.LLST63:
	.byte	0x8
	.quad	.LVL161
	.uleb128 .LVL161-.LVL161
	.uleb128 0x3
	.byte	0x73
	.sleb128 16
	.byte	0x9f
	.byte	0
.LVUS64:
	.uleb128 .LVU720
	.uleb128 .LVU722
.LLST64:
	.byte	0x8
	.quad	.LVL161
	.uleb128 .LVL161-.LVL161
	.uleb128 0x6
	.byte	0xa0
	.long	.Ldebug_info0+57256
	.sleb128 0
	.byte	0
.LVUS66:
	.uleb128 .LVU733
	.uleb128 .LVU738
.LLST66:
	.byte	0x8
	.quad	.LVL163
	.uleb128 .LVL164-.LVL163
	.uleb128 0x6
	.byte	0xa0
	.long	.Ldebug_info0+57256
	.sleb128 0
	.byte	0
.LVUS67:
	.uleb128 .LVU733
	.uleb128 .LVU738
.LLST67:
	.byte	0x8
	.quad	.LVL163
	.uleb128 .LVL164-.LVL163
	.uleb128 0x3
	.byte	0x91
	.sleb128 -136
	.byte	0
.LVUS69:
	.uleb128 .LVU735
	.uleb128 .LVU738
.LLST69:
	.byte	0x8
	.quad	.LVL163
	.uleb128 .LVL164-1-.LVL163
	.uleb128 0x1
	.byte	0x50
	.byte	0
.LVUS70:
	.uleb128 .LVU735
	.uleb128 .LVU738
.LLST70:
	.byte	0x8
	.quad	.LVL163
	.uleb128 .LVL164-.LVL163
	.uleb128 0x3
	.byte	0x91
	.sleb128 -136
	.byte	0
.LVUS72:
	.uleb128 .LVU735
	.uleb128 .LVU738
.LLST72:
	.byte	0x8
	.quad	.LVL163
	.uleb128 .LVL164-.LVL163
	.uleb128 0x6
	.byte	0xa0
	.long	.Ldebug_info0+57256
	.sleb128 0
	.byte	0
.LVUS73:
	.uleb128 .LVU736
	.uleb128 .LVU738
.LLST73:
	.byte	0x8
	.quad	.LVL163
	.uleb128 .LVL164-1-.LVL163
	.uleb128 0x1
	.byte	0x50
	.byte	0
.LVUS74:
	.uleb128 .LVU736
	.uleb128 .LVU738
.LLST74:
	.byte	0x8
	.quad	.LVL163
	.uleb128 .LVL164-.LVL163
	.uleb128 0x3
	.byte	0x91
	.sleb128 -136
	.byte	0
.LVUS78:
	.uleb128 .LVU737
	.uleb128 .LVU738
.LLST78:
	.byte	0x8
	.quad	.LVL163
	.uleb128 .LVL164-1-.LVL163
	.uleb128 0x1
	.byte	0x50
	.byte	0
.LVUS80:
	.uleb128 .LVU738
	.uleb128 .LVU749
.LLST80:
	.byte	0x8
	.quad	.LVL164
	.uleb128 .LVL166-.LVL164
	.uleb128 0x6
	.byte	0xa0
	.long	.Ldebug_info0+57256
	.sleb128 0
	.byte	0
.LVUS81:
	.uleb128 .LVU738
	.uleb128 .LVU749
.LLST81:
	.byte	0x8
	.quad	.LVL164
	.uleb128 .LVL166-.LVL164
	.uleb128 0x3
	.byte	0x73
	.sleb128 16
	.byte	0x9f
	.byte	0
.LVUS82:
	.uleb128 .LVU740
	.uleb128 .LVU741
.LLST82:
	.byte	0x8
	.quad	.LVL164
	.uleb128 .LVL164-.LVL164
	.uleb128 0x6
	.byte	0xa0
	.long	.Ldebug_info0+58443
	.sleb128 0
	.byte	0
.LVUS84:
	.uleb128 .LVU741
	.uleb128 .LVU749
.LLST84:
	.byte	0x8
	.quad	.LVL164
	.uleb128 .LVL166-.LVL164
	.uleb128 0x3
	.byte	0x73
	.sleb128 16
	.byte	0x9f
	.byte	0
.LVUS85:
	.uleb128 .LVU741
	.uleb128 .LVU749
.LLST85:
	.byte	0x8
	.quad	.LVL164
	.uleb128 .LVL166-.LVL164
	.uleb128 0x6
	.byte	0xa0
	.long	.Ldebug_info0+58443
	.sleb128 0
	.byte	0
.LVUS86:
	.uleb128 .LVU749
	.uleb128 .LVU761
.LLST86:
	.byte	0x8
	.quad	.LVL166
	.uleb128 .LVL166-.LVL166
	.uleb128 0x6
	.byte	0xa0
	.long	.Ldebug_info0+57256
	.sleb128 0
	.byte	0
.LVUS87:
	.uleb128 .LVU751
	.uleb128 .LVU752
.LLST87:
	.byte	0x8
	.quad	.LVL166
	.uleb128 .LVL166-.LVL166
	.uleb128 0x6
	.byte	0xa0
	.long	.Ldebug_info0+57256
	.sleb128 0
	.byte	0
.LVUS88:
	.uleb128 .LVU752
	.uleb128 .LVU754
.LLST88:
	.byte	0x8
	.quad	.LVL166
	.uleb128 .LVL166-.LVL166
	.uleb128 0x6
	.byte	0xa0
	.long	.Ldebug_info0+57256
	.sleb128 0
	.byte	0
.LVUS89:
	.uleb128 .LVU754
	.uleb128 .LVU761
.LLST89:
	.byte	0x8
	.quad	.LVL166
	.uleb128 .LVL166-.LVL166
	.uleb128 0x6
	.byte	0xa0
	.long	.Ldebug_info0+57256
	.sleb128 0
	.byte	0
.LVUS90:
	.uleb128 .LVU756
	.uleb128 .LVU761
.LLST90:
	.byte	0x8
	.quad	.LVL166
	.uleb128 .LVL166-.LVL166
	.uleb128 0x2
	.byte	0x30
	.byte	0x9f
	.byte	0
.LVUS91:
	.uleb128 .LVU756
	.uleb128 .LVU757
.LLST91:
	.byte	0x8
	.quad	.LVL166
	.uleb128 .LVL166-.LVL166
	.uleb128 0x6
	.byte	0xa0
	.long	.Ldebug_info0+57256
	.sleb128 0
	.byte	0
.LVUS92:
	.uleb128 .LVU756
	.uleb128 .LVU757
.LLST92:
	.byte	0x8
	.quad	.LVL166
	.uleb128 .LVL166-.LVL166
	.uleb128 0x2
	.byte	0x30
	.byte	0x9f
	.byte	0
.LVUS94:
	.uleb128 .LVU757
	.uleb128 .LVU761
.LLST94:
	.byte	0x8
	.quad	.LVL166
	.uleb128 .LVL166-.LVL166
	.uleb128 0x6
	.byte	0xa0
	.long	.Ldebug_info0+57256
	.sleb128 0
	.byte	0
.LVUS95:
	.uleb128 .LVU759
	.uleb128 .LVU761
.LLST95:
	.byte	0x8
	.quad	.LVL166
	.uleb128 .LVL166-.LVL166
	.uleb128 0x6
	.byte	0xa0
	.long	.Ldebug_info0+57256
	.sleb128 0
	.byte	0
.LVUS96:
	.uleb128 .LVU760
	.uleb128 .LVU761
.LLST96:
	.byte	0x8
	.quad	.LVL166
	.uleb128 .LVL166-.LVL166
	.uleb128 0x6
	.byte	0xa0
	.long	.Ldebug_info0+57256
	.sleb128 0
	.byte	0
.LVUS98:
	.uleb128 .LVU49
	.uleb128 .LVU56
	.uleb128 .LVU763
	.uleb128 .LVU770
.LLST98:
	.byte	0x8
	.quad	.LVL8
	.uleb128 .LVL8-.LVL8
	.uleb128 0x6
	.byte	0xa0
	.long	.Ldebug_info0+51747
	.sleb128 0
	.byte	0x8
	.quad	.LVL166
	.uleb128 .LVL166-.LVL166
	.uleb128 0x6
	.byte	0xa0
	.long	.Ldebug_info0+51747
	.sleb128 0
	.byte	0
.LVUS99:
	.uleb128 .LVU50
	.uleb128 .LVU56
	.uleb128 .LVU764
	.uleb128 .LVU770
.LLST99:
	.byte	0x8
	.quad	.LVL8
	.uleb128 .LVL8-.LVL8
	.uleb128 0x6
	.byte	0xa0
	.long	.Ldebug_info0+51747
	.sleb128 0
	.byte	0x8
	.quad	.LVL166
	.uleb128 .LVL166-.LVL166
	.uleb128 0x6
	.byte	0xa0
	.long	.Ldebug_info0+51747
	.sleb128 0
	.byte	0
.LVUS100:
	.uleb128 .LVU51
	.uleb128 .LVU56
	.uleb128 .LVU765
	.uleb128 .LVU770
.LLST100:
	.byte	0x8
	.quad	.LVL8
	.uleb128 .LVL8-.LVL8
	.uleb128 0x6
	.byte	0xa0
	.long	.Ldebug_info0+51747
	.sleb128 0
	.byte	0x8
	.quad	.LVL166
	.uleb128 .LVL166-.LVL166
	.uleb128 0x6
	.byte	0xa0
	.long	.Ldebug_info0+51747
	.sleb128 0
	.byte	0
.LVUS102:
	.uleb128 .LVU52
	.uleb128 .LVU54
	.uleb128 .LVU766
	.uleb128 .LVU768
.LLST102:
	.byte	0x8
	.quad	.LVL8
	.uleb128 .LVL8-.LVL8
	.uleb128 0x6
	.byte	0xa0
	.long	.Ldebug_info0+51747
	.sleb128 0
	.byte	0x8
	.quad	.LVL166
	.uleb128 .LVL166-.LVL166
	.uleb128 0x6
	.byte	0xa0
	.long	.Ldebug_info0+51747
	.sleb128 0
	.byte	0
.LVUS103:
	.uleb128 .LVU53
	.uleb128 .LVU54
	.uleb128 .LVU767
	.uleb128 .LVU768
.LLST103:
	.byte	0x8
	.quad	.LVL8
	.uleb128 .LVL8-.LVL8
	.uleb128 0x6
	.byte	0xa0
	.long	.Ldebug_info0+51747
	.sleb128 0
	.byte	0x8
	.quad	.LVL166
	.uleb128 .LVL166-.LVL166
	.uleb128 0x6
	.byte	0xa0
	.long	.Ldebug_info0+51747
	.sleb128 0
	.byte	0
.LVUS105:
	.uleb128 .LVU54
	.uleb128 .LVU56
	.uleb128 .LVU768
	.uleb128 .LVU770
.LLST105:
	.byte	0x8
	.quad	.LVL8
	.uleb128 .LVL8-.LVL8
	.uleb128 0x6
	.byte	0xa0
	.long	.Ldebug_info0+51747
	.sleb128 0
	.byte	0x8
	.quad	.LVL166
	.uleb128 .LVL166-.LVL166
	.uleb128 0x6
	.byte	0xa0
	.long	.Ldebug_info0+51747
	.sleb128 0
	.byte	0
.LVUS107:
	.uleb128 .LVU58
	.uleb128 .LVU60
	.uleb128 .LVU772
	.uleb128 .LVU773
.LLST107:
	.byte	0x8
	.quad	.LVL8
	.uleb128 .LVL9-.LVL8
	.uleb128 0x1
	.byte	0x56
	.byte	0x8
	.quad	.LVL166
	.uleb128 .LVL166-.LVL166
	.uleb128 0x1
	.byte	0x56
	.byte	0
.LVUS109:
	.uleb128 .LVU60
	.uleb128 .LVU77
	.uleb128 .LVU687
	.uleb128 .LVU691
	.uleb128 .LVU773
	.uleb128 .LVU783
	.uleb128 .LVU915
	.uleb128 .LVU916
.LLST109:
	.byte	0x6
	.quad	.LVL9
	.byte	0x4
	.uleb128 .LVL9-.LVL9
	.uleb128 .LVL17-.LVL9
	.uleb128 0x6
	.byte	0xa0
	.long	.Ldebug_info0+51747
	.sleb128 0
	.byte	0x4
	.uleb128 .LVL156-.LVL9
	.uleb128 .LVL158-.LVL9
	.uleb128 0x6
	.byte	0xa0
	.long	.Ldebug_info0+51747
	.sleb128 0
	.byte	0x4
	.uleb128 .LVL166-.LVL9
	.uleb128 .LVL169-.LVL9
	.uleb128 0x6
	.byte	0xa0
	.long	.Ldebug_info0+51747
	.sleb128 0
	.byte	0x4
	.uleb128 .LVL209-.LVL9
	.uleb128 .LVL210-.LVL9
	.uleb128 0x6
	.byte	0xa0
	.long	.Ldebug_info0+51747
	.sleb128 0
	.byte	0
.LVUS110:
	.uleb128 .LVU60
	.uleb128 .LVU65
	.uleb128 .LVU65
	.uleb128 .LVU66
	.uleb128 .LVU687
	.uleb128 .LVU690
	.uleb128 .LVU690
	.uleb128 .LVU691
	.uleb128 .LVU773
	.uleb128 .LVU778
	.uleb128 .LVU778
	.uleb128 .LVU783
.LLST110:
	.byte	0x6
	.quad	.LVL9
	.byte	0x4
	.uleb128 .LVL9-.LVL9
	.uleb128 .LVL10-.LVL9
	.uleb128 0x9
	.byte	0x74
	.sleb128 0
	.byte	0x7f
	.sleb128 0
	.byte	0x1c
	.byte	0x8
	.byte	0x30
	.byte	0x1b
	.byte	0x9f
	.byte	0x4
	.uleb128 .LVL10-.LVL9
	.uleb128 .LVL11-.LVL9
	.uleb128 0x6
	.byte	0x72
	.sleb128 0
	.byte	0x8
	.byte	0x30
	.byte	0x1b
	.byte	0x9f
	.byte	0x4
	.uleb128 .LVL156-.LVL9
	.uleb128 .LVL157-.LVL9
	.uleb128 0x6
	.byte	0x72
	.sleb128 0
	.byte	0x8
	.byte	0x30
	.byte	0x1b
	.byte	0x9f
	.byte	0x4
	.uleb128 .LVL157-.LVL9
	.uleb128 .LVL158-.LVL9
	.uleb128 0x8
	.byte	0x91
	.sleb128 -144
	.byte	0x6
	.byte	0x8
	.byte	0x30
	.byte	0x1b
	.byte	0x9f
	.byte	0x4
	.uleb128 .LVL166-.LVL9
	.uleb128 .LVL167-.LVL9
	.uleb128 0x9
	.byte	0x70
	.sleb128 0
	.byte	0x7f
	.sleb128 0
	.byte	0x1c
	.byte	0x8
	.byte	0x30
	.byte	0x1b
	.byte	0x9f
	.byte	0x4
	.uleb128 .LVL167-.LVL9
	.uleb128 .LVL169-.LVL9
	.uleb128 0x6
	.byte	0x70
	.sleb128 0
	.byte	0x8
	.byte	0x30
	.byte	0x1b
	.byte	0x9f
	.byte	0
.LVUS111:
	.uleb128 .LVU67
	.uleb128 .LVU75
	.uleb128 .LVU915
	.uleb128 .LVU916
.LLST111:
	.byte	0x6
	.quad	.LVL12
	.byte	0x4
	.uleb128 .LVL12-.LVL12
	.uleb128 .LVL16-.LVL12
	.uleb128 0x2
	.byte	0x30
	.byte	0x9f
	.byte	0x4
	.uleb128 .LVL209-.LVL12
	.uleb128 .LVL210-.LVL12
	.uleb128 0x2
	.byte	0x30
	.byte	0x9f
	.byte	0
.LVUS112:
	.uleb128 .LVU72
	.uleb128 .LVU74
	.uleb128 .LVU74
	.uleb128 .LVU75
.LLST112:
	.byte	0x6
	.quad	.LVL14
	.byte	0x4
	.uleb128 .LVL14-.LVL14
	.uleb128 .LVL15-.LVL14
	.uleb128 0x1
	.byte	0x50
	.byte	0x4
	.uleb128 .LVL15-.LVL14
	.uleb128 .LVL16-.LVL14
	.uleb128 0x3
	.byte	0x91
	.sleb128 -200
	.byte	0
.LVUS113:
	.uleb128 .LVU67
	.uleb128 .LVU72
	.uleb128 .LVU915
	.uleb128 .LVU916
.LLST113:
	.byte	0x6
	.quad	.LVL12
	.byte	0x4
	.uleb128 .LVL12-.LVL12
	.uleb128 .LVL14-.LVL12
	.uleb128 0x6
	.byte	0xa0
	.long	.Ldebug_info0+51747
	.sleb128 0
	.byte	0x4
	.uleb128 .LVL209-.LVL12
	.uleb128 .LVL210-.LVL12
	.uleb128 0x6
	.byte	0xa0
	.long	.Ldebug_info0+51747
	.sleb128 0
	.byte	0
.LVUS115:
	.uleb128 .LVU69
	.uleb128 .LVU72
	.uleb128 .LVU915
	.uleb128 .LVU916
.LLST115:
	.byte	0x6
	.quad	.LVL12
	.byte	0x4
	.uleb128 .LVL12-.LVL12
	.uleb128 .LVL14-.LVL12
	.uleb128 0x6
	.byte	0xa0
	.long	.Ldebug_info0+51747
	.sleb128 0
	.byte	0x4
	.uleb128 .LVL209-.LVL12
	.uleb128 .LVL210-.LVL12
	.uleb128 0x6
	.byte	0xa0
	.long	.Ldebug_info0+51747
	.sleb128 0
	.byte	0
.LVUS116:
	.uleb128 .LVU71
	.uleb128 .LVU72
	.uleb128 .LVU915
	.uleb128 .LVU916
.LLST116:
	.byte	0x6
	.quad	.LVL12
	.byte	0x4
	.uleb128 .LVL12-.LVL12
	.uleb128 .LVL14-.LVL12
	.uleb128 0x2
	.byte	0x30
	.byte	0x9f
	.byte	0x4
	.uleb128 .LVL209-.LVL12
	.uleb128 .LVL210-.LVL12
	.uleb128 0x2
	.byte	0x30
	.byte	0x9f
	.byte	0
.LVUS117:
	.uleb128 .LVU71
	.uleb128 .LVU72
	.uleb128 .LVU915
	.uleb128 .LVU916
.LLST117:
	.byte	0x6
	.quad	.LVL12
	.byte	0x4
	.uleb128 .LVL12-.LVL12
	.uleb128 .LVL14-.LVL12
	.uleb128 0x6
	.byte	0xa0
	.long	.Ldebug_info0+51747
	.sleb128 0
	.byte	0x4
	.uleb128 .LVL209-.LVL12
	.uleb128 .LVL210-.LVL12
	.uleb128 0x6
	.byte	0xa0
	.long	.Ldebug_info0+51747
	.sleb128 0
	.byte	0
.LVUS203:
	.uleb128 .LVU661
	.uleb128 .LVU678
.LLST203:
	.byte	0x8
	.quad	.LVL149
	.uleb128 .LVL151-.LVL149
	.uleb128 0x6
	.byte	0xa0
	.long	.Ldebug_info0+51747
	.sleb128 0
	.byte	0
.LVUS205:
	.uleb128 .LVU666
	.uleb128 .LVU678
.LLST205:
	.byte	0x8
	.quad	.LVL149
	.uleb128 .LVL151-.LVL149
	.uleb128 0x6
	.byte	0xa0
	.long	.Ldebug_info0+51747
	.sleb128 0
	.byte	0
.LVUS207:
	.uleb128 .LVU668
	.uleb128 .LVU674
.LLST207:
	.byte	0x8
	.quad	.LVL149
	.uleb128 .LVL151-.LVL149
	.uleb128 0x6
	.byte	0xa0
	.long	.Ldebug_info0+51747
	.sleb128 0
	.byte	0
.LVUS208:
	.uleb128 .LVU668
	.uleb128 .LVU674
.LLST208:
	.byte	0x8
	.quad	.LVL149
	.uleb128 .LVL151-.LVL149
	.uleb128 0x3
	.byte	0x91
	.sleb128 -192
	.byte	0
.LVUS209:
	.uleb128 .LVU671
	.uleb128 .LVU674
.LLST209:
	.byte	0x8
	.quad	.LVL150
	.uleb128 .LVL151-.LVL150
	.uleb128 0x6
	.byte	0xa0
	.long	.Ldebug_info0+51747
	.sleb128 0
	.byte	0
.LVUS210:
	.uleb128 .LVU670
	.uleb128 .LVU674
.LLST210:
	.byte	0x8
	.quad	.LVL150
	.uleb128 .LVL151-.LVL150
	.uleb128 0x3
	.byte	0x91
	.sleb128 -192
	.byte	0
.LVUS211:
	.uleb128 .LVU671
	.uleb128 .LVU674
.LLST211:
	.byte	0x8
	.quad	.LVL150
	.uleb128 .LVL151-.LVL150
	.uleb128 0x3
	.byte	0x91
	.sleb128 -192
	.byte	0
.LVUS212:
	.uleb128 .LVU672
	.uleb128 .LVU674
.LLST212:
	.byte	0x8
	.quad	.LVL150
	.uleb128 .LVL151-.LVL150
	.uleb128 0x3
	.byte	0x91
	.sleb128 -192
	.byte	0
.LVUS213:
	.uleb128 .LVU674
	.uleb128 .LVU678
.LLST213:
	.byte	0x8
	.quad	.LVL151
	.uleb128 .LVL151-.LVL151
	.uleb128 0x6
	.byte	0xa0
	.long	.Ldebug_info0+51747
	.sleb128 0
	.byte	0
.LVUS214:
	.uleb128 .LVU676
	.uleb128 .LVU678
.LLST214:
	.byte	0x8
	.quad	.LVL151
	.uleb128 .LVL151-.LVL151
	.uleb128 0x6
	.byte	0xa0
	.long	.Ldebug_info0+51747
	.sleb128 0
	.byte	0
.LVUS215:
	.uleb128 .LVU677
	.uleb128 .LVU678
.LLST215:
	.byte	0x8
	.quad	.LVL151
	.uleb128 .LVL151-.LVL151
	.uleb128 0x6
	.byte	0xa0
	.long	.Ldebug_info0+51747
	.sleb128 0
	.byte	0
.LVUS216:
	.uleb128 .LVU663
	.uleb128 .LVU664
.LLST216:
	.byte	0x8
	.quad	.LVL149
	.uleb128 .LVL149-.LVL149
	.uleb128 0x6
	.byte	0xa0
	.long	.Ldebug_info0+51747
	.sleb128 0
	.byte	0
.LVUS217:
	.uleb128 .LVU664
	.uleb128 .LVU666
.LLST217:
	.byte	0x8
	.quad	.LVL149
	.uleb128 .LVL149-.LVL149
	.uleb128 0x6
	.byte	0xa0
	.long	.Ldebug_info0+51747
	.sleb128 0
	.byte	0
.LVUS221:
	.uleb128 .LVU178
	.uleb128 .LVU187
	.uleb128 .LVU975
	.uleb128 .LVU977
	.uleb128 .LVU1030
	.uleb128 .LVU1032
.LLST221:
	.byte	0x8
	.quad	.LVL43
	.uleb128 .LVL44-.LVL43
	.uleb128 0x3
	.byte	0x91
	.sleb128 -160
	.byte	0x6
	.quad	.LVL222
	.byte	0x4
	.uleb128 .LVL222-.LVL222
	.uleb128 .LVL223-.LVL222
	.uleb128 0x3
	.byte	0x91
	.sleb128 -160
	.byte	0x4
	.uleb128 .LVL250-.LVL222
	.uleb128 .LVL252-.LVL222
	.uleb128 0x3
	.byte	0x91
	.sleb128 -160
	.byte	0
.LVUS225:
	.uleb128 .LVU180
	.uleb128 .LVU187
	.uleb128 .LVU975
	.uleb128 .LVU977
	.uleb128 .LVU1030
	.uleb128 .LVU1032
.LLST225:
	.byte	0x8
	.quad	.LVL43
	.uleb128 .LVL44-.LVL43
	.uleb128 0x3
	.byte	0x91
	.sleb128 -160
	.byte	0x6
	.quad	.LVL222
	.byte	0x4
	.uleb128 .LVL222-.LVL222
	.uleb128 .LVL223-.LVL222
	.uleb128 0x3
	.byte	0x91
	.sleb128 -160
	.byte	0x4
	.uleb128 .LVL250-.LVL222
	.uleb128 .LVL252-.LVL222
	.uleb128 0x3
	.byte	0x91
	.sleb128 -160
	.byte	0
.LVUS230:
	.uleb128 .LVU187
	.uleb128 .LVU205
	.uleb128 .LVU912
	.uleb128 .LVU913
.LLST230:
	.byte	0x6
	.quad	.LVL44
	.byte	0x4
	.uleb128 .LVL44-.LVL44
	.uleb128 .LVL47-.LVL44
	.uleb128 0x3
	.byte	0x91
	.sleb128 -160
	.byte	0x4
	.uleb128 .LVL205-.LVL44
	.uleb128 .LVL207-.LVL44
	.uleb128 0x3
	.byte	0x91
	.sleb128 -160
	.byte	0
.LVUS236:
	.uleb128 .LVU194
	.uleb128 .LVU205
	.uleb128 .LVU912
	.uleb128 .LVU913
.LLST236:
	.byte	0x6
	.quad	.LVL44
	.byte	0x4
	.uleb128 .LVL44-.LVL44
	.uleb128 .LVL47-.LVL44
	.uleb128 0x3
	.byte	0x91
	.sleb128 -160
	.byte	0x4
	.uleb128 .LVL205-.LVL44
	.uleb128 .LVL207-.LVL44
	.uleb128 0x3
	.byte	0x91
	.sleb128 -160
	.byte	0
.LVUS238:
	.uleb128 .LVU196
	.uleb128 .LVU205
	.uleb128 .LVU912
	.uleb128 .LVU913
.LLST238:
	.byte	0x6
	.quad	.LVL44
	.byte	0x4
	.uleb128 .LVL44-.LVL44
	.uleb128 .LVL47-.LVL44
	.uleb128 0x3
	.byte	0x91
	.sleb128 -160
	.byte	0x4
	.uleb128 .LVL205-.LVL44
	.uleb128 .LVL207-.LVL44
	.uleb128 0x3
	.byte	0x91
	.sleb128 -160
	.byte	0
.LVUS240:
	.uleb128 .LVU199
	.uleb128 .LVU205
	.uleb128 .LVU912
	.uleb128 .LVU913
.LLST240:
	.byte	0x6
	.quad	.LVL45
	.byte	0x4
	.uleb128 .LVL45-.LVL45
	.uleb128 .LVL47-.LVL45
	.uleb128 0x3
	.byte	0x91
	.sleb128 -160
	.byte	0x4
	.uleb128 .LVL205-.LVL45
	.uleb128 .LVL207-.LVL45
	.uleb128 0x3
	.byte	0x91
	.sleb128 -160
	.byte	0
.LVUS242:
	.uleb128 .LVU202
	.uleb128 .LVU205
	.uleb128 .LVU912
	.uleb128 .LVU913
.LLST242:
	.byte	0x6
	.quad	.LVL45
	.byte	0x4
	.uleb128 .LVL45-.LVL45
	.uleb128 .LVL47-.LVL45
	.uleb128 0x2
	.byte	0x30
	.byte	0x9f
	.byte	0x4
	.uleb128 .LVL205-.LVL45
	.uleb128 .LVL207-.LVL45
	.uleb128 0x2
	.byte	0x30
	.byte	0x9f
	.byte	0
.LVUS243:
	.uleb128 .LVU201
	.uleb128 .LVU205
	.uleb128 .LVU912
	.uleb128 .LVU913
.LLST243:
	.byte	0x6
	.quad	.LVL45
	.byte	0x4
	.uleb128 .LVL45-.LVL45
	.uleb128 .LVL47-.LVL45
	.uleb128 0x3
	.byte	0x91
	.sleb128 -160
	.byte	0x4
	.uleb128 .LVL205-.LVL45
	.uleb128 .LVL207-.LVL45
	.uleb128 0x3
	.byte	0x91
	.sleb128 -160
	.byte	0
.LVUS245:
	.uleb128 .LVU205
	.uleb128 .LVU216
.LLST245:
	.byte	0x8
	.quad	.LVL47
	.uleb128 .LVL49-.LVL47
	.uleb128 0x3
	.byte	0x91
	.sleb128 -160
	.byte	0
.LVUS247:
	.uleb128 .LVU207
	.uleb128 .LVU215
	.uleb128 .LVU215
	.uleb128 .LVU216
.LLST247:
	.byte	0x6
	.quad	.LVL47
	.byte	0x4
	.uleb128 .LVL47-.LVL47
	.uleb128 .LVL48-1-.LVL47
	.uleb128 0x1
	.byte	0x50
	.byte	0x4
	.uleb128 .LVL48-1-.LVL47
	.uleb128 .LVL49-.LVL47
	.uleb128 0x1
	.byte	0x5f
	.byte	0
.LVUS248:
	.uleb128 .LVU207
	.uleb128 .LVU216
.LLST248:
	.byte	0x8
	.quad	.LVL47
	.uleb128 .LVL49-.LVL47
	.uleb128 0x3
	.byte	0x91
	.sleb128 -160
	.byte	0
.LVUS250:
	.uleb128 .LVU208
	.uleb128 .LVU215
	.uleb128 .LVU215
	.uleb128 .LVU216
.LLST250:
	.byte	0x6
	.quad	.LVL47
	.byte	0x4
	.uleb128 .LVL47-.LVL47
	.uleb128 .LVL48-1-.LVL47
	.uleb128 0x1
	.byte	0x50
	.byte	0x4
	.uleb128 .LVL48-1-.LVL47
	.uleb128 .LVL49-.LVL47
	.uleb128 0x1
	.byte	0x5f
	.byte	0
.LVUS251:
	.uleb128 .LVU208
	.uleb128 .LVU216
.LLST251:
	.byte	0x8
	.quad	.LVL47
	.uleb128 .LVL49-.LVL47
	.uleb128 0x3
	.byte	0x91
	.sleb128 -160
	.byte	0
.LVUS254:
	.uleb128 .LVU209
	.uleb128 .LVU215
	.uleb128 .LVU215
	.uleb128 .LVU215
.LLST254:
	.byte	0x6
	.quad	.LVL47
	.byte	0x4
	.uleb128 .LVL47-.LVL47
	.uleb128 .LVL48-1-.LVL47
	.uleb128 0x1
	.byte	0x50
	.byte	0x4
	.uleb128 .LVL48-1-.LVL47
	.uleb128 .LVL48-.LVL47
	.uleb128 0x1
	.byte	0x5f
	.byte	0
.LVUS255:
	.uleb128 .LVU209
	.uleb128 .LVU214
	.uleb128 .LVU214
	.uleb128 .LVU215
.LLST255:
	.byte	0x6
	.quad	.LVL47
	.byte	0x4
	.uleb128 .LVL47-.LVL47
	.uleb128 .LVL47-.LVL47
	.uleb128 0x3
	.byte	0x91
	.sleb128 -160
	.byte	0x4
	.uleb128 .LVL47-.LVL47
	.uleb128 .LVL48-.LVL47
	.uleb128 0x7
	.byte	0x91
	.sleb128 -160
	.byte	0x6
	.byte	0x31
	.byte	0x1c
	.byte	0x9f
	.byte	0
.LVUS258:
	.uleb128 .LVU210
	.uleb128 .LVU211
.LLST258:
	.byte	0x8
	.quad	.LVL47
	.uleb128 .LVL47-.LVL47
	.uleb128 0x6
	.byte	0xa0
	.long	.Ldebug_info0+61257
	.sleb128 0
	.byte	0
.LVUS259:
	.uleb128 .LVU210
	.uleb128 .LVU211
.LLST259:
	.byte	0x8
	.quad	.LVL47
	.uleb128 .LVL47-.LVL47
	.uleb128 0x6
	.byte	0xa0
	.long	.Ldebug_info0+61226
	.sleb128 0
	.byte	0
.LVUS260:
	.uleb128 .LVU216
	.uleb128 .LVU218
.LLST260:
	.byte	0x8
	.quad	.LVL49
	.uleb128 .LVL49-.LVL49
	.uleb128 0x6
	.byte	0xa0
	.long	.Ldebug_info0+61257
	.sleb128 0
	.byte	0
.LVUS266:
	.uleb128 .LVU230
	.uleb128 .LVU238
	.uleb128 .LVU238
	.uleb128 .LVU254
	.uleb128 .LVU254
	.uleb128 .LVU270
	.uleb128 .LVU802
	.uleb128 .LVU804
	.uleb128 .LVU909
	.uleb128 .LVU910
	.uleb128 .LVU918
	.uleb128 .LVU920
	.uleb128 .LVU995
	.uleb128 .LVU997
.LLST266:
	.byte	0x6
	.quad	.LVL50
	.byte	0x4
	.uleb128 .LVL50-.LVL50
	.uleb128 .LVL51-.LVL50
	.uleb128 0x1
	.byte	0x50
	.byte	0x4
	.uleb128 .LVL51-.LVL50
	.uleb128 .LVL54-.LVL50
	.uleb128 0x3
	.byte	0x91
	.sleb128 -152
	.byte	0x4
	.uleb128 .LVL54-.LVL50
	.uleb128 .LVL58-.LVL50
	.uleb128 0xa
	.byte	0x91
	.sleb128 -168
	.byte	0x6
	.byte	0x23
	.uleb128 0x1
	.byte	0x7d
	.sleb128 0
	.byte	0x1e
	.byte	0x9f
	.byte	0x4
	.uleb128 .LVL172-.LVL50
	.uleb128 .LVL173-.LVL50
	.uleb128 0x1
	.byte	0x50
	.byte	0x4
	.uleb128 .LVL202-.LVL50
	.uleb128 .LVL203-.LVL50
	.uleb128 0xa
	.byte	0x91
	.sleb128 -168
	.byte	0x6
	.byte	0x23
	.uleb128 0x1
	.byte	0x7d
	.sleb128 0
	.byte	0x1e
	.byte	0x9f
	.byte	0x6
	.quad	.LVL211
	.byte	0x4
	.uleb128 .LVL211-.LVL211
	.uleb128 .LVL212-.LVL211
	.uleb128 0xa
	.byte	0x91
	.sleb128 -168
	.byte	0x6
	.byte	0x23
	.uleb128 0x1
	.byte	0x7d
	.sleb128 0
	.byte	0x1e
	.byte	0x9f
	.byte	0x4
	.uleb128 .LVL237-.LVL211
	.uleb128 .LVL238-.LVL211
	.uleb128 0x3
	.byte	0x91
	.sleb128 -152
	.byte	0
.LVUS270:
	.uleb128 .LVU231
	.uleb128 .LVU238
	.uleb128 .LVU238
	.uleb128 .LVU239
	.uleb128 .LVU995
	.uleb128 .LVU997
.LLST270:
	.byte	0x6
	.quad	.LVL50
	.byte	0x4
	.uleb128 .LVL50-.LVL50
	.uleb128 .LVL51-.LVL50
	.uleb128 0x1
	.byte	0x50
	.byte	0x4
	.uleb128 .LVL51-.LVL50
	.uleb128 .LVL52-.LVL50
	.uleb128 0x3
	.byte	0x91
	.sleb128 -152
	.byte	0x8
	.quad	.LVL237
	.uleb128 .LVL238-.LVL237
	.uleb128 0x3
	.byte	0x91
	.sleb128 -152
	.byte	0
.LVUS275:
	.uleb128 .LVU239
	.uleb128 .LVU254
	.uleb128 .LVU254
	.uleb128 .LVU257
	.uleb128 .LVU802
	.uleb128 .LVU804
	.uleb128 .LVU909
	.uleb128 .LVU910
.LLST275:
	.byte	0x6
	.quad	.LVL52
	.byte	0x4
	.uleb128 .LVL52-.LVL52
	.uleb128 .LVL54-.LVL52
	.uleb128 0x3
	.byte	0x91
	.sleb128 -152
	.byte	0x4
	.uleb128 .LVL54-.LVL52
	.uleb128 .LVL56-.LVL52
	.uleb128 0xa
	.byte	0x91
	.sleb128 -168
	.byte	0x6
	.byte	0x23
	.uleb128 0x1
	.byte	0x7d
	.sleb128 0
	.byte	0x1e
	.byte	0x9f
	.byte	0x4
	.uleb128 .LVL172-.LVL52
	.uleb128 .LVL173-.LVL52
	.uleb128 0x1
	.byte	0x50
	.byte	0x4
	.uleb128 .LVL202-.LVL52
	.uleb128 .LVL203-.LVL52
	.uleb128 0xa
	.byte	0x91
	.sleb128 -168
	.byte	0x6
	.byte	0x23
	.uleb128 0x1
	.byte	0x7d
	.sleb128 0
	.byte	0x1e
	.byte	0x9f
	.byte	0
.LVUS281:
	.uleb128 .LVU246
	.uleb128 .LVU254
	.uleb128 .LVU254
	.uleb128 .LVU257
	.uleb128 .LVU802
	.uleb128 .LVU804
	.uleb128 .LVU909
	.uleb128 .LVU910
.LLST281:
	.byte	0x6
	.quad	.LVL52
	.byte	0x4
	.uleb128 .LVL52-.LVL52
	.uleb128 .LVL54-.LVL52
	.uleb128 0x3
	.byte	0x91
	.sleb128 -152
	.byte	0x4
	.uleb128 .LVL54-.LVL52
	.uleb128 .LVL56-.LVL52
	.uleb128 0xa
	.byte	0x91
	.sleb128 -168
	.byte	0x6
	.byte	0x23
	.uleb128 0x1
	.byte	0x7d
	.sleb128 0
	.byte	0x1e
	.byte	0x9f
	.byte	0x4
	.uleb128 .LVL172-.LVL52
	.uleb128 .LVL173-.LVL52
	.uleb128 0x1
	.byte	0x50
	.byte	0x4
	.uleb128 .LVL202-.LVL52
	.uleb128 .LVL203-.LVL52
	.uleb128 0xa
	.byte	0x91
	.sleb128 -168
	.byte	0x6
	.byte	0x23
	.uleb128 0x1
	.byte	0x7d
	.sleb128 0
	.byte	0x1e
	.byte	0x9f
	.byte	0
.LVUS283:
	.uleb128 .LVU248
	.uleb128 .LVU254
	.uleb128 .LVU254
	.uleb128 .LVU257
	.uleb128 .LVU802
	.uleb128 .LVU804
	.uleb128 .LVU909
	.uleb128 .LVU910
.LLST283:
	.byte	0x6
	.quad	.LVL52
	.byte	0x4
	.uleb128 .LVL52-.LVL52
	.uleb128 .LVL54-.LVL52
	.uleb128 0x3
	.byte	0x91
	.sleb128 -152
	.byte	0x4
	.uleb128 .LVL54-.LVL52
	.uleb128 .LVL56-.LVL52
	.uleb128 0xa
	.byte	0x91
	.sleb128 -168
	.byte	0x6
	.byte	0x23
	.uleb128 0x1
	.byte	0x7d
	.sleb128 0
	.byte	0x1e
	.byte	0x9f
	.byte	0x4
	.uleb128 .LVL172-.LVL52
	.uleb128 .LVL173-.LVL52
	.uleb128 0x1
	.byte	0x50
	.byte	0x4
	.uleb128 .LVL202-.LVL52
	.uleb128 .LVL203-.LVL52
	.uleb128 0xa
	.byte	0x91
	.sleb128 -168
	.byte	0x6
	.byte	0x23
	.uleb128 0x1
	.byte	0x7d
	.sleb128 0
	.byte	0x1e
	.byte	0x9f
	.byte	0
.LVUS286:
	.uleb128 .LVU253
	.uleb128 .LVU257
	.uleb128 .LVU909
	.uleb128 .LVU910
.LLST286:
	.byte	0x6
	.quad	.LVL53
	.byte	0x4
	.uleb128 .LVL53-.LVL53
	.uleb128 .LVL56-.LVL53
	.uleb128 0x2
	.byte	0x30
	.byte	0x9f
	.byte	0x4
	.uleb128 .LVL202-.LVL53
	.uleb128 .LVL203-.LVL53
	.uleb128 0x2
	.byte	0x30
	.byte	0x9f
	.byte	0
.LVUS288:
	.uleb128 .LVU257
	.uleb128 .LVU267
	.uleb128 .LVU267
	.uleb128 .LVU268
.LLST288:
	.byte	0x6
	.quad	.LVL56
	.byte	0x4
	.uleb128 .LVL56-.LVL56
	.uleb128 .LVL57-1-.LVL56
	.uleb128 0x1
	.byte	0x51
	.byte	0x4
	.uleb128 .LVL57-1-.LVL56
	.uleb128 .LVL58-.LVL56
	.uleb128 0x3
	.byte	0x91
	.sleb128 -152
	.byte	0
.LVUS290:
	.uleb128 .LVU259
	.uleb128 .LVU267
	.uleb128 .LVU267
	.uleb128 .LVU268
.LLST290:
	.byte	0x6
	.quad	.LVL56
	.byte	0x4
	.uleb128 .LVL56-.LVL56
	.uleb128 .LVL57-1-.LVL56
	.uleb128 0x1
	.byte	0x50
	.byte	0x4
	.uleb128 .LVL57-1-.LVL56
	.uleb128 .LVL58-.LVL56
	.uleb128 0x1
	.byte	0x56
	.byte	0
.LVUS291:
	.uleb128 .LVU259
	.uleb128 .LVU267
	.uleb128 .LVU267
	.uleb128 .LVU268
.LLST291:
	.byte	0x6
	.quad	.LVL56
	.byte	0x4
	.uleb128 .LVL56-.LVL56
	.uleb128 .LVL57-1-.LVL56
	.uleb128 0x1
	.byte	0x51
	.byte	0x4
	.uleb128 .LVL57-1-.LVL56
	.uleb128 .LVL58-.LVL56
	.uleb128 0x3
	.byte	0x91
	.sleb128 -152
	.byte	0
.LVUS293:
	.uleb128 .LVU260
	.uleb128 .LVU267
	.uleb128 .LVU267
	.uleb128 .LVU268
.LLST293:
	.byte	0x6
	.quad	.LVL56
	.byte	0x4
	.uleb128 .LVL56-.LVL56
	.uleb128 .LVL57-1-.LVL56
	.uleb128 0x1
	.byte	0x50
	.byte	0x4
	.uleb128 .LVL57-1-.LVL56
	.uleb128 .LVL58-.LVL56
	.uleb128 0x1
	.byte	0x56
	.byte	0
.LVUS294:
	.uleb128 .LVU260
	.uleb128 .LVU267
	.uleb128 .LVU267
	.uleb128 .LVU268
.LLST294:
	.byte	0x6
	.quad	.LVL56
	.byte	0x4
	.uleb128 .LVL56-.LVL56
	.uleb128 .LVL57-1-.LVL56
	.uleb128 0x1
	.byte	0x51
	.byte	0x4
	.uleb128 .LVL57-1-.LVL56
	.uleb128 .LVL58-.LVL56
	.uleb128 0x3
	.byte	0x91
	.sleb128 -152
	.byte	0
.LVUS297:
	.uleb128 .LVU261
	.uleb128 .LVU267
	.uleb128 .LVU267
	.uleb128 .LVU267
.LLST297:
	.byte	0x6
	.quad	.LVL56
	.byte	0x4
	.uleb128 .LVL56-.LVL56
	.uleb128 .LVL57-1-.LVL56
	.uleb128 0x1
	.byte	0x50
	.byte	0x4
	.uleb128 .LVL57-1-.LVL56
	.uleb128 .LVL57-.LVL56
	.uleb128 0x1
	.byte	0x56
	.byte	0
.LVUS298:
	.uleb128 .LVU261
	.uleb128 .LVU266
	.uleb128 .LVU266
	.uleb128 .LVU267
	.uleb128 .LVU267
	.uleb128 .LVU267
.LLST298:
	.byte	0x6
	.quad	.LVL56
	.byte	0x4
	.uleb128 .LVL56-.LVL56
	.uleb128 .LVL56-.LVL56
	.uleb128 0x1
	.byte	0x51
	.byte	0x4
	.uleb128 .LVL56-.LVL56
	.uleb128 .LVL57-1-.LVL56
	.uleb128 0x3
	.byte	0x71
	.sleb128 -1
	.byte	0x9f
	.byte	0x4
	.uleb128 .LVL57-1-.LVL56
	.uleb128 .LVL57-.LVL56
	.uleb128 0x7
	.byte	0x91
	.sleb128 -152
	.byte	0x6
	.byte	0x31
	.byte	0x1c
	.byte	0x9f
	.byte	0
.LVUS301:
	.uleb128 .LVU262
	.uleb128 .LVU263
.LLST301:
	.byte	0x8
	.quad	.LVL56
	.uleb128 .LVL56-.LVL56
	.uleb128 0x6
	.byte	0xa0
	.long	.Ldebug_info0+62552
	.sleb128 0
	.byte	0
.LVUS302:
	.uleb128 .LVU262
	.uleb128 .LVU263
.LLST302:
	.byte	0x8
	.quad	.LVL56
	.uleb128 .LVL56-.LVL56
	.uleb128 0x6
	.byte	0xa0
	.long	.Ldebug_info0+62521
	.sleb128 0
	.byte	0
.LVUS303:
	.uleb128 .LVU268
	.uleb128 .LVU270
.LLST303:
	.byte	0x8
	.quad	.LVL58
	.uleb128 .LVL58-.LVL58
	.uleb128 0x6
	.byte	0xa0
	.long	.Ldebug_info0+62552
	.sleb128 0
	.byte	0
.LVUS309:
	.uleb128 .LVU277
	.uleb128 .LVU302
	.uleb128 .LVU302
	.uleb128 .LVU303
	.uleb128 .LVU303
	.uleb128 .LVU326
	.uleb128 .LVU910
	.uleb128 .LVU911
	.uleb128 .LVU916
	.uleb128 0
	.uleb128 0
	.uleb128 .LVU918
	.uleb128 .LVU955
	.uleb128 .LVU957
	.uleb128 .LVU957
	.uleb128 .LVU958
.LLST309:
	.byte	0x6
	.quad	.LVL58
	.byte	0x4
	.uleb128 .LVL58-.LVL58
	.uleb128 .LVL61-.LVL58
	.uleb128 0x3
	.byte	0x91
	.sleb128 -136
	.byte	0x4
	.uleb128 .LVL61-.LVL58
	.uleb128 .LVL62-.LVL58
	.uleb128 0xa
	.byte	0x91
	.sleb128 -120
	.byte	0x6
	.byte	0x91
	.sleb128 -160
	.byte	0x6
	.byte	0x22
	.byte	0x9f
	.byte	0x4
	.uleb128 .LVL62-.LVL58
	.uleb128 .LVL69-.LVL58
	.uleb128 0xd
	.byte	0x91
	.sleb128 -168
	.byte	0x6
	.byte	0x7c
	.sleb128 0
	.byte	0x1e
	.byte	0x91
	.sleb128 -120
	.byte	0x6
	.byte	0x22
	.byte	0x9f
	.byte	0x4
	.uleb128 .LVL203-.LVL58
	.uleb128 .LVL204-.LVL58
	.uleb128 0xd
	.byte	0x91
	.sleb128 -168
	.byte	0x6
	.byte	0x7c
	.sleb128 0
	.byte	0x1e
	.byte	0x91
	.sleb128 -120
	.byte	0x6
	.byte	0x22
	.byte	0x9f
	.byte	0x4
	.uleb128 .LVL210-.LVL58
	.uleb128 .LHOTE10-.LVL58
	.uleb128 0x3
	.byte	0x91
	.sleb128 -136
	.byte	0x6
	.quad	.LFSB4421
	.byte	0x4
	.uleb128 .LFSB4421-.LFSB4421
	.uleb128 .LVL211-.LFSB4421
	.uleb128 0x3
	.byte	0x91
	.sleb128 -136
	.byte	0x4
	.uleb128 .LVL217-.LFSB4421
	.uleb128 .LVL218-.LFSB4421
	.uleb128 0xd
	.byte	0x91
	.sleb128 -168
	.byte	0x6
	.byte	0x7c
	.sleb128 0
	.byte	0x1e
	.byte	0x91
	.sleb128 -120
	.byte	0x6
	.byte	0x22
	.byte	0x9f
	.byte	0x4
	.uleb128 .LVL218-.LFSB4421
	.uleb128 .LVL219-.LFSB4421
	.uleb128 0xd
	.byte	0x7d
	.sleb128 -1
	.byte	0x91
	.sleb128 -168
	.byte	0x6
	.byte	0x1e
	.byte	0x91
	.sleb128 -120
	.byte	0x6
	.byte	0x22
	.byte	0x9f
	.byte	0
.LVUS312:
	.uleb128 .LVU279
	.uleb128 .LVU286
	.uleb128 .LVU916
	.uleb128 0
	.uleb128 0
	.uleb128 .LVU918
.LLST312:
	.byte	0x6
	.quad	.LVL58
	.byte	0x4
	.uleb128 .LVL58-.LVL58
	.uleb128 .LVL59-.LVL58
	.uleb128 0x3
	.byte	0x91
	.sleb128 -136
	.byte	0x4
	.uleb128 .LVL210-.LVL58
	.uleb128 .LHOTE10-.LVL58
	.uleb128 0x3
	.byte	0x91
	.sleb128 -136
	.byte	0x8
	.quad	.LFSB4421
	.uleb128 .LVL211-.LFSB4421
	.uleb128 0x3
	.byte	0x91
	.sleb128 -136
	.byte	0
.LVUS317:
	.uleb128 .LVU286
	.uleb128 .LVU302
	.uleb128 .LVU302
	.uleb128 .LVU303
	.uleb128 .LVU303
	.uleb128 .LVU306
	.uleb128 .LVU910
	.uleb128 .LVU911
.LLST317:
	.byte	0x6
	.quad	.LVL59
	.byte	0x4
	.uleb128 .LVL59-.LVL59
	.uleb128 .LVL61-.LVL59
	.uleb128 0x3
	.byte	0x91
	.sleb128 -136
	.byte	0x4
	.uleb128 .LVL61-.LVL59
	.uleb128 .LVL62-.LVL59
	.uleb128 0xa
	.byte	0x91
	.sleb128 -120
	.byte	0x6
	.byte	0x91
	.sleb128 -160
	.byte	0x6
	.byte	0x22
	.byte	0x9f
	.byte	0x4
	.uleb128 .LVL62-.LVL59
	.uleb128 .LVL64-.LVL59
	.uleb128 0xd
	.byte	0x91
	.sleb128 -168
	.byte	0x6
	.byte	0x7c
	.sleb128 0
	.byte	0x1e
	.byte	0x91
	.sleb128 -120
	.byte	0x6
	.byte	0x22
	.byte	0x9f
	.byte	0x4
	.uleb128 .LVL203-.LVL59
	.uleb128 .LVL204-.LVL59
	.uleb128 0xd
	.byte	0x91
	.sleb128 -168
	.byte	0x6
	.byte	0x7c
	.sleb128 0
	.byte	0x1e
	.byte	0x91
	.sleb128 -120
	.byte	0x6
	.byte	0x22
	.byte	0x9f
	.byte	0
.LVUS323:
	.uleb128 .LVU293
	.uleb128 .LVU302
	.uleb128 .LVU302
	.uleb128 .LVU303
	.uleb128 .LVU303
	.uleb128 .LVU306
	.uleb128 .LVU910
	.uleb128 .LVU911
.LLST323:
	.byte	0x6
	.quad	.LVL59
	.byte	0x4
	.uleb128 .LVL59-.LVL59
	.uleb128 .LVL61-.LVL59
	.uleb128 0x3
	.byte	0x91
	.sleb128 -136
	.byte	0x4
	.uleb128 .LVL61-.LVL59
	.uleb128 .LVL62-.LVL59
	.uleb128 0xa
	.byte	0x91
	.sleb128 -120
	.byte	0x6
	.byte	0x91
	.sleb128 -160
	.byte	0x6
	.byte	0x22
	.byte	0x9f
	.byte	0x4
	.uleb128 .LVL62-.LVL59
	.uleb128 .LVL64-.LVL59
	.uleb128 0xd
	.byte	0x91
	.sleb128 -168
	.byte	0x6
	.byte	0x7c
	.sleb128 0
	.byte	0x1e
	.byte	0x91
	.sleb128 -120
	.byte	0x6
	.byte	0x22
	.byte	0x9f
	.byte	0x4
	.uleb128 .LVL203-.LVL59
	.uleb128 .LVL204-.LVL59
	.uleb128 0xd
	.byte	0x91
	.sleb128 -168
	.byte	0x6
	.byte	0x7c
	.sleb128 0
	.byte	0x1e
	.byte	0x91
	.sleb128 -120
	.byte	0x6
	.byte	0x22
	.byte	0x9f
	.byte	0
.LVUS325:
	.uleb128 .LVU295
	.uleb128 .LVU302
	.uleb128 .LVU302
	.uleb128 .LVU303
	.uleb128 .LVU303
	.uleb128 .LVU306
	.uleb128 .LVU910
	.uleb128 .LVU911
.LLST325:
	.byte	0x6
	.quad	.LVL59
	.byte	0x4
	.uleb128 .LVL59-.LVL59
	.uleb128 .LVL61-.LVL59
	.uleb128 0x3
	.byte	0x91
	.sleb128 -136
	.byte	0x4
	.uleb128 .LVL61-.LVL59
	.uleb128 .LVL62-.LVL59
	.uleb128 0xa
	.byte	0x91
	.sleb128 -120
	.byte	0x6
	.byte	0x91
	.sleb128 -160
	.byte	0x6
	.byte	0x22
	.byte	0x9f
	.byte	0x4
	.uleb128 .LVL62-.LVL59
	.uleb128 .LVL64-.LVL59
	.uleb128 0xd
	.byte	0x91
	.sleb128 -168
	.byte	0x6
	.byte	0x7c
	.sleb128 0
	.byte	0x1e
	.byte	0x91
	.sleb128 -120
	.byte	0x6
	.byte	0x22
	.byte	0x9f
	.byte	0x4
	.uleb128 .LVL203-.LVL59
	.uleb128 .LVL204-.LVL59
	.uleb128 0xd
	.byte	0x91
	.sleb128 -168
	.byte	0x6
	.byte	0x7c
	.sleb128 0
	.byte	0x1e
	.byte	0x91
	.sleb128 -120
	.byte	0x6
	.byte	0x22
	.byte	0x9f
	.byte	0
.LVUS327:
	.uleb128 .LVU298
	.uleb128 .LVU302
	.uleb128 .LVU302
	.uleb128 .LVU303
	.uleb128 .LVU303
	.uleb128 .LVU306
	.uleb128 .LVU910
	.uleb128 .LVU911
.LLST327:
	.byte	0x6
	.quad	.LVL60
	.byte	0x4
	.uleb128 .LVL60-.LVL60
	.uleb128 .LVL61-.LVL60
	.uleb128 0x3
	.byte	0x91
	.sleb128 -136
	.byte	0x4
	.uleb128 .LVL61-.LVL60
	.uleb128 .LVL62-.LVL60
	.uleb128 0xa
	.byte	0x91
	.sleb128 -120
	.byte	0x6
	.byte	0x91
	.sleb128 -160
	.byte	0x6
	.byte	0x22
	.byte	0x9f
	.byte	0x4
	.uleb128 .LVL62-.LVL60
	.uleb128 .LVL64-.LVL60
	.uleb128 0xd
	.byte	0x91
	.sleb128 -168
	.byte	0x6
	.byte	0x7c
	.sleb128 0
	.byte	0x1e
	.byte	0x91
	.sleb128 -120
	.byte	0x6
	.byte	0x22
	.byte	0x9f
	.byte	0x4
	.uleb128 .LVL203-.LVL60
	.uleb128 .LVL204-.LVL60
	.uleb128 0xd
	.byte	0x91
	.sleb128 -168
	.byte	0x6
	.byte	0x7c
	.sleb128 0
	.byte	0x1e
	.byte	0x91
	.sleb128 -120
	.byte	0x6
	.byte	0x22
	.byte	0x9f
	.byte	0
.LVUS329:
	.uleb128 .LVU301
	.uleb128 .LVU306
	.uleb128 .LVU910
	.uleb128 .LVU911
.LLST329:
	.byte	0x6
	.quad	.LVL60
	.byte	0x4
	.uleb128 .LVL60-.LVL60
	.uleb128 .LVL64-.LVL60
	.uleb128 0x2
	.byte	0x30
	.byte	0x9f
	.byte	0x4
	.uleb128 .LVL203-.LVL60
	.uleb128 .LVL204-.LVL60
	.uleb128 0x2
	.byte	0x30
	.byte	0x9f
	.byte	0
.LVUS330:
	.uleb128 .LVU300
	.uleb128 .LVU302
	.uleb128 .LVU302
	.uleb128 .LVU303
	.uleb128 .LVU303
	.uleb128 .LVU306
	.uleb128 .LVU910
	.uleb128 .LVU911
.LLST330:
	.byte	0x6
	.quad	.LVL60
	.byte	0x4
	.uleb128 .LVL60-.LVL60
	.uleb128 .LVL61-.LVL60
	.uleb128 0x3
	.byte	0x91
	.sleb128 -136
	.byte	0x4
	.uleb128 .LVL61-.LVL60
	.uleb128 .LVL62-.LVL60
	.uleb128 0xa
	.byte	0x91
	.sleb128 -120
	.byte	0x6
	.byte	0x91
	.sleb128 -160
	.byte	0x6
	.byte	0x22
	.byte	0x9f
	.byte	0x4
	.uleb128 .LVL62-.LVL60
	.uleb128 .LVL64-.LVL60
	.uleb128 0xd
	.byte	0x91
	.sleb128 -168
	.byte	0x6
	.byte	0x7c
	.sleb128 0
	.byte	0x1e
	.byte	0x91
	.sleb128 -120
	.byte	0x6
	.byte	0x22
	.byte	0x9f
	.byte	0x4
	.uleb128 .LVL203-.LVL60
	.uleb128 .LVL204-.LVL60
	.uleb128 0xd
	.byte	0x91
	.sleb128 -168
	.byte	0x6
	.byte	0x7c
	.sleb128 0
	.byte	0x1e
	.byte	0x91
	.sleb128 -120
	.byte	0x6
	.byte	0x22
	.byte	0x9f
	.byte	0
.LVUS332:
	.uleb128 .LVU306
	.uleb128 .LVU326
.LLST332:
	.byte	0x8
	.quad	.LVL64
	.uleb128 .LVL69-.LVL64
	.uleb128 0xd
	.byte	0x91
	.sleb128 -168
	.byte	0x6
	.byte	0x7c
	.sleb128 0
	.byte	0x1e
	.byte	0x91
	.sleb128 -120
	.byte	0x6
	.byte	0x22
	.byte	0x9f
	.byte	0
.LVUS333:
	.uleb128 .LVU308
	.uleb128 .LVU326
	.uleb128 .LVU326
	.uleb128 .LVU326
.LLST333:
	.byte	0x6
	.quad	.LVL64
	.byte	0x4
	.uleb128 .LVL64-.LVL64
	.uleb128 .LVL69-1-.LVL64
	.uleb128 0x1
	.byte	0x50
	.byte	0x4
	.uleb128 .LVL69-1-.LVL64
	.uleb128 .LVL69-.LVL64
	.uleb128 0x3
	.byte	0x91
	.sleb128 -184
	.byte	0
.LVUS334:
	.uleb128 .LVU308
	.uleb128 .LVU326
.LLST334:
	.byte	0x8
	.quad	.LVL64
	.uleb128 .LVL69-.LVL64
	.uleb128 0xd
	.byte	0x91
	.sleb128 -168
	.byte	0x6
	.byte	0x7c
	.sleb128 0
	.byte	0x1e
	.byte	0x91
	.sleb128 -120
	.byte	0x6
	.byte	0x22
	.byte	0x9f
	.byte	0
.LVUS335:
	.uleb128 .LVU309
	.uleb128 .LVU326
	.uleb128 .LVU326
	.uleb128 .LVU326
.LLST335:
	.byte	0x6
	.quad	.LVL64
	.byte	0x4
	.uleb128 .LVL64-.LVL64
	.uleb128 .LVL69-1-.LVL64
	.uleb128 0x1
	.byte	0x50
	.byte	0x4
	.uleb128 .LVL69-1-.LVL64
	.uleb128 .LVL69-.LVL64
	.uleb128 0x3
	.byte	0x91
	.sleb128 -184
	.byte	0
.LVUS336:
	.uleb128 .LVU309
	.uleb128 .LVU326
.LLST336:
	.byte	0x8
	.quad	.LVL64
	.uleb128 .LVL69-.LVL64
	.uleb128 0xd
	.byte	0x91
	.sleb128 -168
	.byte	0x6
	.byte	0x7c
	.sleb128 0
	.byte	0x1e
	.byte	0x91
	.sleb128 -120
	.byte	0x6
	.byte	0x22
	.byte	0x9f
	.byte	0
.LVUS337:
	.uleb128 .LVU310
	.uleb128 .LVU326
.LLST337:
	.byte	0x8
	.quad	.LVL64
	.uleb128 .LVL69-.LVL64
	.uleb128 0x2
	.byte	0x31
	.byte	0x9f
	.byte	0
.LVUS339:
	.uleb128 .LVU310
	.uleb128 .LVU326
	.uleb128 .LVU326
	.uleb128 .LVU326
.LLST339:
	.byte	0x6
	.quad	.LVL64
	.byte	0x4
	.uleb128 .LVL64-.LVL64
	.uleb128 .LVL69-1-.LVL64
	.uleb128 0x1
	.byte	0x50
	.byte	0x4
	.uleb128 .LVL69-1-.LVL64
	.uleb128 .LVL69-.LVL64
	.uleb128 0x3
	.byte	0x91
	.sleb128 -184
	.byte	0
.LVUS340:
	.uleb128 .LVU310
	.uleb128 .LVU326
.LLST340:
	.byte	0x8
	.quad	.LVL64
	.uleb128 .LVL69-.LVL64
	.uleb128 0xd
	.byte	0x91
	.sleb128 -168
	.byte	0x6
	.byte	0x7c
	.sleb128 0
	.byte	0x1e
	.byte	0x91
	.sleb128 -120
	.byte	0x6
	.byte	0x22
	.byte	0x9f
	.byte	0
.LVUS342:
	.uleb128 .LVU311
	.uleb128 .LVU315
	.uleb128 .LVU315
	.uleb128 .LVU324
	.uleb128 .LVU324
	.uleb128 .LVU326
	.uleb128 .LVU326
	.uleb128 .LVU326
.LLST342:
	.byte	0x6
	.quad	.LVL64
	.byte	0x4
	.uleb128 .LVL64-.LVL64
	.uleb128 .LVL65-.LVL64
	.uleb128 0x1
	.byte	0x50
	.byte	0x4
	.uleb128 .LVL65-.LVL64
	.uleb128 .LVL67-.LVL64
	.uleb128 0x3
	.byte	0x70
	.sleb128 4
	.byte	0x9f
	.byte	0x4
	.uleb128 .LVL67-.LVL64
	.uleb128 .LVL69-1-.LVL64
	.uleb128 0x1
	.byte	0x55
	.byte	0x4
	.uleb128 .LVL69-1-.LVL64
	.uleb128 .LVL69-.LVL64
	.uleb128 0x7
	.byte	0x91
	.sleb128 -184
	.byte	0x6
	.byte	0x23
	.uleb128 0x4
	.byte	0x9f
	.byte	0
.LVUS343:
	.uleb128 .LVU311
	.uleb128 .LVU326
.LLST343:
	.byte	0x8
	.quad	.LVL64
	.uleb128 .LVL69-.LVL64
	.uleb128 0xd
	.byte	0x91
	.sleb128 -168
	.byte	0x6
	.byte	0x7c
	.sleb128 0
	.byte	0x1e
	.byte	0x91
	.sleb128 -120
	.byte	0x6
	.byte	0x22
	.byte	0x9f
	.byte	0
.LVUS345:
	.uleb128 .LVU312
	.uleb128 .LVU326
	.uleb128 .LVU326
	.uleb128 .LVU339
	.uleb128 .LVU875
	.uleb128 .LVU888
	.uleb128 .LVU888
	.uleb128 .LVU890
	.uleb128 .LVU907
	.uleb128 .LVU909
.LLST345:
	.byte	0x6
	.quad	.LVL64
	.byte	0x4
	.uleb128 .LVL64-.LVL64
	.uleb128 .LVL69-1-.LVL64
	.uleb128 0x1
	.byte	0x50
	.byte	0x4
	.uleb128 .LVL69-1-.LVL64
	.uleb128 .LVL70-.LVL64
	.uleb128 0x3
	.byte	0x91
	.sleb128 -184
	.byte	0x4
	.uleb128 .LVL194-.LVL64
	.uleb128 .LVL195-.LVL64
	.uleb128 0x1
	.byte	0x50
	.byte	0x4
	.uleb128 .LVL195-.LVL64
	.uleb128 .LVL196-.LVL64
	.uleb128 0x3
	.byte	0x91
	.sleb128 -184
	.byte	0x4
	.uleb128 .LVL201-.LVL64
	.uleb128 .LVL202-.LVL64
	.uleb128 0x3
	.byte	0x91
	.sleb128 -184
	.byte	0
.LVUS347:
	.uleb128 .LVU315
	.uleb128 .LVU324
	.uleb128 .LVU324
	.uleb128 .LVU326
	.uleb128 .LVU326
	.uleb128 .LVU326
.LLST347:
	.byte	0x6
	.quad	.LVL65
	.byte	0x4
	.uleb128 .LVL65-.LVL65
	.uleb128 .LVL67-.LVL65
	.uleb128 0x3
	.byte	0x70
	.sleb128 4
	.byte	0x9f
	.byte	0x4
	.uleb128 .LVL67-.LVL65
	.uleb128 .LVL69-1-.LVL65
	.uleb128 0x1
	.byte	0x55
	.byte	0x4
	.uleb128 .LVL69-1-.LVL65
	.uleb128 .LVL69-.LVL65
	.uleb128 0x7
	.byte	0x91
	.sleb128 -184
	.byte	0x6
	.byte	0x23
	.uleb128 0x4
	.byte	0x9f
	.byte	0
.LVUS348:
	.uleb128 .LVU315
	.uleb128 .LVU326
.LLST348:
	.byte	0x8
	.quad	.LVL65
	.uleb128 .LVL69-.LVL65
	.uleb128 0xf
	.byte	0x91
	.sleb128 -168
	.byte	0x6
	.byte	0x7c
	.sleb128 0
	.byte	0x1e
	.byte	0x91
	.sleb128 -120
	.byte	0x6
	.byte	0x22
	.byte	0x31
	.byte	0x1c
	.byte	0x9f
	.byte	0
.LVUS349:
	.uleb128 .LVU315
	.uleb128 .LVU326
	.uleb128 .LVU326
	.uleb128 .LVU326
.LLST349:
	.byte	0x6
	.quad	.LVL65
	.byte	0x4
	.uleb128 .LVL65-.LVL65
	.uleb128 .LVL69-1-.LVL65
	.uleb128 0x1
	.byte	0x50
	.byte	0x4
	.uleb128 .LVL69-1-.LVL65
	.uleb128 .LVL69-.LVL65
	.uleb128 0x3
	.byte	0x91
	.sleb128 -184
	.byte	0
.LVUS350:
	.uleb128 .LVU317
	.uleb128 .LVU324
	.uleb128 .LVU324
	.uleb128 .LVU326
	.uleb128 .LVU326
	.uleb128 .LVU326
.LLST350:
	.byte	0x6
	.quad	.LVL65
	.byte	0x4
	.uleb128 .LVL65-.LVL65
	.uleb128 .LVL67-.LVL65
	.uleb128 0x3
	.byte	0x70
	.sleb128 4
	.byte	0x9f
	.byte	0x4
	.uleb128 .LVL67-.LVL65
	.uleb128 .LVL69-1-.LVL65
	.uleb128 0x1
	.byte	0x55
	.byte	0x4
	.uleb128 .LVL69-1-.LVL65
	.uleb128 .LVL69-.LVL65
	.uleb128 0x7
	.byte	0x91
	.sleb128 -184
	.byte	0x6
	.byte	0x23
	.uleb128 0x4
	.byte	0x9f
	.byte	0
.LVUS351:
	.uleb128 .LVU317
	.uleb128 .LVU326
.LLST351:
	.byte	0x8
	.quad	.LVL65
	.uleb128 .LVL69-.LVL65
	.uleb128 0xf
	.byte	0x91
	.sleb128 -168
	.byte	0x6
	.byte	0x7c
	.sleb128 0
	.byte	0x1e
	.byte	0x91
	.sleb128 -120
	.byte	0x6
	.byte	0x22
	.byte	0x31
	.byte	0x1c
	.byte	0x9f
	.byte	0
.LVUS352:
	.uleb128 .LVU317
	.uleb128 .LVU326
	.uleb128 .LVU326
	.uleb128 .LVU326
.LLST352:
	.byte	0x6
	.quad	.LVL65
	.byte	0x4
	.uleb128 .LVL65-.LVL65
	.uleb128 .LVL69-1-.LVL65
	.uleb128 0x1
	.byte	0x50
	.byte	0x4
	.uleb128 .LVL69-1-.LVL65
	.uleb128 .LVL69-.LVL65
	.uleb128 0x3
	.byte	0x91
	.sleb128 -184
	.byte	0
.LVUS353:
	.uleb128 .LVU318
	.uleb128 .LVU339
	.uleb128 .LVU875
	.uleb128 .LVU890
	.uleb128 .LVU907
	.uleb128 .LVU909
.LLST353:
	.byte	0x6
	.quad	.LVL65
	.byte	0x4
	.uleb128 .LVL65-.LVL65
	.uleb128 .LVL70-.LVL65
	.uleb128 0xf
	.byte	0x91
	.sleb128 -168
	.byte	0x6
	.byte	0x7c
	.sleb128 0
	.byte	0x1e
	.byte	0x91
	.sleb128 -120
	.byte	0x6
	.byte	0x22
	.byte	0x31
	.byte	0x1c
	.byte	0x9f
	.byte	0x4
	.uleb128 .LVL194-.LVL65
	.uleb128 .LVL196-.LVL65
	.uleb128 0xf
	.byte	0x91
	.sleb128 -168
	.byte	0x6
	.byte	0x7c
	.sleb128 0
	.byte	0x1e
	.byte	0x91
	.sleb128 -120
	.byte	0x6
	.byte	0x22
	.byte	0x31
	.byte	0x1c
	.byte	0x9f
	.byte	0x4
	.uleb128 .LVL201-.LVL65
	.uleb128 .LVL202-.LVL65
	.uleb128 0xf
	.byte	0x91
	.sleb128 -168
	.byte	0x6
	.byte	0x7c
	.sleb128 0
	.byte	0x1e
	.byte	0x91
	.sleb128 -120
	.byte	0x6
	.byte	0x22
	.byte	0x31
	.byte	0x1c
	.byte	0x9f
	.byte	0
.LVUS354:
	.uleb128 .LVU318
	.uleb128 .LVU322
	.uleb128 .LVU322
	.uleb128 .LVU325
	.uleb128 .LVU325
	.uleb128 .LVU326
.LLST354:
	.byte	0x6
	.quad	.LVL65
	.byte	0x4
	.uleb128 .LVL65-.LVL65
	.uleb128 .LVL66-.LVL65
	.uleb128 0x6
	.byte	0x70
	.sleb128 0
	.byte	0x71
	.sleb128 0
	.byte	0x22
	.byte	0x9f
	.byte	0x4
	.uleb128 .LVL66-.LVL65
	.uleb128 .LVL68-.LVL65
	.uleb128 0x8
	.byte	0x70
	.sleb128 0
	.byte	0x91
	.sleb128 -136
	.byte	0x6
	.byte	0x22
	.byte	0x9f
	.byte	0x4
	.uleb128 .LVL68-.LVL65
	.uleb128 .LVL69-1-.LVL65
	.uleb128 0x8
	.byte	0x70
	.sleb128 0
	.byte	0x71
	.sleb128 0
	.byte	0x22
	.byte	0x23
	.uleb128 0x4
	.byte	0x9f
	.byte	0
.LVUS356:
	.uleb128 .LVU318
	.uleb128 .LVU324
	.uleb128 .LVU324
	.uleb128 .LVU326
	.uleb128 .LVU326
	.uleb128 .LVU326
.LLST356:
	.byte	0x6
	.quad	.LVL65
	.byte	0x4
	.uleb128 .LVL65-.LVL65
	.uleb128 .LVL67-.LVL65
	.uleb128 0x3
	.byte	0x70
	.sleb128 4
	.byte	0x9f
	.byte	0x4
	.uleb128 .LVL67-.LVL65
	.uleb128 .LVL69-1-.LVL65
	.uleb128 0x1
	.byte	0x55
	.byte	0x4
	.uleb128 .LVL69-1-.LVL65
	.uleb128 .LVL69-.LVL65
	.uleb128 0x7
	.byte	0x91
	.sleb128 -184
	.byte	0x6
	.byte	0x23
	.uleb128 0x4
	.byte	0x9f
	.byte	0
.LVUS358:
	.uleb128 .LVU318
	.uleb128 .LVU326
	.uleb128 .LVU326
	.uleb128 .LVU326
.LLST358:
	.byte	0x6
	.quad	.LVL65
	.byte	0x4
	.uleb128 .LVL65-.LVL65
	.uleb128 .LVL69-1-.LVL65
	.uleb128 0x1
	.byte	0x50
	.byte	0x4
	.uleb128 .LVL69-1-.LVL65
	.uleb128 .LVL69-.LVL65
	.uleb128 0x3
	.byte	0x91
	.sleb128 -184
	.byte	0
.LVUS360:
	.uleb128 .LVU319
	.uleb128 .LVU324
	.uleb128 .LVU324
	.uleb128 .LVU326
	.uleb128 .LVU326
	.uleb128 .LVU326
.LLST360:
	.byte	0x6
	.quad	.LVL65
	.byte	0x4
	.uleb128 .LVL65-.LVL65
	.uleb128 .LVL67-.LVL65
	.uleb128 0x3
	.byte	0x70
	.sleb128 4
	.byte	0x9f
	.byte	0x4
	.uleb128 .LVL67-.LVL65
	.uleb128 .LVL69-1-.LVL65
	.uleb128 0x1
	.byte	0x55
	.byte	0x4
	.uleb128 .LVL69-1-.LVL65
	.uleb128 .LVL69-.LVL65
	.uleb128 0x7
	.byte	0x91
	.sleb128 -184
	.byte	0x6
	.byte	0x23
	.uleb128 0x4
	.byte	0x9f
	.byte	0
.LVUS361:
	.uleb128 .LVU319
	.uleb128 .LVU322
	.uleb128 .LVU322
	.uleb128 .LVU325
	.uleb128 .LVU325
	.uleb128 .LVU326
.LLST361:
	.byte	0x6
	.quad	.LVL65
	.byte	0x4
	.uleb128 .LVL65-.LVL65
	.uleb128 .LVL66-.LVL65
	.uleb128 0x6
	.byte	0x70
	.sleb128 0
	.byte	0x71
	.sleb128 0
	.byte	0x22
	.byte	0x9f
	.byte	0x4
	.uleb128 .LVL66-.LVL65
	.uleb128 .LVL68-.LVL65
	.uleb128 0x8
	.byte	0x70
	.sleb128 0
	.byte	0x91
	.sleb128 -136
	.byte	0x6
	.byte	0x22
	.byte	0x9f
	.byte	0x4
	.uleb128 .LVL68-.LVL65
	.uleb128 .LVL69-1-.LVL65
	.uleb128 0x8
	.byte	0x70
	.sleb128 0
	.byte	0x71
	.sleb128 0
	.byte	0x22
	.byte	0x23
	.uleb128 0x4
	.byte	0x9f
	.byte	0
.LVUS362:
	.uleb128 .LVU319
	.uleb128 .LVU326
	.uleb128 .LVU326
	.uleb128 .LVU326
.LLST362:
	.byte	0x6
	.quad	.LVL65
	.byte	0x4
	.uleb128 .LVL65-.LVL65
	.uleb128 .LVL69-1-.LVL65
	.uleb128 0x1
	.byte	0x50
	.byte	0x4
	.uleb128 .LVL69-1-.LVL65
	.uleb128 .LVL69-.LVL65
	.uleb128 0x3
	.byte	0x91
	.sleb128 -184
	.byte	0
.LVUS363:
	.uleb128 .LVU320
	.uleb128 .LVU339
	.uleb128 .LVU875
	.uleb128 .LVU890
	.uleb128 .LVU907
	.uleb128 .LVU909
.LLST363:
	.byte	0x6
	.quad	.LVL65
	.byte	0x4
	.uleb128 .LVL65-.LVL65
	.uleb128 .LVL70-.LVL65
	.uleb128 0x2
	.byte	0x31
	.byte	0x9f
	.byte	0x4
	.uleb128 .LVL194-.LVL65
	.uleb128 .LVL196-.LVL65
	.uleb128 0x2
	.byte	0x31
	.byte	0x9f
	.byte	0x4
	.uleb128 .LVL201-.LVL65
	.uleb128 .LVL202-.LVL65
	.uleb128 0x2
	.byte	0x31
	.byte	0x9f
	.byte	0
.LVUS364:
	.uleb128 .LVU320
	.uleb128 .LVU326
.LLST364:
	.byte	0x8
	.quad	.LVL65
	.uleb128 .LVL69-.LVL65
	.uleb128 0x6
	.byte	0x9e
	.uleb128 0x4
	.long	0
	.byte	0
.LVUS366:
	.uleb128 .LVU312
	.uleb128 .LVU315
.LLST366:
	.byte	0x8
	.quad	.LVL64
	.uleb128 .LVL65-.LVL64
	.uleb128 0x1
	.byte	0x50
	.byte	0
.LVUS470:
	.uleb128 .LVU620
	.uleb128 .LVU622
	.uleb128 .LVU905
	.uleb128 .LVU907
.LLST470:
	.byte	0x6
	.quad	.LVL143
	.byte	0x4
	.uleb128 .LVL143-.LVL143
	.uleb128 .LVL144-.LVL143
	.uleb128 0x7
	.byte	0x91
	.sleb128 -160
	.byte	0x6
	.byte	0x34
	.byte	0x1b
	.byte	0x9f
	.byte	0x4
	.uleb128 .LVL200-.LVL143
	.uleb128 .LVL201-.LVL143
	.uleb128 0x7
	.byte	0x91
	.sleb128 -160
	.byte	0x6
	.byte	0x34
	.byte	0x1b
	.byte	0x9f
	.byte	0
.LVUS471:
	.uleb128 .LVU620
	.uleb128 .LVU622
	.uleb128 .LVU905
	.uleb128 .LVU907
.LLST471:
	.byte	0x6
	.quad	.LVL143
	.byte	0x4
	.uleb128 .LVL143-.LVL143
	.uleb128 .LVL144-.LVL143
	.uleb128 0x3
	.byte	0x91
	.sleb128 -184
	.byte	0x4
	.uleb128 .LVL200-.LVL143
	.uleb128 .LVL201-.LVL143
	.uleb128 0x3
	.byte	0x91
	.sleb128 -184
	.byte	0
.LVUS473:
	.uleb128 .LVU622
	.uleb128 .LVU625
.LLST473:
	.byte	0x8
	.quad	.LVL144
	.uleb128 .LVL145-.LVL144
	.uleb128 0x3
	.byte	0x91
	.sleb128 -184
	.byte	0
.LVUS474:
	.uleb128 .LVU623
	.uleb128 .LVU625
.LLST474:
	.byte	0x8
	.quad	.LVL144
	.uleb128 .LVL145-.LVL144
	.uleb128 0x3
	.byte	0x91
	.sleb128 -184
	.byte	0
.LVUS475:
	.uleb128 .LVU636
	.uleb128 .LVU638
.LLST475:
	.byte	0x8
	.quad	.LVL145
	.uleb128 .LVL146-.LVL145
	.uleb128 0x1
	.byte	0x56
	.byte	0
.LVUS476:
	.uleb128 .LVU638
	.uleb128 .LVU641
.LLST476:
	.byte	0x8
	.quad	.LVL146
	.uleb128 .LVL147-.LVL146
	.uleb128 0x1
	.byte	0x56
	.byte	0
.LVUS477:
	.uleb128 .LVU639
	.uleb128 .LVU641
.LLST477:
	.byte	0x8
	.quad	.LVL146
	.uleb128 .LVL147-.LVL146
	.uleb128 0x1
	.byte	0x56
	.byte	0
.LVUS478:
	.uleb128 .LVU652
	.uleb128 .LVU657
.LLST478:
	.byte	0x8
	.quad	.LVL147
	.uleb128 .LVL149-.LVL147
	.uleb128 0x1
	.byte	0x5f
	.byte	0
.LVUS479:
	.uleb128 .LVU654
	.uleb128 .LVU657
.LLST479:
	.byte	0x8
	.quad	.LVL148
	.uleb128 .LVL149-.LVL148
	.uleb128 0x1
	.byte	0x5f
	.byte	0
.LVUS480:
	.uleb128 .LVU655
	.uleb128 .LVU657
.LLST480:
	.byte	0x8
	.quad	.LVL148
	.uleb128 .LVL149-.LVL148
	.uleb128 0x1
	.byte	0x5f
	.byte	0
.LVUS483:
	.uleb128 .LVU927
	.uleb128 .LVU936
.LLST483:
	.byte	0x8
	.quad	.LVL212
	.uleb128 .LVL214-.LVL212
	.uleb128 0x7
	.byte	0x91
	.sleb128 -128
	.byte	0x6
	.byte	0x34
	.byte	0x1b
	.byte	0x9f
	.byte	0
.LVUS484:
	.uleb128 .LVU927
	.uleb128 .LVU932
.LLST484:
	.byte	0x8
	.quad	.LVL212
	.uleb128 .LVL214-.LVL212
	.uleb128 0x1
	.byte	0x5f
	.byte	0
.LVUS485:
	.uleb128 .LVU927
	.uleb128 .LVU932
.LLST485:
	.byte	0x8
	.quad	.LVL212
	.uleb128 .LVL214-.LVL212
	.uleb128 0x7
	.byte	0x91
	.sleb128 -128
	.byte	0x6
	.byte	0x34
	.byte	0x1b
	.byte	0x9f
	.byte	0
.LVUS486:
	.uleb128 .LVU929
	.uleb128 .LVU932
.LLST486:
	.byte	0x8
	.quad	.LVL213
	.uleb128 .LVL214-.LVL213
	.uleb128 0x1
	.byte	0x5f
	.byte	0
.LVUS487:
	.uleb128 .LVU929
	.uleb128 .LVU932
.LLST487:
	.byte	0x8
	.quad	.LVL213
	.uleb128 .LVL214-.LVL213
	.uleb128 0x7
	.byte	0x91
	.sleb128 -128
	.byte	0x6
	.byte	0x34
	.byte	0x1b
	.byte	0x9f
	.byte	0
.LVUS488:
	.uleb128 .LVU930
	.uleb128 .LVU932
.LLST488:
	.byte	0x8
	.quad	.LVL213
	.uleb128 .LVL214-.LVL213
	.uleb128 0x1
	.byte	0x5f
	.byte	0
.LVUS489:
	.uleb128 .LVU930
	.uleb128 .LVU932
.LLST489:
	.byte	0x8
	.quad	.LVL213
	.uleb128 .LVL214-.LVL213
	.uleb128 0x7
	.byte	0x91
	.sleb128 -128
	.byte	0x6
	.byte	0x34
	.byte	0x1b
	.byte	0x9f
	.byte	0
.LVUS491:
	.uleb128 .LVU936
	.uleb128 .LVU954
.LLST491:
	.byte	0x8
	.quad	.LVL214
	.uleb128 .LVL216-.LVL214
	.uleb128 0x6
	.byte	0xa0
	.long	.Ldebug_info0+51747
	.sleb128 0
	.byte	0
.LVUS492:
	.uleb128 .LVU938
	.uleb128 .LVU939
.LLST492:
	.byte	0x8
	.quad	.LVL214
	.uleb128 .LVL214-.LVL214
	.uleb128 0x6
	.byte	0xa0
	.long	.Ldebug_info0+51747
	.sleb128 0
	.byte	0
.LVUS493:
	.uleb128 .LVU939
	.uleb128 .LVU941
.LLST493:
	.byte	0x8
	.quad	.LVL214
	.uleb128 .LVL214-.LVL214
	.uleb128 0x6
	.byte	0xa0
	.long	.Ldebug_info0+51747
	.sleb128 0
	.byte	0
.LVUS495:
	.uleb128 .LVU941
	.uleb128 .LVU954
.LLST495:
	.byte	0x8
	.quad	.LVL214
	.uleb128 .LVL216-.LVL214
	.uleb128 0x6
	.byte	0xa0
	.long	.Ldebug_info0+51747
	.sleb128 0
	.byte	0
.LVUS498:
	.uleb128 .LVU943
	.uleb128 .LVU950
.LLST498:
	.byte	0x8
	.quad	.LVL214
	.uleb128 .LVL216-.LVL214
	.uleb128 0x6
	.byte	0xa0
	.long	.Ldebug_info0+51747
	.sleb128 0
	.byte	0
.LVUS499:
	.uleb128 .LVU943
	.uleb128 .LVU950
.LLST499:
	.byte	0x8
	.quad	.LVL214
	.uleb128 .LVL216-.LVL214
	.uleb128 0x3
	.byte	0x91
	.sleb128 -192
	.byte	0
.LVUS501:
	.uleb128 .LVU946
	.uleb128 .LVU950
.LLST501:
	.byte	0x8
	.quad	.LVL215
	.uleb128 .LVL216-.LVL215
	.uleb128 0x6
	.byte	0xa0
	.long	.Ldebug_info0+51747
	.sleb128 0
	.byte	0
.LVUS502:
	.uleb128 .LVU945
	.uleb128 .LVU950
.LLST502:
	.byte	0x8
	.quad	.LVL215
	.uleb128 .LVL216-.LVL215
	.uleb128 0x3
	.byte	0x91
	.sleb128 -192
	.byte	0
.LVUS504:
	.uleb128 .LVU946
	.uleb128 .LVU950
.LLST504:
	.byte	0x8
	.quad	.LVL215
	.uleb128 .LVL216-.LVL215
	.uleb128 0x3
	.byte	0x91
	.sleb128 -192
	.byte	0
.LVUS506:
	.uleb128 .LVU947
	.uleb128 .LVU950
.LLST506:
	.byte	0x8
	.quad	.LVL215
	.uleb128 .LVL216-.LVL215
	.uleb128 0x3
	.byte	0x91
	.sleb128 -192
	.byte	0
.LVUS507:
	.uleb128 .LVU950
	.uleb128 .LVU954
.LLST507:
	.byte	0x8
	.quad	.LVL216
	.uleb128 .LVL216-.LVL216
	.uleb128 0x6
	.byte	0xa0
	.long	.Ldebug_info0+51747
	.sleb128 0
	.byte	0
.LVUS508:
	.uleb128 .LVU952
	.uleb128 .LVU954
.LLST508:
	.byte	0x8
	.quad	.LVL216
	.uleb128 .LVL216-.LVL216
	.uleb128 0x6
	.byte	0xa0
	.long	.Ldebug_info0+51747
	.sleb128 0
	.byte	0
.LVUS509:
	.uleb128 .LVU953
	.uleb128 .LVU954
.LLST509:
	.byte	0x8
	.quad	.LVL216
	.uleb128 .LVL216-.LVL216
	.uleb128 0x6
	.byte	0xa0
	.long	.Ldebug_info0+51747
	.sleb128 0
	.byte	0
.LVUS512:
	.uleb128 .LVU965
	.uleb128 .LVU975
.LLST512:
	.byte	0x8
	.quad	.LVL219
	.uleb128 .LVL222-.LVL219
	.uleb128 0x7
	.byte	0x91
	.sleb128 -152
	.byte	0x6
	.byte	0x34
	.byte	0x1b
	.byte	0x9f
	.byte	0
.LVUS513:
	.uleb128 .LVU965
	.uleb128 .LVU970
.LLST513:
	.byte	0x8
	.quad	.LVL219
	.uleb128 .LVL221-.LVL219
	.uleb128 0x1
	.byte	0x56
	.byte	0
.LVUS514:
	.uleb128 .LVU965
	.uleb128 .LVU970
.LLST514:
	.byte	0x8
	.quad	.LVL219
	.uleb128 .LVL221-.LVL219
	.uleb128 0x7
	.byte	0x91
	.sleb128 -152
	.byte	0x6
	.byte	0x34
	.byte	0x1b
	.byte	0x9f
	.byte	0
.LVUS515:
	.uleb128 .LVU967
	.uleb128 .LVU970
.LLST515:
	.byte	0x8
	.quad	.LVL220
	.uleb128 .LVL221-.LVL220
	.uleb128 0x1
	.byte	0x56
	.byte	0
.LVUS516:
	.uleb128 .LVU967
	.uleb128 .LVU970
.LLST516:
	.byte	0x8
	.quad	.LVL220
	.uleb128 .LVL221-.LVL220
	.uleb128 0x7
	.byte	0x91
	.sleb128 -152
	.byte	0x6
	.byte	0x34
	.byte	0x1b
	.byte	0x9f
	.byte	0
.LVUS517:
	.uleb128 .LVU968
	.uleb128 .LVU970
.LLST517:
	.byte	0x8
	.quad	.LVL220
	.uleb128 .LVL221-.LVL220
	.uleb128 0x1
	.byte	0x56
	.byte	0
.LVUS518:
	.uleb128 .LVU968
	.uleb128 .LVU970
.LLST518:
	.byte	0x8
	.quad	.LVL220
	.uleb128 .LVL221-.LVL220
	.uleb128 0x7
	.byte	0x91
	.sleb128 -152
	.byte	0x6
	.byte	0x34
	.byte	0x1b
	.byte	0x9f
	.byte	0
.LVUS519:
	.uleb128 .LVU1010
	.uleb128 .LVU1029
.LLST519:
	.byte	0x8
	.quad	.LVL246
	.uleb128 .LVL249-.LVL246
	.uleb128 0x1
	.byte	0x53
	.byte	0
.LVUS521:
	.uleb128 .LVU1012
	.uleb128 .LVU1029
.LLST521:
	.byte	0x8
	.quad	.LVL246
	.uleb128 .LVL249-.LVL246
	.uleb128 0x3
	.byte	0x73
	.sleb128 16
	.byte	0x9f
	.byte	0
.LVUS523:
	.uleb128 .LVU1016
	.uleb128 .LVU1029
.LLST523:
	.byte	0x8
	.quad	.LVL246
	.uleb128 .LVL249-.LVL246
	.uleb128 0x3
	.byte	0x73
	.sleb128 16
	.byte	0x9f
	.byte	0
.LVUS525:
	.uleb128 .LVU1019
	.uleb128 .LVU1025
.LLST525:
	.byte	0x8
	.quad	.LVL247
	.uleb128 .LVL249-1-.LVL247
	.uleb128 0x7
	.byte	0x73
	.sleb128 32
	.byte	0x6
	.byte	0x75
	.sleb128 0
	.byte	0x1c
	.byte	0x9f
	.byte	0
.LVUS527:
	.uleb128 .LVU1019
	.uleb128 .LVU1025
.LLST527:
	.byte	0x8
	.quad	.LVL247
	.uleb128 .LVL249-.LVL247
	.uleb128 0x3
	.byte	0x73
	.sleb128 16
	.byte	0x9f
	.byte	0
.LVUS528:
	.uleb128 .LVU1019
	.uleb128 .LVU1025
.LLST528:
	.byte	0x8
	.quad	.LVL247
	.uleb128 .LVL249-1-.LVL247
	.uleb128 0x1
	.byte	0x55
	.byte	0
.LVUS531:
	.uleb128 .LVU1021
	.uleb128 .LVU1025
.LLST531:
	.byte	0x8
	.quad	.LVL248
	.uleb128 .LVL249-.LVL248
	.uleb128 0x3
	.byte	0x73
	.sleb128 16
	.byte	0x9f
	.byte	0
.LVUS532:
	.uleb128 .LVU1021
	.uleb128 .LVU1025
.LLST532:
	.byte	0x8
	.quad	.LVL248
	.uleb128 .LVL249-1-.LVL248
	.uleb128 0x1
	.byte	0x55
	.byte	0
.LVUS533:
	.uleb128 .LVU1021
	.uleb128 .LVU1025
.LLST533:
	.byte	0x8
	.quad	.LVL248
	.uleb128 .LVL249-1-.LVL248
	.uleb128 0x7
	.byte	0x73
	.sleb128 32
	.byte	0x6
	.byte	0x75
	.sleb128 0
	.byte	0x1c
	.byte	0x9f
	.byte	0
.LVUS534:
	.uleb128 .LVU1022
	.uleb128 .LVU1025
.LLST534:
	.byte	0x8
	.quad	.LVL248
	.uleb128 .LVL249-.LVL248
	.uleb128 0x3
	.byte	0x73
	.sleb128 16
	.byte	0x9f
	.byte	0
.LVUS535:
	.uleb128 .LVU1022
	.uleb128 .LVU1025
.LLST535:
	.byte	0x8
	.quad	.LVL248
	.uleb128 .LVL249-1-.LVL248
	.uleb128 0x1
	.byte	0x55
	.byte	0
.LVUS536:
	.uleb128 .LVU1022
	.uleb128 .LVU1025
.LLST536:
	.byte	0x8
	.quad	.LVL248
	.uleb128 .LVL249-1-.LVL248
	.uleb128 0x7
	.byte	0x73
	.sleb128 32
	.byte	0x6
	.byte	0x75
	.sleb128 0
	.byte	0x1c
	.byte	0x9f
	.byte	0
.LVUS537:
	.uleb128 .LVU1025
	.uleb128 .LVU1029
.LLST537:
	.byte	0x8
	.quad	.LVL249
	.uleb128 .LVL249-.LVL249
	.uleb128 0x3
	.byte	0x73
	.sleb128 16
	.byte	0x9f
	.byte	0
.LVUS538:
	.uleb128 .LVU1027
	.uleb128 .LVU1029
.LLST538:
	.byte	0x8
	.quad	.LVL249
	.uleb128 .LVL249-.LVL249
	.uleb128 0x3
	.byte	0x73
	.sleb128 16
	.byte	0x9f
	.byte	0
.LVUS539:
	.uleb128 .LVU1028
	.uleb128 .LVU1029
.LLST539:
	.byte	0x8
	.quad	.LVL249
	.uleb128 .LVL249-.LVL249
	.uleb128 0x3
	.byte	0x73
	.sleb128 16
	.byte	0x9f
	.byte	0
.LVUS540:
	.uleb128 .LVU1013
	.uleb128 .LVU1014
.LLST540:
	.byte	0x8
	.quad	.LVL246
	.uleb128 .LVL246-.LVL246
	.uleb128 0x3
	.byte	0x73
	.sleb128 16
	.byte	0x9f
	.byte	0
.LVUS541:
	.uleb128 .LVU1014
	.uleb128 .LVU1016
.LLST541:
	.byte	0x8
	.quad	.LVL246
	.uleb128 .LVL246-.LVL246
	.uleb128 0x2
	.byte	0x73
	.sleb128 16
	.byte	0
.LVUS542:
	.uleb128 .LVU1014
	.uleb128 .LVU1016
.LLST542:
	.byte	0x8
	.quad	.LVL246
	.uleb128 .LVL246-.LVL246
	.uleb128 0x2
	.byte	0x73
	.sleb128 24
	.byte	0
.LVUS543:
	.uleb128 .LVU1014
	.uleb128 .LVU1016
.LLST543:
	.byte	0x8
	.quad	.LVL246
	.uleb128 .LVL246-.LVL246
	.uleb128 0x3
	.byte	0x73
	.sleb128 16
	.byte	0x9f
	.byte	0
.LVUS546:
	.uleb128 .LVU1054
	.uleb128 .LVU1064
.LLST546:
	.byte	0x8
	.quad	.LVL262
	.uleb128 .LVL265-.LVL262
	.uleb128 0x7
	.byte	0x91
	.sleb128 -160
	.byte	0x6
	.byte	0x34
	.byte	0x1b
	.byte	0x9f
	.byte	0
.LVUS547:
	.uleb128 .LVU1054
	.uleb128 .LVU1059
.LLST547:
	.byte	0x8
	.quad	.LVL262
	.uleb128 .LVL264-.LVL262
	.uleb128 0x3
	.byte	0x91
	.sleb128 -184
	.byte	0
.LVUS548:
	.uleb128 .LVU1054
	.uleb128 .LVU1059
.LLST548:
	.byte	0x8
	.quad	.LVL262
	.uleb128 .LVL264-.LVL262
	.uleb128 0x7
	.byte	0x91
	.sleb128 -160
	.byte	0x6
	.byte	0x34
	.byte	0x1b
	.byte	0x9f
	.byte	0
.LVUS549:
	.uleb128 .LVU1056
	.uleb128 .LVU1059
.LLST549:
	.byte	0x8
	.quad	.LVL263
	.uleb128 .LVL264-.LVL263
	.uleb128 0x3
	.byte	0x91
	.sleb128 -184
	.byte	0
.LVUS550:
	.uleb128 .LVU1056
	.uleb128 .LVU1059
.LLST550:
	.byte	0x8
	.quad	.LVL263
	.uleb128 .LVL264-.LVL263
	.uleb128 0x7
	.byte	0x91
	.sleb128 -160
	.byte	0x6
	.byte	0x34
	.byte	0x1b
	.byte	0x9f
	.byte	0
.LVUS551:
	.uleb128 .LVU1057
	.uleb128 .LVU1059
.LLST551:
	.byte	0x8
	.quad	.LVL263
	.uleb128 .LVL264-.LVL263
	.uleb128 0x3
	.byte	0x91
	.sleb128 -184
	.byte	0
.LVUS552:
	.uleb128 .LVU1057
	.uleb128 .LVU1059
.LLST552:
	.byte	0x8
	.quad	.LVL263
	.uleb128 .LVL264-.LVL263
	.uleb128 0x7
	.byte	0x91
	.sleb128 -160
	.byte	0x6
	.byte	0x34
	.byte	0x1b
	.byte	0x9f
	.byte	0
.Ldebug_loc3:
	.section	.debug_aranges,"",@progbits
	.long	0x3c
	.value	0x2
	.long	.Ldebug_info0
	.byte	0x8
	.byte	0
	.value	0
	.value	0
	.quad	.Ltext0
	.quad	.Letext0-.Ltext0
	.quad	.Ltext_cold0
	.quad	.Letext_cold0-.Ltext_cold0
	.quad	0
	.quad	0
	.section	.debug_rnglists,"",@progbits
.Ldebug_ranges0:
	.long	.Ldebug_ranges3-.Ldebug_ranges2
.Ldebug_ranges2:
	.value	0x5
	.byte	0x8
	.byte	0
	.long	0
.LLRL0:
	.byte	0x7
	.quad	.LFB4421
	.uleb128 .LHOTE10-.LFB4421
	.byte	0x7
	.quad	.LFSB4421
	.uleb128 .LCOLDE10-.LFSB4421
	.byte	0
.LLRL7:
	.byte	0x5
	.quad	.LBB1942
	.byte	0x4
	.uleb128 .LBB1942-.LBB1942
	.uleb128 .LBE1942-.LBB1942
	.byte	0x4
	.uleb128 .LBB1948-.LBB1942
	.uleb128 .LBE1948-.LBB1942
	.byte	0
.LLRL14:
	.byte	0x5
	.quad	.LBB1952
	.byte	0x4
	.uleb128 .LBB1952-.LBB1952
	.uleb128 .LBE1952-.LBB1952
	.byte	0x4
	.uleb128 .LBB1969-.LBB1952
	.uleb128 .LBE1969-.LBB1952
	.byte	0x4
	.uleb128 .LBB1970-.LBB1952
	.uleb128 .LBE1970-.LBB1952
	.byte	0
.LLRL19:
	.byte	0x5
	.quad	.LBB1956
	.byte	0x4
	.uleb128 .LBB1956-.LBB1956
	.uleb128 .LBE1956-.LBB1956
	.byte	0x4
	.uleb128 .LBB1961-.LBB1956
	.uleb128 .LBE1961-.LBB1956
	.byte	0x4
	.uleb128 .LBB1962-.LBB1956
	.uleb128 .LBE1962-.LBB1956
	.byte	0
.LLRL23:
	.byte	0x5
	.quad	.LBB1971
	.byte	0x4
	.uleb128 .LBB1971-.LBB1971
	.uleb128 .LBE1971-.LBB1971
	.byte	0x4
	.uleb128 .LBB2732-.LBB1971
	.uleb128 .LBE2732-.LBB1971
	.byte	0x4
	.uleb128 .LBB2734-.LBB1971
	.uleb128 .LBE2734-.LBB1971
	.byte	0x4
	.uleb128 .LBB2736-.LBB1971
	.uleb128 .LBE2736-.LBB1971
	.byte	0x7
	.quad	.LBB2825
	.uleb128 .LBE2825-.LBB2825
	.byte	0
.LLRL30:
	.byte	0x5
	.quad	.LBB1975
	.byte	0x4
	.uleb128 .LBB1975-.LBB1975
	.uleb128 .LBE1975-.LBB1975
	.byte	0x4
	.uleb128 .LBB2051-.LBB1975
	.uleb128 .LBE2051-.LBB1975
	.byte	0x4
	.uleb128 .LBB2052-.LBB1975
	.uleb128 .LBE2052-.LBB1975
	.byte	0x7
	.quad	.LBB2053
	.uleb128 .LBE2053-.LBB2053
	.byte	0
.LLRL31:
	.byte	0x7
	.quad	.LBB1976
	.uleb128 .LBE1976-.LBB1976
	.byte	0x7
	.quad	.LBB2050
	.uleb128 .LBE2050-.LBB2050
	.byte	0
.LLRL36:
	.byte	0x7
	.quad	.LBB1977
	.uleb128 .LBE1977-.LBB1977
	.byte	0x7
	.quad	.LBB2027
	.uleb128 .LBE2027-.LBB2027
	.byte	0
.LLRL41:
	.byte	0x5
	.quad	.LBB1984
	.byte	0x4
	.uleb128 .LBB1984-.LBB1984
	.uleb128 .LBE1984-.LBB1984
	.byte	0x4
	.uleb128 .LBB2023-.LBB1984
	.uleb128 .LBE2023-.LBB1984
	.byte	0x4
	.uleb128 .LBB2025-.LBB1984
	.uleb128 .LBE2025-.LBB1984
	.byte	0
.LLRL45:
	.byte	0x5
	.quad	.LBB1985
	.byte	0x4
	.uleb128 .LBB1985-.LBB1985
	.uleb128 .LBE1985-.LBB1985
	.byte	0x4
	.uleb128 .LBB2004-.LBB1985
	.uleb128 .LBE2004-.LBB1985
	.byte	0x4
	.uleb128 .LBB2005-.LBB1985
	.uleb128 .LBE2005-.LBB1985
	.byte	0x4
	.uleb128 .LBB2006-.LBB1985
	.uleb128 .LBE2006-.LBB1985
	.byte	0
.LLRL48:
	.byte	0x5
	.quad	.LBB1987
	.byte	0x4
	.uleb128 .LBB1987-.LBB1987
	.uleb128 .LBE1987-.LBB1987
	.byte	0x4
	.uleb128 .LBB1996-.LBB1987
	.uleb128 .LBE1996-.LBB1987
	.byte	0
.LLRL51:
	.byte	0x5
	.quad	.LBB1989
	.byte	0x4
	.uleb128 .LBB1989-.LBB1989
	.uleb128 .LBE1989-.LBB1989
	.byte	0x4
	.uleb128 .LBB1994-.LBB1989
	.uleb128 .LBE1994-.LBB1989
	.byte	0
.LLRL54:
	.byte	0x5
	.quad	.LBB1990
	.byte	0x4
	.uleb128 .LBB1990-.LBB1990
	.uleb128 .LBE1990-.LBB1990
	.byte	0x4
	.uleb128 .LBB1993-.LBB1990
	.uleb128 .LBE1993-.LBB1990
	.byte	0
.LLRL65:
	.byte	0x5
	.quad	.LBB2007
	.byte	0x4
	.uleb128 .LBB2007-.LBB2007
	.uleb128 .LBE2007-.LBB2007
	.byte	0x4
	.uleb128 .LBB2024-.LBB2007
	.uleb128 .LBE2024-.LBB2007
	.byte	0x4
	.uleb128 .LBB2026-.LBB2007
	.uleb128 .LBE2026-.LBB2007
	.byte	0
.LLRL76:
	.byte	0x5
	.quad	.LBB2011
	.byte	0x4
	.uleb128 .LBB2011-.LBB2011
	.uleb128 .LBE2011-.LBB2011
	.byte	0x4
	.uleb128 .LBB2015-.LBB2011
	.uleb128 .LBE2015-.LBB2011
	.byte	0x4
	.uleb128 .LBB2016-.LBB2011
	.uleb128 .LBE2016-.LBB2011
	.byte	0
.LLRL77:
	.byte	0x5
	.quad	.LBB2012
	.byte	0x4
	.uleb128 .LBB2012-.LBB2012
	.uleb128 .LBE2012-.LBB2012
	.byte	0x4
	.uleb128 .LBB2013-.LBB2012
	.uleb128 .LBE2013-.LBB2012
	.byte	0x4
	.uleb128 .LBB2014-.LBB2012
	.uleb128 .LBE2014-.LBB2012
	.byte	0
.LLRL79:
	.byte	0x5
	.quad	.LBB2028
	.byte	0x4
	.uleb128 .LBB2028-.LBB2028
	.uleb128 .LBE2028-.LBB2028
	.byte	0x4
	.uleb128 .LBB2039-.LBB2028
	.uleb128 .LBE2039-.LBB2028
	.byte	0x4
	.uleb128 .LBB2040-.LBB2028
	.uleb128 .LBE2040-.LBB2028
	.byte	0
.LLRL83:
	.byte	0x5
	.quad	.LBB2031
	.byte	0x4
	.uleb128 .LBB2031-.LBB2031
	.uleb128 .LBE2031-.LBB2031
	.byte	0x4
	.uleb128 .LBB2035-.LBB2031
	.uleb128 .LBE2035-.LBB2031
	.byte	0x4
	.uleb128 .LBB2036-.LBB2031
	.uleb128 .LBE2036-.LBB2031
	.byte	0
.LLRL97:
	.byte	0x5
	.quad	.LBB2066
	.byte	0x4
	.uleb128 .LBB2066-.LBB2066
	.uleb128 .LBE2066-.LBB2066
	.byte	0x4
	.uleb128 .LBB2268-.LBB2066
	.uleb128 .LBE2268-.LBB2066
	.byte	0x4
	.uleb128 .LBB2270-.LBB2066
	.uleb128 .LBE2270-.LBB2066
	.byte	0x4
	.uleb128 .LBB2726-.LBB2066
	.uleb128 .LBE2726-.LBB2066
	.byte	0x4
	.uleb128 .LBB2728-.LBB2066
	.uleb128 .LBE2728-.LBB2066
	.byte	0x4
	.uleb128 .LBB2730-.LBB2066
	.uleb128 .LBE2730-.LBB2066
	.byte	0x4
	.uleb128 .LBB2737-.LBB2066
	.uleb128 .LBE2737-.LBB2066
	.byte	0x4
	.uleb128 .LBB2742-.LBB2066
	.uleb128 .LBE2742-.LBB2066
	.byte	0
.LLRL101:
	.byte	0x5
	.quad	.LBB2069
	.byte	0x4
	.uleb128 .LBB2069-.LBB2069
	.uleb128 .LBE2069-.LBB2069
	.byte	0x4
	.uleb128 .LBB2084-.LBB2069
	.uleb128 .LBE2084-.LBB2069
	.byte	0
.LLRL104:
	.byte	0x5
	.quad	.LBB2072
	.byte	0x4
	.uleb128 .LBB2072-.LBB2072
	.uleb128 .LBE2072-.LBB2072
	.byte	0x4
	.uleb128 .LBB2079-.LBB2072
	.uleb128 .LBE2079-.LBB2072
	.byte	0x4
	.uleb128 .LBB2080-.LBB2072
	.uleb128 .LBE2080-.LBB2072
	.byte	0x4
	.uleb128 .LBB2081-.LBB2072
	.uleb128 .LBE2081-.LBB2072
	.byte	0x4
	.uleb128 .LBB2082-.LBB2072
	.uleb128 .LBE2082-.LBB2072
	.byte	0x4
	.uleb128 .LBB2083-.LBB2072
	.uleb128 .LBE2083-.LBB2072
	.byte	0x4
	.uleb128 .LBB2085-.LBB2072
	.uleb128 .LBE2085-.LBB2072
	.byte	0x4
	.uleb128 .LBB2086-.LBB2072
	.uleb128 .LBE2086-.LBB2072
	.byte	0
.LLRL106:
	.byte	0x5
	.quad	.LBB2101
	.byte	0x4
	.uleb128 .LBB2101-.LBB2101
	.uleb128 .LBE2101-.LBB2101
	.byte	0x4
	.uleb128 .LBB2121-.LBB2101
	.uleb128 .LBE2121-.LBB2101
	.byte	0x4
	.uleb128 .LBB2735-.LBB2101
	.uleb128 .LBE2735-.LBB2101
	.byte	0x4
	.uleb128 .LBB2738-.LBB2101
	.uleb128 .LBE2738-.LBB2101
	.byte	0x4
	.uleb128 .LBB2740-.LBB2101
	.uleb128 .LBE2740-.LBB2101
	.byte	0
.LLRL108:
	.byte	0x5
	.quad	.LBB2106
	.byte	0x4
	.uleb128 .LBB2106-.LBB2106
	.uleb128 .LBE2106-.LBB2106
	.byte	0x4
	.uleb128 .LBB2122-.LBB2106
	.uleb128 .LBE2122-.LBB2106
	.byte	0x4
	.uleb128 .LBB2733-.LBB2106
	.uleb128 .LBE2733-.LBB2106
	.byte	0x4
	.uleb128 .LBB2739-.LBB2106
	.uleb128 .LBE2739-.LBB2106
	.byte	0x4
	.uleb128 .LBB2741-.LBB2106
	.uleb128 .LBE2741-.LBB2106
	.byte	0
.LLRL114:
	.byte	0x5
	.quad	.LBB2111
	.byte	0x4
	.uleb128 .LBB2111-.LBB2111
	.uleb128 .LBE2111-.LBB2111
	.byte	0x4
	.uleb128 .LBB2116-.LBB2111
	.uleb128 .LBE2116-.LBB2111
	.byte	0
.LLRL118:
	.byte	0x5
	.quad	.LBB2123
	.byte	0x4
	.uleb128 .LBB2123-.LBB2123
	.uleb128 .LBE2123-.LBB2123
	.byte	0x4
	.uleb128 .LBB2267-.LBB2123
	.uleb128 .LBE2267-.LBB2123
	.byte	0x4
	.uleb128 .LBB2269-.LBB2123
	.uleb128 .LBE2269-.LBB2123
	.byte	0x4
	.uleb128 .LBB2271-.LBB2123
	.uleb128 .LBE2271-.LBB2123
	.byte	0x4
	.uleb128 .LBB2727-.LBB2123
	.uleb128 .LBE2727-.LBB2123
	.byte	0x4
	.uleb128 .LBB2729-.LBB2123
	.uleb128 .LBE2729-.LBB2123
	.byte	0x4
	.uleb128 .LBB2750-.LBB2123
	.uleb128 .LBE2750-.LBB2123
	.byte	0x4
	.uleb128 .LBB2755-.LBB2123
	.uleb128 .LBE2755-.LBB2123
	.byte	0x7
	.quad	.LBB2867
	.uleb128 .LBE2867-.LBB2867
	.byte	0
.LLRL121:
	.byte	0x5
	.quad	.LBB2124
	.byte	0x4
	.uleb128 .LBB2124-.LBB2124
	.uleb128 .LBE2124-.LBB2124
	.byte	0x4
	.uleb128 .LBB2263-.LBB2124
	.uleb128 .LBE2263-.LBB2124
	.byte	0
.LLRL124:
	.byte	0x5
	.quad	.LBB2127
	.byte	0x4
	.uleb128 .LBB2127-.LBB2127
	.uleb128 .LBE2127-.LBB2127
	.byte	0x4
	.uleb128 .LBB2264-.LBB2127
	.uleb128 .LBE2264-.LBB2127
	.byte	0
.LLRL127:
	.byte	0x5
	.quad	.LBB2130
	.byte	0x4
	.uleb128 .LBB2130-.LBB2130
	.uleb128 .LBE2130-.LBB2130
	.byte	0x4
	.uleb128 .LBB2260-.LBB2130
	.uleb128 .LBE2260-.LBB2130
	.byte	0x4
	.uleb128 .LBB2265-.LBB2130
	.uleb128 .LBE2265-.LBB2130
	.byte	0x7
	.quad	.LBB2266
	.uleb128 .LBE2266-.LBB2266
	.byte	0
.LLRL135:
	.byte	0x5
	.quad	.LBB2136
	.byte	0x4
	.uleb128 .LBB2136-.LBB2136
	.uleb128 .LBE2136-.LBB2136
	.byte	0x4
	.uleb128 .LBB2138-.LBB2136
	.uleb128 .LBE2138-.LBB2136
	.byte	0
.LLRL137:
	.byte	0x5
	.quad	.LBB2140
	.byte	0x4
	.uleb128 .LBB2140-.LBB2140
	.uleb128 .LBE2140-.LBB2140
	.byte	0x4
	.uleb128 .LBB2142-.LBB2140
	.uleb128 .LBE2142-.LBB2140
	.byte	0
.LLRL139:
	.byte	0x5
	.quad	.LBB2143
	.byte	0x4
	.uleb128 .LBB2143-.LBB2143
	.uleb128 .LBE2143-.LBB2143
	.byte	0x4
	.uleb128 .LBB2146-.LBB2143
	.uleb128 .LBE2146-.LBB2143
	.byte	0x4
	.uleb128 .LBB2255-.LBB2143
	.uleb128 .LBE2255-.LBB2143
	.byte	0
.LLRL141:
	.byte	0x5
	.quad	.LBB2147
	.byte	0x4
	.uleb128 .LBB2147-.LBB2147
	.uleb128 .LBE2147-.LBB2147
	.byte	0x4
	.uleb128 .LBB2256-.LBB2147
	.uleb128 .LBE2256-.LBB2147
	.byte	0x4
	.uleb128 .LBB2257-.LBB2147
	.uleb128 .LBE2257-.LBB2147
	.byte	0x4
	.uleb128 .LBB2258-.LBB2147
	.uleb128 .LBE2258-.LBB2147
	.byte	0x7
	.quad	.LBB2259
	.uleb128 .LBE2259-.LBB2259
	.byte	0
.LLRL144:
	.byte	0x5
	.quad	.LBB2149
	.byte	0x4
	.uleb128 .LBB2149-.LBB2149
	.uleb128 .LBE2149-.LBB2149
	.byte	0x4
	.uleb128 .LBB2154-.LBB2149
	.uleb128 .LBE2154-.LBB2149
	.byte	0
.LLRL149:
	.byte	0x7
	.quad	.LBB2155
	.uleb128 .LBE2155-.LBB2155
	.byte	0x7
	.quad	.LBB2251
	.uleb128 .LBE2251-.LBB2251
	.byte	0
.LLRL157:
	.byte	0x5
	.quad	.LBB2157
	.byte	0x4
	.uleb128 .LBB2157-.LBB2157
	.uleb128 .LBE2157-.LBB2157
	.byte	0x4
	.uleb128 .LBB2182-.LBB2157
	.uleb128 .LBE2182-.LBB2157
	.byte	0x7
	.quad	.LBB2249
	.uleb128 .LBE2249-.LBB2249
	.byte	0
.LLRL163:
	.byte	0x5
	.quad	.LBB2161
	.byte	0x4
	.uleb128 .LBB2161-.LBB2161
	.uleb128 .LBE2161-.LBB2161
	.byte	0x4
	.uleb128 .LBB2163-.LBB2161
	.uleb128 .LBE2163-.LBB2161
	.byte	0
.LLRL165:
	.byte	0x5
	.quad	.LBB2166
	.byte	0x4
	.uleb128 .LBB2166-.LBB2166
	.uleb128 .LBE2166-.LBB2166
	.byte	0x4
	.uleb128 .LBB2183-.LBB2166
	.uleb128 .LBE2183-.LBB2166
	.byte	0x4
	.uleb128 .LBB2245-.LBB2166
	.uleb128 .LBE2245-.LBB2166
	.byte	0x4
	.uleb128 .LBB2247-.LBB2166
	.uleb128 .LBE2247-.LBB2166
	.byte	0
.LLRL167:
	.byte	0x5
	.quad	.LBB2168
	.byte	0x4
	.uleb128 .LBB2168-.LBB2168
	.uleb128 .LBE2168-.LBB2168
	.byte	0x4
	.uleb128 .LBB2176-.LBB2168
	.uleb128 .LBE2176-.LBB2168
	.byte	0x4
	.uleb128 .LBB2177-.LBB2168
	.uleb128 .LBE2177-.LBB2168
	.byte	0x4
	.uleb128 .LBB2178-.LBB2168
	.uleb128 .LBE2178-.LBB2168
	.byte	0
.LLRL169:
	.byte	0x5
	.quad	.LBB2169
	.byte	0x4
	.uleb128 .LBB2169-.LBB2169
	.uleb128 .LBE2169-.LBB2169
	.byte	0x4
	.uleb128 .LBB2173-.LBB2169
	.uleb128 .LBE2173-.LBB2169
	.byte	0x4
	.uleb128 .LBB2174-.LBB2169
	.uleb128 .LBE2174-.LBB2169
	.byte	0x4
	.uleb128 .LBB2175-.LBB2169
	.uleb128 .LBE2175-.LBB2169
	.byte	0
.LLRL172:
	.byte	0x5
	.quad	.LBB2184
	.byte	0x4
	.uleb128 .LBB2184-.LBB2184
	.uleb128 .LBE2184-.LBB2184
	.byte	0x4
	.uleb128 .LBB2246-.LBB2184
	.uleb128 .LBE2246-.LBB2184
	.byte	0x4
	.uleb128 .LBB2248-.LBB2184
	.uleb128 .LBE2248-.LBB2184
	.byte	0
.LLRL173:
	.byte	0x5
	.quad	.LBB2185
	.byte	0x4
	.uleb128 .LBB2185-.LBB2185
	.uleb128 .LBE2185-.LBB2185
	.byte	0x4
	.uleb128 .LBB2200-.LBB2185
	.uleb128 .LBE2200-.LBB2185
	.byte	0x4
	.uleb128 .LBB2201-.LBB2185
	.uleb128 .LBE2201-.LBB2185
	.byte	0x4
	.uleb128 .LBB2212-.LBB2185
	.uleb128 .LBE2212-.LBB2185
	.byte	0x4
	.uleb128 .LBB2214-.LBB2185
	.uleb128 .LBE2214-.LBB2185
	.byte	0x4
	.uleb128 .LBB2216-.LBB2185
	.uleb128 .LBE2216-.LBB2185
	.byte	0x4
	.uleb128 .LBB2218-.LBB2185
	.uleb128 .LBE2218-.LBB2185
	.byte	0
.LLRL183:
	.byte	0x5
	.quad	.LBB2202
	.byte	0x4
	.uleb128 .LBB2202-.LBB2202
	.uleb128 .LBE2202-.LBB2202
	.byte	0x4
	.uleb128 .LBB2213-.LBB2202
	.uleb128 .LBE2213-.LBB2202
	.byte	0x4
	.uleb128 .LBB2215-.LBB2202
	.uleb128 .LBE2215-.LBB2202
	.byte	0x4
	.uleb128 .LBB2217-.LBB2202
	.uleb128 .LBE2217-.LBB2202
	.byte	0x4
	.uleb128 .LBB2219-.LBB2202
	.uleb128 .LBE2219-.LBB2202
	.byte	0
.LLRL191:
	.byte	0x5
	.quad	.LBB2220
	.byte	0x4
	.uleb128 .LBB2220-.LBB2220
	.uleb128 .LBE2220-.LBB2220
	.byte	0x4
	.uleb128 .LBB2243-.LBB2220
	.uleb128 .LBE2243-.LBB2220
	.byte	0x4
	.uleb128 .LBB2244-.LBB2220
	.uleb128 .LBE2244-.LBB2220
	.byte	0
.LLRL193:
	.byte	0x5
	.quad	.LBB2222
	.byte	0x4
	.uleb128 .LBB2222-.LBB2222
	.uleb128 .LBE2222-.LBB2222
	.byte	0x4
	.uleb128 .LBB2240-.LBB2222
	.uleb128 .LBE2240-.LBB2222
	.byte	0
.LLRL195:
	.byte	0x5
	.quad	.LBB2224
	.byte	0x4
	.uleb128 .LBB2224-.LBB2224
	.uleb128 .LBE2224-.LBB2224
	.byte	0x4
	.uleb128 .LBB2236-.LBB2224
	.uleb128 .LBE2236-.LBB2224
	.byte	0x4
	.uleb128 .LBB2237-.LBB2224
	.uleb128 .LBE2237-.LBB2224
	.byte	0
.LLRL197:
	.byte	0x5
	.quad	.LBB2226
	.byte	0x4
	.uleb128 .LBB2226-.LBB2226
	.uleb128 .LBE2226-.LBB2226
	.byte	0x4
	.uleb128 .LBB2232-.LBB2226
	.uleb128 .LBE2232-.LBB2226
	.byte	0x4
	.uleb128 .LBB2233-.LBB2226
	.uleb128 .LBE2233-.LBB2226
	.byte	0
.LLRL199:
	.byte	0x5
	.quad	.LBB2227
	.byte	0x4
	.uleb128 .LBB2227-.LBB2227
	.uleb128 .LBE2227-.LBB2227
	.byte	0x4
	.uleb128 .LBB2230-.LBB2227
	.uleb128 .LBE2230-.LBB2227
	.byte	0x4
	.uleb128 .LBB2231-.LBB2227
	.uleb128 .LBE2231-.LBB2227
	.byte	0
.LLRL202:
	.byte	0x5
	.quad	.LBB2272
	.byte	0x4
	.uleb128 .LBB2272-.LBB2272
	.uleb128 .LBE2272-.LBB2272
	.byte	0x4
	.uleb128 .LBB2724-.LBB2272
	.uleb128 .LBE2724-.LBB2272
	.byte	0
.LLRL204:
	.byte	0x5
	.quad	.LBB2273
	.byte	0x4
	.uleb128 .LBB2273-.LBB2273
	.uleb128 .LBE2273-.LBB2273
	.byte	0x4
	.uleb128 .LBB2288-.LBB2273
	.uleb128 .LBE2288-.LBB2273
	.byte	0
.LLRL206:
	.byte	0x5
	.quad	.LBB2274
	.byte	0x4
	.uleb128 .LBB2274-.LBB2274
	.uleb128 .LBE2274-.LBB2274
	.byte	0x4
	.uleb128 .LBB2282-.LBB2274
	.uleb128 .LBE2282-.LBB2274
	.byte	0
.LLRL220:
	.byte	0x5
	.quad	.LBB2291
	.byte	0x4
	.uleb128 .LBB2291-.LBB2291
	.uleb128 .LBE2291-.LBB2291
	.byte	0x4
	.uleb128 .LBB2731-.LBB2291
	.uleb128 .LBE2731-.LBB2291
	.byte	0x7
	.quad	.LBB2821
	.uleb128 .LBE2821-.LBB2821
	.byte	0
.LLRL224:
	.byte	0x7
	.quad	.LBB2292
	.uleb128 .LBE2292-.LBB2292
	.byte	0x7
	.quad	.LBB2344
	.uleb128 .LBE2344-.LBB2344
	.byte	0
.LLRL229:
	.byte	0x5
	.quad	.LBB2299
	.byte	0x4
	.uleb128 .LBB2299-.LBB2299
	.uleb128 .LBE2299-.LBB2299
	.byte	0x4
	.uleb128 .LBB2341-.LBB2299
	.uleb128 .LBE2341-.LBB2299
	.byte	0x4
	.uleb128 .LBB2343-.LBB2299
	.uleb128 .LBE2343-.LBB2299
	.byte	0
.LLRL235:
	.byte	0x5
	.quad	.LBB2304
	.byte	0x4
	.uleb128 .LBB2304-.LBB2304
	.uleb128 .LBE2304-.LBB2304
	.byte	0x4
	.uleb128 .LBB2322-.LBB2304
	.uleb128 .LBE2322-.LBB2304
	.byte	0x4
	.uleb128 .LBB2323-.LBB2304
	.uleb128 .LBE2323-.LBB2304
	.byte	0
.LLRL237:
	.byte	0x5
	.quad	.LBB2306
	.byte	0x4
	.uleb128 .LBB2306-.LBB2306
	.uleb128 .LBE2306-.LBB2306
	.byte	0x4
	.uleb128 .LBB2318-.LBB2306
	.uleb128 .LBE2318-.LBB2306
	.byte	0x4
	.uleb128 .LBB2319-.LBB2306
	.uleb128 .LBE2319-.LBB2306
	.byte	0
.LLRL239:
	.byte	0x5
	.quad	.LBB2308
	.byte	0x4
	.uleb128 .LBB2308-.LBB2308
	.uleb128 .LBE2308-.LBB2308
	.byte	0x4
	.uleb128 .LBB2315-.LBB2308
	.uleb128 .LBE2315-.LBB2308
	.byte	0
.LLRL241:
	.byte	0x5
	.quad	.LBB2309
	.byte	0x4
	.uleb128 .LBB2309-.LBB2309
	.uleb128 .LBE2309-.LBB2309
	.byte	0x4
	.uleb128 .LBB2313-.LBB2309
	.uleb128 .LBE2313-.LBB2309
	.byte	0x4
	.uleb128 .LBB2314-.LBB2309
	.uleb128 .LBE2314-.LBB2309
	.byte	0
.LLRL244:
	.byte	0x5
	.quad	.LBB2324
	.byte	0x4
	.uleb128 .LBB2324-.LBB2324
	.uleb128 .LBE2324-.LBB2324
	.byte	0x4
	.uleb128 .LBB2342-.LBB2324
	.uleb128 .LBE2342-.LBB2324
	.byte	0
.LLRL253:
	.byte	0x5
	.quad	.LBB2328
	.byte	0x4
	.uleb128 .LBB2328-.LBB2328
	.uleb128 .LBE2328-.LBB2328
	.byte	0x4
	.uleb128 .LBB2337-.LBB2328
	.uleb128 .LBE2337-.LBB2328
	.byte	0
.LLRL257:
	.byte	0x5
	.quad	.LBB2330
	.byte	0x4
	.uleb128 .LBB2330-.LBB2330
	.uleb128 .LBE2330-.LBB2330
	.byte	0x4
	.uleb128 .LBB2334-.LBB2330
	.uleb128 .LBE2334-.LBB2330
	.byte	0
.LLRL265:
	.byte	0x5
	.quad	.LBB2349
	.byte	0x4
	.uleb128 .LBB2349-.LBB2349
	.uleb128 .LBE2349-.LBB2349
	.byte	0x4
	.uleb128 .LBB2749-.LBB2349
	.uleb128 .LBE2749-.LBB2349
	.byte	0x7
	.quad	.LBB2823
	.uleb128 .LBE2823-.LBB2823
	.byte	0
.LLRL269:
	.byte	0x7
	.quad	.LBB2350
	.uleb128 .LBE2350-.LBB2350
	.byte	0x7
	.quad	.LBB2402
	.uleb128 .LBE2402-.LBB2402
	.byte	0
.LLRL274:
	.byte	0x5
	.quad	.LBB2357
	.byte	0x4
	.uleb128 .LBB2357-.LBB2357
	.uleb128 .LBE2357-.LBB2357
	.byte	0x4
	.uleb128 .LBB2399-.LBB2357
	.uleb128 .LBE2399-.LBB2357
	.byte	0x4
	.uleb128 .LBB2401-.LBB2357
	.uleb128 .LBE2401-.LBB2357
	.byte	0
.LLRL280:
	.byte	0x5
	.quad	.LBB2362
	.byte	0x4
	.uleb128 .LBB2362-.LBB2362
	.uleb128 .LBE2362-.LBB2362
	.byte	0x4
	.uleb128 .LBB2380-.LBB2362
	.uleb128 .LBE2380-.LBB2362
	.byte	0x4
	.uleb128 .LBB2381-.LBB2362
	.uleb128 .LBE2381-.LBB2362
	.byte	0
.LLRL282:
	.byte	0x5
	.quad	.LBB2364
	.byte	0x4
	.uleb128 .LBB2364-.LBB2364
	.uleb128 .LBE2364-.LBB2364
	.byte	0x4
	.uleb128 .LBB2376-.LBB2364
	.uleb128 .LBE2376-.LBB2364
	.byte	0x4
	.uleb128 .LBB2377-.LBB2364
	.uleb128 .LBE2377-.LBB2364
	.byte	0
.LLRL284:
	.byte	0x5
	.quad	.LBB2366
	.byte	0x4
	.uleb128 .LBB2366-.LBB2366
	.uleb128 .LBE2366-.LBB2366
	.byte	0x4
	.uleb128 .LBB2373-.LBB2366
	.uleb128 .LBE2373-.LBB2366
	.byte	0
.LLRL285:
	.byte	0x5
	.quad	.LBB2367
	.byte	0x4
	.uleb128 .LBB2367-.LBB2367
	.uleb128 .LBE2367-.LBB2367
	.byte	0x4
	.uleb128 .LBB2371-.LBB2367
	.uleb128 .LBE2371-.LBB2367
	.byte	0x4
	.uleb128 .LBB2372-.LBB2367
	.uleb128 .LBE2372-.LBB2367
	.byte	0
.LLRL287:
	.byte	0x5
	.quad	.LBB2382
	.byte	0x4
	.uleb128 .LBB2382-.LBB2382
	.uleb128 .LBE2382-.LBB2382
	.byte	0x4
	.uleb128 .LBB2400-.LBB2382
	.uleb128 .LBE2400-.LBB2382
	.byte	0
.LLRL296:
	.byte	0x5
	.quad	.LBB2386
	.byte	0x4
	.uleb128 .LBB2386-.LBB2386
	.uleb128 .LBE2386-.LBB2386
	.byte	0x4
	.uleb128 .LBB2395-.LBB2386
	.uleb128 .LBE2395-.LBB2386
	.byte	0
.LLRL300:
	.byte	0x5
	.quad	.LBB2388
	.byte	0x4
	.uleb128 .LBB2388-.LBB2388
	.uleb128 .LBE2388-.LBB2388
	.byte	0x4
	.uleb128 .LBB2392-.LBB2388
	.uleb128 .LBE2392-.LBB2388
	.byte	0
.LLRL308:
	.byte	0x5
	.quad	.LBB2407
	.byte	0x4
	.uleb128 .LBB2407-.LBB2407
	.uleb128 .LBE2407-.LBB2407
	.byte	0x4
	.uleb128 .LBB2745-.LBB2407
	.uleb128 .LBE2745-.LBB2407
	.byte	0x7
	.quad	.LBB2761
	.uleb128 .LBE2761-.LBB2761
	.byte	0
.LLRL311:
	.byte	0x7
	.quad	.LBB2408
	.uleb128 .LBE2408-.LBB2408
	.byte	0x7
	.quad	.LBB2483
	.uleb128 .LBE2483-.LBB2483
	.byte	0
.LLRL316:
	.byte	0x5
	.quad	.LBB2415
	.byte	0x4
	.uleb128 .LBB2415-.LBB2415
	.uleb128 .LBE2415-.LBB2415
	.byte	0x4
	.uleb128 .LBB2480-.LBB2415
	.uleb128 .LBE2480-.LBB2415
	.byte	0x4
	.uleb128 .LBB2482-.LBB2415
	.uleb128 .LBE2482-.LBB2415
	.byte	0
.LLRL322:
	.byte	0x5
	.quad	.LBB2420
	.byte	0x4
	.uleb128 .LBB2420-.LBB2420
	.uleb128 .LBE2420-.LBB2420
	.byte	0x4
	.uleb128 .LBB2438-.LBB2420
	.uleb128 .LBE2438-.LBB2420
	.byte	0x4
	.uleb128 .LBB2439-.LBB2420
	.uleb128 .LBE2439-.LBB2420
	.byte	0
.LLRL324:
	.byte	0x5
	.quad	.LBB2422
	.byte	0x4
	.uleb128 .LBB2422-.LBB2422
	.uleb128 .LBE2422-.LBB2422
	.byte	0x4
	.uleb128 .LBB2434-.LBB2422
	.uleb128 .LBE2434-.LBB2422
	.byte	0x4
	.uleb128 .LBB2435-.LBB2422
	.uleb128 .LBE2435-.LBB2422
	.byte	0
.LLRL326:
	.byte	0x5
	.quad	.LBB2424
	.byte	0x4
	.uleb128 .LBB2424-.LBB2424
	.uleb128 .LBE2424-.LBB2424
	.byte	0x4
	.uleb128 .LBB2431-.LBB2424
	.uleb128 .LBE2431-.LBB2424
	.byte	0
.LLRL328:
	.byte	0x5
	.quad	.LBB2425
	.byte	0x4
	.uleb128 .LBB2425-.LBB2425
	.uleb128 .LBE2425-.LBB2425
	.byte	0x4
	.uleb128 .LBB2429-.LBB2425
	.uleb128 .LBE2429-.LBB2425
	.byte	0x4
	.uleb128 .LBB2430-.LBB2425
	.uleb128 .LBE2430-.LBB2425
	.byte	0
.LLRL331:
	.byte	0x5
	.quad	.LBB2440
	.byte	0x4
	.uleb128 .LBB2440-.LBB2440
	.uleb128 .LBE2440-.LBB2440
	.byte	0x4
	.uleb128 .LBB2481-.LBB2440
	.uleb128 .LBE2481-.LBB2440
	.byte	0
.LLRL338:
	.byte	0x5
	.quad	.LBB2444
	.byte	0x4
	.uleb128 .LBB2444-.LBB2444
	.uleb128 .LBE2444-.LBB2444
	.byte	0x4
	.uleb128 .LBB2476-.LBB2444
	.uleb128 .LBE2476-.LBB2444
	.byte	0
.LLRL341:
	.byte	0x5
	.quad	.LBB2445
	.byte	0x4
	.uleb128 .LBB2445-.LBB2445
	.uleb128 .LBE2445-.LBB2445
	.byte	0x4
	.uleb128 .LBB2475-.LBB2445
	.uleb128 .LBE2475-.LBB2445
	.byte	0
.LLRL344:
	.byte	0x5
	.quad	.LBB2446
	.byte	0x4
	.uleb128 .LBB2446-.LBB2446
	.uleb128 .LBE2446-.LBB2446
	.byte	0x4
	.uleb128 .LBB2474-.LBB2446
	.uleb128 .LBE2474-.LBB2446
	.byte	0
.LLRL346:
	.byte	0x5
	.quad	.LBB2447
	.byte	0x4
	.uleb128 .LBB2447-.LBB2447
	.uleb128 .LBE2447-.LBB2447
	.byte	0x4
	.uleb128 .LBB2470-.LBB2447
	.uleb128 .LBE2470-.LBB2447
	.byte	0x4
	.uleb128 .LBB2472-.LBB2447
	.uleb128 .LBE2472-.LBB2447
	.byte	0x4
	.uleb128 .LBB2473-.LBB2447
	.uleb128 .LBE2473-.LBB2447
	.byte	0
.LLRL355:
	.byte	0x5
	.quad	.LBB2450
	.byte	0x4
	.uleb128 .LBB2450-.LBB2450
	.uleb128 .LBE2450-.LBB2450
	.byte	0x4
	.uleb128 .LBB2459-.LBB2450
	.uleb128 .LBE2459-.LBB2450
	.byte	0x4
	.uleb128 .LBB2460-.LBB2450
	.uleb128 .LBE2460-.LBB2450
	.byte	0x4
	.uleb128 .LBB2461-.LBB2450
	.uleb128 .LBE2461-.LBB2450
	.byte	0
.LLRL359:
	.byte	0x5
	.quad	.LBB2451
	.byte	0x4
	.uleb128 .LBB2451-.LBB2451
	.uleb128 .LBE2451-.LBB2451
	.byte	0x4
	.uleb128 .LBB2456-.LBB2451
	.uleb128 .LBE2456-.LBB2451
	.byte	0x4
	.uleb128 .LBB2457-.LBB2451
	.uleb128 .LBE2457-.LBB2451
	.byte	0x4
	.uleb128 .LBB2458-.LBB2451
	.uleb128 .LBE2458-.LBB2451
	.byte	0
.LLRL365:
	.byte	0x5
	.quad	.LBB2468
	.byte	0x4
	.uleb128 .LBB2468-.LBB2468
	.uleb128 .LBE2468-.LBB2468
	.byte	0x4
	.uleb128 .LBB2471-.LBB2468
	.uleb128 .LBE2471-.LBB2468
	.byte	0
.LLRL367:
	.byte	0x5
	.quad	.LBB2484
	.byte	0x4
	.uleb128 .LBB2484-.LBB2484
	.uleb128 .LBE2484-.LBB2484
	.byte	0x4
	.uleb128 .LBB2743-.LBB2484
	.uleb128 .LBE2743-.LBB2484
	.byte	0x4
	.uleb128 .LBB2752-.LBB2484
	.uleb128 .LBE2752-.LBB2484
	.byte	0
.LLRL370:
	.byte	0x5
	.quad	.LBB2488
	.byte	0x4
	.uleb128 .LBB2488-.LBB2488
	.uleb128 .LBE2488-.LBB2488
	.byte	0x4
	.uleb128 .LBB2522-.LBB2488
	.uleb128 .LBE2522-.LBB2488
	.byte	0x4
	.uleb128 .LBB2744-.LBB2488
	.uleb128 .LBE2744-.LBB2488
	.byte	0x4
	.uleb128 .LBB2746-.LBB2488
	.uleb128 .LBE2746-.LBB2488
	.byte	0x4
	.uleb128 .LBB2753-.LBB2488
	.uleb128 .LBE2753-.LBB2488
	.byte	0
.LLRL373:
	.byte	0x5
	.quad	.LBB2489
	.byte	0x4
	.uleb128 .LBB2489-.LBB2489
	.uleb128 .LBE2489-.LBB2489
	.byte	0x4
	.uleb128 .LBB2508-.LBB2489
	.uleb128 .LBE2508-.LBB2489
	.byte	0x4
	.uleb128 .LBB2510-.LBB2489
	.uleb128 .LBE2510-.LBB2489
	.byte	0
.LLRL376:
	.byte	0x5
	.quad	.LBB2493
	.byte	0x4
	.uleb128 .LBB2493-.LBB2493
	.uleb128 .LBE2493-.LBB2493
	.byte	0x4
	.uleb128 .LBB2509-.LBB2493
	.uleb128 .LBE2509-.LBB2493
	.byte	0x4
	.uleb128 .LBB2511-.LBB2493
	.uleb128 .LBE2511-.LBB2493
	.byte	0
.LLRL379:
	.byte	0x5
	.quad	.LBB2497
	.byte	0x4
	.uleb128 .LBB2497-.LBB2497
	.uleb128 .LBE2497-.LBB2497
	.byte	0x4
	.uleb128 .LBB2507-.LBB2497
	.uleb128 .LBE2507-.LBB2497
	.byte	0
.LLRL385:
	.byte	0x5
	.quad	.LBB2512
	.byte	0x4
	.uleb128 .LBB2512-.LBB2512
	.uleb128 .LBE2512-.LBB2512
	.byte	0x4
	.uleb128 .LBB2523-.LBB2512
	.uleb128 .LBE2523-.LBB2512
	.byte	0x4
	.uleb128 .LBB2747-.LBB2512
	.uleb128 .LBE2747-.LBB2512
	.byte	0x4
	.uleb128 .LBB2754-.LBB2512
	.uleb128 .LBE2754-.LBB2512
	.byte	0
.LLRL387:
	.byte	0x5
	.quad	.LBB2513
	.byte	0x4
	.uleb128 .LBB2513-.LBB2513
	.uleb128 .LBE2513-.LBB2513
	.byte	0x4
	.uleb128 .LBB2519-.LBB2513
	.uleb128 .LBE2519-.LBB2513
	.byte	0x4
	.uleb128 .LBB2520-.LBB2513
	.uleb128 .LBE2520-.LBB2513
	.byte	0x4
	.uleb128 .LBB2521-.LBB2513
	.uleb128 .LBE2521-.LBB2513
	.byte	0
.LLRL389:
	.byte	0x5
	.quad	.LBB2514
	.byte	0x4
	.uleb128 .LBB2514-.LBB2514
	.uleb128 .LBE2514-.LBB2514
	.byte	0x4
	.uleb128 .LBB2515-.LBB2514
	.uleb128 .LBE2515-.LBB2514
	.byte	0x4
	.uleb128 .LBB2516-.LBB2514
	.uleb128 .LBE2516-.LBB2514
	.byte	0x4
	.uleb128 .LBB2517-.LBB2514
	.uleb128 .LBE2517-.LBB2514
	.byte	0x4
	.uleb128 .LBB2518-.LBB2514
	.uleb128 .LBE2518-.LBB2514
	.byte	0
.LLRL391:
	.byte	0x5
	.quad	.LBB2524
	.byte	0x4
	.uleb128 .LBB2524-.LBB2524
	.uleb128 .LBE2524-.LBB2524
	.byte	0x4
	.uleb128 .LBB2751-.LBB2524
	.uleb128 .LBE2751-.LBB2524
	.byte	0x4
	.uleb128 .LBB2756-.LBB2524
	.uleb128 .LBE2756-.LBB2524
	.byte	0
.LLRL394:
	.byte	0x5
	.quad	.LBB2526
	.byte	0x4
	.uleb128 .LBB2526-.LBB2526
	.uleb128 .LBE2526-.LBB2526
	.byte	0x4
	.uleb128 .LBB2536-.LBB2526
	.uleb128 .LBE2536-.LBB2526
	.byte	0
.LLRL402:
	.byte	0x5
	.quad	.LBB2527
	.byte	0x4
	.uleb128 .LBB2527-.LBB2527
	.uleb128 .LBE2527-.LBB2527
	.byte	0x4
	.uleb128 .LBB2532-.LBB2527
	.uleb128 .LBE2532-.LBB2527
	.byte	0x4
	.uleb128 .LBB2533-.LBB2527
	.uleb128 .LBE2533-.LBB2527
	.byte	0x4
	.uleb128 .LBB2534-.LBB2527
	.uleb128 .LBE2534-.LBB2527
	.byte	0x4
	.uleb128 .LBB2535-.LBB2527
	.uleb128 .LBE2535-.LBB2527
	.byte	0
.LLRL404:
	.byte	0x5
	.quad	.LBB2528
	.byte	0x4
	.uleb128 .LBB2528-.LBB2528
	.uleb128 .LBE2528-.LBB2528
	.byte	0x4
	.uleb128 .LBB2529-.LBB2528
	.uleb128 .LBE2529-.LBB2528
	.byte	0x4
	.uleb128 .LBB2530-.LBB2528
	.uleb128 .LBE2530-.LBB2528
	.byte	0x4
	.uleb128 .LBB2531-.LBB2528
	.uleb128 .LBE2531-.LBB2528
	.byte	0
.LLRL412:
	.byte	0x5
	.quad	.LBB2537
	.byte	0x4
	.uleb128 .LBB2537-.LBB2537
	.uleb128 .LBE2537-.LBB2537
	.byte	0x4
	.uleb128 .LBB2725-.LBB2537
	.uleb128 .LBE2725-.LBB2537
	.byte	0x4
	.uleb128 .LBB2748-.LBB2537
	.uleb128 .LBE2748-.LBB2537
	.byte	0x4
	.uleb128 .LBB2757-.LBB2537
	.uleb128 .LBE2757-.LBB2537
	.byte	0x4
	.uleb128 .LBB2759-.LBB2537
	.uleb128 .LBE2759-.LBB2537
	.byte	0x5
	.quad	.LBB2760
	.byte	0x4
	.uleb128 .LBB2760-.LBB2760
	.uleb128 .LBE2760-.LBB2760
	.byte	0x4
	.uleb128 .LBB2822-.LBB2760
	.uleb128 .LBE2822-.LBB2760
	.byte	0x4
	.uleb128 .LBB2824-.LBB2760
	.uleb128 .LBE2824-.LBB2760
	.byte	0x4
	.uleb128 .LBB2848-.LBB2760
	.uleb128 .LBE2848-.LBB2760
	.byte	0x4
	.uleb128 .LBB2866-.LBB2760
	.uleb128 .LBE2866-.LBB2760
	.byte	0
.LLRL414:
	.byte	0x5
	.quad	.LBB2538
	.byte	0x4
	.uleb128 .LBB2538-.LBB2538
	.uleb128 .LBE2538-.LBB2538
	.byte	0x4
	.uleb128 .LBB2672-.LBB2538
	.uleb128 .LBE2672-.LBB2538
	.byte	0x4
	.uleb128 .LBB2673-.LBB2538
	.uleb128 .LBE2673-.LBB2538
	.byte	0x5
	.quad	.LBB2674
	.byte	0x4
	.uleb128 .LBB2674-.LBB2674
	.uleb128 .LBE2674-.LBB2674
	.byte	0x4
	.uleb128 .LBB2675-.LBB2674
	.uleb128 .LBE2675-.LBB2674
	.byte	0x4
	.uleb128 .LBB2676-.LBB2674
	.uleb128 .LBE2676-.LBB2674
	.byte	0x4
	.uleb128 .LBB2677-.LBB2674
	.uleb128 .LBE2677-.LBB2674
	.byte	0x4
	.uleb128 .LBB2678-.LBB2674
	.uleb128 .LBE2678-.LBB2674
	.byte	0
.LLRL416:
	.byte	0x5
	.quad	.LBB2539
	.byte	0x4
	.uleb128 .LBB2539-.LBB2539
	.uleb128 .LBE2539-.LBB2539
	.byte	0x4
	.uleb128 .LBB2664-.LBB2539
	.uleb128 .LBE2664-.LBB2539
	.byte	0x4
	.uleb128 .LBB2665-.LBB2539
	.uleb128 .LBE2665-.LBB2539
	.byte	0x4
	.uleb128 .LBB2666-.LBB2539
	.uleb128 .LBE2666-.LBB2539
	.byte	0x5
	.quad	.LBB2667
	.byte	0x4
	.uleb128 .LBB2667-.LBB2667
	.uleb128 .LBE2667-.LBB2667
	.byte	0x4
	.uleb128 .LBB2668-.LBB2667
	.uleb128 .LBE2668-.LBB2667
	.byte	0x4
	.uleb128 .LBB2669-.LBB2667
	.uleb128 .LBE2669-.LBB2667
	.byte	0x4
	.uleb128 .LBB2670-.LBB2667
	.uleb128 .LBE2670-.LBB2667
	.byte	0x4
	.uleb128 .LBB2671-.LBB2667
	.uleb128 .LBE2671-.LBB2667
	.byte	0
.LLRL418:
	.byte	0x5
	.quad	.LBB2540
	.byte	0x4
	.uleb128 .LBB2540-.LBB2540
	.uleb128 .LBE2540-.LBB2540
	.byte	0x4
	.uleb128 .LBB2560-.LBB2540
	.uleb128 .LBE2560-.LBB2540
	.byte	0x4
	.uleb128 .LBB2562-.LBB2540
	.uleb128 .LBE2562-.LBB2540
	.byte	0x4
	.uleb128 .LBB2563-.LBB2540
	.uleb128 .LBE2563-.LBB2540
	.byte	0x4
	.uleb128 .LBB2564-.LBB2540
	.uleb128 .LBE2564-.LBB2540
	.byte	0
.LLRL420:
	.byte	0x5
	.quad	.LBB2546
	.byte	0x4
	.uleb128 .LBB2546-.LBB2546
	.uleb128 .LBE2546-.LBB2546
	.byte	0x4
	.uleb128 .LBB2559-.LBB2546
	.uleb128 .LBE2559-.LBB2546
	.byte	0x4
	.uleb128 .LBB2561-.LBB2546
	.uleb128 .LBE2561-.LBB2546
	.byte	0x4
	.uleb128 .LBB2565-.LBB2546
	.uleb128 .LBE2565-.LBB2546
	.byte	0
.LLRL421:
	.byte	0x5
	.quad	.LBB2547
	.byte	0x4
	.uleb128 .LBB2547-.LBB2547
	.uleb128 .LBE2547-.LBB2547
	.byte	0x4
	.uleb128 .LBB2551-.LBB2547
	.uleb128 .LBE2551-.LBB2547
	.byte	0x4
	.uleb128 .LBB2556-.LBB2547
	.uleb128 .LBE2556-.LBB2547
	.byte	0x4
	.uleb128 .LBB2558-.LBB2547
	.uleb128 .LBE2558-.LBB2547
	.byte	0
.LLRL422:
	.byte	0x5
	.quad	.LBB2552
	.byte	0x4
	.uleb128 .LBB2552-.LBB2552
	.uleb128 .LBE2552-.LBB2552
	.byte	0x4
	.uleb128 .LBB2555-.LBB2552
	.uleb128 .LBE2555-.LBB2552
	.byte	0x4
	.uleb128 .LBB2557-.LBB2552
	.uleb128 .LBE2557-.LBB2552
	.byte	0
.LLRL423:
	.byte	0x5
	.quad	.LBB2566
	.byte	0x4
	.uleb128 .LBB2566-.LBB2566
	.uleb128 .LBE2566-.LBB2566
	.byte	0x4
	.uleb128 .LBB2584-.LBB2566
	.uleb128 .LBE2584-.LBB2566
	.byte	0x4
	.uleb128 .LBB2588-.LBB2566
	.uleb128 .LBE2588-.LBB2566
	.byte	0x5
	.quad	.LBB2658
	.byte	0x4
	.uleb128 .LBB2658-.LBB2658
	.uleb128 .LBE2658-.LBB2658
	.byte	0x4
	.uleb128 .LBB2661-.LBB2658
	.uleb128 .LBE2661-.LBB2658
	.byte	0
.LLRL427:
	.byte	0x5
	.quad	.LBB2568
	.byte	0x4
	.uleb128 .LBB2568-.LBB2568
	.uleb128 .LBE2568-.LBB2568
	.byte	0x4
	.uleb128 .LBB2576-.LBB2568
	.uleb128 .LBE2576-.LBB2568
	.byte	0x4
	.uleb128 .LBB2577-.LBB2568
	.uleb128 .LBE2577-.LBB2568
	.byte	0x5
	.quad	.LBB2578
	.byte	0x4
	.uleb128 .LBB2578-.LBB2578
	.uleb128 .LBE2578-.LBB2578
	.byte	0x4
	.uleb128 .LBB2579-.LBB2578
	.uleb128 .LBE2579-.LBB2578
	.byte	0
.LLRL433:
	.byte	0x5
	.quad	.LBB2585
	.byte	0x4
	.uleb128 .LBB2585-.LBB2585
	.uleb128 .LBE2585-.LBB2585
	.byte	0x4
	.uleb128 .LBB2589-.LBB2585
	.uleb128 .LBE2589-.LBB2585
	.byte	0
.LLRL435:
	.byte	0x5
	.quad	.LBB2591
	.byte	0x4
	.uleb128 .LBB2591-.LBB2591
	.uleb128 .LBE2591-.LBB2591
	.byte	0x4
	.uleb128 .LBB2595-.LBB2591
	.uleb128 .LBE2595-.LBB2591
	.byte	0
.LLRL436:
	.byte	0x5
	.quad	.LBB2593
	.byte	0x4
	.uleb128 .LBB2593-.LBB2593
	.uleb128 .LBE2593-.LBB2593
	.byte	0x4
	.uleb128 .LBB2596-.LBB2593
	.uleb128 .LBE2596-.LBB2593
	.byte	0
.LLRL437:
	.byte	0x5
	.quad	.LBB2597
	.byte	0x4
	.uleb128 .LBB2597-.LBB2597
	.uleb128 .LBE2597-.LBB2597
	.byte	0x4
	.uleb128 .LBB2624-.LBB2597
	.uleb128 .LBE2624-.LBB2597
	.byte	0x4
	.uleb128 .LBB2628-.LBB2597
	.uleb128 .LBE2628-.LBB2597
	.byte	0x4
	.uleb128 .LBB2655-.LBB2597
	.uleb128 .LBE2655-.LBB2597
	.byte	0x5
	.quad	.LBB2656
	.byte	0x4
	.uleb128 .LBB2656-.LBB2656
	.uleb128 .LBE2656-.LBB2656
	.byte	0x4
	.uleb128 .LBB2657-.LBB2656
	.uleb128 .LBE2657-.LBB2656
	.byte	0x4
	.uleb128 .LBB2659-.LBB2656
	.uleb128 .LBE2659-.LBB2656
	.byte	0x4
	.uleb128 .LBB2662-.LBB2656
	.uleb128 .LBE2662-.LBB2656
	.byte	0
.LLRL442:
	.byte	0x5
	.quad	.LBB2599
	.byte	0x4
	.uleb128 .LBB2599-.LBB2599
	.uleb128 .LBE2599-.LBB2599
	.byte	0x4
	.uleb128 .LBB2610-.LBB2599
	.uleb128 .LBE2610-.LBB2599
	.byte	0x4
	.uleb128 .LBB2611-.LBB2599
	.uleb128 .LBE2611-.LBB2599
	.byte	0x4
	.uleb128 .LBB2612-.LBB2599
	.uleb128 .LBE2612-.LBB2599
	.byte	0x5
	.quad	.LBB2613
	.byte	0x4
	.uleb128 .LBB2613-.LBB2613
	.uleb128 .LBE2613-.LBB2613
	.byte	0x4
	.uleb128 .LBB2614-.LBB2613
	.uleb128 .LBE2614-.LBB2613
	.byte	0x4
	.uleb128 .LBB2615-.LBB2613
	.uleb128 .LBE2615-.LBB2613
	.byte	0x4
	.uleb128 .LBB2616-.LBB2613
	.uleb128 .LBE2616-.LBB2613
	.byte	0
.LLRL449:
	.byte	0x5
	.quad	.LBB2625
	.byte	0x4
	.uleb128 .LBB2625-.LBB2625
	.uleb128 .LBE2625-.LBB2625
	.byte	0x4
	.uleb128 .LBB2629-.LBB2625
	.uleb128 .LBE2629-.LBB2625
	.byte	0
.LLRL451:
	.byte	0x5
	.quad	.LBB2631
	.byte	0x4
	.uleb128 .LBB2631-.LBB2631
	.uleb128 .LBE2631-.LBB2631
	.byte	0x4
	.uleb128 .LBB2635-.LBB2631
	.uleb128 .LBE2635-.LBB2631
	.byte	0
.LLRL452:
	.byte	0x5
	.quad	.LBB2633
	.byte	0x4
	.uleb128 .LBB2633-.LBB2633
	.uleb128 .LBE2633-.LBB2633
	.byte	0x4
	.uleb128 .LBB2636-.LBB2633
	.uleb128 .LBE2636-.LBB2633
	.byte	0
.LLRL453:
	.byte	0x5
	.quad	.LBB2637
	.byte	0x4
	.uleb128 .LBB2637-.LBB2637
	.uleb128 .LBE2637-.LBB2637
	.byte	0x4
	.uleb128 .LBB2654-.LBB2637
	.uleb128 .LBE2654-.LBB2637
	.byte	0x5
	.quad	.LBB2660
	.byte	0x4
	.uleb128 .LBB2660-.LBB2660
	.uleb128 .LBE2660-.LBB2660
	.byte	0x4
	.uleb128 .LBB2663-.LBB2660
	.uleb128 .LBE2663-.LBB2660
	.byte	0
.LLRL458:
	.byte	0x5
	.quad	.LBB2639
	.byte	0x4
	.uleb128 .LBB2639-.LBB2639
	.uleb128 .LBE2639-.LBB2639
	.byte	0x4
	.uleb128 .LBB2647-.LBB2639
	.uleb128 .LBE2647-.LBB2639
	.byte	0x4
	.uleb128 .LBB2648-.LBB2639
	.uleb128 .LBE2648-.LBB2639
	.byte	0x5
	.quad	.LBB2649
	.byte	0x4
	.uleb128 .LBB2649-.LBB2649
	.uleb128 .LBE2649-.LBB2649
	.byte	0x4
	.uleb128 .LBB2650-.LBB2649
	.uleb128 .LBE2650-.LBB2649
	.byte	0
.LLRL465:
	.byte	0x5
	.quad	.LBB2679
	.byte	0x4
	.uleb128 .LBB2679-.LBB2679
	.uleb128 .LBE2679-.LBB2679
	.byte	0x4
	.uleb128 .LBB2758-.LBB2679
	.uleb128 .LBE2758-.LBB2679
	.byte	0
.LLRL466:
	.byte	0x5
	.quad	.LBB2680
	.byte	0x4
	.uleb128 .LBB2680-.LBB2680
	.uleb128 .LBE2680-.LBB2680
	.byte	0x4
	.uleb128 .LBB2695-.LBB2680
	.uleb128 .LBE2695-.LBB2680
	.byte	0
.LLRL467:
	.byte	0x5
	.quad	.LBB2681
	.byte	0x4
	.uleb128 .LBB2681-.LBB2681
	.uleb128 .LBE2681-.LBB2681
	.byte	0x4
	.uleb128 .LBB2696-.LBB2681
	.uleb128 .LBE2696-.LBB2681
	.byte	0
.LLRL468:
	.byte	0x5
	.quad	.LBB2682
	.byte	0x4
	.uleb128 .LBB2682-.LBB2682
	.uleb128 .LBE2682-.LBB2682
	.byte	0x4
	.uleb128 .LBB2697-.LBB2682
	.uleb128 .LBE2697-.LBB2682
	.byte	0
.LLRL469:
	.byte	0x5
	.quad	.LBB2683
	.byte	0x4
	.uleb128 .LBB2683-.LBB2683
	.uleb128 .LBE2683-.LBB2683
	.byte	0x4
	.uleb128 .LBB2694-.LBB2683
	.uleb128 .LBE2694-.LBB2683
	.byte	0
.LLRL481:
	.byte	0x5
	.quad	.LBB2763
	.byte	0x4
	.uleb128 .LBB2763-.LBB2763
	.uleb128 .LBE2763-.LBB2763
	.byte	0x4
	.uleb128 .LBB2778-.LBB2763
	.uleb128 .LBE2778-.LBB2763
	.byte	0
.LLRL482:
	.byte	0x5
	.quad	.LBB2764
	.byte	0x4
	.uleb128 .LBB2764-.LBB2764
	.uleb128 .LBE2764-.LBB2764
	.byte	0x4
	.uleb128 .LBB2772-.LBB2764
	.uleb128 .LBE2772-.LBB2764
	.byte	0
.LLRL490:
	.byte	0x5
	.quad	.LBB2779
	.byte	0x4
	.uleb128 .LBB2779-.LBB2779
	.uleb128 .LBE2779-.LBB2779
	.byte	0x4
	.uleb128 .LBB2847-.LBB2779
	.uleb128 .LBE2847-.LBB2779
	.byte	0
.LLRL494:
	.byte	0x5
	.quad	.LBB2782
	.byte	0x4
	.uleb128 .LBB2782-.LBB2782
	.uleb128 .LBE2782-.LBB2782
	.byte	0x4
	.uleb128 .LBB2803-.LBB2782
	.uleb128 .LBE2803-.LBB2782
	.byte	0
.LLRL496:
	.byte	0x5
	.quad	.LBB2783
	.byte	0x4
	.uleb128 .LBB2783-.LBB2783
	.uleb128 .LBE2783-.LBB2783
	.byte	0x4
	.uleb128 .LBB2802-.LBB2783
	.uleb128 .LBE2802-.LBB2783
	.byte	0
.LLRL497:
	.byte	0x5
	.quad	.LBB2784
	.byte	0x4
	.uleb128 .LBB2784-.LBB2784
	.uleb128 .LBE2784-.LBB2784
	.byte	0x4
	.uleb128 .LBB2797-.LBB2784
	.uleb128 .LBE2797-.LBB2784
	.byte	0x4
	.uleb128 .LBB2798-.LBB2784
	.uleb128 .LBE2798-.LBB2784
	.byte	0
.LLRL500:
	.byte	0x5
	.quad	.LBB2786
	.byte	0x4
	.uleb128 .LBB2786-.LBB2786
	.uleb128 .LBE2786-.LBB2786
	.byte	0x4
	.uleb128 .LBB2794-.LBB2786
	.uleb128 .LBE2794-.LBB2786
	.byte	0
.LLRL503:
	.byte	0x5
	.quad	.LBB2788
	.byte	0x4
	.uleb128 .LBB2788-.LBB2788
	.uleb128 .LBE2788-.LBB2788
	.byte	0x4
	.uleb128 .LBB2792-.LBB2788
	.uleb128 .LBE2792-.LBB2788
	.byte	0
.LLRL505:
	.byte	0x5
	.quad	.LBB2789
	.byte	0x4
	.uleb128 .LBB2789-.LBB2789
	.uleb128 .LBE2789-.LBB2789
	.byte	0x4
	.uleb128 .LBB2791-.LBB2789
	.uleb128 .LBE2791-.LBB2789
	.byte	0
.LLRL510:
	.byte	0x5
	.quad	.LBB2805
	.byte	0x4
	.uleb128 .LBB2805-.LBB2805
	.uleb128 .LBE2805-.LBB2805
	.byte	0x4
	.uleb128 .LBB2820-.LBB2805
	.uleb128 .LBE2820-.LBB2805
	.byte	0
.LLRL511:
	.byte	0x5
	.quad	.LBB2806
	.byte	0x4
	.uleb128 .LBB2806-.LBB2806
	.uleb128 .LBE2806-.LBB2806
	.byte	0x4
	.uleb128 .LBB2814-.LBB2806
	.uleb128 .LBE2814-.LBB2806
	.byte	0
.LLRL520:
	.byte	0x5
	.quad	.LBB2827
	.byte	0x4
	.uleb128 .LBB2827-.LBB2827
	.uleb128 .LBE2827-.LBB2827
	.byte	0x4
	.uleb128 .LBB2846-.LBB2827
	.uleb128 .LBE2846-.LBB2827
	.byte	0
.LLRL522:
	.byte	0x5
	.quad	.LBB2828
	.byte	0x4
	.uleb128 .LBB2828-.LBB2828
	.uleb128 .LBE2828-.LBB2828
	.byte	0x4
	.uleb128 .LBB2845-.LBB2828
	.uleb128 .LBE2845-.LBB2828
	.byte	0
.LLRL524:
	.byte	0x5
	.quad	.LBB2829
	.byte	0x4
	.uleb128 .LBB2829-.LBB2829
	.uleb128 .LBE2829-.LBB2829
	.byte	0x4
	.uleb128 .LBB2839-.LBB2829
	.uleb128 .LBE2839-.LBB2829
	.byte	0
.LLRL526:
	.byte	0x5
	.quad	.LBB2830
	.byte	0x4
	.uleb128 .LBB2830-.LBB2830
	.uleb128 .LBE2830-.LBB2830
	.byte	0x4
	.uleb128 .LBB2838-.LBB2830
	.uleb128 .LBE2838-.LBB2830
	.byte	0
.LLRL530:
	.byte	0x5
	.quad	.LBB2832
	.byte	0x4
	.uleb128 .LBB2832-.LBB2832
	.uleb128 .LBE2832-.LBB2832
	.byte	0x4
	.uleb128 .LBB2836-.LBB2832
	.uleb128 .LBE2836-.LBB2832
	.byte	0
.LLRL544:
	.byte	0x5
	.quad	.LBB2850
	.byte	0x4
	.uleb128 .LBB2850-.LBB2850
	.uleb128 .LBE2850-.LBB2850
	.byte	0x4
	.uleb128 .LBB2865-.LBB2850
	.uleb128 .LBE2865-.LBB2850
	.byte	0
.LLRL545:
	.byte	0x5
	.quad	.LBB2851
	.byte	0x4
	.uleb128 .LBB2851-.LBB2851
	.uleb128 .LBE2851-.LBB2851
	.byte	0x4
	.uleb128 .LBB2859-.LBB2851
	.uleb128 .LBE2859-.LBB2851
	.byte	0
.LLRL553:
	.byte	0x7
	.quad	.Ltext0
	.uleb128 .Letext0-.Ltext0
	.byte	0x7
	.quad	.Ltext_cold0
	.uleb128 .Letext_cold0-.Ltext_cold0
	.byte	0
.Ldebug_ranges3:
	.section	.debug_line,"",@progbits
.Ldebug_line0:
	.section	.debug_str,"MS",@progbits,1
.LASF955:
	.string	"wcspbrk"
.LASF347:
	.string	"_ZNSt6vectorI16SubApertureImageSaIS0_EEC4EOS2_RKS1_St17integral_constantIbLb1EE"
.LASF1100:
	.string	"lconv"
.LASF661:
	.string	"_ZNKSt6vectorIfSaIfEE4cendEv"
.LASF151:
	.string	"_ZNSt6vectorIhSaIhEE19_S_nothrow_relocateESt17integral_constantIbLb1EE"
.LASF683:
	.string	"_ZNSt6vectorIfSaIfEE9push_backERKf"
.LASF525:
	.string	"_ZNKSt6vectorIiSaIiEE4sizeEv"
.LASF949:
	.string	"wmemmove"
.LASF572:
	.string	"initializer_list<int>"
.LASF134:
	.string	"_ZNSt12_Vector_baseIhSaIhEEC4EOS1_RKS0_"
.LASF1142:
	.string	"__int_least64_t"
.LASF1046:
	.string	"_ZNK9__gnu_cxx17__normal_iteratorIPK16SubApertureImageSt6vectorIS1_SaIS1_EEEmiEl"
.LASF410:
	.string	"_ZNSt6vectorI16SubApertureImageSaIS0_EE11_S_max_sizeERKS1_"
.LASF370:
	.string	"_ZNKSt6vectorI16SubApertureImageSaIS0_EE8max_sizeEv"
.LASF1314:
	.string	"__it"
.LASF165:
	.string	"_ZNSt6vectorIhSaIhEEC4EOS1_RKS0_"
.LASF1338:
	.string	"_ZNSt15__new_allocatorIhEC2Ev"
.LASF517:
	.string	"_ZNSt6vectorIiSaIiEE6rbeginEv"
.LASF182:
	.string	"reverse_iterator"
.LASF919:
	.string	"tm_sec"
.LASF416:
	.string	"initializer_list<SubApertureImage>"
.LASF586:
	.string	"_ZNKSt15__new_allocatorIfE7addressERf"
.LASF690:
	.string	"_ZNSt6vectorIfSaIfEE5eraseEN9__gnu_cxx17__normal_iteratorIPKfS1_EE"
.LASF413:
	.string	"_ZNSt6vectorI16SubApertureImageSaIS0_EE8_M_eraseEN9__gnu_cxx17__normal_iteratorIPS0_S2_EES6_"
.LASF78:
	.string	"allocate"
.LASF354:
	.string	"_ZNSt6vectorI16SubApertureImageSaIS0_EEaSESt16initializer_listIS0_E"
.LASF686:
	.string	"_ZNSt6vectorIfSaIfEE6insertEN9__gnu_cxx17__normal_iteratorIPKfS1_EERS4_"
.LASF1317:
	.string	"__allocmax"
.LASF1331:
	.string	"__vect"
.LASF888:
	.string	"fwide"
.LASF1406:
	.string	"pBRb"
.LASF607:
	.string	"_ZNSt12_Vector_baseIfSaIfEE17_Vector_impl_data12_M_swap_dataERS2_"
.LASF1062:
	.string	"__normal_iterator<int const*, std::vector<int, std::allocator<int> > >"
.LASF1405:
	.string	"pBRg"
.LASF1120:
	.string	"int_p_sep_by_space"
.LASF503:
	.string	"_ZNSt6vectorIiSaIiEEC4EOS1_RKS0_St17integral_constantIbLb1EE"
.LASF301:
	.string	"_ZNSt16allocator_traitsISaI16SubApertureImageEE8allocateERS1_mPKv"
.LASF214:
	.string	"_ZNKSt6vectorIhSaIhEEixEm"
.LASF1129:
	.string	"__uint8_t"
.LASF892:
	.string	"getwc"
.LASF160:
	.string	"_ZNSt6vectorIhSaIhEEC4ERKS1_"
.LASF1158:
	.string	"7lldiv_t"
.LASF638:
	.string	"_ZNSt6vectorIfSaIfEEC4EmRKfRKS0_"
.LASF969:
	.string	"_ZN9__gnu_cxx14__alloc_traitsISaIhEhE27_S_propagate_on_copy_assignEv"
.LASF1208:
	.string	"fpos_t"
.LASF295:
	.string	"_ZNSaI16SubApertureImageEC4Ev"
.LASF617:
	.string	"_ZNSt12_Vector_baseIfSaIfEEC4Ev"
.LASF1376:
	.string	"refocus_shift_and_sum"
.LASF625:
	.string	"_ZNSt12_Vector_baseIfSaIfEED4Ev"
.LASF1032:
	.string	"_ZNK9__gnu_cxx17__normal_iteratorIP16SubApertureImageSt6vectorIS1_SaIS1_EEE4baseEv"
.LASF1286:
	.string	"SubApertureImage"
.LASF759:
	.string	"_ZSt10_ConstructIfJEEvPT_DpOT0_"
.LASF978:
	.string	"rebind<unsigned char>"
.LASF714:
	.string	"_ZNSt16initializer_listIfEC4EPKfm"
.LASF643:
	.string	"_ZNSt6vectorIfSaIfEEC4EOS1_RKS0_St17integral_constantIbLb0EE"
.LASF539:
	.string	"_ZNKSt6vectorIiSaIiEE5frontEv"
.LASF728:
	.string	"_UninitDestroyGuard"
.LASF605:
	.string	"_ZNSt12_Vector_baseIfSaIfEE17_Vector_impl_dataC4EOS2_"
.LASF442:
	.string	"_ZNSt15__new_allocatorIiEC4ERKS0_"
.LASF870:
	.string	"_shortbuf"
.LASF236:
	.string	"_ZNSt6vectorIhSaIhEE6insertEN9__gnu_cxx17__normal_iteratorIPKhS1_EESt16initializer_listIhE"
.LASF632:
	.string	"_ZNSt6vectorIfSaIfEE19_S_nothrow_relocateESt17integral_constantIbLb0EE"
.LASF794:
	.string	"_Tp2"
.LASF795:
	.string	"__to_address<(anonymous namespace)::SubParams>"
.LASF959:
	.string	"__gnu_cxx"
.LASF1345:
	.string	"_ZNSt12_Vector_baseIiSaIiEED2Ev"
.LASF168:
	.string	"_ZNSt6vectorIhSaIhEED4Ev"
.LASF1304:
	.string	"operator new"
.LASF52:
	.string	"__cxx11"
.LASF1041:
	.string	"_ZN9__gnu_cxx17__normal_iteratorIPK16SubApertureImageSt6vectorIS1_SaIS1_EEEmmEi"
.LASF1139:
	.string	"__uint_least16_t"
.LASF964:
	.string	"_S_select_on_copy"
.LASF1123:
	.string	"int_p_sign_posn"
.LASF1285:
	.string	"_ZN9ImageDataC4Ev"
.LASF995:
	.string	"_ZN9__gnu_cxx17__normal_iteratorIPhSt6vectorIhSaIhEEEmmEi"
.LASF905:
	.string	"__isoc23_vfwscanf"
.LASF1040:
	.string	"_ZN9__gnu_cxx17__normal_iteratorIPK16SubApertureImageSt6vectorIS1_SaIS1_EEEmmEv"
.LASF932:
	.string	"wcsncmp"
.LASF243:
	.string	"_ZNSt6vectorIhSaIhEE5clearEv"
.LASF415:
	.string	"_ZNSt6vectorI16SubApertureImageSaIS0_EE14_M_move_assignEOS2_St17integral_constantIbLb0EE"
.LASF476:
	.string	"_ZNKSt12_Vector_baseIiSaIiEE19_M_get_Tp_allocatorEv"
.LASF305:
	.string	"_ZNSt16allocator_traitsISaI16SubApertureImageEE37select_on_container_copy_constructionERKS1_"
.LASF307:
	.string	"_ZNSt12_Vector_baseI16SubApertureImageSaIS0_EE17_Vector_impl_dataC4Ev"
.LASF206:
	.string	"capacity"
.LASF1316:
	.string	"__diffmax"
.LASF1074:
	.string	"__conditional_type<true, float const, float const&>"
.LASF380:
	.string	"_ZNSt6vectorI16SubApertureImageSaIS0_EE2atEm"
.LASF289:
	.string	"_ZNKSt15__new_allocatorI16SubApertureImageE7addressERKS0_"
.LASF579:
	.string	"reverse_iterator<__gnu_cxx::__normal_iterator<int*, std::vector<int, std::allocator<int> > > >"
.LASF688:
	.string	"_ZNSt6vectorIfSaIfEE6insertEN9__gnu_cxx17__normal_iteratorIPKfS1_EESt16initializer_listIfE"
.LASF202:
	.string	"_ZNSt6vectorIhSaIhEE6resizeEm"
.LASF1087:
	.string	"__isoc23_wcstoull"
.LASF1211:
	.string	"feof"
.LASF916:
	.string	"wcscpy"
.LASF1235:
	.string	"uint16_t"
.LASF693:
	.string	"_ZNSt6vectorIfSaIfEE5clearEv"
.LASF326:
	.string	"_ZNSt12_Vector_baseI16SubApertureImageSaIS0_EEC4EOS2_RKS1_"
.LASF590:
	.string	"_ZNKSt15__new_allocatorIfE8max_sizeEv"
.LASF1161:
	.string	"time_t"
.LASF124:
	.string	"_ZNKSt12_Vector_baseIhSaIhEE19_M_get_Tp_allocatorEv"
.LASF104:
	.string	"_Vector_base<unsigned char, std::allocator<unsigned char> >"
.LASF1012:
	.string	"_ZN9__gnu_cxx14__alloc_traitsISaI16SubApertureImageES1_E27_S_propagate_on_copy_assignEv"
.LASF1287:
	.string	"float_t"
.LASF1072:
	.string	"__normal_iterator<float*, std::vector<float, std::allocator<float> > >"
.LASF1297:
	.string	"__cxa_throw"
.LASF207:
	.string	"_ZNKSt6vectorIhSaIhEE8capacityEv"
.LASF840:
	.string	"reg_save_area"
.LASF1319:
	.string	"_ZNSt15__new_allocatorIfEC2ERKS0_"
.LASF1366:
	.string	"_ZNSaIfEC2Ev"
.LASF826:
	.string	"min<int>"
.LASF1146:
	.string	"__off_t"
.LASF220:
	.string	"_ZNSt6vectorIhSaIhEE5frontEv"
.LASF75:
	.string	"const_pointer"
.LASF1382:
	.string	"counts"
.LASF426:
	.string	"vector<(anonymous namespace)::SubParams, std::allocator<(anonymous namespace)::SubParams> >"
.LASF654:
	.string	"_ZNSt6vectorIfSaIfEE3endEv"
.LASF84:
	.string	"_ZNKSt15__new_allocatorIhE8max_sizeEv"
.LASF13:
	.string	"_ZNKSt17integral_constantIbLb0EEcvbEv"
.LASF161:
	.string	"_ZNSt6vectorIhSaIhEEC4EOS1_"
.LASF81:
	.string	"deallocate"
.LASF1274:
	.string	"towctrans"
.LASF143:
	.string	"_M_create_storage"
.LASF6:
	.string	"operator std::integral_constant<bool, true>::value_type"
.LASF1413:
	.string	"_ZNSt12_Vector_baseIhSaIhEE12_Vector_implD2Ev"
.LASF203:
	.string	"_ZNSt6vectorIhSaIhEE6resizeEmRKh"
.LASF677:
	.string	"_ZNSt6vectorIfSaIfEE5frontEv"
.LASF927:
	.string	"tm_isdst"
.LASF1260:
	.string	"_Float128"
.LASF1279:
	.string	"height"
.LASF210:
	.string	"reserve"
.LASF1103:
	.string	"grouping"
.LASF1311:
	.string	"_ZNSt19_UninitDestroyGuardIPivEC2ERS0_"
.LASF871:
	.string	"_lock"
.LASF88:
	.string	"allocator"
.LASF816:
	.string	"_Destroy<int*, int>"
.LASF1084:
	.string	"__isoc23_wcstoll"
.LASF1083:
	.string	"wcstoll"
.LASF135:
	.string	"_ZNSt12_Vector_baseIhSaIhEEC4ERKS0_OS1_"
.LASF518:
	.string	"_ZNKSt6vectorIiSaIiEE6rbeginEv"
.LASF1292:
	.string	"SubParams"
.LASF542:
	.string	"_ZNSt6vectorIiSaIiEE4dataEv"
.LASF66:
	.string	"operator bool"
.LASF811:
	.string	"_ZSt3minIfERKT_S2_S2_"
.LASF681:
	.string	"_ZNSt6vectorIfSaIfEE4dataEv"
.LASF740:
	.string	"out_of_range"
.LASF130:
	.string	"_ZNSt12_Vector_baseIhSaIhEEC4Em"
.LASF1090:
	.string	"__max_align_ld"
.LASF554:
	.string	"_ZNSt6vectorIiSaIiEE5clearEv"
.LASF1092:
	.string	"bool"
.LASF716:
	.string	"_ZNKSt16initializer_listIfE4sizeEv"
.LASF128:
	.string	"_ZNSt12_Vector_baseIhSaIhEEC4Ev"
.LASF1173:
	.string	"atoi"
.LASF1089:
	.string	"__max_align_ll"
.LASF1174:
	.string	"atol"
.LASF271:
	.string	"_ZNSt6vectorIhSaIhEE8_M_eraseEN9__gnu_cxx17__normal_iteratorIPhS1_EE"
.LASF8:
	.string	"_ZNKSt17integral_constantIbLb1EEcvbEv"
.LASF526:
	.string	"_ZNKSt6vectorIiSaIiEE8max_sizeEv"
.LASF933:
	.string	"wcsncpy"
.LASF1021:
	.string	"_ZNK9__gnu_cxx17__normal_iteratorIP16SubApertureImageSt6vectorIS1_SaIS1_EEEdeEv"
.LASF935:
	.string	"wcsspn"
.LASF225:
	.string	"data"
.LASF1363:
	.string	"_ZNSt6vectorIfSaIfEED2Ev"
.LASF221:
	.string	"_ZNKSt6vectorIhSaIhEE5frontEv"
.LASF359:
	.string	"_ZNSt6vectorI16SubApertureImageSaIS0_EE3endEv"
.LASF14:
	.string	"_ZNKSt17integral_constantIbLb0EEclEv"
.LASF790:
	.string	"_Destroy<int*>"
.LASF608:
	.string	"_ZNSt12_Vector_baseIfSaIfEE12_Vector_implC4Ev"
.LASF155:
	.string	"vector"
.LASF263:
	.string	"_ZNKSt6vectorIhSaIhEE12_M_check_lenEmPKc"
.LASF1164:
	.string	"int32_t"
.LASF1256:
	.string	"intmax_t"
.LASF1202:
	.string	"__pos"
.LASF293:
	.string	"_ZNKSt15__new_allocatorI16SubApertureImageE11_M_max_sizeEv"
.LASF51:
	.string	"__debug"
.LASF747:
	.string	"_ZSt20__throw_length_errorPKc"
.LASF1275:
	.string	"wctrans"
.LASF493:
	.string	"_ZNSt6vectorIiSaIiEE19_S_nothrow_relocateESt17integral_constantIbLb0EE"
.LASF233:
	.string	"insert"
.LASF261:
	.string	"_ZNSt6vectorIhSaIhEE14_M_emplace_auxEN9__gnu_cxx17__normal_iteratorIPKhS1_EEOh"
.LASF501:
	.string	"_ZNSt6vectorIiSaIiEEC4EOS1_"
.LASF788:
	.string	"__uninitialized_default_n_a<float*, long unsigned int, float>"
.LASF533:
	.string	"_ZNSt6vectorIiSaIiEEixEm"
.LASF1125:
	.string	"setlocale"
.LASF310:
	.string	"_ZNSt12_Vector_baseIhSaIhEE17_Vector_impl_data12_M_swap_dataERS2_"
.LASF174:
	.string	"_ZNSt6vectorIhSaIhEE6assignESt16initializer_listIhE"
.LASF1257:
	.string	"uintmax_t"
.LASF640:
	.string	"_ZNSt6vectorIfSaIfEEC4EOS1_"
.LASF1416:
	.string	"memcpy"
.LASF910:
	.string	"vwscanf"
.LASF268:
	.string	"_M_erase_at_end"
.LASF483:
	.string	"_ZNSt12_Vector_baseIiSaIiEEC4EOS0_"
.LASF594:
	.string	"_ZNSaIfEC4ERKS_"
.LASF495:
	.string	"_ZNSt6vectorIiSaIiEE11_S_relocateEPiS2_S2_RS0_"
.LASF622:
	.string	"_ZNSt12_Vector_baseIfSaIfEEC4EOS0_"
.LASF64:
	.string	"_ZNSt15__new_allocatorIhEC4Ev"
.LASF1434:
	.string	"11max_align_t"
.LASF642:
	.string	"_ZNSt6vectorIfSaIfEEC4EOS1_RKS0_St17integral_constantIbLb1EE"
.LASF267:
	.string	"_ZNSt6vectorIhSaIhEE11_S_max_sizeERKS0_"
.LASF537:
	.string	"_ZNKSt6vectorIiSaIiEE2atEm"
.LASF352:
	.string	"_ZNSt6vectorI16SubApertureImageSaIS0_EEaSERKS2_"
.LASF945:
	.string	"wcsxfrm"
.LASF453:
	.string	"_ZNSaIiEC4ERKS_"
.LASF1141:
	.string	"__uint_least32_t"
.LASF1150:
	.string	"__syscall_slong_t"
.LASF1419:
	.string	"__builtin_memset"
.LASF891:
	.string	"__isoc23_fwscanf"
.LASF631:
	.string	"_ZNSt6vectorIfSaIfEE19_S_nothrow_relocateESt17integral_constantIbLb1EE"
.LASF83:
	.string	"max_size"
.LASF857:
	.string	"_IO_write_end"
.LASF1187:
	.string	"__isoc23_strtol"
.LASF82:
	.string	"_ZNSt15__new_allocatorIhE10deallocateEPhm"
.LASF455:
	.string	"_ZNSaIiED4Ev"
.LASF778:
	.string	"max<long unsigned int>"
.LASF482:
	.string	"_ZNSt12_Vector_baseIiSaIiEEC4EOS1_"
.LASF1347:
	.string	"_ZNSt12_Vector_baseIiSaIiEE12_Vector_implD2Ev"
.LASF704:
	.string	"_ZNSt6vectorIfSaIfEE17_S_check_init_lenEmRKS0_"
.LASF5:
	.string	"value_type"
.LASF1241:
	.string	"int_least64_t"
.LASF621:
	.string	"_ZNSt12_Vector_baseIfSaIfEEC4EOS1_"
.LASF1192:
	.string	"wctomb"
.LASF45:
	.string	"nullptr_t"
.LASF942:
	.string	"long int"
.LASF662:
	.string	"_ZNKSt6vectorIfSaIfEE7crbeginEv"
.LASF232:
	.string	"_ZNSt6vectorIhSaIhEE8pop_backEv"
.LASF1048:
	.string	"__alloc_traits<std::allocator<(anonymous namespace)::SubParams>, (anonymous namespace)::SubParams>"
.LASF609:
	.string	"_ZNSt12_Vector_baseIfSaIfEE12_Vector_implC4ERKS0_"
.LASF1239:
	.string	"int_least16_t"
.LASF835:
	.string	"_ZSt17__size_to_integerm"
.LASF1067:
	.string	"_ZN9__gnu_cxx14__alloc_traitsISaIfEfE27_S_propagate_on_move_assignEv"
.LASF1280:
	.string	"index"
.LASF93:
	.string	"_ZNSaIhED4Ev"
.LASF1327:
	.string	"_ZNSaIfEC2ERKS_"
.LASF266:
	.string	"_S_max_size"
.LASF1196:
	.string	"__isoc23_strtoll"
.LASF582:
	.string	"_ZNSt15__new_allocatorIfEC4Ev"
.LASF1227:
	.string	"rename"
.LASF1339:
	.string	"_ZNSaIhEC2ERKS_"
.LASF954:
	.string	"wcschr"
.LASF177:
	.string	"_ZNSt6vectorIhSaIhEE5beginEv"
.LASF27:
	.string	"_ZNKSt15__exception_ptr13exception_ptr6_M_getEv"
.LASF1329:
	.string	"_ZNSaIiEC2ERKS_"
.LASF745:
	.string	"_ZSt17__throw_bad_allocv"
.LASF1066:
	.string	"_ZN9__gnu_cxx14__alloc_traitsISaIfEfE27_S_propagate_on_copy_assignEv"
.LASF1269:
	.string	"localtime"
.LASF731:
	.string	"_ZNSt19_UninitDestroyGuardIPivED4Ev"
.LASF1238:
	.string	"int_least8_t"
.LASF957:
	.string	"wcsstr"
.LASF685:
	.string	"_ZNSt6vectorIfSaIfEE8pop_backEv"
.LASF1218:
	.string	"fread"
.LASF1111:
	.string	"int_frac_digits"
.LASF1080:
	.string	"_ZN9__gnu_cxxneERKNS_17__normal_iteratorIP16SubApertureImageSt6vectorIS1_SaIS1_EEEES8_"
.LASF1356:
	.string	"__sz"
.LASF800:
	.string	"fill_n<unsigned char*, long unsigned int, unsigned char>"
.LASF459:
	.string	"_ZNSt16allocator_traitsISaIiEE10deallocateERS0_Pim"
.LASF319:
	.string	"_ZNKSt12_Vector_baseI16SubApertureImageSaIS0_EE13get_allocatorEv"
.LASF1102:
	.string	"thousands_sep"
.LASF1350:
	.string	"__old_start"
.LASF54:
	.string	"chrono_literals"
.LASF1226:
	.string	"remove"
.LASF626:
	.string	"_ZNSt12_Vector_baseIfSaIfEE11_M_allocateEm"
.LASF936:
	.string	"wcstod"
.LASF1145:
	.string	"__uintmax_t"
.LASF938:
	.string	"wcstof"
.LASF1378:
	.string	"subapertures"
.LASF604:
	.string	"_ZNSt12_Vector_baseIfSaIfEE17_Vector_impl_dataC4Ev"
.LASF939:
	.string	"wcstok"
.LASF940:
	.string	"wcstol"
.LASF450:
	.string	"_ZNKSt15__new_allocatorIiE11_M_max_sizeEv"
.LASF114:
	.string	"_M_swap_data"
.LASF674:
	.string	"_ZNKSt6vectorIfSaIfEE14_M_range_checkEm"
.LASF408:
	.string	"_ZNKSt6vectorI16SubApertureImageSaIS0_EE12_M_check_lenEmPKc"
.LASF1439:
	.string	"__cxa_free_exception"
.LASF411:
	.string	"_ZNSt6vectorI16SubApertureImageSaIS0_EE15_M_erase_at_endEPS0_"
.LASF432:
	.string	"~_Guard_alloc"
.LASF150:
	.string	"_S_nothrow_relocate"
.LASF741:
	.string	"_ZNSt12out_of_rangeC4EPKc"
.LASF1306:
	.string	"__first"
.LASF240:
	.string	"_ZNSt6vectorIhSaIhEE5eraseEN9__gnu_cxx17__normal_iteratorIPKhS1_EES6_"
.LASF1408:
	.string	"__rhs"
.LASF227:
	.string	"_ZNKSt6vectorIhSaIhEE4dataEv"
.LASF1159:
	.string	"lldiv_t"
.LASF1214:
	.string	"fgetc"
.LASF1193:
	.string	"lldiv"
.LASF1148:
	.string	"__clock_t"
.LASF675:
	.string	"_ZNSt6vectorIfSaIfEE2atEm"
.LASF451:
	.string	"allocator<int>"
.LASF820:
	.string	"_Allocator"
.LASF1075:
	.string	"__type"
.LASF35:
	.string	"_ZNSt15__exception_ptr13exception_ptraSERKS0_"
.LASF277:
	.string	"_ZNKSt6vectorIhSaIhEE11_M_data_ptrIhEEPT_S4_"
.LASF433:
	.string	"_M_realloc_append<const (anonymous namespace)::SubParams&>"
.LASF734:
	.string	"_M_first"
.LASF1047:
	.string	"_ZNK9__gnu_cxx17__normal_iteratorIPK16SubApertureImageSt6vectorIS1_SaIS1_EEE4baseEv"
.LASF986:
	.string	"operator*"
.LASF999:
	.string	"operator+"
.LASF1003:
	.string	"operator-"
.LASF1151:
	.string	"__gnu_debug"
.LASF390:
	.string	"_ZNSt6vectorI16SubApertureImageSaIS0_EE8pop_backEv"
.LASF815:
	.string	"_ZSt8_DestroyIPffEvT_S1_RSaIT0_E"
.LASF1130:
	.string	"__int16_t"
.LASF950:
	.string	"wmemset"
.LASF34:
	.string	"operator="
.LASF1131:
	.string	"__uint16_t"
.LASF477:
	.string	"_ZNKSt12_Vector_baseIiSaIiEE13get_allocatorEv"
.LASF882:
	.string	"btowc"
.LASF172:
	.string	"assign"
.LASF445:
	.string	"_ZNKSt15__new_allocatorIiE7addressERi"
.LASF1332:
	.string	"__args"
.LASF689:
	.string	"_ZNSt6vectorIfSaIfEE6insertEN9__gnu_cxx17__normal_iteratorIPKfS1_EEmRS4_"
.LASF492:
	.string	"_ZNSt6vectorIiSaIiEE19_S_nothrow_relocateESt17integral_constantIbLb1EE"
.LASF257:
	.string	"_ZNSt6vectorIhSaIhEE16_M_shrink_to_fitEv"
.LASF898:
	.string	"putwchar"
.LASF623:
	.string	"_ZNSt12_Vector_baseIfSaIfEEC4EOS1_RKS0_"
.LASF1068:
	.string	"_ZN9__gnu_cxx14__alloc_traitsISaIfEfE20_S_propagate_on_swapEv"
.LASF496:
	.string	"_ZNSt6vectorIiSaIiEEC4Ev"
.LASF28:
	.string	"_M_exception_ptr_cast"
.LASF557:
	.string	"_ZNSt6vectorIiSaIiEE14_M_fill_assignEmRKi"
.LASF712:
	.string	"_ZNKSt6vectorIfSaIfEE11_M_data_ptrIfEEPT_S4_"
.LASF649:
	.string	"_ZNSt6vectorIfSaIfEEaSESt16initializer_listIfE"
.LASF1105:
	.string	"currency_symbol"
.LASF1288:
	.string	"double_t"
.LASF1368:
	.string	"_ZNSt6vectorIiSaIiEEC2EmRKiRKS0_"
.LASF724:
	.string	"iterator_traits<const SubApertureImage*>"
.LASF781:
	.string	"_ZSt10__fill_n_aIPhmhET_S1_T0_RKT1_St26random_access_iterator_tag"
.LASF565:
	.string	"_ZNSt6vectorIiSaIiEE17_S_check_init_lenEmRKS0_"
.LASF139:
	.string	"_M_allocate"
.LASF159:
	.string	"_ZNSt6vectorIhSaIhEEC4EmRKhRKS0_"
.LASF216:
	.string	"_ZNKSt6vectorIhSaIhEE14_M_range_checkEm"
.LASF1391:
	.string	"ind_bot"
.LASF291:
	.string	"_ZNSt15__new_allocatorI16SubApertureImageE10deallocateEPS0_m"
.LASF789:
	.string	"_ZSt27__uninitialized_default_n_aIPfmfET_S1_T0_RSaIT1_E"
.LASF1364:
	.string	"_ZNSt6vectorIfSaIfEEC2EmRKS0_"
.LASF864:
	.string	"_chain"
.LASF119:
	.string	"_ZNSt12_Vector_baseIhSaIhEE12_Vector_implC4EOS0_"
.LASF1121:
	.string	"int_n_cs_precedes"
.LASF786:
	.string	"_Destroy<float*>"
.LASF235:
	.string	"_ZNSt6vectorIhSaIhEE6insertEN9__gnu_cxx17__normal_iteratorIPKhS1_EEOh"
.LASF1016:
	.string	"_ZN9__gnu_cxx14__alloc_traitsISaI16SubApertureImageES1_E15_S_nothrow_moveEv"
.LASF574:
	.string	"initializer_list"
.LASF486:
	.string	"_ZNSt12_Vector_baseIiSaIiEED4Ev"
.LASF695:
	.string	"_ZNSt6vectorIfSaIfEE21_M_default_initializeEm"
.LASF1152:
	.string	"11__mbstate_t"
.LASF545:
	.string	"_ZNSt6vectorIiSaIiEE9push_backEOi"
.LASF1093:
	.string	"unsigned char"
.LASF645:
	.string	"_ZNSt6vectorIfSaIfEEC4ESt16initializer_listIfERKS0_"
.LASF1017:
	.string	"rebind<SubApertureImage>"
.LASF490:
	.string	"__type_identity<std::allocator<int> >"
.LASF1283:
	.string	"_ZNK9ImageData2atEmmm"
.LASF50:
	.string	"random_access_iterator_tag"
.LASF1398:
	.string	"vals_row"
.LASF446:
	.string	"_ZNKSt15__new_allocatorIiE7addressERKi"
.LASF1436:
	.string	"_IO_lock_t"
.LASF930:
	.string	"wcslen"
.LASF475:
	.string	"_ZNSt12_Vector_baseIiSaIiEE19_M_get_Tp_allocatorEv"
.LASF1054:
	.string	"_ZN9__gnu_cxx14__alloc_traitsISaIiEiE10_S_on_swapERS1_S3_"
.LASF1299:
	.string	"_ZNSt12out_of_rangeC1EPKc"
.LASF86:
	.string	"_ZNKSt15__new_allocatorIhE11_M_max_sizeEv"
.LASF1428:
	.string	"_ZNSt12out_of_rangeD4Ev"
.LASF682:
	.string	"_ZNKSt6vectorIfSaIfEE4dataEv"
.LASF16:
	.string	"__bool_constant"
.LASF457:
	.string	"_ZNSt16allocator_traitsISaIiEE8allocateERS0_m"
.LASF471:
	.string	"_ZNSt12_Vector_baseIiSaIiEE12_Vector_implC4EOS0_OS2_"
.LASF908:
	.string	"__isoc23_vswscanf"
.LASF425:
	.string	"__type_identity<std::allocator<(anonymous namespace)::SubParams> >"
.LASF1252:
	.string	"uint_fast32_t"
.LASF400:
	.string	"_ZNSt6vectorI16SubApertureImageSaIS0_EE21_M_default_initializeEm"
.LASF1380:
	.string	"output"
.LASF123:
	.string	"_ZNSt12_Vector_baseIhSaIhEE19_M_get_Tp_allocatorEv"
.LASF1244:
	.string	"uint_least32_t"
.LASF974:
	.string	"_S_always_equal"
.LASF311:
	.string	"_ZNSt12_Vector_baseI16SubApertureImageSaIS0_EE17_Vector_impl_data12_M_swap_dataERS3_"
.LASF817:
	.string	"_ZSt8_DestroyIPiiEvT_S1_RSaIT0_E"
.LASF593:
	.string	"_ZNSaIfEC4Ev"
.LASF684:
	.string	"_ZNSt6vectorIfSaIfEE9push_backEOf"
.LASF187:
	.string	"rend"
.LASF435:
	.string	"reverse_iterator<__gnu_cxx::__normal_iterator<(anonymous namespace)::SubParams*, std::vector<(anonymous namespace)::SubParams, std::allocator<(anonymous namespace)::SubParams> > > >"
.LASF756:
	.string	"fill_n<float*, long unsigned int, float>"
.LASF1229:
	.string	"setbuf"
.LASF498:
	.string	"_ZNSt6vectorIiSaIiEEC4EmRKS0_"
.LASF333:
	.string	"vector<SubApertureImage, std::allocator<SubApertureImage> >"
.LASF960:
	.string	"_S_single"
.LASF770:
	.string	"__fill_a1<unsigned char*, std::vector<unsigned char>, unsigned char>"
.LASF255:
	.string	"_ZNSt6vectorIhSaIhEE17_M_default_appendEm"
.LASF633:
	.string	"_ZNSt6vectorIfSaIfEE15_S_use_relocateEv"
.LASF38:
	.string	"_ZNSt15__exception_ptr13exception_ptrD4Ev"
.LASF15:
	.string	"false_type"
.LASF473:
	.string	"_ZNSt12_Vector_baseIhSaIhEE12_Vector_implD4Ev"
.LASF929:
	.string	"tm_zone"
.LASF1237:
	.string	"uint64_t"
.LASF69:
	.string	"~__new_allocator"
.LASF890:
	.string	"fwscanf"
.LASF1034:
	.string	"_ZN9__gnu_cxx17__normal_iteratorIPK16SubApertureImageSt6vectorIS1_SaIS1_EEEC4Ev"
.LASF258:
	.string	"_M_insert_rval"
.LASF918:
	.string	"wcsftime"
.LASF1036:
	.string	"_ZNK9__gnu_cxx17__normal_iteratorIPK16SubApertureImageSt6vectorIS1_SaIS1_EEEdeEv"
.LASF984:
	.string	"_ZN9__gnu_cxx17__normal_iteratorIPhSt6vectorIhSaIhEEEC4Ev"
.LASF456:
	.string	"allocator_traits<std::allocator<int> >"
.LASF22:
	.string	"_M_addref"
.LASF614:
	.string	"_ZNSt12_Vector_baseIfSaIfEE19_M_get_Tp_allocatorEv"
.LASF519:
	.string	"_ZNSt6vectorIiSaIiEE4rendEv"
.LASF375:
	.string	"_ZNKSt6vectorI16SubApertureImageSaIS0_EE5emptyEv"
.LASF67:
	.string	"_ZNKSt15__exception_ptr13exception_ptrcvbEv"
.LASF1284:
	.string	"~ImageData"
.LASF666:
	.string	"_ZNSt6vectorIfSaIfEE6resizeEm"
.LASF286:
	.string	"_ZNSt15__new_allocatorI16SubApertureImageEaSERKS1_"
.LASF658:
	.string	"_ZNSt6vectorIfSaIfEE4rendEv"
.LASF275:
	.string	"_ZNSt6vectorIhSaIhEE14_M_move_assignEOS1_St17integral_constantIbLb0EE"
.LASF80:
	.string	"size_type"
.LASF1228:
	.string	"rewind"
.LASF418:
	.string	"reverse_iterator<__gnu_cxx::__normal_iterator<const SubApertureImage*, std::vector<SubApertureImage, std::allocator<SubApertureImage> > > >"
.LASF1289:
	.string	"_Float32x"
.LASF368:
	.string	"_ZNKSt6vectorI16SubApertureImageSaIS0_EE5crendEv"
.LASF611:
	.string	"_ZNSt12_Vector_baseIfSaIfEE12_Vector_implC4EOS0_"
.LASF309:
	.string	"_ZNSt12_Vector_baseI16SubApertureImageSaIS0_EE17_Vector_impl_data12_M_copy_dataERKS3_"
.LASF1294:
	.string	"x_end"
.LASF1420:
	.string	"_Unwind_Resume"
.LASF546:
	.string	"_ZNSt6vectorIiSaIiEE8pop_backEv"
.LASF484:
	.string	"_ZNSt12_Vector_baseIiSaIiEEC4EOS1_RKS0_"
.LASF646:
	.string	"_ZNSt6vectorIfSaIfEED4Ev"
.LASF660:
	.string	"_ZNKSt6vectorIfSaIfEE6cbeginEv"
.LASF175:
	.string	"iterator"
.LASF1200:
	.string	"strtold"
.LASF1015:
	.string	"_ZN9__gnu_cxx14__alloc_traitsISaI16SubApertureImageES1_E15_S_always_equalEv"
.LASF1195:
	.string	"strtoll"
.LASF1043:
	.string	"_ZN9__gnu_cxx17__normal_iteratorIPK16SubApertureImageSt6vectorIS1_SaIS1_EEEpLEl"
.LASF694:
	.string	"_ZNSt6vectorIfSaIfEE18_M_fill_initializeEmRKf"
.LASF448:
	.string	"_ZNSt15__new_allocatorIiE10deallocateEPim"
.LASF589:
	.string	"_ZNSt15__new_allocatorIfE10deallocateEPfm"
.LASF998:
	.string	"_ZN9__gnu_cxx17__normal_iteratorIPhSt6vectorIhSaIhEEEpLEl"
.LASF1170:
	.string	"atexit"
.LASF856:
	.string	"_IO_write_ptr"
.LASF1182:
	.string	"quick_exit"
.LASF664:
	.string	"_ZNKSt6vectorIfSaIfEE4sizeEv"
.LASF409:
	.string	"_ZNSt6vectorI16SubApertureImageSaIS0_EE17_S_check_init_lenEmRKS1_"
.LASF1421:
	.string	"__builtin_unwind_resume"
.LASF1110:
	.string	"negative_sign"
.LASF722:
	.string	"iterator_traits<(anonymous namespace)::SubParams*>"
.LASF407:
	.string	"_ZNSt6vectorI16SubApertureImageSaIS0_EE14_M_emplace_auxEN9__gnu_cxx17__normal_iteratorIPKS0_S2_EEOS0_"
.LASF509:
	.string	"_ZNSt6vectorIiSaIiEEaSEOS1_"
.LASF1136:
	.string	"__int_least8_t"
.LASF913:
	.string	"wcscat"
.LASF648:
	.string	"_ZNSt6vectorIfSaIfEEaSEOS1_"
.LASF979:
	.string	"other"
.LASF801:
	.string	"_ZSt6fill_nIPhmhET_S1_T0_RKT1_"
.LASF144:
	.string	"_ZNSt12_Vector_baseIhSaIhEE17_M_create_storageEm"
.LASF630:
	.string	"vector<float, std::allocator<float> >"
.LASF428:
	.string	"_Guard_alloc"
.LASF167:
	.string	"~vector"
.LASF290:
	.string	"_ZNSt15__new_allocatorI16SubApertureImageE8allocateEmPKv"
.LASF595:
	.string	"_ZNSaIfEaSERKS_"
.LASF758:
	.string	"_Construct<float>"
.LASF1222:
	.string	"ftell"
.LASF523:
	.string	"_ZNKSt6vectorIiSaIiEE7crbeginEv"
.LASF1276:
	.string	"wctype"
.LASF1104:
	.string	"int_curr_symbol"
.LASF9:
	.string	"_ZNKSt17integral_constantIbLb1EEclEv"
.LASF68:
	.string	"_ZNSt15__new_allocatorIhEaSERKS0_"
.LASF91:
	.string	"_ZNSaIhEaSERKS_"
.LASF157:
	.string	"_ZNSt6vectorIhSaIhEEC4ERKS0_"
.LASF799:
	.string	"_Destroy<(anonymous namespace)::SubParams*>"
.LASF454:
	.string	"_ZNSaIiEaSERKS_"
.LASF765:
	.string	"_ZSt18__do_uninit_fill_nIPimiET_S1_T0_RKT1_"
.LASF1019:
	.string	"_ZN9__gnu_cxx17__normal_iteratorIP16SubApertureImageSt6vectorIS1_SaIS1_EEEC4Ev"
.LASF610:
	.string	"_ZNSt12_Vector_baseIfSaIfEE12_Vector_implC4EOS2_"
.LASF1011:
	.string	"_ZN9__gnu_cxx14__alloc_traitsISaI16SubApertureImageES1_E10_S_on_swapERS2_S4_"
.LASF44:
	.string	"_ZSt17rethrow_exceptionNSt15__exception_ptr13exception_ptrE"
.LASF703:
	.string	"_ZNKSt6vectorIfSaIfEE12_M_check_lenEmPKc"
.LASF1028:
	.string	"_ZN9__gnu_cxx17__normal_iteratorIP16SubApertureImageSt6vectorIS1_SaIS1_EEEpLEl"
.LASF198:
	.string	"size"
.LASF515:
	.string	"_ZNSt6vectorIiSaIiEE3endEv"
.LASF1020:
	.string	"_ZN9__gnu_cxx17__normal_iteratorIP16SubApertureImageSt6vectorIS1_SaIS1_EEEC4ERKS2_"
.LASF17:
	.string	"__swappable_details"
.LASF1383:
	.string	"diff"
.LASF718:
	.string	"_ZNKSt16initializer_listIiE3endEv"
.LASF749:
	.string	"_ZSt9__fill_a1IPffEvT_S1_RKT0_"
.LASF1282:
	.string	"_ZN9ImageData2atEmmm"
.LASF880:
	.string	"FILE"
.LASF218:
	.string	"_ZNKSt6vectorIhSaIhEE2atEm"
.LASF472:
	.string	"~_Vector_impl"
.LASF474:
	.string	"_ZNSt12_Vector_baseIiSaIiEE12_Vector_implD4Ev"
.LASF1409:
	.string	"_ZN9ImageDataD2Ev"
.LASF112:
	.string	"_M_copy_data"
.LASF1262:
	.string	"clock"
.LASF242:
	.string	"clear"
.LASF126:
	.string	"_ZNKSt12_Vector_baseIhSaIhEE13get_allocatorEv"
.LASF1266:
	.string	"asctime"
.LASF1022:
	.string	"_ZNK9__gnu_cxx17__normal_iteratorIP16SubApertureImageSt6vectorIS1_SaIS1_EEEptEv"
.LASF42:
	.string	"_ZNKSt15__exception_ptr13exception_ptr20__cxa_exception_typeEv"
.LASF1231:
	.string	"tmpfile"
.LASF111:
	.string	"_ZNSt12_Vector_baseIhSaIhEE17_Vector_impl_dataC4EOS2_"
.LASF698:
	.string	"_ZNSt6vectorIfSaIfEE14_M_fill_appendEmRKf"
.LASF769:
	.string	"_ZSt12__niter_baseIPhET_S1_"
.LASF597:
	.string	"allocator_traits<std::allocator<float> >"
.LASF4:
	.string	"size_t"
.LASF803:
	.string	"_ZSt24__uninitialized_fill_n_aIPhmhhET_S1_T0_RKT1_RSaIT2_E"
.LASF619:
	.string	"_ZNSt12_Vector_baseIfSaIfEEC4Em"
.LASF1027:
	.string	"_ZNK9__gnu_cxx17__normal_iteratorIP16SubApertureImageSt6vectorIS1_SaIS1_EEEixEl"
.LASF1268:
	.string	"gmtime"
.LASF845:
	.string	"__count"
.LASF191:
	.string	"_ZNKSt6vectorIhSaIhEE6cbeginEv"
.LASF1234:
	.string	"uint8_t"
.LASF1154:
	.string	"quot"
.LASF710:
	.string	"_ZNSt6vectorIfSaIfEE14_M_move_assignEOS1_St17integral_constantIbLb0EE"
.LASF551:
	.string	"_ZNSt6vectorIiSaIiEE5eraseEN9__gnu_cxx17__normal_iteratorIPKiS1_EE"
.LASF219:
	.string	"front"
.LASF100:
	.string	"_ZNSt16allocator_traitsISaIhEE8max_sizeERKS0_"
.LASF296:
	.string	"_ZNSaI16SubApertureImageEC4ERKS0_"
.LASF284:
	.string	"_ZNSt15__new_allocatorI16SubApertureImageEC4Ev"
.LASF1349:
	.string	"_ZNSt15__new_allocatorIiEC2Ev"
.LASF752:
	.string	"_FIte"
.LASF1258:
	.string	"_Float32"
.LASF516:
	.string	"_ZNKSt6vectorIiSaIiEE3endEv"
.LASF1225:
	.string	"perror"
.LASF982:
	.string	"_M_current"
.LASF312:
	.string	"_ZNSt12_Vector_baseI16SubApertureImageSaIS0_EE12_Vector_implC4Ev"
.LASF338:
	.string	"_ZNSt6vectorI16SubApertureImageSaIS0_EE15_S_use_relocateEv"
.LASF1140:
	.string	"__int_least32_t"
.LASF398:
	.string	"_ZNSt6vectorI16SubApertureImageSaIS0_EE5clearEv"
.LASF720:
	.string	"reverse_iterator<__gnu_cxx::__normal_iterator<float*, std::vector<float, std::allocator<float> > > >"
.LASF1315:
	.string	"_ZNSt12_Vector_baseIhSaIhEE12_Vector_implC2ERKS0_"
.LASF250:
	.string	"_M_fill_insert"
.LASF883:
	.string	"fgetwc"
.LASF860:
	.string	"_IO_save_base"
.LASF1248:
	.string	"int_fast32_t"
.LASF361:
	.string	"_ZNSt6vectorI16SubApertureImageSaIS0_EE6rbeginEv"
.LASF705:
	.string	"_ZNSt6vectorIfSaIfEE11_S_max_sizeERKS0_"
.LASF1423:
	.string	"_ZNSt15__exception_ptr4swapERNS_13exception_ptrES1_"
.LASF652:
	.string	"_ZNSt6vectorIfSaIfEE5beginEv"
.LASF272:
	.string	"_ZNSt6vectorIhSaIhEE8_M_eraseEN9__gnu_cxx17__normal_iteratorIPhS1_EES5_"
.LASF414:
	.string	"_ZNSt6vectorI16SubApertureImageSaIS0_EE14_M_move_assignEOS2_St17integral_constantIbLb1EE"
.LASF946:
	.string	"wctob"
.LASF1107:
	.string	"mon_thousands_sep"
.LASF615:
	.string	"_ZNKSt12_Vector_baseIfSaIfEE19_M_get_Tp_allocatorEv"
.LASF628:
	.string	"_ZNSt12_Vector_baseIfSaIfEE17_M_create_storageEm"
.LASF303:
	.string	"_ZNSt16allocator_traitsISaI16SubApertureImageEE10deallocateERS1_PS0_m"
.LASF889:
	.string	"fwprintf"
.LASF1144:
	.string	"__intmax_t"
.LASF502:
	.string	"_ZNSt6vectorIiSaIiEEC4ERKS1_RKS0_"
.LASF142:
	.string	"_ZNSt12_Vector_baseIhSaIhEE13_M_deallocateEPhm"
.LASF431:
	.string	"_M_vect"
.LASF248:
	.string	"_M_fill_assign"
.LASF844:
	.string	"__wchb"
.LASF1277:
	.string	"ImageData"
.LASF671:
	.string	"_ZNSt6vectorIfSaIfEE7reserveEm"
.LASF1094:
	.string	"__int128 unsigned"
.LASF382:
	.string	"_ZNSt6vectorI16SubApertureImageSaIS0_EE5frontEv"
.LASF10:
	.string	"integral_constant<bool, true>"
.LASF735:
	.string	"_M_cur"
.LASF389:
	.string	"_ZNSt6vectorI16SubApertureImageSaIS0_EE9push_backEOS0_"
.LASF386:
	.string	"_ZNSt6vectorI16SubApertureImageSaIS0_EE4dataEv"
.LASF601:
	.string	"_ZNSt16allocator_traitsISaIfEE8max_sizeERKS0_"
.LASF364:
	.string	"_ZNKSt6vectorI16SubApertureImageSaIS0_EE4rendEv"
.LASF262:
	.string	"_M_check_len"
.LASF466:
	.string	"_ZNSt12_Vector_baseIiSaIiEE17_Vector_impl_data12_M_swap_dataERS2_"
.LASF842:
	.string	"wint_t"
.LASF1178:
	.string	"mblen"
.LASF121:
	.string	"_Tp_alloc_type"
.LASF814:
	.string	"_Destroy<float*, float>"
.LASF903:
	.string	"vfwprintf"
.LASF744:
	.string	"_ZSt28__throw_bad_array_new_lengthv"
.LASF1387:
	.string	"__for_end"
.LASF94:
	.string	"allocator_traits<std::allocator<unsigned char> >"
.LASF461:
	.string	"_ZNSt16allocator_traitsISaIiEE37select_on_container_copy_constructionERKS0_"
.LASF70:
	.string	"_ZNSt15__new_allocatorIhED4Ev"
.LASF1342:
	.string	"_ZNSt12_Vector_baseIfSaIfEE12_Vector_implD2Ev"
.LASF584:
	.string	"_ZNSt15__new_allocatorIfEaSERKS0_"
.LASF1086:
	.string	"wcstoull"
.LASF874:
	.string	"_wide_data"
.LASF506:
	.string	"_ZNSt6vectorIiSaIiEEC4ESt16initializer_listIiERKS0_"
.LASF973:
	.string	"_ZN9__gnu_cxx14__alloc_traitsISaIhEhE20_S_propagate_on_swapEv"
.LASF189:
	.string	"_ZNKSt6vectorIhSaIhEE4rendEv"
.LASF302:
	.string	"_ZNSt16allocator_traitsISaIhEE10deallocateERS0_Phm"
.LASF388:
	.string	"_ZNSt6vectorI16SubApertureImageSaIS0_EE9push_backERKS0_"
.LASF1064:
	.string	"_ZN9__gnu_cxx14__alloc_traitsISaIfEfE17_S_select_on_copyERKS1_"
.LASF708:
	.string	"_ZNSt6vectorIfSaIfEE8_M_eraseEN9__gnu_cxx17__normal_iteratorIPfS1_EES5_"
.LASF1213:
	.string	"fflush"
.LASF318:
	.string	"_ZNKSt12_Vector_baseI16SubApertureImageSaIS0_EE19_M_get_Tp_allocatorEv"
.LASF702:
	.string	"_ZNSt6vectorIfSaIfEE14_M_emplace_auxEN9__gnu_cxx17__normal_iteratorIPKfS1_EEOf"
.LASF1058:
	.string	"_ZN9__gnu_cxx14__alloc_traitsISaIiEiE15_S_always_equalEv"
.LASF886:
	.string	"fputwc"
.LASF1341:
	.string	"_ZNSt12_Vector_baseIfSaIfEEC2EmRKS0_"
.LASF1259:
	.string	"_Float64"
.LASF1303:
	.string	"_ZdlPvm"
.LASF396:
	.string	"_ZNSt6vectorI16SubApertureImageSaIS0_EE5eraseEN9__gnu_cxx17__normal_iteratorIPKS0_S2_EES7_"
.LASF404:
	.string	"_ZNSt6vectorI16SubApertureImageSaIS0_EE17_M_default_appendEm"
.LASF887:
	.string	"fputws"
.LASF391:
	.string	"_ZNSt6vectorI16SubApertureImageSaIS0_EE6insertEN9__gnu_cxx17__normal_iteratorIPKS0_S2_EERS5_"
.LASF989:
	.string	"_ZNK9__gnu_cxx17__normal_iteratorIPhSt6vectorIhSaIhEEEptEv"
.LASF127:
	.string	"_Vector_base"
.LASF470:
	.string	"_ZNSt12_Vector_baseIiSaIiEE12_Vector_implC4EOS0_"
.LASF1352:
	.string	"__elems"
.LASF796:
	.string	"__enable_if_t"
.LASF776:
	.string	"uninitialized_fill_n<int*, long unsigned int, int>"
.LASF1358:
	.string	"_ZNSt15__new_allocatorIhED2Ev"
.LASF1330:
	.string	"__ptr"
.LASF102:
	.string	"_ZNSt16allocator_traitsISaIhEE37select_on_container_copy_constructionERKS0_"
.LASF1007:
	.string	"_Container"
.LASF996:
	.string	"_ZNK9__gnu_cxx17__normal_iteratorIPhSt6vectorIhSaIhEEEixEl"
.LASF1134:
	.string	"__int64_t"
.LASF138:
	.string	"_M_impl"
.LASF798:
	.string	"__niter_base<(anonymous namespace)::SubParams*>"
.LASF1135:
	.string	"__uint64_t"
.LASF351:
	.string	"_ZNSt6vectorI16SubApertureImageSaIS0_EED4Ev"
.LASF575:
	.string	"_ZNSt16initializer_listIiEC4EPKim"
.LASF1346:
	.string	"_ZNSt12_Vector_baseIiSaIiEEC2EmRKS0_"
.LASF90:
	.string	"_ZNSaIhEC4ERKS_"
.LASF1388:
	.string	"shift_x"
.LASF1389:
	.string	"shift_y"
.LASF190:
	.string	"cbegin"
.LASF125:
	.string	"get_allocator"
.LASF283:
	.string	"__new_allocator<SubApertureImage>"
.LASF1325:
	.string	"_ZNSt15__new_allocatorIhEC2ERKS0_"
.LASF205:
	.string	"_ZNSt6vectorIhSaIhEE13shrink_to_fitEv"
.LASF1381:
	.string	"params"
.LASF193:
	.string	"_ZNKSt6vectorIhSaIhEE4cendEv"
.LASF162:
	.string	"_ZNSt6vectorIhSaIhEEC4ERKS1_RKS0_"
.LASF1101:
	.string	"decimal_point"
.LASF345:
	.string	"_ZNSt6vectorI16SubApertureImageSaIS0_EEC4EOS2_"
.LASF422:
	.string	"allocator_traits<std::allocator<(anonymous namespace)::SubParams> >"
.LASF71:
	.string	"address"
.LASF755:
	.string	"_OutputIterator"
.LASF1059:
	.string	"_ZN9__gnu_cxx14__alloc_traitsISaIiEiE15_S_nothrow_moveEv"
.LASF556:
	.string	"_ZNSt6vectorIiSaIiEE21_M_default_initializeEm"
.LASF395:
	.string	"_ZNSt6vectorI16SubApertureImageSaIS0_EE5eraseEN9__gnu_cxx17__normal_iteratorIPKS0_S2_EE"
.LASF76:
	.string	"_ZNKSt15__new_allocatorIhE7addressERKh"
.LASF1435:
	.string	"decltype(nullptr)"
.LASF1300:
	.string	"this"
.LASF520:
	.string	"_ZNKSt6vectorIiSaIiEE4rendEv"
.LASF196:
	.string	"crend"
.LASF659:
	.string	"_ZNKSt6vectorIfSaIfEE4rendEv"
.LASF1210:
	.string	"fclose"
.LASF1188:
	.string	"strtoul"
.LASF1343:
	.string	"_ZNSt15__new_allocatorIfED2Ev"
.LASF469:
	.string	"_ZNSt12_Vector_baseIiSaIiEE12_Vector_implC4EOS2_"
.LASF975:
	.string	"_ZN9__gnu_cxx14__alloc_traitsISaIhEhE15_S_always_equalEv"
.LASF965:
	.string	"_ZN9__gnu_cxx14__alloc_traitsISaIhEhE17_S_select_on_copyERKS1_"
.LASF315:
	.string	"_ZNSt12_Vector_baseI16SubApertureImageSaIS0_EE12_Vector_implC4EOS1_"
.LASF709:
	.string	"_ZNSt6vectorIfSaIfEE14_M_move_assignEOS1_St17integral_constantIbLb1EE"
.LASF540:
	.string	"_ZNSt6vectorIiSaIiEE4backEv"
.LASF851:
	.string	"_flags"
.LASF1112:
	.string	"frac_digits"
.LASF512:
	.string	"_ZNSt6vectorIiSaIiEE6assignESt16initializer_listIiE"
.LASF1166:
	.string	"timespec"
.LASF360:
	.string	"_ZNKSt6vectorI16SubApertureImageSaIS0_EE3endEv"
.LASF569:
	.string	"_ZNSt6vectorIiSaIiEE8_M_eraseEN9__gnu_cxx17__normal_iteratorIPiS1_EES5_"
.LASF893:
	.string	"mbrlen"
.LASF679:
	.string	"_ZNSt6vectorIfSaIfEE4backEv"
.LASF1157:
	.string	"ldiv_t"
.LASF971:
	.string	"_ZN9__gnu_cxx14__alloc_traitsISaIhEhE27_S_propagate_on_move_assignEv"
.LASF212:
	.string	"operator[]"
.LASF95:
	.string	"_ZNSt27__uninitialized_default_n_1ILb1EE18__uninit_default_nIPfmEET_S3_T0_"
.LASF56:
	.string	"__detail"
.LASF706:
	.string	"_ZNSt6vectorIfSaIfEE15_M_erase_at_endEPf"
.LASF1301:
	.string	"__cxa_allocate_exception"
.LASF700:
	.string	"_ZNSt6vectorIfSaIfEE16_M_shrink_to_fitEv"
.LASF1361:
	.string	"__lo"
.LASF339:
	.string	"_ZNSt6vectorI16SubApertureImageSaIS0_EE11_S_relocateEPS0_S3_S3_RS1_"
.LASF560:
	.string	"_ZNSt6vectorIiSaIiEE17_M_default_appendEm"
.LASF549:
	.string	"_ZNSt6vectorIiSaIiEE6insertEN9__gnu_cxx17__normal_iteratorIPKiS1_EESt16initializer_listIiE"
.LASF1309:
	.string	"__val"
.LASF1323:
	.string	"_ZN9__gnu_cxx17__normal_iteratorIPhSt6vectorIhSaIhEEEC2ERKS1_"
.LASF1009:
	.string	"__alloc_traits<std::allocator<SubApertureImage>, SubApertureImage>"
.LASF901:
	.string	"__isoc23_swscanf"
.LASF1324:
	.string	"_ZNSt12_Vector_baseIhSaIhEEC2EmRKS0_"
.LASF1191:
	.string	"wcstombs"
.LASF668:
	.string	"_ZNSt6vectorIfSaIfEE13shrink_to_fitEv"
.LASF1370:
	.string	"_ZNSaIiEC2Ev"
.LASF1335:
	.string	"__tmp"
.LASF213:
	.string	"_ZNSt6vectorIhSaIhEEixEm"
.LASF247:
	.string	"_ZNSt6vectorIhSaIhEE21_M_default_initializeEm"
.LASF178:
	.string	"const_iterator"
.LASF1371:
	.string	"__old_size"
.LASF806:
	.string	"_Destroy<unsigned char*>"
.LASF403:
	.string	"_ZNSt6vectorI16SubApertureImageSaIS0_EE14_M_fill_appendEmRKS0_"
.LASF1053:
	.string	"_ZN9__gnu_cxx14__alloc_traitsISaIiEiE17_S_select_on_copyERKS1_"
.LASF1328:
	.string	"_ZNSt12_Vector_baseIiSaIiEE12_Vector_implC2ERKS0_"
.LASF602:
	.string	"_ZNSt16allocator_traitsISaIfEE37select_on_container_copy_constructionERKS0_"
.LASF97:
	.string	"allocator_type"
.LASF481:
	.string	"_ZNSt12_Vector_baseIiSaIiEEC4EmRKS0_"
.LASF514:
	.string	"_ZNKSt6vectorIiSaIiEE5beginEv"
.LASF1438:
	.string	"execution"
.LASF231:
	.string	"pop_back"
.LASF606:
	.string	"_ZNSt12_Vector_baseIfSaIfEE17_Vector_impl_data12_M_copy_dataERKS2_"
.LASF357:
	.string	"_ZNSt6vectorI16SubApertureImageSaIS0_EE5beginEv"
.LASF1357:
	.string	"__add"
.LASF832:
	.string	"floor"
.LASF348:
	.string	"_ZNSt6vectorI16SubApertureImageSaIS0_EEC4EOS2_RKS1_St17integral_constantIbLb0EE"
.LASF1247:
	.string	"int_fast16_t"
.LASF1204:
	.string	"__fpos_t"
.LASF692:
	.string	"_ZNSt6vectorIfSaIfEE4swapERS1_"
.LASF1360:
	.string	"_ZNSaIhEC2Ev"
.LASF534:
	.string	"_ZNKSt6vectorIiSaIiEEixEm"
.LASF304:
	.string	"_ZNSt16allocator_traitsISaI16SubApertureImageEE8max_sizeERKS1_"
.LASF785:
	.string	"_ZSt8__fill_aIN9__gnu_cxx17__normal_iteratorIPhSt6vectorIhSaIhEEEEhEvT_S7_RKT0_"
.LASF184:
	.string	"_ZNSt6vectorIhSaIhEE6rbeginEv"
.LASF401:
	.string	"_ZNSt6vectorI16SubApertureImageSaIS0_EE14_M_fill_assignEmRKS0_"
.LASF164:
	.string	"_ZNSt6vectorIhSaIhEEC4EOS1_RKS0_St17integral_constantIbLb0EE"
.LASF387:
	.string	"_ZNKSt6vectorI16SubApertureImageSaIS0_EE4dataEv"
.LASF109:
	.string	"_M_end_of_storage"
.LASF775:
	.string	"_ZSt25__uninitialized_default_nIPfmET_S1_T0_"
.LASF900:
	.string	"swscanf"
.LASF521:
	.string	"_ZNKSt6vectorIiSaIiEE6cbeginEv"
.LASF33:
	.string	"_ZNSt15__exception_ptr13exception_ptrC4EOS0_"
.LASF362:
	.string	"_ZNKSt6vectorI16SubApertureImageSaIS0_EE6rbeginEv"
.LASF1417:
	.string	"memset"
.LASF1076:
	.string	"_Cond"
.LASF335:
	.string	"_ZNSt6vectorI16SubApertureImageSaIS0_EE19_S_nothrow_relocateESt17integral_constantIbLb0EE"
.LASF760:
	.string	"_Construct<int, int const&>"
.LASF1209:
	.string	"clearerr"
.LASF440:
	.string	"__new_allocator<int>"
.LASF729:
	.string	"_ZNSt19_UninitDestroyGuardIPivEC4ERS0_"
.LASF773:
	.string	"_Cont"
.LASF531:
	.string	"_ZNKSt6vectorIiSaIiEE5emptyEv"
.LASF260:
	.string	"_M_emplace_aux"
.LASF583:
	.string	"_ZNSt15__new_allocatorIfEC4ERKS0_"
.LASF1079:
	.string	"operator!="
.LASF1063:
	.string	"__alloc_traits<std::allocator<float>, float>"
.LASF1233:
	.string	"ungetc"
.LASF1162:
	.string	"int8_t"
.LASF489:
	.string	"_ZNSt12_Vector_baseIiSaIiEE17_M_create_storageEm"
.LASF862:
	.string	"_IO_save_end"
.LASF951:
	.string	"wprintf"
.LASF406:
	.string	"_ZNSt6vectorI16SubApertureImageSaIS0_EE14_M_insert_rvalEN9__gnu_cxx17__normal_iteratorIPKS0_S2_EEOS0_"
.LASF443:
	.string	"_ZNSt15__new_allocatorIiEaSERKS0_"
.LASF555:
	.string	"_ZNSt6vectorIiSaIiEE18_M_fill_initializeEmRKi"
.LASF968:
	.string	"_S_propagate_on_copy_assign"
.LASF797:
	.string	"__relocate_a_1<(anonymous namespace)::SubParams, (anonymous namespace)::SubParams>"
.LASF1251:
	.string	"uint_fast16_t"
.LASF1240:
	.string	"int_least32_t"
.LASF1184:
	.string	"srand"
.LASF62:
	.string	"__new_allocator<unsigned char>"
.LASF1113:
	.string	"p_cs_precedes"
.LASF914:
	.string	"wcscmp"
.LASF669:
	.string	"_ZNKSt6vectorIfSaIfEE8capacityEv"
.LASF657:
	.string	"_ZNKSt6vectorIfSaIfEE6rbeginEv"
.LASF564:
	.string	"_ZNKSt6vectorIiSaIiEE12_M_check_lenEmPKc"
.LASF793:
	.string	"_ZSt24__uninitialized_fill_n_aIPimiiET_S1_T0_RKT1_RSaIT2_E"
.LASF298:
	.string	"_ZNSaI16SubApertureImageED4Ev"
.LASF838:
	.string	"fp_offset"
.LASF147:
	.string	"type"
.LASF1149:
	.string	"__time_t"
.LASF896:
	.string	"mbsrtowcs"
.LASF26:
	.string	"_M_get"
.LASF1108:
	.string	"mon_grouping"
.LASF837:
	.string	"gp_offset"
.LASF1320:
	.string	"_ZNSt12_Vector_baseIiSaIiEE17_Vector_impl_dataC2Ev"
.LASF73:
	.string	"pointer"
.LASF508:
	.string	"_ZNSt6vectorIiSaIiEEaSERKS1_"
.LASF254:
	.string	"_M_default_append"
.LASF1037:
	.string	"_ZNK9__gnu_cxx17__normal_iteratorIPK16SubApertureImageSt6vectorIS1_SaIS1_EEEptEv"
.LASF1097:
	.string	"__int128"
.LASF183:
	.string	"rbegin"
.LASF1013:
	.string	"_ZN9__gnu_cxx14__alloc_traitsISaI16SubApertureImageES1_E27_S_propagate_on_move_assignEv"
.LASF149:
	.string	"vector<unsigned char, std::allocator<unsigned char> >"
.LASF780:
	.string	"__fill_n_a<unsigned char*, long unsigned int, unsigned char>"
.LASF926:
	.string	"tm_yday"
.LASF895:
	.string	"mbsinit"
.LASF199:
	.string	"_ZNKSt6vectorIhSaIhEE4sizeEv"
.LASF1427:
	.string	"~out_of_range"
.LASF1042:
	.string	"_ZNK9__gnu_cxx17__normal_iteratorIPK16SubApertureImageSt6vectorIS1_SaIS1_EEEixEl"
.LASF37:
	.string	"~exception_ptr"
.LASF543:
	.string	"_ZNKSt6vectorIiSaIiEE4dataEv"
.LASF1091:
	.string	"max_align_t"
.LASF436:
	.string	"reverse_iterator<__gnu_cxx::__normal_iterator<const (anonymous namespace)::SubParams*, std::vector<(anonymous namespace)::SubParams, std::allocator<(anonymous namespace)::SubParams> > > >"
.LASF1109:
	.string	"positive_sign"
.LASF920:
	.string	"tm_min"
.LASF944:
	.string	"__isoc23_wcstoul"
.LASF1437:
	.string	"_ZN9ImageDataD4Ev"
.LASF36:
	.string	"_ZNSt15__exception_ptr13exception_ptraSEOS0_"
.LASF1190:
	.string	"system"
.LASF1163:
	.string	"int16_t"
.LASF1038:
	.string	"_ZN9__gnu_cxx17__normal_iteratorIPK16SubApertureImageSt6vectorIS1_SaIS1_EEEppEv"
.LASF424:
	.string	"_Vector_base<(anonymous namespace)::SubParams, std::allocator<(anonymous namespace)::SubParams> >"
.LASF819:
	.string	"_InputIterator"
.LASF881:
	.string	"short unsigned int"
.LASF249:
	.string	"_ZNSt6vectorIhSaIhEE14_M_fill_assignEmRKh"
.LASF1095:
	.string	"signed char"
.LASF200:
	.string	"_ZNKSt6vectorIhSaIhEE8max_sizeEv"
.LASF374:
	.string	"_ZNKSt6vectorI16SubApertureImageSaIS0_EE8capacityEv"
.LASF733:
	.string	"_ZNSt19_UninitDestroyGuardIPivE7releaseEv"
.LASF113:
	.string	"_ZNSt12_Vector_baseIhSaIhEE17_Vector_impl_data12_M_copy_dataERKS2_"
.LASF499:
	.string	"_ZNSt6vectorIiSaIiEEC4EmRKiRKS0_"
.LASF1293:
	.string	"x_begin"
.LASF180:
	.string	"_ZNSt6vectorIhSaIhEE3endEv"
.LASF452:
	.string	"_ZNSaIiEC4Ev"
.LASF330:
	.string	"_ZNSt12_Vector_baseI16SubApertureImageSaIS0_EE13_M_deallocateEPS0_m"
.LASF987:
	.string	"_ZNK9__gnu_cxx17__normal_iteratorIPhSt6vectorIhSaIhEEEdeEv"
.LASF438:
	.string	"difference_type"
.LASF544:
	.string	"_ZNSt6vectorIiSaIiEE9push_backERKi"
.LASF46:
	.string	"ptrdiff_t"
.LASF899:
	.string	"swprintf"
.LASF32:
	.string	"_ZNSt15__exception_ptr13exception_ptrC4EDn"
.LASF421:
	.string	"allocator<(anonymous namespace)::SubParams>"
.LASF340:
	.string	"_ZNSt6vectorI16SubApertureImageSaIS0_EEC4Ev"
.LASF96:
	.string	"_ZNSt16allocator_traitsISaIhEE8allocateERS0_m"
.LASF687:
	.string	"_ZNSt6vectorIfSaIfEE6insertEN9__gnu_cxx17__normal_iteratorIPKfS1_EEOf"
.LASF222:
	.string	"back"
.LASF711:
	.string	"_M_data_ptr<float>"
.LASF655:
	.string	"_ZNKSt6vectorIfSaIfEE3endEv"
.LASF848:
	.string	"mbstate_t"
.LASF953:
	.string	"__isoc23_wscanf"
.LASF441:
	.string	"_ZNSt15__new_allocatorIiEC4Ev"
.LASF1365:
	.string	"_ZNSaIfED2Ev"
.LASF385:
	.string	"_ZNKSt6vectorI16SubApertureImageSaIS0_EE4backEv"
.LASF620:
	.string	"_ZNSt12_Vector_baseIfSaIfEEC4EmRKS0_"
.LASF532:
	.string	"_ZNSt6vectorIiSaIiEE7reserveEm"
.LASF1147:
	.string	"__off64_t"
.LASF751:
	.string	"_ZSt8__fill_aIPffEvT_S1_RKT0_"
.LASF885:
	.string	"wchar_t"
.LASF906:
	.string	"vswprintf"
.LASF1312:
	.string	"__len"
.LASF897:
	.string	"putwc"
.LASF156:
	.string	"_ZNSt6vectorIhSaIhEEC4Ev"
.LASF854:
	.string	"_IO_read_base"
.LASF186:
	.string	"_ZNKSt6vectorIhSaIhEE6rbeginEv"
.LASF373:
	.string	"_ZNSt6vectorI16SubApertureImageSaIS0_EE13shrink_to_fitEv"
.LASF872:
	.string	"_offset"
.LASF1045:
	.string	"_ZN9__gnu_cxx17__normal_iteratorIPK16SubApertureImageSt6vectorIS1_SaIS1_EEEmIEl"
.LASF1029:
	.string	"_ZNK9__gnu_cxx17__normal_iteratorIP16SubApertureImageSt6vectorIS1_SaIS1_EEEplEl"
.LASF1351:
	.string	"__old_finish"
.LASF224:
	.string	"_ZNKSt6vectorIhSaIhEE4backEv"
.LASF487:
	.string	"_ZNSt12_Vector_baseIiSaIiEE11_M_allocateEm"
.LASF282:
	.string	"reverse_iterator<__gnu_cxx::__normal_iterator<unsigned char const*, std::vector<unsigned char, std::allocator<unsigned char> > > >"
.LASF201:
	.string	"resize"
.LASF859:
	.string	"_IO_buf_end"
.LASF721:
	.string	"reverse_iterator<__gnu_cxx::__normal_iterator<float const*, std::vector<float, std::allocator<float> > > >"
.LASF181:
	.string	"_ZNKSt6vectorIhSaIhEE3endEv"
.LASF1179:
	.string	"mbstowcs"
.LASF1073:
	.string	"__normal_iterator<float const*, std::vector<float, std::allocator<float> > >"
.LASF118:
	.string	"_ZNSt12_Vector_baseIhSaIhEE12_Vector_implC4EOS2_"
.LASF462:
	.string	"_Vector_base<int, std::allocator<int> >"
.LASF1071:
	.string	"rebind<float>"
.LASF1118:
	.string	"n_sign_posn"
.LASF581:
	.string	"__new_allocator<float>"
.LASF981:
	.string	"_flags2"
.LASF823:
	.string	"_ZSt8_DestroyIPhhEvT_S1_RSaIT0_E"
.LASF53:
	.string	"chrono"
.LASF934:
	.string	"wcsrtombs"
.LASF1201:
	.string	"_G_fpos_t"
.LASF163:
	.string	"_ZNSt6vectorIhSaIhEEC4EOS1_RKS0_St17integral_constantIbLb1EE"
.LASF270:
	.string	"_M_erase"
.LASF925:
	.string	"tm_wday"
.LASF137:
	.string	"_ZNSt12_Vector_baseIhSaIhEED4Ev"
.LASF568:
	.string	"_ZNSt6vectorIiSaIiEE8_M_eraseEN9__gnu_cxx17__normal_iteratorIPiS1_EE"
.LASF917:
	.string	"wcscspn"
.LASF1422:
	.ascii	"GNU C++17 16.0.1 20260425 (prerelease) [gcc-16 r16-8812-gd9c"
	.ascii	"07462a22] -march=tigerlake -mmmx -mpopcnt -msse -msse2 -msse"
	.ascii	"3 -mssse3 -msse4.1 -msse4.2 -mavx -mavx2 -mno-sse4a -mno-fma"
	.ascii	"4 -mno-xop -mfma -mavx512f -mbmi -mbmi2 -maes -mpclmul -mavx"
	.ascii	"512vl -mavx512bw -mavx512dq -mavx512cd -mavx512vbmi -mavx512"
	.ascii	"ifma -mavx512vpopcntdq -mavx512vbmi2 -mgfni -mvpclmulqdq -ma"
	.ascii	"vx512vnni -mavx512bitalg -mno-avx512bf16 -mavx512vp2intersec"
	.ascii	"t -mno-3dnow -madx -mabm -mno-cldemote -mclflushopt -mclwb -"
	.ascii	"mno-clzero -mcx16 -mno-enqcmd -mf16c -mfsgsbase -mfxsr -mno-"
	.ascii	"hle -msahf -mno-lwp -mlzcnt -mmovbe -mmovdir64b -mmovdiri -m"
	.ascii	"no-mwaitx -mno-pconfig -mpku -mprfchw -mno-ptwrite -mrdpid -"
	.ascii	"mrdrnd -mrdseed -mno-rtm -mno-serialize -mno-sgx -msha -mshs"
	.ascii	"tk -mno-tbm -mno-tsxldtrk -mvaes -mno-waitpkg -mno-wbnoinvd "
	.ascii	"-mxsave -mxsavec -mxsaveopt -mxsaves -mno-amx-tile -mno-amx-"
	.ascii	"int8 -mno-amx-bf16 -mno-uintr -mno-hreset -mno-kl -mno-widek"
	.ascii	"l -mno-avxvnni -mno-avx512fp16 -mno-avxifma -mno-avxvnniint8"
	.ascii	" -mno-avxneconvert -mno-cmpccxadd -mno-amx-fp16 -mno-prefetc"
	.ascii	"hi -mno-raoint -mno-amx-complex -mno-avxvnniint16 -mno-sm3 -"
	.ascii	"mno-sha512 -mno-sm4 -mno-apxf -mno-usermsr -mno-avx10.1 -mno"
	.ascii	"-avx10.2 -mno-amx-avx512 -"
	.string	"mno-amx-tf32 -mno-amx-fp8 -mno-movrs -mno-amx-movrs -mno-avx512bmm --param=l1-cache-size=48 --param=l1-cache-line-size=64 --param=l2-cache-size=8192 -mtune=tigerlake -masm=intel -g -O3 -std=c++17 -ffast-math -fno-tree-vectorize -fasynchronous-unwind-tables"
.LASF598:
	.string	"_ZNSt16allocator_traitsISaIfEE8allocateERS0_m"
.LASF23:
	.string	"_M_release"
.LASF878:
	.string	"_mode"
.LASF527:
	.string	"_ZNSt6vectorIiSaIiEE6resizeEm"
.LASF367:
	.string	"_ZNKSt6vectorI16SubApertureImageSaIS0_EE7crbeginEv"
.LASF140:
	.string	"_ZNSt12_Vector_baseIhSaIhEE11_M_allocateEm"
.LASF363:
	.string	"_ZNSt6vectorI16SubApertureImageSaIS0_EE4rendEv"
.LASF855:
	.string	"_IO_write_base"
.LASF1295:
	.string	"y_begin"
.LASF536:
	.string	"_ZNSt6vectorIiSaIiEE2atEm"
.LASF1415:
	.string	"_ZnwmPv"
.LASF334:
	.string	"_ZNSt6vectorI16SubApertureImageSaIS0_EE19_S_nothrow_relocateESt17integral_constantIbLb1EE"
.LASF843:
	.string	"__wch"
.LASF317:
	.string	"_ZNSt12_Vector_baseI16SubApertureImageSaIS0_EE19_M_get_Tp_allocatorEv"
.LASF265:
	.string	"_ZNSt6vectorIhSaIhEE17_S_check_init_lenEmRKS0_"
.LASF571:
	.string	"_ZNSt6vectorIiSaIiEE14_M_move_assignEOS1_St17integral_constantIbLb0EE"
.LASF613:
	.string	"_ZNSt12_Vector_baseIfSaIfEE12_Vector_implD4Ev"
.LASF577:
	.string	"_ZNKSt16initializer_listIiE4sizeEv"
.LASF812:
	.string	"max<float>"
.LASF195:
	.string	"_ZNKSt6vectorIhSaIhEE7crbeginEv"
.LASF1359:
	.string	"_ZNSt12_Vector_baseIhSaIhEE17_Vector_impl_dataC2Ev"
.LASF511:
	.string	"_ZNSt6vectorIiSaIiEE6assignEmRKi"
.LASF821:
	.string	"_Destroy<(anonymous namespace)::SubParams*, (anonymous namespace)::SubParams>"
.LASF907:
	.string	"vswscanf"
.LASF479:
	.string	"_ZNSt12_Vector_baseIiSaIiEEC4ERKS0_"
.LASF1322:
	.string	"__dest"
.LASF923:
	.string	"tm_mon"
.LASF497:
	.string	"_ZNSt6vectorIiSaIiEEC4ERKS0_"
.LASF1375:
	.string	"_ZNSt12_Vector_baseIhSaIhEE12_Vector_implC2Ev"
.LASF1085:
	.string	"long long int"
.LASF1265:
	.string	"time"
.LASF494:
	.string	"_ZNSt6vectorIiSaIiEE15_S_use_relocateEv"
.LASF1198:
	.string	"__isoc23_strtoull"
.LASF1255:
	.string	"uintptr_t"
.LASF292:
	.string	"_ZNKSt15__new_allocatorI16SubApertureImageE8max_sizeEv"
.LASF41:
	.string	"__cxa_exception_type"
.LASF541:
	.string	"_ZNKSt6vectorIiSaIiEE4backEv"
.LASF7:
	.string	"operator()"
.LASF1296:
	.string	"y_end"
.LASF1215:
	.string	"fgetpos"
.LASF491:
	.string	"vector<int, std::allocator<int> >"
.LASF1407:
	.string	"__lhs"
.LASF680:
	.string	"_ZNKSt6vectorIfSaIfEE4backEv"
.LASF1321:
	.string	"_ZNSt15__new_allocatorIiEC2ERKS0_"
.LASF1030:
	.string	"_ZN9__gnu_cxx17__normal_iteratorIP16SubApertureImageSt6vectorIS1_SaIS1_EEEmIEl"
.LASF226:
	.string	"_ZNSt6vectorIhSaIhEE4dataEv"
.LASF383:
	.string	"_ZNKSt6vectorI16SubApertureImageSaIS0_EE5frontEv"
.LASF909:
	.string	"vwprintf"
.LASF1205:
	.string	"_IO_marker"
.LASF877:
	.string	"_prevchain"
.LASF500:
	.string	"_ZNSt6vectorIiSaIiEEC4ERKS1_"
.LASF1290:
	.string	"_Float64x"
.LASF924:
	.string	"tm_year"
.LASF1137:
	.string	"__uint_least8_t"
.LASF11:
	.string	"integral_constant<bool, false>"
.LASF316:
	.string	"_ZNSt12_Vector_baseI16SubApertureImageSaIS0_EE12_Vector_implC4EOS1_OS3_"
.LASF460:
	.string	"_ZNSt16allocator_traitsISaIiEE8max_sizeERKS0_"
.LASF1223:
	.string	"getc"
.LASF1310:
	.string	"_ZNSt19_UninitDestroyGuardIPivED2Ev"
.LASF952:
	.string	"wscanf"
.LASF353:
	.string	"_ZNSt6vectorI16SubApertureImageSaIS0_EEaSEOS2_"
.LASF707:
	.string	"_ZNSt6vectorIfSaIfEE8_M_eraseEN9__gnu_cxx17__normal_iteratorIPfS1_EE"
.LASF1313:
	.string	"__guard"
.LASF1172:
	.string	"atof"
.LASF650:
	.string	"_ZNSt6vectorIfSaIfEE6assignEmRKf"
.LASF550:
	.string	"_ZNSt6vectorIiSaIiEE6insertEN9__gnu_cxx17__normal_iteratorIPKiS1_EEmRS4_"
.LASF153:
	.string	"_S_relocate"
.LASF372:
	.string	"_ZNSt6vectorI16SubApertureImageSaIS0_EE6resizeEmRKS0_"
.LASF530:
	.string	"_ZNKSt6vectorIiSaIiEE8capacityEv"
.LASF417:
	.string	"reverse_iterator<__gnu_cxx::__normal_iterator<SubApertureImage*, std::vector<SubApertureImage, std::allocator<SubApertureImage> > > >"
.LASF1254:
	.string	"intptr_t"
.LASF725:
	.string	"iterator_traits<unsigned char*>"
.LASF847:
	.string	"__mbstate_t"
.LASF1106:
	.string	"mon_decimal_point"
.LASF1305:
	.string	"_Znwm"
.LASF419:
	.string	"__new_allocator<(anonymous namespace)::SubParams>"
.LASF1236:
	.string	"uint32_t"
.LASF39:
	.string	"swap"
.LASF1000:
	.string	"_ZNK9__gnu_cxx17__normal_iteratorIPhSt6vectorIhSaIhEEEplEl"
.LASF337:
	.string	"_ZNSt6vectorIhSaIhEE15_S_use_relocateEv"
.LASF1206:
	.string	"_IO_codecvt"
.LASF768:
	.string	"__niter_base<unsigned char*>"
.LASF1340:
	.string	"_ZNSt12_Vector_baseIfSaIfEED2Ev"
.LASF809:
	.string	"_ZSt3minImERKT_S2_S2_"
.LASF585:
	.string	"_ZNSt15__new_allocatorIfED4Ev"
.LASF673:
	.string	"_ZNKSt6vectorIfSaIfEEixEm"
.LASF234:
	.string	"_ZNSt6vectorIhSaIhEE6insertEN9__gnu_cxx17__normal_iteratorIPKhS1_EERS4_"
.LASF777:
	.string	"_ZSt20uninitialized_fill_nIPimiET_S1_T0_RKT1_"
.LASF1185:
	.string	"strtod"
.LASF1199:
	.string	"strtof"
.LASF802:
	.string	"__uninitialized_fill_n_a<unsigned char*, long unsigned int, unsigned char, unsigned char>"
.LASF1186:
	.string	"strtol"
.LASF963:
	.string	"__alloc_traits<std::allocator<unsigned char>, unsigned char>"
.LASF1082:
	.string	"long double"
.LASF133:
	.string	"_ZNSt12_Vector_baseIhSaIhEEC4EOS0_"
.LASF87:
	.string	"allocator<unsigned char>"
.LASF701:
	.string	"_ZNSt6vectorIfSaIfEE14_M_insert_rvalEN9__gnu_cxx17__normal_iteratorIPKfS1_EEOf"
.LASF274:
	.string	"_ZNSt6vectorIhSaIhEE14_M_move_assignEOS1_St17integral_constantIbLb1EE"
.LASF1006:
	.string	"_ZNK9__gnu_cxx17__normal_iteratorIPhSt6vectorIhSaIhEEE4baseEv"
.LASF1018:
	.string	"__normal_iterator<SubApertureImage*, std::vector<SubApertureImage, std::allocator<SubApertureImage> > >"
.LASF341:
	.string	"_ZNSt6vectorI16SubApertureImageSaIS0_EEC4ERKS1_"
.LASF1114:
	.string	"p_sep_by_space"
.LASF743:
	.string	"__throw_bad_alloc"
.LASF836:
	.string	"long unsigned int"
.LASF696:
	.string	"_ZNSt6vectorIfSaIfEE14_M_fill_assignEmRKf"
.LASF966:
	.string	"_S_on_swap"
.LASF313:
	.string	"_ZNSt12_Vector_baseI16SubApertureImageSaIS0_EE12_Vector_implC4ERKS1_"
.LASF997:
	.string	"operator+="
.LASF1308:
	.string	"__load_outside_loop"
.LASF1394:
	.string	"pTLb"
.LASF723:
	.string	"enable_if<true, (anonymous namespace)::SubParams*>"
.LASF1393:
	.string	"pTLg"
.LASF132:
	.string	"_ZNSt12_Vector_baseIhSaIhEEC4EOS1_"
.LASF1232:
	.string	"tmpnam"
.LASF1392:
	.string	"pTLr"
.LASF824:
	.string	"clamp<float>"
.LASF1212:
	.string	"ferror"
.LASF145:
	.string	"_Alloc"
.LASF344:
	.string	"_ZNSt6vectorI16SubApertureImageSaIS0_EEC4ERKS2_"
.LASF251:
	.string	"_ZNSt6vectorIhSaIhEE14_M_fill_insertEN9__gnu_cxx17__normal_iteratorIPhS1_EEmRKh"
.LASF342:
	.string	"_ZNSt6vectorI16SubApertureImageSaIS0_EEC4EmRKS1_"
.LASF1411:
	.string	"_ZNSt6vectorIhSaIhEEC2Ev"
.LASF829:
	.string	"_ZSt3maxIiERKT_S2_S2_"
.LASF89:
	.string	"_ZNSaIhEC4Ev"
.LASF449:
	.string	"_ZNKSt15__new_allocatorIiE8max_sizeEv"
.LASF1271:
	.string	"wctype_t"
.LASF3:
	.string	"char"
.LASF912:
	.string	"wcrtomb"
.LASF941:
	.string	"__isoc23_wcstol"
.LASF276:
	.string	"_M_data_ptr<unsigned char>"
.LASF784:
	.string	"__fill_a<__gnu_cxx::__normal_iterator<unsigned char*, std::vector<unsigned char> >, unsigned char>"
.LASF228:
	.string	"push_back"
.LASF1081:
	.string	"wcstold"
.LASF678:
	.string	"_ZNKSt6vectorIfSaIfEE5frontEv"
.LASF1078:
	.string	"_Iffalse"
.LASF748:
	.string	"__fill_a1<float*, float>"
.LASF830:
	.string	"round"
.LASF1373:
	.string	"_ZNSt12_Vector_baseIhSaIhEED2Ev"
.LASF990:
	.string	"operator++"
.LASF1116:
	.string	"n_sep_by_space"
.LASF573:
	.string	"_M_array"
.LASF420:
	.string	"construct<(anonymous namespace)::SubParams, const (anonymous namespace)::SubParams&>"
.LASF867:
	.string	"_old_offset"
.LASF447:
	.string	"_ZNSt15__new_allocatorIiE8allocateEmPKv"
.LASF1354:
	.string	"__new_finish"
.LASF1014:
	.string	"_ZN9__gnu_cxx14__alloc_traitsISaI16SubApertureImageES1_E20_S_propagate_on_swapEv"
.LASF192:
	.string	"cend"
.LASF828:
	.string	"max<int>"
.LASF237:
	.string	"_ZNSt6vectorIhSaIhEE6insertEN9__gnu_cxx17__normal_iteratorIPKhS1_EEmRS4_"
.LASF858:
	.string	"_IO_buf_base"
.LASF570:
	.string	"_ZNSt6vectorIiSaIiEE14_M_move_assignEOS1_St17integral_constantIbLb1EE"
.LASF256:
	.string	"_M_shrink_to_fit"
.LASF379:
	.string	"_ZNKSt6vectorI16SubApertureImageSaIS0_EE14_M_range_checkEm"
.LASF148:
	.string	"_Type"
.LASF993:
	.string	"operator--"
.LASF742:
	.string	"__throw_bad_array_new_length"
.LASF879:
	.string	"_unused2"
.LASF576:
	.string	"_ZNSt16initializer_listIiEC4Ev"
.LASF92:
	.string	"~allocator"
.LASF1001:
	.string	"operator-="
.LASF988:
	.string	"operator->"
.LASF1263:
	.string	"difftime"
.LASF1249:
	.string	"int_fast64_t"
.LASF524:
	.string	"_ZNKSt6vectorIiSaIiEE5crendEv"
.LASF29:
	.string	"_ZNKSt15__exception_ptr13exception_ptr21_M_exception_ptr_castERKSt9type_info"
.LASF853:
	.string	"_IO_read_end"
.LASF507:
	.string	"_ZNSt6vectorIiSaIiEED4Ev"
.LASF1334:
	.string	"__alloc"
.LASF358:
	.string	"_ZNKSt6vectorI16SubApertureImageSaIS0_EE5beginEv"
.LASF173:
	.string	"_ZNSt6vectorIhSaIhEE6assignEmRKh"
.LASF464:
	.string	"_ZNSt12_Vector_baseIiSaIiEE17_Vector_impl_dataC4EOS2_"
.LASF850:
	.string	"_IO_FILE"
.LASF423:
	.string	"_Args"
.LASF958:
	.string	"wmemchr"
.LASF399:
	.string	"_ZNSt6vectorI16SubApertureImageSaIS0_EE18_M_fill_initializeEmRKS0_"
.LASF1207:
	.string	"_IO_wide_data"
.LASF1060:
	.string	"rebind<int>"
.LASF637:
	.string	"_ZNSt6vectorIfSaIfEEC4EmRKS0_"
.LASF463:
	.string	"_ZNSt12_Vector_baseIiSaIiEE17_Vector_impl_dataC4Ev"
.LASF43:
	.string	"rethrow_exception"
.LASF1433:
	.string	"_ZN9__gnu_cxx21__default_lock_policyE"
.LASF921:
	.string	"tm_hour"
.LASF378:
	.string	"_ZNKSt6vectorI16SubApertureImageSaIS0_EEixEm"
.LASF365:
	.string	"_ZNKSt6vectorI16SubApertureImageSaIS0_EE6cbeginEv"
.LASF25:
	.string	"_ZNSt15__exception_ptr13exception_ptr10_M_releaseEv"
.LASF762:
	.string	"__fill_a1<unsigned char, unsigned char>"
.LASF1099:
	.string	"char32_t"
.LASF1194:
	.string	"atoll"
.LASF672:
	.string	"_ZNSt6vectorIfSaIfEEixEm"
.LASF239:
	.string	"_ZNSt6vectorIhSaIhEE5eraseEN9__gnu_cxx17__normal_iteratorIPKhS1_EE"
.LASF1220:
	.string	"fseek"
.LASF110:
	.string	"_ZNSt12_Vector_baseIhSaIhEE17_Vector_impl_dataC4Ev"
.LASF252:
	.string	"_M_fill_append"
.LASF322:
	.string	"_ZNSt12_Vector_baseI16SubApertureImageSaIS0_EEC4Em"
.LASF1253:
	.string	"uint_fast64_t"
.LASF320:
	.string	"_ZNSt12_Vector_baseI16SubApertureImageSaIS0_EEC4Ev"
.LASF739:
	.string	"_Iter"
.LASF612:
	.string	"_ZNSt12_Vector_baseIfSaIfEE12_Vector_implC4EOS0_OS2_"
.LASF1175:
	.string	"bsearch"
.LASF230:
	.string	"_ZNSt6vectorIhSaIhEE9push_backEOh"
.LASF1326:
	.string	"_ZNSt12_Vector_baseIfSaIfEE12_Vector_implC2ERKS0_"
.LASF558:
	.string	"_ZNSt6vectorIiSaIiEE14_M_fill_insertEN9__gnu_cxx17__normal_iteratorIPiS1_EEmRKi"
.LASF1132:
	.string	"__int32_t"
.LASF185:
	.string	"const_reverse_iterator"
.LASF1219:
	.string	"freopen"
.LASF1126:
	.string	"getwchar"
.LASF822:
	.string	"_Destroy<unsigned char*, unsigned char>"
.LASF1026:
	.string	"_ZN9__gnu_cxx17__normal_iteratorIP16SubApertureImageSt6vectorIS1_SaIS1_EEEmmEi"
.LASF1384:
	.string	"vals"
.LASF1124:
	.string	"int_n_sign_posn"
.LASF98:
	.string	"_ZNSt16allocator_traitsISaIhEE8allocateERS0_mPKv"
.LASF355:
	.string	"_ZNSt6vectorI16SubApertureImageSaIS0_EE6assignEmRKS0_"
.LASF31:
	.string	"_ZNSt15__exception_ptr13exception_ptrC4ERKS0_"
.LASF24:
	.string	"_ZNSt15__exception_ptr13exception_ptr9_M_addrefEv"
.LASF922:
	.string	"tm_mday"
.LASF715:
	.string	"_ZNSt16initializer_listIfEC4Ev"
.LASF1061:
	.string	"__normal_iterator<int*, std::vector<int, std::allocator<int> > >"
.LASF427:
	.string	"_Base"
.LASF99:
	.string	"const_void_pointer"
.LASF77:
	.string	"const_reference"
.LASF402:
	.string	"_ZNSt6vectorI16SubApertureImageSaIS0_EE14_M_fill_insertEN9__gnu_cxx17__normal_iteratorIPS0_S2_EEmRKS0_"
.LASF1025:
	.string	"_ZN9__gnu_cxx17__normal_iteratorIP16SubApertureImageSt6vectorIS1_SaIS1_EEEmmEv"
.LASF85:
	.string	"_M_max_size"
.LASF808:
	.string	"min<long unsigned int>"
.LASF1302:
	.string	"operator delete"
.LASF766:
	.string	"__fill_a<unsigned char*, unsigned char>"
.LASF676:
	.string	"_ZNKSt6vectorIfSaIfEE2atEm"
.LASF1270:
	.string	"timespec_get"
.LASF1044:
	.string	"_ZNK9__gnu_cxx17__normal_iteratorIPK16SubApertureImageSt6vectorIS1_SaIS1_EEEplEl"
.LASF21:
	.string	"_ZNSt15__exception_ptr13exception_ptrC4EPv"
.LASF1049:
	.string	"rebind<(anonymous namespace)::SubParams>"
.LASF561:
	.string	"_ZNSt6vectorIiSaIiEE16_M_shrink_to_fitEv"
.LASF1221:
	.string	"fsetpos"
.LASF596:
	.string	"_ZNSaIfED4Ev"
.LASF833:
	.string	"_ZSt5floorf"
.LASF384:
	.string	"_ZNSt6vectorI16SubApertureImageSaIS0_EE4backEv"
.LASF40:
	.string	"_ZNSt15__exception_ptr13exception_ptr4swapERS0_"
.LASF863:
	.string	"_markers"
.LASF1165:
	.string	"int64_t"
.LASF480:
	.string	"_ZNSt12_Vector_baseIiSaIiEEC4Em"
.LASF962:
	.string	"_S_atomic"
.LASF779:
	.string	"_ZSt3maxImERKT_S2_S2_"
.LASF478:
	.string	"_ZNSt12_Vector_baseIiSaIiEEC4Ev"
.LASF1432:
	.string	"__default_lock_policy"
.LASF323:
	.string	"_ZNSt12_Vector_baseI16SubApertureImageSaIS0_EEC4EmRKS1_"
.LASF59:
	.string	"_ForwardIterator"
.LASF1367:
	.string	"_ZNSt6vectorIiSaIiEED2Ev"
.LASF300:
	.string	"_ZNSt16allocator_traitsISaI16SubApertureImageEE8allocateERS1_m"
.LASF1291:
	.string	"__pstl"
.LASF804:
	.string	"fill<__gnu_cxx::__normal_iterator<unsigned char*, std::vector<unsigned char> >, unsigned char>"
.LASF616:
	.string	"_ZNKSt12_Vector_baseIfSaIfEE13get_allocatorEv"
.LASF179:
	.string	"_ZNKSt6vectorIhSaIhEE5beginEv"
.LASF873:
	.string	"_codecvt"
.LASF1242:
	.string	"uint_least8_t"
.LASF288:
	.string	"_ZNKSt15__new_allocatorI16SubApertureImageE7addressERS0_"
.LASF1403:
	.string	"pTRb"
.LASF1177:
	.string	"ldiv"
.LASF1402:
	.string	"pTRg"
.LASF158:
	.string	"_ZNSt6vectorIhSaIhEEC4EmRKS0_"
.LASF599:
	.string	"_ZNSt16allocator_traitsISaIfEE8allocateERS0_mPKv"
.LASF732:
	.string	"release"
.LASF1401:
	.string	"pTRr"
.LASF238:
	.string	"erase"
.LASF937:
	.string	"double"
.LASF106:
	.string	"_M_exception_object"
.LASF253:
	.string	"_ZNSt6vectorIhSaIhEE14_M_fill_appendEmRKh"
.LASF813:
	.string	"_ZSt3maxIfERKT_S2_S2_"
.LASF18:
	.string	"__swappable_with_details"
.LASF653:
	.string	"_ZNKSt6vectorIfSaIfEE5beginEv"
.LASF1418:
	.string	"__builtin_memcpy"
.LASF839:
	.string	"overflow_arg_area"
.LASF849:
	.string	"__FILE"
.LASF1429:
	.string	"typedef __va_list_tag __va_list_tag"
.LASF757:
	.string	"_ZSt6fill_nIPfmfET_S1_T0_RKT1_"
.LASF980:
	.string	"__normal_iterator<unsigned char*, std::vector<unsigned char, std::allocator<unsigned char> > >"
.LASF346:
	.string	"_ZNSt6vectorI16SubApertureImageSaIS0_EEC4ERKS2_RKS1_"
.LASF1143:
	.string	"__uint_least64_t"
.LASF1057:
	.string	"_ZN9__gnu_cxx14__alloc_traitsISaIiEiE20_S_propagate_on_swapEv"
.LASF429:
	.string	"_M_storage"
.LASF562:
	.string	"_ZNSt6vectorIiSaIiEE14_M_insert_rvalEN9__gnu_cxx17__normal_iteratorIPKiS1_EEOi"
.LASF1267:
	.string	"ctime"
.LASF1077:
	.string	"_Iftrue"
.LASF977:
	.string	"_ZN9__gnu_cxx14__alloc_traitsISaIhEhE15_S_nothrow_moveEv"
.LASF737:
	.string	"_S_destroy<int*>"
.LASF209:
	.string	"_ZNKSt6vectorIhSaIhEE5emptyEv"
.LASF439:
	.string	"_Iterator"
.LASF644:
	.string	"_ZNSt6vectorIfSaIfEEC4EOS1_RKS0_"
.LASF1386:
	.string	"__for_begin"
.LASF510:
	.string	"_ZNSt6vectorIiSaIiEEaSESt16initializer_listIiE"
.LASF580:
	.string	"reverse_iterator<__gnu_cxx::__normal_iterator<int const*, std::vector<int, std::allocator<int> > > >"
.LASF244:
	.string	"_M_fill_initialize"
.LASF1039:
	.string	"_ZN9__gnu_cxx17__normal_iteratorIPK16SubApertureImageSt6vectorIS1_SaIS1_EEEppEi"
.LASF691:
	.string	"_ZNSt6vectorIfSaIfEE5eraseEN9__gnu_cxx17__normal_iteratorIPKfS1_EES6_"
.LASF1133:
	.string	"__uint32_t"
.LASF1181:
	.string	"qsort"
.LASF1051:
	.string	"__normal_iterator<const (anonymous namespace)::SubParams*, std::vector<(anonymous namespace)::SubParams, std::allocator<(anonymous namespace)::SubParams> > >"
.LASF992:
	.string	"_ZN9__gnu_cxx17__normal_iteratorIPhSt6vectorIhSaIhEEEppEi"
.LASF141:
	.string	"_M_deallocate"
.LASF321:
	.string	"_ZNSt12_Vector_baseI16SubApertureImageSaIS0_EEC4ERKS1_"
.LASF197:
	.string	"_ZNKSt6vectorIhSaIhEE5crendEv"
.LASF1396:
	.string	"pBLg"
.LASF538:
	.string	"_ZNSt6vectorIiSaIiEE5frontEv"
.LASF947:
	.string	"wmemcmp"
.LASF771:
	.string	"_ZSt9__fill_a1IPhSt6vectorIhSaIhEEhEvN9__gnu_cxx17__normal_iteratorIT_T0_EES8_RKT1_"
.LASF792:
	.string	"__uninitialized_fill_n_a<int*, long unsigned int, int, int>"
.LASF306:
	.string	"_Vector_base<SubApertureImage, std::allocator<SubApertureImage> >"
.LASF991:
	.string	"_ZN9__gnu_cxx17__normal_iteratorIPhSt6vectorIhSaIhEEEppEv"
.LASF787:
	.string	"_ZSt8_DestroyIPfEvT_S1_"
.LASF217:
	.string	"_ZNSt6vectorIhSaIhEE2atEm"
.LASF846:
	.string	"__value"
.LASF670:
	.string	"_ZNKSt6vectorIfSaIfEE5emptyEv"
.LASF1138:
	.string	"__int_least16_t"
.LASF30:
	.string	"_ZNSt15__exception_ptr13exception_ptrC4Ev"
.LASF552:
	.string	"_ZNSt6vectorIiSaIiEE5eraseEN9__gnu_cxx17__normal_iteratorIPKiS1_EES6_"
.LASF116:
	.string	"_ZNSt12_Vector_baseIhSaIhEE12_Vector_implC4Ev"
.LASF1379:
	.string	"focus"
.LASF818:
	.string	"__relocate_a<(anonymous namespace)::SubParams*, (anonymous namespace)::SubParams*, std::allocator<(anonymous namespace)::SubParams> >"
.LASF1425:
	.string	"literals"
.LASF117:
	.string	"_ZNSt12_Vector_baseIhSaIhEE12_Vector_implC4ERKS0_"
.LASF294:
	.string	"allocator<SubApertureImage>"
.LASF763:
	.string	"_ZSt9__fill_a1IhhEN9__gnu_cxx11__enable_ifIXaasrSt9__is_byteIT_E7__valueoosrSt10__are_sameIS3_T0_E7__valuesrSt20__memcpyable_integerIS6_E7__widthEvE6__typeEPS3_SC_RKS6_"
.LASF1426:
	.string	"__is_nothrow_new_constructible"
.LASF1353:
	.string	"__new_start"
.LASF488:
	.string	"_ZNSt12_Vector_baseIiSaIiEE13_M_deallocateEPim"
.LASF245:
	.string	"_ZNSt6vectorIhSaIhEE18_M_fill_initializeEmRKh"
.LASF169:
	.string	"_ZNSt6vectorIhSaIhEEaSERKS1_"
.LASF1424:
	.string	"input_iterator_tag"
.LASF967:
	.string	"_ZN9__gnu_cxx14__alloc_traitsISaIhEhE10_S_on_swapERS1_S3_"
.LASF412:
	.string	"_ZNSt6vectorI16SubApertureImageSaIS0_EE8_M_eraseEN9__gnu_cxx17__normal_iteratorIPS0_S2_EE"
.LASF1278:
	.string	"width"
.LASF1005:
	.string	"base"
.LASF774:
	.string	"__uninitialized_default_n<float*, long unsigned int>"
.LASF188:
	.string	"_ZNSt6vectorIhSaIhEE4rendEv"
.LASF1023:
	.string	"_ZN9__gnu_cxx17__normal_iteratorIP16SubApertureImageSt6vectorIS1_SaIS1_EEEppEv"
.LASF381:
	.string	"_ZNKSt6vectorI16SubApertureImageSaIS0_EE2atEm"
.LASF1230:
	.string	"setvbuf"
.LASF146:
	.string	"__type_identity<std::allocator<unsigned char> >"
.LASF647:
	.string	"_ZNSt6vectorIfSaIfEEaSERKS1_"
.LASF1189:
	.string	"__isoc23_strtoul"
.LASF807:
	.string	"_ZSt8_DestroyIPhEvT_S1_"
.LASF635:
	.string	"_ZNSt6vectorIfSaIfEEC4Ev"
.LASF591:
	.string	"_ZNKSt15__new_allocatorIfE11_M_max_sizeEv"
.LASF1153:
	.string	"5div_t"
.LASF1156:
	.string	"6ldiv_t"
.LASF1155:
	.string	"div_t"
.LASF297:
	.string	"_ZNSaI16SubApertureImageEaSERKS0_"
.LASF566:
	.string	"_ZNSt6vectorIiSaIiEE11_S_max_sizeERKS0_"
.LASF349:
	.string	"_ZNSt6vectorI16SubApertureImageSaIS0_EEC4EOS2_RKS1_"
.LASF1171:
	.string	"at_quick_exit"
.LASF60:
	.string	"_Size"
.LASF1243:
	.string	"uint_least16_t"
.LASF285:
	.string	"_ZNSt15__new_allocatorI16SubApertureImageEC4ERKS1_"
.LASF208:
	.string	"empty"
.LASF876:
	.string	"_freeres_buf"
.LASF1031:
	.string	"_ZNK9__gnu_cxx17__normal_iteratorIP16SubApertureImageSt6vectorIS1_SaIS1_EEEmiEl"
.LASF667:
	.string	"_ZNSt6vectorIfSaIfEE6resizeEmRKf"
.LASF719:
	.string	"_ZNKSt16initializer_listIfE3endEv"
.LASF1180:
	.string	"mbtowc"
.LASF1024:
	.string	"_ZN9__gnu_cxx17__normal_iteratorIP16SubApertureImageSt6vectorIS1_SaIS1_EEEppEi"
.LASF170:
	.string	"_ZNSt6vectorIhSaIhEEaSEOS1_"
.LASF831:
	.string	"_ZSt5roundf"
.LASF48:
	.string	"forward_iterator_tag"
.LASF211:
	.string	"_ZNSt6vectorIhSaIhEE7reserveEm"
.LASF1167:
	.string	"tv_sec"
.LASF108:
	.string	"_M_finish"
.LASF972:
	.string	"_S_propagate_on_swap"
.LASF246:
	.string	"_M_default_initialize"
.LASF1088:
	.string	"long long unsigned int"
.LASF791:
	.string	"_ZSt8_DestroyIPiEvT_S1_"
.LASF894:
	.string	"mbrtowc"
.LASF868:
	.string	"_cur_column"
.LASF772:
	.string	"_Ite"
.LASF825:
	.string	"_ZSt5clampIfERKT_S2_S2_S2_"
.LASF948:
	.string	"wmemcpy"
.LASF1169:
	.string	"__compar_fn_t"
.LASF393:
	.string	"_ZNSt6vectorI16SubApertureImageSaIS0_EE6insertEN9__gnu_cxx17__normal_iteratorIPKS0_S2_EESt16initializer_listIS0_E"
.LASF287:
	.string	"_ZNSt15__new_allocatorI16SubApertureImageED4Ev"
.LASF1348:
	.string	"_ZNSt15__new_allocatorIiED2Ev"
.LASF229:
	.string	"_ZNSt6vectorIhSaIhEE9push_backERKh"
.LASF738:
	.string	"_ZNSt19_UninitDestroyGuardIPivE10_S_destroyIS0_EEvT_S3_"
.LASF587:
	.string	"_ZNKSt15__new_allocatorIfE7addressERKf"
.LASF2:
	.string	"float"
.LASF1160:
	.string	"clock_t"
.LASF136:
	.string	"~_Vector_base"
.LASF377:
	.string	"_ZNSt6vectorI16SubApertureImageSaIS0_EEixEm"
.LASF754:
	.string	"_ZSt10__fill_n_aIPfmfET_S1_T0_RKT1_St26random_access_iterator_tag"
.LASF504:
	.string	"_ZNSt6vectorIiSaIiEEC4EOS1_RKS0_St17integral_constantIbLb0EE"
.LASF1337:
	.string	"__dif"
.LASF634:
	.string	"_ZNSt6vectorIfSaIfEE11_S_relocateEPfS2_S2_RS0_"
.LASF727:
	.string	"_UninitDestroyGuard<int*, void>"
.LASF1372:
	.string	"_ZNSt6vectorIhSaIhEED2Ev"
.LASF465:
	.string	"_ZNSt12_Vector_baseIiSaIiEE17_Vector_impl_data12_M_copy_dataERKS2_"
.LASF467:
	.string	"_ZNSt12_Vector_baseIiSaIiEE12_Vector_implC4Ev"
.LASF332:
	.string	"__type_identity<std::allocator<SubApertureImage> >"
.LASF1410:
	.string	"_ZN9ImageDataC2Ev"
.LASF931:
	.string	"wcsncat"
.LASF120:
	.string	"_ZNSt12_Vector_baseIhSaIhEE12_Vector_implC4EOS0_OS2_"
.LASF1217:
	.string	"fopen"
.LASF548:
	.string	"_ZNSt6vectorIiSaIiEE6insertEN9__gnu_cxx17__normal_iteratorIPKiS1_EEOi"
.LASF928:
	.string	"tm_gmtoff"
.LASF65:
	.string	"_ZNSt15__new_allocatorIhEC4ERKS0_"
.LASF366:
	.string	"_ZNKSt6vectorI16SubApertureImageSaIS0_EE4cendEv"
.LASF278:
	.string	"__type_identity_t"
.LASF55:
	.string	"filesystem"
.LASF600:
	.string	"_ZNSt16allocator_traitsISaIfEE10deallocateERS0_Pfm"
.LASF861:
	.string	"_IO_backup_base"
.LASF961:
	.string	"_S_mutex"
.LASF325:
	.string	"_ZNSt12_Vector_baseI16SubApertureImageSaIS0_EEC4EOS1_"
.LASF1122:
	.string	"int_n_sep_by_space"
.LASF852:
	.string	"_IO_read_ptr"
.LASF624:
	.string	"_ZNSt12_Vector_baseIfSaIfEEC4ERKS0_OS1_"
.LASF603:
	.string	"_Vector_base<float, std::allocator<float> >"
.LASF279:
	.string	"type_info"
.LASF1216:
	.string	"fgets"
.LASF47:
	.string	"true_type"
.LASF717:
	.string	"_ZNKSt16initializer_listIfE5beginEv"
.LASF1246:
	.string	"int_fast8_t"
.LASF1176:
	.string	"getenv"
.LASF875:
	.string	"_freeres_list"
.LASF994:
	.string	"_ZN9__gnu_cxx17__normal_iteratorIPhSt6vectorIhSaIhEEEmmEv"
.LASF1261:
	.string	"__float128"
.LASF783:
	.string	"_ZSt20uninitialized_fill_nIPhmhET_S1_T0_RKT1_"
.LASF166:
	.string	"_ZNSt6vectorIhSaIhEEC4ESt16initializer_listIhERKS0_"
.LASF376:
	.string	"_ZNSt6vectorI16SubApertureImageSaIS0_EE7reserveEm"
.LASF753:
	.string	"__fill_n_a<float*, long unsigned int, float>"
.LASF665:
	.string	"_ZNKSt6vectorIfSaIfEE8max_sizeEv"
.LASF884:
	.string	"fgetws"
.LASF513:
	.string	"_ZNSt6vectorIiSaIiEE5beginEv"
.LASF324:
	.string	"_ZNSt12_Vector_baseI16SubApertureImageSaIS0_EEC4EOS2_"
.LASF1183:
	.string	"rand"
.LASF63:
	.string	"__new_allocator"
.LASF1377:
	.string	"_Z21refocus_shift_and_sumRSt6vectorI16SubApertureImageSaIS0_EEf"
.LASF761:
	.string	"_ZSt10_ConstructIiJRKiEEvPT_DpOT0_"
.LASF129:
	.string	"_ZNSt12_Vector_baseIhSaIhEEC4ERKS0_"
.LASF392:
	.string	"_ZNSt6vectorI16SubApertureImageSaIS0_EE6insertEN9__gnu_cxx17__normal_iteratorIPKS0_S2_EEOS0_"
.LASF750:
	.string	"__fill_a<float*, float>"
.LASF983:
	.string	"__normal_iterator"
.LASF764:
	.string	"__do_uninit_fill_n<int*, long unsigned int, int>"
.LASF1056:
	.string	"_ZN9__gnu_cxx14__alloc_traitsISaIiEiE27_S_propagate_on_move_assignEv"
.LASF592:
	.string	"allocator<float>"
.LASF985:
	.string	"_ZN9__gnu_cxx17__normal_iteratorIPhSt6vectorIhSaIhEEEC4ERKS1_"
.LASF915:
	.string	"wcscoll"
.LASF1414:
	.string	"_ZdlPvS_"
.LASF154:
	.string	"_ZNSt6vectorIhSaIhEE11_S_relocateEPhS2_S2_RS0_"
.LASF1272:
	.string	"wctrans_t"
.LASF101:
	.string	"select_on_container_copy_construction"
.LASF547:
	.string	"_ZNSt6vectorIiSaIiEE6insertEN9__gnu_cxx17__normal_iteratorIPKiS1_EERS4_"
.LASF57:
	.string	"__uninitialized_default_n_1<true>"
.LASF273:
	.string	"_M_move_assign"
.LASF1035:
	.string	"_ZN9__gnu_cxx17__normal_iteratorIPK16SubApertureImageSt6vectorIS1_SaIS1_EEEC4ERKS3_"
.LASF782:
	.string	"uninitialized_fill_n<unsigned char*, long unsigned int, unsigned char>"
.LASF618:
	.string	"_ZNSt12_Vector_baseIfSaIfEEC4ERKS0_"
.LASF713:
	.string	"initializer_list<float>"
.LASF636:
	.string	"_ZNSt6vectorIfSaIfEEC4ERKS0_"
.LASF269:
	.string	"_ZNSt6vectorIhSaIhEE15_M_erase_at_endEPh"
.LASF1055:
	.string	"_ZN9__gnu_cxx14__alloc_traitsISaIiEiE27_S_propagate_on_copy_assignEv"
.LASF1117:
	.string	"p_sign_posn"
.LASF1400:
	.string	"ind_bot_r"
.LASF468:
	.string	"_ZNSt12_Vector_baseIiSaIiEE12_Vector_implC4ERKS0_"
.LASF394:
	.string	"_ZNSt6vectorI16SubApertureImageSaIS0_EE6insertEN9__gnu_cxx17__normal_iteratorIPKS0_S2_EEmRS5_"
.LASF956:
	.string	"wcsrchr"
.LASF651:
	.string	"_ZNSt6vectorIfSaIfEE6assignESt16initializer_listIfE"
.LASF1245:
	.string	"uint_least64_t"
.LASF663:
	.string	"_ZNKSt6vectorIfSaIfEE5crendEv"
.LASF329:
	.string	"_ZNSt12_Vector_baseI16SubApertureImageSaIS0_EE11_M_allocateEm"
.LASF1004:
	.string	"_ZNK9__gnu_cxx17__normal_iteratorIPhSt6vectorIhSaIhEEEmiEl"
.LASF505:
	.string	"_ZNSt6vectorIiSaIiEEC4EOS1_RKS0_"
.LASF699:
	.string	"_ZNSt6vectorIfSaIfEE17_M_default_appendEm"
.LASF343:
	.string	"_ZNSt6vectorI16SubApertureImageSaIS0_EEC4EmRKS0_RKS1_"
.LASF1070:
	.string	"_ZN9__gnu_cxx14__alloc_traitsISaIfEfE15_S_nothrow_moveEv"
.LASF1336:
	.string	"_ZNSt6vectorIhSaIhEEC2EmRKhRKS0_"
.LASF559:
	.string	"_ZNSt6vectorIiSaIiEE14_M_fill_appendEmRKi"
.LASF336:
	.string	"_S_use_relocate"
.LASF152:
	.string	"_ZNSt6vectorIhSaIhEE19_S_nothrow_relocateESt17integral_constantIbLb0EE"
.LASF115:
	.string	"_Vector_impl"
.LASF1412:
	.string	"_ZNSt12_Vector_baseIhSaIhEEC2Ev"
.LASF1264:
	.string	"mktime"
.LASF1355:
	.string	"_ZN9__gnu_cxx17__normal_iteratorIP16SubApertureImageSt6vectorIS1_SaIS1_EEEC2ERKS2_"
.LASF1224:
	.string	"getchar"
.LASF1168:
	.string	"tv_nsec"
.LASF730:
	.string	"~_UninitDestroyGuard"
.LASF522:
	.string	"_ZNKSt6vectorIiSaIiEE4cendEv"
.LASF639:
	.string	"_ZNSt6vectorIfSaIfEEC4ERKS1_"
.LASF834:
	.string	"__size_to_integer"
.LASF529:
	.string	"_ZNSt6vectorIiSaIiEE13shrink_to_fitEv"
.LASF1440:
	.string	"__can_fill"
.LASF1050:
	.string	"__normal_iterator<(anonymous namespace)::SubParams*, std::vector<(anonymous namespace)::SubParams, std::allocator<(anonymous namespace)::SubParams> > >"
.LASF107:
	.string	"_M_start"
.LASF553:
	.string	"_ZNSt6vectorIiSaIiEE4swapERS1_"
.LASF1307:
	.string	"__last"
.LASF327:
	.string	"_ZNSt12_Vector_baseI16SubApertureImageSaIS0_EEC4ERKS1_OS2_"
.LASF976:
	.string	"_S_nothrow_move"
.LASF902:
	.string	"ungetwc"
.LASF1397:
	.string	"pBLb"
.LASF280:
	.string	"initializer_list<unsigned char>"
.LASF1065:
	.string	"_ZN9__gnu_cxx14__alloc_traitsISaIfEfE10_S_on_swapERS1_S3_"
.LASF1399:
	.string	"ind_top_r"
.LASF1052:
	.string	"__alloc_traits<std::allocator<int>, int>"
.LASF259:
	.string	"_ZNSt6vectorIhSaIhEE14_M_insert_rvalEN9__gnu_cxx17__normal_iteratorIPKhS1_EEOh"
.LASF970:
	.string	"_S_propagate_on_move_assign"
.LASF241:
	.string	"_ZNSt6vectorIhSaIhEE4swapERS1_"
.LASF1395:
	.string	"pBLr"
.LASF1033:
	.string	"__normal_iterator<const SubApertureImage*, std::vector<SubApertureImage, std::allocator<SubApertureImage> > >"
.LASF767:
	.string	"_ZSt8__fill_aIPhhEvT_S1_RKT0_"
.LASF1008:
	.string	"__normal_iterator<unsigned char const*, std::vector<unsigned char, std::allocator<unsigned char> > >"
.LASF629:
	.string	"__type_identity<std::allocator<float> >"
.LASF1430:
	.string	"_ZN9__gnu_cxx3divExx"
.LASF726:
	.string	"iterator_traits<float*>"
.LASF904:
	.string	"vfwscanf"
.LASF1115:
	.string	"n_cs_precedes"
.LASF535:
	.string	"_ZNKSt6vectorIiSaIiEE14_M_range_checkEm"
.LASF79:
	.string	"_ZNSt15__new_allocatorIhE8allocateEmPKv"
.LASF122:
	.string	"_M_get_Tp_allocator"
.LASF1203:
	.string	"__state"
.LASF356:
	.string	"_ZNSt6vectorI16SubApertureImageSaIS0_EE6assignESt16initializer_listIS0_E"
.LASF434:
	.string	"initializer_list<(anonymous namespace)::SubParams>"
.LASF458:
	.string	"_ZNSt16allocator_traitsISaIiEE8allocateERS0_mPKv"
.LASF1127:
	.string	"localeconv"
.LASF74:
	.string	"reference"
.LASF19:
	.string	"__exception_ptr"
.LASF866:
	.string	"_short_backupbuf"
.LASF1098:
	.string	"char16_t"
.LASF1333:
	.string	"__result"
.LASF299:
	.string	"allocator_traits<std::allocator<SubApertureImage> >"
.LASF1431:
	.string	"_Lock_policy"
.LASF131:
	.string	"_ZNSt12_Vector_baseIhSaIhEEC4EmRKS0_"
.LASF1197:
	.string	"strtoull"
.LASF1369:
	.string	"_ZNSaIiED2Ev"
.LASF405:
	.string	"_ZNSt6vectorI16SubApertureImageSaIS0_EE16_M_shrink_to_fitEv"
.LASF528:
	.string	"_ZNSt6vectorIiSaIiEE6resizeEmRKi"
.LASF314:
	.string	"_ZNSt12_Vector_baseI16SubApertureImageSaIS0_EE12_Vector_implC4EOS3_"
.LASF1128:
	.string	"__int8_t"
.LASF369:
	.string	"_ZNKSt6vectorI16SubApertureImageSaIS0_EE4sizeEv"
.LASF371:
	.string	"_ZNSt6vectorI16SubApertureImageSaIS0_EE6resizeEm"
.LASF103:
	.string	"rebind_alloc"
.LASF204:
	.string	"shrink_to_fit"
.LASF810:
	.string	"min<float>"
.LASF350:
	.string	"_ZNSt6vectorI16SubApertureImageSaIS0_EEC4ESt16initializer_listIS0_ERKS1_"
.LASF281:
	.string	"reverse_iterator<__gnu_cxx::__normal_iterator<unsigned char*, std::vector<unsigned char, std::allocator<unsigned char> > > >"
.LASF58:
	.string	"__uninit_default_n<float*, long unsigned int>"
.LASF1298:
	.string	"_ZNSt12out_of_rangeD1Ev"
.LASF865:
	.string	"_fileno"
.LASF805:
	.string	"_ZSt4fillIN9__gnu_cxx17__normal_iteratorIPhSt6vectorIhSaIhEEEEhEvT_S7_RKT0_"
.LASF1374:
	.string	"_ZNSaIhED2Ev"
.LASF841:
	.string	"unsigned int"
.LASF736:
	.string	"_ZNSt19_UninitDestroyGuardIPivEC4ERKS1_"
.LASF1010:
	.string	"_ZN9__gnu_cxx14__alloc_traitsISaI16SubApertureImageES1_E17_S_select_on_copyERKS2_"
.LASF1344:
	.string	"_ZNSt15__new_allocatorIfEC2Ev"
.LASF1390:
	.string	"ind_top"
.LASF328:
	.string	"_ZNSt12_Vector_baseI16SubApertureImageSaIS0_EED4Ev"
.LASF72:
	.string	"_ZNKSt15__new_allocatorIhE7addressERh"
.LASF20:
	.string	"exception_ptr"
.LASF1069:
	.string	"_ZN9__gnu_cxx14__alloc_traitsISaIfEfE15_S_always_equalEv"
.LASF1250:
	.string	"uint_fast8_t"
.LASF105:
	.string	"_Vector_impl_data"
.LASF171:
	.string	"_ZNSt6vectorIhSaIhEEaSESt16initializer_listIhE"
.LASF444:
	.string	"_ZNSt15__new_allocatorIiED4Ev"
.LASF437:
	.string	"iterator_traits<SubApertureImage*>"
.LASF1385:
	.string	"__for_range"
.LASF1002:
	.string	"_ZN9__gnu_cxx17__normal_iteratorIPhSt6vectorIhSaIhEEEmIEl"
.LASF578:
	.string	"_ZNKSt16initializer_listIiE5beginEv"
.LASF641:
	.string	"_ZNSt6vectorIfSaIfEEC4ERKS1_RKS0_"
.LASF223:
	.string	"_ZNSt6vectorIhSaIhEE4backEv"
.LASF1273:
	.string	"iswctype"
.LASF563:
	.string	"_ZNSt6vectorIiSaIiEE14_M_emplace_auxEN9__gnu_cxx17__normal_iteratorIPKiS1_EEOi"
.LASF1096:
	.string	"short int"
.LASF176:
	.string	"begin"
.LASF1119:
	.string	"int_p_cs_precedes"
.LASF746:
	.string	"__throw_length_error"
.LASF943:
	.string	"wcstoul"
.LASF1281:
	.string	"_ZNK9ImageData5indexEmmm"
.LASF194:
	.string	"crbegin"
.LASF827:
	.string	"_ZSt3minIiERKT_S2_S2_"
.LASF869:
	.string	"_vtable_offset"
.LASF308:
	.string	"_ZNSt12_Vector_baseI16SubApertureImageSaIS0_EE17_Vector_impl_dataC4EOS3_"
.LASF911:
	.string	"__isoc23_vwscanf"
.LASF485:
	.string	"_ZNSt12_Vector_baseIiSaIiEEC4ERKS0_OS1_"
.LASF397:
	.string	"_ZNSt6vectorI16SubApertureImageSaIS0_EE4swapERS2_"
.LASF331:
	.string	"_ZNSt12_Vector_baseI16SubApertureImageSaIS0_EE17_M_create_storageEm"
.LASF215:
	.string	"_M_range_check"
.LASF61:
	.string	"_TrivialValueType"
.LASF627:
	.string	"_ZNSt12_Vector_baseIfSaIfEE13_M_deallocateEPfm"
.LASF264:
	.string	"_S_check_init_len"
.LASF1362:
	.string	"__hi"
.LASF1404:
	.string	"pBRr"
.LASF1318:
	.string	"_ZNSt12_Vector_baseIfSaIfEE17_Vector_impl_dataC2Ev"
.LASF567:
	.string	"_ZNSt6vectorIiSaIiEE15_M_erase_at_endEPi"
.LASF588:
	.string	"_ZNSt15__new_allocatorIfE8allocateEmPKv"
.LASF12:
	.string	"operator std::integral_constant<bool, false>::value_type"
.LASF656:
	.string	"_ZNSt6vectorIfSaIfEE6rbeginEv"
.LASF49:
	.string	"bidirectional_iterator_tag"
.LASF697:
	.string	"_ZNSt6vectorIfSaIfEE14_M_fill_insertEN9__gnu_cxx17__normal_iteratorIPfS1_EEmRKf"
.LASF430:
	.string	"_M_len"
	.section	.debug_line_str,"MS",@progbits,1
.LASF1:
	.string	"/home/team15/tomasz-worktree-dir/cpp_refocus"
.LASF0:
	.string	"src/opt7_5.cpp"
	.hidden	"DW.ref.__gxx_personality_v0"
	.weak	"DW.ref.__gxx_personality_v0"
	.section	.data.rel.local.DW.ref.__gxx_personality_v0,"awG",@progbits,DW.ref.__gxx_personality_v0,comdat
	.align 8
	.type	"DW.ref.__gxx_personality_v0", @object
	.size	"DW.ref.__gxx_personality_v0", 8
"DW.ref.__gxx_personality_v0":
	.quad	"__gxx_personality_v0"
	.globl	"__gxx_personality_v0"
	.ident	"GCC: (Debian 16-20260425-1) 16.0.1 20260425 (prerelease) [gcc-16 r16-8812-gd9c07462a22]"
	.section	.note.GNU-stack,"",@progbits
