	.file	"opt7_5_abl_compiler_vec.cpp"
	.intel_syntax noprefix
# GNU C++17 (Debian 16-20260425-1) version 16.0.1 20260425 (prerelease) [gcc-16 r16-8812-gd9c07462a22] (x86_64-linux-gnu)
#	compiled by GNU C version 16.0.1 20260425 (prerelease) [gcc-16 r16-8812-gd9c07462a22], GMP version 6.3.0, MPFR version 4.2.2, MPC version 1.3.1, isl version isl-0.27-GMP

# GGC heuristics: --param ggc-min-expand=30 --param ggc-min-heapsize=4096
# options passed: -march=tigerlake -mmmx -mpopcnt -msse -msse2 -msse3 -mssse3 -msse4.1 -msse4.2 -mavx -mno-sse4a -mno-fma4 -mno-xop -mavx512f -mbmi -mbmi2 -maes -mpclmul -mavx512vl -mavx512bw -mavx512dq -mavx512cd -mavx512vbmi -mavx512ifma -mavx512vpopcntdq -mavx512vbmi2 -mgfni -mvpclmulqdq -mavx512vnni -mavx512bitalg -mno-avx512bf16 -mavx512vp2intersect -mno-3dnow -madx -mabm -mno-cldemote -mclflushopt -mclwb -mno-clzero -mcx16 -mno-enqcmd -mf16c -mfsgsbase -mfxsr -mno-hle -msahf -mno-lwp -mlzcnt -mmovbe -mmovdir64b -mmovdiri -mno-mwaitx -mno-pconfig -mpku -mprfchw -mno-ptwrite -mrdpid -mrdrnd -mrdseed -mno-rtm -mno-serialize -mno-sgx -msha -mshstk -mno-tbm -mno-tsxldtrk -mvaes -mno-waitpkg -mno-wbnoinvd -mxsave -mxsavec -mxsaveopt -mxsaves -mno-amx-tile -mno-amx-int8 -mno-amx-bf16 -mno-uintr -mno-hreset -mno-kl -mno-widekl -mno-avxvnni -mno-avx512fp16 -mno-avxifma -mno-avxvnniint8 -mno-avxneconvert -mno-cmpccxadd -mno-amx-fp16 -mno-prefetchi -mno-raoint -mno-amx-complex -mno-avxvnniint16 -mno-sm3 -mno-sha512 -mno-sm4 -mno-apxf -mno-usermsr -mno-avx10.1 -mno-avx10.2 -mno-amx-avx512 -mno-amx-tf32 -mno-amx-fp8 -mno-movrs -mno-amx-movrs -mno-avx512bmm --param=l1-cache-size=48 --param=l1-cache-line-size=64 --param=l2-cache-size=8192 -mtune=tigerlake -mavx2 -mfma -masm=intel -g -O3 -std=c++17 -ffast-math -fasynchronous-unwind-tables
	.text
.Ltext0:
	.file 0 "/home/team15/tomasz-worktree-dir/cpp_refocus" "src/avx_analysis_code_ablations/opt7_5_abl_compiler_vec.cpp"
	.section	.rodata.str1.8,"aMS",@progbits,1
	.align 8
.LC0:
	.string	"cannot create std::vector larger than max_size()"
	.section	.rodata.str1.1,"aMS",@progbits,1
.LC2:
	.string	"vector::_M_realloc_append"
	.section	.text.unlikely,"ax",@progbits
.LCOLDB7:
	.text
.LHOTB7:
	.p2align 4
	.section	.text.unlikely
.Ltext_cold0:
	.text
	.globl	"_Z21refocus_shift_and_sumRSt6vectorI16SubApertureImageSaIS0_EEf"
	.type	"_Z21refocus_shift_and_sumRSt6vectorI16SubApertureImageSaIS0_EEf", @function
"_Z21refocus_shift_and_sumRSt6vectorI16SubApertureImageSaIS0_EEf":
.LVL0:
.LFB4421:
	.file 1 "src/avx_analysis_code_ablations/opt7_5_abl_compiler_vec.cpp"
	.loc 1 24 91 view -0
	.cfi_startproc
	.cfi_personality 0x9b,"DW.ref.__gxx_personality_v0"
	.cfi_lsda 0x1b,.LLSDA4421
	.loc 1 24 91 is_stmt 0 view .LVU1
	push	r15	#
	.cfi_def_cfa_offset 16
	.cfi_offset 15, -16
	vmovaps	xmm4, xmm0	# focus, focus
.LBB1815:
.LBB1816:
.LBB1817:
.LBB1818:
.LBB1819:
.LBB1820:
# /usr/include/c++/16/bits/stl_vector.h:106: 	: _M_start(), _M_finish(), _M_end_of_storage()
	.file 2 "/usr/include/c++/16/bits/stl_vector.h"
	.loc 2 106 4 view .LVU2
	vpxor	xmm1, xmm1, xmm1	# tmp362
.LBE1820:
.LBE1819:
.LBE1818:
.LBE1817:
.LBE1816:
.LBE1815:
# src/avx_analysis_code_ablations/opt7_5_abl_compiler_vec.cpp:24: ImageData refocus_shift_and_sum(std::vector<SubApertureImage>& subapertures, float focus) {
	.loc 1 24 91 view .LVU3
	push	r14	#
	.cfi_def_cfa_offset 24
	.cfi_offset 14, -24
	push	r13	#
	.cfi_def_cfa_offset 32
	.cfi_offset 13, -32
	push	r12	#
	.cfi_def_cfa_offset 40
	.cfi_offset 12, -40
	push	rbp	#
	.cfi_def_cfa_offset 48
	.cfi_offset 6, -48
	mov	rbp, rsi	# subapertures, subapertures
	push	rbx	#
	.cfi_def_cfa_offset 56
	.cfi_offset 3, -56
	mov	rbx, rdi	# <retval>, .result_ptr
	.loc 1 25 5 is_stmt 1 view .LVU4
.LVL1:
.LBB1832:
.LBI1832:
	.loc 2 1334 7 view .LVU5
	.loc 2 1336 2 discriminator 2 view .LVU6
.LBB1833:
.LBI1833:
	.loc 2 988 7 view .LVU7
.LBB1834:
.LBI1834:
	.file 3 "/usr/include/c++/16/bits/stl_iterator.h"
	.loc 3 1058 7 view .LVU8
.LBE1834:
.LBE1833:
.LBE1832:
# src/avx_analysis_code_ablations/opt7_5_abl_compiler_vec.cpp:24: ImageData refocus_shift_and_sum(std::vector<SubApertureImage>& subapertures, float focus) {
	.loc 1 24 91 is_stmt 0 view .LVU9
	sub	rsp, 168	#,
	.cfi_def_cfa_offset 224
.LBB1838:
.LBB1837:
.LBB1836:
.LBB1835:
# /usr/include/c++/16/bits/stl_iterator.h:1059:       : _M_current(__i) { }
	.loc 3 1059 9 view .LVU10
	mov	rcx, QWORD PTR [rsi]	# SR.264, MEM[(struct SubApertureImage * const &)subapertures_218(D)]
.LVL2:
	.loc 3 1059 9 view .LVU11
.LBE1835:
.LBE1836:
.LBE1837:
.LBE1838:
# src/avx_analysis_code_ablations/opt7_5_abl_compiler_vec.cpp:25:     const size_t width = subapertures.front().data.width;
	.loc 1 25 52 discriminator 1 view .LVU12
	vmovdqu	xmm0, XMMWORD PTR [rcx]	# MEM <vector(2) long unsigned int> [(long unsigned int *)_302], MEM <vector(2) long unsigned int> [(long unsigned int *)_302]
.LVL3:
.LBB1839:
.LBB1830:
.LBB1828:
.LBB1826:
.LBB1822:
.LBB1821:
# /usr/include/c++/16/bits/stl_vector.h:106: 	: _M_start(), _M_finish(), _M_end_of_storage()
	.loc 2 106 29 view .LVU13
	mov	QWORD PTR 32[rdi], 0	# MEM[(struct _Vector_impl_data *)output_221(D) + 16B]._M_end_of_storage,
# /usr/include/c++/16/bits/stl_vector.h:106: 	: _M_start(), _M_finish(), _M_end_of_storage()
	.loc 2 106 4 view .LVU14
	vmovdqu	XMMWORD PTR 16[rdi], xmm1	# MEM <vector(2) long unsigned int> [(unsigned char * *)output_221(D) + 16B], tmp362
	vmovq	rax, xmm0	# _325, MEM <vector(2) long unsigned int> [(long unsigned int *)_302]
	vpextrq	rsi, xmm0, 1	# _434, MEM <vector(2) long unsigned int> [(long unsigned int *)_302]
.LVL4:
	.loc 2 106 4 view .LVU15
.LBE1821:
.LBE1822:
.LBE1826:
.LBE1828:
.LBE1830:
.LBE1839:
# src/avx_analysis_code_ablations/opt7_5_abl_compiler_vec.cpp:31:     output.width = width;
	.loc 1 31 18 view .LVU16
	vmovdqu	XMMWORD PTR [rdi], xmm0	# MEM <vector(2) long unsigned int> [(long unsigned int *)output_221(D)], MEM <vector(2) long unsigned int> [(long unsigned int *)_302]
# src/avx_analysis_code_ablations/opt7_5_abl_compiler_vec.cpp:33:     output.data.assign(width * height * 3, 0);
	.loc 1 33 30 view .LVU17
	mov	rdx, rax	# _847, _325
	mov	QWORD PTR 64[rsp], rsi	# %sfp, _434
	imul	rdx, rsi	# _847, _434
	vmovq	QWORD PTR 40[rsp], xmm0	# %sfp, _325
.LVL5:
	.loc 1 26 5 is_stmt 1 view .LVU18
.LBB1840:
.LBI1840:
	.loc 2 1334 7 view .LVU19
	.loc 2 1336 2 discriminator 2 view .LVU20
.LBB1841:
.LBI1841:
	.loc 2 988 7 view .LVU21
.LBB1842:
.LBI1842:
	.loc 3 1058 7 view .LVU22
	.loc 3 1058 7 is_stmt 0 view .LVU23
.LBE1842:
.LBE1841:
.LBE1840:
	.loc 1 27 5 is_stmt 1 view .LVU24
	.loc 1 28 5 view .LVU25
	.loc 1 30 5 view .LVU26
.LBB1843:
.LBI1815:
	.file 4 "include/utils.hpp"
	.loc 4 11 8 view .LVU27
.LBB1831:
.LBI1816:
	.loc 2 551 7 view .LVU28
.LBB1829:
.LBI1817:
	.loc 2 321 7 view .LVU29
.LBB1827:
.LBI1818:
	.loc 2 143 2 view .LVU30
.LBB1823:
.LBI1823:
	.file 5 "/usr/include/c++/16/bits/allocator.h"
	.loc 5 168 7 view .LVU31
.LBB1824:
.LBI1824:
	.file 6 "/usr/include/c++/16/bits/new_allocator.h"
	.loc 6 88 7 view .LVU32
	.loc 6 88 7 is_stmt 0 view .LVU33
.LBE1824:
.LBE1823:
.LBB1825:
.LBI1819:
	.loc 2 105 2 is_stmt 1 view .LVU34
	.loc 2 105 2 is_stmt 0 view .LVU35
.LBE1825:
.LBE1827:
.LBE1829:
.LBE1831:
.LBE1843:
	.loc 1 31 5 is_stmt 1 view .LVU36
	.loc 1 32 5 view .LVU37
	.loc 1 33 5 view .LVU38
# src/avx_analysis_code_ablations/opt7_5_abl_compiler_vec.cpp:33:     output.data.assign(width * height * 3, 0);
	.loc 1 33 23 is_stmt 0 view .LVU39
	lea	rdi, [rdx+rdx]	# tmp576,
.LVL6:
# src/avx_analysis_code_ablations/opt7_5_abl_compiler_vec.cpp:33:     output.data.assign(width * height * 3, 0);
	.loc 1 33 30 view .LVU40
	mov	QWORD PTR 48[rsp], rdx	# %sfp, _847
# src/avx_analysis_code_ablations/opt7_5_abl_compiler_vec.cpp:33:     output.data.assign(width * height * 3, 0);
	.loc 1 33 23 view .LVU41
	mov	QWORD PTR 104[rsp], rdi	# %sfp, tmp576
	add	rdi, rdx	# _5, _847
	mov	QWORD PTR 56[rsp], rdi	# %sfp, _5
.LVL7:
.LBB1844:
.LBI1844:
	.loc 2 865 7 is_stmt 1 view .LVU42
.LBB1845:
.LBI1845:
	.file 7 "/usr/include/c++/16/bits/vector.tcc"
	.loc 7 274 5 view .LVU43
.LBB1846:
.LBB1847:
# /usr/include/c++/16/bits/vector.tcc:278:       if (__n > capacity())
	.loc 7 278 7 is_stmt 0 discriminator 1 view .LVU44
	test	rdx, rdx	# _847
	jne	.L2	#,
.LVL8:
	.loc 7 278 7 discriminator 1 view .LVU45
.LBE1847:
.LBE1846:
.LBE1845:
.LBE1844:
	.loc 1 35 5 is_stmt 1 view .LVU46
.LBB1933:
.LBI1933:
	.loc 2 551 7 view .LVU47
.LBB1934:
.LBI1934:
	.loc 2 321 7 view .LVU48
.LBB1935:
.LBI1935:
	.loc 2 143 2 view .LVU49
.LBB1936:
.LBI1936:
	.loc 5 168 7 view .LVU50
.LBB1937:
.LBI1937:
	.loc 6 88 7 view .LVU51
	.loc 6 88 7 is_stmt 0 view .LVU52
.LBE1937:
.LBE1936:
.LBB1939:
.LBI1939:
	.loc 2 105 2 is_stmt 1 view .LVU53
	.loc 2 105 2 is_stmt 0 view .LVU54
.LBE1939:
.LBE1935:
.LBE1934:
.LBE1933:
	.loc 1 36 5 is_stmt 1 view .LVU55
.LBB1964:
.LBI1964:
	.loc 2 1107 7 view .LVU56
.LBB1965:
# /usr/include/c++/16/bits/stl_vector.h:1109: 	ptrdiff_t __dif = this->_M_impl._M_finish - this->_M_impl._M_start;
	.loc 2 1109 34 is_stmt 0 view .LVU57
	mov	rdx, QWORD PTR 8[rbp]	# _67, MEM[(const struct vector *)subapertures_218(D)].D.101674._M_impl.D.101021._M_finish
.LVL9:
	.loc 2 1109 34 view .LVU58
.LBE1965:
.LBE1964:
.LBB1969:
.LBI1969:
	.loc 7 70 5 is_stmt 1 view .LVU59
.LBB1970:
# /usr/include/c++/16/bits/vector.tcc:75:       if (this->capacity() < __n)
	.loc 7 75 7 is_stmt 0 discriminator 1 view .LVU60
	mov	rdi, rdx	# prephitmp_751, _67
.LBE1970:
.LBE1969:
.LBB1984:
.LBB1966:
# /usr/include/c++/16/bits/stl_vector.h:1109: 	ptrdiff_t __dif = this->_M_impl._M_finish - this->_M_impl._M_start;
	.loc 2 1109 34 view .LVU61
	mov	QWORD PTR 16[rsp], rdx	# %sfp, _67
.LBE1966:
.LBE1984:
.LBB1985:
.LBB1981:
# /usr/include/c++/16/bits/vector.tcc:75:       if (this->capacity() < __n)
	.loc 7 75 7 discriminator 1 view .LVU62
	sub	rdi, rcx	# prephitmp_751, SR.264
.LVL10:
	.loc 7 75 7 discriminator 1 view .LVU63
	mov	QWORD PTR 80[rsp], rdi	# %sfp, prephitmp_751
	je	.L151	#,
.LVL11:
.L4:
.LBB1971:
.LBB1972:
.LBB1973:
.LBB1974:
.LBB1975:
.LBB1976:
# /usr/include/c++/16/bits/new_allocator.h:162: 	  return static_cast<_Tp*>(_GLIBCXX_OPERATOR_NEW(__n * sizeof(_Tp)));
	.loc 6 162 68 view .LVU64
	mov	r14, QWORD PTR 80[rsp]	# prephitmp_751, %sfp
	mov	QWORD PTR 8[rsp], rcx	# %sfp, SR.264
.LVL12:
	.loc 6 162 68 view .LVU65
.LBE1976:
.LBE1975:
.LBE1974:
.LBE1973:
.LBI1972:
	.loc 2 386 7 is_stmt 1 view .LVU66
.LBB1980:
.LBB1979:
.LBI1974:
	.file 8 "/usr/include/c++/16/bits/alloc_traits.h"
	.loc 8 637 7 view .LVU67
.LBB1978:
.LBI1975:
	.loc 6 129 7 view .LVU68
	.loc 6 129 7 is_stmt 0 view .LVU69
	vmovss	DWORD PTR 88[rsp], xmm4	# %sfp, focus
.LBB1977:
# /usr/include/c++/16/bits/new_allocator.h:162: 	  return static_cast<_Tp*>(_GLIBCXX_OPERATOR_NEW(__n * sizeof(_Tp)));
	.loc 6 162 68 view .LVU70
	mov	rdi, r14	#, prephitmp_751
.LEHB0:
	call	"_Znwm"@PLT	#
.LVL13:
.LEHE0:
	mov	rbp, rax	# __new_finish, __new_finish
.LVL14:
	.loc 6 162 68 view .LVU71
.LBE1977:
.LBE1978:
.LBE1979:
.LBE1980:
.LBE1972:
# /usr/include/c++/16/bits/vector.tcc:101: 	  this->_M_impl._M_end_of_storage = this->_M_impl._M_start + __n;
	.loc 7 101 61 view .LVU72
	lea	rax, [rax+r14]	# params$_M_end_of_storage,
.LVL15:
	.loc 7 101 61 view .LVU73
	mov	rcx, QWORD PTR 8[rsp]	# SR.264, %sfp
	vmovss	xmm4, DWORD PTR 88[rsp]	# focus, %sfp
	mov	QWORD PTR 32[rsp], rax	# %sfp, params$_M_end_of_storage
.LVL16:
.L8:
	.loc 7 101 61 view .LVU74
.LBE1971:
.LBE1981:
.LBE1985:
# src/avx_analysis_code_ablations/opt7_5_abl_compiler_vec.cpp:27:     const int w = static_cast<int>(width);
	.loc 1 27 15 view .LVU75
	mov	r15d, DWORD PTR 40[rsp]	# _181, %sfp
# src/avx_analysis_code_ablations/opt7_5_abl_compiler_vec.cpp:28:     const int h = static_cast<int>(height);
	.loc 1 28 15 view .LVU76
	mov	r12d, DWORD PTR 64[rsp]	# _943, %sfp
.LVL17:
	.loc 1 38 5 is_stmt 1 view .LVU77
.LBB1986:
.LBB1987:
.LBI1987:
	.loc 2 988 7 view .LVU78
.LBB1988:
.LBI1988:
	.loc 3 1058 7 view .LVU79
	.loc 3 1058 7 is_stmt 0 view .LVU80
.LBE1988:
.LBE1987:
.LBB1990:
.LBI1990:
	.loc 2 1008 7 is_stmt 1 view .LVU81
.LBB1991:
.LBI1991:
	.loc 3 1058 7 view .LVU82
	.loc 3 1058 7 is_stmt 0 view .LVU83
.LBE1991:
.LBE1990:
	.loc 1 38 34 is_stmt 1 discriminator 5 view .LVU84
# src/avx_analysis_code_ablations/opt7_5_abl_compiler_vec.cpp:38:     for (SubApertureImage& sub : subapertures) {
	.loc 1 38 34 is_stmt 0 discriminator 6 view .LVU85
	cmp	QWORD PTR 16[rsp], rcx	# %sfp, SR.264
	je	.L76	#,
.LVL18:
.L5:
	.loc 1 38 34 discriminator 6 view .LVU86
.LBE1986:
.LBB2130:
.LBB1958:
.LBB1952:
.LBB1945:
.LBB1940:
# /usr/include/c++/16/bits/stl_vector.h:106: 	: _M_start(), _M_finish(), _M_end_of_storage()
	.loc 2 106 29 view .LVU87
	mov	QWORD PTR 8[rsp], rbp	# %sfp, __new_finish
.LBE1940:
.LBE1945:
.LBE1952:
.LBE1958:
.LBE2130:
.LBB2131:
.LBB1993:
# src/avx_analysis_code_ablations/opt7_5_abl_compiler_vec.cpp:54:         p.x_begin = std::max(0, -p.sx);
	.loc 1 54 33 view .LVU88
	xor	r11d, r11d	# tmp578
	.p2align 4,,10
	.p2align 3
.L17:
.LVL19:
	.loc 1 39 9 is_stmt 1 view .LVU89
# src/avx_analysis_code_ablations/opt7_5_abl_compiler_vec.cpp:39:         const float shift_x = focus * sub.u;
	.loc 1 39 21 is_stmt 0 view .LVU90
	vmulss	xmm3, xmm4, DWORD PTR 40[rcx]	# shift_x, focus, MEM[(float *)SR.264_572 + 40B]
.LVL20:
	.loc 1 40 9 is_stmt 1 view .LVU91
# src/avx_analysis_code_ablations/opt7_5_abl_compiler_vec.cpp:55:         p.x_end   = std::min(w, w - p.sx - 1);
	.loc 1 55 35 is_stmt 0 view .LVU92
	mov	r13d, r15d	# _19, _181
# src/avx_analysis_code_ablations/opt7_5_abl_compiler_vec.cpp:57:         p.y_end   = std::min(h, h - p.sy - 1);
	.loc 1 57 35 view .LVU93
	mov	r14d, r12d	# _23, _943
# src/avx_analysis_code_ablations/opt7_5_abl_compiler_vec.cpp:40:         const float shift_y = focus * sub.v;
	.loc 1 40 21 view .LVU94
	vmulss	xmm2, xmm4, DWORD PTR 44[rcx]	# shift_y, focus, MEM[(float *)SR.264_572 + 44B]
.LVL21:
	.loc 1 42 9 is_stmt 1 view .LVU95
	.loc 1 43 9 view .LVU96
.LBB1994:
.LBI1994:
	.file 9 "/usr/include/c++/16/cmath"
	.loc 9 264 3 view .LVU97
.LBB1995:
	.loc 9 265 5 view .LVU98
# /usr/include/c++/16/cmath:265:   { return __builtin_floorf(__x); }
	.loc 9 265 28 is_stmt 0 view .LVU99
	vrndscaless	xmm0, xmm3, xmm3, 9	# _335, shift_x,
.LVL22:
	.loc 9 265 28 view .LVU100
.LBE1995:
.LBE1994:
# src/avx_analysis_code_ablations/opt7_5_abl_compiler_vec.cpp:43:         p.sx = static_cast<int>(std::floor(shift_x));
	.loc 1 43 16 discriminator 1 view .LVU101
	vcvttss2si	r9d, xmm0	# _8, _335
.LVL23:
	.loc 1 44 9 is_stmt 1 view .LVU102
.LBB1996:
.LBI1996:
	.loc 9 264 3 view .LVU103
.LBB1997:
	.loc 9 265 5 view .LVU104
# /usr/include/c++/16/cmath:265:   { return __builtin_floorf(__x); }
	.loc 9 265 28 is_stmt 0 view .LVU105
	vrndscaless	xmm1, xmm2, xmm2, 9	# _334, shift_y,
.LVL24:
	.loc 9 265 28 view .LVU106
.LBE1997:
.LBE1996:
# src/avx_analysis_code_ablations/opt7_5_abl_compiler_vec.cpp:44:         p.sy = static_cast<int>(std::floor(shift_y));
	.loc 1 44 16 discriminator 1 view .LVU107
	vcvttss2si	r8d, xmm1	# _9, _334
.LVL25:
	.loc 1 46 9 is_stmt 1 view .LVU108
	.loc 1 47 9 view .LVU109
	.loc 1 49 9 view .LVU110
	.loc 1 50 9 view .LVU111
	.loc 1 51 9 view .LVU112
	.loc 1 52 9 view .LVU113
	.loc 1 54 9 view .LVU114
.LBB1998:
.LBI1998:
	.file 10 "/usr/include/c++/16/bits/stl_algobase.h"
	.loc 10 256 5 view .LVU115
.LBE1998:
# src/avx_analysis_code_ablations/opt7_5_abl_compiler_vec.cpp:54:         p.x_begin = std::max(0, -p.sx);
	.loc 1 54 33 is_stmt 0 view .LVU116
	mov	esi, r9d	# tmp577, _8
	neg	esi	# tmp577
	test	r9d, r9d	# _8
# src/avx_analysis_code_ablations/opt7_5_abl_compiler_vec.cpp:56:         p.y_begin = std::max(0, -p.sy);
	.loc 1 56 33 view .LVU117
	mov	r10d, r8d	# tmp579, _9
# src/avx_analysis_code_ablations/opt7_5_abl_compiler_vec.cpp:54:         p.x_begin = std::max(0, -p.sx);
	.loc 1 54 33 view .LVU118
	cmovns	esi, r11d	# tmp577,, _16, tmp578
.LVL26:
	.loc 1 55 9 is_stmt 1 view .LVU119
.LBB1999:
.LBI1999:
	.loc 10 232 5 view .LVU120
.LBE1999:
# src/avx_analysis_code_ablations/opt7_5_abl_compiler_vec.cpp:55:         p.x_end   = std::min(w, w - p.sx - 1);
	.loc 1 55 35 is_stmt 0 view .LVU121
	sub	r13d, r9d	# _19, _8
# src/avx_analysis_code_ablations/opt7_5_abl_compiler_vec.cpp:55:         p.x_end   = std::min(w, w - p.sx - 1);
	.loc 1 55 42 view .LVU122
	dec	r13d	# _20
.LBB2001:
.LBB2000:
# /usr/include/c++/16/bits/stl_algobase.h:237:       if (__b < __a)
	.loc 10 237 7 view .LVU123
	cmp	r13d, r15d	# _20, _181
	cmovg	r13d, r15d	# _20,, _332, _181
.LVL27:
	.loc 10 237 7 view .LVU124
.LBE2000:
.LBE2001:
	.loc 1 56 9 is_stmt 1 view .LVU125
.LBB2002:
.LBI2002:
	.loc 10 256 5 view .LVU126
.LBE2002:
# src/avx_analysis_code_ablations/opt7_5_abl_compiler_vec.cpp:56:         p.y_begin = std::max(0, -p.sy);
	.loc 1 56 33 is_stmt 0 view .LVU127
	neg	r10d	# tmp579
	test	r8d, r8d	# _9
	cmovns	r10d, r11d	# tmp579,, _21, tmp578
	.loc 1 57 9 is_stmt 1 view .LVU128
.LVL28:
.LBB2003:
.LBI2003:
	.loc 10 232 5 view .LVU129
.LBE2003:
# src/avx_analysis_code_ablations/opt7_5_abl_compiler_vec.cpp:57:         p.y_end   = std::min(h, h - p.sy - 1);
	.loc 1 57 35 is_stmt 0 view .LVU130
	sub	r14d, r8d	# _23, _9
# src/avx_analysis_code_ablations/opt7_5_abl_compiler_vec.cpp:57:         p.y_end   = std::min(h, h - p.sy - 1);
	.loc 1 57 42 view .LVU131
	dec	r14d	# _24
.LBB2005:
.LBB2004:
# /usr/include/c++/16/bits/stl_algobase.h:237:       if (__b < __a)
	.loc 10 237 7 view .LVU132
	cmp	r14d, r12d	# _24, _943
	cmovg	r14d, r12d	# _24,, _333, _943
.LVL29:
	.loc 10 237 7 view .LVU133
.LBE2004:
.LBE2005:
	.loc 1 58 9 is_stmt 1 view .LVU134
.LBB2006:
.LBI2006:
	.loc 2 1385 7 view .LVU135
	.loc 2 1385 7 is_stmt 0 view .LVU136
.LBE2006:
	.loc 1 60 9 is_stmt 1 view .LVU137
# src/avx_analysis_code_ablations/opt7_5_abl_compiler_vec.cpp:60:         if (p.x_begin >= p.x_end || p.y_begin >= p.y_end) continue;
	.loc 1 60 34 is_stmt 0 discriminator 1 view .LVU138
	cmp	esi, r13d	# _16, _332
	jge	.L12	#,
	.loc 1 60 34 discriminator 1 view .LVU139
	cmp	r10d, r14d	# _21, _333
	jge	.L12	#,
# src/avx_analysis_code_ablations/opt7_5_abl_compiler_vec.cpp:47:         const float dy = shift_y - p.sy;
	.loc 1 47 21 view .LVU140
	vsubss	xmm6, xmm2, xmm1	# dy, shift_y, _334
.LVL30:
# src/avx_analysis_code_ablations/opt7_5_abl_compiler_vec.cpp:46:         const float dx = shift_x - p.sx;
	.loc 1 46 21 view .LVU141
	vsubss	xmm5, xmm3, xmm0	# dx, shift_x, _335
.LVL31:
.LBB2009:
.LBB2007:
# /usr/include/c++/16/bits/stl_vector.h:1386:       { return _M_data_ptr(this->_M_impl._M_start); }
	.loc 2 1386 42 view .LVU142
	mov	rax, QWORD PTR 16[rcx]	# _228, MEM[(unsigned char * *)SR.264_572 + 16B]
.LBE2007:
.LBE2009:
# src/avx_analysis_code_ablations/opt7_5_abl_compiler_vec.cpp:49:         p.A = (1.0f - dx) * (1.0f - dy);
	.loc 1 49 21 view .LVU143
	vaddss	xmm0, xmm0, DWORD PTR .LC1[rip]	# _630, _335,
.LVL32:
# src/avx_analysis_code_ablations/opt7_5_abl_compiler_vec.cpp:49:         p.A = (1.0f - dx) * (1.0f - dy);
	.loc 1 49 35 view .LVU144
	vaddss	xmm1, xmm1, DWORD PTR .LC1[rip]	# _640, _334,
.LVL33:
.LBB2010:
.LBB2008:
# /usr/include/c++/16/bits/stl_vector.h:1386:       { return _M_data_ptr(this->_M_impl._M_start); }
	.loc 2 1386 42 view .LVU145
	mov	QWORD PTR 80[rsp], rax	# %sfp, _228
.LBE2008:
.LBE2010:
# src/avx_analysis_code_ablations/opt7_5_abl_compiler_vec.cpp:49:         p.A = (1.0f - dx) * (1.0f - dy);
	.loc 1 49 21 view .LVU146
	vsubss	xmm0, xmm0, xmm3	# _10, _630, shift_x
.LVL34:
# src/avx_analysis_code_ablations/opt7_5_abl_compiler_vec.cpp:49:         p.A = (1.0f - dx) * (1.0f - dy);
	.loc 1 49 35 view .LVU147
	vsubss	xmm1, xmm1, xmm2	# _11, _640, shift_y
.LVL35:
# src/avx_analysis_code_ablations/opt7_5_abl_compiler_vec.cpp:49:         p.A = (1.0f - dx) * (1.0f - dy);
	.loc 1 49 27 view .LVU148
	vmulss	xmm2, xmm0, xmm1	# _12, _10, _11
.LVL36:
# src/avx_analysis_code_ablations/opt7_5_abl_compiler_vec.cpp:50:         p.B = dx           * (1.0f - dy);
	.loc 1 50 28 view .LVU149
	vmulss	xmm1, xmm1, xmm5	# _13, _11, dx
# src/avx_analysis_code_ablations/opt7_5_abl_compiler_vec.cpp:51:         p.C = (1.0f - dx) * dy;
	.loc 1 51 27 view .LVU150
	vmulss	xmm0, xmm0, xmm6	# _14, _10, dy
# src/avx_analysis_code_ablations/opt7_5_abl_compiler_vec.cpp:52:         p.D = dx           * dy;
	.loc 1 52 28 view .LVU151
	vmulss	xmm5, xmm5, xmm6	# _15, dx, dy
.LVL37:
	.loc 1 61 9 is_stmt 1 view .LVU152
.LBB2011:
.LBI2011:
	.loc 2 1406 7 view .LVU153
.LBB2012:
# /usr/include/c++/16/bits/stl_vector.h:1408: 	if (this->_M_impl._M_finish != this->_M_impl._M_end_of_storage)
	.loc 2 1408 2 is_stmt 0 view .LVU154
	cmp	QWORD PTR 32[rsp], rbp	# %sfp, __new_finish
	je	.L13	#,
.LVL38:
.LBB2013:
.LBI2013:
	.loc 8 705 2 is_stmt 1 view .LVU155
.LBB2014:
.LBI2014:
	.loc 6 201 2 view .LVU156
.LBB2015:
# /usr/include/c++/16/bits/new_allocator.h:203: 	{ ::new((void *)__p) _Up(std::forward<_Args>(__args)...); }
	.loc 6 203 4 is_stmt 0 discriminator 1 view .LVU157
	vunpcklps	xmm0, xmm0, xmm5	# tmp386, _14, _15
	vunpcklps	xmm2, xmm2, xmm1	# tmp387, _12, _13
	mov	DWORD PTR 0[rbp], r9d	# params$_M_finish_212->sx, _8
.LBE2015:
.LBE2014:
.LBE2013:
# /usr/include/c++/16/bits/stl_vector.h:1413: 	    ++this->_M_impl._M_finish;
	.loc 2 1413 6 view .LVU158
	add	rbp, 48	# __new_finish,
.LBB2018:
.LBB2017:
.LBB2016:
# /usr/include/c++/16/bits/new_allocator.h:203: 	{ ::new((void *)__p) _Up(std::forward<_Args>(__args)...); }
	.loc 6 203 4 discriminator 1 view .LVU159
	mov	DWORD PTR -44[rbp], r8d	# params$_M_finish_212->sy, _9
	vmovlhps	xmm2, xmm2, xmm0	# _550, tmp387, tmp386
	mov	DWORD PTR -24[rbp], esi	# params$_M_finish_212->x_begin, _16
	mov	DWORD PTR -20[rbp], r13d	# params$_M_finish_212->x_end, _332
	mov	DWORD PTR -16[rbp], r10d	# params$_M_finish_212->y_begin, _21
	mov	DWORD PTR -12[rbp], r14d	# params$_M_finish_212->y_end, _333
	mov	QWORD PTR -8[rbp], rax	# MEM <const unsigned char *> [(struct SubParams *)params$_M_finish_212 + 40B], _228
.LVL39:
	.loc 6 203 4 discriminator 1 view .LVU160
	vmovups	XMMWORD PTR -40[rbp], xmm2	# MEM <vector(4) float> [(float *)params$_M_finish_212 + 8B], _550
.LVL40:
.L12:
	.loc 6 203 4 discriminator 1 view .LVU161
.LBE2016:
.LBE2017:
.LBE2018:
.LBE2012:
.LBE2011:
.LBE1993:
	.loc 1 38 5 is_stmt 1 discriminator 4 view .LVU162
.LBB2124:
.LBI2124:
	.loc 3 1101 7 view .LVU163
.LBB2125:
# /usr/include/c++/16/bits/stl_iterator.h:1103: 	++_M_current;
	.loc 3 1103 2 is_stmt 0 view .LVU164
	add	rcx, 48	# SR.264,
.LVL41:
	.loc 3 1103 2 view .LVU165
.LBE2125:
.LBE2124:
	.loc 1 38 34 is_stmt 1 discriminator 5 view .LVU166
# src/avx_analysis_code_ablations/opt7_5_abl_compiler_vec.cpp:38:     for (SubApertureImage& sub : subapertures) {
	.loc 1 38 34 is_stmt 0 discriminator 6 view .LVU167
	cmp	rcx, QWORD PTR 16[rsp]	# SR.264, %sfp
	jne	.L17	#,
.LBE2131:
.LBB2132:
.LBB2133:
.LBB2134:
# /usr/include/c++/16/bits/stl_vector.h:375: 	ptrdiff_t __n = _M_impl._M_end_of_storage - _M_impl._M_start;
	.loc 2 375 44 view .LVU168
	mov	rax, QWORD PTR 32[rsp]	# prephitmp_751, %sfp
	sub	rax, QWORD PTR 8[rsp]	# prephitmp_751, %sfp
	mov	QWORD PTR 80[rsp], rax	# %sfp, prephitmp_751
.LVL42:
.L9:
	.loc 2 375 44 view .LVU169
.LBE2134:
.LBE2133:
.LBE2132:
	.loc 1 64 5 is_stmt 1 view .LVU170
.LBB2149:
.LBI2149:
	.loc 5 168 7 view .LVU171
.LBB2150:
.LBI2150:
	.loc 6 88 7 view .LVU172
	.loc 6 88 7 is_stmt 0 view .LVU173
.LBE2150:
.LBE2149:
.LBB2151:
.LBI2151:
	.loc 2 589 7 is_stmt 1 view .LVU174
.LBB2152:
.LBI2152:
	.loc 2 2203 7 view .LVU175
.LBB2153:
.LBB2154:
.LBI2154:
	.loc 5 172 7 view .LVU176
.LBB2155:
.LBI2155:
	.loc 6 92 7 view .LVU177
	.loc 6 92 7 is_stmt 0 view .LVU178
.LBE2155:
.LBE2154:
.LBB2156:
.LBI2156:
	.loc 5 189 7 is_stmt 1 view .LVU179
.LBB2157:
.LBI2157:
	.loc 6 104 7 view .LVU180
.LBE2157:
.LBE2156:
# /usr/include/c++/16/bits/stl_vector.h:2205: 	if (__n > _S_max_size(_Tp_alloc_type(__a)))
	.loc 2 2205 2 is_stmt 0 discriminator 3 view .LVU181
	mov	rax, QWORD PTR 48[rsp]	# tmp637, %sfp
	shr	rax, 61	# tmp637,
	jne	.L143	#,
.LVL43:
	.loc 2 2205 2 discriminator 3 view .LVU182
.LBE2153:
.LBE2152:
.LBB2159:
.LBI2159:
	.loc 2 339 7 is_stmt 1 view .LVU183
.LBB2160:
.LBI2160:
	.loc 2 152 2 view .LVU184
.LBB2161:
.LBI2161:
	.loc 5 172 7 view .LVU185
.LBB2162:
.LBI2162:
	.loc 6 92 7 view .LVU186
	.loc 6 92 7 is_stmt 0 view .LVU187
.LBE2162:
.LBE2161:
.LBB2163:
.LBI2163:
	.loc 2 105 2 is_stmt 1 view .LVU188
	.loc 2 105 2 is_stmt 0 view .LVU189
.LBE2163:
.LBE2160:
.LBB2164:
.LBI2164:
	.loc 2 405 7 is_stmt 1 view .LVU190
.LBB2165:
.LBB2166:
.LBI2166:
	.loc 2 386 7 view .LVU191
.LBB2167:
# /usr/include/c++/16/bits/stl_vector.h:389: 	return __n != 0 ? _Tr::allocate(_M_impl, __n) : pointer();
	.loc 2 389 18 is_stmt 0 view .LVU192
	mov	rax, QWORD PTR 48[rsp]	# _847, %sfp
	test	rax, rax	# _847
	je	.L79	#,
.LVL44:
.LBB2168:
.LBI2168:
	.loc 8 637 7 is_stmt 1 view .LVU193
.LBB2169:
.LBI2169:
	.loc 6 129 7 view .LVU194
.LBB2170:
# /usr/include/c++/16/bits/new_allocator.h:162: 	  return static_cast<_Tp*>(_GLIBCXX_OPERATOR_NEW(__n * sizeof(_Tp)));
	.loc 6 162 68 is_stmt 0 view .LVU195
	lea	r14, 0[0+rax*4]	# _443,
	mov	rdi, r14	#, _443
	mov	QWORD PTR 88[rsp], r14	# %sfp, _443
.LEHB1:
	call	"_Znwm"@PLT	#
.LVL45:
.LEHE1:
.LBE2170:
.LBE2169:
.LBE2168:
.LBE2167:
.LBE2166:
.LBE2165:
.LBE2164:
.LBE2159:
.LBB2182:
.LBB2183:
.LBB2184:
.LBB2185:
.LBB2186:
.LBB2187:
.LBB2188:
.LBB2189:
# /usr/include/c++/16/bits/stl_construct.h:133:       ::new(static_cast<void*>(__p)) _Tp(std::forward<_Args>(__args)...);
	.file 11 "/usr/include/c++/16/bits/stl_construct.h"
	.loc 11 133 7 discriminator 1 view .LVU196
	mov	rdx, r14	#, _443
	xor	esi, esi	#
	mov	rdi, rax	#, _437
.LBE2189:
.LBE2188:
.LBE2187:
.LBE2186:
.LBE2185:
.LBE2184:
.LBE2183:
.LBE2182:
.LBB2199:
.LBB2180:
.LBB2178:
.LBB2176:
.LBB2174:
.LBB2173:
.LBB2172:
.LBB2171:
# /usr/include/c++/16/bits/new_allocator.h:162: 	  return static_cast<_Tp*>(_GLIBCXX_OPERATOR_NEW(__n * sizeof(_Tp)));
	.loc 6 162 68 view .LVU197
	mov	r13, rax	# _437, _437
.LVL46:
	.loc 6 162 68 view .LVU198
.LBE2171:
.LBE2172:
.LBE2173:
.LBE2174:
.LBE2176:
.LBE2178:
.LBE2180:
.LBE2199:
.LBB2200:
.LBI2182:
	.loc 2 1987 7 is_stmt 1 view .LVU199
.LBB2198:
.LBI2183:
	.file 12 "/usr/include/c++/16/bits/stl_uninitialized.h"
	.loc 12 771 5 view .LVU200
.LBB2197:
.LBI2184:
	.loc 12 550 5 view .LVU201
.LBB2196:
.LBB2195:
.LBI2186:
	.loc 12 477 5 view .LVU202
.LBB2194:
.LBB2191:
.LBI2191:
	.loc 12 113 7 view .LVU203
	.loc 12 113 7 is_stmt 0 view .LVU204
.LBE2191:
	.loc 12 485 2 is_stmt 1 discriminator 2 view .LVU205
	.loc 12 491 7 discriminator 2 view .LVU206
.LBB2192:
.LBB2190:
# /usr/include/c++/16/bits/stl_construct.h:133:       ::new(static_cast<void*>(__p)) _Tp(std::forward<_Args>(__args)...);
	.loc 11 133 7 is_stmt 0 discriminator 1 view .LVU207
	call	"memset"@PLT	#
.LVL47:
.L18:
	.loc 11 133 7 discriminator 1 view .LVU208
.LBE2190:
.LBE2192:
.LBB2193:
.LBI2193:
	.loc 12 118 7 is_stmt 1 view .LVU209
	.loc 12 118 7 is_stmt 0 view .LVU210
.LBE2193:
.LBE2194:
.LBE2195:
.LBE2196:
.LBE2197:
.LBE2198:
.LBE2200:
.LBE2151:
.LBB2203:
.LBI2203:
	.loc 5 189 7 is_stmt 1 view .LVU211
.LBB2204:
.LBI2204:
	.loc 6 104 7 view .LVU212
	.loc 6 104 7 is_stmt 0 view .LVU213
.LBE2204:
.LBE2203:
	.loc 1 65 5 is_stmt 1 view .LVU214
.LBB2205:
	.loc 1 66 9 view .LVU215
.LBB2206:
.LBI2206:
	.loc 5 168 7 view .LVU216
.LBB2207:
.LBI2207:
	.loc 6 88 7 view .LVU217
	.loc 6 88 7 is_stmt 0 view .LVU218
.LBE2207:
.LBE2206:
# src/avx_analysis_code_ablations/opt7_5_abl_compiler_vec.cpp:66:         std::vector<int> diff((width + 1) * (height + 1), 0);
	.loc 1 66 38 discriminator 1 view .LVU219
	mov	rax, QWORD PTR 40[rsp]	# _325, %sfp
	lea	r14, 1[rax]	# _26,
# src/avx_analysis_code_ablations/opt7_5_abl_compiler_vec.cpp:66:         std::vector<int> diff((width + 1) * (height + 1), 0);
	.loc 1 66 53 discriminator 1 view .LVU220
	mov	rax, QWORD PTR 64[rsp]	# _434, %sfp
	inc	rax	# _434
# src/avx_analysis_code_ablations/opt7_5_abl_compiler_vec.cpp:66:         std::vector<int> diff((width + 1) * (height + 1), 0);
	.loc 1 66 60 discriminator 1 view .LVU221
	imul	rax, r14	# _27, _26
	mov	r10, rax	# _320, _27
.LVL48:
.LBB2208:
.LBI2208:
	.loc 2 589 7 is_stmt 1 view .LVU222
.LBB2209:
.LBI2209:
	.loc 2 2203 7 view .LVU223
.LBB2210:
.LBB2211:
.LBI2211:
	.loc 5 172 7 view .LVU224
.LBB2212:
.LBI2212:
	.loc 6 92 7 view .LVU225
	.loc 6 92 7 is_stmt 0 view .LVU226
.LBE2212:
.LBE2211:
.LBB2213:
.LBI2213:
	.loc 5 189 7 is_stmt 1 view .LVU227
.LBB2214:
.LBI2214:
	.loc 6 104 7 view .LVU228
.LBE2214:
.LBE2213:
# /usr/include/c++/16/bits/stl_vector.h:2205: 	if (__n > _S_max_size(_Tp_alloc_type(__a)))
	.loc 2 2205 2 is_stmt 0 discriminator 3 view .LVU229
	movabs	rax, 2305843009213693951	# tmp418,
.LVL49:
	.loc 2 2205 2 discriminator 3 view .LVU230
	cmp	rax, r10	# tmp418, _320
	jb	.L144	#,
.LVL50:
	.loc 2 2205 2 discriminator 3 view .LVU231
.LBE2210:
.LBE2209:
.LBB2216:
.LBI2216:
	.loc 2 339 7 is_stmt 1 view .LVU232
.LBB2217:
.LBI2217:
	.loc 2 152 2 view .LVU233
.LBB2218:
.LBI2218:
	.loc 5 172 7 view .LVU234
.LBB2219:
.LBI2219:
	.loc 6 92 7 view .LVU235
	.loc 6 92 7 is_stmt 0 view .LVU236
.LBE2219:
.LBE2218:
.LBB2220:
.LBI2220:
	.loc 2 105 2 is_stmt 1 view .LVU237
	.loc 2 105 2 is_stmt 0 view .LVU238
.LBE2220:
.LBE2217:
.LBB2221:
.LBI2221:
	.loc 2 405 7 is_stmt 1 view .LVU239
.LBB2222:
.LBB2223:
.LBI2223:
	.loc 2 386 7 view .LVU240
	vxorps	xmm0, xmm0, xmm0	# tmp611
.LBB2224:
# /usr/include/c++/16/bits/stl_vector.h:389: 	return __n != 0 ? _Tr::allocate(_M_impl, __n) : pointer();
	.loc 2 389 18 is_stmt 0 view .LVU241
	test	r10, r10	# _320
	je	.L152	#,
.LBB2225:
.LBB2226:
.LBB2227:
# /usr/include/c++/16/bits/new_allocator.h:162: 	  return static_cast<_Tp*>(_GLIBCXX_OPERATOR_NEW(__n * sizeof(_Tp)));
	.loc 6 162 68 view .LVU242
	sal	r10, 2	# _320,
.LVL51:
	.loc 6 162 68 view .LVU243
	vmovaps	XMMWORD PTR 64[rsp], xmm0	# %sfp, tmp611
.LVL52:
	.loc 6 162 68 view .LVU244
.LBE2227:
.LBE2226:
.LBI2225:
	.loc 8 637 7 is_stmt 1 view .LVU245
.LBB2230:
.LBI2226:
	.loc 6 129 7 view .LVU246
.LBB2228:
# /usr/include/c++/16/bits/new_allocator.h:162: 	  return static_cast<_Tp*>(_GLIBCXX_OPERATOR_NEW(__n * sizeof(_Tp)));
	.loc 6 162 68 is_stmt 0 view .LVU247
	mov	rdi, r10	#, _320
	mov	QWORD PTR 16[rsp], r10	# %sfp, _320
.LEHB2:
	call	"_Znwm"@PLT	#
.LVL53:
.LBE2228:
.LBE2230:
.LBE2225:
.LBE2224:
.LBE2223:
.LBE2222:
.LBE2221:
.LBE2216:
.LBB2241:
.LBB2242:
.LBB2243:
.LBB2244:
.LBB2245:
.LBB2246:
.LBB2247:
.LBB2248:
# /usr/include/c++/16/bits/stl_construct.h:133:       ::new(static_cast<void*>(__p)) _Tp(std::forward<_Args>(__args)...);
	.loc 11 133 7 discriminator 1 view .LVU248
	mov	rdx, QWORD PTR 16[rsp]	#, %sfp
.LBE2248:
.LBE2247:
.LBE2246:
.LBE2245:
.LBE2244:
.LBE2243:
.LBE2242:
.LBE2241:
.LBB2271:
.LBB2239:
.LBB2237:
.LBB2235:
.LBB2233:
.LBB2232:
.LBB2231:
.LBB2229:
# /usr/include/c++/16/bits/new_allocator.h:162: 	  return static_cast<_Tp*>(_GLIBCXX_OPERATOR_NEW(__n * sizeof(_Tp)));
	.loc 6 162 68 view .LVU249
	mov	rdi, rax	# _318, _318
.LVL54:
	.loc 6 162 68 view .LVU250
.LBE2229:
.LBE2231:
.LBE2232:
.LBE2233:
.LBE2235:
.LBE2237:
.LBE2239:
.LBE2271:
.LBB2272:
.LBI2241:
	.loc 2 1987 7 is_stmt 1 view .LVU251
.LBB2268:
.LBI2242:
	.loc 12 771 5 view .LVU252
.LBB2265:
.LBI2243:
	.loc 12 550 5 view .LVU253
.LBB2262:
.LBB2259:
.LBI2245:
	.loc 12 477 5 view .LVU254
.LBB2256:
.LBB2251:
.LBI2251:
	.loc 12 113 7 view .LVU255
	.loc 12 113 7 is_stmt 0 view .LVU256
.LBE2251:
	.loc 12 485 2 is_stmt 1 discriminator 2 view .LVU257
	.loc 12 491 7 discriminator 2 view .LVU258
.LBB2252:
.LBB2249:
# /usr/include/c++/16/bits/stl_construct.h:133:       ::new(static_cast<void*>(__p)) _Tp(std::forward<_Args>(__args)...);
	.loc 11 133 7 is_stmt 0 discriminator 1 view .LVU259
	xor	esi, esi	#
	call	"memset"@PLT	#
.LVL55:
	.loc 11 133 7 discriminator 1 view .LVU260
.LBE2249:
.LBE2252:
.LBE2256:
.LBE2259:
.LBE2262:
.LBE2265:
.LBE2268:
.LBE2272:
.LBE2208:
.LBB2277:
# src/avx_analysis_code_ablations/opt7_5_abl_compiler_vec.cpp:67:         for (const SubParams& p : params) {
	.loc 1 67 35 discriminator 6 view .LVU261
	cmp	QWORD PTR 8[rsp], rbp	# %sfp, __new_finish
	mov	r10, QWORD PTR 16[rsp]	# _320, %sfp
	vmovaps	xmm0, XMMWORD PTR 64[rsp]	# tmp611, %sfp
.LBE2277:
.LBB2297:
.LBB2273:
.LBB2269:
.LBB2266:
.LBB2263:
.LBB2260:
.LBB2257:
.LBB2253:
.LBB2250:
# /usr/include/c++/16/bits/stl_construct.h:133:       ::new(static_cast<void*>(__p)) _Tp(std::forward<_Args>(__args)...);
	.loc 11 133 7 discriminator 1 view .LVU262
	mov	rdi, rax	# _318,
.LVL56:
	.loc 11 133 7 discriminator 1 view .LVU263
.LBE2250:
.LBE2253:
.LBB2254:
.LBI2254:
	.loc 12 118 7 is_stmt 1 view .LVU264
	.loc 12 118 7 is_stmt 0 view .LVU265
.LBE2254:
.LBE2257:
.LBE2260:
.LBE2263:
.LBE2266:
.LBE2269:
.LBE2273:
.LBE2297:
.LBB2298:
.LBI2298:
	.loc 5 189 7 is_stmt 1 view .LVU266
.LBB2299:
.LBI2299:
	.loc 6 104 7 view .LVU267
	.loc 6 104 7 is_stmt 0 view .LVU268
.LBE2299:
.LBE2298:
	.loc 1 67 9 is_stmt 1 view .LVU269
.LBB2301:
.LBB2278:
.LBI2278:
	.loc 2 988 7 view .LVU270
.LBB2279:
.LBI2279:
	.loc 3 1058 7 view .LVU271
	.loc 3 1058 7 is_stmt 0 view .LVU272
.LBE2279:
.LBE2278:
.LBB2281:
.LBI2281:
	.loc 2 1008 7 is_stmt 1 view .LVU273
.LBB2282:
.LBI2282:
	.loc 3 1058 7 view .LVU274
	.loc 3 1058 7 is_stmt 0 view .LVU275
.LBE2282:
.LBE2281:
	.loc 1 67 35 is_stmt 1 discriminator 5 view .LVU276
# src/avx_analysis_code_ablations/opt7_5_abl_compiler_vec.cpp:67:         for (const SubParams& p : params) {
	.loc 1 67 35 is_stmt 0 discriminator 6 view .LVU277
	je	.L31	#,
.L24:
# src/avx_analysis_code_ablations/opt7_5_abl_compiler_vec.cpp:67:         for (const SubParams& p : params) {
	.loc 1 67 35 view .LVU278
	mov	rax, QWORD PTR 8[rsp]	# SR.266, %sfp
.LVL57:
	.loc 1 67 35 view .LVU279
	.p2align 6
	.p2align 4,,10
	.p2align 3
.L32:
.LVL58:
	.loc 1 68 13 is_stmt 1 view .LVU280
# src/avx_analysis_code_ablations/opt7_5_abl_compiler_vec.cpp:68:             diff[p.y_begin * (width + 1) + p.x_begin] += 1;
	.loc 1 68 20 is_stmt 0 view .LVU281
	movsxd	rdx, DWORD PTR 32[rax]	# _30, MEM[(int *)SR.266_671 + 32B]
# src/avx_analysis_code_ablations/opt7_5_abl_compiler_vec.cpp:68:             diff[p.y_begin * (width + 1) + p.x_begin] += 1;
	.loc 1 68 46 view .LVU282
	movsxd	rsi, DWORD PTR 24[rax]	# _33, MEM[(int *)SR.266_671 + 24B]
.LBB2284:
.LBB2285:
# /usr/include/c++/16/bits/stl_iterator.h:1103: 	++_M_current;
	.loc 3 1103 2 view .LVU283
	add	rax, 48	# SR.266,
.LVL59:
	.loc 3 1103 2 view .LVU284
.LBE2285:
.LBE2284:
# src/avx_analysis_code_ablations/opt7_5_abl_compiler_vec.cpp:70:             diff[p.y_end   * (width + 1) + p.x_begin] -= 1;
	.loc 1 70 20 view .LVU285
	movsxd	r8, DWORD PTR -12[rax]	# _46, MEM[(int *)SR.266_671 + 36B]
# src/avx_analysis_code_ablations/opt7_5_abl_compiler_vec.cpp:68:             diff[p.y_begin * (width + 1) + p.x_begin] += 1;
	.loc 1 68 28 view .LVU286
	imul	rdx, r14	# _31, _26
.LVL60:
.LBB2286:
.LBI2286:
	.loc 2 1251 7 is_stmt 1 view .LVU287
.LBB2287:
	.loc 2 1253 2 discriminator 2 view .LVU288
	.loc 2 1253 2 is_stmt 0 discriminator 2 view .LVU289
.LBE2287:
.LBE2286:
# src/avx_analysis_code_ablations/opt7_5_abl_compiler_vec.cpp:70:             diff[p.y_end   * (width + 1) + p.x_begin] -= 1;
	.loc 1 70 28 view .LVU290
	imul	r8, r14	# _47, _26
# src/avx_analysis_code_ablations/opt7_5_abl_compiler_vec.cpp:68:             diff[p.y_begin * (width + 1) + p.x_begin] += 1;
	.loc 1 68 53 view .LVU291
	lea	rcx, [rdx+rsi]	# _34,
# src/avx_analysis_code_ablations/opt7_5_abl_compiler_vec.cpp:68:             diff[p.y_begin * (width + 1) + p.x_begin] += 1;
	.loc 1 68 55 discriminator 1 view .LVU292
	inc	DWORD PTR [rdi+rcx*4]	# *_346
	.loc 1 69 13 is_stmt 1 view .LVU293
# src/avx_analysis_code_ablations/opt7_5_abl_compiler_vec.cpp:69:             diff[p.y_begin * (width + 1) + p.x_end  ] -= 1;
	.loc 1 69 46 is_stmt 0 view .LVU294
	movsxd	rcx, DWORD PTR -20[rax]	# _41, MEM[(int *)SR.266_671 + 28B]
.LVL61:
.LBB2288:
.LBI2288:
	.loc 2 1251 7 is_stmt 1 view .LVU295
.LBB2289:
	.loc 2 1253 2 discriminator 2 view .LVU296
	.loc 2 1253 2 is_stmt 0 discriminator 2 view .LVU297
.LBE2289:
.LBE2288:
# src/avx_analysis_code_ablations/opt7_5_abl_compiler_vec.cpp:69:             diff[p.y_begin * (width + 1) + p.x_end  ] -= 1;
	.loc 1 69 53 view .LVU298
	add	rdx, rcx	# _42, _41
# src/avx_analysis_code_ablations/opt7_5_abl_compiler_vec.cpp:69:             diff[p.y_begin * (width + 1) + p.x_end  ] -= 1;
	.loc 1 69 55 discriminator 1 view .LVU299
	dec	DWORD PTR [rdi+rdx*4]	# *_343
	.loc 1 70 13 is_stmt 1 view .LVU300
.LVL62:
.LBB2290:
.LBI2290:
	.loc 2 1251 7 view .LVU301
.LBB2291:
	.loc 2 1253 2 discriminator 2 view .LVU302
	.loc 2 1253 2 is_stmt 0 discriminator 2 view .LVU303
.LBE2291:
.LBE2290:
# src/avx_analysis_code_ablations/opt7_5_abl_compiler_vec.cpp:70:             diff[p.y_end   * (width + 1) + p.x_begin] -= 1;
	.loc 1 70 53 view .LVU304
	lea	rdx, [rsi+r8]	# _50,
# src/avx_analysis_code_ablations/opt7_5_abl_compiler_vec.cpp:70:             diff[p.y_end   * (width + 1) + p.x_begin] -= 1;
	.loc 1 70 55 discriminator 1 view .LVU305
	dec	DWORD PTR [rdi+rdx*4]	# *_341
	.loc 1 71 13 is_stmt 1 view .LVU306
.LVL63:
.LBB2292:
.LBI2292:
	.loc 2 1251 7 view .LVU307
.LBB2293:
	.loc 2 1253 2 discriminator 2 view .LVU308
	.loc 2 1253 2 is_stmt 0 discriminator 2 view .LVU309
.LBE2293:
.LBE2292:
# src/avx_analysis_code_ablations/opt7_5_abl_compiler_vec.cpp:71:             diff[p.y_end   * (width + 1) + p.x_end  ] += 1;
	.loc 1 71 53 view .LVU310
	lea	rdx, [rcx+r8]	# _58,
# src/avx_analysis_code_ablations/opt7_5_abl_compiler_vec.cpp:71:             diff[p.y_end   * (width + 1) + p.x_end  ] += 1;
	.loc 1 71 55 discriminator 1 view .LVU311
	inc	DWORD PTR [rdi+rdx*4]	# *_339
	.loc 1 67 9 is_stmt 1 discriminator 4 view .LVU312
.LVL64:
.LBB2294:
.LBI2284:
	.loc 3 1101 7 view .LVU313
	.loc 3 1101 7 is_stmt 0 view .LVU314
.LBE2294:
	.loc 1 67 35 is_stmt 1 discriminator 5 view .LVU315
# src/avx_analysis_code_ablations/opt7_5_abl_compiler_vec.cpp:67:         for (const SubParams& p : params) {
	.loc 1 67 35 is_stmt 0 discriminator 6 view .LVU316
	cmp	rax, rbp	# SR.266, __new_finish
	jne	.L32	#,
.LVL65:
	.loc 1 67 35 discriminator 6 view .LVU317
.LBE2301:
.LBB2302:
	.loc 1 73 27 is_stmt 1 discriminator 2 view .LVU318
	test	r12d, r12d	# _943
	jle	.L38	#,
	test	r15d, r15d	# _181
	jle	.L38	#,
.LVL66:
.L29:
.LBB2303:
.LBB2304:
	.loc 1 75 31 discriminator 2 view .LVU319
	mov	rax, QWORD PTR 40[rsp]	# _325, %sfp
.LBE2304:
# src/avx_analysis_code_ablations/opt7_5_abl_compiler_vec.cpp:74:             int row = 0;
	.loc 1 74 17 is_stmt 0 view .LVU320
	xor	edx, edx	# row
	lea	ecx, -1[rax]	# _831,
.LBE2303:
.LBE2302:
.LBB2313:
# src/avx_analysis_code_ablations/opt7_5_abl_compiler_vec.cpp:67:         for (const SubParams& p : params) {
	.loc 1 67 35 view .LVU321
	xor	eax, eax	# ivtmp.386
	lea	r9, 1[rcx]	# _169,
.LVL67:
.L34:
	.loc 1 67 35 view .LVU322
.LBE2313:
.LBB2314:
.LBB2309:
.LBB2305:
	.loc 1 76 17 is_stmt 1 view .LVU323
# src/avx_analysis_code_ablations/opt7_5_abl_compiler_vec.cpp:76:                 row += diff[y * (width + 1) + x];
	.loc 1 76 21 is_stmt 0 discriminator 1 view .LVU324
	add	edx, DWORD PTR [rdi+rax*4]	# row, MEM[(value_type &)_977 + ivtmp.386_835 * 4]
.LVL68:
	.loc 1 77 17 is_stmt 1 view .LVU325
# src/avx_analysis_code_ablations/opt7_5_abl_compiler_vec.cpp:77:                 counts[y * w + x] = row + (y > 0 ? counts[(y - 1) * w + x] : 0);
	.loc 1 77 35 is_stmt 0 discriminator 5 view .LVU326
	mov	DWORD PTR 0[r13+rax*4], edx	# MEM[(value_type &)_442 + ivtmp.386_835 * 4], row
	.loc 1 75 13 is_stmt 1 discriminator 1 view .LVU327
.LVL69:
	.loc 1 75 31 discriminator 2 view .LVU328
	inc	rax	# ivtmp.386
.LVL70:
	.loc 1 75 31 is_stmt 0 discriminator 2 view .LVU329
	cmp	r9, rax	# _169, ivtmp.386
	jne	.L34	#,
.LBE2305:
.LBE2309:
	.loc 1 73 9 is_stmt 1 discriminator 1 view .LVU330
.LVL71:
	.loc 1 73 27 discriminator 2 view .LVU331
	cmp	r12d, 1	# _943,
	jle	.L35	#,
	lea	rax, 0[0+r14*4]	# _933,
# src/avx_analysis_code_ablations/opt7_5_abl_compiler_vec.cpp:73:         for (int y = 0; y < h; ++y) {
	.loc 1 73 18 is_stmt 0 view .LVU332
	mov	DWORD PTR 96[rsp], r15d	# %sfp, _181
.LBB2310:
.LBB2306:
# src/avx_analysis_code_ablations/opt7_5_abl_compiler_vec.cpp:75:             for (int x = 0; x < w; ++x) {
	.loc 1 75 31 discriminator 2 view .LVU333
	xor	r14d, r14d	# ivtmp.381
.LBE2306:
.LBE2310:
# src/avx_analysis_code_ablations/opt7_5_abl_compiler_vec.cpp:73:         for (int y = 0; y < h; ++y) {
	.loc 1 73 18 view .LVU334
	mov	r11d, 1	# y,
	mov	QWORD PTR 64[rsp], rax	# %sfp, _933
	lea	r8, [rdi+rax]	# ivtmp.380,
	mov	eax, r15d	# _857, _181
	sal	rax, 2	# _856,
	mov	QWORD PTR 16[rsp], rax	# %sfp, _856
	lea	rsi, 0[r13+rax]	# ivtmp.383,
.LVL72:
.L37:
.LBB2311:
.LBB2307:
	.loc 1 75 31 is_stmt 1 discriminator 2 view .LVU335
	movsxd	rax, r14d	# _954, ivtmp.381
.LBE2307:
# src/avx_analysis_code_ablations/opt7_5_abl_compiler_vec.cpp:74:             int row = 0;
	.loc 1 74 17 is_stmt 0 view .LVU336
	xor	edx, edx	# row
	add	r14d, DWORD PTR 40[rsp]	# ivtmp.381, %sfp
	lea	r15, 0[r13+rax*4]	# _956,
.LBE2311:
# src/avx_analysis_code_ablations/opt7_5_abl_compiler_vec.cpp:73:         for (int y = 0; y < h; ++y) {
	.loc 1 73 18 view .LVU337
	xor	eax, eax	# ivtmp.367
.LVL73:
	.loc 1 73 18 view .LVU338
	.p2align 5
	.p2align 4,,10
	.p2align 3
.L36:
.LVL74:
.LBB2312:
.LBB2308:
	.loc 1 76 17 is_stmt 1 view .LVU339
# src/avx_analysis_code_ablations/opt7_5_abl_compiler_vec.cpp:77:                 counts[y * w + x] = row + (y > 0 ? counts[(y - 1) * w + x] : 0);
	.loc 1 77 41 is_stmt 0 discriminator 4 view .LVU340
	mov	ecx, DWORD PTR [r15+rax*4]	# _986, MEM[(value_type &)_956 + ivtmp.367_864 * 4]
# src/avx_analysis_code_ablations/opt7_5_abl_compiler_vec.cpp:76:                 row += diff[y * (width + 1) + x];
	.loc 1 76 21 discriminator 1 view .LVU341
	add	edx, DWORD PTR [r8+rax*4]	# row, MEM[(value_type &)_61 + ivtmp.367_864 * 4]
.LVL75:
	.loc 1 77 17 is_stmt 1 view .LVU342
# src/avx_analysis_code_ablations/opt7_5_abl_compiler_vec.cpp:77:                 counts[y * w + x] = row + (y > 0 ? counts[(y - 1) * w + x] : 0);
	.loc 1 77 41 is_stmt 0 discriminator 4 view .LVU343
	add	ecx, edx	# _986, row
# src/avx_analysis_code_ablations/opt7_5_abl_compiler_vec.cpp:77:                 counts[y * w + x] = row + (y > 0 ? counts[(y - 1) * w + x] : 0);
	.loc 1 77 35 discriminator 5 view .LVU344
	mov	DWORD PTR [rsi+rax*4], ecx	# MEM[(value_type &)_958 + ivtmp.367_864 * 4], _986
	.loc 1 75 13 is_stmt 1 discriminator 1 view .LVU345
.LVL76:
	.loc 1 75 31 discriminator 2 view .LVU346
	inc	rax	# ivtmp.367
.LVL77:
	.loc 1 75 31 is_stmt 0 discriminator 2 view .LVU347
	cmp	r9, rax	# _169, ivtmp.367
	jne	.L36	#,
.LBE2308:
.LBE2312:
	.loc 1 73 9 is_stmt 1 discriminator 1 view .LVU348
	inc	r11d	# y
.LVL78:
	.loc 1 73 27 discriminator 2 view .LVU349
	add	r8, QWORD PTR 64[rsp]	# ivtmp.380, %sfp
	add	rsi, QWORD PTR 16[rsp]	# ivtmp.383, %sfp
	cmp	r12d, r11d	# _943, y
	jg	.L37	#,
	mov	r15d, DWORD PTR 96[rsp]	# _181, %sfp
.LVL79:
.L38:
	.loc 1 73 27 is_stmt 0 discriminator 2 view .LVU350
.LBE2314:
.LBB2315:
.LBI2315:
	.loc 2 790 7 is_stmt 1 view .LVU351
.LBB2316:
.LBI2316:
	.loc 2 307 7 view .LVU352
	.loc 2 307 7 is_stmt 0 view .LVU353
.LBE2316:
.LBB2317:
.LBI2317:
	.loc 8 1082 5 is_stmt 1 view .LVU354
	.loc 8 1082 5 is_stmt 0 view .LVU355
.LBE2317:
.LBB2318:
.LBI2318:
	.loc 2 373 7 is_stmt 1 view .LVU356
.LBB2319:
.LBB2320:
.LBI2320:
	.loc 2 394 7 view .LVU357
.LBB2321:
# /usr/include/c++/16/bits/stl_vector.h:397: 	if (__p)
	.loc 2 397 2 is_stmt 0 view .LVU358
	test	rdi, rdi	# _318
	je	.L39	#,
.LVL80:
.L35:
.LBB2322:
.LBB2323:
.LBB2324:
# /usr/include/c++/16/bits/new_allocator.h:183: 	_GLIBCXX_OPERATOR_DELETE(_GLIBCXX_SIZED_DEALLOC(__p, __n));
	.loc 6 183 59 view .LVU359
	mov	rsi, r10	#, _320
	vmovaps	XMMWORD PTR 16[rsp], xmm0	# %sfp, tmp611
.LVL81:
	.loc 6 183 59 view .LVU360
.LBE2324:
.LBE2323:
.LBI2322:
	.loc 8 688 7 is_stmt 1 view .LVU361
.LBB2326:
.LBI2323:
	.loc 6 167 7 view .LVU362
.LBB2325:
# /usr/include/c++/16/bits/new_allocator.h:183: 	_GLIBCXX_OPERATOR_DELETE(_GLIBCXX_SIZED_DEALLOC(__p, __n));
	.loc 6 183 59 is_stmt 0 view .LVU363
	call	"_ZdlPvm"@PLT	#
.LVL82:
	.loc 6 183 59 view .LVU364
	vmovaps	xmm0, XMMWORD PTR 16[rsp]	# tmp611, %sfp
.LVL83:
.L39:
	.loc 6 183 59 view .LVU365
.LBE2325:
.LBE2326:
.LBE2322:
.LBE2321:
.LBE2320:
.LBE2319:
.LBB2327:
.LBI2327:
	.loc 2 139 14 is_stmt 1 view .LVU366
.LBB2328:
.LBI2328:
	.loc 5 189 7 view .LVU367
.LBB2329:
.LBI2329:
	.loc 6 104 7 view .LVU368
	.loc 6 104 7 is_stmt 0 view .LVU369
.LBE2329:
.LBE2328:
.LBE2327:
.LBE2318:
.LBE2315:
.LBE2205:
	.loc 1 82 5 is_stmt 1 view .LVU370
.LBB2348:
.LBI2348:
	.loc 5 168 7 view .LVU371
.LBB2349:
.LBI2349:
	.loc 6 88 7 view .LVU372
	.loc 6 88 7 is_stmt 0 view .LVU373
.LBE2349:
.LBE2348:
.LBB2352:
.LBI2352:
	.loc 2 589 7 is_stmt 1 view .LVU374
.LBB2353:
.LBI2353:
	.loc 2 2203 7 view .LVU375
.LBB2354:
.LBB2355:
.LBI2355:
	.loc 5 172 7 view .LVU376
.LBB2356:
.LBI2356:
	.loc 6 92 7 view .LVU377
	.loc 6 92 7 is_stmt 0 view .LVU378
.LBE2356:
.LBE2355:
.LBB2359:
.LBI2359:
	.loc 5 189 7 is_stmt 1 view .LVU379
.LBB2360:
.LBI2360:
	.loc 6 104 7 view .LVU380
.LBE2360:
.LBE2359:
# /usr/include/c++/16/bits/stl_vector.h:2205: 	if (__n > _S_max_size(_Tp_alloc_type(__a)))
	.loc 2 2205 2 is_stmt 0 discriminator 3 view .LVU381
	mov	rax, QWORD PTR 56[rsp]	# _5, %sfp
	shr	rax, 61	# _5,
	jne	.L26	#,
.LVL84:
	.loc 2 2205 2 discriminator 3 view .LVU382
.LBE2354:
.LBE2353:
.LBB2370:
.LBI2370:
	.loc 2 339 7 is_stmt 1 view .LVU383
.LBB2371:
.LBI2371:
	.loc 2 152 2 view .LVU384
.LBB2372:
.LBI2372:
	.loc 5 172 7 view .LVU385
.LBB2373:
.LBI2373:
	.loc 6 92 7 view .LVU386
	.loc 6 92 7 is_stmt 0 view .LVU387
.LBE2373:
.LBE2372:
.LBB2376:
.LBI2376:
	.loc 2 105 2 is_stmt 1 view .LVU388
	.loc 2 105 2 is_stmt 0 view .LVU389
.LBE2376:
.LBE2371:
.LBB2381:
.LBI2381:
	.loc 2 405 7 is_stmt 1 view .LVU390
.LBB2382:
.LBB2383:
.LBI2383:
	.loc 2 386 7 view .LVU391
.LBB2384:
# /usr/include/c++/16/bits/stl_vector.h:389: 	return __n != 0 ? _Tr::allocate(_M_impl, __n) : pointer();
	.loc 2 389 18 is_stmt 0 view .LVU392
	cmp	QWORD PTR 48[rsp], 0	# %sfp,
	je	.L153	#,
.L27:
.LBB2385:
.LBB2386:
.LBB2387:
# /usr/include/c++/16/bits/new_allocator.h:162: 	  return static_cast<_Tp*>(_GLIBCXX_OPERATOR_NEW(__n * sizeof(_Tp)));
	.loc 6 162 68 view .LVU393
	mov	r14, QWORD PTR 104[rsp]	# tmp576, %sfp
	vmovaps	XMMWORD PTR 16[rsp], xmm0	# %sfp, tmp611
.LVL85:
	.loc 6 162 68 view .LVU394
.LBE2387:
.LBE2386:
.LBI2385:
	.loc 8 637 7 is_stmt 1 view .LVU395
.LBB2389:
.LBI2386:
	.loc 6 129 7 view .LVU396
.LBB2388:
# /usr/include/c++/16/bits/new_allocator.h:162: 	  return static_cast<_Tp*>(_GLIBCXX_OPERATOR_NEW(__n * sizeof(_Tp)));
	.loc 6 162 68 is_stmt 0 view .LVU397
	add	r14, QWORD PTR 48[rsp]	# tmp576, %sfp
	lea	rdi, 0[0+r14*4]	# _847,
	mov	QWORD PTR 48[rsp], rdi	# %sfp, _847
	call	"_Znwm"@PLT	#
.LVL86:
.LEHE2:
	.loc 6 162 68 view .LVU398
.LBE2388:
.LBE2389:
.LBE2385:
.LBE2384:
.LBE2383:
.LBE2382:
.LBE2381:
.LBE2370:
.LBB2414:
.LBI2414:
	.loc 2 1987 7 is_stmt 1 view .LVU399
.LBB2415:
.LBI2415:
	.loc 12 771 5 view .LVU400
.LBB2416:
.LBI2416:
	.loc 12 550 5 view .LVU401
.LBB2417:
.LBB2418:
.LBI2418:
	.loc 12 477 5 view .LVU402
.LBB2419:
.LBB2420:
.LBI2420:
	.loc 12 113 7 view .LVU403
	.loc 12 113 7 is_stmt 0 view .LVU404
.LBE2420:
	.loc 12 485 2 is_stmt 1 discriminator 2 view .LVU405
	.loc 12 491 7 discriminator 2 view .LVU406
.LBB2421:
.LBB2422:
# /usr/include/c++/16/bits/stl_construct.h:133:       ::new(static_cast<void*>(__p)) _Tp(std::forward<_Args>(__args)...);
	.loc 11 133 7 is_stmt 0 discriminator 1 view .LVU407
	xor	esi, esi	#
	lea	rdx, 0[0+r14*4]	#,
	mov	rdi, rax	#, _851
	call	"memset"@PLT	#
.LVL87:
	.loc 11 133 7 discriminator 1 view .LVU408
.LBE2422:
.LBE2421:
.LBE2419:
.LBE2418:
.LBE2417:
.LBE2416:
.LBE2415:
.LBE2414:
.LBE2352:
.LBB2439:
# src/avx_analysis_code_ablations/opt7_5_abl_compiler_vec.cpp:84:     for (const SubParams& p : params) {
	.loc 1 84 31 discriminator 6 view .LVU409
	cmp	QWORD PTR 8[rsp], rbp	# %sfp, __new_finish
	vmovaps	xmm0, XMMWORD PTR 16[rsp]	# tmp611, %sfp
.LBE2439:
.LBB2452:
.LBB2430:
.LBB2429:
.LBB2428:
.LBB2427:
.LBB2426:
.LBB2425:
.LBB2424:
.LBB2423:
# /usr/include/c++/16/bits/stl_construct.h:133:       ::new(static_cast<void*>(__p)) _Tp(std::forward<_Args>(__args)...);
	.loc 11 133 7 discriminator 1 view .LVU410
	mov	r10, rax	# _851,
.LVL88:
	.loc 11 133 7 discriminator 1 view .LVU411
.LBE2423:
.LBE2424:
.LBE2425:
.LBE2426:
.LBE2427:
.LBE2428:
.LBE2429:
.LBE2430:
.LBE2452:
.LBB2453:
	.loc 1 84 31 is_stmt 1 discriminator 5 view .LVU412
# src/avx_analysis_code_ablations/opt7_5_abl_compiler_vec.cpp:84:     for (const SubParams& p : params) {
	.loc 1 84 31 is_stmt 0 discriminator 6 view .LVU413
	je	.L43	#,
.L41:
.LBB2440:
.LBB2441:
# src/avx_analysis_code_ablations/opt7_5_abl_compiler_vec.cpp:87:             size_t ind_bot = ind_top + width * 3;
	.loc 1 87 46 view .LVU414
	mov	rdi, QWORD PTR 40[rsp]	# _325, %sfp
	mov	rax, QWORD PTR 8[rsp]	# ivtmp.365, %sfp
	mov	DWORD PTR 16[rsp], r15d	# %sfp, _181
	mov	QWORD PTR 32[rsp], r13	# %sfp, _437
	lea	rdx, [rdi+rdi]	# tmp574,
	mov	DWORD PTR 56[rsp], r12d	# %sfp, _943
	mov	QWORD PTR 96[rsp], rbx	# %sfp, <retval>
	lea	rcx, [rdx+rdi]	# _82,
	mov	QWORD PTR 64[rsp], rdx	# %sfp, tmp574
	lea	r14, 0[0+rcx*4]	# tmp475,
	mov	rdx, rdi	# _325, _325
.LVL89:
	.p2align 4,,10
	.p2align 3
.L47:
	.loc 1 85 9 is_stmt 1 view .LVU415
.LBE2441:
# src/avx_analysis_code_ablations/opt7_5_abl_compiler_vec.cpp:85:         for (int y = p.y_begin; y < p.y_end; ++y) {
	.loc 1 85 18 is_stmt 0 view .LVU416
	mov	r11d, DWORD PTR 32[rax]	# y, MEM[(int *)_858 + 32B]
.LVL90:
	.loc 1 85 35 is_stmt 1 discriminator 2 view .LVU417
# src/avx_analysis_code_ablations/opt7_5_abl_compiler_vec.cpp:85:         for (int y = p.y_begin; y < p.y_end; ++y) {
	.loc 1 85 39 is_stmt 0 discriminator 2 view .LVU418
	mov	r12d, DWORD PTR 36[rax]	# _307, MEM[(int *)_858 + 36B]
# src/avx_analysis_code_ablations/opt7_5_abl_compiler_vec.cpp:85:         for (int y = p.y_begin; y < p.y_end; ++y) {
	.loc 1 85 35 discriminator 2 view .LVU419
	cmp	r11d, r12d	# y, _307
	jge	.L44	#,
.LBB2451:
# src/avx_analysis_code_ablations/opt7_5_abl_compiler_vec.cpp:86:             size_t ind_top = ((size_t)(y + p.sy) * width + (size_t)(p.x_begin + p.sx)) * 3;
	.loc 1 86 71 view .LVU420
	mov	r8d, DWORD PTR 24[rax]	# _77, MEM[(int *)_858 + 24B]
.LBB2442:
# src/avx_analysis_code_ablations/opt7_5_abl_compiler_vec.cpp:98:             for (int x = p.x_begin; x < p.x_end; ++x) {
	.loc 1 98 43 discriminator 2 view .LVU421
	mov	ebx, DWORD PTR 28[rax]	# _229, MEM[(int *)_858 + 28B]
	cmp	r8d, ebx	# _77, _229
	jge	.L44	#,
	movsxd	r9, DWORD PTR 4[rax]	# _170, MEM[(int *)_858 + 4B]
	movsxd	rsi, r11d	# _171, y
.LBE2442:
# src/avx_analysis_code_ablations/opt7_5_abl_compiler_vec.cpp:96:             float* vrow = vals.data() + ((size_t)y * width + (size_t)p.x_begin) * 3;
	.loc 1 96 62 discriminator 1 view .LVU422
	movsxd	r15, r8d	# _102, _77
# src/avx_analysis_code_ablations/opt7_5_abl_compiler_vec.cpp:86:             size_t ind_top = ((size_t)(y + p.sy) * width + (size_t)(p.x_begin + p.sx)) * 3;
	.loc 1 86 83 view .LVU423
	movsxd	rdi, DWORD PTR [rax]	#, MEM[(int *)_858]
	sub	ebx, r8d	# _959, _77
.LBB2447:
.LBB2443:
# src/avx_analysis_code_ablations/opt7_5_abl_compiler_vec.cpp:109:                 vrow[0] += p.A*pTLr + p.B*pTRr + p.C*pBLr + p.D*pBRr;
	.loc 1 109 30 view .LVU424
	vmovss	xmm16, DWORD PTR 8[rax]	# _126, MEM[(float *)_858 + 8B]
# src/avx_analysis_code_ablations/opt7_5_abl_compiler_vec.cpp:109:                 vrow[0] += p.A*pTLr + p.B*pTRr + p.C*pBLr + p.D*pBRr;
	.loc 1 109 41 view .LVU425
	vmovss	xmm15, DWORD PTR 12[rax]	# _128, MEM[(float *)_858 + 12B]
	add	r9, rsi	# _964, _171
	imul	rsi, rdx	# _257, _325
.LBE2443:
.LBE2447:
# src/avx_analysis_code_ablations/opt7_5_abl_compiler_vec.cpp:86:             size_t ind_top = ((size_t)(y + p.sy) * width + (size_t)(p.x_begin + p.sx)) * 3;
	.loc 1 86 79 view .LVU426
	lea	r13d, [r8+rdi]	# _79,
	add	rdi, r15	# _1034, _102
	imul	r9, rdx	# _665, _325
# src/avx_analysis_code_ablations/opt7_5_abl_compiler_vec.cpp:86:             size_t ind_top = ((size_t)(y + p.sy) * width + (size_t)(p.x_begin + p.sx)) * 3;
	.loc 1 86 60 view .LVU427
	movsxd	r13, r13d	# _80, _79
.LBB2448:
.LBB2444:
# src/avx_analysis_code_ablations/opt7_5_abl_compiler_vec.cpp:109:                 vrow[0] += p.A*pTLr + p.B*pTRr + p.C*pBLr + p.D*pBRr;
	.loc 1 109 52 view .LVU428
	vmovss	xmm14, DWORD PTR 16[rax]	# _131, MEM[(float *)_858 + 16B]
# src/avx_analysis_code_ablations/opt7_5_abl_compiler_vec.cpp:109:                 vrow[0] += p.A*pTLr + p.B*pTRr + p.C*pBLr + p.D*pBRr;
	.loc 1 109 63 view .LVU429
	vmovss	xmm13, DWORD PTR 20[rax]	# _134, MEM[(float *)_858 + 20B]
	sub	rdi, r13	# _261, _80
	add	rsi, r15	# _961, _102
	add	rsi, rbx	# _258, _959
	add	r9, r13	# _358, _80
	lea	r13, [rdi+rdi*2]	# _951,
	lea	rsi, [rsi+rsi*2]	# _176,
	lea	r9, [r9+r9*2]	# _648,
	lea	r8, [r10+rsi*4]	# ivtmp.358,
	lea	rsi, 0[0+rbx*4]	# tmp495,
	add	r9, QWORD PTR 40[rax]	# ivtmp.352, MEM[(const unsigned char * *)_858 + 40B]
	sub	rbx, rsi	# _1031, tmp495
	sal	rbx, 2	# tmp497,
	.p2align 4,,10
	.p2align 3
.L46:
	.loc 1 109 63 view .LVU430
.LBE2444:
.LBE2448:
	.loc 1 86 13 is_stmt 1 view .LVU431
.LVL91:
	.loc 1 87 13 view .LVU432
	.loc 1 89 13 view .LVU433
	.loc 1 90 13 view .LVU434
	.loc 1 91 13 view .LVU435
	.loc 1 92 13 view .LVU436
	.loc 1 93 13 view .LVU437
	.loc 1 94 13 view .LVU438
	.loc 1 96 13 view .LVU439
	.loc 1 98 13 view .LVU440
.LBB2449:
	.loc 1 98 39 discriminator 2 view .LVU441
.LBE2449:
# src/avx_analysis_code_ablations/opt7_5_abl_compiler_vec.cpp:89:             float pTLr = p.data[ind_top    ];
	.loc 1 89 19 is_stmt 0 view .LVU442
	movzx	esi, BYTE PTR [r9]	# MEM[(const unsigned char *)_1003], MEM[(const unsigned char *)_1003]
	lea	rdi, [r9+r13]	# ivtmp.343,
	vcvtusi2ss	xmm9, xmm0, esi	# tmp612, tmp611, MEM[(const unsigned char *)_1003]
# src/avx_analysis_code_ablations/opt7_5_abl_compiler_vec.cpp:90:             float pTLg = p.data[ind_top + 1];
	.loc 1 90 19 view .LVU443
	movzx	esi, BYTE PTR 1[r9]	# MEM[(const unsigned char *)_1003 + 1B], MEM[(const unsigned char *)_1003 + 1B]
	vcvtusi2ss	xmm8, xmm0, esi	# tmp613, tmp611, MEM[(const unsigned char *)_1003 + 1B]
# src/avx_analysis_code_ablations/opt7_5_abl_compiler_vec.cpp:91:             float pTLb = p.data[ind_top + 2];
	.loc 1 91 19 view .LVU444
	movzx	esi, BYTE PTR 2[r9]	# MEM[(const unsigned char *)_1003 + 2B], MEM[(const unsigned char *)_1003 + 2B]
	vcvtusi2ss	xmm7, xmm0, esi	# tmp614, tmp611, MEM[(const unsigned char *)_1003 + 2B]
# src/avx_analysis_code_ablations/opt7_5_abl_compiler_vec.cpp:92:             float pBLr = p.data[ind_bot    ];
	.loc 1 92 19 view .LVU445
	movzx	esi, BYTE PTR [r9+rcx]	# MEM[(const unsigned char *)_1003 + _82 * 1], MEM[(const unsigned char *)_1003 + _82 * 1]
	vcvtusi2ss	xmm6, xmm0, esi	# tmp615, tmp611, MEM[(const unsigned char *)_1003 + _82 * 1]
# src/avx_analysis_code_ablations/opt7_5_abl_compiler_vec.cpp:93:             float pBLg = p.data[ind_bot + 1];
	.loc 1 93 19 view .LVU446
	movzx	esi, BYTE PTR 1[r9+rcx]	# MEM[(const unsigned char *)_1003 + 1B + _82 * 1], MEM[(const unsigned char *)_1003 + 1B + _82 * 1]
	vcvtusi2ss	xmm5, xmm0, esi	# tmp616, tmp611, MEM[(const unsigned char *)_1003 + 1B + _82 * 1]
# src/avx_analysis_code_ablations/opt7_5_abl_compiler_vec.cpp:94:             float pBLb = p.data[ind_bot + 2];
	.loc 1 94 19 view .LVU447
	movzx	esi, BYTE PTR 2[r9+rcx]	# MEM[(const unsigned char *)_1003 + 2B + _82 * 1], MEM[(const unsigned char *)_1003 + 2B + _82 * 1]
	vcvtusi2ss	xmm4, xmm0, esi	# tmp617, tmp611, MEM[(const unsigned char *)_1003 + 2B + _82 * 1]
# src/avx_analysis_code_ablations/opt7_5_abl_compiler_vec.cpp:96:             float* vrow = vals.data() + ((size_t)y * width + (size_t)p.x_begin) * 3;
	.loc 1 96 83 discriminator 1 view .LVU448
	lea	rsi, [r8+rbx]	# vrow,
.LVL92:
	.p2align 4,,10
	.p2align 3
.L45:
.LBB2450:
.LBB2445:
	.loc 1 99 17 is_stmt 1 view .LVU449
	.loc 1 100 17 view .LVU450
	.loc 1 102 17 view .LVU451
# src/avx_analysis_code_ablations/opt7_5_abl_compiler_vec.cpp:102:                 const float pTRr = p.data[ir    ];
	.loc 1 102 29 is_stmt 0 view .LVU452
	movzx	r15d, BYTE PTR 3[rdi]	# MEM[(const unsigned char *)_348 + 3B], MEM[(const unsigned char *)_348 + 3B]
	vmovaps	xmm3, xmm9	# pTLr, pTRr
	vmovaps	xmm2, xmm8	# pTLg, pTRg
	vmovaps	xmm1, xmm7	# pTLb, pTRb
	vmovaps	xmm12, xmm6	# pBLr, pBRr
	vmovaps	xmm17, xmm15	# _979, _128
	vmovaps	xmm11, xmm5	# pBLg, pBRg
# src/avx_analysis_code_ablations/opt7_5_abl_compiler_vec.cpp:115:                 vrow += 3;
	.loc 1 115 22 view .LVU453
	add	rsi, 12	# vrow,
.LVL93:
# src/avx_analysis_code_ablations/opt7_5_abl_compiler_vec.cpp:102:                 const float pTRr = p.data[ir    ];
	.loc 1 102 29 view .LVU454
	vcvtusi2ss	xmm9, xmm0, r15d	# tmp618, tmp611, MEM[(const unsigned char *)_348 + 3B]
.LVL94:
	.loc 1 103 17 is_stmt 1 view .LVU455
# src/avx_analysis_code_ablations/opt7_5_abl_compiler_vec.cpp:103:                 const float pTRg = p.data[ir + 1];
	.loc 1 103 29 is_stmt 0 view .LVU456
	movzx	r15d, BYTE PTR 4[rdi]	# MEM[(const unsigned char *)_348 + 4B], MEM[(const unsigned char *)_348 + 4B]
	vmovaps	xmm10, xmm4	# pBLb, pBRb
.LBE2445:
# src/avx_analysis_code_ablations/opt7_5_abl_compiler_vec.cpp:98:             for (int x = p.x_begin; x < p.x_end; ++x) {
	.loc 1 98 39 discriminator 2 view .LVU457
	add	rdi, 3	# ivtmp.343,
.LVL95:
.LBB2446:
# src/avx_analysis_code_ablations/opt7_5_abl_compiler_vec.cpp:103:                 const float pTRg = p.data[ir + 1];
	.loc 1 103 29 view .LVU458
	vcvtusi2ss	xmm8, xmm0, r15d	# tmp619, tmp611, MEM[(const unsigned char *)_348 + 4B]
.LVL96:
	.loc 1 104 17 is_stmt 1 view .LVU459
# src/avx_analysis_code_ablations/opt7_5_abl_compiler_vec.cpp:104:                 const float pTRb = p.data[ir + 2];
	.loc 1 104 29 is_stmt 0 view .LVU460
	movzx	r15d, BYTE PTR 2[rdi]	# MEM[(const unsigned char *)_348 + 5B], MEM[(const unsigned char *)_348 + 5B]
	vcvtusi2ss	xmm7, xmm0, r15d	# tmp620, tmp611, MEM[(const unsigned char *)_348 + 5B]
.LVL97:
	.loc 1 105 17 is_stmt 1 view .LVU461
# src/avx_analysis_code_ablations/opt7_5_abl_compiler_vec.cpp:105:                 const float pBRr = p.data[br    ];
	.loc 1 105 29 is_stmt 0 view .LVU462
	movzx	r15d, BYTE PTR [rdi+rcx]	# MEM[(const unsigned char *)_348 + 3B + _82 * 1], MEM[(const unsigned char *)_348 + 3B + _82 * 1]
	vfmadd213ss	xmm17, xmm9, DWORD PTR -12[rsi]	# _979, pTRr, MEM[(float *)vrow_643]
	vcvtusi2ss	xmm6, xmm0, r15d	# tmp621, tmp611, MEM[(const unsigned char *)_348 + 3B + _82 * 1]
.LVL98:
	.loc 1 106 17 is_stmt 1 view .LVU463
# src/avx_analysis_code_ablations/opt7_5_abl_compiler_vec.cpp:106:                 const float pBRg = p.data[br + 1];
	.loc 1 106 29 is_stmt 0 view .LVU464
	movzx	r15d, BYTE PTR 1[rdi+rcx]	# MEM[(const unsigned char *)_348 + 4B + _82 * 1], MEM[(const unsigned char *)_348 + 4B + _82 * 1]
	vcvtusi2ss	xmm5, xmm0, r15d	# tmp622, tmp611, MEM[(const unsigned char *)_348 + 4B + _82 * 1]
.LVL99:
	.loc 1 107 17 is_stmt 1 view .LVU465
# src/avx_analysis_code_ablations/opt7_5_abl_compiler_vec.cpp:107:                 const float pBRb = p.data[br + 2];
	.loc 1 107 29 is_stmt 0 view .LVU466
	movzx	r15d, BYTE PTR 2[rdi+rcx]	# MEM[(const unsigned char *)_348 + 5B + _82 * 1], MEM[(const unsigned char *)_348 + 5B + _82 * 1]
# src/avx_analysis_code_ablations/opt7_5_abl_compiler_vec.cpp:109:                 vrow[0] += p.A*pTLr + p.B*pTRr + p.C*pBLr + p.D*pBRr;
	.loc 1 109 64 view .LVU467
	vmulss	xmm18, xmm13, xmm6	# _135, _134, pBRr
# src/avx_analysis_code_ablations/opt7_5_abl_compiler_vec.cpp:107:                 const float pBRb = p.data[br + 2];
	.loc 1 107 29 view .LVU468
	vcvtusi2ss	xmm4, xmm0, r15d	# tmp623, tmp611, MEM[(const unsigned char *)_348 + 5B + _82 * 1]
.LVL100:
	.loc 1 109 17 is_stmt 1 view .LVU469
# src/avx_analysis_code_ablations/opt7_5_abl_compiler_vec.cpp:109:                 vrow[0] += p.A*pTLr + p.B*pTRr + p.C*pBLr + p.D*pBRr;
	.loc 1 109 25 is_stmt 0 view .LVU470
	vfmadd132ss	xmm3, xmm18, xmm16	# tmp517, _135, _126
.LVL101:
	.loc 1 109 25 view .LVU471
	vaddss	xmm3, xmm3, xmm17	# _969, tmp517, _979
	vfmadd132ss	xmm12, xmm3, xmm14	# tmp516, _969, _131
.LVL102:
	.loc 1 109 25 view .LVU472
	vmovaps	xmm3, xmm15	# _364, _128
	vfmadd213ss	xmm3, xmm8, DWORD PTR -8[rsi]	# _364, pTRg, MEM[(float *)vrow_643 + 4B]
	vmovss	DWORD PTR -12[rsi], xmm12	# MEM[(float *)vrow_643], tmp516
	.loc 1 110 17 is_stmt 1 view .LVU473
# src/avx_analysis_code_ablations/opt7_5_abl_compiler_vec.cpp:110:                 vrow[1] += p.A*pTLg + p.B*pTRg + p.C*pBLg + p.D*pBRg;
	.loc 1 110 64 is_stmt 0 view .LVU474
	vmulss	xmm12, xmm13, xmm5	# _148, _134, pBRg
# src/avx_analysis_code_ablations/opt7_5_abl_compiler_vec.cpp:110:                 vrow[1] += p.A*pTLg + p.B*pTRg + p.C*pBLg + p.D*pBRg;
	.loc 1 110 25 view .LVU475
	vfmadd132ss	xmm2, xmm12, xmm16	# tmp521, _148, _126
.LVL103:
	.loc 1 110 25 view .LVU476
	vaddss	xmm2, xmm2, xmm3	# _654, tmp521, _364
# src/avx_analysis_code_ablations/opt7_5_abl_compiler_vec.cpp:111:                 vrow[2] += p.A*pTLb + p.B*pTRb + p.C*pBLb + p.D*pBRb;
	.loc 1 111 64 view .LVU477
	vmulss	xmm3, xmm13, xmm4	# _161, _134, pBRb
# src/avx_analysis_code_ablations/opt7_5_abl_compiler_vec.cpp:110:                 vrow[1] += p.A*pTLg + p.B*pTRg + p.C*pBLg + p.D*pBRg;
	.loc 1 110 25 view .LVU478
	vfmadd132ss	xmm11, xmm2, xmm14	# tmp520, _654, _131
.LVL104:
	.loc 1 110 25 view .LVU479
	vmovaps	xmm2, xmm15	# _366, _128
	vfmadd213ss	xmm2, xmm7, DWORD PTR -4[rsi]	# _366, pTRb, MEM[(float *)vrow_643 + 8B]
# src/avx_analysis_code_ablations/opt7_5_abl_compiler_vec.cpp:111:                 vrow[2] += p.A*pTLb + p.B*pTRb + p.C*pBLb + p.D*pBRb;
	.loc 1 111 25 view .LVU480
	vfmadd132ss	xmm1, xmm3, xmm16	# tmp525, _161, _126
.LVL105:
# src/avx_analysis_code_ablations/opt7_5_abl_compiler_vec.cpp:110:                 vrow[1] += p.A*pTLg + p.B*pTRg + p.C*pBLg + p.D*pBRg;
	.loc 1 110 25 view .LVU481
	vmovss	DWORD PTR -8[rsi], xmm11	# MEM[(float *)vrow_643 + 4B], tmp520
	.loc 1 111 17 is_stmt 1 view .LVU482
# src/avx_analysis_code_ablations/opt7_5_abl_compiler_vec.cpp:111:                 vrow[2] += p.A*pTLb + p.B*pTRb + p.C*pBLb + p.D*pBRb;
	.loc 1 111 25 is_stmt 0 view .LVU483
	vaddss	xmm1, xmm1, xmm2	# _65, tmp525, _366
	vfmadd132ss	xmm10, xmm1, xmm14	# tmp524, _65, _131
.LVL106:
	.loc 1 111 25 view .LVU484
	vmovss	DWORD PTR -4[rsi], xmm10	# MEM[(float *)vrow_643 + 8B], tmp524
	.loc 1 113 17 is_stmt 1 view .LVU485
.LVL107:
	.loc 1 113 30 view .LVU486
	.loc 1 113 43 view .LVU487
	.loc 1 114 17 view .LVU488
	.loc 1 114 30 view .LVU489
	.loc 1 114 43 view .LVU490
	.loc 1 115 17 view .LVU491
.LBE2446:
	.loc 1 98 13 discriminator 1 view .LVU492
	.loc 1 98 39 discriminator 2 view .LVU493
	cmp	rsi, r8	# vrow, ivtmp.358
	jne	.L45	#,
.LBE2450:
.LBE2451:
	.loc 1 85 9 discriminator 1 view .LVU494
	inc	r11d	# y
.LVL108:
	.loc 1 85 35 discriminator 2 view .LVU495
	add	r9, rcx	# ivtmp.352, _82
	add	r8, r14	# ivtmp.358, tmp475
	cmp	r11d, r12d	# y, _307
	jne	.L46	#,
.LVL109:
.L44:
	.loc 1 85 35 is_stmt 0 discriminator 2 view .LVU496
.LBE2440:
	.loc 1 84 5 is_stmt 1 discriminator 4 view .LVU497
	.loc 1 84 31 discriminator 5 view .LVU498
# src/avx_analysis_code_ablations/opt7_5_abl_compiler_vec.cpp:84:     for (const SubParams& p : params) {
	.loc 1 84 31 is_stmt 0 discriminator 6 view .LVU499
	add	rax, 48	# ivtmp.365,
.LVL110:
	.loc 1 84 31 discriminator 6 view .LVU500
	cmp	rbp, rax	# __new_finish, ivtmp.365
	jne	.L47	#,
.LBE2453:
.LBB2454:
# src/avx_analysis_code_ablations/opt7_5_abl_compiler_vec.cpp:120:     for (int y = 0; y < h; ++y) {
	.loc 1 120 23 discriminator 2 view .LVU501
	mov	r12d, DWORD PTR 56[rsp]	# _943, %sfp
	mov	r15d, DWORD PTR 16[rsp]	# _181, %sfp
	mov	r13, QWORD PTR 32[rsp]	# _437, %sfp
	mov	rdx, QWORD PTR 64[rsp]	# tmp574, %sfp
	mov	rbx, QWORD PTR 96[rsp]	# <retval>, %sfp
.LVL111:
	.loc 1 120 23 is_stmt 1 discriminator 2 view .LVU502
	test	r12d, r12d	# _943
	jle	.L49	#,
	test	r15d, r15d	# _181
	jle	.L49	#,
.LVL112:
.L42:
	.loc 1 120 23 is_stmt 0 discriminator 2 view .LVU503
	mov	r14, QWORD PTR 40[rsp]	# _325, %sfp
.LBB2455:
.LBB2456:
# src/avx_analysis_code_ablations/opt7_5_abl_compiler_vec.cpp:124:             float inv_c = 1.0f / (float)c;
	.loc 1 124 19 view .LVU504
	vmovss	xmm6, DWORD PTR .LC1[rip]	# tmp581,
	mov	r11, r13	# ivtmp.331, _437
.LBE2456:
.LBE2455:
.LBE2454:
.LBB2501:
.LBB2431:
.LBB2407:
.LBB2402:
.LBB2396:
.LBB2390:
# /usr/include/c++/16/bits/stl_vector.h:389: 	return __n != 0 ? _Tr::allocate(_M_impl, __n) : pointer();
	.loc 2 389 58 discriminator 3 view .LVU505
	xor	edi, edi	# ivtmp.334
.LBE2390:
.LBE2396:
.LBE2402:
.LBE2407:
.LBE2431:
.LBE2501:
.LBB2502:
.LBB2498:
.LBB2494:
.LBB2457:
.LBB2458:
.LBB2459:
# /usr/include/c++/16/bits/stl_algobase.h:261:       if (__a < __b)
	.loc 10 261 7 view .LVU506
	vmovss	xmm3, DWORD PTR .LC3[rip]	# tmp582,
.LBE2459:
.LBE2458:
.LBE2457:
# src/avx_analysis_code_ablations/opt7_5_abl_compiler_vec.cpp:127:             outp[0] = (unsigned char)std::clamp(vp[0] * inv_c + 0.5f, 0.0f, 255.0f);
	.loc 1 127 63 view .LVU507
	vmovss	xmm5, DWORD PTR .LC4[rip]	# tmp584,
.LBE2494:
.LBE2498:
# src/avx_analysis_code_ablations/opt7_5_abl_compiler_vec.cpp:120:     for (int y = 0; y < h; ++y) {
	.loc 1 120 14 view .LVU508
	xor	r8d, r8d	# y
	lea	eax, -1[r14]	# _223,
.LBB2499:
.LBB2495:
.LBB2469:
.LBB2462:
.LBB2463:
# /usr/include/c++/16/bits/stl_algobase.h:237:       if (__b < __a)
	.loc 10 237 7 view .LVU509
	vmovss	xmm8, DWORD PTR .LC5[rip]	# tmp585,
	lea	r9, [rdx+r14]	# _483,
	lea	rsi, 3[rax+rax*2]	# ivtmp.329,
	mov	eax, r15d	# _881, _181
	lea	rbp, 0[0+rax*4]	# _1016,
	.p2align 4,,10
	.p2align 3
.L62:
.LVL113:
	.loc 10 237 7 view .LVU510
.LBE2463:
.LBE2462:
.LBE2469:
.LBE2495:
	.loc 1 121 27 is_stmt 1 discriminator 2 view .LVU511
.LBB2496:
.LBB2470:
.LBB2471:
.LBB2472:
# /usr/include/c++/16/bits/stl_algobase.h:237:       if (__b < __a)
	.loc 10 237 7 is_stmt 0 view .LVU512
	vmovss	xmm4, DWORD PTR .LC5[rip]	# tmp587,
.LBE2472:
.LBE2471:
.LBE2470:
# src/avx_analysis_code_ablations/opt7_5_abl_compiler_vec.cpp:129:             outp[2] = (unsigned char)std::clamp(vp[2] * inv_c + 0.5f, 0.0f, 255.0f);
	.loc 1 129 63 view .LVU513
	vmovss	xmm7, DWORD PTR .LC4[rip]	# tmp588,
	lea	rax, [rdi+rdi*2]	# ivtmp.324,
.LBE2496:
.LBE2499:
# src/avx_analysis_code_ablations/opt7_5_abl_compiler_vec.cpp:120:     for (int y = 0; y < h; ++y) {
	.loc 1 120 14 view .LVU514
	mov	rdx, r11	# ivtmp.321, ivtmp.331
.LVL114:
	.p2align 4,,10
	.p2align 3
.L61:
.LBB2500:
.LBB2497:
	.loc 1 122 13 is_stmt 1 view .LVU515
# src/avx_analysis_code_ablations/opt7_5_abl_compiler_vec.cpp:122:             const int c = counts[y * w + x];
	.loc 1 122 43 is_stmt 0 discriminator 1 view .LVU516
	mov	ecx, DWORD PTR [rdx]	# c, MEM[(value_type &)_651]
.LVL115:
	.loc 1 123 13 is_stmt 1 view .LVU517
	test	ecx, ecx	# c
	je	.L51	#,
	.loc 1 124 13 view .LVU518
# src/avx_analysis_code_ablations/opt7_5_abl_compiler_vec.cpp:124:             float inv_c = 1.0f / (float)c;
	.loc 1 124 34 is_stmt 0 view .LVU519
	vcvtsi2ss	xmm1, xmm0, ecx	# tmp624, tmp611, c
# src/avx_analysis_code_ablations/opt7_5_abl_compiler_vec.cpp:126:             unsigned char* outp = output.data.data() + ((size_t)y * width + x) * 3;
	.loc 1 126 82 discriminator 1 view .LVU520
	mov	rcx, QWORD PTR 16[rbx]	# outp, MEM[(struct vector *)output_221(D) + 16B].D.86825._M_impl.D.86136._M_start
.LVL116:
.LBB2478:
.LBB2465:
.LBB2460:
# /usr/include/c++/16/bits/stl_algobase.h:261:       if (__a < __b)
	.loc 10 261 7 view .LVU521
	xor	r15d, r15d	# prephitmp_907
.LBE2460:
.LBE2465:
.LBE2478:
# src/avx_analysis_code_ablations/opt7_5_abl_compiler_vec.cpp:126:             unsigned char* outp = output.data.data() + ((size_t)y * width + x) * 3;
	.loc 1 126 82 discriminator 1 view .LVU522
	add	rcx, rax	# outp, ivtmp.324
# src/avx_analysis_code_ablations/opt7_5_abl_compiler_vec.cpp:124:             float inv_c = 1.0f / (float)c;
	.loc 1 124 19 view .LVU523
	vdivss	xmm1, xmm6, xmm1	# inv_c, tmp581, _921
.LVL117:
	.loc 1 125 13 is_stmt 1 view .LVU524
	.loc 1 126 13 view .LVU525
.LBB2479:
.LBI2479:
	.loc 2 1385 7 view .LVU526
	.loc 2 1385 7 is_stmt 0 view .LVU527
.LBE2479:
	.loc 1 127 13 is_stmt 1 view .LVU528
# src/avx_analysis_code_ablations/opt7_5_abl_compiler_vec.cpp:127:             outp[0] = (unsigned char)std::clamp(vp[0] * inv_c + 0.5f, 0.0f, 255.0f);
	.loc 1 127 55 is_stmt 0 view .LVU529
	vmulss	xmm2, xmm1, DWORD PTR [r10+rax*4]	# _911, inv_c, MEM[(const float *)_852 + ivtmp.324_885 * 4]
.LBB2480:
.LBI2457:
	.file 13 "/usr/include/c++/16/bits/stl_algo.h"
	.loc 13 3614 5 is_stmt 1 view .LVU530
	.loc 13 3616 7 discriminator 2 view .LVU531
.LBB2466:
.LBI2458:
	.loc 10 256 5 view .LVU532
.LBB2461:
# /usr/include/c++/16/bits/stl_algobase.h:261:       if (__a < __b)
	.loc 10 261 7 is_stmt 0 view .LVU533
	vcomiss	xmm3, xmm2	# tmp582, _911
	ja	.L60	#,
.LBE2461:
.LBE2466:
.LBE2480:
# src/avx_analysis_code_ablations/opt7_5_abl_compiler_vec.cpp:127:             outp[0] = (unsigned char)std::clamp(vp[0] * inv_c + 0.5f, 0.0f, 255.0f);
	.loc 1 127 63 view .LVU534
	vaddss	xmm2, xmm2, xmm5	# _910, _911, tmp584
.LBB2481:
.LBB2467:
.LBB2464:
# /usr/include/c++/16/bits/stl_algobase.h:237:       if (__b < __a)
	.loc 10 237 7 view .LVU535
	vminss	xmm2, xmm2, xmm8	# _910, _910, tmp585
.LBE2464:
.LBE2467:
.LBE2481:
# src/avx_analysis_code_ablations/opt7_5_abl_compiler_vec.cpp:127:             outp[0] = (unsigned char)std::clamp(vp[0] * inv_c + 0.5f, 0.0f, 255.0f);
	.loc 1 127 23 discriminator 1 view .LVU536
	vcvttss2si	r15d, xmm2	# prephitmp_907, _910
.L60:
.LBB2482:
.LBB2468:
.LBI2462:
	.loc 10 232 5 is_stmt 1 view .LVU537
.LBE2468:
.LBE2482:
# src/avx_analysis_code_ablations/opt7_5_abl_compiler_vec.cpp:128:             outp[1] = (unsigned char)std::clamp(vp[1] * inv_c + 0.5f, 0.0f, 255.0f);
	.loc 1 128 55 is_stmt 0 view .LVU538
	vmulss	xmm2, xmm1, DWORD PTR 4[r10+rax*4]	# _904, inv_c, MEM[(const float *)_852 + 4B + ivtmp.324_885 * 4]
# src/avx_analysis_code_ablations/opt7_5_abl_compiler_vec.cpp:127:             outp[0] = (unsigned char)std::clamp(vp[0] * inv_c + 0.5f, 0.0f, 255.0f);
	.loc 1 127 21 discriminator 1 view .LVU539
	mov	BYTE PTR [rcx], r15b	# *outp_913, prephitmp_907
	.loc 1 128 13 is_stmt 1 view .LVU540
.LBB2483:
.LBI2470:
	.loc 13 3614 5 view .LVU541
	.loc 13 3616 7 discriminator 2 view .LVU542
.LBB2474:
.LBI2474:
	.loc 10 256 5 view .LVU543
.LBB2475:
# /usr/include/c++/16/bits/stl_algobase.h:261:       if (__a < __b)
	.loc 10 261 7 is_stmt 0 view .LVU544
	xor	r15d, r15d	# prephitmp_900
	vcomiss	xmm3, xmm2	# tmp582, _904
	ja	.L59	#,
.LBE2475:
.LBE2474:
.LBE2483:
# src/avx_analysis_code_ablations/opt7_5_abl_compiler_vec.cpp:128:             outp[1] = (unsigned char)std::clamp(vp[1] * inv_c + 0.5f, 0.0f, 255.0f);
	.loc 1 128 63 view .LVU545
	vaddss	xmm2, xmm2, xmm5	# _903, _904, tmp584
.LBB2484:
.LBB2476:
.LBB2473:
# /usr/include/c++/16/bits/stl_algobase.h:237:       if (__b < __a)
	.loc 10 237 7 view .LVU546
	vminss	xmm2, xmm2, xmm4	# _903, _903, tmp587
.LBE2473:
.LBE2476:
.LBE2484:
# src/avx_analysis_code_ablations/opt7_5_abl_compiler_vec.cpp:128:             outp[1] = (unsigned char)std::clamp(vp[1] * inv_c + 0.5f, 0.0f, 255.0f);
	.loc 1 128 23 discriminator 1 view .LVU547
	vcvttss2si	r15d, xmm2	# prephitmp_900, _903
.L59:
.LBB2485:
.LBB2477:
.LBI2471:
	.loc 10 232 5 is_stmt 1 view .LVU548
.LBE2477:
.LBE2485:
# src/avx_analysis_code_ablations/opt7_5_abl_compiler_vec.cpp:129:             outp[2] = (unsigned char)std::clamp(vp[2] * inv_c + 0.5f, 0.0f, 255.0f);
	.loc 1 129 55 is_stmt 0 view .LVU549
	vmulss	xmm1, xmm1, DWORD PTR 8[r10+rax*4]	# _897, inv_c, MEM[(const float *)_852 + 8B + ivtmp.324_885 * 4]
.LVL118:
# src/avx_analysis_code_ablations/opt7_5_abl_compiler_vec.cpp:128:             outp[1] = (unsigned char)std::clamp(vp[1] * inv_c + 0.5f, 0.0f, 255.0f);
	.loc 1 128 21 discriminator 1 view .LVU550
	mov	BYTE PTR 1[rcx], r15b	# MEM[(unsigned char *)outp_913 + 1B], prephitmp_900
	.loc 1 129 13 is_stmt 1 view .LVU551
.LBB2486:
.LBI2486:
	.loc 13 3614 5 view .LVU552
	.loc 13 3616 7 discriminator 2 view .LVU553
.LBB2487:
.LBI2487:
	.loc 10 256 5 view .LVU554
.LBB2488:
# /usr/include/c++/16/bits/stl_algobase.h:261:       if (__a < __b)
	.loc 10 261 7 is_stmt 0 view .LVU555
	xor	r15d, r15d	# prephitmp_893
	vcomiss	xmm3, xmm1	# tmp582, _897
	ja	.L58	#,
.LBE2488:
.LBE2487:
.LBE2486:
# src/avx_analysis_code_ablations/opt7_5_abl_compiler_vec.cpp:129:             outp[2] = (unsigned char)std::clamp(vp[2] * inv_c + 0.5f, 0.0f, 255.0f);
	.loc 1 129 63 view .LVU556
	vaddss	xmm1, xmm1, xmm7	# _896, _897, tmp588
.LBB2492:
.LBB2489:
.LBB2490:
# /usr/include/c++/16/bits/stl_algobase.h:237:       if (__b < __a)
	.loc 10 237 7 view .LVU557
	vminss	xmm1, xmm1, xmm4	# _896, _896, tmp587
.LBE2490:
.LBE2489:
.LBE2492:
# src/avx_analysis_code_ablations/opt7_5_abl_compiler_vec.cpp:129:             outp[2] = (unsigned char)std::clamp(vp[2] * inv_c + 0.5f, 0.0f, 255.0f);
	.loc 1 129 23 discriminator 1 view .LVU558
	vcvttss2si	r15d, xmm1	# prephitmp_893, _896
.L58:
.LBB2493:
.LBB2491:
.LBI2489:
	.loc 10 232 5 is_stmt 1 view .LVU559
.LBE2491:
.LBE2493:
# src/avx_analysis_code_ablations/opt7_5_abl_compiler_vec.cpp:129:             outp[2] = (unsigned char)std::clamp(vp[2] * inv_c + 0.5f, 0.0f, 255.0f);
	.loc 1 129 21 is_stmt 0 discriminator 1 view .LVU560
	mov	BYTE PTR 2[rcx], r15b	# MEM[(unsigned char *)outp_913 + 2B], prephitmp_893
.LVL119:
.L51:
	.loc 1 129 21 discriminator 1 view .LVU561
.LBE2497:
	.loc 1 121 9 is_stmt 1 discriminator 1 view .LVU562
	.loc 1 121 27 discriminator 2 view .LVU563
	add	rax, 3	# ivtmp.324,
	add	rdx, 4	# ivtmp.321,
.LVL120:
	.loc 1 121 27 is_stmt 0 discriminator 2 view .LVU564
	cmp	rsi, rax	# ivtmp.329, ivtmp.324
	jne	.L61	#,
.LBE2500:
	.loc 1 120 5 is_stmt 1 discriminator 1 view .LVU565
	inc	r8d	# y
.LVL121:
	.loc 1 120 23 discriminator 2 view .LVU566
	add	rsi, r9	# ivtmp.329, _483
	add	r11, rbp	# ivtmp.331, _1016
	add	rdi, r14	# ivtmp.334, _325
	cmp	r12d, r8d	# _943, y
	jne	.L62	#,
.LVL122:
.L49:
	.loc 1 120 23 is_stmt 0 discriminator 2 view .LVU567
.LBE2502:
	.loc 1 133 5 is_stmt 1 view .LVU568
.LBB2503:
.LBI2503:
	.loc 2 790 7 view .LVU569
.LBB2504:
.LBI2504:
	.loc 2 307 7 view .LVU570
	.loc 2 307 7 is_stmt 0 view .LVU571
.LBE2504:
.LBB2505:
.LBI2505:
	.loc 8 1082 5 is_stmt 1 view .LVU572
	.loc 8 1082 5 is_stmt 0 view .LVU573
.LBE2505:
.LBB2506:
.LBI2506:
	.loc 2 373 7 is_stmt 1 view .LVU574
.LBB2507:
.LBB2508:
.LBI2508:
	.loc 2 394 7 view .LVU575
.LBB2509:
# /usr/include/c++/16/bits/stl_vector.h:397: 	if (__p)
	.loc 2 397 2 is_stmt 0 view .LVU576
	test	r10, r10	# _851
	je	.L28	#,
.LVL123:
.L72:
.LBB2510:
.LBI2510:
	.loc 8 688 7 is_stmt 1 view .LVU577
.LBB2511:
.LBI2511:
	.loc 6 167 7 view .LVU578
.LBB2512:
# /usr/include/c++/16/bits/new_allocator.h:183: 	_GLIBCXX_OPERATOR_DELETE(_GLIBCXX_SIZED_DEALLOC(__p, __n));
	.loc 6 183 59 is_stmt 0 view .LVU579
	mov	rsi, QWORD PTR 48[rsp]	#, %sfp
	mov	rdi, r10	#, _851
	call	"_ZdlPvm"@PLT	#
.LVL124:
	.loc 6 183 59 view .LVU580
.LBE2512:
.LBE2511:
.LBE2510:
.LBE2509:
.LBE2508:
.LBE2507:
.LBB2513:
.LBI2513:
	.loc 2 139 14 is_stmt 1 view .LVU581
.LBB2514:
.LBI2514:
	.loc 5 189 7 view .LVU582
.LBB2515:
.LBI2515:
	.loc 6 104 7 view .LVU583
	.loc 6 104 7 is_stmt 0 view .LVU584
.LBE2515:
.LBE2514:
.LBE2513:
.LBE2506:
.LBE2503:
.LBB2516:
.LBI2516:
	.loc 2 790 7 is_stmt 1 view .LVU585
.LBB2517:
.LBI2517:
	.loc 2 307 7 view .LVU586
	.loc 2 307 7 is_stmt 0 view .LVU587
.LBE2517:
.LBB2518:
.LBI2518:
	.loc 8 1082 5 is_stmt 1 view .LVU588
	.loc 8 1082 5 is_stmt 0 view .LVU589
.LBE2518:
.LBB2519:
.LBI2519:
	.loc 2 373 7 is_stmt 1 view .LVU590
.L28:
.LBB2520:
.LBB2521:
.LBI2521:
	.loc 2 394 7 view .LVU591
.LBB2522:
# /usr/include/c++/16/bits/stl_vector.h:397: 	if (__p)
	.loc 2 397 2 is_stmt 0 view .LVU592
	test	r13, r13	# _437
	je	.L63	#,
.LVL125:
.LBB2523:
.LBI2523:
	.loc 8 688 7 is_stmt 1 view .LVU593
.LBB2524:
.LBI2524:
	.loc 6 167 7 view .LVU594
.LBB2525:
# /usr/include/c++/16/bits/new_allocator.h:183: 	_GLIBCXX_OPERATOR_DELETE(_GLIBCXX_SIZED_DEALLOC(__p, __n));
	.loc 6 183 59 is_stmt 0 view .LVU595
	mov	rsi, QWORD PTR 88[rsp]	#, %sfp
	mov	rdi, r13	#, _437
	call	"_ZdlPvm"@PLT	#
.LVL126:
.L63:
	.loc 6 183 59 view .LVU596
.LBE2525:
.LBE2524:
.LBE2523:
.LBE2522:
.LBE2521:
.LBE2520:
.LBB2526:
.LBI2526:
	.loc 2 139 14 is_stmt 1 view .LVU597
.LBB2527:
.LBI2527:
	.loc 5 189 7 view .LVU598
.LBB2528:
.LBI2528:
	.loc 6 104 7 view .LVU599
	.loc 6 104 7 is_stmt 0 view .LVU600
.LBE2528:
.LBE2527:
.LBE2526:
.LBE2519:
.LBE2516:
.LBB2529:
.LBI2132:
	.loc 2 790 7 is_stmt 1 view .LVU601
.LBB2146:
.LBI2146:
	.loc 2 307 7 view .LVU602
	.loc 2 307 7 is_stmt 0 view .LVU603
.LBE2146:
.LBB2147:
.LBI2147:
	.loc 8 1082 5 is_stmt 1 view .LVU604
	.loc 8 1082 5 is_stmt 0 view .LVU605
.LBE2147:
.LBB2148:
.LBI2133:
	.loc 2 373 7 is_stmt 1 view .LVU606
.LBB2142:
.LBB2135:
.LBI2135:
	.loc 2 394 7 view .LVU607
.LBB2136:
# /usr/include/c++/16/bits/stl_vector.h:397: 	if (__p)
	.loc 2 397 2 is_stmt 0 view .LVU608
	mov	rax, QWORD PTR 8[rsp]	# params$_M_start, %sfp
	test	rax, rax	# params$_M_start
	je	.L1	#,
.LVL127:
.LBB2137:
.LBI2137:
	.loc 2 394 7 is_stmt 1 view .LVU609
.LBB2138:
.LBB2139:
.LBI2139:
	.loc 8 688 7 view .LVU610
.LBB2140:
.LBI2140:
	.loc 6 167 7 view .LVU611
.LBB2141:
# /usr/include/c++/16/bits/new_allocator.h:183: 	_GLIBCXX_OPERATOR_DELETE(_GLIBCXX_SIZED_DEALLOC(__p, __n));
	.loc 6 183 59 is_stmt 0 view .LVU612
	mov	rsi, QWORD PTR 80[rsp]	#, %sfp
	mov	rdi, rax	#, params$_M_start
	call	"_ZdlPvm"@PLT	#
.LVL128:
	.loc 6 183 59 view .LVU613
.LBE2141:
.LBE2140:
.LBE2139:
.LBE2138:
.LBE2137:
.LBE2136:
.LBE2135:
.LBE2142:
.LBB2143:
.LBI2143:
	.loc 2 139 14 is_stmt 1 view .LVU614
.LBB2144:
.LBI2144:
	.loc 5 189 7 view .LVU615
.LBB2145:
.LBI2145:
	.loc 6 104 7 view .LVU616
.L1:
	.loc 6 104 7 is_stmt 0 view .LVU617
.LBE2145:
.LBE2144:
.LBE2143:
.LBE2148:
.LBE2529:
# src/avx_analysis_code_ablations/opt7_5_abl_compiler_vec.cpp:134: }
	.loc 1 134 1 view .LVU618
	add	rsp, 168	#,
	.cfi_remember_state
	.cfi_def_cfa_offset 56
	mov	rax, rbx	#, <retval>
	pop	rbx	#
	.cfi_def_cfa_offset 48
	pop	rbp	#
	.cfi_def_cfa_offset 40
	pop	r12	#
	.cfi_def_cfa_offset 32
	pop	r13	#
	.cfi_def_cfa_offset 24
	pop	r14	#
	.cfi_def_cfa_offset 16
	pop	r15	#
	.cfi_def_cfa_offset 8
	ret	
.LVL129:
.L151:
	.cfi_restore_state
.LBB2530:
.LBB1959:
.LBB1953:
.LBB1946:
.LBB1941:
# /usr/include/c++/16/bits/stl_vector.h:106: 	: _M_start(), _M_finish(), _M_end_of_storage()
	.loc 2 106 29 view .LVU619
	mov	QWORD PTR 32[rsp], 0	# %sfp,
.LBE1941:
.LBE1946:
.LBE1953:
.LBE1959:
.LBE2530:
# src/avx_analysis_code_ablations/opt7_5_abl_compiler_vec.cpp:27:     const int w = static_cast<int>(width);
	.loc 1 27 15 view .LVU620
	mov	r15d, eax	# _181, _325
# src/avx_analysis_code_ablations/opt7_5_abl_compiler_vec.cpp:28:     const int h = static_cast<int>(height);
	.loc 1 28 15 view .LVU621
	mov	r12d, esi	# _943, _434
.LVL130:
	.loc 1 38 5 is_stmt 1 view .LVU622
.LBB2531:
.LBB2126:
	.loc 2 988 7 view .LVU623
.LBB1989:
	.loc 3 1058 7 view .LVU624
	.loc 3 1058 7 is_stmt 0 view .LVU625
.LBE1989:
.LBE2126:
.LBB2127:
	.loc 2 1008 7 is_stmt 1 view .LVU626
.LBB1992:
	.loc 3 1058 7 view .LVU627
	.loc 3 1058 7 is_stmt 0 view .LVU628
.LBE1992:
.LBE2127:
	.loc 1 38 34 is_stmt 1 discriminator 5 view .LVU629
.LBE2531:
.LBB2532:
.LBB1960:
.LBB1954:
.LBB1947:
.LBB1942:
# /usr/include/c++/16/bits/stl_vector.h:106: 	: _M_start(), _M_finish(), _M_end_of_storage()
	.loc 2 106 4 is_stmt 0 view .LVU630
	xor	ebp, ebp	# __new_finish
.LVL131:
	.loc 2 106 4 view .LVU631
.LBE1942:
.LBE1947:
.LBE1954:
.LBE1960:
.LBE2532:
.LBB2533:
# src/avx_analysis_code_ablations/opt7_5_abl_compiler_vec.cpp:38:     for (SubApertureImage& sub : subapertures) {
	.loc 1 38 34 discriminator 6 view .LVU632
	cmp	rcx, rdx	# SR.264, _67
	jne	.L5	#,
.LBE2533:
.LBB2534:
.LBB1961:
.LBB1955:
.LBB1948:
.LBB1943:
# /usr/include/c++/16/bits/stl_vector.h:106: 	: _M_start(), _M_finish(), _M_end_of_storage()
	.loc 2 106 4 view .LVU633
	mov	QWORD PTR 8[rsp], 0	# %sfp,
.LVL132:
.L79:
	.loc 2 106 4 view .LVU634
.LBE1943:
.LBE1948:
.LBE1955:
.LBE1961:
.LBE2534:
.LBB2535:
.LBB2201:
.LBB2181:
.LBB2179:
# /usr/include/c++/16/bits/stl_vector.h:409: 	this->_M_impl._M_end_of_storage = this->_M_impl._M_start + __n;
	.loc 2 409 59 view .LVU635
	mov	QWORD PTR 88[rsp], 0	# %sfp,
.LBB2177:
.LBB2175:
# /usr/include/c++/16/bits/stl_vector.h:389: 	return __n != 0 ? _Tr::allocate(_M_impl, __n) : pointer();
	.loc 2 389 58 discriminator 3 view .LVU636
	xor	r13d, r13d	# _437
	jmp	.L18	#
.LVL133:
.L2:
	.loc 2 389 58 discriminator 3 view .LVU637
.LBE2175:
.LBE2177:
.LBE2179:
.LBE2181:
.LBE2201:
.LBE2535:
.LBB2536:
.LBB1929:
.LBB1925:
.LBB1921:
.LBB1848:
.LBB1849:
.LBI1849:
	.loc 2 589 7 is_stmt 1 view .LVU638
.LBB1850:
.LBI1850:
	.loc 2 2203 7 view .LVU639
.LBB1851:
.LBB1852:
.LBI1852:
	.loc 5 172 7 view .LVU640
.LBB1853:
.LBI1853:
	.loc 6 92 7 view .LVU641
	.loc 6 92 7 is_stmt 0 view .LVU642
.LBE1853:
.LBE1852:
.LBB1854:
.LBI1854:
	.loc 5 189 7 is_stmt 1 view .LVU643
.LBB1855:
.LBI1855:
	.loc 6 104 7 view .LVU644
.LBE1855:
.LBE1854:
# /usr/include/c++/16/bits/stl_vector.h:2205: 	if (__n > _S_max_size(_Tp_alloc_type(__a)))
	.loc 2 2205 2 is_stmt 0 discriminator 3 view .LVU645
	cmp	QWORD PTR 56[rsp], 0	# %sfp,
	js	.L141	#,
	mov	QWORD PTR 8[rsp], rcx	# %sfp, SR.264
.LVL134:
	.loc 2 2205 2 discriminator 3 view .LVU646
.LBE1851:
.LBE1850:
.LBB1857:
.LBI1857:
	.loc 2 339 7 is_stmt 1 view .LVU647
.LBB1858:
.LBI1858:
	.loc 2 152 2 view .LVU648
.LBB1859:
.LBI1859:
	.loc 5 172 7 view .LVU649
.LBB1860:
.LBI1860:
	.loc 6 92 7 view .LVU650
	.loc 6 92 7 is_stmt 0 view .LVU651
.LBE1860:
.LBE1859:
.LBB1861:
.LBI1861:
	.loc 2 105 2 is_stmt 1 view .LVU652
	.loc 2 105 2 is_stmt 0 view .LVU653
.LBE1861:
.LBE1858:
.LBB1862:
.LBI1862:
	.loc 2 405 7 is_stmt 1 view .LVU654
.LBB1863:
.LBB1864:
.LBI1864:
	.loc 2 386 7 view .LVU655
.LBB1865:
.LBB1866:
.LBI1866:
	.loc 8 637 7 view .LVU656
.LBB1867:
.LBI1867:
	.loc 6 129 7 view .LVU657
	mov	r14, rdi	# _5, _5
	vmovss	DWORD PTR 32[rsp], xmm4	# %sfp, focus
.LEHB3:
.LBB1868:
# /usr/include/c++/16/bits/new_allocator.h:162: 	  return static_cast<_Tp*>(_GLIBCXX_OPERATOR_NEW(__n * sizeof(_Tp)));
	.loc 6 162 68 is_stmt 0 view .LVU658
	call	"_Znwm"@PLT	#
.LVL135:
.LEHE3:
	.loc 6 162 68 view .LVU659
.LBE1868:
.LBE1867:
.LBE1866:
.LBE1865:
.LBE1864:
.LBE1863:
.LBE1862:
.LBE1857:
.LBB1878:
.LBB1879:
.LBB1880:
.LBB1881:
.LBB1882:
.LBB1883:
# /usr/include/c++/16/bits/stl_uninitialized.h:577: 		      __builtin_memset(__dest, (unsigned char)__x, __n);
	.loc 12 577 25 view .LVU660
	xor	esi, esi	#
.LBE1883:
.LBE1882:
.LBE1881:
.LBE1880:
.LBE1879:
.LBE1878:
.LBB1891:
.LBB1876:
.LBB1874:
.LBB1873:
.LBB1872:
.LBB1871:
.LBB1870:
.LBB1869:
# /usr/include/c++/16/bits/new_allocator.h:162: 	  return static_cast<_Tp*>(_GLIBCXX_OPERATOR_NEW(__n * sizeof(_Tp)));
	.loc 6 162 68 view .LVU661
	mov	rdi, rax	# tmp600,
.LVL136:
	.loc 6 162 68 view .LVU662
.LBE1869:
.LBE1870:
.LBE1871:
.LBE1872:
.LBE1873:
# /usr/include/c++/16/bits/stl_vector.h:409: 	this->_M_impl._M_end_of_storage = this->_M_impl._M_start + __n;
	.loc 2 409 59 view .LVU663
	lea	r12, [rax+r14]	# _614,
.LVL137:
	.loc 2 409 59 view .LVU664
.LBE1874:
.LBE1876:
.LBE1891:
.LBB1892:
.LBI1878:
	.loc 2 1987 7 is_stmt 1 view .LVU665
.LBB1889:
.LBI1879:
	.loc 12 771 5 view .LVU666
.LBB1887:
.LBI1880:
	.loc 12 550 5 view .LVU667
	.loc 12 550 5 is_stmt 0 view .LVU668
.LBE1887:
.LBE1889:
.LBE1892:
.LBB1893:
.LBB1877:
.LBB1875:
# /usr/include/c++/16/bits/stl_vector.h:409: 	this->_M_impl._M_end_of_storage = this->_M_impl._M_start + __n;
	.loc 2 409 59 view .LVU669
	mov	rdx, r14	# _5, _5
.LBE1875:
.LBE1877:
.LBE1893:
.LBB1894:
.LBB1890:
.LBB1888:
.LBB1886:
.LBB1885:
.LBB1884:
# /usr/include/c++/16/bits/stl_uninitialized.h:577: 		      __builtin_memset(__dest, (unsigned char)__x, __n);
	.loc 12 577 25 view .LVU670
	call	"memset"@PLT	#
.LVL138:
	.loc 12 577 25 view .LVU671
.LBE1884:
.LBE1885:
.LBE1886:
.LBE1888:
.LBE1890:
.LBE1894:
.LBE1849:
.LBB1896:
.LBI1896:
	.loc 2 128 2 is_stmt 1 view .LVU672
.LBB1897:
.LBB1898:
.LBI1898:
	.loc 2 105 2 view .LVU673
	.loc 2 105 2 is_stmt 0 view .LVU674
.LBE1898:
.LBB1899:
.LBI1899:
	.loc 2 119 2 is_stmt 1 view .LVU675
.LBE1899:
.LBE1897:
.LBE1896:
.LBE1848:
.LBE1921:
.LBE1925:
.LBE1929:
.LBE2536:
.LBB2537:
.LBB1982:
# /usr/include/c++/16/bits/vector.tcc:75:       if (this->capacity() < __n)
	.loc 7 75 7 is_stmt 0 discriminator 1 view .LVU676
	mov	rcx, QWORD PTR 8[rsp]	# SR.264, %sfp
	vmovss	xmm4, DWORD PTR 32[rsp]	# focus, %sfp
.LBE1982:
.LBE2537:
.LBB2538:
.LBB1930:
.LBB1926:
.LBB1922:
.LBB1918:
.LBB1906:
.LBB1904:
.LBB1902:
.LBB1900:
# /usr/include/c++/16/bits/stl_vector.h:122: 	  _M_finish = __x._M_finish;
	.loc 2 122 14 view .LVU677
	mov	QWORD PTR 24[rbx], r12	# MEM[(struct _Vector_impl_data *)output_221(D) + 16B]._M_finish, _614
# /usr/include/c++/16/bits/stl_vector.h:121: 	  _M_start = __x._M_start;
	.loc 2 121 13 view .LVU678
	mov	QWORD PTR 16[rbx], rax	# MEM[(struct _Vector_impl_data *)output_221(D) + 16B]._M_start,
.LBE1900:
.LBE1902:
.LBE1904:
.LBE1906:
.LBE1918:
.LBE1922:
.LBE1926:
.LBE1930:
.LBE2538:
.LBB2539:
.LBB1967:
# /usr/include/c++/16/bits/stl_vector.h:1109: 	ptrdiff_t __dif = this->_M_impl._M_finish - this->_M_impl._M_start;
	.loc 2 1109 34 view .LVU679
	mov	rax, QWORD PTR 8[rbp]	# _67, MEM[(const struct vector *)subapertures_218(D)].D.101674._M_impl.D.101021._M_finish
.LVL139:
	.loc 2 1109 34 view .LVU680
.LBE1967:
.LBE2539:
.LBB2540:
.LBB1931:
.LBB1927:
.LBB1923:
.LBB1919:
.LBB1907:
.LBB1905:
.LBB1903:
.LBB1901:
# /usr/include/c++/16/bits/stl_vector.h:123: 	  _M_end_of_storage = __x._M_end_of_storage;
	.loc 2 123 22 view .LVU681
	mov	QWORD PTR 32[rbx], r12	# MEM[(struct _Vector_impl_data *)output_221(D) + 16B]._M_end_of_storage, _614
.LVL140:
	.loc 2 123 22 view .LVU682
.LBE1901:
.LBE1903:
.LBE1905:
.LBE1907:
.LBB1908:
.LBI1908:
	.loc 2 790 7 is_stmt 1 view .LVU683
.LBB1909:
.LBI1909:
	.loc 2 307 7 view .LVU684
	.loc 2 307 7 is_stmt 0 view .LVU685
.LBE1909:
.LBB1910:
.LBI1910:
	.loc 8 1082 5 is_stmt 1 view .LVU686
	.loc 8 1082 5 is_stmt 0 view .LVU687
.LBE1910:
.LBB1911:
.LBI1911:
	.loc 2 373 7 is_stmt 1 view .LVU688
.LBB1912:
.LBB1913:
.LBI1913:
	.loc 2 394 7 view .LVU689
	.loc 2 394 7 is_stmt 0 view .LVU690
.LBE1913:
.LBE1912:
.LBB1914:
.LBI1914:
	.loc 2 139 14 is_stmt 1 view .LVU691
.LBB1915:
.LBI1915:
	.loc 5 189 7 view .LVU692
.LBB1916:
.LBI1916:
	.loc 6 104 7 view .LVU693
	.loc 6 104 7 is_stmt 0 view .LVU694
.LBE1916:
.LBE1915:
.LBE1914:
.LBE1911:
.LBE1908:
.LBE1919:
.LBE1923:
.LBE1927:
.LBE1931:
.LBE2540:
	.loc 1 35 5 is_stmt 1 view .LVU695
.LBB2541:
	.loc 2 551 7 view .LVU696
.LBB1962:
	.loc 2 321 7 view .LVU697
.LBB1956:
	.loc 2 143 2 view .LVU698
.LBB1949:
	.loc 5 168 7 view .LVU699
.LBB1938:
	.loc 6 88 7 view .LVU700
	.loc 6 88 7 is_stmt 0 view .LVU701
.LBE1938:
.LBE1949:
.LBB1950:
	.loc 2 105 2 is_stmt 1 view .LVU702
	.loc 2 105 2 is_stmt 0 view .LVU703
.LBE1950:
.LBE1956:
.LBE1962:
.LBE2541:
	.loc 1 36 5 is_stmt 1 view .LVU704
.LBB2542:
	.loc 2 1107 7 view .LVU705
	.loc 2 1107 7 is_stmt 0 view .LVU706
.LBE2542:
.LBB2543:
	.loc 7 70 5 is_stmt 1 view .LVU707
	.loc 7 70 5 is_stmt 0 view .LVU708
.LBE2543:
.LBB2544:
.LBB1968:
# /usr/include/c++/16/bits/stl_vector.h:1109: 	ptrdiff_t __dif = this->_M_impl._M_finish - this->_M_impl._M_start;
	.loc 2 1109 34 view .LVU709
	mov	QWORD PTR 16[rsp], rax	# %sfp, _67
.LBE1968:
.LBE2544:
.LBB2545:
.LBB1983:
# /usr/include/c++/16/bits/vector.tcc:75:       if (this->capacity() < __n)
	.loc 7 75 7 discriminator 1 view .LVU710
	sub	rax, rcx	# prephitmp_751, SR.264
.LVL141:
	.loc 7 75 7 discriminator 1 view .LVU711
	mov	QWORD PTR 80[rsp], rax	# %sfp, prephitmp_751
	jne	.L4	#,
.LBE1983:
.LBE2545:
.LBB2546:
.LBB1963:
.LBB1957:
.LBB1951:
.LBB1944:
# /usr/include/c++/16/bits/stl_vector.h:106: 	: _M_start(), _M_finish(), _M_end_of_storage()
	.loc 2 106 29 view .LVU712
	mov	QWORD PTR 32[rsp], 0	# %sfp,
.LVL142:
# /usr/include/c++/16/bits/stl_vector.h:106: 	: _M_start(), _M_finish(), _M_end_of_storage()
	.loc 2 106 4 view .LVU713
	xor	ebp, ebp	# __new_finish
.LVL143:
	.loc 2 106 4 view .LVU714
	jmp	.L8	#
.LVL144:
.L153:
	.loc 2 106 4 view .LVU715
.LBE1944:
.LBE1951:
.LBE1957:
.LBE1963:
.LBE2546:
.LBB2547:
	.loc 1 84 31 is_stmt 1 discriminator 5 view .LVU716
.LBE2547:
.LBB2548:
.LBB2432:
.LBB2408:
.LBB2403:
.LBB2397:
.LBB2391:
# /usr/include/c++/16/bits/stl_vector.h:389: 	return __n != 0 ? _Tr::allocate(_M_impl, __n) : pointer();
	.loc 2 389 58 is_stmt 0 discriminator 3 view .LVU717
	xor	r10d, r10d	# _851
.LBE2391:
.LBE2397:
.LBE2403:
.LBE2408:
.LBE2432:
.LBE2548:
.LBB2549:
# src/avx_analysis_code_ablations/opt7_5_abl_compiler_vec.cpp:84:     for (const SubParams& p : params) {
	.loc 1 84 31 discriminator 6 view .LVU718
	cmp	QWORD PTR 8[rsp], rbp	# %sfp, __new_finish
	jne	.L41	#,
.LVL145:
	.loc 1 84 31 discriminator 6 view .LVU719
.LBE2549:
.LBB2550:
	.loc 1 120 23 is_stmt 1 discriminator 2 view .LVU720
	test	r12d, r12d	# _943
	jg	.L30	#,
	jmp	.L28	#
.LVL146:
	.p2align 4,,10
	.p2align 3
.L152:
	.loc 1 120 23 is_stmt 0 discriminator 2 view .LVU721
.LBE2550:
.LBB2551:
.LBB2338:
.LBB2274:
.LBB2270:
.LBB2267:
.LBB2264:
.LBB2261:
.LBB2258:
.LBB2255:
	.loc 12 118 7 is_stmt 1 view .LVU722
	.loc 12 118 7 is_stmt 0 view .LVU723
.LBE2255:
.LBE2258:
.LBE2261:
.LBE2264:
.LBE2267:
.LBE2270:
.LBE2274:
.LBE2338:
.LBB2339:
	.loc 5 189 7 is_stmt 1 view .LVU724
.LBB2300:
	.loc 6 104 7 view .LVU725
	.loc 6 104 7 is_stmt 0 view .LVU726
.LBE2300:
.LBE2339:
	.loc 1 67 9 is_stmt 1 view .LVU727
.LBB2340:
.LBB2295:
	.loc 2 988 7 view .LVU728
.LBB2280:
	.loc 3 1058 7 view .LVU729
	.loc 3 1058 7 is_stmt 0 view .LVU730
.LBE2280:
.LBE2295:
.LBB2296:
	.loc 2 1008 7 is_stmt 1 view .LVU731
.LBB2283:
	.loc 3 1058 7 view .LVU732
	.loc 3 1058 7 is_stmt 0 view .LVU733
.LBE2283:
.LBE2296:
	.loc 1 67 35 is_stmt 1 discriminator 5 view .LVU734
.LBE2340:
.LBB2341:
.LBB2275:
.LBB2240:
.LBB2238:
.LBB2236:
.LBB2234:
# /usr/include/c++/16/bits/stl_vector.h:389: 	return __n != 0 ? _Tr::allocate(_M_impl, __n) : pointer();
	.loc 2 389 58 is_stmt 0 discriminator 3 view .LVU735
	xor	edi, edi	# _318
.LBE2234:
.LBE2236:
.LBE2238:
.LBE2240:
.LBE2275:
.LBE2341:
.LBB2342:
# src/avx_analysis_code_ablations/opt7_5_abl_compiler_vec.cpp:67:         for (const SubParams& p : params) {
	.loc 1 67 35 discriminator 6 view .LVU736
	cmp	QWORD PTR 8[rsp], rbp	# %sfp, __new_finish
	jne	.L24	#,
.LVL147:
	.loc 1 67 35 discriminator 6 view .LVU737
.LBE2342:
.LBB2343:
	.loc 1 73 27 is_stmt 1 discriminator 2 view .LVU738
	test	r12d, r12d	# _943
	jle	.L154	#,
	test	r15d, r15d	# _181
	jg	.L29	#,
.LVL148:
	.loc 1 73 27 is_stmt 0 discriminator 2 view .LVU739
.LBE2343:
.LBB2344:
.LBB2336:
.LBB2334:
	.loc 2 139 14 is_stmt 1 view .LVU740
.LBB2332:
	.loc 5 189 7 view .LVU741
.LBB2330:
	.loc 6 104 7 view .LVU742
	.loc 6 104 7 is_stmt 0 view .LVU743
.LBE2330:
.LBE2332:
.LBE2334:
.LBE2336:
.LBE2344:
.LBE2551:
	.loc 1 82 5 is_stmt 1 view .LVU744
.LBB2552:
	.loc 5 168 7 view .LVU745
.LBB2350:
	.loc 6 88 7 view .LVU746
	.loc 6 88 7 is_stmt 0 view .LVU747
.LBE2350:
.LBE2552:
.LBB2553:
	.loc 2 589 7 is_stmt 1 view .LVU748
.LBB2433:
	.loc 2 2203 7 view .LVU749
.LBB2367:
.LBB2363:
	.loc 5 172 7 view .LVU750
.LBB2357:
	.loc 6 92 7 view .LVU751
	.loc 6 92 7 is_stmt 0 view .LVU752
.LBE2357:
.LBE2363:
.LBB2364:
	.loc 5 189 7 is_stmt 1 view .LVU753
.LBB2361:
	.loc 6 104 7 view .LVU754
.LBE2361:
.LBE2364:
# /usr/include/c++/16/bits/stl_vector.h:2205: 	if (__n > _S_max_size(_Tp_alloc_type(__a)))
	.loc 2 2205 2 is_stmt 0 discriminator 3 view .LVU755
	cmp	rax, QWORD PTR 56[rsp]	# tmp418, %sfp
	jb	.L26	#,
.LVL149:
	.loc 2 2205 2 discriminator 3 view .LVU756
.LBE2367:
.LBE2433:
.LBB2434:
	.loc 2 339 7 is_stmt 1 view .LVU757
.LBB2409:
	.loc 2 152 2 view .LVU758
.LBB2377:
	.loc 5 172 7 view .LVU759
.LBB2374:
	.loc 6 92 7 view .LVU760
	.loc 6 92 7 is_stmt 0 view .LVU761
.LBE2374:
.LBE2377:
.LBB2378:
	.loc 2 105 2 is_stmt 1 view .LVU762
	.loc 2 105 2 is_stmt 0 view .LVU763
.LBE2378:
.LBE2409:
.LBB2410:
	.loc 2 405 7 is_stmt 1 view .LVU764
.LBB2404:
.LBB2398:
	.loc 2 386 7 view .LVU765
.LBB2392:
# /usr/include/c++/16/bits/stl_vector.h:389: 	return __n != 0 ? _Tr::allocate(_M_impl, __n) : pointer();
	.loc 2 389 18 is_stmt 0 view .LVU766
	cmp	QWORD PTR 48[rsp], 0	# %sfp,
	jne	.L27	#,
.LVL150:
.L30:
	.loc 2 389 18 view .LVU767
	mov	rax, QWORD PTR 40[rsp]	# _325, %sfp
.LBE2392:
.LBE2398:
# /usr/include/c++/16/bits/stl_vector.h:409: 	this->_M_impl._M_end_of_storage = this->_M_impl._M_start + __n;
	.loc 2 409 59 view .LVU768
	mov	QWORD PTR 48[rsp], 0	# %sfp,
.LBB2399:
.LBB2393:
# /usr/include/c++/16/bits/stl_vector.h:389: 	return __n != 0 ? _Tr::allocate(_M_impl, __n) : pointer();
	.loc 2 389 58 discriminator 3 view .LVU769
	xor	r10d, r10d	# _851
	lea	rdx, [rax+rax]	# tmp574,
	test	r15d, r15d	# _181
	jg	.L42	#,
	jmp	.L28	#
.LVL151:
	.p2align 4,,10
	.p2align 3
.L13:
	.loc 2 389 58 discriminator 3 view .LVU770
.LBE2393:
.LBE2399:
.LBE2404:
.LBE2410:
.LBE2434:
.LBE2553:
.LBB2554:
.LBB2128:
.LBB2122:
.LBB2120:
.LBB2019:
.LBI2019:
	.loc 7 565 7 is_stmt 1 view .LVU771
.LBB2020:
.LBB2021:
.LBI2021:
	.loc 2 2192 7 view .LVU772
.LBB2022:
.LBB2023:
.LBI2023:
	.loc 2 1107 7 view .LVU773
.LBB2024:
# /usr/include/c++/16/bits/stl_vector.h:1109: 	ptrdiff_t __dif = this->_M_impl._M_finish - this->_M_impl._M_start;
	.loc 2 1109 44 is_stmt 0 view .LVU774
	mov	rbp, QWORD PTR 32[rsp]	# _503, %sfp
# /usr/include/c++/16/bits/stl_vector.h:1109: 	ptrdiff_t __dif = this->_M_impl._M_finish - this->_M_impl._M_start;
	.loc 2 1109 12 view .LVU775
	movabs	rax, -6148914691236517205	# tmp390,
# /usr/include/c++/16/bits/stl_vector.h:1109: 	ptrdiff_t __dif = this->_M_impl._M_finish - this->_M_impl._M_start;
	.loc 2 1109 44 view .LVU776
	sub	rbp, QWORD PTR 8[rsp]	# _503, %sfp
.LVL152:
# /usr/include/c++/16/bits/stl_vector.h:1109: 	ptrdiff_t __dif = this->_M_impl._M_finish - this->_M_impl._M_start;
	.loc 2 1109 12 view .LVU777
	mov	rdx, rbp	# tmp388, _503
	sar	rdx, 4	# tmp388,
	imul	rdx, rax	# __dif_504, tmp390
.LVL153:
	.loc 2 1109 12 view .LVU778
.LBE2024:
.LBE2023:
# /usr/include/c++/16/bits/stl_vector.h:2194: 	if (max_size() - size() < __n)
	.loc 2 2194 2 discriminator 2 view .LVU779
	movabs	rax, 192153584101141162	# tmp391,
	cmp	rdx, rax	# __dif_504, tmp391
	je	.L142	#,
.LBB2025:
.LBB2026:
# /usr/include/c++/16/bits/stl_algobase.h:261:       if (__a < __b)
	.loc 10 261 7 view .LVU780
	test	rdx, rdx	# __dif_504
	mov	eax, 1	# tmp635,
	mov	QWORD PTR 144[rsp], rcx	# %sfp, SR.264
	cmovne	rax, rdx	# __dif_504,, _506
	mov	DWORD PTR 152[rsp], r10d	# %sfp, _21
	mov	DWORD PTR 140[rsp], esi	# %sfp, _16
.LBE2026:
.LBE2025:
# /usr/include/c++/16/bits/stl_vector.h:2197: 	const size_type __len = size() + (std::max)(size(), __n);
	.loc 2 2197 18 discriminator 3 view .LVU781
	add	rax, rdx	# __len_507, __dif_504
# /usr/include/c++/16/bits/stl_vector.h:2198: 	return (__len < size() || __len > max_size()) ? max_size() : __len;
	.loc 2 2198 25 discriminator 3 view .LVU782
	movabs	rdx, 192153584101141162	# tmp636,
	mov	DWORD PTR 120[rsp], r8d	# %sfp, _9
	cmp	rax, rdx	# __len_507, tmp636
	mov	DWORD PTR 116[rsp], r9d	# %sfp, _8
.LVL154:
.LBB2027:
.LBI2025:
	.loc 10 256 5 is_stmt 1 view .LVU783
	.loc 10 256 5 is_stmt 0 view .LVU784
.LBE2027:
.LBE2022:
.LBE2021:
.LBB2030:
.LBI2030:
	.loc 2 386 7 is_stmt 1 view .LVU785
.LBB2031:
.LBB2032:
.LBI2032:
	.loc 8 637 7 view .LVU786
.LBB2033:
.LBI2033:
	.loc 6 129 7 view .LVU787
	.loc 6 129 7 is_stmt 0 view .LVU788
.LBE2033:
.LBE2032:
.LBE2031:
.LBE2030:
.LBB2046:
.LBB2028:
# /usr/include/c++/16/bits/stl_vector.h:2198: 	return (__len < size() || __len > max_size()) ? max_size() : __len;
	.loc 2 2198 25 discriminator 3 view .LVU789
	cmova	rax, rdx	# __len_507,, __len_507, tmp636
	vmovss	DWORD PTR 156[rsp], xmm4	# %sfp, focus
	vmovss	DWORD PTR 136[rsp], xmm5	# %sfp, _15
.LBE2028:
.LBE2046:
.LBB2047:
.LBB2043:
.LBB2040:
.LBB2037:
.LBB2034:
# /usr/include/c++/16/bits/new_allocator.h:162: 	  return static_cast<_Tp*>(_GLIBCXX_OPERATOR_NEW(__n * sizeof(_Tp)));
	.loc 6 162 68 view .LVU790
	lea	rax, [rax+rax*2]	# _524,
	vmovss	DWORD PTR 132[rsp], xmm0	# %sfp, _14
	sal	rax, 4	# _524,
	vmovss	DWORD PTR 128[rsp], xmm1	# %sfp, _13
	mov	rdi, rax	#, tmp398
	mov	QWORD PTR 96[rsp], rax	# %sfp, tmp398
	vmovss	DWORD PTR 124[rsp], xmm2	# %sfp, _12
.LEHB4:
	call	"_Znwm"@PLT	#
.LVL155:
.LEHE4:
	.loc 6 162 68 view .LVU791
.LBE2034:
.LBE2037:
.LBE2040:
.LBE2043:
.LBE2047:
.LBB2048:
.LBB2049:
.LBB2050:
.LBB2051:
# /usr/include/c++/16/bits/new_allocator.h:203: 	{ ::new((void *)__p) _Up(std::forward<_Args>(__args)...); }
	.loc 6 203 4 discriminator 1 view .LVU792
	vmovss	xmm0, DWORD PTR 132[rsp]	# _14, %sfp
	vmovss	xmm2, DWORD PTR 124[rsp]	# _12, %sfp
.LBE2051:
.LBE2050:
.LBE2049:
.LBB2064:
.LBB2065:
.LBB2066:
# /usr/include/c++/16/bits/stl_uninitialized.h:1382:       if (__count > 0)
	.loc 12 1382 7 view .LVU793
	test	rbp, rbp	# _503
.LBE2066:
.LBE2065:
.LBE2064:
.LBE2048:
.LBB2113:
.LBB2044:
.LBB2041:
.LBB2038:
.LBB2035:
# /usr/include/c++/16/bits/new_allocator.h:162: 	  return static_cast<_Tp*>(_GLIBCXX_OPERATOR_NEW(__n * sizeof(_Tp)));
	.loc 6 162 68 view .LVU794
	mov	QWORD PTR 88[rsp], rax	# %sfp, _525
.LVL156:
	.loc 6 162 68 view .LVU795
.LBE2035:
.LBE2038:
.LBE2041:
.LBE2044:
.LBE2113:
.LBB2114:
.LBB2076:
.LBI2076:
	.loc 2 1865 2 is_stmt 1 view .LVU796
	.loc 2 1865 2 is_stmt 0 view .LVU797
.LBE2076:
.LBB2077:
.LBI2049:
	.loc 8 705 2 is_stmt 1 view .LVU798
.LBB2058:
.LBI2050:
	.loc 6 201 2 view .LVU799
.LBB2052:
# /usr/include/c++/16/bits/new_allocator.h:203: 	{ ::new((void *)__p) _Up(std::forward<_Args>(__args)...); }
	.loc 6 203 4 is_stmt 0 discriminator 1 view .LVU800
	mov	r9d, DWORD PTR 116[rsp]	# _8, %sfp
	mov	r8d, DWORD PTR 120[rsp]	# _9, %sfp
	mov	DWORD PTR 28[rax+rbp], r13d	# _512->x_end, _332
.LBE2052:
.LBE2058:
.LBE2077:
.LBE2114:
.LBB2115:
.LBB2045:
.LBB2042:
.LBB2039:
.LBB2036:
# /usr/include/c++/16/bits/new_allocator.h:162: 	  return static_cast<_Tp*>(_GLIBCXX_OPERATOR_NEW(__n * sizeof(_Tp)));
	.loc 6 162 68 view .LVU801
	mov	rdi, rax	# _525,
.LBE2036:
.LBE2039:
.LBE2042:
.LBE2045:
.LBE2115:
.LBB2116:
.LBB2078:
.LBB2059:
.LBB2053:
# /usr/include/c++/16/bits/new_allocator.h:203: 	{ ::new((void *)__p) _Up(std::forward<_Args>(__args)...); }
	.loc 6 203 4 discriminator 1 view .LVU802
	vinsertps	xmm0, xmm0, DWORD PTR 136[rsp], 0x10	# tmp401, _14, %sfp
	vinsertps	xmm2, xmm2, DWORD PTR 128[rsp], 0x10	# tmp402, _12, %sfp
	mov	DWORD PTR 36[rax+rbp], r14d	# _512->y_end, _333
.LBE2053:
.LBE2059:
.LBE2078:
.LBB2079:
.LBB2071:
.LBB2067:
# /usr/include/c++/16/bits/stl_uninitialized.h:1382:       if (__count > 0)
	.loc 12 1382 7 view .LVU803
	mov	r11d, 0	# tmp578,
.LBE2067:
.LBE2071:
.LBE2079:
.LBB2080:
.LBB2060:
.LBB2054:
# /usr/include/c++/16/bits/new_allocator.h:203: 	{ ::new((void *)__p) _Up(std::forward<_Args>(__args)...); }
	.loc 6 203 4 discriminator 1 view .LVU804
	mov	esi, DWORD PTR 140[rsp]	# _16, %sfp
	mov	r10d, DWORD PTR 152[rsp]	# _21, %sfp
	mov	DWORD PTR [rax+rbp], r9d	# _512->sx, _8
	mov	rdx, QWORD PTR 80[rsp]	# _228, %sfp
	vmovlhps	xmm2, xmm2, xmm0	# _674, tmp402, tmp401
.LBE2054:
.LBE2060:
.LBE2080:
.LBB2081:
.LBB2072:
.LBB2068:
# /usr/include/c++/16/bits/stl_uninitialized.h:1382:       if (__count > 0)
	.loc 12 1382 7 view .LVU805
	mov	rcx, QWORD PTR 144[rsp]	# SR.264, %sfp
.LBE2068:
.LBE2072:
.LBE2081:
.LBB2082:
.LBB2061:
.LBB2055:
# /usr/include/c++/16/bits/new_allocator.h:203: 	{ ::new((void *)__p) _Up(std::forward<_Args>(__args)...); }
	.loc 6 203 4 discriminator 1 view .LVU806
	mov	DWORD PTR 4[rax+rbp], r8d	# _512->sy, _9
	mov	DWORD PTR 24[rax+rbp], esi	# _512->x_begin, _16
.LBE2055:
.LBE2061:
.LBE2082:
.LBB2083:
.LBB2073:
.LBB2069:
# /usr/include/c++/16/bits/stl_uninitialized.h:1382:       if (__count > 0)
	.loc 12 1382 7 view .LVU807
	vmovss	xmm4, DWORD PTR 156[rsp]	# focus, %sfp
.LBE2069:
.LBE2073:
.LBE2083:
.LBB2084:
.LBB2062:
.LBB2056:
# /usr/include/c++/16/bits/new_allocator.h:203: 	{ ::new((void *)__p) _Up(std::forward<_Args>(__args)...); }
	.loc 6 203 4 discriminator 1 view .LVU808
	mov	DWORD PTR 32[rax+rbp], r10d	# _512->y_begin, _21
	mov	QWORD PTR 40[rax+rbp], rdx	# MEM <const unsigned char *> [(struct SubParams *)_512 + 40B], _228
.LVL157:
	.loc 6 203 4 discriminator 1 view .LVU809
.LBE2056:
.LBE2062:
.LBE2084:
.LBB2085:
.LBI2064:
	.loc 12 1404 5 is_stmt 1 view .LVU810
.LBB2074:
.LBI2065:
	.loc 12 1377 5 view .LVU811
	.loc 12 1377 5 is_stmt 0 view .LVU812
.LBE2074:
.LBE2085:
.LBB2086:
.LBB2063:
.LBB2057:
# /usr/include/c++/16/bits/new_allocator.h:203: 	{ ::new((void *)__p) _Up(std::forward<_Args>(__args)...); }
	.loc 6 203 4 discriminator 1 view .LVU813
	vmovups	XMMWORD PTR 8[rax+rbp], xmm2	# MEM <vector(4) float> [(float *)_512 + 8B], _674
.LBE2057:
.LBE2063:
.LBE2086:
.LBB2087:
.LBB2075:
.LBB2070:
# /usr/include/c++/16/bits/stl_uninitialized.h:1382:       if (__count > 0)
	.loc 12 1382 7 view .LVU814
	je	.L15	#,
# /usr/include/c++/16/bits/stl_uninitialized.h:1394: 	  __builtin_memcpy(__result, __first, __count * sizeof(_Tp));
	.loc 12 1394 20 view .LVU815
	mov	rsi, QWORD PTR 8[rsp]	#, %sfp
	mov	rdx, rbp	#, _503
	mov	QWORD PTR 80[rsp], rcx	# %sfp, SR.264
	vmovss	DWORD PTR 116[rsp], xmm4	# %sfp, focus
.LVL158:
	.loc 12 1394 20 view .LVU816
	call	"memcpy"@PLT	#
.LVL159:
	.loc 12 1394 20 view .LVU817
	vmovss	xmm4, DWORD PTR 116[rsp]	# focus, %sfp
	mov	rcx, QWORD PTR 80[rsp]	# SR.264, %sfp
	xor	r11d, r11d	# tmp578
.L15:
.LVL160:
	.loc 12 1394 20 view .LVU818
.LBE2070:
.LBE2075:
.LBE2087:
# /usr/include/c++/16/bits/vector.tcc:610: 	    ++__new_finish;
	.loc 7 610 6 view .LVU819
	mov	rax, QWORD PTR 88[rsp]	# _525, %sfp
	lea	rbp, 48[rax+rbp]	# __new_finish,
.LVL161:
.LBB2088:
.LBI2088:
	.loc 2 1870 2 is_stmt 1 view .LVU820
.LBB2089:
# /usr/include/c++/16/bits/stl_vector.h:1872: 	  if (_M_storage)
	.loc 2 1872 4 is_stmt 0 view .LVU821
	mov	rax, QWORD PTR 8[rsp]	# params$_M_start, %sfp
	test	rax, rax	# params$_M_start
	je	.L16	#,
.LBE2089:
.LBE2088:
# /usr/include/c++/16/bits/vector.tcc:648: 	__guard._M_len = this->_M_impl._M_end_of_storage - __old_start;
	.loc 7 648 51 view .LVU822
	mov	rsi, QWORD PTR 32[rsp]	# params$_M_end_of_storage, %sfp
.LBB2111:
.LBB2109:
.LBB2090:
.LBB2091:
.LBB2092:
.LBB2093:
.LBB2094:
.LBB2095:
.LBB2096:
# /usr/include/c++/16/bits/new_allocator.h:183: 	_GLIBCXX_OPERATOR_DELETE(_GLIBCXX_SIZED_DEALLOC(__p, __n));
	.loc 6 183 59 view .LVU823
	mov	rdi, rax	#, params$_M_start
	mov	QWORD PTR 8[rsp], rcx	# %sfp, SR.264
.LVL162:
	.loc 6 183 59 view .LVU824
.LBE2096:
.LBE2095:
.LBE2094:
.LBE2093:
.LBE2092:
.LBE2091:
.LBI2090:
	.loc 2 394 7 is_stmt 1 view .LVU825
.LBB2106:
.LBB2104:
.LBI2092:
	.loc 2 394 7 view .LVU826
.LBB2102:
.LBB2100:
.LBI2094:
	.loc 8 688 7 view .LVU827
.LBB2098:
.LBI2095:
	.loc 6 167 7 view .LVU828
	vmovss	DWORD PTR 80[rsp], xmm4	# %sfp, focus
.LBE2098:
.LBE2100:
.LBE2102:
.LBE2104:
.LBE2106:
.LBE2090:
.LBE2109:
.LBE2111:
# /usr/include/c++/16/bits/vector.tcc:648: 	__guard._M_len = this->_M_impl._M_end_of_storage - __old_start;
	.loc 7 648 51 is_stmt 0 view .LVU829
	sub	rsi, rax	# params$_M_end_of_storage, params$_M_start
.LBB2112:
.LBB2110:
.LBB2108:
.LBB2107:
.LBB2105:
.LBB2103:
.LBB2101:
.LBB2099:
.LBB2097:
# /usr/include/c++/16/bits/new_allocator.h:183: 	_GLIBCXX_OPERATOR_DELETE(_GLIBCXX_SIZED_DEALLOC(__p, __n));
	.loc 6 183 59 view .LVU830
	call	"_ZdlPvm"@PLT	#
.LVL163:
	.loc 6 183 59 view .LVU831
	vmovss	xmm4, DWORD PTR 80[rsp]	# focus, %sfp
	mov	rcx, QWORD PTR 8[rsp]	# SR.264, %sfp
.LVL164:
	.loc 6 183 59 view .LVU832
	xor	r11d, r11d	# tmp578
.LVL165:
.L16:
	.loc 6 183 59 view .LVU833
.LBE2097:
.LBE2099:
.LBE2101:
.LBE2103:
.LBE2105:
.LBE2107:
.LBE2108:
.LBE2110:
.LBE2112:
.LBE2116:
# /usr/include/c++/16/bits/vector.tcc:655:       this->_M_impl._M_end_of_storage = __new_start + __len;
	.loc 7 655 53 view .LVU834
	mov	rdx, QWORD PTR 88[rsp]	# _525, %sfp
	mov	rax, QWORD PTR 96[rsp]	# tmp398, %sfp
	add	rax, rdx	# tmp398, _525
.LVL166:
# /usr/include/c++/16/bits/vector.tcc:653:       this->_M_impl._M_start = __new_start;
	.loc 7 653 30 view .LVU835
	mov	QWORD PTR 8[rsp], rdx	# %sfp, _525
# /usr/include/c++/16/bits/vector.tcc:655:       this->_M_impl._M_end_of_storage = __new_start + __len;
	.loc 7 655 53 view .LVU836
	mov	QWORD PTR 32[rsp], rax	# %sfp, tmp398
.LVL167:
	.loc 7 655 53 view .LVU837
	jmp	.L12	#
.LVL168:
.L43:
	.loc 7 655 53 view .LVU838
.LBE2020:
.LBE2019:
.LBE2120:
.LBE2122:
.LBE2128:
.LBE2554:
.LBB2555:
	.loc 1 120 23 is_stmt 1 discriminator 2 view .LVU839
	test	r12d, r12d	# _943
	jle	.L72	#,
	mov	rax, QWORD PTR 40[rsp]	# _325, %sfp
	lea	rdx, [rax+rax]	# tmp574,
	test	r15d, r15d	# _181
	jg	.L42	#,
	jmp	.L72	#
.LVL169:
	.p2align 4,,10
	.p2align 3
.L31:
	.loc 1 120 23 is_stmt 0 discriminator 2 view .LVU840
.LBE2555:
.LBB2556:
.LBB2345:
	.loc 1 73 27 is_stmt 1 discriminator 2 view .LVU841
	test	r12d, r12d	# _943
	jle	.L35	#,
	test	r15d, r15d	# _181
	jg	.L29	#,
	jmp	.L35	#
.LVL170:
.L76:
	.loc 1 73 27 is_stmt 0 discriminator 2 view .LVU842
.LBE2345:
.LBE2556:
.LBB2557:
# src/avx_analysis_code_ablations/opt7_5_abl_compiler_vec.cpp:38:     for (SubApertureImage& sub : subapertures) {
	.loc 1 38 34 discriminator 6 view .LVU843
	mov	QWORD PTR 8[rsp], rbp	# %sfp, __new_finish
	jmp	.L9	#
.LVL171:
.L154:
	.loc 1 38 34 discriminator 6 view .LVU844
.LBE2557:
.LBB2558:
.LBB2346:
.LBB2337:
.LBB2335:
	.loc 2 139 14 is_stmt 1 view .LVU845
.LBB2333:
	.loc 5 189 7 view .LVU846
.LBB2331:
	.loc 6 104 7 view .LVU847
	.loc 6 104 7 is_stmt 0 view .LVU848
.LBE2331:
.LBE2333:
.LBE2335:
.LBE2337:
.LBE2346:
.LBE2558:
	.loc 1 82 5 is_stmt 1 view .LVU849
.LBB2559:
	.loc 5 168 7 view .LVU850
.LBB2351:
	.loc 6 88 7 view .LVU851
	.loc 6 88 7 is_stmt 0 view .LVU852
.LBE2351:
.LBE2559:
.LBB2560:
	.loc 2 589 7 is_stmt 1 view .LVU853
.LBB2435:
	.loc 2 2203 7 view .LVU854
.LBB2368:
.LBB2365:
	.loc 5 172 7 view .LVU855
.LBB2358:
	.loc 6 92 7 view .LVU856
	.loc 6 92 7 is_stmt 0 view .LVU857
.LBE2358:
.LBE2365:
.LBB2366:
	.loc 5 189 7 is_stmt 1 view .LVU858
.LBB2362:
	.loc 6 104 7 view .LVU859
.LBE2362:
.LBE2366:
# /usr/include/c++/16/bits/stl_vector.h:2205: 	if (__n > _S_max_size(_Tp_alloc_type(__a)))
	.loc 2 2205 2 is_stmt 0 discriminator 3 view .LVU860
	cmp	rax, QWORD PTR 56[rsp]	# tmp418, %sfp
	jb	.L26	#,
.LVL172:
	.loc 2 2205 2 discriminator 3 view .LVU861
.LBE2368:
.LBE2435:
.LBB2436:
	.loc 2 339 7 is_stmt 1 view .LVU862
.LBB2411:
	.loc 2 152 2 view .LVU863
.LBB2379:
	.loc 5 172 7 view .LVU864
.LBB2375:
	.loc 6 92 7 view .LVU865
	.loc 6 92 7 is_stmt 0 view .LVU866
.LBE2375:
.LBE2379:
.LBB2380:
	.loc 2 105 2 is_stmt 1 view .LVU867
	.loc 2 105 2 is_stmt 0 view .LVU868
.LBE2380:
.LBE2411:
.LBB2412:
	.loc 2 405 7 is_stmt 1 view .LVU869
.LBB2405:
.LBB2400:
	.loc 2 386 7 view .LVU870
.LBB2394:
# /usr/include/c++/16/bits/stl_vector.h:389: 	return __n != 0 ? _Tr::allocate(_M_impl, __n) : pointer();
	.loc 2 389 18 is_stmt 0 view .LVU871
	cmp	QWORD PTR 48[rsp], 0	# %sfp,
	jne	.L27	#,
	jmp	.L28	#
.LVL173:
.L87:
	.loc 2 389 18 view .LVU872
	mov	rbp, rax	# tmp564, tmp604
	vzeroupper
.LVL174:
	jmp	.L21	#
.LVL175:
.L137:
	.loc 2 389 18 view .LVU873
	jmp	.L138	#
.LVL176:
.L139:
	.loc 2 389 18 view .LVU874
	jmp	.L140	#
.LVL177:
.L135:
	.loc 2 389 18 view .LVU875
	jmp	.L136	#
.LVL178:
	.loc 2 389 18 view .LVU876
.LBE2394:
.LBE2400:
.LBE2405:
.LBE2412:
.LBE2436:
.LBE2560:
	.section	.gcc_except_table,"a",@progbits
.LLSDA4421:
	.byte	0xff
	.byte	0xff
	.byte	0x1
	.uleb128 .LLSDACSE4421-.LLSDACSB4421
.LLSDACSB4421:
	.uleb128 .LEHB0-.LFB4421
	.uleb128 .LEHE0-.LEHB0
	.uleb128 .L135-.LFB4421
	.uleb128 0
	.uleb128 .LEHB1-.LFB4421
	.uleb128 .LEHE1-.LEHB1
	.uleb128 .L87-.LFB4421
	.uleb128 0
	.uleb128 .LEHB2-.LFB4421
	.uleb128 .LEHE2-.LEHB2
	.uleb128 .L137-.LFB4421
	.uleb128 0
	.uleb128 .LEHB3-.LFB4421
	.uleb128 .LEHE3-.LEHB3
	.uleb128 .L135-.LFB4421
	.uleb128 0
	.uleb128 .LEHB4-.LFB4421
	.uleb128 .LEHE4-.LEHB4
	.uleb128 .L139-.LFB4421
	.uleb128 0
.LLSDACSE4421:
	.text
	.cfi_endproc
	.section	.text.unlikely
	.cfi_startproc
	.cfi_personality 0x9b,"DW.ref.__gxx_personality_v0"
	.cfi_lsda 0x1b,.LLSDAC4421
	.type	"_Z21refocus_shift_and_sumRSt6vectorI16SubApertureImageSaIS0_EEf.cold", @function
"_Z21refocus_shift_and_sumRSt6vectorI16SubApertureImageSaIS0_EEf.cold":
.LFSB4421:
.LBB2561:
.LBB2437:
.LBB2413:
.LBB2406:
.LBB2401:
.LBB2395:
.L143:
	.cfi_def_cfa_offset 224
	.cfi_offset 3, -56
	.cfi_offset 6, -48
	.cfi_offset 12, -40
	.cfi_offset 13, -32
	.cfi_offset 14, -24
	.cfi_offset 15, -16
.LBE2395:
.LBE2401:
.LBE2406:
.LBE2413:
.LBE2437:
.LBE2561:
.LBB2562:
.LBB2202:
.LBB2158:
# /usr/include/c++/16/bits/stl_vector.h:2206: 	  __throw_length_error(
	.loc 2 2206 24 view -0
	lea	rdi, .LC0[rip]	#,
.LEHB5:
	call	"_ZSt20__throw_length_errorPKc"@PLT	#
.LVL179:
.LEHE5:
.L26:
	.loc 2 2206 24 view .LVU878
.LBE2158:
.LBE2202:
.LBE2562:
.LBB2563:
.LBB2438:
.LBB2369:
	lea	rdi, .LC0[rip]	#,
.LEHB6:
	call	"_ZSt20__throw_length_errorPKc"@PLT	#
.LVL180:
.LEHE6:
.L142:
	.loc 2 2206 24 view .LVU879
.LBE2369:
.LBE2438:
.LBE2563:
.LBB2564:
.LBB2129:
.LBB2123:
.LBB2121:
.LBB2119:
.LBB2118:
.LBB2117:
.LBB2029:
# /usr/include/c++/16/bits/stl_vector.h:2195: 	  __throw_length_error(__N(__s));
	.loc 2 2195 24 view .LVU880
	lea	rdi, .LC2[rip]	#,
.LEHB7:
	call	"_ZSt20__throw_length_errorPKc"@PLT	#
.LVL181:
.LEHE7:
.L141:
	.loc 2 2195 24 view .LVU881
.LBE2029:
.LBE2117:
.LBE2118:
.LBE2119:
.LBE2121:
.LBE2123:
.LBE2129:
.LBE2564:
.LBB2565:
.LBB1932:
.LBB1928:
.LBB1924:
.LBB1920:
.LBB1917:
.LBB1895:
.LBB1856:
# /usr/include/c++/16/bits/stl_vector.h:2206: 	  __throw_length_error(
	.loc 2 2206 24 view .LVU882
	lea	rdi, .LC0[rip]	#,
.LVL182:
.LEHB8:
	.loc 2 2206 24 view .LVU883
	call	"_ZSt20__throw_length_errorPKc"@PLT	#
.LVL183:
.LEHE8:
.L144:
	.loc 2 2206 24 view .LVU884
.LBE1856:
.LBE1895:
.LBE1917:
.LBE1920:
.LBE1924:
.LBE1928:
.LBE1932:
.LBE2565:
.LBB2566:
.LBB2347:
.LBB2276:
.LBB2215:
	lea	rdi, .LC0[rip]	#,
.LEHB9:
	call	"_ZSt20__throw_length_errorPKc"@PLT	#
.LVL184:
.LEHE9:
.L85:
	.loc 2 2206 24 view .LVU885
.LBE2215:
.LBE2276:
.LBE2347:
.LBE2566:
.LBB2567:
.LBB2568:
.LBB2569:
.LBB2570:
.LBB2571:
# /usr/include/c++/16/bits/stl_vector.h:397: 	if (__p)
	.loc 2 397 2 view .LVU886
	mov	rbp, rax	# tmp564, tmp609
	vzeroupper
.LVL185:
.L21:
	.loc 2 397 2 view .LVU887
.LBE2571:
.LBE2570:
.LBE2569:
.LBE2568:
.LBI2567:
	.loc 2 790 7 is_stmt 1 view .LVU888
.LBB2589:
.LBI2589:
	.loc 2 307 7 view .LVU889
	.loc 2 307 7 is_stmt 0 view .LVU890
.LBE2589:
.LBB2590:
.LBI2590:
	.loc 8 1082 5 is_stmt 1 view .LVU891
	.loc 8 1082 5 is_stmt 0 view .LVU892
.LBE2590:
.LBB2591:
.LBI2568:
	.loc 2 373 7 is_stmt 1 view .LVU893
.LBB2585:
.LBB2583:
.LBI2570:
	.loc 2 394 7 view .LVU894
.LBB2581:
# /usr/include/c++/16/bits/stl_vector.h:397: 	if (__p)
	.loc 2 397 2 is_stmt 0 view .LVU895
	cmp	QWORD PTR 8[rsp], 0	# %sfp,
	je	.L69	#,
.LVL186:
.LBB2572:
.LBI2572:
	.loc 2 394 7 is_stmt 1 view .LVU896
.LBB2573:
.LBB2574:
.LBI2574:
	.loc 8 688 7 view .LVU897
.LBB2575:
.LBI2575:
	.loc 6 167 7 view .LVU898
.LBE2575:
.LBE2574:
.LBE2573:
.LBE2572:
.LBE2581:
.LBE2583:
# /usr/include/c++/16/bits/stl_vector.h:375: 	ptrdiff_t __n = _M_impl._M_end_of_storage - _M_impl._M_start;
	.loc 2 375 44 is_stmt 0 view .LVU899
	mov	rsi, QWORD PTR 32[rsp]	# params$_M_end_of_storage, %sfp
	mov	rdi, QWORD PTR 8[rsp]	# params$_M_start, %sfp
	sub	rsi, rdi	# params$_M_end_of_storage, params$_M_start
.LBB2584:
.LBB2582:
.LBB2580:
.LBB2579:
.LBB2578:
.LBB2577:
.LBB2576:
# /usr/include/c++/16/bits/new_allocator.h:183: 	_GLIBCXX_OPERATOR_DELETE(_GLIBCXX_SIZED_DEALLOC(__p, __n));
	.loc 6 183 59 view .LVU900
	call	"_ZdlPvm"@PLT	#
.LVL187:
	.loc 6 183 59 view .LVU901
.LBE2576:
.LBE2577:
.LBE2578:
.LBE2579:
.LBE2580:
.LBE2582:
.LBE2584:
.LBE2585:
.LBB2586:
.LBI2586:
	.loc 2 139 14 is_stmt 1 view .LVU902
.LBB2587:
.LBI2587:
	.loc 5 189 7 view .LVU903
.LBB2588:
.LBI2588:
	.loc 6 104 7 view .LVU904
.L69:
	.loc 6 104 7 is_stmt 0 view .LVU905
.LBE2588:
.LBE2587:
.LBE2586:
.LBE2591:
.LBE2567:
.LBB2592:
.LBI2592:
	.loc 4 11 8 is_stmt 1 view .LVU906
.LBB2593:
.LBI2593:
	.loc 2 790 7 view .LVU907
.LBB2594:
.LBI2594:
	.loc 2 307 7 view .LVU908
	.loc 2 307 7 is_stmt 0 view .LVU909
.LBE2594:
.LBB2595:
.LBI2595:
	.loc 8 1082 5 is_stmt 1 view .LVU910
	.loc 8 1082 5 is_stmt 0 view .LVU911
.LBE2595:
.LBB2596:
.LBI2596:
	.loc 2 373 7 is_stmt 1 view .LVU912
.LBB2597:
# /usr/include/c++/16/bits/stl_vector.h:375: 	ptrdiff_t __n = _M_impl._M_end_of_storage - _M_impl._M_start;
	.loc 2 375 54 is_stmt 0 view .LVU913
	mov	rdi, QWORD PTR 16[rbx]	# _391, MEM[(struct _Vector_base *)output_221(D) + 16B]._M_impl.D.86136._M_start
.LVL188:
.LBB2598:
.LBI2598:
	.loc 2 394 7 is_stmt 1 view .LVU914
.LBB2599:
# /usr/include/c++/16/bits/stl_vector.h:397: 	if (__p)
	.loc 2 397 2 is_stmt 0 view .LVU915
	test	rdi, rdi	# _391
	je	.L70	#,
.LVL189:
.LBB2600:
.LBI2600:
	.loc 8 688 7 is_stmt 1 view .LVU916
.LBB2601:
.LBI2601:
	.loc 6 167 7 view .LVU917
.LBE2601:
.LBE2600:
.LBE2599:
.LBE2598:
# /usr/include/c++/16/bits/stl_vector.h:375: 	ptrdiff_t __n = _M_impl._M_end_of_storage - _M_impl._M_start;
	.loc 2 375 12 is_stmt 0 view .LVU918
	mov	rsi, QWORD PTR 32[rbx]	# MEM[(struct _Vector_base *)output_221(D) + 16B]._M_impl.D.86136._M_end_of_storage, MEM[(struct _Vector_base *)output_221(D) + 16B]._M_impl.D.86136._M_end_of_storage
	sub	rsi, rdi	# __n_392, _391
.LBB2606:
.LBB2605:
.LBB2604:
.LBB2603:
.LBB2602:
# /usr/include/c++/16/bits/new_allocator.h:183: 	_GLIBCXX_OPERATOR_DELETE(_GLIBCXX_SIZED_DEALLOC(__p, __n));
	.loc 6 183 59 view .LVU919
	call	"_ZdlPvm"@PLT	#
.LVL190:
.L70:
	.loc 6 183 59 view .LVU920
.LBE2602:
.LBE2603:
.LBE2604:
.LBE2605:
.LBE2606:
.LBE2597:
.LBB2607:
.LBI2607:
	.loc 2 139 14 is_stmt 1 view .LVU921
.LBB2608:
.LBI2608:
	.loc 5 189 7 view .LVU922
.LBB2609:
.LBI2609:
	.loc 6 104 7 view .LVU923
	.loc 6 104 7 is_stmt 0 view .LVU924
	mov	rdi, rbp	#, tmp569
.LEHB10:
	call	"_Unwind_Resume"@PLT	#
.LVL191:
.LEHE10:
.L86:
.L138:
	.loc 6 104 7 view .LVU925
.LBE2609:
.LBE2608:
.LBE2607:
.LBE2596:
.LBE2593:
.LBE2592:
.LBB2613:
.LBB2614:
.LBB2615:
.LBB2616:
.LBB2617:
# /usr/include/c++/16/bits/stl_vector.h:397: 	if (__p)
	.loc 2 397 2 view .LVU926
	mov	rbp, rax	# tmp607,
.LBE2617:
.LBE2616:
.LBE2615:
.LBE2614:
.LBI2613:
	.loc 2 790 7 is_stmt 1 view .LVU927
.LVL192:
.LBB2627:
.LBI2627:
	.loc 2 307 7 view .LVU928
	.loc 2 307 7 is_stmt 0 view .LVU929
.LBE2627:
.LBB2628:
.LBI2628:
	.loc 8 1082 5 is_stmt 1 view .LVU930
	.loc 8 1082 5 is_stmt 0 view .LVU931
.LBE2628:
.LBB2629:
.LBI2614:
	.loc 2 373 7 is_stmt 1 view .LVU932
.LBB2623:
.LBB2622:
.LBI2616:
	.loc 2 394 7 view .LVU933
.LBB2621:
# /usr/include/c++/16/bits/stl_vector.h:397: 	if (__p)
	.loc 2 397 2 is_stmt 0 view .LVU934
	test	r13, r13	# _437
	je	.L148	#,
.LVL193:
.LBB2618:
.LBI2618:
	.loc 8 688 7 is_stmt 1 view .LVU935
.LBB2619:
.LBI2619:
	.loc 6 167 7 view .LVU936
.LBB2620:
# /usr/include/c++/16/bits/new_allocator.h:183: 	_GLIBCXX_OPERATOR_DELETE(_GLIBCXX_SIZED_DEALLOC(__p, __n));
	.loc 6 183 59 is_stmt 0 view .LVU937
	mov	rsi, QWORD PTR 88[rsp]	#, %sfp
	mov	rdi, r13	#, _437
	vzeroupper
.LVL194:
	call	"_ZdlPvm"@PLT	#
.LVL195:
	.loc 6 183 59 view .LVU938
.LBE2620:
.LBE2619:
.LBE2618:
.LBE2621:
.LBE2622:
.LBE2623:
.LBB2624:
.LBI2624:
	.loc 2 139 14 is_stmt 1 view .LVU939
.LBB2625:
.LBI2625:
	.loc 5 189 7 view .LVU940
.LBB2626:
.LBI2626:
	.loc 6 104 7 view .LVU941
	.loc 6 104 7 is_stmt 0 view .LVU942
	jmp	.L21	#
.LVL196:
.L88:
.L140:
	.loc 6 104 7 view .LVU943
	mov	rbp, rax	# tmp564, tmp608
	vzeroupper
.LVL197:
	jmp	.L21	#
.LVL198:
.L84:
.L136:
	.loc 6 104 7 view .LVU944
.LBE2626:
.LBE2625:
.LBE2624:
.LBE2629:
.LBE2613:
.LBB2630:
.LBB2612:
.LBB2611:
.LBB2610:
# /usr/include/c++/16/bits/stl_vector.h:375: 	ptrdiff_t __n = _M_impl._M_end_of_storage - _M_impl._M_start;
	.loc 2 375 54 view .LVU945
	mov	rbp, rax	# tmp569, tmp610
.LVL199:
	.loc 2 375 54 view .LVU946
	vzeroupper
.LVL200:
	jmp	.L69	#
.LVL201:
.L148:
	.loc 2 375 54 view .LVU947
	vzeroupper
.LVL202:
	jmp	.L21	#
.LBE2610:
.LBE2611:
.LBE2612:
.LBE2630:
	.cfi_endproc
.LFE4421:
	.section	.gcc_except_table
.LLSDAC4421:
	.byte	0xff
	.byte	0xff
	.byte	0x1
	.uleb128 .LLSDACSEC4421-.LLSDACSBC4421
.LLSDACSBC4421:
	.uleb128 .LEHB5-.LCOLDB7
	.uleb128 .LEHE5-.LEHB5
	.uleb128 .L85-.LCOLDB7
	.uleb128 0
	.uleb128 .LEHB6-.LCOLDB7
	.uleb128 .LEHE6-.LEHB6
	.uleb128 .L86-.LCOLDB7
	.uleb128 0
	.uleb128 .LEHB7-.LCOLDB7
	.uleb128 .LEHE7-.LEHB7
	.uleb128 .L88-.LCOLDB7
	.uleb128 0
	.uleb128 .LEHB8-.LCOLDB7
	.uleb128 .LEHE8-.LEHB8
	.uleb128 .L84-.LCOLDB7
	.uleb128 0
	.uleb128 .LEHB9-.LCOLDB7
	.uleb128 .LEHE9-.LEHB9
	.uleb128 .L86-.LCOLDB7
	.uleb128 0
	.uleb128 .LEHB10-.LCOLDB7
	.uleb128 .LEHE10-.LEHB10
	.uleb128 0
	.uleb128 0
.LLSDACSEC4421:
	.section	.text.unlikely
	.text
	.size	"_Z21refocus_shift_and_sumRSt6vectorI16SubApertureImageSaIS0_EEf", .-"_Z21refocus_shift_and_sumRSt6vectorI16SubApertureImageSaIS0_EEf"
	.section	.text.unlikely
	.size	"_Z21refocus_shift_and_sumRSt6vectorI16SubApertureImageSaIS0_EEf.cold", .-"_Z21refocus_shift_and_sumRSt6vectorI16SubApertureImageSaIS0_EEf.cold"
.LCOLDE7:
	.text
.LHOTE7:
	.section	.rodata.cst4,"aM",@progbits,4
	.align 4
.LC1:
	.long	1065353216
	.align 4
.LC3:
	.long	-1090519040
	.align 4
.LC4:
	.long	1056964608
	.align 4
.LC5:
	.long	1132396544
	.text
.Letext0:
	.section	.text.unlikely
.Letext_cold0:
	.file 14 "/usr/include/c++/16/cwchar"
	.file 15 "/usr/include/x86_64-linux-gnu/c++/16/bits/c++config.h"
	.file 16 "/usr/include/c++/16/type_traits"
	.file 17 "/usr/include/c++/16/bits/exception_ptr.h"
	.file 18 "/usr/include/c++/16/clocale"
	.file 19 "/usr/include/c++/16/bits/stl_iterator_base_types.h"
	.file 20 "/usr/include/c++/16/debug/debug.h"
	.file 21 "/usr/include/c++/16/cstdlib"
	.file 22 "/usr/include/c++/16/cstdio"
	.file 23 "/usr/include/c++/16/cstddef"
	.file 24 "/usr/include/c++/16/cstdint"
	.file 25 "/usr/include/c++/16/ctime"
	.file 26 "/usr/include/c++/16/bits/chrono.h"
	.file 27 "/usr/include/c++/16/system_error"
	.file 28 "/usr/include/c++/16/bits/fs_fwd.h"
	.file 29 "/usr/include/c++/16/bits/fs_path.h"
	.file 30 "/usr/include/c++/16/cwctype"
	.file 31 "/usr/include/c++/16/bits/shared_ptr_base.h"
	.file 32 "/usr/include/c++/16/initializer_list"
	.file 33 "/usr/include/c++/16/bits/new_throw.h"
	.file 34 "/usr/include/c++/16/bits/stdexcept_throwfwd.h"
	.file 35 "/usr/include/c++/16/bits/ptr_traits.h"
	.file 36 "/usr/lib/gcc/x86_64-linux-gnu/16/include/stddef.h"
	.file 37 "<built-in>"
	.file 38 "/usr/include/x86_64-linux-gnu/bits/types/wint_t.h"
	.file 39 "/usr/include/x86_64-linux-gnu/bits/types/__mbstate_t.h"
	.file 40 "/usr/include/x86_64-linux-gnu/bits/types/mbstate_t.h"
	.file 41 "/usr/include/x86_64-linux-gnu/bits/types/__FILE.h"
	.file 42 "/usr/include/x86_64-linux-gnu/bits/types/struct_FILE.h"
	.file 43 "/usr/include/x86_64-linux-gnu/bits/types/FILE.h"
	.file 44 "/usr/include/wchar.h"
	.file 45 "/usr/include/x86_64-linux-gnu/bits/types/struct_tm.h"
	.file 46 "/usr/include/c++/16/ext/alloc_traits.h"
	.file 47 "/usr/include/locale.h"
	.file 48 "/usr/include/x86_64-linux-gnu/bits/types.h"
	.file 49 "/usr/include/stdlib.h"
	.file 50 "/usr/include/x86_64-linux-gnu/bits/types/clock_t.h"
	.file 51 "/usr/include/x86_64-linux-gnu/bits/types/time_t.h"
	.file 52 "/usr/include/x86_64-linux-gnu/bits/stdint-intn.h"
	.file 53 "/usr/include/x86_64-linux-gnu/bits/types/struct_timespec.h"
	.file 54 "/usr/include/x86_64-linux-gnu/bits/stdlib-float.h"
	.file 55 "/usr/include/x86_64-linux-gnu/bits/stdlib-bsearch.h"
	.file 56 "/usr/include/x86_64-linux-gnu/bits/types/__fpos_t.h"
	.file 57 "/usr/include/stdio.h"
	.file 58 "/usr/include/x86_64-linux-gnu/bits/stdio.h"
	.file 59 "/usr/include/x86_64-linux-gnu/bits/stdint-uintn.h"
	.file 60 "/usr/include/x86_64-linux-gnu/bits/stdint-least.h"
	.file 61 "/usr/include/stdint.h"
	.file 62 "/usr/include/time.h"
	.file 63 "/usr/include/x86_64-linux-gnu/bits/wctype-wchar.h"
	.file 64 "/usr/include/wctype.h"
	.file 65 "/usr/include/math.h"
	.file 66 "/usr/include/c++/16/pstl/execution_defs.h"
	.file 67 "/usr/include/c++/16/new"
	.file 68 "/usr/include/c++/16/bits/memory_resource.h"
	.file 69 "/usr/include/c++/16/string_view"
	.file 70 "/usr/include/c++/16/ext/concurrence.h"
	.section	.data.rel.local.DW.ref.__gxx_personality_v0,"awG",@progbits,DW.ref.__gxx_personality_v0,comdat
	.align 8
	.type	"DW.ref.__gxx_personality_v0", @object
	.size	"DW.ref.__gxx_personality_v0", 8
"DW.ref.__gxx_personality_v0":
	.quad	"__gxx_personality_v0"
	.globl	"__gxx_personality_v0"
	.ident	"GCC: (Debian 16-20260425-1) 16.0.1 20260425 (prerelease) [gcc-16 r16-8812-gd9c07462a22]"
	.section	.note.GNU-stack,"",@progbits
