	.file	"opt9_abl_hand_vec_no_tile.cpp"
	.intel_syntax noprefix
# GNU C++17 (Debian 16-20260425-1) version 16.0.1 20260425 (prerelease) [gcc-16 r16-8812-gd9c07462a22] (x86_64-linux-gnu)
#	compiled by GNU C version 16.0.1 20260425 (prerelease) [gcc-16 r16-8812-gd9c07462a22], GMP version 6.3.0, MPFR version 4.2.2, MPC version 1.3.1, isl version isl-0.27-GMP

# GGC heuristics: --param ggc-min-expand=30 --param ggc-min-heapsize=4096
# options passed: -march=tigerlake -mmmx -mpopcnt -msse -msse2 -msse3 -mssse3 -msse4.1 -msse4.2 -mavx -mno-sse4a -mno-fma4 -mno-xop -mavx512f -mbmi -mbmi2 -maes -mpclmul -mavx512vl -mavx512bw -mavx512dq -mavx512cd -mavx512vbmi -mavx512ifma -mavx512vpopcntdq -mavx512vbmi2 -mgfni -mvpclmulqdq -mavx512vnni -mavx512bitalg -mno-avx512bf16 -mavx512vp2intersect -mno-3dnow -madx -mabm -mno-cldemote -mclflushopt -mclwb -mno-clzero -mcx16 -mno-enqcmd -mf16c -mfsgsbase -mfxsr -mno-hle -msahf -mno-lwp -mlzcnt -mmovbe -mmovdir64b -mmovdiri -mno-mwaitx -mno-pconfig -mpku -mprfchw -mno-ptwrite -mrdpid -mrdrnd -mrdseed -mno-rtm -mno-serialize -mno-sgx -msha -mshstk -mno-tbm -mno-tsxldtrk -mvaes -mno-waitpkg -mno-wbnoinvd -mxsave -mxsavec -mxsaveopt -mxsaves -mno-amx-tile -mno-amx-int8 -mno-amx-bf16 -mno-uintr -mno-hreset -mno-kl -mno-widekl -mno-avxvnni -mno-avx512fp16 -mno-avxifma -mno-avxvnniint8 -mno-avxneconvert -mno-cmpccxadd -mno-amx-fp16 -mno-prefetchi -mno-raoint -mno-amx-complex -mno-avxvnniint16 -mno-sm3 -mno-sha512 -mno-sm4 -mno-apxf -mno-usermsr -mno-avx10.1 -mno-avx10.2 -mno-amx-avx512 -mno-amx-tf32 -mno-amx-fp8 -mno-movrs -mno-amx-movrs -mno-avx512bmm --param=l1-cache-size=48 --param=l1-cache-line-size=64 --param=l2-cache-size=8192 -mtune=tigerlake -mavx2 -mfma -masm=intel -g -O3 -std=c++17 -ffast-math -fasynchronous-unwind-tables
	.text
.Ltext0:
	.file 0 "/home/team15/tomasz-worktree-dir/cpp_refocus" "src/avx_analysis_code_ablations/opt9_abl_hand_vec_no_tile.cpp"
	.section	.rodata.str1.8,"aMS",@progbits,1
	.align 8
.LC0:
	.string	"cannot create std::vector larger than max_size()"
	.section	.rodata.str1.1,"aMS",@progbits,1
.LC2:
	.string	"vector::_M_realloc_append"
	.section	.text.unlikely,"ax",@progbits
.LCOLDB4:
	.text
.LHOTB4:
	.p2align 4
	.section	.text.unlikely
.Ltext_cold0:
	.text
	.globl	"_Z21refocus_shift_and_sumRSt6vectorI16SubApertureImageSaIS0_EEf"
	.type	"_Z21refocus_shift_and_sumRSt6vectorI16SubApertureImageSaIS0_EEf", @function
"_Z21refocus_shift_and_sumRSt6vectorI16SubApertureImageSaIS0_EEf":
.LVL0:
.LFB11707:
	.file 1 "src/avx_analysis_code_ablations/opt9_abl_hand_vec_no_tile.cpp"
	.loc 1 33 91 view -0
	.cfi_startproc
	.cfi_personality 0x9b,"DW.ref.__gxx_personality_v0"
	.cfi_lsda 0x1b,.LLSDA11707
	.loc 1 33 91 is_stmt 0 view .LVU1
	push	rbp	#
	.cfi_def_cfa_offset 16
	.cfi_offset 6, -16
	vmovaps	xmm4, xmm0	# focus, focus
.LBB2006:
.LBB2007:
.LBB2008:
.LBB2009:
.LBB2010:
.LBB2011:
# /usr/include/c++/16/bits/stl_vector.h:106: 	: _M_start(), _M_finish(), _M_end_of_storage()
	.file 2 "/usr/include/c++/16/bits/stl_vector.h"
	.loc 2 106 4 view .LVU2
	vpxor	xmm1, xmm1, xmm1	# tmp784
.LBE2011:
.LBE2010:
.LBE2009:
.LBE2008:
.LBE2007:
.LBE2006:
# src/avx_analysis_code_ablations/opt9_abl_hand_vec_no_tile.cpp:33: ImageData refocus_shift_and_sum(std::vector<SubApertureImage>& subapertures, float focus) {
	.loc 1 33 91 view .LVU3
	mov	rbp, rsp	#,
	.cfi_def_cfa_register 6
	push	r15	#
	push	r14	#
	push	r13	#
	push	r12	#
	push	rbx	#
	.cfi_offset 15, -24
	.cfi_offset 14, -32
	.cfi_offset 13, -40
	.cfi_offset 12, -48
	.cfi_offset 3, -56
	mov	rbx, rsi	# subapertures, subapertures
	and	rsp, -32	#,
	sub	rsp, 256	#,
.LBB2023:
.LBB2024:
.LBB2025:
.LBB2026:
# /usr/include/c++/16/bits/stl_iterator.h:1059:       : _M_current(__i) { }
	.file 3 "/usr/include/c++/16/bits/stl_iterator.h"
	.loc 3 1059 9 view .LVU4
	mov	rcx, QWORD PTR [rsi]	# SR.270, MEM[(struct SubApertureImage * const &)subapertures_185(D)]
.LBE2026:
.LBE2025:
.LBE2024:
.LBE2023:
# src/avx_analysis_code_ablations/opt9_abl_hand_vec_no_tile.cpp:33: ImageData refocus_shift_and_sum(std::vector<SubApertureImage>& subapertures, float focus) {
	.loc 1 33 91 view .LVU5
	mov	QWORD PTR 72[rsp], rdi	# %sfp, <retval>
	.loc 1 34 5 is_stmt 1 view .LVU6
.LVL1:
.LBB2029:
.LBI2023:
	.loc 2 1334 7 view .LVU7
	.loc 2 1336 2 discriminator 2 view .LVU8
.LBB2028:
.LBI2024:
	.loc 2 988 7 view .LVU9
.LBB2027:
.LBI2025:
	.loc 3 1058 7 view .LVU10
	.loc 3 1058 7 is_stmt 0 view .LVU11
.LBE2027:
.LBE2028:
.LBE2029:
# src/avx_analysis_code_ablations/opt9_abl_hand_vec_no_tile.cpp:34:     const size_t width  = subapertures.front().data.width;
	.loc 1 34 53 discriminator 1 view .LVU12
	vmovdqu	xmm0, XMMWORD PTR [rcx]	# MEM <vector(2) long unsigned int> [(long unsigned int *)_319], MEM <vector(2) long unsigned int> [(long unsigned int *)_319]
.LVL2:
.LBB2030:
.LBB2021:
.LBB2019:
.LBB2017:
.LBB2013:
.LBB2012:
# /usr/include/c++/16/bits/stl_vector.h:106: 	: _M_start(), _M_finish(), _M_end_of_storage()
	.loc 2 106 29 view .LVU13
	mov	QWORD PTR 32[rdi], 0	# MEM[(struct _Vector_impl_data *)output_189(D) + 16B]._M_end_of_storage,
# /usr/include/c++/16/bits/stl_vector.h:106: 	: _M_start(), _M_finish(), _M_end_of_storage()
	.loc 2 106 4 view .LVU14
	vmovdqu	XMMWORD PTR 16[rdi], xmm1	# MEM <vector(2) long unsigned int> [(unsigned char * *)output_189(D) + 16B], tmp784
	vmovq	rax, xmm0	# _629, MEM <vector(2) long unsigned int> [(long unsigned int *)_319]
.LBE2012:
.LBE2013:
.LBE2017:
.LBE2019:
.LBE2021:
.LBE2030:
# src/avx_analysis_code_ablations/opt9_abl_hand_vec_no_tile.cpp:40:     output.width = width;
	.loc 1 40 18 view .LVU15
	vmovdqu	XMMWORD PTR [rdi], xmm0	# MEM <vector(2) long unsigned int> [(long unsigned int *)output_189(D)], MEM <vector(2) long unsigned int> [(long unsigned int *)_319]
# src/avx_analysis_code_ablations/opt9_abl_hand_vec_no_tile.cpp:42:     output.data.assign(width * height * 3, 0);
	.loc 1 42 30 view .LVU16
	vpextrq	rdi, xmm0, 1	# _500, MEM <vector(2) long unsigned int> [(long unsigned int *)_319]
.LVL3:
	.loc 1 42 30 view .LVU17
	vpextrq	QWORD PTR 208[rsp], xmm0, 1	# %sfp, MEM <vector(2) long unsigned int> [(long unsigned int *)_319]
	mov	rsi, rax	# _641, _629
.LVL4:
	.loc 1 42 30 view .LVU18
	vmovq	QWORD PTR 120[rsp], xmm0	# %sfp, _629
.LVL5:
	.loc 1 35 5 is_stmt 1 view .LVU19
.LBB2031:
.LBI2031:
	.loc 2 1334 7 view .LVU20
	.loc 2 1336 2 discriminator 2 view .LVU21
.LBB2032:
.LBI2032:
	.loc 2 988 7 view .LVU22
.LBB2033:
.LBI2033:
	.loc 3 1058 7 view .LVU23
	.loc 3 1058 7 is_stmt 0 view .LVU24
.LBE2033:
.LBE2032:
.LBE2031:
	.loc 1 36 5 is_stmt 1 view .LVU25
	.loc 1 37 5 view .LVU26
	.loc 1 39 5 view .LVU27
.LBB2034:
.LBI2006:
	.file 4 "include/utils.hpp"
	.loc 4 11 8 view .LVU28
.LBB2022:
.LBI2007:
	.loc 2 551 7 view .LVU29
.LBB2020:
.LBI2008:
	.loc 2 321 7 view .LVU30
.LBB2018:
.LBI2009:
	.loc 2 143 2 view .LVU31
.LBB2014:
.LBI2014:
	.file 5 "/usr/include/c++/16/bits/allocator.h"
	.loc 5 168 7 view .LVU32
.LBB2015:
.LBI2015:
	.file 6 "/usr/include/c++/16/bits/new_allocator.h"
	.loc 6 88 7 view .LVU33
	.loc 6 88 7 is_stmt 0 view .LVU34
.LBE2015:
.LBE2014:
.LBB2016:
.LBI2010:
	.loc 2 105 2 is_stmt 1 view .LVU35
	.loc 2 105 2 is_stmt 0 view .LVU36
.LBE2016:
.LBE2018:
.LBE2020:
.LBE2022:
.LBE2034:
	.loc 1 40 5 is_stmt 1 view .LVU37
	.loc 1 41 5 view .LVU38
	.loc 1 42 5 view .LVU39
# src/avx_analysis_code_ablations/opt9_abl_hand_vec_no_tile.cpp:42:     output.data.assign(width * height * 3, 0);
	.loc 1 42 30 is_stmt 0 view .LVU40
	imul	rsi, rdi	# _641, _500
# src/avx_analysis_code_ablations/opt9_abl_hand_vec_no_tile.cpp:42:     output.data.assign(width * height * 3, 0);
	.loc 1 42 23 view .LVU41
	lea	rdx, [rsi+rsi]	# tmp1491,
# src/avx_analysis_code_ablations/opt9_abl_hand_vec_no_tile.cpp:42:     output.data.assign(width * height * 3, 0);
	.loc 1 42 30 view .LVU42
	mov	QWORD PTR 80[rsp], rsi	# %sfp, _641
# src/avx_analysis_code_ablations/opt9_abl_hand_vec_no_tile.cpp:42:     output.data.assign(width * height * 3, 0);
	.loc 1 42 23 view .LVU43
	mov	QWORD PTR 184[rsp], rdx	# %sfp, tmp1491
	add	rdx, rsi	# _5, _641
	mov	QWORD PTR 224[rsp], rdx	# %sfp, _5
.LVL6:
.LBB2035:
.LBI2035:
	.loc 2 865 7 is_stmt 1 view .LVU44
.LBB2036:
.LBI2036:
	.file 7 "/usr/include/c++/16/bits/vector.tcc"
	.loc 7 274 5 view .LVU45
.LBB2037:
.LBB2038:
# /usr/include/c++/16/bits/vector.tcc:278:       if (__n > capacity())
	.loc 7 278 7 is_stmt 0 discriminator 1 view .LVU46
	test	rsi, rsi	# _641
	jne	.L2	#,
.LVL7:
	.loc 7 278 7 discriminator 1 view .LVU47
.LBE2038:
.LBE2037:
.LBE2036:
.LBE2035:
	.loc 1 45 5 is_stmt 1 view .LVU48
.LBB2122:
.LBI2122:
	.loc 2 551 7 view .LVU49
.LBB2123:
.LBI2123:
	.loc 2 321 7 view .LVU50
.LBB2124:
.LBI2124:
	.loc 2 143 2 view .LVU51
.LBB2125:
.LBI2125:
	.loc 5 168 7 view .LVU52
.LBB2126:
.LBI2126:
	.loc 6 88 7 view .LVU53
	.loc 6 88 7 is_stmt 0 view .LVU54
.LBE2126:
.LBE2125:
.LBB2128:
.LBI2128:
	.loc 2 105 2 is_stmt 1 view .LVU55
	.loc 2 105 2 is_stmt 0 view .LVU56
.LBE2128:
.LBE2124:
.LBE2123:
.LBE2122:
	.loc 1 46 5 is_stmt 1 view .LVU57
.LBB2157:
.LBI2157:
	.loc 2 1107 7 view .LVU58
.LBB2158:
# /usr/include/c++/16/bits/stl_vector.h:1109: 	ptrdiff_t __dif = this->_M_impl._M_finish - this->_M_impl._M_start;
	.loc 2 1109 34 is_stmt 0 view .LVU59
	mov	rsi, QWORD PTR 8[rbx]	# _704, MEM[(const struct vector *)subapertures_185(D)].D.139286._M_impl.D.138633._M_finish
.LVL8:
	.loc 2 1109 34 view .LVU60
.LBE2158:
.LBE2157:
.LBB2162:
.LBI2162:
	.loc 7 70 5 is_stmt 1 view .LVU61
.LBB2163:
# /usr/include/c++/16/bits/vector.tcc:75:       if (this->capacity() < __n)
	.loc 7 75 7 is_stmt 0 discriminator 1 view .LVU62
	mov	rdx, rsi	# _616, _704
.LBE2163:
.LBE2162:
.LBB2177:
.LBB2159:
# /usr/include/c++/16/bits/stl_vector.h:1109: 	ptrdiff_t __dif = this->_M_impl._M_finish - this->_M_impl._M_start;
	.loc 2 1109 34 view .LVU63
	mov	QWORD PTR 248[rsp], rsi	# %sfp, _704
.LBE2159:
.LBE2177:
.LBB2178:
.LBB2174:
# /usr/include/c++/16/bits/vector.tcc:75:       if (this->capacity() < __n)
	.loc 7 75 7 discriminator 1 view .LVU64
	sub	rdx, rcx	# _616, SR.270
.LVL9:
	.loc 7 75 7 discriminator 1 view .LVU65
	mov	QWORD PTR 56[rsp], rdx	# %sfp, _616
	je	.L157	#,
.LVL10:
.L4:
.LBB2164:
.LBB2165:
.LBB2166:
.LBB2167:
.LBB2168:
.LBB2169:
# /usr/include/c++/16/bits/new_allocator.h:162: 	  return static_cast<_Tp*>(_GLIBCXX_OPERATOR_NEW(__n * sizeof(_Tp)));
	.loc 6 162 68 view .LVU66
	mov	rbx, QWORD PTR 56[rsp]	# _616, %sfp
.LVL11:
	.loc 6 162 68 view .LVU67
	mov	QWORD PTR 216[rsp], rcx	# %sfp, SR.270
.LVL12:
	.loc 6 162 68 view .LVU68
.LBE2169:
.LBE2168:
.LBE2167:
.LBE2166:
.LBI2165:
	.loc 2 386 7 is_stmt 1 view .LVU69
.LBB2173:
.LBB2172:
.LBI2167:
	.file 8 "/usr/include/c++/16/bits/alloc_traits.h"
	.loc 8 637 7 view .LVU70
.LBB2171:
.LBI2168:
	.loc 6 129 7 view .LVU71
	.loc 6 129 7 is_stmt 0 view .LVU72
	vmovss	DWORD PTR 200[rsp], xmm4	# %sfp, focus
.LBB2170:
# /usr/include/c++/16/bits/new_allocator.h:162: 	  return static_cast<_Tp*>(_GLIBCXX_OPERATOR_NEW(__n * sizeof(_Tp)));
	.loc 6 162 68 view .LVU73
	mov	rdi, rbx	#, _616
.LEHB0:
	call	"_Znwm"@PLT	#
.LVL13:
.LEHE0:
	mov	rcx, QWORD PTR 216[rsp]	# SR.270, %sfp
	vmovss	xmm4, DWORD PTR 200[rsp]	# focus, %sfp
	mov	QWORD PTR 128[rsp], rax	# %sfp, __new_finish
.LVL14:
	.loc 6 162 68 view .LVU74
.LBE2170:
.LBE2171:
.LBE2172:
.LBE2173:
.LBE2165:
# /usr/include/c++/16/bits/vector.tcc:101: 	  this->_M_impl._M_end_of_storage = this->_M_impl._M_start + __n;
	.loc 7 101 61 view .LVU75
	add	rax, rbx	# params$_M_end_of_storage, _616
.LVL15:
	.loc 7 101 61 view .LVU76
	mov	QWORD PTR 240[rsp], rax	# %sfp, params$_M_end_of_storage
.LVL16:
.L8:
	.loc 7 101 61 view .LVU77
.LBE2164:
.LBE2174:
.LBE2178:
# src/avx_analysis_code_ablations/opt9_abl_hand_vec_no_tile.cpp:36:     const int w = static_cast<int>(width);
	.loc 1 36 15 view .LVU78
	mov	r15d, DWORD PTR 120[rsp]	# _1, %sfp
# src/avx_analysis_code_ablations/opt9_abl_hand_vec_no_tile.cpp:37:     const int h = static_cast<int>(height);
	.loc 1 37 15 view .LVU79
	mov	r13d, DWORD PTR 208[rsp]	# _2, %sfp
.LVL17:
	.loc 1 47 5 is_stmt 1 view .LVU80
.LBB2179:
.LBB2180:
.LBI2180:
	.loc 2 988 7 view .LVU81
.LBB2181:
.LBI2181:
	.loc 3 1058 7 view .LVU82
	.loc 3 1058 7 is_stmt 0 view .LVU83
.LBE2181:
.LBE2180:
.LBB2183:
.LBI2183:
	.loc 2 1008 7 is_stmt 1 view .LVU84
.LBB2184:
.LBI2184:
	.loc 3 1058 7 view .LVU85
	.loc 3 1058 7 is_stmt 0 view .LVU86
.LBE2184:
.LBE2183:
	.loc 1 47 22 is_stmt 1 discriminator 5 view .LVU87
# src/avx_analysis_code_ablations/opt9_abl_hand_vec_no_tile.cpp:47:     for (auto& sub : subapertures) {
	.loc 1 47 22 is_stmt 0 discriminator 6 view .LVU88
	cmp	rcx, QWORD PTR 248[rsp]	# SR.270, %sfp
	je	.L74	#,
.LVL18:
.L5:
	.loc 1 47 22 discriminator 6 view .LVU89
.LBE2179:
.LBB2326:
.LBB2150:
.LBB2143:
.LBB2135:
.LBB2129:
# /usr/include/c++/16/bits/stl_vector.h:106: 	: _M_start(), _M_finish(), _M_end_of_storage()
	.loc 2 106 29 view .LVU90
	mov	rax, QWORD PTR 128[rsp]	# __new_finish, %sfp
.LBE2129:
.LBE2135:
.LBE2143:
.LBE2150:
.LBE2326:
.LBB2327:
.LBB2186:
# src/avx_analysis_code_ablations/opt9_abl_hand_vec_no_tile.cpp:59:         p.x_begin = std::max(0, -p.sx);
	.loc 1 59 33 view .LVU91
	xor	r10d, r10d	# tmp1493
.LBE2186:
.LBE2327:
.LBB2328:
.LBB2151:
.LBB2144:
.LBB2136:
.LBB2130:
# /usr/include/c++/16/bits/stl_vector.h:106: 	: _M_start(), _M_finish(), _M_end_of_storage()
	.loc 2 106 29 view .LVU92
	mov	QWORD PTR 112[rsp], rax	# %sfp, __new_finish
	.p2align 4,,10
	.p2align 3
.L17:
.LVL19:
	.loc 2 106 29 view .LVU93
.LBE2130:
.LBE2136:
.LBE2144:
.LBE2151:
.LBE2328:
.LBB2329:
.LBB2319:
	.loc 1 48 9 is_stmt 1 view .LVU94
	.loc 1 49 9 view .LVU95
# src/avx_analysis_code_ablations/opt9_abl_hand_vec_no_tile.cpp:49:         float shift_x = focus * sub.u;
	.loc 1 49 15 is_stmt 0 view .LVU96
	vmulss	xmm3, xmm4, DWORD PTR 40[rcx]	# shift_x, focus, MEM[(float *)SR.270_672 + 40B]
.LVL20:
	.loc 1 50 9 is_stmt 1 view .LVU97
# src/avx_analysis_code_ablations/opt9_abl_hand_vec_no_tile.cpp:60:         p.x_end   = std::min(w, w - p.sx - 1);
	.loc 1 60 35 is_stmt 0 view .LVU98
	mov	ebx, r15d	# _19, _1
# src/avx_analysis_code_ablations/opt9_abl_hand_vec_no_tile.cpp:62:         p.y_end   = std::min(h, h - p.sy - 1);
	.loc 1 62 35 view .LVU99
	mov	r14d, r13d	# _24, _2
# src/avx_analysis_code_ablations/opt9_abl_hand_vec_no_tile.cpp:50:         float shift_y = focus * sub.v;
	.loc 1 50 15 view .LVU100
	vmulss	xmm2, xmm4, DWORD PTR 44[rcx]	# shift_y, focus, MEM[(float *)SR.270_672 + 44B]
.LVL21:
	.loc 1 51 9 is_stmt 1 view .LVU101
.LBB2187:
.LBI2187:
	.file 9 "/usr/include/c++/16/cmath"
	.loc 9 264 3 view .LVU102
.LBB2188:
	.loc 9 265 5 view .LVU103
# /usr/include/c++/16/cmath:265:   { return __builtin_floorf(__x); }
	.loc 9 265 28 is_stmt 0 view .LVU104
	vrndscaless	xmm0, xmm3, xmm3, 9	# _329, shift_x,
.LVL22:
	.loc 9 265 28 view .LVU105
.LBE2188:
.LBE2187:
# src/avx_analysis_code_ablations/opt9_abl_hand_vec_no_tile.cpp:51:         p.sx = static_cast<int>(std::floor(shift_x));
	.loc 1 51 16 discriminator 1 view .LVU106
	vcvttss2si	r9d, xmm0	# _9, _329
.LVL23:
	.loc 1 52 9 is_stmt 1 view .LVU107
.LBB2189:
.LBI2189:
	.loc 9 264 3 view .LVU108
.LBB2190:
	.loc 9 265 5 view .LVU109
# /usr/include/c++/16/cmath:265:   { return __builtin_floorf(__x); }
	.loc 9 265 28 is_stmt 0 view .LVU110
	vrndscaless	xmm1, xmm2, xmm2, 9	# _328, shift_y,
.LVL24:
	.loc 9 265 28 view .LVU111
.LBE2190:
.LBE2189:
# src/avx_analysis_code_ablations/opt9_abl_hand_vec_no_tile.cpp:52:         p.sy = static_cast<int>(std::floor(shift_y));
	.loc 1 52 16 discriminator 1 view .LVU112
	vcvttss2si	r8d, xmm1	# _10, _328
.LVL25:
	.loc 1 53 9 is_stmt 1 view .LVU113
	.loc 1 54 9 view .LVU114
	.loc 1 55 9 view .LVU115
	.loc 1 56 9 view .LVU116
	.loc 1 57 9 view .LVU117
	.loc 1 58 9 view .LVU118
	.loc 1 59 9 view .LVU119
.LBB2191:
.LBI2191:
	.file 10 "/usr/include/c++/16/bits/stl_algobase.h"
	.loc 10 256 5 view .LVU120
.LBE2191:
# src/avx_analysis_code_ablations/opt9_abl_hand_vec_no_tile.cpp:59:         p.x_begin = std::max(0, -p.sx);
	.loc 1 59 33 is_stmt 0 view .LVU121
	mov	esi, r9d	# tmp1492, _9
	neg	esi	# tmp1492
	test	r9d, r9d	# _9
# src/avx_analysis_code_ablations/opt9_abl_hand_vec_no_tile.cpp:61:         p.y_begin = std::max(0, -p.sy);
	.loc 1 61 33 view .LVU122
	mov	r11d, r8d	# tmp1494, _10
# src/avx_analysis_code_ablations/opt9_abl_hand_vec_no_tile.cpp:59:         p.x_begin = std::max(0, -p.sx);
	.loc 1 59 33 view .LVU123
	cmovns	esi, r10d	# tmp1492,, _17, tmp1493
.LVL26:
	.loc 1 60 9 is_stmt 1 view .LVU124
.LBB2192:
.LBI2192:
	.loc 10 232 5 view .LVU125
.LBE2192:
# src/avx_analysis_code_ablations/opt9_abl_hand_vec_no_tile.cpp:60:         p.x_end   = std::min(w, w - p.sx - 1);
	.loc 1 60 35 is_stmt 0 view .LVU126
	sub	ebx, r9d	# _19, _9
# src/avx_analysis_code_ablations/opt9_abl_hand_vec_no_tile.cpp:60:         p.x_end   = std::min(w, w - p.sx - 1);
	.loc 1 60 42 view .LVU127
	dec	ebx	# _20
.LBB2194:
.LBB2193:
# /usr/include/c++/16/bits/stl_algobase.h:237:       if (__b < __a)
	.loc 10 237 7 view .LVU128
	cmp	ebx, r15d	# _20, _1
	cmovg	ebx, r15d	# _20,, _6, _1
.LVL27:
	.loc 10 237 7 view .LVU129
.LBE2193:
.LBE2194:
	.loc 1 61 9 is_stmt 1 view .LVU130
.LBB2195:
.LBI2195:
	.loc 10 256 5 view .LVU131
.LBE2195:
# src/avx_analysis_code_ablations/opt9_abl_hand_vec_no_tile.cpp:61:         p.y_begin = std::max(0, -p.sy);
	.loc 1 61 33 is_stmt 0 view .LVU132
	neg	r11d	# tmp1494
	test	r8d, r8d	# _10
	cmovns	r11d, r10d	# tmp1494,, _21, tmp1493
	.loc 1 62 9 is_stmt 1 view .LVU133
.LVL28:
.LBB2196:
.LBI2196:
	.loc 10 232 5 view .LVU134
.LBE2196:
# src/avx_analysis_code_ablations/opt9_abl_hand_vec_no_tile.cpp:62:         p.y_end   = std::min(h, h - p.sy - 1);
	.loc 1 62 35 is_stmt 0 view .LVU135
	sub	r14d, r8d	# _24, _10
# src/avx_analysis_code_ablations/opt9_abl_hand_vec_no_tile.cpp:62:         p.y_end   = std::min(h, h - p.sy - 1);
	.loc 1 62 42 view .LVU136
	dec	r14d	# _25
.LBB2198:
.LBB2197:
# /usr/include/c++/16/bits/stl_algobase.h:237:       if (__b < __a)
	.loc 10 237 7 view .LVU137
	cmp	r14d, r13d	# _25, _2
	cmovg	r14d, r13d	# _25,, _404, _2
.LVL29:
	.loc 10 237 7 view .LVU138
.LBE2197:
.LBE2198:
	.loc 1 63 9 is_stmt 1 view .LVU139
.LBB2199:
.LBI2199:
	.loc 2 1385 7 view .LVU140
	.loc 2 1385 7 is_stmt 0 view .LVU141
.LBE2199:
	.loc 1 64 9 is_stmt 1 view .LVU142
# src/avx_analysis_code_ablations/opt9_abl_hand_vec_no_tile.cpp:64:         if (p.x_begin >= p.x_end || p.y_begin >= p.y_end) continue;  // skip degenerate
	.loc 1 64 34 is_stmt 0 discriminator 1 view .LVU143
	cmp	ebx, esi	# _6, _17
	jle	.L12	#,
	.loc 1 64 34 discriminator 1 view .LVU144
	cmp	r11d, r14d	# _21, _404
	jge	.L12	#,
# src/avx_analysis_code_ablations/opt9_abl_hand_vec_no_tile.cpp:54:         float dy = shift_y - p.sy;
	.loc 1 54 15 view .LVU145
	vsubss	xmm6, xmm2, xmm1	# dy, shift_y, _328
.LVL30:
# src/avx_analysis_code_ablations/opt9_abl_hand_vec_no_tile.cpp:53:         float dx = shift_x - p.sx;
	.loc 1 53 15 view .LVU146
	vsubss	xmm5, xmm3, xmm0	# dx, shift_x, _329
.LVL31:
.LBB2202:
.LBB2200:
# /usr/include/c++/16/bits/stl_vector.h:1386:       { return _M_data_ptr(this->_M_impl._M_start); }
	.loc 2 1386 42 view .LVU147
	mov	rdx, QWORD PTR 16[rcx]	# _327, MEM[(unsigned char * *)SR.270_672 + 16B]
.LBE2200:
.LBE2202:
.LBB2203:
.LBB2204:
# /usr/include/c++/16/bits/stl_vector.h:1408: 	if (this->_M_impl._M_finish != this->_M_impl._M_end_of_storage)
	.loc 2 1408 2 view .LVU148
	mov	rax, QWORD PTR 128[rsp]	# __new_finish, %sfp
.LBE2204:
.LBE2203:
# src/avx_analysis_code_ablations/opt9_abl_hand_vec_no_tile.cpp:55:         p.A = (1 - dx) * (1 - dy);
	.loc 1 55 18 view .LVU149
	vaddss	xmm0, xmm0, DWORD PTR .LC1[rip]	# _630, _329,
.LVL32:
# src/avx_analysis_code_ablations/opt9_abl_hand_vec_no_tile.cpp:55:         p.A = (1 - dx) * (1 - dy);
	.loc 1 55 29 view .LVU150
	vaddss	xmm1, xmm1, DWORD PTR .LC1[rip]	# _632, _328,
.LVL33:
.LBB2315:
.LBB2201:
# /usr/include/c++/16/bits/stl_vector.h:1386:       { return _M_data_ptr(this->_M_impl._M_start); }
	.loc 2 1386 42 view .LVU151
	mov	QWORD PTR 216[rsp], rdx	# %sfp, _327
.LBE2201:
.LBE2315:
# src/avx_analysis_code_ablations/opt9_abl_hand_vec_no_tile.cpp:55:         p.A = (1 - dx) * (1 - dy);
	.loc 1 55 18 view .LVU152
	vsubss	xmm0, xmm0, xmm3	# _11, _630, shift_x
.LVL34:
# src/avx_analysis_code_ablations/opt9_abl_hand_vec_no_tile.cpp:55:         p.A = (1 - dx) * (1 - dy);
	.loc 1 55 29 view .LVU153
	vsubss	xmm1, xmm1, xmm2	# _12, _632, shift_y
.LVL35:
# src/avx_analysis_code_ablations/opt9_abl_hand_vec_no_tile.cpp:55:         p.A = (1 - dx) * (1 - dy);
	.loc 1 55 24 view .LVU154
	vmulss	xmm2, xmm0, xmm1	# _13, _11, _12
.LVL36:
# src/avx_analysis_code_ablations/opt9_abl_hand_vec_no_tile.cpp:56:         p.B = dx       * (1 - dy);
	.loc 1 56 24 view .LVU155
	vmulss	xmm1, xmm1, xmm5	# _14, _12, dx
# src/avx_analysis_code_ablations/opt9_abl_hand_vec_no_tile.cpp:57:         p.C = (1 - dx) * dy;
	.loc 1 57 24 view .LVU156
	vmulss	xmm0, xmm0, xmm6	# _15, _11, dy
# src/avx_analysis_code_ablations/opt9_abl_hand_vec_no_tile.cpp:58:         p.D = dx       * dy;
	.loc 1 58 24 view .LVU157
	vmulss	xmm5, xmm5, xmm6	# _16, dx, dy
.LVL37:
	.loc 1 65 9 is_stmt 1 view .LVU158
.LBB2316:
.LBI2203:
	.loc 2 1406 7 view .LVU159
.LBB2312:
# /usr/include/c++/16/bits/stl_vector.h:1408: 	if (this->_M_impl._M_finish != this->_M_impl._M_end_of_storage)
	.loc 2 1408 2 is_stmt 0 view .LVU160
	cmp	QWORD PTR 240[rsp], rax	# %sfp, __new_finish
	je	.L13	#,
.LVL38:
.LBB2205:
.LBI2205:
	.loc 8 705 2 is_stmt 1 view .LVU161
.LBB2206:
.LBI2206:
	.loc 6 201 2 view .LVU162
.LBB2207:
# /usr/include/c++/16/bits/new_allocator.h:203: 	{ ::new((void *)__p) _Up(std::forward<_Args>(__args)...); }
	.loc 6 203 4 is_stmt 0 discriminator 1 view .LVU163
	vunpcklps	xmm0, xmm0, xmm5	# tmp808, _15, _16
	vunpcklps	xmm2, xmm2, xmm1	# tmp809, _13, _14
	mov	DWORD PTR [rax], r9d	# params$_M_finish_165->sx, _9
.LBE2207:
.LBE2206:
.LBE2205:
# /usr/include/c++/16/bits/stl_vector.h:1413: 	    ++this->_M_impl._M_finish;
	.loc 2 1413 6 view .LVU164
	add	rax, 48	# __new_finish,
.LBB2210:
.LBB2209:
.LBB2208:
# /usr/include/c++/16/bits/new_allocator.h:203: 	{ ::new((void *)__p) _Up(std::forward<_Args>(__args)...); }
	.loc 6 203 4 discriminator 1 view .LVU165
	vmovlhps	xmm2, xmm2, xmm0	# _275, tmp809, tmp808
	mov	DWORD PTR -44[rax], r8d	# params$_M_finish_165->sy, _10
	vmovups	XMMWORD PTR -40[rax], xmm2	# MEM <vector(4) float> [(float *)params$_M_finish_165 + 8B], _275
	mov	DWORD PTR -24[rax], esi	# params$_M_finish_165->x_begin, _17
	mov	DWORD PTR -20[rax], ebx	# params$_M_finish_165->x_end, _6
	mov	DWORD PTR -16[rax], r11d	# params$_M_finish_165->y_begin, _21
	mov	DWORD PTR -12[rax], r14d	# params$_M_finish_165->y_end, _404
	mov	QWORD PTR -8[rax], rdx	# MEM <const unsigned char *> [(struct SubParams *)params$_M_finish_165 + 40B], _327
.LVL39:
	.loc 6 203 4 discriminator 1 view .LVU166
.LBE2208:
.LBE2209:
.LBE2210:
# /usr/include/c++/16/bits/stl_vector.h:1413: 	    ++this->_M_impl._M_finish;
	.loc 2 1413 6 view .LVU167
	mov	QWORD PTR 128[rsp], rax	# %sfp, __new_finish
.LVL40:
.L12:
	.loc 2 1413 6 view .LVU168
.LBE2312:
.LBE2316:
.LBE2319:
	.loc 1 47 5 is_stmt 1 discriminator 4 view .LVU169
.LBB2320:
.LBI2320:
	.loc 3 1101 7 view .LVU170
.LBB2321:
# /usr/include/c++/16/bits/stl_iterator.h:1103: 	++_M_current;
	.loc 3 1103 2 is_stmt 0 view .LVU171
	add	rcx, 48	# SR.270,
.LVL41:
	.loc 3 1103 2 view .LVU172
.LBE2321:
.LBE2320:
	.loc 1 47 22 is_stmt 1 discriminator 5 view .LVU173
# src/avx_analysis_code_ablations/opt9_abl_hand_vec_no_tile.cpp:47:     for (auto& sub : subapertures) {
	.loc 1 47 22 is_stmt 0 discriminator 6 view .LVU174
	cmp	rcx, QWORD PTR 248[rsp]	# SR.270, %sfp
	jne	.L17	#,
.LBE2329:
.LBB2330:
.LBB2331:
.LBB2332:
# /usr/include/c++/16/bits/stl_vector.h:375: 	ptrdiff_t __n = _M_impl._M_end_of_storage - _M_impl._M_start;
	.loc 2 375 44 view .LVU175
	mov	rax, QWORD PTR 240[rsp]	# _616, %sfp
	sub	rax, QWORD PTR 112[rsp]	# _616, %sfp
	mov	QWORD PTR 56[rsp], rax	# %sfp, _616
.LVL42:
.L9:
	.loc 2 375 44 view .LVU176
.LBE2332:
.LBE2331:
.LBE2330:
	.loc 1 69 5 is_stmt 1 view .LVU177
.LBB2347:
.LBI2347:
	.loc 5 168 7 view .LVU178
.LBB2348:
.LBI2348:
	.loc 6 88 7 view .LVU179
	.loc 6 88 7 is_stmt 0 view .LVU180
.LBE2348:
.LBE2347:
.LBB2349:
.LBI2349:
	.loc 2 589 7 is_stmt 1 view .LVU181
.LBB2350:
.LBI2350:
	.loc 2 2203 7 view .LVU182
.LBB2351:
.LBB2352:
.LBI2352:
	.loc 5 172 7 view .LVU183
.LBB2353:
.LBI2353:
	.loc 6 92 7 view .LVU184
	.loc 6 92 7 is_stmt 0 view .LVU185
.LBE2353:
.LBE2352:
.LBB2354:
.LBI2354:
	.loc 5 189 7 is_stmt 1 view .LVU186
.LBB2355:
.LBI2355:
	.loc 6 104 7 view .LVU187
.LBE2355:
.LBE2354:
# /usr/include/c++/16/bits/stl_vector.h:2205: 	if (__n > _S_max_size(_Tp_alloc_type(__a)))
	.loc 2 2205 2 is_stmt 0 discriminator 3 view .LVU188
	mov	rax, QWORD PTR 80[rsp]	# tmp1563, %sfp
	shr	rax, 61	# tmp1563,
	jne	.L143	#,
.LVL43:
	.loc 2 2205 2 discriminator 3 view .LVU189
.LBE2351:
.LBE2350:
.LBB2357:
.LBI2357:
	.loc 2 339 7 is_stmt 1 view .LVU190
.LBB2358:
.LBI2358:
	.loc 2 152 2 view .LVU191
.LBB2359:
.LBI2359:
	.loc 5 172 7 view .LVU192
.LBB2360:
.LBI2360:
	.loc 6 92 7 view .LVU193
	.loc 6 92 7 is_stmt 0 view .LVU194
.LBE2360:
.LBE2359:
.LBB2361:
.LBI2361:
	.loc 2 105 2 is_stmt 1 view .LVU195
	.loc 2 105 2 is_stmt 0 view .LVU196
.LBE2361:
.LBE2358:
.LBB2362:
.LBI2362:
	.loc 2 405 7 is_stmt 1 view .LVU197
.LBB2363:
.LBB2364:
.LBI2364:
	.loc 2 386 7 view .LVU198
.LBB2365:
# /usr/include/c++/16/bits/stl_vector.h:389: 	return __n != 0 ? _Tr::allocate(_M_impl, __n) : pointer();
	.loc 2 389 18 is_stmt 0 view .LVU199
	mov	rax, QWORD PTR 80[rsp]	# _641, %sfp
	test	rax, rax	# _641
	je	.L77	#,
.LVL44:
.LBB2366:
.LBI2366:
	.loc 8 637 7 is_stmt 1 view .LVU200
.LBB2367:
.LBI2367:
	.loc 6 129 7 view .LVU201
.LBB2368:
# /usr/include/c++/16/bits/new_allocator.h:162: 	  return static_cast<_Tp*>(_GLIBCXX_OPERATOR_NEW(__n * sizeof(_Tp)));
	.loc 6 162 68 is_stmt 0 view .LVU202
	lea	rbx, 0[0+rax*4]	# _443,
	mov	rdi, rbx	#, _443
	mov	QWORD PTR 48[rsp], rbx	# %sfp, _443
.LEHB1:
	call	"_Znwm"@PLT	#
.LVL45:
.LEHE1:
.LBE2368:
.LBE2367:
.LBE2366:
.LBE2365:
.LBE2364:
.LBE2363:
.LBE2362:
.LBE2357:
.LBB2380:
.LBB2381:
.LBB2382:
.LBB2383:
.LBB2384:
.LBB2385:
.LBB2386:
.LBB2387:
# /usr/include/c++/16/bits/stl_construct.h:133:       ::new(static_cast<void*>(__p)) _Tp(std::forward<_Args>(__args)...);
	.file 11 "/usr/include/c++/16/bits/stl_construct.h"
	.loc 11 133 7 discriminator 1 view .LVU203
	mov	rdx, rbx	#, _443
	xor	esi, esi	#
	mov	rdi, rax	#, _445
.LBE2387:
.LBE2386:
.LBE2385:
.LBE2384:
.LBE2383:
.LBE2382:
.LBE2381:
.LBE2380:
.LBB2397:
.LBB2378:
.LBB2376:
.LBB2374:
.LBB2372:
.LBB2371:
.LBB2370:
.LBB2369:
# /usr/include/c++/16/bits/new_allocator.h:162: 	  return static_cast<_Tp*>(_GLIBCXX_OPERATOR_NEW(__n * sizeof(_Tp)));
	.loc 6 162 68 view .LVU204
	mov	QWORD PTR 88[rsp], rax	# %sfp, _445
.LVL46:
	.loc 6 162 68 view .LVU205
.LBE2369:
.LBE2370:
.LBE2371:
.LBE2372:
.LBE2374:
.LBE2376:
.LBE2378:
.LBE2397:
.LBB2398:
.LBI2380:
	.loc 2 1987 7 is_stmt 1 view .LVU206
.LBB2396:
.LBI2381:
	.file 12 "/usr/include/c++/16/bits/stl_uninitialized.h"
	.loc 12 771 5 view .LVU207
.LBB2395:
.LBI2382:
	.loc 12 550 5 view .LVU208
.LBB2394:
.LBB2393:
.LBI2384:
	.loc 12 477 5 view .LVU209
.LBB2392:
.LBB2389:
.LBI2389:
	.loc 12 113 7 view .LVU210
	.loc 12 113 7 is_stmt 0 view .LVU211
.LBE2389:
	.loc 12 485 2 is_stmt 1 discriminator 2 view .LVU212
	.loc 12 491 7 discriminator 2 view .LVU213
.LBB2390:
.LBB2388:
# /usr/include/c++/16/bits/stl_construct.h:133:       ::new(static_cast<void*>(__p)) _Tp(std::forward<_Args>(__args)...);
	.loc 11 133 7 is_stmt 0 discriminator 1 view .LVU214
	call	"memset"@PLT	#
.LVL47:
.L18:
	.loc 11 133 7 discriminator 1 view .LVU215
.LBE2388:
.LBE2390:
.LBB2391:
.LBI2391:
	.loc 12 118 7 is_stmt 1 view .LVU216
	.loc 12 118 7 is_stmt 0 view .LVU217
.LBE2391:
.LBE2392:
.LBE2393:
.LBE2394:
.LBE2395:
.LBE2396:
.LBE2398:
.LBE2349:
.LBB2401:
.LBI2401:
	.loc 5 189 7 is_stmt 1 view .LVU218
.LBB2402:
.LBI2402:
	.loc 6 104 7 view .LVU219
	.loc 6 104 7 is_stmt 0 view .LVU220
.LBE2402:
.LBE2401:
	.loc 1 70 5 is_stmt 1 view .LVU221
.LBB2403:
.LBI2403:
	.loc 5 168 7 view .LVU222
.LBB2404:
.LBI2404:
	.loc 6 88 7 view .LVU223
	.loc 6 88 7 is_stmt 0 view .LVU224
.LBE2404:
.LBE2403:
# src/avx_analysis_code_ablations/opt9_abl_hand_vec_no_tile.cpp:70:     std::vector<int> diff((width + 1) * (height + 1), 0);
	.loc 1 70 34 discriminator 1 view .LVU225
	mov	rax, QWORD PTR 120[rsp]	# _629, %sfp
	lea	r12, 1[rax]	# _26,
# src/avx_analysis_code_ablations/opt9_abl_hand_vec_no_tile.cpp:70:     std::vector<int> diff((width + 1) * (height + 1), 0);
	.loc 1 70 49 discriminator 1 view .LVU226
	mov	rax, QWORD PTR 208[rsp]	# _500, %sfp
	inc	rax	# _500
# src/avx_analysis_code_ablations/opt9_abl_hand_vec_no_tile.cpp:70:     std::vector<int> diff((width + 1) * (height + 1), 0);
	.loc 1 70 56 discriminator 1 view .LVU227
	imul	rax, r12	# _27, _26
	mov	QWORD PTR 64[rsp], rax	# %sfp, _28
.LVL48:
.LBB2405:
.LBI2405:
	.loc 2 589 7 is_stmt 1 view .LVU228
.LBB2406:
.LBI2406:
	.loc 2 2203 7 view .LVU229
.LBB2407:
.LBB2408:
.LBI2408:
	.loc 5 172 7 view .LVU230
.LBB2409:
.LBI2409:
	.loc 6 92 7 view .LVU231
	.loc 6 92 7 is_stmt 0 view .LVU232
.LBE2409:
.LBE2408:
.LBB2410:
.LBI2410:
	.loc 5 189 7 is_stmt 1 view .LVU233
.LBB2411:
.LBI2411:
	.loc 6 104 7 view .LVU234
.LBE2411:
.LBE2410:
# /usr/include/c++/16/bits/stl_vector.h:2205: 	if (__n > _S_max_size(_Tp_alloc_type(__a)))
	.loc 2 2205 2 is_stmt 0 discriminator 3 view .LVU235
	shr	rax, 61	# tmp1564,
.LVL49:
	.loc 2 2205 2 discriminator 3 view .LVU236
	jne	.L144	#,
.LVL50:
	.loc 2 2205 2 discriminator 3 view .LVU237
.LBE2407:
.LBE2406:
.LBB2413:
.LBI2413:
	.loc 2 339 7 is_stmt 1 view .LVU238
.LBB2414:
.LBI2414:
	.loc 2 152 2 view .LVU239
.LBB2415:
.LBI2415:
	.loc 5 172 7 view .LVU240
.LBB2416:
.LBI2416:
	.loc 6 92 7 view .LVU241
	.loc 6 92 7 is_stmt 0 view .LVU242
.LBE2416:
.LBE2415:
.LBB2417:
.LBI2417:
	.loc 2 105 2 is_stmt 1 view .LVU243
	.loc 2 105 2 is_stmt 0 view .LVU244
.LBE2417:
.LBE2414:
.LBB2418:
.LBI2418:
	.loc 2 405 7 is_stmt 1 view .LVU245
.LBB2419:
.LBB2420:
.LBI2420:
	.loc 2 386 7 view .LVU246
.LBB2421:
# /usr/include/c++/16/bits/stl_vector.h:389: 	return __n != 0 ? _Tr::allocate(_M_impl, __n) : pointer();
	.loc 2 389 18 is_stmt 0 view .LVU247
	mov	r14, QWORD PTR 64[rsp]	# _28, %sfp
	test	r14, r14	# _28
	je	.L78	#,
.LVL51:
.LBB2422:
.LBI2422:
	.loc 8 637 7 is_stmt 1 view .LVU248
.LBB2423:
.LBI2423:
	.loc 6 129 7 view .LVU249
.LBB2424:
# /usr/include/c++/16/bits/new_allocator.h:162: 	  return static_cast<_Tp*>(_GLIBCXX_OPERATOR_NEW(__n * sizeof(_Tp)));
	.loc 6 162 68 is_stmt 0 view .LVU250
	sal	r14, 2	# _28,
	mov	rdi, r14	#, _28
	mov	QWORD PTR 64[rsp], r14	# %sfp, _28
.LVL52:
.LEHB2:
	.loc 6 162 68 view .LVU251
	call	"_Znwm"@PLT	#
.LVL53:
.LEHE2:
.LBE2424:
.LBE2423:
.LBE2422:
.LBE2421:
.LBE2420:
.LBE2419:
.LBE2418:
.LBE2413:
.LBB2436:
.LBB2437:
.LBB2438:
.LBB2439:
.LBB2440:
.LBB2441:
.LBB2442:
.LBB2443:
# /usr/include/c++/16/bits/stl_construct.h:133:       ::new(static_cast<void*>(__p)) _Tp(std::forward<_Args>(__args)...);
	.loc 11 133 7 discriminator 1 view .LVU252
	mov	rdx, r14	#, _28
	xor	esi, esi	#
	mov	rdi, rax	#, _300
.LBE2443:
.LBE2442:
.LBE2441:
.LBE2440:
.LBE2439:
.LBE2438:
.LBE2437:
.LBE2436:
.LBB2453:
.LBB2434:
.LBB2432:
.LBB2430:
.LBB2428:
.LBB2427:
.LBB2426:
.LBB2425:
# /usr/include/c++/16/bits/new_allocator.h:162: 	  return static_cast<_Tp*>(_GLIBCXX_OPERATOR_NEW(__n * sizeof(_Tp)));
	.loc 6 162 68 view .LVU253
	mov	rbx, rax	# _300, _300
.LVL54:
	.loc 6 162 68 view .LVU254
.LBE2425:
.LBE2426:
.LBE2427:
.LBE2428:
.LBE2430:
.LBE2432:
.LBE2434:
.LBE2453:
.LBB2454:
.LBI2436:
	.loc 2 1987 7 is_stmt 1 view .LVU255
.LBB2452:
.LBI2437:
	.loc 12 771 5 view .LVU256
.LBB2451:
.LBI2438:
	.loc 12 550 5 view .LVU257
.LBB2450:
.LBB2449:
.LBI2440:
	.loc 12 477 5 view .LVU258
.LBB2448:
.LBB2445:
.LBI2445:
	.loc 12 113 7 view .LVU259
	.loc 12 113 7 is_stmt 0 view .LVU260
.LBE2445:
	.loc 12 485 2 is_stmt 1 discriminator 2 view .LVU261
	.loc 12 491 7 discriminator 2 view .LVU262
.LBB2446:
.LBB2444:
# /usr/include/c++/16/bits/stl_construct.h:133:       ::new(static_cast<void*>(__p)) _Tp(std::forward<_Args>(__args)...);
	.loc 11 133 7 is_stmt 0 discriminator 1 view .LVU263
	call	"memset"@PLT	#
.LVL55:
.L23:
	.loc 11 133 7 discriminator 1 view .LVU264
.LBE2444:
.LBE2446:
.LBB2447:
.LBI2447:
	.loc 12 118 7 is_stmt 1 view .LVU265
	.loc 12 118 7 is_stmt 0 view .LVU266
.LBE2447:
.LBE2448:
.LBE2449:
.LBE2450:
.LBE2451:
.LBE2452:
.LBE2454:
.LBE2405:
.LBB2457:
.LBI2457:
	.loc 5 189 7 is_stmt 1 view .LVU267
.LBB2458:
.LBI2458:
	.loc 6 104 7 view .LVU268
	.loc 6 104 7 is_stmt 0 view .LVU269
.LBE2458:
.LBE2457:
	.loc 1 72 5 is_stmt 1 view .LVU270
.LBB2459:
.LBB2460:
.LBI2460:
	.loc 2 988 7 view .LVU271
.LBB2461:
.LBI2461:
	.loc 3 1058 7 view .LVU272
	.loc 3 1058 7 is_stmt 0 view .LVU273
.LBE2461:
.LBE2460:
.LBB2462:
.LBI2462:
	.loc 2 1008 7 is_stmt 1 view .LVU274
.LBB2463:
.LBI2463:
	.loc 3 1058 7 view .LVU275
	.loc 3 1058 7 is_stmt 0 view .LVU276
.LBE2463:
.LBE2462:
	.loc 1 72 26 is_stmt 1 discriminator 5 view .LVU277
# src/avx_analysis_code_ablations/opt9_abl_hand_vec_no_tile.cpp:72:     for (const auto& p : params) {
	.loc 1 72 26 is_stmt 0 discriminator 6 view .LVU278
	mov	rax, QWORD PTR 112[rsp]	# params$_M_start, %sfp
	mov	r8, QWORD PTR 128[rsp]	# __new_finish, %sfp
	cmp	rax, r8	# params$_M_start, __new_finish
	je	.L24	#,
.LVL56:
	.loc 1 72 26 discriminator 6 view .LVU279
	.p2align 6
	.p2align 4,,10
	.p2align 3
.L25:
.LVL57:
	.loc 1 73 9 is_stmt 1 view .LVU280
# src/avx_analysis_code_ablations/opt9_abl_hand_vec_no_tile.cpp:73:         diff[p.y_begin * (width + 1) + p.x_begin] += 1;
	.loc 1 73 16 is_stmt 0 view .LVU281
	movsxd	rdx, DWORD PTR 32[rax]	# _30, MEM[(int *)SR.272_669 + 32B]
# src/avx_analysis_code_ablations/opt9_abl_hand_vec_no_tile.cpp:73:         diff[p.y_begin * (width + 1) + p.x_begin] += 1;
	.loc 1 73 42 view .LVU282
	movsxd	rsi, DWORD PTR 24[rax]	# _33, MEM[(int *)SR.272_669 + 24B]
.LBB2464:
.LBB2465:
# /usr/include/c++/16/bits/stl_iterator.h:1103: 	++_M_current;
	.loc 3 1103 2 view .LVU283
	add	rax, 48	# SR.272,
.LVL58:
	.loc 3 1103 2 view .LVU284
.LBE2465:
.LBE2464:
# src/avx_analysis_code_ablations/opt9_abl_hand_vec_no_tile.cpp:75:         diff[p.y_end   * (width + 1) + p.x_begin] -= 1;
	.loc 1 75 16 view .LVU285
	movsxd	rdi, DWORD PTR -12[rax]	# _46, MEM[(int *)SR.272_669 + 36B]
# src/avx_analysis_code_ablations/opt9_abl_hand_vec_no_tile.cpp:73:         diff[p.y_begin * (width + 1) + p.x_begin] += 1;
	.loc 1 73 24 view .LVU286
	imul	rdx, r12	# _31, _26
.LVL59:
.LBB2466:
.LBI2466:
	.loc 2 1251 7 is_stmt 1 view .LVU287
.LBB2467:
	.loc 2 1253 2 discriminator 2 view .LVU288
	.loc 2 1253 2 is_stmt 0 discriminator 2 view .LVU289
.LBE2467:
.LBE2466:
# src/avx_analysis_code_ablations/opt9_abl_hand_vec_no_tile.cpp:75:         diff[p.y_end   * (width + 1) + p.x_begin] -= 1;
	.loc 1 75 24 view .LVU290
	imul	rdi, r12	# _47, _26
# src/avx_analysis_code_ablations/opt9_abl_hand_vec_no_tile.cpp:73:         diff[p.y_begin * (width + 1) + p.x_begin] += 1;
	.loc 1 73 49 view .LVU291
	lea	rcx, [rdx+rsi]	# _34,
# src/avx_analysis_code_ablations/opt9_abl_hand_vec_no_tile.cpp:73:         diff[p.y_begin * (width + 1) + p.x_begin] += 1;
	.loc 1 73 51 discriminator 1 view .LVU292
	inc	DWORD PTR [rbx+rcx*4]	# *_340
	.loc 1 74 9 is_stmt 1 view .LVU293
# src/avx_analysis_code_ablations/opt9_abl_hand_vec_no_tile.cpp:74:         diff[p.y_begin * (width + 1) + p.x_end  ] -= 1;
	.loc 1 74 42 is_stmt 0 view .LVU294
	movsxd	rcx, DWORD PTR -20[rax]	# _41, MEM[(int *)SR.272_669 + 28B]
.LVL60:
.LBB2468:
.LBI2468:
	.loc 2 1251 7 is_stmt 1 view .LVU295
.LBB2469:
	.loc 2 1253 2 discriminator 2 view .LVU296
	.loc 2 1253 2 is_stmt 0 discriminator 2 view .LVU297
.LBE2469:
.LBE2468:
# src/avx_analysis_code_ablations/opt9_abl_hand_vec_no_tile.cpp:74:         diff[p.y_begin * (width + 1) + p.x_end  ] -= 1;
	.loc 1 74 49 view .LVU298
	add	rdx, rcx	# _42, _41
# src/avx_analysis_code_ablations/opt9_abl_hand_vec_no_tile.cpp:74:         diff[p.y_begin * (width + 1) + p.x_end  ] -= 1;
	.loc 1 74 51 discriminator 1 view .LVU299
	dec	DWORD PTR [rbx+rdx*4]	# *_337
	.loc 1 75 9 is_stmt 1 view .LVU300
.LVL61:
.LBB2470:
.LBI2470:
	.loc 2 1251 7 view .LVU301
.LBB2471:
	.loc 2 1253 2 discriminator 2 view .LVU302
	.loc 2 1253 2 is_stmt 0 discriminator 2 view .LVU303
.LBE2471:
.LBE2470:
# src/avx_analysis_code_ablations/opt9_abl_hand_vec_no_tile.cpp:75:         diff[p.y_end   * (width + 1) + p.x_begin] -= 1;
	.loc 1 75 49 view .LVU304
	lea	rdx, [rsi+rdi]	# _50,
# src/avx_analysis_code_ablations/opt9_abl_hand_vec_no_tile.cpp:75:         diff[p.y_end   * (width + 1) + p.x_begin] -= 1;
	.loc 1 75 51 discriminator 1 view .LVU305
	dec	DWORD PTR [rbx+rdx*4]	# *_335
	.loc 1 76 9 is_stmt 1 view .LVU306
.LVL62:
.LBB2472:
.LBI2472:
	.loc 2 1251 7 view .LVU307
.LBB2473:
	.loc 2 1253 2 discriminator 2 view .LVU308
	.loc 2 1253 2 is_stmt 0 discriminator 2 view .LVU309
.LBE2473:
.LBE2472:
# src/avx_analysis_code_ablations/opt9_abl_hand_vec_no_tile.cpp:76:         diff[p.y_end   * (width + 1) + p.x_end  ] += 1;
	.loc 1 76 49 view .LVU310
	lea	rdx, [rcx+rdi]	# _58,
# src/avx_analysis_code_ablations/opt9_abl_hand_vec_no_tile.cpp:76:         diff[p.y_end   * (width + 1) + p.x_end  ] += 1;
	.loc 1 76 51 discriminator 1 view .LVU311
	inc	DWORD PTR [rbx+rdx*4]	# *_333
	.loc 1 72 5 is_stmt 1 discriminator 4 view .LVU312
.LVL63:
.LBB2474:
.LBI2464:
	.loc 3 1101 7 view .LVU313
	.loc 3 1101 7 is_stmt 0 view .LVU314
.LBE2474:
	.loc 1 72 26 is_stmt 1 discriminator 5 view .LVU315
# src/avx_analysis_code_ablations/opt9_abl_hand_vec_no_tile.cpp:72:     for (const auto& p : params) {
	.loc 1 72 26 is_stmt 0 discriminator 6 view .LVU316
	cmp	rax, r8	# SR.272, __new_finish
	jne	.L25	#,
.LVL64:
.L24:
	.loc 1 72 26 discriminator 6 view .LVU317
.LBE2459:
.LBB2475:
	.loc 1 79 23 is_stmt 1 discriminator 2 view .LVU318
	vxorps	xmm4, xmm4, xmm4	# tmp1526
	test	r13d, r13d	# _2
	jle	.L26	#,
	test	r15d, r15d	# _1
	jle	.L145	#,
.LVL65:
.LBB2476:
.LBB2477:
	.loc 1 81 27 discriminator 2 view .LVU319
	mov	rax, QWORD PTR 120[rsp]	# _629, %sfp
.LBE2477:
# src/avx_analysis_code_ablations/opt9_abl_hand_vec_no_tile.cpp:80:         int row = 0;
	.loc 1 80 13 is_stmt 0 view .LVU320
	xor	edx, edx	# row
	lea	ecx, -1[rax]	# _797,
.LBE2476:
# src/avx_analysis_code_ablations/opt9_abl_hand_vec_no_tile.cpp:79:     for (int y = 0; y < h; ++y) {
	.loc 1 79 23 discriminator 2 view .LVU321
	xor	eax, eax	# ivtmp.549
	lea	r8, 1[rcx]	# _917,
	mov	rcx, QWORD PTR 88[rsp]	# _445, %sfp
.LVL66:
.L29:
.LBB2482:
.LBB2478:
	.loc 1 82 13 is_stmt 1 view .LVU322
# src/avx_analysis_code_ablations/opt9_abl_hand_vec_no_tile.cpp:82:             row += diff[y * (width + 1) + x];
	.loc 1 82 17 is_stmt 0 discriminator 1 view .LVU323
	add	edx, DWORD PTR [rbx+rax*4]	# row, MEM[(value_type &)_478 + ivtmp.549_793 * 4]
.LVL67:
	.loc 1 83 13 is_stmt 1 view .LVU324
# src/avx_analysis_code_ablations/opt9_abl_hand_vec_no_tile.cpp:83:             counts[y * w + x] = row + (y > 0 ? counts[(y - 1) * w + x] : 0);
	.loc 1 83 31 is_stmt 0 discriminator 5 view .LVU325
	mov	DWORD PTR [rcx+rax*4], edx	# MEM[(value_type &)_536 + ivtmp.549_793 * 4], row
	.loc 1 81 9 is_stmt 1 discriminator 1 view .LVU326
.LVL68:
	.loc 1 81 27 discriminator 2 view .LVU327
	inc	rax	# ivtmp.549
.LVL69:
	.loc 1 81 27 is_stmt 0 discriminator 2 view .LVU328
	cmp	rax, r8	# ivtmp.549, _917
	jne	.L29	#,
.LBE2478:
.LBE2482:
	.loc 1 79 5 is_stmt 1 discriminator 1 view .LVU329
.LVL70:
	.loc 1 79 23 discriminator 2 view .LVU330
	cmp	r13d, 1	# _2,
	je	.L145	#,
	lea	rax, 0[0+r12*4]	# _295,
.LBB2483:
.LBB2479:
# src/avx_analysis_code_ablations/opt9_abl_hand_vec_no_tile.cpp:81:         for (int x = 0; x < w; ++x) {
	.loc 1 81 27 is_stmt 0 discriminator 2 view .LVU331
	xor	ecx, ecx	# ivtmp.544
.LBE2479:
.LBE2483:
# src/avx_analysis_code_ablations/opt9_abl_hand_vec_no_tile.cpp:79:     for (int y = 0; y < h; ++y) {
	.loc 1 79 14 view .LVU332
	mov	r11d, 1	# y,
	mov	QWORD PTR 248[rsp], rax	# %sfp, _295
	lea	rdi, [rbx+rax]	# ivtmp.543,
	mov	eax, r15d	# _721, _1
	lea	r14, 0[0+rax*4]	# _720,
	mov	rax, QWORD PTR 88[rsp]	# _445, %sfp
	lea	rsi, [rax+r14]	# ivtmp.546,
.LVL71:
.L32:
.LBB2484:
.LBB2480:
	.loc 1 81 27 is_stmt 1 discriminator 2 view .LVU333
	mov	rdx, QWORD PTR 88[rsp]	# _445, %sfp
	movsxd	rax, ecx	# _1179, ivtmp.544
	add	ecx, DWORD PTR 120[rsp]	# ivtmp.544, %sfp
	lea	r10, [rdx+rax*4]	# _1192,
.LBE2480:
.LBE2484:
# src/avx_analysis_code_ablations/opt9_abl_hand_vec_no_tile.cpp:79:     for (int y = 0; y < h; ++y) {
	.loc 1 79 14 is_stmt 0 view .LVU334
	xor	eax, eax	# ivtmp.530
.LBB2485:
# src/avx_analysis_code_ablations/opt9_abl_hand_vec_no_tile.cpp:80:         int row = 0;
	.loc 1 80 13 view .LVU335
	xor	edx, edx	# row
.LVL72:
	.loc 1 80 13 view .LVU336
	.p2align 5
	.p2align 4,,10
	.p2align 3
.L31:
.LVL73:
.LBB2481:
	.loc 1 82 13 is_stmt 1 view .LVU337
# src/avx_analysis_code_ablations/opt9_abl_hand_vec_no_tile.cpp:83:             counts[y * w + x] = row + (y > 0 ? counts[(y - 1) * w + x] : 0);
	.loc 1 83 37 is_stmt 0 discriminator 4 view .LVU338
	mov	r9d, DWORD PTR [r10+rax*4]	# _966, MEM[(value_type &)_1192 + ivtmp.530_1154 * 4]
# src/avx_analysis_code_ablations/opt9_abl_hand_vec_no_tile.cpp:82:             row += diff[y * (width + 1) + x];
	.loc 1 82 17 discriminator 1 view .LVU339
	add	edx, DWORD PTR [rdi+rax*4]	# row, MEM[(value_type &)_1158 + ivtmp.530_1154 * 4]
.LVL74:
	.loc 1 83 13 is_stmt 1 view .LVU340
# src/avx_analysis_code_ablations/opt9_abl_hand_vec_no_tile.cpp:83:             counts[y * w + x] = row + (y > 0 ? counts[(y - 1) * w + x] : 0);
	.loc 1 83 37 is_stmt 0 discriminator 4 view .LVU341
	add	r9d, edx	# _966, row
# src/avx_analysis_code_ablations/opt9_abl_hand_vec_no_tile.cpp:83:             counts[y * w + x] = row + (y > 0 ? counts[(y - 1) * w + x] : 0);
	.loc 1 83 31 discriminator 5 view .LVU342
	mov	DWORD PTR [rsi+rax*4], r9d	# MEM[(value_type &)_1196 + ivtmp.530_1154 * 4], _966
	.loc 1 81 9 is_stmt 1 discriminator 1 view .LVU343
.LVL75:
	.loc 1 81 27 discriminator 2 view .LVU344
	inc	rax	# ivtmp.530
.LVL76:
	.loc 1 81 27 is_stmt 0 discriminator 2 view .LVU345
	cmp	r8, rax	# _917, ivtmp.530
	jne	.L31	#,
.LBE2481:
.LBE2485:
	.loc 1 79 5 is_stmt 1 discriminator 1 view .LVU346
	inc	r11d	# y
.LVL77:
	.loc 1 79 23 discriminator 2 view .LVU347
	add	rdi, QWORD PTR 248[rsp]	# ivtmp.543, %sfp
	add	rsi, r14	# ivtmp.546, _720
	cmp	r11d, r13d	# y, _2
	jl	.L32	#,
.LVL78:
.L145:
	.loc 1 79 23 is_stmt 0 discriminator 2 view .LVU348
.LBE2475:
	.loc 1 88 5 is_stmt 1 view .LVU349
.LBB2486:
.LBI2486:
	.loc 5 168 7 view .LVU350
.LBB2487:
.LBI2487:
	.loc 6 88 7 view .LVU351
	.loc 6 88 7 is_stmt 0 view .LVU352
.LBE2487:
.LBE2486:
.LBB2489:
.LBI2489:
	.loc 2 589 7 is_stmt 1 view .LVU353
.LBB2490:
.LBI2490:
	.loc 2 2203 7 view .LVU354
.LBB2491:
.LBB2492:
.LBI2492:
	.loc 5 172 7 view .LVU355
.LBB2493:
.LBI2493:
	.loc 6 92 7 view .LVU356
	.loc 6 92 7 is_stmt 0 view .LVU357
.LBE2493:
.LBE2492:
.LBB2495:
.LBI2495:
	.loc 5 189 7 is_stmt 1 view .LVU358
.LBB2496:
.LBI2496:
	.loc 6 104 7 view .LVU359
.LBE2496:
.LBE2495:
# /usr/include/c++/16/bits/stl_vector.h:2205: 	if (__n > _S_max_size(_Tp_alloc_type(__a)))
	.loc 2 2205 2 is_stmt 0 discriminator 3 view .LVU360
	mov	rax, QWORD PTR 224[rsp]	# _5, %sfp
	shr	rax, 61	# _5,
	jne	.L34	#,
.LVL79:
	.loc 2 2205 2 discriminator 3 view .LVU361
.LBE2491:
.LBE2490:
.LBB2502:
.LBI2502:
	.loc 2 339 7 is_stmt 1 view .LVU362
.LBB2503:
.LBI2503:
	.loc 2 152 2 view .LVU363
.LBB2504:
.LBI2504:
	.loc 5 172 7 view .LVU364
.LBB2505:
.LBI2505:
	.loc 6 92 7 view .LVU365
	.loc 6 92 7 is_stmt 0 view .LVU366
.LBE2505:
.LBE2504:
.LBB2507:
.LBI2507:
	.loc 2 105 2 is_stmt 1 view .LVU367
	.loc 2 105 2 is_stmt 0 view .LVU368
.LBE2507:
.LBE2503:
.LBB2510:
.LBI2510:
	.loc 2 405 7 is_stmt 1 view .LVU369
.LBB2511:
.LBB2512:
.LBI2512:
	.loc 2 386 7 view .LVU370
.LBB2513:
# /usr/include/c++/16/bits/stl_vector.h:389: 	return __n != 0 ? _Tr::allocate(_M_impl, __n) : pointer();
	.loc 2 389 18 is_stmt 0 view .LVU371
	cmp	QWORD PTR 80[rsp], 0	# %sfp,
	je	.L158	#,
.L35:
.LBB2514:
.LBB2515:
.LBB2516:
# /usr/include/c++/16/bits/new_allocator.h:162: 	  return static_cast<_Tp*>(_GLIBCXX_OPERATOR_NEW(__n * sizeof(_Tp)));
	.loc 6 162 68 view .LVU372
	mov	rdx, QWORD PTR 184[rsp]	# tmp1491, %sfp
	vmovaps	XMMWORD PTR 224[rsp], xmm4	# %sfp, tmp1526
.LVL80:
	.loc 6 162 68 view .LVU373
.LBE2516:
.LBE2515:
.LBI2514:
	.loc 8 637 7 is_stmt 1 view .LVU374
.LBB2519:
.LBI2515:
	.loc 6 129 7 view .LVU375
.LBB2517:
# /usr/include/c++/16/bits/new_allocator.h:162: 	  return static_cast<_Tp*>(_GLIBCXX_OPERATOR_NEW(__n * sizeof(_Tp)));
	.loc 6 162 68 is_stmt 0 view .LVU376
	add	rdx, QWORD PTR 80[rsp]	# tmp1491, %sfp
	sal	rdx, 2	# tmp886,
	mov	rdi, rdx	# _641, tmp886
	mov	QWORD PTR 248[rsp], rdx	# %sfp, tmp886
	mov	QWORD PTR 80[rsp], rdx	# %sfp, _641
.LVL81:
.LEHB3:
	.loc 6 162 68 view .LVU377
	call	"_Znwm"@PLT	#
.LVL82:
.LEHE3:
.LBE2517:
.LBE2519:
.LBE2514:
.LBE2513:
.LBE2512:
.LBE2511:
.LBE2510:
.LBE2502:
.LBB2549:
.LBB2550:
.LBB2551:
.LBB2552:
.LBB2553:
.LBB2554:
.LBB2555:
.LBB2556:
# /usr/include/c++/16/bits/stl_construct.h:133:       ::new(static_cast<void*>(__p)) _Tp(std::forward<_Args>(__args)...);
	.loc 11 133 7 discriminator 1 view .LVU378
	mov	rdx, QWORD PTR 248[rsp]	# tmp886, %sfp
.LBE2556:
.LBE2555:
.LBE2554:
.LBE2553:
.LBE2552:
.LBE2551:
.LBE2550:
.LBE2549:
.LBB2572:
.LBB2541:
.LBB2534:
.LBB2528:
.LBB2522:
.LBB2521:
.LBB2520:
.LBB2518:
# /usr/include/c++/16/bits/new_allocator.h:162: 	  return static_cast<_Tp*>(_GLIBCXX_OPERATOR_NEW(__n * sizeof(_Tp)));
	.loc 6 162 68 view .LVU379
	mov	rdi, rax	# _599, _599
.LVL83:
	.loc 6 162 68 view .LVU380
.LBE2518:
.LBE2520:
.LBE2521:
.LBE2522:
.LBE2528:
.LBE2534:
.LBE2541:
.LBE2572:
.LBB2573:
.LBI2549:
	.loc 2 1987 7 is_stmt 1 view .LVU381
.LBB2570:
.LBI2550:
	.loc 12 771 5 view .LVU382
.LBB2568:
.LBI2551:
	.loc 12 550 5 view .LVU383
.LBB2566:
.LBB2564:
.LBI2553:
	.loc 12 477 5 view .LVU384
.LBB2562:
.LBB2559:
.LBI2559:
	.loc 12 113 7 view .LVU385
	.loc 12 113 7 is_stmt 0 view .LVU386
.LBE2559:
	.loc 12 485 2 is_stmt 1 discriminator 2 view .LVU387
	.loc 12 491 7 discriminator 2 view .LVU388
.LBB2560:
.LBB2557:
# /usr/include/c++/16/bits/stl_construct.h:133:       ::new(static_cast<void*>(__p)) _Tp(std::forward<_Args>(__args)...);
	.loc 11 133 7 is_stmt 0 discriminator 1 view .LVU389
	xor	esi, esi	#
	call	"memset"@PLT	#
.LVL84:
	.loc 11 133 7 discriminator 1 view .LVU390
.LBE2557:
.LBE2560:
.LBE2562:
.LBE2564:
.LBE2566:
.LBE2568:
.LBE2570:
.LBE2573:
.LBE2489:
.LBB2583:
# src/avx_analysis_code_ablations/opt9_abl_hand_vec_no_tile.cpp:90:     for (const SubParams& p : params) {
	.loc 1 90 31 discriminator 6 view .LVU391
	mov	rcx, QWORD PTR 128[rsp]	# __new_finish, %sfp
	vmovaps	xmm4, XMMWORD PTR 224[rsp]	# tmp1526, %sfp
.LBE2583:
.LBB2718:
.LBB2574:
.LBB2571:
.LBB2569:
.LBB2567:
.LBB2565:
.LBB2563:
.LBB2561:
.LBB2558:
# /usr/include/c++/16/bits/stl_construct.h:133:       ::new(static_cast<void*>(__p)) _Tp(std::forward<_Args>(__args)...);
	.loc 11 133 7 discriminator 1 view .LVU392
	mov	rdi, rax	# _599,
.LVL85:
	.loc 11 133 7 discriminator 1 view .LVU393
.LBE2558:
.LBE2561:
.LBE2563:
.LBE2565:
.LBE2567:
.LBE2569:
.LBE2571:
.LBE2574:
.LBE2718:
.LBB2719:
	.loc 1 90 31 is_stmt 1 discriminator 5 view .LVU394
# src/avx_analysis_code_ablations/opt9_abl_hand_vec_no_tile.cpp:90:     for (const SubParams& p : params) {
	.loc 1 90 31 is_stmt 0 discriminator 6 view .LVU395
	cmp	QWORD PTR 112[rsp], rcx	# %sfp, __new_finish
	je	.L41	#,
.LVL86:
.L37:
.LBB2584:
.LBB2585:
.LBB2586:
# src/avx_analysis_code_ablations/opt9_abl_hand_vec_no_tile.cpp:98:             size_t ind_lbot = ind_ltop + width * 3;
	.loc 1 98 48 view .LVU396
	mov	rcx, QWORD PTR 120[rsp]	# _629, %sfp
	mov	rsi, QWORD PTR 112[rsp]	# params$_M_start, %sfp
	mov	DWORD PTR 44[rsp], r15d	# %sfp, _1
	mov	DWORD PTR 40[rsp], r13d	# %sfp, _2
	lea	rax, [rcx+rcx]	# tmp1490,
	mov	QWORD PTR 200[rsp], rsi	# %sfp, params$_M_start
	add	rcx, rax	# _86, tmp1490
	mov	QWORD PTR 96[rsp], r12	# %sfp, _26
	mov	QWORD PTR 176[rsp], rcx	# %sfp, _86
	sal	rcx, 2	# tmp898,
	mov	QWORD PTR 168[rsp], rcx	# %sfp, tmp898
	mov	QWORD PTR 32[rsp], rbx	# %sfp, _300
	mov	QWORD PTR 104[rsp], rdi	# %sfp, _599
	mov	QWORD PTR 24[rsp], rax	# %sfp, tmp1490
	.p2align 4,,10
	.p2align 3
.L51:
.LVL87:
	.loc 1 98 48 view .LVU397
.LBE2586:
.LBE2585:
	.loc 1 91 9 is_stmt 1 view .LVU398
.LBB2693:
.LBI2693:
	.file 13 "/usr/lib/gcc/x86_64-linux-gnu/16/include/avxintrin.h"
	.loc 13 1271 1 view .LVU399
.LBB2694:
	.loc 13 1273 3 view .LVU400
	.loc 13 1273 3 is_stmt 0 view .LVU401
.LBE2694:
.LBE2693:
	.loc 1 92 9 is_stmt 1 view .LVU402
.LBB2696:
.LBI2696:
	.loc 13 1271 1 view .LVU403
.LBB2697:
	.loc 13 1273 3 view .LVU404
	.loc 13 1273 3 is_stmt 0 view .LVU405
.LBE2697:
.LBE2696:
	.loc 1 93 9 is_stmt 1 view .LVU406
.LBB2699:
.LBI2699:
	.loc 13 1271 1 view .LVU407
.LBB2700:
	.loc 13 1273 3 view .LVU408
	.loc 13 1273 3 is_stmt 0 view .LVU409
.LBE2700:
.LBE2699:
	.loc 1 94 9 is_stmt 1 view .LVU410
.LBB2702:
.LBI2702:
	.loc 13 1271 1 view .LVU411
.LBB2703:
	.loc 13 1273 3 view .LVU412
	.loc 13 1273 3 is_stmt 0 view .LVU413
.LBE2703:
.LBE2702:
	.loc 1 96 9 is_stmt 1 view .LVU414
.LBB2705:
# src/avx_analysis_code_ablations/opt9_abl_hand_vec_no_tile.cpp:96:         for (int y = p.y_begin; y < p.y_end; ++y) {
	.loc 1 96 18 is_stmt 0 view .LVU415
	mov	rax, QWORD PTR 200[rsp]	# ivtmp.528, %sfp
	mov	ebx, DWORD PTR 32[rax]	# y, MEM[(int *)_1129 + 32B]
# src/avx_analysis_code_ablations/opt9_abl_hand_vec_no_tile.cpp:96:         for (int y = p.y_begin; y < p.y_end; ++y) {
	.loc 1 96 39 discriminator 2 view .LVU416
	mov	ecx, DWORD PTR 36[rax]	# _371, MEM[(int *)_1129 + 36B]
	mov	rdx, rax	# ivtmp.528, ivtmp.528
# src/avx_analysis_code_ablations/opt9_abl_hand_vec_no_tile.cpp:96:         for (int y = p.y_begin; y < p.y_end; ++y) {
	.loc 1 96 18 view .LVU417
	mov	DWORD PTR 240[rsp], ebx	# %sfp, y
.LVL88:
	.loc 1 96 35 is_stmt 1 discriminator 2 view .LVU418
# src/avx_analysis_code_ablations/opt9_abl_hand_vec_no_tile.cpp:96:         for (int y = p.y_begin; y < p.y_end; ++y) {
	.loc 1 96 39 is_stmt 0 discriminator 2 view .LVU419
	mov	DWORD PTR 184[rsp], ecx	# %sfp, _371
# src/avx_analysis_code_ablations/opt9_abl_hand_vec_no_tile.cpp:96:         for (int y = p.y_begin; y < p.y_end; ++y) {
	.loc 1 96 35 discriminator 2 view .LVU420
	cmp	ebx, ecx	# y, _371
	jge	.L42	#,
.LBB2685:
# src/avx_analysis_code_ablations/opt9_abl_hand_vec_no_tile.cpp:97:             size_t ind_ltop = ((y + p.sy) * width + (p.x_begin + p.sx)) * 3;
	.loc 1 97 56 view .LVU421
	movsxd	rsi, DWORD PTR 24[rax]	#, MEM[(int *)_1129 + 24B]
.LBE2685:
.LBE2705:
# src/avx_analysis_code_ablations/opt9_abl_hand_vec_no_tile.cpp:91:         const __m256 Avx = _mm256_set1_ps(p.A);
	.loc 1 91 45 view .LVU422
	vmovss	xmm16, DWORD PTR 8[rax]	# _73, MEM[(float *)_1129 + 8B]
# src/avx_analysis_code_ablations/opt9_abl_hand_vec_no_tile.cpp:92:         const __m256 Bvx = _mm256_set1_ps(p.B);
	.loc 1 92 45 view .LVU423
	vmovss	xmm15, DWORD PTR 12[rax]	# _74, MEM[(float *)_1129 + 12B]
# src/avx_analysis_code_ablations/opt9_abl_hand_vec_no_tile.cpp:93:         const __m256 Cvx = _mm256_set1_ps(p.C);
	.loc 1 93 45 view .LVU424
	vmovss	xmm14, DWORD PTR 16[rax]	# _75, MEM[(float *)_1129 + 16B]
# src/avx_analysis_code_ablations/opt9_abl_hand_vec_no_tile.cpp:94:         const __m256 Dvx = _mm256_set1_ps(p.D);
	.loc 1 94 45 view .LVU425
	vmovss	xmm13, DWORD PTR 20[rax]	# _76, MEM[(float *)_1129 + 20B]
.LBB2706:
.LBB2686:
# src/avx_analysis_code_ablations/opt9_abl_hand_vec_no_tile.cpp:97:             size_t ind_ltop = ((y + p.sy) * width + (p.x_begin + p.sx)) * 3;
	.loc 1 97 64 view .LVU426
	mov	ecx, DWORD PTR [rax]	# _83, MEM[(int *)_1129]
.LBE2686:
.LBE2706:
# src/avx_analysis_code_ablations/opt9_abl_hand_vec_no_tile.cpp:91:         const __m256 Avx = _mm256_set1_ps(p.A);
	.loc 1 91 45 view .LVU427
	vbroadcastss	ymm18, xmm16	# tmp1557, _73
.LBB2707:
.LBB2687:
# src/avx_analysis_code_ablations/opt9_abl_hand_vec_no_tile.cpp:107:             const int x_stop = (p.x_end - p.x_begin) * 3;
	.loc 1 107 41 view .LVU428
	mov	eax, DWORD PTR 28[rax]	# MEM[(int *)_1129 + 28B], MEM[(int *)_1129 + 28B]
	movsxd	r8, DWORD PTR 4[rdx]	# _391, MEM[(int *)_1129 + 4B]
.LBE2687:
.LBE2707:
# src/avx_analysis_code_ablations/opt9_abl_hand_vec_no_tile.cpp:92:         const __m256 Bvx = _mm256_set1_ps(p.B);
	.loc 1 92 45 view .LVU429
	vbroadcastss	ymm17, xmm15	# tmp1558, _74
# src/avx_analysis_code_ablations/opt9_abl_hand_vec_no_tile.cpp:93:         const __m256 Cvx = _mm256_set1_ps(p.C);
	.loc 1 93 45 view .LVU430
	vbroadcastss	ymm11, xmm14	# tmp1559, _75
	mov	rdx, QWORD PTR 120[rsp]	# _629, %sfp
.LBB2708:
.LBB2688:
# src/avx_analysis_code_ablations/opt9_abl_hand_vec_no_tile.cpp:97:             size_t ind_ltop = ((y + p.sy) * width + (p.x_begin + p.sx)) * 3;
	.loc 1 97 64 view .LVU431
	add	ecx, esi	# _83, _81
.LBE2688:
.LBE2708:
# src/avx_analysis_code_ablations/opt9_abl_hand_vec_no_tile.cpp:94:         const __m256 Dvx = _mm256_set1_ps(p.D);
	.loc 1 94 45 view .LVU432
	vbroadcastss	ymm19, xmm13	# tmp1560, _76
.LBB2709:
.LBB2695:
# /usr/lib/gcc/x86_64-linux-gnu/16/include/avxintrin.h:1274: 				 __A, __A, __A, __A };
	.loc 13 1274 25 view .LVU433
	vmovaps	ymm3, ymm18	# _257, tmp1557
.LBE2695:
.LBE2709:
.LBB2710:
.LBB2689:
# src/avx_analysis_code_ablations/opt9_abl_hand_vec_no_tile.cpp:107:             const int x_stop = (p.x_end - p.x_begin) * 3;
	.loc 1 107 41 view .LVU434
	sub	eax, esi	# MEM[(int *)_1129 + 28B], _81
.LBE2689:
.LBE2710:
.LBB2711:
.LBB2698:
# /usr/lib/gcc/x86_64-linux-gnu/16/include/avxintrin.h:1274: 				 __A, __A, __A, __A };
	.loc 13 1274 25 view .LVU435
	vmovaps	ymm2, ymm17	# _258, tmp1558
.LBE2698:
.LBE2711:
.LBB2712:
.LBB2701:
	vmovaps	ymm1, ymm11	# _259, tmp1559
.LBE2701:
.LBE2712:
.LBB2713:
.LBB2690:
# src/avx_analysis_code_ablations/opt9_abl_hand_vec_no_tile.cpp:97:             size_t ind_ltop = ((y + p.sy) * width + (p.x_begin + p.sx)) * 3;
	.loc 1 97 64 view .LVU436
	movsxd	rcx, ecx	# _84, _83
# src/avx_analysis_code_ablations/opt9_abl_hand_vec_no_tile.cpp:107:             const int x_stop = (p.x_end - p.x_begin) * 3;
	.loc 1 107 23 view .LVU437
	lea	edi, [rax+rax*2]	# x_stop_242,
	movsxd	rax, ebx	# _590, y
.LBE2690:
.LBE2713:
.LBB2714:
.LBB2704:
# /usr/lib/gcc/x86_64-linux-gnu/16/include/avxintrin.h:1274: 				 __A, __A, __A, __A };
	.loc 13 1274 25 view .LVU438
	vmovaps	ymm0, ymm19	# _260, tmp1560
	add	r8, rax	# _425, _590
	imul	rax, rdx	# _231, _629
.LBE2704:
.LBE2714:
.LBB2715:
.LBB2691:
# src/avx_analysis_code_ablations/opt9_abl_hand_vec_no_tile.cpp:107:             const int x_stop = (p.x_end - p.x_begin) * 3;
	.loc 1 107 23 view .LVU439
	mov	DWORD PTR 192[rsp], edi	# %sfp, x_stop_242
	imul	r8, rdx	# _679, _629
	add	rax, rsi	# _610, _89
	lea	r9, [rcx+r8]	# _683,
	add	rcx, QWORD PTR 96[rsp]	# _433, %sfp
	lea	rax, [rax+rax*2]	# _130,
	add	rcx, r8	# _269, _679
	lea	r15, [r9+r9*2]	# ivtmp.517,
	lea	rcx, [rcx+rcx*2]	# ivtmp.520,
	mov	QWORD PTR 224[rsp], rcx	# %sfp, ivtmp.520
	mov	rcx, QWORD PTR 104[rsp]	# _599, %sfp
	lea	rax, [rcx+rax*4]	# ivtmp.521,
	mov	QWORD PTR 216[rsp], rax	# %sfp, ivtmp.521
	lea	eax, -8[rdi]	# _607,
# src/avx_analysis_code_ablations/opt9_abl_hand_vec_no_tile.cpp:134:             int remaining = x_stop - x;
	.loc 1 134 17 view .LVU440
	mov	ecx, eax	# _277, _607
	shr	eax, 3	# _981,
	and	ecx, -8	# _277,
	inc	rax	# _1231
	add	ecx, 8	# _950,
	sub	edi, ecx	# _876, _950
	mov	rcx, rax	# _983, _1231
	sal	rax, 3	# _651,
	mov	DWORD PTR 248[rsp], edi	# %sfp, _876
	sal	rcx, 5	# _983,
	mov	QWORD PTR 136[rsp], rax	# %sfp, _651
	lea	eax, -1[rdi]	# _748,
	shr	edi, 5	# bnd.316,
	mov	DWORD PTR 152[rsp], eax	# %sfp, _748
	mov	eax, edi	# _325, bnd.316
	sal	rax, 5	# _325,
	mov	QWORD PTR 160[rsp], rcx	# %sfp, _983
	mov	DWORD PTR 156[rsp], edi	# %sfp, bnd.316
	mov	QWORD PTR 144[rsp], rax	# %sfp, _325
.LVL89:
	.p2align 4,,10
	.p2align 3
.L50:
	.loc 1 97 13 is_stmt 1 view .LVU441
	.loc 1 98 13 view .LVU442
# src/avx_analysis_code_ablations/opt9_abl_hand_vec_no_tile.cpp:98:             size_t ind_lbot = ind_ltop + width * 3;
	.loc 1 98 20 is_stmt 0 view .LVU443
	mov	rax, QWORD PTR 224[rsp]	# ivtmp.520, %sfp
.LBB2587:
# src/avx_analysis_code_ablations/opt9_abl_hand_vec_no_tile.cpp:110:             for (; x + 8 <= x_stop; x += 8) {
	.loc 1 110 26 discriminator 2 view .LVU444
	cmp	DWORD PTR 192[rsp], 7	# %sfp,
.LBE2587:
# src/avx_analysis_code_ablations/opt9_abl_hand_vec_no_tile.cpp:99:             size_t ind_rtop = ind_ltop + 3;
	.loc 1 99 20 view .LVU445
	lea	rcx, 3[r15]	# ind_rtop,
# src/avx_analysis_code_ablations/opt9_abl_hand_vec_no_tile.cpp:98:             size_t ind_lbot = ind_ltop + width * 3;
	.loc 1 98 20 view .LVU446
	lea	rdx, -3[rax]	# ind_lbot,
.LVL90:
	.loc 1 99 13 is_stmt 1 view .LVU447
	.loc 1 100 13 view .LVU448
	.loc 1 102 13 view .LVU449
# src/avx_analysis_code_ablations/opt9_abl_hand_vec_no_tile.cpp:104:                         + (size_t)p.x_begin * 3;
	.loc 1 104 47 is_stmt 0 view .LVU450
	mov	rax, QWORD PTR 216[rsp]	# vp, %sfp
.LVL91:
	.loc 1 106 13 is_stmt 1 view .LVU451
	.loc 1 107 13 view .LVU452
	.loc 1 110 13 view .LVU453
.LBB2662:
	.loc 1 110 26 discriminator 2 view .LVU454
	jle	.L159	#,
.LBB2588:
# src/avx_analysis_code_ablations/opt9_abl_hand_vec_no_tile.cpp:111:                 __m128i ltop_b = _mm_loadl_epi64(reinterpret_cast<const __m128i*>(p.SUB + ind_ltop));
	.loc 1 111 85 is_stmt 0 view .LVU455
	mov	rsi, QWORD PTR 200[rsp]	# ivtmp.528, %sfp
	mov	rdi, QWORD PTR 160[rsp]	# _983, %sfp
	mov	rsi, QWORD PTR 40[rsi]	# _94, MEM[(const unsigned char * *)_1129 + 40B]
	add	rdi, rax	# _985, ivtmp.521
	lea	r8, [rsi+rdx]	# ivtmp.509,
.LVL92:
	.p2align 4,,10
	.p2align 3
.L46:
	.loc 1 111 17 is_stmt 1 view .LVU456
.LBB2589:
.LBI2589:
	.file 14 "/usr/lib/gcc/x86_64-linux-gnu/16/include/emmintrin.h"
	.loc 14 711 1 view .LVU457
.LBB2590:
	.loc 14 713 3 view .LVU458
	mov	r9, r8	# _996, ivtmp.509
.LBE2590:
.LBE2589:
.LBB2596:
.LBB2597:
# /usr/lib/gcc/x86_64-linux-gnu/16/include/avx2intrin.h:491:   return (__m256i) __builtin_ia32_pmovzxbd256 ((__v16qi)__X);
	.file 15 "/usr/lib/gcc/x86_64-linux-gnu/16/include/avx2intrin.h"
	.loc 15 491 47 is_stmt 0 view .LVU459
	vpmovzxbd	ymm6, QWORD PTR [r8]	# tmp938, MEM[(__m64_u * {ref-all})_998]
.LBE2597:
.LBE2596:
.LBB2599:
.LBB2600:
	vpmovzxbd	ymm5, QWORD PTR 3[r8]	# tmp948, MEM[(__m64_u * {ref-all})_998 + 3B]
.LBE2600:
.LBE2599:
# src/avx_analysis_code_ablations/opt9_abl_hand_vec_no_tile.cpp:128:                 vp += 8;
	.loc 1 128 20 view .LVU460
	add	rax, 32	# vp,
.LVL93:
	.loc 1 128 20 view .LVU461
	sub	r9, rdx	# _996, ind_lbot
.LVL94:
.LBB2602:
.LBB2595:
.LBB2591:
.LBI2591:
	.loc 14 600 1 is_stmt 1 view .LVU462
.LBB2592:
	.loc 14 602 3 view .LVU463
.LBB2593:
.LBI2593:
	.loc 14 594 1 view .LVU464
.LBB2594:
	.loc 14 596 3 view .LVU465
	.loc 14 596 3 is_stmt 0 view .LVU466
.LBE2594:
.LBE2593:
.LBE2592:
.LBE2591:
.LBE2595:
.LBE2602:
	.loc 1 112 17 is_stmt 1 view .LVU467
.LBB2603:
.LBI2603:
	.loc 14 711 1 view .LVU468
.LBB2604:
	.loc 14 713 3 view .LVU469
.LBB2605:
.LBI2605:
	.loc 14 600 1 view .LVU470
.LBB2606:
	.loc 14 602 3 view .LVU471
.LBB2607:
.LBI2607:
	.loc 14 594 1 view .LVU472
.LBB2608:
	.loc 14 596 3 view .LVU473
	.loc 14 596 3 is_stmt 0 view .LVU474
.LBE2608:
.LBE2607:
.LBE2606:
.LBE2605:
.LBE2604:
.LBE2603:
	.loc 1 113 17 is_stmt 1 view .LVU475
.LBB2609:
.LBI2609:
	.loc 14 711 1 view .LVU476
.LBB2610:
	.loc 14 713 3 view .LVU477
.LBB2611:
.LBI2611:
	.loc 14 600 1 view .LVU478
.LBB2612:
	.loc 14 602 3 view .LVU479
.LBB2613:
.LBI2613:
	.loc 14 594 1 view .LVU480
.LBB2614:
	.loc 14 596 3 view .LVU481
	.loc 14 596 3 is_stmt 0 view .LVU482
.LBE2614:
.LBE2613:
.LBE2612:
.LBE2611:
.LBE2610:
.LBE2609:
	.loc 1 114 17 is_stmt 1 view .LVU483
.LBB2615:
.LBI2615:
	.loc 14 711 1 view .LVU484
.LBB2616:
	.loc 14 713 3 view .LVU485
.LBB2617:
.LBI2617:
	.loc 14 600 1 view .LVU486
.LBB2618:
	.loc 14 602 3 view .LVU487
.LBB2619:
.LBI2619:
	.loc 14 594 1 view .LVU488
.LBB2620:
	.loc 14 596 3 view .LVU489
	.loc 14 596 3 is_stmt 0 view .LVU490
.LBE2620:
.LBE2619:
.LBE2618:
.LBE2617:
.LBE2616:
.LBE2615:
	.loc 1 116 17 is_stmt 1 view .LVU491
.LBB2621:
.LBI2621:
	.loc 15 489 1 view .LVU492
.LBB2622:
	.loc 15 491 3 view .LVU493
.LBE2622:
.LBE2621:
.LBE2588:
# src/avx_analysis_code_ablations/opt9_abl_hand_vec_no_tile.cpp:110:             for (; x + 8 <= x_stop; x += 8) {
	.loc 1 110 26 is_stmt 0 discriminator 2 view .LVU494
	add	r8, 8	# ivtmp.509,
.LVL95:
.LBB2661:
.LBB2624:
.LBB2623:
# /usr/lib/gcc/x86_64-linux-gnu/16/include/avx2intrin.h:491:   return (__m256i) __builtin_ia32_pmovzxbd256 ((__v16qi)__X);
	.loc 15 491 47 view .LVU495
	vpmovzxbd	ymm8, QWORD PTR [r9+r15]	# tmp933, MEM[(__m64_u * {ref-all})_996 + ivtmp.517_63 * 1]
.LVL96:
	.loc 15 491 47 view .LVU496
.LBE2623:
.LBE2624:
.LBB2625:
.LBI2625:
	.loc 13 405 1 is_stmt 1 view .LVU497
.LBB2626:
	.loc 13 407 3 view .LVU498
.LBE2626:
.LBE2625:
.LBB2628:
.LBB2629:
# /usr/lib/gcc/x86_64-linux-gnu/16/include/avx2intrin.h:491:   return (__m256i) __builtin_ia32_pmovzxbd256 ((__v16qi)__X);
	.loc 15 491 47 is_stmt 0 view .LVU499
	vpmovzxbd	ymm7, QWORD PTR 3[r9+r15]	# tmp943, MEM[(__m64_u * {ref-all})_996 + 3B + ivtmp.517_63 * 1]
.LBE2629:
.LBE2628:
.LBB2631:
.LBB2632:
# /usr/lib/gcc/x86_64-linux-gnu/16/include/avxintrin.h:407:   return (__m256)__builtin_ia32_cvtdq2ps256 ((__v8si) __A);
	.loc 13 407 10 view .LVU500
	vcvtdq2ps	ymm6, ymm6	# tmp942, tmp938
.LBE2632:
.LBE2631:
.LBB2634:
.LBB2635:
	vcvtdq2ps	ymm5, ymm5	# tmp952, tmp948
.LBE2635:
.LBE2634:
.LBB2637:
.LBB2627:
	vcvtdq2ps	ymm8, ymm8	# tmp937, tmp933
.LVL97:
	.loc 13 407 10 view .LVU501
.LBE2627:
.LBE2637:
	.loc 1 117 17 is_stmt 1 view .LVU502
.LBB2638:
.LBI2596:
	.loc 15 489 1 view .LVU503
.LBB2598:
	.loc 15 491 3 view .LVU504
.LBE2598:
.LBE2638:
.LBB2639:
.LBI2631:
	.loc 13 405 1 view .LVU505
.LBB2633:
	.loc 13 407 3 view .LVU506
	.loc 13 407 3 is_stmt 0 view .LVU507
.LBE2633:
.LBE2639:
	.loc 1 118 17 is_stmt 1 view .LVU508
.LBB2640:
.LBI2628:
	.loc 15 489 1 view .LVU509
.LBB2630:
	.loc 15 491 3 view .LVU510
	.loc 15 491 3 is_stmt 0 view .LVU511
.LBE2630:
.LBE2640:
.LBB2641:
.LBI2641:
	.loc 13 405 1 is_stmt 1 view .LVU512
.LBB2642:
	.loc 13 407 3 view .LVU513
.LBE2642:
.LBE2641:
.LBB2644:
.LBB2645:
# /usr/lib/gcc/x86_64-linux-gnu/16/include/fmaintrin.h:65:   return (__m256)__builtin_ia32_vfmaddps256 ((__v8sf)__A, (__v8sf)__B,
	.file 16 "/usr/lib/gcc/x86_64-linux-gnu/16/include/fmaintrin.h"
	.loc 16 65 10 is_stmt 0 view .LVU514
	vfmadd213ps	ymm8, ymm3, YMMWORD PTR -32[rax]	# tmp953, _257, MEM[(__m256_u * {ref-all})vp_588]
.LVL98:
	.loc 16 65 10 view .LVU515
.LBE2645:
.LBE2644:
.LBB2647:
.LBB2643:
# /usr/lib/gcc/x86_64-linux-gnu/16/include/avxintrin.h:407:   return (__m256)__builtin_ia32_cvtdq2ps256 ((__v8si) __A);
	.loc 13 407 10 view .LVU516
	vcvtdq2ps	ymm7, ymm7	# tmp947, tmp943
.LVL99:
	.loc 13 407 10 view .LVU517
.LBE2643:
.LBE2647:
	.loc 1 119 17 is_stmt 1 view .LVU518
.LBB2648:
.LBI2599:
	.loc 15 489 1 view .LVU519
.LBB2601:
	.loc 15 491 3 view .LVU520
.LBE2601:
.LBE2648:
.LBB2649:
.LBI2634:
	.loc 13 405 1 view .LVU521
.LBB2636:
	.loc 13 407 3 view .LVU522
	.loc 13 407 3 is_stmt 0 view .LVU523
.LBE2636:
.LBE2649:
	.loc 1 121 17 is_stmt 1 view .LVU524
.LBB2650:
.LBI2650:
	.loc 13 847 1 view .LVU525
.LBB2651:
	.loc 13 849 3 view .LVU526
.LBE2651:
.LBE2650:
	.loc 1 122 17 view .LVU527
.LBB2652:
.LBI2644:
	.loc 16 63 1 view .LVU528
.LBB2646:
	.loc 16 65 3 view .LVU529
	.loc 16 65 3 is_stmt 0 view .LVU530
.LBE2646:
.LBE2652:
	.loc 1 123 17 is_stmt 1 view .LVU531
.LBB2653:
.LBI2653:
	.loc 16 63 1 view .LVU532
.LBB2654:
	.loc 16 65 3 view .LVU533
# /usr/lib/gcc/x86_64-linux-gnu/16/include/fmaintrin.h:65:   return (__m256)__builtin_ia32_vfmaddps256 ((__v8sf)__A, (__v8sf)__B,
	.loc 16 65 10 is_stmt 0 view .LVU534
	vfmadd132ps	ymm7, ymm8, ymm2	# tmp955, tmp953, _258
.LVL100:
	.loc 16 65 10 view .LVU535
.LBE2654:
.LBE2653:
	.loc 1 124 17 is_stmt 1 view .LVU536
.LBB2655:
.LBI2655:
	.loc 16 63 1 view .LVU537
.LBB2656:
	.loc 16 65 3 view .LVU538
# /usr/lib/gcc/x86_64-linux-gnu/16/include/fmaintrin.h:65:   return (__m256)__builtin_ia32_vfmaddps256 ((__v8sf)__A, (__v8sf)__B,
	.loc 16 65 10 is_stmt 0 view .LVU539
	vfmadd132ps	ymm6, ymm7, ymm1	# tmp956, tmp955, _259
.LVL101:
	.loc 16 65 10 view .LVU540
.LBE2656:
.LBE2655:
	.loc 1 125 17 is_stmt 1 view .LVU541
.LBB2657:
.LBI2657:
	.loc 16 63 1 view .LVU542
.LBB2658:
	.loc 16 65 3 view .LVU543
# /usr/lib/gcc/x86_64-linux-gnu/16/include/fmaintrin.h:65:   return (__m256)__builtin_ia32_vfmaddps256 ((__v8sf)__A, (__v8sf)__B,
	.loc 16 65 10 is_stmt 0 view .LVU544
	vfmadd132ps	ymm5, ymm6, ymm0	# tmp957, tmp956, _260
.LVL102:
	.loc 16 65 10 view .LVU545
.LBE2658:
.LBE2657:
	.loc 1 126 17 is_stmt 1 view .LVU546
.LBB2659:
.LBI2659:
	.loc 13 853 1 view .LVU547
.LBB2660:
	.loc 13 855 3 view .LVU548
# /usr/lib/gcc/x86_64-linux-gnu/16/include/avxintrin.h:855:   *(__m256_u *)__P = __A;
	.loc 13 855 20 is_stmt 0 view .LVU549
	vmovups	YMMWORD PTR -32[rax], ymm5	# MEM[(__m256_u * {ref-all})vp_588], tmp957
.LVL103:
	.loc 13 855 20 view .LVU550
.LBE2660:
.LBE2659:
	.loc 1 128 17 is_stmt 1 view .LVU551
	.loc 1 129 17 view .LVU552
	.loc 1 129 32 view .LVU553
	.loc 1 130 17 view .LVU554
	.loc 1 130 32 view .LVU555
.LBE2661:
	.loc 1 110 13 discriminator 1 view .LVU556
	.loc 1 110 26 discriminator 2 view .LVU557
	cmp	rax, rdi	# vp, _985
	jne	.L46	#,
.LBE2662:
	.loc 1 134 13 view .LVU558
	.loc 1 135 13 view .LVU559
.LVL104:
.LBB2663:
	.loc 1 135 31 discriminator 2 view .LVU560
	mov	r8d, DWORD PTR 248[rsp]	#, %sfp
.LVL105:
	.loc 1 135 31 is_stmt 0 discriminator 2 view .LVU561
	test	r8d, r8d	#
	jle	.L44	#,
	mov	rax, QWORD PTR 136[rsp]	# _651, %sfp
.LVL106:
	.loc 1 135 31 discriminator 2 view .LVU562
	mov	rbx, QWORD PTR 224[rsp]	# ivtmp.520, %sfp
	add	rcx, rax	# ind_rtop, _651
	lea	r14, [rbx+rax]	# ind_rbot,
	lea	r11, [r15+rax]	# ind_ltop,
	add	rdx, rax	# ind_lbot, _651
	cmp	DWORD PTR 152[rsp], 30	# %sfp,
	jbe	.L80	#,
	mov	r12, QWORD PTR 144[rsp]	# _370, %sfp
	lea	r10, [rsi+r14]	# vectp.320,
	lea	r9, [rsi+rdx]	# vectp.326,
.LVL107:
	.loc 1 135 31 discriminator 2 view .LVU563
	add	rcx, rsi	# tmp1487, _94
	lea	rbx, [rsi+r11]	# vectp.344,
	mov	rax, rdi	# ivtmp.482, _985
	xor	r8d, r8d	# ivtmp.484
.LVL108:
	.p2align 4,,10
	.p2align 3
.L48:
.LBB2664:
	.loc 1 136 17 is_stmt 1 view .LVU564
# src/avx_analysis_code_ablations/opt9_abl_hand_vec_no_tile.cpp:138:                 float BL = p.SUB[ind_lbot + k];
	.loc 1 138 46 is_stmt 0 discriminator 40960 view .LVU565
	vmovdqu	ymm5, YMMWORD PTR [r9+r8]	# MEM <const vector(32) unsigned char> [(const unsigned char *)vectp.326_718 + ivtmp.484_384 * 1], MEM <const vector(32) unsigned char> [(const unsigned char *)vectp.326_718 + ivtmp.484_384 * 1]
# src/avx_analysis_code_ablations/opt9_abl_hand_vec_no_tile.cpp:137:                 float TR = p.SUB[ind_rtop + k];
	.loc 1 137 46 discriminator 40960 view .LVU566
	vmovdqu	ymm6, YMMWORD PTR [rcx+r8]	# MEM <const vector(32) unsigned char> [(const unsigned char *)vectp.332_700 + ivtmp.484_384 * 1], MEM <const vector(32) unsigned char> [(const unsigned char *)vectp.332_700 + ivtmp.484_384 * 1]
	sub	rax, -128	# ivtmp.482,
# src/avx_analysis_code_ablations/opt9_abl_hand_vec_no_tile.cpp:136:                 float TL = p.SUB[ind_ltop + k];
	.loc 1 136 46 discriminator 40960 view .LVU567
	vmovdqu	ymm7, YMMWORD PTR [rbx+r8]	# MEM <const vector(32) unsigned char> [(const unsigned char *)vectp.344_595 + ivtmp.484_384 * 1], MEM <const vector(32) unsigned char> [(const unsigned char *)vectp.344_595 + ivtmp.484_384 * 1]
# src/avx_analysis_code_ablations/opt9_abl_hand_vec_no_tile.cpp:138:                 float BL = p.SUB[ind_lbot + k];
	.loc 1 138 23 discriminator 40960 view .LVU568
	vpmovzxbw	ymm9, xmm5	#, MEM <const vector(32) unsigned char> [(const unsigned char *)vectp.326_718 + ivtmp.484_384 * 1]
# src/avx_analysis_code_ablations/opt9_abl_hand_vec_no_tile.cpp:137:                 float TR = p.SUB[ind_rtop + k];
	.loc 1 137 23 discriminator 40960 view .LVU569
	vpmovzxbw	ymm8, xmm6	#, MEM <const vector(32) unsigned char> [(const unsigned char *)vectp.332_700 + ivtmp.484_384 * 1]
# src/avx_analysis_code_ablations/opt9_abl_hand_vec_no_tile.cpp:138:                 float BL = p.SUB[ind_lbot + k];
	.loc 1 138 23 discriminator 40960 view .LVU570
	vextracti32x4	xmm5, ymm5, 0x1	# tmp970, MEM <const vector(32) unsigned char> [(const unsigned char *)vectp.326_718 + ivtmp.484_384 * 1]
	vpmovsxwd	ymm12, xmm9	#, vect_BL_247.329
	vextracti32x4	xmm9, ymm9, 0x1	# tmp983, vect_BL_247.329
# src/avx_analysis_code_ablations/opt9_abl_hand_vec_no_tile.cpp:137:                 float TR = p.SUB[ind_rtop + k];
	.loc 1 137 23 discriminator 40960 view .LVU571
	vpmovsxwd	ymm10, xmm8	#, vect_TR_246.335
# src/avx_analysis_code_ablations/opt9_abl_hand_vec_no_tile.cpp:138:                 float BL = p.SUB[ind_lbot + k];
	.loc 1 138 23 discriminator 40960 view .LVU572
	vpmovsxwd	ymm9, xmm9	# tmp982, tmp983
# src/avx_analysis_code_ablations/opt9_abl_hand_vec_no_tile.cpp:137:                 float TR = p.SUB[ind_rtop + k];
	.loc 1 137 23 discriminator 40960 view .LVU573
	vextracti32x4	xmm8, ymm8, 0x1	# tmp980, vect_TR_246.335
# src/avx_analysis_code_ablations/opt9_abl_hand_vec_no_tile.cpp:138:                 float BL = p.SUB[ind_lbot + k];
	.loc 1 138 23 discriminator 40960 view .LVU574
	vpmovzxbw	ymm5, xmm5	# vect_BL_247.329, tmp970
	vcvtdq2ps	ymm12, ymm12	# vect_BL_247.328_712, tmp975
# src/avx_analysis_code_ablations/opt9_abl_hand_vec_no_tile.cpp:137:                 float TR = p.SUB[ind_rtop + k];
	.loc 1 137 23 discriminator 40960 view .LVU575
	vcvtdq2ps	ymm10, ymm10	# vect_TR_246.334_694, tmp972
# src/avx_analysis_code_ablations/opt9_abl_hand_vec_no_tile.cpp:138:                 float BL = p.SUB[ind_lbot + k];
	.loc 1 138 23 discriminator 40960 view .LVU576
	vcvtdq2ps	ymm9, ymm9	# vect_BL_247.328_711, tmp982
# src/avx_analysis_code_ablations/opt9_abl_hand_vec_no_tile.cpp:140:                 vp[k] += p.A*TL + p.B*TR + p.C*BL + p.D*BR;
	.loc 1 140 47 discriminator 40960 view .LVU577
	vmulps	ymm9, ymm9, ymm1	# vect__123.330_707, vect_BL_247.328_711, _259
# src/avx_analysis_code_ablations/opt9_abl_hand_vec_no_tile.cpp:137:                 float TR = p.SUB[ind_rtop + k];
	.loc 1 137 23 discriminator 40960 view .LVU578
	vpmovsxwd	ymm8, xmm8	# tmp979, tmp980
	vextracti32x4	xmm6, ymm6, 0x1	# tmp967, MEM <const vector(32) unsigned char> [(const unsigned char *)vectp.332_700 + ivtmp.484_384 * 1]
# src/avx_analysis_code_ablations/opt9_abl_hand_vec_no_tile.cpp:140:                 vp[k] += p.A*TL + p.B*TR + p.C*BL + p.D*BR;
	.loc 1 140 47 discriminator 40960 view .LVU579
	vmulps	ymm12, ymm12, ymm1	# vect__123.330_708, vect_BL_247.328_712, _259
# src/avx_analysis_code_ablations/opt9_abl_hand_vec_no_tile.cpp:137:                 float TR = p.SUB[ind_rtop + k];
	.loc 1 137 23 discriminator 40960 view .LVU580
	vcvtdq2ps	ymm8, ymm8	# vect_TR_246.334_693, tmp979
	vpmovzxbw	ymm6, xmm6	# vect_TR_246.335, tmp967
# src/avx_analysis_code_ablations/opt9_abl_hand_vec_no_tile.cpp:136:                 float TL = p.SUB[ind_ltop + k];
	.loc 1 136 23 discriminator 40960 view .LVU581
	vpmovzxbw	ymm22, xmm7	#, MEM <const vector(32) unsigned char> [(const unsigned char *)vectp.344_595 + ivtmp.484_384 * 1]
	vextracti32x4	xmm7, ymm7, 0x1	# tmp964, MEM <const vector(32) unsigned char> [(const unsigned char *)vectp.344_595 + ivtmp.484_384 * 1]
	vpmovzxbw	ymm7, xmm7	# vect_TL_245.347, tmp964
.LVL109:
	.loc 1 137 17 is_stmt 1 view .LVU582
	.loc 1 138 17 view .LVU583
	vfmadd132ps	ymm8, ymm9, ymm2	# _992, vect__123.330_707, _258
# src/avx_analysis_code_ablations/opt9_abl_hand_vec_no_tile.cpp:138:                 float BL = p.SUB[ind_lbot + k];
	.loc 1 138 23 is_stmt 0 discriminator 40960 view .LVU584
	vpmovsxwd	ymm9, xmm5	#, vect_BL_247.329
	vextracti32x4	xmm5, ymm5, 0x1	# tmp997, vect_BL_247.329
	vcvtdq2ps	ymm9, ymm9	# vect_BL_247.328_710, tmp989
# src/avx_analysis_code_ablations/opt9_abl_hand_vec_no_tile.cpp:140:                 vp[k] += p.A*TL + p.B*TR + p.C*BL + p.D*BR;
	.loc 1 140 47 discriminator 40960 view .LVU585
	vmulps	ymm9, ymm9, ymm1	# vect__123.330_706, vect_BL_247.328_710, _259
	vfmadd132ps	ymm10, ymm12, ymm2	# _875, vect__123.330_708, _258
# src/avx_analysis_code_ablations/opt9_abl_hand_vec_no_tile.cpp:138:                 float BL = p.SUB[ind_lbot + k];
	.loc 1 138 23 discriminator 40960 view .LVU586
	vpmovsxwd	ymm5, xmm5	# tmp996, tmp997
	vcvtdq2ps	ymm5, ymm5	# vect_BL_247.328_709, tmp996
# src/avx_analysis_code_ablations/opt9_abl_hand_vec_no_tile.cpp:140:                 vp[k] += p.A*TL + p.B*TR + p.C*BL + p.D*BR;
	.loc 1 140 47 discriminator 40960 view .LVU587
	vmulps	ymm5, ymm5, ymm1	# vect__123.330_705, vect_BL_247.328_709, _259
# src/avx_analysis_code_ablations/opt9_abl_hand_vec_no_tile.cpp:137:                 float TR = p.SUB[ind_rtop + k];
	.loc 1 137 23 discriminator 40960 view .LVU588
	vpmovsxwd	ymm12, xmm6	#, vect_TR_246.335
	vextracti32x4	xmm6, ymm6, 0x1	# tmp994, vect_TR_246.335
	vcvtdq2ps	ymm12, ymm12	# vect_TR_246.334_692, tmp986
	vpmovsxwd	ymm6, xmm6	# tmp993, tmp994
	vcvtdq2ps	ymm6, ymm6	# vect_TR_246.334_691, tmp993
	vfmadd132ps	ymm12, ymm9, ymm2	# _965, vect__123.330_706, _258
# src/avx_analysis_code_ablations/opt9_abl_hand_vec_no_tile.cpp:136:                 float TL = p.SUB[ind_ltop + k];
	.loc 1 136 23 discriminator 40960 view .LVU589
	vpmovsxwd	ymm9, xmm22	#, vect_TL_245.347
	vcvtdq2ps	ymm9, ymm9	# vect_TL_245.346_577, tmp1007
	vfmadd213ps	ymm9, ymm3, YMMWORD PTR -128[rax]	# tmp1005, _257, MEM <vector(8) float> [(float *)_1050]
	vfmadd132ps	ymm6, ymm5, ymm2	# _1014, vect__123.330_705, _258
.LVL110:
	.loc 1 139 17 is_stmt 1 view .LVU590
# src/avx_analysis_code_ablations/opt9_abl_hand_vec_no_tile.cpp:139:                 float BR = p.SUB[ind_rbot + k];
	.loc 1 139 46 is_stmt 0 discriminator 40960 view .LVU591
	vmovdqu	ymm5, YMMWORD PTR [r10+r8]	# MEM <const vector(32) unsigned char> [(const unsigned char *)vectp.320_736 + ivtmp.484_384 * 1], MEM <const vector(32) unsigned char> [(const unsigned char *)vectp.320_736 + ivtmp.484_384 * 1]
	add	r8, 32	# ivtmp.484,
# src/avx_analysis_code_ablations/opt9_abl_hand_vec_no_tile.cpp:139:                 float BR = p.SUB[ind_rbot + k];
	.loc 1 139 23 discriminator 40960 view .LVU592
	vpmovzxbw	ymm21, xmm5	#, MEM <const vector(32) unsigned char> [(const unsigned char *)vectp.320_736 + ivtmp.484_384 * 1]
	vextracti32x4	xmm5, ymm5, 0x1	# tmp1001, MEM <const vector(32) unsigned char> [(const unsigned char *)vectp.320_736 + ivtmp.484_384 * 1]
	vpmovsxwd	ymm20, xmm21	#, vect_BR_248.323
	vextracti32x4	xmm21, ymm21, 0x1	# tmp1012, vect_BR_248.323
	vpmovzxbw	ymm5, xmm5	# vect_BR_248.323, tmp1001
.LVL111:
	.loc 1 140 17 is_stmt 1 view .LVU593
# src/avx_analysis_code_ablations/opt9_abl_hand_vec_no_tile.cpp:139:                 float BR = p.SUB[ind_rbot + k];
	.loc 1 139 23 is_stmt 0 discriminator 40960 view .LVU594
	vcvtdq2ps	ymm20, ymm20	# vect_BR_248.322_730, tmp1003
	vpmovsxwd	ymm21, xmm21	# tmp1011, tmp1012
	vfmadd132ps	ymm20, ymm9, ymm0	# _926, tmp1005, _260
# src/avx_analysis_code_ablations/opt9_abl_hand_vec_no_tile.cpp:136:                 float TL = p.SUB[ind_ltop + k];
	.loc 1 136 23 discriminator 40960 view .LVU595
	vextracti32x4	xmm9, ymm22, 0x1	# tmp1016, vect_TL_245.347
	vpmovsxwd	ymm22, xmm7	#, vect_TL_245.347
# src/avx_analysis_code_ablations/opt9_abl_hand_vec_no_tile.cpp:139:                 float BR = p.SUB[ind_rbot + k];
	.loc 1 139 23 discriminator 40960 view .LVU596
	vcvtdq2ps	ymm21, ymm21	# vect_BR_248.322_729, tmp1011
# src/avx_analysis_code_ablations/opt9_abl_hand_vec_no_tile.cpp:136:                 float TL = p.SUB[ind_ltop + k];
	.loc 1 136 23 discriminator 40960 view .LVU597
	vpmovsxwd	ymm9, xmm9	# tmp1015, tmp1016
	vextracti32x4	xmm7, ymm7, 0x1	# tmp1033, vect_TL_245.347
	vcvtdq2ps	ymm22, ymm22	# vect_TL_245.346_575, tmp1023
	vcvtdq2ps	ymm9, ymm9	# vect_TL_245.346_576, tmp1015
	vfmadd213ps	ymm9, ymm3, YMMWORD PTR -96[rax]	# tmp1013, _257, MEM <vector(8) float> [(float *)_1050 + 32B]
	vfmadd213ps	ymm22, ymm3, YMMWORD PTR -64[rax]	# tmp1021, _257, MEM <vector(8) float> [(float *)_1050 + 64B]
	vpmovsxwd	ymm7, xmm7	# tmp1032, tmp1033
	vcvtdq2ps	ymm7, ymm7	# vect_TL_245.346_574, tmp1032
# src/avx_analysis_code_ablations/opt9_abl_hand_vec_no_tile.cpp:140:                 vp[k] += p.A*TL + p.B*TR + p.C*BL + p.D*BR;
	.loc 1 140 23 discriminator 40960 view .LVU598
	vfmadd213ps	ymm7, ymm3, YMMWORD PTR -32[rax]	# tmp1030, _257, MEM <vector(8) float> [(float *)_1050 + 96B]
	vaddps	ymm10, ymm10, ymm20	# vect__128.352_545, _875, _926
	vfmadd132ps	ymm21, ymm9, ymm0	# _1005, tmp1013, _260
# src/avx_analysis_code_ablations/opt9_abl_hand_vec_no_tile.cpp:139:                 float BR = p.SUB[ind_rbot + k];
	.loc 1 139 23 discriminator 40960 view .LVU599
	vpmovsxwd	ymm9, xmm5	#, vect_BR_248.323
	vextracti32x4	xmm5, ymm5, 0x1	# tmp1029, vect_BR_248.323
	vpmovsxwd	ymm5, xmm5	# tmp1028, tmp1029
	vcvtdq2ps	ymm9, ymm9	# vect_BR_248.322_728, tmp1019
	vfmadd132ps	ymm9, ymm22, ymm0	# _971, tmp1021, _260
# src/avx_analysis_code_ablations/opt9_abl_hand_vec_no_tile.cpp:140:                 vp[k] += p.A*TL + p.B*TR + p.C*BL + p.D*BR;
	.loc 1 140 23 discriminator 40960 view .LVU600
	vmovups	YMMWORD PTR -128[rax], ymm10	# MEM <vector(8) float> [(float *)_1050], vect__128.352_545
# src/avx_analysis_code_ablations/opt9_abl_hand_vec_no_tile.cpp:139:                 float BR = p.SUB[ind_rbot + k];
	.loc 1 139 23 discriminator 40960 view .LVU601
	vcvtdq2ps	ymm5, ymm5	# vect_BR_248.322_727, tmp1028
# src/avx_analysis_code_ablations/opt9_abl_hand_vec_no_tile.cpp:140:                 vp[k] += p.A*TL + p.B*TR + p.C*BL + p.D*BR;
	.loc 1 140 23 discriminator 40960 view .LVU602
	vfmadd132ps	ymm5, ymm7, ymm0	# tmp1026, tmp1030, _260
	vaddps	ymm8, ymm8, ymm21	# vect__128.352_544, _992, _1005
	vaddps	ymm12, ymm12, ymm9	# vect__128.352_543, _965, _971
	vaddps	ymm5, ymm5, ymm6	# vect__128.352, tmp1026, _1014
	vmovups	YMMWORD PTR -96[rax], ymm8	# MEM <vector(8) float> [(float *)_1050 + 32B], vect__128.352_544
	vmovups	YMMWORD PTR -64[rax], ymm12	# MEM <vector(8) float> [(float *)_1050 + 64B], vect__128.352_543
	vmovups	YMMWORD PTR -32[rax], ymm5	# MEM <vector(8) float> [(float *)_1050 + 96B], vect__128.352
.LBE2664:
	.loc 1 135 13 is_stmt 1 discriminator 1 view .LVU603
	.loc 1 135 31 discriminator 2 view .LVU604
	cmp	r12, r8	# _370, ivtmp.484
	jne	.L48	#,
	mov	ebx, DWORD PTR 156[rsp]	# niters_vector_mult_vf.317, %sfp
	sal	ebx, 5	# niters_vector_mult_vf.317,
	cmp	ebx, DWORD PTR 248[rsp]	# niters_vector_mult_vf.317, %sfp
	je	.L44	#,
	mov	r8d, ebx	# tmp.398, niters_vector_mult_vf.317
.LVL112:
.L47:
	.loc 1 135 31 is_stmt 0 discriminator 2 view .LVU605
	mov	r10d, DWORD PTR 248[rsp]	# niters.355, %sfp
	mov	rax, rdi	# vp, _985
	sub	r10d, ebx	# niters.355, niters_vector_mult_vf.317
	lea	r9d, -1[r10]	# _413,
	cmp	r9d, 14	# _413,
	jbe	.L81	#,
	mov	r12d, ebx	# _373, niters_vector_mult_vf.317
.LBB2665:
# src/avx_analysis_code_ablations/opt9_abl_hand_vec_no_tile.cpp:136:                 float TL = p.SUB[ind_ltop + k];
	.loc 1 136 46 discriminator 69632 view .LVU606
	lea	r13, [rsi+r12]	# tmp1045,
# src/avx_analysis_code_ablations/opt9_abl_hand_vec_no_tile.cpp:137:                 float TR = p.SUB[ind_rtop + k];
	.loc 1 137 46 discriminator 69632 view .LVU607
	vmovdqu	xmm6, XMMWORD PTR [rcx+r12]	# MEM <const vector(16) unsigned char> [(const unsigned char *)vectp.372_268], MEM <const vector(16) unsigned char> [(const unsigned char *)vectp.372_268]
	lea	r9, [r12+r14]	# _372,
# src/avx_analysis_code_ablations/opt9_abl_hand_vec_no_tile.cpp:138:                 float BL = p.SUB[ind_lbot + k];
	.loc 1 138 46 discriminator 69632 view .LVU608
	vmovdqu	xmm5, XMMWORD PTR 0[r13+rdx]	# MEM <const vector(16) unsigned char> [(const unsigned char *)vectp.366_331], MEM <const vector(16) unsigned char> [(const unsigned char *)vectp.366_331]
# src/avx_analysis_code_ablations/opt9_abl_hand_vec_no_tile.cpp:136:                 float TL = p.SUB[ind_ltop + k];
	.loc 1 136 46 discriminator 69632 view .LVU609
	vmovdqu	xmm7, XMMWORD PTR 0[r13+r11]	# MEM <const vector(16) unsigned char> [(const unsigned char *)vectp.384_146], MEM <const vector(16) unsigned char> [(const unsigned char *)vectp.384_146]
	mov	QWORD PTR 208[rsp], r9	# %sfp, _372
	lea	r9, [rdi+r12*4]	# vectp_vp.378,
	.loc 1 136 17 is_stmt 1 view .LVU610
# src/avx_analysis_code_ablations/opt9_abl_hand_vec_no_tile.cpp:137:                 float TR = p.SUB[ind_rtop + k];
	.loc 1 137 23 is_stmt 0 discriminator 69632 view .LVU611
	vpmovzxbw	xmm8, xmm6	# vect_TR_774.375, MEM <const vector(16) unsigned char> [(const unsigned char *)vectp.372_268]
	vpsrldq	xmm6, xmm6, 8	# tmp1052, MEM <const vector(16) unsigned char> [(const unsigned char *)vectp.372_268],
# src/avx_analysis_code_ablations/opt9_abl_hand_vec_no_tile.cpp:138:                 float BL = p.SUB[ind_lbot + k];
	.loc 1 138 23 discriminator 69632 view .LVU612
	vpmovzxbw	xmm9, xmm5	# vect_BL_770.369, MEM <const vector(16) unsigned char> [(const unsigned char *)vectp.366_331]
# src/avx_analysis_code_ablations/opt9_abl_hand_vec_no_tile.cpp:137:                 float TR = p.SUB[ind_rtop + k];
	.loc 1 137 23 discriminator 69632 view .LVU613
	vpmovsxwd	xmm20, xmm8	# tmp1058, vect_TR_774.375
# src/avx_analysis_code_ablations/opt9_abl_hand_vec_no_tile.cpp:136:                 float TL = p.SUB[ind_ltop + k];
	.loc 1 136 23 discriminator 69632 view .LVU614
	vpmovzxbw	xmm10, xmm7	# vect_TL_778.387, MEM <const vector(16) unsigned char> [(const unsigned char *)vectp.384_146]
# src/avx_analysis_code_ablations/opt9_abl_hand_vec_no_tile.cpp:138:                 float BL = p.SUB[ind_lbot + k];
	.loc 1 138 23 discriminator 69632 view .LVU615
	vpmovsxwd	xmm12, xmm9	# tmp1060, vect_BL_770.369
	vpsrldq	xmm9, xmm9, 8	# tmp1067, vect_BL_770.369,
# src/avx_analysis_code_ablations/opt9_abl_hand_vec_no_tile.cpp:137:                 float TR = p.SUB[ind_rtop + k];
	.loc 1 137 23 discriminator 69632 view .LVU616
	vpmovzxbw	xmm6, xmm6	# vect_TR_774.375, tmp1052
# src/avx_analysis_code_ablations/opt9_abl_hand_vec_no_tile.cpp:139:                 float BR = p.SUB[ind_rbot + k];
	.loc 1 139 46 discriminator 69632 view .LVU617
	mov	r13, QWORD PTR 208[rsp]	# _372, %sfp
# src/avx_analysis_code_ablations/opt9_abl_hand_vec_no_tile.cpp:137:                 float TR = p.SUB[ind_rtop + k];
	.loc 1 137 23 discriminator 69632 view .LVU618
	vcvtdq2ps	xmm20, xmm20	# vect_TR_774.374_207, tmp1058
# src/avx_analysis_code_ablations/opt9_abl_hand_vec_no_tile.cpp:138:                 float BL = p.SUB[ind_lbot + k];
	.loc 1 138 23 discriminator 69632 view .LVU619
	vpmovsxwd	xmm9, xmm9	# tmp1066, tmp1067
	vpsrldq	xmm5, xmm5, 8	# tmp1056, MEM <const vector(16) unsigned char> [(const unsigned char *)vectp.366_331],
	vcvtdq2ps	xmm12, xmm12	# vect_BL_770.368_316, tmp1060
# src/avx_analysis_code_ablations/opt9_abl_hand_vec_no_tile.cpp:136:                 float TL = p.SUB[ind_ltop + k];
	.loc 1 136 23 discriminator 69632 view .LVU620
	vpmovsxwd	xmm24, xmm10	# tmp1087, vect_TL_778.387
# src/avx_analysis_code_ablations/opt9_abl_hand_vec_no_tile.cpp:138:                 float BL = p.SUB[ind_lbot + k];
	.loc 1 138 23 discriminator 69632 view .LVU621
	vcvtdq2ps	xmm9, xmm9	# vect_BL_770.368_315, tmp1066
# src/avx_analysis_code_ablations/opt9_abl_hand_vec_no_tile.cpp:140:                 vp[k] += p.A*TL + p.B*TR + p.C*BL + p.D*BR;
	.loc 1 140 47 discriminator 69632 view .LVU622
	vmulps	xmm9, xmm9, xmm11	# vect__758.370_307, vect_BL_770.368_315, _1127
# src/avx_analysis_code_ablations/opt9_abl_hand_vec_no_tile.cpp:137:                 float TR = p.SUB[ind_rtop + k];
	.loc 1 137 23 discriminator 69632 view .LVU623
	vpsrldq	xmm8, xmm8, 8	# tmp1064, vect_TR_774.375,
# src/avx_analysis_code_ablations/opt9_abl_hand_vec_no_tile.cpp:138:                 float BL = p.SUB[ind_lbot + k];
	.loc 1 138 23 discriminator 69632 view .LVU624
	vpmovzxbw	xmm5, xmm5	# vect_BL_770.369, tmp1056
# src/avx_analysis_code_ablations/opt9_abl_hand_vec_no_tile.cpp:136:                 float TL = p.SUB[ind_ltop + k];
	.loc 1 136 23 discriminator 69632 view .LVU625
	vcvtdq2ps	xmm24, xmm24	# vect_TL_778.386_119, tmp1087
# src/avx_analysis_code_ablations/opt9_abl_hand_vec_no_tile.cpp:140:                 vp[k] += p.A*TL + p.B*TR + p.C*BL + p.D*BR;
	.loc 1 140 47 discriminator 69632 view .LVU626
	vmulps	xmm12, xmm12, xmm11	# vect__758.370_309, vect_BL_770.368_316, _1127
	vfmadd213ps	xmm24, xmm18, XMMWORD PTR [r9]	# tmp1085, tmp1557, MEM <vector(4) float> [(float *)vectp_vp.378_179]
# src/avx_analysis_code_ablations/opt9_abl_hand_vec_no_tile.cpp:137:                 float TR = p.SUB[ind_rtop + k];
	.loc 1 137 23 discriminator 69632 view .LVU627
	vpmovsxwd	xmm8, xmm8	# tmp1063, tmp1064
	vcvtdq2ps	xmm8, xmm8	# vect_TR_774.374_206, tmp1063
# src/avx_analysis_code_ablations/opt9_abl_hand_vec_no_tile.cpp:136:                 float TL = p.SUB[ind_ltop + k];
	.loc 1 136 23 discriminator 69632 view .LVU628
	vpsrldq	xmm7, xmm7, 8	# tmp1048, MEM <const vector(16) unsigned char> [(const unsigned char *)vectp.384_146],
	vpsrldq	xmm10, xmm10, 8	# tmp1095, vect_TL_778.387,
	vpmovzxbw	xmm7, xmm7	# vect_TL_778.387, tmp1048
.LVL113:
	.loc 1 137 17 is_stmt 1 view .LVU629
	.loc 1 138 17 view .LVU630
# src/avx_analysis_code_ablations/opt9_abl_hand_vec_no_tile.cpp:136:                 float TL = p.SUB[ind_ltop + k];
	.loc 1 136 23 is_stmt 0 discriminator 69632 view .LVU631
	vpmovsxwd	xmm10, xmm10	# tmp1094, tmp1095
	vcvtdq2ps	xmm10, xmm10	# vect_TL_778.386_117, tmp1094
	vfmadd213ps	xmm10, xmm18, XMMWORD PTR 16[r9]	# tmp1092, tmp1557, MEM <vector(4) float> [(float *)vectp_vp.378_179 + 16B]
	vfmadd132ps	xmm8, xmm9, xmm17	# _415, vect__758.370_307, tmp1558
# src/avx_analysis_code_ablations/opt9_abl_hand_vec_no_tile.cpp:138:                 float BL = p.SUB[ind_lbot + k];
	.loc 1 138 23 discriminator 69632 view .LVU632
	vpmovsxwd	xmm9, xmm5	# tmp1072, vect_BL_770.369
	vpsrldq	xmm5, xmm5, 8	# tmp1079, vect_BL_770.369,
	vcvtdq2ps	xmm9, xmm9	# vect_BL_770.368_314, tmp1072
	vfmadd132ps	xmm20, xmm12, xmm17	# _520, vect__758.370_309, tmp1558
# src/avx_analysis_code_ablations/opt9_abl_hand_vec_no_tile.cpp:137:                 float TR = p.SUB[ind_rtop + k];
	.loc 1 137 23 discriminator 69632 view .LVU633
	vpmovsxwd	xmm12, xmm6	# tmp1070, vect_TR_774.375
# src/avx_analysis_code_ablations/opt9_abl_hand_vec_no_tile.cpp:140:                 vp[k] += p.A*TL + p.B*TR + p.C*BL + p.D*BR;
	.loc 1 140 47 discriminator 69632 view .LVU634
	vmulps	xmm9, xmm9, xmm11	# vect__758.370_305, vect_BL_770.368_314, _1127
# src/avx_analysis_code_ablations/opt9_abl_hand_vec_no_tile.cpp:137:                 float TR = p.SUB[ind_rtop + k];
	.loc 1 137 23 discriminator 69632 view .LVU635
	vpsrldq	xmm6, xmm6, 8	# tmp1076, vect_TR_774.375,
# src/avx_analysis_code_ablations/opt9_abl_hand_vec_no_tile.cpp:138:                 float BL = p.SUB[ind_lbot + k];
	.loc 1 138 23 discriminator 69632 view .LVU636
	vpmovsxwd	xmm5, xmm5	# tmp1078, tmp1079
# src/avx_analysis_code_ablations/opt9_abl_hand_vec_no_tile.cpp:137:                 float TR = p.SUB[ind_rtop + k];
	.loc 1 137 23 discriminator 69632 view .LVU637
	vcvtdq2ps	xmm12, xmm12	# vect_TR_774.374_201, tmp1070
# src/avx_analysis_code_ablations/opt9_abl_hand_vec_no_tile.cpp:138:                 float BL = p.SUB[ind_lbot + k];
	.loc 1 138 23 discriminator 69632 view .LVU638
	vcvtdq2ps	xmm5, xmm5	# vect_BL_770.368_313, tmp1078
# src/avx_analysis_code_ablations/opt9_abl_hand_vec_no_tile.cpp:140:                 vp[k] += p.A*TL + p.B*TR + p.C*BL + p.D*BR;
	.loc 1 140 47 discriminator 69632 view .LVU639
	vmulps	xmm5, xmm5, xmm11	# vect__758.370_303, vect_BL_770.368_313, _1127
# src/avx_analysis_code_ablations/opt9_abl_hand_vec_no_tile.cpp:137:                 float TR = p.SUB[ind_rtop + k];
	.loc 1 137 23 discriminator 69632 view .LVU640
	vpmovsxwd	xmm6, xmm6	# tmp1075, tmp1076
	vcvtdq2ps	xmm6, xmm6	# vect_TR_774.374_200, tmp1075
	vfmadd132ps	xmm12, xmm9, xmm17	# _1004, vect__758.370_305, tmp1558
	vfmadd132ps	xmm6, xmm5, xmm17	# _970, vect__758.370_303, tmp1558
.LVL114:
	.loc 1 139 17 is_stmt 1 view .LVU641
# src/avx_analysis_code_ablations/opt9_abl_hand_vec_no_tile.cpp:139:                 float BR = p.SUB[ind_rbot + k];
	.loc 1 139 46 is_stmt 0 discriminator 69632 view .LVU642
	vmovdqu	xmm5, XMMWORD PTR [rsi+r13]	# MEM <const vector(16) unsigned char> [(const unsigned char *)vectp.360_376], MEM <const vector(16) unsigned char> [(const unsigned char *)vectp.360_376]
# src/avx_analysis_code_ablations/opt9_abl_hand_vec_no_tile.cpp:139:                 float BR = p.SUB[ind_rbot + k];
	.loc 1 139 23 discriminator 69632 view .LVU643
	vpmovzxbw	xmm9, xmm5	# vect_BR_766.363, MEM <const vector(16) unsigned char> [(const unsigned char *)vectp.360_376]
	vpsrldq	xmm5, xmm5, 8	# tmp1082, MEM <const vector(16) unsigned char> [(const unsigned char *)vectp.360_376],
	vpmovsxwd	xmm21, xmm9	# tmp1084, vect_BR_766.363
	vpsrldq	xmm9, xmm9, 8	# tmp1091, vect_BR_766.363,
	vpmovzxbw	xmm5, xmm5	# vect_BR_766.363, tmp1082
.LVL115:
	.loc 1 140 17 is_stmt 1 view .LVU644
# src/avx_analysis_code_ablations/opt9_abl_hand_vec_no_tile.cpp:139:                 float BR = p.SUB[ind_rbot + k];
	.loc 1 139 23 is_stmt 0 discriminator 69632 view .LVU645
	vcvtdq2ps	xmm21, xmm21	# vect_BR_766.362_361, tmp1084
	vfmadd132ps	xmm21, xmm24, xmm19	# _541, tmp1085, tmp1560
# src/avx_analysis_code_ablations/opt9_abl_hand_vec_no_tile.cpp:136:                 float TL = p.SUB[ind_ltop + k];
	.loc 1 136 23 discriminator 69632 view .LVU646
	vpmovsxwd	xmm24, xmm7	# tmp1101, vect_TL_778.387
# src/avx_analysis_code_ablations/opt9_abl_hand_vec_no_tile.cpp:139:                 float BR = p.SUB[ind_rbot + k];
	.loc 1 139 23 discriminator 69632 view .LVU647
	vpmovsxwd	xmm9, xmm9	# tmp1090, tmp1091
# src/avx_analysis_code_ablations/opt9_abl_hand_vec_no_tile.cpp:136:                 float TL = p.SUB[ind_ltop + k];
	.loc 1 136 23 discriminator 69632 view .LVU648
	vpsrldq	xmm7, xmm7, 8	# tmp1110, vect_TL_778.387,
	vcvtdq2ps	xmm24, xmm24	# vect_TL_778.386_57, tmp1101
	vfmadd213ps	xmm24, xmm18, XMMWORD PTR 32[r9]	# tmp1099, tmp1557, MEM <vector(4) float> [(float *)vectp_vp.378_179 + 32B]
# src/avx_analysis_code_ablations/opt9_abl_hand_vec_no_tile.cpp:139:                 float BR = p.SUB[ind_rbot + k];
	.loc 1 139 23 discriminator 69632 view .LVU649
	vcvtdq2ps	xmm9, xmm9	# vect_BR_766.362_360, tmp1090
# src/avx_analysis_code_ablations/opt9_abl_hand_vec_no_tile.cpp:136:                 float TL = p.SUB[ind_ltop + k];
	.loc 1 136 23 discriminator 69632 view .LVU650
	vpmovsxwd	xmm7, xmm7	# tmp1109, tmp1110
	vfmadd132ps	xmm9, xmm10, xmm19	# _432, tmp1092, tmp1560
# src/avx_analysis_code_ablations/opt9_abl_hand_vec_no_tile.cpp:139:                 float BR = p.SUB[ind_rbot + k];
	.loc 1 139 23 discriminator 69632 view .LVU651
	vpmovsxwd	xmm10, xmm5	# tmp1098, vect_BR_766.363
# src/avx_analysis_code_ablations/opt9_abl_hand_vec_no_tile.cpp:136:                 float TL = p.SUB[ind_ltop + k];
	.loc 1 136 23 discriminator 69632 view .LVU652
	vcvtdq2ps	xmm7, xmm7	# vect_TL_778.386_56, tmp1109
# src/avx_analysis_code_ablations/opt9_abl_hand_vec_no_tile.cpp:140:                 vp[k] += p.A*TL + p.B*TR + p.C*BL + p.D*BR;
	.loc 1 140 23 discriminator 69632 view .LVU653
	vfmadd213ps	xmm7, xmm18, XMMWORD PTR 48[r9]	# tmp1107, tmp1557, MEM <vector(4) float> [(float *)vectp_vp.378_179 + 48B]
# src/avx_analysis_code_ablations/opt9_abl_hand_vec_no_tile.cpp:139:                 float BR = p.SUB[ind_rbot + k];
	.loc 1 139 23 discriminator 69632 view .LVU654
	vpsrldq	xmm5, xmm5, 8	# tmp1106, vect_BR_766.363,
	vcvtdq2ps	xmm10, xmm10	# vect_BR_766.362_359, tmp1098
	vpmovsxwd	xmm5, xmm5	# tmp1105, tmp1106
	vcvtdq2ps	xmm5, xmm5	# vect_BR_766.362_358, tmp1105
# src/avx_analysis_code_ablations/opt9_abl_hand_vec_no_tile.cpp:140:                 vp[k] += p.A*TL + p.B*TR + p.C*BL + p.D*BR;
	.loc 1 140 23 discriminator 69632 view .LVU655
	vaddps	xmm20, xmm20, xmm21	# vect__754.392_357, _520, _541
	vfmadd132ps	xmm10, xmm24, xmm19	# _1024, tmp1099, tmp1560
	vaddps	xmm8, xmm8, xmm9	# vect__754.392_1037, _415, _432
	vfmadd132ps	xmm5, xmm7, xmm19	# tmp1103, tmp1107, tmp1560
	vmovups	XMMWORD PTR [r9], xmm20	# MEM <vector(4) float> [(float *)vectp_vp.378_179], vect__754.392_357
	.loc 1 140 23 discriminator 69632 view .LVU656
	vmovups	XMMWORD PTR 16[r9], xmm8	# MEM <vector(4) float> [(float *)vectp_vp.378_179 + 16B], vect__754.392_1037
	vaddps	xmm12, xmm12, xmm10	# vect__754.392_1038, _1004, _1024
	vaddps	xmm5, xmm5, xmm6	# vect__754.392, tmp1103, _970
	vmovups	XMMWORD PTR 32[r9], xmm12	# MEM <vector(4) float> [(float *)vectp_vp.378_179 + 32B], vect__754.392_1038
	vmovups	XMMWORD PTR 48[r9], xmm5	# MEM <vector(4) float> [(float *)vectp_vp.378_179 + 48B], vect__754.392
.LBE2665:
	.loc 1 135 13 is_stmt 1 discriminator 1 view .LVU657
	.loc 1 135 31 discriminator 2 view .LVU658
	mov	r9d, r10d	# niters_vector_mult_vf.357, niters.355
	and	r9d, -16	# niters_vector_mult_vf.357,
	test	r10b, 15	# niters.355,
	je	.L44	#,
	sub	r10d, r9d	# niters.395, niters_vector_mult_vf.357
	add	r8d, r9d	# tmp.398, niters_vector_mult_vf.357
	lea	r12d, -1[r10]	# _1095,
	cmp	r12d, 6	# _1095,
	jbe	.L82	#,
.LVL116:
.L161:
	.loc 1 135 31 is_stmt 0 discriminator 2 view .LVU659
	add	r9d, ebx	# _1108, niters_vector_mult_vf.317
.LBB2666:
# src/avx_analysis_code_ablations/opt9_abl_hand_vec_no_tile.cpp:136:                 float TL = p.SUB[ind_ltop + k];
	.loc 1 136 46 discriminator 133120 view .LVU660
	lea	r12, [rsi+r11]	# tmp1124,
	vmovaps	xmm20, xmm17	# _1152, tmp1558
	mov	r9d, r9d	# _1108, _1108
# src/avx_analysis_code_ablations/opt9_abl_hand_vec_no_tile.cpp:137:                 float TR = p.SUB[ind_rtop + k];
	.loc 1 137 46 discriminator 133120 view .LVU661
	vmovq	xmm7, QWORD PTR [rcx+r9]	# MEM <const vector(8) unsigned char> [(const unsigned char *)vectp.414_1156], MEM <const vector(8) unsigned char> [(const unsigned char *)vectp.414_1156]
# src/avx_analysis_code_ablations/opt9_abl_hand_vec_no_tile.cpp:136:                 float TL = p.SUB[ind_ltop + k];
	.loc 1 136 46 discriminator 133120 view .LVU662
	vmovq	xmm6, QWORD PTR [r12+r9]	# MEM <const vector(8) unsigned char> [(const unsigned char *)vectp.427_1194], MEM <const vector(8) unsigned char> [(const unsigned char *)vectp.427_1194]
# src/avx_analysis_code_ablations/opt9_abl_hand_vec_no_tile.cpp:138:                 float BL = p.SUB[ind_lbot + k];
	.loc 1 138 46 discriminator 133120 view .LVU663
	lea	r12, [rsi+rdx]	# tmp1132,
	lea	rbx, [r14+r9]	# _1109,
	vmovq	xmm5, QWORD PTR [r12+r9]	# MEM <const vector(8) unsigned char> [(const unsigned char *)vectp.407_1131], MEM <const vector(8) unsigned char> [(const unsigned char *)vectp.407_1131]
	lea	rdi, [rdi+r9*4]	# vectp_vp.421,
	.loc 1 136 17 is_stmt 1 view .LVU664
# src/avx_analysis_code_ablations/opt9_abl_hand_vec_no_tile.cpp:137:                 float TR = p.SUB[ind_rtop + k];
	.loc 1 137 23 is_stmt 0 discriminator 133120 view .LVU665
	vpmovzxbw	xmm10, xmm7	# vect_TR_487.417, MEM <const vector(8) unsigned char> [(const unsigned char *)vectp.414_1156]
	vpsrlq	xmm7, xmm7, 32	# tmp1131, MEM <const vector(8) unsigned char> [(const unsigned char *)vectp.414_1156],
# src/avx_analysis_code_ablations/opt9_abl_hand_vec_no_tile.cpp:136:                 float TL = p.SUB[ind_ltop + k];
	.loc 1 136 23 discriminator 133120 view .LVU666
	vpmovzxbw	xmm8, xmm6	# vect_TL_491.430, MEM <const vector(8) unsigned char> [(const unsigned char *)vectp.427_1194]
# src/avx_analysis_code_ablations/opt9_abl_hand_vec_no_tile.cpp:137:                 float TR = p.SUB[ind_rtop + k];
	.loc 1 137 23 discriminator 133120 view .LVU667
	vpmovzxwd	xmm12, xmm10	# vect_TR_487.416_1165, vect_TR_487.417
# src/avx_analysis_code_ablations/opt9_abl_hand_vec_no_tile.cpp:138:                 float BL = p.SUB[ind_lbot + k];
	.loc 1 138 23 discriminator 133120 view .LVU668
	vpmovzxbw	xmm9, xmm5	# vect_BL_482.410, MEM <const vector(8) unsigned char> [(const unsigned char *)vectp.407_1131]
# src/avx_analysis_code_ablations/opt9_abl_hand_vec_no_tile.cpp:137:                 float TR = p.SUB[ind_rtop + k];
	.loc 1 137 23 discriminator 133120 view .LVU669
	vpmovzxbw	xmm7, xmm7	# vect_TR_487.417, tmp1131
	vpsrlq	xmm10, xmm10, 32	# tmp1153, vect_TR_487.417,
# src/avx_analysis_code_ablations/opt9_abl_hand_vec_no_tile.cpp:138:                 float BL = p.SUB[ind_lbot + k];
	.loc 1 138 23 discriminator 133120 view .LVU670
	vpsrlq	xmm5, xmm5, 32	# tmp1135, MEM <const vector(8) unsigned char> [(const unsigned char *)vectp.407_1131],
# src/avx_analysis_code_ablations/opt9_abl_hand_vec_no_tile.cpp:137:                 float TR = p.SUB[ind_rtop + k];
	.loc 1 137 23 discriminator 133120 view .LVU671
	vmovq	xmm12, xmm12	# tmp1138, vect_TR_487.416_1165
	vcvtdq2ps	xmm22, xmm12	# tmp1139, tmp1138
# src/avx_analysis_code_ablations/opt9_abl_hand_vec_no_tile.cpp:138:                 float BL = p.SUB[ind_lbot + k];
	.loc 1 138 23 discriminator 133120 view .LVU672
	vpmovzxwd	xmm12, xmm9	# vect_BL_482.409_1140, vect_BL_482.410
	vpsrlq	xmm9, xmm9, 32	# tmp1158, vect_BL_482.410,
# src/avx_analysis_code_ablations/opt9_abl_hand_vec_no_tile.cpp:137:                 float TR = p.SUB[ind_rtop + k];
	.loc 1 137 23 discriminator 133120 view .LVU673
	vpmovzxwd	xmm10, xmm10	# vect_TR_487.416_1166, tmp1153
# src/avx_analysis_code_ablations/opt9_abl_hand_vec_no_tile.cpp:138:                 float BL = p.SUB[ind_lbot + k];
	.loc 1 138 23 discriminator 133120 view .LVU674
	vpmovzxwd	xmm9, xmm9	# vect_BL_482.409_1141, tmp1158
# src/avx_analysis_code_ablations/opt9_abl_hand_vec_no_tile.cpp:137:                 float TR = p.SUB[ind_rtop + k];
	.loc 1 137 23 discriminator 133120 view .LVU675
	vmovq	xmm10, xmm10	# tmp1155, vect_TR_487.416_1166
# src/avx_analysis_code_ablations/opt9_abl_hand_vec_no_tile.cpp:138:                 float BL = p.SUB[ind_lbot + k];
	.loc 1 138 23 discriminator 133120 view .LVU676
	vpmovzxbw	xmm5, xmm5	# vect_BL_482.410, tmp1135
	vmovq	xmm9, xmm9	# tmp1160, vect_BL_482.409_1141
# src/avx_analysis_code_ablations/opt9_abl_hand_vec_no_tile.cpp:137:                 float TR = p.SUB[ind_rtop + k];
	.loc 1 137 23 discriminator 133120 view .LVU677
	vcvtdq2ps	xmm10, xmm10	# tmp1156, tmp1155
# src/avx_analysis_code_ablations/opt9_abl_hand_vec_no_tile.cpp:136:                 float TL = p.SUB[ind_ltop + k];
	.loc 1 136 23 discriminator 133120 view .LVU678
	vpsrlq	xmm6, xmm6, 32	# tmp1127, MEM <const vector(8) unsigned char> [(const unsigned char *)vectp.427_1194],
# src/avx_analysis_code_ablations/opt9_abl_hand_vec_no_tile.cpp:138:                 float BL = p.SUB[ind_lbot + k];
	.loc 1 138 23 discriminator 133120 view .LVU679
	vmovq	xmm21, xmm12	# tmp1142, vect_BL_482.409_1140
	vcvtdq2ps	xmm9, xmm9	# tmp1161, tmp1160
# src/avx_analysis_code_ablations/opt9_abl_hand_vec_no_tile.cpp:140:                 vp[k] += p.A*TL + p.B*TR + p.C*BL + p.D*BR;
	.loc 1 140 47 discriminator 133120 view .LVU680
	vmulps	xmm9, xmm9, xmm11	# tmp1165, tmp1161, _1127
# src/avx_analysis_code_ablations/opt9_abl_hand_vec_no_tile.cpp:136:                 float TL = p.SUB[ind_ltop + k];
	.loc 1 136 23 discriminator 133120 view .LVU681
	vpmovzxbw	xmm6, xmm6	# vect_TL_491.430, tmp1127
.LVL117:
	.loc 1 137 17 is_stmt 1 view .LVU682
	.loc 1 138 17 view .LVU683
# src/avx_analysis_code_ablations/opt9_abl_hand_vec_no_tile.cpp:138:                 float BL = p.SUB[ind_lbot + k];
	.loc 1 138 23 is_stmt 0 discriminator 133120 view .LVU684
	vcvtdq2ps	xmm21, xmm21	# tmp1143, tmp1142
# src/avx_analysis_code_ablations/opt9_abl_hand_vec_no_tile.cpp:140:                 vp[k] += p.A*TL + p.B*TR + p.C*BL + p.D*BR;
	.loc 1 140 47 discriminator 133120 view .LVU685
	vmulps	xmm21, xmm21, xmm11	# tmp1147, tmp1143, _1127
	vfmadd132ps	xmm10, xmm9, xmm17	# tmp1156, tmp1165, _1152
# src/avx_analysis_code_ablations/opt9_abl_hand_vec_no_tile.cpp:137:                 float TR = p.SUB[ind_rtop + k];
	.loc 1 137 23 discriminator 133120 view .LVU686
	vpmovzxwd	xmm9, xmm7	# vect_TR_487.416_1167, vect_TR_487.417
	vpsrlq	xmm7, xmm7, 32	# tmp1187, vect_TR_487.417,
	vfmadd132ps	xmm22, xmm21, xmm17	# tmp1151, tmp1147, _1152
	vmovq	xmm9, xmm9	# tmp1172, vect_TR_487.416_1167
	vpmovzxwd	xmm7, xmm7	# vect_TR_487.416_1168, tmp1187
	vcvtdq2ps	xmm12, xmm9	# tmp1173, tmp1172
	vmovq	xmm7, xmm7	# tmp1189, vect_TR_487.416_1168
	vcvtdq2ps	xmm7, xmm7	# tmp1190, tmp1189
	vmovaps	xmm24, xmm10	# tmp1169, tmp1156
# src/avx_analysis_code_ablations/opt9_abl_hand_vec_no_tile.cpp:138:                 float BL = p.SUB[ind_lbot + k];
	.loc 1 138 23 discriminator 133120 view .LVU687
	vpmovzxwd	xmm10, xmm5	# vect_BL_482.409_1142, vect_BL_482.410
	vpsrlq	xmm5, xmm5, 32	# tmp1192, vect_BL_482.410,
	vmovq	xmm10, xmm10	# tmp1176, vect_BL_482.409_1142
	vpmovzxwd	xmm5, xmm5	# vect_BL_482.409_1143, tmp1192
	vcvtdq2ps	xmm10, xmm10	# tmp1177, tmp1176
# src/avx_analysis_code_ablations/opt9_abl_hand_vec_no_tile.cpp:140:                 vp[k] += p.A*TL + p.B*TR + p.C*BL + p.D*BR;
	.loc 1 140 47 discriminator 133120 view .LVU688
	vmulps	xmm10, xmm10, xmm11	# tmp1181, tmp1177, _1127
# src/avx_analysis_code_ablations/opt9_abl_hand_vec_no_tile.cpp:138:                 float BL = p.SUB[ind_lbot + k];
	.loc 1 138 23 discriminator 133120 view .LVU689
	vmovq	xmm5, xmm5	# tmp1194, vect_BL_482.409_1143
	vcvtdq2ps	xmm5, xmm5	# tmp1195, tmp1194
# src/avx_analysis_code_ablations/opt9_abl_hand_vec_no_tile.cpp:140:                 vp[k] += p.A*TL + p.B*TR + p.C*BL + p.D*BR;
	.loc 1 140 47 discriminator 133120 view .LVU690
	vmulps	xmm5, xmm5, xmm11	# tmp1199, tmp1195, _1127
	vfmadd132ps	xmm12, xmm10, xmm17	# tmp1173, tmp1181, _1152
# src/avx_analysis_code_ablations/opt9_abl_hand_vec_no_tile.cpp:140:                 vp[k] += p.A*TL + p.B*TR + p.C*BL + p.D*BR;
	.loc 1 140 21 discriminator 133120 view .LVU691
	vmovq	xmm10, QWORD PTR [rdi]	# vect__470.422_1183, MEM <vector(2) float> [(float *)vectp_vp.421_1177]
	vfmadd132ps	xmm20, xmm5, xmm7	# _1152, tmp1199, tmp1190
# src/avx_analysis_code_ablations/opt9_abl_hand_vec_no_tile.cpp:139:                 float BR = p.SUB[ind_rbot + k];
	.loc 1 139 46 discriminator 133120 view .LVU692
	vmovq	xmm5, QWORD PTR [rsi+rbx]	# MEM <const vector(8) unsigned char> [(const unsigned char *)vectp.400_1106], MEM <const vector(8) unsigned char> [(const unsigned char *)vectp.400_1106]
# src/avx_analysis_code_ablations/opt9_abl_hand_vec_no_tile.cpp:139:                 float BR = p.SUB[ind_rbot + k];
	.loc 1 139 23 discriminator 133120 view .LVU693
	vpmovzxbw	xmm7, xmm5	# vect_BR_473.403, MEM <const vector(8) unsigned char> [(const unsigned char *)vectp.400_1106]
	vpsrlq	xmm5, xmm5, 32	# tmp1205, MEM <const vector(8) unsigned char> [(const unsigned char *)vectp.400_1106],
	vpmovzxwd	xmm9, xmm7	# vect_BR_473.402_1115, vect_BR_473.403
	vpsrlq	xmm7, xmm7, 32	# tmp1225, vect_BR_473.403,
	vpmovzxbw	xmm5, xmm5	# vect_BR_473.403, tmp1205
	vmovq	xmm9, xmm9	# tmp1208, vect_BR_473.402_1115
	vpmovzxwd	xmm7, xmm7	# vect_BR_473.402_1116, tmp1225
	vmovaps	xmm25, xmm12	# tmp1185, tmp1173
	vcvtdq2ps	xmm23, xmm9	# tmp1209, tmp1208
# src/avx_analysis_code_ablations/opt9_abl_hand_vec_no_tile.cpp:136:                 float TL = p.SUB[ind_ltop + k];
	.loc 1 136 23 discriminator 133120 view .LVU694
	vpmovzxwd	xmm9, xmm8	# vect_TL_491.429_1203, vect_TL_491.430
	vpsrlq	xmm8, xmm8, 32	# tmp1231, vect_TL_491.430,
# src/avx_analysis_code_ablations/opt9_abl_hand_vec_no_tile.cpp:139:                 float BR = p.SUB[ind_rbot + k];
	.loc 1 139 23 discriminator 133120 view .LVU695
	vmovq	xmm7, xmm7	# tmp1227, vect_BR_473.402_1116
# src/avx_analysis_code_ablations/opt9_abl_hand_vec_no_tile.cpp:136:                 float TL = p.SUB[ind_ltop + k];
	.loc 1 136 23 discriminator 133120 view .LVU696
	vmovq	xmm9, xmm9	# tmp1213, vect_TL_491.429_1203
	vpmovzxwd	xmm8, xmm8	# vect_TL_491.429_1204, tmp1231
# src/avx_analysis_code_ablations/opt9_abl_hand_vec_no_tile.cpp:139:                 float BR = p.SUB[ind_rbot + k];
	.loc 1 139 23 discriminator 133120 view .LVU697
	vcvtdq2ps	xmm7, xmm7	# tmp1228, tmp1227
	vmovaps	xmm21, xmm20	# tmp1203, _1152
.LVL118:
	.loc 1 139 17 is_stmt 1 view .LVU698
	.loc 1 140 17 view .LVU699
# src/avx_analysis_code_ablations/opt9_abl_hand_vec_no_tile.cpp:136:                 float TL = p.SUB[ind_ltop + k];
	.loc 1 136 23 is_stmt 0 discriminator 133120 view .LVU700
	vcvtdq2ps	xmm9, xmm9	# tmp1214, tmp1213
	vfmadd231ps	xmm10, xmm18, xmm9	# tmp1219, _1190, tmp1214
# src/avx_analysis_code_ablations/opt9_abl_hand_vec_no_tile.cpp:140:                 vp[k] += p.A*TL + p.B*TR + p.C*BL + p.D*BR;
	.loc 1 140 21 discriminator 133120 view .LVU701
	vmovq	xmm9, QWORD PTR 8[rdi]	# vect__470.423_1185, MEM <vector(2) float> [(float *)vectp_vp.421_1177 + 8B]
# src/avx_analysis_code_ablations/opt9_abl_hand_vec_no_tile.cpp:136:                 float TL = p.SUB[ind_ltop + k];
	.loc 1 136 23 discriminator 133120 view .LVU702
	vmovq	xmm8, xmm8	# tmp1233, vect_TL_491.429_1204
	vmovaps	xmm20, xmm18	# _1190, tmp1557
	vcvtdq2ps	xmm8, xmm8	# tmp1234, tmp1233
	vmovaps	xmm12, xmm19	# _1102, tmp1560
	vfmadd132ps	xmm8, xmm9, xmm18	# tmp1239, vect__470.423_1185, _1190
	vpmovzxwd	xmm9, xmm6	# vect_TL_491.429_1205, vect_TL_491.430
	vmovq	xmm9, xmm9	# tmp1251, vect_TL_491.429_1205
	vpsrlq	xmm6, xmm6, 32	# tmp1270, vect_TL_491.430,
	vcvtdq2ps	xmm9, xmm9	# tmp1252, tmp1251
	vpmovzxwd	xmm6, xmm6	# vect_TL_491.429_1206, tmp1270
	vfmadd132ps	xmm23, xmm10, xmm19	# tmp1223, tmp1219, _1102
# src/avx_analysis_code_ablations/opt9_abl_hand_vec_no_tile.cpp:140:                 vp[k] += p.A*TL + p.B*TR + p.C*BL + p.D*BR;
	.loc 1 140 21 discriminator 133120 view .LVU703
	vmovq	xmm10, QWORD PTR 16[rdi]	# vect__470.424_1187, MEM <vector(2) float> [(float *)vectp_vp.421_1177 + 16B]
# src/avx_analysis_code_ablations/opt9_abl_hand_vec_no_tile.cpp:136:                 float TL = p.SUB[ind_ltop + k];
	.loc 1 136 23 discriminator 133120 view .LVU704
	vmovq	xmm6, xmm6	# tmp1272, vect_TL_491.429_1206
	vcvtdq2ps	xmm6, xmm6	# tmp1273, tmp1272
	vfmadd132ps	xmm9, xmm10, xmm18	# tmp1257, vect__470.424_1187, _1190
	vfmadd132ps	xmm7, xmm8, xmm19	# tmp1243, tmp1239, _1102
# src/avx_analysis_code_ablations/opt9_abl_hand_vec_no_tile.cpp:139:                 float BR = p.SUB[ind_rbot + k];
	.loc 1 139 23 discriminator 133120 view .LVU705
	vpmovzxwd	xmm8, xmm5	# vect_BR_473.402_1117, vect_BR_473.403
	vmovq	xmm8, xmm8	# tmp1246, vect_BR_473.402_1117
	vpsrlq	xmm5, xmm5, 32	# tmp1264, vect_BR_473.403,
	vcvtdq2ps	xmm8, xmm8	# tmp1247, tmp1246
	vpmovzxwd	xmm5, xmm5	# vect_BR_473.402_1118, tmp1264
	vmovq	xmm5, xmm5	# tmp1266, vect_BR_473.402_1118
	vcvtdq2ps	xmm5, xmm5	# tmp1267, tmp1266
	vfmadd132ps	xmm8, xmm9, xmm19	# tmp1261, tmp1257, _1102
# src/avx_analysis_code_ablations/opt9_abl_hand_vec_no_tile.cpp:140:                 vp[k] += p.A*TL + p.B*TR + p.C*BL + p.D*BR;
	.loc 1 140 21 discriminator 133120 view .LVU706
	vmovq	xmm9, QWORD PTR 24[rdi]	# vect__470.425_1189, MEM <vector(2) float> [(float *)vectp_vp.421_1177 + 24B]
# src/avx_analysis_code_ablations/opt9_abl_hand_vec_no_tile.cpp:140:                 vp[k] += p.A*TL + p.B*TR + p.C*BL + p.D*BR;
	.loc 1 140 23 discriminator 133120 view .LVU707
	vaddps	xmm7, xmm24, xmm7	# tmp1293, tmp1169, tmp1243
	vfmadd132ps	xmm20, xmm9, xmm6	# tmp1278, vect__470.425_1189, tmp1273
	vmovlps	QWORD PTR 8[rdi], xmm7	# MEM <vector(2) float> [(float *)vectp_vp.421_1177 + 8B], tmp1293
	.loc 1 140 23 discriminator 133120 view .LVU708
	vfmadd132ps	xmm12, xmm20, xmm5	# tmp1282, tmp1278, tmp1267
	vaddps	xmm5, xmm22, xmm23	# tmp1289, tmp1151, tmp1223
	vmovlps	QWORD PTR [rdi], xmm5	# MEM <vector(2) float> [(float *)vectp_vp.421_1177], tmp1289
	vaddps	xmm5, xmm25, xmm8	# tmp1297, tmp1185, tmp1261
	vaddps	xmm12, xmm12, xmm21	# tmp1285, tmp1282, tmp1203
	vmovlps	QWORD PTR 16[rdi], xmm5	# MEM <vector(2) float> [(float *)vectp_vp.421_1177 + 16B], tmp1297
	vmovlps	QWORD PTR 24[rdi], xmm12	# MEM <vector(2) float> [(float *)vectp_vp.421_1177 + 24B], tmp1285
.LBE2666:
	.loc 1 135 13 is_stmt 1 discriminator 1 view .LVU709
	.loc 1 135 31 discriminator 2 view .LVU710
	mov	edi, r10d	# niters_vector_mult_vf.397, niters.395
	and	edi, -8	# niters_vector_mult_vf.397,
	and	r10d, 7	# niters.395,
	je	.L44	#,
.LBB2667:
# src/avx_analysis_code_ablations/opt9_abl_hand_vec_no_tile.cpp:140:                 vp[k] += p.A*TL + p.B*TR + p.C*BL + p.D*BR;
	.loc 1 140 23 is_stmt 0 discriminator 133120 view .LVU711
	mov	r9d, DWORD PTR 248[rsp]	# prephitmp_764, %sfp
	add	r8d, edi	# tmp.398, niters_vector_mult_vf.397
.LVL119:
.L45:
	.loc 1 136 17 is_stmt 1 view .LVU712
# src/avx_analysis_code_ablations/opt9_abl_hand_vec_no_tile.cpp:136:                 float TL = p.SUB[ind_ltop + k];
	.loc 1 136 45 is_stmt 0 discriminator 163840 view .LVU713
	movsxd	rbx, r8d	# _311, tmp.398
.LVL120:
	.loc 1 137 17 is_stmt 1 view .LVU714
	.loc 1 138 17 view .LVU715
	.loc 1 139 17 view .LVU716
	.loc 1 140 17 view .LVU717
# src/avx_analysis_code_ablations/opt9_abl_hand_vec_no_tile.cpp:136:                 float TL = p.SUB[ind_ltop + k];
	.loc 1 136 46 is_stmt 0 discriminator 163840 view .LVU718
	lea	r10, [rsi+rbx]	# tmp1299,
# src/avx_analysis_code_ablations/opt9_abl_hand_vec_no_tile.cpp:140:                 vp[k] += p.A*TL + p.B*TR + p.C*BL + p.D*BR;
	.loc 1 140 21 discriminator 163840 view .LVU719
	lea	rdi, 0[0+rbx*4]	# _110,
# src/avx_analysis_code_ablations/opt9_abl_hand_vec_no_tile.cpp:137:                 float TR = p.SUB[ind_rtop + k];
	.loc 1 137 23 discriminator 163840 view .LVU720
	movzx	ebx, BYTE PTR [rcx+rbx]	# *_101, *_101
.LVL121:
# src/avx_analysis_code_ablations/opt9_abl_hand_vec_no_tile.cpp:136:                 float TL = p.SUB[ind_ltop + k];
	.loc 1 136 23 discriminator 163840 view .LVU721
	movzx	r13d, BYTE PTR [r10+r11]	# *_828, *_828
	vcvtusi2ss	xmm5, xmm4, r13d	# tmp1527, tmp1526, *_828
	vmovaps	xmm7, xmm5	# TL_879, TL_879
# src/avx_analysis_code_ablations/opt9_abl_hand_vec_no_tile.cpp:137:                 float TR = p.SUB[ind_rtop + k];
	.loc 1 137 23 discriminator 163840 view .LVU722
	vcvtusi2ss	xmm5, xmm4, ebx	# tmp1528, tmp1526, *_101
# src/avx_analysis_code_ablations/opt9_abl_hand_vec_no_tile.cpp:138:                 float BL = p.SUB[ind_lbot + k];
	.loc 1 138 23 discriminator 163840 view .LVU723
	movzx	ebx, BYTE PTR [r10+rdx]	# *_245, *_245
# src/avx_analysis_code_ablations/opt9_abl_hand_vec_no_tile.cpp:139:                 float BR = p.SUB[ind_rbot + k];
	.loc 1 139 23 discriminator 163840 view .LVU724
	movzx	r10d, BYTE PTR [r10+r14]	# *_246, *_246
	vfmadd213ss	xmm7, xmm16, DWORD PTR [rax+rdi]	# TL_879, _73, *_247
# src/avx_analysis_code_ablations/opt9_abl_hand_vec_no_tile.cpp:138:                 float BL = p.SUB[ind_lbot + k];
	.loc 1 138 23 discriminator 163840 view .LVU725
	vcvtusi2ss	xmm6, xmm4, ebx	# tmp1529, tmp1526, *_245
# src/avx_analysis_code_ablations/opt9_abl_hand_vec_no_tile.cpp:140:                 vp[k] += p.A*TL + p.B*TR + p.C*BL + p.D*BR;
	.loc 1 140 47 discriminator 163840 view .LVU726
	vmulss	xmm6, xmm6, xmm14	# _114, BL_106, _75
	vfmadd231ss	xmm6, xmm15, xmm5	# _963, _74, TR_103
# src/avx_analysis_code_ablations/opt9_abl_hand_vec_no_tile.cpp:139:                 float BR = p.SUB[ind_rbot + k];
	.loc 1 139 23 discriminator 163840 view .LVU727
	vcvtusi2ss	xmm5, xmm4, r10d	# tmp1530, tmp1526, *_246
.LBE2667:
# src/avx_analysis_code_ablations/opt9_abl_hand_vec_no_tile.cpp:135:             for (int k = 0; k < remaining; ++k) {
	.loc 1 135 13 discriminator 163841 view .LVU728
	lea	r10d, 1[r8]	#,
.LBB2668:
# src/avx_analysis_code_ablations/opt9_abl_hand_vec_no_tile.cpp:140:                 vp[k] += p.A*TL + p.B*TR + p.C*BL + p.D*BR;
	.loc 1 140 23 discriminator 163840 view .LVU729
	vfmadd132ss	xmm5, xmm7, xmm13	# tmp1312, _925, _76
	vaddss	xmm5, xmm5, xmm6	# _120, tmp1312, _963
	vmovss	DWORD PTR [rax+rdi], xmm5	# *_247, _120
.LBE2668:
	.loc 1 135 13 is_stmt 1 discriminator 1 view .LVU730
.LVL122:
	.loc 1 135 31 discriminator 2 view .LVU731
# src/avx_analysis_code_ablations/opt9_abl_hand_vec_no_tile.cpp:135:             for (int k = 0; k < remaining; ++k) {
	.loc 1 135 31 is_stmt 0 discriminator 163842 view .LVU732
	cmp	r10d, r9d	# k, prephitmp_764
	jge	.L44	#,
.LBB2669:
	.loc 1 136 17 is_stmt 1 view .LVU733
	.loc 1 137 17 view .LVU734
	.loc 1 138 17 view .LVU735
.LVL123:
	.loc 1 139 17 view .LVU736
	.loc 1 140 17 view .LVU737
# src/avx_analysis_code_ablations/opt9_abl_hand_vec_no_tile.cpp:136:                 float TL = p.SUB[ind_ltop + k];
	.loc 1 136 46 is_stmt 0 discriminator 196608 view .LVU738
	lea	rbx, [rsi+r11]	# tmp1319,
# src/avx_analysis_code_ablations/opt9_abl_hand_vec_no_tile.cpp:136:                 float TL = p.SUB[ind_ltop + k];
	.loc 1 136 23 discriminator 196608 view .LVU739
	movzx	r13d, BYTE PTR [rbx+r10]	# *_250, *_250
	vcvtusi2ss	xmm5, xmm4, r13d	# tmp1531, tmp1526, *_250
# src/avx_analysis_code_ablations/opt9_abl_hand_vec_no_tile.cpp:137:                 float TR = p.SUB[ind_rtop + k];
	.loc 1 137 23 discriminator 196608 view .LVU740
	movzx	r13d, BYTE PTR [rcx+r10]	# *_780, *_780
# src/avx_analysis_code_ablations/opt9_abl_hand_vec_no_tile.cpp:138:                 float BL = p.SUB[ind_lbot + k];
	.loc 1 138 46 discriminator 196608 view .LVU741
	add	r10, rsi	# tmp1327, _94
.LVL124:
	.loc 1 138 46 discriminator 196608 view .LVU742
	vmovaps	xmm7, xmm5	# TL_782, TL_782
# src/avx_analysis_code_ablations/opt9_abl_hand_vec_no_tile.cpp:137:                 float TR = p.SUB[ind_rtop + k];
	.loc 1 137 23 discriminator 196608 view .LVU743
	vcvtusi2ss	xmm5, xmm4, r13d	# tmp1532, tmp1526, *_780
# src/avx_analysis_code_ablations/opt9_abl_hand_vec_no_tile.cpp:138:                 float BL = p.SUB[ind_lbot + k];
	.loc 1 138 23 discriminator 196608 view .LVU744
	movzx	r13d, BYTE PTR [r10+rdx]	# *_776, *_776
# src/avx_analysis_code_ablations/opt9_abl_hand_vec_no_tile.cpp:139:                 float BR = p.SUB[ind_rbot + k];
	.loc 1 139 23 discriminator 196608 view .LVU745
	movzx	r10d, BYTE PTR [r10+r14]	# *_772, *_772
	vfmadd213ss	xmm7, xmm16, DWORD PTR 4[rax+rdi]	# TL_782, _73, *_768
# src/avx_analysis_code_ablations/opt9_abl_hand_vec_no_tile.cpp:138:                 float BL = p.SUB[ind_lbot + k];
	.loc 1 138 23 discriminator 196608 view .LVU746
	vcvtusi2ss	xmm6, xmm4, r13d	# tmp1533, tmp1526, *_776
# src/avx_analysis_code_ablations/opt9_abl_hand_vec_no_tile.cpp:140:                 vp[k] += p.A*TL + p.B*TR + p.C*BL + p.D*BR;
	.loc 1 140 47 discriminator 196608 view .LVU747
	vmulss	xmm6, xmm6, xmm14	# _763, BL_774, _75
	vfmadd231ss	xmm6, xmm15, xmm5	# _990, _74, TR_778
# src/avx_analysis_code_ablations/opt9_abl_hand_vec_no_tile.cpp:139:                 float BR = p.SUB[ind_rbot + k];
	.loc 1 139 23 discriminator 196608 view .LVU748
	vcvtusi2ss	xmm5, xmm4, r10d	# tmp1534, tmp1526, *_772
.LBE2669:
# src/avx_analysis_code_ablations/opt9_abl_hand_vec_no_tile.cpp:135:             for (int k = 0; k < remaining; ++k) {
	.loc 1 135 13 discriminator 196609 view .LVU749
	lea	r10d, 2[r8]	#,
.LBB2670:
# src/avx_analysis_code_ablations/opt9_abl_hand_vec_no_tile.cpp:140:                 vp[k] += p.A*TL + p.B*TR + p.C*BL + p.D*BR;
	.loc 1 140 23 discriminator 196608 view .LVU750
	vfmadd132ss	xmm5, xmm7, xmm13	# tmp1332, _975, _76
	vaddss	xmm5, xmm5, xmm6	# _758, tmp1332, _990
	vmovss	DWORD PTR 4[rax+rdi], xmm5	# *_768, _758
.LBE2670:
	.loc 1 135 13 is_stmt 1 discriminator 1 view .LVU751
.LVL125:
	.loc 1 135 31 discriminator 2 view .LVU752
# src/avx_analysis_code_ablations/opt9_abl_hand_vec_no_tile.cpp:135:             for (int k = 0; k < remaining; ++k) {
	.loc 1 135 31 is_stmt 0 discriminator 196610 view .LVU753
	cmp	r10d, r9d	# k, prephitmp_764
	jge	.L44	#,
.LBB2671:
	.loc 1 136 17 is_stmt 1 view .LVU754
	.loc 1 137 17 view .LVU755
	.loc 1 138 17 view .LVU756
.LVL126:
	.loc 1 139 17 view .LVU757
	.loc 1 140 17 view .LVU758
# src/avx_analysis_code_ablations/opt9_abl_hand_vec_no_tile.cpp:136:                 float TL = p.SUB[ind_ltop + k];
	.loc 1 136 23 is_stmt 0 discriminator 229376 view .LVU759
	movzx	r13d, BYTE PTR [rbx+r10]	# *_502, *_502
	vcvtusi2ss	xmm5, xmm4, r13d	# tmp1535, tmp1526, *_502
# src/avx_analysis_code_ablations/opt9_abl_hand_vec_no_tile.cpp:137:                 float TR = p.SUB[ind_rtop + k];
	.loc 1 137 23 discriminator 229376 view .LVU760
	movzx	r13d, BYTE PTR [rcx+r10]	# *_493, *_493
# src/avx_analysis_code_ablations/opt9_abl_hand_vec_no_tile.cpp:138:                 float BL = p.SUB[ind_lbot + k];
	.loc 1 138 46 discriminator 229376 view .LVU761
	add	r10, rsi	# tmp1347, _94
.LVL127:
	.loc 1 138 46 discriminator 229376 view .LVU762
	vmovaps	xmm7, xmm5	# TL_495, TL_495
# src/avx_analysis_code_ablations/opt9_abl_hand_vec_no_tile.cpp:137:                 float TR = p.SUB[ind_rtop + k];
	.loc 1 137 23 discriminator 229376 view .LVU763
	vcvtusi2ss	xmm5, xmm4, r13d	# tmp1536, tmp1526, *_493
# src/avx_analysis_code_ablations/opt9_abl_hand_vec_no_tile.cpp:138:                 float BL = p.SUB[ind_lbot + k];
	.loc 1 138 23 discriminator 229376 view .LVU764
	movzx	r13d, BYTE PTR [r10+rdx]	# *_488, *_488
# src/avx_analysis_code_ablations/opt9_abl_hand_vec_no_tile.cpp:139:                 float BR = p.SUB[ind_rbot + k];
	.loc 1 139 23 discriminator 229376 view .LVU765
	movzx	r10d, BYTE PTR [r10+r14]	# *_483, *_483
	vfmadd213ss	xmm7, xmm16, DWORD PTR 8[rax+rdi]	# TL_495, _73, *_474
# src/avx_analysis_code_ablations/opt9_abl_hand_vec_no_tile.cpp:138:                 float BL = p.SUB[ind_lbot + k];
	.loc 1 138 23 discriminator 229376 view .LVU766
	vcvtusi2ss	xmm6, xmm4, r13d	# tmp1537, tmp1526, *_488
# src/avx_analysis_code_ablations/opt9_abl_hand_vec_no_tile.cpp:140:                 vp[k] += p.A*TL + p.B*TR + p.C*BL + p.D*BR;
	.loc 1 140 47 discriminator 229376 view .LVU767
	vmulss	xmm6, xmm6, xmm14	# _468, BL_486, _75
	vfmadd231ss	xmm6, xmm15, xmm5	# _78, _74, TR_490
# src/avx_analysis_code_ablations/opt9_abl_hand_vec_no_tile.cpp:139:                 float BR = p.SUB[ind_rbot + k];
	.loc 1 139 23 discriminator 229376 view .LVU768
	vcvtusi2ss	xmm5, xmm4, r10d	# tmp1538, tmp1526, *_483
.LBE2671:
# src/avx_analysis_code_ablations/opt9_abl_hand_vec_no_tile.cpp:135:             for (int k = 0; k < remaining; ++k) {
	.loc 1 135 13 discriminator 229377 view .LVU769
	lea	r10d, 3[r8]	#,
.LBB2672:
# src/avx_analysis_code_ablations/opt9_abl_hand_vec_no_tile.cpp:140:                 vp[k] += p.A*TL + p.B*TR + p.C*BL + p.D*BR;
	.loc 1 140 23 discriminator 229376 view .LVU770
	vfmadd132ss	xmm5, xmm7, xmm13	# tmp1352, _1021, _76
	vaddss	xmm5, xmm5, xmm6	# _456, tmp1352, _78
	vmovss	DWORD PTR 8[rax+rdi], xmm5	# *_474, _456
.LBE2672:
	.loc 1 135 13 is_stmt 1 discriminator 1 view .LVU771
.LVL128:
	.loc 1 135 31 discriminator 2 view .LVU772
# src/avx_analysis_code_ablations/opt9_abl_hand_vec_no_tile.cpp:135:             for (int k = 0; k < remaining; ++k) {
	.loc 1 135 31 is_stmt 0 discriminator 229378 view .LVU773
	cmp	r10d, r9d	# k, prephitmp_764
	jge	.L44	#,
.LBB2673:
	.loc 1 136 17 is_stmt 1 view .LVU774
	.loc 1 137 17 view .LVU775
	.loc 1 138 17 view .LVU776
.LVL129:
	.loc 1 139 17 view .LVU777
	.loc 1 140 17 view .LVU778
# src/avx_analysis_code_ablations/opt9_abl_hand_vec_no_tile.cpp:136:                 float TL = p.SUB[ind_ltop + k];
	.loc 1 136 46 is_stmt 0 discriminator 262144 view .LVU779
	lea	r12, [rsi+r10]	# tmp1359,
	mov	QWORD PTR 208[rsp], r10	# %sfp, _426
# src/avx_analysis_code_ablations/opt9_abl_hand_vec_no_tile.cpp:136:                 float TL = p.SUB[ind_ltop + k];
	.loc 1 136 23 discriminator 262144 view .LVU780
	movzx	r10d, BYTE PTR [r12+r11]	# *_1054, *_1054
.LVL130:
	.loc 1 136 23 discriminator 262144 view .LVU781
	vcvtusi2ss	xmm5, xmm4, r10d	# tmp1539, tmp1526, *_1054
# src/avx_analysis_code_ablations/opt9_abl_hand_vec_no_tile.cpp:137:                 float TR = p.SUB[ind_rtop + k];
	.loc 1 137 23 discriminator 262144 view .LVU782
	mov	r10, QWORD PTR 208[rsp]	# _426, %sfp
	movzx	r10d, BYTE PTR [rcx+r10]	# *_927, *_927
	vmovaps	xmm7, xmm5	# TL_786, TL_786
	vcvtusi2ss	xmm5, xmm4, r10d	# tmp1540, tmp1526, *_927
# src/avx_analysis_code_ablations/opt9_abl_hand_vec_no_tile.cpp:138:                 float BL = p.SUB[ind_lbot + k];
	.loc 1 138 23 discriminator 262144 view .LVU783
	movzx	r10d, BYTE PTR [r12+rdx]	# *_566, *_566
	vfmadd213ss	xmm7, xmm16, DWORD PTR 12[rax+rdi]	# TL_786, _73, *_911
	vcvtusi2ss	xmm6, xmm4, r10d	# tmp1541, tmp1526, *_566
# src/avx_analysis_code_ablations/opt9_abl_hand_vec_no_tile.cpp:139:                 float BR = p.SUB[ind_rbot + k];
	.loc 1 139 23 discriminator 262144 view .LVU784
	movzx	r10d, BYTE PTR [r12+r14]	# *_674, *_674
# src/avx_analysis_code_ablations/opt9_abl_hand_vec_no_tile.cpp:140:                 vp[k] += p.A*TL + p.B*TR + p.C*BL + p.D*BR;
	.loc 1 140 47 discriminator 262144 view .LVU785
	vmulss	xmm6, xmm6, xmm14	# _907, BL_457, _75
	vfmadd231ss	xmm6, xmm15, xmm5	# _85, _74, TR_676
# src/avx_analysis_code_ablations/opt9_abl_hand_vec_no_tile.cpp:139:                 float BR = p.SUB[ind_rbot + k];
	.loc 1 139 23 discriminator 262144 view .LVU786
	vcvtusi2ss	xmm5, xmm4, r10d	# tmp1542, tmp1526, *_674
.LBE2673:
# src/avx_analysis_code_ablations/opt9_abl_hand_vec_no_tile.cpp:135:             for (int k = 0; k < remaining; ++k) {
	.loc 1 135 13 discriminator 262145 view .LVU787
	lea	r10d, 4[r8]	#,
.LBB2674:
# src/avx_analysis_code_ablations/opt9_abl_hand_vec_no_tile.cpp:140:                 vp[k] += p.A*TL + p.B*TR + p.C*BL + p.D*BR;
	.loc 1 140 23 discriminator 262144 view .LVU788
	vfmadd132ss	xmm5, xmm7, xmm13	# tmp1372, _80, _76
	vaddss	xmm5, xmm5, xmm6	# _551, tmp1372, _85
	vmovss	DWORD PTR 12[rax+rdi], xmm5	# *_911, _551
.LBE2674:
	.loc 1 135 13 is_stmt 1 discriminator 1 view .LVU789
.LVL131:
	.loc 1 135 31 discriminator 2 view .LVU790
# src/avx_analysis_code_ablations/opt9_abl_hand_vec_no_tile.cpp:135:             for (int k = 0; k < remaining; ++k) {
	.loc 1 135 31 is_stmt 0 discriminator 262146 view .LVU791
	cmp	r9d, r10d	# prephitmp_764, k
	jle	.L44	#,
.LBB2675:
	.loc 1 136 17 is_stmt 1 view .LVU792
	.loc 1 137 17 view .LVU793
	.loc 1 138 17 view .LVU794
.LVL132:
	.loc 1 139 17 view .LVU795
	.loc 1 140 17 view .LVU796
# src/avx_analysis_code_ablations/opt9_abl_hand_vec_no_tile.cpp:136:                 float TL = p.SUB[ind_ltop + k];
	.loc 1 136 23 is_stmt 0 discriminator 294912 view .LVU797
	movzx	r13d, BYTE PTR [rbx+r10]	# *_532, *_532
	vcvtusi2ss	xmm5, xmm4, r13d	# tmp1543, tmp1526, *_532
# src/avx_analysis_code_ablations/opt9_abl_hand_vec_no_tile.cpp:137:                 float TR = p.SUB[ind_rtop + k];
	.loc 1 137 23 discriminator 294912 view .LVU798
	movzx	r13d, BYTE PTR [rcx+r10]	# *_367, *_367
# src/avx_analysis_code_ablations/opt9_abl_hand_vec_no_tile.cpp:138:                 float BL = p.SUB[ind_lbot + k];
	.loc 1 138 46 discriminator 294912 view .LVU799
	add	r10, rsi	# tmp1387, _94
.LVL133:
	.loc 1 138 46 discriminator 294912 view .LVU800
	vmovaps	xmm7, xmm5	# TL_820, TL_820
# src/avx_analysis_code_ablations/opt9_abl_hand_vec_no_tile.cpp:137:                 float TR = p.SUB[ind_rtop + k];
	.loc 1 137 23 discriminator 294912 view .LVU801
	vcvtusi2ss	xmm5, xmm4, r13d	# tmp1544, tmp1526, *_367
# src/avx_analysis_code_ablations/opt9_abl_hand_vec_no_tile.cpp:138:                 float BL = p.SUB[ind_lbot + k];
	.loc 1 138 23 discriminator 294912 view .LVU802
	movzx	r13d, BYTE PTR [r10+rdx]	# *_817, *_817
# src/avx_analysis_code_ablations/opt9_abl_hand_vec_no_tile.cpp:139:                 float BR = p.SUB[ind_rbot + k];
	.loc 1 139 23 discriminator 294912 view .LVU803
	movzx	r10d, BYTE PTR [r10+r14]	# *_815, *_815
	vfmadd213ss	xmm7, xmm16, DWORD PTR 16[rax+rdi]	# TL_820, _73, *_811
# src/avx_analysis_code_ablations/opt9_abl_hand_vec_no_tile.cpp:138:                 float BL = p.SUB[ind_lbot + k];
	.loc 1 138 23 discriminator 294912 view .LVU804
	vcvtusi2ss	xmm6, xmm4, r13d	# tmp1545, tmp1526, *_817
# src/avx_analysis_code_ablations/opt9_abl_hand_vec_no_tile.cpp:140:                 vp[k] += p.A*TL + p.B*TR + p.C*BL + p.D*BR;
	.loc 1 140 47 discriminator 294912 view .LVU805
	vmulss	xmm6, xmm6, xmm14	# _809, BL_940, _75
	vfmadd231ss	xmm6, xmm5, xmm15	# _90, TR_66, _74
# src/avx_analysis_code_ablations/opt9_abl_hand_vec_no_tile.cpp:139:                 float BR = p.SUB[ind_rbot + k];
	.loc 1 139 23 discriminator 294912 view .LVU806
	vcvtusi2ss	xmm5, xmm4, r10d	# tmp1546, tmp1526, *_815
.LBE2675:
# src/avx_analysis_code_ablations/opt9_abl_hand_vec_no_tile.cpp:135:             for (int k = 0; k < remaining; ++k) {
	.loc 1 135 13 discriminator 294913 view .LVU807
	lea	r10d, 5[r8]	#,
.LBB2676:
# src/avx_analysis_code_ablations/opt9_abl_hand_vec_no_tile.cpp:140:                 vp[k] += p.A*TL + p.B*TR + p.C*BL + p.D*BR;
	.loc 1 140 23 discriminator 294912 view .LVU808
	vfmadd132ss	xmm5, xmm7, xmm13	# tmp1392, _88, _76
	vaddss	xmm5, xmm5, xmm6	# _807, tmp1392, _90
	vmovss	DWORD PTR 16[rax+rdi], xmm5	# *_811, _807
.LBE2676:
	.loc 1 135 13 is_stmt 1 discriminator 1 view .LVU809
.LVL134:
	.loc 1 135 31 discriminator 2 view .LVU810
# src/avx_analysis_code_ablations/opt9_abl_hand_vec_no_tile.cpp:135:             for (int k = 0; k < remaining; ++k) {
	.loc 1 135 31 is_stmt 0 discriminator 294914 view .LVU811
	cmp	r9d, r10d	# prephitmp_764, k
	jle	.L44	#,
.LBB2677:
	.loc 1 136 17 is_stmt 1 view .LVU812
	.loc 1 137 17 view .LVU813
	.loc 1 138 17 view .LVU814
.LVL135:
	.loc 1 139 17 view .LVU815
	.loc 1 140 17 view .LVU816
# src/avx_analysis_code_ablations/opt9_abl_hand_vec_no_tile.cpp:136:                 float TL = p.SUB[ind_ltop + k];
	.loc 1 136 46 is_stmt 0 discriminator 327680 view .LVU817
	lea	r12, [rsi+r10]	# tmp1399,
# src/avx_analysis_code_ablations/opt9_abl_hand_vec_no_tile.cpp:137:                 float TR = p.SUB[ind_rtop + k];
	.loc 1 137 23 discriminator 327680 view .LVU818
	movzx	r10d, BYTE PTR [rcx+r10]	# *_354, *_354
.LVL136:
	.loc 1 137 23 discriminator 327680 view .LVU819
.LBE2677:
# src/avx_analysis_code_ablations/opt9_abl_hand_vec_no_tile.cpp:135:             for (int k = 0; k < remaining; ++k) {
	.loc 1 135 13 discriminator 327681 view .LVU820
	add	r8d, 6	#,
.LVL137:
.LBB2678:
# src/avx_analysis_code_ablations/opt9_abl_hand_vec_no_tile.cpp:136:                 float TL = p.SUB[ind_ltop + k];
	.loc 1 136 23 discriminator 327680 view .LVU821
	movzx	r11d, BYTE PTR [r12+r11]	# *_663, *_663
	vcvtusi2ss	xmm5, xmm4, r11d	# tmp1547, tmp1526, *_663
	vmovaps	xmm7, xmm5	# TL_135, TL_135
# src/avx_analysis_code_ablations/opt9_abl_hand_vec_no_tile.cpp:137:                 float TR = p.SUB[ind_rtop + k];
	.loc 1 137 23 discriminator 327680 view .LVU822
	vcvtusi2ss	xmm5, xmm4, r10d	# tmp1548, tmp1526, *_354
# src/avx_analysis_code_ablations/opt9_abl_hand_vec_no_tile.cpp:138:                 float BL = p.SUB[ind_lbot + k];
	.loc 1 138 23 discriminator 327680 view .LVU823
	movzx	r10d, BYTE PTR [r12+rdx]	# *_1027, *_1027
.LVL138:
	.loc 1 138 23 discriminator 327680 view .LVU824
	vfmadd213ss	xmm7, xmm16, DWORD PTR 20[rax+rdi]	# TL_135, _73, *_898
	vcvtusi2ss	xmm6, xmm4, r10d	# tmp1549, tmp1526, *_1027
# src/avx_analysis_code_ablations/opt9_abl_hand_vec_no_tile.cpp:139:                 float BR = p.SUB[ind_rbot + k];
	.loc 1 139 23 discriminator 327680 view .LVU825
	movzx	r10d, BYTE PTR [r12+r14]	# *_900, *_900
.LVL139:
# src/avx_analysis_code_ablations/opt9_abl_hand_vec_no_tile.cpp:140:                 vp[k] += p.A*TL + p.B*TR + p.C*BL + p.D*BR;
	.loc 1 140 47 discriminator 327680 view .LVU826
	vmulss	xmm6, xmm6, xmm14	# _224, BL_957, _75
	vfmadd231ss	xmm6, xmm15, xmm5	# _96, _74, TR_223
# src/avx_analysis_code_ablations/opt9_abl_hand_vec_no_tile.cpp:139:                 float BR = p.SUB[ind_rbot + k];
	.loc 1 139 23 discriminator 327680 view .LVU827
	vcvtusi2ss	xmm5, xmm4, r10d	# tmp1550, tmp1526, *_900
# src/avx_analysis_code_ablations/opt9_abl_hand_vec_no_tile.cpp:140:                 vp[k] += p.A*TL + p.B*TR + p.C*BL + p.D*BR;
	.loc 1 140 23 discriminator 327680 view .LVU828
	vfmadd132ss	xmm5, xmm7, xmm13	# tmp1412, _95, _76
	vaddss	xmm5, xmm5, xmm6	# _636, tmp1412, _96
	vmovss	DWORD PTR 20[rax+rdi], xmm5	# *_898, _636
.LBE2678:
	.loc 1 135 13 is_stmt 1 discriminator 1 view .LVU829
.LVL140:
	.loc 1 135 31 discriminator 2 view .LVU830
# src/avx_analysis_code_ablations/opt9_abl_hand_vec_no_tile.cpp:135:             for (int k = 0; k < remaining; ++k) {
	.loc 1 135 31 is_stmt 0 discriminator 327682 view .LVU831
	cmp	r8d, r9d	# k, prephitmp_764
	jge	.L44	#,
.LBB2679:
	.loc 1 136 17 is_stmt 1 view .LVU832
	.loc 1 137 17 view .LVU833
	.loc 1 138 17 view .LVU834
.LVL141:
	.loc 1 139 17 view .LVU835
	.loc 1 140 17 view .LVU836
# src/avx_analysis_code_ablations/opt9_abl_hand_vec_no_tile.cpp:138:                 float BL = p.SUB[ind_lbot + k];
	.loc 1 138 46 is_stmt 0 discriminator 98304 view .LVU837
	add	rdx, rsi	# tmp1427, _94
.LVL142:
# src/avx_analysis_code_ablations/opt9_abl_hand_vec_no_tile.cpp:140:                 vp[k] += p.A*TL + p.B*TR + p.C*BL + p.D*BR;
	.loc 1 140 21 discriminator 98304 view .LVU838
	lea	rax, 24[rax+rdi]	# _1078,
# src/avx_analysis_code_ablations/opt9_abl_hand_vec_no_tile.cpp:136:                 float TL = p.SUB[ind_ltop + k];
	.loc 1 136 23 discriminator 98304 view .LVU839
	movzx	edi, BYTE PTR [rbx+r8]	# *_1062, *_1062
# src/avx_analysis_code_ablations/opt9_abl_hand_vec_no_tile.cpp:137:                 float TR = p.SUB[ind_rtop + k];
	.loc 1 137 23 discriminator 98304 view .LVU840
	movzx	ecx, BYTE PTR [rcx+r8]	# *_1066, *_1066
# src/avx_analysis_code_ablations/opt9_abl_hand_vec_no_tile.cpp:138:                 float BL = p.SUB[ind_lbot + k];
	.loc 1 138 23 discriminator 98304 view .LVU841
	movzx	edx, BYTE PTR [rdx+r8]	# *_1070, *_1070
.LVL143:
# src/avx_analysis_code_ablations/opt9_abl_hand_vec_no_tile.cpp:139:                 float BR = p.SUB[ind_rbot + k];
	.loc 1 139 46 discriminator 98304 view .LVU842
	add	rsi, r14	# tmp1433, ind_rbot
.LVL144:
# src/avx_analysis_code_ablations/opt9_abl_hand_vec_no_tile.cpp:136:                 float TL = p.SUB[ind_ltop + k];
	.loc 1 136 23 discriminator 98304 view .LVU843
	vcvtusi2ss	xmm5, xmm4, edi	# tmp1551, tmp1526, *_1062
# src/avx_analysis_code_ablations/opt9_abl_hand_vec_no_tile.cpp:138:                 float BL = p.SUB[ind_lbot + k];
	.loc 1 138 23 discriminator 98304 view .LVU844
	vcvtusi2ss	xmm6, xmm4, edx	# tmp1553, tmp1526, *_1070
# src/avx_analysis_code_ablations/opt9_abl_hand_vec_no_tile.cpp:139:                 float BR = p.SUB[ind_rbot + k];
	.loc 1 139 23 discriminator 98304 view .LVU845
	movzx	edx, BYTE PTR [rsi+r8]	# *_1074, *_1074
.LVL145:
	.loc 1 139 23 discriminator 98304 view .LVU846
	vmovaps	xmm7, xmm5	# TL_1064, TL_1064
# src/avx_analysis_code_ablations/opt9_abl_hand_vec_no_tile.cpp:137:                 float TR = p.SUB[ind_rtop + k];
	.loc 1 137 23 discriminator 98304 view .LVU847
	vcvtusi2ss	xmm5, xmm4, ecx	# tmp1552, tmp1526, *_1066
# src/avx_analysis_code_ablations/opt9_abl_hand_vec_no_tile.cpp:140:                 vp[k] += p.A*TL + p.B*TR + p.C*BL + p.D*BR;
	.loc 1 140 47 discriminator 98304 view .LVU848
	vmulss	xmm6, xmm6, xmm14	# _1083, BL_1072, _75
	vfmadd213ss	xmm7, xmm16, DWORD PTR [rax]	# TL_1064, _73, *_1078
	vfmadd231ss	xmm6, xmm15, xmm5	# _99, _74, TR_1068
# src/avx_analysis_code_ablations/opt9_abl_hand_vec_no_tile.cpp:139:                 float BR = p.SUB[ind_rbot + k];
	.loc 1 139 23 discriminator 98304 view .LVU849
	vcvtusi2ss	xmm5, xmm4, edx	# tmp1554, tmp1526, *_1074
# src/avx_analysis_code_ablations/opt9_abl_hand_vec_no_tile.cpp:140:                 vp[k] += p.A*TL + p.B*TR + p.C*BL + p.D*BR;
	.loc 1 140 23 discriminator 98304 view .LVU850
	vfmadd132ss	xmm5, xmm7, xmm13	# tmp1432, _98, _76
	vaddss	xmm5, xmm5, xmm6	# _1087, tmp1432, _99
	vmovss	DWORD PTR [rax], xmm5	# *_1078, _1087
.LBE2679:
	.loc 1 135 13 is_stmt 1 discriminator 1 view .LVU851
.LVL146:
	.loc 1 135 31 discriminator 2 view .LVU852
.L44:
	.loc 1 135 31 is_stmt 0 discriminator 2 view .LVU853
.LBE2663:
.LBE2691:
	.loc 1 96 9 is_stmt 1 discriminator 1 view .LVU854
	inc	DWORD PTR 240[rsp]	# %sfp
.LVL147:
# src/avx_analysis_code_ablations/opt9_abl_hand_vec_no_tile.cpp:96:         for (int y = p.y_begin; y < p.y_end; ++y) {
	.loc 1 96 35 is_stmt 0 discriminator 2 view .LVU855
	mov	rbx, QWORD PTR 176[rsp]	# _86, %sfp
	mov	rdx, QWORD PTR 168[rsp]	# tmp898, %sfp
	add	QWORD PTR 224[rsp], rbx	# %sfp, _86
	add	r15, rbx	# ivtmp.517, _86
	add	QWORD PTR 216[rsp], rdx	# %sfp, tmp898
# src/avx_analysis_code_ablations/opt9_abl_hand_vec_no_tile.cpp:96:         for (int y = p.y_begin; y < p.y_end; ++y) {
	.loc 1 96 9 discriminator 1 view .LVU856
	mov	eax, DWORD PTR 240[rsp]	# y, %sfp
.LVL148:
	.loc 1 96 35 is_stmt 1 discriminator 2 view .LVU857
	cmp	eax, DWORD PTR 184[rsp]	# y, %sfp
	jne	.L50	#,
.LVL149:
.L42:
	.loc 1 96 35 is_stmt 0 discriminator 2 view .LVU858
.LBE2715:
.LBE2584:
	.loc 1 90 5 is_stmt 1 discriminator 4 view .LVU859
	.loc 1 90 31 discriminator 5 view .LVU860
# src/avx_analysis_code_ablations/opt9_abl_hand_vec_no_tile.cpp:90:     for (const SubParams& p : params) {
	.loc 1 90 31 is_stmt 0 discriminator 6 view .LVU861
	add	QWORD PTR 200[rsp], 48	# %sfp,
.LVL150:
	.loc 1 90 31 discriminator 6 view .LVU862
	mov	rax, QWORD PTR 200[rsp]	# ivtmp.528, %sfp
	cmp	QWORD PTR 128[rsp], rax	# %sfp, ivtmp.528
	jne	.L51	#,
.LBE2719:
.LBB2720:
# src/avx_analysis_code_ablations/opt9_abl_hand_vec_no_tile.cpp:146:     for (int y = 0; y < h; ++y) {
	.loc 1 146 23 discriminator 2 view .LVU863
	mov	r13d, DWORD PTR 40[rsp]	# _2, %sfp
	mov	r15d, DWORD PTR 44[rsp]	# _1, %sfp
	mov	rbx, QWORD PTR 32[rsp]	# _300, %sfp
	mov	rdi, QWORD PTR 104[rsp]	# _599, %sfp
	mov	rax, QWORD PTR 24[rsp]	# tmp1490, %sfp
.LVL151:
	.loc 1 146 23 is_stmt 1 discriminator 2 view .LVU864
	test	r13d, r13d	# _2
	jle	.L148	#,
	test	r15d, r15d	# _1
	jle	.L148	#,
	vzeroupper
.LVL152:
.L40:
	.loc 1 146 23 is_stmt 0 discriminator 2 view .LVU865
	mov	rcx, QWORD PTR 120[rsp]	# _629, %sfp
.LBB2721:
.LBB2722:
.LBB2723:
# src/avx_analysis_code_ablations/opt9_abl_hand_vec_no_tile.cpp:155:             float inv_c = 1.0f / static_cast<float>(c);
	.loc 1 155 19 view .LVU866
	mov	DWORD PTR 224[rsp], r13d	# %sfp, _2
	mov	r11, rdi	# ivtmp.474, _599
.LBE2723:
.LBE2722:
.LBE2721:
.LBE2720:
.LBB2744:
.LBB2575:
.LBB2542:
.LBB2535:
# /usr/include/c++/16/bits/stl_vector.h:409: 	this->_M_impl._M_end_of_storage = this->_M_impl._M_start + __n;
	.loc 2 409 59 view .LVU867
	xor	r10d, r10d	# ivtmp.472
	mov	r12, QWORD PTR 88[rsp]	# ivtmp.475, %sfp
.LBE2535:
.LBE2542:
.LBE2575:
.LBE2744:
.LBB2745:
.LBB2742:
.LBB2737:
.LBB2730:
# src/avx_analysis_code_ablations/opt9_abl_hand_vec_no_tile.cpp:155:             float inv_c = 1.0f / static_cast<float>(c);
	.loc 1 155 19 view .LVU868
	vmovss	xmm2, DWORD PTR .LC1[rip]	# tmp1496,
	mov	QWORD PTR 216[rsp], rbx	# %sfp, _300
.LBE2730:
.LBE2737:
.LBE2742:
# src/avx_analysis_code_ablations/opt9_abl_hand_vec_no_tile.cpp:146:     for (int y = 0; y < h; ++y) {
	.loc 1 146 14 view .LVU869
	xor	r14d, r14d	# y
	add	rax, rcx	# _450, _629
.LBB2743:
.LBB2738:
.LBB2731:
# src/avx_analysis_code_ablations/opt9_abl_hand_vec_no_tile.cpp:155:             float inv_c = 1.0f / static_cast<float>(c);
	.loc 1 155 19 view .LVU870
	mov	rbx, QWORD PTR 72[rsp]	# <retval>, %sfp
	mov	QWORD PTR 248[rsp], rax	# %sfp, _450
	sal	rax, 2	# tmp1444,
	mov	QWORD PTR 240[rsp], rax	# %sfp, tmp1444
	mov	eax, r15d	# _1238, _1
	lea	r15, 0[0+rax*4]	# _1244,
	lea	eax, -1[rcx]	# _528,
	lea	r8, 3[rax+rax*2]	# _893,
	.p2align 4,,10
	.p2align 3
.L58:
.LVL153:
	.loc 1 155 19 view .LVU871
.LBE2731:
.LBE2738:
	.loc 1 147 9 is_stmt 1 view .LVU872
	.loc 1 148 9 view .LVU873
.LBB2739:
.LBI2739:
	.loc 2 1385 7 view .LVU874
	.loc 2 1385 7 is_stmt 0 view .LVU875
.LBE2739:
	.loc 1 149 9 is_stmt 1 view .LVU876
.LBB2740:
	.loc 1 149 27 discriminator 2 view .LVU877
.LBE2740:
# src/avx_analysis_code_ablations/opt9_abl_hand_vec_no_tile.cpp:148:         unsigned char* outp = output.data.data() + (size_t)y * width * 3;
	.loc 1 148 72 is_stmt 0 discriminator 1 view .LVU878
	mov	rcx, QWORD PTR 16[rbx]	# outp, MEM[(struct vector *)output_189(D) + 16B].D.87585._M_impl.D.86896._M_start
	lea	r9, 0[0+r10*4]	# _1093,
	mov	rdx, r12	# ivtmp.459, ivtmp.475
	xor	eax, eax	# ivtmp.467
	add	rcx, r10	# outp, ivtmp.472
	jmp	.L57	#
.LVL154:
	.loc 1 148 72 discriminator 1 view .LVU879
	.p2align 5
	.p2align 4,,10
	.p2align 3
.L55:
.LBB2741:
.LBB2732:
	.loc 1 152 17 is_stmt 1 view .LVU880
# src/avx_analysis_code_ablations/opt9_abl_hand_vec_no_tile.cpp:152:                 outp[x*3] = outp[x*3+1] = outp[x*3+2] = 0;
	.loc 1 152 27 is_stmt 0 view .LVU881
	xor	esi, esi	#
.LVL155:
# src/avx_analysis_code_ablations/opt9_abl_hand_vec_no_tile.cpp:152:                 outp[x*3] = outp[x*3+1] = outp[x*3+2] = 0;
	.loc 1 152 55 view .LVU882
	mov	BYTE PTR 2[rcx+rax], 0	# MEM[(unsigned char *)outp_938 + 2B + ivtmp.467_524 * 1],
.LBE2732:
# src/avx_analysis_code_ablations/opt9_abl_hand_vec_no_tile.cpp:149:         for (int x = 0; x < w; ++x) {
	.loc 1 149 27 discriminator 2 view .LVU883
	add	rdx, 4	# ivtmp.459,
.LVL156:
.LBB2733:
# src/avx_analysis_code_ablations/opt9_abl_hand_vec_no_tile.cpp:152:                 outp[x*3] = outp[x*3+1] = outp[x*3+2] = 0;
	.loc 1 152 27 view .LVU884
	mov	WORD PTR [rcx+rax], si	# MEM <vector(2) unsigned char> [(unsigned char *)outp_938 + ivtmp.467_524 * 1],
	.loc 1 153 17 is_stmt 1 view .LVU885
.LBE2733:
	.loc 1 149 9 discriminator 1 view .LVU886
.LVL157:
	.loc 1 149 27 discriminator 2 view .LVU887
	add	rax, 3	# ivtmp.467,
.LVL158:
	.loc 1 149 27 is_stmt 0 discriminator 2 view .LVU888
	cmp	rax, r8	# ivtmp.467, _893
	je	.L160	#,
.LVL159:
.L57:
.LBB2734:
	.loc 1 150 13 is_stmt 1 view .LVU889
# src/avx_analysis_code_ablations/opt9_abl_hand_vec_no_tile.cpp:150:             int c = counts[y * w + x];
	.loc 1 150 37 is_stmt 0 discriminator 1 view .LVU890
	mov	esi, DWORD PTR [rdx]	# c, MEM[(value_type &)_861]
.LVL160:
	.loc 1 151 13 is_stmt 1 view .LVU891
	test	esi, esi	# c
	je	.L55	#,
	.loc 1 155 13 view .LVU892
# src/avx_analysis_code_ablations/opt9_abl_hand_vec_no_tile.cpp:155:             float inv_c = 1.0f / static_cast<float>(c);
	.loc 1 155 34 is_stmt 0 view .LVU893
	vcvtsi2ss	xmm0, xmm4, esi	# tmp1555, tmp1526, c
.LBE2734:
# src/avx_analysis_code_ablations/opt9_abl_hand_vec_no_tile.cpp:149:         for (int x = 0; x < w; ++x) {
	.loc 1 149 27 discriminator 2 view .LVU894
	add	rdx, 4	# ivtmp.459,
.LBB2735:
# src/avx_analysis_code_ablations/opt9_abl_hand_vec_no_tile.cpp:155:             float inv_c = 1.0f / static_cast<float>(c);
	.loc 1 155 19 view .LVU895
	vdivss	xmm0, xmm2, xmm0	# inv_c, tmp1496, _859
.LVL161:
	.loc 1 156 13 is_stmt 1 view .LVU896
.LBB2724:
	.loc 1 156 33 discriminator 2 view .LVU897
.LBB2725:
	.loc 1 157 17 view .LVU898
	.loc 1 158 17 view .LVU899
# src/avx_analysis_code_ablations/opt9_abl_hand_vec_no_tile.cpp:157:                 float v = vp[x*3 + ch] * inv_c;
	.loc 1 157 23 is_stmt 0 discriminator 32768 view .LVU900
	vmulss	xmm1, xmm0, DWORD PTR [r11+rax*4]	# v_853, inv_c, MEM[(const float *)_562 + ivtmp.467_524 * 4]
# src/avx_analysis_code_ablations/opt9_abl_hand_vec_no_tile.cpp:158:                 outp[x*3 + ch] = static_cast<unsigned char>(v);
	.loc 1 158 34 discriminator 32768 view .LVU901
	vcvttss2si	esi, xmm1	# tmp1458, v_853
.LVL162:
	.loc 1 158 34 discriminator 32768 view .LVU902
	mov	BYTE PTR [rcx+rax], sil	# MEM[(unsigned char *)outp_938 + ivtmp.467_524 * 1], tmp1458
.LBE2725:
	.loc 1 156 13 is_stmt 1 discriminator 1 view .LVU903
.LVL163:
	.loc 1 156 33 discriminator 2 view .LVU904
.LBB2726:
	.loc 1 157 17 view .LVU905
# src/avx_analysis_code_ablations/opt9_abl_hand_vec_no_tile.cpp:157:                 float v = vp[x*3 + ch] * inv_c;
	.loc 1 157 34 is_stmt 0 discriminator 65536 view .LVU906
	lea	esi, 1[rax]	# _849,
.LVL164:
	.loc 1 158 17 is_stmt 1 view .LVU907
# src/avx_analysis_code_ablations/opt9_abl_hand_vec_no_tile.cpp:157:                 float v = vp[x*3 + ch] * inv_c;
	.loc 1 157 38 is_stmt 0 discriminator 65536 view .LVU908
	lea	r13, [rdi+rsi*4]	# tmp1460,
# src/avx_analysis_code_ablations/opt9_abl_hand_vec_no_tile.cpp:157:                 float v = vp[x*3 + ch] * inv_c;
	.loc 1 157 23 discriminator 65536 view .LVU909
	vmulss	xmm1, xmm0, DWORD PTR 0[r13+r9]	# v_844, inv_c, *_846
# src/avx_analysis_code_ablations/opt9_abl_hand_vec_no_tile.cpp:158:                 outp[x*3 + ch] = static_cast<unsigned char>(v);
	.loc 1 158 34 discriminator 65536 view .LVU910
	vcvttss2si	r13d, xmm1	# tmp1465, v_844
	mov	BYTE PTR [rcx+rsi], r13b	# *_843, tmp1465
.LBE2726:
	.loc 1 156 13 is_stmt 1 discriminator 1 view .LVU911
.LVL165:
	.loc 1 156 33 discriminator 2 view .LVU912
.LBB2727:
	.loc 1 157 17 view .LVU913
# src/avx_analysis_code_ablations/opt9_abl_hand_vec_no_tile.cpp:157:                 float v = vp[x*3 + ch] * inv_c;
	.loc 1 157 34 is_stmt 0 discriminator 98304 view .LVU914
	lea	esi, 2[rax]	# _839,
.LVL166:
	.loc 1 158 17 is_stmt 1 view .LVU915
.LBE2727:
.LBE2724:
.LBE2735:
# src/avx_analysis_code_ablations/opt9_abl_hand_vec_no_tile.cpp:149:         for (int x = 0; x < w; ++x) {
	.loc 1 149 27 is_stmt 0 discriminator 2 view .LVU916
	add	rax, 3	# ivtmp.467,
.LVL167:
.LBB2736:
.LBB2729:
.LBB2728:
# src/avx_analysis_code_ablations/opt9_abl_hand_vec_no_tile.cpp:157:                 float v = vp[x*3 + ch] * inv_c;
	.loc 1 157 38 discriminator 98304 view .LVU917
	lea	r13, [rdi+rsi*4]	# tmp1467,
# src/avx_analysis_code_ablations/opt9_abl_hand_vec_no_tile.cpp:157:                 float v = vp[x*3 + ch] * inv_c;
	.loc 1 157 23 discriminator 98304 view .LVU918
	vmulss	xmm0, xmm0, DWORD PTR 0[r13+r9]	# v_834, inv_c, *_836
.LVL168:
# src/avx_analysis_code_ablations/opt9_abl_hand_vec_no_tile.cpp:158:                 outp[x*3 + ch] = static_cast<unsigned char>(v);
	.loc 1 158 34 discriminator 98304 view .LVU919
	vcvttss2si	r13d, xmm0	# tmp1472, v_834
	mov	BYTE PTR [rcx+rsi], r13b	# *_833, tmp1472
.LBE2728:
	.loc 1 156 13 is_stmt 1 discriminator 1 view .LVU920
.LVL169:
	.loc 1 156 33 discriminator 2 view .LVU921
.LBE2729:
.LBE2736:
	.loc 1 149 9 discriminator 1 view .LVU922
	.loc 1 149 27 discriminator 2 view .LVU923
	cmp	rax, r8	# ivtmp.467, _893
	jne	.L57	#,
.LVL170:
.L160:
	.loc 1 149 27 is_stmt 0 discriminator 2 view .LVU924
.LBE2741:
.LBE2743:
	.loc 1 146 5 is_stmt 1 discriminator 1 view .LVU925
	inc	r14d	# y
.LVL171:
	.loc 1 146 23 discriminator 2 view .LVU926
	add	r10, QWORD PTR 248[rsp]	# ivtmp.472, %sfp
	add	r11, QWORD PTR 240[rsp]	# ivtmp.474, %sfp
	add	r12, r15	# ivtmp.475, _1244
	cmp	r14d, DWORD PTR 224[rsp]	# y, %sfp
	jne	.L58	#,
	mov	rbx, QWORD PTR 216[rsp]	# _300, %sfp
.LVL172:
.L53:
	.loc 1 146 23 is_stmt 0 discriminator 2 view .LVU927
.LBE2745:
	.loc 1 163 5 is_stmt 1 view .LVU928
.LBB2746:
.LBI2746:
	.loc 2 790 7 view .LVU929
.LBB2747:
.LBI2747:
	.loc 2 307 7 view .LVU930
	.loc 2 307 7 is_stmt 0 view .LVU931
.LBE2747:
.LBB2748:
.LBI2748:
	.loc 8 1082 5 is_stmt 1 view .LVU932
	.loc 8 1082 5 is_stmt 0 view .LVU933
.LBE2748:
.LBB2749:
.LBI2749:
	.loc 2 373 7 is_stmt 1 view .LVU934
.LBB2750:
.LBB2751:
.LBI2751:
	.loc 2 394 7 view .LVU935
.LBB2752:
# /usr/include/c++/16/bits/stl_vector.h:397: 	if (__p)
	.loc 2 397 2 is_stmt 0 view .LVU936
	test	rdi, rdi	# _599
	je	.L39	#,
.LVL173:
.L71:
.LBB2753:
.LBI2753:
	.loc 8 688 7 is_stmt 1 view .LVU937
.LBB2754:
.LBI2754:
	.loc 6 167 7 view .LVU938
.LBB2755:
# /usr/include/c++/16/bits/new_allocator.h:183: 	_GLIBCXX_OPERATOR_DELETE(_GLIBCXX_SIZED_DEALLOC(__p, __n));
	.loc 6 183 59 is_stmt 0 view .LVU939
	mov	rsi, QWORD PTR 80[rsp]	#, %sfp
	call	"_ZdlPvm"@PLT	#
.LVL174:
	.loc 6 183 59 view .LVU940
.LBE2755:
.LBE2754:
.LBE2753:
.LBE2752:
.LBE2751:
.LBE2750:
.LBB2756:
.LBI2756:
	.loc 2 139 14 is_stmt 1 view .LVU941
.LBB2757:
.LBI2757:
	.loc 5 189 7 view .LVU942
.LBB2758:
.LBI2758:
	.loc 6 104 7 view .LVU943
	.loc 6 104 7 is_stmt 0 view .LVU944
.LBE2758:
.LBE2757:
.LBE2756:
.LBE2749:
.LBE2746:
.LBB2759:
.LBI2759:
	.loc 2 790 7 is_stmt 1 view .LVU945
.LBB2760:
.LBI2760:
	.loc 2 307 7 view .LVU946
	.loc 2 307 7 is_stmt 0 view .LVU947
.LBE2760:
.LBB2761:
.LBI2761:
	.loc 8 1082 5 is_stmt 1 view .LVU948
	.loc 8 1082 5 is_stmt 0 view .LVU949
.LBE2761:
.LBB2762:
.LBI2762:
	.loc 2 373 7 is_stmt 1 view .LVU950
.L39:
.LBB2763:
.LBB2764:
.LBI2764:
	.loc 2 394 7 view .LVU951
.LBB2765:
# /usr/include/c++/16/bits/stl_vector.h:397: 	if (__p)
	.loc 2 397 2 is_stmt 0 view .LVU952
	test	rbx, rbx	# _300
	je	.L59	#,
.LVL175:
.LBB2766:
.LBI2766:
	.loc 8 688 7 is_stmt 1 view .LVU953
.LBB2767:
.LBI2767:
	.loc 6 167 7 view .LVU954
.LBB2768:
# /usr/include/c++/16/bits/new_allocator.h:183: 	_GLIBCXX_OPERATOR_DELETE(_GLIBCXX_SIZED_DEALLOC(__p, __n));
	.loc 6 183 59 is_stmt 0 view .LVU955
	mov	rsi, QWORD PTR 64[rsp]	#, %sfp
	mov	rdi, rbx	#, _300
	call	"_ZdlPvm"@PLT	#
.LVL176:
	.loc 6 183 59 view .LVU956
.LBE2768:
.LBE2767:
.LBE2766:
.LBE2765:
.LBE2764:
.LBE2763:
.LBB2769:
.LBI2769:
	.loc 2 139 14 is_stmt 1 view .LVU957
.LBB2770:
.LBI2770:
	.loc 5 189 7 view .LVU958
.LBB2771:
.LBI2771:
	.loc 6 104 7 view .LVU959
	.loc 6 104 7 is_stmt 0 view .LVU960
.LBE2771:
.LBE2770:
.LBE2769:
.LBE2762:
.LBE2759:
.LBB2772:
.LBI2772:
	.loc 2 790 7 is_stmt 1 view .LVU961
.LBB2773:
.LBI2773:
	.loc 2 307 7 view .LVU962
	.loc 2 307 7 is_stmt 0 view .LVU963
.LBE2773:
.LBB2774:
.LBI2774:
	.loc 8 1082 5 is_stmt 1 view .LVU964
	.loc 8 1082 5 is_stmt 0 view .LVU965
.LBE2774:
.LBB2775:
.LBI2775:
	.loc 2 373 7 is_stmt 1 view .LVU966
.L59:
.LBB2776:
.LBB2777:
.LBI2777:
	.loc 2 394 7 view .LVU967
.LBB2778:
# /usr/include/c++/16/bits/stl_vector.h:397: 	if (__p)
	.loc 2 397 2 is_stmt 0 view .LVU968
	mov	rax, QWORD PTR 88[rsp]	# _445, %sfp
	test	rax, rax	# _445
	je	.L60	#,
.LVL177:
.LBB2779:
.LBI2779:
	.loc 8 688 7 is_stmt 1 view .LVU969
.LBB2780:
.LBI2780:
	.loc 6 167 7 view .LVU970
.LBB2781:
# /usr/include/c++/16/bits/new_allocator.h:183: 	_GLIBCXX_OPERATOR_DELETE(_GLIBCXX_SIZED_DEALLOC(__p, __n));
	.loc 6 183 59 is_stmt 0 view .LVU971
	mov	rsi, QWORD PTR 48[rsp]	#, %sfp
	mov	rdi, rax	#, _445
	call	"_ZdlPvm"@PLT	#
.LVL178:
.L60:
	.loc 6 183 59 view .LVU972
.LBE2781:
.LBE2780:
.LBE2779:
.LBE2778:
.LBE2777:
.LBE2776:
.LBB2782:
.LBI2782:
	.loc 2 139 14 is_stmt 1 view .LVU973
.LBB2783:
.LBI2783:
	.loc 5 189 7 view .LVU974
.LBB2784:
.LBI2784:
	.loc 6 104 7 view .LVU975
	.loc 6 104 7 is_stmt 0 view .LVU976
.LBE2784:
.LBE2783:
.LBE2782:
.LBE2775:
.LBE2772:
.LBB2785:
.LBI2330:
	.loc 2 790 7 is_stmt 1 view .LVU977
.LBB2344:
.LBI2344:
	.loc 2 307 7 view .LVU978
	.loc 2 307 7 is_stmt 0 view .LVU979
.LBE2344:
.LBB2345:
.LBI2345:
	.loc 8 1082 5 is_stmt 1 view .LVU980
	.loc 8 1082 5 is_stmt 0 view .LVU981
.LBE2345:
.LBB2346:
.LBI2331:
	.loc 2 373 7 is_stmt 1 view .LVU982
.LBB2340:
.LBB2333:
.LBI2333:
	.loc 2 394 7 view .LVU983
.LBB2334:
# /usr/include/c++/16/bits/stl_vector.h:397: 	if (__p)
	.loc 2 397 2 is_stmt 0 view .LVU984
	mov	rax, QWORD PTR 112[rsp]	# params$_M_start, %sfp
	test	rax, rax	# params$_M_start
	je	.L1	#,
.LVL179:
.LBB2335:
.LBI2335:
	.loc 2 394 7 is_stmt 1 view .LVU985
.LBB2336:
.LBB2337:
.LBI2337:
	.loc 8 688 7 view .LVU986
.LBB2338:
.LBI2338:
	.loc 6 167 7 view .LVU987
.LBB2339:
# /usr/include/c++/16/bits/new_allocator.h:183: 	_GLIBCXX_OPERATOR_DELETE(_GLIBCXX_SIZED_DEALLOC(__p, __n));
	.loc 6 183 59 is_stmt 0 view .LVU988
	mov	rsi, QWORD PTR 56[rsp]	#, %sfp
	mov	rdi, rax	#, params$_M_start
	call	"_ZdlPvm"@PLT	#
.LVL180:
	.loc 6 183 59 view .LVU989
.LBE2339:
.LBE2338:
.LBE2337:
.LBE2336:
.LBE2335:
.LBE2334:
.LBE2333:
.LBE2340:
.LBB2341:
.LBI2341:
	.loc 2 139 14 is_stmt 1 view .LVU990
.LBB2342:
.LBI2342:
	.loc 5 189 7 view .LVU991
.LBB2343:
.LBI2343:
	.loc 6 104 7 view .LVU992
.L1:
	.loc 6 104 7 is_stmt 0 view .LVU993
.LBE2343:
.LBE2342:
.LBE2341:
.LBE2346:
.LBE2785:
# src/avx_analysis_code_ablations/opt9_abl_hand_vec_no_tile.cpp:164: }
	.loc 1 164 1 view .LVU994
	mov	rax, QWORD PTR 72[rsp]	#, %sfp
	lea	rsp, -40[rbp]	#,
.LVL181:
	.loc 1 164 1 view .LVU995
	pop	rbx	#
	pop	r12	#
	pop	r13	#
	pop	r14	#
	pop	r15	#
	pop	rbp	#
	.cfi_remember_state
	.cfi_def_cfa 7, 8
.LVL182:
	.loc 1 164 1 view .LVU996
	ret	
.LVL183:
.L157:
	.cfi_restore_state
.LBB2786:
.LBB2152:
.LBB2145:
.LBB2137:
.LBB2131:
# /usr/include/c++/16/bits/stl_vector.h:106: 	: _M_start(), _M_finish(), _M_end_of_storage()
	.loc 2 106 4 view .LVU997
	mov	QWORD PTR 128[rsp], 0	# %sfp,
.LBE2131:
.LBE2137:
.LBE2145:
.LBE2152:
.LBE2786:
# src/avx_analysis_code_ablations/opt9_abl_hand_vec_no_tile.cpp:36:     const int w = static_cast<int>(width);
	.loc 1 36 15 view .LVU998
	mov	r15d, eax	# _1, _629
# src/avx_analysis_code_ablations/opt9_abl_hand_vec_no_tile.cpp:37:     const int h = static_cast<int>(height);
	.loc 1 37 15 view .LVU999
	mov	r13d, edi	# _2, _500
.LVL184:
	.loc 1 47 5 is_stmt 1 view .LVU1000
.LBB2787:
.LBB2322:
	.loc 2 988 7 view .LVU1001
.LBB2182:
	.loc 3 1058 7 view .LVU1002
	.loc 3 1058 7 is_stmt 0 view .LVU1003
.LBE2182:
.LBE2322:
.LBB2323:
	.loc 2 1008 7 is_stmt 1 view .LVU1004
.LBB2185:
	.loc 3 1058 7 view .LVU1005
	.loc 3 1058 7 is_stmt 0 view .LVU1006
.LBE2185:
.LBE2323:
	.loc 1 47 22 is_stmt 1 discriminator 5 view .LVU1007
.LBE2787:
.LBB2788:
.LBB2153:
.LBB2146:
.LBB2138:
.LBB2132:
# /usr/include/c++/16/bits/stl_vector.h:106: 	: _M_start(), _M_finish(), _M_end_of_storage()
	.loc 2 106 29 is_stmt 0 view .LVU1008
	mov	QWORD PTR 240[rsp], 0	# %sfp,
.LBE2132:
.LBE2138:
.LBE2146:
.LBE2153:
.LBE2788:
.LBB2789:
# src/avx_analysis_code_ablations/opt9_abl_hand_vec_no_tile.cpp:47:     for (auto& sub : subapertures) {
	.loc 1 47 22 discriminator 6 view .LVU1009
	cmp	rcx, rsi	# SR.270, _704
	jne	.L5	#,
.LBE2789:
.LBB2790:
.LBB2154:
.LBB2147:
.LBB2139:
.LBB2133:
# /usr/include/c++/16/bits/stl_vector.h:106: 	: _M_start(), _M_finish(), _M_end_of_storage()
	.loc 2 106 4 view .LVU1010
	mov	QWORD PTR 112[rsp], 0	# %sfp,
.LVL185:
.L77:
	.loc 2 106 4 view .LVU1011
.LBE2133:
.LBE2139:
.LBE2147:
.LBE2154:
.LBE2790:
.LBB2791:
.LBB2399:
.LBB2379:
.LBB2377:
# /usr/include/c++/16/bits/stl_vector.h:409: 	this->_M_impl._M_end_of_storage = this->_M_impl._M_start + __n;
	.loc 2 409 59 view .LVU1012
	mov	QWORD PTR 48[rsp], 0	# %sfp,
.LBB2375:
.LBB2373:
# /usr/include/c++/16/bits/stl_vector.h:389: 	return __n != 0 ? _Tr::allocate(_M_impl, __n) : pointer();
	.loc 2 389 58 discriminator 3 view .LVU1013
	mov	QWORD PTR 88[rsp], 0	# %sfp,
	jmp	.L18	#
.LVL186:
	.p2align 4,,10
	.p2align 3
.L159:
	.loc 2 389 58 discriminator 3 view .LVU1014
.LBE2373:
.LBE2375:
.LBE2377:
.LBE2379:
.LBE2399:
.LBE2791:
.LBB2792:
.LBB2717:
.LBB2716:
.LBB2692:
	.loc 1 134 13 is_stmt 1 view .LVU1015
	.loc 1 135 13 view .LVU1016
.LBB2683:
	.loc 1 135 31 discriminator 2 view .LVU1017
	mov	r9d, DWORD PTR 192[rsp]	# x_stop_242, %sfp
	test	r9d, r9d	# x_stop_242
	jle	.L44	#,
.LBB2680:
# src/avx_analysis_code_ablations/opt9_abl_hand_vec_no_tile.cpp:136:                 float TL = p.SUB[ind_ltop + k];
	.loc 1 136 30 is_stmt 0 view .LVU1018
	mov	rsi, QWORD PTR 200[rsp]	# ivtmp.528, %sfp
.LBE2680:
.LBE2683:
# src/avx_analysis_code_ablations/opt9_abl_hand_vec_no_tile.cpp:100:             size_t ind_rbot = ind_lbot + 3;
	.loc 1 100 20 view .LVU1019
	mov	r14, QWORD PTR 224[rsp]	# ind_rbot, %sfp
# src/avx_analysis_code_ablations/opt9_abl_hand_vec_no_tile.cpp:97:             size_t ind_ltop = ((y + p.sy) * width + (p.x_begin + p.sx)) * 3;
	.loc 1 97 20 view .LVU1020
	mov	r11, r15	# ind_ltop, ivtmp.517
.LBB2684:
# src/avx_analysis_code_ablations/opt9_abl_hand_vec_no_tile.cpp:135:             for (int k = 0; k < remaining; ++k) {
	.loc 1 135 22 view .LVU1021
	xor	r8d, r8d	# tmp.398
.LBB2681:
# src/avx_analysis_code_ablations/opt9_abl_hand_vec_no_tile.cpp:136:                 float TL = p.SUB[ind_ltop + k];
	.loc 1 136 30 view .LVU1022
	mov	rsi, QWORD PTR 40[rsi]	# _94, MEM[(const unsigned char * *)_1129 + 40B]
	add	rcx, rsi	# tmp1487, _94
.LVL187:
	.loc 1 136 30 view .LVU1023
	jmp	.L45	#
.LVL188:
.L81:
	.loc 1 136 30 view .LVU1024
.LBE2681:
# src/avx_analysis_code_ablations/opt9_abl_hand_vec_no_tile.cpp:135:             for (int k = 0; k < remaining; ++k) {
	.loc 1 135 22 view .LVU1025
	xor	r9d, r9d	# niters_vector_mult_vf.357
	sub	r10d, r9d	# niters.395, niters_vector_mult_vf.357
	lea	r12d, -1[r10]	# _1095,
	cmp	r12d, 6	# _1095,
	ja	.L161	#,
.L82:
.LBB2682:
# src/avx_analysis_code_ablations/opt9_abl_hand_vec_no_tile.cpp:140:                 vp[k] += p.A*TL + p.B*TR + p.C*BL + p.D*BR;
	.loc 1 140 23 discriminator 133120 view .LVU1026
	mov	r9d, DWORD PTR 248[rsp]	# prephitmp_764, %sfp
	jmp	.L45	#
.LVL189:
.L80:
	.loc 1 140 23 discriminator 133120 view .LVU1027
.LBE2682:
# src/avx_analysis_code_ablations/opt9_abl_hand_vec_no_tile.cpp:135:             for (int k = 0; k < remaining; ++k) {
	.loc 1 135 31 discriminator 2 view .LVU1028
	xor	ebx, ebx	# niters_vector_mult_vf.317
# src/avx_analysis_code_ablations/opt9_abl_hand_vec_no_tile.cpp:135:             for (int k = 0; k < remaining; ++k) {
	.loc 1 135 22 view .LVU1029
	xor	r8d, r8d	# tmp.398
	add	rcx, rsi	# tmp1487, _94
	jmp	.L47	#
.LVL190:
.L2:
	.loc 1 135 22 view .LVU1030
.LBE2684:
.LBE2692:
.LBE2716:
.LBE2717:
.LBE2792:
.LBB2793:
.LBB2119:
.LBB2116:
.LBB2113:
.LBB2039:
.LBB2040:
.LBI2040:
	.loc 2 589 7 is_stmt 1 view .LVU1031
.LBB2041:
.LBI2041:
	.loc 2 2203 7 view .LVU1032
.LBB2042:
.LBB2043:
.LBI2043:
	.loc 5 172 7 view .LVU1033
.LBB2044:
.LBI2044:
	.loc 6 92 7 view .LVU1034
	.loc 6 92 7 is_stmt 0 view .LVU1035
.LBE2044:
.LBE2043:
.LBB2045:
.LBI2045:
	.loc 5 189 7 is_stmt 1 view .LVU1036
.LBB2046:
.LBI2046:
	.loc 6 104 7 view .LVU1037
.LBE2046:
.LBE2045:
# /usr/include/c++/16/bits/stl_vector.h:2205: 	if (__n > _S_max_size(_Tp_alloc_type(__a)))
	.loc 2 2205 2 is_stmt 0 discriminator 3 view .LVU1038
	cmp	QWORD PTR 224[rsp], 0	# %sfp,
	js	.L141	#,
.LBE2042:
.LBE2041:
.LBB2048:
.LBB2049:
.LBB2050:
.LBB2051:
.LBB2052:
.LBB2053:
.LBB2054:
.LBB2055:
# /usr/include/c++/16/bits/new_allocator.h:162: 	  return static_cast<_Tp*>(_GLIBCXX_OPERATOR_NEW(__n * sizeof(_Tp)));
	.loc 6 162 68 view .LVU1039
	mov	rdi, rdx	#, _5
	mov	QWORD PTR 240[rsp], rcx	# %sfp, SR.270
.LVL191:
	.loc 6 162 68 view .LVU1040
.LBE2055:
.LBE2054:
.LBE2053:
.LBE2052:
.LBE2051:
.LBE2050:
.LBE2049:
.LBI2048:
	.loc 2 339 7 is_stmt 1 view .LVU1041
.LBB2064:
.LBI2064:
	.loc 2 152 2 view .LVU1042
.LBB2065:
.LBI2065:
	.loc 5 172 7 view .LVU1043
.LBB2066:
.LBI2066:
	.loc 6 92 7 view .LVU1044
	.loc 6 92 7 is_stmt 0 view .LVU1045
.LBE2066:
.LBE2065:
.LBB2067:
.LBI2067:
	.loc 2 105 2 is_stmt 1 view .LVU1046
	.loc 2 105 2 is_stmt 0 view .LVU1047
.LBE2067:
.LBE2064:
.LBB2068:
.LBI2049:
	.loc 2 405 7 is_stmt 1 view .LVU1048
.LBB2061:
.LBB2060:
.LBI2051:
	.loc 2 386 7 view .LVU1049
.LBB2059:
.LBB2058:
.LBI2053:
	.loc 8 637 7 view .LVU1050
.LBB2057:
.LBI2054:
	.loc 6 129 7 view .LVU1051
	mov	r14, rdx	# _5, _5
	vmovss	DWORD PTR 216[rsp], xmm4	# %sfp, focus
.LEHB4:
.LBB2056:
# /usr/include/c++/16/bits/new_allocator.h:162: 	  return static_cast<_Tp*>(_GLIBCXX_OPERATOR_NEW(__n * sizeof(_Tp)));
	.loc 6 162 68 is_stmt 0 view .LVU1052
	call	"_Znwm"@PLT	#
.LVL192:
.LEHE4:
	.loc 6 162 68 view .LVU1053
	mov	rdi, rax	# tmp1514,
.LVL193:
	.loc 6 162 68 view .LVU1054
.LBE2056:
.LBE2057:
.LBE2058:
.LBE2059:
.LBE2060:
.LBE2061:
.LBE2068:
.LBE2048:
.LBB2071:
.LBB2072:
.LBB2073:
.LBB2074:
.LBB2075:
.LBB2076:
# /usr/include/c++/16/bits/stl_uninitialized.h:577: 		      __builtin_memset(__dest, (unsigned char)__x, __n);
	.loc 12 577 25 view .LVU1055
	xor	esi, esi	#
.LBE2076:
.LBE2075:
.LBE2074:
.LBE2073:
.LBE2072:
.LBE2071:
.LBB2089:
.LBB2069:
.LBB2062:
# /usr/include/c++/16/bits/stl_vector.h:409: 	this->_M_impl._M_end_of_storage = this->_M_impl._M_start + __n;
	.loc 2 409 59 view .LVU1056
	lea	r12, [rax+r14]	# _434,
.LVL194:
	.loc 2 409 59 view .LVU1057
.LBE2062:
.LBE2069:
.LBE2089:
.LBB2090:
.LBI2071:
	.loc 2 1987 7 is_stmt 1 view .LVU1058
.LBB2086:
.LBI2072:
	.loc 12 771 5 view .LVU1059
.LBB2083:
.LBI2073:
	.loc 12 550 5 view .LVU1060
	.loc 12 550 5 is_stmt 0 view .LVU1061
.LBE2083:
.LBE2086:
.LBE2090:
.LBB2091:
.LBB2070:
.LBB2063:
# /usr/include/c++/16/bits/stl_vector.h:409: 	this->_M_impl._M_end_of_storage = this->_M_impl._M_start + __n;
	.loc 2 409 59 view .LVU1062
	mov	rdx, r14	# _5, _5
.LBE2063:
.LBE2070:
.LBE2091:
.LBB2092:
.LBB2087:
.LBB2084:
.LBB2081:
.LBB2079:
.LBB2077:
# /usr/include/c++/16/bits/stl_uninitialized.h:577: 		      __builtin_memset(__dest, (unsigned char)__x, __n);
	.loc 12 577 25 view .LVU1063
	call	"memset"@PLT	#
.LVL195:
	.loc 12 577 25 view .LVU1064
.LBE2077:
.LBE2079:
.LBE2081:
.LBE2084:
.LBE2087:
.LBE2092:
.LBE2040:
.LBE2039:
.LBE2113:
.LBE2116:
.LBE2119:
.LBE2793:
.LBB2794:
.LBB2175:
# /usr/include/c++/16/bits/vector.tcc:75:       if (this->capacity() < __n)
	.loc 7 75 7 discriminator 1 view .LVU1065
	mov	rcx, QWORD PTR 240[rsp]	# SR.270, %sfp
	vmovss	xmm4, DWORD PTR 216[rsp]	# focus, %sfp
.LBE2175:
.LBE2794:
.LBB2795:
.LBB2120:
.LBB2117:
.LBB2114:
.LBB2111:
.LBB2095:
.LBB2093:
.LBB2088:
.LBB2085:
.LBB2082:
.LBB2080:
.LBB2078:
# /usr/include/c++/16/bits/stl_uninitialized.h:577: 		      __builtin_memset(__dest, (unsigned char)__x, __n);
	.loc 12 577 25 view .LVU1066
	mov	rdi, rax	# tmp1514,
.LVL196:
	.loc 12 577 25 view .LVU1067
.LBE2078:
.LBE2080:
.LBE2082:
.LBE2085:
.LBE2088:
.LBE2093:
.LBE2095:
.LBB2096:
.LBI2096:
	.loc 2 128 2 is_stmt 1 view .LVU1068
.LBB2097:
.LBB2098:
.LBI2098:
	.loc 2 105 2 view .LVU1069
	.loc 2 105 2 is_stmt 0 view .LVU1070
.LBE2098:
.LBB2099:
.LBI2099:
	.loc 2 119 2 is_stmt 1 view .LVU1071
.LBB2100:
# /usr/include/c++/16/bits/stl_vector.h:121: 	  _M_start = __x._M_start;
	.loc 2 121 13 is_stmt 0 view .LVU1072
	mov	rax, QWORD PTR 72[rsp]	# <retval>, %sfp
.LVL197:
	.loc 2 121 13 view .LVU1073
	mov	QWORD PTR 16[rax], rdi	# MEM[(struct _Vector_impl_data *)output_189(D) + 16B]._M_start, tmp1514
# /usr/include/c++/16/bits/stl_vector.h:122: 	  _M_finish = __x._M_finish;
	.loc 2 122 14 view .LVU1074
	mov	QWORD PTR 24[rax], r12	# MEM[(struct _Vector_impl_data *)output_189(D) + 16B]._M_finish, _434
# /usr/include/c++/16/bits/stl_vector.h:123: 	  _M_end_of_storage = __x._M_end_of_storage;
	.loc 2 123 22 view .LVU1075
	mov	QWORD PTR 32[rax], r12	# MEM[(struct _Vector_impl_data *)output_189(D) + 16B]._M_end_of_storage, _434
.LVL198:
	.loc 2 123 22 view .LVU1076
.LBE2100:
.LBE2099:
.LBE2097:
.LBE2096:
.LBB2101:
.LBI2101:
	.loc 2 790 7 is_stmt 1 view .LVU1077
.LBB2102:
.LBI2102:
	.loc 2 307 7 view .LVU1078
	.loc 2 307 7 is_stmt 0 view .LVU1079
.LBE2102:
.LBB2103:
.LBI2103:
	.loc 8 1082 5 is_stmt 1 view .LVU1080
	.loc 8 1082 5 is_stmt 0 view .LVU1081
.LBE2103:
.LBB2104:
.LBI2104:
	.loc 2 373 7 is_stmt 1 view .LVU1082
.LBB2105:
.LBB2106:
.LBI2106:
	.loc 2 394 7 view .LVU1083
	.loc 2 394 7 is_stmt 0 view .LVU1084
.LBE2106:
.LBE2105:
.LBB2107:
.LBI2107:
	.loc 2 139 14 is_stmt 1 view .LVU1085
.LBB2108:
.LBI2108:
	.loc 5 189 7 view .LVU1086
.LBB2109:
.LBI2109:
	.loc 6 104 7 view .LVU1087
	.loc 6 104 7 is_stmt 0 view .LVU1088
.LBE2109:
.LBE2108:
.LBE2107:
.LBE2104:
.LBE2101:
.LBE2111:
.LBE2114:
.LBE2117:
.LBE2120:
.LBE2795:
	.loc 1 45 5 is_stmt 1 view .LVU1089
.LBB2796:
	.loc 2 551 7 view .LVU1090
.LBB2155:
	.loc 2 321 7 view .LVU1091
.LBB2148:
	.loc 2 143 2 view .LVU1092
.LBB2140:
	.loc 5 168 7 view .LVU1093
.LBB2127:
	.loc 6 88 7 view .LVU1094
	.loc 6 88 7 is_stmt 0 view .LVU1095
.LBE2127:
.LBE2140:
.LBB2141:
	.loc 2 105 2 is_stmt 1 view .LVU1096
	.loc 2 105 2 is_stmt 0 view .LVU1097
.LBE2141:
.LBE2148:
.LBE2155:
.LBE2796:
	.loc 1 46 5 is_stmt 1 view .LVU1098
.LBB2797:
	.loc 2 1107 7 view .LVU1099
.LBB2160:
# /usr/include/c++/16/bits/stl_vector.h:1109: 	ptrdiff_t __dif = this->_M_impl._M_finish - this->_M_impl._M_start;
	.loc 2 1109 34 is_stmt 0 view .LVU1100
	mov	rax, QWORD PTR 8[rbx]	# _704, MEM[(const struct vector *)subapertures_185(D)].D.139286._M_impl.D.138633._M_finish
.LVL199:
	.loc 2 1109 34 view .LVU1101
.LBE2160:
.LBE2797:
.LBB2798:
	.loc 7 70 5 is_stmt 1 view .LVU1102
	.loc 7 70 5 is_stmt 0 view .LVU1103
.LBE2798:
.LBB2799:
.LBB2161:
# /usr/include/c++/16/bits/stl_vector.h:1109: 	ptrdiff_t __dif = this->_M_impl._M_finish - this->_M_impl._M_start;
	.loc 2 1109 34 view .LVU1104
	mov	QWORD PTR 248[rsp], rax	# %sfp, _704
.LBE2161:
.LBE2799:
.LBB2800:
.LBB2176:
# /usr/include/c++/16/bits/vector.tcc:75:       if (this->capacity() < __n)
	.loc 7 75 7 discriminator 1 view .LVU1105
	sub	rax, rcx	# _616, SR.270
.LVL200:
	.loc 7 75 7 discriminator 1 view .LVU1106
	mov	QWORD PTR 56[rsp], rax	# %sfp, _616
	jne	.L4	#,
.LBE2176:
.LBE2800:
.LBB2801:
.LBB2156:
.LBB2149:
.LBB2142:
.LBB2134:
# /usr/include/c++/16/bits/stl_vector.h:106: 	: _M_start(), _M_finish(), _M_end_of_storage()
	.loc 2 106 29 view .LVU1107
	mov	QWORD PTR 240[rsp], 0	# %sfp,
# /usr/include/c++/16/bits/stl_vector.h:106: 	: _M_start(), _M_finish(), _M_end_of_storage()
	.loc 2 106 4 view .LVU1108
	mov	QWORD PTR 128[rsp], 0	# %sfp,
	jmp	.L8	#
.LVL201:
.L13:
	.loc 2 106 4 view .LVU1109
.LBE2134:
.LBE2142:
.LBE2149:
.LBE2156:
.LBE2801:
.LBB2802:
.LBB2324:
.LBB2317:
.LBB2313:
.LBB2211:
.LBI2211:
	.loc 7 565 7 is_stmt 1 view .LVU1110
.LBB2212:
.LBB2213:
.LBI2213:
	.loc 2 2192 7 view .LVU1111
.LBB2214:
.LBB2215:
.LBI2215:
	.loc 2 1107 7 view .LVU1112
.LBB2216:
# /usr/include/c++/16/bits/stl_vector.h:1109: 	ptrdiff_t __dif = this->_M_impl._M_finish - this->_M_impl._M_start;
	.loc 2 1109 44 is_stmt 0 view .LVU1113
	mov	r12, QWORD PTR 240[rsp]	# _504, %sfp
# /usr/include/c++/16/bits/stl_vector.h:1109: 	ptrdiff_t __dif = this->_M_impl._M_finish - this->_M_impl._M_start;
	.loc 2 1109 12 view .LVU1114
	movabs	rax, -6148914691236517205	# tmp812,
# /usr/include/c++/16/bits/stl_vector.h:1109: 	ptrdiff_t __dif = this->_M_impl._M_finish - this->_M_impl._M_start;
	.loc 2 1109 44 view .LVU1115
	sub	r12, QWORD PTR 112[rsp]	# _504, %sfp
.LVL202:
# /usr/include/c++/16/bits/stl_vector.h:1109: 	ptrdiff_t __dif = this->_M_impl._M_finish - this->_M_impl._M_start;
	.loc 2 1109 12 view .LVU1116
	mov	rdx, r12	# tmp810, _504
	sar	rdx, 4	# tmp810,
	imul	rdx, rax	# __dif_505, tmp812
.LVL203:
	.loc 2 1109 12 view .LVU1117
.LBE2216:
.LBE2215:
# /usr/include/c++/16/bits/stl_vector.h:2194: 	if (max_size() - size() < __n)
	.loc 2 2194 2 discriminator 2 view .LVU1118
	movabs	rax, 192153584101141162	# tmp813,
	cmp	rdx, rax	# __dif_505, tmp813
	je	.L142	#,
.LBB2217:
.LBB2218:
# /usr/include/c++/16/bits/stl_algobase.h:261:       if (__a < __b)
	.loc 10 261 7 view .LVU1119
	test	rdx, rdx	# __dif_505
	mov	eax, 1	# tmp1561,
	mov	QWORD PTR 104[rsp], rcx	# %sfp, SR.270
	cmovne	rax, rdx	# __dif_505,, _507
	mov	DWORD PTR 128[rsp], r11d	# %sfp, _21
	mov	DWORD PTR 152[rsp], esi	# %sfp, _17
.LBE2218:
.LBE2217:
# /usr/include/c++/16/bits/stl_vector.h:2197: 	const size_type __len = size() + (std::max)(size(), __n);
	.loc 2 2197 18 discriminator 3 view .LVU1120
	add	rax, rdx	# __len_508, __dif_505
# /usr/include/c++/16/bits/stl_vector.h:2198: 	return (__len < size() || __len > max_size()) ? max_size() : __len;
	.loc 2 2198 25 discriminator 3 view .LVU1121
	movabs	rdx, 192153584101141162	# tmp1562,
	mov	DWORD PTR 168[rsp], r8d	# %sfp, _10
	cmp	rax, rdx	# __len_508, tmp1562
	mov	DWORD PTR 176[rsp], r9d	# %sfp, _9
.LVL204:
.LBB2219:
.LBI2217:
	.loc 10 256 5 is_stmt 1 view .LVU1122
	.loc 10 256 5 is_stmt 0 view .LVU1123
.LBE2219:
.LBE2214:
.LBE2213:
.LBB2222:
.LBI2222:
	.loc 2 386 7 is_stmt 1 view .LVU1124
.LBB2223:
.LBB2224:
.LBI2224:
	.loc 8 637 7 view .LVU1125
.LBB2225:
.LBI2225:
	.loc 6 129 7 view .LVU1126
	.loc 6 129 7 is_stmt 0 view .LVU1127
.LBE2225:
.LBE2224:
.LBE2223:
.LBE2222:
.LBB2238:
.LBB2220:
# /usr/include/c++/16/bits/stl_vector.h:2198: 	return (__len < size() || __len > max_size()) ? max_size() : __len;
	.loc 2 2198 25 discriminator 3 view .LVU1128
	cmova	rax, rdx	# __len_508,, __len_508, tmp1562
	vmovss	DWORD PTR 96[rsp], xmm4	# %sfp, focus
	vmovss	DWORD PTR 136[rsp], xmm5	# %sfp, _16
.LBE2220:
.LBE2238:
.LBB2239:
.LBB2235:
.LBB2232:
.LBB2229:
.LBB2226:
# /usr/include/c++/16/bits/new_allocator.h:162: 	  return static_cast<_Tp*>(_GLIBCXX_OPERATOR_NEW(__n * sizeof(_Tp)));
	.loc 6 162 68 view .LVU1129
	lea	rax, [rax+rax*2]	# _525,
	vmovss	DWORD PTR 144[rsp], xmm0	# %sfp, _15
	sal	rax, 4	# _525,
	vmovss	DWORD PTR 156[rsp], xmm1	# %sfp, _14
	mov	rdi, rax	#, tmp820
	mov	QWORD PTR 192[rsp], rax	# %sfp, tmp820
	vmovss	DWORD PTR 160[rsp], xmm2	# %sfp, _13
.LEHB5:
	call	"_Znwm"@PLT	#
.LVL205:
.LEHE5:
	.loc 6 162 68 view .LVU1130
.LBE2226:
.LBE2229:
.LBE2232:
.LBE2235:
.LBE2239:
.LBB2240:
.LBB2241:
.LBB2242:
.LBB2243:
# /usr/include/c++/16/bits/new_allocator.h:203: 	{ ::new((void *)__p) _Up(std::forward<_Args>(__args)...); }
	.loc 6 203 4 discriminator 1 view .LVU1131
	vmovss	xmm0, DWORD PTR 144[rsp]	# _15, %sfp
	vmovss	xmm2, DWORD PTR 160[rsp]	# _13, %sfp
.LBE2243:
.LBE2242:
.LBE2241:
.LBB2256:
.LBB2257:
.LBB2258:
# /usr/include/c++/16/bits/stl_uninitialized.h:1382:       if (__count > 0)
	.loc 12 1382 7 view .LVU1132
	test	r12, r12	# _504
.LBE2258:
.LBE2257:
.LBE2256:
.LBE2240:
.LBB2305:
.LBB2236:
.LBB2233:
.LBB2230:
.LBB2227:
# /usr/include/c++/16/bits/new_allocator.h:162: 	  return static_cast<_Tp*>(_GLIBCXX_OPERATOR_NEW(__n * sizeof(_Tp)));
	.loc 6 162 68 view .LVU1133
	mov	QWORD PTR 200[rsp], rax	# %sfp, _526
.LVL206:
	.loc 6 162 68 view .LVU1134
.LBE2227:
.LBE2230:
.LBE2233:
.LBE2236:
.LBE2305:
.LBB2306:
.LBB2268:
.LBI2268:
	.loc 2 1865 2 is_stmt 1 view .LVU1135
	.loc 2 1865 2 is_stmt 0 view .LVU1136
.LBE2268:
.LBB2269:
.LBI2241:
	.loc 8 705 2 is_stmt 1 view .LVU1137
.LBB2250:
.LBI2242:
	.loc 6 201 2 view .LVU1138
.LBB2244:
# /usr/include/c++/16/bits/new_allocator.h:203: 	{ ::new((void *)__p) _Up(std::forward<_Args>(__args)...); }
	.loc 6 203 4 is_stmt 0 discriminator 1 view .LVU1139
	mov	rcx, QWORD PTR 216[rsp]	# _327, %sfp
	mov	r9d, DWORD PTR 176[rsp]	# _9, %sfp
	mov	DWORD PTR 28[rax+r12], ebx	# _513->x_end, _6
.LBE2244:
.LBE2250:
.LBE2269:
.LBE2306:
.LBB2307:
.LBB2237:
.LBB2234:
.LBB2231:
.LBB2228:
# /usr/include/c++/16/bits/new_allocator.h:162: 	  return static_cast<_Tp*>(_GLIBCXX_OPERATOR_NEW(__n * sizeof(_Tp)));
	.loc 6 162 68 view .LVU1140
	mov	rdi, rax	# _526,
.LBE2228:
.LBE2231:
.LBE2234:
.LBE2237:
.LBE2307:
.LBB2308:
.LBB2270:
.LBB2251:
.LBB2245:
# /usr/include/c++/16/bits/new_allocator.h:203: 	{ ::new((void *)__p) _Up(std::forward<_Args>(__args)...); }
	.loc 6 203 4 discriminator 1 view .LVU1141
	mov	r8d, DWORD PTR 168[rsp]	# _10, %sfp
	vinsertps	xmm0, xmm0, DWORD PTR 136[rsp], 0x10	# tmp823, _15, %sfp
	mov	DWORD PTR 36[rax+r12], r14d	# _513->y_end, _404
.LBE2245:
.LBE2251:
.LBE2270:
.LBB2271:
.LBB2263:
.LBB2259:
# /usr/include/c++/16/bits/stl_uninitialized.h:1382:       if (__count > 0)
	.loc 12 1382 7 view .LVU1142
	mov	r10d, 0	# tmp1493,
.LBE2259:
.LBE2263:
.LBE2271:
.LBB2272:
.LBB2252:
.LBB2246:
# /usr/include/c++/16/bits/new_allocator.h:203: 	{ ::new((void *)__p) _Up(std::forward<_Args>(__args)...); }
	.loc 6 203 4 discriminator 1 view .LVU1143
	vinsertps	xmm2, xmm2, DWORD PTR 156[rsp], 0x10	# tmp824, _13, %sfp
	mov	esi, DWORD PTR 152[rsp]	# _17, %sfp
	mov	QWORD PTR 40[rax+r12], rcx	# MEM <const unsigned char *> [(struct SubParams *)_513 + 40B], _327
.LVL207:
	.loc 6 203 4 discriminator 1 view .LVU1144
.LBE2246:
.LBE2252:
.LBE2272:
.LBB2273:
.LBI2256:
	.loc 12 1404 5 is_stmt 1 view .LVU1145
.LBB2264:
.LBI2257:
	.loc 12 1377 5 view .LVU1146
	.loc 12 1377 5 is_stmt 0 view .LVU1147
.LBE2264:
.LBE2273:
.LBB2274:
.LBB2253:
.LBB2247:
# /usr/include/c++/16/bits/new_allocator.h:203: 	{ ::new((void *)__p) _Up(std::forward<_Args>(__args)...); }
	.loc 6 203 4 discriminator 1 view .LVU1148
	mov	r11d, DWORD PTR 128[rsp]	# _21, %sfp
.LBE2247:
.LBE2253:
.LBE2274:
.LBB2275:
.LBB2265:
.LBB2260:
# /usr/include/c++/16/bits/stl_uninitialized.h:1382:       if (__count > 0)
	.loc 12 1382 7 view .LVU1149
	mov	rcx, QWORD PTR 104[rsp]	# SR.270, %sfp
.LBE2260:
.LBE2265:
.LBE2275:
.LBB2276:
.LBB2254:
.LBB2248:
# /usr/include/c++/16/bits/new_allocator.h:203: 	{ ::new((void *)__p) _Up(std::forward<_Args>(__args)...); }
	.loc 6 203 4 discriminator 1 view .LVU1150
	mov	DWORD PTR [rax+r12], r9d	# _513->sx, _9
	vmovlhps	xmm2, xmm2, xmm0	# _68, tmp824, tmp823
	mov	DWORD PTR 4[rax+r12], r8d	# _513->sy, _10
.LBE2248:
.LBE2254:
.LBE2276:
.LBB2277:
.LBB2266:
.LBB2261:
# /usr/include/c++/16/bits/stl_uninitialized.h:1382:       if (__count > 0)
	.loc 12 1382 7 view .LVU1151
	vmovss	xmm4, DWORD PTR 96[rsp]	# focus, %sfp
.LBE2261:
.LBE2266:
.LBE2277:
.LBB2278:
.LBB2255:
.LBB2249:
# /usr/include/c++/16/bits/new_allocator.h:203: 	{ ::new((void *)__p) _Up(std::forward<_Args>(__args)...); }
	.loc 6 203 4 discriminator 1 view .LVU1152
	mov	DWORD PTR 24[rax+r12], esi	# _513->x_begin, _17
	mov	DWORD PTR 32[rax+r12], r11d	# _513->y_begin, _21
	vmovups	XMMWORD PTR 8[rax+r12], xmm2	# MEM <vector(4) float> [(float *)_513 + 8B], _68
.LBE2249:
.LBE2255:
.LBE2278:
.LBB2279:
.LBB2267:
.LBB2262:
# /usr/include/c++/16/bits/stl_uninitialized.h:1382:       if (__count > 0)
	.loc 12 1382 7 view .LVU1153
	je	.L15	#,
# /usr/include/c++/16/bits/stl_uninitialized.h:1394: 	  __builtin_memcpy(__result, __first, __count * sizeof(_Tp));
	.loc 12 1394 20 view .LVU1154
	mov	rsi, QWORD PTR 112[rsp]	#, %sfp
	mov	rdx, r12	#, _504
	mov	QWORD PTR 216[rsp], rcx	# %sfp, SR.270
	vmovss	DWORD PTR 176[rsp], xmm4	# %sfp, focus
.LVL208:
	.loc 12 1394 20 view .LVU1155
	call	"memcpy"@PLT	#
.LVL209:
	.loc 12 1394 20 view .LVU1156
	vmovss	xmm4, DWORD PTR 176[rsp]	# focus, %sfp
	mov	rcx, QWORD PTR 216[rsp]	# SR.270, %sfp
	xor	r10d, r10d	# tmp1493
.L15:
.LVL210:
	.loc 12 1394 20 view .LVU1157
.LBE2262:
.LBE2267:
.LBE2279:
# /usr/include/c++/16/bits/vector.tcc:610: 	    ++__new_finish;
	.loc 7 610 6 view .LVU1158
	mov	rax, QWORD PTR 200[rsp]	# _526, %sfp
	lea	rax, 48[rax+r12]	# __new_finish,
.LVL211:
	.loc 7 610 6 view .LVU1159
	mov	QWORD PTR 128[rsp], rax	# %sfp, __new_finish
.LVL212:
.LBB2280:
.LBI2280:
	.loc 2 1870 2 is_stmt 1 view .LVU1160
.LBB2281:
# /usr/include/c++/16/bits/stl_vector.h:1872: 	  if (_M_storage)
	.loc 2 1872 4 is_stmt 0 view .LVU1161
	mov	rax, QWORD PTR 112[rsp]	# params$_M_start, %sfp
.LVL213:
	.loc 2 1872 4 view .LVU1162
	test	rax, rax	# params$_M_start
	je	.L16	#,
.LBE2281:
.LBE2280:
# /usr/include/c++/16/bits/vector.tcc:648: 	__guard._M_len = this->_M_impl._M_end_of_storage - __old_start;
	.loc 7 648 51 view .LVU1163
	mov	rsi, QWORD PTR 240[rsp]	# params$_M_end_of_storage, %sfp
.LBB2303:
.LBB2301:
.LBB2282:
.LBB2283:
.LBB2284:
.LBB2285:
.LBB2286:
.LBB2287:
.LBB2288:
# /usr/include/c++/16/bits/new_allocator.h:183: 	_GLIBCXX_OPERATOR_DELETE(_GLIBCXX_SIZED_DEALLOC(__p, __n));
	.loc 6 183 59 view .LVU1164
	mov	rdi, rax	#, params$_M_start
	mov	QWORD PTR 216[rsp], rcx	# %sfp, SR.270
.LVL214:
	.loc 6 183 59 view .LVU1165
.LBE2288:
.LBE2287:
.LBE2286:
.LBE2285:
.LBE2284:
.LBE2283:
.LBI2282:
	.loc 2 394 7 is_stmt 1 view .LVU1166
.LBB2298:
.LBB2296:
.LBI2284:
	.loc 2 394 7 view .LVU1167
.LBB2294:
.LBB2292:
.LBI2286:
	.loc 8 688 7 view .LVU1168
.LBB2290:
.LBI2287:
	.loc 6 167 7 view .LVU1169
	vmovss	DWORD PTR 176[rsp], xmm4	# %sfp, focus
.LBE2290:
.LBE2292:
.LBE2294:
.LBE2296:
.LBE2298:
.LBE2282:
.LBE2301:
.LBE2303:
# /usr/include/c++/16/bits/vector.tcc:648: 	__guard._M_len = this->_M_impl._M_end_of_storage - __old_start;
	.loc 7 648 51 is_stmt 0 view .LVU1170
	sub	rsi, rax	# params$_M_end_of_storage, params$_M_start
.LBB2304:
.LBB2302:
.LBB2300:
.LBB2299:
.LBB2297:
.LBB2295:
.LBB2293:
.LBB2291:
.LBB2289:
# /usr/include/c++/16/bits/new_allocator.h:183: 	_GLIBCXX_OPERATOR_DELETE(_GLIBCXX_SIZED_DEALLOC(__p, __n));
	.loc 6 183 59 view .LVU1171
	call	"_ZdlPvm"@PLT	#
.LVL215:
	vmovss	xmm4, DWORD PTR 176[rsp]	# focus, %sfp
	mov	rcx, QWORD PTR 216[rsp]	# SR.270, %sfp
.LVL216:
	.loc 6 183 59 view .LVU1172
	xor	r10d, r10d	# tmp1493
.LVL217:
.L16:
	.loc 6 183 59 view .LVU1173
.LBE2289:
.LBE2291:
.LBE2293:
.LBE2295:
.LBE2297:
.LBE2299:
.LBE2300:
.LBE2302:
.LBE2304:
.LBE2308:
# /usr/include/c++/16/bits/vector.tcc:655:       this->_M_impl._M_end_of_storage = __new_start + __len;
	.loc 7 655 53 view .LVU1174
	mov	rsi, QWORD PTR 200[rsp]	# _526, %sfp
	mov	rax, QWORD PTR 192[rsp]	# tmp820, %sfp
	add	rax, rsi	# tmp820, _526
.LVL218:
# /usr/include/c++/16/bits/vector.tcc:653:       this->_M_impl._M_start = __new_start;
	.loc 7 653 30 view .LVU1175
	mov	QWORD PTR 112[rsp], rsi	# %sfp, _526
.LVL219:
# /usr/include/c++/16/bits/vector.tcc:655:       this->_M_impl._M_end_of_storage = __new_start + __len;
	.loc 7 655 53 view .LVU1176
	mov	QWORD PTR 240[rsp], rax	# %sfp, tmp820
.LVL220:
	.loc 7 655 53 view .LVU1177
	jmp	.L12	#
.LVL221:
.L78:
	.loc 7 655 53 view .LVU1178
.LBE2212:
.LBE2211:
.LBE2313:
.LBE2317:
.LBE2324:
.LBE2802:
.LBB2803:
.LBB2455:
.LBB2435:
.LBB2433:
.LBB2431:
.LBB2429:
# /usr/include/c++/16/bits/stl_vector.h:389: 	return __n != 0 ? _Tr::allocate(_M_impl, __n) : pointer();
	.loc 2 389 58 discriminator 3 view .LVU1179
	xor	ebx, ebx	# _300
	jmp	.L23	#
.LVL222:
.L158:
	.loc 2 389 58 discriminator 3 view .LVU1180
.LBE2429:
.LBE2431:
.LBE2433:
.LBE2435:
.LBE2455:
.LBE2803:
.LBB2804:
	.loc 1 90 31 is_stmt 1 discriminator 5 view .LVU1181
# src/avx_analysis_code_ablations/opt9_abl_hand_vec_no_tile.cpp:90:     for (const SubParams& p : params) {
	.loc 1 90 31 is_stmt 0 discriminator 6 view .LVU1182
	mov	rcx, QWORD PTR 128[rsp]	# __new_finish, %sfp
	cmp	QWORD PTR 112[rsp], rcx	# %sfp, __new_finish
	je	.L36	#,
.LBE2804:
.LBB2805:
.LBB2576:
.LBB2543:
.LBB2536:
.LBB2529:
.LBB2523:
# /usr/include/c++/16/bits/stl_vector.h:389: 	return __n != 0 ? _Tr::allocate(_M_impl, __n) : pointer();
	.loc 2 389 58 discriminator 3 view .LVU1183
	xor	edi, edi	# _599
	jmp	.L37	#
.LVL223:
.L148:
	.loc 2 389 58 discriminator 3 view .LVU1184
	vzeroupper
.LVL224:
	jmp	.L53	#
.LVL225:
.L41:
	.loc 2 389 58 discriminator 3 view .LVU1185
.LBE2523:
.LBE2529:
.LBE2536:
.LBE2543:
.LBE2576:
.LBE2805:
.LBB2806:
	.loc 1 146 23 is_stmt 1 discriminator 2 view .LVU1186
	test	r13d, r13d	# _2
	jle	.L71	#,
	mov	rax, QWORD PTR 120[rsp]	# _629, %sfp
	add	rax, rax	# tmp1490, _629
	test	r15d, r15d	# _1
	jg	.L40	#,
	jmp	.L71	#
.LVL226:
	.p2align 4,,10
	.p2align 3
.L26:
	.loc 1 146 23 is_stmt 0 discriminator 2 view .LVU1187
.LBE2806:
	.loc 1 88 5 is_stmt 1 view .LVU1188
.LBB2807:
	.loc 5 168 7 view .LVU1189
.LBB2488:
	.loc 6 88 7 view .LVU1190
	.loc 6 88 7 is_stmt 0 view .LVU1191
.LBE2488:
.LBE2807:
.LBB2808:
	.loc 2 589 7 is_stmt 1 view .LVU1192
.LBB2577:
	.loc 2 2203 7 view .LVU1193
.LBB2500:
.LBB2498:
	.loc 5 172 7 view .LVU1194
.LBB2494:
	.loc 6 92 7 view .LVU1195
	.loc 6 92 7 is_stmt 0 view .LVU1196
.LBE2494:
.LBE2498:
.LBB2499:
	.loc 5 189 7 is_stmt 1 view .LVU1197
.LBB2497:
	.loc 6 104 7 view .LVU1198
.LBE2497:
.LBE2499:
# /usr/include/c++/16/bits/stl_vector.h:2205: 	if (__n > _S_max_size(_Tp_alloc_type(__a)))
	.loc 2 2205 2 is_stmt 0 discriminator 3 view .LVU1199
	mov	rax, QWORD PTR 224[rsp]	# _5, %sfp
	shr	rax, 61	# _5,
	jne	.L34	#,
.LVL227:
	.loc 2 2205 2 discriminator 3 view .LVU1200
.LBE2500:
.LBE2577:
.LBB2578:
	.loc 2 339 7 is_stmt 1 view .LVU1201
.LBB2544:
	.loc 2 152 2 view .LVU1202
.LBB2508:
	.loc 5 172 7 view .LVU1203
.LBB2506:
	.loc 6 92 7 view .LVU1204
	.loc 6 92 7 is_stmt 0 view .LVU1205
.LBE2506:
.LBE2508:
.LBB2509:
	.loc 2 105 2 is_stmt 1 view .LVU1206
	.loc 2 105 2 is_stmt 0 view .LVU1207
.LBE2509:
.LBE2544:
.LBB2545:
	.loc 2 405 7 is_stmt 1 view .LVU1208
.LBB2537:
.LBB2530:
	.loc 2 386 7 view .LVU1209
.LBB2524:
# /usr/include/c++/16/bits/stl_vector.h:389: 	return __n != 0 ? _Tr::allocate(_M_impl, __n) : pointer();
	.loc 2 389 18 is_stmt 0 view .LVU1210
	cmp	QWORD PTR 80[rsp], 0	# %sfp,
	jne	.L35	#,
.LVL228:
	.loc 2 389 18 view .LVU1211
.LBE2524:
.LBE2530:
.LBE2537:
.LBE2545:
.LBE2578:
.LBE2808:
.LBB2809:
	.loc 1 90 31 is_stmt 1 discriminator 5 view .LVU1212
# src/avx_analysis_code_ablations/opt9_abl_hand_vec_no_tile.cpp:90:     for (const SubParams& p : params) {
	.loc 1 90 31 is_stmt 0 discriminator 6 view .LVU1213
	mov	rcx, QWORD PTR 128[rsp]	# __new_finish, %sfp
	cmp	QWORD PTR 112[rsp], rcx	# %sfp, __new_finish
	je	.L39	#,
.LBE2809:
.LBB2810:
.LBB2579:
.LBB2546:
.LBB2538:
.LBB2531:
.LBB2525:
# /usr/include/c++/16/bits/stl_vector.h:389: 	return __n != 0 ? _Tr::allocate(_M_impl, __n) : pointer();
	.loc 2 389 58 discriminator 3 view .LVU1214
	xor	edi, edi	# _599
	jmp	.L37	#
.LVL229:
.L74:
	.loc 2 389 58 discriminator 3 view .LVU1215
.LBE2525:
.LBE2531:
.LBE2538:
.LBE2546:
.LBE2579:
.LBE2810:
.LBB2811:
# src/avx_analysis_code_ablations/opt9_abl_hand_vec_no_tile.cpp:47:     for (auto& sub : subapertures) {
	.loc 1 47 22 discriminator 6 view .LVU1216
	mov	rax, QWORD PTR 128[rsp]	# __new_finish, %sfp
	mov	QWORD PTR 112[rsp], rax	# %sfp, __new_finish
	jmp	.L9	#
.LVL230:
.L36:
	.loc 1 47 22 discriminator 6 view .LVU1217
	mov	rax, QWORD PTR 120[rsp]	# _629, %sfp
.LBE2811:
.LBB2812:
.LBB2580:
.LBB2547:
.LBB2539:
# /usr/include/c++/16/bits/stl_vector.h:409: 	this->_M_impl._M_end_of_storage = this->_M_impl._M_start + __n;
	.loc 2 409 59 view .LVU1218
	mov	QWORD PTR 80[rsp], 0	# %sfp,
.LBB2532:
.LBB2526:
# /usr/include/c++/16/bits/stl_vector.h:389: 	return __n != 0 ? _Tr::allocate(_M_impl, __n) : pointer();
	.loc 2 389 58 discriminator 3 view .LVU1219
	xor	edi, edi	# _599
	add	rax, rax	# tmp1490, _629
	test	r15d, r15d	# _1
	jg	.L40	#,
	jmp	.L39	#
.LVL231:
.L135:
	.loc 2 389 58 discriminator 3 view .LVU1220
	jmp	.L136	#
.LVL232:
.L87:
	.loc 2 389 58 discriminator 3 view .LVU1221
	mov	rbx, rax	# tmp1479, tmp1518
	vzeroupper
.LVL233:
	jmp	.L21	#
.LVL234:
.L133:
	.loc 2 389 58 discriminator 3 view .LVU1222
	jmp	.L134	#
.LVL235:
.L137:
	.loc 2 389 58 discriminator 3 view .LVU1223
	jmp	.L138	#
.LVL236:
.L139:
	.loc 2 389 58 discriminator 3 view .LVU1224
	jmp	.L140	#
.LVL237:
	.loc 2 389 58 discriminator 3 view .LVU1225
.LBE2526:
.LBE2532:
.LBE2539:
.LBE2547:
.LBE2580:
.LBE2812:
	.section	.gcc_except_table,"a",@progbits
.LLSDA11707:
	.byte	0xff
	.byte	0xff
	.byte	0x1
	.uleb128 .LLSDACSE11707-.LLSDACSB11707
.LLSDACSB11707:
	.uleb128 .LEHB0-.LFB11707
	.uleb128 .LEHE0-.LEHB0
	.uleb128 .L133-.LFB11707
	.uleb128 0
	.uleb128 .LEHB1-.LFB11707
	.uleb128 .LEHE1-.LEHB1
	.uleb128 .L87-.LFB11707
	.uleb128 0
	.uleb128 .LEHB2-.LFB11707
	.uleb128 .LEHE2-.LEHB2
	.uleb128 .L135-.LFB11707
	.uleb128 0
	.uleb128 .LEHB3-.LFB11707
	.uleb128 .LEHE3-.LEHB3
	.uleb128 .L137-.LFB11707
	.uleb128 0
	.uleb128 .LEHB4-.LFB11707
	.uleb128 .LEHE4-.LEHB4
	.uleb128 .L133-.LFB11707
	.uleb128 0
	.uleb128 .LEHB5-.LFB11707
	.uleb128 .LEHE5-.LEHB5
	.uleb128 .L139-.LFB11707
	.uleb128 0
.LLSDACSE11707:
	.text
	.cfi_endproc
	.section	.text.unlikely
	.cfi_startproc
	.cfi_personality 0x9b,"DW.ref.__gxx_personality_v0"
	.cfi_lsda 0x1b,.LLSDAC11707
	.type	"_Z21refocus_shift_and_sumRSt6vectorI16SubApertureImageSaIS0_EEf.cold", @function
"_Z21refocus_shift_and_sumRSt6vectorI16SubApertureImageSaIS0_EEf.cold":
.LFSB11707:
.LBB2813:
.LBB2581:
.LBB2548:
.LBB2540:
.LBB2533:
.LBB2527:
.L34:
	.cfi_def_cfa 6, 16
	.cfi_offset 3, -56
	.cfi_offset 6, -16
	.cfi_offset 12, -48
	.cfi_offset 13, -40
	.cfi_offset 14, -32
	.cfi_offset 15, -24
.LBE2527:
.LBE2533:
.LBE2540:
.LBE2548:
.LBE2581:
.LBB2582:
.LBB2501:
# /usr/include/c++/16/bits/stl_vector.h:2206: 	  __throw_length_error(
	.loc 2 2206 24 view -0
	lea	rdi, .LC0[rip]	#,
.LEHB6:
	call	"_ZSt20__throw_length_errorPKc"@PLT	#
.LVL238:
.LEHE6:
.L85:
.L136:
	.loc 2 2206 24 view .LVU1227
.LBE2501:
.LBE2582:
.LBE2813:
.LBB2814:
.LBB2815:
.LBB2816:
.LBB2817:
.LBB2818:
# /usr/include/c++/16/bits/stl_vector.h:397: 	if (__p)
	.loc 2 397 2 view .LVU1228
	mov	rbx, rax	# tmp1475, tmp1522
	vzeroupper
.LVL239:
.L64:
	.loc 2 397 2 view .LVU1229
.LBE2818:
.LBE2817:
.LBE2816:
.LBE2815:
.LBI2814:
	.loc 2 790 7 is_stmt 1 view .LVU1230
.LBB2828:
.LBI2828:
	.loc 2 307 7 view .LVU1231
	.loc 2 307 7 is_stmt 0 view .LVU1232
.LBE2828:
.LBB2829:
.LBI2829:
	.loc 8 1082 5 is_stmt 1 view .LVU1233
	.loc 8 1082 5 is_stmt 0 view .LVU1234
.LBE2829:
.LBB2830:
.LBI2815:
	.loc 2 373 7 is_stmt 1 view .LVU1235
.LBB2824:
.LBB2823:
.LBI2817:
	.loc 2 394 7 view .LVU1236
.LBB2822:
# /usr/include/c++/16/bits/stl_vector.h:397: 	if (__p)
	.loc 2 397 2 is_stmt 0 view .LVU1237
	cmp	QWORD PTR 88[rsp], 0	# %sfp,
	je	.L21	#,
.LVL240:
.LBB2819:
.LBI2819:
	.loc 8 688 7 is_stmt 1 view .LVU1238
.LBB2820:
.LBI2820:
	.loc 6 167 7 view .LVU1239
.LBB2821:
# /usr/include/c++/16/bits/new_allocator.h:183: 	_GLIBCXX_OPERATOR_DELETE(_GLIBCXX_SIZED_DEALLOC(__p, __n));
	.loc 6 183 59 is_stmt 0 view .LVU1240
	mov	rsi, QWORD PTR 48[rsp]	#, %sfp
	mov	rdi, QWORD PTR 88[rsp]	#, %sfp
	call	"_ZdlPvm"@PLT	#
.LVL241:
	.loc 6 183 59 view .LVU1241
.LBE2821:
.LBE2820:
.LBE2819:
.LBE2822:
.LBE2823:
.LBE2824:
.LBB2825:
.LBI2825:
	.loc 2 139 14 is_stmt 1 view .LVU1242
.LBB2826:
.LBI2826:
	.loc 5 189 7 view .LVU1243
.LBB2827:
.LBI2827:
	.loc 6 104 7 view .LVU1244
.L21:
	.loc 6 104 7 is_stmt 0 view .LVU1245
.LBE2827:
.LBE2826:
.LBE2825:
.LBE2830:
.LBE2814:
.LBB2831:
.LBI2831:
	.loc 2 790 7 is_stmt 1 view .LVU1246
.LBB2832:
.LBI2832:
	.loc 2 307 7 view .LVU1247
	.loc 2 307 7 is_stmt 0 view .LVU1248
.LBE2832:
.LBB2833:
.LBI2833:
	.loc 8 1082 5 is_stmt 1 view .LVU1249
	.loc 8 1082 5 is_stmt 0 view .LVU1250
.LBE2833:
.LBB2834:
.LBI2834:
	.loc 2 373 7 is_stmt 1 view .LVU1251
.LBB2835:
.LBB2836:
.LBI2836:
	.loc 2 394 7 view .LVU1252
.LBB2837:
# /usr/include/c++/16/bits/stl_vector.h:397: 	if (__p)
	.loc 2 397 2 is_stmt 0 view .LVU1253
	cmp	QWORD PTR 112[rsp], 0	# %sfp,
	je	.L68	#,
.LVL242:
.LBB2838:
.LBI2838:
	.loc 2 394 7 is_stmt 1 view .LVU1254
.LBB2839:
.LBB2840:
.LBI2840:
	.loc 8 688 7 view .LVU1255
.LBB2841:
.LBI2841:
	.loc 6 167 7 view .LVU1256
.LBE2841:
.LBE2840:
.LBE2839:
.LBE2838:
.LBE2837:
.LBE2836:
# /usr/include/c++/16/bits/stl_vector.h:375: 	ptrdiff_t __n = _M_impl._M_end_of_storage - _M_impl._M_start;
	.loc 2 375 44 is_stmt 0 view .LVU1257
	mov	rsi, QWORD PTR 240[rsp]	# params$_M_end_of_storage, %sfp
	mov	rdi, QWORD PTR 112[rsp]	# params$_M_start, %sfp
	sub	rsi, rdi	# params$_M_end_of_storage, params$_M_start
.LBB2849:
.LBB2847:
.LBB2846:
.LBB2845:
.LBB2844:
.LBB2843:
.LBB2842:
# /usr/include/c++/16/bits/new_allocator.h:183: 	_GLIBCXX_OPERATOR_DELETE(_GLIBCXX_SIZED_DEALLOC(__p, __n));
	.loc 6 183 59 view .LVU1258
	call	"_ZdlPvm"@PLT	#
.LVL243:
	.loc 6 183 59 view .LVU1259
.LBE2842:
.LBE2843:
.LBE2844:
.LBE2845:
.LBE2846:
.LBE2847:
.LBE2849:
.LBE2835:
.LBB2851:
.LBI2851:
	.loc 2 139 14 is_stmt 1 view .LVU1260
.LBB2852:
.LBI2852:
	.loc 5 189 7 view .LVU1261
.LBB2853:
.LBI2853:
	.loc 6 104 7 view .LVU1262
.L68:
	.loc 6 104 7 is_stmt 0 view .LVU1263
.LBE2853:
.LBE2852:
.LBE2851:
.LBE2834:
.LBE2831:
.LBB2856:
.LBI2856:
	.loc 4 11 8 is_stmt 1 view .LVU1264
.LBB2857:
.LBI2857:
	.loc 2 790 7 view .LVU1265
.LBB2858:
.LBI2858:
	.loc 2 307 7 view .LVU1266
	.loc 2 307 7 is_stmt 0 view .LVU1267
.LBE2858:
.LBB2859:
.LBI2859:
	.loc 8 1082 5 is_stmt 1 view .LVU1268
	.loc 8 1082 5 is_stmt 0 view .LVU1269
.LBE2859:
.LBB2860:
.LBI2860:
	.loc 2 373 7 is_stmt 1 view .LVU1270
.LBB2861:
# /usr/include/c++/16/bits/stl_vector.h:375: 	ptrdiff_t __n = _M_impl._M_end_of_storage - _M_impl._M_start;
	.loc 2 375 54 is_stmt 0 view .LVU1271
	mov	rax, QWORD PTR 72[rsp]	# <retval>, %sfp
	mov	rdi, QWORD PTR 16[rax]	# _386, MEM[(struct _Vector_base *)output_189(D) + 16B]._M_impl.D.86896._M_start
.LVL244:
.LBB2862:
.LBI2862:
	.loc 2 394 7 is_stmt 1 view .LVU1272
.LBB2863:
# /usr/include/c++/16/bits/stl_vector.h:397: 	if (__p)
	.loc 2 397 2 is_stmt 0 view .LVU1273
	test	rdi, rdi	# _386
	je	.L69	#,
.LVL245:
.LBB2864:
.LBI2864:
	.loc 8 688 7 is_stmt 1 view .LVU1274
.LBB2865:
.LBI2865:
	.loc 6 167 7 view .LVU1275
.LBE2865:
.LBE2864:
.LBE2863:
.LBE2862:
# /usr/include/c++/16/bits/stl_vector.h:375: 	ptrdiff_t __n = _M_impl._M_end_of_storage - _M_impl._M_start;
	.loc 2 375 12 is_stmt 0 view .LVU1276
	mov	rsi, QWORD PTR 32[rax]	# MEM[(struct _Vector_base *)output_189(D) + 16B]._M_impl.D.86896._M_end_of_storage, MEM[(struct _Vector_base *)output_189(D) + 16B]._M_impl.D.86896._M_end_of_storage
	sub	rsi, rdi	# __n_387, _386
.LBB2870:
.LBB2869:
.LBB2868:
.LBB2867:
.LBB2866:
# /usr/include/c++/16/bits/new_allocator.h:183: 	_GLIBCXX_OPERATOR_DELETE(_GLIBCXX_SIZED_DEALLOC(__p, __n));
	.loc 6 183 59 view .LVU1277
	call	"_ZdlPvm"@PLT	#
.LVL246:
.L69:
	.loc 6 183 59 view .LVU1278
.LBE2866:
.LBE2867:
.LBE2868:
.LBE2869:
.LBE2870:
.LBE2861:
.LBB2871:
.LBI2871:
	.loc 2 139 14 is_stmt 1 view .LVU1279
.LBB2872:
.LBI2872:
	.loc 5 189 7 view .LVU1280
.LBB2873:
.LBI2873:
	.loc 6 104 7 view .LVU1281
	.loc 6 104 7 is_stmt 0 view .LVU1282
	mov	rdi, rbx	#, tmp1482
.LEHB7:
	call	"_Unwind_Resume"@PLT	#
.LVL247:
.LEHE7:
.L86:
.L138:
	.loc 6 104 7 view .LVU1283
.LBE2873:
.LBE2872:
.LBE2871:
.LBE2860:
.LBE2857:
.LBE2856:
.LBB2877:
.LBB2878:
.LBB2879:
.LBB2880:
.LBB2881:
# /usr/include/c++/16/bits/stl_vector.h:397: 	if (__p)
	.loc 2 397 2 view .LVU1284
	mov	r12, rax	# tmp1521,
.LBE2881:
.LBE2880:
.LBE2879:
.LBE2878:
.LBI2877:
	.loc 2 790 7 is_stmt 1 view .LVU1285
.LVL248:
.LBB2894:
.LBI2894:
	.loc 2 307 7 view .LVU1286
	.loc 2 307 7 is_stmt 0 view .LVU1287
.LBE2894:
.LBB2895:
.LBI2895:
	.loc 8 1082 5 is_stmt 1 view .LVU1288
	.loc 8 1082 5 is_stmt 0 view .LVU1289
.LBE2895:
.LBB2896:
.LBI2878:
	.loc 2 373 7 is_stmt 1 view .LVU1290
.LBB2889:
.LBB2887:
.LBI2880:
	.loc 2 394 7 view .LVU1291
.LBB2885:
# /usr/include/c++/16/bits/stl_vector.h:397: 	if (__p)
	.loc 2 397 2 is_stmt 0 view .LVU1292
	test	rbx, rbx	# _300
	jne	.L162	#,
	vzeroupper
.LVL249:
.L63:
	.loc 2 397 2 view .LVU1293
.LBE2885:
.LBE2887:
.LBE2889:
.LBB2890:
.LBI2890:
	.loc 2 139 14 is_stmt 1 view .LVU1294
.LBB2891:
.LBI2891:
	.loc 5 189 7 view .LVU1295
.LBB2892:
.LBI2892:
	.loc 6 104 7 view .LVU1296
	.loc 6 104 7 is_stmt 0 view .LVU1297
	mov	rbx, r12	# tmp1475, tmp1521
	jmp	.L64	#
.LVL250:
.L162:
	.loc 6 104 7 view .LVU1298
.LBE2892:
.LBE2891:
.LBE2890:
.LBB2893:
.LBB2888:
.LBB2886:
.LBB2882:
.LBI2882:
	.loc 8 688 7 is_stmt 1 view .LVU1299
.LBB2883:
.LBI2883:
	.loc 6 167 7 view .LVU1300
.LBB2884:
# /usr/include/c++/16/bits/new_allocator.h:183: 	_GLIBCXX_OPERATOR_DELETE(_GLIBCXX_SIZED_DEALLOC(__p, __n));
	.loc 6 183 59 is_stmt 0 view .LVU1301
	mov	rsi, QWORD PTR 64[rsp]	#, %sfp
	mov	rdi, rbx	#, _300
	vzeroupper
.LVL251:
	call	"_ZdlPvm"@PLT	#
.LVL252:
	.loc 6 183 59 view .LVU1302
	jmp	.L63	#
.LVL253:
.L144:
	.loc 6 183 59 view .LVU1303
.LBE2884:
.LBE2883:
.LBE2882:
.LBE2886:
.LBE2888:
.LBE2893:
.LBE2896:
.LBE2877:
.LBB2897:
.LBB2456:
.LBB2412:
# /usr/include/c++/16/bits/stl_vector.h:2206: 	  __throw_length_error(
	.loc 2 2206 24 view .LVU1304
	lea	rdi, .LC0[rip]	#,
.LEHB8:
	call	"_ZSt20__throw_length_errorPKc"@PLT	#
.LVL254:
.LEHE8:
.L143:
	.loc 2 2206 24 view .LVU1305
.LBE2412:
.LBE2456:
.LBE2897:
.LBB2898:
.LBB2400:
.LBB2356:
	lea	rdi, .LC0[rip]	#,
.LEHB9:
	call	"_ZSt20__throw_length_errorPKc"@PLT	#
.LVL255:
.LEHE9:
.L83:
.L134:
	.loc 2 2206 24 view .LVU1306
.LBE2356:
.LBE2400:
.LBE2898:
.LBB2899:
.LBB2876:
.LBB2875:
.LBB2874:
# /usr/include/c++/16/bits/stl_vector.h:375: 	ptrdiff_t __n = _M_impl._M_end_of_storage - _M_impl._M_start;
	.loc 2 375 54 view .LVU1307
	mov	rbx, rax	# tmp1482, tmp1525
	vzeroupper
.LVL256:
	jmp	.L68	#
.LVL257:
.L84:
	.loc 2 375 54 view .LVU1308
.LBE2874:
.LBE2875:
.LBE2876:
.LBE2899:
.LBB2900:
.LBB2855:
.LBB2854:
.LBB2850:
.LBB2848:
# /usr/include/c++/16/bits/stl_vector.h:397: 	if (__p)
	.loc 2 397 2 view .LVU1309
	mov	rbx, rax	# tmp1479, tmp1524
	vzeroupper
.LVL258:
	jmp	.L21	#
.LVL259:
.L141:
	.loc 2 397 2 view .LVU1310
.LBE2848:
.LBE2850:
.LBE2854:
.LBE2855:
.LBE2900:
.LBB2901:
.LBB2121:
.LBB2118:
.LBB2115:
.LBB2112:
.LBB2110:
.LBB2094:
.LBB2047:
# /usr/include/c++/16/bits/stl_vector.h:2206: 	  __throw_length_error(
	.loc 2 2206 24 view .LVU1311
	lea	rdi, .LC0[rip]	#,
.LEHB10:
	call	"_ZSt20__throw_length_errorPKc"@PLT	#
.LVL260:
.LEHE10:
.L142:
	.loc 2 2206 24 view .LVU1312
.LBE2047:
.LBE2094:
.LBE2110:
.LBE2112:
.LBE2115:
.LBE2118:
.LBE2121:
.LBE2901:
.LBB2902:
.LBB2325:
.LBB2318:
.LBB2314:
.LBB2311:
.LBB2310:
.LBB2309:
.LBB2221:
# /usr/include/c++/16/bits/stl_vector.h:2195: 	  __throw_length_error(__N(__s));
	.loc 2 2195 24 view .LVU1313
	lea	rdi, .LC2[rip]	#,
.LEHB11:
	call	"_ZSt20__throw_length_errorPKc"@PLT	#
.LVL261:
.LEHE11:
.L88:
.L140:
	.loc 2 2195 24 view .LVU1314
	mov	rbx, rax	# tmp1479, tmp1523
.LVL262:
	.loc 2 2195 24 view .LVU1315
	vzeroupper
.LVL263:
	jmp	.L21	#
.LBE2221:
.LBE2309:
.LBE2310:
.LBE2311:
.LBE2314:
.LBE2318:
.LBE2325:
.LBE2902:
	.cfi_endproc
.LFE11707:
	.section	.gcc_except_table
.LLSDAC11707:
	.byte	0xff
	.byte	0xff
	.byte	0x1
	.uleb128 .LLSDACSEC11707-.LLSDACSBC11707
.LLSDACSBC11707:
	.uleb128 .LEHB6-.LCOLDB4
	.uleb128 .LEHE6-.LEHB6
	.uleb128 .L86-.LCOLDB4
	.uleb128 0
	.uleb128 .LEHB7-.LCOLDB4
	.uleb128 .LEHE7-.LEHB7
	.uleb128 0
	.uleb128 0
	.uleb128 .LEHB8-.LCOLDB4
	.uleb128 .LEHE8-.LEHB8
	.uleb128 .L85-.LCOLDB4
	.uleb128 0
	.uleb128 .LEHB9-.LCOLDB4
	.uleb128 .LEHE9-.LEHB9
	.uleb128 .L84-.LCOLDB4
	.uleb128 0
	.uleb128 .LEHB10-.LCOLDB4
	.uleb128 .LEHE10-.LEHB10
	.uleb128 .L83-.LCOLDB4
	.uleb128 0
	.uleb128 .LEHB11-.LCOLDB4
	.uleb128 .LEHE11-.LEHB11
	.uleb128 .L88-.LCOLDB4
	.uleb128 0
.LLSDACSEC11707:
	.section	.text.unlikely
	.text
	.size	"_Z21refocus_shift_and_sumRSt6vectorI16SubApertureImageSaIS0_EEf", .-"_Z21refocus_shift_and_sumRSt6vectorI16SubApertureImageSaIS0_EEf"
	.section	.text.unlikely
	.size	"_Z21refocus_shift_and_sumRSt6vectorI16SubApertureImageSaIS0_EEf.cold", .-"_Z21refocus_shift_and_sumRSt6vectorI16SubApertureImageSaIS0_EEf.cold"
.LCOLDE4:
	.text
.LHOTE4:
	.section	.rodata.cst4,"aM",@progbits,4
	.align 4
.LC1:
	.long	1065353216
	.text
.Letext0:
	.section	.text.unlikely
.Letext_cold0:
	.file 17 "/usr/include/c++/16/cwchar"
	.file 18 "/usr/include/x86_64-linux-gnu/c++/16/bits/c++config.h"
	.file 19 "/usr/include/c++/16/type_traits"
	.file 20 "/usr/include/c++/16/bits/exception_ptr.h"
	.file 21 "/usr/include/c++/16/clocale"
	.file 22 "/usr/include/c++/16/bits/stl_iterator_base_types.h"
	.file 23 "/usr/include/c++/16/debug/debug.h"
	.file 24 "/usr/include/c++/16/cstdlib"
	.file 25 "/usr/include/c++/16/cstdio"
	.file 26 "/usr/include/c++/16/cstddef"
	.file 27 "/usr/include/c++/16/cstdint"
	.file 28 "/usr/include/c++/16/ctime"
	.file 29 "/usr/include/c++/16/bits/chrono.h"
	.file 30 "/usr/include/c++/16/system_error"
	.file 31 "/usr/include/c++/16/bits/fs_fwd.h"
	.file 32 "/usr/include/c++/16/bits/fs_path.h"
	.file 33 "/usr/include/c++/16/cwctype"
	.file 34 "/usr/include/c++/16/bits/shared_ptr_base.h"
	.file 35 "/usr/include/c++/16/bits/std_abs.h"
	.file 36 "/usr/include/c++/16/initializer_list"
	.file 37 "/usr/include/c++/16/bits/new_throw.h"
	.file 38 "/usr/include/c++/16/bits/stdexcept_throwfwd.h"
	.file 39 "/usr/include/c++/16/bits/ptr_traits.h"
	.file 40 "/usr/lib/gcc/x86_64-linux-gnu/16/include/stddef.h"
	.file 41 "<built-in>"
	.file 42 "/usr/include/x86_64-linux-gnu/bits/types/wint_t.h"
	.file 43 "/usr/include/x86_64-linux-gnu/bits/types/__mbstate_t.h"
	.file 44 "/usr/include/x86_64-linux-gnu/bits/types/mbstate_t.h"
	.file 45 "/usr/include/x86_64-linux-gnu/bits/types/__FILE.h"
	.file 46 "/usr/include/x86_64-linux-gnu/bits/types/struct_FILE.h"
	.file 47 "/usr/include/x86_64-linux-gnu/bits/types/FILE.h"
	.file 48 "/usr/include/wchar.h"
	.file 49 "/usr/include/x86_64-linux-gnu/bits/types/struct_tm.h"
	.file 50 "/usr/include/c++/16/ext/alloc_traits.h"
	.file 51 "/usr/include/locale.h"
	.file 52 "/usr/include/x86_64-linux-gnu/bits/types.h"
	.file 53 "/usr/include/stdlib.h"
	.file 54 "/usr/include/x86_64-linux-gnu/bits/types/clock_t.h"
	.file 55 "/usr/include/x86_64-linux-gnu/bits/types/time_t.h"
	.file 56 "/usr/include/x86_64-linux-gnu/bits/stdint-intn.h"
	.file 57 "/usr/include/x86_64-linux-gnu/bits/types/struct_timespec.h"
	.file 58 "/usr/include/x86_64-linux-gnu/bits/stdlib-float.h"
	.file 59 "/usr/include/x86_64-linux-gnu/bits/stdlib-bsearch.h"
	.file 60 "/usr/include/x86_64-linux-gnu/bits/types/__fpos_t.h"
	.file 61 "/usr/include/stdio.h"
	.file 62 "/usr/include/x86_64-linux-gnu/bits/stdio.h"
	.file 63 "/usr/include/x86_64-linux-gnu/bits/stdint-uintn.h"
	.file 64 "/usr/include/x86_64-linux-gnu/bits/stdint-least.h"
	.file 65 "/usr/include/stdint.h"
	.file 66 "/usr/include/time.h"
	.file 67 "/usr/include/x86_64-linux-gnu/bits/wctype-wchar.h"
	.file 68 "/usr/include/wctype.h"
	.file 69 "/usr/include/math.h"
	.file 70 "/usr/include/c++/16/pstl/execution_defs.h"
	.file 71 "/usr/lib/gcc/x86_64-linux-gnu/16/include/mmintrin.h"
	.file 72 "/usr/include/c++/16/stdlib.h"
	.file 73 "/usr/include/c++/16/new"
	.file 74 "/usr/include/c++/16/bits/memory_resource.h"
	.file 75 "/usr/include/c++/16/string_view"
	.file 76 "/usr/include/c++/16/ext/concurrence.h"
	.section	.debug_info,"",@progbits
.Ldebug_info0:
	.long	0x10ddf
	.value	0x5
	.byte	0x1
	.byte	0x8
	.long	.Ldebug_abbrev0
	.uleb128 0x9e
	.long	.LASF1438
	.byte	0x21
	.byte	0x4
	.long	0x313e7
	.long	.LASF0
	.long	.LASF1
	.long	.LLRL517
	.quad	0
	.long	.Ldebug_line0
	.uleb128 0x29
	.byte	0x4
	.byte	0x4
	.long	.LASF2
	.uleb128 0x29
	.byte	0x1
	.byte	0x8
	.long	.LASF3
	.uleb128 0x29
	.byte	0x8
	.byte	0x7
	.long	.LASF4
	.uleb128 0xd
	.long	0x4a
	.uleb128 0x29
	.byte	0x1
	.byte	0x6
	.long	.LASF5
	.uleb128 0x7
	.long	0x4a
	.uleb128 0x9f
	.byte	0x4
	.byte	0x5
	.string	"int"
	.uleb128 0x7
	.long	0x56
	.uleb128 0xa0
	.string	"std"
	.byte	0x12
	.value	0x156
	.byte	0xb
	.long	0x7515
	.uleb128 0x5
	.byte	0x11
	.byte	0x42
	.byte	0xb
	.long	0x75de
	.uleb128 0x5
	.byte	0x11
	.byte	0x8f
	.byte	0xb
	.long	0x756b
	.uleb128 0x5
	.byte	0x11
	.byte	0x91
	.byte	0xb
	.long	0x77af
	.uleb128 0x5
	.byte	0x11
	.byte	0x92
	.byte	0xb
	.long	0x77c6
	.uleb128 0x5
	.byte	0x11
	.byte	0x93
	.byte	0xb
	.long	0x77e2
	.uleb128 0x5
	.byte	0x11
	.byte	0x94
	.byte	0xb
	.long	0x7814
	.uleb128 0x5
	.byte	0x11
	.byte	0x95
	.byte	0xb
	.long	0x7830
	.uleb128 0x5
	.byte	0x11
	.byte	0x96
	.byte	0xb
	.long	0x7851
	.uleb128 0x5
	.byte	0x11
	.byte	0x97
	.byte	0xb
	.long	0x786d
	.uleb128 0x5
	.byte	0x11
	.byte	0x98
	.byte	0xb
	.long	0x788a
	.uleb128 0x5
	.byte	0x11
	.byte	0x99
	.byte	0xb
	.long	0x78ab
	.uleb128 0x5
	.byte	0x11
	.byte	0x9a
	.byte	0xb
	.long	0x78c2
	.uleb128 0x5
	.byte	0x11
	.byte	0x9b
	.byte	0xb
	.long	0x78d0
	.uleb128 0x5
	.byte	0x11
	.byte	0x9c
	.byte	0xb
	.long	0x78f6
	.uleb128 0x5
	.byte	0x11
	.byte	0x9d
	.byte	0xb
	.long	0x791c
	.uleb128 0x5
	.byte	0x11
	.byte	0x9e
	.byte	0xb
	.long	0x7938
	.uleb128 0x5
	.byte	0x11
	.byte	0x9f
	.byte	0xb
	.long	0x7963
	.uleb128 0x5
	.byte	0x11
	.byte	0xa0
	.byte	0xb
	.long	0x797f
	.uleb128 0x5
	.byte	0x11
	.byte	0xa2
	.byte	0xb
	.long	0x7996
	.uleb128 0x5
	.byte	0x11
	.byte	0xa4
	.byte	0xb
	.long	0x79b8
	.uleb128 0x5
	.byte	0x11
	.byte	0xa5
	.byte	0xb
	.long	0x79d9
	.uleb128 0x5
	.byte	0x11
	.byte	0xa6
	.byte	0xb
	.long	0x79f5
	.uleb128 0x5
	.byte	0x11
	.byte	0xa8
	.byte	0xb
	.long	0x7a1b
	.uleb128 0x5
	.byte	0x11
	.byte	0xab
	.byte	0xb
	.long	0x7a40
	.uleb128 0x5
	.byte	0x11
	.byte	0xae
	.byte	0xb
	.long	0x7a66
	.uleb128 0x5
	.byte	0x11
	.byte	0xb0
	.byte	0xb
	.long	0x7a8b
	.uleb128 0x5
	.byte	0x11
	.byte	0xb2
	.byte	0xb
	.long	0x7aa7
	.uleb128 0x5
	.byte	0x11
	.byte	0xb4
	.byte	0xb
	.long	0x7ac7
	.uleb128 0x5
	.byte	0x11
	.byte	0xb5
	.byte	0xb
	.long	0x7ae8
	.uleb128 0x5
	.byte	0x11
	.byte	0xb6
	.byte	0xb
	.long	0x7b03
	.uleb128 0x5
	.byte	0x11
	.byte	0xb7
	.byte	0xb
	.long	0x7b1e
	.uleb128 0x5
	.byte	0x11
	.byte	0xb8
	.byte	0xb
	.long	0x7b39
	.uleb128 0x5
	.byte	0x11
	.byte	0xb9
	.byte	0xb
	.long	0x7b54
	.uleb128 0x5
	.byte	0x11
	.byte	0xba
	.byte	0xb
	.long	0x7b6f
	.uleb128 0x5
	.byte	0x11
	.byte	0xbb
	.byte	0xb
	.long	0x7c3c
	.uleb128 0x5
	.byte	0x11
	.byte	0xbc
	.byte	0xb
	.long	0x7c52
	.uleb128 0x5
	.byte	0x11
	.byte	0xbd
	.byte	0xb
	.long	0x7c72
	.uleb128 0x5
	.byte	0x11
	.byte	0xbe
	.byte	0xb
	.long	0x7c92
	.uleb128 0x5
	.byte	0x11
	.byte	0xbf
	.byte	0xb
	.long	0x7cb2
	.uleb128 0x5
	.byte	0x11
	.byte	0xc0
	.byte	0xb
	.long	0x7cdd
	.uleb128 0x5
	.byte	0x11
	.byte	0xc1
	.byte	0xb
	.long	0x7cf8
	.uleb128 0x5
	.byte	0x11
	.byte	0xc3
	.byte	0xb
	.long	0x7d20
	.uleb128 0x5
	.byte	0x11
	.byte	0xc5
	.byte	0xb
	.long	0x7d41
	.uleb128 0x5
	.byte	0x11
	.byte	0xc6
	.byte	0xb
	.long	0x7d61
	.uleb128 0x5
	.byte	0x11
	.byte	0xc7
	.byte	0xb
	.long	0x7d8d
	.uleb128 0x5
	.byte	0x11
	.byte	0xc8
	.byte	0xb
	.long	0x7db2
	.uleb128 0x5
	.byte	0x11
	.byte	0xc9
	.byte	0xb
	.long	0x7dd2
	.uleb128 0x5
	.byte	0x11
	.byte	0xca
	.byte	0xb
	.long	0x7de9
	.uleb128 0x5
	.byte	0x11
	.byte	0xcb
	.byte	0xb
	.long	0x7e0a
	.uleb128 0x5
	.byte	0x11
	.byte	0xcc
	.byte	0xb
	.long	0x7e2b
	.uleb128 0x5
	.byte	0x11
	.byte	0xcd
	.byte	0xb
	.long	0x7e4c
	.uleb128 0x5
	.byte	0x11
	.byte	0xce
	.byte	0xb
	.long	0x7e6d
	.uleb128 0x5
	.byte	0x11
	.byte	0xcf
	.byte	0xb
	.long	0x7e85
	.uleb128 0x5
	.byte	0x11
	.byte	0xd0
	.byte	0xb
	.long	0x7ea1
	.uleb128 0x5
	.byte	0x11
	.byte	0xd0
	.byte	0xb
	.long	0x7ec0
	.uleb128 0x5
	.byte	0x11
	.byte	0xd1
	.byte	0xb
	.long	0x7edf
	.uleb128 0x5
	.byte	0x11
	.byte	0xd1
	.byte	0xb
	.long	0x7efe
	.uleb128 0x5
	.byte	0x11
	.byte	0xd2
	.byte	0xb
	.long	0x7f1d
	.uleb128 0x5
	.byte	0x11
	.byte	0xd2
	.byte	0xb
	.long	0x7f3c
	.uleb128 0x5
	.byte	0x11
	.byte	0xd3
	.byte	0xb
	.long	0x7f5b
	.uleb128 0x5
	.byte	0x11
	.byte	0xd3
	.byte	0xb
	.long	0x7f7a
	.uleb128 0x5
	.byte	0x11
	.byte	0xd4
	.byte	0xb
	.long	0x7f99
	.uleb128 0x5
	.byte	0x11
	.byte	0xd4
	.byte	0xb
	.long	0x7fbe
	.uleb128 0x18
	.byte	0x11
	.value	0x10d
	.byte	0x16
	.long	0x8ebb
	.uleb128 0x18
	.byte	0x11
	.value	0x10e
	.byte	0x16
	.long	0x8ede
	.uleb128 0x18
	.byte	0x11
	.value	0x10f
	.byte	0x16
	.long	0x8f0a
	.uleb128 0x18
	.byte	0x11
	.value	0x11d
	.byte	0xe
	.long	0x7d20
	.uleb128 0x18
	.byte	0x11
	.value	0x120
	.byte	0xe
	.long	0x7a1b
	.uleb128 0x18
	.byte	0x11
	.value	0x123
	.byte	0xe
	.long	0x7a66
	.uleb128 0x18
	.byte	0x11
	.value	0x126
	.byte	0xe
	.long	0x7aa7
	.uleb128 0x18
	.byte	0x11
	.value	0x12a
	.byte	0xe
	.long	0x8ebb
	.uleb128 0x18
	.byte	0x11
	.value	0x12b
	.byte	0xe
	.long	0x8ede
	.uleb128 0x18
	.byte	0x11
	.value	0x12c
	.byte	0xe
	.long	0x8f0a
	.uleb128 0x1d
	.long	.LASF6
	.byte	0x12
	.value	0x158
	.byte	0x1a
	.long	0x3e
	.uleb128 0x7
	.long	0x2c3
	.uleb128 0x1b
	.long	.LASF12
	.byte	0x1
	.byte	0x13
	.byte	0x5f
	.byte	0xc
	.long	0x33f
	.uleb128 0x8
	.long	.LASF7
	.byte	0x13
	.byte	0x62
	.byte	0xd
	.long	0x8f7a
	.uleb128 0x42
	.long	.LASF8
	.byte	0x13
	.byte	0x64
	.byte	0x11
	.long	.LASF10
	.long	0x2e2
	.long	0x306
	.long	0x30c
	.uleb128 0x2
	.long	0x8f86
	.byte	0
	.uleb128 0x42
	.long	.LASF9
	.byte	0x13
	.byte	0x67
	.byte	0x1c
	.long	.LASF11
	.long	0x2e2
	.long	0x324
	.long	0x32a
	.uleb128 0x2
	.long	0x8f86
	.byte	0
	.uleb128 0x11
	.string	"_Tp"
	.long	0x8f7a
	.uleb128 0x83
	.string	"__v"
	.long	0x8f7a
	.byte	0x1
	.byte	0
	.uleb128 0x7
	.long	0x2d5
	.uleb128 0x1b
	.long	.LASF13
	.byte	0x1
	.byte	0x13
	.byte	0x5f
	.byte	0xc
	.long	0x3ae
	.uleb128 0x8
	.long	.LASF7
	.byte	0x13
	.byte	0x62
	.byte	0xd
	.long	0x8f7a
	.uleb128 0x42
	.long	.LASF14
	.byte	0x13
	.byte	0x64
	.byte	0x11
	.long	.LASF15
	.long	0x351
	.long	0x375
	.long	0x37b
	.uleb128 0x2
	.long	0x8f8b
	.byte	0
	.uleb128 0x42
	.long	.LASF9
	.byte	0x13
	.byte	0x67
	.byte	0x1c
	.long	.LASF16
	.long	0x351
	.long	0x393
	.long	0x399
	.uleb128 0x2
	.long	0x8f8b
	.byte	0
	.uleb128 0x11
	.string	"_Tp"
	.long	0x8f7a
	.uleb128 0x83
	.string	"__v"
	.long	0x8f7a
	.byte	0
	.byte	0
	.uleb128 0x7
	.long	0x344
	.uleb128 0x8
	.long	.LASF17
	.byte	0x13
	.byte	0x7a
	.byte	0x9
	.long	0x3bf
	.uleb128 0x8
	.long	.LASF18
	.byte	0x13
	.byte	0x73
	.byte	0xb
	.long	0x344
	.uleb128 0x84
	.long	.LASF19
	.value	0xbfb
	.uleb128 0x84
	.long	.LASF20
	.value	0xc50
	.uleb128 0x6a
	.long	.LASF21
	.byte	0x14
	.byte	0x3d
	.byte	0xd
	.long	0x5f6
	.uleb128 0x3e
	.long	.LASF22
	.byte	0x8
	.byte	0x14
	.byte	0x69
	.long	0x5cf
	.uleb128 0xf
	.long	.LASF102
	.byte	0x14
	.byte	0x6b
	.byte	0xd
	.long	0x7568
	.byte	0
	.uleb128 0x78
	.long	.LASF22
	.byte	0x14
	.byte	0x7f
	.byte	0x10
	.long	.LASF23
	.long	0x414
	.long	0x41f
	.uleb128 0x2
	.long	0x8fbf
	.uleb128 0x1
	.long	0x7568
	.byte	0
	.uleb128 0x20
	.long	.LASF24
	.byte	0x14
	.byte	0x82
	.byte	0xc
	.long	.LASF26
	.long	0x433
	.long	0x439
	.uleb128 0x2
	.long	0x8fbf
	.byte	0
	.uleb128 0x20
	.long	.LASF25
	.byte	0x14
	.byte	0x83
	.byte	0xc
	.long	.LASF27
	.long	0x44d
	.long	0x453
	.uleb128 0x2
	.long	0x8fbf
	.byte	0
	.uleb128 0x42
	.long	.LASF28
	.byte	0x14
	.byte	0x85
	.byte	0xd
	.long	.LASF29
	.long	0x7568
	.long	0x46b
	.long	0x471
	.uleb128 0x2
	.long	0x8fc4
	.byte	0
	.uleb128 0x42
	.long	.LASF30
	.byte	0x14
	.byte	0x92
	.byte	0x13
	.long	.LASF31
	.long	0x8fc9
	.long	0x489
	.long	0x494
	.uleb128 0x2
	.long	0x8fc4
	.uleb128 0x1
	.long	0x8fd0
	.byte	0
	.uleb128 0x21
	.long	.LASF22
	.byte	0x14
	.byte	0x96
	.byte	0x1c
	.long	.LASF32
	.byte	0x1
	.long	0x4a9
	.long	0x4af
	.uleb128 0x2
	.long	0x8fbf
	.byte	0
	.uleb128 0x21
	.long	.LASF22
	.byte	0x14
	.byte	0x98
	.byte	0x1c
	.long	.LASF33
	.byte	0x1
	.long	0x4c4
	.long	0x4cf
	.uleb128 0x2
	.long	0x8fbf
	.uleb128 0x1
	.long	0x8fd5
	.byte	0
	.uleb128 0x21
	.long	.LASF22
	.byte	0x14
	.byte	0x9c
	.byte	0x1c
	.long	.LASF34
	.byte	0x1
	.long	0x4e4
	.long	0x4ef
	.uleb128 0x2
	.long	0x8fbf
	.uleb128 0x1
	.long	0x61f
	.byte	0
	.uleb128 0x21
	.long	.LASF22
	.byte	0x14
	.byte	0xa0
	.byte	0x1c
	.long	.LASF35
	.byte	0x1
	.long	0x504
	.long	0x50f
	.uleb128 0x2
	.long	0x8fbf
	.uleb128 0x1
	.long	0x8fda
	.byte	0
	.uleb128 0x22
	.long	.LASF36
	.byte	0x14
	.byte	0xad
	.byte	0x7
	.long	.LASF37
	.long	0x8fdf
	.byte	0x1
	.long	0x528
	.long	0x533
	.uleb128 0x2
	.long	0x8fbf
	.uleb128 0x1
	.long	0x8fd5
	.byte	0
	.uleb128 0x22
	.long	.LASF36
	.byte	0x14
	.byte	0xb1
	.byte	0x7
	.long	.LASF38
	.long	0x8fdf
	.byte	0x1
	.long	0x54c
	.long	0x557
	.uleb128 0x2
	.long	0x8fbf
	.uleb128 0x1
	.long	0x8fda
	.byte	0
	.uleb128 0x21
	.long	.LASF39
	.byte	0x14
	.byte	0xb8
	.byte	0x1c
	.long	.LASF40
	.byte	0x1
	.long	0x56c
	.long	0x572
	.uleb128 0x2
	.long	0x8fbf
	.byte	0
	.uleb128 0x21
	.long	.LASF41
	.byte	0x14
	.byte	0xbb
	.byte	0x7
	.long	.LASF42
	.byte	0x1
	.long	0x587
	.long	0x592
	.uleb128 0x2
	.long	0x8fbf
	.uleb128 0x1
	.long	0x8fdf
	.byte	0
	.uleb128 0xa1
	.long	.LASF63
	.byte	0x14
	.byte	0xc6
	.byte	0x25
	.long	.LASF64
	.long	0x8f7a
	.byte	0x1
	.long	0x5ac
	.long	0x5b2
	.uleb128 0x2
	.long	0x8fc4
	.byte	0
	.uleb128 0xa2
	.long	.LASF43
	.byte	0x14
	.byte	0xdf
	.byte	0x7
	.long	.LASF44
	.long	0x8fe4
	.byte	0x1
	.long	0x5c8
	.uleb128 0x2
	.long	0x8fc4
	.byte	0
	.byte	0
	.uleb128 0x7
	.long	0x3e7
	.uleb128 0x5
	.byte	0x14
	.byte	0x5d
	.byte	0x10
	.long	0x5fe
	.uleb128 0xa3
	.long	.LASF41
	.byte	0x14
	.value	0x120
	.byte	0x5
	.long	.LASF1439
	.uleb128 0x1
	.long	0x8fdf
	.uleb128 0x1
	.long	0x8fdf
	.byte	0
	.byte	0
	.uleb128 0x5
	.byte	0x14
	.byte	0x42
	.byte	0x1a
	.long	0x3e7
	.uleb128 0x85
	.long	.LASF45
	.byte	0x14
	.byte	0x52
	.byte	0x8
	.long	.LASF46
	.long	0x615
	.uleb128 0x1
	.long	0x3e7
	.byte	0
	.uleb128 0x30
	.long	.LASF275
	.uleb128 0x7
	.long	0x615
	.uleb128 0x1d
	.long	.LASF47
	.byte	0x12
	.value	0x15c
	.byte	0x1d
	.long	0x8f74
	.uleb128 0x18
	.byte	0x14
	.value	0x12d
	.byte	0x1a
	.long	0x5dc
	.uleb128 0x1d
	.long	.LASF48
	.byte	0x12
	.value	0x159
	.byte	0x1c
	.long	0x7d86
	.uleb128 0x8
	.long	.LASF49
	.byte	0x13
	.byte	0x77
	.byte	0x9
	.long	0x64e
	.uleb128 0x8
	.long	.LASF18
	.byte	0x13
	.byte	0x73
	.byte	0xb
	.long	0x2d5
	.uleb128 0x5
	.byte	0x15
	.byte	0x37
	.byte	0xb
	.long	0x8fe9
	.uleb128 0x5
	.byte	0x15
	.byte	0x38
	.byte	0xb
	.long	0x912f
	.uleb128 0x5
	.byte	0x15
	.byte	0x39
	.byte	0xb
	.long	0x914a
	.uleb128 0xa4
	.long	.LASF1440
	.byte	0x1
	.byte	0x16
	.byte	0x5f
	.byte	0xa
	.uleb128 0x1b
	.long	.LASF50
	.byte	0x1
	.byte	0x16
	.byte	0x65
	.byte	0xa
	.long	0x68f
	.uleb128 0x33
	.long	0x672
	.byte	0
	.uleb128 0x1b
	.long	.LASF51
	.byte	0x1
	.byte	0x16
	.byte	0x69
	.byte	0xa
	.long	0x6a2
	.uleb128 0x33
	.long	0x67c
	.byte	0
	.uleb128 0x1b
	.long	.LASF52
	.byte	0x1
	.byte	0x16
	.byte	0x6d
	.byte	0xa
	.long	0x6b5
	.uleb128 0x33
	.long	0x68f
	.byte	0
	.uleb128 0x79
	.long	.LASF53
	.byte	0x17
	.byte	0x32
	.byte	0xd
	.uleb128 0x5
	.byte	0x18
	.byte	0x89
	.byte	0xb
	.long	0x92b3
	.uleb128 0x5
	.byte	0x18
	.byte	0x8a
	.byte	0xb
	.long	0x92e7
	.uleb128 0x5
	.byte	0x18
	.byte	0x90
	.byte	0xb
	.long	0x93c3
	.uleb128 0x5
	.byte	0x18
	.byte	0x93
	.byte	0xb
	.long	0x93e1
	.uleb128 0x5
	.byte	0x18
	.byte	0x96
	.byte	0xb
	.long	0x93fc
	.uleb128 0x5
	.byte	0x18
	.byte	0x97
	.byte	0xb
	.long	0x9412
	.uleb128 0x5
	.byte	0x18
	.byte	0x98
	.byte	0xb
	.long	0x9429
	.uleb128 0x5
	.byte	0x18
	.byte	0x99
	.byte	0xb
	.long	0x9440
	.uleb128 0x5
	.byte	0x18
	.byte	0x9b
	.byte	0xb
	.long	0x946a
	.uleb128 0x5
	.byte	0x18
	.byte	0x9e
	.byte	0xb
	.long	0x9487
	.uleb128 0x5
	.byte	0x18
	.byte	0xa0
	.byte	0xb
	.long	0x949e
	.uleb128 0x5
	.byte	0x18
	.byte	0xa3
	.byte	0xb
	.long	0x94ba
	.uleb128 0x5
	.byte	0x18
	.byte	0xa4
	.byte	0xb
	.long	0x94d6
	.uleb128 0x5
	.byte	0x18
	.byte	0xa5
	.byte	0xb
	.long	0x94f7
	.uleb128 0x5
	.byte	0x18
	.byte	0xa7
	.byte	0xb
	.long	0x9518
	.uleb128 0x5
	.byte	0x18
	.byte	0xaa
	.byte	0xb
	.long	0x9539
	.uleb128 0x5
	.byte	0x18
	.byte	0xad
	.byte	0xb
	.long	0x954d
	.uleb128 0x5
	.byte	0x18
	.byte	0xaf
	.byte	0xb
	.long	0x955b
	.uleb128 0x5
	.byte	0x18
	.byte	0xb0
	.byte	0xb
	.long	0x956d
	.uleb128 0x5
	.byte	0x18
	.byte	0xb1
	.byte	0xb
	.long	0x958d
	.uleb128 0x5
	.byte	0x18
	.byte	0xb2
	.byte	0xb
	.long	0x95b1
	.uleb128 0x5
	.byte	0x18
	.byte	0xb3
	.byte	0xb
	.long	0x95d5
	.uleb128 0x5
	.byte	0x18
	.byte	0xb5
	.byte	0xb
	.long	0x95ec
	.uleb128 0x5
	.byte	0x18
	.byte	0xb6
	.byte	0xb
	.long	0x960d
	.uleb128 0x5
	.byte	0x18
	.byte	0xfd
	.byte	0x16
	.long	0x931b
	.uleb128 0x18
	.byte	0x18
	.value	0x102
	.byte	0x16
	.long	0x8042
	.uleb128 0x18
	.byte	0x18
	.value	0x103
	.byte	0x16
	.long	0x9629
	.uleb128 0x18
	.byte	0x18
	.value	0x105
	.byte	0x16
	.long	0x9645
	.uleb128 0x18
	.byte	0x18
	.value	0x106
	.byte	0x16
	.long	0x96a4
	.uleb128 0x18
	.byte	0x18
	.value	0x107
	.byte	0x16
	.long	0x965c
	.uleb128 0x18
	.byte	0x18
	.value	0x108
	.byte	0x16
	.long	0x9680
	.uleb128 0x18
	.byte	0x18
	.value	0x109
	.byte	0x16
	.long	0x96bf
	.uleb128 0x5
	.byte	0x19
	.byte	0x64
	.byte	0xb
	.long	0x7792
	.uleb128 0x5
	.byte	0x19
	.byte	0x65
	.byte	0xb
	.long	0x9764
	.uleb128 0x5
	.byte	0x19
	.byte	0x67
	.byte	0xb
	.long	0x977a
	.uleb128 0x5
	.byte	0x19
	.byte	0x68
	.byte	0xb
	.long	0x978c
	.uleb128 0x5
	.byte	0x19
	.byte	0x69
	.byte	0xb
	.long	0x97a2
	.uleb128 0x5
	.byte	0x19
	.byte	0x6a
	.byte	0xb
	.long	0x97b9
	.uleb128 0x5
	.byte	0x19
	.byte	0x6b
	.byte	0xb
	.long	0x97d0
	.uleb128 0x5
	.byte	0x19
	.byte	0x6c
	.byte	0xb
	.long	0x97e6
	.uleb128 0x5
	.byte	0x19
	.byte	0x6d
	.byte	0xb
	.long	0x97fd
	.uleb128 0x5
	.byte	0x19
	.byte	0x6e
	.byte	0xb
	.long	0x981e
	.uleb128 0x5
	.byte	0x19
	.byte	0x6f
	.byte	0xb
	.long	0x983f
	.uleb128 0x5
	.byte	0x19
	.byte	0x73
	.byte	0xb
	.long	0x985b
	.uleb128 0x5
	.byte	0x19
	.byte	0x74
	.byte	0xb
	.long	0x9881
	.uleb128 0x5
	.byte	0x19
	.byte	0x76
	.byte	0xb
	.long	0x98a2
	.uleb128 0x5
	.byte	0x19
	.byte	0x77
	.byte	0xb
	.long	0x98c3
	.uleb128 0x5
	.byte	0x19
	.byte	0x78
	.byte	0xb
	.long	0x98e4
	.uleb128 0x5
	.byte	0x19
	.byte	0x7a
	.byte	0xb
	.long	0x98fb
	.uleb128 0x5
	.byte	0x19
	.byte	0x7b
	.byte	0xb
	.long	0x9912
	.uleb128 0x5
	.byte	0x19
	.byte	0x80
	.byte	0xb
	.long	0x991e
	.uleb128 0x5
	.byte	0x19
	.byte	0x85
	.byte	0xb
	.long	0x9930
	.uleb128 0x5
	.byte	0x19
	.byte	0x86
	.byte	0xb
	.long	0x9946
	.uleb128 0x5
	.byte	0x19
	.byte	0x87
	.byte	0xb
	.long	0x9961
	.uleb128 0x5
	.byte	0x19
	.byte	0x89
	.byte	0xb
	.long	0x9973
	.uleb128 0x5
	.byte	0x19
	.byte	0x8a
	.byte	0xb
	.long	0x998a
	.uleb128 0x5
	.byte	0x19
	.byte	0x8d
	.byte	0xb
	.long	0x99b0
	.uleb128 0x5
	.byte	0x19
	.byte	0x8f
	.byte	0xb
	.long	0x99bc
	.uleb128 0x5
	.byte	0x19
	.byte	0x91
	.byte	0xb
	.long	0x99d2
	.uleb128 0x86
	.long	.LASF54
	.byte	0x12
	.value	0x179
	.byte	0x41
	.uleb128 0x5
	.byte	0x1a
	.byte	0x42
	.byte	0xb
	.long	0x8f65
	.uleb128 0xa5
	.string	"pmr"
	.byte	0x4a
	.byte	0x37
	.byte	0xb
	.uleb128 0x87
	.string	"_V2"
	.byte	0x1e
	.byte	0x54
	.byte	0x1
	.uleb128 0x5
	.byte	0x1b
	.byte	0x35
	.byte	0xb
	.long	0x9344
	.uleb128 0x5
	.byte	0x1b
	.byte	0x36
	.byte	0xb
	.long	0x9350
	.uleb128 0x5
	.byte	0x1b
	.byte	0x37
	.byte	0xb
	.long	0x935c
	.uleb128 0x5
	.byte	0x1b
	.byte	0x38
	.byte	0xb
	.long	0x9368
	.uleb128 0x5
	.byte	0x1b
	.byte	0x3a
	.byte	0xb
	.long	0x9a7e
	.uleb128 0x5
	.byte	0x1b
	.byte	0x3b
	.byte	0xb
	.long	0x9a8a
	.uleb128 0x5
	.byte	0x1b
	.byte	0x3c
	.byte	0xb
	.long	0x9a96
	.uleb128 0x5
	.byte	0x1b
	.byte	0x3d
	.byte	0xb
	.long	0x9aa2
	.uleb128 0x5
	.byte	0x1b
	.byte	0x3f
	.byte	0xb
	.long	0x9a1e
	.uleb128 0x5
	.byte	0x1b
	.byte	0x40
	.byte	0xb
	.long	0x9a2a
	.uleb128 0x5
	.byte	0x1b
	.byte	0x41
	.byte	0xb
	.long	0x9a36
	.uleb128 0x5
	.byte	0x1b
	.byte	0x42
	.byte	0xb
	.long	0x9a42
	.uleb128 0x5
	.byte	0x1b
	.byte	0x44
	.byte	0xb
	.long	0x9af6
	.uleb128 0x5
	.byte	0x1b
	.byte	0x45
	.byte	0xb
	.long	0x9ade
	.uleb128 0x5
	.byte	0x1b
	.byte	0x47
	.byte	0xb
	.long	0x99ee
	.uleb128 0x5
	.byte	0x1b
	.byte	0x48
	.byte	0xb
	.long	0x99fa
	.uleb128 0x5
	.byte	0x1b
	.byte	0x49
	.byte	0xb
	.long	0x9a06
	.uleb128 0x5
	.byte	0x1b
	.byte	0x4a
	.byte	0xb
	.long	0x9a12
	.uleb128 0x5
	.byte	0x1b
	.byte	0x4c
	.byte	0xb
	.long	0x9aae
	.uleb128 0x5
	.byte	0x1b
	.byte	0x4d
	.byte	0xb
	.long	0x9aba
	.uleb128 0x5
	.byte	0x1b
	.byte	0x4e
	.byte	0xb
	.long	0x9ac6
	.uleb128 0x5
	.byte	0x1b
	.byte	0x4f
	.byte	0xb
	.long	0x9ad2
	.uleb128 0x5
	.byte	0x1b
	.byte	0x51
	.byte	0xb
	.long	0x9a4e
	.uleb128 0x5
	.byte	0x1b
	.byte	0x52
	.byte	0xb
	.long	0x9a5a
	.uleb128 0x5
	.byte	0x1b
	.byte	0x53
	.byte	0xb
	.long	0x9a66
	.uleb128 0x5
	.byte	0x1b
	.byte	0x54
	.byte	0xb
	.long	0x9a72
	.uleb128 0x5
	.byte	0x1b
	.byte	0x56
	.byte	0xb
	.long	0x9b02
	.uleb128 0x5
	.byte	0x1b
	.byte	0x57
	.byte	0xb
	.long	0x9aea
	.uleb128 0x5
	.byte	0x1c
	.byte	0x3e
	.byte	0xb
	.long	0x9327
	.uleb128 0x5
	.byte	0x1c
	.byte	0x3f
	.byte	0xb
	.long	0x9333
	.uleb128 0x5
	.byte	0x1c
	.byte	0x40
	.byte	0xb
	.long	0x7b9a
	.uleb128 0x5
	.byte	0x1c
	.byte	0x42
	.byte	0xb
	.long	0x9b2a
	.uleb128 0x5
	.byte	0x1c
	.byte	0x43
	.byte	0xb
	.long	0x9b36
	.uleb128 0x5
	.byte	0x1c
	.byte	0x44
	.byte	0xb
	.long	0x9b51
	.uleb128 0x5
	.byte	0x1c
	.byte	0x45
	.byte	0xb
	.long	0x9b6c
	.uleb128 0x5
	.byte	0x1c
	.byte	0x46
	.byte	0xb
	.long	0x9b87
	.uleb128 0x5
	.byte	0x1c
	.byte	0x47
	.byte	0xb
	.long	0x9b9d
	.uleb128 0x5
	.byte	0x1c
	.byte	0x48
	.byte	0xb
	.long	0x9bb8
	.uleb128 0x5
	.byte	0x1c
	.byte	0x49
	.byte	0xb
	.long	0x9bce
	.uleb128 0x5
	.byte	0x1c
	.byte	0x51
	.byte	0xb
	.long	0x9374
	.uleb128 0x5
	.byte	0x1c
	.byte	0x52
	.byte	0xb
	.long	0x9be4
	.uleb128 0x6a
	.long	.LASF55
	.byte	0x1d
	.byte	0x3d
	.byte	0xd
	.long	0xa29
	.uleb128 0xa6
	.string	"_V2"
	.byte	0x1d
	.value	0x4c6
	.byte	0x1
	.uleb128 0xa7
	.byte	0x1d
	.value	0x5aa
	.byte	0x1f
	.long	0xa37
	.byte	0
	.uleb128 0xa8
	.long	.LASF1441
	.byte	0x4b
	.value	0x369
	.byte	0x14
	.long	0xa42
	.uleb128 0x86
	.long	.LASF56
	.byte	0x1d
	.value	0x54e
	.byte	0x14
	.byte	0
	.uleb128 0x6a
	.long	.LASF57
	.byte	0x1d
	.byte	0x3a
	.byte	0xd
	.long	0xa61
	.uleb128 0xa9
	.long	.LASF54
	.byte	0x1f
	.byte	0x30
	.byte	0x3f
	.uleb128 0x79
	.long	.LASF58
	.byte	0x20
	.byte	0x48
	.byte	0xb
	.byte	0
	.byte	0
	.uleb128 0x5
	.byte	0x21
	.byte	0x54
	.byte	0xb
	.long	0x9c11
	.uleb128 0x5
	.byte	0x21
	.byte	0x55
	.byte	0xb
	.long	0x9c05
	.uleb128 0x5
	.byte	0x21
	.byte	0x56
	.byte	0xb
	.long	0x756b
	.uleb128 0x5
	.byte	0x21
	.byte	0x5e
	.byte	0xb
	.long	0x9c22
	.uleb128 0x5
	.byte	0x21
	.byte	0x67
	.byte	0xb
	.long	0x9c3d
	.uleb128 0x5
	.byte	0x21
	.byte	0x6a
	.byte	0xb
	.long	0x9c58
	.uleb128 0x5
	.byte	0x21
	.byte	0x6b
	.byte	0xb
	.long	0x9c6e
	.uleb128 0x5
	.byte	0x22
	.byte	0x61
	.byte	0x14
	.long	0x8060
	.uleb128 0x5
	.byte	0x22
	.byte	0x62
	.byte	0x14
	.long	0x9c84
	.uleb128 0x5
	.byte	0x22
	.byte	0x63
	.byte	0x14
	.long	0x8073
	.uleb128 0x5
	.byte	0x22
	.byte	0x64
	.byte	0x14
	.long	0x8079
	.uleb128 0x5
	.byte	0x22
	.byte	0x65
	.byte	0x14
	.long	0x807f
	.uleb128 0x3e
	.long	.LASF59
	.byte	0x1
	.byte	0x6
	.byte	0x3f
	.long	0xc5f
	.uleb128 0x21
	.long	.LASF60
	.byte	0x6
	.byte	0x58
	.byte	0x7
	.long	.LASF61
	.byte	0x1
	.long	0xae2
	.long	0xae8
	.uleb128 0x2
	.long	0x9c96
	.byte	0
	.uleb128 0x21
	.long	.LASF60
	.byte	0x6
	.byte	0x5c
	.byte	0x7
	.long	.LASF62
	.byte	0x1
	.long	0xafd
	.long	0xb08
	.uleb128 0x2
	.long	0x9c96
	.uleb128 0x1
	.long	0x9ca0
	.byte	0
	.uleb128 0x4f
	.long	.LASF36
	.byte	0x6
	.byte	0x64
	.byte	0x18
	.long	.LASF65
	.long	0x9ca5
	.long	0xb20
	.long	0xb2b
	.uleb128 0x2
	.long	0x9c96
	.uleb128 0x1
	.long	0x9ca0
	.byte	0
	.uleb128 0x21
	.long	.LASF66
	.byte	0x6
	.byte	0x68
	.byte	0x7
	.long	.LASF67
	.byte	0x1
	.long	0xb40
	.long	0xb46
	.uleb128 0x2
	.long	0x9c96
	.byte	0
	.uleb128 0x26
	.long	.LASF70
	.byte	0x6
	.byte	0x46
	.byte	0x1a
	.long	0x9caa
	.uleb128 0x22
	.long	.LASF68
	.byte	0x6
	.byte	0x6b
	.byte	0x7
	.long	.LASF69
	.long	0xb46
	.byte	0x1
	.long	0xb6b
	.long	0xb76
	.uleb128 0x2
	.long	0x9cb4
	.uleb128 0x1
	.long	0xb76
	.byte	0
	.uleb128 0x26
	.long	.LASF71
	.byte	0x6
	.byte	0x48
	.byte	0x1a
	.long	0x9cbe
	.uleb128 0x26
	.long	.LASF72
	.byte	0x6
	.byte	0x47
	.byte	0x1a
	.long	0x9cc3
	.uleb128 0x22
	.long	.LASF68
	.byte	0x6
	.byte	0x6f
	.byte	0x7
	.long	.LASF73
	.long	0xb82
	.byte	0x1
	.long	0xba7
	.long	0xbb2
	.uleb128 0x2
	.long	0x9cb4
	.uleb128 0x1
	.long	0xbb2
	.byte	0
	.uleb128 0x26
	.long	.LASF74
	.byte	0x6
	.byte	0x49
	.byte	0x1a
	.long	0x9cc8
	.uleb128 0x22
	.long	.LASF75
	.byte	0x6
	.byte	0x81
	.byte	0x7
	.long	.LASF76
	.long	0x9caa
	.byte	0x1
	.long	0xbd7
	.long	0xbe7
	.uleb128 0x2
	.long	0x9c96
	.uleb128 0x1
	.long	0xbe7
	.uleb128 0x1
	.long	0x8fc9
	.byte	0
	.uleb128 0x26
	.long	.LASF77
	.byte	0x6
	.byte	0x43
	.byte	0x1f
	.long	0x2c3
	.uleb128 0x21
	.long	.LASF78
	.byte	0x6
	.byte	0xa7
	.byte	0x7
	.long	.LASF79
	.byte	0x1
	.long	0xc08
	.long	0xc18
	.uleb128 0x2
	.long	0x9c96
	.uleb128 0x1
	.long	0x9caa
	.uleb128 0x1
	.long	0xbe7
	.byte	0
	.uleb128 0x22
	.long	.LASF80
	.byte	0x6
	.byte	0xc2
	.byte	0x7
	.long	.LASF81
	.long	0xbe7
	.byte	0x1
	.long	0xc31
	.long	0xc37
	.uleb128 0x2
	.long	0x9cb4
	.byte	0
	.uleb128 0x42
	.long	.LASF82
	.byte	0x6
	.byte	0xf2
	.byte	0x7
	.long	.LASF83
	.long	0xbe7
	.long	0xc4f
	.long	0xc55
	.uleb128 0x2
	.long	0x9cb4
	.byte	0
	.uleb128 0x11
	.string	"_Tp"
	.long	0x37
	.byte	0
	.uleb128 0x7
	.long	0xac1
	.uleb128 0x3e
	.long	.LASF84
	.byte	0x1
	.byte	0x5
	.byte	0x85
	.long	0xce8
	.uleb128 0x46
	.long	0xac1
	.byte	0x1
	.uleb128 0x21
	.long	.LASF85
	.byte	0x5
	.byte	0xa8
	.byte	0x7
	.long	.LASF86
	.byte	0x1
	.long	0xc8b
	.long	0xc91
	.uleb128 0x2
	.long	0x9ccd
	.byte	0
	.uleb128 0x21
	.long	.LASF85
	.byte	0x5
	.byte	0xac
	.byte	0x7
	.long	.LASF87
	.byte	0x1
	.long	0xca6
	.long	0xcb1
	.uleb128 0x2
	.long	0x9ccd
	.uleb128 0x1
	.long	0x9cd7
	.byte	0
	.uleb128 0x4f
	.long	.LASF36
	.byte	0x5
	.byte	0xb1
	.byte	0x12
	.long	.LASF88
	.long	0x9cdc
	.long	0xcc9
	.long	0xcd4
	.uleb128 0x2
	.long	0x9ccd
	.uleb128 0x1
	.long	0x9cd7
	.byte	0
	.uleb128 0x6b
	.long	.LASF89
	.long	.LASF90
	.long	0xce1
	.uleb128 0x2
	.long	0x9ccd
	.byte	0
	.byte	0
	.uleb128 0x7
	.long	0xc64
	.uleb128 0x5f
	.long	.LASF91
	.byte	0x1
	.byte	0x8
	.value	0x248
	.byte	0xc
	.long	0xdeb
	.uleb128 0x1d
	.long	.LASF70
	.byte	0x8
	.value	0x251
	.byte	0xd
	.long	0x9caa
	.uleb128 0x16
	.long	.LASF75
	.byte	0x8
	.value	0x27d
	.byte	0x7
	.long	.LASF93
	.long	0xcfb
	.long	0xd28
	.uleb128 0x1
	.long	0x9ce1
	.uleb128 0x1
	.long	0xd3a
	.byte	0
	.uleb128 0x1d
	.long	.LASF92
	.byte	0x8
	.value	0x24b
	.byte	0xd
	.long	0xc64
	.uleb128 0x7
	.long	0xd28
	.uleb128 0x1d
	.long	.LASF77
	.byte	0x8
	.value	0x260
	.byte	0xd
	.long	0x2c3
	.uleb128 0x16
	.long	.LASF75
	.byte	0x8
	.value	0x28c
	.byte	0x7
	.long	.LASF94
	.long	0xcfb
	.long	0xd6c
	.uleb128 0x1
	.long	0x9ce1
	.uleb128 0x1
	.long	0xd3a
	.uleb128 0x1
	.long	0xd6c
	.byte	0
	.uleb128 0x1d
	.long	.LASF95
	.byte	0x8
	.value	0x25a
	.byte	0xd
	.long	0x8fc9
	.uleb128 0x40
	.long	.LASF78
	.byte	0x8
	.value	0x2b0
	.byte	0x7
	.long	.LASF306
	.long	0xd9a
	.uleb128 0x1
	.long	0x9ce1
	.uleb128 0x1
	.long	0xcfb
	.uleb128 0x1
	.long	0xd3a
	.byte	0
	.uleb128 0x16
	.long	.LASF80
	.byte	0x8
	.value	0x2ed
	.byte	0x7
	.long	.LASF96
	.long	0xd3a
	.long	0xdb5
	.uleb128 0x1
	.long	0x9ce6
	.byte	0
	.uleb128 0x16
	.long	.LASF97
	.byte	0x8
	.value	0x2fd
	.byte	0x7
	.long	.LASF98
	.long	0xd28
	.long	0xdd0
	.uleb128 0x1
	.long	0x9ce6
	.byte	0
	.uleb128 0x1d
	.long	.LASF7
	.byte	0x8
	.value	0x24e
	.byte	0xd
	.long	0x37
	.uleb128 0x1d
	.long	.LASF99
	.byte	0x8
	.value	0x26f
	.byte	0x8
	.long	0xc64
	.byte	0
	.uleb128 0x1b
	.long	.LASF100
	.byte	0x18
	.byte	0x2
	.byte	0x5b
	.byte	0xc
	.long	0x118c
	.uleb128 0x1b
	.long	.LASF101
	.byte	0x18
	.byte	0x2
	.byte	0x62
	.byte	0xe
	.long	0xe9e
	.uleb128 0xf
	.long	.LASF103
	.byte	0x2
	.byte	0x64
	.byte	0xa
	.long	0xea3
	.byte	0
	.uleb128 0xf
	.long	.LASF104
	.byte	0x2
	.byte	0x65
	.byte	0xa
	.long	0xea3
	.byte	0x8
	.uleb128 0xf
	.long	.LASF105
	.byte	0x2
	.byte	0x66
	.byte	0xa
	.long	0xea3
	.byte	0x10
	.uleb128 0x20
	.long	.LASF101
	.byte	0x2
	.byte	0x69
	.byte	0x2
	.long	.LASF106
	.long	0xe40
	.long	0xe46
	.uleb128 0x2
	.long	0x9cf5
	.byte	0
	.uleb128 0x20
	.long	.LASF101
	.byte	0x2
	.byte	0x6f
	.byte	0x2
	.long	.LASF107
	.long	0xe5a
	.long	0xe65
	.uleb128 0x2
	.long	0x9cf5
	.uleb128 0x1
	.long	0x9cff
	.byte	0
	.uleb128 0x20
	.long	.LASF108
	.byte	0x2
	.byte	0x77
	.byte	0x2
	.long	.LASF109
	.long	0xe79
	.long	0xe84
	.uleb128 0x2
	.long	0x9cf5
	.uleb128 0x1
	.long	0x9d04
	.byte	0
	.uleb128 0x64
	.long	.LASF110
	.byte	0x80
	.long	.LASF314
	.long	0xe92
	.uleb128 0x2
	.long	0x9cf5
	.uleb128 0x1
	.long	0x9d09
	.byte	0
	.byte	0
	.uleb128 0x7
	.long	0xdf8
	.uleb128 0x8
	.long	.LASF70
	.byte	0x2
	.byte	0x60
	.byte	0x9
	.long	0x815c
	.uleb128 0x1b
	.long	.LASF111
	.byte	0x18
	.byte	0x2
	.byte	0x8b
	.byte	0xe
	.long	0xf75
	.uleb128 0x33
	.long	0xc64
	.uleb128 0x33
	.long	0xdf8
	.uleb128 0x20
	.long	.LASF111
	.byte	0x2
	.byte	0x8f
	.byte	0x2
	.long	.LASF112
	.long	0xeda
	.long	0xee0
	.uleb128 0x2
	.long	0x9d0e
	.byte	0
	.uleb128 0x20
	.long	.LASF111
	.byte	0x2
	.byte	0x98
	.byte	0x2
	.long	.LASF113
	.long	0xef4
	.long	0xeff
	.uleb128 0x2
	.long	0x9d0e
	.uleb128 0x1
	.long	0x9d18
	.byte	0
	.uleb128 0x20
	.long	.LASF111
	.byte	0x2
	.byte	0xa0
	.byte	0x2
	.long	.LASF114
	.long	0xf13
	.long	0xf1e
	.uleb128 0x2
	.long	0x9d0e
	.uleb128 0x1
	.long	0x9d1d
	.byte	0
	.uleb128 0x20
	.long	.LASF111
	.byte	0x2
	.byte	0xa5
	.byte	0x2
	.long	.LASF115
	.long	0xf32
	.long	0xf3d
	.uleb128 0x2
	.long	0x9d0e
	.uleb128 0x1
	.long	0x9d22
	.byte	0
	.uleb128 0x20
	.long	.LASF111
	.byte	0x2
	.byte	0xaa
	.byte	0x2
	.long	.LASF116
	.long	0xf51
	.long	0xf61
	.uleb128 0x2
	.long	0x9d0e
	.uleb128 0x1
	.long	0x9d22
	.uleb128 0x1
	.long	0x9d1d
	.byte	0
	.uleb128 0x6c
	.long	.LASF476
	.long	.LASF477
	.long	0xf6e
	.uleb128 0x2
	.long	0x9d0e
	.byte	0
	.byte	0
	.uleb128 0x8
	.long	.LASF117
	.byte	0x2
	.byte	0x5e
	.byte	0x15
	.long	0x818d
	.uleb128 0x7
	.long	0xf75
	.uleb128 0x34
	.long	.LASF118
	.value	0x133
	.byte	0x7
	.long	.LASF119
	.long	0x9d27
	.long	0xf9e
	.long	0xfa4
	.uleb128 0x2
	.long	0x9d2c
	.byte	0
	.uleb128 0x34
	.long	.LASF118
	.value	0x138
	.byte	0x7
	.long	.LASF120
	.long	0x9d18
	.long	0xfbc
	.long	0xfc2
	.uleb128 0x2
	.long	0x9d36
	.byte	0
	.uleb128 0x1d
	.long	.LASF92
	.byte	0x2
	.value	0x12f
	.byte	0x16
	.long	0xc64
	.uleb128 0x7
	.long	0xfc2
	.uleb128 0x34
	.long	.LASF121
	.value	0x13d
	.byte	0x7
	.long	.LASF122
	.long	0xfc2
	.long	0xfec
	.long	0xff2
	.uleb128 0x2
	.long	0x9d36
	.byte	0
	.uleb128 0x50
	.long	.LASF123
	.value	0x141
	.long	.LASF124
	.long	0x1005
	.long	0x100b
	.uleb128 0x2
	.long	0x9d2c
	.byte	0
	.uleb128 0x1c
	.long	.LASF123
	.value	0x147
	.long	.LASF125
	.long	0x101e
	.long	0x1029
	.uleb128 0x2
	.long	0x9d2c
	.uleb128 0x1
	.long	0x9d3b
	.byte	0
	.uleb128 0x1c
	.long	.LASF123
	.value	0x14d
	.long	.LASF126
	.long	0x103c
	.long	0x1047
	.uleb128 0x2
	.long	0x9d2c
	.uleb128 0x1
	.long	0x2c3
	.byte	0
	.uleb128 0x1c
	.long	.LASF123
	.value	0x153
	.long	.LASF127
	.long	0x105a
	.long	0x106a
	.uleb128 0x2
	.long	0x9d2c
	.uleb128 0x1
	.long	0x2c3
	.uleb128 0x1
	.long	0x9d3b
	.byte	0
	.uleb128 0x50
	.long	.LASF123
	.value	0x158
	.long	.LASF128
	.long	0x107d
	.long	0x1088
	.uleb128 0x2
	.long	0x9d2c
	.uleb128 0x1
	.long	0x9d40
	.byte	0
	.uleb128 0x1c
	.long	.LASF123
	.value	0x15d
	.long	.LASF129
	.long	0x109b
	.long	0x10a6
	.uleb128 0x2
	.long	0x9d2c
	.uleb128 0x1
	.long	0x9d22
	.byte	0
	.uleb128 0x1c
	.long	.LASF123
	.value	0x161
	.long	.LASF130
	.long	0x10b9
	.long	0x10c9
	.uleb128 0x2
	.long	0x9d2c
	.uleb128 0x1
	.long	0x9d40
	.uleb128 0x1
	.long	0x9d3b
	.byte	0
	.uleb128 0x1c
	.long	.LASF123
	.value	0x16f
	.long	.LASF131
	.long	0x10dc
	.long	0x10ec
	.uleb128 0x2
	.long	0x9d2c
	.uleb128 0x1
	.long	0x9d3b
	.uleb128 0x1
	.long	0x9d40
	.byte	0
	.uleb128 0x1c
	.long	.LASF132
	.value	0x175
	.long	.LASF133
	.long	0x10ff
	.long	0x1105
	.uleb128 0x2
	.long	0x9d2c
	.byte	0
	.uleb128 0x51
	.long	.LASF134
	.value	0x17e
	.byte	0x14
	.long	0xeaf
	.byte	0
	.uleb128 0x34
	.long	.LASF135
	.value	0x182
	.byte	0x7
	.long	.LASF136
	.long	0xea3
	.long	0x112a
	.long	0x1135
	.uleb128 0x2
	.long	0x9d2c
	.uleb128 0x1
	.long	0x2c3
	.byte	0
	.uleb128 0x1c
	.long	.LASF137
	.value	0x18a
	.long	.LASF138
	.long	0x1148
	.long	0x1158
	.uleb128 0x2
	.long	0x9d2c
	.uleb128 0x1
	.long	0xea3
	.uleb128 0x1
	.long	0x2c3
	.byte	0
	.uleb128 0x10
	.long	.LASF139
	.byte	0x2
	.value	0x195
	.byte	0x7
	.long	.LASF140
	.byte	0x2
	.long	0x116e
	.long	0x1179
	.uleb128 0x2
	.long	0x9d2c
	.uleb128 0x1
	.long	0x2c3
	.byte	0
	.uleb128 0x11
	.string	"_Tp"
	.long	0x37
	.uleb128 0xc
	.long	.LASF141
	.long	0xc64
	.byte	0
	.uleb128 0x7
	.long	0xdeb
	.uleb128 0x1b
	.long	.LASF142
	.byte	0x1
	.byte	0x13
	.byte	0xa9
	.byte	0xc
	.long	0x11b4
	.uleb128 0x8
	.long	.LASF143
	.byte	0x13
	.byte	0xaa
	.byte	0xd
	.long	0xc64
	.uleb128 0xc
	.long	.LASF144
	.long	0xc64
	.byte	0
	.uleb128 0x4b
	.long	.LASF145
	.byte	0x18
	.byte	0x2
	.value	0x1cc
	.long	0x1d8d
	.uleb128 0x18
	.byte	0x2
	.value	0x1cc
	.byte	0xb
	.long	0x1112
	.uleb128 0x18
	.byte	0x2
	.value	0x1cc
	.byte	0xb
	.long	0x1135
	.uleb128 0x18
	.byte	0x2
	.value	0x1cc
	.byte	0xb
	.long	0x1105
	.uleb128 0x18
	.byte	0x2
	.value	0x1cc
	.byte	0xb
	.long	0xfa4
	.uleb128 0x18
	.byte	0x2
	.value	0x1cc
	.byte	0xb
	.long	0xf86
	.uleb128 0x18
	.byte	0x2
	.value	0x1cc
	.byte	0xb
	.long	0xfd4
	.uleb128 0x46
	.long	0xdeb
	.byte	0x2
	.uleb128 0x16
	.long	.LASF146
	.byte	0x2
	.value	0x1f6
	.byte	0x7
	.long	.LASF147
	.long	0x8f7a
	.long	0x1218
	.uleb128 0x1
	.long	0x642
	.byte	0
	.uleb128 0x16
	.long	.LASF146
	.byte	0x2
	.value	0x1ff
	.byte	0x7
	.long	.LASF148
	.long	0x8f7a
	.long	0x1233
	.uleb128 0x1
	.long	0x3b3
	.byte	0
	.uleb128 0x6d
	.long	.LASF340
	.long	.LASF341
	.long	0x8f7a
	.uleb128 0x13
	.long	.LASF70
	.byte	0x2
	.value	0x1e6
	.byte	0x29
	.long	0xea3
	.uleb128 0x16
	.long	.LASF149
	.byte	0x2
	.value	0x20c
	.byte	0x7
	.long	.LASF150
	.long	0x1240
	.long	0x1277
	.uleb128 0x1
	.long	0x1240
	.uleb128 0x1
	.long	0x1240
	.uleb128 0x1
	.long	0x1240
	.uleb128 0x1
	.long	0x9d45
	.byte	0
	.uleb128 0x1d
	.long	.LASF117
	.byte	0x2
	.value	0x1e1
	.byte	0x2f
	.long	0xf75
	.uleb128 0x7
	.long	0x1277
	.uleb128 0x52
	.long	.LASF151
	.value	0x227
	.long	.LASF152
	.long	0x129c
	.long	0x12a2
	.uleb128 0x2
	.long	0x9d4a
	.byte	0
	.uleb128 0x43
	.long	.LASF151
	.byte	0x2
	.value	0x232
	.long	.LASF153
	.long	0x12b6
	.long	0x12c1
	.uleb128 0x2
	.long	0x9d4a
	.uleb128 0x1
	.long	0x9d54
	.byte	0
	.uleb128 0x13
	.long	.LASF92
	.byte	0x2
	.value	0x1f1
	.byte	0x1a
	.long	0xc64
	.uleb128 0x7
	.long	0x12c1
	.uleb128 0x43
	.long	.LASF151
	.byte	0x2
	.value	0x240
	.long	.LASF154
	.long	0x12e7
	.long	0x12f7
	.uleb128 0x2
	.long	0x9d4a
	.uleb128 0x1
	.long	0x12f7
	.uleb128 0x1
	.long	0x9d54
	.byte	0
	.uleb128 0x13
	.long	.LASF77
	.byte	0x2
	.value	0x1ef
	.byte	0x1a
	.long	0x2c3
	.uleb128 0x7
	.long	0x12f7
	.uleb128 0x10
	.long	.LASF151
	.byte	0x2
	.value	0x24d
	.byte	0x7
	.long	.LASF155
	.byte	0x1
	.long	0x131f
	.long	0x1334
	.uleb128 0x2
	.long	0x9d4a
	.uleb128 0x1
	.long	0x12f7
	.uleb128 0x1
	.long	0x9d59
	.uleb128 0x1
	.long	0x9d54
	.byte	0
	.uleb128 0x13
	.long	.LASF7
	.byte	0x2
	.value	0x1e5
	.byte	0x17
	.long	0x37
	.uleb128 0x7
	.long	0x1334
	.uleb128 0x10
	.long	.LASF151
	.byte	0x2
	.value	0x26d
	.byte	0x7
	.long	.LASF156
	.byte	0x1
	.long	0x135c
	.long	0x1367
	.uleb128 0x2
	.long	0x9d4a
	.uleb128 0x1
	.long	0x9d5e
	.byte	0
	.uleb128 0x52
	.long	.LASF151
	.value	0x280
	.long	.LASF157
	.long	0x137a
	.long	0x1385
	.uleb128 0x2
	.long	0x9d4a
	.uleb128 0x1
	.long	0x9d63
	.byte	0
	.uleb128 0x10
	.long	.LASF151
	.byte	0x2
	.value	0x284
	.byte	0x7
	.long	.LASF158
	.byte	0x1
	.long	0x139b
	.long	0x13ab
	.uleb128 0x2
	.long	0x9d4a
	.uleb128 0x1
	.long	0x9d5e
	.uleb128 0x1
	.long	0x9d68
	.byte	0
	.uleb128 0x1c
	.long	.LASF151
	.value	0x28f
	.long	.LASF159
	.long	0x13be
	.long	0x13d3
	.uleb128 0x2
	.long	0x9d4a
	.uleb128 0x1
	.long	0x9d63
	.uleb128 0x1
	.long	0x9d54
	.uleb128 0x1
	.long	0x642
	.byte	0
	.uleb128 0x1c
	.long	.LASF151
	.value	0x294
	.long	.LASF160
	.long	0x13e6
	.long	0x13fb
	.uleb128 0x2
	.long	0x9d4a
	.uleb128 0x1
	.long	0x9d63
	.uleb128 0x1
	.long	0x9d54
	.uleb128 0x1
	.long	0x3b3
	.byte	0
	.uleb128 0x10
	.long	.LASF151
	.byte	0x2
	.value	0x2a7
	.byte	0x7
	.long	.LASF161
	.byte	0x1
	.long	0x1411
	.long	0x1421
	.uleb128 0x2
	.long	0x9d4a
	.uleb128 0x1
	.long	0x9d63
	.uleb128 0x1
	.long	0x9d68
	.byte	0
	.uleb128 0x10
	.long	.LASF151
	.byte	0x2
	.value	0x2ba
	.byte	0x7
	.long	.LASF162
	.byte	0x1
	.long	0x1437
	.long	0x1447
	.uleb128 0x2
	.long	0x9d4a
	.uleb128 0x1
	.long	0x1da3
	.uleb128 0x1
	.long	0x9d54
	.byte	0
	.uleb128 0x10
	.long	.LASF163
	.byte	0x2
	.value	0x316
	.byte	0x7
	.long	.LASF164
	.byte	0x1
	.long	0x145d
	.long	0x1463
	.uleb128 0x2
	.long	0x9d4a
	.byte	0
	.uleb128 0x22
	.long	.LASF36
	.byte	0x7
	.byte	0xd6
	.byte	0x5
	.long	.LASF165
	.long	0x9d6d
	.byte	0x1
	.long	0x147c
	.long	0x1487
	.uleb128 0x2
	.long	0x9d4a
	.uleb128 0x1
	.long	0x9d5e
	.byte	0
	.uleb128 0x6
	.long	.LASF36
	.byte	0x2
	.value	0x337
	.byte	0x7
	.long	.LASF166
	.long	0x9d6d
	.byte	0x1
	.long	0x14a1
	.long	0x14ac
	.uleb128 0x2
	.long	0x9d4a
	.uleb128 0x1
	.long	0x9d63
	.byte	0
	.uleb128 0x6
	.long	.LASF36
	.byte	0x2
	.value	0x34d
	.byte	0x7
	.long	.LASF167
	.long	0x9d6d
	.byte	0x1
	.long	0x14c6
	.long	0x14d1
	.uleb128 0x2
	.long	0x9d4a
	.uleb128 0x1
	.long	0x1da3
	.byte	0
	.uleb128 0x10
	.long	.LASF168
	.byte	0x2
	.value	0x361
	.byte	0x7
	.long	.LASF169
	.byte	0x1
	.long	0x14e7
	.long	0x14f7
	.uleb128 0x2
	.long	0x9d4a
	.uleb128 0x1
	.long	0x12f7
	.uleb128 0x1
	.long	0x9d59
	.byte	0
	.uleb128 0x10
	.long	.LASF168
	.byte	0x2
	.value	0x390
	.byte	0x7
	.long	.LASF170
	.byte	0x1
	.long	0x150d
	.long	0x1518
	.uleb128 0x2
	.long	0x9d4a
	.uleb128 0x1
	.long	0x1da3
	.byte	0
	.uleb128 0x13
	.long	.LASF171
	.byte	0x2
	.value	0x1ea
	.byte	0x3d
	.long	0x81ad
	.uleb128 0x6
	.long	.LASF172
	.byte	0x2
	.value	0x3dc
	.byte	0x7
	.long	.LASF173
	.long	0x1518
	.byte	0x1
	.long	0x153f
	.long	0x1545
	.uleb128 0x2
	.long	0x9d4a
	.byte	0
	.uleb128 0x13
	.long	.LASF174
	.byte	0x2
	.value	0x1ec
	.byte	0x7
	.long	0x83e0
	.uleb128 0x6
	.long	.LASF172
	.byte	0x2
	.value	0x3e6
	.byte	0x7
	.long	.LASF175
	.long	0x1545
	.byte	0x1
	.long	0x156c
	.long	0x1572
	.uleb128 0x2
	.long	0x9d72
	.byte	0
	.uleb128 0x36
	.string	"end"
	.value	0x3f0
	.long	.LASF176
	.long	0x1518
	.long	0x1589
	.long	0x158f
	.uleb128 0x2
	.long	0x9d4a
	.byte	0
	.uleb128 0x36
	.string	"end"
	.value	0x3fa
	.long	.LASF177
	.long	0x1545
	.long	0x15a6
	.long	0x15ac
	.uleb128 0x2
	.long	0x9d72
	.byte	0
	.uleb128 0x13
	.long	.LASF178
	.byte	0x2
	.value	0x1ee
	.byte	0x30
	.long	0x1da8
	.uleb128 0x6
	.long	.LASF179
	.byte	0x2
	.value	0x404
	.byte	0x7
	.long	.LASF180
	.long	0x15ac
	.byte	0x1
	.long	0x15d3
	.long	0x15d9
	.uleb128 0x2
	.long	0x9d4a
	.byte	0
	.uleb128 0x13
	.long	.LASF181
	.byte	0x2
	.value	0x1ed
	.byte	0x35
	.long	0x1dad
	.uleb128 0x6
	.long	.LASF179
	.byte	0x2
	.value	0x40e
	.byte	0x7
	.long	.LASF182
	.long	0x15d9
	.byte	0x1
	.long	0x1600
	.long	0x1606
	.uleb128 0x2
	.long	0x9d72
	.byte	0
	.uleb128 0x6
	.long	.LASF183
	.byte	0x2
	.value	0x418
	.byte	0x7
	.long	.LASF184
	.long	0x15ac
	.byte	0x1
	.long	0x1620
	.long	0x1626
	.uleb128 0x2
	.long	0x9d4a
	.byte	0
	.uleb128 0x6
	.long	.LASF183
	.byte	0x2
	.value	0x422
	.byte	0x7
	.long	.LASF185
	.long	0x15d9
	.byte	0x1
	.long	0x1640
	.long	0x1646
	.uleb128 0x2
	.long	0x9d72
	.byte	0
	.uleb128 0x6
	.long	.LASF186
	.byte	0x2
	.value	0x42d
	.byte	0x7
	.long	.LASF187
	.long	0x1545
	.byte	0x1
	.long	0x1660
	.long	0x1666
	.uleb128 0x2
	.long	0x9d72
	.byte	0
	.uleb128 0x6
	.long	.LASF188
	.byte	0x2
	.value	0x437
	.byte	0x7
	.long	.LASF189
	.long	0x1545
	.byte	0x1
	.long	0x1680
	.long	0x1686
	.uleb128 0x2
	.long	0x9d72
	.byte	0
	.uleb128 0x6
	.long	.LASF190
	.byte	0x2
	.value	0x441
	.byte	0x7
	.long	.LASF191
	.long	0x15d9
	.byte	0x1
	.long	0x16a0
	.long	0x16a6
	.uleb128 0x2
	.long	0x9d72
	.byte	0
	.uleb128 0x6
	.long	.LASF192
	.byte	0x2
	.value	0x44b
	.byte	0x7
	.long	.LASF193
	.long	0x15d9
	.byte	0x1
	.long	0x16c0
	.long	0x16c6
	.uleb128 0x2
	.long	0x9d72
	.byte	0
	.uleb128 0x6
	.long	.LASF194
	.byte	0x2
	.value	0x453
	.byte	0x7
	.long	.LASF195
	.long	0x12f7
	.byte	0x1
	.long	0x16e0
	.long	0x16e6
	.uleb128 0x2
	.long	0x9d72
	.byte	0
	.uleb128 0x6
	.long	.LASF80
	.byte	0x2
	.value	0x45e
	.byte	0x7
	.long	.LASF196
	.long	0x12f7
	.byte	0x1
	.long	0x1700
	.long	0x1706
	.uleb128 0x2
	.long	0x9d72
	.byte	0
	.uleb128 0x10
	.long	.LASF197
	.byte	0x2
	.value	0x46d
	.byte	0x7
	.long	.LASF198
	.byte	0x1
	.long	0x171c
	.long	0x1727
	.uleb128 0x2
	.long	0x9d4a
	.uleb128 0x1
	.long	0x12f7
	.byte	0
	.uleb128 0x10
	.long	.LASF197
	.byte	0x2
	.value	0x482
	.byte	0x7
	.long	.LASF199
	.byte	0x1
	.long	0x173d
	.long	0x174d
	.uleb128 0x2
	.long	0x9d4a
	.uleb128 0x1
	.long	0x12f7
	.uleb128 0x1
	.long	0x9d59
	.byte	0
	.uleb128 0x10
	.long	.LASF200
	.byte	0x2
	.value	0x4a4
	.byte	0x7
	.long	.LASF201
	.byte	0x1
	.long	0x1763
	.long	0x1769
	.uleb128 0x2
	.long	0x9d4a
	.byte	0
	.uleb128 0x6
	.long	.LASF202
	.byte	0x2
	.value	0x4ae
	.byte	0x7
	.long	.LASF203
	.long	0x12f7
	.byte	0x1
	.long	0x1783
	.long	0x1789
	.uleb128 0x2
	.long	0x9d72
	.byte	0
	.uleb128 0x6
	.long	.LASF204
	.byte	0x2
	.value	0x4bd
	.byte	0x7
	.long	.LASF205
	.long	0x8f7a
	.byte	0x1
	.long	0x17a3
	.long	0x17a9
	.uleb128 0x2
	.long	0x9d72
	.byte	0
	.uleb128 0x21
	.long	.LASF206
	.byte	0x7
	.byte	0x46
	.byte	0x5
	.long	.LASF207
	.byte	0x1
	.long	0x17be
	.long	0x17c9
	.uleb128 0x2
	.long	0x9d4a
	.uleb128 0x1
	.long	0x12f7
	.byte	0
	.uleb128 0x13
	.long	.LASF71
	.byte	0x2
	.value	0x1e8
	.byte	0x32
	.long	0x8168
	.uleb128 0x6
	.long	.LASF208
	.byte	0x2
	.value	0x4e3
	.byte	0x7
	.long	.LASF209
	.long	0x17c9
	.byte	0x1
	.long	0x17f0
	.long	0x17fb
	.uleb128 0x2
	.long	0x9d4a
	.uleb128 0x1
	.long	0x12f7
	.byte	0
	.uleb128 0x13
	.long	.LASF74
	.byte	0x2
	.value	0x1e9
	.byte	0x37
	.long	0x8174
	.uleb128 0x6
	.long	.LASF208
	.byte	0x2
	.value	0x4f6
	.byte	0x7
	.long	.LASF210
	.long	0x17fb
	.byte	0x1
	.long	0x1822
	.long	0x182d
	.uleb128 0x2
	.long	0x9d72
	.uleb128 0x1
	.long	0x12f7
	.byte	0
	.uleb128 0x10
	.long	.LASF211
	.byte	0x2
	.value	0x500
	.byte	0x7
	.long	.LASF212
	.byte	0x2
	.long	0x1843
	.long	0x184e
	.uleb128 0x2
	.long	0x9d72
	.uleb128 0x1
	.long	0x12f7
	.byte	0
	.uleb128 0x36
	.string	"at"
	.value	0x517
	.long	.LASF213
	.long	0x17c9
	.long	0x1864
	.long	0x186f
	.uleb128 0x2
	.long	0x9d4a
	.uleb128 0x1
	.long	0x12f7
	.byte	0
	.uleb128 0x36
	.string	"at"
	.value	0x52a
	.long	.LASF214
	.long	0x17fb
	.long	0x1885
	.long	0x1890
	.uleb128 0x2
	.long	0x9d72
	.uleb128 0x1
	.long	0x12f7
	.byte	0
	.uleb128 0x6
	.long	.LASF215
	.byte	0x2
	.value	0x536
	.byte	0x7
	.long	.LASF216
	.long	0x17c9
	.byte	0x1
	.long	0x18aa
	.long	0x18b0
	.uleb128 0x2
	.long	0x9d4a
	.byte	0
	.uleb128 0x6
	.long	.LASF215
	.byte	0x2
	.value	0x542
	.byte	0x7
	.long	.LASF217
	.long	0x17fb
	.byte	0x1
	.long	0x18ca
	.long	0x18d0
	.uleb128 0x2
	.long	0x9d72
	.byte	0
	.uleb128 0x6
	.long	.LASF218
	.byte	0x2
	.value	0x54e
	.byte	0x7
	.long	.LASF219
	.long	0x17c9
	.byte	0x1
	.long	0x18ea
	.long	0x18f0
	.uleb128 0x2
	.long	0x9d4a
	.byte	0
	.uleb128 0x6
	.long	.LASF218
	.byte	0x2
	.value	0x55a
	.byte	0x7
	.long	.LASF220
	.long	0x17fb
	.byte	0x1
	.long	0x190a
	.long	0x1910
	.uleb128 0x2
	.long	0x9d72
	.byte	0
	.uleb128 0x6
	.long	.LASF221
	.byte	0x2
	.value	0x569
	.byte	0x7
	.long	.LASF222
	.long	0x9caa
	.byte	0x1
	.long	0x192a
	.long	0x1930
	.uleb128 0x2
	.long	0x9d4a
	.byte	0
	.uleb128 0x6
	.long	.LASF221
	.byte	0x2
	.value	0x56e
	.byte	0x7
	.long	.LASF223
	.long	0x9cc3
	.byte	0x1
	.long	0x194a
	.long	0x1950
	.uleb128 0x2
	.long	0x9d72
	.byte	0
	.uleb128 0x10
	.long	.LASF224
	.byte	0x2
	.value	0x57e
	.byte	0x7
	.long	.LASF225
	.byte	0x1
	.long	0x1966
	.long	0x1971
	.uleb128 0x2
	.long	0x9d4a
	.uleb128 0x1
	.long	0x9d59
	.byte	0
	.uleb128 0x10
	.long	.LASF224
	.byte	0x2
	.value	0x58f
	.byte	0x7
	.long	.LASF226
	.byte	0x1
	.long	0x1987
	.long	0x1992
	.uleb128 0x2
	.long	0x9d4a
	.uleb128 0x1
	.long	0x9d7c
	.byte	0
	.uleb128 0x10
	.long	.LASF227
	.byte	0x2
	.value	0x5a7
	.byte	0x7
	.long	.LASF228
	.byte	0x1
	.long	0x19a8
	.long	0x19ae
	.uleb128 0x2
	.long	0x9d4a
	.byte	0
	.uleb128 0x22
	.long	.LASF229
	.byte	0x7
	.byte	0x89
	.byte	0x5
	.long	.LASF230
	.long	0x1518
	.byte	0x1
	.long	0x19c7
	.long	0x19d7
	.uleb128 0x2
	.long	0x9d4a
	.uleb128 0x1
	.long	0x1545
	.uleb128 0x1
	.long	0x9d59
	.byte	0
	.uleb128 0x6
	.long	.LASF229
	.byte	0x2
	.value	0x5ee
	.byte	0x7
	.long	.LASF231
	.long	0x1518
	.byte	0x1
	.long	0x19f1
	.long	0x1a01
	.uleb128 0x2
	.long	0x9d4a
	.uleb128 0x1
	.long	0x1545
	.uleb128 0x1
	.long	0x9d7c
	.byte	0
	.uleb128 0x6
	.long	.LASF229
	.byte	0x2
	.value	0x600
	.byte	0x7
	.long	.LASF232
	.long	0x1518
	.byte	0x1
	.long	0x1a1b
	.long	0x1a2b
	.uleb128 0x2
	.long	0x9d4a
	.uleb128 0x1
	.long	0x1545
	.uleb128 0x1
	.long	0x1da3
	.byte	0
	.uleb128 0x6
	.long	.LASF229
	.byte	0x2
	.value	0x61a
	.byte	0x7
	.long	.LASF233
	.long	0x1518
	.byte	0x1
	.long	0x1a45
	.long	0x1a5a
	.uleb128 0x2
	.long	0x9d4a
	.uleb128 0x1
	.long	0x1545
	.uleb128 0x1
	.long	0x12f7
	.uleb128 0x1
	.long	0x9d59
	.byte	0
	.uleb128 0x6
	.long	.LASF234
	.byte	0x2
	.value	0x6f6
	.byte	0x7
	.long	.LASF235
	.long	0x1518
	.byte	0x1
	.long	0x1a74
	.long	0x1a7f
	.uleb128 0x2
	.long	0x9d4a
	.uleb128 0x1
	.long	0x1545
	.byte	0
	.uleb128 0x6
	.long	.LASF234
	.byte	0x2
	.value	0x712
	.byte	0x7
	.long	.LASF236
	.long	0x1518
	.byte	0x1
	.long	0x1a99
	.long	0x1aa9
	.uleb128 0x2
	.long	0x9d4a
	.uleb128 0x1
	.long	0x1545
	.uleb128 0x1
	.long	0x1545
	.byte	0
	.uleb128 0x10
	.long	.LASF41
	.byte	0x2
	.value	0x72a
	.byte	0x7
	.long	.LASF237
	.byte	0x1
	.long	0x1abf
	.long	0x1aca
	.uleb128 0x2
	.long	0x9d4a
	.uleb128 0x1
	.long	0x9d6d
	.byte	0
	.uleb128 0x10
	.long	.LASF238
	.byte	0x2
	.value	0x73d
	.byte	0x7
	.long	.LASF239
	.byte	0x1
	.long	0x1ae0
	.long	0x1ae6
	.uleb128 0x2
	.long	0x9d4a
	.byte	0
	.uleb128 0x10
	.long	.LASF240
	.byte	0x2
	.value	0x7c3
	.byte	0x7
	.long	.LASF241
	.byte	0x2
	.long	0x1afc
	.long	0x1b0c
	.uleb128 0x2
	.long	0x9d4a
	.uleb128 0x1
	.long	0x12f7
	.uleb128 0x1
	.long	0x9d59
	.byte	0
	.uleb128 0x10
	.long	.LASF242
	.byte	0x2
	.value	0x7ce
	.byte	0x7
	.long	.LASF243
	.byte	0x2
	.long	0x1b22
	.long	0x1b2d
	.uleb128 0x2
	.long	0x9d4a
	.uleb128 0x1
	.long	0x12f7
	.byte	0
	.uleb128 0x10
	.long	.LASF244
	.byte	0x7
	.value	0x112
	.byte	0x5
	.long	.LASF245
	.byte	0x2
	.long	0x1b43
	.long	0x1b53
	.uleb128 0x2
	.long	0x9d4a
	.uleb128 0x1
	.long	0x2c3
	.uleb128 0x1
	.long	0x9d59
	.byte	0
	.uleb128 0x10
	.long	.LASF246
	.byte	0x7
	.value	0x296
	.byte	0x5
	.long	.LASF247
	.byte	0x2
	.long	0x1b69
	.long	0x1b7e
	.uleb128 0x2
	.long	0x9d4a
	.uleb128 0x1
	.long	0x1518
	.uleb128 0x1
	.long	0x12f7
	.uleb128 0x1
	.long	0x9d59
	.byte	0
	.uleb128 0x10
	.long	.LASF248
	.byte	0x7
	.value	0x300
	.byte	0x5
	.long	.LASF249
	.byte	0x2
	.long	0x1b94
	.long	0x1ba4
	.uleb128 0x2
	.long	0x9d4a
	.uleb128 0x1
	.long	0x12f7
	.uleb128 0x1
	.long	0x9d59
	.byte	0
	.uleb128 0x10
	.long	.LASF250
	.byte	0x7
	.value	0x339
	.byte	0x5
	.long	.LASF251
	.byte	0x2
	.long	0x1bba
	.long	0x1bc5
	.uleb128 0x2
	.long	0x9d4a
	.uleb128 0x1
	.long	0x12f7
	.byte	0
	.uleb128 0x6
	.long	.LASF252
	.byte	0x7
	.value	0x396
	.byte	0x5
	.long	.LASF253
	.long	0x8f7a
	.byte	0x2
	.long	0x1bdf
	.long	0x1be5
	.uleb128 0x2
	.long	0x9d4a
	.byte	0
	.uleb128 0x6
	.long	.LASF254
	.byte	0x7
	.value	0x16f
	.byte	0x5
	.long	.LASF255
	.long	0x1518
	.byte	0x2
	.long	0x1bff
	.long	0x1c0f
	.uleb128 0x2
	.long	0x9d4a
	.uleb128 0x1
	.long	0x1545
	.uleb128 0x1
	.long	0x9d7c
	.byte	0
	.uleb128 0x6
	.long	.LASF256
	.byte	0x2
	.value	0x889
	.byte	0x7
	.long	.LASF257
	.long	0x1518
	.byte	0x2
	.long	0x1c29
	.long	0x1c39
	.uleb128 0x2
	.long	0x9d4a
	.uleb128 0x1
	.long	0x1545
	.uleb128 0x1
	.long	0x9d7c
	.byte	0
	.uleb128 0x6
	.long	.LASF258
	.byte	0x2
	.value	0x890
	.byte	0x7
	.long	.LASF259
	.long	0x12f7
	.byte	0x2
	.long	0x1c53
	.long	0x1c63
	.uleb128 0x2
	.long	0x9d72
	.uleb128 0x1
	.long	0x12f7
	.uleb128 0x1
	.long	0x77aa
	.byte	0
	.uleb128 0x53
	.long	.LASF260
	.value	0x89b
	.long	.LASF261
	.long	0x12f7
	.long	0x1c81
	.uleb128 0x1
	.long	0x12f7
	.uleb128 0x1
	.long	0x9d54
	.byte	0
	.uleb128 0x53
	.long	.LASF262
	.value	0x8a4
	.long	.LASF263
	.long	0x12f7
	.long	0x1c9a
	.uleb128 0x1
	.long	0x9d81
	.byte	0
	.uleb128 0x10
	.long	.LASF264
	.byte	0x2
	.value	0x8b5
	.byte	0x7
	.long	.LASF265
	.byte	0x2
	.long	0x1cb0
	.long	0x1cbb
	.uleb128 0x2
	.long	0x9d4a
	.uleb128 0x1
	.long	0x1240
	.byte	0
	.uleb128 0x22
	.long	.LASF266
	.byte	0x7
	.byte	0xb9
	.byte	0x5
	.long	.LASF267
	.long	0x1518
	.byte	0x2
	.long	0x1cd4
	.long	0x1cdf
	.uleb128 0x2
	.long	0x9d4a
	.uleb128 0x1
	.long	0x1518
	.byte	0
	.uleb128 0x22
	.long	.LASF266
	.byte	0x7
	.byte	0xc7
	.byte	0x5
	.long	.LASF268
	.long	0x1518
	.byte	0x2
	.long	0x1cf8
	.long	0x1d08
	.uleb128 0x2
	.long	0x9d4a
	.uleb128 0x1
	.long	0x1518
	.uleb128 0x1
	.long	0x1518
	.byte	0
	.uleb128 0x1c
	.long	.LASF269
	.value	0x8cf
	.long	.LASF270
	.long	0x1d1b
	.long	0x1d2b
	.uleb128 0x2
	.long	0x9d4a
	.uleb128 0x1
	.long	0x9d63
	.uleb128 0x1
	.long	0x642
	.byte	0
	.uleb128 0x1c
	.long	.LASF269
	.value	0x8db
	.long	.LASF271
	.long	0x1d3e
	.long	0x1d4e
	.uleb128 0x2
	.long	0x9d4a
	.uleb128 0x1
	.long	0x9d63
	.uleb128 0x1
	.long	0x3b3
	.byte	0
	.uleb128 0x34
	.long	.LASF272
	.value	0x8ee
	.byte	0x2
	.long	.LASF273
	.long	0x9caa
	.long	0x1d6f
	.long	0x1d7a
	.uleb128 0x11
	.string	"_Up"
	.long	0x37
	.uleb128 0x2
	.long	0x9d72
	.uleb128 0x1
	.long	0x9caa
	.byte	0
	.uleb128 0x11
	.string	"_Tp"
	.long	0x37
	.uleb128 0x65
	.long	.LASF141
	.long	0xc64
	.byte	0
	.uleb128 0x7
	.long	0x11b4
	.uleb128 0x8
	.long	.LASF274
	.byte	0x13
	.byte	0xad
	.byte	0xb
	.long	0x119e
	.uleb128 0x7
	.long	0x1d92
	.uleb128 0x30
	.long	.LASF276
	.uleb128 0x30
	.long	.LASF277
	.uleb128 0x30
	.long	.LASF278
	.uleb128 0x18
	.byte	0x9
	.value	0x82c
	.byte	0xb
	.long	0x9ec1
	.uleb128 0x18
	.byte	0x9
	.value	0x82d
	.byte	0xb
	.long	0x9eb5
	.uleb128 0x4c
	.string	"abs"
	.byte	0x23
	.byte	0x96
	.long	.LASF279
	.long	0x9b23
	.long	0x1ddd
	.uleb128 0x1
	.long	0x9b23
	.byte	0
	.uleb128 0x4c
	.string	"abs"
	.byte	0x23
	.byte	0x6e
	.long	.LASF280
	.long	0x8faa
	.long	0x1df6
	.uleb128 0x1
	.long	0x8faa
	.byte	0
	.uleb128 0x4c
	.string	"abs"
	.byte	0x23
	.byte	0x55
	.long	.LASF281
	.long	0x8ed7
	.long	0x1e0f
	.uleb128 0x1
	.long	0x8ed7
	.byte	0
	.uleb128 0x4c
	.string	"abs"
	.byte	0x23
	.byte	0x51
	.long	.LASF282
	.long	0x30
	.long	0x1e28
	.uleb128 0x1
	.long	0x30
	.byte	0
	.uleb128 0x4c
	.string	"abs"
	.byte	0x23
	.byte	0x4d
	.long	.LASF283
	.long	0x7d14
	.long	0x1e41
	.uleb128 0x1
	.long	0x7d14
	.byte	0
	.uleb128 0x4c
	.string	"abs"
	.byte	0x23
	.byte	0x43
	.long	.LASF284
	.long	0x8f03
	.long	0x1e5a
	.uleb128 0x1
	.long	0x8f03
	.byte	0
	.uleb128 0x4c
	.string	"abs"
	.byte	0x23
	.byte	0x3e
	.long	.LASF285
	.long	0x7d86
	.long	0x1e73
	.uleb128 0x1
	.long	0x7d86
	.byte	0
	.uleb128 0x4c
	.string	"div"
	.byte	0x18
	.byte	0xbb
	.long	.LASF286
	.long	0x92e7
	.long	0x1e91
	.uleb128 0x1
	.long	0x7d86
	.uleb128 0x1
	.long	0x7d86
	.byte	0
	.uleb128 0x3e
	.long	.LASF287
	.byte	0x1
	.byte	0x6
	.byte	0x3f
	.long	0x202f
	.uleb128 0x21
	.long	.LASF60
	.byte	0x6
	.byte	0x58
	.byte	0x7
	.long	.LASF288
	.byte	0x1
	.long	0x1eb2
	.long	0x1eb8
	.uleb128 0x2
	.long	0xa193
	.byte	0
	.uleb128 0x21
	.long	.LASF60
	.byte	0x6
	.byte	0x5c
	.byte	0x7
	.long	.LASF289
	.byte	0x1
	.long	0x1ecd
	.long	0x1ed8
	.uleb128 0x2
	.long	0xa193
	.uleb128 0x1
	.long	0xa198
	.byte	0
	.uleb128 0x4f
	.long	.LASF36
	.byte	0x6
	.byte	0x64
	.byte	0x18
	.long	.LASF290
	.long	0xa19d
	.long	0x1ef0
	.long	0x1efb
	.uleb128 0x2
	.long	0xa193
	.uleb128 0x1
	.long	0xa198
	.byte	0
	.uleb128 0x21
	.long	.LASF66
	.byte	0x6
	.byte	0x68
	.byte	0x7
	.long	.LASF291
	.byte	0x1
	.long	0x1f10
	.long	0x1f16
	.uleb128 0x2
	.long	0xa193
	.byte	0
	.uleb128 0x26
	.long	.LASF70
	.byte	0x6
	.byte	0x46
	.byte	0x1a
	.long	0xa1a2
	.uleb128 0x22
	.long	.LASF68
	.byte	0x6
	.byte	0x6b
	.byte	0x7
	.long	.LASF292
	.long	0x1f16
	.byte	0x1
	.long	0x1f3b
	.long	0x1f46
	.uleb128 0x2
	.long	0xa1ac
	.uleb128 0x1
	.long	0x1f46
	.byte	0
	.uleb128 0x26
	.long	.LASF71
	.byte	0x6
	.byte	0x48
	.byte	0x1a
	.long	0xa1b1
	.uleb128 0x26
	.long	.LASF72
	.byte	0x6
	.byte	0x47
	.byte	0x1a
	.long	0xa1b6
	.uleb128 0x22
	.long	.LASF68
	.byte	0x6
	.byte	0x6f
	.byte	0x7
	.long	.LASF293
	.long	0x1f52
	.byte	0x1
	.long	0x1f77
	.long	0x1f82
	.uleb128 0x2
	.long	0xa1ac
	.uleb128 0x1
	.long	0x1f82
	.byte	0
	.uleb128 0x26
	.long	.LASF74
	.byte	0x6
	.byte	0x49
	.byte	0x1a
	.long	0xa1c0
	.uleb128 0x22
	.long	.LASF75
	.byte	0x6
	.byte	0x81
	.byte	0x7
	.long	.LASF294
	.long	0xa1a2
	.byte	0x1
	.long	0x1fa7
	.long	0x1fb7
	.uleb128 0x2
	.long	0xa193
	.uleb128 0x1
	.long	0x1fb7
	.uleb128 0x1
	.long	0x8fc9
	.byte	0
	.uleb128 0x26
	.long	.LASF77
	.byte	0x6
	.byte	0x43
	.byte	0x1f
	.long	0x2c3
	.uleb128 0x21
	.long	.LASF78
	.byte	0x6
	.byte	0xa7
	.byte	0x7
	.long	.LASF295
	.byte	0x1
	.long	0x1fd8
	.long	0x1fe8
	.uleb128 0x2
	.long	0xa193
	.uleb128 0x1
	.long	0xa1a2
	.uleb128 0x1
	.long	0x1fb7
	.byte	0
	.uleb128 0x22
	.long	.LASF80
	.byte	0x6
	.byte	0xc2
	.byte	0x7
	.long	.LASF296
	.long	0x1fb7
	.byte	0x1
	.long	0x2001
	.long	0x2007
	.uleb128 0x2
	.long	0xa1ac
	.byte	0
	.uleb128 0x42
	.long	.LASF82
	.byte	0x6
	.byte	0xf2
	.byte	0x7
	.long	.LASF297
	.long	0x1fb7
	.long	0x201f
	.long	0x2025
	.uleb128 0x2
	.long	0xa1ac
	.byte	0
	.uleb128 0x11
	.string	"_Tp"
	.long	0x9e7f
	.byte	0
	.uleb128 0x7
	.long	0x1e91
	.uleb128 0x3e
	.long	.LASF298
	.byte	0x1
	.byte	0x5
	.byte	0x85
	.long	0x20b8
	.uleb128 0x46
	.long	0x1e91
	.byte	0x1
	.uleb128 0x21
	.long	.LASF85
	.byte	0x5
	.byte	0xa8
	.byte	0x7
	.long	.LASF299
	.byte	0x1
	.long	0x205b
	.long	0x2061
	.uleb128 0x2
	.long	0xa1c5
	.byte	0
	.uleb128 0x21
	.long	.LASF85
	.byte	0x5
	.byte	0xac
	.byte	0x7
	.long	.LASF300
	.byte	0x1
	.long	0x2076
	.long	0x2081
	.uleb128 0x2
	.long	0xa1c5
	.uleb128 0x1
	.long	0xa1ca
	.byte	0
	.uleb128 0x4f
	.long	.LASF36
	.byte	0x5
	.byte	0xb1
	.byte	0x12
	.long	.LASF301
	.long	0xa1cf
	.long	0x2099
	.long	0x20a4
	.uleb128 0x2
	.long	0xa1c5
	.uleb128 0x1
	.long	0xa1ca
	.byte	0
	.uleb128 0x6b
	.long	.LASF89
	.long	.LASF302
	.long	0x20b1
	.uleb128 0x2
	.long	0xa1c5
	.byte	0
	.byte	0
	.uleb128 0x7
	.long	0x2034
	.uleb128 0x5f
	.long	.LASF303
	.byte	0x1
	.byte	0x8
	.value	0x248
	.byte	0xc
	.long	0x21bb
	.uleb128 0x1d
	.long	.LASF70
	.byte	0x8
	.value	0x251
	.byte	0xd
	.long	0xa1a2
	.uleb128 0x16
	.long	.LASF75
	.byte	0x8
	.value	0x27d
	.byte	0x7
	.long	.LASF304
	.long	0x20cb
	.long	0x20f8
	.uleb128 0x1
	.long	0xa1d4
	.uleb128 0x1
	.long	0x210a
	.byte	0
	.uleb128 0x1d
	.long	.LASF92
	.byte	0x8
	.value	0x24b
	.byte	0xd
	.long	0x2034
	.uleb128 0x7
	.long	0x20f8
	.uleb128 0x1d
	.long	.LASF77
	.byte	0x8
	.value	0x260
	.byte	0xd
	.long	0x2c3
	.uleb128 0x16
	.long	.LASF75
	.byte	0x8
	.value	0x28c
	.byte	0x7
	.long	.LASF305
	.long	0x20cb
	.long	0x213c
	.uleb128 0x1
	.long	0xa1d4
	.uleb128 0x1
	.long	0x210a
	.uleb128 0x1
	.long	0x213c
	.byte	0
	.uleb128 0x1d
	.long	.LASF95
	.byte	0x8
	.value	0x25a
	.byte	0xd
	.long	0x8fc9
	.uleb128 0x40
	.long	.LASF78
	.byte	0x8
	.value	0x2b0
	.byte	0x7
	.long	.LASF307
	.long	0x216a
	.uleb128 0x1
	.long	0xa1d4
	.uleb128 0x1
	.long	0x20cb
	.uleb128 0x1
	.long	0x210a
	.byte	0
	.uleb128 0x16
	.long	.LASF80
	.byte	0x8
	.value	0x2ed
	.byte	0x7
	.long	.LASF308
	.long	0x210a
	.long	0x2185
	.uleb128 0x1
	.long	0xa1d9
	.byte	0
	.uleb128 0x16
	.long	.LASF97
	.byte	0x8
	.value	0x2fd
	.byte	0x7
	.long	.LASF309
	.long	0x20f8
	.long	0x21a0
	.uleb128 0x1
	.long	0xa1d9
	.byte	0
	.uleb128 0x1d
	.long	.LASF7
	.byte	0x8
	.value	0x24e
	.byte	0xd
	.long	0x9e7f
	.uleb128 0x1d
	.long	.LASF99
	.byte	0x8
	.value	0x26f
	.byte	0x8
	.long	0x2034
	.byte	0
	.uleb128 0x1b
	.long	.LASF310
	.byte	0x18
	.byte	0x2
	.byte	0x5b
	.byte	0xc
	.long	0x2543
	.uleb128 0x1b
	.long	.LASF101
	.byte	0x18
	.byte	0x2
	.byte	0x62
	.byte	0xe
	.long	0x226e
	.uleb128 0xf
	.long	.LASF103
	.byte	0x2
	.byte	0x64
	.byte	0xa
	.long	0x2273
	.byte	0
	.uleb128 0xf
	.long	.LASF104
	.byte	0x2
	.byte	0x65
	.byte	0xa
	.long	0x2273
	.byte	0x8
	.uleb128 0xf
	.long	.LASF105
	.byte	0x2
	.byte	0x66
	.byte	0xa
	.long	0x2273
	.byte	0x10
	.uleb128 0x20
	.long	.LASF101
	.byte	0x2
	.byte	0x69
	.byte	0x2
	.long	.LASF311
	.long	0x2210
	.long	0x2216
	.uleb128 0x2
	.long	0xa1e8
	.byte	0
	.uleb128 0x20
	.long	.LASF101
	.byte	0x2
	.byte	0x6f
	.byte	0x2
	.long	.LASF312
	.long	0x222a
	.long	0x2235
	.uleb128 0x2
	.long	0xa1e8
	.uleb128 0x1
	.long	0xa1ed
	.byte	0
	.uleb128 0x20
	.long	.LASF108
	.byte	0x2
	.byte	0x77
	.byte	0x2
	.long	.LASF313
	.long	0x2249
	.long	0x2254
	.uleb128 0x2
	.long	0xa1e8
	.uleb128 0x1
	.long	0xa1f2
	.byte	0
	.uleb128 0x64
	.long	.LASF110
	.byte	0x80
	.long	.LASF315
	.long	0x2262
	.uleb128 0x2
	.long	0xa1e8
	.uleb128 0x1
	.long	0xa1f7
	.byte	0
	.byte	0
	.uleb128 0x7
	.long	0x21c8
	.uleb128 0x8
	.long	.LASF70
	.byte	0x2
	.byte	0x60
	.byte	0x9
	.long	0x84a3
	.uleb128 0x1b
	.long	.LASF111
	.byte	0x18
	.byte	0x2
	.byte	0x8b
	.byte	0xe
	.long	0x232c
	.uleb128 0x33
	.long	0x2034
	.uleb128 0x33
	.long	0x21c8
	.uleb128 0x20
	.long	.LASF111
	.byte	0x2
	.byte	0x8f
	.byte	0x2
	.long	.LASF316
	.long	0x22aa
	.long	0x22b0
	.uleb128 0x2
	.long	0xa1fc
	.byte	0
	.uleb128 0x20
	.long	.LASF111
	.byte	0x2
	.byte	0x98
	.byte	0x2
	.long	.LASF317
	.long	0x22c4
	.long	0x22cf
	.uleb128 0x2
	.long	0xa1fc
	.uleb128 0x1
	.long	0xa201
	.byte	0
	.uleb128 0x20
	.long	.LASF111
	.byte	0x2
	.byte	0xa0
	.byte	0x2
	.long	.LASF318
	.long	0x22e3
	.long	0x22ee
	.uleb128 0x2
	.long	0xa1fc
	.uleb128 0x1
	.long	0xa206
	.byte	0
	.uleb128 0x20
	.long	.LASF111
	.byte	0x2
	.byte	0xa5
	.byte	0x2
	.long	.LASF319
	.long	0x2302
	.long	0x230d
	.uleb128 0x2
	.long	0xa1fc
	.uleb128 0x1
	.long	0xa20b
	.byte	0
	.uleb128 0x64
	.long	.LASF111
	.byte	0xaa
	.long	.LASF320
	.long	0x231b
	.uleb128 0x2
	.long	0xa1fc
	.uleb128 0x1
	.long	0xa20b
	.uleb128 0x1
	.long	0xa206
	.byte	0
	.byte	0
	.uleb128 0x8
	.long	.LASF117
	.byte	0x2
	.byte	0x5e
	.byte	0x15
	.long	0x84d4
	.uleb128 0x7
	.long	0x232c
	.uleb128 0x34
	.long	.LASF118
	.value	0x133
	.byte	0x7
	.long	.LASF321
	.long	0xa210
	.long	0x2355
	.long	0x235b
	.uleb128 0x2
	.long	0xa215
	.byte	0
	.uleb128 0x34
	.long	.LASF118
	.value	0x138
	.byte	0x7
	.long	.LASF322
	.long	0xa201
	.long	0x2373
	.long	0x2379
	.uleb128 0x2
	.long	0xa21a
	.byte	0
	.uleb128 0x1d
	.long	.LASF92
	.byte	0x2
	.value	0x12f
	.byte	0x16
	.long	0x2034
	.uleb128 0x7
	.long	0x2379
	.uleb128 0x34
	.long	.LASF121
	.value	0x13d
	.byte	0x7
	.long	.LASF323
	.long	0x2379
	.long	0x23a3
	.long	0x23a9
	.uleb128 0x2
	.long	0xa21a
	.byte	0
	.uleb128 0x50
	.long	.LASF123
	.value	0x141
	.long	.LASF324
	.long	0x23bc
	.long	0x23c2
	.uleb128 0x2
	.long	0xa215
	.byte	0
	.uleb128 0x1c
	.long	.LASF123
	.value	0x147
	.long	.LASF325
	.long	0x23d5
	.long	0x23e0
	.uleb128 0x2
	.long	0xa215
	.uleb128 0x1
	.long	0xa21f
	.byte	0
	.uleb128 0x1c
	.long	.LASF123
	.value	0x14d
	.long	.LASF326
	.long	0x23f3
	.long	0x23fe
	.uleb128 0x2
	.long	0xa215
	.uleb128 0x1
	.long	0x2c3
	.byte	0
	.uleb128 0x1c
	.long	.LASF123
	.value	0x153
	.long	.LASF327
	.long	0x2411
	.long	0x2421
	.uleb128 0x2
	.long	0xa215
	.uleb128 0x1
	.long	0x2c3
	.uleb128 0x1
	.long	0xa21f
	.byte	0
	.uleb128 0x50
	.long	.LASF123
	.value	0x158
	.long	.LASF328
	.long	0x2434
	.long	0x243f
	.uleb128 0x2
	.long	0xa215
	.uleb128 0x1
	.long	0xa224
	.byte	0
	.uleb128 0x1c
	.long	.LASF123
	.value	0x15d
	.long	.LASF329
	.long	0x2452
	.long	0x245d
	.uleb128 0x2
	.long	0xa215
	.uleb128 0x1
	.long	0xa20b
	.byte	0
	.uleb128 0x1c
	.long	.LASF123
	.value	0x161
	.long	.LASF330
	.long	0x2470
	.long	0x2480
	.uleb128 0x2
	.long	0xa215
	.uleb128 0x1
	.long	0xa224
	.uleb128 0x1
	.long	0xa21f
	.byte	0
	.uleb128 0x1c
	.long	.LASF123
	.value	0x16f
	.long	.LASF331
	.long	0x2493
	.long	0x24a3
	.uleb128 0x2
	.long	0xa215
	.uleb128 0x1
	.long	0xa21f
	.uleb128 0x1
	.long	0xa224
	.byte	0
	.uleb128 0x1c
	.long	.LASF132
	.value	0x175
	.long	.LASF332
	.long	0x24b6
	.long	0x24bc
	.uleb128 0x2
	.long	0xa215
	.byte	0
	.uleb128 0x51
	.long	.LASF134
	.value	0x17e
	.byte	0x14
	.long	0x227f
	.byte	0
	.uleb128 0x34
	.long	.LASF135
	.value	0x182
	.byte	0x7
	.long	.LASF333
	.long	0x2273
	.long	0x24e1
	.long	0x24ec
	.uleb128 0x2
	.long	0xa215
	.uleb128 0x1
	.long	0x2c3
	.byte	0
	.uleb128 0x1c
	.long	.LASF137
	.value	0x18a
	.long	.LASF334
	.long	0x24ff
	.long	0x250f
	.uleb128 0x2
	.long	0xa215
	.uleb128 0x1
	.long	0x2273
	.uleb128 0x1
	.long	0x2c3
	.byte	0
	.uleb128 0x10
	.long	.LASF139
	.byte	0x2
	.value	0x195
	.byte	0x7
	.long	.LASF335
	.byte	0x2
	.long	0x2525
	.long	0x2530
	.uleb128 0x2
	.long	0xa215
	.uleb128 0x1
	.long	0x2c3
	.byte	0
	.uleb128 0x11
	.string	"_Tp"
	.long	0x9e7f
	.uleb128 0xc
	.long	.LASF141
	.long	0x2034
	.byte	0
	.uleb128 0x7
	.long	0x21bb
	.uleb128 0x1b
	.long	.LASF336
	.byte	0x1
	.byte	0x13
	.byte	0xa9
	.byte	0xc
	.long	0x256b
	.uleb128 0x8
	.long	.LASF143
	.byte	0x13
	.byte	0xaa
	.byte	0xd
	.long	0x2034
	.uleb128 0xc
	.long	.LASF144
	.long	0x2034
	.byte	0
	.uleb128 0x4b
	.long	.LASF337
	.byte	0x18
	.byte	0x2
	.value	0x1cc
	.long	0x3113
	.uleb128 0x18
	.byte	0x2
	.value	0x1cc
	.byte	0xb
	.long	0x24c9
	.uleb128 0x18
	.byte	0x2
	.value	0x1cc
	.byte	0xb
	.long	0x24ec
	.uleb128 0x18
	.byte	0x2
	.value	0x1cc
	.byte	0xb
	.long	0x24bc
	.uleb128 0x18
	.byte	0x2
	.value	0x1cc
	.byte	0xb
	.long	0x235b
	.uleb128 0x18
	.byte	0x2
	.value	0x1cc
	.byte	0xb
	.long	0x233d
	.uleb128 0x18
	.byte	0x2
	.value	0x1cc
	.byte	0xb
	.long	0x238b
	.uleb128 0x46
	.long	0x21bb
	.byte	0x2
	.uleb128 0x16
	.long	.LASF146
	.byte	0x2
	.value	0x1f6
	.byte	0x7
	.long	.LASF338
	.long	0x8f7a
	.long	0x25cf
	.uleb128 0x1
	.long	0x642
	.byte	0
	.uleb128 0x16
	.long	.LASF146
	.byte	0x2
	.value	0x1ff
	.byte	0x7
	.long	.LASF339
	.long	0x8f7a
	.long	0x25ea
	.uleb128 0x1
	.long	0x3b3
	.byte	0
	.uleb128 0x6d
	.long	.LASF340
	.long	.LASF342
	.long	0x8f7a
	.uleb128 0x13
	.long	.LASF70
	.byte	0x2
	.value	0x1e6
	.byte	0x29
	.long	0x2273
	.uleb128 0x16
	.long	.LASF149
	.byte	0x2
	.value	0x20c
	.byte	0x7
	.long	.LASF343
	.long	0x25f7
	.long	0x262e
	.uleb128 0x1
	.long	0x25f7
	.uleb128 0x1
	.long	0x25f7
	.uleb128 0x1
	.long	0x25f7
	.uleb128 0x1
	.long	0xa229
	.byte	0
	.uleb128 0x1d
	.long	.LASF117
	.byte	0x2
	.value	0x1e1
	.byte	0x2f
	.long	0x232c
	.uleb128 0x7
	.long	0x262e
	.uleb128 0x52
	.long	.LASF151
	.value	0x227
	.long	.LASF344
	.long	0x2653
	.long	0x2659
	.uleb128 0x2
	.long	0xa22e
	.byte	0
	.uleb128 0x43
	.long	.LASF151
	.byte	0x2
	.value	0x232
	.long	.LASF345
	.long	0x266d
	.long	0x2678
	.uleb128 0x2
	.long	0xa22e
	.uleb128 0x1
	.long	0xa238
	.byte	0
	.uleb128 0x13
	.long	.LASF92
	.byte	0x2
	.value	0x1f1
	.byte	0x1a
	.long	0x2034
	.uleb128 0x7
	.long	0x2678
	.uleb128 0x43
	.long	.LASF151
	.byte	0x2
	.value	0x240
	.long	.LASF346
	.long	0x269e
	.long	0x26ae
	.uleb128 0x2
	.long	0xa22e
	.uleb128 0x1
	.long	0x26ae
	.uleb128 0x1
	.long	0xa238
	.byte	0
	.uleb128 0x13
	.long	.LASF77
	.byte	0x2
	.value	0x1ef
	.byte	0x1a
	.long	0x2c3
	.uleb128 0x10
	.long	.LASF151
	.byte	0x2
	.value	0x24d
	.byte	0x7
	.long	.LASF347
	.byte	0x1
	.long	0x26d1
	.long	0x26e6
	.uleb128 0x2
	.long	0xa22e
	.uleb128 0x1
	.long	0x26ae
	.uleb128 0x1
	.long	0xa23d
	.uleb128 0x1
	.long	0xa238
	.byte	0
	.uleb128 0x13
	.long	.LASF7
	.byte	0x2
	.value	0x1e5
	.byte	0x17
	.long	0x9e7f
	.uleb128 0x7
	.long	0x26e6
	.uleb128 0x10
	.long	.LASF151
	.byte	0x2
	.value	0x26d
	.byte	0x7
	.long	.LASF348
	.byte	0x1
	.long	0x270e
	.long	0x2719
	.uleb128 0x2
	.long	0xa22e
	.uleb128 0x1
	.long	0xa242
	.byte	0
	.uleb128 0x52
	.long	.LASF151
	.value	0x280
	.long	.LASF349
	.long	0x272c
	.long	0x2737
	.uleb128 0x2
	.long	0xa22e
	.uleb128 0x1
	.long	0xa247
	.byte	0
	.uleb128 0x10
	.long	.LASF151
	.byte	0x2
	.value	0x284
	.byte	0x7
	.long	.LASF350
	.byte	0x1
	.long	0x274d
	.long	0x275d
	.uleb128 0x2
	.long	0xa22e
	.uleb128 0x1
	.long	0xa242
	.uleb128 0x1
	.long	0xa24c
	.byte	0
	.uleb128 0x1c
	.long	.LASF151
	.value	0x28f
	.long	.LASF351
	.long	0x2770
	.long	0x2785
	.uleb128 0x2
	.long	0xa22e
	.uleb128 0x1
	.long	0xa247
	.uleb128 0x1
	.long	0xa238
	.uleb128 0x1
	.long	0x642
	.byte	0
	.uleb128 0x1c
	.long	.LASF151
	.value	0x294
	.long	.LASF352
	.long	0x2798
	.long	0x27ad
	.uleb128 0x2
	.long	0xa22e
	.uleb128 0x1
	.long	0xa247
	.uleb128 0x1
	.long	0xa238
	.uleb128 0x1
	.long	0x3b3
	.byte	0
	.uleb128 0x10
	.long	.LASF151
	.byte	0x2
	.value	0x2a7
	.byte	0x7
	.long	.LASF353
	.byte	0x1
	.long	0x27c3
	.long	0x27d3
	.uleb128 0x2
	.long	0xa22e
	.uleb128 0x1
	.long	0xa247
	.uleb128 0x1
	.long	0xa24c
	.byte	0
	.uleb128 0x10
	.long	.LASF151
	.byte	0x2
	.value	0x2ba
	.byte	0x7
	.long	.LASF354
	.byte	0x1
	.long	0x27e9
	.long	0x27f9
	.uleb128 0x2
	.long	0xa22e
	.uleb128 0x1
	.long	0x3129
	.uleb128 0x1
	.long	0xa238
	.byte	0
	.uleb128 0x10
	.long	.LASF163
	.byte	0x2
	.value	0x316
	.byte	0x7
	.long	.LASF355
	.byte	0x1
	.long	0x280f
	.long	0x2815
	.uleb128 0x2
	.long	0xa22e
	.byte	0
	.uleb128 0x22
	.long	.LASF36
	.byte	0x7
	.byte	0xd6
	.byte	0x5
	.long	.LASF356
	.long	0xa251
	.byte	0x1
	.long	0x282e
	.long	0x2839
	.uleb128 0x2
	.long	0xa22e
	.uleb128 0x1
	.long	0xa242
	.byte	0
	.uleb128 0x6
	.long	.LASF36
	.byte	0x2
	.value	0x337
	.byte	0x7
	.long	.LASF357
	.long	0xa251
	.byte	0x1
	.long	0x2853
	.long	0x285e
	.uleb128 0x2
	.long	0xa22e
	.uleb128 0x1
	.long	0xa247
	.byte	0
	.uleb128 0x6
	.long	.LASF36
	.byte	0x2
	.value	0x34d
	.byte	0x7
	.long	.LASF358
	.long	0xa251
	.byte	0x1
	.long	0x2878
	.long	0x2883
	.uleb128 0x2
	.long	0xa22e
	.uleb128 0x1
	.long	0x3129
	.byte	0
	.uleb128 0x10
	.long	.LASF168
	.byte	0x2
	.value	0x361
	.byte	0x7
	.long	.LASF359
	.byte	0x1
	.long	0x2899
	.long	0x28a9
	.uleb128 0x2
	.long	0xa22e
	.uleb128 0x1
	.long	0x26ae
	.uleb128 0x1
	.long	0xa23d
	.byte	0
	.uleb128 0x10
	.long	.LASF168
	.byte	0x2
	.value	0x390
	.byte	0x7
	.long	.LASF360
	.byte	0x1
	.long	0x28bf
	.long	0x28ca
	.uleb128 0x2
	.long	0xa22e
	.uleb128 0x1
	.long	0x3129
	.byte	0
	.uleb128 0x13
	.long	.LASF171
	.byte	0x2
	.value	0x1ea
	.byte	0x3d
	.long	0x84f4
	.uleb128 0x6
	.long	.LASF172
	.byte	0x2
	.value	0x3dc
	.byte	0x7
	.long	.LASF361
	.long	0x28ca
	.byte	0x1
	.long	0x28f1
	.long	0x28f7
	.uleb128 0x2
	.long	0xa22e
	.byte	0
	.uleb128 0x13
	.long	.LASF174
	.byte	0x2
	.value	0x1ec
	.byte	0x7
	.long	0x8727
	.uleb128 0x6
	.long	.LASF172
	.byte	0x2
	.value	0x3e6
	.byte	0x7
	.long	.LASF362
	.long	0x28f7
	.byte	0x1
	.long	0x291e
	.long	0x2924
	.uleb128 0x2
	.long	0xa256
	.byte	0
	.uleb128 0x36
	.string	"end"
	.value	0x3f0
	.long	.LASF363
	.long	0x28ca
	.long	0x293b
	.long	0x2941
	.uleb128 0x2
	.long	0xa22e
	.byte	0
	.uleb128 0x36
	.string	"end"
	.value	0x3fa
	.long	.LASF364
	.long	0x28f7
	.long	0x2958
	.long	0x295e
	.uleb128 0x2
	.long	0xa256
	.byte	0
	.uleb128 0x13
	.long	.LASF178
	.byte	0x2
	.value	0x1ee
	.byte	0x30
	.long	0x312e
	.uleb128 0x6
	.long	.LASF179
	.byte	0x2
	.value	0x404
	.byte	0x7
	.long	.LASF365
	.long	0x295e
	.byte	0x1
	.long	0x2985
	.long	0x298b
	.uleb128 0x2
	.long	0xa22e
	.byte	0
	.uleb128 0x13
	.long	.LASF181
	.byte	0x2
	.value	0x1ed
	.byte	0x35
	.long	0x3133
	.uleb128 0x6
	.long	.LASF179
	.byte	0x2
	.value	0x40e
	.byte	0x7
	.long	.LASF366
	.long	0x298b
	.byte	0x1
	.long	0x29b2
	.long	0x29b8
	.uleb128 0x2
	.long	0xa256
	.byte	0
	.uleb128 0x6
	.long	.LASF183
	.byte	0x2
	.value	0x418
	.byte	0x7
	.long	.LASF367
	.long	0x295e
	.byte	0x1
	.long	0x29d2
	.long	0x29d8
	.uleb128 0x2
	.long	0xa22e
	.byte	0
	.uleb128 0x6
	.long	.LASF183
	.byte	0x2
	.value	0x422
	.byte	0x7
	.long	.LASF368
	.long	0x298b
	.byte	0x1
	.long	0x29f2
	.long	0x29f8
	.uleb128 0x2
	.long	0xa256
	.byte	0
	.uleb128 0x6
	.long	.LASF186
	.byte	0x2
	.value	0x42d
	.byte	0x7
	.long	.LASF369
	.long	0x28f7
	.byte	0x1
	.long	0x2a12
	.long	0x2a18
	.uleb128 0x2
	.long	0xa256
	.byte	0
	.uleb128 0x6
	.long	.LASF188
	.byte	0x2
	.value	0x437
	.byte	0x7
	.long	.LASF370
	.long	0x28f7
	.byte	0x1
	.long	0x2a32
	.long	0x2a38
	.uleb128 0x2
	.long	0xa256
	.byte	0
	.uleb128 0x6
	.long	.LASF190
	.byte	0x2
	.value	0x441
	.byte	0x7
	.long	.LASF371
	.long	0x298b
	.byte	0x1
	.long	0x2a52
	.long	0x2a58
	.uleb128 0x2
	.long	0xa256
	.byte	0
	.uleb128 0x6
	.long	.LASF192
	.byte	0x2
	.value	0x44b
	.byte	0x7
	.long	.LASF372
	.long	0x298b
	.byte	0x1
	.long	0x2a72
	.long	0x2a78
	.uleb128 0x2
	.long	0xa256
	.byte	0
	.uleb128 0x6
	.long	.LASF194
	.byte	0x2
	.value	0x453
	.byte	0x7
	.long	.LASF373
	.long	0x26ae
	.byte	0x1
	.long	0x2a92
	.long	0x2a98
	.uleb128 0x2
	.long	0xa256
	.byte	0
	.uleb128 0x6
	.long	.LASF80
	.byte	0x2
	.value	0x45e
	.byte	0x7
	.long	.LASF374
	.long	0x26ae
	.byte	0x1
	.long	0x2ab2
	.long	0x2ab8
	.uleb128 0x2
	.long	0xa256
	.byte	0
	.uleb128 0x10
	.long	.LASF197
	.byte	0x2
	.value	0x46d
	.byte	0x7
	.long	.LASF375
	.byte	0x1
	.long	0x2ace
	.long	0x2ad9
	.uleb128 0x2
	.long	0xa22e
	.uleb128 0x1
	.long	0x26ae
	.byte	0
	.uleb128 0x10
	.long	.LASF197
	.byte	0x2
	.value	0x482
	.byte	0x7
	.long	.LASF376
	.byte	0x1
	.long	0x2aef
	.long	0x2aff
	.uleb128 0x2
	.long	0xa22e
	.uleb128 0x1
	.long	0x26ae
	.uleb128 0x1
	.long	0xa23d
	.byte	0
	.uleb128 0x10
	.long	.LASF200
	.byte	0x2
	.value	0x4a4
	.byte	0x7
	.long	.LASF377
	.byte	0x1
	.long	0x2b15
	.long	0x2b1b
	.uleb128 0x2
	.long	0xa22e
	.byte	0
	.uleb128 0x6
	.long	.LASF202
	.byte	0x2
	.value	0x4ae
	.byte	0x7
	.long	.LASF378
	.long	0x26ae
	.byte	0x1
	.long	0x2b35
	.long	0x2b3b
	.uleb128 0x2
	.long	0xa256
	.byte	0
	.uleb128 0x6
	.long	.LASF204
	.byte	0x2
	.value	0x4bd
	.byte	0x7
	.long	.LASF379
	.long	0x8f7a
	.byte	0x1
	.long	0x2b55
	.long	0x2b5b
	.uleb128 0x2
	.long	0xa256
	.byte	0
	.uleb128 0x21
	.long	.LASF206
	.byte	0x7
	.byte	0x46
	.byte	0x5
	.long	.LASF380
	.byte	0x1
	.long	0x2b70
	.long	0x2b7b
	.uleb128 0x2
	.long	0xa22e
	.uleb128 0x1
	.long	0x26ae
	.byte	0
	.uleb128 0x13
	.long	.LASF71
	.byte	0x2
	.value	0x1e8
	.byte	0x32
	.long	0x84af
	.uleb128 0x6
	.long	.LASF208
	.byte	0x2
	.value	0x4e3
	.byte	0x7
	.long	.LASF381
	.long	0x2b7b
	.byte	0x1
	.long	0x2ba2
	.long	0x2bad
	.uleb128 0x2
	.long	0xa22e
	.uleb128 0x1
	.long	0x26ae
	.byte	0
	.uleb128 0x13
	.long	.LASF74
	.byte	0x2
	.value	0x1e9
	.byte	0x37
	.long	0x84bb
	.uleb128 0x6
	.long	.LASF208
	.byte	0x2
	.value	0x4f6
	.byte	0x7
	.long	.LASF382
	.long	0x2bad
	.byte	0x1
	.long	0x2bd4
	.long	0x2bdf
	.uleb128 0x2
	.long	0xa256
	.uleb128 0x1
	.long	0x26ae
	.byte	0
	.uleb128 0x10
	.long	.LASF211
	.byte	0x2
	.value	0x500
	.byte	0x7
	.long	.LASF383
	.byte	0x2
	.long	0x2bf5
	.long	0x2c00
	.uleb128 0x2
	.long	0xa256
	.uleb128 0x1
	.long	0x26ae
	.byte	0
	.uleb128 0x36
	.string	"at"
	.value	0x517
	.long	.LASF384
	.long	0x2b7b
	.long	0x2c16
	.long	0x2c21
	.uleb128 0x2
	.long	0xa22e
	.uleb128 0x1
	.long	0x26ae
	.byte	0
	.uleb128 0x36
	.string	"at"
	.value	0x52a
	.long	.LASF385
	.long	0x2bad
	.long	0x2c37
	.long	0x2c42
	.uleb128 0x2
	.long	0xa256
	.uleb128 0x1
	.long	0x26ae
	.byte	0
	.uleb128 0x6
	.long	.LASF215
	.byte	0x2
	.value	0x536
	.byte	0x7
	.long	.LASF386
	.long	0x2b7b
	.byte	0x1
	.long	0x2c5c
	.long	0x2c62
	.uleb128 0x2
	.long	0xa22e
	.byte	0
	.uleb128 0x6
	.long	.LASF215
	.byte	0x2
	.value	0x542
	.byte	0x7
	.long	.LASF387
	.long	0x2bad
	.byte	0x1
	.long	0x2c7c
	.long	0x2c82
	.uleb128 0x2
	.long	0xa256
	.byte	0
	.uleb128 0x6
	.long	.LASF218
	.byte	0x2
	.value	0x54e
	.byte	0x7
	.long	.LASF388
	.long	0x2b7b
	.byte	0x1
	.long	0x2c9c
	.long	0x2ca2
	.uleb128 0x2
	.long	0xa22e
	.byte	0
	.uleb128 0x6
	.long	.LASF218
	.byte	0x2
	.value	0x55a
	.byte	0x7
	.long	.LASF389
	.long	0x2bad
	.byte	0x1
	.long	0x2cbc
	.long	0x2cc2
	.uleb128 0x2
	.long	0xa256
	.byte	0
	.uleb128 0x6
	.long	.LASF221
	.byte	0x2
	.value	0x569
	.byte	0x7
	.long	.LASF390
	.long	0xa1a2
	.byte	0x1
	.long	0x2cdc
	.long	0x2ce2
	.uleb128 0x2
	.long	0xa22e
	.byte	0
	.uleb128 0x6
	.long	.LASF221
	.byte	0x2
	.value	0x56e
	.byte	0x7
	.long	.LASF391
	.long	0xa1b6
	.byte	0x1
	.long	0x2cfc
	.long	0x2d02
	.uleb128 0x2
	.long	0xa256
	.byte	0
	.uleb128 0x10
	.long	.LASF224
	.byte	0x2
	.value	0x57e
	.byte	0x7
	.long	.LASF392
	.byte	0x1
	.long	0x2d18
	.long	0x2d23
	.uleb128 0x2
	.long	0xa22e
	.uleb128 0x1
	.long	0xa23d
	.byte	0
	.uleb128 0x10
	.long	.LASF224
	.byte	0x2
	.value	0x58f
	.byte	0x7
	.long	.LASF393
	.byte	0x1
	.long	0x2d39
	.long	0x2d44
	.uleb128 0x2
	.long	0xa22e
	.uleb128 0x1
	.long	0xa260
	.byte	0
	.uleb128 0x10
	.long	.LASF227
	.byte	0x2
	.value	0x5a7
	.byte	0x7
	.long	.LASF394
	.byte	0x1
	.long	0x2d5a
	.long	0x2d60
	.uleb128 0x2
	.long	0xa22e
	.byte	0
	.uleb128 0x22
	.long	.LASF229
	.byte	0x7
	.byte	0x89
	.byte	0x5
	.long	.LASF395
	.long	0x28ca
	.byte	0x1
	.long	0x2d79
	.long	0x2d89
	.uleb128 0x2
	.long	0xa22e
	.uleb128 0x1
	.long	0x28f7
	.uleb128 0x1
	.long	0xa23d
	.byte	0
	.uleb128 0x6
	.long	.LASF229
	.byte	0x2
	.value	0x5ee
	.byte	0x7
	.long	.LASF396
	.long	0x28ca
	.byte	0x1
	.long	0x2da3
	.long	0x2db3
	.uleb128 0x2
	.long	0xa22e
	.uleb128 0x1
	.long	0x28f7
	.uleb128 0x1
	.long	0xa260
	.byte	0
	.uleb128 0x6
	.long	.LASF229
	.byte	0x2
	.value	0x600
	.byte	0x7
	.long	.LASF397
	.long	0x28ca
	.byte	0x1
	.long	0x2dcd
	.long	0x2ddd
	.uleb128 0x2
	.long	0xa22e
	.uleb128 0x1
	.long	0x28f7
	.uleb128 0x1
	.long	0x3129
	.byte	0
	.uleb128 0x6
	.long	.LASF229
	.byte	0x2
	.value	0x61a
	.byte	0x7
	.long	.LASF398
	.long	0x28ca
	.byte	0x1
	.long	0x2df7
	.long	0x2e0c
	.uleb128 0x2
	.long	0xa22e
	.uleb128 0x1
	.long	0x28f7
	.uleb128 0x1
	.long	0x26ae
	.uleb128 0x1
	.long	0xa23d
	.byte	0
	.uleb128 0x6
	.long	.LASF234
	.byte	0x2
	.value	0x6f6
	.byte	0x7
	.long	.LASF399
	.long	0x28ca
	.byte	0x1
	.long	0x2e26
	.long	0x2e31
	.uleb128 0x2
	.long	0xa22e
	.uleb128 0x1
	.long	0x28f7
	.byte	0
	.uleb128 0x6
	.long	.LASF234
	.byte	0x2
	.value	0x712
	.byte	0x7
	.long	.LASF400
	.long	0x28ca
	.byte	0x1
	.long	0x2e4b
	.long	0x2e5b
	.uleb128 0x2
	.long	0xa22e
	.uleb128 0x1
	.long	0x28f7
	.uleb128 0x1
	.long	0x28f7
	.byte	0
	.uleb128 0x10
	.long	.LASF41
	.byte	0x2
	.value	0x72a
	.byte	0x7
	.long	.LASF401
	.byte	0x1
	.long	0x2e71
	.long	0x2e7c
	.uleb128 0x2
	.long	0xa22e
	.uleb128 0x1
	.long	0xa251
	.byte	0
	.uleb128 0x10
	.long	.LASF238
	.byte	0x2
	.value	0x73d
	.byte	0x7
	.long	.LASF402
	.byte	0x1
	.long	0x2e92
	.long	0x2e98
	.uleb128 0x2
	.long	0xa22e
	.byte	0
	.uleb128 0x10
	.long	.LASF240
	.byte	0x2
	.value	0x7c3
	.byte	0x7
	.long	.LASF403
	.byte	0x2
	.long	0x2eae
	.long	0x2ebe
	.uleb128 0x2
	.long	0xa22e
	.uleb128 0x1
	.long	0x26ae
	.uleb128 0x1
	.long	0xa23d
	.byte	0
	.uleb128 0x10
	.long	.LASF242
	.byte	0x2
	.value	0x7ce
	.byte	0x7
	.long	.LASF404
	.byte	0x2
	.long	0x2ed4
	.long	0x2edf
	.uleb128 0x2
	.long	0xa22e
	.uleb128 0x1
	.long	0x26ae
	.byte	0
	.uleb128 0x10
	.long	.LASF244
	.byte	0x7
	.value	0x112
	.byte	0x5
	.long	.LASF405
	.byte	0x2
	.long	0x2ef5
	.long	0x2f05
	.uleb128 0x2
	.long	0xa22e
	.uleb128 0x1
	.long	0x2c3
	.uleb128 0x1
	.long	0xa23d
	.byte	0
	.uleb128 0x10
	.long	.LASF246
	.byte	0x7
	.value	0x296
	.byte	0x5
	.long	.LASF406
	.byte	0x2
	.long	0x2f1b
	.long	0x2f30
	.uleb128 0x2
	.long	0xa22e
	.uleb128 0x1
	.long	0x28ca
	.uleb128 0x1
	.long	0x26ae
	.uleb128 0x1
	.long	0xa23d
	.byte	0
	.uleb128 0x10
	.long	.LASF248
	.byte	0x7
	.value	0x300
	.byte	0x5
	.long	.LASF407
	.byte	0x2
	.long	0x2f46
	.long	0x2f56
	.uleb128 0x2
	.long	0xa22e
	.uleb128 0x1
	.long	0x26ae
	.uleb128 0x1
	.long	0xa23d
	.byte	0
	.uleb128 0x10
	.long	.LASF250
	.byte	0x7
	.value	0x339
	.byte	0x5
	.long	.LASF408
	.byte	0x2
	.long	0x2f6c
	.long	0x2f77
	.uleb128 0x2
	.long	0xa22e
	.uleb128 0x1
	.long	0x26ae
	.byte	0
	.uleb128 0x6
	.long	.LASF252
	.byte	0x7
	.value	0x396
	.byte	0x5
	.long	.LASF409
	.long	0x8f7a
	.byte	0x2
	.long	0x2f91
	.long	0x2f97
	.uleb128 0x2
	.long	0xa22e
	.byte	0
	.uleb128 0x6
	.long	.LASF254
	.byte	0x7
	.value	0x16f
	.byte	0x5
	.long	.LASF410
	.long	0x28ca
	.byte	0x2
	.long	0x2fb1
	.long	0x2fc1
	.uleb128 0x2
	.long	0xa22e
	.uleb128 0x1
	.long	0x28f7
	.uleb128 0x1
	.long	0xa260
	.byte	0
	.uleb128 0x6
	.long	.LASF256
	.byte	0x2
	.value	0x889
	.byte	0x7
	.long	.LASF411
	.long	0x28ca
	.byte	0x2
	.long	0x2fdb
	.long	0x2feb
	.uleb128 0x2
	.long	0xa22e
	.uleb128 0x1
	.long	0x28f7
	.uleb128 0x1
	.long	0xa260
	.byte	0
	.uleb128 0x6
	.long	.LASF258
	.byte	0x2
	.value	0x890
	.byte	0x7
	.long	.LASF412
	.long	0x26ae
	.byte	0x2
	.long	0x3005
	.long	0x3015
	.uleb128 0x2
	.long	0xa256
	.uleb128 0x1
	.long	0x26ae
	.uleb128 0x1
	.long	0x77aa
	.byte	0
	.uleb128 0x53
	.long	.LASF260
	.value	0x89b
	.long	.LASF413
	.long	0x26ae
	.long	0x3033
	.uleb128 0x1
	.long	0x26ae
	.uleb128 0x1
	.long	0xa238
	.byte	0
	.uleb128 0x53
	.long	.LASF262
	.value	0x8a4
	.long	.LASF414
	.long	0x26ae
	.long	0x304c
	.uleb128 0x1
	.long	0xa265
	.byte	0
	.uleb128 0x10
	.long	.LASF264
	.byte	0x2
	.value	0x8b5
	.byte	0x7
	.long	.LASF415
	.byte	0x2
	.long	0x3062
	.long	0x306d
	.uleb128 0x2
	.long	0xa22e
	.uleb128 0x1
	.long	0x25f7
	.byte	0
	.uleb128 0x22
	.long	.LASF266
	.byte	0x7
	.byte	0xb9
	.byte	0x5
	.long	.LASF416
	.long	0x28ca
	.byte	0x2
	.long	0x3086
	.long	0x3091
	.uleb128 0x2
	.long	0xa22e
	.uleb128 0x1
	.long	0x28ca
	.byte	0
	.uleb128 0x22
	.long	.LASF266
	.byte	0x7
	.byte	0xc7
	.byte	0x5
	.long	.LASF417
	.long	0x28ca
	.byte	0x2
	.long	0x30aa
	.long	0x30ba
	.uleb128 0x2
	.long	0xa22e
	.uleb128 0x1
	.long	0x28ca
	.uleb128 0x1
	.long	0x28ca
	.byte	0
	.uleb128 0x1c
	.long	.LASF269
	.value	0x8cf
	.long	.LASF418
	.long	0x30cd
	.long	0x30dd
	.uleb128 0x2
	.long	0xa22e
	.uleb128 0x1
	.long	0xa247
	.uleb128 0x1
	.long	0x642
	.byte	0
	.uleb128 0x1c
	.long	.LASF269
	.value	0x8db
	.long	.LASF419
	.long	0x30f0
	.long	0x3100
	.uleb128 0x2
	.long	0xa22e
	.uleb128 0x1
	.long	0xa247
	.uleb128 0x1
	.long	0x3b3
	.byte	0
	.uleb128 0x11
	.string	"_Tp"
	.long	0x9e7f
	.uleb128 0x65
	.long	.LASF141
	.long	0x2034
	.byte	0
	.uleb128 0x7
	.long	0x256b
	.uleb128 0x8
	.long	.LASF274
	.byte	0x13
	.byte	0xad
	.byte	0xb
	.long	0x2555
	.uleb128 0x7
	.long	0x3118
	.uleb128 0x30
	.long	.LASF420
	.uleb128 0x30
	.long	.LASF421
	.uleb128 0x30
	.long	.LASF422
	.uleb128 0x3e
	.long	.LASF423
	.byte	0x1
	.byte	0x6
	.byte	0x3f
	.long	0x32e4
	.uleb128 0x54
	.long	.LASF60
	.byte	0x6
	.byte	0x58
	.byte	0x7
	.long	0x3154
	.long	0x315a
	.uleb128 0x2
	.long	0xa26a
	.byte	0
	.uleb128 0x54
	.long	.LASF60
	.byte	0x6
	.byte	0x5c
	.byte	0x7
	.long	0x316a
	.long	0x3175
	.uleb128 0x2
	.long	0xa26a
	.uleb128 0x1
	.long	0xa274
	.byte	0
	.uleb128 0x88
	.long	.LASF36
	.byte	0x6
	.byte	0x64
	.byte	0x18
	.long	0xa279
	.long	0x318a
	.long	0x3195
	.uleb128 0x2
	.long	0xa26a
	.uleb128 0x1
	.long	0xa274
	.byte	0
	.uleb128 0x54
	.long	.LASF66
	.byte	0x6
	.byte	0x68
	.byte	0x7
	.long	0x31a5
	.long	0x31ab
	.uleb128 0x2
	.long	0xa26a
	.byte	0
	.uleb128 0x26
	.long	.LASF70
	.byte	0x6
	.byte	0x46
	.byte	0x1a
	.long	0xa27e
	.uleb128 0x55
	.long	.LASF68
	.byte	0x6
	.byte	0x6b
	.byte	0x7
	.long	0x31ab
	.byte	0x1
	.long	0x31cc
	.long	0x31d7
	.uleb128 0x2
	.long	0xa288
	.uleb128 0x1
	.long	0x31d7
	.byte	0
	.uleb128 0x26
	.long	.LASF71
	.byte	0x6
	.byte	0x48
	.byte	0x1a
	.long	0xa292
	.uleb128 0x26
	.long	.LASF72
	.byte	0x6
	.byte	0x47
	.byte	0x1a
	.long	0xa297
	.uleb128 0x55
	.long	.LASF68
	.byte	0x6
	.byte	0x6f
	.byte	0x7
	.long	0x31e3
	.byte	0x1
	.long	0x3204
	.long	0x320f
	.uleb128 0x2
	.long	0xa288
	.uleb128 0x1
	.long	0x320f
	.byte	0
	.uleb128 0x26
	.long	.LASF74
	.byte	0x6
	.byte	0x49
	.byte	0x1a
	.long	0xa29c
	.uleb128 0x55
	.long	.LASF75
	.byte	0x6
	.byte	0x81
	.byte	0x7
	.long	0xa27e
	.byte	0x1
	.long	0x3230
	.long	0x3240
	.uleb128 0x2
	.long	0xa26a
	.uleb128 0x1
	.long	0x3240
	.uleb128 0x1
	.long	0x8fc9
	.byte	0
	.uleb128 0x26
	.long	.LASF77
	.byte	0x6
	.byte	0x43
	.byte	0x1f
	.long	0x2c3
	.uleb128 0x54
	.long	.LASF78
	.byte	0x6
	.byte	0xa7
	.byte	0x7
	.long	0x325c
	.long	0x326c
	.uleb128 0x2
	.long	0xa26a
	.uleb128 0x1
	.long	0xa27e
	.uleb128 0x1
	.long	0x3240
	.byte	0
	.uleb128 0x55
	.long	.LASF80
	.byte	0x6
	.byte	0xc2
	.byte	0x7
	.long	0x3240
	.byte	0x1
	.long	0x3281
	.long	0x3287
	.uleb128 0x2
	.long	0xa288
	.byte	0
	.uleb128 0xaa
	.long	.LASF82
	.byte	0x6
	.byte	0xf2
	.byte	0x7
	.long	0x3240
	.long	0x329c
	.long	0x32a2
	.uleb128 0x2
	.long	0xa288
	.byte	0
	.uleb128 0x54
	.long	.LASF424
	.byte	0x6
	.byte	0xc9
	.byte	0x2
	.long	0x32ca
	.long	0x32da
	.uleb128 0x11
	.string	"_Up"
	.long	0xa0fa
	.uleb128 0x47
	.long	.LASF427
	.long	0x32ca
	.uleb128 0x48
	.long	0xa29c
	.byte	0
	.uleb128 0x2
	.long	0xa26a
	.uleb128 0x1
	.long	0xa27e
	.uleb128 0x1
	.long	0xa29c
	.byte	0
	.uleb128 0x11
	.string	"_Tp"
	.long	0xa0fa
	.byte	0
	.uleb128 0x7
	.long	0x3138
	.uleb128 0x3e
	.long	.LASF425
	.byte	0x1
	.byte	0x5
	.byte	0x85
	.long	0x3361
	.uleb128 0x46
	.long	0x3138
	.byte	0x1
	.uleb128 0x54
	.long	.LASF85
	.byte	0x5
	.byte	0xa8
	.byte	0x7
	.long	0x330b
	.long	0x3311
	.uleb128 0x2
	.long	0xa2a1
	.byte	0
	.uleb128 0x54
	.long	.LASF85
	.byte	0x5
	.byte	0xac
	.byte	0x7
	.long	0x3321
	.long	0x332c
	.uleb128 0x2
	.long	0xa2a1
	.uleb128 0x1
	.long	0xa2ab
	.byte	0
	.uleb128 0x88
	.long	.LASF36
	.byte	0x5
	.byte	0xb1
	.byte	0x12
	.long	0xa2b0
	.long	0x3341
	.long	0x334c
	.uleb128 0x2
	.long	0xa2a1
	.uleb128 0x1
	.long	0xa2ab
	.byte	0
	.uleb128 0xab
	.long	.LASF89
	.byte	0x5
	.byte	0xbd
	.byte	0x7
	.byte	0x1
	.long	0x335a
	.uleb128 0x2
	.long	0xa2a1
	.byte	0
	.byte	0
	.uleb128 0x7
	.long	0x32e9
	.uleb128 0x5f
	.long	.LASF426
	.byte	0x1
	.byte	0x8
	.value	0x248
	.byte	0xc
	.long	0x3482
	.uleb128 0x1d
	.long	.LASF70
	.byte	0x8
	.value	0x251
	.byte	0xd
	.long	0xa27e
	.uleb128 0x44
	.long	.LASF75
	.byte	0x8
	.value	0x27d
	.byte	0x7
	.long	0x3374
	.long	0x339d
	.uleb128 0x1
	.long	0xa2b5
	.uleb128 0x1
	.long	0x33af
	.byte	0
	.uleb128 0x1d
	.long	.LASF92
	.byte	0x8
	.value	0x24b
	.byte	0xd
	.long	0x32e9
	.uleb128 0x7
	.long	0x339d
	.uleb128 0x1d
	.long	.LASF77
	.byte	0x8
	.value	0x260
	.byte	0xd
	.long	0x2c3
	.uleb128 0x44
	.long	.LASF75
	.byte	0x8
	.value	0x28c
	.byte	0x7
	.long	0x3374
	.long	0x33dd
	.uleb128 0x1
	.long	0xa2b5
	.uleb128 0x1
	.long	0x33af
	.uleb128 0x1
	.long	0x33dd
	.byte	0
	.uleb128 0x1d
	.long	.LASF95
	.byte	0x8
	.value	0x25a
	.byte	0xd
	.long	0x8fc9
	.uleb128 0x89
	.long	.LASF78
	.value	0x2b0
	.byte	0x7
	.long	0x3407
	.uleb128 0x1
	.long	0xa2b5
	.uleb128 0x1
	.long	0x3374
	.uleb128 0x1
	.long	0x33af
	.byte	0
	.uleb128 0x44
	.long	.LASF80
	.byte	0x8
	.value	0x2ed
	.byte	0x7
	.long	0x33af
	.long	0x341e
	.uleb128 0x1
	.long	0xa2ba
	.byte	0
	.uleb128 0x44
	.long	.LASF97
	.byte	0x8
	.value	0x2fd
	.byte	0x7
	.long	0x339d
	.long	0x3435
	.uleb128 0x1
	.long	0xa2ba
	.byte	0
	.uleb128 0x1d
	.long	.LASF7
	.byte	0x8
	.value	0x24e
	.byte	0xd
	.long	0xa0fa
	.uleb128 0x1d
	.long	.LASF99
	.byte	0x8
	.value	0x26f
	.byte	0x8
	.long	0x32e9
	.uleb128 0xac
	.long	.LASF424
	.byte	0x8
	.value	0x2c1
	.byte	0x2
	.uleb128 0x11
	.string	"_Up"
	.long	0xa0fa
	.uleb128 0x47
	.long	.LASF427
	.long	0x3471
	.uleb128 0x48
	.long	0xa29c
	.byte	0
	.uleb128 0x1
	.long	0xa2b5
	.uleb128 0x1
	.long	0xa27e
	.uleb128 0x1
	.long	0xa29c
	.byte	0
	.byte	0
	.uleb128 0x1b
	.long	.LASF428
	.byte	0x18
	.byte	0x2
	.byte	0x5b
	.byte	0xc
	.long	0x37bd
	.uleb128 0x1b
	.long	.LASF101
	.byte	0x18
	.byte	0x2
	.byte	0x62
	.byte	0xe
	.long	0x3522
	.uleb128 0xf
	.long	.LASF103
	.byte	0x2
	.byte	0x64
	.byte	0xa
	.long	0x3527
	.byte	0
	.uleb128 0xf
	.long	.LASF104
	.byte	0x2
	.byte	0x65
	.byte	0xa
	.long	0x3527
	.byte	0x8
	.uleb128 0xf
	.long	.LASF105
	.byte	0x2
	.byte	0x66
	.byte	0xa
	.long	0x3527
	.byte	0x10
	.uleb128 0x56
	.long	.LASF101
	.byte	0x69
	.long	0x34d1
	.long	0x34d7
	.uleb128 0x2
	.long	0xa2c9
	.byte	0
	.uleb128 0x56
	.long	.LASF101
	.byte	0x6f
	.long	0x34e5
	.long	0x34f0
	.uleb128 0x2
	.long	0xa2c9
	.uleb128 0x1
	.long	0xa2d3
	.byte	0
	.uleb128 0x56
	.long	.LASF108
	.byte	0x77
	.long	0x34fe
	.long	0x3509
	.uleb128 0x2
	.long	0xa2c9
	.uleb128 0x1
	.long	0xa2d8
	.byte	0
	.uleb128 0xad
	.long	.LASF110
	.byte	0x2
	.byte	0x80
	.byte	0x2
	.long	0x3516
	.uleb128 0x2
	.long	0xa2c9
	.uleb128 0x1
	.long	0xa2dd
	.byte	0
	.byte	0
	.uleb128 0x7
	.long	0x348f
	.uleb128 0x8
	.long	.LASF70
	.byte	0x2
	.byte	0x60
	.byte	0x9
	.long	0x89fe
	.uleb128 0x1b
	.long	.LASF111
	.byte	0x18
	.byte	0x2
	.byte	0x8b
	.byte	0xe
	.long	0x35d8
	.uleb128 0x33
	.long	0x32e9
	.uleb128 0x33
	.long	0x348f
	.uleb128 0x56
	.long	.LASF111
	.byte	0x8f
	.long	0x3558
	.long	0x355e
	.uleb128 0x2
	.long	0xa2e2
	.byte	0
	.uleb128 0x56
	.long	.LASF111
	.byte	0x98
	.long	0x356c
	.long	0x3577
	.uleb128 0x2
	.long	0xa2e2
	.uleb128 0x1
	.long	0xa2ec
	.byte	0
	.uleb128 0x56
	.long	.LASF111
	.byte	0xa0
	.long	0x3585
	.long	0x3590
	.uleb128 0x2
	.long	0xa2e2
	.uleb128 0x1
	.long	0xa2f1
	.byte	0
	.uleb128 0x56
	.long	.LASF111
	.byte	0xa5
	.long	0x359e
	.long	0x35a9
	.uleb128 0x2
	.long	0xa2e2
	.uleb128 0x1
	.long	0xa2f6
	.byte	0
	.uleb128 0x56
	.long	.LASF111
	.byte	0xaa
	.long	0x35b7
	.long	0x35c7
	.uleb128 0x2
	.long	0xa2e2
	.uleb128 0x1
	.long	0xa2f6
	.uleb128 0x1
	.long	0xa2f1
	.byte	0
	.uleb128 0xae
	.long	.LASF476
	.long	0x35d1
	.uleb128 0x2
	.long	0xa2e2
	.byte	0
	.byte	0
	.uleb128 0x8
	.long	.LASF117
	.byte	0x2
	.byte	0x5e
	.byte	0x15
	.long	0x8a2f
	.uleb128 0x7
	.long	0x35d8
	.uleb128 0x66
	.long	.LASF118
	.value	0x133
	.byte	0x7
	.long	0xa2fb
	.long	0x35fd
	.long	0x3603
	.uleb128 0x2
	.long	0xa300
	.byte	0
	.uleb128 0x66
	.long	.LASF118
	.value	0x138
	.byte	0x7
	.long	0xa2ec
	.long	0x3617
	.long	0x361d
	.uleb128 0x2
	.long	0xa30a
	.byte	0
	.uleb128 0x1d
	.long	.LASF92
	.byte	0x2
	.value	0x12f
	.byte	0x16
	.long	0x32e9
	.uleb128 0x7
	.long	0x361d
	.uleb128 0x66
	.long	.LASF121
	.value	0x13d
	.byte	0x7
	.long	0x361d
	.long	0x3643
	.long	0x3649
	.uleb128 0x2
	.long	0xa30a
	.byte	0
	.uleb128 0x8a
	.long	.LASF123
	.value	0x141
	.long	0x3659
	.long	0x365f
	.uleb128 0x2
	.long	0xa300
	.byte	0
	.uleb128 0x3b
	.long	.LASF123
	.value	0x147
	.byte	0x7
	.long	0x366f
	.long	0x367a
	.uleb128 0x2
	.long	0xa300
	.uleb128 0x1
	.long	0xa314
	.byte	0
	.uleb128 0x3b
	.long	.LASF123
	.value	0x14d
	.byte	0x7
	.long	0x368a
	.long	0x3695
	.uleb128 0x2
	.long	0xa300
	.uleb128 0x1
	.long	0x2c3
	.byte	0
	.uleb128 0x3b
	.long	.LASF123
	.value	0x153
	.byte	0x7
	.long	0x36a5
	.long	0x36b5
	.uleb128 0x2
	.long	0xa300
	.uleb128 0x1
	.long	0x2c3
	.uleb128 0x1
	.long	0xa314
	.byte	0
	.uleb128 0x8a
	.long	.LASF123
	.value	0x158
	.long	0x36c5
	.long	0x36d0
	.uleb128 0x2
	.long	0xa300
	.uleb128 0x1
	.long	0xa319
	.byte	0
	.uleb128 0x3b
	.long	.LASF123
	.value	0x15d
	.byte	0x7
	.long	0x36e0
	.long	0x36eb
	.uleb128 0x2
	.long	0xa300
	.uleb128 0x1
	.long	0xa2f6
	.byte	0
	.uleb128 0x3b
	.long	.LASF123
	.value	0x161
	.byte	0x7
	.long	0x36fb
	.long	0x370b
	.uleb128 0x2
	.long	0xa300
	.uleb128 0x1
	.long	0xa319
	.uleb128 0x1
	.long	0xa314
	.byte	0
	.uleb128 0x3b
	.long	.LASF123
	.value	0x16f
	.byte	0x7
	.long	0x371b
	.long	0x372b
	.uleb128 0x2
	.long	0xa300
	.uleb128 0x1
	.long	0xa314
	.uleb128 0x1
	.long	0xa319
	.byte	0
	.uleb128 0x3b
	.long	.LASF132
	.value	0x175
	.byte	0x7
	.long	0x373b
	.long	0x3741
	.uleb128 0x2
	.long	0xa300
	.byte	0
	.uleb128 0x51
	.long	.LASF134
	.value	0x17e
	.byte	0x14
	.long	0x3533
	.byte	0
	.uleb128 0x66
	.long	.LASF135
	.value	0x182
	.byte	0x7
	.long	0x3527
	.long	0x3762
	.long	0x376d
	.uleb128 0x2
	.long	0xa300
	.uleb128 0x1
	.long	0x2c3
	.byte	0
	.uleb128 0x3b
	.long	.LASF137
	.value	0x18a
	.byte	0x7
	.long	0x377d
	.long	0x378d
	.uleb128 0x2
	.long	0xa300
	.uleb128 0x1
	.long	0x3527
	.uleb128 0x1
	.long	0x2c3
	.byte	0
	.uleb128 0x2a
	.long	.LASF139
	.byte	0x2
	.value	0x195
	.byte	0x7
	.byte	0x2
	.long	0x379f
	.long	0x37aa
	.uleb128 0x2
	.long	0xa300
	.uleb128 0x1
	.long	0x2c3
	.byte	0
	.uleb128 0x11
	.string	"_Tp"
	.long	0xa0fa
	.uleb128 0xc
	.long	.LASF141
	.long	0x32e9
	.byte	0
	.uleb128 0x7
	.long	0x3482
	.uleb128 0x1b
	.long	.LASF429
	.byte	0x1
	.byte	0x13
	.byte	0xa9
	.byte	0xc
	.long	0x37e5
	.uleb128 0x8
	.long	.LASF143
	.byte	0x13
	.byte	0xaa
	.byte	0xd
	.long	0x32e9
	.uleb128 0xc
	.long	.LASF144
	.long	0x32e9
	.byte	0
	.uleb128 0x4b
	.long	.LASF430
	.byte	0x18
	.byte	0x2
	.value	0x1cc
	.long	0x4341
	.uleb128 0x18
	.byte	0x2
	.value	0x1cc
	.byte	0xb
	.long	0x374e
	.uleb128 0x18
	.byte	0x2
	.value	0x1cc
	.byte	0xb
	.long	0x376d
	.uleb128 0x18
	.byte	0x2
	.value	0x1cc
	.byte	0xb
	.long	0x3741
	.uleb128 0x18
	.byte	0x2
	.value	0x1cc
	.byte	0xb
	.long	0x3603
	.uleb128 0x18
	.byte	0x2
	.value	0x1cc
	.byte	0xb
	.long	0x35e9
	.uleb128 0x18
	.byte	0x2
	.value	0x1cc
	.byte	0xb
	.long	0x362f
	.uleb128 0x46
	.long	0x3482
	.byte	0x2
	.uleb128 0x44
	.long	.LASF146
	.byte	0x2
	.value	0x1f6
	.byte	0x7
	.long	0x8f7a
	.long	0x3845
	.uleb128 0x1
	.long	0x642
	.byte	0
	.uleb128 0x44
	.long	.LASF146
	.byte	0x2
	.value	0x1ff
	.byte	0x7
	.long	0x8f7a
	.long	0x385c
	.uleb128 0x1
	.long	0x3b3
	.byte	0
	.uleb128 0xaf
	.long	.LASF340
	.byte	0x2
	.value	0x203
	.byte	0x7
	.long	0x8f7a
	.uleb128 0x13
	.long	.LASF70
	.byte	0x2
	.value	0x1e6
	.byte	0x29
	.long	0x3527
	.uleb128 0x44
	.long	.LASF149
	.byte	0x2
	.value	0x20c
	.byte	0x7
	.long	0x386a
	.long	0x389d
	.uleb128 0x1
	.long	0x386a
	.uleb128 0x1
	.long	0x386a
	.uleb128 0x1
	.long	0x386a
	.uleb128 0x1
	.long	0xa31e
	.byte	0
	.uleb128 0x1d
	.long	.LASF117
	.byte	0x2
	.value	0x1e1
	.byte	0x2f
	.long	0x35d8
	.uleb128 0x7
	.long	0x389d
	.uleb128 0x8b
	.long	.LASF151
	.value	0x227
	.long	0x38bf
	.long	0x38c5
	.uleb128 0x2
	.long	0xa323
	.byte	0
	.uleb128 0x7a
	.long	.LASF151
	.byte	0x2
	.value	0x232
	.long	0x38d5
	.long	0x38e0
	.uleb128 0x2
	.long	0xa323
	.uleb128 0x1
	.long	0xa32d
	.byte	0
	.uleb128 0x13
	.long	.LASF92
	.byte	0x2
	.value	0x1f1
	.byte	0x1a
	.long	0x32e9
	.uleb128 0x7
	.long	0x38e0
	.uleb128 0x7a
	.long	.LASF151
	.byte	0x2
	.value	0x240
	.long	0x3902
	.long	0x3912
	.uleb128 0x2
	.long	0xa323
	.uleb128 0x1
	.long	0x3912
	.uleb128 0x1
	.long	0xa32d
	.byte	0
	.uleb128 0x13
	.long	.LASF77
	.byte	0x2
	.value	0x1ef
	.byte	0x1a
	.long	0x2c3
	.uleb128 0x7
	.long	0x3912
	.uleb128 0x2a
	.long	.LASF151
	.byte	0x2
	.value	0x24d
	.byte	0x7
	.byte	0x1
	.long	0x3936
	.long	0x394b
	.uleb128 0x2
	.long	0xa323
	.uleb128 0x1
	.long	0x3912
	.uleb128 0x1
	.long	0xa332
	.uleb128 0x1
	.long	0xa32d
	.byte	0
	.uleb128 0x13
	.long	.LASF7
	.byte	0x2
	.value	0x1e5
	.byte	0x17
	.long	0xa0fa
	.uleb128 0x7
	.long	0x394b
	.uleb128 0x2a
	.long	.LASF151
	.byte	0x2
	.value	0x26d
	.byte	0x7
	.byte	0x1
	.long	0x396f
	.long	0x397a
	.uleb128 0x2
	.long	0xa323
	.uleb128 0x1
	.long	0xa337
	.byte	0
	.uleb128 0x8b
	.long	.LASF151
	.value	0x280
	.long	0x398a
	.long	0x3995
	.uleb128 0x2
	.long	0xa323
	.uleb128 0x1
	.long	0xa33c
	.byte	0
	.uleb128 0x2a
	.long	.LASF151
	.byte	0x2
	.value	0x284
	.byte	0x7
	.byte	0x1
	.long	0x39a7
	.long	0x39b7
	.uleb128 0x2
	.long	0xa323
	.uleb128 0x1
	.long	0xa337
	.uleb128 0x1
	.long	0xa341
	.byte	0
	.uleb128 0x3b
	.long	.LASF151
	.value	0x28f
	.byte	0x7
	.long	0x39c7
	.long	0x39dc
	.uleb128 0x2
	.long	0xa323
	.uleb128 0x1
	.long	0xa33c
	.uleb128 0x1
	.long	0xa32d
	.uleb128 0x1
	.long	0x642
	.byte	0
	.uleb128 0x3b
	.long	.LASF151
	.value	0x294
	.byte	0x7
	.long	0x39ec
	.long	0x3a01
	.uleb128 0x2
	.long	0xa323
	.uleb128 0x1
	.long	0xa33c
	.uleb128 0x1
	.long	0xa32d
	.uleb128 0x1
	.long	0x3b3
	.byte	0
	.uleb128 0x2a
	.long	.LASF151
	.byte	0x2
	.value	0x2a7
	.byte	0x7
	.byte	0x1
	.long	0x3a13
	.long	0x3a23
	.uleb128 0x2
	.long	0xa323
	.uleb128 0x1
	.long	0xa33c
	.uleb128 0x1
	.long	0xa341
	.byte	0
	.uleb128 0x2a
	.long	.LASF151
	.byte	0x2
	.value	0x2ba
	.byte	0x7
	.byte	0x1
	.long	0x3a35
	.long	0x3a45
	.uleb128 0x2
	.long	0xa323
	.uleb128 0x1
	.long	0x4357
	.uleb128 0x1
	.long	0xa32d
	.byte	0
	.uleb128 0x2a
	.long	.LASF163
	.byte	0x2
	.value	0x316
	.byte	0x7
	.byte	0x1
	.long	0x3a57
	.long	0x3a5d
	.uleb128 0x2
	.long	0xa323
	.byte	0
	.uleb128 0x55
	.long	.LASF36
	.byte	0x7
	.byte	0xd6
	.byte	0x5
	.long	0xa346
	.byte	0x1
	.long	0x3a72
	.long	0x3a7d
	.uleb128 0x2
	.long	0xa323
	.uleb128 0x1
	.long	0xa337
	.byte	0
	.uleb128 0x1e
	.long	.LASF36
	.byte	0x2
	.value	0x337
	.byte	0x7
	.long	0xa346
	.byte	0x1
	.long	0x3a93
	.long	0x3a9e
	.uleb128 0x2
	.long	0xa323
	.uleb128 0x1
	.long	0xa33c
	.byte	0
	.uleb128 0x1e
	.long	.LASF36
	.byte	0x2
	.value	0x34d
	.byte	0x7
	.long	0xa346
	.byte	0x1
	.long	0x3ab4
	.long	0x3abf
	.uleb128 0x2
	.long	0xa323
	.uleb128 0x1
	.long	0x4357
	.byte	0
	.uleb128 0x2a
	.long	.LASF168
	.byte	0x2
	.value	0x361
	.byte	0x7
	.byte	0x1
	.long	0x3ad1
	.long	0x3ae1
	.uleb128 0x2
	.long	0xa323
	.uleb128 0x1
	.long	0x3912
	.uleb128 0x1
	.long	0xa332
	.byte	0
	.uleb128 0x2a
	.long	.LASF168
	.byte	0x2
	.value	0x390
	.byte	0x7
	.byte	0x1
	.long	0x3af3
	.long	0x3afe
	.uleb128 0x2
	.long	0xa323
	.uleb128 0x1
	.long	0x4357
	.byte	0
	.uleb128 0x13
	.long	.LASF171
	.byte	0x2
	.value	0x1ea
	.byte	0x3d
	.long	0x8a4f
	.uleb128 0x1e
	.long	.LASF172
	.byte	0x2
	.value	0x3dc
	.byte	0x7
	.long	0x3afe
	.byte	0x1
	.long	0x3b21
	.long	0x3b27
	.uleb128 0x2
	.long	0xa323
	.byte	0
	.uleb128 0x13
	.long	.LASF174
	.byte	0x2
	.value	0x1ec
	.byte	0x7
	.long	0x8c4a
	.uleb128 0x1e
	.long	.LASF172
	.byte	0x2
	.value	0x3e6
	.byte	0x7
	.long	0x3b27
	.byte	0x1
	.long	0x3b4a
	.long	0x3b50
	.uleb128 0x2
	.long	0xa34b
	.byte	0
	.uleb128 0x6e
	.string	"end"
	.value	0x3f0
	.long	0x3afe
	.long	0x3b63
	.long	0x3b69
	.uleb128 0x2
	.long	0xa323
	.byte	0
	.uleb128 0x6e
	.string	"end"
	.value	0x3fa
	.long	0x3b27
	.long	0x3b7c
	.long	0x3b82
	.uleb128 0x2
	.long	0xa34b
	.byte	0
	.uleb128 0x13
	.long	.LASF178
	.byte	0x2
	.value	0x1ee
	.byte	0x30
	.long	0x435c
	.uleb128 0x1e
	.long	.LASF179
	.byte	0x2
	.value	0x404
	.byte	0x7
	.long	0x3b82
	.byte	0x1
	.long	0x3ba5
	.long	0x3bab
	.uleb128 0x2
	.long	0xa323
	.byte	0
	.uleb128 0x13
	.long	.LASF181
	.byte	0x2
	.value	0x1ed
	.byte	0x35
	.long	0x4361
	.uleb128 0x1e
	.long	.LASF179
	.byte	0x2
	.value	0x40e
	.byte	0x7
	.long	0x3bab
	.byte	0x1
	.long	0x3bce
	.long	0x3bd4
	.uleb128 0x2
	.long	0xa34b
	.byte	0
	.uleb128 0x1e
	.long	.LASF183
	.byte	0x2
	.value	0x418
	.byte	0x7
	.long	0x3b82
	.byte	0x1
	.long	0x3bea
	.long	0x3bf0
	.uleb128 0x2
	.long	0xa323
	.byte	0
	.uleb128 0x1e
	.long	.LASF183
	.byte	0x2
	.value	0x422
	.byte	0x7
	.long	0x3bab
	.byte	0x1
	.long	0x3c06
	.long	0x3c0c
	.uleb128 0x2
	.long	0xa34b
	.byte	0
	.uleb128 0x1e
	.long	.LASF186
	.byte	0x2
	.value	0x42d
	.byte	0x7
	.long	0x3b27
	.byte	0x1
	.long	0x3c22
	.long	0x3c28
	.uleb128 0x2
	.long	0xa34b
	.byte	0
	.uleb128 0x1e
	.long	.LASF188
	.byte	0x2
	.value	0x437
	.byte	0x7
	.long	0x3b27
	.byte	0x1
	.long	0x3c3e
	.long	0x3c44
	.uleb128 0x2
	.long	0xa34b
	.byte	0
	.uleb128 0x1e
	.long	.LASF190
	.byte	0x2
	.value	0x441
	.byte	0x7
	.long	0x3bab
	.byte	0x1
	.long	0x3c5a
	.long	0x3c60
	.uleb128 0x2
	.long	0xa34b
	.byte	0
	.uleb128 0x1e
	.long	.LASF192
	.byte	0x2
	.value	0x44b
	.byte	0x7
	.long	0x3bab
	.byte	0x1
	.long	0x3c76
	.long	0x3c7c
	.uleb128 0x2
	.long	0xa34b
	.byte	0
	.uleb128 0x1e
	.long	.LASF194
	.byte	0x2
	.value	0x453
	.byte	0x7
	.long	0x3912
	.byte	0x1
	.long	0x3c92
	.long	0x3c98
	.uleb128 0x2
	.long	0xa34b
	.byte	0
	.uleb128 0x1e
	.long	.LASF80
	.byte	0x2
	.value	0x45e
	.byte	0x7
	.long	0x3912
	.byte	0x1
	.long	0x3cae
	.long	0x3cb4
	.uleb128 0x2
	.long	0xa34b
	.byte	0
	.uleb128 0x2a
	.long	.LASF197
	.byte	0x2
	.value	0x46d
	.byte	0x7
	.byte	0x1
	.long	0x3cc6
	.long	0x3cd1
	.uleb128 0x2
	.long	0xa323
	.uleb128 0x1
	.long	0x3912
	.byte	0
	.uleb128 0x2a
	.long	.LASF197
	.byte	0x2
	.value	0x482
	.byte	0x7
	.byte	0x1
	.long	0x3ce3
	.long	0x3cf3
	.uleb128 0x2
	.long	0xa323
	.uleb128 0x1
	.long	0x3912
	.uleb128 0x1
	.long	0xa332
	.byte	0
	.uleb128 0x2a
	.long	.LASF200
	.byte	0x2
	.value	0x4a4
	.byte	0x7
	.byte	0x1
	.long	0x3d05
	.long	0x3d0b
	.uleb128 0x2
	.long	0xa323
	.byte	0
	.uleb128 0x1e
	.long	.LASF202
	.byte	0x2
	.value	0x4ae
	.byte	0x7
	.long	0x3912
	.byte	0x1
	.long	0x3d21
	.long	0x3d27
	.uleb128 0x2
	.long	0xa34b
	.byte	0
	.uleb128 0x1e
	.long	.LASF204
	.byte	0x2
	.value	0x4bd
	.byte	0x7
	.long	0x8f7a
	.byte	0x1
	.long	0x3d3d
	.long	0x3d43
	.uleb128 0x2
	.long	0xa34b
	.byte	0
	.uleb128 0x54
	.long	.LASF206
	.byte	0x7
	.byte	0x46
	.byte	0x5
	.long	0x3d53
	.long	0x3d5e
	.uleb128 0x2
	.long	0xa323
	.uleb128 0x1
	.long	0x3912
	.byte	0
	.uleb128 0x13
	.long	.LASF71
	.byte	0x2
	.value	0x1e8
	.byte	0x32
	.long	0x8a0a
	.uleb128 0x1e
	.long	.LASF208
	.byte	0x2
	.value	0x4e3
	.byte	0x7
	.long	0x3d5e
	.byte	0x1
	.long	0x3d81
	.long	0x3d8c
	.uleb128 0x2
	.long	0xa323
	.uleb128 0x1
	.long	0x3912
	.byte	0
	.uleb128 0x13
	.long	.LASF74
	.byte	0x2
	.value	0x1e9
	.byte	0x37
	.long	0x8a16
	.uleb128 0x1e
	.long	.LASF208
	.byte	0x2
	.value	0x4f6
	.byte	0x7
	.long	0x3d8c
	.byte	0x1
	.long	0x3daf
	.long	0x3dba
	.uleb128 0x2
	.long	0xa34b
	.uleb128 0x1
	.long	0x3912
	.byte	0
	.uleb128 0x2a
	.long	.LASF211
	.byte	0x2
	.value	0x500
	.byte	0x7
	.byte	0x2
	.long	0x3dcc
	.long	0x3dd7
	.uleb128 0x2
	.long	0xa34b
	.uleb128 0x1
	.long	0x3912
	.byte	0
	.uleb128 0x6e
	.string	"at"
	.value	0x517
	.long	0x3d5e
	.long	0x3de9
	.long	0x3df4
	.uleb128 0x2
	.long	0xa323
	.uleb128 0x1
	.long	0x3912
	.byte	0
	.uleb128 0x6e
	.string	"at"
	.value	0x52a
	.long	0x3d8c
	.long	0x3e06
	.long	0x3e11
	.uleb128 0x2
	.long	0xa34b
	.uleb128 0x1
	.long	0x3912
	.byte	0
	.uleb128 0x1e
	.long	.LASF215
	.byte	0x2
	.value	0x536
	.byte	0x7
	.long	0x3d5e
	.byte	0x1
	.long	0x3e27
	.long	0x3e2d
	.uleb128 0x2
	.long	0xa323
	.byte	0
	.uleb128 0x1e
	.long	.LASF215
	.byte	0x2
	.value	0x542
	.byte	0x7
	.long	0x3d8c
	.byte	0x1
	.long	0x3e43
	.long	0x3e49
	.uleb128 0x2
	.long	0xa34b
	.byte	0
	.uleb128 0x1e
	.long	.LASF218
	.byte	0x2
	.value	0x54e
	.byte	0x7
	.long	0x3d5e
	.byte	0x1
	.long	0x3e5f
	.long	0x3e65
	.uleb128 0x2
	.long	0xa323
	.byte	0
	.uleb128 0x1e
	.long	.LASF218
	.byte	0x2
	.value	0x55a
	.byte	0x7
	.long	0x3d8c
	.byte	0x1
	.long	0x3e7b
	.long	0x3e81
	.uleb128 0x2
	.long	0xa34b
	.byte	0
	.uleb128 0x1e
	.long	.LASF221
	.byte	0x2
	.value	0x569
	.byte	0x7
	.long	0xa27e
	.byte	0x1
	.long	0x3e97
	.long	0x3e9d
	.uleb128 0x2
	.long	0xa323
	.byte	0
	.uleb128 0x1e
	.long	.LASF221
	.byte	0x2
	.value	0x56e
	.byte	0x7
	.long	0xa297
	.byte	0x1
	.long	0x3eb3
	.long	0x3eb9
	.uleb128 0x2
	.long	0xa34b
	.byte	0
	.uleb128 0x2a
	.long	.LASF224
	.byte	0x2
	.value	0x57e
	.byte	0x7
	.byte	0x1
	.long	0x3ecb
	.long	0x3ed6
	.uleb128 0x2
	.long	0xa323
	.uleb128 0x1
	.long	0xa332
	.byte	0
	.uleb128 0x2a
	.long	.LASF224
	.byte	0x2
	.value	0x58f
	.byte	0x7
	.byte	0x1
	.long	0x3ee8
	.long	0x3ef3
	.uleb128 0x2
	.long	0xa323
	.uleb128 0x1
	.long	0xa355
	.byte	0
	.uleb128 0x2a
	.long	.LASF227
	.byte	0x2
	.value	0x5a7
	.byte	0x7
	.byte	0x1
	.long	0x3f05
	.long	0x3f0b
	.uleb128 0x2
	.long	0xa323
	.byte	0
	.uleb128 0x55
	.long	.LASF229
	.byte	0x7
	.byte	0x89
	.byte	0x5
	.long	0x3afe
	.byte	0x1
	.long	0x3f20
	.long	0x3f30
	.uleb128 0x2
	.long	0xa323
	.uleb128 0x1
	.long	0x3b27
	.uleb128 0x1
	.long	0xa332
	.byte	0
	.uleb128 0x1e
	.long	.LASF229
	.byte	0x2
	.value	0x5ee
	.byte	0x7
	.long	0x3afe
	.byte	0x1
	.long	0x3f46
	.long	0x3f56
	.uleb128 0x2
	.long	0xa323
	.uleb128 0x1
	.long	0x3b27
	.uleb128 0x1
	.long	0xa355
	.byte	0
	.uleb128 0x1e
	.long	.LASF229
	.byte	0x2
	.value	0x600
	.byte	0x7
	.long	0x3afe
	.byte	0x1
	.long	0x3f6c
	.long	0x3f7c
	.uleb128 0x2
	.long	0xa323
	.uleb128 0x1
	.long	0x3b27
	.uleb128 0x1
	.long	0x4357
	.byte	0
	.uleb128 0x1e
	.long	.LASF229
	.byte	0x2
	.value	0x61a
	.byte	0x7
	.long	0x3afe
	.byte	0x1
	.long	0x3f92
	.long	0x3fa7
	.uleb128 0x2
	.long	0xa323
	.uleb128 0x1
	.long	0x3b27
	.uleb128 0x1
	.long	0x3912
	.uleb128 0x1
	.long	0xa332
	.byte	0
	.uleb128 0x1e
	.long	.LASF234
	.byte	0x2
	.value	0x6f6
	.byte	0x7
	.long	0x3afe
	.byte	0x1
	.long	0x3fbd
	.long	0x3fc8
	.uleb128 0x2
	.long	0xa323
	.uleb128 0x1
	.long	0x3b27
	.byte	0
	.uleb128 0x1e
	.long	.LASF234
	.byte	0x2
	.value	0x712
	.byte	0x7
	.long	0x3afe
	.byte	0x1
	.long	0x3fde
	.long	0x3fee
	.uleb128 0x2
	.long	0xa323
	.uleb128 0x1
	.long	0x3b27
	.uleb128 0x1
	.long	0x3b27
	.byte	0
	.uleb128 0x2a
	.long	.LASF41
	.byte	0x2
	.value	0x72a
	.byte	0x7
	.byte	0x1
	.long	0x4000
	.long	0x400b
	.uleb128 0x2
	.long	0xa323
	.uleb128 0x1
	.long	0xa346
	.byte	0
	.uleb128 0x2a
	.long	.LASF238
	.byte	0x2
	.value	0x73d
	.byte	0x7
	.byte	0x1
	.long	0x401d
	.long	0x4023
	.uleb128 0x2
	.long	0xa323
	.byte	0
	.uleb128 0x2a
	.long	.LASF240
	.byte	0x2
	.value	0x7c3
	.byte	0x7
	.byte	0x2
	.long	0x4035
	.long	0x4045
	.uleb128 0x2
	.long	0xa323
	.uleb128 0x1
	.long	0x3912
	.uleb128 0x1
	.long	0xa332
	.byte	0
	.uleb128 0x2a
	.long	.LASF242
	.byte	0x2
	.value	0x7ce
	.byte	0x7
	.byte	0x2
	.long	0x4057
	.long	0x4062
	.uleb128 0x2
	.long	0xa323
	.uleb128 0x1
	.long	0x3912
	.byte	0
	.uleb128 0x2a
	.long	.LASF244
	.byte	0x7
	.value	0x112
	.byte	0x5
	.byte	0x2
	.long	0x4074
	.long	0x4084
	.uleb128 0x2
	.long	0xa323
	.uleb128 0x1
	.long	0x2c3
	.uleb128 0x1
	.long	0xa332
	.byte	0
	.uleb128 0x2a
	.long	.LASF246
	.byte	0x7
	.value	0x296
	.byte	0x5
	.byte	0x2
	.long	0x4096
	.long	0x40ab
	.uleb128 0x2
	.long	0xa323
	.uleb128 0x1
	.long	0x3afe
	.uleb128 0x1
	.long	0x3912
	.uleb128 0x1
	.long	0xa332
	.byte	0
	.uleb128 0x2a
	.long	.LASF248
	.byte	0x7
	.value	0x300
	.byte	0x5
	.byte	0x2
	.long	0x40bd
	.long	0x40cd
	.uleb128 0x2
	.long	0xa323
	.uleb128 0x1
	.long	0x3912
	.uleb128 0x1
	.long	0xa332
	.byte	0
	.uleb128 0x2a
	.long	.LASF250
	.byte	0x7
	.value	0x339
	.byte	0x5
	.byte	0x2
	.long	0x40df
	.long	0x40ea
	.uleb128 0x2
	.long	0xa323
	.uleb128 0x1
	.long	0x3912
	.byte	0
	.uleb128 0x1e
	.long	.LASF252
	.byte	0x7
	.value	0x396
	.byte	0x5
	.long	0x8f7a
	.byte	0x2
	.long	0x4100
	.long	0x4106
	.uleb128 0x2
	.long	0xa323
	.byte	0
	.uleb128 0x1e
	.long	.LASF254
	.byte	0x7
	.value	0x16f
	.byte	0x5
	.long	0x3afe
	.byte	0x2
	.long	0x411c
	.long	0x412c
	.uleb128 0x2
	.long	0xa323
	.uleb128 0x1
	.long	0x3b27
	.uleb128 0x1
	.long	0xa355
	.byte	0
	.uleb128 0x1e
	.long	.LASF256
	.byte	0x2
	.value	0x889
	.byte	0x7
	.long	0x3afe
	.byte	0x2
	.long	0x4142
	.long	0x4152
	.uleb128 0x2
	.long	0xa323
	.uleb128 0x1
	.long	0x3b27
	.uleb128 0x1
	.long	0xa355
	.byte	0
	.uleb128 0x1e
	.long	.LASF258
	.byte	0x2
	.value	0x890
	.byte	0x7
	.long	0x3912
	.byte	0x2
	.long	0x4168
	.long	0x4178
	.uleb128 0x2
	.long	0xa34b
	.uleb128 0x1
	.long	0x3912
	.uleb128 0x1
	.long	0x77aa
	.byte	0
	.uleb128 0x8c
	.long	.LASF260
	.value	0x89b
	.long	0x3912
	.long	0x4193
	.uleb128 0x1
	.long	0x3912
	.uleb128 0x1
	.long	0xa32d
	.byte	0
	.uleb128 0x8c
	.long	.LASF262
	.value	0x8a4
	.long	0x3912
	.long	0x41a9
	.uleb128 0x1
	.long	0xa35a
	.byte	0
	.uleb128 0x2a
	.long	.LASF264
	.byte	0x2
	.value	0x8b5
	.byte	0x7
	.byte	0x2
	.long	0x41bb
	.long	0x41c6
	.uleb128 0x2
	.long	0xa323
	.uleb128 0x1
	.long	0x386a
	.byte	0
	.uleb128 0x55
	.long	.LASF266
	.byte	0x7
	.byte	0xb9
	.byte	0x5
	.long	0x3afe
	.byte	0x2
	.long	0x41db
	.long	0x41e6
	.uleb128 0x2
	.long	0xa323
	.uleb128 0x1
	.long	0x3afe
	.byte	0
	.uleb128 0x55
	.long	.LASF266
	.byte	0x7
	.byte	0xc7
	.byte	0x5
	.long	0x3afe
	.byte	0x2
	.long	0x41fb
	.long	0x420b
	.uleb128 0x2
	.long	0xa323
	.uleb128 0x1
	.long	0x3afe
	.uleb128 0x1
	.long	0x3afe
	.byte	0
	.uleb128 0x3b
	.long	.LASF269
	.value	0x8cf
	.byte	0x7
	.long	0x421b
	.long	0x422b
	.uleb128 0x2
	.long	0xa323
	.uleb128 0x1
	.long	0xa33c
	.uleb128 0x1
	.long	0x642
	.byte	0
	.uleb128 0x3b
	.long	.LASF269
	.value	0x8db
	.byte	0x7
	.long	0x423b
	.long	0x424b
	.uleb128 0x2
	.long	0xa323
	.uleb128 0x1
	.long	0xa33c
	.uleb128 0x1
	.long	0x3b3
	.byte	0
	.uleb128 0x1d
	.long	.LASF431
	.byte	0x2
	.value	0x1e0
	.byte	0x2b
	.long	0x3482
	.uleb128 0x5f
	.long	.LASF432
	.byte	0x18
	.byte	0x2
	.value	0x742
	.byte	0xe
	.long	0x42fd
	.uleb128 0x51
	.long	.LASF433
	.value	0x744
	.byte	0xa
	.long	0x386a
	.byte	0
	.uleb128 0x51
	.long	.LASF434
	.value	0x745
	.byte	0xc
	.long	0x3912
	.byte	0x8
	.uleb128 0x51
	.long	.LASF435
	.value	0x746
	.byte	0x9
	.long	0xa5b7
	.byte	0x10
	.uleb128 0x3b
	.long	.LASF432
	.value	0x749
	.byte	0x2
	.long	0x429d
	.long	0x42b2
	.uleb128 0x2
	.long	0xa5bc
	.uleb128 0x1
	.long	0x386a
	.uleb128 0x1
	.long	0x3912
	.uleb128 0x1
	.long	0xa5b7
	.byte	0
	.uleb128 0x3b
	.long	.LASF436
	.value	0x74e
	.byte	0x2
	.long	0x42c2
	.long	0x42c8
	.uleb128 0x2
	.long	0xa5bc
	.byte	0
	.uleb128 0x66
	.long	.LASF25
	.value	0x756
	.byte	0x2
	.long	0x386a
	.long	0x42dc
	.long	0x42e2
	.uleb128 0x2
	.long	0xa5bc
	.byte	0
	.uleb128 0xb0
	.long	.LASF432
	.byte	0x2
	.value	0x75e
	.byte	0x2
	.byte	0x3
	.long	0x42f1
	.uleb128 0x2
	.long	0xa5bc
	.uleb128 0x1
	.long	0xa5c6
	.byte	0
	.byte	0
	.uleb128 0x7
	.long	0x4258
	.uleb128 0x2a
	.long	.LASF437
	.byte	0x7
	.value	0x235
	.byte	0x7
	.byte	0x2
	.long	0x4323
	.long	0x432e
	.uleb128 0x47
	.long	.LASF427
	.long	0x4323
	.uleb128 0x48
	.long	0xa29c
	.byte	0
	.uleb128 0x2
	.long	0xa323
	.uleb128 0x1
	.long	0xa29c
	.byte	0
	.uleb128 0x11
	.string	"_Tp"
	.long	0xa0fa
	.uleb128 0x65
	.long	.LASF141
	.long	0x32e9
	.byte	0
	.uleb128 0x7
	.long	0x37e5
	.uleb128 0x8
	.long	.LASF274
	.byte	0x13
	.byte	0xad
	.byte	0xb
	.long	0x37cf
	.uleb128 0x7
	.long	0x4346
	.uleb128 0x30
	.long	.LASF438
	.uleb128 0x30
	.long	.LASF439
	.uleb128 0x30
	.long	.LASF440
	.uleb128 0x1b
	.long	.LASF441
	.byte	0x1
	.byte	0x16
	.byte	0xd4
	.byte	0xc
	.long	0x43a1
	.uleb128 0x8
	.long	.LASF442
	.byte	0x16
	.byte	0xd8
	.byte	0x2b
	.long	0x635
	.uleb128 0x8
	.long	.LASF70
	.byte	0x16
	.byte	0xd9
	.byte	0x2b
	.long	0xa1a2
	.uleb128 0x8
	.long	.LASF71
	.byte	0x16
	.byte	0xda
	.byte	0x2b
	.long	0xa1b1
	.uleb128 0xc
	.long	.LASF443
	.long	0xa1a2
	.byte	0
	.uleb128 0x3e
	.long	.LASF444
	.byte	0x1
	.byte	0x6
	.byte	0x3f
	.long	0x453f
	.uleb128 0x21
	.long	.LASF60
	.byte	0x6
	.byte	0x58
	.byte	0x7
	.long	.LASF445
	.byte	0x1
	.long	0x43c2
	.long	0x43c8
	.uleb128 0x2
	.long	0xa37d
	.byte	0
	.uleb128 0x21
	.long	.LASF60
	.byte	0x6
	.byte	0x5c
	.byte	0x7
	.long	.LASF446
	.byte	0x1
	.long	0x43dd
	.long	0x43e8
	.uleb128 0x2
	.long	0xa37d
	.uleb128 0x1
	.long	0xa387
	.byte	0
	.uleb128 0x4f
	.long	.LASF36
	.byte	0x6
	.byte	0x64
	.byte	0x18
	.long	.LASF447
	.long	0xa38c
	.long	0x4400
	.long	0x440b
	.uleb128 0x2
	.long	0xa37d
	.uleb128 0x1
	.long	0xa387
	.byte	0
	.uleb128 0x21
	.long	.LASF66
	.byte	0x6
	.byte	0x68
	.byte	0x7
	.long	.LASF448
	.byte	0x1
	.long	0x4420
	.long	0x4426
	.uleb128 0x2
	.long	0xa37d
	.byte	0
	.uleb128 0x26
	.long	.LASF70
	.byte	0x6
	.byte	0x46
	.byte	0x1a
	.long	0xa391
	.uleb128 0x22
	.long	.LASF68
	.byte	0x6
	.byte	0x6b
	.byte	0x7
	.long	.LASF449
	.long	0x4426
	.byte	0x1
	.long	0x444b
	.long	0x4456
	.uleb128 0x2
	.long	0xa39b
	.uleb128 0x1
	.long	0x4456
	.byte	0
	.uleb128 0x26
	.long	.LASF71
	.byte	0x6
	.byte	0x48
	.byte	0x1a
	.long	0xa3a5
	.uleb128 0x26
	.long	.LASF72
	.byte	0x6
	.byte	0x47
	.byte	0x1a
	.long	0x77a5
	.uleb128 0x22
	.long	.LASF68
	.byte	0x6
	.byte	0x6f
	.byte	0x7
	.long	.LASF450
	.long	0x4462
	.byte	0x1
	.long	0x4487
	.long	0x4492
	.uleb128 0x2
	.long	0xa39b
	.uleb128 0x1
	.long	0x4492
	.byte	0
	.uleb128 0x26
	.long	.LASF74
	.byte	0x6
	.byte	0x49
	.byte	0x1a
	.long	0xa3aa
	.uleb128 0x22
	.long	.LASF75
	.byte	0x6
	.byte	0x81
	.byte	0x7
	.long	.LASF451
	.long	0xa391
	.byte	0x1
	.long	0x44b7
	.long	0x44c7
	.uleb128 0x2
	.long	0xa37d
	.uleb128 0x1
	.long	0x44c7
	.uleb128 0x1
	.long	0x8fc9
	.byte	0
	.uleb128 0x26
	.long	.LASF77
	.byte	0x6
	.byte	0x43
	.byte	0x1f
	.long	0x2c3
	.uleb128 0x21
	.long	.LASF78
	.byte	0x6
	.byte	0xa7
	.byte	0x7
	.long	.LASF452
	.byte	0x1
	.long	0x44e8
	.long	0x44f8
	.uleb128 0x2
	.long	0xa37d
	.uleb128 0x1
	.long	0xa391
	.uleb128 0x1
	.long	0x44c7
	.byte	0
	.uleb128 0x22
	.long	.LASF80
	.byte	0x6
	.byte	0xc2
	.byte	0x7
	.long	.LASF453
	.long	0x44c7
	.byte	0x1
	.long	0x4511
	.long	0x4517
	.uleb128 0x2
	.long	0xa39b
	.byte	0
	.uleb128 0x42
	.long	.LASF82
	.byte	0x6
	.byte	0xf2
	.byte	0x7
	.long	.LASF454
	.long	0x44c7
	.long	0x452f
	.long	0x4535
	.uleb128 0x2
	.long	0xa39b
	.byte	0
	.uleb128 0x11
	.string	"_Tp"
	.long	0x56
	.byte	0
	.uleb128 0x7
	.long	0x43a1
	.uleb128 0x3e
	.long	.LASF455
	.byte	0x1
	.byte	0x5
	.byte	0x85
	.long	0x45c8
	.uleb128 0x46
	.long	0x43a1
	.byte	0x1
	.uleb128 0x21
	.long	.LASF85
	.byte	0x5
	.byte	0xa8
	.byte	0x7
	.long	.LASF456
	.byte	0x1
	.long	0x456b
	.long	0x4571
	.uleb128 0x2
	.long	0xa3af
	.byte	0
	.uleb128 0x21
	.long	.LASF85
	.byte	0x5
	.byte	0xac
	.byte	0x7
	.long	.LASF457
	.byte	0x1
	.long	0x4586
	.long	0x4591
	.uleb128 0x2
	.long	0xa3af
	.uleb128 0x1
	.long	0xa3b9
	.byte	0
	.uleb128 0x4f
	.long	.LASF36
	.byte	0x5
	.byte	0xb1
	.byte	0x12
	.long	.LASF458
	.long	0xa3be
	.long	0x45a9
	.long	0x45b4
	.uleb128 0x2
	.long	0xa3af
	.uleb128 0x1
	.long	0xa3b9
	.byte	0
	.uleb128 0x6b
	.long	.LASF89
	.long	.LASF459
	.long	0x45c1
	.uleb128 0x2
	.long	0xa3af
	.byte	0
	.byte	0
	.uleb128 0x7
	.long	0x4544
	.uleb128 0x5f
	.long	.LASF460
	.byte	0x1
	.byte	0x8
	.value	0x248
	.byte	0xc
	.long	0x46cb
	.uleb128 0x1d
	.long	.LASF70
	.byte	0x8
	.value	0x251
	.byte	0xd
	.long	0xa391
	.uleb128 0x16
	.long	.LASF75
	.byte	0x8
	.value	0x27d
	.byte	0x7
	.long	.LASF461
	.long	0x45db
	.long	0x4608
	.uleb128 0x1
	.long	0xa3c3
	.uleb128 0x1
	.long	0x461a
	.byte	0
	.uleb128 0x1d
	.long	.LASF92
	.byte	0x8
	.value	0x24b
	.byte	0xd
	.long	0x4544
	.uleb128 0x7
	.long	0x4608
	.uleb128 0x1d
	.long	.LASF77
	.byte	0x8
	.value	0x260
	.byte	0xd
	.long	0x2c3
	.uleb128 0x16
	.long	.LASF75
	.byte	0x8
	.value	0x28c
	.byte	0x7
	.long	.LASF462
	.long	0x45db
	.long	0x464c
	.uleb128 0x1
	.long	0xa3c3
	.uleb128 0x1
	.long	0x461a
	.uleb128 0x1
	.long	0x464c
	.byte	0
	.uleb128 0x1d
	.long	.LASF95
	.byte	0x8
	.value	0x25a
	.byte	0xd
	.long	0x8fc9
	.uleb128 0x40
	.long	.LASF78
	.byte	0x8
	.value	0x2b0
	.byte	0x7
	.long	.LASF463
	.long	0x467a
	.uleb128 0x1
	.long	0xa3c3
	.uleb128 0x1
	.long	0x45db
	.uleb128 0x1
	.long	0x461a
	.byte	0
	.uleb128 0x16
	.long	.LASF80
	.byte	0x8
	.value	0x2ed
	.byte	0x7
	.long	.LASF464
	.long	0x461a
	.long	0x4695
	.uleb128 0x1
	.long	0xa3c8
	.byte	0
	.uleb128 0x16
	.long	.LASF97
	.byte	0x8
	.value	0x2fd
	.byte	0x7
	.long	.LASF465
	.long	0x4608
	.long	0x46b0
	.uleb128 0x1
	.long	0xa3c8
	.byte	0
	.uleb128 0x1d
	.long	.LASF7
	.byte	0x8
	.value	0x24e
	.byte	0xd
	.long	0x56
	.uleb128 0x1d
	.long	.LASF99
	.byte	0x8
	.value	0x26f
	.byte	0x8
	.long	0x4544
	.byte	0
	.uleb128 0x1b
	.long	.LASF466
	.byte	0x18
	.byte	0x2
	.byte	0x5b
	.byte	0xc
	.long	0x4a6c
	.uleb128 0x1b
	.long	.LASF101
	.byte	0x18
	.byte	0x2
	.byte	0x62
	.byte	0xe
	.long	0x477e
	.uleb128 0xf
	.long	.LASF103
	.byte	0x2
	.byte	0x64
	.byte	0xa
	.long	0x4783
	.byte	0
	.uleb128 0xf
	.long	.LASF104
	.byte	0x2
	.byte	0x65
	.byte	0xa
	.long	0x4783
	.byte	0x8
	.uleb128 0xf
	.long	.LASF105
	.byte	0x2
	.byte	0x66
	.byte	0xa
	.long	0x4783
	.byte	0x10
	.uleb128 0x20
	.long	.LASF101
	.byte	0x2
	.byte	0x69
	.byte	0x2
	.long	.LASF467
	.long	0x4720
	.long	0x4726
	.uleb128 0x2
	.long	0xa3d7
	.byte	0
	.uleb128 0x20
	.long	.LASF101
	.byte	0x2
	.byte	0x6f
	.byte	0x2
	.long	.LASF468
	.long	0x473a
	.long	0x4745
	.uleb128 0x2
	.long	0xa3d7
	.uleb128 0x1
	.long	0xa3e1
	.byte	0
	.uleb128 0x20
	.long	.LASF108
	.byte	0x2
	.byte	0x77
	.byte	0x2
	.long	.LASF469
	.long	0x4759
	.long	0x4764
	.uleb128 0x2
	.long	0xa3d7
	.uleb128 0x1
	.long	0xa3e6
	.byte	0
	.uleb128 0x64
	.long	.LASF110
	.byte	0x80
	.long	.LASF470
	.long	0x4772
	.uleb128 0x2
	.long	0xa3d7
	.uleb128 0x1
	.long	0xa3eb
	.byte	0
	.byte	0
	.uleb128 0x7
	.long	0x46d8
	.uleb128 0x8
	.long	.LASF70
	.byte	0x2
	.byte	0x60
	.byte	0x9
	.long	0x8d0d
	.uleb128 0x1b
	.long	.LASF111
	.byte	0x18
	.byte	0x2
	.byte	0x8b
	.byte	0xe
	.long	0x4855
	.uleb128 0x33
	.long	0x4544
	.uleb128 0x33
	.long	0x46d8
	.uleb128 0x20
	.long	.LASF111
	.byte	0x2
	.byte	0x8f
	.byte	0x2
	.long	.LASF471
	.long	0x47ba
	.long	0x47c0
	.uleb128 0x2
	.long	0xa3f0
	.byte	0
	.uleb128 0x20
	.long	.LASF111
	.byte	0x2
	.byte	0x98
	.byte	0x2
	.long	.LASF472
	.long	0x47d4
	.long	0x47df
	.uleb128 0x2
	.long	0xa3f0
	.uleb128 0x1
	.long	0xa3fa
	.byte	0
	.uleb128 0x20
	.long	.LASF111
	.byte	0x2
	.byte	0xa0
	.byte	0x2
	.long	.LASF473
	.long	0x47f3
	.long	0x47fe
	.uleb128 0x2
	.long	0xa3f0
	.uleb128 0x1
	.long	0xa3ff
	.byte	0
	.uleb128 0x20
	.long	.LASF111
	.byte	0x2
	.byte	0xa5
	.byte	0x2
	.long	.LASF474
	.long	0x4812
	.long	0x481d
	.uleb128 0x2
	.long	0xa3f0
	.uleb128 0x1
	.long	0xa404
	.byte	0
	.uleb128 0x20
	.long	.LASF111
	.byte	0x2
	.byte	0xaa
	.byte	0x2
	.long	.LASF475
	.long	0x4831
	.long	0x4841
	.uleb128 0x2
	.long	0xa3f0
	.uleb128 0x1
	.long	0xa404
	.uleb128 0x1
	.long	0xa3ff
	.byte	0
	.uleb128 0x6c
	.long	.LASF476
	.long	.LASF478
	.long	0x484e
	.uleb128 0x2
	.long	0xa3f0
	.byte	0
	.byte	0
	.uleb128 0x8
	.long	.LASF117
	.byte	0x2
	.byte	0x5e
	.byte	0x15
	.long	0x8d3e
	.uleb128 0x7
	.long	0x4855
	.uleb128 0x34
	.long	.LASF118
	.value	0x133
	.byte	0x7
	.long	.LASF479
	.long	0xa409
	.long	0x487e
	.long	0x4884
	.uleb128 0x2
	.long	0xa40e
	.byte	0
	.uleb128 0x34
	.long	.LASF118
	.value	0x138
	.byte	0x7
	.long	.LASF480
	.long	0xa3fa
	.long	0x489c
	.long	0x48a2
	.uleb128 0x2
	.long	0xa418
	.byte	0
	.uleb128 0x1d
	.long	.LASF92
	.byte	0x2
	.value	0x12f
	.byte	0x16
	.long	0x4544
	.uleb128 0x7
	.long	0x48a2
	.uleb128 0x34
	.long	.LASF121
	.value	0x13d
	.byte	0x7
	.long	.LASF481
	.long	0x48a2
	.long	0x48cc
	.long	0x48d2
	.uleb128 0x2
	.long	0xa418
	.byte	0
	.uleb128 0x50
	.long	.LASF123
	.value	0x141
	.long	.LASF482
	.long	0x48e5
	.long	0x48eb
	.uleb128 0x2
	.long	0xa40e
	.byte	0
	.uleb128 0x1c
	.long	.LASF123
	.value	0x147
	.long	.LASF483
	.long	0x48fe
	.long	0x4909
	.uleb128 0x2
	.long	0xa40e
	.uleb128 0x1
	.long	0xa41d
	.byte	0
	.uleb128 0x1c
	.long	.LASF123
	.value	0x14d
	.long	.LASF484
	.long	0x491c
	.long	0x4927
	.uleb128 0x2
	.long	0xa40e
	.uleb128 0x1
	.long	0x2c3
	.byte	0
	.uleb128 0x1c
	.long	.LASF123
	.value	0x153
	.long	.LASF485
	.long	0x493a
	.long	0x494a
	.uleb128 0x2
	.long	0xa40e
	.uleb128 0x1
	.long	0x2c3
	.uleb128 0x1
	.long	0xa41d
	.byte	0
	.uleb128 0x50
	.long	.LASF123
	.value	0x158
	.long	.LASF486
	.long	0x495d
	.long	0x4968
	.uleb128 0x2
	.long	0xa40e
	.uleb128 0x1
	.long	0xa422
	.byte	0
	.uleb128 0x1c
	.long	.LASF123
	.value	0x15d
	.long	.LASF487
	.long	0x497b
	.long	0x4986
	.uleb128 0x2
	.long	0xa40e
	.uleb128 0x1
	.long	0xa404
	.byte	0
	.uleb128 0x1c
	.long	.LASF123
	.value	0x161
	.long	.LASF488
	.long	0x4999
	.long	0x49a9
	.uleb128 0x2
	.long	0xa40e
	.uleb128 0x1
	.long	0xa422
	.uleb128 0x1
	.long	0xa41d
	.byte	0
	.uleb128 0x1c
	.long	.LASF123
	.value	0x16f
	.long	.LASF489
	.long	0x49bc
	.long	0x49cc
	.uleb128 0x2
	.long	0xa40e
	.uleb128 0x1
	.long	0xa41d
	.uleb128 0x1
	.long	0xa422
	.byte	0
	.uleb128 0x1c
	.long	.LASF132
	.value	0x175
	.long	.LASF490
	.long	0x49df
	.long	0x49e5
	.uleb128 0x2
	.long	0xa40e
	.byte	0
	.uleb128 0x51
	.long	.LASF134
	.value	0x17e
	.byte	0x14
	.long	0x478f
	.byte	0
	.uleb128 0x34
	.long	.LASF135
	.value	0x182
	.byte	0x7
	.long	.LASF491
	.long	0x4783
	.long	0x4a0a
	.long	0x4a15
	.uleb128 0x2
	.long	0xa40e
	.uleb128 0x1
	.long	0x2c3
	.byte	0
	.uleb128 0x1c
	.long	.LASF137
	.value	0x18a
	.long	.LASF492
	.long	0x4a28
	.long	0x4a38
	.uleb128 0x2
	.long	0xa40e
	.uleb128 0x1
	.long	0x4783
	.uleb128 0x1
	.long	0x2c3
	.byte	0
	.uleb128 0x10
	.long	.LASF139
	.byte	0x2
	.value	0x195
	.byte	0x7
	.long	.LASF493
	.byte	0x2
	.long	0x4a4e
	.long	0x4a59
	.uleb128 0x2
	.long	0xa40e
	.uleb128 0x1
	.long	0x2c3
	.byte	0
	.uleb128 0x11
	.string	"_Tp"
	.long	0x56
	.uleb128 0xc
	.long	.LASF141
	.long	0x4544
	.byte	0
	.uleb128 0x7
	.long	0x46cb
	.uleb128 0x1b
	.long	.LASF494
	.byte	0x1
	.byte	0x13
	.byte	0xa9
	.byte	0xc
	.long	0x4a94
	.uleb128 0x8
	.long	.LASF143
	.byte	0x13
	.byte	0xaa
	.byte	0xd
	.long	0x4544
	.uleb128 0xc
	.long	.LASF144
	.long	0x4544
	.byte	0
	.uleb128 0x4b
	.long	.LASF495
	.byte	0x18
	.byte	0x2
	.value	0x1cc
	.long	0x563c
	.uleb128 0x18
	.byte	0x2
	.value	0x1cc
	.byte	0xb
	.long	0x49f2
	.uleb128 0x18
	.byte	0x2
	.value	0x1cc
	.byte	0xb
	.long	0x4a15
	.uleb128 0x18
	.byte	0x2
	.value	0x1cc
	.byte	0xb
	.long	0x49e5
	.uleb128 0x18
	.byte	0x2
	.value	0x1cc
	.byte	0xb
	.long	0x4884
	.uleb128 0x18
	.byte	0x2
	.value	0x1cc
	.byte	0xb
	.long	0x4866
	.uleb128 0x18
	.byte	0x2
	.value	0x1cc
	.byte	0xb
	.long	0x48b4
	.uleb128 0x46
	.long	0x46cb
	.byte	0x2
	.uleb128 0x16
	.long	.LASF146
	.byte	0x2
	.value	0x1f6
	.byte	0x7
	.long	.LASF496
	.long	0x8f7a
	.long	0x4af8
	.uleb128 0x1
	.long	0x642
	.byte	0
	.uleb128 0x16
	.long	.LASF146
	.byte	0x2
	.value	0x1ff
	.byte	0x7
	.long	.LASF497
	.long	0x8f7a
	.long	0x4b13
	.uleb128 0x1
	.long	0x3b3
	.byte	0
	.uleb128 0x6d
	.long	.LASF340
	.long	.LASF498
	.long	0x8f7a
	.uleb128 0x13
	.long	.LASF70
	.byte	0x2
	.value	0x1e6
	.byte	0x29
	.long	0x4783
	.uleb128 0x16
	.long	.LASF149
	.byte	0x2
	.value	0x20c
	.byte	0x7
	.long	.LASF499
	.long	0x4b20
	.long	0x4b57
	.uleb128 0x1
	.long	0x4b20
	.uleb128 0x1
	.long	0x4b20
	.uleb128 0x1
	.long	0x4b20
	.uleb128 0x1
	.long	0xa427
	.byte	0
	.uleb128 0x1d
	.long	.LASF117
	.byte	0x2
	.value	0x1e1
	.byte	0x2f
	.long	0x4855
	.uleb128 0x7
	.long	0x4b57
	.uleb128 0x52
	.long	.LASF151
	.value	0x227
	.long	.LASF500
	.long	0x4b7c
	.long	0x4b82
	.uleb128 0x2
	.long	0xa42c
	.byte	0
	.uleb128 0x43
	.long	.LASF151
	.byte	0x2
	.value	0x232
	.long	.LASF501
	.long	0x4b96
	.long	0x4ba1
	.uleb128 0x2
	.long	0xa42c
	.uleb128 0x1
	.long	0xa436
	.byte	0
	.uleb128 0x13
	.long	.LASF92
	.byte	0x2
	.value	0x1f1
	.byte	0x1a
	.long	0x4544
	.uleb128 0x7
	.long	0x4ba1
	.uleb128 0x43
	.long	.LASF151
	.byte	0x2
	.value	0x240
	.long	.LASF502
	.long	0x4bc7
	.long	0x4bd7
	.uleb128 0x2
	.long	0xa42c
	.uleb128 0x1
	.long	0x4bd7
	.uleb128 0x1
	.long	0xa436
	.byte	0
	.uleb128 0x13
	.long	.LASF77
	.byte	0x2
	.value	0x1ef
	.byte	0x1a
	.long	0x2c3
	.uleb128 0x10
	.long	.LASF151
	.byte	0x2
	.value	0x24d
	.byte	0x7
	.long	.LASF503
	.byte	0x1
	.long	0x4bfa
	.long	0x4c0f
	.uleb128 0x2
	.long	0xa42c
	.uleb128 0x1
	.long	0x4bd7
	.uleb128 0x1
	.long	0xa43b
	.uleb128 0x1
	.long	0xa436
	.byte	0
	.uleb128 0x13
	.long	.LASF7
	.byte	0x2
	.value	0x1e5
	.byte	0x17
	.long	0x56
	.uleb128 0x7
	.long	0x4c0f
	.uleb128 0x10
	.long	.LASF151
	.byte	0x2
	.value	0x26d
	.byte	0x7
	.long	.LASF504
	.byte	0x1
	.long	0x4c37
	.long	0x4c42
	.uleb128 0x2
	.long	0xa42c
	.uleb128 0x1
	.long	0xa440
	.byte	0
	.uleb128 0x52
	.long	.LASF151
	.value	0x280
	.long	.LASF505
	.long	0x4c55
	.long	0x4c60
	.uleb128 0x2
	.long	0xa42c
	.uleb128 0x1
	.long	0xa445
	.byte	0
	.uleb128 0x10
	.long	.LASF151
	.byte	0x2
	.value	0x284
	.byte	0x7
	.long	.LASF506
	.byte	0x1
	.long	0x4c76
	.long	0x4c86
	.uleb128 0x2
	.long	0xa42c
	.uleb128 0x1
	.long	0xa440
	.uleb128 0x1
	.long	0xa44a
	.byte	0
	.uleb128 0x1c
	.long	.LASF151
	.value	0x28f
	.long	.LASF507
	.long	0x4c99
	.long	0x4cae
	.uleb128 0x2
	.long	0xa42c
	.uleb128 0x1
	.long	0xa445
	.uleb128 0x1
	.long	0xa436
	.uleb128 0x1
	.long	0x642
	.byte	0
	.uleb128 0x1c
	.long	.LASF151
	.value	0x294
	.long	.LASF508
	.long	0x4cc1
	.long	0x4cd6
	.uleb128 0x2
	.long	0xa42c
	.uleb128 0x1
	.long	0xa445
	.uleb128 0x1
	.long	0xa436
	.uleb128 0x1
	.long	0x3b3
	.byte	0
	.uleb128 0x10
	.long	.LASF151
	.byte	0x2
	.value	0x2a7
	.byte	0x7
	.long	.LASF509
	.byte	0x1
	.long	0x4cec
	.long	0x4cfc
	.uleb128 0x2
	.long	0xa42c
	.uleb128 0x1
	.long	0xa445
	.uleb128 0x1
	.long	0xa44a
	.byte	0
	.uleb128 0x10
	.long	.LASF151
	.byte	0x2
	.value	0x2ba
	.byte	0x7
	.long	.LASF510
	.byte	0x1
	.long	0x4d12
	.long	0x4d22
	.uleb128 0x2
	.long	0xa42c
	.uleb128 0x1
	.long	0x5652
	.uleb128 0x1
	.long	0xa436
	.byte	0
	.uleb128 0x10
	.long	.LASF163
	.byte	0x2
	.value	0x316
	.byte	0x7
	.long	.LASF511
	.byte	0x1
	.long	0x4d38
	.long	0x4d3e
	.uleb128 0x2
	.long	0xa42c
	.byte	0
	.uleb128 0x22
	.long	.LASF36
	.byte	0x7
	.byte	0xd6
	.byte	0x5
	.long	.LASF512
	.long	0xa44f
	.byte	0x1
	.long	0x4d57
	.long	0x4d62
	.uleb128 0x2
	.long	0xa42c
	.uleb128 0x1
	.long	0xa440
	.byte	0
	.uleb128 0x6
	.long	.LASF36
	.byte	0x2
	.value	0x337
	.byte	0x7
	.long	.LASF513
	.long	0xa44f
	.byte	0x1
	.long	0x4d7c
	.long	0x4d87
	.uleb128 0x2
	.long	0xa42c
	.uleb128 0x1
	.long	0xa445
	.byte	0
	.uleb128 0x6
	.long	.LASF36
	.byte	0x2
	.value	0x34d
	.byte	0x7
	.long	.LASF514
	.long	0xa44f
	.byte	0x1
	.long	0x4da1
	.long	0x4dac
	.uleb128 0x2
	.long	0xa42c
	.uleb128 0x1
	.long	0x5652
	.byte	0
	.uleb128 0x10
	.long	.LASF168
	.byte	0x2
	.value	0x361
	.byte	0x7
	.long	.LASF515
	.byte	0x1
	.long	0x4dc2
	.long	0x4dd2
	.uleb128 0x2
	.long	0xa42c
	.uleb128 0x1
	.long	0x4bd7
	.uleb128 0x1
	.long	0xa43b
	.byte	0
	.uleb128 0x10
	.long	.LASF168
	.byte	0x2
	.value	0x390
	.byte	0x7
	.long	.LASF516
	.byte	0x1
	.long	0x4de8
	.long	0x4df3
	.uleb128 0x2
	.long	0xa42c
	.uleb128 0x1
	.long	0x5652
	.byte	0
	.uleb128 0x13
	.long	.LASF171
	.byte	0x2
	.value	0x1ea
	.byte	0x3d
	.long	0x8d5e
	.uleb128 0x6
	.long	.LASF172
	.byte	0x2
	.value	0x3dc
	.byte	0x7
	.long	.LASF517
	.long	0x4df3
	.byte	0x1
	.long	0x4e1a
	.long	0x4e20
	.uleb128 0x2
	.long	0xa42c
	.byte	0
	.uleb128 0x13
	.long	.LASF174
	.byte	0x2
	.value	0x1ec
	.byte	0x7
	.long	0x8d63
	.uleb128 0x6
	.long	.LASF172
	.byte	0x2
	.value	0x3e6
	.byte	0x7
	.long	.LASF518
	.long	0x4e20
	.byte	0x1
	.long	0x4e47
	.long	0x4e4d
	.uleb128 0x2
	.long	0xa454
	.byte	0
	.uleb128 0x36
	.string	"end"
	.value	0x3f0
	.long	.LASF519
	.long	0x4df3
	.long	0x4e64
	.long	0x4e6a
	.uleb128 0x2
	.long	0xa42c
	.byte	0
	.uleb128 0x36
	.string	"end"
	.value	0x3fa
	.long	.LASF520
	.long	0x4e20
	.long	0x4e81
	.long	0x4e87
	.uleb128 0x2
	.long	0xa454
	.byte	0
	.uleb128 0x13
	.long	.LASF178
	.byte	0x2
	.value	0x1ee
	.byte	0x30
	.long	0x5744
	.uleb128 0x6
	.long	.LASF179
	.byte	0x2
	.value	0x404
	.byte	0x7
	.long	.LASF521
	.long	0x4e87
	.byte	0x1
	.long	0x4eae
	.long	0x4eb4
	.uleb128 0x2
	.long	0xa42c
	.byte	0
	.uleb128 0x13
	.long	.LASF181
	.byte	0x2
	.value	0x1ed
	.byte	0x35
	.long	0x5749
	.uleb128 0x6
	.long	.LASF179
	.byte	0x2
	.value	0x40e
	.byte	0x7
	.long	.LASF522
	.long	0x4eb4
	.byte	0x1
	.long	0x4edb
	.long	0x4ee1
	.uleb128 0x2
	.long	0xa454
	.byte	0
	.uleb128 0x6
	.long	.LASF183
	.byte	0x2
	.value	0x418
	.byte	0x7
	.long	.LASF523
	.long	0x4e87
	.byte	0x1
	.long	0x4efb
	.long	0x4f01
	.uleb128 0x2
	.long	0xa42c
	.byte	0
	.uleb128 0x6
	.long	.LASF183
	.byte	0x2
	.value	0x422
	.byte	0x7
	.long	.LASF524
	.long	0x4eb4
	.byte	0x1
	.long	0x4f1b
	.long	0x4f21
	.uleb128 0x2
	.long	0xa454
	.byte	0
	.uleb128 0x6
	.long	.LASF186
	.byte	0x2
	.value	0x42d
	.byte	0x7
	.long	.LASF525
	.long	0x4e20
	.byte	0x1
	.long	0x4f3b
	.long	0x4f41
	.uleb128 0x2
	.long	0xa454
	.byte	0
	.uleb128 0x6
	.long	.LASF188
	.byte	0x2
	.value	0x437
	.byte	0x7
	.long	.LASF526
	.long	0x4e20
	.byte	0x1
	.long	0x4f5b
	.long	0x4f61
	.uleb128 0x2
	.long	0xa454
	.byte	0
	.uleb128 0x6
	.long	.LASF190
	.byte	0x2
	.value	0x441
	.byte	0x7
	.long	.LASF527
	.long	0x4eb4
	.byte	0x1
	.long	0x4f7b
	.long	0x4f81
	.uleb128 0x2
	.long	0xa454
	.byte	0
	.uleb128 0x6
	.long	.LASF192
	.byte	0x2
	.value	0x44b
	.byte	0x7
	.long	.LASF528
	.long	0x4eb4
	.byte	0x1
	.long	0x4f9b
	.long	0x4fa1
	.uleb128 0x2
	.long	0xa454
	.byte	0
	.uleb128 0x6
	.long	.LASF194
	.byte	0x2
	.value	0x453
	.byte	0x7
	.long	.LASF529
	.long	0x4bd7
	.byte	0x1
	.long	0x4fbb
	.long	0x4fc1
	.uleb128 0x2
	.long	0xa454
	.byte	0
	.uleb128 0x6
	.long	.LASF80
	.byte	0x2
	.value	0x45e
	.byte	0x7
	.long	.LASF530
	.long	0x4bd7
	.byte	0x1
	.long	0x4fdb
	.long	0x4fe1
	.uleb128 0x2
	.long	0xa454
	.byte	0
	.uleb128 0x10
	.long	.LASF197
	.byte	0x2
	.value	0x46d
	.byte	0x7
	.long	.LASF531
	.byte	0x1
	.long	0x4ff7
	.long	0x5002
	.uleb128 0x2
	.long	0xa42c
	.uleb128 0x1
	.long	0x4bd7
	.byte	0
	.uleb128 0x10
	.long	.LASF197
	.byte	0x2
	.value	0x482
	.byte	0x7
	.long	.LASF532
	.byte	0x1
	.long	0x5018
	.long	0x5028
	.uleb128 0x2
	.long	0xa42c
	.uleb128 0x1
	.long	0x4bd7
	.uleb128 0x1
	.long	0xa43b
	.byte	0
	.uleb128 0x10
	.long	.LASF200
	.byte	0x2
	.value	0x4a4
	.byte	0x7
	.long	.LASF533
	.byte	0x1
	.long	0x503e
	.long	0x5044
	.uleb128 0x2
	.long	0xa42c
	.byte	0
	.uleb128 0x6
	.long	.LASF202
	.byte	0x2
	.value	0x4ae
	.byte	0x7
	.long	.LASF534
	.long	0x4bd7
	.byte	0x1
	.long	0x505e
	.long	0x5064
	.uleb128 0x2
	.long	0xa454
	.byte	0
	.uleb128 0x6
	.long	.LASF204
	.byte	0x2
	.value	0x4bd
	.byte	0x7
	.long	.LASF535
	.long	0x8f7a
	.byte	0x1
	.long	0x507e
	.long	0x5084
	.uleb128 0x2
	.long	0xa454
	.byte	0
	.uleb128 0x21
	.long	.LASF206
	.byte	0x7
	.byte	0x46
	.byte	0x5
	.long	.LASF536
	.byte	0x1
	.long	0x5099
	.long	0x50a4
	.uleb128 0x2
	.long	0xa42c
	.uleb128 0x1
	.long	0x4bd7
	.byte	0
	.uleb128 0x13
	.long	.LASF71
	.byte	0x2
	.value	0x1e8
	.byte	0x32
	.long	0x8d19
	.uleb128 0x6
	.long	.LASF208
	.byte	0x2
	.value	0x4e3
	.byte	0x7
	.long	.LASF537
	.long	0x50a4
	.byte	0x1
	.long	0x50cb
	.long	0x50d6
	.uleb128 0x2
	.long	0xa42c
	.uleb128 0x1
	.long	0x4bd7
	.byte	0
	.uleb128 0x13
	.long	.LASF74
	.byte	0x2
	.value	0x1e9
	.byte	0x37
	.long	0x8d25
	.uleb128 0x6
	.long	.LASF208
	.byte	0x2
	.value	0x4f6
	.byte	0x7
	.long	.LASF538
	.long	0x50d6
	.byte	0x1
	.long	0x50fd
	.long	0x5108
	.uleb128 0x2
	.long	0xa454
	.uleb128 0x1
	.long	0x4bd7
	.byte	0
	.uleb128 0x10
	.long	.LASF211
	.byte	0x2
	.value	0x500
	.byte	0x7
	.long	.LASF539
	.byte	0x2
	.long	0x511e
	.long	0x5129
	.uleb128 0x2
	.long	0xa454
	.uleb128 0x1
	.long	0x4bd7
	.byte	0
	.uleb128 0x36
	.string	"at"
	.value	0x517
	.long	.LASF540
	.long	0x50a4
	.long	0x513f
	.long	0x514a
	.uleb128 0x2
	.long	0xa42c
	.uleb128 0x1
	.long	0x4bd7
	.byte	0
	.uleb128 0x36
	.string	"at"
	.value	0x52a
	.long	.LASF541
	.long	0x50d6
	.long	0x5160
	.long	0x516b
	.uleb128 0x2
	.long	0xa454
	.uleb128 0x1
	.long	0x4bd7
	.byte	0
	.uleb128 0x6
	.long	.LASF215
	.byte	0x2
	.value	0x536
	.byte	0x7
	.long	.LASF542
	.long	0x50a4
	.byte	0x1
	.long	0x5185
	.long	0x518b
	.uleb128 0x2
	.long	0xa42c
	.byte	0
	.uleb128 0x6
	.long	.LASF215
	.byte	0x2
	.value	0x542
	.byte	0x7
	.long	.LASF543
	.long	0x50d6
	.byte	0x1
	.long	0x51a5
	.long	0x51ab
	.uleb128 0x2
	.long	0xa454
	.byte	0
	.uleb128 0x6
	.long	.LASF218
	.byte	0x2
	.value	0x54e
	.byte	0x7
	.long	.LASF544
	.long	0x50a4
	.byte	0x1
	.long	0x51c5
	.long	0x51cb
	.uleb128 0x2
	.long	0xa42c
	.byte	0
	.uleb128 0x6
	.long	.LASF218
	.byte	0x2
	.value	0x55a
	.byte	0x7
	.long	.LASF545
	.long	0x50d6
	.byte	0x1
	.long	0x51e5
	.long	0x51eb
	.uleb128 0x2
	.long	0xa454
	.byte	0
	.uleb128 0x6
	.long	.LASF221
	.byte	0x2
	.value	0x569
	.byte	0x7
	.long	.LASF546
	.long	0xa391
	.byte	0x1
	.long	0x5205
	.long	0x520b
	.uleb128 0x2
	.long	0xa42c
	.byte	0
	.uleb128 0x6
	.long	.LASF221
	.byte	0x2
	.value	0x56e
	.byte	0x7
	.long	.LASF547
	.long	0x77a5
	.byte	0x1
	.long	0x5225
	.long	0x522b
	.uleb128 0x2
	.long	0xa454
	.byte	0
	.uleb128 0x10
	.long	.LASF224
	.byte	0x2
	.value	0x57e
	.byte	0x7
	.long	.LASF548
	.byte	0x1
	.long	0x5241
	.long	0x524c
	.uleb128 0x2
	.long	0xa42c
	.uleb128 0x1
	.long	0xa43b
	.byte	0
	.uleb128 0x10
	.long	.LASF224
	.byte	0x2
	.value	0x58f
	.byte	0x7
	.long	.LASF549
	.byte	0x1
	.long	0x5262
	.long	0x526d
	.uleb128 0x2
	.long	0xa42c
	.uleb128 0x1
	.long	0xa459
	.byte	0
	.uleb128 0x10
	.long	.LASF227
	.byte	0x2
	.value	0x5a7
	.byte	0x7
	.long	.LASF550
	.byte	0x1
	.long	0x5283
	.long	0x5289
	.uleb128 0x2
	.long	0xa42c
	.byte	0
	.uleb128 0x22
	.long	.LASF229
	.byte	0x7
	.byte	0x89
	.byte	0x5
	.long	.LASF551
	.long	0x4df3
	.byte	0x1
	.long	0x52a2
	.long	0x52b2
	.uleb128 0x2
	.long	0xa42c
	.uleb128 0x1
	.long	0x4e20
	.uleb128 0x1
	.long	0xa43b
	.byte	0
	.uleb128 0x6
	.long	.LASF229
	.byte	0x2
	.value	0x5ee
	.byte	0x7
	.long	.LASF552
	.long	0x4df3
	.byte	0x1
	.long	0x52cc
	.long	0x52dc
	.uleb128 0x2
	.long	0xa42c
	.uleb128 0x1
	.long	0x4e20
	.uleb128 0x1
	.long	0xa459
	.byte	0
	.uleb128 0x6
	.long	.LASF229
	.byte	0x2
	.value	0x600
	.byte	0x7
	.long	.LASF553
	.long	0x4df3
	.byte	0x1
	.long	0x52f6
	.long	0x5306
	.uleb128 0x2
	.long	0xa42c
	.uleb128 0x1
	.long	0x4e20
	.uleb128 0x1
	.long	0x5652
	.byte	0
	.uleb128 0x6
	.long	.LASF229
	.byte	0x2
	.value	0x61a
	.byte	0x7
	.long	.LASF554
	.long	0x4df3
	.byte	0x1
	.long	0x5320
	.long	0x5335
	.uleb128 0x2
	.long	0xa42c
	.uleb128 0x1
	.long	0x4e20
	.uleb128 0x1
	.long	0x4bd7
	.uleb128 0x1
	.long	0xa43b
	.byte	0
	.uleb128 0x6
	.long	.LASF234
	.byte	0x2
	.value	0x6f6
	.byte	0x7
	.long	.LASF555
	.long	0x4df3
	.byte	0x1
	.long	0x534f
	.long	0x535a
	.uleb128 0x2
	.long	0xa42c
	.uleb128 0x1
	.long	0x4e20
	.byte	0
	.uleb128 0x6
	.long	.LASF234
	.byte	0x2
	.value	0x712
	.byte	0x7
	.long	.LASF556
	.long	0x4df3
	.byte	0x1
	.long	0x5374
	.long	0x5384
	.uleb128 0x2
	.long	0xa42c
	.uleb128 0x1
	.long	0x4e20
	.uleb128 0x1
	.long	0x4e20
	.byte	0
	.uleb128 0x10
	.long	.LASF41
	.byte	0x2
	.value	0x72a
	.byte	0x7
	.long	.LASF557
	.byte	0x1
	.long	0x539a
	.long	0x53a5
	.uleb128 0x2
	.long	0xa42c
	.uleb128 0x1
	.long	0xa44f
	.byte	0
	.uleb128 0x10
	.long	.LASF238
	.byte	0x2
	.value	0x73d
	.byte	0x7
	.long	.LASF558
	.byte	0x1
	.long	0x53bb
	.long	0x53c1
	.uleb128 0x2
	.long	0xa42c
	.byte	0
	.uleb128 0x10
	.long	.LASF240
	.byte	0x2
	.value	0x7c3
	.byte	0x7
	.long	.LASF559
	.byte	0x2
	.long	0x53d7
	.long	0x53e7
	.uleb128 0x2
	.long	0xa42c
	.uleb128 0x1
	.long	0x4bd7
	.uleb128 0x1
	.long	0xa43b
	.byte	0
	.uleb128 0x10
	.long	.LASF242
	.byte	0x2
	.value	0x7ce
	.byte	0x7
	.long	.LASF560
	.byte	0x2
	.long	0x53fd
	.long	0x5408
	.uleb128 0x2
	.long	0xa42c
	.uleb128 0x1
	.long	0x4bd7
	.byte	0
	.uleb128 0x10
	.long	.LASF244
	.byte	0x7
	.value	0x112
	.byte	0x5
	.long	.LASF561
	.byte	0x2
	.long	0x541e
	.long	0x542e
	.uleb128 0x2
	.long	0xa42c
	.uleb128 0x1
	.long	0x2c3
	.uleb128 0x1
	.long	0xa43b
	.byte	0
	.uleb128 0x10
	.long	.LASF246
	.byte	0x7
	.value	0x296
	.byte	0x5
	.long	.LASF562
	.byte	0x2
	.long	0x5444
	.long	0x5459
	.uleb128 0x2
	.long	0xa42c
	.uleb128 0x1
	.long	0x4df3
	.uleb128 0x1
	.long	0x4bd7
	.uleb128 0x1
	.long	0xa43b
	.byte	0
	.uleb128 0x10
	.long	.LASF248
	.byte	0x7
	.value	0x300
	.byte	0x5
	.long	.LASF563
	.byte	0x2
	.long	0x546f
	.long	0x547f
	.uleb128 0x2
	.long	0xa42c
	.uleb128 0x1
	.long	0x4bd7
	.uleb128 0x1
	.long	0xa43b
	.byte	0
	.uleb128 0x10
	.long	.LASF250
	.byte	0x7
	.value	0x339
	.byte	0x5
	.long	.LASF564
	.byte	0x2
	.long	0x5495
	.long	0x54a0
	.uleb128 0x2
	.long	0xa42c
	.uleb128 0x1
	.long	0x4bd7
	.byte	0
	.uleb128 0x6
	.long	.LASF252
	.byte	0x7
	.value	0x396
	.byte	0x5
	.long	.LASF565
	.long	0x8f7a
	.byte	0x2
	.long	0x54ba
	.long	0x54c0
	.uleb128 0x2
	.long	0xa42c
	.byte	0
	.uleb128 0x6
	.long	.LASF254
	.byte	0x7
	.value	0x16f
	.byte	0x5
	.long	.LASF566
	.long	0x4df3
	.byte	0x2
	.long	0x54da
	.long	0x54ea
	.uleb128 0x2
	.long	0xa42c
	.uleb128 0x1
	.long	0x4e20
	.uleb128 0x1
	.long	0xa459
	.byte	0
	.uleb128 0x6
	.long	.LASF256
	.byte	0x2
	.value	0x889
	.byte	0x7
	.long	.LASF567
	.long	0x4df3
	.byte	0x2
	.long	0x5504
	.long	0x5514
	.uleb128 0x2
	.long	0xa42c
	.uleb128 0x1
	.long	0x4e20
	.uleb128 0x1
	.long	0xa459
	.byte	0
	.uleb128 0x6
	.long	.LASF258
	.byte	0x2
	.value	0x890
	.byte	0x7
	.long	.LASF568
	.long	0x4bd7
	.byte	0x2
	.long	0x552e
	.long	0x553e
	.uleb128 0x2
	.long	0xa454
	.uleb128 0x1
	.long	0x4bd7
	.uleb128 0x1
	.long	0x77aa
	.byte	0
	.uleb128 0x53
	.long	.LASF260
	.value	0x89b
	.long	.LASF569
	.long	0x4bd7
	.long	0x555c
	.uleb128 0x1
	.long	0x4bd7
	.uleb128 0x1
	.long	0xa436
	.byte	0
	.uleb128 0x53
	.long	.LASF262
	.value	0x8a4
	.long	.LASF570
	.long	0x4bd7
	.long	0x5575
	.uleb128 0x1
	.long	0xa45e
	.byte	0
	.uleb128 0x10
	.long	.LASF264
	.byte	0x2
	.value	0x8b5
	.byte	0x7
	.long	.LASF571
	.byte	0x2
	.long	0x558b
	.long	0x5596
	.uleb128 0x2
	.long	0xa42c
	.uleb128 0x1
	.long	0x4b20
	.byte	0
	.uleb128 0x22
	.long	.LASF266
	.byte	0x7
	.byte	0xb9
	.byte	0x5
	.long	.LASF572
	.long	0x4df3
	.byte	0x2
	.long	0x55af
	.long	0x55ba
	.uleb128 0x2
	.long	0xa42c
	.uleb128 0x1
	.long	0x4df3
	.byte	0
	.uleb128 0x22
	.long	.LASF266
	.byte	0x7
	.byte	0xc7
	.byte	0x5
	.long	.LASF573
	.long	0x4df3
	.byte	0x2
	.long	0x55d3
	.long	0x55e3
	.uleb128 0x2
	.long	0xa42c
	.uleb128 0x1
	.long	0x4df3
	.uleb128 0x1
	.long	0x4df3
	.byte	0
	.uleb128 0x1c
	.long	.LASF269
	.value	0x8cf
	.long	.LASF574
	.long	0x55f6
	.long	0x5606
	.uleb128 0x2
	.long	0xa42c
	.uleb128 0x1
	.long	0xa445
	.uleb128 0x1
	.long	0x642
	.byte	0
	.uleb128 0x1c
	.long	.LASF269
	.value	0x8db
	.long	.LASF575
	.long	0x5619
	.long	0x5629
	.uleb128 0x2
	.long	0xa42c
	.uleb128 0x1
	.long	0xa445
	.uleb128 0x1
	.long	0x3b3
	.byte	0
	.uleb128 0x11
	.string	"_Tp"
	.long	0x56
	.uleb128 0x65
	.long	.LASF141
	.long	0x4544
	.byte	0
	.uleb128 0x7
	.long	0x4a94
	.uleb128 0x8
	.long	.LASF274
	.byte	0x13
	.byte	0xad
	.byte	0xb
	.long	0x4a7e
	.uleb128 0x7
	.long	0x5641
	.uleb128 0x3e
	.long	.LASF576
	.byte	0x10
	.byte	0x24
	.byte	0x2f
	.long	0x573f
	.uleb128 0x26
	.long	.LASF171
	.byte	0x24
	.byte	0x36
	.byte	0x1a
	.long	0x77a5
	.uleb128 0xf
	.long	.LASF577
	.byte	0x24
	.byte	0x3a
	.byte	0x12
	.long	0x565e
	.byte	0
	.uleb128 0x26
	.long	.LASF77
	.byte	0x24
	.byte	0x35
	.byte	0x18
	.long	0x2c3
	.uleb128 0xf
	.long	.LASF434
	.byte	0x24
	.byte	0x3b
	.byte	0x13
	.long	0x5677
	.byte	0x8
	.uleb128 0x20
	.long	.LASF578
	.byte	0x24
	.byte	0x3e
	.byte	0x11
	.long	.LASF579
	.long	0x56a4
	.long	0x56b4
	.uleb128 0x2
	.long	0xa463
	.uleb128 0x1
	.long	0x56b4
	.uleb128 0x1
	.long	0x5677
	.byte	0
	.uleb128 0x26
	.long	.LASF174
	.byte	0x24
	.byte	0x37
	.byte	0x1a
	.long	0x77a5
	.uleb128 0x21
	.long	.LASF578
	.byte	0x24
	.byte	0x42
	.byte	0x11
	.long	.LASF580
	.byte	0x1
	.long	0x56d5
	.long	0x56db
	.uleb128 0x2
	.long	0xa463
	.byte	0
	.uleb128 0x22
	.long	.LASF194
	.byte	0x24
	.byte	0x47
	.byte	0x7
	.long	.LASF581
	.long	0x5677
	.byte	0x1
	.long	0x56f4
	.long	0x56fa
	.uleb128 0x2
	.long	0xa468
	.byte	0
	.uleb128 0x22
	.long	.LASF172
	.byte	0x24
	.byte	0x4b
	.byte	0x7
	.long	.LASF582
	.long	0x56b4
	.byte	0x1
	.long	0x5713
	.long	0x5719
	.uleb128 0x2
	.long	0xa468
	.byte	0
	.uleb128 0x8d
	.string	"end"
	.byte	0x4f
	.long	.LASF723
	.long	0x56b4
	.long	0x5730
	.long	0x5736
	.uleb128 0x2
	.long	0xa468
	.byte	0
	.uleb128 0x11
	.string	"_E"
	.long	0x56
	.byte	0
	.uleb128 0x7
	.long	0x5652
	.uleb128 0x30
	.long	.LASF583
	.uleb128 0x30
	.long	.LASF584
	.uleb128 0x1b
	.long	.LASF585
	.byte	0x1
	.byte	0x16
	.byte	0xd4
	.byte	0xc
	.long	0x5789
	.uleb128 0x8
	.long	.LASF442
	.byte	0x16
	.byte	0xd8
	.byte	0x2b
	.long	0x635
	.uleb128 0x8
	.long	.LASF70
	.byte	0x16
	.byte	0xd9
	.byte	0x2b
	.long	0xa27e
	.uleb128 0x8
	.long	.LASF71
	.byte	0x16
	.byte	0xda
	.byte	0x2b
	.long	0xa292
	.uleb128 0xc
	.long	.LASF443
	.long	0xa27e
	.byte	0
	.uleb128 0x3e
	.long	.LASF586
	.byte	0x1
	.byte	0x6
	.byte	0x3f
	.long	0x5927
	.uleb128 0x21
	.long	.LASF60
	.byte	0x6
	.byte	0x58
	.byte	0x7
	.long	.LASF587
	.byte	0x1
	.long	0x57aa
	.long	0x57b0
	.uleb128 0x2
	.long	0xa48b
	.byte	0
	.uleb128 0x21
	.long	.LASF60
	.byte	0x6
	.byte	0x5c
	.byte	0x7
	.long	.LASF588
	.byte	0x1
	.long	0x57c5
	.long	0x57d0
	.uleb128 0x2
	.long	0xa48b
	.uleb128 0x1
	.long	0xa495
	.byte	0
	.uleb128 0x4f
	.long	.LASF36
	.byte	0x6
	.byte	0x64
	.byte	0x18
	.long	.LASF589
	.long	0xa49a
	.long	0x57e8
	.long	0x57f3
	.uleb128 0x2
	.long	0xa48b
	.uleb128 0x1
	.long	0xa495
	.byte	0
	.uleb128 0x21
	.long	.LASF66
	.byte	0x6
	.byte	0x68
	.byte	0x7
	.long	.LASF590
	.byte	0x1
	.long	0x5808
	.long	0x580e
	.uleb128 0x2
	.long	0xa48b
	.byte	0
	.uleb128 0x26
	.long	.LASF70
	.byte	0x6
	.byte	0x46
	.byte	0x1a
	.long	0xa49f
	.uleb128 0x22
	.long	.LASF68
	.byte	0x6
	.byte	0x6b
	.byte	0x7
	.long	.LASF591
	.long	0x580e
	.byte	0x1
	.long	0x5833
	.long	0x583e
	.uleb128 0x2
	.long	0xa4a9
	.uleb128 0x1
	.long	0x583e
	.byte	0
	.uleb128 0x26
	.long	.LASF71
	.byte	0x6
	.byte	0x48
	.byte	0x1a
	.long	0xa4b3
	.uleb128 0x26
	.long	.LASF72
	.byte	0x6
	.byte	0x47
	.byte	0x1a
	.long	0xa4b8
	.uleb128 0x22
	.long	.LASF68
	.byte	0x6
	.byte	0x6f
	.byte	0x7
	.long	.LASF592
	.long	0x584a
	.byte	0x1
	.long	0x586f
	.long	0x587a
	.uleb128 0x2
	.long	0xa4a9
	.uleb128 0x1
	.long	0x587a
	.byte	0
	.uleb128 0x26
	.long	.LASF74
	.byte	0x6
	.byte	0x49
	.byte	0x1a
	.long	0xa4bd
	.uleb128 0x22
	.long	.LASF75
	.byte	0x6
	.byte	0x81
	.byte	0x7
	.long	.LASF593
	.long	0xa49f
	.byte	0x1
	.long	0x589f
	.long	0x58af
	.uleb128 0x2
	.long	0xa48b
	.uleb128 0x1
	.long	0x58af
	.uleb128 0x1
	.long	0x8fc9
	.byte	0
	.uleb128 0x26
	.long	.LASF77
	.byte	0x6
	.byte	0x43
	.byte	0x1f
	.long	0x2c3
	.uleb128 0x21
	.long	.LASF78
	.byte	0x6
	.byte	0xa7
	.byte	0x7
	.long	.LASF594
	.byte	0x1
	.long	0x58d0
	.long	0x58e0
	.uleb128 0x2
	.long	0xa48b
	.uleb128 0x1
	.long	0xa49f
	.uleb128 0x1
	.long	0x58af
	.byte	0
	.uleb128 0x22
	.long	.LASF80
	.byte	0x6
	.byte	0xc2
	.byte	0x7
	.long	.LASF595
	.long	0x58af
	.byte	0x1
	.long	0x58f9
	.long	0x58ff
	.uleb128 0x2
	.long	0xa4a9
	.byte	0
	.uleb128 0x42
	.long	.LASF82
	.byte	0x6
	.byte	0xf2
	.byte	0x7
	.long	.LASF596
	.long	0x58af
	.long	0x5917
	.long	0x591d
	.uleb128 0x2
	.long	0xa4a9
	.byte	0
	.uleb128 0x11
	.string	"_Tp"
	.long	0x30
	.byte	0
	.uleb128 0x7
	.long	0x5789
	.uleb128 0x3e
	.long	.LASF597
	.byte	0x1
	.byte	0x5
	.byte	0x85
	.long	0x59b0
	.uleb128 0x46
	.long	0x5789
	.byte	0x1
	.uleb128 0x21
	.long	.LASF85
	.byte	0x5
	.byte	0xa8
	.byte	0x7
	.long	.LASF598
	.byte	0x1
	.long	0x5953
	.long	0x5959
	.uleb128 0x2
	.long	0xa4c2
	.byte	0
	.uleb128 0x21
	.long	.LASF85
	.byte	0x5
	.byte	0xac
	.byte	0x7
	.long	.LASF599
	.byte	0x1
	.long	0x596e
	.long	0x5979
	.uleb128 0x2
	.long	0xa4c2
	.uleb128 0x1
	.long	0xa4cc
	.byte	0
	.uleb128 0x4f
	.long	.LASF36
	.byte	0x5
	.byte	0xb1
	.byte	0x12
	.long	.LASF600
	.long	0xa4d1
	.long	0x5991
	.long	0x599c
	.uleb128 0x2
	.long	0xa4c2
	.uleb128 0x1
	.long	0xa4cc
	.byte	0
	.uleb128 0x6b
	.long	.LASF89
	.long	.LASF601
	.long	0x59a9
	.uleb128 0x2
	.long	0xa4c2
	.byte	0
	.byte	0
	.uleb128 0x7
	.long	0x592c
	.uleb128 0x5f
	.long	.LASF602
	.byte	0x1
	.byte	0x8
	.value	0x248
	.byte	0xc
	.long	0x5ab3
	.uleb128 0x1d
	.long	.LASF70
	.byte	0x8
	.value	0x251
	.byte	0xd
	.long	0xa49f
	.uleb128 0x16
	.long	.LASF75
	.byte	0x8
	.value	0x27d
	.byte	0x7
	.long	.LASF603
	.long	0x59c3
	.long	0x59f0
	.uleb128 0x1
	.long	0xa4d6
	.uleb128 0x1
	.long	0x5a02
	.byte	0
	.uleb128 0x1d
	.long	.LASF92
	.byte	0x8
	.value	0x24b
	.byte	0xd
	.long	0x592c
	.uleb128 0x7
	.long	0x59f0
	.uleb128 0x1d
	.long	.LASF77
	.byte	0x8
	.value	0x260
	.byte	0xd
	.long	0x2c3
	.uleb128 0x16
	.long	.LASF75
	.byte	0x8
	.value	0x28c
	.byte	0x7
	.long	.LASF604
	.long	0x59c3
	.long	0x5a34
	.uleb128 0x1
	.long	0xa4d6
	.uleb128 0x1
	.long	0x5a02
	.uleb128 0x1
	.long	0x5a34
	.byte	0
	.uleb128 0x1d
	.long	.LASF95
	.byte	0x8
	.value	0x25a
	.byte	0xd
	.long	0x8fc9
	.uleb128 0x40
	.long	.LASF78
	.byte	0x8
	.value	0x2b0
	.byte	0x7
	.long	.LASF605
	.long	0x5a62
	.uleb128 0x1
	.long	0xa4d6
	.uleb128 0x1
	.long	0x59c3
	.uleb128 0x1
	.long	0x5a02
	.byte	0
	.uleb128 0x16
	.long	.LASF80
	.byte	0x8
	.value	0x2ed
	.byte	0x7
	.long	.LASF606
	.long	0x5a02
	.long	0x5a7d
	.uleb128 0x1
	.long	0xa4db
	.byte	0
	.uleb128 0x16
	.long	.LASF97
	.byte	0x8
	.value	0x2fd
	.byte	0x7
	.long	.LASF607
	.long	0x59f0
	.long	0x5a98
	.uleb128 0x1
	.long	0xa4db
	.byte	0
	.uleb128 0x1d
	.long	.LASF7
	.byte	0x8
	.value	0x24e
	.byte	0xd
	.long	0x30
	.uleb128 0x1d
	.long	.LASF99
	.byte	0x8
	.value	0x26f
	.byte	0x8
	.long	0x592c
	.byte	0
	.uleb128 0x1b
	.long	.LASF608
	.byte	0x18
	.byte	0x2
	.byte	0x5b
	.byte	0xc
	.long	0x5e54
	.uleb128 0x1b
	.long	.LASF101
	.byte	0x18
	.byte	0x2
	.byte	0x62
	.byte	0xe
	.long	0x5b66
	.uleb128 0xf
	.long	.LASF103
	.byte	0x2
	.byte	0x64
	.byte	0xa
	.long	0x5b6b
	.byte	0
	.uleb128 0xf
	.long	.LASF104
	.byte	0x2
	.byte	0x65
	.byte	0xa
	.long	0x5b6b
	.byte	0x8
	.uleb128 0xf
	.long	.LASF105
	.byte	0x2
	.byte	0x66
	.byte	0xa
	.long	0x5b6b
	.byte	0x10
	.uleb128 0x20
	.long	.LASF101
	.byte	0x2
	.byte	0x69
	.byte	0x2
	.long	.LASF609
	.long	0x5b08
	.long	0x5b0e
	.uleb128 0x2
	.long	0xa4ea
	.byte	0
	.uleb128 0x20
	.long	.LASF101
	.byte	0x2
	.byte	0x6f
	.byte	0x2
	.long	.LASF610
	.long	0x5b22
	.long	0x5b2d
	.uleb128 0x2
	.long	0xa4ea
	.uleb128 0x1
	.long	0xa4f4
	.byte	0
	.uleb128 0x20
	.long	.LASF108
	.byte	0x2
	.byte	0x77
	.byte	0x2
	.long	.LASF611
	.long	0x5b41
	.long	0x5b4c
	.uleb128 0x2
	.long	0xa4ea
	.uleb128 0x1
	.long	0xa4f9
	.byte	0
	.uleb128 0x64
	.long	.LASF110
	.byte	0x80
	.long	.LASF612
	.long	0x5b5a
	.uleb128 0x2
	.long	0xa4ea
	.uleb128 0x1
	.long	0xa4fe
	.byte	0
	.byte	0
	.uleb128 0x7
	.long	0x5ac0
	.uleb128 0x8
	.long	.LASF70
	.byte	0x2
	.byte	0x60
	.byte	0x9
	.long	0x8e26
	.uleb128 0x1b
	.long	.LASF111
	.byte	0x18
	.byte	0x2
	.byte	0x8b
	.byte	0xe
	.long	0x5c3d
	.uleb128 0x33
	.long	0x592c
	.uleb128 0x33
	.long	0x5ac0
	.uleb128 0x20
	.long	.LASF111
	.byte	0x2
	.byte	0x8f
	.byte	0x2
	.long	.LASF613
	.long	0x5ba2
	.long	0x5ba8
	.uleb128 0x2
	.long	0xa503
	.byte	0
	.uleb128 0x20
	.long	.LASF111
	.byte	0x2
	.byte	0x98
	.byte	0x2
	.long	.LASF614
	.long	0x5bbc
	.long	0x5bc7
	.uleb128 0x2
	.long	0xa503
	.uleb128 0x1
	.long	0xa50d
	.byte	0
	.uleb128 0x20
	.long	.LASF111
	.byte	0x2
	.byte	0xa0
	.byte	0x2
	.long	.LASF615
	.long	0x5bdb
	.long	0x5be6
	.uleb128 0x2
	.long	0xa503
	.uleb128 0x1
	.long	0xa512
	.byte	0
	.uleb128 0x20
	.long	.LASF111
	.byte	0x2
	.byte	0xa5
	.byte	0x2
	.long	.LASF616
	.long	0x5bfa
	.long	0x5c05
	.uleb128 0x2
	.long	0xa503
	.uleb128 0x1
	.long	0xa517
	.byte	0
	.uleb128 0x20
	.long	.LASF111
	.byte	0x2
	.byte	0xaa
	.byte	0x2
	.long	.LASF617
	.long	0x5c19
	.long	0x5c29
	.uleb128 0x2
	.long	0xa503
	.uleb128 0x1
	.long	0xa517
	.uleb128 0x1
	.long	0xa512
	.byte	0
	.uleb128 0x6c
	.long	.LASF476
	.long	.LASF618
	.long	0x5c36
	.uleb128 0x2
	.long	0xa503
	.byte	0
	.byte	0
	.uleb128 0x8
	.long	.LASF117
	.byte	0x2
	.byte	0x5e
	.byte	0x15
	.long	0x8e57
	.uleb128 0x7
	.long	0x5c3d
	.uleb128 0x34
	.long	.LASF118
	.value	0x133
	.byte	0x7
	.long	.LASF619
	.long	0xa51c
	.long	0x5c66
	.long	0x5c6c
	.uleb128 0x2
	.long	0xa521
	.byte	0
	.uleb128 0x34
	.long	.LASF118
	.value	0x138
	.byte	0x7
	.long	.LASF620
	.long	0xa50d
	.long	0x5c84
	.long	0x5c8a
	.uleb128 0x2
	.long	0xa52b
	.byte	0
	.uleb128 0x1d
	.long	.LASF92
	.byte	0x2
	.value	0x12f
	.byte	0x16
	.long	0x592c
	.uleb128 0x7
	.long	0x5c8a
	.uleb128 0x34
	.long	.LASF121
	.value	0x13d
	.byte	0x7
	.long	.LASF621
	.long	0x5c8a
	.long	0x5cb4
	.long	0x5cba
	.uleb128 0x2
	.long	0xa52b
	.byte	0
	.uleb128 0x50
	.long	.LASF123
	.value	0x141
	.long	.LASF622
	.long	0x5ccd
	.long	0x5cd3
	.uleb128 0x2
	.long	0xa521
	.byte	0
	.uleb128 0x1c
	.long	.LASF123
	.value	0x147
	.long	.LASF623
	.long	0x5ce6
	.long	0x5cf1
	.uleb128 0x2
	.long	0xa521
	.uleb128 0x1
	.long	0xa530
	.byte	0
	.uleb128 0x1c
	.long	.LASF123
	.value	0x14d
	.long	.LASF624
	.long	0x5d04
	.long	0x5d0f
	.uleb128 0x2
	.long	0xa521
	.uleb128 0x1
	.long	0x2c3
	.byte	0
	.uleb128 0x1c
	.long	.LASF123
	.value	0x153
	.long	.LASF625
	.long	0x5d22
	.long	0x5d32
	.uleb128 0x2
	.long	0xa521
	.uleb128 0x1
	.long	0x2c3
	.uleb128 0x1
	.long	0xa530
	.byte	0
	.uleb128 0x50
	.long	.LASF123
	.value	0x158
	.long	.LASF626
	.long	0x5d45
	.long	0x5d50
	.uleb128 0x2
	.long	0xa521
	.uleb128 0x1
	.long	0xa535
	.byte	0
	.uleb128 0x1c
	.long	.LASF123
	.value	0x15d
	.long	.LASF627
	.long	0x5d63
	.long	0x5d6e
	.uleb128 0x2
	.long	0xa521
	.uleb128 0x1
	.long	0xa517
	.byte	0
	.uleb128 0x1c
	.long	.LASF123
	.value	0x161
	.long	.LASF628
	.long	0x5d81
	.long	0x5d91
	.uleb128 0x2
	.long	0xa521
	.uleb128 0x1
	.long	0xa535
	.uleb128 0x1
	.long	0xa530
	.byte	0
	.uleb128 0x1c
	.long	.LASF123
	.value	0x16f
	.long	.LASF629
	.long	0x5da4
	.long	0x5db4
	.uleb128 0x2
	.long	0xa521
	.uleb128 0x1
	.long	0xa530
	.uleb128 0x1
	.long	0xa535
	.byte	0
	.uleb128 0x1c
	.long	.LASF132
	.value	0x175
	.long	.LASF630
	.long	0x5dc7
	.long	0x5dcd
	.uleb128 0x2
	.long	0xa521
	.byte	0
	.uleb128 0x51
	.long	.LASF134
	.value	0x17e
	.byte	0x14
	.long	0x5b77
	.byte	0
	.uleb128 0x34
	.long	.LASF135
	.value	0x182
	.byte	0x7
	.long	.LASF631
	.long	0x5b6b
	.long	0x5df2
	.long	0x5dfd
	.uleb128 0x2
	.long	0xa521
	.uleb128 0x1
	.long	0x2c3
	.byte	0
	.uleb128 0x1c
	.long	.LASF137
	.value	0x18a
	.long	.LASF632
	.long	0x5e10
	.long	0x5e20
	.uleb128 0x2
	.long	0xa521
	.uleb128 0x1
	.long	0x5b6b
	.uleb128 0x1
	.long	0x2c3
	.byte	0
	.uleb128 0x10
	.long	.LASF139
	.byte	0x2
	.value	0x195
	.byte	0x7
	.long	.LASF633
	.byte	0x2
	.long	0x5e36
	.long	0x5e41
	.uleb128 0x2
	.long	0xa521
	.uleb128 0x1
	.long	0x2c3
	.byte	0
	.uleb128 0x11
	.string	"_Tp"
	.long	0x30
	.uleb128 0xc
	.long	.LASF141
	.long	0x592c
	.byte	0
	.uleb128 0x7
	.long	0x5ab3
	.uleb128 0x1b
	.long	.LASF634
	.byte	0x1
	.byte	0x13
	.byte	0xa9
	.byte	0xc
	.long	0x5e7c
	.uleb128 0x8
	.long	.LASF143
	.byte	0x13
	.byte	0xaa
	.byte	0xd
	.long	0x592c
	.uleb128 0xc
	.long	.LASF144
	.long	0x592c
	.byte	0
	.uleb128 0x4b
	.long	.LASF635
	.byte	0x18
	.byte	0x2
	.value	0x1cc
	.long	0x6a50
	.uleb128 0x18
	.byte	0x2
	.value	0x1cc
	.byte	0xb
	.long	0x5dda
	.uleb128 0x18
	.byte	0x2
	.value	0x1cc
	.byte	0xb
	.long	0x5dfd
	.uleb128 0x18
	.byte	0x2
	.value	0x1cc
	.byte	0xb
	.long	0x5dcd
	.uleb128 0x18
	.byte	0x2
	.value	0x1cc
	.byte	0xb
	.long	0x5c6c
	.uleb128 0x18
	.byte	0x2
	.value	0x1cc
	.byte	0xb
	.long	0x5c4e
	.uleb128 0x18
	.byte	0x2
	.value	0x1cc
	.byte	0xb
	.long	0x5c9c
	.uleb128 0x46
	.long	0x5ab3
	.byte	0x2
	.uleb128 0x16
	.long	.LASF146
	.byte	0x2
	.value	0x1f6
	.byte	0x7
	.long	.LASF636
	.long	0x8f7a
	.long	0x5ee0
	.uleb128 0x1
	.long	0x642
	.byte	0
	.uleb128 0x16
	.long	.LASF146
	.byte	0x2
	.value	0x1ff
	.byte	0x7
	.long	.LASF637
	.long	0x8f7a
	.long	0x5efb
	.uleb128 0x1
	.long	0x3b3
	.byte	0
	.uleb128 0x6d
	.long	.LASF340
	.long	.LASF638
	.long	0x8f7a
	.uleb128 0x13
	.long	.LASF70
	.byte	0x2
	.value	0x1e6
	.byte	0x29
	.long	0x5b6b
	.uleb128 0x16
	.long	.LASF149
	.byte	0x2
	.value	0x20c
	.byte	0x7
	.long	.LASF639
	.long	0x5f08
	.long	0x5f3f
	.uleb128 0x1
	.long	0x5f08
	.uleb128 0x1
	.long	0x5f08
	.uleb128 0x1
	.long	0x5f08
	.uleb128 0x1
	.long	0xa53a
	.byte	0
	.uleb128 0x1d
	.long	.LASF117
	.byte	0x2
	.value	0x1e1
	.byte	0x2f
	.long	0x5c3d
	.uleb128 0x7
	.long	0x5f3f
	.uleb128 0x52
	.long	.LASF151
	.value	0x227
	.long	.LASF640
	.long	0x5f64
	.long	0x5f6a
	.uleb128 0x2
	.long	0xa53f
	.byte	0
	.uleb128 0x43
	.long	.LASF151
	.byte	0x2
	.value	0x232
	.long	.LASF641
	.long	0x5f7e
	.long	0x5f89
	.uleb128 0x2
	.long	0xa53f
	.uleb128 0x1
	.long	0xa549
	.byte	0
	.uleb128 0x13
	.long	.LASF92
	.byte	0x2
	.value	0x1f1
	.byte	0x1a
	.long	0x592c
	.uleb128 0x7
	.long	0x5f89
	.uleb128 0x43
	.long	.LASF151
	.byte	0x2
	.value	0x240
	.long	.LASF642
	.long	0x5faf
	.long	0x5fbf
	.uleb128 0x2
	.long	0xa53f
	.uleb128 0x1
	.long	0x5fbf
	.uleb128 0x1
	.long	0xa549
	.byte	0
	.uleb128 0x13
	.long	.LASF77
	.byte	0x2
	.value	0x1ef
	.byte	0x1a
	.long	0x2c3
	.uleb128 0x10
	.long	.LASF151
	.byte	0x2
	.value	0x24d
	.byte	0x7
	.long	.LASF643
	.byte	0x1
	.long	0x5fe2
	.long	0x5ff7
	.uleb128 0x2
	.long	0xa53f
	.uleb128 0x1
	.long	0x5fbf
	.uleb128 0x1
	.long	0xa54e
	.uleb128 0x1
	.long	0xa549
	.byte	0
	.uleb128 0x13
	.long	.LASF7
	.byte	0x2
	.value	0x1e5
	.byte	0x17
	.long	0x30
	.uleb128 0x7
	.long	0x5ff7
	.uleb128 0x10
	.long	.LASF151
	.byte	0x2
	.value	0x26d
	.byte	0x7
	.long	.LASF644
	.byte	0x1
	.long	0x601f
	.long	0x602a
	.uleb128 0x2
	.long	0xa53f
	.uleb128 0x1
	.long	0xa553
	.byte	0
	.uleb128 0x52
	.long	.LASF151
	.value	0x280
	.long	.LASF645
	.long	0x603d
	.long	0x6048
	.uleb128 0x2
	.long	0xa53f
	.uleb128 0x1
	.long	0xa558
	.byte	0
	.uleb128 0x10
	.long	.LASF151
	.byte	0x2
	.value	0x284
	.byte	0x7
	.long	.LASF646
	.byte	0x1
	.long	0x605e
	.long	0x606e
	.uleb128 0x2
	.long	0xa53f
	.uleb128 0x1
	.long	0xa553
	.uleb128 0x1
	.long	0xa55d
	.byte	0
	.uleb128 0x1c
	.long	.LASF151
	.value	0x28f
	.long	.LASF647
	.long	0x6081
	.long	0x6096
	.uleb128 0x2
	.long	0xa53f
	.uleb128 0x1
	.long	0xa558
	.uleb128 0x1
	.long	0xa549
	.uleb128 0x1
	.long	0x642
	.byte	0
	.uleb128 0x1c
	.long	.LASF151
	.value	0x294
	.long	.LASF648
	.long	0x60a9
	.long	0x60be
	.uleb128 0x2
	.long	0xa53f
	.uleb128 0x1
	.long	0xa558
	.uleb128 0x1
	.long	0xa549
	.uleb128 0x1
	.long	0x3b3
	.byte	0
	.uleb128 0x10
	.long	.LASF151
	.byte	0x2
	.value	0x2a7
	.byte	0x7
	.long	.LASF649
	.byte	0x1
	.long	0x60d4
	.long	0x60e4
	.uleb128 0x2
	.long	0xa53f
	.uleb128 0x1
	.long	0xa558
	.uleb128 0x1
	.long	0xa55d
	.byte	0
	.uleb128 0x10
	.long	.LASF151
	.byte	0x2
	.value	0x2ba
	.byte	0x7
	.long	.LASF650
	.byte	0x1
	.long	0x60fa
	.long	0x610a
	.uleb128 0x2
	.long	0xa53f
	.uleb128 0x1
	.long	0x6a66
	.uleb128 0x1
	.long	0xa549
	.byte	0
	.uleb128 0x10
	.long	.LASF163
	.byte	0x2
	.value	0x316
	.byte	0x7
	.long	.LASF651
	.byte	0x1
	.long	0x6120
	.long	0x6126
	.uleb128 0x2
	.long	0xa53f
	.byte	0
	.uleb128 0x22
	.long	.LASF36
	.byte	0x7
	.byte	0xd6
	.byte	0x5
	.long	.LASF652
	.long	0xa562
	.byte	0x1
	.long	0x613f
	.long	0x614a
	.uleb128 0x2
	.long	0xa53f
	.uleb128 0x1
	.long	0xa553
	.byte	0
	.uleb128 0x6
	.long	.LASF36
	.byte	0x2
	.value	0x337
	.byte	0x7
	.long	.LASF653
	.long	0xa562
	.byte	0x1
	.long	0x6164
	.long	0x616f
	.uleb128 0x2
	.long	0xa53f
	.uleb128 0x1
	.long	0xa558
	.byte	0
	.uleb128 0x6
	.long	.LASF36
	.byte	0x2
	.value	0x34d
	.byte	0x7
	.long	.LASF654
	.long	0xa562
	.byte	0x1
	.long	0x6189
	.long	0x6194
	.uleb128 0x2
	.long	0xa53f
	.uleb128 0x1
	.long	0x6a66
	.byte	0
	.uleb128 0x10
	.long	.LASF168
	.byte	0x2
	.value	0x361
	.byte	0x7
	.long	.LASF655
	.byte	0x1
	.long	0x61aa
	.long	0x61ba
	.uleb128 0x2
	.long	0xa53f
	.uleb128 0x1
	.long	0x5fbf
	.uleb128 0x1
	.long	0xa54e
	.byte	0
	.uleb128 0x10
	.long	.LASF168
	.byte	0x2
	.value	0x390
	.byte	0x7
	.long	.LASF656
	.byte	0x1
	.long	0x61d0
	.long	0x61db
	.uleb128 0x2
	.long	0xa53f
	.uleb128 0x1
	.long	0x6a66
	.byte	0
	.uleb128 0x13
	.long	.LASF171
	.byte	0x2
	.value	0x1ea
	.byte	0x3d
	.long	0x8e77
	.uleb128 0x6
	.long	.LASF172
	.byte	0x2
	.value	0x3dc
	.byte	0x7
	.long	.LASF657
	.long	0x61db
	.byte	0x1
	.long	0x6202
	.long	0x6208
	.uleb128 0x2
	.long	0xa53f
	.byte	0
	.uleb128 0x13
	.long	.LASF174
	.byte	0x2
	.value	0x1ec
	.byte	0x7
	.long	0x8e7c
	.uleb128 0x6
	.long	.LASF172
	.byte	0x2
	.value	0x3e6
	.byte	0x7
	.long	.LASF658
	.long	0x6208
	.byte	0x1
	.long	0x622f
	.long	0x6235
	.uleb128 0x2
	.long	0xa567
	.byte	0
	.uleb128 0x36
	.string	"end"
	.value	0x3f0
	.long	.LASF659
	.long	0x61db
	.long	0x624c
	.long	0x6252
	.uleb128 0x2
	.long	0xa53f
	.byte	0
	.uleb128 0x36
	.string	"end"
	.value	0x3fa
	.long	.LASF660
	.long	0x6208
	.long	0x6269
	.long	0x626f
	.uleb128 0x2
	.long	0xa567
	.byte	0
	.uleb128 0x13
	.long	.LASF178
	.byte	0x2
	.value	0x1ee
	.byte	0x30
	.long	0x6b58
	.uleb128 0x6
	.long	.LASF179
	.byte	0x2
	.value	0x404
	.byte	0x7
	.long	.LASF661
	.long	0x626f
	.byte	0x1
	.long	0x6296
	.long	0x629c
	.uleb128 0x2
	.long	0xa53f
	.byte	0
	.uleb128 0x13
	.long	.LASF181
	.byte	0x2
	.value	0x1ed
	.byte	0x35
	.long	0x6b5d
	.uleb128 0x6
	.long	.LASF179
	.byte	0x2
	.value	0x40e
	.byte	0x7
	.long	.LASF662
	.long	0x629c
	.byte	0x1
	.long	0x62c3
	.long	0x62c9
	.uleb128 0x2
	.long	0xa567
	.byte	0
	.uleb128 0x6
	.long	.LASF183
	.byte	0x2
	.value	0x418
	.byte	0x7
	.long	.LASF663
	.long	0x626f
	.byte	0x1
	.long	0x62e3
	.long	0x62e9
	.uleb128 0x2
	.long	0xa53f
	.byte	0
	.uleb128 0x6
	.long	.LASF183
	.byte	0x2
	.value	0x422
	.byte	0x7
	.long	.LASF664
	.long	0x629c
	.byte	0x1
	.long	0x6303
	.long	0x6309
	.uleb128 0x2
	.long	0xa567
	.byte	0
	.uleb128 0x6
	.long	.LASF186
	.byte	0x2
	.value	0x42d
	.byte	0x7
	.long	.LASF665
	.long	0x6208
	.byte	0x1
	.long	0x6323
	.long	0x6329
	.uleb128 0x2
	.long	0xa567
	.byte	0
	.uleb128 0x6
	.long	.LASF188
	.byte	0x2
	.value	0x437
	.byte	0x7
	.long	.LASF666
	.long	0x6208
	.byte	0x1
	.long	0x6343
	.long	0x6349
	.uleb128 0x2
	.long	0xa567
	.byte	0
	.uleb128 0x6
	.long	.LASF190
	.byte	0x2
	.value	0x441
	.byte	0x7
	.long	.LASF667
	.long	0x629c
	.byte	0x1
	.long	0x6363
	.long	0x6369
	.uleb128 0x2
	.long	0xa567
	.byte	0
	.uleb128 0x6
	.long	.LASF192
	.byte	0x2
	.value	0x44b
	.byte	0x7
	.long	.LASF668
	.long	0x629c
	.byte	0x1
	.long	0x6383
	.long	0x6389
	.uleb128 0x2
	.long	0xa567
	.byte	0
	.uleb128 0x6
	.long	.LASF194
	.byte	0x2
	.value	0x453
	.byte	0x7
	.long	.LASF669
	.long	0x5fbf
	.byte	0x1
	.long	0x63a3
	.long	0x63a9
	.uleb128 0x2
	.long	0xa567
	.byte	0
	.uleb128 0x6
	.long	.LASF80
	.byte	0x2
	.value	0x45e
	.byte	0x7
	.long	.LASF670
	.long	0x5fbf
	.byte	0x1
	.long	0x63c3
	.long	0x63c9
	.uleb128 0x2
	.long	0xa567
	.byte	0
	.uleb128 0x10
	.long	.LASF197
	.byte	0x2
	.value	0x46d
	.byte	0x7
	.long	.LASF671
	.byte	0x1
	.long	0x63df
	.long	0x63ea
	.uleb128 0x2
	.long	0xa53f
	.uleb128 0x1
	.long	0x5fbf
	.byte	0
	.uleb128 0x10
	.long	.LASF197
	.byte	0x2
	.value	0x482
	.byte	0x7
	.long	.LASF672
	.byte	0x1
	.long	0x6400
	.long	0x6410
	.uleb128 0x2
	.long	0xa53f
	.uleb128 0x1
	.long	0x5fbf
	.uleb128 0x1
	.long	0xa54e
	.byte	0
	.uleb128 0x10
	.long	.LASF200
	.byte	0x2
	.value	0x4a4
	.byte	0x7
	.long	.LASF673
	.byte	0x1
	.long	0x6426
	.long	0x642c
	.uleb128 0x2
	.long	0xa53f
	.byte	0
	.uleb128 0x6
	.long	.LASF202
	.byte	0x2
	.value	0x4ae
	.byte	0x7
	.long	.LASF674
	.long	0x5fbf
	.byte	0x1
	.long	0x6446
	.long	0x644c
	.uleb128 0x2
	.long	0xa567
	.byte	0
	.uleb128 0x6
	.long	.LASF204
	.byte	0x2
	.value	0x4bd
	.byte	0x7
	.long	.LASF675
	.long	0x8f7a
	.byte	0x1
	.long	0x6466
	.long	0x646c
	.uleb128 0x2
	.long	0xa567
	.byte	0
	.uleb128 0x21
	.long	.LASF206
	.byte	0x7
	.byte	0x46
	.byte	0x5
	.long	.LASF676
	.byte	0x1
	.long	0x6481
	.long	0x648c
	.uleb128 0x2
	.long	0xa53f
	.uleb128 0x1
	.long	0x5fbf
	.byte	0
	.uleb128 0x13
	.long	.LASF71
	.byte	0x2
	.value	0x1e8
	.byte	0x32
	.long	0x8e32
	.uleb128 0x6
	.long	.LASF208
	.byte	0x2
	.value	0x4e3
	.byte	0x7
	.long	.LASF677
	.long	0x648c
	.byte	0x1
	.long	0x64b3
	.long	0x64be
	.uleb128 0x2
	.long	0xa53f
	.uleb128 0x1
	.long	0x5fbf
	.byte	0
	.uleb128 0x13
	.long	.LASF74
	.byte	0x2
	.value	0x1e9
	.byte	0x37
	.long	0x8e3e
	.uleb128 0x6
	.long	.LASF208
	.byte	0x2
	.value	0x4f6
	.byte	0x7
	.long	.LASF678
	.long	0x64be
	.byte	0x1
	.long	0x64e5
	.long	0x64f0
	.uleb128 0x2
	.long	0xa567
	.uleb128 0x1
	.long	0x5fbf
	.byte	0
	.uleb128 0x10
	.long	.LASF211
	.byte	0x2
	.value	0x500
	.byte	0x7
	.long	.LASF679
	.byte	0x2
	.long	0x6506
	.long	0x6511
	.uleb128 0x2
	.long	0xa567
	.uleb128 0x1
	.long	0x5fbf
	.byte	0
	.uleb128 0x36
	.string	"at"
	.value	0x517
	.long	.LASF680
	.long	0x648c
	.long	0x6527
	.long	0x6532
	.uleb128 0x2
	.long	0xa53f
	.uleb128 0x1
	.long	0x5fbf
	.byte	0
	.uleb128 0x36
	.string	"at"
	.value	0x52a
	.long	.LASF681
	.long	0x64be
	.long	0x6548
	.long	0x6553
	.uleb128 0x2
	.long	0xa567
	.uleb128 0x1
	.long	0x5fbf
	.byte	0
	.uleb128 0x6
	.long	.LASF215
	.byte	0x2
	.value	0x536
	.byte	0x7
	.long	.LASF682
	.long	0x648c
	.byte	0x1
	.long	0x656d
	.long	0x6573
	.uleb128 0x2
	.long	0xa53f
	.byte	0
	.uleb128 0x6
	.long	.LASF215
	.byte	0x2
	.value	0x542
	.byte	0x7
	.long	.LASF683
	.long	0x64be
	.byte	0x1
	.long	0x658d
	.long	0x6593
	.uleb128 0x2
	.long	0xa567
	.byte	0
	.uleb128 0x6
	.long	.LASF218
	.byte	0x2
	.value	0x54e
	.byte	0x7
	.long	.LASF684
	.long	0x648c
	.byte	0x1
	.long	0x65ad
	.long	0x65b3
	.uleb128 0x2
	.long	0xa53f
	.byte	0
	.uleb128 0x6
	.long	.LASF218
	.byte	0x2
	.value	0x55a
	.byte	0x7
	.long	.LASF685
	.long	0x64be
	.byte	0x1
	.long	0x65cd
	.long	0x65d3
	.uleb128 0x2
	.long	0xa567
	.byte	0
	.uleb128 0x6
	.long	.LASF221
	.byte	0x2
	.value	0x569
	.byte	0x7
	.long	.LASF686
	.long	0xa49f
	.byte	0x1
	.long	0x65ed
	.long	0x65f3
	.uleb128 0x2
	.long	0xa53f
	.byte	0
	.uleb128 0x6
	.long	.LASF221
	.byte	0x2
	.value	0x56e
	.byte	0x7
	.long	.LASF687
	.long	0xa4b8
	.byte	0x1
	.long	0x660d
	.long	0x6613
	.uleb128 0x2
	.long	0xa567
	.byte	0
	.uleb128 0x10
	.long	.LASF224
	.byte	0x2
	.value	0x57e
	.byte	0x7
	.long	.LASF688
	.byte	0x1
	.long	0x6629
	.long	0x6634
	.uleb128 0x2
	.long	0xa53f
	.uleb128 0x1
	.long	0xa54e
	.byte	0
	.uleb128 0x10
	.long	.LASF224
	.byte	0x2
	.value	0x58f
	.byte	0x7
	.long	.LASF689
	.byte	0x1
	.long	0x664a
	.long	0x6655
	.uleb128 0x2
	.long	0xa53f
	.uleb128 0x1
	.long	0xa571
	.byte	0
	.uleb128 0x10
	.long	.LASF227
	.byte	0x2
	.value	0x5a7
	.byte	0x7
	.long	.LASF690
	.byte	0x1
	.long	0x666b
	.long	0x6671
	.uleb128 0x2
	.long	0xa53f
	.byte	0
	.uleb128 0x22
	.long	.LASF229
	.byte	0x7
	.byte	0x89
	.byte	0x5
	.long	.LASF691
	.long	0x61db
	.byte	0x1
	.long	0x668a
	.long	0x669a
	.uleb128 0x2
	.long	0xa53f
	.uleb128 0x1
	.long	0x6208
	.uleb128 0x1
	.long	0xa54e
	.byte	0
	.uleb128 0x6
	.long	.LASF229
	.byte	0x2
	.value	0x5ee
	.byte	0x7
	.long	.LASF692
	.long	0x61db
	.byte	0x1
	.long	0x66b4
	.long	0x66c4
	.uleb128 0x2
	.long	0xa53f
	.uleb128 0x1
	.long	0x6208
	.uleb128 0x1
	.long	0xa571
	.byte	0
	.uleb128 0x6
	.long	.LASF229
	.byte	0x2
	.value	0x600
	.byte	0x7
	.long	.LASF693
	.long	0x61db
	.byte	0x1
	.long	0x66de
	.long	0x66ee
	.uleb128 0x2
	.long	0xa53f
	.uleb128 0x1
	.long	0x6208
	.uleb128 0x1
	.long	0x6a66
	.byte	0
	.uleb128 0x6
	.long	.LASF229
	.byte	0x2
	.value	0x61a
	.byte	0x7
	.long	.LASF694
	.long	0x61db
	.byte	0x1
	.long	0x6708
	.long	0x671d
	.uleb128 0x2
	.long	0xa53f
	.uleb128 0x1
	.long	0x6208
	.uleb128 0x1
	.long	0x5fbf
	.uleb128 0x1
	.long	0xa54e
	.byte	0
	.uleb128 0x6
	.long	.LASF234
	.byte	0x2
	.value	0x6f6
	.byte	0x7
	.long	.LASF695
	.long	0x61db
	.byte	0x1
	.long	0x6737
	.long	0x6742
	.uleb128 0x2
	.long	0xa53f
	.uleb128 0x1
	.long	0x6208
	.byte	0
	.uleb128 0x6
	.long	.LASF234
	.byte	0x2
	.value	0x712
	.byte	0x7
	.long	.LASF696
	.long	0x61db
	.byte	0x1
	.long	0x675c
	.long	0x676c
	.uleb128 0x2
	.long	0xa53f
	.uleb128 0x1
	.long	0x6208
	.uleb128 0x1
	.long	0x6208
	.byte	0
	.uleb128 0x10
	.long	.LASF41
	.byte	0x2
	.value	0x72a
	.byte	0x7
	.long	.LASF697
	.byte	0x1
	.long	0x6782
	.long	0x678d
	.uleb128 0x2
	.long	0xa53f
	.uleb128 0x1
	.long	0xa562
	.byte	0
	.uleb128 0x10
	.long	.LASF238
	.byte	0x2
	.value	0x73d
	.byte	0x7
	.long	.LASF698
	.byte	0x1
	.long	0x67a3
	.long	0x67a9
	.uleb128 0x2
	.long	0xa53f
	.byte	0
	.uleb128 0x10
	.long	.LASF240
	.byte	0x2
	.value	0x7c3
	.byte	0x7
	.long	.LASF699
	.byte	0x2
	.long	0x67bf
	.long	0x67cf
	.uleb128 0x2
	.long	0xa53f
	.uleb128 0x1
	.long	0x5fbf
	.uleb128 0x1
	.long	0xa54e
	.byte	0
	.uleb128 0x10
	.long	.LASF242
	.byte	0x2
	.value	0x7ce
	.byte	0x7
	.long	.LASF700
	.byte	0x2
	.long	0x67e5
	.long	0x67f0
	.uleb128 0x2
	.long	0xa53f
	.uleb128 0x1
	.long	0x5fbf
	.byte	0
	.uleb128 0x10
	.long	.LASF244
	.byte	0x7
	.value	0x112
	.byte	0x5
	.long	.LASF701
	.byte	0x2
	.long	0x6806
	.long	0x6816
	.uleb128 0x2
	.long	0xa53f
	.uleb128 0x1
	.long	0x2c3
	.uleb128 0x1
	.long	0xa54e
	.byte	0
	.uleb128 0x10
	.long	.LASF246
	.byte	0x7
	.value	0x296
	.byte	0x5
	.long	.LASF702
	.byte	0x2
	.long	0x682c
	.long	0x6841
	.uleb128 0x2
	.long	0xa53f
	.uleb128 0x1
	.long	0x61db
	.uleb128 0x1
	.long	0x5fbf
	.uleb128 0x1
	.long	0xa54e
	.byte	0
	.uleb128 0x10
	.long	.LASF248
	.byte	0x7
	.value	0x300
	.byte	0x5
	.long	.LASF703
	.byte	0x2
	.long	0x6857
	.long	0x6867
	.uleb128 0x2
	.long	0xa53f
	.uleb128 0x1
	.long	0x5fbf
	.uleb128 0x1
	.long	0xa54e
	.byte	0
	.uleb128 0x10
	.long	.LASF250
	.byte	0x7
	.value	0x339
	.byte	0x5
	.long	.LASF704
	.byte	0x2
	.long	0x687d
	.long	0x6888
	.uleb128 0x2
	.long	0xa53f
	.uleb128 0x1
	.long	0x5fbf
	.byte	0
	.uleb128 0x6
	.long	.LASF252
	.byte	0x7
	.value	0x396
	.byte	0x5
	.long	.LASF705
	.long	0x8f7a
	.byte	0x2
	.long	0x68a2
	.long	0x68a8
	.uleb128 0x2
	.long	0xa53f
	.byte	0
	.uleb128 0x6
	.long	.LASF254
	.byte	0x7
	.value	0x16f
	.byte	0x5
	.long	.LASF706
	.long	0x61db
	.byte	0x2
	.long	0x68c2
	.long	0x68d2
	.uleb128 0x2
	.long	0xa53f
	.uleb128 0x1
	.long	0x6208
	.uleb128 0x1
	.long	0xa571
	.byte	0
	.uleb128 0x6
	.long	.LASF256
	.byte	0x2
	.value	0x889
	.byte	0x7
	.long	.LASF707
	.long	0x61db
	.byte	0x2
	.long	0x68ec
	.long	0x68fc
	.uleb128 0x2
	.long	0xa53f
	.uleb128 0x1
	.long	0x6208
	.uleb128 0x1
	.long	0xa571
	.byte	0
	.uleb128 0x6
	.long	.LASF258
	.byte	0x2
	.value	0x890
	.byte	0x7
	.long	.LASF708
	.long	0x5fbf
	.byte	0x2
	.long	0x6916
	.long	0x6926
	.uleb128 0x2
	.long	0xa567
	.uleb128 0x1
	.long	0x5fbf
	.uleb128 0x1
	.long	0x77aa
	.byte	0
	.uleb128 0x53
	.long	.LASF260
	.value	0x89b
	.long	.LASF709
	.long	0x5fbf
	.long	0x6944
	.uleb128 0x1
	.long	0x5fbf
	.uleb128 0x1
	.long	0xa549
	.byte	0
	.uleb128 0x53
	.long	.LASF262
	.value	0x8a4
	.long	.LASF710
	.long	0x5fbf
	.long	0x695d
	.uleb128 0x1
	.long	0xa576
	.byte	0
	.uleb128 0x10
	.long	.LASF264
	.byte	0x2
	.value	0x8b5
	.byte	0x7
	.long	.LASF711
	.byte	0x2
	.long	0x6973
	.long	0x697e
	.uleb128 0x2
	.long	0xa53f
	.uleb128 0x1
	.long	0x5f08
	.byte	0
	.uleb128 0x22
	.long	.LASF266
	.byte	0x7
	.byte	0xb9
	.byte	0x5
	.long	.LASF712
	.long	0x61db
	.byte	0x2
	.long	0x6997
	.long	0x69a2
	.uleb128 0x2
	.long	0xa53f
	.uleb128 0x1
	.long	0x61db
	.byte	0
	.uleb128 0x22
	.long	.LASF266
	.byte	0x7
	.byte	0xc7
	.byte	0x5
	.long	.LASF713
	.long	0x61db
	.byte	0x2
	.long	0x69bb
	.long	0x69cb
	.uleb128 0x2
	.long	0xa53f
	.uleb128 0x1
	.long	0x61db
	.uleb128 0x1
	.long	0x61db
	.byte	0
	.uleb128 0x1c
	.long	.LASF269
	.value	0x8cf
	.long	.LASF714
	.long	0x69de
	.long	0x69ee
	.uleb128 0x2
	.long	0xa53f
	.uleb128 0x1
	.long	0xa558
	.uleb128 0x1
	.long	0x642
	.byte	0
	.uleb128 0x1c
	.long	.LASF269
	.value	0x8db
	.long	.LASF715
	.long	0x6a01
	.long	0x6a11
	.uleb128 0x2
	.long	0xa53f
	.uleb128 0x1
	.long	0xa558
	.uleb128 0x1
	.long	0x3b3
	.byte	0
	.uleb128 0x34
	.long	.LASF716
	.value	0x8ee
	.byte	0x2
	.long	.LASF717
	.long	0xa49f
	.long	0x6a32
	.long	0x6a3d
	.uleb128 0x11
	.string	"_Up"
	.long	0x30
	.uleb128 0x2
	.long	0xa567
	.uleb128 0x1
	.long	0xa49f
	.byte	0
	.uleb128 0x11
	.string	"_Tp"
	.long	0x30
	.uleb128 0x65
	.long	.LASF141
	.long	0x592c
	.byte	0
	.uleb128 0x7
	.long	0x5e7c
	.uleb128 0x8
	.long	.LASF274
	.byte	0x13
	.byte	0xad
	.byte	0xb
	.long	0x5e66
	.uleb128 0x7
	.long	0x6a55
	.uleb128 0x3e
	.long	.LASF718
	.byte	0x10
	.byte	0x24
	.byte	0x2f
	.long	0x6b53
	.uleb128 0x26
	.long	.LASF171
	.byte	0x24
	.byte	0x36
	.byte	0x1a
	.long	0xa4b8
	.uleb128 0xf
	.long	.LASF577
	.byte	0x24
	.byte	0x3a
	.byte	0x12
	.long	0x6a72
	.byte	0
	.uleb128 0x26
	.long	.LASF77
	.byte	0x24
	.byte	0x35
	.byte	0x18
	.long	0x2c3
	.uleb128 0xf
	.long	.LASF434
	.byte	0x24
	.byte	0x3b
	.byte	0x13
	.long	0x6a8b
	.byte	0x8
	.uleb128 0x20
	.long	.LASF578
	.byte	0x24
	.byte	0x3e
	.byte	0x11
	.long	.LASF719
	.long	0x6ab8
	.long	0x6ac8
	.uleb128 0x2
	.long	0xa57b
	.uleb128 0x1
	.long	0x6ac8
	.uleb128 0x1
	.long	0x6a8b
	.byte	0
	.uleb128 0x26
	.long	.LASF174
	.byte	0x24
	.byte	0x37
	.byte	0x1a
	.long	0xa4b8
	.uleb128 0x21
	.long	.LASF578
	.byte	0x24
	.byte	0x42
	.byte	0x11
	.long	.LASF720
	.byte	0x1
	.long	0x6ae9
	.long	0x6aef
	.uleb128 0x2
	.long	0xa57b
	.byte	0
	.uleb128 0x22
	.long	.LASF194
	.byte	0x24
	.byte	0x47
	.byte	0x7
	.long	.LASF721
	.long	0x6a8b
	.byte	0x1
	.long	0x6b08
	.long	0x6b0e
	.uleb128 0x2
	.long	0xa580
	.byte	0
	.uleb128 0x22
	.long	.LASF172
	.byte	0x24
	.byte	0x4b
	.byte	0x7
	.long	.LASF722
	.long	0x6ac8
	.byte	0x1
	.long	0x6b27
	.long	0x6b2d
	.uleb128 0x2
	.long	0xa580
	.byte	0
	.uleb128 0x8d
	.string	"end"
	.byte	0x4f
	.long	.LASF724
	.long	0x6ac8
	.long	0x6b44
	.long	0x6b4a
	.uleb128 0x2
	.long	0xa580
	.byte	0
	.uleb128 0x11
	.string	"_E"
	.long	0x30
	.byte	0
	.uleb128 0x7
	.long	0x6a66
	.uleb128 0x30
	.long	.LASF725
	.uleb128 0x30
	.long	.LASF726
	.uleb128 0x79
	.long	.LASF58
	.byte	0x13
	.byte	0xaf
	.byte	0xd
	.uleb128 0x1b
	.long	.LASF727
	.byte	0x1
	.byte	0x13
	.byte	0x8d
	.byte	0xc
	.long	0x6b8d
	.uleb128 0x8
	.long	.LASF143
	.byte	0x13
	.byte	0x8e
	.byte	0xd
	.long	0xa27e
	.uleb128 0x11
	.string	"_Tp"
	.long	0xa27e
	.byte	0
	.uleb128 0x1b
	.long	.LASF728
	.byte	0x1
	.byte	0x16
	.byte	0xdf
	.byte	0xc
	.long	0x6bc8
	.uleb128 0x8
	.long	.LASF442
	.byte	0x16
	.byte	0xe3
	.byte	0x2b
	.long	0x635
	.uleb128 0x8
	.long	.LASF70
	.byte	0x16
	.byte	0xe4
	.byte	0x2b
	.long	0xa1b6
	.uleb128 0x8
	.long	.LASF71
	.byte	0x16
	.byte	0xe5
	.byte	0x2b
	.long	0xa1c0
	.uleb128 0xc
	.long	.LASF443
	.long	0xa1b6
	.byte	0
	.uleb128 0x1b
	.long	.LASF729
	.byte	0x1
	.byte	0x16
	.byte	0xd4
	.byte	0xc
	.long	0x6c03
	.uleb128 0x8
	.long	.LASF442
	.byte	0x16
	.byte	0xd8
	.byte	0x2b
	.long	0x635
	.uleb128 0x8
	.long	.LASF70
	.byte	0x16
	.byte	0xd9
	.byte	0x2b
	.long	0x9caa
	.uleb128 0x8
	.long	.LASF71
	.byte	0x16
	.byte	0xda
	.byte	0x2b
	.long	0x9cbe
	.uleb128 0xc
	.long	.LASF443
	.long	0x9caa
	.byte	0
	.uleb128 0x1b
	.long	.LASF730
	.byte	0x10
	.byte	0xc
	.byte	0x6d
	.byte	0xc
	.long	0x6cd0
	.uleb128 0x78
	.long	.LASF731
	.byte	0xc
	.byte	0x71
	.byte	0x7
	.long	.LASF732
	.long	0x6c24
	.long	0x6c2f
	.uleb128 0x2
	.long	0xa5cb
	.uleb128 0x1
	.long	0xa5d5
	.byte	0
	.uleb128 0x20
	.long	.LASF733
	.byte	0xc
	.byte	0x76
	.byte	0x7
	.long	.LASF734
	.long	0x6c43
	.long	0x6c49
	.uleb128 0x2
	.long	0xa5cb
	.byte	0
	.uleb128 0x20
	.long	.LASF735
	.byte	0xc
	.byte	0x83
	.byte	0xc
	.long	.LASF736
	.long	0x6c5d
	.long	0x6c63
	.uleb128 0x2
	.long	0xa5cb
	.byte	0
	.uleb128 0xf
	.long	.LASF737
	.byte	0xc
	.byte	0x85
	.byte	0x1e
	.long	0xa396
	.byte	0
	.uleb128 0xf
	.long	.LASF738
	.byte	0xc
	.byte	0x86
	.byte	0x19
	.long	0xa5da
	.byte	0x8
	.uleb128 0x21
	.long	.LASF731
	.byte	0xc
	.byte	0x89
	.byte	0x7
	.long	.LASF739
	.byte	0x3
	.long	0x6c92
	.long	0x6c9d
	.uleb128 0x2
	.long	0xa5cb
	.uleb128 0x1
	.long	0xa5df
	.byte	0
	.uleb128 0x8e
	.long	.LASF740
	.byte	0x8e
	.long	.LASF741
	.long	0x6cc0
	.uleb128 0xc
	.long	.LASF742
	.long	0xa391
	.uleb128 0x1
	.long	0xa391
	.uleb128 0x1
	.long	0xa391
	.byte	0
	.uleb128 0xc
	.long	.LASF743
	.long	0xa391
	.uleb128 0x8f
	.long	.LASF141
	.byte	0
	.uleb128 0x7
	.long	0x6c03
	.uleb128 0x1b
	.long	.LASF744
	.byte	0x10
	.byte	0xc
	.byte	0x6d
	.byte	0xc
	.long	0x6da2
	.uleb128 0x78
	.long	.LASF731
	.byte	0xc
	.byte	0x71
	.byte	0x7
	.long	.LASF745
	.long	0x6cf6
	.long	0x6d01
	.uleb128 0x2
	.long	0xa5e4
	.uleb128 0x1
	.long	0xa5ee
	.byte	0
	.uleb128 0x20
	.long	.LASF733
	.byte	0xc
	.byte	0x76
	.byte	0x7
	.long	.LASF746
	.long	0x6d15
	.long	0x6d1b
	.uleb128 0x2
	.long	0xa5e4
	.byte	0
	.uleb128 0x20
	.long	.LASF735
	.byte	0xc
	.byte	0x83
	.byte	0xc
	.long	.LASF747
	.long	0x6d2f
	.long	0x6d35
	.uleb128 0x2
	.long	0xa5e4
	.byte	0
	.uleb128 0xf
	.long	.LASF737
	.byte	0xc
	.byte	0x85
	.byte	0x1e
	.long	0xa4a4
	.byte	0
	.uleb128 0xf
	.long	.LASF738
	.byte	0xc
	.byte	0x86
	.byte	0x19
	.long	0xa5f3
	.byte	0x8
	.uleb128 0x21
	.long	.LASF731
	.byte	0xc
	.byte	0x89
	.byte	0x7
	.long	.LASF748
	.byte	0x3
	.long	0x6d64
	.long	0x6d6f
	.uleb128 0x2
	.long	0xa5e4
	.uleb128 0x1
	.long	0xa5f8
	.byte	0
	.uleb128 0x8e
	.long	.LASF749
	.byte	0x8e
	.long	.LASF750
	.long	0x6d92
	.uleb128 0xc
	.long	.LASF742
	.long	0xa49f
	.uleb128 0x1
	.long	0xa49f
	.uleb128 0x1
	.long	0xa49f
	.byte	0
	.uleb128 0xc
	.long	.LASF743
	.long	0xa49f
	.uleb128 0x8f
	.long	.LASF141
	.byte	0
	.uleb128 0x7
	.long	0x6cd5
	.uleb128 0xb1
	.long	.LASF1442
	.byte	0x13
	.value	0x6e5
	.byte	0x26
	.long	0x8f81
	.byte	0x1
	.byte	0x3
	.uleb128 0x90
	.long	.LASF751
	.byte	0x45
	.long	.LASF753
	.uleb128 0x90
	.long	.LASF752
	.byte	0x42
	.long	.LASF754
	.uleb128 0x85
	.long	.LASF755
	.byte	0x26
	.byte	0x4f
	.byte	0x3
	.long	.LASF756
	.long	0x6de4
	.uleb128 0x1
	.long	0x77aa
	.byte	0
	.uleb128 0x49
	.long	.LASF757
	.byte	0xb
	.byte	0x7b
	.byte	0x5
	.long	.LASF758
	.long	0x6e17
	.uleb128 0x11
	.string	"_Tp"
	.long	0x30
	.uleb128 0x47
	.long	.LASF427
	.long	0x6e0c
	.uleb128 0x48
	.long	0xa4bd
	.byte	0
	.uleb128 0x1
	.long	0xa49f
	.uleb128 0x1
	.long	0xa4bd
	.byte	0
	.uleb128 0x49
	.long	.LASF759
	.byte	0xb
	.byte	0x7b
	.byte	0x5
	.long	.LASF760
	.long	0x6e4a
	.uleb128 0x11
	.string	"_Tp"
	.long	0x56
	.uleb128 0x47
	.long	.LASF427
	.long	0x6e3f
	.uleb128 0x48
	.long	0xa3aa
	.byte	0
	.uleb128 0x1
	.long	0xa391
	.uleb128 0x1
	.long	0xa3aa
	.byte	0
	.uleb128 0x40
	.long	.LASF761
	.byte	0xa
	.value	0x3a7
	.byte	0x5
	.long	.LASF762
	.long	0x6e7d
	.uleb128 0x11
	.string	"_Up"
	.long	0x37
	.uleb128 0x11
	.string	"_Tp"
	.long	0x37
	.uleb128 0x1
	.long	0x9caa
	.uleb128 0x1
	.long	0x9caa
	.uleb128 0x1
	.long	0x9cc8
	.byte	0
	.uleb128 0x16
	.long	.LASF763
	.byte	0xc
	.value	0x1dd
	.byte	0x5
	.long	.LASF764
	.long	0xa49f
	.long	0x6ebd
	.uleb128 0xc
	.long	.LASF743
	.long	0xa49f
	.uleb128 0xc
	.long	.LASF765
	.long	0x3e
	.uleb128 0x11
	.string	"_Tp"
	.long	0x30
	.uleb128 0x1
	.long	0xa49f
	.uleb128 0x1
	.long	0x3e
	.uleb128 0x1
	.long	0xa4bd
	.byte	0
	.uleb128 0x16
	.long	.LASF766
	.byte	0xc
	.value	0x1dd
	.byte	0x5
	.long	.LASF767
	.long	0xa391
	.long	0x6efd
	.uleb128 0xc
	.long	.LASF743
	.long	0xa391
	.uleb128 0xc
	.long	.LASF765
	.long	0x3e
	.uleb128 0x11
	.string	"_Tp"
	.long	0x56
	.uleb128 0x1
	.long	0xa391
	.uleb128 0x1
	.long	0x3e
	.uleb128 0x1
	.long	0xa3aa
	.byte	0
	.uleb128 0x40
	.long	.LASF768
	.byte	0xa
	.value	0x3d0
	.byte	0x5
	.long	.LASF769
	.long	0x6f30
	.uleb128 0xc
	.long	.LASF770
	.long	0x9caa
	.uleb128 0x11
	.string	"_Tp"
	.long	0x37
	.uleb128 0x1
	.long	0x9caa
	.uleb128 0x1
	.long	0x9caa
	.uleb128 0x1
	.long	0x9cc8
	.byte	0
	.uleb128 0x16
	.long	.LASF771
	.byte	0x3
	.value	0xbce
	.byte	0x5
	.long	.LASF772
	.long	0x9caa
	.long	0x6f54
	.uleb128 0xc
	.long	.LASF443
	.long	0x9caa
	.uleb128 0x1
	.long	0x9caa
	.byte	0
	.uleb128 0x40
	.long	.LASF773
	.byte	0xa
	.value	0x3bc
	.byte	0x5
	.long	.LASF774
	.long	0x6f90
	.uleb128 0xc
	.long	.LASF775
	.long	0x9caa
	.uleb128 0xc
	.long	.LASF776
	.long	0x11b4
	.uleb128 0x11
	.string	"_Tp"
	.long	0x37
	.uleb128 0x1
	.long	0x81ad
	.uleb128 0x1
	.long	0x81ad
	.uleb128 0x1
	.long	0x9cc8
	.byte	0
	.uleb128 0x16
	.long	.LASF777
	.byte	0xc
	.value	0x226
	.byte	0x5
	.long	.LASF778
	.long	0xa49f
	.long	0x6fd0
	.uleb128 0xc
	.long	.LASF743
	.long	0xa49f
	.uleb128 0xc
	.long	.LASF765
	.long	0x3e
	.uleb128 0x11
	.string	"_Tp"
	.long	0x30
	.uleb128 0x1
	.long	0xa49f
	.uleb128 0x1
	.long	0x3e
	.uleb128 0x1
	.long	0xa4bd
	.byte	0
	.uleb128 0x16
	.long	.LASF779
	.byte	0xc
	.value	0x226
	.byte	0x5
	.long	.LASF780
	.long	0xa391
	.long	0x7010
	.uleb128 0xc
	.long	.LASF743
	.long	0xa391
	.uleb128 0xc
	.long	.LASF765
	.long	0x3e
	.uleb128 0x11
	.string	"_Tp"
	.long	0x56
	.uleb128 0x1
	.long	0xa391
	.uleb128 0x1
	.long	0x3e
	.uleb128 0x1
	.long	0xa3aa
	.byte	0
	.uleb128 0x16
	.long	.LASF781
	.byte	0xa
	.value	0x100
	.byte	0x5
	.long	.LASF782
	.long	0xaf1e
	.long	0x7039
	.uleb128 0x11
	.string	"_Tp"
	.long	0x3e
	.uleb128 0x1
	.long	0xaf1e
	.uleb128 0x1
	.long	0xaf1e
	.byte	0
	.uleb128 0x16
	.long	.LASF783
	.byte	0xa
	.value	0x475
	.byte	0x5
	.long	.LASF784
	.long	0x9caa
	.long	0x707e
	.uleb128 0xc
	.long	.LASF785
	.long	0x9caa
	.uleb128 0xc
	.long	.LASF765
	.long	0x3e
	.uleb128 0x11
	.string	"_Tp"
	.long	0x37
	.uleb128 0x1
	.long	0x9caa
	.uleb128 0x1
	.long	0x3e
	.uleb128 0x1
	.long	0x9cc8
	.uleb128 0x1
	.long	0x6a2
	.byte	0
	.uleb128 0x16
	.long	.LASF786
	.byte	0xc
	.value	0x226
	.byte	0x5
	.long	.LASF787
	.long	0x9caa
	.long	0x70be
	.uleb128 0xc
	.long	.LASF743
	.long	0x9caa
	.uleb128 0xc
	.long	.LASF765
	.long	0x3e
	.uleb128 0x11
	.string	"_Tp"
	.long	0x37
	.uleb128 0x1
	.long	0x9caa
	.uleb128 0x1
	.long	0x3e
	.uleb128 0x1
	.long	0x9cc8
	.byte	0
	.uleb128 0x40
	.long	.LASF788
	.byte	0xa
	.value	0x3d0
	.byte	0x5
	.long	.LASF789
	.long	0x70f1
	.uleb128 0xc
	.long	.LASF770
	.long	0x81ad
	.uleb128 0x11
	.string	"_Tp"
	.long	0x37
	.uleb128 0x1
	.long	0x81ad
	.uleb128 0x1
	.long	0x81ad
	.uleb128 0x1
	.long	0x9cc8
	.byte	0
	.uleb128 0x49
	.long	.LASF790
	.byte	0xb
	.byte	0xdb
	.byte	0x5
	.long	.LASF791
	.long	0x7115
	.uleb128 0xc
	.long	.LASF743
	.long	0xa49f
	.uleb128 0x1
	.long	0xa49f
	.uleb128 0x1
	.long	0xa49f
	.byte	0
	.uleb128 0x16
	.long	.LASF792
	.byte	0xc
	.value	0x303
	.byte	0x5
	.long	.LASF793
	.long	0xa49f
	.long	0x7163
	.uleb128 0xc
	.long	.LASF743
	.long	0xa49f
	.uleb128 0xc
	.long	.LASF765
	.long	0x3e
	.uleb128 0x11
	.string	"_Tp"
	.long	0x30
	.uleb128 0xc
	.long	.LASF794
	.long	0x30
	.uleb128 0x1
	.long	0xa49f
	.uleb128 0x1
	.long	0x3e
	.uleb128 0x1
	.long	0xa4bd
	.uleb128 0x1
	.long	0xa4d1
	.byte	0
	.uleb128 0x49
	.long	.LASF795
	.byte	0xb
	.byte	0xdb
	.byte	0x5
	.long	.LASF796
	.long	0x7187
	.uleb128 0xc
	.long	.LASF743
	.long	0xa391
	.uleb128 0x1
	.long	0xa391
	.uleb128 0x1
	.long	0xa391
	.byte	0
	.uleb128 0x16
	.long	.LASF797
	.byte	0xc
	.value	0x303
	.byte	0x5
	.long	.LASF798
	.long	0xa391
	.long	0x71d5
	.uleb128 0xc
	.long	.LASF743
	.long	0xa391
	.uleb128 0xc
	.long	.LASF765
	.long	0x3e
	.uleb128 0x11
	.string	"_Tp"
	.long	0x56
	.uleb128 0xc
	.long	.LASF794
	.long	0x56
	.uleb128 0x1
	.long	0xa391
	.uleb128 0x1
	.long	0x3e
	.uleb128 0x1
	.long	0xa3aa
	.uleb128 0x1
	.long	0xa3be
	.byte	0
	.uleb128 0x91
	.long	.LASF799
	.byte	0x27
	.byte	0xcf
	.byte	0x5
	.long	0xa27e
	.long	0x71f5
	.uleb128 0x11
	.string	"_Tp"
	.long	0xa0fa
	.uleb128 0x1
	.long	0xa27e
	.byte	0
	.uleb128 0x8
	.long	.LASF800
	.byte	0x13
	.byte	0x92
	.byte	0xb
	.long	0x6b77
	.uleb128 0x44
	.long	.LASF801
	.byte	0xc
	.value	0x561
	.byte	0x5
	.long	0x71f5
	.long	0x7239
	.uleb128 0x11
	.string	"_Tp"
	.long	0xa0fa
	.uleb128 0x11
	.string	"_Up"
	.long	0xa0fa
	.uleb128 0x1
	.long	0xa27e
	.uleb128 0x1
	.long	0xa27e
	.uleb128 0x1
	.long	0xa27e
	.uleb128 0x1
	.long	0xa2b0
	.byte	0
	.uleb128 0x44
	.long	.LASF802
	.byte	0x3
	.value	0xbce
	.byte	0x5
	.long	0xa27e
	.long	0x7259
	.uleb128 0xc
	.long	.LASF443
	.long	0xa27e
	.uleb128 0x1
	.long	0xa27e
	.byte	0
	.uleb128 0x92
	.long	.LASF803
	.byte	0xb
	.byte	0xdb
	.byte	0x5
	.long	0x727a
	.uleb128 0xc
	.long	.LASF743
	.long	0xa27e
	.uleb128 0x1
	.long	0xa27e
	.uleb128 0x1
	.long	0xa27e
	.byte	0
	.uleb128 0x16
	.long	.LASF804
	.byte	0xa
	.value	0x49b
	.byte	0x5
	.long	.LASF805
	.long	0x9caa
	.long	0x72ba
	.uleb128 0x11
	.string	"_OI"
	.long	0x9caa
	.uleb128 0xc
	.long	.LASF765
	.long	0x3e
	.uleb128 0x11
	.string	"_Tp"
	.long	0x37
	.uleb128 0x1
	.long	0x9caa
	.uleb128 0x1
	.long	0x3e
	.uleb128 0x1
	.long	0x9cc8
	.byte	0
	.uleb128 0x16
	.long	.LASF806
	.byte	0xc
	.value	0x303
	.byte	0x5
	.long	.LASF807
	.long	0x9caa
	.long	0x7308
	.uleb128 0xc
	.long	.LASF743
	.long	0x9caa
	.uleb128 0xc
	.long	.LASF765
	.long	0x3e
	.uleb128 0x11
	.string	"_Tp"
	.long	0x37
	.uleb128 0xc
	.long	.LASF794
	.long	0x37
	.uleb128 0x1
	.long	0x9caa
	.uleb128 0x1
	.long	0x3e
	.uleb128 0x1
	.long	0x9cc8
	.uleb128 0x1
	.long	0x9cdc
	.byte	0
	.uleb128 0x40
	.long	.LASF808
	.byte	0xa
	.value	0x3e9
	.byte	0x5
	.long	.LASF809
	.long	0x733b
	.uleb128 0xc
	.long	.LASF743
	.long	0x81ad
	.uleb128 0x11
	.string	"_Tp"
	.long	0x37
	.uleb128 0x1
	.long	0x81ad
	.uleb128 0x1
	.long	0x81ad
	.uleb128 0x1
	.long	0x9cc8
	.byte	0
	.uleb128 0x49
	.long	.LASF810
	.byte	0xb
	.byte	0xdb
	.byte	0x5
	.long	.LASF811
	.long	0x735f
	.uleb128 0xc
	.long	.LASF743
	.long	0x9caa
	.uleb128 0x1
	.long	0x9caa
	.uleb128 0x1
	.long	0x9caa
	.byte	0
	.uleb128 0x32
	.long	.LASF812
	.byte	0xa
	.byte	0xe8
	.byte	0x5
	.long	.LASF813
	.long	0xaf1e
	.long	0x7387
	.uleb128 0x11
	.string	"_Tp"
	.long	0x3e
	.uleb128 0x1
	.long	0xaf1e
	.uleb128 0x1
	.long	0xaf1e
	.byte	0
	.uleb128 0x40
	.long	.LASF814
	.byte	0x8
	.value	0x43a
	.byte	0x5
	.long	.LASF815
	.long	0x73ba
	.uleb128 0xc
	.long	.LASF743
	.long	0xa49f
	.uleb128 0x11
	.string	"_Tp"
	.long	0x30
	.uleb128 0x1
	.long	0xa49f
	.uleb128 0x1
	.long	0xa49f
	.uleb128 0x1
	.long	0xa4d1
	.byte	0
	.uleb128 0x40
	.long	.LASF816
	.byte	0x8
	.value	0x43a
	.byte	0x5
	.long	.LASF817
	.long	0x73ed
	.uleb128 0xc
	.long	.LASF743
	.long	0xa391
	.uleb128 0x11
	.string	"_Tp"
	.long	0x56
	.uleb128 0x1
	.long	0xa391
	.uleb128 0x1
	.long	0xa391
	.uleb128 0x1
	.long	0xa3be
	.byte	0
	.uleb128 0x44
	.long	.LASF818
	.byte	0xc
	.value	0x57c
	.byte	0x5
	.long	0xa27e
	.long	0x742e
	.uleb128 0xc
	.long	.LASF819
	.long	0xa27e
	.uleb128 0xc
	.long	.LASF743
	.long	0xa27e
	.uleb128 0xc
	.long	.LASF820
	.long	0x32e9
	.uleb128 0x1
	.long	0xa27e
	.uleb128 0x1
	.long	0xa27e
	.uleb128 0x1
	.long	0xa27e
	.uleb128 0x1
	.long	0xa2b0
	.byte	0
	.uleb128 0x89
	.long	.LASF821
	.value	0x43a
	.byte	0x5
	.long	0x745d
	.uleb128 0xc
	.long	.LASF743
	.long	0xa27e
	.uleb128 0x11
	.string	"_Tp"
	.long	0xa0fa
	.uleb128 0x1
	.long	0xa27e
	.uleb128 0x1
	.long	0xa27e
	.uleb128 0x1
	.long	0xa2b0
	.byte	0
	.uleb128 0x40
	.long	.LASF822
	.byte	0x8
	.value	0x43a
	.byte	0x5
	.long	.LASF823
	.long	0x7490
	.uleb128 0xc
	.long	.LASF743
	.long	0x9caa
	.uleb128 0x11
	.string	"_Tp"
	.long	0x37
	.uleb128 0x1
	.long	0x9caa
	.uleb128 0x1
	.long	0x9caa
	.uleb128 0x1
	.long	0x9cdc
	.byte	0
	.uleb128 0x32
	.long	.LASF824
	.byte	0xa
	.byte	0xe8
	.byte	0x5
	.long	.LASF825
	.long	0xa3aa
	.long	0x74b8
	.uleb128 0x11
	.string	"_Tp"
	.long	0x56
	.uleb128 0x1
	.long	0xa3aa
	.uleb128 0x1
	.long	0xa3aa
	.byte	0
	.uleb128 0x16
	.long	.LASF826
	.byte	0xa
	.value	0x100
	.byte	0x5
	.long	.LASF827
	.long	0xa3aa
	.long	0x74e1
	.uleb128 0x11
	.string	"_Tp"
	.long	0x56
	.uleb128 0x1
	.long	0xa3aa
	.uleb128 0x1
	.long	0xa3aa
	.byte	0
	.uleb128 0x16
	.long	.LASF828
	.byte	0x9
	.value	0x108
	.byte	0x3
	.long	.LASF829
	.long	0x30
	.long	0x74fc
	.uleb128 0x1
	.long	0x30
	.byte	0
	.uleb128 0x93
	.long	.LASF830
	.byte	0xa
	.value	0x3fd
	.byte	0x3
	.long	.LASF831
	.long	0x3e
	.uleb128 0x1
	.long	0x3e
	.byte	0
	.byte	0
	.uleb128 0x8
	.long	.LASF6
	.byte	0x28
	.byte	0xe5
	.byte	0x17
	.long	0x3e
	.uleb128 0x7
	.long	0x7515
	.uleb128 0x7
	.long	0x3e
	.uleb128 0xb2
	.long	.LASF1443
	.byte	0x18
	.byte	0x29
	.byte	0
	.long	0x7561
	.uleb128 0x6f
	.long	.LASF832
	.long	0x7561
	.byte	0
	.uleb128 0x6f
	.long	.LASF833
	.long	0x7561
	.byte	0x4
	.uleb128 0x6f
	.long	.LASF834
	.long	0x7568
	.byte	0x8
	.uleb128 0x6f
	.long	.LASF835
	.long	0x7568
	.byte	0x10
	.byte	0
	.uleb128 0x29
	.byte	0x4
	.byte	0x7
	.long	.LASF836
	.uleb128 0xb3
	.byte	0x8
	.uleb128 0x8
	.long	.LASF837
	.byte	0x2a
	.byte	0x14
	.byte	0x17
	.long	0x7561
	.uleb128 0x70
	.byte	0x8
	.byte	0x2b
	.byte	0xe
	.byte	0x1
	.long	.LASF1142
	.long	0x75c2
	.uleb128 0xb4
	.byte	0x4
	.byte	0x2b
	.byte	0x11
	.byte	0x3
	.long	0x75a7
	.uleb128 0x94
	.long	.LASF838
	.byte	0x12
	.byte	0x13
	.long	0x7561
	.uleb128 0x94
	.long	.LASF839
	.byte	0x13
	.byte	0xa
	.long	0x75c2
	.byte	0
	.uleb128 0xf
	.long	.LASF840
	.byte	0x2b
	.byte	0xf
	.byte	0x7
	.long	0x56
	.byte	0
	.uleb128 0xf
	.long	.LASF841
	.byte	0x2b
	.byte	0x14
	.byte	0x5
	.long	0x7584
	.byte	0x4
	.byte	0
	.uleb128 0x7b
	.long	0x4a
	.long	0x75d2
	.uleb128 0x7c
	.long	0x3e
	.byte	0x3
	.byte	0
	.uleb128 0x8
	.long	.LASF842
	.byte	0x2b
	.byte	0x15
	.byte	0x3
	.long	0x7577
	.uleb128 0x8
	.long	.LASF843
	.byte	0x2c
	.byte	0x6
	.byte	0x15
	.long	0x75d2
	.uleb128 0x7
	.long	0x75de
	.uleb128 0x8
	.long	.LASF844
	.byte	0x2d
	.byte	0x5
	.byte	0x19
	.long	0x75fb
	.uleb128 0x1b
	.long	.LASF845
	.byte	0xd8
	.byte	0x2e
	.byte	0x32
	.byte	0x8
	.long	0x7792
	.uleb128 0xf
	.long	.LASF846
	.byte	0x2e
	.byte	0x34
	.byte	0x7
	.long	0x56
	.byte	0
	.uleb128 0xf
	.long	.LASF847
	.byte	0x2e
	.byte	0x37
	.byte	0x9
	.long	0x45
	.byte	0x8
	.uleb128 0xf
	.long	.LASF848
	.byte	0x2e
	.byte	0x38
	.byte	0x9
	.long	0x45
	.byte	0x10
	.uleb128 0xf
	.long	.LASF849
	.byte	0x2e
	.byte	0x39
	.byte	0x9
	.long	0x45
	.byte	0x18
	.uleb128 0xf
	.long	.LASF850
	.byte	0x2e
	.byte	0x3a
	.byte	0x9
	.long	0x45
	.byte	0x20
	.uleb128 0xf
	.long	.LASF851
	.byte	0x2e
	.byte	0x3b
	.byte	0x9
	.long	0x45
	.byte	0x28
	.uleb128 0xf
	.long	.LASF852
	.byte	0x2e
	.byte	0x3c
	.byte	0x9
	.long	0x45
	.byte	0x30
	.uleb128 0xf
	.long	.LASF853
	.byte	0x2e
	.byte	0x3d
	.byte	0x9
	.long	0x45
	.byte	0x38
	.uleb128 0xf
	.long	.LASF854
	.byte	0x2e
	.byte	0x3e
	.byte	0x9
	.long	0x45
	.byte	0x40
	.uleb128 0xf
	.long	.LASF855
	.byte	0x2e
	.byte	0x41
	.byte	0x9
	.long	0x45
	.byte	0x48
	.uleb128 0xf
	.long	.LASF856
	.byte	0x2e
	.byte	0x42
	.byte	0x9
	.long	0x45
	.byte	0x50
	.uleb128 0xf
	.long	.LASF857
	.byte	0x2e
	.byte	0x43
	.byte	0x9
	.long	0x45
	.byte	0x58
	.uleb128 0xf
	.long	.LASF858
	.byte	0x2e
	.byte	0x45
	.byte	0x16
	.long	0x971c
	.byte	0x60
	.uleb128 0xf
	.long	.LASF859
	.byte	0x2e
	.byte	0x47
	.byte	0x14
	.long	0x9721
	.byte	0x68
	.uleb128 0xf
	.long	.LASF860
	.byte	0x2e
	.byte	0x49
	.byte	0x7
	.long	0x56
	.byte	0x70
	.uleb128 0xb5
	.long	.LASF977
	.byte	0x2e
	.byte	0x4a
	.byte	0x7
	.long	0x56
	.byte	0x18
	.value	0x3a0
	.uleb128 0xf
	.long	.LASF861
	.byte	0x2e
	.byte	0x4c
	.byte	0x8
	.long	0x9726
	.byte	0x77
	.uleb128 0xf
	.long	.LASF862
	.byte	0x2e
	.byte	0x4d
	.byte	0xb
	.long	0x9238
	.byte	0x78
	.uleb128 0xf
	.long	.LASF863
	.byte	0x2e
	.byte	0x50
	.byte	0x12
	.long	0x779e
	.byte	0x80
	.uleb128 0xf
	.long	.LASF864
	.byte	0x2e
	.byte	0x51
	.byte	0xf
	.long	0x8f9c
	.byte	0x82
	.uleb128 0xf
	.long	.LASF865
	.byte	0x2e
	.byte	0x52
	.byte	0x8
	.long	0x9726
	.byte	0x83
	.uleb128 0xf
	.long	.LASF866
	.byte	0x2e
	.byte	0x54
	.byte	0xf
	.long	0x9736
	.byte	0x88
	.uleb128 0xf
	.long	.LASF867
	.byte	0x2e
	.byte	0x5c
	.byte	0xd
	.long	0x9244
	.byte	0x90
	.uleb128 0xf
	.long	.LASF868
	.byte	0x2e
	.byte	0x5e
	.byte	0x17
	.long	0x9740
	.byte	0x98
	.uleb128 0xf
	.long	.LASF869
	.byte	0x2e
	.byte	0x5f
	.byte	0x19
	.long	0x974a
	.byte	0xa0
	.uleb128 0xf
	.long	.LASF870
	.byte	0x2e
	.byte	0x60
	.byte	0x14
	.long	0x9721
	.byte	0xa8
	.uleb128 0xf
	.long	.LASF871
	.byte	0x2e
	.byte	0x61
	.byte	0x9
	.long	0x7568
	.byte	0xb0
	.uleb128 0xf
	.long	.LASF872
	.byte	0x2e
	.byte	0x62
	.byte	0x15
	.long	0x974f
	.byte	0xb8
	.uleb128 0xf
	.long	.LASF873
	.byte	0x2e
	.byte	0x63
	.byte	0x7
	.long	0x56
	.byte	0xc0
	.uleb128 0xf
	.long	.LASF874
	.byte	0x2e
	.byte	0x65
	.byte	0x8
	.long	0x9754
	.byte	0xc4
	.byte	0
	.uleb128 0x8
	.long	.LASF875
	.byte	0x2f
	.byte	0x7
	.byte	0x19
	.long	0x75fb
	.uleb128 0x29
	.byte	0x2
	.byte	0x7
	.long	.LASF876
	.uleb128 0xd
	.long	0x5e
	.uleb128 0xd
	.long	0x51
	.uleb128 0x15
	.long	.LASF877
	.byte	0x30
	.value	0x157
	.byte	0x1
	.long	0x756b
	.long	0x77c6
	.uleb128 0x1
	.long	0x56
	.byte	0
	.uleb128 0x15
	.long	.LASF878
	.byte	0x30
	.value	0x3a7
	.byte	0xf
	.long	0x756b
	.long	0x77dd
	.uleb128 0x1
	.long	0x77dd
	.byte	0
	.uleb128 0xd
	.long	0x75ef
	.uleb128 0x15
	.long	.LASF879
	.byte	0x30
	.value	0x3c4
	.byte	0x11
	.long	0x7803
	.long	0x7803
	.uleb128 0x1
	.long	0x7803
	.uleb128 0x1
	.long	0x56
	.uleb128 0x1
	.long	0x77dd
	.byte	0
	.uleb128 0xd
	.long	0x7808
	.uleb128 0x29
	.byte	0x4
	.byte	0x5
	.long	.LASF880
	.uleb128 0x7
	.long	0x7808
	.uleb128 0x15
	.long	.LASF881
	.byte	0x30
	.value	0x3b5
	.byte	0xf
	.long	0x756b
	.long	0x7830
	.uleb128 0x1
	.long	0x7808
	.uleb128 0x1
	.long	0x77dd
	.byte	0
	.uleb128 0x15
	.long	.LASF882
	.byte	0x30
	.value	0x3cb
	.byte	0xc
	.long	0x56
	.long	0x784c
	.uleb128 0x1
	.long	0x784c
	.uleb128 0x1
	.long	0x77dd
	.byte	0
	.uleb128 0xd
	.long	0x780f
	.uleb128 0x15
	.long	.LASF883
	.byte	0x30
	.value	0x2d5
	.byte	0xc
	.long	0x56
	.long	0x786d
	.uleb128 0x1
	.long	0x77dd
	.uleb128 0x1
	.long	0x56
	.byte	0
	.uleb128 0x15
	.long	.LASF884
	.byte	0x30
	.value	0x2dc
	.byte	0xc
	.long	0x56
	.long	0x788a
	.uleb128 0x1
	.long	0x77dd
	.uleb128 0x1
	.long	0x784c
	.uleb128 0x60
	.byte	0
	.uleb128 0x16
	.long	.LASF885
	.byte	0x30
	.value	0x31b
	.byte	0xc
	.long	.LASF886
	.long	0x56
	.long	0x78ab
	.uleb128 0x1
	.long	0x77dd
	.uleb128 0x1
	.long	0x784c
	.uleb128 0x60
	.byte	0
	.uleb128 0x15
	.long	.LASF887
	.byte	0x30
	.value	0x3a8
	.byte	0xf
	.long	0x756b
	.long	0x78c2
	.uleb128 0x1
	.long	0x77dd
	.byte	0
	.uleb128 0x95
	.long	.LASF1116
	.byte	0x30
	.value	0x3ae
	.byte	0xf
	.long	0x756b
	.uleb128 0x15
	.long	.LASF888
	.byte	0x30
	.value	0x162
	.byte	0x1
	.long	0x7515
	.long	0x78f1
	.uleb128 0x1
	.long	0x77aa
	.uleb128 0x1
	.long	0x7515
	.uleb128 0x1
	.long	0x78f1
	.byte	0
	.uleb128 0xd
	.long	0x75de
	.uleb128 0x15
	.long	.LASF889
	.byte	0x30
	.value	0x141
	.byte	0xf
	.long	0x7515
	.long	0x791c
	.uleb128 0x1
	.long	0x7803
	.uleb128 0x1
	.long	0x77aa
	.uleb128 0x1
	.long	0x7515
	.uleb128 0x1
	.long	0x78f1
	.byte	0
	.uleb128 0x15
	.long	.LASF890
	.byte	0x30
	.value	0x13d
	.byte	0xc
	.long	0x56
	.long	0x7933
	.uleb128 0x1
	.long	0x7933
	.byte	0
	.uleb128 0xd
	.long	0x75ea
	.uleb128 0x15
	.long	.LASF891
	.byte	0x30
	.value	0x16a
	.byte	0xf
	.long	0x7515
	.long	0x795e
	.uleb128 0x1
	.long	0x7803
	.uleb128 0x1
	.long	0x795e
	.uleb128 0x1
	.long	0x7515
	.uleb128 0x1
	.long	0x78f1
	.byte	0
	.uleb128 0xd
	.long	0x77aa
	.uleb128 0x15
	.long	.LASF892
	.byte	0x30
	.value	0x3b6
	.byte	0xf
	.long	0x756b
	.long	0x797f
	.uleb128 0x1
	.long	0x7808
	.uleb128 0x1
	.long	0x77dd
	.byte	0
	.uleb128 0x15
	.long	.LASF893
	.byte	0x30
	.value	0x3bc
	.byte	0xf
	.long	0x756b
	.long	0x7996
	.uleb128 0x1
	.long	0x7808
	.byte	0
	.uleb128 0x15
	.long	.LASF894
	.byte	0x30
	.value	0x2e6
	.byte	0xc
	.long	0x56
	.long	0x79b8
	.uleb128 0x1
	.long	0x7803
	.uleb128 0x1
	.long	0x7515
	.uleb128 0x1
	.long	0x784c
	.uleb128 0x60
	.byte	0
	.uleb128 0x16
	.long	.LASF895
	.byte	0x30
	.value	0x322
	.byte	0xc
	.long	.LASF896
	.long	0x56
	.long	0x79d9
	.uleb128 0x1
	.long	0x784c
	.uleb128 0x1
	.long	0x784c
	.uleb128 0x60
	.byte	0
	.uleb128 0x15
	.long	.LASF897
	.byte	0x30
	.value	0x3d3
	.byte	0xf
	.long	0x756b
	.long	0x79f5
	.uleb128 0x1
	.long	0x756b
	.uleb128 0x1
	.long	0x77dd
	.byte	0
	.uleb128 0x15
	.long	.LASF898
	.byte	0x30
	.value	0x2ee
	.byte	0xc
	.long	0x56
	.long	0x7a16
	.uleb128 0x1
	.long	0x77dd
	.uleb128 0x1
	.long	0x784c
	.uleb128 0x1
	.long	0x7a16
	.byte	0
	.uleb128 0xd
	.long	0x752b
	.uleb128 0x16
	.long	.LASF899
	.byte	0x30
	.value	0x36b
	.byte	0xc
	.long	.LASF900
	.long	0x56
	.long	0x7a40
	.uleb128 0x1
	.long	0x77dd
	.uleb128 0x1
	.long	0x784c
	.uleb128 0x1
	.long	0x7a16
	.byte	0
	.uleb128 0x15
	.long	.LASF901
	.byte	0x30
	.value	0x2fb
	.byte	0xc
	.long	0x56
	.long	0x7a66
	.uleb128 0x1
	.long	0x7803
	.uleb128 0x1
	.long	0x7515
	.uleb128 0x1
	.long	0x784c
	.uleb128 0x1
	.long	0x7a16
	.byte	0
	.uleb128 0x16
	.long	.LASF902
	.byte	0x30
	.value	0x372
	.byte	0xc
	.long	.LASF903
	.long	0x56
	.long	0x7a8b
	.uleb128 0x1
	.long	0x784c
	.uleb128 0x1
	.long	0x784c
	.uleb128 0x1
	.long	0x7a16
	.byte	0
	.uleb128 0x15
	.long	.LASF904
	.byte	0x30
	.value	0x2f6
	.byte	0xc
	.long	0x56
	.long	0x7aa7
	.uleb128 0x1
	.long	0x784c
	.uleb128 0x1
	.long	0x7a16
	.byte	0
	.uleb128 0x16
	.long	.LASF905
	.byte	0x30
	.value	0x36f
	.byte	0xc
	.long	.LASF906
	.long	0x56
	.long	0x7ac7
	.uleb128 0x1
	.long	0x784c
	.uleb128 0x1
	.long	0x7a16
	.byte	0
	.uleb128 0x15
	.long	.LASF907
	.byte	0x30
	.value	0x146
	.byte	0xf
	.long	0x7515
	.long	0x7ae8
	.uleb128 0x1
	.long	0x45
	.uleb128 0x1
	.long	0x7808
	.uleb128 0x1
	.long	0x78f1
	.byte	0
	.uleb128 0x24
	.long	.LASF908
	.byte	0x30
	.byte	0x79
	.byte	0x11
	.long	0x7803
	.long	0x7b03
	.uleb128 0x1
	.long	0x7803
	.uleb128 0x1
	.long	0x784c
	.byte	0
	.uleb128 0x24
	.long	.LASF909
	.byte	0x30
	.byte	0x82
	.byte	0xc
	.long	0x56
	.long	0x7b1e
	.uleb128 0x1
	.long	0x784c
	.uleb128 0x1
	.long	0x784c
	.byte	0
	.uleb128 0x24
	.long	.LASF910
	.byte	0x30
	.byte	0x9b
	.byte	0xc
	.long	0x56
	.long	0x7b39
	.uleb128 0x1
	.long	0x784c
	.uleb128 0x1
	.long	0x784c
	.byte	0
	.uleb128 0x24
	.long	.LASF911
	.byte	0x30
	.byte	0x62
	.byte	0x11
	.long	0x7803
	.long	0x7b54
	.uleb128 0x1
	.long	0x7803
	.uleb128 0x1
	.long	0x784c
	.byte	0
	.uleb128 0x24
	.long	.LASF912
	.byte	0x30
	.byte	0xd4
	.byte	0xf
	.long	0x7515
	.long	0x7b6f
	.uleb128 0x1
	.long	0x784c
	.uleb128 0x1
	.long	0x784c
	.byte	0
	.uleb128 0x15
	.long	.LASF913
	.byte	0x30
	.value	0x413
	.byte	0xf
	.long	0x7515
	.long	0x7b95
	.uleb128 0x1
	.long	0x7803
	.uleb128 0x1
	.long	0x7515
	.uleb128 0x1
	.long	0x784c
	.uleb128 0x1
	.long	0x7b95
	.byte	0
	.uleb128 0xd
	.long	0x7c37
	.uleb128 0xb6
	.string	"tm"
	.byte	0x38
	.byte	0x31
	.byte	0x7
	.byte	0x8
	.long	0x7c37
	.uleb128 0xf
	.long	.LASF914
	.byte	0x31
	.byte	0x9
	.byte	0x7
	.long	0x56
	.byte	0
	.uleb128 0xf
	.long	.LASF915
	.byte	0x31
	.byte	0xa
	.byte	0x7
	.long	0x56
	.byte	0x4
	.uleb128 0xf
	.long	.LASF916
	.byte	0x31
	.byte	0xb
	.byte	0x7
	.long	0x56
	.byte	0x8
	.uleb128 0xf
	.long	.LASF917
	.byte	0x31
	.byte	0xc
	.byte	0x7
	.long	0x56
	.byte	0xc
	.uleb128 0xf
	.long	.LASF918
	.byte	0x31
	.byte	0xd
	.byte	0x7
	.long	0x56
	.byte	0x10
	.uleb128 0xf
	.long	.LASF919
	.byte	0x31
	.byte	0xe
	.byte	0x7
	.long	0x56
	.byte	0x14
	.uleb128 0xf
	.long	.LASF920
	.byte	0x31
	.byte	0xf
	.byte	0x7
	.long	0x56
	.byte	0x18
	.uleb128 0xf
	.long	.LASF921
	.byte	0x31
	.byte	0x10
	.byte	0x7
	.long	0x56
	.byte	0x1c
	.uleb128 0xf
	.long	.LASF922
	.byte	0x31
	.byte	0x11
	.byte	0x7
	.long	0x56
	.byte	0x20
	.uleb128 0xf
	.long	.LASF923
	.byte	0x31
	.byte	0x14
	.byte	0xc
	.long	0x7d86
	.byte	0x28
	.uleb128 0xf
	.long	.LASF924
	.byte	0x31
	.byte	0x15
	.byte	0xf
	.long	0x77aa
	.byte	0x30
	.byte	0
	.uleb128 0x7
	.long	0x7b9a
	.uleb128 0x24
	.long	.LASF925
	.byte	0x30
	.byte	0xf7
	.byte	0xf
	.long	0x7515
	.long	0x7c52
	.uleb128 0x1
	.long	0x784c
	.byte	0
	.uleb128 0x24
	.long	.LASF926
	.byte	0x30
	.byte	0x7d
	.byte	0x11
	.long	0x7803
	.long	0x7c72
	.uleb128 0x1
	.long	0x7803
	.uleb128 0x1
	.long	0x784c
	.uleb128 0x1
	.long	0x7515
	.byte	0
	.uleb128 0x24
	.long	.LASF927
	.byte	0x30
	.byte	0x85
	.byte	0xc
	.long	0x56
	.long	0x7c92
	.uleb128 0x1
	.long	0x784c
	.uleb128 0x1
	.long	0x784c
	.uleb128 0x1
	.long	0x7515
	.byte	0
	.uleb128 0x24
	.long	.LASF928
	.byte	0x30
	.byte	0x67
	.byte	0x11
	.long	0x7803
	.long	0x7cb2
	.uleb128 0x1
	.long	0x7803
	.uleb128 0x1
	.long	0x784c
	.uleb128 0x1
	.long	0x7515
	.byte	0
	.uleb128 0x15
	.long	.LASF929
	.byte	0x30
	.value	0x170
	.byte	0xf
	.long	0x7515
	.long	0x7cd8
	.uleb128 0x1
	.long	0x45
	.uleb128 0x1
	.long	0x7cd8
	.uleb128 0x1
	.long	0x7515
	.uleb128 0x1
	.long	0x78f1
	.byte	0
	.uleb128 0xd
	.long	0x784c
	.uleb128 0x24
	.long	.LASF930
	.byte	0x30
	.byte	0xd8
	.byte	0xf
	.long	0x7515
	.long	0x7cf8
	.uleb128 0x1
	.long	0x784c
	.uleb128 0x1
	.long	0x784c
	.byte	0
	.uleb128 0x15
	.long	.LASF931
	.byte	0x30
	.value	0x192
	.byte	0xf
	.long	0x7d14
	.long	0x7d14
	.uleb128 0x1
	.long	0x784c
	.uleb128 0x1
	.long	0x7d1b
	.byte	0
	.uleb128 0x29
	.byte	0x8
	.byte	0x4
	.long	.LASF932
	.uleb128 0xd
	.long	0x7803
	.uleb128 0x15
	.long	.LASF933
	.byte	0x30
	.value	0x197
	.byte	0xe
	.long	0x30
	.long	0x7d3c
	.uleb128 0x1
	.long	0x784c
	.uleb128 0x1
	.long	0x7d1b
	.byte	0
	.uleb128 0x7
	.long	0x30
	.uleb128 0x24
	.long	.LASF934
	.byte	0x30
	.byte	0xf2
	.byte	0x11
	.long	0x7803
	.long	0x7d61
	.uleb128 0x1
	.long	0x7803
	.uleb128 0x1
	.long	0x784c
	.uleb128 0x1
	.long	0x7d1b
	.byte	0
	.uleb128 0x16
	.long	.LASF935
	.byte	0x30
	.value	0x1f4
	.byte	0x11
	.long	.LASF936
	.long	0x7d86
	.long	0x7d86
	.uleb128 0x1
	.long	0x784c
	.uleb128 0x1
	.long	0x7d1b
	.uleb128 0x1
	.long	0x56
	.byte	0
	.uleb128 0x29
	.byte	0x8
	.byte	0x5
	.long	.LASF937
	.uleb128 0x16
	.long	.LASF938
	.byte	0x30
	.value	0x1f7
	.byte	0x1a
	.long	.LASF939
	.long	0x3e
	.long	0x7db2
	.uleb128 0x1
	.long	0x784c
	.uleb128 0x1
	.long	0x7d1b
	.uleb128 0x1
	.long	0x56
	.byte	0
	.uleb128 0x24
	.long	.LASF940
	.byte	0x30
	.byte	0x9f
	.byte	0xf
	.long	0x7515
	.long	0x7dd2
	.uleb128 0x1
	.long	0x7803
	.uleb128 0x1
	.long	0x784c
	.uleb128 0x1
	.long	0x7515
	.byte	0
	.uleb128 0x15
	.long	.LASF941
	.byte	0x30
	.value	0x15d
	.byte	0x1
	.long	0x56
	.long	0x7de9
	.uleb128 0x1
	.long	0x756b
	.byte	0
	.uleb128 0x15
	.long	.LASF942
	.byte	0x30
	.value	0x11b
	.byte	0xc
	.long	0x56
	.long	0x7e0a
	.uleb128 0x1
	.long	0x784c
	.uleb128 0x1
	.long	0x784c
	.uleb128 0x1
	.long	0x7515
	.byte	0
	.uleb128 0x15
	.long	.LASF943
	.byte	0x30
	.value	0x11f
	.byte	0x11
	.long	0x7803
	.long	0x7e2b
	.uleb128 0x1
	.long	0x7803
	.uleb128 0x1
	.long	0x784c
	.uleb128 0x1
	.long	0x7515
	.byte	0
	.uleb128 0x15
	.long	.LASF944
	.byte	0x30
	.value	0x124
	.byte	0x11
	.long	0x7803
	.long	0x7e4c
	.uleb128 0x1
	.long	0x7803
	.uleb128 0x1
	.long	0x784c
	.uleb128 0x1
	.long	0x7515
	.byte	0
	.uleb128 0x15
	.long	.LASF945
	.byte	0x30
	.value	0x128
	.byte	0x11
	.long	0x7803
	.long	0x7e6d
	.uleb128 0x1
	.long	0x7803
	.uleb128 0x1
	.long	0x7808
	.uleb128 0x1
	.long	0x7515
	.byte	0
	.uleb128 0x15
	.long	.LASF946
	.byte	0x30
	.value	0x2e3
	.byte	0xc
	.long	0x56
	.long	0x7e85
	.uleb128 0x1
	.long	0x784c
	.uleb128 0x60
	.byte	0
	.uleb128 0x16
	.long	.LASF947
	.byte	0x30
	.value	0x31f
	.byte	0xc
	.long	.LASF948
	.long	0x56
	.long	0x7ea1
	.uleb128 0x1
	.long	0x784c
	.uleb128 0x60
	.byte	0
	.uleb128 0x32
	.long	.LASF949
	.byte	0x30
	.byte	0xba
	.byte	0x1d
	.long	.LASF949
	.long	0x784c
	.long	0x7ec0
	.uleb128 0x1
	.long	0x784c
	.uleb128 0x1
	.long	0x7808
	.byte	0
	.uleb128 0x32
	.long	.LASF949
	.byte	0x30
	.byte	0xb8
	.byte	0x17
	.long	.LASF949
	.long	0x7803
	.long	0x7edf
	.uleb128 0x1
	.long	0x7803
	.uleb128 0x1
	.long	0x7808
	.byte	0
	.uleb128 0x32
	.long	.LASF950
	.byte	0x30
	.byte	0xde
	.byte	0x1d
	.long	.LASF950
	.long	0x784c
	.long	0x7efe
	.uleb128 0x1
	.long	0x784c
	.uleb128 0x1
	.long	0x784c
	.byte	0
	.uleb128 0x32
	.long	.LASF950
	.byte	0x30
	.byte	0xdc
	.byte	0x17
	.long	.LASF950
	.long	0x7803
	.long	0x7f1d
	.uleb128 0x1
	.long	0x7803
	.uleb128 0x1
	.long	0x784c
	.byte	0
	.uleb128 0x32
	.long	.LASF951
	.byte	0x30
	.byte	0xc4
	.byte	0x1d
	.long	.LASF951
	.long	0x784c
	.long	0x7f3c
	.uleb128 0x1
	.long	0x784c
	.uleb128 0x1
	.long	0x7808
	.byte	0
	.uleb128 0x32
	.long	.LASF951
	.byte	0x30
	.byte	0xc2
	.byte	0x17
	.long	.LASF951
	.long	0x7803
	.long	0x7f5b
	.uleb128 0x1
	.long	0x7803
	.uleb128 0x1
	.long	0x7808
	.byte	0
	.uleb128 0x32
	.long	.LASF952
	.byte	0x30
	.byte	0xe9
	.byte	0x1d
	.long	.LASF952
	.long	0x784c
	.long	0x7f7a
	.uleb128 0x1
	.long	0x784c
	.uleb128 0x1
	.long	0x784c
	.byte	0
	.uleb128 0x32
	.long	.LASF952
	.byte	0x30
	.byte	0xe7
	.byte	0x17
	.long	.LASF952
	.long	0x7803
	.long	0x7f99
	.uleb128 0x1
	.long	0x7803
	.uleb128 0x1
	.long	0x784c
	.byte	0
	.uleb128 0x16
	.long	.LASF953
	.byte	0x30
	.value	0x112
	.byte	0x1d
	.long	.LASF953
	.long	0x784c
	.long	0x7fbe
	.uleb128 0x1
	.long	0x784c
	.uleb128 0x1
	.long	0x7808
	.uleb128 0x1
	.long	0x7515
	.byte	0
	.uleb128 0x16
	.long	.LASF953
	.byte	0x30
	.value	0x110
	.byte	0x17
	.long	.LASF953
	.long	0x7803
	.long	0x7fe3
	.uleb128 0x1
	.long	0x7803
	.uleb128 0x1
	.long	0x7808
	.uleb128 0x1
	.long	0x7515
	.byte	0
	.uleb128 0x96
	.long	.LASF954
	.byte	0x12
	.value	0x17b
	.long	0x8ebb
	.uleb128 0x5
	.byte	0x11
	.byte	0xfd
	.byte	0xb
	.long	0x8ebb
	.uleb128 0x18
	.byte	0x11
	.value	0x106
	.byte	0xb
	.long	0x8ede
	.uleb128 0x18
	.byte	0x11
	.value	0x107
	.byte	0xb
	.long	0x8f0a
	.uleb128 0x5
	.byte	0x18
	.byte	0xd2
	.byte	0xb
	.long	0x931b
	.uleb128 0x5
	.byte	0x18
	.byte	0xe4
	.byte	0xb
	.long	0x9629
	.uleb128 0x5
	.byte	0x18
	.byte	0xf0
	.byte	0xb
	.long	0x9645
	.uleb128 0x5
	.byte	0x18
	.byte	0xf1
	.byte	0xb
	.long	0x965c
	.uleb128 0x5
	.byte	0x18
	.byte	0xf2
	.byte	0xb
	.long	0x9680
	.uleb128 0x5
	.byte	0x18
	.byte	0xf4
	.byte	0xb
	.long	0x96a4
	.uleb128 0x5
	.byte	0x18
	.byte	0xf5
	.byte	0xb
	.long	0x96bf
	.uleb128 0x4c
	.string	"div"
	.byte	0x18
	.byte	0xe1
	.long	.LASF955
	.long	0x931b
	.long	0x8060
	.uleb128 0x1
	.long	0x8f03
	.uleb128 0x1
	.long	0x8f03
	.byte	0
	.uleb128 0xb7
	.long	.LASF1444
	.byte	0x7
	.byte	0x4
	.long	0x7561
	.byte	0x4c
	.byte	0x36
	.byte	0x8
	.long	0x8086
	.uleb128 0x7d
	.long	.LASF956
	.byte	0
	.uleb128 0x7d
	.long	.LASF957
	.byte	0x1
	.uleb128 0x7d
	.long	.LASF958
	.byte	0x2
	.byte	0
	.uleb128 0x7
	.long	0x8060
	.uleb128 0xb8
	.long	.LASF1445
	.byte	0x4c
	.byte	0x3a
	.byte	0x28
	.long	.LASF1446
	.long	0x8086
	.byte	0x2
	.byte	0x3
	.uleb128 0x1b
	.long	.LASF959
	.byte	0x1
	.byte	0x32
	.byte	0x2f
	.byte	0xa
	.long	0x81ad
	.uleb128 0x5
	.byte	0x32
	.byte	0x2f
	.byte	0xa
	.long	0xd47
	.uleb128 0x5
	.byte	0x32
	.byte	0x2f
	.byte	0xa
	.long	0xd08
	.uleb128 0x5
	.byte	0x32
	.byte	0x2f
	.byte	0xa
	.long	0xd79
	.uleb128 0x5
	.byte	0x32
	.byte	0x2f
	.byte	0xa
	.long	0xd9a
	.uleb128 0x33
	.long	0xced
	.uleb128 0x32
	.long	.LASF960
	.byte	0x32
	.byte	0x63
	.byte	0x1d
	.long	.LASF961
	.long	0xc64
	.long	0x80ea
	.uleb128 0x1
	.long	0x9cd7
	.byte	0
	.uleb128 0x49
	.long	.LASF962
	.byte	0x32
	.byte	0x67
	.byte	0x26
	.long	.LASF963
	.long	0x8105
	.uleb128 0x1
	.long	0x9cdc
	.uleb128 0x1
	.long	0x9cdc
	.byte	0
	.uleb128 0x31
	.long	.LASF964
	.byte	0x6b
	.long	.LASF965
	.long	0x8f7a
	.uleb128 0x31
	.long	.LASF966
	.byte	0x6f
	.long	.LASF967
	.long	0x8f7a
	.uleb128 0x31
	.long	.LASF968
	.byte	0x73
	.long	.LASF969
	.long	0x8f7a
	.uleb128 0x31
	.long	.LASF970
	.byte	0x77
	.long	.LASF971
	.long	0x8f7a
	.uleb128 0x31
	.long	.LASF972
	.byte	0x7b
	.long	.LASF973
	.long	0x8f7a
	.uleb128 0x8
	.long	.LASF7
	.byte	0x32
	.byte	0x37
	.byte	0x35
	.long	0xdd0
	.uleb128 0x7
	.long	0x814b
	.uleb128 0x8
	.long	.LASF70
	.byte	0x32
	.byte	0x38
	.byte	0x35
	.long	0xcfb
	.uleb128 0x8
	.long	.LASF71
	.byte	0x32
	.byte	0x3d
	.byte	0x35
	.long	0x9ceb
	.uleb128 0x8
	.long	.LASF74
	.byte	0x32
	.byte	0x3e
	.byte	0x35
	.long	0x9cf0
	.uleb128 0x1b
	.long	.LASF974
	.byte	0x1
	.byte	0x32
	.byte	0x7f
	.byte	0xe
	.long	0x81a3
	.uleb128 0x8
	.long	.LASF975
	.byte	0x32
	.byte	0x80
	.byte	0x41
	.long	0xddd
	.uleb128 0x11
	.string	"_Tp"
	.long	0x37
	.byte	0
	.uleb128 0xc
	.long	.LASF141
	.long	0xc64
	.byte	0
	.uleb128 0x4b
	.long	.LASF976
	.byte	0x8
	.byte	0x3
	.value	0x402
	.long	0x83db
	.uleb128 0x71
	.long	.LASF978
	.long	0x9caa
	.uleb128 0x10
	.long	.LASF979
	.byte	0x3
	.value	0x41d
	.byte	0x7
	.long	.LASF980
	.byte	0x1
	.long	0x81d9
	.long	0x81df
	.uleb128 0x2
	.long	0xa599
	.byte	0
	.uleb128 0x43
	.long	.LASF979
	.byte	0x3
	.value	0x422
	.long	.LASF981
	.long	0x81f3
	.long	0x81fe
	.uleb128 0x2
	.long	0xa599
	.uleb128 0x1
	.long	0xa5a3
	.byte	0
	.uleb128 0x13
	.long	.LASF71
	.byte	0x3
	.value	0x414
	.byte	0x32
	.long	0x6bed
	.uleb128 0x6
	.long	.LASF982
	.byte	0x3
	.value	0x441
	.byte	0x7
	.long	.LASF983
	.long	0x81fe
	.byte	0x1
	.long	0x8225
	.long	0x822b
	.uleb128 0x2
	.long	0xa5a8
	.byte	0
	.uleb128 0x13
	.long	.LASF70
	.byte	0x3
	.value	0x415
	.byte	0x32
	.long	0x6be1
	.uleb128 0x6
	.long	.LASF984
	.byte	0x3
	.value	0x447
	.byte	0x7
	.long	.LASF985
	.long	0x822b
	.byte	0x1
	.long	0x8252
	.long	0x8258
	.uleb128 0x2
	.long	0xa5a8
	.byte	0
	.uleb128 0x6
	.long	.LASF986
	.byte	0x3
	.value	0x44d
	.byte	0x7
	.long	.LASF987
	.long	0xa5b2
	.byte	0x1
	.long	0x8272
	.long	0x8278
	.uleb128 0x2
	.long	0xa599
	.byte	0
	.uleb128 0x6
	.long	.LASF986
	.byte	0x3
	.value	0x456
	.byte	0x7
	.long	.LASF988
	.long	0x81ad
	.byte	0x1
	.long	0x8292
	.long	0x829d
	.uleb128 0x2
	.long	0xa599
	.uleb128 0x1
	.long	0x56
	.byte	0
	.uleb128 0x6
	.long	.LASF989
	.byte	0x3
	.value	0x45e
	.byte	0x7
	.long	.LASF990
	.long	0xa5b2
	.byte	0x1
	.long	0x82b7
	.long	0x82bd
	.uleb128 0x2
	.long	0xa599
	.byte	0
	.uleb128 0x6
	.long	.LASF989
	.byte	0x3
	.value	0x467
	.byte	0x7
	.long	.LASF991
	.long	0x81ad
	.byte	0x1
	.long	0x82d7
	.long	0x82e2
	.uleb128 0x2
	.long	0xa599
	.uleb128 0x1
	.long	0x56
	.byte	0
	.uleb128 0x6
	.long	.LASF208
	.byte	0x3
	.value	0x46f
	.byte	0x7
	.long	.LASF992
	.long	0x81fe
	.byte	0x1
	.long	0x82fc
	.long	0x8307
	.uleb128 0x2
	.long	0xa5a8
	.uleb128 0x1
	.long	0x8307
	.byte	0
	.uleb128 0x13
	.long	.LASF442
	.byte	0x3
	.value	0x413
	.byte	0x38
	.long	0x6bd5
	.uleb128 0x6
	.long	.LASF993
	.byte	0x3
	.value	0x475
	.byte	0x7
	.long	.LASF994
	.long	0xa5b2
	.byte	0x1
	.long	0x832e
	.long	0x8339
	.uleb128 0x2
	.long	0xa599
	.uleb128 0x1
	.long	0x8307
	.byte	0
	.uleb128 0x6
	.long	.LASF995
	.byte	0x3
	.value	0x47b
	.byte	0x7
	.long	.LASF996
	.long	0x81ad
	.byte	0x1
	.long	0x8353
	.long	0x835e
	.uleb128 0x2
	.long	0xa5a8
	.uleb128 0x1
	.long	0x8307
	.byte	0
	.uleb128 0x6
	.long	.LASF997
	.byte	0x3
	.value	0x481
	.byte	0x7
	.long	.LASF998
	.long	0xa5b2
	.byte	0x1
	.long	0x8378
	.long	0x8383
	.uleb128 0x2
	.long	0xa599
	.uleb128 0x1
	.long	0x8307
	.byte	0
	.uleb128 0x6
	.long	.LASF999
	.byte	0x3
	.value	0x487
	.byte	0x7
	.long	.LASF1000
	.long	0x81ad
	.byte	0x1
	.long	0x839d
	.long	0x83a8
	.uleb128 0x2
	.long	0xa5a8
	.uleb128 0x1
	.long	0x8307
	.byte	0
	.uleb128 0x6
	.long	.LASF1001
	.byte	0x3
	.value	0x48d
	.byte	0x7
	.long	.LASF1002
	.long	0xa5a3
	.byte	0x1
	.long	0x83c2
	.long	0x83c8
	.uleb128 0x2
	.long	0xa5a8
	.byte	0
	.uleb128 0xc
	.long	.LASF443
	.long	0x9caa
	.uleb128 0xc
	.long	.LASF1003
	.long	0x11b4
	.byte	0
	.uleb128 0x7
	.long	0x81ad
	.uleb128 0x30
	.long	.LASF1004
	.uleb128 0x1b
	.long	.LASF1005
	.byte	0x1
	.byte	0x32
	.byte	0x2f
	.byte	0xa
	.long	0x84f4
	.uleb128 0x5
	.byte	0x32
	.byte	0x2f
	.byte	0xa
	.long	0x2117
	.uleb128 0x5
	.byte	0x32
	.byte	0x2f
	.byte	0xa
	.long	0x20d8
	.uleb128 0x5
	.byte	0x32
	.byte	0x2f
	.byte	0xa
	.long	0x2149
	.uleb128 0x5
	.byte	0x32
	.byte	0x2f
	.byte	0xa
	.long	0x216a
	.uleb128 0x33
	.long	0x20bd
	.uleb128 0x32
	.long	.LASF960
	.byte	0x32
	.byte	0x63
	.byte	0x1d
	.long	.LASF1006
	.long	0x2034
	.long	0x8431
	.uleb128 0x1
	.long	0xa1ca
	.byte	0
	.uleb128 0x49
	.long	.LASF962
	.byte	0x32
	.byte	0x67
	.byte	0x26
	.long	.LASF1007
	.long	0x844c
	.uleb128 0x1
	.long	0xa1cf
	.uleb128 0x1
	.long	0xa1cf
	.byte	0
	.uleb128 0x31
	.long	.LASF964
	.byte	0x6b
	.long	.LASF1008
	.long	0x8f7a
	.uleb128 0x31
	.long	.LASF966
	.byte	0x6f
	.long	.LASF1009
	.long	0x8f7a
	.uleb128 0x31
	.long	.LASF968
	.byte	0x73
	.long	.LASF1010
	.long	0x8f7a
	.uleb128 0x31
	.long	.LASF970
	.byte	0x77
	.long	.LASF1011
	.long	0x8f7a
	.uleb128 0x31
	.long	.LASF972
	.byte	0x7b
	.long	.LASF1012
	.long	0x8f7a
	.uleb128 0x8
	.long	.LASF7
	.byte	0x32
	.byte	0x37
	.byte	0x35
	.long	0x21a0
	.uleb128 0x7
	.long	0x8492
	.uleb128 0x8
	.long	.LASF70
	.byte	0x32
	.byte	0x38
	.byte	0x35
	.long	0x20cb
	.uleb128 0x8
	.long	.LASF71
	.byte	0x32
	.byte	0x3d
	.byte	0x35
	.long	0xa1de
	.uleb128 0x8
	.long	.LASF74
	.byte	0x32
	.byte	0x3e
	.byte	0x35
	.long	0xa1e3
	.uleb128 0x1b
	.long	.LASF1013
	.byte	0x1
	.byte	0x32
	.byte	0x7f
	.byte	0xe
	.long	0x84ea
	.uleb128 0x8
	.long	.LASF975
	.byte	0x32
	.byte	0x80
	.byte	0x41
	.long	0x21ad
	.uleb128 0x11
	.string	"_Tp"
	.long	0x9e7f
	.byte	0
	.uleb128 0xc
	.long	.LASF141
	.long	0x2034
	.byte	0
	.uleb128 0x4b
	.long	.LASF1014
	.byte	0x8
	.byte	0x3
	.value	0x402
	.long	0x8722
	.uleb128 0x71
	.long	.LASF978
	.long	0xa1a2
	.uleb128 0x10
	.long	.LASF979
	.byte	0x3
	.value	0x41d
	.byte	0x7
	.long	.LASF1015
	.byte	0x1
	.long	0x8520
	.long	0x8526
	.uleb128 0x2
	.long	0xa35f
	.byte	0
	.uleb128 0x43
	.long	.LASF979
	.byte	0x3
	.value	0x422
	.long	.LASF1016
	.long	0x853a
	.long	0x8545
	.uleb128 0x2
	.long	0xa35f
	.uleb128 0x1
	.long	0xa369
	.byte	0
	.uleb128 0x13
	.long	.LASF71
	.byte	0x3
	.value	0x414
	.byte	0x32
	.long	0x438b
	.uleb128 0x6
	.long	.LASF982
	.byte	0x3
	.value	0x441
	.byte	0x7
	.long	.LASF1017
	.long	0x8545
	.byte	0x1
	.long	0x856c
	.long	0x8572
	.uleb128 0x2
	.long	0xa36e
	.byte	0
	.uleb128 0x13
	.long	.LASF70
	.byte	0x3
	.value	0x415
	.byte	0x32
	.long	0x437f
	.uleb128 0x6
	.long	.LASF984
	.byte	0x3
	.value	0x447
	.byte	0x7
	.long	.LASF1018
	.long	0x8572
	.byte	0x1
	.long	0x8599
	.long	0x859f
	.uleb128 0x2
	.long	0xa36e
	.byte	0
	.uleb128 0x6
	.long	.LASF986
	.byte	0x3
	.value	0x44d
	.byte	0x7
	.long	.LASF1019
	.long	0xa378
	.byte	0x1
	.long	0x85b9
	.long	0x85bf
	.uleb128 0x2
	.long	0xa35f
	.byte	0
	.uleb128 0x6
	.long	.LASF986
	.byte	0x3
	.value	0x456
	.byte	0x7
	.long	.LASF1020
	.long	0x84f4
	.byte	0x1
	.long	0x85d9
	.long	0x85e4
	.uleb128 0x2
	.long	0xa35f
	.uleb128 0x1
	.long	0x56
	.byte	0
	.uleb128 0x6
	.long	.LASF989
	.byte	0x3
	.value	0x45e
	.byte	0x7
	.long	.LASF1021
	.long	0xa378
	.byte	0x1
	.long	0x85fe
	.long	0x8604
	.uleb128 0x2
	.long	0xa35f
	.byte	0
	.uleb128 0x6
	.long	.LASF989
	.byte	0x3
	.value	0x467
	.byte	0x7
	.long	.LASF1022
	.long	0x84f4
	.byte	0x1
	.long	0x861e
	.long	0x8629
	.uleb128 0x2
	.long	0xa35f
	.uleb128 0x1
	.long	0x56
	.byte	0
	.uleb128 0x6
	.long	.LASF208
	.byte	0x3
	.value	0x46f
	.byte	0x7
	.long	.LASF1023
	.long	0x8545
	.byte	0x1
	.long	0x8643
	.long	0x864e
	.uleb128 0x2
	.long	0xa36e
	.uleb128 0x1
	.long	0x864e
	.byte	0
	.uleb128 0x13
	.long	.LASF442
	.byte	0x3
	.value	0x413
	.byte	0x38
	.long	0x4373
	.uleb128 0x6
	.long	.LASF993
	.byte	0x3
	.value	0x475
	.byte	0x7
	.long	.LASF1024
	.long	0xa378
	.byte	0x1
	.long	0x8675
	.long	0x8680
	.uleb128 0x2
	.long	0xa35f
	.uleb128 0x1
	.long	0x864e
	.byte	0
	.uleb128 0x6
	.long	.LASF995
	.byte	0x3
	.value	0x47b
	.byte	0x7
	.long	.LASF1025
	.long	0x84f4
	.byte	0x1
	.long	0x869a
	.long	0x86a5
	.uleb128 0x2
	.long	0xa36e
	.uleb128 0x1
	.long	0x864e
	.byte	0
	.uleb128 0x6
	.long	.LASF997
	.byte	0x3
	.value	0x481
	.byte	0x7
	.long	.LASF1026
	.long	0xa378
	.byte	0x1
	.long	0x86bf
	.long	0x86ca
	.uleb128 0x2
	.long	0xa35f
	.uleb128 0x1
	.long	0x864e
	.byte	0
	.uleb128 0x6
	.long	.LASF999
	.byte	0x3
	.value	0x487
	.byte	0x7
	.long	.LASF1027
	.long	0x84f4
	.byte	0x1
	.long	0x86e4
	.long	0x86ef
	.uleb128 0x2
	.long	0xa36e
	.uleb128 0x1
	.long	0x864e
	.byte	0
	.uleb128 0x6
	.long	.LASF1001
	.byte	0x3
	.value	0x48d
	.byte	0x7
	.long	.LASF1028
	.long	0xa369
	.byte	0x1
	.long	0x8709
	.long	0x870f
	.uleb128 0x2
	.long	0xa36e
	.byte	0
	.uleb128 0xc
	.long	.LASF443
	.long	0xa1a2
	.uleb128 0xc
	.long	.LASF1003
	.long	0x256b
	.byte	0
	.uleb128 0x7
	.long	0x84f4
	.uleb128 0x4b
	.long	.LASF1029
	.byte	0x8
	.byte	0x3
	.value	0x402
	.long	0x8955
	.uleb128 0x71
	.long	.LASF978
	.long	0xa1b6
	.uleb128 0x10
	.long	.LASF979
	.byte	0x3
	.value	0x41d
	.byte	0x7
	.long	.LASF1030
	.byte	0x1
	.long	0x8753
	.long	0x8759
	.uleb128 0x2
	.long	0xa585
	.byte	0
	.uleb128 0x43
	.long	.LASF979
	.byte	0x3
	.value	0x422
	.long	.LASF1031
	.long	0x876d
	.long	0x8778
	.uleb128 0x2
	.long	0xa585
	.uleb128 0x1
	.long	0xa58a
	.byte	0
	.uleb128 0x13
	.long	.LASF71
	.byte	0x3
	.value	0x414
	.byte	0x32
	.long	0x6bb2
	.uleb128 0x6
	.long	.LASF982
	.byte	0x3
	.value	0x441
	.byte	0x7
	.long	.LASF1032
	.long	0x8778
	.byte	0x1
	.long	0x879f
	.long	0x87a5
	.uleb128 0x2
	.long	0xa58f
	.byte	0
	.uleb128 0x13
	.long	.LASF70
	.byte	0x3
	.value	0x415
	.byte	0x32
	.long	0x6ba6
	.uleb128 0x6
	.long	.LASF984
	.byte	0x3
	.value	0x447
	.byte	0x7
	.long	.LASF1033
	.long	0x87a5
	.byte	0x1
	.long	0x87cc
	.long	0x87d2
	.uleb128 0x2
	.long	0xa58f
	.byte	0
	.uleb128 0x6
	.long	.LASF986
	.byte	0x3
	.value	0x44d
	.byte	0x7
	.long	.LASF1034
	.long	0xa594
	.byte	0x1
	.long	0x87ec
	.long	0x87f2
	.uleb128 0x2
	.long	0xa585
	.byte	0
	.uleb128 0x6
	.long	.LASF986
	.byte	0x3
	.value	0x456
	.byte	0x7
	.long	.LASF1035
	.long	0x8727
	.byte	0x1
	.long	0x880c
	.long	0x8817
	.uleb128 0x2
	.long	0xa585
	.uleb128 0x1
	.long	0x56
	.byte	0
	.uleb128 0x6
	.long	.LASF989
	.byte	0x3
	.value	0x45e
	.byte	0x7
	.long	.LASF1036
	.long	0xa594
	.byte	0x1
	.long	0x8831
	.long	0x8837
	.uleb128 0x2
	.long	0xa585
	.byte	0
	.uleb128 0x6
	.long	.LASF989
	.byte	0x3
	.value	0x467
	.byte	0x7
	.long	.LASF1037
	.long	0x8727
	.byte	0x1
	.long	0x8851
	.long	0x885c
	.uleb128 0x2
	.long	0xa585
	.uleb128 0x1
	.long	0x56
	.byte	0
	.uleb128 0x6
	.long	.LASF208
	.byte	0x3
	.value	0x46f
	.byte	0x7
	.long	.LASF1038
	.long	0x8778
	.byte	0x1
	.long	0x8876
	.long	0x8881
	.uleb128 0x2
	.long	0xa58f
	.uleb128 0x1
	.long	0x8881
	.byte	0
	.uleb128 0x13
	.long	.LASF442
	.byte	0x3
	.value	0x413
	.byte	0x38
	.long	0x6b9a
	.uleb128 0x6
	.long	.LASF993
	.byte	0x3
	.value	0x475
	.byte	0x7
	.long	.LASF1039
	.long	0xa594
	.byte	0x1
	.long	0x88a8
	.long	0x88b3
	.uleb128 0x2
	.long	0xa585
	.uleb128 0x1
	.long	0x8881
	.byte	0
	.uleb128 0x6
	.long	.LASF995
	.byte	0x3
	.value	0x47b
	.byte	0x7
	.long	.LASF1040
	.long	0x8727
	.byte	0x1
	.long	0x88cd
	.long	0x88d8
	.uleb128 0x2
	.long	0xa58f
	.uleb128 0x1
	.long	0x8881
	.byte	0
	.uleb128 0x6
	.long	.LASF997
	.byte	0x3
	.value	0x481
	.byte	0x7
	.long	.LASF1041
	.long	0xa594
	.byte	0x1
	.long	0x88f2
	.long	0x88fd
	.uleb128 0x2
	.long	0xa585
	.uleb128 0x1
	.long	0x8881
	.byte	0
	.uleb128 0x6
	.long	.LASF999
	.byte	0x3
	.value	0x487
	.byte	0x7
	.long	.LASF1042
	.long	0x8727
	.byte	0x1
	.long	0x8917
	.long	0x8922
	.uleb128 0x2
	.long	0xa58f
	.uleb128 0x1
	.long	0x8881
	.byte	0
	.uleb128 0x6
	.long	.LASF1001
	.byte	0x3
	.value	0x48d
	.byte	0x7
	.long	.LASF1043
	.long	0xa58a
	.byte	0x1
	.long	0x893c
	.long	0x8942
	.uleb128 0x2
	.long	0xa58f
	.byte	0
	.uleb128 0xc
	.long	.LASF443
	.long	0xa1b6
	.uleb128 0xc
	.long	.LASF1003
	.long	0x256b
	.byte	0
	.uleb128 0x7
	.long	0x8727
	.uleb128 0x1b
	.long	.LASF1044
	.byte	0x1
	.byte	0x32
	.byte	0x2f
	.byte	0xa
	.long	0x8a4f
	.uleb128 0x5
	.byte	0x32
	.byte	0x2f
	.byte	0xa
	.long	0x33bc
	.uleb128 0x5
	.byte	0x32
	.byte	0x2f
	.byte	0xa
	.long	0x3381
	.uleb128 0x5
	.byte	0x32
	.byte	0x2f
	.byte	0xa
	.long	0x33ea
	.uleb128 0x5
	.byte	0x32
	.byte	0x2f
	.byte	0xa
	.long	0x3407
	.uleb128 0x33
	.long	0x3366
	.uleb128 0x91
	.long	.LASF960
	.byte	0x32
	.byte	0x63
	.byte	0x1d
	.long	0x32e9
	.long	0x89a3
	.uleb128 0x1
	.long	0xa2ab
	.byte	0
	.uleb128 0x92
	.long	.LASF962
	.byte	0x32
	.byte	0x67
	.byte	0x26
	.long	0x89bb
	.uleb128 0x1
	.long	0xa2b0
	.uleb128 0x1
	.long	0xa2b0
	.byte	0
	.uleb128 0x67
	.long	.LASF964
	.byte	0x6b
	.long	0x8f7a
	.uleb128 0x67
	.long	.LASF966
	.byte	0x6f
	.long	0x8f7a
	.uleb128 0x67
	.long	.LASF968
	.byte	0x73
	.long	0x8f7a
	.uleb128 0x67
	.long	.LASF970
	.byte	0x77
	.long	0x8f7a
	.uleb128 0x67
	.long	.LASF972
	.byte	0x7b
	.long	0x8f7a
	.uleb128 0x8
	.long	.LASF7
	.byte	0x32
	.byte	0x37
	.byte	0x35
	.long	0x3435
	.uleb128 0x7
	.long	0x89ed
	.uleb128 0x8
	.long	.LASF70
	.byte	0x32
	.byte	0x38
	.byte	0x35
	.long	0x3374
	.uleb128 0x8
	.long	.LASF71
	.byte	0x32
	.byte	0x3d
	.byte	0x35
	.long	0xa2bf
	.uleb128 0x8
	.long	.LASF74
	.byte	0x32
	.byte	0x3e
	.byte	0x35
	.long	0xa2c4
	.uleb128 0x1b
	.long	.LASF1045
	.byte	0x1
	.byte	0x32
	.byte	0x7f
	.byte	0xe
	.long	0x8a45
	.uleb128 0x8
	.long	.LASF975
	.byte	0x32
	.byte	0x80
	.byte	0x41
	.long	0x3442
	.uleb128 0x11
	.string	"_Tp"
	.long	0xa0fa
	.byte	0
	.uleb128 0xc
	.long	.LASF141
	.long	0x32e9
	.byte	0
	.uleb128 0x4b
	.long	.LASF1046
	.byte	0x8
	.byte	0x3
	.value	0x402
	.long	0x8c45
	.uleb128 0x71
	.long	.LASF978
	.long	0xa27e
	.uleb128 0x2a
	.long	.LASF979
	.byte	0x3
	.value	0x41d
	.byte	0x7
	.byte	0x1
	.long	0x8a77
	.long	0x8a7d
	.uleb128 0x2
	.long	0xa46d
	.byte	0
	.uleb128 0x7a
	.long	.LASF979
	.byte	0x3
	.value	0x422
	.long	0x8a8d
	.long	0x8a98
	.uleb128 0x2
	.long	0xa46d
	.uleb128 0x1
	.long	0xa477
	.byte	0
	.uleb128 0x13
	.long	.LASF71
	.byte	0x3
	.value	0x414
	.byte	0x32
	.long	0x5773
	.uleb128 0x1e
	.long	.LASF982
	.byte	0x3
	.value	0x441
	.byte	0x7
	.long	0x8a98
	.byte	0x1
	.long	0x8abb
	.long	0x8ac1
	.uleb128 0x2
	.long	0xa47c
	.byte	0
	.uleb128 0x13
	.long	.LASF70
	.byte	0x3
	.value	0x415
	.byte	0x32
	.long	0x5767
	.uleb128 0x1e
	.long	.LASF984
	.byte	0x3
	.value	0x447
	.byte	0x7
	.long	0x8ac1
	.byte	0x1
	.long	0x8ae4
	.long	0x8aea
	.uleb128 0x2
	.long	0xa47c
	.byte	0
	.uleb128 0x1e
	.long	.LASF986
	.byte	0x3
	.value	0x44d
	.byte	0x7
	.long	0xa486
	.byte	0x1
	.long	0x8b00
	.long	0x8b06
	.uleb128 0x2
	.long	0xa46d
	.byte	0
	.uleb128 0x1e
	.long	.LASF986
	.byte	0x3
	.value	0x456
	.byte	0x7
	.long	0x8a4f
	.byte	0x1
	.long	0x8b1c
	.long	0x8b27
	.uleb128 0x2
	.long	0xa46d
	.uleb128 0x1
	.long	0x56
	.byte	0
	.uleb128 0x1e
	.long	.LASF989
	.byte	0x3
	.value	0x45e
	.byte	0x7
	.long	0xa486
	.byte	0x1
	.long	0x8b3d
	.long	0x8b43
	.uleb128 0x2
	.long	0xa46d
	.byte	0
	.uleb128 0x1e
	.long	.LASF989
	.byte	0x3
	.value	0x467
	.byte	0x7
	.long	0x8a4f
	.byte	0x1
	.long	0x8b59
	.long	0x8b64
	.uleb128 0x2
	.long	0xa46d
	.uleb128 0x1
	.long	0x56
	.byte	0
	.uleb128 0x1e
	.long	.LASF208
	.byte	0x3
	.value	0x46f
	.byte	0x7
	.long	0x8a98
	.byte	0x1
	.long	0x8b7a
	.long	0x8b85
	.uleb128 0x2
	.long	0xa47c
	.uleb128 0x1
	.long	0x8b85
	.byte	0
	.uleb128 0x13
	.long	.LASF442
	.byte	0x3
	.value	0x413
	.byte	0x38
	.long	0x575b
	.uleb128 0x1e
	.long	.LASF993
	.byte	0x3
	.value	0x475
	.byte	0x7
	.long	0xa486
	.byte	0x1
	.long	0x8ba8
	.long	0x8bb3
	.uleb128 0x2
	.long	0xa46d
	.uleb128 0x1
	.long	0x8b85
	.byte	0
	.uleb128 0x1e
	.long	.LASF995
	.byte	0x3
	.value	0x47b
	.byte	0x7
	.long	0x8a4f
	.byte	0x1
	.long	0x8bc9
	.long	0x8bd4
	.uleb128 0x2
	.long	0xa47c
	.uleb128 0x1
	.long	0x8b85
	.byte	0
	.uleb128 0x1e
	.long	.LASF997
	.byte	0x3
	.value	0x481
	.byte	0x7
	.long	0xa486
	.byte	0x1
	.long	0x8bea
	.long	0x8bf5
	.uleb128 0x2
	.long	0xa46d
	.uleb128 0x1
	.long	0x8b85
	.byte	0
	.uleb128 0x1e
	.long	.LASF999
	.byte	0x3
	.value	0x487
	.byte	0x7
	.long	0x8a4f
	.byte	0x1
	.long	0x8c0b
	.long	0x8c16
	.uleb128 0x2
	.long	0xa47c
	.uleb128 0x1
	.long	0x8b85
	.byte	0
	.uleb128 0x1e
	.long	.LASF1001
	.byte	0x3
	.value	0x48d
	.byte	0x7
	.long	0xa477
	.byte	0x1
	.long	0x8c2c
	.long	0x8c32
	.uleb128 0x2
	.long	0xa47c
	.byte	0
	.uleb128 0xc
	.long	.LASF443
	.long	0xa27e
	.uleb128 0xc
	.long	.LASF1003
	.long	0x37e5
	.byte	0
	.uleb128 0x7
	.long	0x8a4f
	.uleb128 0x30
	.long	.LASF1047
	.uleb128 0x1b
	.long	.LASF1048
	.byte	0x1
	.byte	0x32
	.byte	0x2f
	.byte	0xa
	.long	0x8d5e
	.uleb128 0x5
	.byte	0x32
	.byte	0x2f
	.byte	0xa
	.long	0x4627
	.uleb128 0x5
	.byte	0x32
	.byte	0x2f
	.byte	0xa
	.long	0x45e8
	.uleb128 0x5
	.byte	0x32
	.byte	0x2f
	.byte	0xa
	.long	0x4659
	.uleb128 0x5
	.byte	0x32
	.byte	0x2f
	.byte	0xa
	.long	0x467a
	.uleb128 0x33
	.long	0x45cd
	.uleb128 0x32
	.long	.LASF960
	.byte	0x32
	.byte	0x63
	.byte	0x1d
	.long	.LASF1049
	.long	0x4544
	.long	0x8c9b
	.uleb128 0x1
	.long	0xa3b9
	.byte	0
	.uleb128 0x49
	.long	.LASF962
	.byte	0x32
	.byte	0x67
	.byte	0x26
	.long	.LASF1050
	.long	0x8cb6
	.uleb128 0x1
	.long	0xa3be
	.uleb128 0x1
	.long	0xa3be
	.byte	0
	.uleb128 0x31
	.long	.LASF964
	.byte	0x6b
	.long	.LASF1051
	.long	0x8f7a
	.uleb128 0x31
	.long	.LASF966
	.byte	0x6f
	.long	.LASF1052
	.long	0x8f7a
	.uleb128 0x31
	.long	.LASF968
	.byte	0x73
	.long	.LASF1053
	.long	0x8f7a
	.uleb128 0x31
	.long	.LASF970
	.byte	0x77
	.long	.LASF1054
	.long	0x8f7a
	.uleb128 0x31
	.long	.LASF972
	.byte	0x7b
	.long	.LASF1055
	.long	0x8f7a
	.uleb128 0x8
	.long	.LASF7
	.byte	0x32
	.byte	0x37
	.byte	0x35
	.long	0x46b0
	.uleb128 0x7
	.long	0x8cfc
	.uleb128 0x8
	.long	.LASF70
	.byte	0x32
	.byte	0x38
	.byte	0x35
	.long	0x45db
	.uleb128 0x8
	.long	.LASF71
	.byte	0x32
	.byte	0x3d
	.byte	0x35
	.long	0xa3cd
	.uleb128 0x8
	.long	.LASF74
	.byte	0x32
	.byte	0x3e
	.byte	0x35
	.long	0xa3d2
	.uleb128 0x1b
	.long	.LASF1056
	.byte	0x1
	.byte	0x32
	.byte	0x7f
	.byte	0xe
	.long	0x8d54
	.uleb128 0x8
	.long	.LASF975
	.byte	0x32
	.byte	0x80
	.byte	0x41
	.long	0x46bd
	.uleb128 0x11
	.string	"_Tp"
	.long	0x56
	.byte	0
	.uleb128 0xc
	.long	.LASF141
	.long	0x4544
	.byte	0
	.uleb128 0x30
	.long	.LASF1057
	.uleb128 0x30
	.long	.LASF1058
	.uleb128 0x1b
	.long	.LASF1059
	.byte	0x1
	.byte	0x32
	.byte	0x2f
	.byte	0xa
	.long	0x8e77
	.uleb128 0x5
	.byte	0x32
	.byte	0x2f
	.byte	0xa
	.long	0x5a0f
	.uleb128 0x5
	.byte	0x32
	.byte	0x2f
	.byte	0xa
	.long	0x59d0
	.uleb128 0x5
	.byte	0x32
	.byte	0x2f
	.byte	0xa
	.long	0x5a41
	.uleb128 0x5
	.byte	0x32
	.byte	0x2f
	.byte	0xa
	.long	0x5a62
	.uleb128 0x33
	.long	0x59b5
	.uleb128 0x32
	.long	.LASF960
	.byte	0x32
	.byte	0x63
	.byte	0x1d
	.long	.LASF1060
	.long	0x592c
	.long	0x8db4
	.uleb128 0x1
	.long	0xa4cc
	.byte	0
	.uleb128 0x49
	.long	.LASF962
	.byte	0x32
	.byte	0x67
	.byte	0x26
	.long	.LASF1061
	.long	0x8dcf
	.uleb128 0x1
	.long	0xa4d1
	.uleb128 0x1
	.long	0xa4d1
	.byte	0
	.uleb128 0x31
	.long	.LASF964
	.byte	0x6b
	.long	.LASF1062
	.long	0x8f7a
	.uleb128 0x31
	.long	.LASF966
	.byte	0x6f
	.long	.LASF1063
	.long	0x8f7a
	.uleb128 0x31
	.long	.LASF968
	.byte	0x73
	.long	.LASF1064
	.long	0x8f7a
	.uleb128 0x31
	.long	.LASF970
	.byte	0x77
	.long	.LASF1065
	.long	0x8f7a
	.uleb128 0x31
	.long	.LASF972
	.byte	0x7b
	.long	.LASF1066
	.long	0x8f7a
	.uleb128 0x8
	.long	.LASF7
	.byte	0x32
	.byte	0x37
	.byte	0x35
	.long	0x5a98
	.uleb128 0x7
	.long	0x8e15
	.uleb128 0x8
	.long	.LASF70
	.byte	0x32
	.byte	0x38
	.byte	0x35
	.long	0x59c3
	.uleb128 0x8
	.long	.LASF71
	.byte	0x32
	.byte	0x3d
	.byte	0x35
	.long	0xa4e0
	.uleb128 0x8
	.long	.LASF74
	.byte	0x32
	.byte	0x3e
	.byte	0x35
	.long	0xa4e5
	.uleb128 0x1b
	.long	.LASF1067
	.byte	0x1
	.byte	0x32
	.byte	0x7f
	.byte	0xe
	.long	0x8e6d
	.uleb128 0x8
	.long	.LASF975
	.byte	0x32
	.byte	0x80
	.byte	0x41
	.long	0x5aa5
	.uleb128 0x11
	.string	"_Tp"
	.long	0x30
	.byte	0
	.uleb128 0xc
	.long	.LASF141
	.long	0x592c
	.byte	0
	.uleb128 0x30
	.long	.LASF1068
	.uleb128 0x30
	.long	.LASF1069
	.uleb128 0x44
	.long	.LASF1070
	.byte	0x3
	.value	0x4dd
	.byte	0x7
	.long	0x8f7a
	.long	0x8e9d
	.uleb128 0x1
	.long	0x109e1
	.uleb128 0x1
	.long	0x109e1
	.byte	0
	.uleb128 0x93
	.long	.LASF1070
	.byte	0x3
	.value	0x4dd
	.byte	0x7
	.long	.LASF1071
	.long	0x8f7a
	.uleb128 0x1
	.long	0x10a3b
	.uleb128 0x1
	.long	0x10a3b
	.byte	0
	.byte	0
	.uleb128 0x15
	.long	.LASF1072
	.byte	0x30
	.value	0x199
	.byte	0x14
	.long	0x8ed7
	.long	0x8ed7
	.uleb128 0x1
	.long	0x784c
	.uleb128 0x1
	.long	0x7d1b
	.byte	0
	.uleb128 0x29
	.byte	0x10
	.byte	0x4
	.long	.LASF1073
	.uleb128 0x16
	.long	.LASF1074
	.byte	0x30
	.value	0x1fc
	.byte	0x16
	.long	.LASF1075
	.long	0x8f03
	.long	0x8f03
	.uleb128 0x1
	.long	0x784c
	.uleb128 0x1
	.long	0x7d1b
	.uleb128 0x1
	.long	0x56
	.byte	0
	.uleb128 0x29
	.byte	0x8
	.byte	0x5
	.long	.LASF1076
	.uleb128 0x16
	.long	.LASF1077
	.byte	0x30
	.value	0x201
	.byte	0x1f
	.long	.LASF1078
	.long	0x8f2f
	.long	0x8f2f
	.uleb128 0x1
	.long	0x784c
	.uleb128 0x1
	.long	0x7d1b
	.uleb128 0x1
	.long	0x56
	.byte	0
	.uleb128 0x29
	.byte	0x8
	.byte	0x7
	.long	.LASF1079
	.uleb128 0xb9
	.byte	0x20
	.byte	0x10
	.byte	0x28
	.value	0x1b8
	.byte	0x10
	.long	.LASF1447
	.long	0x8f65
	.uleb128 0x97
	.long	.LASF1080
	.value	0x1b9
	.byte	0xd
	.long	0x8f03
	.byte	0x8
	.byte	0
	.uleb128 0x97
	.long	.LASF1081
	.value	0x1ba
	.byte	0xf
	.long	0x8ed7
	.byte	0x10
	.byte	0x10
	.byte	0
	.uleb128 0xba
	.long	.LASF1082
	.byte	0x28
	.value	0x1c3
	.byte	0x3
	.long	0x8f36
	.byte	0x10
	.uleb128 0xbb
	.long	.LASF1448
	.uleb128 0x29
	.byte	0x1
	.byte	0x2
	.long	.LASF1083
	.uleb128 0x7
	.long	0x8f7a
	.uleb128 0xd
	.long	0x33f
	.uleb128 0xd
	.long	0x3ae
	.uleb128 0x7
	.long	0x37
	.uleb128 0x29
	.byte	0x10
	.byte	0x7
	.long	.LASF1084
	.uleb128 0x29
	.byte	0x1
	.byte	0x6
	.long	.LASF1085
	.uleb128 0x29
	.byte	0x2
	.byte	0x5
	.long	.LASF1086
	.uleb128 0x29
	.byte	0x10
	.byte	0x5
	.long	.LASF1087
	.uleb128 0x29
	.byte	0x2
	.byte	0x10
	.long	.LASF1088
	.uleb128 0x29
	.byte	0x4
	.byte	0x10
	.long	.LASF1089
	.uleb128 0xd
	.long	0x3e7
	.uleb128 0xd
	.long	0x5cf
	.uleb128 0xd
	.long	0x8fce
	.uleb128 0xbc
	.uleb128 0xa
	.long	0x61a
	.uleb128 0xa
	.long	0x5cf
	.uleb128 0x27
	.long	0x3e7
	.uleb128 0xa
	.long	0x3e7
	.uleb128 0xd
	.long	0x61a
	.uleb128 0x1b
	.long	.LASF1090
	.byte	0x60
	.byte	0x33
	.byte	0x33
	.byte	0x8
	.long	0x912f
	.uleb128 0xf
	.long	.LASF1091
	.byte	0x33
	.byte	0x37
	.byte	0x9
	.long	0x45
	.byte	0
	.uleb128 0xf
	.long	.LASF1092
	.byte	0x33
	.byte	0x38
	.byte	0x9
	.long	0x45
	.byte	0x8
	.uleb128 0xf
	.long	.LASF1093
	.byte	0x33
	.byte	0x3e
	.byte	0x9
	.long	0x45
	.byte	0x10
	.uleb128 0xf
	.long	.LASF1094
	.byte	0x33
	.byte	0x44
	.byte	0x9
	.long	0x45
	.byte	0x18
	.uleb128 0xf
	.long	.LASF1095
	.byte	0x33
	.byte	0x45
	.byte	0x9
	.long	0x45
	.byte	0x20
	.uleb128 0xf
	.long	.LASF1096
	.byte	0x33
	.byte	0x46
	.byte	0x9
	.long	0x45
	.byte	0x28
	.uleb128 0xf
	.long	.LASF1097
	.byte	0x33
	.byte	0x47
	.byte	0x9
	.long	0x45
	.byte	0x30
	.uleb128 0xf
	.long	.LASF1098
	.byte	0x33
	.byte	0x48
	.byte	0x9
	.long	0x45
	.byte	0x38
	.uleb128 0xf
	.long	.LASF1099
	.byte	0x33
	.byte	0x49
	.byte	0x9
	.long	0x45
	.byte	0x40
	.uleb128 0xf
	.long	.LASF1100
	.byte	0x33
	.byte	0x4a
	.byte	0x9
	.long	0x45
	.byte	0x48
	.uleb128 0xf
	.long	.LASF1101
	.byte	0x33
	.byte	0x4b
	.byte	0x8
	.long	0x4a
	.byte	0x50
	.uleb128 0xf
	.long	.LASF1102
	.byte	0x33
	.byte	0x4c
	.byte	0x8
	.long	0x4a
	.byte	0x51
	.uleb128 0xf
	.long	.LASF1103
	.byte	0x33
	.byte	0x4e
	.byte	0x8
	.long	0x4a
	.byte	0x52
	.uleb128 0xf
	.long	.LASF1104
	.byte	0x33
	.byte	0x50
	.byte	0x8
	.long	0x4a
	.byte	0x53
	.uleb128 0xf
	.long	.LASF1105
	.byte	0x33
	.byte	0x52
	.byte	0x8
	.long	0x4a
	.byte	0x54
	.uleb128 0xf
	.long	.LASF1106
	.byte	0x33
	.byte	0x54
	.byte	0x8
	.long	0x4a
	.byte	0x55
	.uleb128 0xf
	.long	.LASF1107
	.byte	0x33
	.byte	0x5b
	.byte	0x8
	.long	0x4a
	.byte	0x56
	.uleb128 0xf
	.long	.LASF1108
	.byte	0x33
	.byte	0x5c
	.byte	0x8
	.long	0x4a
	.byte	0x57
	.uleb128 0xf
	.long	.LASF1109
	.byte	0x33
	.byte	0x5f
	.byte	0x8
	.long	0x4a
	.byte	0x58
	.uleb128 0xf
	.long	.LASF1110
	.byte	0x33
	.byte	0x61
	.byte	0x8
	.long	0x4a
	.byte	0x59
	.uleb128 0xf
	.long	.LASF1111
	.byte	0x33
	.byte	0x63
	.byte	0x8
	.long	0x4a
	.byte	0x5a
	.uleb128 0xf
	.long	.LASF1112
	.byte	0x33
	.byte	0x65
	.byte	0x8
	.long	0x4a
	.byte	0x5b
	.uleb128 0xf
	.long	.LASF1113
	.byte	0x33
	.byte	0x6c
	.byte	0x8
	.long	0x4a
	.byte	0x5c
	.uleb128 0xf
	.long	.LASF1114
	.byte	0x33
	.byte	0x6d
	.byte	0x8
	.long	0x4a
	.byte	0x5d
	.byte	0
	.uleb128 0x24
	.long	.LASF1115
	.byte	0x33
	.byte	0x7a
	.byte	0xe
	.long	0x45
	.long	0x914a
	.uleb128 0x1
	.long	0x56
	.uleb128 0x1
	.long	0x77aa
	.byte	0
	.uleb128 0x72
	.long	.LASF1117
	.byte	0x33
	.byte	0x7d
	.byte	0x16
	.long	0x9156
	.uleb128 0xd
	.long	0x8fe9
	.uleb128 0x8
	.long	.LASF1118
	.byte	0x34
	.byte	0x25
	.byte	0x15
	.long	0x8f9c
	.uleb128 0x8
	.long	.LASF1119
	.byte	0x34
	.byte	0x26
	.byte	0x17
	.long	0x37
	.uleb128 0x8
	.long	.LASF1120
	.byte	0x34
	.byte	0x27
	.byte	0x1a
	.long	0x8fa3
	.uleb128 0x8
	.long	.LASF1121
	.byte	0x34
	.byte	0x28
	.byte	0x1c
	.long	0x779e
	.uleb128 0x8
	.long	.LASF1122
	.byte	0x34
	.byte	0x29
	.byte	0x14
	.long	0x56
	.uleb128 0x7
	.long	0x918b
	.uleb128 0x8
	.long	.LASF1123
	.byte	0x34
	.byte	0x2a
	.byte	0x16
	.long	0x7561
	.uleb128 0x8
	.long	.LASF1124
	.byte	0x34
	.byte	0x2c
	.byte	0x19
	.long	0x7d86
	.uleb128 0x8
	.long	.LASF1125
	.byte	0x34
	.byte	0x2d
	.byte	0x1b
	.long	0x3e
	.uleb128 0x8
	.long	.LASF1126
	.byte	0x34
	.byte	0x34
	.byte	0x12
	.long	0x915b
	.uleb128 0x8
	.long	.LASF1127
	.byte	0x34
	.byte	0x35
	.byte	0x13
	.long	0x9167
	.uleb128 0x8
	.long	.LASF1128
	.byte	0x34
	.byte	0x36
	.byte	0x13
	.long	0x9173
	.uleb128 0x8
	.long	.LASF1129
	.byte	0x34
	.byte	0x37
	.byte	0x14
	.long	0x917f
	.uleb128 0x8
	.long	.LASF1130
	.byte	0x34
	.byte	0x38
	.byte	0x13
	.long	0x918b
	.uleb128 0x8
	.long	.LASF1131
	.byte	0x34
	.byte	0x39
	.byte	0x14
	.long	0x919c
	.uleb128 0x8
	.long	.LASF1132
	.byte	0x34
	.byte	0x3a
	.byte	0x13
	.long	0x91a8
	.uleb128 0x8
	.long	.LASF1133
	.byte	0x34
	.byte	0x3b
	.byte	0x14
	.long	0x91b4
	.uleb128 0x8
	.long	.LASF1134
	.byte	0x34
	.byte	0x48
	.byte	0x12
	.long	0x7d86
	.uleb128 0x8
	.long	.LASF1135
	.byte	0x34
	.byte	0x49
	.byte	0x1b
	.long	0x3e
	.uleb128 0x8
	.long	.LASF1136
	.byte	0x34
	.byte	0x98
	.byte	0x19
	.long	0x7d86
	.uleb128 0x8
	.long	.LASF1137
	.byte	0x34
	.byte	0x99
	.byte	0x1b
	.long	0x7d86
	.uleb128 0x8
	.long	.LASF1138
	.byte	0x34
	.byte	0x9c
	.byte	0x1b
	.long	0x7d86
	.uleb128 0x8
	.long	.LASF1139
	.byte	0x34
	.byte	0xa0
	.byte	0x1a
	.long	0x7d86
	.uleb128 0x8
	.long	.LASF1140
	.byte	0x34
	.byte	0xc5
	.byte	0x21
	.long	0x7d86
	.uleb128 0x96
	.long	.LASF1141
	.byte	0x3
	.value	0xbb4
	.long	0x928b
	.uleb128 0xbd
	.byte	0x17
	.byte	0x3a
	.byte	0x18
	.long	0x6b5
	.byte	0
	.uleb128 0x70
	.byte	0x8
	.byte	0x35
	.byte	0x3c
	.byte	0x3
	.long	.LASF1143
	.long	0x92b3
	.uleb128 0xf
	.long	.LASF1144
	.byte	0x35
	.byte	0x3d
	.byte	0x9
	.long	0x56
	.byte	0
	.uleb128 0x41
	.string	"rem"
	.byte	0x35
	.byte	0x3e
	.byte	0x9
	.long	0x56
	.byte	0x4
	.byte	0
	.uleb128 0x8
	.long	.LASF1145
	.byte	0x35
	.byte	0x3f
	.byte	0x5
	.long	0x928b
	.uleb128 0x70
	.byte	0x10
	.byte	0x35
	.byte	0x44
	.byte	0x3
	.long	.LASF1146
	.long	0x92e7
	.uleb128 0xf
	.long	.LASF1144
	.byte	0x35
	.byte	0x45
	.byte	0xe
	.long	0x7d86
	.byte	0
	.uleb128 0x41
	.string	"rem"
	.byte	0x35
	.byte	0x46
	.byte	0xe
	.long	0x7d86
	.byte	0x8
	.byte	0
	.uleb128 0x8
	.long	.LASF1147
	.byte	0x35
	.byte	0x47
	.byte	0x5
	.long	0x92bf
	.uleb128 0x70
	.byte	0x10
	.byte	0x35
	.byte	0x4e
	.byte	0x3
	.long	.LASF1148
	.long	0x931b
	.uleb128 0xf
	.long	.LASF1144
	.byte	0x35
	.byte	0x4f
	.byte	0x13
	.long	0x8f03
	.byte	0
	.uleb128 0x41
	.string	"rem"
	.byte	0x35
	.byte	0x50
	.byte	0x13
	.long	0x8f03
	.byte	0x8
	.byte	0
	.uleb128 0x8
	.long	.LASF1149
	.byte	0x35
	.byte	0x51
	.byte	0x5
	.long	0x92f3
	.uleb128 0x8
	.long	.LASF1150
	.byte	0x36
	.byte	0x7
	.byte	0x13
	.long	0x9250
	.uleb128 0x8
	.long	.LASF1151
	.byte	0x37
	.byte	0xa
	.byte	0x12
	.long	0x925c
	.uleb128 0x7
	.long	0x9333
	.uleb128 0x8
	.long	.LASF1152
	.byte	0x38
	.byte	0x18
	.byte	0x12
	.long	0x915b
	.uleb128 0x8
	.long	.LASF1153
	.byte	0x38
	.byte	0x19
	.byte	0x13
	.long	0x9173
	.uleb128 0x8
	.long	.LASF1154
	.byte	0x38
	.byte	0x1a
	.byte	0x13
	.long	0x918b
	.uleb128 0x8
	.long	.LASF1155
	.byte	0x38
	.byte	0x1b
	.byte	0x13
	.long	0x91a8
	.uleb128 0x1b
	.long	.LASF1156
	.byte	0x10
	.byte	0x39
	.byte	0xb
	.byte	0x8
	.long	0x939c
	.uleb128 0xf
	.long	.LASF1157
	.byte	0x39
	.byte	0x10
	.byte	0xc
	.long	0x925c
	.byte	0
	.uleb128 0xf
	.long	.LASF1158
	.byte	0x39
	.byte	0x15
	.byte	0x15
	.long	0x9268
	.byte	0x8
	.byte	0
	.uleb128 0x1d
	.long	.LASF1159
	.byte	0x35
	.value	0x3b4
	.byte	0xf
	.long	0x93a9
	.uleb128 0xd
	.long	0x93ae
	.uleb128 0xbe
	.long	0x56
	.long	0x93c3
	.uleb128 0x1
	.long	0x8fc9
	.uleb128 0x1
	.long	0x8fc9
	.byte	0
	.uleb128 0x15
	.long	.LASF1160
	.byte	0x35
	.value	0x2de
	.byte	0xc
	.long	0x56
	.long	0x93da
	.uleb128 0x1
	.long	0x93da
	.byte	0
	.uleb128 0xd
	.long	0x93df
	.uleb128 0xbf
	.uleb128 0x16
	.long	.LASF1161
	.byte	0x35
	.value	0x2e3
	.byte	0x12
	.long	.LASF1161
	.long	0x56
	.long	0x93fc
	.uleb128 0x1
	.long	0x93da
	.byte	0
	.uleb128 0x24
	.long	.LASF1162
	.byte	0x3a
	.byte	0x19
	.byte	0x1
	.long	0x7d14
	.long	0x9412
	.uleb128 0x1
	.long	0x77aa
	.byte	0
	.uleb128 0x15
	.long	.LASF1163
	.byte	0x35
	.value	0x1e1
	.byte	0x1
	.long	0x56
	.long	0x9429
	.uleb128 0x1
	.long	0x77aa
	.byte	0
	.uleb128 0x15
	.long	.LASF1164
	.byte	0x35
	.value	0x1e6
	.byte	0x1
	.long	0x7d86
	.long	0x9440
	.uleb128 0x1
	.long	0x77aa
	.byte	0
	.uleb128 0x24
	.long	.LASF1165
	.byte	0x3b
	.byte	0x14
	.byte	0x1
	.long	0x7568
	.long	0x946a
	.uleb128 0x1
	.long	0x8fc9
	.uleb128 0x1
	.long	0x8fc9
	.uleb128 0x1
	.long	0x7515
	.uleb128 0x1
	.long	0x7515
	.uleb128 0x1
	.long	0x939c
	.byte	0
	.uleb128 0xc0
	.string	"div"
	.byte	0x35
	.value	0x3e0
	.byte	0xe
	.long	0x92b3
	.long	0x9487
	.uleb128 0x1
	.long	0x56
	.uleb128 0x1
	.long	0x56
	.byte	0
	.uleb128 0x15
	.long	.LASF1166
	.byte	0x35
	.value	0x305
	.byte	0xe
	.long	0x45
	.long	0x949e
	.uleb128 0x1
	.long	0x77aa
	.byte	0
	.uleb128 0x15
	.long	.LASF1167
	.byte	0x35
	.value	0x3e2
	.byte	0xf
	.long	0x92e7
	.long	0x94ba
	.uleb128 0x1
	.long	0x7d86
	.uleb128 0x1
	.long	0x7d86
	.byte	0
	.uleb128 0x15
	.long	.LASF1168
	.byte	0x35
	.value	0x426
	.byte	0xc
	.long	0x56
	.long	0x94d6
	.uleb128 0x1
	.long	0x77aa
	.uleb128 0x1
	.long	0x7515
	.byte	0
	.uleb128 0x15
	.long	.LASF1169
	.byte	0x35
	.value	0x431
	.byte	0xf
	.long	0x7515
	.long	0x94f7
	.uleb128 0x1
	.long	0x7803
	.uleb128 0x1
	.long	0x77aa
	.uleb128 0x1
	.long	0x7515
	.byte	0
	.uleb128 0x15
	.long	.LASF1170
	.byte	0x35
	.value	0x429
	.byte	0xc
	.long	0x56
	.long	0x9518
	.uleb128 0x1
	.long	0x7803
	.uleb128 0x1
	.long	0x77aa
	.uleb128 0x1
	.long	0x7515
	.byte	0
	.uleb128 0x61
	.long	.LASF1171
	.byte	0x35
	.value	0x3ca
	.long	0x9539
	.uleb128 0x1
	.long	0x7568
	.uleb128 0x1
	.long	0x7515
	.uleb128 0x1
	.long	0x7515
	.uleb128 0x1
	.long	0x939c
	.byte	0
	.uleb128 0xc1
	.long	.LASF1172
	.byte	0x35
	.value	0x2fa
	.byte	0xd
	.long	0x954d
	.uleb128 0x1
	.long	0x56
	.byte	0
	.uleb128 0x95
	.long	.LASF1173
	.byte	0x35
	.value	0x23d
	.byte	0xc
	.long	0x56
	.uleb128 0x61
	.long	.LASF1174
	.byte	0x35
	.value	0x23f
	.long	0x956d
	.uleb128 0x1
	.long	0x7561
	.byte	0
	.uleb128 0x24
	.long	.LASF1175
	.byte	0x35
	.byte	0x76
	.byte	0xf
	.long	0x7d14
	.long	0x9588
	.uleb128 0x1
	.long	0x77aa
	.uleb128 0x1
	.long	0x9588
	.byte	0
	.uleb128 0xd
	.long	0x45
	.uleb128 0x32
	.long	.LASF1176
	.byte	0x35
	.byte	0xd7
	.byte	0x11
	.long	.LASF1177
	.long	0x7d86
	.long	0x95b1
	.uleb128 0x1
	.long	0x77aa
	.uleb128 0x1
	.long	0x9588
	.uleb128 0x1
	.long	0x56
	.byte	0
	.uleb128 0x32
	.long	.LASF1178
	.byte	0x35
	.byte	0xdb
	.byte	0x1a
	.long	.LASF1179
	.long	0x3e
	.long	0x95d5
	.uleb128 0x1
	.long	0x77aa
	.uleb128 0x1
	.long	0x9588
	.uleb128 0x1
	.long	0x56
	.byte	0
	.uleb128 0x15
	.long	.LASF1180
	.byte	0x35
	.value	0x39b
	.byte	0xc
	.long	0x56
	.long	0x95ec
	.uleb128 0x1
	.long	0x77aa
	.byte	0
	.uleb128 0x15
	.long	.LASF1181
	.byte	0x35
	.value	0x435
	.byte	0xf
	.long	0x7515
	.long	0x960d
	.uleb128 0x1
	.long	0x45
	.uleb128 0x1
	.long	0x784c
	.uleb128 0x1
	.long	0x7515
	.byte	0
	.uleb128 0x15
	.long	.LASF1182
	.byte	0x35
	.value	0x42d
	.byte	0xc
	.long	0x56
	.long	0x9629
	.uleb128 0x1
	.long	0x45
	.uleb128 0x1
	.long	0x7808
	.byte	0
	.uleb128 0x15
	.long	.LASF1183
	.byte	0x35
	.value	0x3e6
	.byte	0x1e
	.long	0x931b
	.long	0x9645
	.uleb128 0x1
	.long	0x8f03
	.uleb128 0x1
	.long	0x8f03
	.byte	0
	.uleb128 0x15
	.long	.LASF1184
	.byte	0x35
	.value	0x1ed
	.byte	0x1
	.long	0x8f03
	.long	0x965c
	.uleb128 0x1
	.long	0x77aa
	.byte	0
	.uleb128 0x32
	.long	.LASF1185
	.byte	0x35
	.byte	0xee
	.byte	0x16
	.long	.LASF1186
	.long	0x8f03
	.long	0x9680
	.uleb128 0x1
	.long	0x77aa
	.uleb128 0x1
	.long	0x9588
	.uleb128 0x1
	.long	0x56
	.byte	0
	.uleb128 0x32
	.long	.LASF1187
	.byte	0x35
	.byte	0xf3
	.byte	0x1f
	.long	.LASF1188
	.long	0x8f2f
	.long	0x96a4
	.uleb128 0x1
	.long	0x77aa
	.uleb128 0x1
	.long	0x9588
	.uleb128 0x1
	.long	0x56
	.byte	0
	.uleb128 0x24
	.long	.LASF1189
	.byte	0x35
	.byte	0x7c
	.byte	0xe
	.long	0x30
	.long	0x96bf
	.uleb128 0x1
	.long	0x77aa
	.uleb128 0x1
	.long	0x9588
	.byte	0
	.uleb128 0x24
	.long	.LASF1190
	.byte	0x35
	.byte	0x7f
	.byte	0x14
	.long	0x8ed7
	.long	0x96da
	.uleb128 0x1
	.long	0x77aa
	.uleb128 0x1
	.long	0x9588
	.byte	0
	.uleb128 0x1b
	.long	.LASF1191
	.byte	0x10
	.byte	0x3c
	.byte	0xa
	.byte	0x10
	.long	0x9702
	.uleb128 0xf
	.long	.LASF1192
	.byte	0x3c
	.byte	0xc
	.byte	0xb
	.long	0x9238
	.byte	0
	.uleb128 0xf
	.long	.LASF1193
	.byte	0x3c
	.byte	0xd
	.byte	0xf
	.long	0x75d2
	.byte	0x8
	.byte	0
	.uleb128 0x8
	.long	.LASF1194
	.byte	0x3c
	.byte	0xe
	.byte	0x3
	.long	0x96da
	.uleb128 0xc2
	.long	.LASF1449
	.byte	0x2e
	.byte	0x2c
	.byte	0xe
	.uleb128 0x7e
	.long	.LASF1195
	.uleb128 0xd
	.long	0x9717
	.uleb128 0xd
	.long	0x75fb
	.uleb128 0x7b
	.long	0x4a
	.long	0x9736
	.uleb128 0x7c
	.long	0x3e
	.byte	0
	.byte	0
	.uleb128 0xd
	.long	0x970e
	.uleb128 0x7e
	.long	.LASF1196
	.uleb128 0xd
	.long	0x973b
	.uleb128 0x7e
	.long	.LASF1197
	.uleb128 0xd
	.long	0x9745
	.uleb128 0xd
	.long	0x9721
	.uleb128 0x7b
	.long	0x4a
	.long	0x9764
	.uleb128 0x7c
	.long	0x3e
	.byte	0x13
	.byte	0
	.uleb128 0x8
	.long	.LASF1198
	.byte	0x3d
	.byte	0x55
	.byte	0x12
	.long	0x9702
	.uleb128 0x7
	.long	0x9764
	.uleb128 0xd
	.long	0x7792
	.uleb128 0x61
	.long	.LASF1199
	.byte	0x3d
	.value	0x352
	.long	0x978c
	.uleb128 0x1
	.long	0x9775
	.byte	0
	.uleb128 0x24
	.long	.LASF1200
	.byte	0x3d
	.byte	0xb8
	.byte	0xc
	.long	0x56
	.long	0x97a2
	.uleb128 0x1
	.long	0x9775
	.byte	0
	.uleb128 0x15
	.long	.LASF1201
	.byte	0x3d
	.value	0x354
	.byte	0xc
	.long	0x56
	.long	0x97b9
	.uleb128 0x1
	.long	0x9775
	.byte	0
	.uleb128 0x15
	.long	.LASF1202
	.byte	0x3d
	.value	0x356
	.byte	0xc
	.long	0x56
	.long	0x97d0
	.uleb128 0x1
	.long	0x9775
	.byte	0
	.uleb128 0x24
	.long	.LASF1203
	.byte	0x3d
	.byte	0xec
	.byte	0xc
	.long	0x56
	.long	0x97e6
	.uleb128 0x1
	.long	0x9775
	.byte	0
	.uleb128 0x15
	.long	.LASF1204
	.byte	0x3d
	.value	0x23f
	.byte	0xc
	.long	0x56
	.long	0x97fd
	.uleb128 0x1
	.long	0x9775
	.byte	0
	.uleb128 0x15
	.long	.LASF1205
	.byte	0x3d
	.value	0x333
	.byte	0xc
	.long	0x56
	.long	0x9819
	.uleb128 0x1
	.long	0x9775
	.uleb128 0x1
	.long	0x9819
	.byte	0
	.uleb128 0xd
	.long	0x9764
	.uleb128 0x15
	.long	.LASF1206
	.byte	0x3d
	.value	0x28e
	.byte	0xe
	.long	0x45
	.long	0x983f
	.uleb128 0x1
	.long	0x45
	.uleb128 0x1
	.long	0x56
	.uleb128 0x1
	.long	0x9775
	.byte	0
	.uleb128 0x15
	.long	.LASF1207
	.byte	0x3d
	.value	0x108
	.byte	0xe
	.long	0x9775
	.long	0x985b
	.uleb128 0x1
	.long	0x77aa
	.uleb128 0x1
	.long	0x77aa
	.byte	0
	.uleb128 0x15
	.long	.LASF1208
	.byte	0x3d
	.value	0x2d8
	.byte	0xf
	.long	0x7515
	.long	0x9881
	.uleb128 0x1
	.long	0x7568
	.uleb128 0x1
	.long	0x7515
	.uleb128 0x1
	.long	0x7515
	.uleb128 0x1
	.long	0x9775
	.byte	0
	.uleb128 0x15
	.long	.LASF1209
	.byte	0x3d
	.value	0x10f
	.byte	0xe
	.long	0x9775
	.long	0x98a2
	.uleb128 0x1
	.long	0x77aa
	.uleb128 0x1
	.long	0x77aa
	.uleb128 0x1
	.long	0x9775
	.byte	0
	.uleb128 0x15
	.long	.LASF1210
	.byte	0x3d
	.value	0x301
	.byte	0xc
	.long	0x56
	.long	0x98c3
	.uleb128 0x1
	.long	0x9775
	.uleb128 0x1
	.long	0x7d86
	.uleb128 0x1
	.long	0x56
	.byte	0
	.uleb128 0x15
	.long	.LASF1211
	.byte	0x3d
	.value	0x339
	.byte	0xc
	.long	0x56
	.long	0x98df
	.uleb128 0x1
	.long	0x9775
	.uleb128 0x1
	.long	0x98df
	.byte	0
	.uleb128 0xd
	.long	0x9770
	.uleb128 0x15
	.long	.LASF1212
	.byte	0x3d
	.value	0x307
	.byte	0x11
	.long	0x7d86
	.long	0x98fb
	.uleb128 0x1
	.long	0x9775
	.byte	0
	.uleb128 0x15
	.long	.LASF1213
	.byte	0x3d
	.value	0x240
	.byte	0xc
	.long	0x56
	.long	0x9912
	.uleb128 0x1
	.long	0x9775
	.byte	0
	.uleb128 0x72
	.long	.LASF1214
	.byte	0x3e
	.byte	0x2f
	.byte	0x1
	.long	0x56
	.uleb128 0x61
	.long	.LASF1215
	.byte	0x3d
	.value	0x364
	.long	0x9930
	.uleb128 0x1
	.long	0x77aa
	.byte	0
	.uleb128 0x24
	.long	.LASF1216
	.byte	0x3d
	.byte	0x9e
	.byte	0xc
	.long	0x56
	.long	0x9946
	.uleb128 0x1
	.long	0x77aa
	.byte	0
	.uleb128 0x24
	.long	.LASF1217
	.byte	0x3d
	.byte	0xa0
	.byte	0xc
	.long	0x56
	.long	0x9961
	.uleb128 0x1
	.long	0x77aa
	.uleb128 0x1
	.long	0x77aa
	.byte	0
	.uleb128 0x61
	.long	.LASF1218
	.byte	0x3d
	.value	0x30c
	.long	0x9973
	.uleb128 0x1
	.long	0x9775
	.byte	0
	.uleb128 0x61
	.long	.LASF1219
	.byte	0x3d
	.value	0x14e
	.long	0x998a
	.uleb128 0x1
	.long	0x9775
	.uleb128 0x1
	.long	0x45
	.byte	0
	.uleb128 0x15
	.long	.LASF1220
	.byte	0x3d
	.value	0x153
	.byte	0xc
	.long	0x56
	.long	0x99b0
	.uleb128 0x1
	.long	0x9775
	.uleb128 0x1
	.long	0x45
	.uleb128 0x1
	.long	0x56
	.uleb128 0x1
	.long	0x7515
	.byte	0
	.uleb128 0x72
	.long	.LASF1221
	.byte	0x3d
	.byte	0xc2
	.byte	0xe
	.long	0x9775
	.uleb128 0x24
	.long	.LASF1222
	.byte	0x3d
	.byte	0xd3
	.byte	0xe
	.long	0x45
	.long	0x99d2
	.uleb128 0x1
	.long	0x45
	.byte	0
	.uleb128 0x15
	.long	.LASF1223
	.byte	0x3d
	.value	0x2d1
	.byte	0xc
	.long	0x56
	.long	0x99ee
	.uleb128 0x1
	.long	0x56
	.uleb128 0x1
	.long	0x9775
	.byte	0
	.uleb128 0x8
	.long	.LASF1224
	.byte	0x3f
	.byte	0x18
	.byte	0x13
	.long	0x9167
	.uleb128 0x8
	.long	.LASF1225
	.byte	0x3f
	.byte	0x19
	.byte	0x14
	.long	0x917f
	.uleb128 0x8
	.long	.LASF1226
	.byte	0x3f
	.byte	0x1a
	.byte	0x14
	.long	0x919c
	.uleb128 0x8
	.long	.LASF1227
	.byte	0x3f
	.byte	0x1b
	.byte	0x14
	.long	0x91b4
	.uleb128 0x8
	.long	.LASF1228
	.byte	0x40
	.byte	0x19
	.byte	0x18
	.long	0x91c0
	.uleb128 0x8
	.long	.LASF1229
	.byte	0x40
	.byte	0x1a
	.byte	0x19
	.long	0x91d8
	.uleb128 0x8
	.long	.LASF1230
	.byte	0x40
	.byte	0x1b
	.byte	0x19
	.long	0x91f0
	.uleb128 0x8
	.long	.LASF1231
	.byte	0x40
	.byte	0x1c
	.byte	0x19
	.long	0x9208
	.uleb128 0x8
	.long	.LASF1232
	.byte	0x40
	.byte	0x1f
	.byte	0x19
	.long	0x91cc
	.uleb128 0x8
	.long	.LASF1233
	.byte	0x40
	.byte	0x20
	.byte	0x1a
	.long	0x91e4
	.uleb128 0x8
	.long	.LASF1234
	.byte	0x40
	.byte	0x21
	.byte	0x1a
	.long	0x91fc
	.uleb128 0x8
	.long	.LASF1235
	.byte	0x40
	.byte	0x22
	.byte	0x1a
	.long	0x9214
	.uleb128 0x8
	.long	.LASF1236
	.byte	0x41
	.byte	0x2f
	.byte	0x16
	.long	0x8f9c
	.uleb128 0x8
	.long	.LASF1237
	.byte	0x41
	.byte	0x31
	.byte	0x13
	.long	0x7d86
	.uleb128 0x8
	.long	.LASF1238
	.byte	0x41
	.byte	0x32
	.byte	0x13
	.long	0x7d86
	.uleb128 0x8
	.long	.LASF1239
	.byte	0x41
	.byte	0x33
	.byte	0x13
	.long	0x7d86
	.uleb128 0x8
	.long	.LASF1240
	.byte	0x41
	.byte	0x3c
	.byte	0x18
	.long	0x37
	.uleb128 0x8
	.long	.LASF1241
	.byte	0x41
	.byte	0x3e
	.byte	0x1b
	.long	0x3e
	.uleb128 0x8
	.long	.LASF1242
	.byte	0x41
	.byte	0x3f
	.byte	0x1b
	.long	0x3e
	.uleb128 0x8
	.long	.LASF1243
	.byte	0x41
	.byte	0x40
	.byte	0x1b
	.long	0x3e
	.uleb128 0x8
	.long	.LASF1244
	.byte	0x41
	.byte	0x4c
	.byte	0x13
	.long	0x7d86
	.uleb128 0x8
	.long	.LASF1245
	.byte	0x41
	.byte	0x4f
	.byte	0x1b
	.long	0x3e
	.uleb128 0x8
	.long	.LASF1246
	.byte	0x41
	.byte	0x5a
	.byte	0x15
	.long	0x9220
	.uleb128 0x8
	.long	.LASF1247
	.byte	0x41
	.byte	0x5b
	.byte	0x16
	.long	0x922c
	.uleb128 0x29
	.byte	0x4
	.byte	0x4
	.long	.LASF1248
	.uleb128 0x29
	.byte	0x8
	.byte	0x4
	.long	.LASF1249
	.uleb128 0x29
	.byte	0x10
	.byte	0x4
	.long	.LASF1250
	.uleb128 0x29
	.byte	0x10
	.byte	0x4
	.long	.LASF1251
	.uleb128 0x72
	.long	.LASF1252
	.byte	0x42
	.byte	0x48
	.byte	0x10
	.long	0x9327
	.uleb128 0x24
	.long	.LASF1253
	.byte	0x42
	.byte	0x4f
	.byte	0xf
	.long	0x7d14
	.long	0x9b51
	.uleb128 0x1
	.long	0x9333
	.uleb128 0x1
	.long	0x9333
	.byte	0
	.uleb128 0x24
	.long	.LASF1254
	.byte	0x42
	.byte	0x52
	.byte	0xf
	.long	0x9333
	.long	0x9b67
	.uleb128 0x1
	.long	0x9b67
	.byte	0
	.uleb128 0xd
	.long	0x7b9a
	.uleb128 0x24
	.long	.LASF1255
	.byte	0x42
	.byte	0x4c
	.byte	0xf
	.long	0x9333
	.long	0x9b82
	.uleb128 0x1
	.long	0x9b82
	.byte	0
	.uleb128 0xd
	.long	0x9333
	.uleb128 0x24
	.long	.LASF1256
	.byte	0x42
	.byte	0xb3
	.byte	0xe
	.long	0x45
	.long	0x9b9d
	.uleb128 0x1
	.long	0x7b95
	.byte	0
	.uleb128 0x24
	.long	.LASF1257
	.byte	0x42
	.byte	0xb7
	.byte	0xe
	.long	0x45
	.long	0x9bb3
	.uleb128 0x1
	.long	0x9bb3
	.byte	0
	.uleb128 0xd
	.long	0x933f
	.uleb128 0x24
	.long	.LASF1258
	.byte	0x42
	.byte	0x84
	.byte	0x13
	.long	0x9b67
	.long	0x9bce
	.uleb128 0x1
	.long	0x9bb3
	.byte	0
	.uleb128 0x24
	.long	.LASF1259
	.byte	0x42
	.byte	0x88
	.byte	0x13
	.long	0x9b67
	.long	0x9be4
	.uleb128 0x1
	.long	0x9bb3
	.byte	0
	.uleb128 0x15
	.long	.LASF1260
	.byte	0x42
	.value	0x17f
	.byte	0xc
	.long	0x56
	.long	0x9c00
	.uleb128 0x1
	.long	0x9c00
	.uleb128 0x1
	.long	0x56
	.byte	0
	.uleb128 0xd
	.long	0x9374
	.uleb128 0x8
	.long	.LASF1261
	.byte	0x43
	.byte	0x26
	.byte	0x1b
	.long	0x3e
	.uleb128 0x8
	.long	.LASF1262
	.byte	0x44
	.byte	0x30
	.byte	0x1a
	.long	0x9c1d
	.uleb128 0xd
	.long	0x9197
	.uleb128 0x24
	.long	.LASF1263
	.byte	0x43
	.byte	0x9f
	.byte	0xc
	.long	0x56
	.long	0x9c3d
	.uleb128 0x1
	.long	0x756b
	.uleb128 0x1
	.long	0x9c05
	.byte	0
	.uleb128 0x24
	.long	.LASF1264
	.byte	0x44
	.byte	0x37
	.byte	0xf
	.long	0x756b
	.long	0x9c58
	.uleb128 0x1
	.long	0x756b
	.uleb128 0x1
	.long	0x9c11
	.byte	0
	.uleb128 0x24
	.long	.LASF1265
	.byte	0x44
	.byte	0x34
	.byte	0x12
	.long	0x9c11
	.long	0x9c6e
	.uleb128 0x1
	.long	0x77aa
	.byte	0
	.uleb128 0x24
	.long	.LASF1266
	.byte	0x43
	.byte	0x9b
	.byte	0x11
	.long	0x9c05
	.long	0x9c84
	.uleb128 0x1
	.long	0x77aa
	.byte	0
	.uleb128 0x98
	.long	0x808b
	.uleb128 0xc3
	.string	"fs"
	.byte	0x4
	.byte	0x9
	.byte	0xb
	.long	0xa42
	.uleb128 0xd
	.long	0xac1
	.uleb128 0x7
	.long	0x9c96
	.uleb128 0xa
	.long	0xc5f
	.uleb128 0xa
	.long	0xac1
	.uleb128 0xd
	.long	0x37
	.uleb128 0x7
	.long	0x9caa
	.uleb128 0xd
	.long	0xc5f
	.uleb128 0x7
	.long	0x9cb4
	.uleb128 0xa
	.long	0x37
	.uleb128 0xd
	.long	0x8f90
	.uleb128 0xa
	.long	0x8f90
	.uleb128 0xd
	.long	0xc64
	.uleb128 0x7
	.long	0x9ccd
	.uleb128 0xa
	.long	0xce8
	.uleb128 0xa
	.long	0xc64
	.uleb128 0xa
	.long	0xd28
	.uleb128 0xa
	.long	0xd35
	.uleb128 0xa
	.long	0x814b
	.uleb128 0xa
	.long	0x8157
	.uleb128 0xd
	.long	0xdf8
	.uleb128 0x7
	.long	0x9cf5
	.uleb128 0x27
	.long	0xdf8
	.uleb128 0xa
	.long	0xe9e
	.uleb128 0xa
	.long	0xdf8
	.uleb128 0xd
	.long	0xeaf
	.uleb128 0x7
	.long	0x9d0e
	.uleb128 0xa
	.long	0xf81
	.uleb128 0x27
	.long	0xeaf
	.uleb128 0x27
	.long	0xf75
	.uleb128 0xa
	.long	0xf75
	.uleb128 0xd
	.long	0xdeb
	.uleb128 0x7
	.long	0x9d2c
	.uleb128 0xd
	.long	0x118c
	.uleb128 0xa
	.long	0xfcf
	.uleb128 0x27
	.long	0xdeb
	.uleb128 0xa
	.long	0x1277
	.uleb128 0xd
	.long	0x11b4
	.uleb128 0x7
	.long	0x9d4a
	.uleb128 0xa
	.long	0x12ce
	.uleb128 0xa
	.long	0x1341
	.uleb128 0xa
	.long	0x1d8d
	.uleb128 0x27
	.long	0x11b4
	.uleb128 0xa
	.long	0x1d9e
	.uleb128 0xa
	.long	0x11b4
	.uleb128 0xd
	.long	0x1d8d
	.uleb128 0x7
	.long	0x9d72
	.uleb128 0x27
	.long	0x1334
	.uleb128 0xa
	.long	0x1284
	.uleb128 0x1b
	.long	.LASF1267
	.byte	0x28
	.byte	0x4
	.byte	0xb
	.byte	0x8
	.long	0x9e6b
	.uleb128 0xf
	.long	.LASF1268
	.byte	0x4
	.byte	0xc
	.byte	0xc
	.long	0x7515
	.byte	0
	.uleb128 0xf
	.long	.LASF1269
	.byte	0x4
	.byte	0xd
	.byte	0xc
	.long	0x7515
	.byte	0x8
	.uleb128 0xf
	.long	.LASF221
	.byte	0x4
	.byte	0xe
	.byte	0x20
	.long	0x11b4
	.byte	0x10
	.uleb128 0x42
	.long	.LASF1270
	.byte	0x4
	.byte	0x10
	.byte	0x13
	.long	.LASF1271
	.long	0x7515
	.long	0x9dd2
	.long	0x9de7
	.uleb128 0x2
	.long	0x9e70
	.uleb128 0x1
	.long	0x7515
	.uleb128 0x1
	.long	0x7515
	.uleb128 0x1
	.long	0x7515
	.byte	0
	.uleb128 0x99
	.string	"at"
	.byte	0x1d
	.byte	0x1b
	.long	.LASF1272
	.long	0x9cbe
	.long	0x9dfe
	.long	0x9e13
	.uleb128 0x2
	.long	0x9e75
	.uleb128 0x1
	.long	0x7515
	.uleb128 0x1
	.long	0x7515
	.uleb128 0x1
	.long	0x7515
	.byte	0
	.uleb128 0x99
	.string	"at"
	.byte	0x21
	.byte	0x21
	.long	.LASF1273
	.long	0x9cc8
	.long	0x9e2a
	.long	0x9e3f
	.uleb128 0x2
	.long	0x9e70
	.uleb128 0x1
	.long	0x7515
	.uleb128 0x1
	.long	0x7515
	.uleb128 0x1
	.long	0x7515
	.byte	0
	.uleb128 0xc4
	.long	.LASF1274
	.long	.LASF1450
	.long	0x9e51
	.long	0x9e57
	.uleb128 0x2
	.long	0x9e75
	.byte	0
	.uleb128 0x6c
	.long	.LASF1267
	.long	.LASF1275
	.long	0x9e64
	.uleb128 0x2
	.long	0x9e75
	.byte	0
	.byte	0
	.uleb128 0x7
	.long	0x9d86
	.uleb128 0xd
	.long	0x9e6b
	.uleb128 0xd
	.long	0x9d86
	.uleb128 0x7
	.long	0x9e75
	.uleb128 0x1b
	.long	.LASF1276
	.byte	0x30
	.byte	0x4
	.byte	0x26
	.byte	0x8
	.long	0x9eb0
	.uleb128 0xf
	.long	.LASF221
	.byte	0x4
	.byte	0x27
	.byte	0xf
	.long	0x9d86
	.byte	0
	.uleb128 0x41
	.string	"u"
	.byte	0x4
	.byte	0x28
	.byte	0xb
	.long	0x30
	.byte	0x28
	.uleb128 0x41
	.string	"v"
	.byte	0x4
	.byte	0x29
	.byte	0xb
	.long	0x30
	.byte	0x2c
	.byte	0
	.uleb128 0x7
	.long	0x9e7f
	.uleb128 0x8
	.long	.LASF1277
	.byte	0x45
	.byte	0xa7
	.byte	0xf
	.long	0x30
	.uleb128 0x8
	.long	.LASF1278
	.byte	0x45
	.byte	0xa8
	.byte	0x10
	.long	0x7d14
	.uleb128 0x29
	.byte	0x8
	.byte	0x4
	.long	.LASF1279
	.uleb128 0x29
	.byte	0x10
	.byte	0x4
	.long	.LASF1280
	.uleb128 0x6a
	.long	.LASF1281
	.byte	0x46
	.byte	0xf
	.byte	0xb
	.long	0x9efa
	.uleb128 0xc5
	.long	.LASF1451
	.byte	0x46
	.byte	0x11
	.byte	0xb
	.uleb128 0x87
	.string	"v1"
	.byte	0x46
	.byte	0x13
	.byte	0x12
	.byte	0
	.byte	0
	.uleb128 0x8
	.long	.LASF1282
	.byte	0x47
	.byte	0x2c
	.byte	0xd
	.long	0x9f06
	.uleb128 0x58
	.long	0x56
	.long	0x9f12
	.uleb128 0x59
	.byte	0x1
	.byte	0
	.uleb128 0x7f
	.long	.LASF1283
	.byte	0x47
	.byte	0x31
	.byte	0xd
	.long	0x9f06
	.uleb128 0x5
	.byte	0x48
	.byte	0x27
	.byte	0xc
	.long	0x93c3
	.uleb128 0x5
	.byte	0x48
	.byte	0x2b
	.byte	0xe
	.long	0x93e1
	.uleb128 0x5
	.byte	0x48
	.byte	0x2e
	.byte	0xe
	.long	0x9539
	.uleb128 0x5
	.byte	0x48
	.byte	0x36
	.byte	0xc
	.long	0x92b3
	.uleb128 0x5
	.byte	0x48
	.byte	0x37
	.byte	0xc
	.long	0x92e7
	.uleb128 0x5
	.byte	0x48
	.byte	0x39
	.byte	0xc
	.long	0x1dc4
	.uleb128 0x5
	.byte	0x48
	.byte	0x39
	.byte	0xc
	.long	0x1ddd
	.uleb128 0x5
	.byte	0x48
	.byte	0x39
	.byte	0xc
	.long	0x1df6
	.uleb128 0x5
	.byte	0x48
	.byte	0x39
	.byte	0xc
	.long	0x1e0f
	.uleb128 0x5
	.byte	0x48
	.byte	0x39
	.byte	0xc
	.long	0x1e28
	.uleb128 0x5
	.byte	0x48
	.byte	0x39
	.byte	0xc
	.long	0x1e41
	.uleb128 0x5
	.byte	0x48
	.byte	0x39
	.byte	0xc
	.long	0x1e5a
	.uleb128 0x5
	.byte	0x48
	.byte	0x3a
	.byte	0xc
	.long	0x93fc
	.uleb128 0x5
	.byte	0x48
	.byte	0x3b
	.byte	0xc
	.long	0x9412
	.uleb128 0x5
	.byte	0x48
	.byte	0x3c
	.byte	0xc
	.long	0x9429
	.uleb128 0x5
	.byte	0x48
	.byte	0x3d
	.byte	0xc
	.long	0x9440
	.uleb128 0x5
	.byte	0x48
	.byte	0x3f
	.byte	0xc
	.long	0x8042
	.uleb128 0x5
	.byte	0x48
	.byte	0x3f
	.byte	0xc
	.long	0x1e73
	.uleb128 0x5
	.byte	0x48
	.byte	0x3f
	.byte	0xc
	.long	0x946a
	.uleb128 0x5
	.byte	0x48
	.byte	0x41
	.byte	0xc
	.long	0x9487
	.uleb128 0x5
	.byte	0x48
	.byte	0x43
	.byte	0xc
	.long	0x949e
	.uleb128 0x5
	.byte	0x48
	.byte	0x46
	.byte	0xc
	.long	0x94ba
	.uleb128 0x5
	.byte	0x48
	.byte	0x47
	.byte	0xc
	.long	0x94d6
	.uleb128 0x5
	.byte	0x48
	.byte	0x48
	.byte	0xc
	.long	0x94f7
	.uleb128 0x5
	.byte	0x48
	.byte	0x4a
	.byte	0xc
	.long	0x9518
	.uleb128 0x5
	.byte	0x48
	.byte	0x4b
	.byte	0xc
	.long	0x954d
	.uleb128 0x5
	.byte	0x48
	.byte	0x4d
	.byte	0xc
	.long	0x955b
	.uleb128 0x5
	.byte	0x48
	.byte	0x4e
	.byte	0xc
	.long	0x956d
	.uleb128 0x5
	.byte	0x48
	.byte	0x4f
	.byte	0xc
	.long	0x958d
	.uleb128 0x5
	.byte	0x48
	.byte	0x50
	.byte	0xc
	.long	0x95b1
	.uleb128 0x5
	.byte	0x48
	.byte	0x51
	.byte	0xc
	.long	0x95d5
	.uleb128 0x5
	.byte	0x48
	.byte	0x53
	.byte	0xc
	.long	0x95ec
	.uleb128 0x5
	.byte	0x48
	.byte	0x54
	.byte	0xc
	.long	0x960d
	.uleb128 0x29
	.byte	0x4
	.byte	0x4
	.long	.LASF2
	.uleb128 0x8
	.long	.LASF1284
	.byte	0xe
	.byte	0x2f
	.byte	0xe
	.long	0xa039
	.uleb128 0x58
	.long	0x4a
	.long	0xa045
	.uleb128 0x59
	.byte	0xf
	.byte	0
	.uleb128 0x8
	.long	.LASF1285
	.byte	0xe
	.byte	0x35
	.byte	0x13
	.long	0xa051
	.uleb128 0x58
	.long	0x8f03
	.long	0xa05d
	.uleb128 0x59
	.byte	0x1
	.byte	0
	.uleb128 0x7f
	.long	.LASF1286
	.byte	0xe
	.byte	0x39
	.byte	0x13
	.long	0xa051
	.uleb128 0x7
	.long	0xa05d
	.uleb128 0x29
	.byte	0x8
	.byte	0x4
	.long	.LASF932
	.uleb128 0x8
	.long	.LASF1287
	.byte	0xd
	.byte	0x2a
	.byte	0xf
	.long	0xa081
	.uleb128 0x58
	.long	0x30
	.long	0xa08d
	.uleb128 0x59
	.byte	0x7
	.byte	0
	.uleb128 0x8
	.long	.LASF1288
	.byte	0xd
	.byte	0x2d
	.byte	0xd
	.long	0xa099
	.uleb128 0x58
	.long	0x56
	.long	0xa0a5
	.uleb128 0x59
	.byte	0x7
	.byte	0
	.uleb128 0x8
	.long	.LASF1289
	.byte	0xd
	.byte	0x37
	.byte	0xf
	.long	0xa0b6
	.uleb128 0x7
	.long	0xa0a5
	.uleb128 0x58
	.long	0x30
	.long	0xa0c2
	.uleb128 0x59
	.byte	0x7
	.byte	0
	.uleb128 0x8
	.long	.LASF1290
	.byte	0xd
	.byte	0x39
	.byte	0x13
	.long	0xa0ce
	.uleb128 0x58
	.long	0x8f03
	.long	0xa0da
	.uleb128 0x59
	.byte	0x3
	.byte	0
	.uleb128 0x7f
	.long	.LASF1291
	.byte	0xd
	.byte	0x3f
	.byte	0xf
	.long	0xa0b6
	.uleb128 0x29
	.byte	0x2
	.byte	0x4
	.long	.LASF1292
	.uleb128 0x29
	.byte	0x2
	.byte	0x4
	.long	.LASF1293
	.uleb128 0xc6
	.long	0xa193
	.uleb128 0x1b
	.long	.LASF1294
	.byte	0x30
	.byte	0x1
	.byte	0x19
	.byte	0x8
	.long	0xa18d
	.uleb128 0x41
	.string	"sx"
	.byte	0x1
	.byte	0x1a
	.byte	0x9
	.long	0x56
	.byte	0
	.uleb128 0x41
	.string	"sy"
	.byte	0x1
	.byte	0x1a
	.byte	0xd
	.long	0x56
	.byte	0x4
	.uleb128 0x41
	.string	"A"
	.byte	0x1
	.byte	0x1b
	.byte	0xb
	.long	0x30
	.byte	0x8
	.uleb128 0x41
	.string	"B"
	.byte	0x1
	.byte	0x1b
	.byte	0xe
	.long	0x30
	.byte	0xc
	.uleb128 0x41
	.string	"C"
	.byte	0x1
	.byte	0x1b
	.byte	0x11
	.long	0x30
	.byte	0x10
	.uleb128 0x41
	.string	"D"
	.byte	0x1
	.byte	0x1b
	.byte	0x14
	.long	0x30
	.byte	0x14
	.uleb128 0xf
	.long	.LASF1295
	.byte	0x1
	.byte	0x1c
	.byte	0x9
	.long	0x56
	.byte	0x18
	.uleb128 0xf
	.long	.LASF1296
	.byte	0x1
	.byte	0x1c
	.byte	0x12
	.long	0x56
	.byte	0x1c
	.uleb128 0xf
	.long	.LASF1297
	.byte	0x1
	.byte	0x1c
	.byte	0x19
	.long	0x56
	.byte	0x20
	.uleb128 0xf
	.long	.LASF1298
	.byte	0x1
	.byte	0x1c
	.byte	0x22
	.long	0x56
	.byte	0x24
	.uleb128 0x41
	.string	"SUB"
	.byte	0x1
	.byte	0x1d
	.byte	0x1a
	.long	0x9cc3
	.byte	0x28
	.byte	0
	.uleb128 0x7
	.long	0xa0fa
	.byte	0
	.uleb128 0xd
	.long	0x1e91
	.uleb128 0xa
	.long	0x202f
	.uleb128 0xa
	.long	0x1e91
	.uleb128 0xd
	.long	0x9e7f
	.uleb128 0x7
	.long	0xa1a2
	.uleb128 0xd
	.long	0x202f
	.uleb128 0xa
	.long	0x9e7f
	.uleb128 0xd
	.long	0x9eb0
	.uleb128 0x7
	.long	0xa1b6
	.uleb128 0xa
	.long	0x9eb0
	.uleb128 0xd
	.long	0x2034
	.uleb128 0xa
	.long	0x20b8
	.uleb128 0xa
	.long	0x2034
	.uleb128 0xa
	.long	0x20f8
	.uleb128 0xa
	.long	0x2105
	.uleb128 0xa
	.long	0x8492
	.uleb128 0xa
	.long	0x849e
	.uleb128 0xd
	.long	0x21c8
	.uleb128 0x27
	.long	0x21c8
	.uleb128 0xa
	.long	0x226e
	.uleb128 0xa
	.long	0x21c8
	.uleb128 0xd
	.long	0x227f
	.uleb128 0xa
	.long	0x2338
	.uleb128 0x27
	.long	0x227f
	.uleb128 0x27
	.long	0x232c
	.uleb128 0xa
	.long	0x232c
	.uleb128 0xd
	.long	0x21bb
	.uleb128 0xd
	.long	0x2543
	.uleb128 0xa
	.long	0x2386
	.uleb128 0x27
	.long	0x21bb
	.uleb128 0xa
	.long	0x262e
	.uleb128 0xd
	.long	0x256b
	.uleb128 0x7
	.long	0xa22e
	.uleb128 0xa
	.long	0x2685
	.uleb128 0xa
	.long	0x26f3
	.uleb128 0xa
	.long	0x3113
	.uleb128 0x27
	.long	0x256b
	.uleb128 0xa
	.long	0x3124
	.uleb128 0xa
	.long	0x256b
	.uleb128 0xd
	.long	0x3113
	.uleb128 0x7
	.long	0xa256
	.uleb128 0x27
	.long	0x26e6
	.uleb128 0xa
	.long	0x263b
	.uleb128 0xd
	.long	0x3138
	.uleb128 0x7
	.long	0xa26a
	.uleb128 0xa
	.long	0x32e4
	.uleb128 0xa
	.long	0x3138
	.uleb128 0xd
	.long	0xa0fa
	.uleb128 0x7
	.long	0xa27e
	.uleb128 0xd
	.long	0x32e4
	.uleb128 0x7
	.long	0xa288
	.uleb128 0xa
	.long	0xa0fa
	.uleb128 0xd
	.long	0xa18d
	.uleb128 0xa
	.long	0xa18d
	.uleb128 0xd
	.long	0x32e9
	.uleb128 0x7
	.long	0xa2a1
	.uleb128 0xa
	.long	0x3361
	.uleb128 0xa
	.long	0x32e9
	.uleb128 0xa
	.long	0x339d
	.uleb128 0xa
	.long	0x33aa
	.uleb128 0xa
	.long	0x89ed
	.uleb128 0xa
	.long	0x89f9
	.uleb128 0xd
	.long	0x348f
	.uleb128 0x7
	.long	0xa2c9
	.uleb128 0x27
	.long	0x348f
	.uleb128 0xa
	.long	0x3522
	.uleb128 0xa
	.long	0x348f
	.uleb128 0xd
	.long	0x3533
	.uleb128 0x7
	.long	0xa2e2
	.uleb128 0xa
	.long	0x35e4
	.uleb128 0x27
	.long	0x3533
	.uleb128 0x27
	.long	0x35d8
	.uleb128 0xa
	.long	0x35d8
	.uleb128 0xd
	.long	0x3482
	.uleb128 0x7
	.long	0xa300
	.uleb128 0xd
	.long	0x37bd
	.uleb128 0x7
	.long	0xa30a
	.uleb128 0xa
	.long	0x362a
	.uleb128 0x27
	.long	0x3482
	.uleb128 0xa
	.long	0x389d
	.uleb128 0xd
	.long	0x37e5
	.uleb128 0x7
	.long	0xa323
	.uleb128 0xa
	.long	0x38ed
	.uleb128 0xa
	.long	0x3958
	.uleb128 0xa
	.long	0x4341
	.uleb128 0x27
	.long	0x37e5
	.uleb128 0xa
	.long	0x4352
	.uleb128 0xa
	.long	0x37e5
	.uleb128 0xd
	.long	0x4341
	.uleb128 0x7
	.long	0xa34b
	.uleb128 0x27
	.long	0x394b
	.uleb128 0xa
	.long	0x38aa
	.uleb128 0xd
	.long	0x84f4
	.uleb128 0x7
	.long	0xa35f
	.uleb128 0xa
	.long	0xa1a7
	.uleb128 0xd
	.long	0x8722
	.uleb128 0x7
	.long	0xa36e
	.uleb128 0xa
	.long	0x84f4
	.uleb128 0xd
	.long	0x43a1
	.uleb128 0x7
	.long	0xa37d
	.uleb128 0xa
	.long	0x453f
	.uleb128 0xa
	.long	0x43a1
	.uleb128 0xd
	.long	0x56
	.uleb128 0x7
	.long	0xa391
	.uleb128 0xd
	.long	0x453f
	.uleb128 0x7
	.long	0xa39b
	.uleb128 0xa
	.long	0x56
	.uleb128 0xa
	.long	0x5e
	.uleb128 0xd
	.long	0x4544
	.uleb128 0x7
	.long	0xa3af
	.uleb128 0xa
	.long	0x45c8
	.uleb128 0xa
	.long	0x4544
	.uleb128 0xa
	.long	0x4608
	.uleb128 0xa
	.long	0x4615
	.uleb128 0xa
	.long	0x8cfc
	.uleb128 0xa
	.long	0x8d08
	.uleb128 0xd
	.long	0x46d8
	.uleb128 0x7
	.long	0xa3d7
	.uleb128 0x27
	.long	0x46d8
	.uleb128 0xa
	.long	0x477e
	.uleb128 0xa
	.long	0x46d8
	.uleb128 0xd
	.long	0x478f
	.uleb128 0x7
	.long	0xa3f0
	.uleb128 0xa
	.long	0x4861
	.uleb128 0x27
	.long	0x478f
	.uleb128 0x27
	.long	0x4855
	.uleb128 0xa
	.long	0x4855
	.uleb128 0xd
	.long	0x46cb
	.uleb128 0x7
	.long	0xa40e
	.uleb128 0xd
	.long	0x4a6c
	.uleb128 0xa
	.long	0x48af
	.uleb128 0x27
	.long	0x46cb
	.uleb128 0xa
	.long	0x4b57
	.uleb128 0xd
	.long	0x4a94
	.uleb128 0x7
	.long	0xa42c
	.uleb128 0xa
	.long	0x4bae
	.uleb128 0xa
	.long	0x4c1c
	.uleb128 0xa
	.long	0x563c
	.uleb128 0x27
	.long	0x4a94
	.uleb128 0xa
	.long	0x564d
	.uleb128 0xa
	.long	0x4a94
	.uleb128 0xd
	.long	0x563c
	.uleb128 0x27
	.long	0x4c0f
	.uleb128 0xa
	.long	0x4b64
	.uleb128 0xd
	.long	0x5652
	.uleb128 0xd
	.long	0x573f
	.uleb128 0xd
	.long	0x8a4f
	.uleb128 0x7
	.long	0xa46d
	.uleb128 0xa
	.long	0xa283
	.uleb128 0xd
	.long	0x8c45
	.uleb128 0x7
	.long	0xa47c
	.uleb128 0xa
	.long	0x8a4f
	.uleb128 0xd
	.long	0x5789
	.uleb128 0x7
	.long	0xa48b
	.uleb128 0xa
	.long	0x5927
	.uleb128 0xa
	.long	0x5789
	.uleb128 0xd
	.long	0x30
	.uleb128 0x7
	.long	0xa49f
	.uleb128 0xd
	.long	0x5927
	.uleb128 0x7
	.long	0xa4a9
	.uleb128 0xa
	.long	0x30
	.uleb128 0xd
	.long	0x7d3c
	.uleb128 0xa
	.long	0x7d3c
	.uleb128 0xd
	.long	0x592c
	.uleb128 0x7
	.long	0xa4c2
	.uleb128 0xa
	.long	0x59b0
	.uleb128 0xa
	.long	0x592c
	.uleb128 0xa
	.long	0x59f0
	.uleb128 0xa
	.long	0x59fd
	.uleb128 0xa
	.long	0x8e15
	.uleb128 0xa
	.long	0x8e21
	.uleb128 0xd
	.long	0x5ac0
	.uleb128 0x7
	.long	0xa4ea
	.uleb128 0x27
	.long	0x5ac0
	.uleb128 0xa
	.long	0x5b66
	.uleb128 0xa
	.long	0x5ac0
	.uleb128 0xd
	.long	0x5b77
	.uleb128 0x7
	.long	0xa503
	.uleb128 0xa
	.long	0x5c49
	.uleb128 0x27
	.long	0x5b77
	.uleb128 0x27
	.long	0x5c3d
	.uleb128 0xa
	.long	0x5c3d
	.uleb128 0xd
	.long	0x5ab3
	.uleb128 0x7
	.long	0xa521
	.uleb128 0xd
	.long	0x5e54
	.uleb128 0xa
	.long	0x5c97
	.uleb128 0x27
	.long	0x5ab3
	.uleb128 0xa
	.long	0x5f3f
	.uleb128 0xd
	.long	0x5e7c
	.uleb128 0x7
	.long	0xa53f
	.uleb128 0xa
	.long	0x5f96
	.uleb128 0xa
	.long	0x6004
	.uleb128 0xa
	.long	0x6a50
	.uleb128 0x27
	.long	0x5e7c
	.uleb128 0xa
	.long	0x6a61
	.uleb128 0xa
	.long	0x5e7c
	.uleb128 0xd
	.long	0x6a50
	.uleb128 0x7
	.long	0xa567
	.uleb128 0x27
	.long	0x5ff7
	.uleb128 0xa
	.long	0x5f4c
	.uleb128 0xd
	.long	0x6a66
	.uleb128 0xd
	.long	0x6b53
	.uleb128 0xd
	.long	0x8727
	.uleb128 0xa
	.long	0xa1bb
	.uleb128 0xd
	.long	0x8955
	.uleb128 0xa
	.long	0x8727
	.uleb128 0xd
	.long	0x81ad
	.uleb128 0x7
	.long	0xa599
	.uleb128 0xa
	.long	0x9caf
	.uleb128 0xd
	.long	0x83db
	.uleb128 0x7
	.long	0xa5a8
	.uleb128 0xa
	.long	0x81ad
	.uleb128 0xa
	.long	0x424b
	.uleb128 0xd
	.long	0x4258
	.uleb128 0x7
	.long	0xa5bc
	.uleb128 0xa
	.long	0x42fd
	.uleb128 0xd
	.long	0x6c03
	.uleb128 0x7
	.long	0xa5cb
	.uleb128 0xa
	.long	0xa391
	.uleb128 0xd
	.long	0xa391
	.uleb128 0xa
	.long	0x6cd0
	.uleb128 0xd
	.long	0x6cd5
	.uleb128 0x7
	.long	0xa5e4
	.uleb128 0xa
	.long	0xa49f
	.uleb128 0xd
	.long	0xa49f
	.uleb128 0xa
	.long	0x6da2
	.uleb128 0x98
	.long	0x6da7
	.uleb128 0x49
	.long	.LASF1299
	.byte	0x49
	.byte	0x6e
	.byte	0x6
	.long	.LASF1300
	.long	0xa61e
	.uleb128 0x1
	.long	0x7568
	.uleb128 0x1
	.long	0x2c3
	.byte	0
	.uleb128 0x32
	.long	.LASF1301
	.byte	0x49
	.byte	0x63
	.byte	0x1a
	.long	.LASF1302
	.long	0x7568
	.long	0xa638
	.uleb128 0x1
	.long	0x2c3
	.byte	0
	.uleb128 0xb
	.long	0xbbe
	.long	0xa646
	.byte	0x3
	.long	0xa661
	.uleb128 0x9
	.long	.LASF1303
	.long	0x9c9b
	.uleb128 0x25
	.string	"__n"
	.byte	0x6
	.byte	0x81
	.byte	0x1a
	.long	0xbe7
	.uleb128 0x1
	.long	0x8fc9
	.byte	0
	.uleb128 0xb
	.long	0xc37
	.long	0xa66f
	.byte	0x3
	.long	0xa679
	.uleb128 0x9
	.long	.LASF1303
	.long	0x9cb9
	.byte	0
	.uleb128 0x14
	.long	0x6d6f
	.byte	0x3
	.long	0xa6a5
	.uleb128 0xc
	.long	.LASF742
	.long	0xa49f
	.uleb128 0x38
	.long	.LASF1304
	.byte	0xc
	.byte	0x8e
	.byte	0x13
	.long	0xa49f
	.uleb128 0x38
	.long	.LASF1305
	.byte	0xc
	.byte	0x8e
	.byte	0x22
	.long	0xa49f
	.byte	0
	.uleb128 0x14
	.long	0x6c9d
	.byte	0x3
	.long	0xa6d1
	.uleb128 0xc
	.long	.LASF742
	.long	0xa391
	.uleb128 0x38
	.long	.LASF1304
	.byte	0xc
	.byte	0x8e
	.byte	0x13
	.long	0xa391
	.uleb128 0x38
	.long	.LASF1305
	.byte	0xc
	.byte	0x8e
	.byte	0x22
	.long	0xa391
	.byte	0
	.uleb128 0x14
	.long	0xd08
	.byte	0x3
	.long	0xa6f6
	.uleb128 0xe
	.string	"__a"
	.byte	0x8
	.value	0x27d
	.byte	0x20
	.long	0x9ce1
	.uleb128 0xe
	.string	"__n"
	.byte	0x8
	.value	0x27d
	.byte	0x2f
	.long	0xd3a
	.byte	0
	.uleb128 0xb
	.long	0xc18
	.long	0xa704
	.byte	0x3
	.long	0xa70e
	.uleb128 0x9
	.long	.LASF1303
	.long	0x9cb9
	.byte	0
	.uleb128 0xb
	.long	0x6d1b
	.long	0xa71c
	.byte	0x3
	.long	0xa726
	.uleb128 0x9
	.long	.LASF1303
	.long	0xa5e9
	.byte	0
	.uleb128 0x14
	.long	0x6de4
	.byte	0x3
	.long	0xa764
	.uleb128 0x11
	.string	"_Tp"
	.long	0x30
	.uleb128 0x47
	.long	.LASF427
	.long	0xa748
	.uleb128 0x48
	.long	0xa4bd
	.byte	0
	.uleb128 0x25
	.string	"__p"
	.byte	0xb
	.byte	0x7b
	.byte	0x15
	.long	0xa49f
	.uleb128 0x80
	.long	.LASF1308
	.byte	0xb
	.byte	0x7b
	.byte	0x21
	.uleb128 0x1
	.long	0xa4bd
	.byte	0
	.byte	0
	.uleb128 0xb
	.long	0x6d01
	.long	0xa772
	.byte	0x2
	.long	0xa77c
	.uleb128 0x9
	.long	.LASF1303
	.long	0xa5e9
	.byte	0
	.uleb128 0x1a
	.long	0xa764
	.long	.LASF1306
	.long	0xa78d
	.long	0xa793
	.uleb128 0x3
	.long	0xa772
	.byte	0
	.uleb128 0xb
	.long	0x6ce2
	.long	0xa7a1
	.byte	0x2
	.long	0xa7b7
	.uleb128 0x9
	.long	.LASF1303
	.long	0xa5e9
	.uleb128 0x38
	.long	.LASF1304
	.byte	0xc
	.byte	0x71
	.byte	0x2d
	.long	0xa5ee
	.byte	0
	.uleb128 0x1a
	.long	0xa793
	.long	.LASF1307
	.long	0xa7c8
	.long	0xa7d3
	.uleb128 0x3
	.long	0xa7a1
	.uleb128 0x3
	.long	0xa7aa
	.byte	0
	.uleb128 0xb
	.long	0x5886
	.long	0xa7e1
	.byte	0x3
	.long	0xa7fc
	.uleb128 0x9
	.long	.LASF1303
	.long	0xa490
	.uleb128 0x25
	.string	"__n"
	.byte	0x6
	.byte	0x81
	.byte	0x1a
	.long	0x58af
	.uleb128 0x1
	.long	0x8fc9
	.byte	0
	.uleb128 0xb
	.long	0x58ff
	.long	0xa80a
	.byte	0x3
	.long	0xa814
	.uleb128 0x9
	.long	.LASF1303
	.long	0xa4ae
	.byte	0
	.uleb128 0xb
	.long	0x6c49
	.long	0xa822
	.byte	0x3
	.long	0xa82c
	.uleb128 0x9
	.long	.LASF1303
	.long	0xa5d0
	.byte	0
	.uleb128 0x14
	.long	0x6e17
	.byte	0x3
	.long	0xa86a
	.uleb128 0x11
	.string	"_Tp"
	.long	0x56
	.uleb128 0x47
	.long	.LASF427
	.long	0xa84e
	.uleb128 0x48
	.long	0xa3aa
	.byte	0
	.uleb128 0x25
	.string	"__p"
	.byte	0xb
	.byte	0x7b
	.byte	0x15
	.long	0xa391
	.uleb128 0x80
	.long	.LASF1308
	.byte	0xb
	.byte	0x7b
	.byte	0x21
	.uleb128 0x1
	.long	0xa3aa
	.byte	0
	.byte	0
	.uleb128 0xb
	.long	0x6c2f
	.long	0xa878
	.byte	0x2
	.long	0xa882
	.uleb128 0x9
	.long	.LASF1303
	.long	0xa5d0
	.byte	0
	.uleb128 0x1a
	.long	0xa86a
	.long	.LASF1309
	.long	0xa893
	.long	0xa899
	.uleb128 0x3
	.long	0xa878
	.byte	0
	.uleb128 0xb
	.long	0x6c10
	.long	0xa8a7
	.byte	0x2
	.long	0xa8bd
	.uleb128 0x9
	.long	.LASF1303
	.long	0xa5d0
	.uleb128 0x38
	.long	.LASF1304
	.byte	0xc
	.byte	0x71
	.byte	0x2d
	.long	0xa5d5
	.byte	0
	.uleb128 0x1a
	.long	0xa899
	.long	.LASF1310
	.long	0xa8ce
	.long	0xa8d9
	.uleb128 0x3
	.long	0xa8a7
	.uleb128 0x3
	.long	0xa8b0
	.byte	0
	.uleb128 0xb
	.long	0x449e
	.long	0xa8e7
	.byte	0x3
	.long	0xa902
	.uleb128 0x9
	.long	.LASF1303
	.long	0xa382
	.uleb128 0x25
	.string	"__n"
	.byte	0x6
	.byte	0x81
	.byte	0x1a
	.long	0x44c7
	.uleb128 0x1
	.long	0x8fc9
	.byte	0
	.uleb128 0xb
	.long	0x4517
	.long	0xa910
	.byte	0x3
	.long	0xa91a
	.uleb128 0x9
	.long	.LASF1303
	.long	0xa3a0
	.byte	0
	.uleb128 0x14
	.long	0x6e4a
	.byte	0x3
	.long	0xa97a
	.uleb128 0x11
	.string	"_Up"
	.long	0x37
	.uleb128 0x11
	.string	"_Tp"
	.long	0x37
	.uleb128 0x12
	.long	.LASF1304
	.byte	0xa
	.value	0x3a7
	.byte	0x14
	.long	0x9caa
	.uleb128 0x12
	.long	.LASF1305
	.byte	0xa
	.value	0x3a7
	.byte	0x22
	.long	0x9caa
	.uleb128 0xe
	.string	"__x"
	.byte	0xa
	.value	0x3a7
	.byte	0x35
	.long	0x9cc8
	.uleb128 0x28
	.long	.LASF1311
	.byte	0xa
	.value	0x3ab
	.byte	0x11
	.long	0x8f90
	.uleb128 0x45
	.uleb128 0x28
	.long	.LASF1312
	.byte	0xa
	.value	0x3b4
	.byte	0x18
	.long	0x2d0
	.byte	0
	.byte	0
	.uleb128 0xb
	.long	0x1112
	.long	0xa988
	.byte	0x3
	.long	0xa99f
	.uleb128 0x9
	.long	.LASF1303
	.long	0x9d31
	.uleb128 0xe
	.string	"__n"
	.byte	0x2
	.value	0x182
	.byte	0x1a
	.long	0x2c3
	.byte	0
	.uleb128 0x14
	.long	0xd9a
	.byte	0x3
	.long	0xa9b7
	.uleb128 0xe
	.string	"__a"
	.byte	0x8
	.value	0x2ed
	.byte	0x26
	.long	0x9ce6
	.byte	0
	.uleb128 0x14
	.long	0x6e7d
	.byte	0x1
	.long	0xaa11
	.uleb128 0xc
	.long	.LASF743
	.long	0xa49f
	.uleb128 0xc
	.long	.LASF765
	.long	0x3e
	.uleb128 0x11
	.string	"_Tp"
	.long	0x30
	.uleb128 0x12
	.long	.LASF1304
	.byte	0xc
	.value	0x1dd
	.byte	0x29
	.long	0xa49f
	.uleb128 0xe
	.string	"__n"
	.byte	0xc
	.value	0x1dd
	.byte	0x38
	.long	0x3e
	.uleb128 0xe
	.string	"__x"
	.byte	0xc
	.value	0x1dd
	.byte	0x48
	.long	0xa4bd
	.uleb128 0x28
	.long	.LASF1313
	.byte	0xc
	.value	0x1df
	.byte	0x2d
	.long	0x6cd5
	.byte	0
	.uleb128 0xb
	.long	0x58bb
	.long	0xaa1f
	.byte	0x3
	.long	0xaa41
	.uleb128 0x9
	.long	.LASF1303
	.long	0xa490
	.uleb128 0x25
	.string	"__p"
	.byte	0x6
	.byte	0xa7
	.byte	0x17
	.long	0xa49f
	.uleb128 0x25
	.string	"__n"
	.byte	0x6
	.byte	0xa7
	.byte	0x26
	.long	0x58af
	.byte	0
	.uleb128 0x14
	.long	0x59d0
	.byte	0x3
	.long	0xaa66
	.uleb128 0xe
	.string	"__a"
	.byte	0x8
	.value	0x27d
	.byte	0x20
	.long	0xa4d6
	.uleb128 0xe
	.string	"__n"
	.byte	0x8
	.value	0x27d
	.byte	0x2f
	.long	0x5a02
	.byte	0
	.uleb128 0xb
	.long	0x58e0
	.long	0xaa74
	.byte	0x3
	.long	0xaa7e
	.uleb128 0x9
	.long	.LASF1303
	.long	0xa4ae
	.byte	0
	.uleb128 0x14
	.long	0x6ebd
	.byte	0x1
	.long	0xaad8
	.uleb128 0xc
	.long	.LASF743
	.long	0xa391
	.uleb128 0xc
	.long	.LASF765
	.long	0x3e
	.uleb128 0x11
	.string	"_Tp"
	.long	0x56
	.uleb128 0x12
	.long	.LASF1304
	.byte	0xc
	.value	0x1dd
	.byte	0x29
	.long	0xa391
	.uleb128 0xe
	.string	"__n"
	.byte	0xc
	.value	0x1dd
	.byte	0x38
	.long	0x3e
	.uleb128 0xe
	.string	"__x"
	.byte	0xc
	.value	0x1dd
	.byte	0x48
	.long	0xa3aa
	.uleb128 0x28
	.long	.LASF1313
	.byte	0xc
	.value	0x1df
	.byte	0x2d
	.long	0x6c03
	.byte	0
	.uleb128 0xb
	.long	0x44d3
	.long	0xaae6
	.byte	0x3
	.long	0xab08
	.uleb128 0x9
	.long	.LASF1303
	.long	0xa382
	.uleb128 0x25
	.string	"__p"
	.byte	0x6
	.byte	0xa7
	.byte	0x17
	.long	0xa391
	.uleb128 0x25
	.string	"__n"
	.byte	0x6
	.byte	0xa7
	.byte	0x26
	.long	0x44c7
	.byte	0
	.uleb128 0x14
	.long	0x45e8
	.byte	0x3
	.long	0xab2d
	.uleb128 0xe
	.string	"__a"
	.byte	0x8
	.value	0x27d
	.byte	0x20
	.long	0xa3c3
	.uleb128 0xe
	.string	"__n"
	.byte	0x8
	.value	0x27d
	.byte	0x2f
	.long	0x461a
	.byte	0
	.uleb128 0xb
	.long	0x44f8
	.long	0xab3b
	.byte	0x3
	.long	0xab45
	.uleb128 0x9
	.long	.LASF1303
	.long	0xa3a0
	.byte	0
	.uleb128 0xb
	.long	0x3287
	.long	0xab53
	.byte	0x3
	.long	0xab5d
	.uleb128 0x9
	.long	.LASF1303
	.long	0xa28d
	.byte	0
	.uleb128 0xb
	.long	0x326c
	.long	0xab6b
	.byte	0x3
	.long	0xab75
	.uleb128 0x9
	.long	.LASF1303
	.long	0xa28d
	.byte	0
	.uleb128 0x14
	.long	0x6efd
	.byte	0x3
	.long	0xabb9
	.uleb128 0xc
	.long	.LASF770
	.long	0x9caa
	.uleb128 0x11
	.string	"_Tp"
	.long	0x37
	.uleb128 0x12
	.long	.LASF1304
	.byte	0xa
	.value	0x3d0
	.byte	0x14
	.long	0x9caa
	.uleb128 0x12
	.long	.LASF1305
	.byte	0xa
	.value	0x3d0
	.byte	0x23
	.long	0x9caa
	.uleb128 0x12
	.long	.LASF841
	.byte	0xa
	.value	0x3d0
	.byte	0x36
	.long	0x9cc8
	.byte	0
	.uleb128 0x14
	.long	0x6f30
	.byte	0x3
	.long	0xabda
	.uleb128 0xc
	.long	.LASF443
	.long	0x9caa
	.uleb128 0x12
	.long	.LASF1314
	.byte	0x3
	.value	0xbce
	.byte	0x1c
	.long	0x9caa
	.byte	0
	.uleb128 0x14
	.long	0x6f54
	.byte	0x3
	.long	0xac27
	.uleb128 0xc
	.long	.LASF775
	.long	0x9caa
	.uleb128 0xc
	.long	.LASF776
	.long	0x11b4
	.uleb128 0x11
	.string	"_Tp"
	.long	0x37
	.uleb128 0x12
	.long	.LASF1304
	.byte	0xa
	.value	0x3bc
	.byte	0x3b
	.long	0x81ad
	.uleb128 0x12
	.long	.LASF1305
	.byte	0xa
	.value	0x3bd
	.byte	0x34
	.long	0x81ad
	.uleb128 0x12
	.long	.LASF841
	.byte	0xa
	.value	0x3be
	.byte	0x13
	.long	0x9cc8
	.byte	0
	.uleb128 0xb
	.long	0x83a8
	.long	0xac35
	.byte	0x3
	.long	0xac3f
	.uleb128 0x9
	.long	.LASF1303
	.long	0xa5ad
	.byte	0
	.uleb128 0xb
	.long	0x1158
	.long	0xac4d
	.byte	0x3
	.long	0xac64
	.uleb128 0x9
	.long	.LASF1303
	.long	0x9d31
	.uleb128 0xe
	.string	"__n"
	.byte	0x2
	.value	0x195
	.byte	0x20
	.long	0x2c3
	.byte	0
	.uleb128 0xb
	.long	0xee0
	.long	0xac72
	.byte	0x2
	.long	0xac88
	.uleb128 0x9
	.long	.LASF1303
	.long	0x9d13
	.uleb128 0x25
	.string	"__a"
	.byte	0x2
	.byte	0x98
	.byte	0x25
	.long	0x9d18
	.byte	0
	.uleb128 0x1a
	.long	0xac64
	.long	.LASF1315
	.long	0xac99
	.long	0xaca4
	.uleb128 0x3
	.long	0xac72
	.uleb128 0x3
	.long	0xac7b
	.byte	0
	.uleb128 0x14
	.long	0x1c81
	.byte	0x3
	.long	0xacd6
	.uleb128 0xe
	.string	"__a"
	.byte	0x2
	.value	0x8a4
	.byte	0x29
	.long	0x9d81
	.uleb128 0x28
	.long	.LASF1316
	.byte	0x2
	.value	0x8a9
	.byte	0xf
	.long	0x2d0
	.uleb128 0x28
	.long	.LASF1317
	.byte	0x2
	.value	0x8ab
	.byte	0xf
	.long	0x2d0
	.byte	0
	.uleb128 0x14
	.long	0x6f90
	.byte	0x3
	.long	0xad23
	.uleb128 0xc
	.long	.LASF743
	.long	0xa49f
	.uleb128 0xc
	.long	.LASF765
	.long	0x3e
	.uleb128 0x11
	.string	"_Tp"
	.long	0x30
	.uleb128 0x12
	.long	.LASF1304
	.byte	0xc
	.value	0x226
	.byte	0x2b
	.long	0xa49f
	.uleb128 0xe
	.string	"__n"
	.byte	0xc
	.value	0x226
	.byte	0x3a
	.long	0x3e
	.uleb128 0xe
	.string	"__x"
	.byte	0xc
	.value	0x226
	.byte	0x4a
	.long	0xa4bd
	.byte	0
	.uleb128 0x14
	.long	0x5a41
	.byte	0x3
	.long	0xad55
	.uleb128 0xe
	.string	"__a"
	.byte	0x8
	.value	0x2b0
	.byte	0x22
	.long	0xa4d6
	.uleb128 0xe
	.string	"__p"
	.byte	0x8
	.value	0x2b0
	.byte	0x2f
	.long	0x59c3
	.uleb128 0xe
	.string	"__n"
	.byte	0x8
	.value	0x2b0
	.byte	0x3e
	.long	0x5a02
	.byte	0
	.uleb128 0xb
	.long	0x5dda
	.long	0xad63
	.byte	0x3
	.long	0xad7a
	.uleb128 0x9
	.long	.LASF1303
	.long	0xa526
	.uleb128 0xe
	.string	"__n"
	.byte	0x2
	.value	0x182
	.byte	0x1a
	.long	0x2c3
	.byte	0
	.uleb128 0xb
	.long	0x5af4
	.long	0xad88
	.byte	0x2
	.long	0xad92
	.uleb128 0x9
	.long	.LASF1303
	.long	0xa4ef
	.byte	0
	.uleb128 0x1a
	.long	0xad7a
	.long	.LASF1318
	.long	0xada3
	.long	0xada9
	.uleb128 0x3
	.long	0xad88
	.byte	0
	.uleb128 0xb
	.long	0x57b0
	.long	0xadb7
	.byte	0x2
	.long	0xadc6
	.uleb128 0x9
	.long	.LASF1303
	.long	0xa490
	.uleb128 0x1
	.long	0xa495
	.byte	0
	.uleb128 0x1a
	.long	0xada9
	.long	.LASF1319
	.long	0xadd7
	.long	0xade2
	.uleb128 0x3
	.long	0xadb7
	.uleb128 0x3
	.long	0xadc0
	.byte	0
	.uleb128 0x14
	.long	0x5a62
	.byte	0x3
	.long	0xadfa
	.uleb128 0xe
	.string	"__a"
	.byte	0x8
	.value	0x2ed
	.byte	0x26
	.long	0xa4db
	.byte	0
	.uleb128 0x14
	.long	0x6fd0
	.byte	0x3
	.long	0xae47
	.uleb128 0xc
	.long	.LASF743
	.long	0xa391
	.uleb128 0xc
	.long	.LASF765
	.long	0x3e
	.uleb128 0x11
	.string	"_Tp"
	.long	0x56
	.uleb128 0x12
	.long	.LASF1304
	.byte	0xc
	.value	0x226
	.byte	0x2b
	.long	0xa391
	.uleb128 0xe
	.string	"__n"
	.byte	0xc
	.value	0x226
	.byte	0x3a
	.long	0x3e
	.uleb128 0xe
	.string	"__x"
	.byte	0xc
	.value	0x226
	.byte	0x4a
	.long	0xa3aa
	.byte	0
	.uleb128 0x14
	.long	0x4659
	.byte	0x3
	.long	0xae79
	.uleb128 0xe
	.string	"__a"
	.byte	0x8
	.value	0x2b0
	.byte	0x22
	.long	0xa3c3
	.uleb128 0xe
	.string	"__p"
	.byte	0x8
	.value	0x2b0
	.byte	0x2f
	.long	0x45db
	.uleb128 0xe
	.string	"__n"
	.byte	0x8
	.value	0x2b0
	.byte	0x3e
	.long	0x461a
	.byte	0
	.uleb128 0xb
	.long	0x49f2
	.long	0xae87
	.byte	0x3
	.long	0xae9e
	.uleb128 0x9
	.long	.LASF1303
	.long	0xa413
	.uleb128 0xe
	.string	"__n"
	.byte	0x2
	.value	0x182
	.byte	0x1a
	.long	0x2c3
	.byte	0
	.uleb128 0xb
	.long	0x470c
	.long	0xaeac
	.byte	0x2
	.long	0xaeb6
	.uleb128 0x9
	.long	.LASF1303
	.long	0xa3dc
	.byte	0
	.uleb128 0x1a
	.long	0xae9e
	.long	.LASF1320
	.long	0xaec7
	.long	0xaecd
	.uleb128 0x3
	.long	0xaeac
	.byte	0
	.uleb128 0xb
	.long	0x43c8
	.long	0xaedb
	.byte	0x2
	.long	0xaeea
	.uleb128 0x9
	.long	.LASF1303
	.long	0xa382
	.uleb128 0x1
	.long	0xa387
	.byte	0
	.uleb128 0x1a
	.long	0xaecd
	.long	.LASF1321
	.long	0xaefb
	.long	0xaf06
	.uleb128 0x3
	.long	0xaedb
	.uleb128 0x3
	.long	0xaee4
	.byte	0
	.uleb128 0x14
	.long	0x467a
	.byte	0x3
	.long	0xaf1e
	.uleb128 0xe
	.string	"__a"
	.byte	0x8
	.value	0x2ed
	.byte	0x26
	.long	0xa3c8
	.byte	0
	.uleb128 0xa
	.long	0x7526
	.uleb128 0x14
	.long	0x7010
	.byte	0x3
	.long	0xaf51
	.uleb128 0x11
	.string	"_Tp"
	.long	0x3e
	.uleb128 0xe
	.string	"__a"
	.byte	0xa
	.value	0x100
	.byte	0x14
	.long	0xaf1e
	.uleb128 0xe
	.string	"__b"
	.byte	0xa
	.value	0x100
	.byte	0x24
	.long	0xaf1e
	.byte	0
	.uleb128 0xb
	.long	0x321b
	.long	0xaf5f
	.byte	0x3
	.long	0xaf7a
	.uleb128 0x9
	.long	.LASF1303
	.long	0xa26f
	.uleb128 0x25
	.string	"__n"
	.byte	0x6
	.byte	0x81
	.byte	0x1a
	.long	0x3240
	.uleb128 0x1
	.long	0x8fc9
	.byte	0
	.uleb128 0x14
	.long	0x3407
	.byte	0x3
	.long	0xaf92
	.uleb128 0xe
	.string	"__a"
	.byte	0x8
	.value	0x2ed
	.byte	0x26
	.long	0xa2ba
	.byte	0
	.uleb128 0xb
	.long	0x324c
	.long	0xafa0
	.byte	0x3
	.long	0xafc2
	.uleb128 0x9
	.long	.LASF1303
	.long	0xa26f
	.uleb128 0x25
	.string	"__p"
	.byte	0x6
	.byte	0xa7
	.byte	0x17
	.long	0xa27e
	.uleb128 0x25
	.string	"__n"
	.byte	0x6
	.byte	0xa7
	.byte	0x26
	.long	0x3240
	.byte	0
	.uleb128 0x14
	.long	0x7039
	.byte	0x3
	.long	0xb02e
	.uleb128 0xc
	.long	.LASF785
	.long	0x9caa
	.uleb128 0xc
	.long	.LASF765
	.long	0x3e
	.uleb128 0x11
	.string	"_Tp"
	.long	0x37
	.uleb128 0x12
	.long	.LASF1304
	.byte	0xa
	.value	0x475
	.byte	0x20
	.long	0x9caa
	.uleb128 0xe
	.string	"__n"
	.byte	0xa
	.value	0x475
	.byte	0x2f
	.long	0x3e
	.uleb128 0x12
	.long	.LASF841
	.byte	0xa
	.value	0x475
	.byte	0x3f
	.long	0x9cc8
	.uleb128 0x1
	.long	0x6a2
	.uleb128 0x62
	.string	"__d"
	.byte	0xa
	.value	0x47e
	.byte	0x42
	.long	0x6bd5
	.uleb128 0x28
	.long	.LASF1305
	.byte	0xa
	.value	0x481
	.byte	0x17
	.long	0x9caa
	.byte	0
	.uleb128 0x14
	.long	0x707e
	.byte	0x3
	.long	0xb08c
	.uleb128 0xc
	.long	.LASF743
	.long	0x9caa
	.uleb128 0xc
	.long	.LASF765
	.long	0x3e
	.uleb128 0x11
	.string	"_Tp"
	.long	0x37
	.uleb128 0x12
	.long	.LASF1304
	.byte	0xc
	.value	0x226
	.byte	0x2b
	.long	0x9caa
	.uleb128 0xe
	.string	"__n"
	.byte	0xc
	.value	0x226
	.byte	0x3a
	.long	0x3e
	.uleb128 0xe
	.string	"__x"
	.byte	0xc
	.value	0x226
	.byte	0x4a
	.long	0x9cc8
	.uleb128 0x45
	.uleb128 0x45
	.uleb128 0x28
	.long	.LASF1322
	.byte	0xc
	.value	0x23e
	.byte	0xb
	.long	0x7568
	.byte	0
	.byte	0
	.byte	0
	.uleb128 0x14
	.long	0x70be
	.byte	0x3
	.long	0xb0d0
	.uleb128 0xc
	.long	.LASF770
	.long	0x81ad
	.uleb128 0x11
	.string	"_Tp"
	.long	0x37
	.uleb128 0x12
	.long	.LASF1304
	.byte	0xa
	.value	0x3d0
	.byte	0x14
	.long	0x81ad
	.uleb128 0x12
	.long	.LASF1305
	.byte	0xa
	.value	0x3d0
	.byte	0x23
	.long	0x81ad
	.uleb128 0x12
	.long	.LASF841
	.byte	0xa
	.value	0x3d0
	.byte	0x36
	.long	0x9cc8
	.byte	0
	.uleb128 0xb
	.long	0x81df
	.long	0xb0de
	.byte	0x2
	.long	0xb0f5
	.uleb128 0x9
	.long	.LASF1303
	.long	0xa59e
	.uleb128 0xe
	.string	"__i"
	.byte	0x3
	.value	0x422
	.byte	0x2a
	.long	0xa5a3
	.byte	0
	.uleb128 0x1a
	.long	0xb0d0
	.long	.LASF1323
	.long	0xb106
	.long	0xb111
	.uleb128 0x3
	.long	0xb0de
	.uleb128 0x3
	.long	0xb0e7
	.byte	0
	.uleb128 0xb
	.long	0xe65
	.long	0xb11f
	.byte	0x3
	.long	0xb135
	.uleb128 0x9
	.long	.LASF1303
	.long	0x9cfa
	.uleb128 0x25
	.string	"__x"
	.byte	0x2
	.byte	0x77
	.byte	0x28
	.long	0x9d04
	.byte	0
	.uleb128 0xb
	.long	0x1ae6
	.long	0xb143
	.byte	0x3
	.long	0xb167
	.uleb128 0x9
	.long	.LASF1303
	.long	0x9d4f
	.uleb128 0xe
	.string	"__n"
	.byte	0x2
	.value	0x7c3
	.byte	0x24
	.long	0x12f7
	.uleb128 0x12
	.long	.LASF841
	.byte	0x2
	.value	0x7c3
	.byte	0x3b
	.long	0x9d59
	.byte	0
	.uleb128 0xb
	.long	0x1047
	.long	0xb175
	.byte	0x2
	.long	0xb199
	.uleb128 0x9
	.long	.LASF1303
	.long	0x9d31
	.uleb128 0xe
	.string	"__n"
	.byte	0x2
	.value	0x153
	.byte	0x1b
	.long	0x2c3
	.uleb128 0xe
	.string	"__a"
	.byte	0x2
	.value	0x153
	.byte	0x36
	.long	0x9d3b
	.byte	0
	.uleb128 0x1a
	.long	0xb167
	.long	.LASF1324
	.long	0xb1aa
	.long	0xb1ba
	.uleb128 0x3
	.long	0xb175
	.uleb128 0x3
	.long	0xb17e
	.uleb128 0x3
	.long	0xb18b
	.byte	0
	.uleb128 0x14
	.long	0x1c63
	.byte	0x3
	.long	0xb1df
	.uleb128 0xe
	.string	"__n"
	.byte	0x2
	.value	0x89b
	.byte	0x23
	.long	0x12f7
	.uleb128 0xe
	.string	"__a"
	.byte	0x2
	.value	0x89b
	.byte	0x3e
	.long	0x9d54
	.byte	0
	.uleb128 0xb
	.long	0xbf3
	.long	0xb1ed
	.byte	0x3
	.long	0xb20f
	.uleb128 0x9
	.long	.LASF1303
	.long	0x9c9b
	.uleb128 0x25
	.string	"__p"
	.byte	0x6
	.byte	0xa7
	.byte	0x17
	.long	0x9caa
	.uleb128 0x25
	.string	"__n"
	.byte	0x6
	.byte	0xa7
	.byte	0x26
	.long	0xbe7
	.byte	0
	.uleb128 0xb
	.long	0xae8
	.long	0xb21d
	.byte	0x2
	.long	0xb22c
	.uleb128 0x9
	.long	.LASF1303
	.long	0x9c9b
	.uleb128 0x1
	.long	0x9ca0
	.byte	0
	.uleb128 0x1a
	.long	0xb20f
	.long	.LASF1325
	.long	0xb23d
	.long	0xb248
	.uleb128 0x3
	.long	0xb21d
	.uleb128 0x3
	.long	0xb226
	.byte	0
	.uleb128 0x14
	.long	0x70f1
	.byte	0x3
	.long	0xb274
	.uleb128 0xc
	.long	.LASF743
	.long	0xa49f
	.uleb128 0x38
	.long	.LASF1304
	.byte	0xb
	.byte	0xdb
	.byte	0x1f
	.long	0xa49f
	.uleb128 0x38
	.long	.LASF1305
	.byte	0xb
	.byte	0xdb
	.byte	0x39
	.long	0xa49f
	.byte	0
	.uleb128 0x14
	.long	0x7115
	.byte	0x3
	.long	0xb2cf
	.uleb128 0xc
	.long	.LASF743
	.long	0xa49f
	.uleb128 0xc
	.long	.LASF765
	.long	0x3e
	.uleb128 0x11
	.string	"_Tp"
	.long	0x30
	.uleb128 0xc
	.long	.LASF794
	.long	0x30
	.uleb128 0x12
	.long	.LASF1304
	.byte	0xc
	.value	0x303
	.byte	0x2f
	.long	0xa49f
	.uleb128 0xe
	.string	"__n"
	.byte	0xc
	.value	0x303
	.byte	0x3e
	.long	0x3e
	.uleb128 0xe
	.string	"__x"
	.byte	0xc
	.value	0x304
	.byte	0x14
	.long	0xa4bd
	.uleb128 0x1
	.long	0xa4d1
	.byte	0
	.uleb128 0xb
	.long	0x5dfd
	.long	0xb2dd
	.byte	0x3
	.long	0xb301
	.uleb128 0x9
	.long	.LASF1303
	.long	0xa526
	.uleb128 0xe
	.string	"__p"
	.byte	0x2
	.value	0x18a
	.byte	0x1d
	.long	0x5b6b
	.uleb128 0xe
	.string	"__n"
	.byte	0x2
	.value	0x18a
	.byte	0x29
	.long	0x2c3
	.byte	0
	.uleb128 0xb
	.long	0x5e20
	.long	0xb30f
	.byte	0x3
	.long	0xb326
	.uleb128 0x9
	.long	.LASF1303
	.long	0xa526
	.uleb128 0xe
	.string	"__n"
	.byte	0x2
	.value	0x195
	.byte	0x20
	.long	0x2c3
	.byte	0
	.uleb128 0xb
	.long	0x5ba8
	.long	0xb334
	.byte	0x2
	.long	0xb34a
	.uleb128 0x9
	.long	.LASF1303
	.long	0xa508
	.uleb128 0x25
	.string	"__a"
	.byte	0x2
	.byte	0x98
	.byte	0x25
	.long	0xa50d
	.byte	0
	.uleb128 0x1a
	.long	0xb326
	.long	.LASF1326
	.long	0xb35b
	.long	0xb366
	.uleb128 0x3
	.long	0xb334
	.uleb128 0x3
	.long	0xb33d
	.byte	0
	.uleb128 0xb
	.long	0x5959
	.long	0xb374
	.byte	0x2
	.long	0xb38a
	.uleb128 0x9
	.long	.LASF1303
	.long	0xa4c7
	.uleb128 0x25
	.string	"__a"
	.byte	0x5
	.byte	0xac
	.byte	0x22
	.long	0xa4cc
	.byte	0
	.uleb128 0x1a
	.long	0xb366
	.long	.LASF1327
	.long	0xb39b
	.long	0xb3a6
	.uleb128 0x3
	.long	0xb374
	.uleb128 0x3
	.long	0xb37d
	.byte	0
	.uleb128 0x14
	.long	0x6944
	.byte	0x3
	.long	0xb3d8
	.uleb128 0xe
	.string	"__a"
	.byte	0x2
	.value	0x8a4
	.byte	0x29
	.long	0xa576
	.uleb128 0x28
	.long	.LASF1316
	.byte	0x2
	.value	0x8a9
	.byte	0xf
	.long	0x2d0
	.uleb128 0x28
	.long	.LASF1317
	.byte	0x2
	.value	0x8ab
	.byte	0xf
	.long	0x2d0
	.byte	0
	.uleb128 0x14
	.long	0x7163
	.byte	0x3
	.long	0xb404
	.uleb128 0xc
	.long	.LASF743
	.long	0xa391
	.uleb128 0x38
	.long	.LASF1304
	.byte	0xb
	.byte	0xdb
	.byte	0x1f
	.long	0xa391
	.uleb128 0x38
	.long	.LASF1305
	.byte	0xb
	.byte	0xdb
	.byte	0x39
	.long	0xa391
	.byte	0
	.uleb128 0x14
	.long	0x7187
	.byte	0x3
	.long	0xb45f
	.uleb128 0xc
	.long	.LASF743
	.long	0xa391
	.uleb128 0xc
	.long	.LASF765
	.long	0x3e
	.uleb128 0x11
	.string	"_Tp"
	.long	0x56
	.uleb128 0xc
	.long	.LASF794
	.long	0x56
	.uleb128 0x12
	.long	.LASF1304
	.byte	0xc
	.value	0x303
	.byte	0x2f
	.long	0xa391
	.uleb128 0xe
	.string	"__n"
	.byte	0xc
	.value	0x303
	.byte	0x3e
	.long	0x3e
	.uleb128 0xe
	.string	"__x"
	.byte	0xc
	.value	0x304
	.byte	0x14
	.long	0xa3aa
	.uleb128 0x1
	.long	0xa3be
	.byte	0
	.uleb128 0xb
	.long	0x4a15
	.long	0xb46d
	.byte	0x3
	.long	0xb491
	.uleb128 0x9
	.long	.LASF1303
	.long	0xa413
	.uleb128 0xe
	.string	"__p"
	.byte	0x2
	.value	0x18a
	.byte	0x1d
	.long	0x4783
	.uleb128 0xe
	.string	"__n"
	.byte	0x2
	.value	0x18a
	.byte	0x29
	.long	0x2c3
	.byte	0
	.uleb128 0xb
	.long	0x4a38
	.long	0xb49f
	.byte	0x3
	.long	0xb4b6
	.uleb128 0x9
	.long	.LASF1303
	.long	0xa413
	.uleb128 0xe
	.string	"__n"
	.byte	0x2
	.value	0x195
	.byte	0x20
	.long	0x2c3
	.byte	0
	.uleb128 0xb
	.long	0x47c0
	.long	0xb4c4
	.byte	0x2
	.long	0xb4da
	.uleb128 0x9
	.long	.LASF1303
	.long	0xa3f5
	.uleb128 0x25
	.string	"__a"
	.byte	0x2
	.byte	0x98
	.byte	0x25
	.long	0xa3fa
	.byte	0
	.uleb128 0x1a
	.long	0xb4b6
	.long	.LASF1328
	.long	0xb4eb
	.long	0xb4f6
	.uleb128 0x3
	.long	0xb4c4
	.uleb128 0x3
	.long	0xb4cd
	.byte	0
	.uleb128 0xb
	.long	0x4571
	.long	0xb504
	.byte	0x2
	.long	0xb51a
	.uleb128 0x9
	.long	.LASF1303
	.long	0xa3b4
	.uleb128 0x25
	.string	"__a"
	.byte	0x5
	.byte	0xac
	.byte	0x22
	.long	0xa3b9
	.byte	0
	.uleb128 0x1a
	.long	0xb4f6
	.long	.LASF1329
	.long	0xb52b
	.long	0xb536
	.uleb128 0x3
	.long	0xb504
	.uleb128 0x3
	.long	0xb50d
	.byte	0
	.uleb128 0x14
	.long	0x555c
	.byte	0x3
	.long	0xb568
	.uleb128 0xe
	.string	"__a"
	.byte	0x2
	.value	0x8a4
	.byte	0x29
	.long	0xa45e
	.uleb128 0x28
	.long	.LASF1316
	.byte	0x2
	.value	0x8a9
	.byte	0xf
	.long	0x2d0
	.uleb128 0x28
	.long	.LASF1317
	.byte	0x2
	.value	0x8ab
	.byte	0xf
	.long	0x2d0
	.byte	0
	.uleb128 0x14
	.long	0x71d5
	.byte	0x3
	.long	0xb588
	.uleb128 0x11
	.string	"_Tp"
	.long	0xa0fa
	.uleb128 0x38
	.long	.LASF1330
	.byte	0x27
	.byte	0xcf
	.byte	0x17
	.long	0xa27e
	.byte	0
	.uleb128 0xb
	.long	0x42b2
	.long	0xb596
	.byte	0x2
	.long	0xb5a0
	.uleb128 0x9
	.long	.LASF1303
	.long	0xa5c1
	.byte	0
	.uleb128 0x3c
	.long	0xb588
	.long	0xb5ad
	.long	0xb5b3
	.uleb128 0x3
	.long	0xb596
	.byte	0
	.uleb128 0xb
	.long	0x428d
	.long	0xb5c1
	.byte	0x2
	.long	0xb5f2
	.uleb128 0x9
	.long	.LASF1303
	.long	0xa5c1
	.uleb128 0xe
	.string	"__s"
	.byte	0x2
	.value	0x749
	.byte	0x17
	.long	0x386a
	.uleb128 0xe
	.string	"__l"
	.byte	0x2
	.value	0x749
	.byte	0x26
	.long	0x3912
	.uleb128 0x12
	.long	.LASF1331
	.byte	0x2
	.value	0x749
	.byte	0x32
	.long	0xa5b7
	.byte	0
	.uleb128 0x3c
	.long	0xb5b3
	.long	0xb5ff
	.long	0xb614
	.uleb128 0x3
	.long	0xb5c1
	.uleb128 0x3
	.long	0xb5ca
	.uleb128 0x3
	.long	0xb5d7
	.uleb128 0x3
	.long	0xb5e4
	.byte	0
	.uleb128 0xb
	.long	0x4152
	.long	0xb622
	.byte	0x3
	.long	0xb653
	.uleb128 0x9
	.long	.LASF1303
	.long	0xa350
	.uleb128 0xe
	.string	"__n"
	.byte	0x2
	.value	0x890
	.byte	0x1e
	.long	0x3912
	.uleb128 0xe
	.string	"__s"
	.byte	0x2
	.value	0x890
	.byte	0x2f
	.long	0x77aa
	.uleb128 0x28
	.long	.LASF1312
	.byte	0x2
	.value	0x895
	.byte	0x12
	.long	0x391f
	.byte	0
	.uleb128 0xb
	.long	0x32a2
	.long	0xb679
	.byte	0x3
	.long	0xb69e
	.uleb128 0x11
	.string	"_Up"
	.long	0xa0fa
	.uleb128 0x47
	.long	.LASF427
	.long	0xb679
	.uleb128 0x48
	.long	0xa29c
	.byte	0
	.uleb128 0x9
	.long	.LASF1303
	.long	0xa26f
	.uleb128 0x25
	.string	"__p"
	.byte	0x6
	.byte	0xc9
	.byte	0x11
	.long	0xa27e
	.uleb128 0x80
	.long	.LASF1308
	.byte	0x6
	.byte	0xc9
	.byte	0x1d
	.uleb128 0x1
	.long	0xa29c
	.byte	0
	.byte	0
	.uleb128 0x14
	.long	0x7201
	.byte	0x3
	.long	0xb6fc
	.uleb128 0x11
	.string	"_Tp"
	.long	0xa0fa
	.uleb128 0x11
	.string	"_Up"
	.long	0xa0fa
	.uleb128 0x12
	.long	.LASF1304
	.byte	0xc
	.value	0x561
	.byte	0x19
	.long	0xa27e
	.uleb128 0x12
	.long	.LASF1305
	.byte	0xc
	.value	0x561
	.byte	0x27
	.long	0xa27e
	.uleb128 0x12
	.long	.LASF1332
	.byte	0xc
	.value	0x562
	.byte	0xb
	.long	0xa27e
	.uleb128 0x12
	.long	.LASF1333
	.byte	0xc
	.value	0x563
	.byte	0x2b
	.long	0xa2b0
	.uleb128 0x28
	.long	.LASF840
	.byte	0xc
	.value	0x565
	.byte	0x11
	.long	0x635
	.byte	0
	.uleb128 0x14
	.long	0x7239
	.byte	0x3
	.long	0xb71d
	.uleb128 0xc
	.long	.LASF443
	.long	0xa27e
	.uleb128 0x12
	.long	.LASF1314
	.byte	0x3
	.value	0xbce
	.byte	0x1c
	.long	0xa27e
	.byte	0
	.uleb128 0x14
	.long	0x3381
	.byte	0x3
	.long	0xb742
	.uleb128 0xe
	.string	"__a"
	.byte	0x8
	.value	0x27d
	.byte	0x20
	.long	0xa2b5
	.uleb128 0xe
	.string	"__n"
	.byte	0x8
	.value	0x27d
	.byte	0x2f
	.long	0x33af
	.byte	0
	.uleb128 0xb
	.long	0x3603
	.long	0xb750
	.byte	0x3
	.long	0xb75a
	.uleb128 0x9
	.long	.LASF1303
	.long	0xa30f
	.byte	0
	.uleb128 0x14
	.long	0x4193
	.byte	0x3
	.long	0xb78c
	.uleb128 0xe
	.string	"__a"
	.byte	0x2
	.value	0x8a4
	.byte	0x29
	.long	0xa35a
	.uleb128 0x28
	.long	.LASF1316
	.byte	0x2
	.value	0x8a9
	.byte	0xf
	.long	0x2d0
	.uleb128 0x28
	.long	.LASF1317
	.byte	0x2
	.value	0x8ab
	.byte	0xf
	.long	0x2d0
	.byte	0
	.uleb128 0x14
	.long	0x7259
	.byte	0x3
	.long	0xb7b8
	.uleb128 0xc
	.long	.LASF743
	.long	0xa27e
	.uleb128 0x38
	.long	.LASF1304
	.byte	0xb
	.byte	0xdb
	.byte	0x1f
	.long	0xa27e
	.uleb128 0x38
	.long	.LASF1305
	.byte	0xb
	.byte	0xdb
	.byte	0x39
	.long	0xa27e
	.byte	0
	.uleb128 0x14
	.long	0x33ea
	.byte	0x3
	.long	0xb7ea
	.uleb128 0xe
	.string	"__a"
	.byte	0x8
	.value	0x2b0
	.byte	0x22
	.long	0xa2b5
	.uleb128 0xe
	.string	"__p"
	.byte	0x8
	.value	0x2b0
	.byte	0x2f
	.long	0x3374
	.uleb128 0xe
	.string	"__n"
	.byte	0x8
	.value	0x2b0
	.byte	0x3e
	.long	0x33af
	.byte	0
	.uleb128 0xb
	.long	0x3144
	.long	0xb7f8
	.byte	0x2
	.long	0xb802
	.uleb128 0x9
	.long	.LASF1303
	.long	0xa26f
	.byte	0
	.uleb128 0x3c
	.long	0xb7ea
	.long	0xb80f
	.long	0xb815
	.uleb128 0x3
	.long	0xb7f8
	.byte	0
	.uleb128 0x14
	.long	0x727a
	.byte	0x3
	.long	0xb862
	.uleb128 0x11
	.string	"_OI"
	.long	0x9caa
	.uleb128 0xc
	.long	.LASF765
	.long	0x3e
	.uleb128 0x11
	.string	"_Tp"
	.long	0x37
	.uleb128 0x12
	.long	.LASF1304
	.byte	0xa
	.value	0x49b
	.byte	0x10
	.long	0x9caa
	.uleb128 0xe
	.string	"__n"
	.byte	0xa
	.value	0x49b
	.byte	0x1f
	.long	0x3e
	.uleb128 0x12
	.long	.LASF841
	.byte	0xa
	.value	0x49b
	.byte	0x2f
	.long	0x9cc8
	.byte	0
	.uleb128 0xb
	.long	0x1c9a
	.long	0xb870
	.byte	0x3
	.long	0xb896
	.uleb128 0x9
	.long	.LASF1303
	.long	0x9d4f
	.uleb128 0x12
	.long	.LASF1192
	.byte	0x2
	.value	0x8b5
	.byte	0x1f
	.long	0x1240
	.uleb128 0x45
	.uleb128 0x62
	.string	"__n"
	.byte	0x2
	.value	0x8b7
	.byte	0x10
	.long	0x12f7
	.byte	0
	.byte	0
	.uleb128 0x14
	.long	0x72ba
	.byte	0x3
	.long	0xb8f1
	.uleb128 0xc
	.long	.LASF743
	.long	0x9caa
	.uleb128 0xc
	.long	.LASF765
	.long	0x3e
	.uleb128 0x11
	.string	"_Tp"
	.long	0x37
	.uleb128 0xc
	.long	.LASF794
	.long	0x37
	.uleb128 0x12
	.long	.LASF1304
	.byte	0xc
	.value	0x303
	.byte	0x2f
	.long	0x9caa
	.uleb128 0xe
	.string	"__n"
	.byte	0xc
	.value	0x303
	.byte	0x3e
	.long	0x3e
	.uleb128 0xe
	.string	"__x"
	.byte	0xc
	.value	0x304
	.byte	0x14
	.long	0x9cc8
	.uleb128 0x1
	.long	0x9cdc
	.byte	0
	.uleb128 0x14
	.long	0x7308
	.byte	0x3
	.long	0xb935
	.uleb128 0xc
	.long	.LASF743
	.long	0x81ad
	.uleb128 0x11
	.string	"_Tp"
	.long	0x37
	.uleb128 0x12
	.long	.LASF1304
	.byte	0xa
	.value	0x3e9
	.byte	0x1b
	.long	0x81ad
	.uleb128 0x12
	.long	.LASF1305
	.byte	0xa
	.value	0x3e9
	.byte	0x35
	.long	0x81ad
	.uleb128 0x12
	.long	.LASF841
	.byte	0xa
	.value	0x3e9
	.byte	0x48
	.long	0x9cc8
	.byte	0
	.uleb128 0xb
	.long	0x1572
	.long	0xb943
	.byte	0x3
	.long	0xb94d
	.uleb128 0x9
	.long	.LASF1303
	.long	0x9d4f
	.byte	0
	.uleb128 0xb
	.long	0x1525
	.long	0xb95b
	.byte	0x3
	.long	0xb965
	.uleb128 0x9
	.long	.LASF1303
	.long	0x9d4f
	.byte	0
	.uleb128 0xb
	.long	0xe84
	.long	0xb973
	.byte	0x3
	.long	0xb995
	.uleb128 0x9
	.long	.LASF1303
	.long	0x9cfa
	.uleb128 0x25
	.string	"__x"
	.byte	0x2
	.byte	0x80
	.byte	0x22
	.long	0x9d09
	.uleb128 0x39
	.long	.LASF1334
	.byte	0x2
	.byte	0x84
	.byte	0x16
	.long	0xdf8
	.byte	0
	.uleb128 0xb
	.long	0x1309
	.long	0xb9a3
	.byte	0x2
	.long	0xb9d4
	.uleb128 0x9
	.long	.LASF1303
	.long	0x9d4f
	.uleb128 0xe
	.string	"__n"
	.byte	0x2
	.value	0x24d
	.byte	0x18
	.long	0x12f7
	.uleb128 0x12
	.long	.LASF841
	.byte	0x2
	.value	0x24d
	.byte	0x2f
	.long	0x9d59
	.uleb128 0xe
	.string	"__a"
	.byte	0x2
	.value	0x24e
	.byte	0x1d
	.long	0x9d54
	.byte	0
	.uleb128 0x1a
	.long	0xb995
	.long	.LASF1335
	.long	0xb9e5
	.long	0xb9fa
	.uleb128 0x3
	.long	0xb9a3
	.uleb128 0x3
	.long	0xb9ac
	.uleb128 0x3
	.long	0xb9b9
	.uleb128 0x3
	.long	0xb9c6
	.byte	0
	.uleb128 0xb
	.long	0x1769
	.long	0xba08
	.byte	0x3
	.long	0xba1f
	.uleb128 0x9
	.long	.LASF1303
	.long	0x9d77
	.uleb128 0x28
	.long	.LASF1336
	.byte	0x2
	.value	0x4b0
	.byte	0xc
	.long	0x635
	.byte	0
	.uleb128 0x14
	.long	0x733b
	.byte	0x3
	.long	0xba4b
	.uleb128 0xc
	.long	.LASF743
	.long	0x9caa
	.uleb128 0x38
	.long	.LASF1304
	.byte	0xb
	.byte	0xdb
	.byte	0x1f
	.long	0x9caa
	.uleb128 0x38
	.long	.LASF1305
	.byte	0xb
	.byte	0xdb
	.byte	0x39
	.long	0x9caa
	.byte	0
	.uleb128 0x14
	.long	0xd79
	.byte	0x3
	.long	0xba7d
	.uleb128 0xe
	.string	"__a"
	.byte	0x8
	.value	0x2b0
	.byte	0x22
	.long	0x9ce1
	.uleb128 0xe
	.string	"__p"
	.byte	0x8
	.value	0x2b0
	.byte	0x2f
	.long	0xcfb
	.uleb128 0xe
	.string	"__n"
	.byte	0x8
	.value	0x2b0
	.byte	0x3e
	.long	0xd3a
	.byte	0
	.uleb128 0xb
	.long	0xacd
	.long	0xba8b
	.byte	0x2
	.long	0xba95
	.uleb128 0x9
	.long	.LASF1303
	.long	0x9c9b
	.byte	0
	.uleb128 0x1a
	.long	0xba7d
	.long	.LASF1337
	.long	0xbaa6
	.long	0xbaac
	.uleb128 0x3
	.long	0xba8b
	.byte	0
	.uleb128 0x14
	.long	0x735f
	.byte	0x3
	.long	0xbad8
	.uleb128 0x11
	.string	"_Tp"
	.long	0x3e
	.uleb128 0x25
	.string	"__a"
	.byte	0xa
	.byte	0xe8
	.byte	0x14
	.long	0xaf1e
	.uleb128 0x25
	.string	"__b"
	.byte	0xa
	.byte	0xe8
	.byte	0x24
	.long	0xaf1e
	.byte	0
	.uleb128 0xb
	.long	0xc91
	.long	0xbae6
	.byte	0x2
	.long	0xbafc
	.uleb128 0x9
	.long	.LASF1303
	.long	0x9cd2
	.uleb128 0x25
	.string	"__a"
	.byte	0x5
	.byte	0xac
	.byte	0x22
	.long	0x9cd7
	.byte	0
	.uleb128 0x1a
	.long	0xbad8
	.long	.LASF1338
	.long	0xbb0d
	.long	0xbb18
	.uleb128 0x3
	.long	0xbae6
	.uleb128 0x3
	.long	0xbaef
	.byte	0
	.uleb128 0xb
	.long	0x6a11
	.long	0xbb2f
	.byte	0x3
	.long	0xbb46
	.uleb128 0x11
	.string	"_Up"
	.long	0x30
	.uleb128 0x9
	.long	.LASF1303
	.long	0xa56c
	.uleb128 0x12
	.long	.LASF1330
	.byte	0x2
	.value	0x8ee
	.byte	0x13
	.long	0xa49f
	.byte	0
	.uleb128 0x14
	.long	0x7387
	.byte	0x3
	.long	0xbb82
	.uleb128 0xc
	.long	.LASF743
	.long	0xa49f
	.uleb128 0x11
	.string	"_Tp"
	.long	0x30
	.uleb128 0x12
	.long	.LASF1304
	.byte	0x8
	.value	0x43a
	.byte	0x1f
	.long	0xa49f
	.uleb128 0x12
	.long	.LASF1305
	.byte	0x8
	.value	0x43a
	.byte	0x39
	.long	0xa49f
	.uleb128 0x1
	.long	0xa4d1
	.byte	0
	.uleb128 0xb
	.long	0x5c4e
	.long	0xbb90
	.byte	0x3
	.long	0xbb9a
	.uleb128 0x9
	.long	.LASF1303
	.long	0xa526
	.byte	0
	.uleb128 0xb
	.long	0x67a9
	.long	0xbba8
	.byte	0x3
	.long	0xbbcc
	.uleb128 0x9
	.long	.LASF1303
	.long	0xa544
	.uleb128 0xe
	.string	"__n"
	.byte	0x2
	.value	0x7c3
	.byte	0x24
	.long	0x5fbf
	.uleb128 0x12
	.long	.LASF841
	.byte	0x2
	.value	0x7c3
	.byte	0x3b
	.long	0xa54e
	.byte	0
	.uleb128 0xb
	.long	0x5db4
	.long	0xbbda
	.byte	0x2
	.long	0xbbf3
	.uleb128 0x9
	.long	.LASF1303
	.long	0xa526
	.uleb128 0x45
	.uleb128 0x62
	.string	"__n"
	.byte	0x2
	.value	0x177
	.byte	0xc
	.long	0x635
	.byte	0
	.byte	0
	.uleb128 0x1a
	.long	0xbbcc
	.long	.LASF1339
	.long	0xbc04
	.long	0xbc15
	.uleb128 0x3
	.long	0xbbda
	.uleb128 0x73
	.long	0xbbe3
	.uleb128 0x35
	.long	0xbbe4
	.byte	0
	.byte	0
	.uleb128 0xb
	.long	0x5d0f
	.long	0xbc23
	.byte	0x2
	.long	0xbc47
	.uleb128 0x9
	.long	.LASF1303
	.long	0xa526
	.uleb128 0xe
	.string	"__n"
	.byte	0x2
	.value	0x153
	.byte	0x1b
	.long	0x2c3
	.uleb128 0xe
	.string	"__a"
	.byte	0x2
	.value	0x153
	.byte	0x36
	.long	0xa530
	.byte	0
	.uleb128 0x1a
	.long	0xbc15
	.long	.LASF1340
	.long	0xbc58
	.long	0xbc68
	.uleb128 0x3
	.long	0xbc23
	.uleb128 0x3
	.long	0xbc2c
	.uleb128 0x3
	.long	0xbc39
	.byte	0
	.uleb128 0x63
	.long	0x5c29
	.byte	0x2
	.byte	0x8b
	.byte	0xe
	.long	0xbc78
	.long	0xbc82
	.uleb128 0x9
	.long	.LASF1303
	.long	0xa508
	.byte	0
	.uleb128 0x1a
	.long	0xbc68
	.long	.LASF1341
	.long	0xbc93
	.long	0xbc99
	.uleb128 0x3
	.long	0xbc78
	.byte	0
	.uleb128 0x14
	.long	0x6926
	.byte	0x3
	.long	0xbcbe
	.uleb128 0xe
	.string	"__n"
	.byte	0x2
	.value	0x89b
	.byte	0x23
	.long	0x5fbf
	.uleb128 0xe
	.string	"__a"
	.byte	0x2
	.value	0x89b
	.byte	0x3e
	.long	0xa549
	.byte	0
	.uleb128 0xb
	.long	0x57f3
	.long	0xbccc
	.byte	0x2
	.long	0xbcd6
	.uleb128 0x9
	.long	.LASF1303
	.long	0xa490
	.byte	0
	.uleb128 0x1a
	.long	0xbcbe
	.long	.LASF1342
	.long	0xbce7
	.long	0xbced
	.uleb128 0x3
	.long	0xbccc
	.byte	0
	.uleb128 0xb
	.long	0x5795
	.long	0xbcfb
	.byte	0x2
	.long	0xbd05
	.uleb128 0x9
	.long	.LASF1303
	.long	0xa490
	.byte	0
	.uleb128 0x1a
	.long	0xbced
	.long	.LASF1343
	.long	0xbd16
	.long	0xbd1c
	.uleb128 0x3
	.long	0xbcfb
	.byte	0
	.uleb128 0xb
	.long	0x8a7d
	.long	0xbd2a
	.byte	0x2
	.long	0xbd41
	.uleb128 0x9
	.long	.LASF1303
	.long	0xa472
	.uleb128 0xe
	.string	"__i"
	.byte	0x3
	.value	0x422
	.byte	0x2a
	.long	0xa477
	.byte	0
	.uleb128 0x3c
	.long	0xbd1c
	.long	0xbd4e
	.long	0xbd59
	.uleb128 0x3
	.long	0xbd2a
	.uleb128 0x3
	.long	0xbd33
	.byte	0
	.uleb128 0x14
	.long	0x73ba
	.byte	0x3
	.long	0xbd95
	.uleb128 0xc
	.long	.LASF743
	.long	0xa391
	.uleb128 0x11
	.string	"_Tp"
	.long	0x56
	.uleb128 0x12
	.long	.LASF1304
	.byte	0x8
	.value	0x43a
	.byte	0x1f
	.long	0xa391
	.uleb128 0x12
	.long	.LASF1305
	.byte	0x8
	.value	0x43a
	.byte	0x39
	.long	0xa391
	.uleb128 0x1
	.long	0xa3be
	.byte	0
	.uleb128 0xb
	.long	0x4866
	.long	0xbda3
	.byte	0x3
	.long	0xbdad
	.uleb128 0x9
	.long	.LASF1303
	.long	0xa413
	.byte	0
	.uleb128 0xb
	.long	0x53c1
	.long	0xbdbb
	.byte	0x3
	.long	0xbddf
	.uleb128 0x9
	.long	.LASF1303
	.long	0xa431
	.uleb128 0xe
	.string	"__n"
	.byte	0x2
	.value	0x7c3
	.byte	0x24
	.long	0x4bd7
	.uleb128 0x12
	.long	.LASF841
	.byte	0x2
	.value	0x7c3
	.byte	0x3b
	.long	0xa43b
	.byte	0
	.uleb128 0xb
	.long	0x49cc
	.long	0xbded
	.byte	0x2
	.long	0xbe06
	.uleb128 0x9
	.long	.LASF1303
	.long	0xa413
	.uleb128 0x45
	.uleb128 0x62
	.string	"__n"
	.byte	0x2
	.value	0x177
	.byte	0xc
	.long	0x635
	.byte	0
	.byte	0
	.uleb128 0x1a
	.long	0xbddf
	.long	.LASF1344
	.long	0xbe17
	.long	0xbe28
	.uleb128 0x3
	.long	0xbded
	.uleb128 0x73
	.long	0xbdf6
	.uleb128 0x35
	.long	0xbdf7
	.byte	0
	.byte	0
	.uleb128 0xb
	.long	0x4927
	.long	0xbe36
	.byte	0x2
	.long	0xbe5a
	.uleb128 0x9
	.long	.LASF1303
	.long	0xa413
	.uleb128 0xe
	.string	"__n"
	.byte	0x2
	.value	0x153
	.byte	0x1b
	.long	0x2c3
	.uleb128 0xe
	.string	"__a"
	.byte	0x2
	.value	0x153
	.byte	0x36
	.long	0xa41d
	.byte	0
	.uleb128 0x1a
	.long	0xbe28
	.long	.LASF1345
	.long	0xbe6b
	.long	0xbe7b
	.uleb128 0x3
	.long	0xbe36
	.uleb128 0x3
	.long	0xbe3f
	.uleb128 0x3
	.long	0xbe4c
	.byte	0
	.uleb128 0x63
	.long	0x4841
	.byte	0x2
	.byte	0x8b
	.byte	0xe
	.long	0xbe8b
	.long	0xbe95
	.uleb128 0x9
	.long	.LASF1303
	.long	0xa3f5
	.byte	0
	.uleb128 0x1a
	.long	0xbe7b
	.long	.LASF1346
	.long	0xbea6
	.long	0xbeac
	.uleb128 0x3
	.long	0xbe8b
	.byte	0
	.uleb128 0x14
	.long	0x553e
	.byte	0x3
	.long	0xbed1
	.uleb128 0xe
	.string	"__n"
	.byte	0x2
	.value	0x89b
	.byte	0x23
	.long	0x4bd7
	.uleb128 0xe
	.string	"__a"
	.byte	0x2
	.value	0x89b
	.byte	0x3e
	.long	0xa436
	.byte	0
	.uleb128 0xb
	.long	0x440b
	.long	0xbedf
	.byte	0x2
	.long	0xbee9
	.uleb128 0x9
	.long	.LASF1303
	.long	0xa382
	.byte	0
	.uleb128 0x1a
	.long	0xbed1
	.long	.LASF1347
	.long	0xbefa
	.long	0xbf00
	.uleb128 0x3
	.long	0xbedf
	.byte	0
	.uleb128 0xb
	.long	0x43ad
	.long	0xbf0e
	.byte	0x2
	.long	0xbf18
	.uleb128 0x9
	.long	.LASF1303
	.long	0xa382
	.byte	0
	.uleb128 0x1a
	.long	0xbf00
	.long	.LASF1348
	.long	0xbf29
	.long	0xbf2f
	.uleb128 0x3
	.long	0xbf0e
	.byte	0
	.uleb128 0xb
	.long	0x4302
	.long	0xbf4c
	.byte	0x1
	.long	0xbfc7
	.uleb128 0x47
	.long	.LASF427
	.long	0xbf4c
	.uleb128 0x48
	.long	0xa29c
	.byte	0
	.uleb128 0x9
	.long	.LASF1303
	.long	0xa328
	.uleb128 0xc7
	.long	.LASF1308
	.byte	0x7
	.value	0x236
	.byte	0x20
	.long	0xbf69
	.uleb128 0x1
	.long	0xa29c
	.byte	0
	.uleb128 0x28
	.long	.LASF1312
	.byte	0x7
	.value	0x23e
	.byte	0x17
	.long	0x391f
	.uleb128 0x28
	.long	.LASF1349
	.byte	0x7
	.value	0x241
	.byte	0xf
	.long	0x386a
	.uleb128 0x28
	.long	.LASF1350
	.byte	0x7
	.value	0x242
	.byte	0xf
	.long	0x386a
	.uleb128 0x28
	.long	.LASF1351
	.byte	0x7
	.value	0x243
	.byte	0x17
	.long	0x391f
	.uleb128 0x28
	.long	.LASF1352
	.byte	0x7
	.value	0x244
	.byte	0xf
	.long	0x386a
	.uleb128 0x28
	.long	.LASF1353
	.byte	0x7
	.value	0x245
	.byte	0xf
	.long	0x386a
	.uleb128 0x45
	.uleb128 0x28
	.long	.LASF1313
	.byte	0x7
	.value	0x248
	.byte	0xf
	.long	0x4258
	.byte	0
	.byte	0
	.uleb128 0x14
	.long	0x344f
	.byte	0x3
	.long	0xc014
	.uleb128 0x11
	.string	"_Up"
	.long	0xa0fa
	.uleb128 0x47
	.long	.LASF427
	.long	0xbfe9
	.uleb128 0x48
	.long	0xa29c
	.byte	0
	.uleb128 0xe
	.string	"__a"
	.byte	0x8
	.value	0x2c1
	.byte	0x1c
	.long	0xa2b5
	.uleb128 0xe
	.string	"__p"
	.byte	0x8
	.value	0x2c2
	.byte	0xa
	.long	0xa27e
	.uleb128 0xc8
	.long	.LASF1308
	.byte	0x8
	.value	0x2c2
	.byte	0x16
	.uleb128 0x1
	.long	0xa29c
	.byte	0
	.byte	0
	.uleb128 0xb
	.long	0x1d4e
	.long	0xc02b
	.byte	0x3
	.long	0xc042
	.uleb128 0x11
	.string	"_Up"
	.long	0x37
	.uleb128 0x9
	.long	.LASF1303
	.long	0x9d77
	.uleb128 0x12
	.long	.LASF1330
	.byte	0x2
	.value	0x8ee
	.byte	0x13
	.long	0x9caa
	.byte	0
	.uleb128 0xb
	.long	0x8526
	.long	0xc050
	.byte	0x2
	.long	0xc067
	.uleb128 0x9
	.long	.LASF1303
	.long	0xa364
	.uleb128 0xe
	.string	"__i"
	.byte	0x3
	.value	0x422
	.byte	0x2a
	.long	0xa369
	.byte	0
	.uleb128 0x1a
	.long	0xc042
	.long	.LASF1354
	.long	0xc078
	.long	0xc083
	.uleb128 0x3
	.long	0xc050
	.uleb128 0x3
	.long	0xc059
	.byte	0
	.uleb128 0x14
	.long	0x73ed
	.byte	0x3
	.long	0xc0dd
	.uleb128 0xc
	.long	.LASF819
	.long	0xa27e
	.uleb128 0xc
	.long	.LASF743
	.long	0xa27e
	.uleb128 0xc
	.long	.LASF820
	.long	0x32e9
	.uleb128 0x12
	.long	.LASF1304
	.byte	0xc
	.value	0x57c
	.byte	0x21
	.long	0xa27e
	.uleb128 0x12
	.long	.LASF1305
	.byte	0xc
	.value	0x57c
	.byte	0x39
	.long	0xa27e
	.uleb128 0x12
	.long	.LASF1332
	.byte	0xc
	.value	0x57d
	.byte	0x15
	.long	0xa27e
	.uleb128 0x12
	.long	.LASF1333
	.byte	0xc
	.value	0x57d
	.byte	0x2b
	.long	0xa2b0
	.byte	0
	.uleb128 0xb
	.long	0x374e
	.long	0xc0eb
	.byte	0x3
	.long	0xc102
	.uleb128 0x9
	.long	.LASF1303
	.long	0xa305
	.uleb128 0xe
	.string	"__n"
	.byte	0x2
	.value	0x182
	.byte	0x1a
	.long	0x2c3
	.byte	0
	.uleb128 0xb
	.long	0x3c7c
	.long	0xc110
	.byte	0x3
	.long	0xc127
	.uleb128 0x9
	.long	.LASF1303
	.long	0xa350
	.uleb128 0x28
	.long	.LASF1336
	.byte	0x2
	.value	0x455
	.byte	0xc
	.long	0x635
	.byte	0
	.uleb128 0xb
	.long	0x3d0b
	.long	0xc135
	.byte	0x3
	.long	0xc14c
	.uleb128 0x9
	.long	.LASF1303
	.long	0xa350
	.uleb128 0x28
	.long	.LASF1336
	.byte	0x2
	.value	0x4b0
	.byte	0xc
	.long	0x635
	.byte	0
	.uleb128 0xb
	.long	0x3c98
	.long	0xc15a
	.byte	0x3
	.long	0xc164
	.uleb128 0x9
	.long	.LASF1303
	.long	0xa350
	.byte	0
	.uleb128 0x14
	.long	0x742e
	.byte	0x3
	.long	0xc1a0
	.uleb128 0xc
	.long	.LASF743
	.long	0xa27e
	.uleb128 0x11
	.string	"_Tp"
	.long	0xa0fa
	.uleb128 0x12
	.long	.LASF1304
	.byte	0x8
	.value	0x43a
	.byte	0x1f
	.long	0xa27e
	.uleb128 0x12
	.long	.LASF1305
	.byte	0x8
	.value	0x43a
	.byte	0x39
	.long	0xa27e
	.uleb128 0x1
	.long	0xa2b0
	.byte	0
	.uleb128 0xb
	.long	0x35e9
	.long	0xc1ae
	.byte	0x3
	.long	0xc1b8
	.uleb128 0x9
	.long	.LASF1303
	.long	0xa305
	.byte	0
	.uleb128 0xb
	.long	0x376d
	.long	0xc1c6
	.byte	0x3
	.long	0xc1ea
	.uleb128 0x9
	.long	.LASF1303
	.long	0xa305
	.uleb128 0xe
	.string	"__p"
	.byte	0x2
	.value	0x18a
	.byte	0x1d
	.long	0x3527
	.uleb128 0xe
	.string	"__n"
	.byte	0x2
	.value	0x18a
	.byte	0x29
	.long	0x2c3
	.byte	0
	.uleb128 0xb
	.long	0x3195
	.long	0xc1f8
	.byte	0x2
	.long	0xc202
	.uleb128 0x9
	.long	.LASF1303
	.long	0xa26f
	.byte	0
	.uleb128 0x3c
	.long	0xc1ea
	.long	0xc20f
	.long	0xc215
	.uleb128 0x3
	.long	0xc1f8
	.byte	0
	.uleb128 0xb
	.long	0x34c3
	.long	0xc223
	.byte	0x2
	.long	0xc22d
	.uleb128 0x9
	.long	.LASF1303
	.long	0xa2ce
	.byte	0
	.uleb128 0x3c
	.long	0xc215
	.long	0xc23a
	.long	0xc240
	.uleb128 0x3
	.long	0xc223
	.byte	0
	.uleb128 0xb
	.long	0x32fb
	.long	0xc24e
	.byte	0x2
	.long	0xc258
	.uleb128 0x9
	.long	.LASF1303
	.long	0xa2a6
	.byte	0
	.uleb128 0x3c
	.long	0xc240
	.long	0xc265
	.long	0xc26b
	.uleb128 0x3
	.long	0xc24e
	.byte	0
	.uleb128 0xb
	.long	0x1b2d
	.long	0xc279
	.byte	0x1
	.long	0xc2cd
	.uleb128 0x9
	.long	.LASF1303
	.long	0x9d4f
	.uleb128 0xe
	.string	"__n"
	.byte	0x7
	.value	0x113
	.byte	0x1b
	.long	0x2c3
	.uleb128 0x12
	.long	.LASF1311
	.byte	0x7
	.value	0x113
	.byte	0x32
	.long	0x9d59
	.uleb128 0x28
	.long	.LASF1355
	.byte	0x7
	.value	0x115
	.byte	0x17
	.long	0x1304
	.uleb128 0xc9
	.long	0xc2bd
	.uleb128 0x28
	.long	.LASF1334
	.byte	0x7
	.value	0x11a
	.byte	0xb
	.long	0x11b4
	.byte	0
	.uleb128 0x45
	.uleb128 0x28
	.long	.LASF1356
	.byte	0x7
	.value	0x120
	.byte	0x14
	.long	0x1304
	.byte	0
	.byte	0
	.uleb128 0x14
	.long	0x745d
	.byte	0x3
	.long	0xc309
	.uleb128 0xc
	.long	.LASF743
	.long	0x9caa
	.uleb128 0x11
	.string	"_Tp"
	.long	0x37
	.uleb128 0x12
	.long	.LASF1304
	.byte	0x8
	.value	0x43a
	.byte	0x1f
	.long	0x9caa
	.uleb128 0x12
	.long	.LASF1305
	.byte	0x8
	.value	0x43a
	.byte	0x39
	.long	0x9caa
	.uleb128 0x1
	.long	0x9cdc
	.byte	0
	.uleb128 0xb
	.long	0xf86
	.long	0xc317
	.byte	0x3
	.long	0xc321
	.uleb128 0x9
	.long	.LASF1303
	.long	0x9d31
	.byte	0
	.uleb128 0xb
	.long	0x1135
	.long	0xc32f
	.byte	0x3
	.long	0xc353
	.uleb128 0x9
	.long	.LASF1303
	.long	0x9d31
	.uleb128 0xe
	.string	"__p"
	.byte	0x2
	.value	0x18a
	.byte	0x1d
	.long	0xea3
	.uleb128 0xe
	.string	"__n"
	.byte	0x2
	.value	0x18a
	.byte	0x29
	.long	0x2c3
	.byte	0
	.uleb128 0xb
	.long	0xb2b
	.long	0xc361
	.byte	0x2
	.long	0xc36b
	.uleb128 0x9
	.long	.LASF1303
	.long	0x9c9b
	.byte	0
	.uleb128 0x1a
	.long	0xc353
	.long	.LASF1357
	.long	0xc37c
	.long	0xc382
	.uleb128 0x3
	.long	0xc361
	.byte	0
	.uleb128 0xb
	.long	0xe2c
	.long	0xc390
	.byte	0x2
	.long	0xc39a
	.uleb128 0x9
	.long	.LASF1303
	.long	0x9cfa
	.byte	0
	.uleb128 0x1a
	.long	0xc382
	.long	.LASF1358
	.long	0xc3ab
	.long	0xc3b1
	.uleb128 0x3
	.long	0xc390
	.byte	0
	.uleb128 0xb
	.long	0xc76
	.long	0xc3bf
	.byte	0x2
	.long	0xc3c9
	.uleb128 0x9
	.long	.LASF1303
	.long	0x9cd2
	.byte	0
	.uleb128 0x1a
	.long	0xc3b1
	.long	.LASF1359
	.long	0xc3da
	.long	0xc3e0
	.uleb128 0x3
	.long	0xc3bf
	.byte	0
	.uleb128 0xb
	.long	0x16c6
	.long	0xc3ee
	.byte	0x3
	.long	0xc405
	.uleb128 0x9
	.long	.LASF1303
	.long	0x9d77
	.uleb128 0x28
	.long	.LASF1336
	.byte	0x2
	.value	0x455
	.byte	0xc
	.long	0x635
	.byte	0
	.uleb128 0xb
	.long	0x65d3
	.long	0xc413
	.byte	0x3
	.long	0xc41d
	.uleb128 0x9
	.long	.LASF1303
	.long	0xa544
	.byte	0
	.uleb128 0xb
	.long	0x610a
	.long	0xc42b
	.byte	0x2
	.long	0xc435
	.uleb128 0x9
	.long	.LASF1303
	.long	0xa544
	.byte	0
	.uleb128 0x1a
	.long	0xc41d
	.long	.LASF1360
	.long	0xc446
	.long	0xc44c
	.uleb128 0x3
	.long	0xc42b
	.byte	0
	.uleb128 0xb
	.long	0x5fcc
	.long	0xc45a
	.byte	0x2
	.long	0xc48b
	.uleb128 0x9
	.long	.LASF1303
	.long	0xa544
	.uleb128 0xe
	.string	"__n"
	.byte	0x2
	.value	0x24d
	.byte	0x18
	.long	0x5fbf
	.uleb128 0x12
	.long	.LASF841
	.byte	0x2
	.value	0x24d
	.byte	0x2f
	.long	0xa54e
	.uleb128 0xe
	.string	"__a"
	.byte	0x2
	.value	0x24e
	.byte	0x1d
	.long	0xa549
	.byte	0
	.uleb128 0x1a
	.long	0xc44c
	.long	.LASF1361
	.long	0xc49c
	.long	0xc4b1
	.uleb128 0x3
	.long	0xc45a
	.uleb128 0x3
	.long	0xc463
	.uleb128 0x3
	.long	0xc470
	.uleb128 0x3
	.long	0xc47d
	.byte	0
	.uleb128 0xb
	.long	0x599c
	.long	0xc4bf
	.byte	0x2
	.long	0xc4c9
	.uleb128 0x9
	.long	.LASF1303
	.long	0xa4c7
	.byte	0
	.uleb128 0x1a
	.long	0xc4b1
	.long	.LASF1362
	.long	0xc4da
	.long	0xc4e0
	.uleb128 0x3
	.long	0xc4bf
	.byte	0
	.uleb128 0xb
	.long	0x593e
	.long	0xc4ee
	.byte	0x2
	.long	0xc4f8
	.uleb128 0x9
	.long	.LASF1303
	.long	0xa4c7
	.byte	0
	.uleb128 0x1a
	.long	0xc4e0
	.long	.LASF1363
	.long	0xc509
	.long	0xc50f
	.uleb128 0x3
	.long	0xc4ee
	.byte	0
	.uleb128 0xb
	.long	0x50b1
	.long	0xc51d
	.byte	0x3
	.long	0xc534
	.uleb128 0x9
	.long	.LASF1303
	.long	0xa431
	.uleb128 0xe
	.string	"__n"
	.byte	0x2
	.value	0x4e3
	.byte	0x1c
	.long	0x4bd7
	.byte	0
	.uleb128 0xb
	.long	0x3b50
	.long	0xc542
	.byte	0x3
	.long	0xc54c
	.uleb128 0x9
	.long	.LASF1303
	.long	0xa328
	.byte	0
	.uleb128 0xb
	.long	0x3b0b
	.long	0xc55a
	.byte	0x3
	.long	0xc564
	.uleb128 0x9
	.long	.LASF1303
	.long	0xa328
	.byte	0
	.uleb128 0xb
	.long	0x4d22
	.long	0xc572
	.byte	0x2
	.long	0xc57c
	.uleb128 0x9
	.long	.LASF1303
	.long	0xa431
	.byte	0
	.uleb128 0x1a
	.long	0xc564
	.long	.LASF1364
	.long	0xc58d
	.long	0xc593
	.uleb128 0x3
	.long	0xc572
	.byte	0
	.uleb128 0xb
	.long	0x4be4
	.long	0xc5a1
	.byte	0x2
	.long	0xc5d2
	.uleb128 0x9
	.long	.LASF1303
	.long	0xa431
	.uleb128 0xe
	.string	"__n"
	.byte	0x2
	.value	0x24d
	.byte	0x18
	.long	0x4bd7
	.uleb128 0x12
	.long	.LASF841
	.byte	0x2
	.value	0x24d
	.byte	0x2f
	.long	0xa43b
	.uleb128 0xe
	.string	"__a"
	.byte	0x2
	.value	0x24e
	.byte	0x1d
	.long	0xa436
	.byte	0
	.uleb128 0x1a
	.long	0xc593
	.long	.LASF1365
	.long	0xc5e3
	.long	0xc5f8
	.uleb128 0x3
	.long	0xc5a1
	.uleb128 0x3
	.long	0xc5aa
	.uleb128 0x3
	.long	0xc5b7
	.uleb128 0x3
	.long	0xc5c4
	.byte	0
	.uleb128 0xb
	.long	0x45b4
	.long	0xc606
	.byte	0x2
	.long	0xc610
	.uleb128 0x9
	.long	.LASF1303
	.long	0xa3b4
	.byte	0
	.uleb128 0x1a
	.long	0xc5f8
	.long	.LASF1366
	.long	0xc621
	.long	0xc627
	.uleb128 0x3
	.long	0xc606
	.byte	0
	.uleb128 0xb
	.long	0x4556
	.long	0xc635
	.byte	0x2
	.long	0xc63f
	.uleb128 0x9
	.long	.LASF1303
	.long	0xa3b4
	.byte	0
	.uleb128 0x1a
	.long	0xc627
	.long	.LASF1367
	.long	0xc650
	.long	0xc656
	.uleb128 0x3
	.long	0xc635
	.byte	0
	.uleb128 0xb
	.long	0x3eb9
	.long	0xc664
	.byte	0x3
	.long	0xc67b
	.uleb128 0x9
	.long	.LASF1303
	.long	0xa328
	.uleb128 0xe
	.string	"__x"
	.byte	0x2
	.value	0x57e
	.byte	0x23
	.long	0xa332
	.byte	0
	.uleb128 0xb
	.long	0x1910
	.long	0xc689
	.byte	0x3
	.long	0xc693
	.uleb128 0x9
	.long	.LASF1303
	.long	0x9d4f
	.byte	0
	.uleb128 0x14
	.long	0x7490
	.byte	0x3
	.long	0xc6bf
	.uleb128 0x11
	.string	"_Tp"
	.long	0x56
	.uleb128 0x25
	.string	"__a"
	.byte	0xa
	.byte	0xe8
	.byte	0x14
	.long	0xa3aa
	.uleb128 0x25
	.string	"__b"
	.byte	0xa
	.byte	0xe8
	.byte	0x24
	.long	0xa3aa
	.byte	0
	.uleb128 0x14
	.long	0x74b8
	.byte	0x3
	.long	0xc6ed
	.uleb128 0x11
	.string	"_Tp"
	.long	0x56
	.uleb128 0xe
	.string	"__a"
	.byte	0xa
	.value	0x100
	.byte	0x14
	.long	0xa3aa
	.uleb128 0xe
	.string	"__b"
	.byte	0xa
	.value	0x100
	.byte	0x24
	.long	0xa3aa
	.byte	0
	.uleb128 0xb
	.long	0x2924
	.long	0xc6fb
	.byte	0x3
	.long	0xc705
	.uleb128 0x9
	.long	.LASF1303
	.long	0xa233
	.byte	0
	.uleb128 0xb
	.long	0x28d7
	.long	0xc713
	.byte	0x3
	.long	0xc71d
	.uleb128 0x9
	.long	.LASF1303
	.long	0xa233
	.byte	0
	.uleb128 0xb
	.long	0x3d43
	.long	0xc72b
	.byte	0x1
	.long	0xc75b
	.uleb128 0x9
	.long	.LASF1303
	.long	0xa328
	.uleb128 0x25
	.string	"__n"
	.byte	0x7
	.byte	0x47
	.byte	0x17
	.long	0x3912
	.uleb128 0x45
	.uleb128 0x39
	.long	.LASF1368
	.byte	0x7
	.byte	0x4d
	.byte	0x14
	.long	0x391f
	.uleb128 0x39
	.long	.LASF1334
	.byte	0x7
	.byte	0x4e
	.byte	0xc
	.long	0x386a
	.byte	0
	.byte	0
	.uleb128 0xb
	.long	0x2a78
	.long	0xc769
	.byte	0x3
	.long	0xc780
	.uleb128 0x9
	.long	.LASF1303
	.long	0xa25b
	.uleb128 0x28
	.long	.LASF1336
	.byte	0x2
	.value	0x455
	.byte	0xc
	.long	0x635
	.byte	0
	.uleb128 0xb
	.long	0x3a45
	.long	0xc78e
	.byte	0x2
	.long	0xc798
	.uleb128 0x9
	.long	.LASF1303
	.long	0xa328
	.byte	0
	.uleb128 0x3c
	.long	0xc780
	.long	0xc7a5
	.long	0xc7ab
	.uleb128 0x3
	.long	0xc78e
	.byte	0
	.uleb128 0xb
	.long	0x372b
	.long	0xc7b9
	.byte	0x2
	.long	0xc7d2
	.uleb128 0x9
	.long	.LASF1303
	.long	0xa305
	.uleb128 0x45
	.uleb128 0x62
	.string	"__n"
	.byte	0x2
	.value	0x177
	.byte	0xc
	.long	0x635
	.byte	0
	.byte	0
	.uleb128 0x3c
	.long	0xc7ab
	.long	0xc7df
	.long	0xc7f0
	.uleb128 0x3
	.long	0xc7b9
	.uleb128 0x73
	.long	0xc7c2
	.uleb128 0x35
	.long	0xc7c3
	.byte	0
	.byte	0
	.uleb128 0xb
	.long	0x334c
	.long	0xc7fe
	.byte	0x2
	.long	0xc808
	.uleb128 0x9
	.long	.LASF1303
	.long	0xa2a6
	.byte	0
	.uleb128 0x3c
	.long	0xc7f0
	.long	0xc815
	.long	0xc81b
	.uleb128 0x3
	.long	0xc7fe
	.byte	0
	.uleb128 0xb
	.long	0x354a
	.long	0xc829
	.byte	0x2
	.long	0xc833
	.uleb128 0x9
	.long	.LASF1303
	.long	0xa2e7
	.byte	0
	.uleb128 0x3c
	.long	0xc81b
	.long	0xc840
	.long	0xc846
	.uleb128 0x3
	.long	0xc829
	.byte	0
	.uleb128 0xb
	.long	0x14d1
	.long	0xc854
	.byte	0x3
	.long	0xc878
	.uleb128 0x9
	.long	.LASF1303
	.long	0x9d4f
	.uleb128 0xe
	.string	"__n"
	.byte	0x2
	.value	0x361
	.byte	0x18
	.long	0x12f7
	.uleb128 0x12
	.long	.LASF1311
	.byte	0x2
	.value	0x361
	.byte	0x2f
	.long	0x9d59
	.byte	0
	.uleb128 0xb
	.long	0x1447
	.long	0xc886
	.byte	0x2
	.long	0xc890
	.uleb128 0x9
	.long	.LASF1303
	.long	0x9d4f
	.byte	0
	.uleb128 0x1a
	.long	0xc878
	.long	.LASF1369
	.long	0xc8a1
	.long	0xc8a7
	.uleb128 0x3
	.long	0xc886
	.byte	0
	.uleb128 0xb
	.long	0x10ec
	.long	0xc8b5
	.byte	0x2
	.long	0xc8ce
	.uleb128 0x9
	.long	.LASF1303
	.long	0x9d31
	.uleb128 0x45
	.uleb128 0x62
	.string	"__n"
	.byte	0x2
	.value	0x177
	.byte	0xc
	.long	0x635
	.byte	0
	.byte	0
	.uleb128 0x1a
	.long	0xc8a7
	.long	.LASF1370
	.long	0xc8df
	.long	0xc8f0
	.uleb128 0x3
	.long	0xc8b5
	.uleb128 0x73
	.long	0xc8be
	.uleb128 0x35
	.long	0xc8bf
	.byte	0
	.byte	0
	.uleb128 0xb
	.long	0xcd4
	.long	0xc8fe
	.byte	0x2
	.long	0xc908
	.uleb128 0x9
	.long	.LASF1303
	.long	0x9cd2
	.byte	0
	.uleb128 0x1a
	.long	0xc8f0
	.long	.LASF1371
	.long	0xc919
	.long	0xc91f
	.uleb128 0x3
	.long	0xc8fe
	.byte	0
	.uleb128 0xb
	.long	0xec6
	.long	0xc92d
	.byte	0x2
	.long	0xc937
	.uleb128 0x9
	.long	.LASF1303
	.long	0x9d13
	.byte	0
	.uleb128 0x1a
	.long	0xc91f
	.long	.LASF1372
	.long	0xc948
	.long	0xc94e
	.uleb128 0x3
	.long	0xc92d
	.byte	0
	.uleb128 0xb
	.long	0x2c42
	.long	0xc95c
	.byte	0x3
	.long	0xc966
	.uleb128 0x9
	.long	.LASF1303
	.long	0xa233
	.byte	0
	.uleb128 0xca
	.long	.LASF1373
	.byte	0x1
	.byte	0x21
	.byte	0xb
	.long	.LASF1374
	.long	0x9d86
	.long	.LLRL0
	.uleb128 0x1
	.byte	0x9c
	.long	0x10981
	.uleb128 0x9a
	.long	.LASF1375
	.byte	0x40
	.long	0xa251
	.long	.LLST1
	.long	.LVUS1
	.uleb128 0x9a
	.long	.LASF1376
	.byte	0x54
	.long	0x30
	.long	.LLST2
	.long	.LVUS2
	.uleb128 0x39
	.long	.LASF1268
	.byte	0x1
	.byte	0x22
	.byte	0x12
	.long	0x7521
	.uleb128 0x39
	.long	.LASF1269
	.byte	0x1
	.byte	0x23
	.byte	0x12
	.long	0x7521
	.uleb128 0x68
	.string	"w"
	.byte	0x24
	.byte	0xf
	.long	0x5e
	.uleb128 0x68
	.string	"h"
	.byte	0x25
	.byte	0xf
	.long	0x5e
	.uleb128 0x3f
	.long	.LASF1377
	.byte	0x27
	.byte	0xf
	.long	0x9d86
	.long	.LLST3
	.long	.LVUS3
	.uleb128 0x3f
	.long	.LASF1378
	.byte	0x2d
	.byte	0x1c
	.long	0x37e5
	.long	.LLST4
	.long	.LVUS4
	.uleb128 0x39
	.long	.LASF1379
	.byte	0x1
	.byte	0x45
	.byte	0x16
	.long	0x4a94
	.uleb128 0x39
	.long	.LASF1380
	.byte	0x1
	.byte	0x46
	.byte	0x16
	.long	0x4a94
	.uleb128 0x39
	.long	.LASF1381
	.byte	0x1
	.byte	0x58
	.byte	0x18
	.long	0x5e7c
	.uleb128 0x5a
	.long	.LLRL107
	.long	0xd21d
	.uleb128 0x2b
	.string	"sub"
	.byte	0x2f
	.byte	0x10
	.long	0xa1b1
	.long	.LLST108
	.long	.LVUS108
	.uleb128 0x9b
	.long	.LASF1382
	.long	0xa251
	.long	.LLST109
	.long	.LVUS109
	.uleb128 0x5b
	.long	.LASF1383
	.long	0x28ca
	.uleb128 0x5b
	.long	.LASF1384
	.long	0x28ca
	.uleb128 0x5a
	.long	.LLRL116
	.long	0xd147
	.uleb128 0x2b
	.string	"p"
	.byte	0x30
	.byte	0x13
	.long	0xa0fa
	.long	.LLST117
	.long	.LVUS117
	.uleb128 0x3f
	.long	.LASF1385
	.byte	0x31
	.byte	0xf
	.long	0x30
	.long	.LLST118
	.long	.LVUS118
	.uleb128 0x3f
	.long	.LASF1386
	.byte	0x32
	.byte	0xf
	.long	0x30
	.long	.LLST119
	.long	.LVUS119
	.uleb128 0x2b
	.string	"dx"
	.byte	0x35
	.byte	0xf
	.long	0x30
	.long	.LLST120
	.long	.LVUS120
	.uleb128 0x2b
	.string	"dy"
	.byte	0x36
	.byte	0xf
	.long	0x30
	.long	.LLST121
	.long	.LVUS121
	.uleb128 0x2e
	.long	0x10d4f
	.quad	.LBI2187
	.value	.LVU102
	.quad	.LBB2187
	.quad	.LBE2187-.LBB2187
	.byte	0x1
	.byte	0x33
	.byte	0x2b
	.long	0xcaf3
	.uleb128 0x4
	.long	0x10d59
	.long	.LLST122
	.long	.LVUS122
	.byte	0
	.uleb128 0x2e
	.long	0x10d4f
	.quad	.LBI2189
	.value	.LVU108
	.quad	.LBB2189
	.quad	.LBE2189-.LBB2189
	.byte	0x1
	.byte	0x34
	.byte	0x2b
	.long	0xcb27
	.uleb128 0x4
	.long	0x10d59
	.long	.LLST123
	.long	.LVUS123
	.byte	0
	.uleb128 0x2e
	.long	0xc6bf
	.quad	.LBI2191
	.value	.LVU120
	.quad	.LBB2191
	.quad	.LBE2191-.LBB2191
	.byte	0x1
	.byte	0x3b
	.byte	0x1d
	.long	0xcb58
	.uleb128 0x3
	.long	0xc6d2
	.uleb128 0x3
	.long	0xc6df
	.byte	0
	.uleb128 0x2f
	.long	0xc693
	.quad	.LBI2192
	.value	.LVU125
	.long	.LLRL124
	.byte	0x1
	.byte	0x3c
	.byte	0x1d
	.long	0xcb85
	.uleb128 0x4
	.long	0xc6a6
	.long	.LLST125
	.long	.LVUS125
	.uleb128 0x3
	.long	0xc6b2
	.byte	0
	.uleb128 0x2e
	.long	0xc6bf
	.quad	.LBI2195
	.value	.LVU131
	.quad	.LBB2195
	.quad	.LBE2195-.LBB2195
	.byte	0x1
	.byte	0x3d
	.byte	0x1d
	.long	0xcbb6
	.uleb128 0x3
	.long	0xc6d2
	.uleb128 0x3
	.long	0xc6df
	.byte	0
	.uleb128 0x2f
	.long	0xc693
	.quad	.LBI2196
	.value	.LVU134
	.long	.LLRL126
	.byte	0x1
	.byte	0x3e
	.byte	0x1d
	.long	0xcbe3
	.uleb128 0x4
	.long	0xc6a6
	.long	.LLST127
	.long	.LVUS127
	.uleb128 0x3
	.long	0xc6b2
	.byte	0
	.uleb128 0x2f
	.long	0xc67b
	.quad	.LBI2199
	.value	.LVU140
	.long	.LLRL128
	.byte	0x1
	.byte	0x3f
	.byte	0x23
	.long	0xcc0b
	.uleb128 0x4
	.long	0xc689
	.long	.LLST129
	.long	.LVUS129
	.byte	0
	.uleb128 0x4d
	.long	0xc656
	.quad	.LBI2203
	.value	.LVU159
	.long	.LLRL130
	.byte	0x1
	.byte	0x41
	.byte	0x19
	.uleb128 0x4
	.long	0xc664
	.long	.LLST131
	.long	.LVUS131
	.uleb128 0x4
	.long	0xc66d
	.long	.LLST132
	.long	.LVUS132
	.uleb128 0x37
	.long	0xbfc7
	.quad	.LBI2205
	.value	.LVU161
	.long	.LLRL133
	.byte	0x2
	.value	0x583
	.byte	0x1e
	.long	0xccad
	.uleb128 0x4
	.long	0xbfe9
	.long	.LLST134
	.long	.LVUS134
	.uleb128 0x3
	.long	0xbff6
	.uleb128 0x4
	.long	0xc00d
	.long	.LLST135
	.long	.LVUS135
	.uleb128 0x17
	.long	0xb653
	.quad	.LBI2206
	.value	.LVU162
	.long	.LLRL133
	.byte	0x8
	.value	0x2ca
	.byte	0x11
	.uleb128 0x4
	.long	0xb679
	.long	.LLST136
	.long	.LVUS136
	.uleb128 0x3
	.long	0xb682
	.uleb128 0x4
	.long	0xb697
	.long	.LLST137
	.long	.LVUS137
	.byte	0
	.byte	0
	.uleb128 0x17
	.long	0xbf2f
	.quad	.LBI2211
	.value	.LVU1110
	.long	.LLRL138
	.byte	0x2
	.value	0x589
	.byte	0x15
	.uleb128 0x4
	.long	0xbf4c
	.long	.LLST139
	.long	.LVUS139
	.uleb128 0x4
	.long	0xbf63
	.long	.LLST140
	.long	.LVUS140
	.uleb128 0x35
	.long	0xbf69
	.uleb128 0x3a
	.long	0xbf76
	.long	.LLST141
	.long	.LVUS141
	.uleb128 0x3a
	.long	0xbf83
	.long	.LLST142
	.long	.LVUS142
	.uleb128 0x3a
	.long	0xbf90
	.long	.LLST143
	.long	.LVUS143
	.uleb128 0x3a
	.long	0xbf9d
	.long	.LLST144
	.long	.LVUS144
	.uleb128 0x3a
	.long	0xbfaa
	.long	.LLST145
	.long	.LVUS145
	.uleb128 0x37
	.long	0xb614
	.quad	.LBI2213
	.value	.LVU1111
	.long	.LLRL146
	.byte	0x7
	.value	0x23e
	.byte	0x2b
	.long	0xcdf8
	.uleb128 0x4
	.long	0xb622
	.long	.LLST147
	.long	.LVUS147
	.uleb128 0x4
	.long	0xb62b
	.long	.LLST148
	.long	.LVUS148
	.uleb128 0x4
	.long	0xb638
	.long	.LLST149
	.long	.LVUS149
	.uleb128 0x35
	.long	0xb645
	.uleb128 0x74
	.long	0xc102
	.quad	.LBI2215
	.value	.LVU1112
	.quad	.LBB2215
	.quad	.LBE2215-.LBB2215
	.value	0x892
	.byte	0x17
	.byte	0x1
	.long	0xcdad
	.uleb128 0x4
	.long	0xc110
	.long	.LLST150
	.long	.LVUS150
	.uleb128 0x3a
	.long	0xc119
	.long	.LLST151
	.long	.LVUS151
	.byte	0
	.uleb128 0x57
	.long	0xaf23
	.quad	.LBI2217
	.value	.LVU1122
	.long	.LLRL152
	.byte	0x2
	.value	0x895
	.byte	0x2d
	.byte	0x2
	.long	0xcddc
	.uleb128 0x3
	.long	0xaf36
	.uleb128 0x4
	.long	0xaf43
	.long	.LLST153
	.long	.LVUS153
	.byte	0
	.uleb128 0x2c
	.quad	.LVL261
	.long	0x6dcd
	.uleb128 0x1f
	.uleb128 0x1
	.byte	0x55
	.uleb128 0x9
	.byte	0x3
	.quad	.LC2
	.byte	0
	.byte	0
	.uleb128 0x37
	.long	0xc0dd
	.quad	.LBI2222
	.value	.LVU1124
	.long	.LLRL154
	.byte	0x7
	.value	0x244
	.byte	0x2c
	.long	0xce9d
	.uleb128 0x4
	.long	0xc0eb
	.long	.LLST155
	.long	.LVUS155
	.uleb128 0x3
	.long	0xc0f4
	.uleb128 0x5c
	.long	0xb71d
	.quad	.LBI2224
	.value	.LVU1125
	.long	.LLRL156
	.byte	0x2
	.value	0x185
	.byte	0x1
	.uleb128 0x4
	.long	0xb727
	.long	.LLST157
	.long	.LVUS157
	.uleb128 0x3
	.long	0xb734
	.uleb128 0x17
	.long	0xaf51
	.quad	.LBI2225
	.value	.LVU1126
	.long	.LLRL158
	.byte	0x8
	.value	0x27e
	.byte	0x1c
	.uleb128 0x4
	.long	0xaf74
	.long	.LLST159
	.long	.LVUS159
	.uleb128 0x4
	.long	0xaf5f
	.long	.LLST160
	.long	.LVUS160
	.uleb128 0x3
	.long	0xaf68
	.uleb128 0x2c
	.quad	.LVL205
	.long	0xa61e
	.uleb128 0x1f
	.uleb128 0x1
	.byte	0x55
	.uleb128 0x4
	.byte	0x77
	.sleb128 192
	.byte	0x6
	.byte	0
	.byte	0
	.byte	0
	.byte	0
	.uleb128 0x75
	.long	0xbfb7
	.long	.LLRL161
	.uleb128 0x35
	.long	0xbfb8
	.uleb128 0x57
	.long	0xbfc7
	.quad	.LBI2241
	.value	.LVU1137
	.long	.LLRL162
	.byte	0x7
	.value	0x252
	.byte	0x1a
	.byte	0x1
	.long	0xcf2e
	.uleb128 0x4
	.long	0xbfe9
	.long	.LLST163
	.long	.LVUS163
	.uleb128 0x4
	.long	0xbff6
	.long	.LLST164
	.long	.LVUS164
	.uleb128 0x4
	.long	0xc00d
	.long	.LLST165
	.long	.LVUS165
	.uleb128 0x17
	.long	0xb653
	.quad	.LBI2242
	.value	.LVU1138
	.long	.LLRL162
	.byte	0x8
	.value	0x2ca
	.byte	0x11
	.uleb128 0x4
	.long	0xb679
	.long	.LLST166
	.long	.LVUS166
	.uleb128 0x4
	.long	0xb682
	.long	.LLST167
	.long	.LVUS167
	.uleb128 0x4
	.long	0xb697
	.long	.LLST168
	.long	.LVUS168
	.byte	0
	.byte	0
	.uleb128 0x37
	.long	0xc083
	.quad	.LBI2256
	.value	.LVU1145
	.long	.LLRL169
	.byte	0x7
	.value	0x25f
	.byte	0x26
	.long	0xcfeb
	.uleb128 0x4
	.long	0xc0a8
	.long	.LLST170
	.long	.LVUS170
	.uleb128 0x3
	.long	0xc0b5
	.uleb128 0x4
	.long	0xc0c2
	.long	.LLST171
	.long	.LVUS171
	.uleb128 0x4
	.long	0xc0cf
	.long	.LLST172
	.long	.LVUS172
	.uleb128 0x5c
	.long	0xb69e
	.quad	.LBI2257
	.value	.LVU1146
	.long	.LLRL169
	.byte	0xc
	.value	0x582
	.byte	0x3
	.uleb128 0x4
	.long	0xb6ba
	.long	.LLST173
	.long	.LVUS173
	.uleb128 0x3
	.long	0xb6c7
	.uleb128 0x4
	.long	0xb6d4
	.long	.LLST174
	.long	.LVUS174
	.uleb128 0x4
	.long	0xb6e1
	.long	.LLST175
	.long	.LVUS175
	.uleb128 0x3a
	.long	0xb6ee
	.long	.LLST176
	.long	.LVUS176
	.uleb128 0x2c
	.quad	.LVL209
	.long	0x10dc4
	.uleb128 0x1f
	.uleb128 0x1
	.byte	0x55
	.uleb128 0x4
	.byte	0x77
	.sleb128 200
	.byte	0x6
	.uleb128 0x1f
	.uleb128 0x1
	.byte	0x54
	.uleb128 0x4
	.byte	0x77
	.sleb128 112
	.byte	0x6
	.uleb128 0x1f
	.uleb128 0x1
	.byte	0x51
	.uleb128 0x2
	.byte	0x7c
	.sleb128 0
	.byte	0
	.byte	0
	.byte	0
	.uleb128 0x2d
	.long	0xb5b3
	.quad	.LBI2268
	.value	.LVU1135
	.quad	.LBB2268
	.quad	.LBE2268-.LBB2268
	.byte	0x7
	.value	0x248
	.byte	0xf
	.long	0xd03f
	.uleb128 0x4
	.long	0xb5c1
	.long	.LLST177
	.long	.LVUS177
	.uleb128 0x4
	.long	0xb5ca
	.long	.LLST178
	.long	.LVUS178
	.uleb128 0x3
	.long	0xb5d7
	.uleb128 0x4
	.long	0xb5e4
	.long	.LLST179
	.long	.LVUS179
	.byte	0
	.uleb128 0x17
	.long	0xb588
	.quad	.LBI2280
	.value	.LVU1160
	.long	.LLRL180
	.byte	0x7
	.value	0x289
	.byte	0x7
	.uleb128 0x4
	.long	0xb596
	.long	.LLST181
	.long	.LVUS181
	.uleb128 0x17
	.long	0xc1b8
	.quad	.LBI2282
	.value	.LVU1166
	.long	.LLRL182
	.byte	0x2
	.value	0x751
	.byte	0x1b
	.uleb128 0x3
	.long	0xc1c6
	.uleb128 0x4
	.long	0xc1cf
	.long	.LLST183
	.long	.LVUS183
	.uleb128 0x3
	.long	0xc1dc
	.uleb128 0x17
	.long	0xc1b8
	.quad	.LBI2284
	.value	.LVU1167
	.long	.LLRL184
	.byte	0x2
	.value	0x18a
	.byte	0x7
	.uleb128 0x3
	.long	0xc1c6
	.uleb128 0x4
	.long	0xc1cf
	.long	.LLST185
	.long	.LVUS185
	.uleb128 0x3
	.long	0xc1dc
	.uleb128 0x17
	.long	0xb7b8
	.quad	.LBI2286
	.value	.LVU1168
	.long	.LLRL186
	.byte	0x2
	.value	0x18e
	.byte	0x13
	.uleb128 0x3
	.long	0xb7c2
	.uleb128 0x4
	.long	0xb7cf
	.long	.LLST187
	.long	.LVUS187
	.uleb128 0x3
	.long	0xb7dc
	.uleb128 0x17
	.long	0xaf92
	.quad	.LBI2287
	.value	.LVU1169
	.long	.LLRL188
	.byte	0x8
	.value	0x2b1
	.byte	0x17
	.uleb128 0x3
	.long	0xafa0
	.uleb128 0x4
	.long	0xafa9
	.long	.LLST189
	.long	.LVUS189
	.uleb128 0x3
	.long	0xafb5
	.uleb128 0x2c
	.quad	.LVL215
	.long	0xa603
	.uleb128 0x1f
	.uleb128 0x1
	.byte	0x55
	.uleb128 0x4
	.byte	0x77
	.sleb128 112
	.byte	0x6
	.uleb128 0x1f
	.uleb128 0x1
	.byte	0x54
	.uleb128 0x9
	.byte	0x77
	.sleb128 240
	.byte	0x6
	.byte	0x77
	.sleb128 112
	.byte	0x6
	.byte	0x1c
	.byte	0
	.byte	0
	.byte	0
	.byte	0
	.byte	0
	.byte	0
	.byte	0
	.byte	0
	.byte	0
	.byte	0
	.uleb128 0x2f
	.long	0xc705
	.quad	.LBI2180
	.value	.LVU81
	.long	.LLRL110
	.byte	0x1
	.byte	0x2f
	.byte	0x16
	.long	0xd199
	.uleb128 0x4
	.long	0xc713
	.long	.LLST111
	.long	.LVUS111
	.uleb128 0x17
	.long	0xc042
	.quad	.LBI2181
	.value	.LVU82
	.long	.LLRL110
	.byte	0x2
	.value	0x3dd
	.byte	0x10
	.uleb128 0x3
	.long	0xc050
	.uleb128 0x4
	.long	0xc059
	.long	.LLST112
	.long	.LVUS112
	.byte	0
	.byte	0
	.uleb128 0x3d
	.long	0xc6ed
	.quad	.LBI2183
	.value	.LVU84
	.long	.LLRL113
	.byte	0x1
	.byte	0x2f
	.byte	0x16
	.byte	0x1
	.long	0xd1ec
	.uleb128 0x4
	.long	0xc6fb
	.long	.LLST114
	.long	.LVUS114
	.uleb128 0x17
	.long	0xc042
	.quad	.LBI2184
	.value	.LVU85
	.long	.LLRL113
	.byte	0x2
	.value	0x3f1
	.byte	0x10
	.uleb128 0x3
	.long	0xc050
	.uleb128 0x4
	.long	0xc059
	.long	.LLST115
	.long	.LVUS115
	.byte	0
	.byte	0
	.uleb128 0x76
	.long	0x10999
	.quad	.LBI2320
	.value	.LVU170
	.quad	.LBB2320
	.quad	.LBE2320-.LBB2320
	.byte	0x1
	.byte	0x2f
	.byte	0x4
	.uleb128 0x4
	.long	0x109a7
	.long	.LLST190
	.long	.LVUS190
	.byte	0
	.byte	0
	.uleb128 0x9c
	.quad	.LBB2459
	.quad	.LBE2459-.LBB2459
	.long	0xd446
	.uleb128 0x2b
	.string	"p"
	.byte	0x48
	.byte	0x16
	.long	0xa29c
	.long	.LLST295
	.long	.LVUS295
	.uleb128 0x9b
	.long	.LASF1382
	.long	0xa346
	.long	.LLST296
	.long	.LVUS296
	.uleb128 0x5b
	.long	.LASF1383
	.long	0x3afe
	.uleb128 0x5b
	.long	.LASF1384
	.long	0x3afe
	.uleb128 0x2e
	.long	0xc54c
	.quad	.LBI2460
	.value	.LVU271
	.quad	.LBB2460
	.quad	.LBE2460-.LBB2460
	.byte	0x1
	.byte	0x48
	.byte	0x1a
	.long	0xd2d2
	.uleb128 0x4
	.long	0xc55a
	.long	.LLST297
	.long	.LVUS297
	.uleb128 0x19
	.long	0xbd1c
	.quad	.LBI2461
	.value	.LVU272
	.quad	.LBB2461
	.quad	.LBE2461-.LBB2461
	.byte	0x2
	.value	0x3dd
	.byte	0x10
	.uleb128 0x3
	.long	0xbd2a
	.uleb128 0x4
	.long	0xbd33
	.long	.LLST298
	.long	.LVUS298
	.byte	0
	.byte	0
	.uleb128 0x5d
	.long	0xc534
	.quad	.LBI2462
	.value	.LVU274
	.quad	.LBB2462
	.quad	.LBE2462-.LBB2462
	.byte	0x48
	.byte	0x1a
	.byte	0x1
	.long	0xd33c
	.uleb128 0x4
	.long	0xc542
	.long	.LLST299
	.long	.LVUS299
	.uleb128 0x19
	.long	0xbd1c
	.quad	.LBI2463
	.value	.LVU275
	.quad	.LBB2463
	.quad	.LBE2463-.LBB2463
	.byte	0x2
	.value	0x3f1
	.byte	0x10
	.uleb128 0x3
	.long	0xbd2a
	.uleb128 0x4
	.long	0xbd33
	.long	.LLST300
	.long	.LVUS300
	.byte	0
	.byte	0
	.uleb128 0x3d
	.long	0x10981
	.quad	.LBI2464
	.value	.LVU313
	.long	.LLRL301
	.byte	0x1
	.byte	0x48
	.byte	0x1a
	.byte	0x4
	.long	0xd365
	.uleb128 0x4
	.long	0x1098f
	.long	.LLST302
	.long	.LVUS302
	.byte	0
	.uleb128 0x2e
	.long	0xc50f
	.quad	.LBI2466
	.value	.LVU287
	.quad	.LBB2466
	.quad	.LBE2466-.LBB2466
	.byte	0x1
	.byte	0x49
	.byte	0x31
	.long	0xd39e
	.uleb128 0x3
	.long	0xc51d
	.uleb128 0x4
	.long	0xc526
	.long	.LLST303
	.long	.LVUS303
	.byte	0
	.uleb128 0x2e
	.long	0xc50f
	.quad	.LBI2468
	.value	.LVU295
	.quad	.LBB2468
	.quad	.LBE2468-.LBB2468
	.byte	0x1
	.byte	0x4a
	.byte	0x31
	.long	0xd3d7
	.uleb128 0x3
	.long	0xc51d
	.uleb128 0x4
	.long	0xc526
	.long	.LLST304
	.long	.LVUS304
	.byte	0
	.uleb128 0x2e
	.long	0xc50f
	.quad	.LBI2470
	.value	.LVU301
	.quad	.LBB2470
	.quad	.LBE2470-.LBB2470
	.byte	0x1
	.byte	0x4b
	.byte	0x31
	.long	0xd410
	.uleb128 0x3
	.long	0xc51d
	.uleb128 0x4
	.long	0xc526
	.long	.LLST305
	.long	.LVUS305
	.byte	0
	.uleb128 0x23
	.long	0xc50f
	.quad	.LBI2472
	.value	.LVU307
	.quad	.LBB2472
	.quad	.LBE2472-.LBB2472
	.byte	0x1
	.byte	0x4c
	.byte	0x31
	.uleb128 0x3
	.long	0xc51d
	.uleb128 0x4
	.long	0xc526
	.long	.LLST306
	.long	.LVUS306
	.byte	0
	.byte	0
	.uleb128 0x9c
	.quad	.LBB2475
	.quad	.LBE2475-.LBB2475
	.long	0xd49e
	.uleb128 0x2b
	.string	"y"
	.byte	0x4f
	.byte	0xe
	.long	0x56
	.long	.LLST307
	.long	.LVUS307
	.uleb128 0x4a
	.long	.LLRL308
	.uleb128 0x2b
	.string	"row"
	.byte	0x50
	.byte	0xd
	.long	0x56
	.long	.LLST309
	.long	.LVUS309
	.uleb128 0x4a
	.long	.LLRL310
	.uleb128 0x2b
	.string	"x"
	.byte	0x51
	.byte	0x12
	.long	0x56
	.long	.LLST311
	.long	.LVUS311
	.byte	0
	.byte	0
	.byte	0
	.uleb128 0x5a
	.long	.LLRL360
	.long	0xdc4d
	.uleb128 0x2b
	.string	"p"
	.byte	0x5a
	.byte	0x1b
	.long	0xa29c
	.long	.LLST361
	.long	.LVUS361
	.uleb128 0x5b
	.long	.LASF1382
	.long	0xa346
	.uleb128 0x5b
	.long	.LASF1383
	.long	0x3afe
	.uleb128 0x5b
	.long	.LASF1384
	.long	0x3afe
	.uleb128 0x4a
	.long	.LLRL362
	.uleb128 0x2b
	.string	"Avx"
	.byte	0x5b
	.byte	0x16
	.long	0xa0b1
	.long	.LLST363
	.long	.LVUS363
	.uleb128 0x2b
	.string	"Bvx"
	.byte	0x5c
	.byte	0x16
	.long	0xa0b1
	.long	.LLST364
	.long	.LVUS364
	.uleb128 0x2b
	.string	"Cvx"
	.byte	0x5d
	.byte	0x16
	.long	0xa0b1
	.long	.LLST365
	.long	.LVUS365
	.uleb128 0x2b
	.string	"Dvx"
	.byte	0x5e
	.byte	0x16
	.long	0xa0b1
	.long	.LLST366
	.long	.LVUS366
	.uleb128 0x5a
	.long	.LLRL367
	.long	0xdbaf
	.uleb128 0x2b
	.string	"y"
	.byte	0x60
	.byte	0x12
	.long	0x56
	.long	.LLST368
	.long	.LVUS368
	.uleb128 0x4a
	.long	.LLRL369
	.uleb128 0x3f
	.long	.LASF1387
	.byte	0x61
	.byte	0x14
	.long	0x7515
	.long	.LLST370
	.long	.LVUS370
	.uleb128 0x3f
	.long	.LASF1388
	.byte	0x62
	.byte	0x14
	.long	0x7515
	.long	.LLST371
	.long	.LVUS371
	.uleb128 0x3f
	.long	.LASF1389
	.byte	0x63
	.byte	0x14
	.long	0x7515
	.long	.LLST372
	.long	.LVUS372
	.uleb128 0x3f
	.long	.LASF1390
	.byte	0x64
	.byte	0x14
	.long	0x7515
	.long	.LLST373
	.long	.LVUS373
	.uleb128 0x2b
	.string	"vp"
	.byte	0x66
	.byte	0x14
	.long	0xa49f
	.long	.LLST374
	.long	.LVUS374
	.uleb128 0x2b
	.string	"x"
	.byte	0x6a
	.byte	0x11
	.long	0x56
	.long	.LLST375
	.long	.LVUS375
	.uleb128 0x39
	.long	.LASF1391
	.byte	0x1
	.byte	0x6b
	.byte	0x17
	.long	0x5e
	.uleb128 0x39
	.long	.LASF1392
	.byte	0x1
	.byte	0x86
	.byte	0x11
	.long	0x56
	.uleb128 0x5a
	.long	.LLRL376
	.long	0xdb58
	.uleb128 0x39
	.long	.LASF1393
	.byte	0x1
	.byte	0x6f
	.byte	0x19
	.long	0xa045
	.uleb128 0x39
	.long	.LASF1394
	.byte	0x1
	.byte	0x70
	.byte	0x19
	.long	0xa045
	.uleb128 0x39
	.long	.LASF1395
	.byte	0x1
	.byte	0x71
	.byte	0x19
	.long	0xa045
	.uleb128 0x39
	.long	.LASF1396
	.byte	0x1
	.byte	0x72
	.byte	0x19
	.long	0xa045
	.uleb128 0x3f
	.long	.LASF1397
	.byte	0x74
	.byte	0x18
	.long	0xa0a5
	.long	.LLST377
	.long	.LVUS377
	.uleb128 0x3f
	.long	.LASF1398
	.byte	0x75
	.byte	0x18
	.long	0xa0a5
	.long	.LLST378
	.long	.LVUS378
	.uleb128 0x3f
	.long	.LASF1399
	.byte	0x76
	.byte	0x18
	.long	0xa0a5
	.long	.LLST379
	.long	.LVUS379
	.uleb128 0x3f
	.long	.LASF1400
	.byte	0x77
	.byte	0x18
	.long	0xa0a5
	.long	.LLST380
	.long	.LVUS380
	.uleb128 0x2b
	.string	"val"
	.byte	0x79
	.byte	0x18
	.long	0xa0a5
	.long	.LLST381
	.long	.LVUS381
	.uleb128 0x2f
	.long	0x10cca
	.quad	.LBI2589
	.value	.LVU457
	.long	.LLRL382
	.byte	0x1
	.byte	0x6f
	.byte	0x31
	.long	0xd6f6
	.uleb128 0x3
	.long	0x10cde
	.uleb128 0x19
	.long	0x10cf1
	.quad	.LBI2591
	.value	.LVU462
	.quad	.LBB2591
	.quad	.LBE2591-.LBB2591
	.byte	0xe
	.value	0x2c9
	.byte	0x18
	.uleb128 0x3
	.long	0x10d05
	.uleb128 0x4
	.long	0x10d12
	.long	.LLST383
	.long	.LVUS383
	.uleb128 0x19
	.long	0x10d20
	.quad	.LBI2593
	.value	.LVU464
	.quad	.LBB2593
	.quad	.LBE2593-.LBB2593
	.byte	0xe
	.value	0x25a
	.byte	0x19
	.uleb128 0x4
	.long	0x10d34
	.long	.LLST384
	.long	.LVUS384
	.uleb128 0x4
	.long	0x10d41
	.long	.LLST385
	.long	.LVUS385
	.byte	0
	.byte	0
	.byte	0
	.uleb128 0x2f
	.long	0x10c14
	.quad	.LBI2596
	.value	.LVU503
	.long	.LLRL386
	.byte	0x1
	.byte	0x75
	.byte	0x33
	.long	0xd716
	.uleb128 0x3
	.long	0x10c28
	.byte	0
	.uleb128 0x2f
	.long	0x10c14
	.quad	.LBI2599
	.value	.LVU519
	.long	.LLRL387
	.byte	0x1
	.byte	0x77
	.byte	0x33
	.long	0xd736
	.uleb128 0x3
	.long	0x10c28
	.byte	0
	.uleb128 0x2e
	.long	0x10cca
	.quad	.LBI2603
	.value	.LVU468
	.quad	.LBB2603
	.quad	.LBE2603-.LBB2603
	.byte	0x1
	.byte	0x70
	.byte	0x31
	.long	0xd7de
	.uleb128 0x4
	.long	0x10cde
	.long	.LLST388
	.long	.LVUS388
	.uleb128 0x19
	.long	0x10cf1
	.quad	.LBI2605
	.value	.LVU470
	.quad	.LBB2605
	.quad	.LBE2605-.LBB2605
	.byte	0xe
	.value	0x2c9
	.byte	0x18
	.uleb128 0x3
	.long	0x10d05
	.uleb128 0x4
	.long	0x10d12
	.long	.LLST389
	.long	.LVUS389
	.uleb128 0x19
	.long	0x10d20
	.quad	.LBI2607
	.value	.LVU472
	.quad	.LBB2607
	.quad	.LBE2607-.LBB2607
	.byte	0xe
	.value	0x25a
	.byte	0x19
	.uleb128 0x4
	.long	0x10d34
	.long	.LLST390
	.long	.LVUS390
	.uleb128 0x4
	.long	0x10d41
	.long	.LLST391
	.long	.LVUS391
	.byte	0
	.byte	0
	.byte	0
	.uleb128 0x2e
	.long	0x10cca
	.quad	.LBI2609
	.value	.LVU476
	.quad	.LBB2609
	.quad	.LBE2609-.LBB2609
	.byte	0x1
	.byte	0x71
	.byte	0x31
	.long	0xd87e
	.uleb128 0x3
	.long	0x10cde
	.uleb128 0x19
	.long	0x10cf1
	.quad	.LBI2611
	.value	.LVU478
	.quad	.LBB2611
	.quad	.LBE2611-.LBB2611
	.byte	0xe
	.value	0x2c9
	.byte	0x18
	.uleb128 0x3
	.long	0x10d05
	.uleb128 0x4
	.long	0x10d12
	.long	.LLST392
	.long	.LVUS392
	.uleb128 0x19
	.long	0x10d20
	.quad	.LBI2613
	.value	.LVU480
	.quad	.LBB2613
	.quad	.LBE2613-.LBB2613
	.byte	0xe
	.value	0x25a
	.byte	0x19
	.uleb128 0x4
	.long	0x10d34
	.long	.LLST393
	.long	.LVUS393
	.uleb128 0x4
	.long	0x10d41
	.long	.LLST394
	.long	.LVUS394
	.byte	0
	.byte	0
	.byte	0
	.uleb128 0x2e
	.long	0x10cca
	.quad	.LBI2615
	.value	.LVU484
	.quad	.LBB2615
	.quad	.LBE2615-.LBB2615
	.byte	0x1
	.byte	0x72
	.byte	0x31
	.long	0xd926
	.uleb128 0x4
	.long	0x10cde
	.long	.LLST395
	.long	.LVUS395
	.uleb128 0x19
	.long	0x10cf1
	.quad	.LBI2617
	.value	.LVU486
	.quad	.LBB2617
	.quad	.LBE2617-.LBB2617
	.byte	0xe
	.value	0x2c9
	.byte	0x18
	.uleb128 0x3
	.long	0x10d05
	.uleb128 0x4
	.long	0x10d12
	.long	.LLST396
	.long	.LVUS396
	.uleb128 0x19
	.long	0x10d20
	.quad	.LBI2619
	.value	.LVU488
	.quad	.LBB2619
	.quad	.LBE2619-.LBB2619
	.byte	0xe
	.value	0x25a
	.byte	0x19
	.uleb128 0x4
	.long	0x10d34
	.long	.LLST397
	.long	.LVUS397
	.uleb128 0x4
	.long	0x10d41
	.long	.LLST398
	.long	.LVUS398
	.byte	0
	.byte	0
	.byte	0
	.uleb128 0x2f
	.long	0x10c14
	.quad	.LBI2621
	.value	.LVU492
	.long	.LLRL399
	.byte	0x1
	.byte	0x74
	.byte	0x33
	.long	0xd946
	.uleb128 0x3
	.long	0x10c28
	.byte	0
	.uleb128 0x3d
	.long	0x10ca8
	.quad	.LBI2625
	.value	.LVU497
	.long	.LLRL400
	.byte	0x1
	.byte	0x74
	.byte	0x33
	.byte	0x1
	.long	0xd96f
	.uleb128 0x4
	.long	0x10cbc
	.long	.LLST401
	.long	.LVUS401
	.byte	0
	.uleb128 0x2f
	.long	0x10c14
	.quad	.LBI2628
	.value	.LVU509
	.long	.LLRL402
	.byte	0x1
	.byte	0x76
	.byte	0x33
	.long	0xd98f
	.uleb128 0x3
	.long	0x10c28
	.byte	0
	.uleb128 0x3d
	.long	0x10ca8
	.quad	.LBI2631
	.value	.LVU505
	.long	.LLRL403
	.byte	0x1
	.byte	0x75
	.byte	0x33
	.byte	0x1
	.long	0xd9b0
	.uleb128 0x3
	.long	0x10cbc
	.byte	0
	.uleb128 0x3d
	.long	0x10ca8
	.quad	.LBI2634
	.value	.LVU521
	.long	.LLRL404
	.byte	0x1
	.byte	0x77
	.byte	0x33
	.byte	0x1
	.long	0xd9d1
	.uleb128 0x3
	.long	0x10cbc
	.byte	0
	.uleb128 0x3d
	.long	0x10ca8
	.quad	.LBI2641
	.value	.LVU512
	.long	.LLRL405
	.byte	0x1
	.byte	0x76
	.byte	0x33
	.byte	0x1
	.long	0xd9fa
	.uleb128 0x4
	.long	0x10cbc
	.long	.LLST406
	.long	.LVUS406
	.byte	0
	.uleb128 0x2f
	.long	0x10bd9
	.quad	.LBI2644
	.value	.LVU528
	.long	.LLRL407
	.byte	0x1
	.byte	0x7a
	.byte	0x26
	.long	0xda24
	.uleb128 0x3
	.long	0x10bef
	.uleb128 0x3
	.long	0x10bfb
	.uleb128 0x3
	.long	0x10c07
	.byte	0
	.uleb128 0x2e
	.long	0x10c86
	.quad	.LBI2650
	.value	.LVU525
	.quad	.LBB2650
	.quad	.LBE2650-.LBB2650
	.byte	0x1
	.byte	0x79
	.byte	0x2d
	.long	0xda50
	.uleb128 0x3
	.long	0x10c9a
	.byte	0
	.uleb128 0x2e
	.long	0x10bd9
	.quad	.LBI2653
	.value	.LVU532
	.quad	.LBB2653
	.quad	.LBE2653-.LBB2653
	.byte	0x1
	.byte	0x7b
	.byte	0x26
	.long	0xda96
	.uleb128 0x3
	.long	0x10bef
	.uleb128 0x4
	.long	0x10bfb
	.long	.LLST408
	.long	.LVUS408
	.uleb128 0x4
	.long	0x10c07
	.long	.LLST409
	.long	.LVUS409
	.byte	0
	.uleb128 0x2e
	.long	0x10bd9
	.quad	.LBI2655
	.value	.LVU537
	.quad	.LBB2655
	.quad	.LBE2655-.LBB2655
	.byte	0x1
	.byte	0x7c
	.byte	0x26
	.long	0xdadc
	.uleb128 0x3
	.long	0x10bef
	.uleb128 0x4
	.long	0x10bfb
	.long	.LLST410
	.long	.LVUS410
	.uleb128 0x4
	.long	0x10c07
	.long	.LLST411
	.long	.LVUS411
	.byte	0
	.uleb128 0x2e
	.long	0x10bd9
	.quad	.LBI2657
	.value	.LVU542
	.quad	.LBB2657
	.quad	.LBE2657-.LBB2657
	.byte	0x1
	.byte	0x7d
	.byte	0x26
	.long	0xdb22
	.uleb128 0x3
	.long	0x10bef
	.uleb128 0x4
	.long	0x10bfb
	.long	.LLST412
	.long	.LVUS412
	.uleb128 0x4
	.long	0x10c07
	.long	.LLST413
	.long	.LVUS413
	.byte	0
	.uleb128 0x23
	.long	0x10c58
	.quad	.LBI2659
	.value	.LVU547
	.quad	.LBB2659
	.quad	.LBE2659-.LBB2659
	.byte	0x1
	.byte	0x7e
	.byte	0x21
	.uleb128 0x3
	.long	0x10c6b
	.uleb128 0x4
	.long	0x10c78
	.long	.LLST414
	.long	.LVUS414
	.byte	0
	.byte	0
	.uleb128 0x4a
	.long	.LLRL415
	.uleb128 0x2b
	.string	"k"
	.byte	0x87
	.byte	0x16
	.long	0x56
	.long	.LLST416
	.long	.LVUS416
	.uleb128 0x4a
	.long	.LLRL417
	.uleb128 0x68
	.string	"TL"
	.byte	0x88
	.byte	0x17
	.long	0x30
	.uleb128 0x68
	.string	"TR"
	.byte	0x89
	.byte	0x17
	.long	0x30
	.uleb128 0x2b
	.string	"BL"
	.byte	0x8a
	.byte	0x17
	.long	0x30
	.long	.LLST418
	.long	.LVUS418
	.uleb128 0x2b
	.string	"BR"
	.byte	0x8b
	.byte	0x17
	.long	0x30
	.long	.LLST419
	.long	.LVUS419
	.byte	0
	.byte	0
	.byte	0
	.byte	0
	.uleb128 0x2f
	.long	0x10c36
	.quad	.LBI2693
	.value	.LVU399
	.long	.LLRL420
	.byte	0x1
	.byte	0x5b
	.byte	0x2a
	.long	0xdbd7
	.uleb128 0x4
	.long	0x10c4a
	.long	.LLST421
	.long	.LVUS421
	.byte	0
	.uleb128 0x2f
	.long	0x10c36
	.quad	.LBI2696
	.value	.LVU403
	.long	.LLRL422
	.byte	0x1
	.byte	0x5c
	.byte	0x2a
	.long	0xdbff
	.uleb128 0x4
	.long	0x10c4a
	.long	.LLST423
	.long	.LVUS423
	.byte	0
	.uleb128 0x2f
	.long	0x10c36
	.quad	.LBI2699
	.value	.LVU407
	.long	.LLRL424
	.byte	0x1
	.byte	0x5d
	.byte	0x2a
	.long	0xdc27
	.uleb128 0x4
	.long	0x10c4a
	.long	.LLST425
	.long	.LVUS425
	.byte	0
	.uleb128 0x4d
	.long	0x10c36
	.quad	.LBI2702
	.value	.LVU411
	.long	.LLRL426
	.byte	0x1
	.byte	0x5e
	.byte	0x2a
	.uleb128 0x4
	.long	0x10c4a
	.long	.LLST427
	.long	.LVUS427
	.byte	0
	.byte	0
	.byte	0
	.uleb128 0x5a
	.long	.LLRL428
	.long	0xdd28
	.uleb128 0x2b
	.string	"y"
	.byte	0x92
	.byte	0xe
	.long	0x56
	.long	.LLST429
	.long	.LVUS429
	.uleb128 0x4a
	.long	.LLRL430
	.uleb128 0x68
	.string	"vp"
	.byte	0x93
	.byte	0x16
	.long	0xa4b8
	.uleb128 0x39
	.long	.LASF1401
	.byte	0x1
	.byte	0x94
	.byte	0x18
	.long	0x9caa
	.uleb128 0x5a
	.long	.LLRL431
	.long	0xdcf6
	.uleb128 0x2b
	.string	"x"
	.byte	0x95
	.byte	0x12
	.long	0x56
	.long	.LLST432
	.long	.LVUS432
	.uleb128 0x4a
	.long	.LLRL433
	.uleb128 0x2b
	.string	"c"
	.byte	0x96
	.byte	0x11
	.long	0x56
	.long	.LLST434
	.long	.LVUS434
	.uleb128 0x3f
	.long	.LASF1402
	.byte	0x9b
	.byte	0x13
	.long	0x30
	.long	.LLST435
	.long	.LVUS435
	.uleb128 0x4a
	.long	.LLRL436
	.uleb128 0x2b
	.string	"ch"
	.byte	0x9c
	.byte	0x16
	.long	0x56
	.long	.LLST437
	.long	.LVUS437
	.uleb128 0x4a
	.long	.LLRL438
	.uleb128 0x2b
	.string	"v"
	.byte	0x9d
	.byte	0x17
	.long	0x30
	.long	.LLST439
	.long	.LVUS439
	.byte	0
	.byte	0
	.byte	0
	.byte	0
	.uleb128 0x23
	.long	0xc67b
	.quad	.LBI2739
	.value	.LVU874
	.quad	.LBB2739
	.quad	.LBE2739-.LBB2739
	.byte	0x1
	.byte	0x94
	.byte	0x2f
	.uleb128 0x4
	.long	0xc689
	.long	.LLST440
	.long	.LVUS440
	.byte	0
	.byte	0
	.byte	0
	.uleb128 0x2f
	.long	0x10b19
	.quad	.LBI2006
	.value	.LVU28
	.long	.LLRL5
	.byte	0x1
	.byte	0x27
	.byte	0xf
	.long	0xde0f
	.uleb128 0x3
	.long	0x10b29
	.uleb128 0x4d
	.long	0x10b4a
	.quad	.LBI2007
	.value	.LVU29
	.long	.LLRL5
	.byte	0x4
	.byte	0xb
	.byte	0x8
	.uleb128 0x3
	.long	0x10b58
	.uleb128 0x17
	.long	0x10b79
	.quad	.LBI2008
	.value	.LVU30
	.long	.LLRL5
	.byte	0x2
	.value	0x227
	.byte	0x7
	.uleb128 0x3
	.long	0x10b87
	.uleb128 0x17
	.long	0xc91f
	.quad	.LBI2009
	.value	.LVU31
	.long	.LLRL5
	.byte	0x2
	.value	0x141
	.byte	0x7
	.uleb128 0x3
	.long	0xc92d
	.uleb128 0x3d
	.long	0xc382
	.quad	.LBI2010
	.value	.LVU35
	.long	.LLRL6
	.byte	0x2
	.byte	0x94
	.byte	0x13
	.byte	0x1
	.long	0xddbb
	.uleb128 0x3
	.long	0xc390
	.byte	0
	.uleb128 0x23
	.long	0xc3b1
	.quad	.LBI2014
	.value	.LVU32
	.quad	.LBB2014
	.quad	.LBE2014-.LBB2014
	.byte	0x2
	.byte	0x94
	.byte	0x13
	.uleb128 0x3
	.long	0xc3bf
	.uleb128 0x23
	.long	0xba7d
	.quad	.LBI2015
	.value	.LVU33
	.quad	.LBB2015
	.quad	.LBE2015-.LBB2015
	.byte	0x5
	.byte	0xa8
	.byte	0x24
	.uleb128 0x3
	.long	0xba8b
	.byte	0
	.byte	0
	.byte	0
	.byte	0
	.byte	0
	.byte	0
	.uleb128 0x2f
	.long	0xc94e
	.quad	.LBI2023
	.value	.LVU7
	.long	.LLRL7
	.byte	0x1
	.byte	0x22
	.byte	0x2d
	.long	0xde86
	.uleb128 0x4
	.long	0xc95c
	.long	.LLST8
	.long	.LVUS8
	.uleb128 0x17
	.long	0xc705
	.quad	.LBI2024
	.value	.LVU9
	.long	.LLRL7
	.byte	0x2
	.value	0x539
	.byte	0xf
	.uleb128 0x4
	.long	0xc713
	.long	.LLST9
	.long	.LVUS9
	.uleb128 0x17
	.long	0xc042
	.quad	.LBI2025
	.value	.LVU10
	.long	.LLRL7
	.byte	0x2
	.value	0x3dd
	.byte	0x10
	.uleb128 0x3
	.long	0xc050
	.uleb128 0x4
	.long	0xc059
	.long	.LLST10
	.long	.LVUS10
	.byte	0
	.byte	0
	.byte	0
	.uleb128 0x2e
	.long	0xc94e
	.quad	.LBI2031
	.value	.LVU20
	.quad	.LBB2031
	.quad	.LBE2031-.LBB2031
	.byte	0x1
	.byte	0x23
	.byte	0x2d
	.long	0xdf21
	.uleb128 0x4
	.long	0xc95c
	.long	.LLST11
	.long	.LVUS11
	.uleb128 0x19
	.long	0xc705
	.quad	.LBI2032
	.value	.LVU22
	.quad	.LBB2032
	.quad	.LBE2032-.LBB2032
	.byte	0x2
	.value	0x539
	.byte	0xf
	.uleb128 0x4
	.long	0xc713
	.long	.LLST12
	.long	.LVUS12
	.uleb128 0x19
	.long	0xc042
	.quad	.LBI2033
	.value	.LVU23
	.quad	.LBB2033
	.quad	.LBE2033-.LBB2033
	.byte	0x2
	.value	0x3dd
	.byte	0x10
	.uleb128 0x3
	.long	0xc050
	.uleb128 0x4
	.long	0xc059
	.long	.LLST13
	.long	.LVUS13
	.byte	0
	.byte	0
	.byte	0
	.uleb128 0x2f
	.long	0xc846
	.quad	.LBI2035
	.value	.LVU44
	.long	.LLRL14
	.byte	0x1
	.byte	0x2a
	.byte	0x17
	.long	0xe6a0
	.uleb128 0x4
	.long	0xc854
	.long	.LLST15
	.long	.LVUS15
	.uleb128 0x4
	.long	0xc85d
	.long	.LLST16
	.long	.LVUS16
	.uleb128 0x3
	.long	0xc86a
	.uleb128 0x17
	.long	0xc26b
	.quad	.LBI2036
	.value	.LVU45
	.long	.LLRL14
	.byte	0x2
	.value	0x362
	.byte	0x17
	.uleb128 0x4
	.long	0xc279
	.long	.LLST18
	.long	.LVUS18
	.uleb128 0x4
	.long	0xc282
	.long	.LLST19
	.long	.LVUS19
	.uleb128 0x3
	.long	0xc28f
	.uleb128 0xcb
	.long	0xc29c
	.byte	0
	.uleb128 0x75
	.long	0xc2a9
	.long	.LLRL21
	.uleb128 0x35
	.long	0xc2af
	.uleb128 0x57
	.long	0xb995
	.quad	.LBI2040
	.value	.LVU1031
	.long	.LLRL22
	.byte	0x7
	.value	0x11a
	.byte	0xb
	.byte	0x1
	.long	0xe40c
	.uleb128 0x4
	.long	0xb9a3
	.long	.LLST23
	.long	.LVUS23
	.uleb128 0x4
	.long	0xb9ac
	.long	.LLST24
	.long	.LVUS24
	.uleb128 0x3
	.long	0xb9b9
	.uleb128 0x4
	.long	0xb9c6
	.long	.LLST26
	.long	.LVUS26
	.uleb128 0x37
	.long	0xb1ba
	.quad	.LBI2041
	.value	.LVU1032
	.long	.LLRL27
	.byte	0x2
	.value	0x24f
	.byte	0x2f
	.long	0xe102
	.uleb128 0x4
	.long	0xb1c4
	.long	.LLST28
	.long	.LVUS28
	.uleb128 0x4
	.long	0xb1d1
	.long	.LLST29
	.long	.LVUS29
	.uleb128 0x2d
	.long	0xbad8
	.quad	.LBI2043
	.value	.LVU1033
	.quad	.LBB2043
	.quad	.LBE2043-.LBB2043
	.byte	0x2
	.value	0x89d
	.byte	0x18
	.long	0xe091
	.uleb128 0x3
	.long	0xbae6
	.uleb128 0x4
	.long	0xbaef
	.long	.LLST30
	.long	.LVUS30
	.uleb128 0x23
	.long	0xb20f
	.quad	.LBI2044
	.value	.LVU1034
	.quad	.LBB2044
	.quad	.LBE2044-.LBB2044
	.byte	0x5
	.byte	0xad
	.byte	0x22
	.uleb128 0x3
	.long	0xb21d
	.uleb128 0x4
	.long	0xb226
	.long	.LLST31
	.long	.LVUS31
	.byte	0
	.byte	0
	.uleb128 0x74
	.long	0xc8f0
	.quad	.LBI2045
	.value	.LVU1036
	.quad	.LBB2045
	.quad	.LBE2045-.LBB2045
	.value	0x89d
	.byte	0x18
	.byte	0x2
	.long	0xe0e6
	.uleb128 0x3
	.long	0xc8fe
	.uleb128 0x23
	.long	0xc353
	.quad	.LBI2046
	.value	.LVU1037
	.quad	.LBB2046
	.quad	.LBE2046-.LBB2046
	.byte	0x5
	.byte	0xbd
	.byte	0x27
	.uleb128 0x3
	.long	0xc361
	.byte	0
	.byte	0
	.uleb128 0x2c
	.quad	.LVL260
	.long	0x6dcd
	.uleb128 0x1f
	.uleb128 0x1
	.byte	0x55
	.uleb128 0x9
	.byte	0x3
	.quad	.LC0
	.byte	0
	.byte	0
	.uleb128 0x57
	.long	0xb167
	.quad	.LBI2048
	.value	.LVU1041
	.long	.LLRL32
	.byte	0x2
	.value	0x24f
	.byte	0x2f
	.byte	0x1
	.long	0xe31f
	.uleb128 0x4
	.long	0xb175
	.long	.LLST33
	.long	.LVUS33
	.uleb128 0x4
	.long	0xb17e
	.long	.LLST34
	.long	.LVUS34
	.uleb128 0x4
	.long	0xb18b
	.long	.LLST35
	.long	.LVUS35
	.uleb128 0x37
	.long	0xac3f
	.quad	.LBI2049
	.value	.LVU1048
	.long	.LLRL36
	.byte	0x2
	.value	0x155
	.byte	0x1a
	.long	0xe232
	.uleb128 0x4
	.long	0xac4d
	.long	.LLST37
	.long	.LVUS37
	.uleb128 0x4
	.long	0xac56
	.long	.LLST38
	.long	.LVUS38
	.uleb128 0x17
	.long	0xa97a
	.quad	.LBI2051
	.value	.LVU1049
	.long	.LLRL39
	.byte	0x2
	.value	0x197
	.byte	0x2c
	.uleb128 0x4
	.long	0xa988
	.long	.LLST40
	.long	.LVUS40
	.uleb128 0x4
	.long	0xa991
	.long	.LLST41
	.long	.LVUS41
	.uleb128 0x5c
	.long	0xa6d1
	.quad	.LBI2053
	.value	.LVU1050
	.long	.LLRL42
	.byte	0x2
	.value	0x185
	.byte	0x1
	.uleb128 0x4
	.long	0xa6db
	.long	.LLST43
	.long	.LVUS43
	.uleb128 0x4
	.long	0xa6e8
	.long	.LLST44
	.long	.LVUS44
	.uleb128 0x17
	.long	0xa638
	.quad	.LBI2054
	.value	.LVU1051
	.long	.LLRL45
	.byte	0x8
	.value	0x27e
	.byte	0x1c
	.uleb128 0x4
	.long	0xa646
	.long	.LLST46
	.long	.LVUS46
	.uleb128 0x4
	.long	0xa64f
	.long	.LLST47
	.long	.LVUS47
	.uleb128 0x4
	.long	0xa65b
	.long	.LLST48
	.long	.LVUS48
	.uleb128 0x2c
	.quad	.LVL192
	.long	0xa61e
	.uleb128 0x1f
	.uleb128 0x1
	.byte	0x55
	.uleb128 0x2
	.byte	0x7e
	.sleb128 0
	.byte	0
	.byte	0
	.byte	0
	.byte	0
	.byte	0
	.uleb128 0x19
	.long	0xac64
	.quad	.LBI2064
	.value	.LVU1042
	.quad	.LBB2064
	.quad	.LBE2064-.LBB2064
	.byte	0x2
	.value	0x154
	.byte	0x9
	.uleb128 0x4
	.long	0xac72
	.long	.LLST49
	.long	.LVUS49
	.uleb128 0x4
	.long	0xac7b
	.long	.LLST50
	.long	.LVUS50
	.uleb128 0x2e
	.long	0xbad8
	.quad	.LBI2065
	.value	.LVU1043
	.quad	.LBB2065
	.quad	.LBE2065-.LBB2065
	.byte	0x2
	.byte	0x99
	.byte	0x16
	.long	0xe2ed
	.uleb128 0x4
	.long	0xbae6
	.long	.LLST51
	.long	.LVUS51
	.uleb128 0x4
	.long	0xbaef
	.long	.LLST52
	.long	.LVUS52
	.uleb128 0x23
	.long	0xb20f
	.quad	.LBI2066
	.value	.LVU1044
	.quad	.LBB2066
	.quad	.LBE2066-.LBB2066
	.byte	0x5
	.byte	0xad
	.byte	0x22
	.uleb128 0x4
	.long	0xb21d
	.long	.LLST53
	.long	.LVUS53
	.uleb128 0x4
	.long	0xb226
	.long	.LLST54
	.long	.LVUS54
	.byte	0
	.byte	0
	.uleb128 0x76
	.long	0xc382
	.quad	.LBI2067
	.value	.LVU1046
	.quad	.LBB2067
	.quad	.LBE2067-.LBB2067
	.byte	0x2
	.byte	0x99
	.byte	0x1
	.uleb128 0x4
	.long	0xc390
	.long	.LLST55
	.long	.LVUS55
	.byte	0
	.byte	0
	.byte	0
	.uleb128 0x17
	.long	0xb135
	.quad	.LBI2071
	.value	.LVU1058
	.long	.LLRL56
	.byte	0x2
	.value	0x250
	.byte	0x1b
	.uleb128 0x4
	.long	0xb143
	.long	.LLST57
	.long	.LVUS57
	.uleb128 0x4
	.long	0xb14c
	.long	.LLST58
	.long	.LVUS58
	.uleb128 0x3
	.long	0xb159
	.uleb128 0x17
	.long	0xb896
	.quad	.LBI2072
	.value	.LVU1059
	.long	.LLRL56
	.byte	0x2
	.value	0x7c6
	.byte	0x21
	.uleb128 0x4
	.long	0xb8c4
	.long	.LLST60
	.long	.LVUS60
	.uleb128 0x4
	.long	0xb8d1
	.long	.LLST61
	.long	.LVUS61
	.uleb128 0x3
	.long	0xb8de
	.uleb128 0x4
	.long	0xb8eb
	.long	.LLST63
	.long	.LVUS63
	.uleb128 0x17
	.long	0xb02e
	.quad	.LBI2073
	.value	.LVU1060
	.long	.LLRL56
	.byte	0xc
	.value	0x30a
	.byte	0x27
	.uleb128 0x4
	.long	0xb053
	.long	.LLST64
	.long	.LVUS64
	.uleb128 0x4
	.long	0xb060
	.long	.LLST65
	.long	.LVUS65
	.uleb128 0x3
	.long	0xb06d
	.uleb128 0x75
	.long	0xb07a
	.long	.LLRL67
	.uleb128 0x75
	.long	0xb07b
	.long	.LLRL68
	.uleb128 0x3a
	.long	0xb07c
	.long	.LLST69
	.long	.LVUS69
	.uleb128 0x2c
	.quad	.LVL195
	.long	0x10dce
	.uleb128 0x1f
	.uleb128 0x1
	.byte	0x54
	.uleb128 0x1
	.byte	0x30
	.uleb128 0x1f
	.uleb128 0x1
	.byte	0x51
	.uleb128 0x2
	.byte	0x7e
	.sleb128 0
	.byte	0
	.byte	0
	.byte	0
	.byte	0
	.byte	0
	.byte	0
	.byte	0
	.uleb128 0x2d
	.long	0xb965
	.quad	.LBI2096
	.value	.LVU1068
	.quad	.LBB2096
	.quad	.LBE2096-.LBB2096
	.byte	0x7
	.value	0x11b
	.byte	0x1e
	.long	0xe4c4
	.uleb128 0x4
	.long	0xb973
	.long	.LLST70
	.long	.LVUS70
	.uleb128 0x4
	.long	0xb97c
	.long	.LLST71
	.long	.LVUS71
	.uleb128 0x35
	.long	0xb988
	.uleb128 0x2e
	.long	0xc382
	.quad	.LBI2098
	.value	.LVU1069
	.quad	.LBB2098
	.quad	.LBE2098-.LBB2098
	.byte	0x2
	.byte	0x84
	.byte	0x16
	.long	0xe486
	.uleb128 0x4
	.long	0xc390
	.long	.LLST72
	.long	.LVUS72
	.byte	0
	.uleb128 0x23
	.long	0xb111
	.quad	.LBI2099
	.value	.LVU1071
	.quad	.LBB2099
	.quad	.LBE2099-.LBB2099
	.byte	0x2
	.byte	0x87
	.byte	0x14
	.uleb128 0x4
	.long	0xb11f
	.long	.LLST73
	.long	.LVUS73
	.uleb128 0x4
	.long	0xb128
	.long	.LLST74
	.long	.LVUS74
	.byte	0
	.byte	0
	.uleb128 0x19
	.long	0xc878
	.quad	.LBI2101
	.value	.LVU1077
	.quad	.LBB2101
	.quad	.LBE2101-.LBB2101
	.byte	0x7
	.value	0x11c
	.byte	0x2
	.uleb128 0x4
	.long	0xc886
	.long	.LLST75
	.long	.LVUS75
	.uleb128 0x2d
	.long	0xc309
	.quad	.LBI2102
	.value	.LVU1078
	.quad	.LBB2102
	.quad	.LBE2102-.LBB2102
	.byte	0x2
	.value	0x319
	.byte	0x1c
	.long	0xe529
	.uleb128 0x4
	.long	0xc317
	.long	.LLST76
	.long	.LVUS76
	.byte	0
	.uleb128 0x2d
	.long	0xc2cd
	.quad	.LBI2103
	.value	.LVU1080
	.quad	.LBB2103
	.quad	.LBE2103-.LBB2103
	.byte	0x2
	.value	0x318
	.byte	0xf
	.long	0xe568
	.uleb128 0x3
	.long	0xc2e9
	.uleb128 0x3
	.long	0xc2f6
	.uleb128 0x4
	.long	0xc303
	.long	.LLST77
	.long	.LVUS77
	.byte	0
	.uleb128 0x19
	.long	0xc8a7
	.quad	.LBI2104
	.value	.LVU1082
	.quad	.LBB2104
	.quad	.LBE2104-.LBB2104
	.byte	0x2
	.value	0x31b
	.byte	0x7
	.uleb128 0x4
	.long	0xc8b5
	.long	.LLST78
	.long	.LVUS78
	.uleb128 0x77
	.long	0xc8be
	.quad	.LBB2105
	.quad	.LBE2105-.LBB2105
	.long	0xe60a
	.uleb128 0x3a
	.long	0xc8bf
	.long	.LLST79
	.long	.LVUS79
	.uleb128 0x19
	.long	0xc321
	.quad	.LBI2106
	.value	.LVU1083
	.quad	.LBB2106
	.quad	.LBE2106-.LBB2106
	.byte	0x2
	.value	0x17a
	.byte	0xf
	.uleb128 0x4
	.long	0xc32f
	.long	.LLST80
	.long	.LVUS80
	.uleb128 0x4
	.long	0xc338
	.long	.LLST81
	.long	.LVUS81
	.uleb128 0x4
	.long	0xc345
	.long	.LLST81
	.long	.LVUS81
	.byte	0
	.byte	0
	.uleb128 0x19
	.long	0x10ba8
	.quad	.LBI2107
	.value	.LVU1085
	.quad	.LBB2107
	.quad	.LBE2107-.LBB2107
	.byte	0x2
	.value	0x17b
	.byte	0x7
	.uleb128 0x4
	.long	0x10bb8
	.long	.LLST83
	.long	.LVUS83
	.uleb128 0x23
	.long	0xc8f0
	.quad	.LBI2108
	.value	.LVU1086
	.quad	.LBB2108
	.quad	.LBE2108-.LBB2108
	.byte	0x2
	.byte	0x8b
	.byte	0xe
	.uleb128 0x4
	.long	0xc8fe
	.long	.LLST84
	.long	.LVUS84
	.uleb128 0x23
	.long	0xc353
	.quad	.LBI2109
	.value	.LVU1087
	.quad	.LBB2109
	.quad	.LBE2109-.LBB2109
	.byte	0x5
	.byte	0xbd
	.byte	0x27
	.uleb128 0x4
	.long	0xc361
	.long	.LLST85
	.long	.LVUS85
	.byte	0
	.byte	0
	.byte	0
	.byte	0
	.byte	0
	.byte	0
	.byte	0
	.byte	0
	.uleb128 0x2f
	.long	0x10a65
	.quad	.LBI2122
	.value	.LVU49
	.long	.LLRL86
	.byte	0x1
	.byte	0x2d
	.byte	0x1c
	.long	0xe782
	.uleb128 0x4
	.long	0x10a73
	.long	.LLST87
	.long	.LVUS87
	.uleb128 0x17
	.long	0x10a90
	.quad	.LBI2123
	.value	.LVU50
	.long	.LLRL86
	.byte	0x2
	.value	0x227
	.byte	0x7
	.uleb128 0x4
	.long	0x10a9e
	.long	.LLST88
	.long	.LVUS88
	.uleb128 0x17
	.long	0xc81b
	.quad	.LBI2124
	.value	.LVU51
	.long	.LLRL86
	.byte	0x2
	.value	0x141
	.byte	0x7
	.uleb128 0x4
	.long	0xc829
	.long	.LLST89
	.long	.LVUS89
	.uleb128 0x2f
	.long	0xc240
	.quad	.LBI2125
	.value	.LVU52
	.long	.LLRL90
	.byte	0x2
	.byte	0x94
	.byte	0x13
	.long	0xe75b
	.uleb128 0x4
	.long	0xc24e
	.long	.LLST91
	.long	.LVUS91
	.uleb128 0x4d
	.long	0xb7ea
	.quad	.LBI2126
	.value	.LVU53
	.long	.LLRL90
	.byte	0x5
	.byte	0xa8
	.byte	0x24
	.uleb128 0x4
	.long	0xb7f8
	.long	.LLST92
	.long	.LVUS92
	.byte	0
	.byte	0
	.uleb128 0x9d
	.long	0xc215
	.quad	.LBI2128
	.value	.LVU55
	.long	.LLRL93
	.byte	0x94
	.byte	0x13
	.uleb128 0x4
	.long	0xc223
	.long	.LLST94
	.long	.LVUS94
	.byte	0
	.byte	0
	.byte	0
	.byte	0
	.uleb128 0x2f
	.long	0xc75b
	.quad	.LBI2157
	.value	.LVU58
	.long	.LLRL95
	.byte	0x1
	.byte	0x2e
	.byte	0x13
	.long	0xe7af
	.uleb128 0x4
	.long	0xc769
	.long	.LLST96
	.long	.LVUS96
	.uleb128 0x35
	.long	0xc772
	.byte	0
	.uleb128 0x3d
	.long	0xc71d
	.quad	.LBI2162
	.value	.LVU61
	.long	.LLRL97
	.byte	0x1
	.byte	0x2e
	.byte	0x13
	.byte	0x1
	.long	0xe8c0
	.uleb128 0x4
	.long	0xc72b
	.long	.LLST98
	.long	.LVUS98
	.uleb128 0x4
	.long	0xc734
	.long	.LLST99
	.long	.LVUS99
	.uleb128 0xcc
	.long	0xc740
	.quad	.LBB2164
	.quad	.LBE2164-.LBB2164
	.uleb128 0x3a
	.long	0xc741
	.long	.LLST100
	.long	.LVUS100
	.uleb128 0x3a
	.long	0xc74d
	.long	.LLST101
	.long	.LVUS101
	.uleb128 0x23
	.long	0xc0dd
	.quad	.LBI2165
	.value	.LVU69
	.quad	.LBB2165
	.quad	.LBE2165-.LBB2165
	.byte	0x7
	.byte	0x52
	.byte	0x21
	.uleb128 0x4
	.long	0xc0eb
	.long	.LLST102
	.long	.LVUS102
	.uleb128 0x3
	.long	0xc0f4
	.uleb128 0x5c
	.long	0xb71d
	.quad	.LBI2167
	.value	.LVU70
	.long	.LLRL103
	.byte	0x2
	.value	0x185
	.byte	0x1
	.uleb128 0x4
	.long	0xb727
	.long	.LLST104
	.long	.LVUS104
	.uleb128 0x3
	.long	0xb734
	.uleb128 0x17
	.long	0xaf51
	.quad	.LBI2168
	.value	.LVU71
	.long	.LLRL103
	.byte	0x8
	.value	0x27e
	.byte	0x1c
	.uleb128 0x4
	.long	0xaf74
	.long	.LLST105
	.long	.LVUS105
	.uleb128 0x4
	.long	0xaf5f
	.long	.LLST106
	.long	.LVUS106
	.uleb128 0x3
	.long	0xaf68
	.uleb128 0x2c
	.quad	.LVL13
	.long	0xa61e
	.uleb128 0x1f
	.uleb128 0x1
	.byte	0x55
	.uleb128 0x2
	.byte	0x73
	.sleb128 0
	.byte	0
	.byte	0
	.byte	0
	.byte	0
	.byte	0
	.byte	0
	.uleb128 0x3d
	.long	0xc780
	.quad	.LBI2330
	.value	.LVU977
	.long	.LLRL191
	.byte	0x1
	.byte	0xa4
	.byte	0x1
	.byte	0x3
	.long	0xeb3f
	.uleb128 0x4
	.long	0xc78e
	.long	.LLST192
	.long	.LVUS192
	.uleb128 0x37
	.long	0xc7ab
	.quad	.LBI2331
	.value	.LVU982
	.long	.LLRL193
	.byte	0x2
	.value	0x31b
	.byte	0x7
	.long	0xeace
	.uleb128 0x4
	.long	0xc7b9
	.long	.LLST194
	.long	.LVUS194
	.uleb128 0x69
	.long	0xc7c2
	.long	.LLRL195
	.long	0xea3c
	.uleb128 0x35
	.long	0xc7c3
	.uleb128 0x19
	.long	0xc1b8
	.quad	.LBI2333
	.value	.LVU983
	.quad	.LBB2333
	.quad	.LBE2333-.LBB2333
	.byte	0x2
	.value	0x17a
	.byte	0xf
	.uleb128 0x4
	.long	0xc1c6
	.long	.LLST196
	.long	.LVUS196
	.uleb128 0x4
	.long	0xc1cf
	.long	.LLST197
	.long	.LVUS197
	.uleb128 0x3
	.long	0xc1dc
	.uleb128 0x19
	.long	0xc1b8
	.quad	.LBI2335
	.value	.LVU985
	.quad	.LBB2335
	.quad	.LBE2335-.LBB2335
	.byte	0x2
	.value	0x18a
	.byte	0x7
	.uleb128 0x4
	.long	0xc1c6
	.long	.LLST198
	.long	.LVUS198
	.uleb128 0x4
	.long	0xc1cf
	.long	.LLST199
	.long	.LVUS199
	.uleb128 0x3
	.long	0xc1dc
	.uleb128 0x19
	.long	0xb7b8
	.quad	.LBI2337
	.value	.LVU986
	.quad	.LBB2337
	.quad	.LBE2337-.LBB2337
	.byte	0x2
	.value	0x18e
	.byte	0x13
	.uleb128 0x3
	.long	0xb7c2
	.uleb128 0x4
	.long	0xb7cf
	.long	.LLST200
	.long	.LVUS200
	.uleb128 0x3
	.long	0xb7dc
	.uleb128 0x19
	.long	0xaf92
	.quad	.LBI2338
	.value	.LVU987
	.quad	.LBB2338
	.quad	.LBE2338-.LBB2338
	.byte	0x8
	.value	0x2b1
	.byte	0x17
	.uleb128 0x3
	.long	0xafa0
	.uleb128 0x4
	.long	0xafa9
	.long	.LLST201
	.long	.LVUS201
	.uleb128 0x3
	.long	0xafb5
	.uleb128 0x2c
	.quad	.LVL180
	.long	0xa603
	.uleb128 0x1f
	.uleb128 0x1
	.byte	0x55
	.uleb128 0x4
	.byte	0x77
	.sleb128 112
	.byte	0x6
	.uleb128 0x1f
	.uleb128 0x1
	.byte	0x54
	.uleb128 0x3
	.byte	0x77
	.sleb128 56
	.byte	0x6
	.byte	0
	.byte	0
	.byte	0
	.byte	0
	.byte	0
	.byte	0
	.uleb128 0x19
	.long	0x10abb
	.quad	.LBI2341
	.value	.LVU990
	.quad	.LBB2341
	.quad	.LBE2341-.LBB2341
	.byte	0x2
	.value	0x17b
	.byte	0x7
	.uleb128 0x4
	.long	0x10acb
	.long	.LLST202
	.long	.LVUS202
	.uleb128 0x23
	.long	0xc7f0
	.quad	.LBI2342
	.value	.LVU991
	.quad	.LBB2342
	.quad	.LBE2342-.LBB2342
	.byte	0x2
	.byte	0x8b
	.byte	0xe
	.uleb128 0x4
	.long	0xc7fe
	.long	.LLST203
	.long	.LVUS203
	.uleb128 0x23
	.long	0xc1ea
	.quad	.LBI2343
	.value	.LVU992
	.quad	.LBB2343
	.quad	.LBE2343-.LBB2343
	.byte	0x5
	.byte	0xbd
	.byte	0x27
	.uleb128 0x4
	.long	0xc1f8
	.long	.LLST204
	.long	.LVUS204
	.byte	0
	.byte	0
	.byte	0
	.byte	0
	.uleb128 0x2d
	.long	0xc1a0
	.quad	.LBI2344
	.value	.LVU978
	.quad	.LBB2344
	.quad	.LBE2344-.LBB2344
	.byte	0x2
	.value	0x319
	.byte	0x1c
	.long	0xeb03
	.uleb128 0x4
	.long	0xc1ae
	.long	.LLST205
	.long	.LVUS205
	.byte	0
	.uleb128 0x19
	.long	0xc164
	.quad	.LBI2345
	.value	.LVU980
	.quad	.LBB2345
	.quad	.LBE2345-.LBB2345
	.byte	0x2
	.value	0x318
	.byte	0xf
	.uleb128 0x3
	.long	0xc180
	.uleb128 0x3
	.long	0xc18d
	.uleb128 0x4
	.long	0xc19a
	.long	.LLST206
	.long	.LVUS206
	.byte	0
	.byte	0
	.uleb128 0x2e
	.long	0xc627
	.quad	.LBI2347
	.value	.LVU178
	.quad	.LBB2347
	.quad	.LBE2347-.LBB2347
	.byte	0x1
	.byte	0x45
	.byte	0x2e
	.long	0xeb93
	.uleb128 0x3
	.long	0xc635
	.uleb128 0x23
	.long	0xbf00
	.quad	.LBI2348
	.value	.LVU179
	.quad	.LBB2348
	.quad	.LBE2348-.LBB2348
	.byte	0x5
	.byte	0xa8
	.byte	0x24
	.uleb128 0x3
	.long	0xbf0e
	.byte	0
	.byte	0
	.uleb128 0x3d
	.long	0xc593
	.quad	.LBI2349
	.value	.LVU181
	.long	.LLRL209
	.byte	0x1
	.byte	0x45
	.byte	0x2e
	.byte	0x1
	.long	0xf008
	.uleb128 0x3
	.long	0xc5a1
	.uleb128 0x4
	.long	0xc5aa
	.long	.LLST210
	.long	.LVUS210
	.uleb128 0x3
	.long	0xc5b7
	.uleb128 0x3
	.long	0xc5c4
	.uleb128 0x37
	.long	0xbeac
	.quad	.LBI2350
	.value	.LVU182
	.long	.LLRL213
	.byte	0x2
	.value	0x24f
	.byte	0x2f
	.long	0xecc7
	.uleb128 0x4
	.long	0xbeb6
	.long	.LLST214
	.long	.LVUS214
	.uleb128 0x3
	.long	0xbec3
	.uleb128 0x2d
	.long	0xb4f6
	.quad	.LBI2352
	.value	.LVU183
	.quad	.LBB2352
	.quad	.LBE2352-.LBB2352
	.byte	0x2
	.value	0x89d
	.byte	0x18
	.long	0xec56
	.uleb128 0x3
	.long	0xb504
	.uleb128 0x3
	.long	0xb50d
	.uleb128 0x23
	.long	0xaecd
	.quad	.LBI2353
	.value	.LVU184
	.quad	.LBB2353
	.quad	.LBE2353-.LBB2353
	.byte	0x5
	.byte	0xad
	.byte	0x22
	.uleb128 0x3
	.long	0xaedb
	.uleb128 0x3
	.long	0xaee4
	.byte	0
	.byte	0
	.uleb128 0x74
	.long	0xc5f8
	.quad	.LBI2354
	.value	.LVU186
	.quad	.LBB2354
	.quad	.LBE2354-.LBB2354
	.value	0x89d
	.byte	0x18
	.byte	0x2
	.long	0xecab
	.uleb128 0x3
	.long	0xc606
	.uleb128 0x23
	.long	0xbed1
	.quad	.LBI2355
	.value	.LVU187
	.quad	.LBB2355
	.quad	.LBE2355-.LBB2355
	.byte	0x5
	.byte	0xbd
	.byte	0x27
	.uleb128 0x3
	.long	0xbedf
	.byte	0
	.byte	0
	.uleb128 0x2c
	.quad	.LVL255
	.long	0x6dcd
	.uleb128 0x1f
	.uleb128 0x1
	.byte	0x55
	.uleb128 0x9
	.byte	0x3
	.quad	.LC0
	.byte	0
	.byte	0
	.uleb128 0x57
	.long	0xbe28
	.quad	.LBI2357
	.value	.LVU190
	.long	.LLRL218
	.byte	0x2
	.value	0x24f
	.byte	0x2f
	.byte	0x1
	.long	0xee7c
	.uleb128 0x3
	.long	0xbe36
	.uleb128 0x4
	.long	0xbe3f
	.long	.LLST219
	.long	.LVUS219
	.uleb128 0x3
	.long	0xbe4c
	.uleb128 0x2d
	.long	0xb4b6
	.quad	.LBI2358
	.value	.LVU191
	.quad	.LBB2358
	.quad	.LBE2358-.LBB2358
	.byte	0x2
	.value	0x154
	.byte	0x9
	.long	0xedb2
	.uleb128 0x3
	.long	0xb4c4
	.uleb128 0x3
	.long	0xb4cd
	.uleb128 0x2e
	.long	0xb4f6
	.quad	.LBI2359
	.value	.LVU192
	.quad	.LBB2359
	.quad	.LBE2359-.LBB2359
	.byte	0x2
	.byte	0x99
	.byte	0x16
	.long	0xed89
	.uleb128 0x3
	.long	0xb504
	.uleb128 0x3
	.long	0xb50d
	.uleb128 0x23
	.long	0xaecd
	.quad	.LBI2360
	.value	.LVU193
	.quad	.LBB2360
	.quad	.LBE2360-.LBB2360
	.byte	0x5
	.byte	0xad
	.byte	0x22
	.uleb128 0x3
	.long	0xaedb
	.uleb128 0x3
	.long	0xaee4
	.byte	0
	.byte	0
	.uleb128 0x76
	.long	0xae9e
	.quad	.LBI2361
	.value	.LVU195
	.quad	.LBB2361
	.quad	.LBE2361-.LBB2361
	.byte	0x2
	.byte	0x99
	.byte	0x1
	.uleb128 0x3
	.long	0xaeac
	.byte	0
	.byte	0
	.uleb128 0x17
	.long	0xb491
	.quad	.LBI2362
	.value	.LVU197
	.long	.LLRL224
	.byte	0x2
	.value	0x155
	.byte	0x1a
	.uleb128 0x3
	.long	0xb49f
	.uleb128 0x4
	.long	0xb4a8
	.long	.LLST225
	.long	.LVUS225
	.uleb128 0x17
	.long	0xae79
	.quad	.LBI2364
	.value	.LVU198
	.long	.LLRL226
	.byte	0x2
	.value	0x197
	.byte	0x2c
	.uleb128 0x3
	.long	0xae87
	.uleb128 0x4
	.long	0xae90
	.long	.LLST227
	.long	.LVUS227
	.uleb128 0x5c
	.long	0xab08
	.quad	.LBI2366
	.value	.LVU200
	.long	.LLRL228
	.byte	0x2
	.value	0x185
	.byte	0x1
	.uleb128 0x3
	.long	0xab12
	.uleb128 0x4
	.long	0xab1f
	.long	.LLST229
	.long	.LVUS229
	.uleb128 0x17
	.long	0xa8d9
	.quad	.LBI2367
	.value	.LVU201
	.long	.LLRL228
	.byte	0x8
	.value	0x27e
	.byte	0x1c
	.uleb128 0x3
	.long	0xa8e7
	.uleb128 0x4
	.long	0xa8fc
	.long	.LLST230
	.long	.LVUS230
	.uleb128 0x4
	.long	0xa8f0
	.long	.LLST231
	.long	.LVUS231
	.uleb128 0x2c
	.quad	.LVL45
	.long	0xa61e
	.uleb128 0x1f
	.uleb128 0x1
	.byte	0x55
	.uleb128 0x2
	.byte	0x73
	.sleb128 0
	.byte	0
	.byte	0
	.byte	0
	.byte	0
	.byte	0
	.byte	0
	.uleb128 0x17
	.long	0xbdad
	.quad	.LBI2380
	.value	.LVU206
	.long	.LLRL232
	.byte	0x2
	.value	0x250
	.byte	0x1b
	.uleb128 0x3
	.long	0xbdbb
	.uleb128 0x4
	.long	0xbdc4
	.long	.LLST233
	.long	.LVUS233
	.uleb128 0x3
	.long	0xbdd1
	.uleb128 0x17
	.long	0xb404
	.quad	.LBI2381
	.value	.LVU207
	.long	.LLRL232
	.byte	0x2
	.value	0x7c6
	.byte	0x21
	.uleb128 0x4
	.long	0xb432
	.long	.LLST235
	.long	.LVUS235
	.uleb128 0x4
	.long	0xb43f
	.long	.LLST236
	.long	.LVUS236
	.uleb128 0x3
	.long	0xb44c
	.uleb128 0x3
	.long	0xb459
	.uleb128 0x17
	.long	0xadfa
	.quad	.LBI2382
	.value	.LVU208
	.long	.LLRL232
	.byte	0xc
	.value	0x30a
	.byte	0x27
	.uleb128 0x4
	.long	0xae1f
	.long	.LLST238
	.long	.LVUS238
	.uleb128 0x4
	.long	0xae2c
	.long	.LLST239
	.long	.LVUS239
	.uleb128 0x3
	.long	0xae39
	.uleb128 0x17
	.long	0xaa7e
	.quad	.LBI2384
	.value	.LVU209
	.long	.LLRL241
	.byte	0xc
	.value	0x253
	.byte	0x25
	.uleb128 0x4
	.long	0xaaa3
	.long	.LLST242
	.long	.LVUS242
	.uleb128 0x4
	.long	0xaab0
	.long	.LLST243
	.long	.LVUS243
	.uleb128 0x3
	.long	0xaabd
	.uleb128 0x35
	.long	0xaaca
	.uleb128 0x81
	.long	0xa82c
	.long	.LLRL245
	.long	0xef90
	.uleb128 0x3
	.long	0xa84e
	.uleb128 0x3
	.long	0xa863
	.uleb128 0x2c
	.quad	.LVL47
	.long	0x10dce
	.uleb128 0x1f
	.uleb128 0x1
	.byte	0x55
	.uleb128 0x4
	.byte	0x77
	.sleb128 88
	.byte	0x6
	.uleb128 0x1f
	.uleb128 0x1
	.byte	0x54
	.uleb128 0x1
	.byte	0x30
	.uleb128 0x1f
	.uleb128 0x1
	.byte	0x51
	.uleb128 0x2
	.byte	0x73
	.sleb128 0
	.byte	0
	.byte	0
	.uleb128 0x2d
	.long	0xa899
	.quad	.LBI2389
	.value	.LVU210
	.quad	.LBB2389
	.quad	.LBE2389-.LBB2389
	.byte	0xc
	.value	0x1df
	.byte	0x2d
	.long	0xefd2
	.uleb128 0x4
	.long	0xa8a7
	.long	.LLST246
	.long	.LVUS246
	.uleb128 0x4
	.long	0xa8b0
	.long	.LLST247
	.long	.LVUS247
	.byte	0
	.uleb128 0x19
	.long	0xa86a
	.quad	.LBI2391
	.value	.LVU216
	.quad	.LBB2391
	.quad	.LBE2391-.LBB2391
	.byte	0xc
	.value	0x1ef
	.byte	0x5
	.uleb128 0x4
	.long	0xa878
	.long	.LLST248
	.long	.LVUS248
	.byte	0
	.byte	0
	.byte	0
	.byte	0
	.byte	0
	.byte	0
	.uleb128 0x5d
	.long	0xc5f8
	.quad	.LBI2401
	.value	.LVU218
	.quad	.LBB2401
	.quad	.LBE2401-.LBB2401
	.byte	0x45
	.byte	0x2e
	.byte	0x2
	.long	0xf05c
	.uleb128 0x3
	.long	0xc606
	.uleb128 0x23
	.long	0xbed1
	.quad	.LBI2402
	.value	.LVU219
	.quad	.LBB2402
	.quad	.LBE2402-.LBB2402
	.byte	0x5
	.byte	0xbd
	.byte	0x27
	.uleb128 0x3
	.long	0xbedf
	.byte	0
	.byte	0
	.uleb128 0x2e
	.long	0xc627
	.quad	.LBI2403
	.value	.LVU222
	.quad	.LBB2403
	.quad	.LBE2403-.LBB2403
	.byte	0x1
	.byte	0x46
	.byte	0x38
	.long	0xf0b0
	.uleb128 0x3
	.long	0xc635
	.uleb128 0x23
	.long	0xbf00
	.quad	.LBI2404
	.value	.LVU223
	.quad	.LBB2404
	.quad	.LBE2404-.LBB2404
	.byte	0x5
	.byte	0xa8
	.byte	0x24
	.uleb128 0x3
	.long	0xbf0e
	.byte	0
	.byte	0
	.uleb128 0x3d
	.long	0xc593
	.quad	.LBI2405
	.value	.LVU228
	.long	.LLRL253
	.byte	0x1
	.byte	0x46
	.byte	0x38
	.byte	0x1
	.long	0xf523
	.uleb128 0x3
	.long	0xc5a1
	.uleb128 0x4
	.long	0xc5aa
	.long	.LLST254
	.long	.LVUS254
	.uleb128 0x3
	.long	0xc5b7
	.uleb128 0x3
	.long	0xc5c4
	.uleb128 0x37
	.long	0xbeac
	.quad	.LBI2406
	.value	.LVU229
	.long	.LLRL257
	.byte	0x2
	.value	0x24f
	.byte	0x2f
	.long	0xf1e4
	.uleb128 0x4
	.long	0xbeb6
	.long	.LLST258
	.long	.LVUS258
	.uleb128 0x3
	.long	0xbec3
	.uleb128 0x2d
	.long	0xb4f6
	.quad	.LBI2408
	.value	.LVU230
	.quad	.LBB2408
	.quad	.LBE2408-.LBB2408
	.byte	0x2
	.value	0x89d
	.byte	0x18
	.long	0xf173
	.uleb128 0x3
	.long	0xb504
	.uleb128 0x3
	.long	0xb50d
	.uleb128 0x23
	.long	0xaecd
	.quad	.LBI2409
	.value	.LVU231
	.quad	.LBB2409
	.quad	.LBE2409-.LBB2409
	.byte	0x5
	.byte	0xad
	.byte	0x22
	.uleb128 0x3
	.long	0xaedb
	.uleb128 0x3
	.long	0xaee4
	.byte	0
	.byte	0
	.uleb128 0x74
	.long	0xc5f8
	.quad	.LBI2410
	.value	.LVU233
	.quad	.LBB2410
	.quad	.LBE2410-.LBB2410
	.value	0x89d
	.byte	0x18
	.byte	0x2
	.long	0xf1c8
	.uleb128 0x3
	.long	0xc606
	.uleb128 0x23
	.long	0xbed1
	.quad	.LBI2411
	.value	.LVU234
	.quad	.LBB2411
	.quad	.LBE2411-.LBB2411
	.byte	0x5
	.byte	0xbd
	.byte	0x27
	.uleb128 0x3
	.long	0xbedf
	.byte	0
	.byte	0
	.uleb128 0x2c
	.quad	.LVL254
	.long	0x6dcd
	.uleb128 0x1f
	.uleb128 0x1
	.byte	0x55
	.uleb128 0x9
	.byte	0x3
	.quad	.LC0
	.byte	0
	.byte	0
	.uleb128 0x57
	.long	0xbe28
	.quad	.LBI2413
	.value	.LVU238
	.long	.LLRL262
	.byte	0x2
	.value	0x24f
	.byte	0x2f
	.byte	0x1
	.long	0xf399
	.uleb128 0x3
	.long	0xbe36
	.uleb128 0x4
	.long	0xbe3f
	.long	.LLST263
	.long	.LVUS263
	.uleb128 0x3
	.long	0xbe4c
	.uleb128 0x2d
	.long	0xb4b6
	.quad	.LBI2414
	.value	.LVU239
	.quad	.LBB2414
	.quad	.LBE2414-.LBB2414
	.byte	0x2
	.value	0x154
	.byte	0x9
	.long	0xf2cf
	.uleb128 0x3
	.long	0xb4c4
	.uleb128 0x3
	.long	0xb4cd
	.uleb128 0x2e
	.long	0xb4f6
	.quad	.LBI2415
	.value	.LVU240
	.quad	.LBB2415
	.quad	.LBE2415-.LBB2415
	.byte	0x2
	.byte	0x99
	.byte	0x16
	.long	0xf2a6
	.uleb128 0x3
	.long	0xb504
	.uleb128 0x3
	.long	0xb50d
	.uleb128 0x23
	.long	0xaecd
	.quad	.LBI2416
	.value	.LVU241
	.quad	.LBB2416
	.quad	.LBE2416-.LBB2416
	.byte	0x5
	.byte	0xad
	.byte	0x22
	.uleb128 0x3
	.long	0xaedb
	.uleb128 0x3
	.long	0xaee4
	.byte	0
	.byte	0
	.uleb128 0x76
	.long	0xae9e
	.quad	.LBI2417
	.value	.LVU243
	.quad	.LBB2417
	.quad	.LBE2417-.LBB2417
	.byte	0x2
	.byte	0x99
	.byte	0x1
	.uleb128 0x3
	.long	0xaeac
	.byte	0
	.byte	0
	.uleb128 0x17
	.long	0xb491
	.quad	.LBI2418
	.value	.LVU245
	.long	.LLRL268
	.byte	0x2
	.value	0x155
	.byte	0x1a
	.uleb128 0x3
	.long	0xb49f
	.uleb128 0x4
	.long	0xb4a8
	.long	.LLST269
	.long	.LVUS269
	.uleb128 0x17
	.long	0xae79
	.quad	.LBI2420
	.value	.LVU246
	.long	.LLRL270
	.byte	0x2
	.value	0x197
	.byte	0x2c
	.uleb128 0x3
	.long	0xae87
	.uleb128 0x4
	.long	0xae90
	.long	.LLST271
	.long	.LVUS271
	.uleb128 0x5c
	.long	0xab08
	.quad	.LBI2422
	.value	.LVU248
	.long	.LLRL272
	.byte	0x2
	.value	0x185
	.byte	0x1
	.uleb128 0x3
	.long	0xab12
	.uleb128 0x4
	.long	0xab1f
	.long	.LLST273
	.long	.LVUS273
	.uleb128 0x17
	.long	0xa8d9
	.quad	.LBI2423
	.value	.LVU249
	.long	.LLRL272
	.byte	0x8
	.value	0x27e
	.byte	0x1c
	.uleb128 0x3
	.long	0xa8e7
	.uleb128 0x4
	.long	0xa8fc
	.long	.LLST274
	.long	.LVUS274
	.uleb128 0x4
	.long	0xa8f0
	.long	.LLST275
	.long	.LVUS275
	.uleb128 0x2c
	.quad	.LVL53
	.long	0xa61e
	.uleb128 0x1f
	.uleb128 0x1
	.byte	0x55
	.uleb128 0x2
	.byte	0x7e
	.sleb128 0
	.byte	0
	.byte	0
	.byte	0
	.byte	0
	.byte	0
	.byte	0
	.uleb128 0x17
	.long	0xbdad
	.quad	.LBI2436
	.value	.LVU255
	.long	.LLRL276
	.byte	0x2
	.value	0x250
	.byte	0x1b
	.uleb128 0x3
	.long	0xbdbb
	.uleb128 0x4
	.long	0xbdc4
	.long	.LLST277
	.long	.LVUS277
	.uleb128 0x3
	.long	0xbdd1
	.uleb128 0x17
	.long	0xb404
	.quad	.LBI2437
	.value	.LVU256
	.long	.LLRL276
	.byte	0x2
	.value	0x7c6
	.byte	0x21
	.uleb128 0x4
	.long	0xb432
	.long	.LLST279
	.long	.LVUS279
	.uleb128 0x4
	.long	0xb43f
	.long	.LLST280
	.long	.LVUS280
	.uleb128 0x3
	.long	0xb44c
	.uleb128 0x3
	.long	0xb459
	.uleb128 0x17
	.long	0xadfa
	.quad	.LBI2438
	.value	.LVU257
	.long	.LLRL276
	.byte	0xc
	.value	0x30a
	.byte	0x27
	.uleb128 0x4
	.long	0xae1f
	.long	.LLST282
	.long	.LVUS282
	.uleb128 0x4
	.long	0xae2c
	.long	.LLST283
	.long	.LVUS283
	.uleb128 0x3
	.long	0xae39
	.uleb128 0x17
	.long	0xaa7e
	.quad	.LBI2440
	.value	.LVU258
	.long	.LLRL285
	.byte	0xc
	.value	0x253
	.byte	0x25
	.uleb128 0x4
	.long	0xaaa3
	.long	.LLST286
	.long	.LVUS286
	.uleb128 0x4
	.long	0xaab0
	.long	.LLST287
	.long	.LVUS287
	.uleb128 0x3
	.long	0xaabd
	.uleb128 0x35
	.long	0xaaca
	.uleb128 0x81
	.long	0xa82c
	.long	.LLRL289
	.long	0xf4ab
	.uleb128 0x3
	.long	0xa84e
	.uleb128 0x3
	.long	0xa863
	.uleb128 0x2c
	.quad	.LVL55
	.long	0x10dce
	.uleb128 0x1f
	.uleb128 0x1
	.byte	0x55
	.uleb128 0x2
	.byte	0x73
	.sleb128 0
	.uleb128 0x1f
	.uleb128 0x1
	.byte	0x54
	.uleb128 0x1
	.byte	0x30
	.uleb128 0x1f
	.uleb128 0x1
	.byte	0x51
	.uleb128 0x2
	.byte	0x7e
	.sleb128 0
	.byte	0
	.byte	0
	.uleb128 0x2d
	.long	0xa899
	.quad	.LBI2445
	.value	.LVU259
	.quad	.LBB2445
	.quad	.LBE2445-.LBB2445
	.byte	0xc
	.value	0x1df
	.byte	0x2d
	.long	0xf4ed
	.uleb128 0x4
	.long	0xa8a7
	.long	.LLST290
	.long	.LVUS290
	.uleb128 0x4
	.long	0xa8b0
	.long	.LLST291
	.long	.LVUS291
	.byte	0
	.uleb128 0x19
	.long	0xa86a
	.quad	.LBI2447
	.value	.LVU265
	.quad	.LBB2447
	.quad	.LBE2447-.LBB2447
	.byte	0xc
	.value	0x1ef
	.byte	0x5
	.uleb128 0x4
	.long	0xa878
	.long	.LLST292
	.long	.LVUS292
	.byte	0
	.byte	0
	.byte	0
	.byte	0
	.byte	0
	.byte	0
	.uleb128 0x5d
	.long	0xc5f8
	.quad	.LBI2457
	.value	.LVU267
	.quad	.LBB2457
	.quad	.LBE2457-.LBB2457
	.byte	0x46
	.byte	0x38
	.byte	0x2
	.long	0xf577
	.uleb128 0x3
	.long	0xc606
	.uleb128 0x23
	.long	0xbed1
	.quad	.LBI2458
	.value	.LVU268
	.quad	.LBB2458
	.quad	.LBE2458-.LBB2458
	.byte	0x5
	.byte	0xbd
	.byte	0x27
	.uleb128 0x3
	.long	0xbedf
	.byte	0
	.byte	0
	.uleb128 0x2f
	.long	0xc4e0
	.quad	.LBI2486
	.value	.LVU350
	.long	.LLRL312
	.byte	0x1
	.byte	0x58
	.byte	0x35
	.long	0xf5b3
	.uleb128 0x3
	.long	0xc4ee
	.uleb128 0x4d
	.long	0xbced
	.quad	.LBI2487
	.value	.LVU351
	.long	.LLRL312
	.byte	0x5
	.byte	0xa8
	.byte	0x24
	.uleb128 0x3
	.long	0xbcfb
	.byte	0
	.byte	0
	.uleb128 0x3d
	.long	0xc44c
	.quad	.LBI2489
	.value	.LVU353
	.long	.LLRL315
	.byte	0x1
	.byte	0x58
	.byte	0x35
	.byte	0x1
	.long	0xf990
	.uleb128 0x3
	.long	0xc45a
	.uleb128 0x4
	.long	0xc463
	.long	.LLST316
	.long	.LVUS316
	.uleb128 0x3
	.long	0xc470
	.uleb128 0x3
	.long	0xc47d
	.uleb128 0x37
	.long	0xbc99
	.quad	.LBI2490
	.value	.LVU354
	.long	.LLRL319
	.byte	0x2
	.value	0x24f
	.byte	0x2f
	.long	0xf6b8
	.uleb128 0x4
	.long	0xbca3
	.long	.LLST320
	.long	.LVUS320
	.uleb128 0x3
	.long	0xbcb0
	.uleb128 0x37
	.long	0xb366
	.quad	.LBI2492
	.value	.LVU355
	.long	.LLRL322
	.byte	0x2
	.value	0x89d
	.byte	0x18
	.long	0xf65e
	.uleb128 0x3
	.long	0xb374
	.uleb128 0x3
	.long	0xb37d
	.uleb128 0x4d
	.long	0xada9
	.quad	.LBI2493
	.value	.LVU356
	.long	.LLRL322
	.byte	0x5
	.byte	0xad
	.byte	0x22
	.uleb128 0x3
	.long	0xadb7
	.uleb128 0x3
	.long	0xadc0
	.byte	0
	.byte	0
	.uleb128 0x57
	.long	0xc4b1
	.quad	.LBI2495
	.value	.LVU358
	.long	.LLRL325
	.byte	0x2
	.value	0x89d
	.byte	0x18
	.byte	0x2
	.long	0xf69c
	.uleb128 0x3
	.long	0xc4bf
	.uleb128 0x4d
	.long	0xbcbe
	.quad	.LBI2496
	.value	.LVU359
	.long	.LLRL325
	.byte	0x5
	.byte	0xbd
	.byte	0x27
	.uleb128 0x3
	.long	0xbccc
	.byte	0
	.byte	0
	.uleb128 0x2c
	.quad	.LVL238
	.long	0x6dcd
	.uleb128 0x1f
	.uleb128 0x1
	.byte	0x55
	.uleb128 0x9
	.byte	0x3
	.quad	.LC0
	.byte	0
	.byte	0
	.uleb128 0x57
	.long	0xbc15
	.quad	.LBI2502
	.value	.LVU362
	.long	.LLRL326
	.byte	0x2
	.value	0x24f
	.byte	0x2f
	.byte	0x1
	.long	0xf83f
	.uleb128 0x3
	.long	0xbc23
	.uleb128 0x4
	.long	0xbc2c
	.long	.LLST327
	.long	.LVUS327
	.uleb128 0x3
	.long	0xbc39
	.uleb128 0x37
	.long	0xb326
	.quad	.LBI2503
	.value	.LVU363
	.long	.LLRL329
	.byte	0x2
	.value	0x154
	.byte	0x9
	.long	0xf773
	.uleb128 0x3
	.long	0xb334
	.uleb128 0x3
	.long	0xb33d
	.uleb128 0x2f
	.long	0xb366
	.quad	.LBI2504
	.value	.LVU364
	.long	.LLRL331
	.byte	0x2
	.byte	0x99
	.byte	0x16
	.long	0xf756
	.uleb128 0x3
	.long	0xb374
	.uleb128 0x3
	.long	0xb37d
	.uleb128 0x4d
	.long	0xada9
	.quad	.LBI2505
	.value	.LVU365
	.long	.LLRL331
	.byte	0x5
	.byte	0xad
	.byte	0x22
	.uleb128 0x3
	.long	0xadb7
	.uleb128 0x3
	.long	0xadc0
	.byte	0
	.byte	0
	.uleb128 0x9d
	.long	0xad7a
	.quad	.LBI2507
	.value	.LVU367
	.long	.LLRL334
	.byte	0x99
	.byte	0x16
	.uleb128 0x3
	.long	0xad88
	.byte	0
	.byte	0
	.uleb128 0x17
	.long	0xb301
	.quad	.LBI2510
	.value	.LVU369
	.long	.LLRL335
	.byte	0x2
	.value	0x155
	.byte	0x1a
	.uleb128 0x3
	.long	0xb30f
	.uleb128 0x4
	.long	0xb318
	.long	.LLST336
	.long	.LVUS336
	.uleb128 0x17
	.long	0xad55
	.quad	.LBI2512
	.value	.LVU370
	.long	.LLRL337
	.byte	0x2
	.value	0x197
	.byte	0x2c
	.uleb128 0x3
	.long	0xad63
	.uleb128 0x4
	.long	0xad6c
	.long	.LLST338
	.long	.LVUS338
	.uleb128 0x5c
	.long	0xaa41
	.quad	.LBI2514
	.value	.LVU374
	.long	.LLRL339
	.byte	0x2
	.value	0x185
	.byte	0x1
	.uleb128 0x3
	.long	0xaa4b
	.uleb128 0x4
	.long	0xaa58
	.long	.LLST340
	.long	.LVUS340
	.uleb128 0x17
	.long	0xa7d3
	.quad	.LBI2515
	.value	.LVU375
	.long	.LLRL341
	.byte	0x8
	.value	0x27e
	.byte	0x1c
	.uleb128 0x3
	.long	0xa7e1
	.uleb128 0x4
	.long	0xa7f6
	.long	.LLST342
	.long	.LVUS342
	.uleb128 0x4
	.long	0xa7ea
	.long	.LLST343
	.long	.LVUS343
	.uleb128 0x2c
	.quad	.LVL82
	.long	0xa61e
	.uleb128 0x1f
	.uleb128 0x1
	.byte	0x55
	.uleb128 0x4
	.byte	0x77
	.sleb128 80
	.byte	0x6
	.byte	0
	.byte	0
	.byte	0
	.byte	0
	.byte	0
	.byte	0
	.uleb128 0x17
	.long	0xbb9a
	.quad	.LBI2549
	.value	.LVU381
	.long	.LLRL344
	.byte	0x2
	.value	0x250
	.byte	0x1b
	.uleb128 0x3
	.long	0xbba8
	.uleb128 0x4
	.long	0xbbb1
	.long	.LLST345
	.long	.LVUS345
	.uleb128 0x3
	.long	0xbbbe
	.uleb128 0x17
	.long	0xb274
	.quad	.LBI2550
	.value	.LVU382
	.long	.LLRL344
	.byte	0x2
	.value	0x7c6
	.byte	0x21
	.uleb128 0x4
	.long	0xb2a2
	.long	.LLST347
	.long	.LVUS347
	.uleb128 0x4
	.long	0xb2af
	.long	.LLST348
	.long	.LVUS348
	.uleb128 0x3
	.long	0xb2bc
	.uleb128 0x3
	.long	0xb2c9
	.uleb128 0x17
	.long	0xacd6
	.quad	.LBI2551
	.value	.LVU383
	.long	.LLRL344
	.byte	0xc
	.value	0x30a
	.byte	0x27
	.uleb128 0x4
	.long	0xacfb
	.long	.LLST350
	.long	.LVUS350
	.uleb128 0x4
	.long	0xad08
	.long	.LLST351
	.long	.LVUS351
	.uleb128 0x3
	.long	0xad15
	.uleb128 0x17
	.long	0xa9b7
	.quad	.LBI2553
	.value	.LVU384
	.long	.LLRL353
	.byte	0xc
	.value	0x253
	.byte	0x25
	.uleb128 0x4
	.long	0xa9dc
	.long	.LLST354
	.long	.LVUS354
	.uleb128 0x4
	.long	0xa9e9
	.long	.LLST355
	.long	.LVUS355
	.uleb128 0x3
	.long	0xa9f6
	.uleb128 0x35
	.long	0xaa03
	.uleb128 0x81
	.long	0xa726
	.long	.LLRL357
	.long	0xf94d
	.uleb128 0x3
	.long	0xa748
	.uleb128 0x3
	.long	0xa75d
	.uleb128 0x2c
	.quad	.LVL84
	.long	0x10dce
	.uleb128 0x1f
	.uleb128 0x1
	.byte	0x54
	.uleb128 0x1
	.byte	0x30
	.uleb128 0x1f
	.uleb128 0x1
	.byte	0x51
	.uleb128 0x4
	.byte	0x77
	.sleb128 248
	.byte	0x6
	.byte	0
	.byte	0
	.uleb128 0x19
	.long	0xa793
	.quad	.LBI2559
	.value	.LVU385
	.quad	.LBB2559
	.quad	.LBE2559-.LBB2559
	.byte	0xc
	.value	0x1df
	.byte	0x2d
	.uleb128 0x4
	.long	0xa7a1
	.long	.LLST358
	.long	.LVUS358
	.uleb128 0x4
	.long	0xa7aa
	.long	.LLST359
	.long	.LVUS359
	.byte	0
	.byte	0
	.byte	0
	.byte	0
	.byte	0
	.byte	0
	.uleb128 0x2e
	.long	0xc41d
	.quad	.LBI2746
	.value	.LVU929
	.quad	.LBB2746
	.quad	.LBE2746-.LBB2746
	.byte	0x1
	.byte	0xa4
	.byte	0x1
	.long	0xfbc8
	.uleb128 0x3
	.long	0xc42b
	.uleb128 0x2d
	.long	0xbb82
	.quad	.LBI2747
	.value	.LVU930
	.quad	.LBB2747
	.quad	.LBE2747-.LBB2747
	.byte	0x2
	.value	0x319
	.byte	0x1c
	.long	0xf9e8
	.uleb128 0x3
	.long	0xbb90
	.byte	0
	.uleb128 0x2d
	.long	0xbb46
	.quad	.LBI2748
	.value	.LVU932
	.quad	.LBB2748
	.quad	.LBE2748-.LBB2748
	.byte	0x2
	.value	0x318
	.byte	0xf
	.long	0xfa1f
	.uleb128 0x3
	.long	0xbb62
	.uleb128 0x3
	.long	0xbb6f
	.uleb128 0x3
	.long	0xbb7c
	.byte	0
	.uleb128 0x19
	.long	0xbbcc
	.quad	.LBI2749
	.value	.LVU934
	.quad	.LBB2749
	.quad	.LBE2749-.LBB2749
	.byte	0x2
	.value	0x31b
	.byte	0x7
	.uleb128 0x3
	.long	0xbbda
	.uleb128 0x77
	.long	0xbbe3
	.quad	.LBB2750
	.quad	.LBE2750-.LBB2750
	.long	0xfb4d
	.uleb128 0x3a
	.long	0xbbe4
	.long	.LLST441
	.long	.LVUS441
	.uleb128 0x19
	.long	0xb2cf
	.quad	.LBI2751
	.value	.LVU935
	.quad	.LBB2751
	.quad	.LBE2751-.LBB2751
	.byte	0x2
	.value	0x17a
	.byte	0xf
	.uleb128 0x3
	.long	0xb2dd
	.uleb128 0x4
	.long	0xb2e6
	.long	.LLST442
	.long	.LVUS442
	.uleb128 0x4
	.long	0xb2f3
	.long	.LLST443
	.long	.LVUS443
	.uleb128 0x19
	.long	0xad23
	.quad	.LBI2753
	.value	.LVU937
	.quad	.LBB2753
	.quad	.LBE2753-.LBB2753
	.byte	0x2
	.value	0x18e
	.byte	0x13
	.uleb128 0x3
	.long	0xad2d
	.uleb128 0x4
	.long	0xad3a
	.long	.LLST444
	.long	.LVUS444
	.uleb128 0x4
	.long	0xad47
	.long	.LLST445
	.long	.LVUS445
	.uleb128 0x19
	.long	0xaa11
	.quad	.LBI2754
	.value	.LVU938
	.quad	.LBB2754
	.quad	.LBE2754-.LBB2754
	.byte	0x8
	.value	0x2b1
	.byte	0x17
	.uleb128 0x3
	.long	0xaa1f
	.uleb128 0x4
	.long	0xaa28
	.long	.LLST446
	.long	.LVUS446
	.uleb128 0x4
	.long	0xaa34
	.long	.LLST447
	.long	.LVUS447
	.uleb128 0x2c
	.quad	.LVL174
	.long	0xa603
	.uleb128 0x1f
	.uleb128 0x1
	.byte	0x54
	.uleb128 0x4
	.byte	0x77
	.sleb128 80
	.byte	0x6
	.byte	0
	.byte	0
	.byte	0
	.byte	0
	.byte	0
	.uleb128 0x19
	.long	0xbc68
	.quad	.LBI2756
	.value	.LVU941
	.quad	.LBB2756
	.quad	.LBE2756-.LBB2756
	.byte	0x2
	.value	0x17b
	.byte	0x7
	.uleb128 0x3
	.long	0xbc78
	.uleb128 0x23
	.long	0xc4b1
	.quad	.LBI2757
	.value	.LVU942
	.quad	.LBB2757
	.quad	.LBE2757-.LBB2757
	.byte	0x2
	.byte	0x8b
	.byte	0xe
	.uleb128 0x3
	.long	0xc4bf
	.uleb128 0x23
	.long	0xbcbe
	.quad	.LBI2758
	.value	.LVU943
	.quad	.LBB2758
	.quad	.LBE2758-.LBB2758
	.byte	0x5
	.byte	0xbd
	.byte	0x27
	.uleb128 0x3
	.long	0xbccc
	.byte	0
	.byte	0
	.byte	0
	.byte	0
	.byte	0
	.uleb128 0x5d
	.long	0xc564
	.quad	.LBI2759
	.value	.LVU945
	.quad	.LBB2759
	.quad	.LBE2759-.LBB2759
	.byte	0xa4
	.byte	0x1
	.byte	0x1
	.long	0xfde6
	.uleb128 0x3
	.long	0xc572
	.uleb128 0x2d
	.long	0xbd95
	.quad	.LBI2760
	.value	.LVU946
	.quad	.LBB2760
	.quad	.LBE2760-.LBB2760
	.byte	0x2
	.value	0x319
	.byte	0x1c
	.long	0xfc20
	.uleb128 0x3
	.long	0xbda3
	.byte	0
	.uleb128 0x2d
	.long	0xbd59
	.quad	.LBI2761
	.value	.LVU948
	.quad	.LBB2761
	.quad	.LBE2761-.LBB2761
	.byte	0x2
	.value	0x318
	.byte	0xf
	.long	0xfc57
	.uleb128 0x3
	.long	0xbd75
	.uleb128 0x3
	.long	0xbd82
	.uleb128 0x3
	.long	0xbd8f
	.byte	0
	.uleb128 0x19
	.long	0xbddf
	.quad	.LBI2762
	.value	.LVU950
	.quad	.LBB2762
	.quad	.LBE2762-.LBB2762
	.byte	0x2
	.value	0x31b
	.byte	0x7
	.uleb128 0x3
	.long	0xbded
	.uleb128 0x77
	.long	0xbdf6
	.quad	.LBB2763
	.quad	.LBE2763-.LBB2763
	.long	0xfd6b
	.uleb128 0x35
	.long	0xbdf7
	.uleb128 0x19
	.long	0xb45f
	.quad	.LBI2764
	.value	.LVU951
	.quad	.LBB2764
	.quad	.LBE2764-.LBB2764
	.byte	0x2
	.value	0x17a
	.byte	0xf
	.uleb128 0x3
	.long	0xb46d
	.uleb128 0x4
	.long	0xb476
	.long	.LLST448
	.long	.LVUS448
	.uleb128 0x3
	.long	0xb483
	.uleb128 0x19
	.long	0xae47
	.quad	.LBI2766
	.value	.LVU953
	.quad	.LBB2766
	.quad	.LBE2766-.LBB2766
	.byte	0x2
	.value	0x18e
	.byte	0x13
	.uleb128 0x3
	.long	0xae51
	.uleb128 0x4
	.long	0xae5e
	.long	.LLST449
	.long	.LVUS449
	.uleb128 0x3
	.long	0xae6b
	.uleb128 0x19
	.long	0xaad8
	.quad	.LBI2767
	.value	.LVU954
	.quad	.LBB2767
	.quad	.LBE2767-.LBB2767
	.byte	0x8
	.value	0x2b1
	.byte	0x17
	.uleb128 0x3
	.long	0xaae6
	.uleb128 0x4
	.long	0xaaef
	.long	.LLST450
	.long	.LVUS450
	.uleb128 0x3
	.long	0xaafb
	.uleb128 0x2c
	.quad	.LVL176
	.long	0xa603
	.uleb128 0x1f
	.uleb128 0x1
	.byte	0x55
	.uleb128 0x2
	.byte	0x73
	.sleb128 0
	.uleb128 0x1f
	.uleb128 0x1
	.byte	0x54
	.uleb128 0x4
	.byte	0x77
	.sleb128 64
	.byte	0x6
	.byte	0
	.byte	0
	.byte	0
	.byte	0
	.byte	0
	.uleb128 0x19
	.long	0xbe7b
	.quad	.LBI2769
	.value	.LVU957
	.quad	.LBB2769
	.quad	.LBE2769-.LBB2769
	.byte	0x2
	.value	0x17b
	.byte	0x7
	.uleb128 0x3
	.long	0xbe8b
	.uleb128 0x23
	.long	0xc5f8
	.quad	.LBI2770
	.value	.LVU958
	.quad	.LBB2770
	.quad	.LBE2770-.LBB2770
	.byte	0x2
	.byte	0x8b
	.byte	0xe
	.uleb128 0x3
	.long	0xc606
	.uleb128 0x23
	.long	0xbed1
	.quad	.LBI2771
	.value	.LVU959
	.quad	.LBB2771
	.quad	.LBE2771-.LBB2771
	.byte	0x5
	.byte	0xbd
	.byte	0x27
	.uleb128 0x3
	.long	0xbedf
	.byte	0
	.byte	0
	.byte	0
	.byte	0
	.byte	0
	.uleb128 0x5d
	.long	0xc564
	.quad	.LBI2772
	.value	.LVU961
	.quad	.LBB2772
	.quad	.LBE2772-.LBB2772
	.byte	0xa4
	.byte	0x1
	.byte	0x2
	.long	0x10005
	.uleb128 0x3
	.long	0xc572
	.uleb128 0x2d
	.long	0xbd95
	.quad	.LBI2773
	.value	.LVU962
	.quad	.LBB2773
	.quad	.LBE2773-.LBB2773
	.byte	0x2
	.value	0x319
	.byte	0x1c
	.long	0xfe3e
	.uleb128 0x3
	.long	0xbda3
	.byte	0
	.uleb128 0x2d
	.long	0xbd59
	.quad	.LBI2774
	.value	.LVU964
	.quad	.LBB2774
	.quad	.LBE2774-.LBB2774
	.byte	0x2
	.value	0x318
	.byte	0xf
	.long	0xfe75
	.uleb128 0x3
	.long	0xbd75
	.uleb128 0x3
	.long	0xbd82
	.uleb128 0x3
	.long	0xbd8f
	.byte	0
	.uleb128 0x19
	.long	0xbddf
	.quad	.LBI2775
	.value	.LVU966
	.quad	.LBB2775
	.quad	.LBE2775-.LBB2775
	.byte	0x2
	.value	0x31b
	.byte	0x7
	.uleb128 0x3
	.long	0xbded
	.uleb128 0x77
	.long	0xbdf6
	.quad	.LBB2776
	.quad	.LBE2776-.LBB2776
	.long	0xff8a
	.uleb128 0x35
	.long	0xbdf7
	.uleb128 0x19
	.long	0xb45f
	.quad	.LBI2777
	.value	.LVU967
	.quad	.LBB2777
	.quad	.LBE2777-.LBB2777
	.byte	0x2
	.value	0x17a
	.byte	0xf
	.uleb128 0x3
	.long	0xb46d
	.uleb128 0x4
	.long	0xb476
	.long	.LLST451
	.long	.LVUS451
	.uleb128 0x3
	.long	0xb483
	.uleb128 0x19
	.long	0xae47
	.quad	.LBI2779
	.value	.LVU969
	.quad	.LBB2779
	.quad	.LBE2779-.LBB2779
	.byte	0x2
	.value	0x18e
	.byte	0x13
	.uleb128 0x3
	.long	0xae51
	.uleb128 0x4
	.long	0xae5e
	.long	.LLST452
	.long	.LVUS452
	.uleb128 0x3
	.long	0xae6b
	.uleb128 0x19
	.long	0xaad8
	.quad	.LBI2780
	.value	.LVU970
	.quad	.LBB2780
	.quad	.LBE2780-.LBB2780
	.byte	0x8
	.value	0x2b1
	.byte	0x17
	.uleb128 0x3
	.long	0xaae6
	.uleb128 0x4
	.long	0xaaef
	.long	.LLST453
	.long	.LVUS453
	.uleb128 0x3
	.long	0xaafb
	.uleb128 0x2c
	.quad	.LVL178
	.long	0xa603
	.uleb128 0x1f
	.uleb128 0x1
	.byte	0x55
	.uleb128 0x4
	.byte	0x77
	.sleb128 88
	.byte	0x6
	.uleb128 0x1f
	.uleb128 0x1
	.byte	0x54
	.uleb128 0x3
	.byte	0x77
	.sleb128 48
	.byte	0x6
	.byte	0
	.byte	0
	.byte	0
	.byte	0
	.byte	0
	.uleb128 0x19
	.long	0xbe7b
	.quad	.LBI2782
	.value	.LVU973
	.quad	.LBB2782
	.quad	.LBE2782-.LBB2782
	.byte	0x2
	.value	0x17b
	.byte	0x7
	.uleb128 0x3
	.long	0xbe8b
	.uleb128 0x23
	.long	0xc5f8
	.quad	.LBI2783
	.value	.LVU974
	.quad	.LBB2783
	.quad	.LBE2783-.LBB2783
	.byte	0x2
	.byte	0x8b
	.byte	0xe
	.uleb128 0x3
	.long	0xc606
	.uleb128 0x23
	.long	0xbed1
	.quad	.LBI2784
	.value	.LVU975
	.quad	.LBB2784
	.quad	.LBE2784-.LBB2784
	.byte	0x5
	.byte	0xbd
	.byte	0x27
	.uleb128 0x3
	.long	0xbedf
	.byte	0
	.byte	0
	.byte	0
	.byte	0
	.byte	0
	.uleb128 0x5d
	.long	0xc564
	.quad	.LBI2814
	.value	.LVU1230
	.quad	.LBB2814
	.quad	.LBE2814-.LBB2814
	.byte	0xa4
	.byte	0x1
	.byte	0x5
	.long	0x10220
	.uleb128 0x3
	.long	0xc572
	.uleb128 0x37
	.long	0xbddf
	.quad	.LBI2815
	.value	.LVU1235
	.long	.LLRL454
	.byte	0x2
	.value	0x31b
	.byte	0x7
	.long	0x101bf
	.uleb128 0x3
	.long	0xbded
	.uleb128 0x69
	.long	0xbdf6
	.long	.LLRL455
	.long	0x10145
	.uleb128 0x3a
	.long	0xbdf7
	.long	.LLST456
	.long	.LVUS456
	.uleb128 0x17
	.long	0xb45f
	.quad	.LBI2817
	.value	.LVU1236
	.long	.LLRL455
	.byte	0x2
	.value	0x17a
	.byte	0xf
	.uleb128 0x3
	.long	0xb46d
	.uleb128 0x4
	.long	0xb476
	.long	.LLST457
	.long	.LVUS457
	.uleb128 0x4
	.long	0xb483
	.long	.LLST458
	.long	.LVUS458
	.uleb128 0x19
	.long	0xae47
	.quad	.LBI2819
	.value	.LVU1238
	.quad	.LBB2819
	.quad	.LBE2819-.LBB2819
	.byte	0x2
	.value	0x18e
	.byte	0x13
	.uleb128 0x3
	.long	0xae51
	.uleb128 0x4
	.long	0xae5e
	.long	.LLST459
	.long	.LVUS459
	.uleb128 0x4
	.long	0xae6b
	.long	.LLST460
	.long	.LVUS460
	.uleb128 0x19
	.long	0xaad8
	.quad	.LBI2820
	.value	.LVU1239
	.quad	.LBB2820
	.quad	.LBE2820-.LBB2820
	.byte	0x8
	.value	0x2b1
	.byte	0x17
	.uleb128 0x3
	.long	0xaae6
	.uleb128 0x4
	.long	0xaaef
	.long	.LLST461
	.long	.LVUS461
	.uleb128 0x4
	.long	0xaafb
	.long	.LLST462
	.long	.LVUS462
	.uleb128 0x2c
	.quad	.LVL241
	.long	0xa603
	.uleb128 0x1f
	.uleb128 0x1
	.byte	0x55
	.uleb128 0x4
	.byte	0x77
	.sleb128 88
	.byte	0x6
	.uleb128 0x1f
	.uleb128 0x1
	.byte	0x54
	.uleb128 0x3
	.byte	0x77
	.sleb128 48
	.byte	0x6
	.byte	0
	.byte	0
	.byte	0
	.byte	0
	.byte	0
	.uleb128 0x19
	.long	0xbe7b
	.quad	.LBI2825
	.value	.LVU1242
	.quad	.LBB2825
	.quad	.LBE2825-.LBB2825
	.byte	0x2
	.value	0x17b
	.byte	0x7
	.uleb128 0x3
	.long	0xbe8b
	.uleb128 0x23
	.long	0xc5f8
	.quad	.LBI2826
	.value	.LVU1243
	.quad	.LBB2826
	.quad	.LBE2826-.LBB2826
	.byte	0x2
	.byte	0x8b
	.byte	0xe
	.uleb128 0x3
	.long	0xc606
	.uleb128 0x23
	.long	0xbed1
	.quad	.LBI2827
	.value	.LVU1244
	.quad	.LBB2827
	.quad	.LBE2827-.LBB2827
	.byte	0x5
	.byte	0xbd
	.byte	0x27
	.uleb128 0x3
	.long	0xbedf
	.byte	0
	.byte	0
	.byte	0
	.byte	0
	.uleb128 0x2d
	.long	0xbd95
	.quad	.LBI2828
	.value	.LVU1231
	.quad	.LBB2828
	.quad	.LBE2828-.LBB2828
	.byte	0x2
	.value	0x319
	.byte	0x1c
	.long	0x101ec
	.uleb128 0x3
	.long	0xbda3
	.byte	0
	.uleb128 0x19
	.long	0xbd59
	.quad	.LBI2829
	.value	.LVU1233
	.quad	.LBB2829
	.quad	.LBE2829-.LBB2829
	.byte	0x2
	.value	0x318
	.byte	0xf
	.uleb128 0x3
	.long	0xbd75
	.uleb128 0x3
	.long	0xbd82
	.uleb128 0x3
	.long	0xbd8f
	.byte	0
	.byte	0
	.uleb128 0x3d
	.long	0xc780
	.quad	.LBI2831
	.value	.LVU1246
	.long	.LLRL463
	.byte	0x1
	.byte	0xa4
	.byte	0x1
	.byte	0x6
	.long	0x10479
	.uleb128 0x4
	.long	0xc78e
	.long	.LLST464
	.long	.LVUS464
	.uleb128 0x2d
	.long	0xc1a0
	.quad	.LBI2832
	.value	.LVU1247
	.quad	.LBB2832
	.quad	.LBE2832-.LBB2832
	.byte	0x2
	.value	0x319
	.byte	0x1c
	.long	0x1027d
	.uleb128 0x4
	.long	0xc1ae
	.long	.LLST465
	.long	.LVUS465
	.byte	0
	.uleb128 0x2d
	.long	0xc164
	.quad	.LBI2833
	.value	.LVU1249
	.quad	.LBB2833
	.quad	.LBE2833-.LBB2833
	.byte	0x2
	.value	0x318
	.byte	0xf
	.long	0x102bc
	.uleb128 0x3
	.long	0xc180
	.uleb128 0x3
	.long	0xc18d
	.uleb128 0x4
	.long	0xc19a
	.long	.LLST466
	.long	.LVUS466
	.byte	0
	.uleb128 0x17
	.long	0xc7ab
	.quad	.LBI2834
	.value	.LVU1251
	.long	.LLRL467
	.byte	0x2
	.value	0x31b
	.byte	0x7
	.uleb128 0x4
	.long	0xc7b9
	.long	.LLST468
	.long	.LVUS468
	.uleb128 0x69
	.long	0xc7c2
	.long	.LLRL469
	.long	0x103e6
	.uleb128 0x35
	.long	0xc7c3
	.uleb128 0x17
	.long	0xc1b8
	.quad	.LBI2836
	.value	.LVU1252
	.long	.LLRL470
	.byte	0x2
	.value	0x17a
	.byte	0xf
	.uleb128 0x4
	.long	0xc1c6
	.long	.LLST471
	.long	.LVUS471
	.uleb128 0x4
	.long	0xc1cf
	.long	.LLST472
	.long	.LVUS472
	.uleb128 0x3
	.long	0xc1dc
	.uleb128 0x17
	.long	0xc1b8
	.quad	.LBI2838
	.value	.LVU1254
	.long	.LLRL473
	.byte	0x2
	.value	0x18a
	.byte	0x7
	.uleb128 0x4
	.long	0xc1c6
	.long	.LLST474
	.long	.LVUS474
	.uleb128 0x4
	.long	0xc1cf
	.long	.LLST475
	.long	.LVUS475
	.uleb128 0x3
	.long	0xc1dc
	.uleb128 0x17
	.long	0xb7b8
	.quad	.LBI2840
	.value	.LVU1255
	.long	.LLRL476
	.byte	0x2
	.value	0x18e
	.byte	0x13
	.uleb128 0x3
	.long	0xb7c2
	.uleb128 0x4
	.long	0xb7cf
	.long	.LLST477
	.long	.LVUS477
	.uleb128 0x3
	.long	0xb7dc
	.uleb128 0x37
	.long	0xaf92
	.quad	.LBI2841
	.value	.LVU1256
	.long	.LLRL478
	.byte	0x8
	.value	0x2b1
	.byte	0x17
	.long	0x103bf
	.uleb128 0x3
	.long	0xafa0
	.uleb128 0x4
	.long	0xafa9
	.long	.LLST479
	.long	.LVUS479
	.uleb128 0x3
	.long	0xafb5
	.byte	0
	.uleb128 0x2c
	.quad	.LVL243
	.long	0xa603
	.uleb128 0x1f
	.uleb128 0x1
	.byte	0x55
	.uleb128 0x4
	.byte	0x77
	.sleb128 112
	.byte	0x6
	.uleb128 0x1f
	.uleb128 0x1
	.byte	0x54
	.uleb128 0x9
	.byte	0x77
	.sleb128 240
	.byte	0x6
	.byte	0x77
	.sleb128 112
	.byte	0x6
	.byte	0x1c
	.byte	0
	.byte	0
	.byte	0
	.byte	0
	.byte	0
	.uleb128 0x19
	.long	0x10abb
	.quad	.LBI2851
	.value	.LVU1260
	.quad	.LBB2851
	.quad	.LBE2851-.LBB2851
	.byte	0x2
	.value	0x17b
	.byte	0x7
	.uleb128 0x4
	.long	0x10acb
	.long	.LLST480
	.long	.LVUS480
	.uleb128 0x23
	.long	0xc7f0
	.quad	.LBI2852
	.value	.LVU1261
	.quad	.LBB2852
	.quad	.LBE2852-.LBB2852
	.byte	0x2
	.byte	0x8b
	.byte	0xe
	.uleb128 0x4
	.long	0xc7fe
	.long	.LLST481
	.long	.LVUS481
	.uleb128 0x23
	.long	0xc1ea
	.quad	.LBI2853
	.value	.LVU1262
	.quad	.LBB2853
	.quad	.LBE2853-.LBB2853
	.byte	0x5
	.byte	0xbd
	.byte	0x27
	.uleb128 0x4
	.long	0xc1f8
	.long	.LLST482
	.long	.LVUS482
	.byte	0
	.byte	0
	.byte	0
	.byte	0
	.byte	0
	.uleb128 0x3d
	.long	0x10ae8
	.quad	.LBI2856
	.value	.LVU1264
	.long	.LLRL483
	.byte	0x1
	.byte	0xa4
	.byte	0x1
	.byte	0x7
	.long	0x106ea
	.uleb128 0x4
	.long	0x10af8
	.long	.LLST484
	.long	.LVUS484
	.uleb128 0x4d
	.long	0xc878
	.quad	.LBI2857
	.value	.LVU1265
	.long	.LLRL483
	.byte	0x4
	.byte	0xb
	.byte	0x8
	.uleb128 0x4
	.long	0xc886
	.long	.LLST485
	.long	.LVUS485
	.uleb128 0x2d
	.long	0xc309
	.quad	.LBI2858
	.value	.LVU1266
	.quad	.LBB2858
	.quad	.LBE2858-.LBB2858
	.byte	0x2
	.value	0x319
	.byte	0x1c
	.long	0x104f9
	.uleb128 0x4
	.long	0xc317
	.long	.LLST486
	.long	.LVUS486
	.byte	0
	.uleb128 0x2d
	.long	0xc2cd
	.quad	.LBI2859
	.value	.LVU1268
	.quad	.LBB2859
	.quad	.LBE2859-.LBB2859
	.byte	0x2
	.value	0x318
	.byte	0xf
	.long	0x10548
	.uleb128 0x4
	.long	0xc2e9
	.long	.LLST487
	.long	.LVUS487
	.uleb128 0x4
	.long	0xc2f6
	.long	.LLST488
	.long	.LVUS488
	.uleb128 0x4
	.long	0xc303
	.long	.LLST489
	.long	.LVUS489
	.byte	0
	.uleb128 0x17
	.long	0xc8a7
	.quad	.LBI2860
	.value	.LVU1270
	.long	.LLRL490
	.byte	0x2
	.value	0x31b
	.byte	0x7
	.uleb128 0x4
	.long	0xc8b5
	.long	.LLST491
	.long	.LVUS491
	.uleb128 0x69
	.long	0xc8be
	.long	.LLRL492
	.long	0x10656
	.uleb128 0x3a
	.long	0xc8bf
	.long	.LLST493
	.long	.LVUS493
	.uleb128 0x17
	.long	0xc321
	.quad	.LBI2862
	.value	.LVU1272
	.long	.LLRL494
	.byte	0x2
	.value	0x17a
	.byte	0xf
	.uleb128 0x4
	.long	0xc32f
	.long	.LLST495
	.long	.LVUS495
	.uleb128 0x4
	.long	0xc338
	.long	.LLST496
	.long	.LVUS496
	.uleb128 0x4
	.long	0xc345
	.long	.LLST493
	.long	.LVUS493
	.uleb128 0x17
	.long	0xba4b
	.quad	.LBI2864
	.value	.LVU1274
	.long	.LLRL498
	.byte	0x2
	.value	0x18e
	.byte	0x13
	.uleb128 0x4
	.long	0xba55
	.long	.LLST499
	.long	.LVUS499
	.uleb128 0x4
	.long	0xba62
	.long	.LLST500
	.long	.LVUS500
	.uleb128 0x4
	.long	0xba6f
	.long	.LLST501
	.long	.LVUS501
	.uleb128 0x37
	.long	0xb1df
	.quad	.LBI2865
	.value	.LVU1275
	.long	.LLRL498
	.byte	0x8
	.value	0x2b1
	.byte	0x17
	.long	0x10645
	.uleb128 0x4
	.long	0xb1ed
	.long	.LLST502
	.long	.LVUS502
	.uleb128 0x4
	.long	0xb1f6
	.long	.LLST503
	.long	.LVUS503
	.uleb128 0x4
	.long	0xb202
	.long	.LLST504
	.long	.LVUS504
	.byte	0
	.uleb128 0xcd
	.quad	.LVL246
	.long	0xa603
	.byte	0
	.byte	0
	.byte	0
	.uleb128 0x19
	.long	0x10ba8
	.quad	.LBI2871
	.value	.LVU1279
	.quad	.LBB2871
	.quad	.LBE2871-.LBB2871
	.byte	0x2
	.value	0x17b
	.byte	0x7
	.uleb128 0x4
	.long	0x10bb8
	.long	.LLST505
	.long	.LVUS505
	.uleb128 0x23
	.long	0xc8f0
	.quad	.LBI2872
	.value	.LVU1280
	.quad	.LBB2872
	.quad	.LBE2872-.LBB2872
	.byte	0x2
	.byte	0x8b
	.byte	0xe
	.uleb128 0x4
	.long	0xc8fe
	.long	.LLST506
	.long	.LVUS506
	.uleb128 0x23
	.long	0xc353
	.quad	.LBI2873
	.value	.LVU1281
	.quad	.LBB2873
	.quad	.LBE2873-.LBB2873
	.byte	0x5
	.byte	0xbd
	.byte	0x27
	.uleb128 0x4
	.long	0xc361
	.long	.LLST507
	.long	.LVUS507
	.byte	0
	.byte	0
	.byte	0
	.byte	0
	.byte	0
	.byte	0
	.uleb128 0x5d
	.long	0xc564
	.quad	.LBI2877
	.value	.LVU1285
	.quad	.LBB2877
	.quad	.LBE2877-.LBB2877
	.byte	0xa4
	.byte	0x1
	.byte	0x4
	.long	0x1090f
	.uleb128 0x3
	.long	0xc572
	.uleb128 0x37
	.long	0xbddf
	.quad	.LBI2878
	.value	.LVU1290
	.long	.LLRL508
	.byte	0x2
	.value	0x31b
	.byte	0x7
	.long	0x108ae
	.uleb128 0x3
	.long	0xbded
	.uleb128 0x69
	.long	0xbdf6
	.long	.LLRL509
	.long	0x10834
	.uleb128 0x3a
	.long	0xbdf7
	.long	.LLST510
	.long	.LVUS510
	.uleb128 0x17
	.long	0xb45f
	.quad	.LBI2880
	.value	.LVU1291
	.long	.LLRL509
	.byte	0x2
	.value	0x17a
	.byte	0xf
	.uleb128 0x3
	.long	0xb46d
	.uleb128 0x4
	.long	0xb476
	.long	.LLST511
	.long	.LVUS511
	.uleb128 0x4
	.long	0xb483
	.long	.LLST512
	.long	.LVUS512
	.uleb128 0x19
	.long	0xae47
	.quad	.LBI2882
	.value	.LVU1299
	.quad	.LBB2882
	.quad	.LBE2882-.LBB2882
	.byte	0x2
	.value	0x18e
	.byte	0x13
	.uleb128 0x3
	.long	0xae51
	.uleb128 0x4
	.long	0xae5e
	.long	.LLST513
	.long	.LVUS513
	.uleb128 0x4
	.long	0xae6b
	.long	.LLST514
	.long	.LVUS514
	.uleb128 0x19
	.long	0xaad8
	.quad	.LBI2883
	.value	.LVU1300
	.quad	.LBB2883
	.quad	.LBE2883-.LBB2883
	.byte	0x8
	.value	0x2b1
	.byte	0x17
	.uleb128 0x3
	.long	0xaae6
	.uleb128 0x4
	.long	0xaaef
	.long	.LLST515
	.long	.LVUS515
	.uleb128 0x4
	.long	0xaafb
	.long	.LLST516
	.long	.LVUS516
	.uleb128 0x4e
	.quad	.LVL251
	.uleb128 0x1
	.byte	0x30
	.uleb128 0x2c
	.quad	.LVL252
	.long	0xa603
	.uleb128 0x1f
	.uleb128 0x1
	.byte	0x55
	.uleb128 0x2
	.byte	0x73
	.sleb128 0
	.uleb128 0x1f
	.uleb128 0x1
	.byte	0x54
	.uleb128 0x4
	.byte	0x77
	.sleb128 64
	.byte	0x6
	.byte	0
	.byte	0
	.byte	0
	.byte	0
	.byte	0
	.uleb128 0x19
	.long	0xbe7b
	.quad	.LBI2890
	.value	.LVU1294
	.quad	.LBB2890
	.quad	.LBE2890-.LBB2890
	.byte	0x2
	.value	0x17b
	.byte	0x7
	.uleb128 0x3
	.long	0xbe8b
	.uleb128 0x23
	.long	0xc5f8
	.quad	.LBI2891
	.value	.LVU1295
	.quad	.LBB2891
	.quad	.LBE2891-.LBB2891
	.byte	0x2
	.byte	0x8b
	.byte	0xe
	.uleb128 0x3
	.long	0xc606
	.uleb128 0x23
	.long	0xbed1
	.quad	.LBI2892
	.value	.LVU1296
	.quad	.LBB2892
	.quad	.LBE2892-.LBB2892
	.byte	0x5
	.byte	0xbd
	.byte	0x27
	.uleb128 0x3
	.long	0xbedf
	.byte	0
	.byte	0
	.byte	0
	.byte	0
	.uleb128 0x2d
	.long	0xbd95
	.quad	.LBI2894
	.value	.LVU1286
	.quad	.LBB2894
	.quad	.LBE2894-.LBB2894
	.byte	0x2
	.value	0x319
	.byte	0x1c
	.long	0x108db
	.uleb128 0x3
	.long	0xbda3
	.byte	0
	.uleb128 0x19
	.long	0xbd59
	.quad	.LBI2895
	.value	.LVU1288
	.quad	.LBB2895
	.quad	.LBE2895-.LBB2895
	.byte	0x2
	.value	0x318
	.byte	0xf
	.uleb128 0x3
	.long	0xbd75
	.uleb128 0x3
	.long	0xbd82
	.uleb128 0x3
	.long	0xbd8f
	.byte	0
	.byte	0
	.uleb128 0x4e
	.quad	.LVL152
	.uleb128 0x1
	.byte	0x30
	.uleb128 0x4e
	.quad	.LVL224
	.uleb128 0x1
	.byte	0x30
	.uleb128 0x4e
	.quad	.LVL233
	.uleb128 0x1
	.byte	0x30
	.uleb128 0x4e
	.quad	.LVL239
	.uleb128 0x1
	.byte	0x30
	.uleb128 0xce
	.quad	.LVL247
	.long	0x10dd8
	.long	0x10954
	.uleb128 0x1f
	.uleb128 0x1
	.byte	0x55
	.uleb128 0x2
	.byte	0x73
	.sleb128 0
	.byte	0
	.uleb128 0x4e
	.quad	.LVL249
	.uleb128 0x1
	.byte	0x30
	.uleb128 0x4e
	.quad	.LVL256
	.uleb128 0x1
	.byte	0x30
	.uleb128 0x4e
	.quad	.LVL258
	.uleb128 0x1
	.byte	0x30
	.uleb128 0x4e
	.quad	.LVL263
	.uleb128 0x1
	.byte	0x30
	.byte	0
	.uleb128 0xb
	.long	0x8aea
	.long	0x1098f
	.byte	0x3
	.long	0x10999
	.uleb128 0x9
	.long	.LASF1303
	.long	0xa472
	.byte	0
	.uleb128 0xb
	.long	0x859f
	.long	0x109a7
	.byte	0x3
	.long	0x109b1
	.uleb128 0x9
	.long	.LASF1303
	.long	0xa364
	.byte	0
	.uleb128 0xb
	.long	0x8aa5
	.long	0x109bf
	.byte	0x3
	.long	0x109c9
	.uleb128 0x9
	.long	.LASF1303
	.long	0xa481
	.byte	0
	.uleb128 0xb
	.long	0x8c16
	.long	0x109d7
	.byte	0x3
	.long	0x109e1
	.uleb128 0x9
	.long	.LASF1303
	.long	0xa481
	.byte	0
	.uleb128 0xa
	.long	0x8c45
	.uleb128 0x14
	.long	0x8e81
	.byte	0x3
	.long	0x10a0b
	.uleb128 0x12
	.long	.LASF1403
	.byte	0x3
	.value	0x4dd
	.byte	0x2b
	.long	0x109e1
	.uleb128 0x12
	.long	.LASF1404
	.byte	0x3
	.value	0x4dd
	.byte	0x4b
	.long	0x109e1
	.byte	0
	.uleb128 0xb
	.long	0x8552
	.long	0x10a19
	.byte	0x3
	.long	0x10a23
	.uleb128 0x9
	.long	.LASF1303
	.long	0xa373
	.byte	0
	.uleb128 0xb
	.long	0x86ef
	.long	0x10a31
	.byte	0x3
	.long	0x10a3b
	.uleb128 0x9
	.long	.LASF1303
	.long	0xa373
	.byte	0
	.uleb128 0xa
	.long	0x8722
	.uleb128 0x14
	.long	0x8e9d
	.byte	0x3
	.long	0x10a65
	.uleb128 0x12
	.long	.LASF1403
	.byte	0x3
	.value	0x4dd
	.byte	0x2b
	.long	0x10a3b
	.uleb128 0x12
	.long	.LASF1404
	.byte	0x3
	.value	0x4dd
	.byte	0x4b
	.long	0x10a3b
	.byte	0
	.uleb128 0xb
	.long	0x38af
	.long	0x10a73
	.byte	0x2
	.long	0x10a7d
	.uleb128 0x9
	.long	.LASF1303
	.long	0xa328
	.byte	0
	.uleb128 0x3c
	.long	0x10a65
	.long	0x10a8a
	.long	0x10a90
	.uleb128 0x3
	.long	0x10a73
	.byte	0
	.uleb128 0xb
	.long	0x3649
	.long	0x10a9e
	.byte	0x2
	.long	0x10aa8
	.uleb128 0x9
	.long	.LASF1303
	.long	0xa305
	.byte	0
	.uleb128 0x3c
	.long	0x10a90
	.long	0x10ab5
	.long	0x10abb
	.uleb128 0x3
	.long	0x10a9e
	.byte	0
	.uleb128 0x63
	.long	0x35c7
	.byte	0x2
	.byte	0x8b
	.byte	0xe
	.long	0x10acb
	.long	0x10ad5
	.uleb128 0x9
	.long	.LASF1303
	.long	0xa2e7
	.byte	0
	.uleb128 0x3c
	.long	0x10abb
	.long	0x10ae2
	.long	0x10ae8
	.uleb128 0x3
	.long	0x10acb
	.byte	0
	.uleb128 0x63
	.long	0x9e3f
	.byte	0x4
	.byte	0xb
	.byte	0x8
	.long	0x10af8
	.long	0x10b02
	.uleb128 0x9
	.long	.LASF1303
	.long	0x9e7a
	.byte	0
	.uleb128 0x1a
	.long	0x10ae8
	.long	.LASF1405
	.long	0x10b13
	.long	0x10b19
	.uleb128 0x3
	.long	0x10af8
	.byte	0
	.uleb128 0x63
	.long	0x9e57
	.byte	0x4
	.byte	0xb
	.byte	0x8
	.long	0x10b29
	.long	0x10b33
	.uleb128 0x9
	.long	.LASF1303
	.long	0x9e7a
	.byte	0
	.uleb128 0x1a
	.long	0x10b19
	.long	.LASF1406
	.long	0x10b44
	.long	0x10b4a
	.uleb128 0x3
	.long	0x10b29
	.byte	0
	.uleb128 0xb
	.long	0x1289
	.long	0x10b58
	.byte	0x2
	.long	0x10b62
	.uleb128 0x9
	.long	.LASF1303
	.long	0x9d4f
	.byte	0
	.uleb128 0x1a
	.long	0x10b4a
	.long	.LASF1407
	.long	0x10b73
	.long	0x10b79
	.uleb128 0x3
	.long	0x10b58
	.byte	0
	.uleb128 0xb
	.long	0xff2
	.long	0x10b87
	.byte	0x2
	.long	0x10b91
	.uleb128 0x9
	.long	.LASF1303
	.long	0x9d31
	.byte	0
	.uleb128 0x1a
	.long	0x10b79
	.long	.LASF1408
	.long	0x10ba2
	.long	0x10ba8
	.uleb128 0x3
	.long	0x10b87
	.byte	0
	.uleb128 0x63
	.long	0xf61
	.byte	0x2
	.byte	0x8b
	.byte	0xe
	.long	0x10bb8
	.long	0x10bc2
	.uleb128 0x9
	.long	.LASF1303
	.long	0x9d13
	.byte	0
	.uleb128 0x1a
	.long	0x10ba8
	.long	.LASF1409
	.long	0x10bd3
	.long	0x10bd9
	.uleb128 0x3
	.long	0x10bb8
	.byte	0
	.uleb128 0xcf
	.long	.LASF1410
	.byte	0x10
	.byte	0x3f
	.byte	0x1
	.long	.LASF1411
	.long	0xa0a5
	.byte	0x3
	.long	0x10c14
	.uleb128 0x25
	.string	"__A"
	.byte	0x10
	.byte	0x3f
	.byte	0x19
	.long	0xa0a5
	.uleb128 0x25
	.string	"__B"
	.byte	0x10
	.byte	0x3f
	.byte	0x25
	.long	0xa0a5
	.uleb128 0x25
	.string	"__C"
	.byte	0x10
	.byte	0x3f
	.byte	0x31
	.long	0xa0a5
	.byte	0
	.uleb128 0x5e
	.long	.LASF1412
	.byte	0xf
	.value	0x1e9
	.long	.LASF1413
	.long	0xa0c2
	.long	0x10c36
	.uleb128 0xe
	.string	"__X"
	.byte	0xf
	.value	0x1e9
	.byte	0x1f
	.long	0xa045
	.byte	0
	.uleb128 0x5e
	.long	.LASF1414
	.byte	0xd
	.value	0x4f7
	.long	.LASF1415
	.long	0xa0a5
	.long	0x10c58
	.uleb128 0xe
	.string	"__A"
	.byte	0xd
	.value	0x4f7
	.byte	0x17
	.long	0x30
	.byte	0
	.uleb128 0xd0
	.long	.LASF1416
	.byte	0xd
	.value	0x355
	.byte	0x1
	.long	.LASF1417
	.byte	0x3
	.long	0x10c86
	.uleb128 0xe
	.string	"__P"
	.byte	0xd
	.value	0x355
	.byte	0x1a
	.long	0xa49f
	.uleb128 0xe
	.string	"__A"
	.byte	0xd
	.value	0x355
	.byte	0x26
	.long	0xa0a5
	.byte	0
	.uleb128 0x5e
	.long	.LASF1418
	.byte	0xd
	.value	0x34f
	.long	.LASF1419
	.long	0xa0a5
	.long	0x10ca8
	.uleb128 0xe
	.string	"__P"
	.byte	0xd
	.value	0x34f
	.byte	0x1f
	.long	0xa4b8
	.byte	0
	.uleb128 0x5e
	.long	.LASF1420
	.byte	0xd
	.value	0x195
	.long	.LASF1421
	.long	0xa0a5
	.long	0x10cca
	.uleb128 0xe
	.string	"__A"
	.byte	0xd
	.value	0x195
	.byte	0x1d
	.long	0xa0c2
	.byte	0
	.uleb128 0x5e
	.long	.LASF1422
	.byte	0xe
	.value	0x2c7
	.long	.LASF1423
	.long	0xa045
	.long	0x10cec
	.uleb128 0xe
	.string	"__P"
	.byte	0xe
	.value	0x2c7
	.byte	0x23
	.long	0x10cec
	.byte	0
	.uleb128 0xd
	.long	0xa069
	.uleb128 0x5e
	.long	.LASF1424
	.byte	0xe
	.value	0x258
	.long	.LASF1425
	.long	0xa045
	.long	0x10d20
	.uleb128 0x12
	.long	.LASF1426
	.byte	0xe
	.value	0x258
	.byte	0x16
	.long	0x9efa
	.uleb128 0x12
	.long	.LASF1427
	.byte	0xe
	.value	0x258
	.byte	0x23
	.long	0x9efa
	.byte	0
	.uleb128 0x5e
	.long	.LASF1428
	.byte	0xe
	.value	0x252
	.long	.LASF1429
	.long	0xa045
	.long	0x10d4f
	.uleb128 0x12
	.long	.LASF1426
	.byte	0xe
	.value	0x252
	.byte	0x1b
	.long	0x8f03
	.uleb128 0x12
	.long	.LASF1427
	.byte	0xe
	.value	0x252
	.byte	0x2b
	.long	0x8f03
	.byte	0
	.uleb128 0x14
	.long	0x74e1
	.byte	0x3
	.long	0x10d67
	.uleb128 0xe
	.string	"__x"
	.byte	0x9
	.value	0x108
	.byte	0xf
	.long	0x30
	.byte	0
	.uleb128 0x14
	.long	0x74fc
	.byte	0x3
	.long	0x10d7f
	.uleb128 0xe
	.string	"__n"
	.byte	0xa
	.value	0x3fd
	.byte	0x23
	.long	0x3e
	.byte	0
	.uleb128 0xd1
	.long	.LASF1299
	.byte	0x49
	.byte	0xb1
	.byte	0x23
	.long	.LASF1430
	.byte	0x3
	.long	0x10d9c
	.uleb128 0x1
	.long	0x7568
	.uleb128 0x1
	.long	0x7568
	.byte	0
	.uleb128 0xd2
	.long	.LASF1301
	.byte	0x49
	.byte	0xa8
	.byte	0x7
	.long	.LASF1431
	.long	0x7568
	.byte	0x3
	.long	0x10dc4
	.uleb128 0x1
	.long	0x2c3
	.uleb128 0x25
	.string	"__p"
	.byte	0x49
	.byte	0xa8
	.byte	0x27
	.long	0x7568
	.byte	0
	.uleb128 0x82
	.long	.LASF1432
	.long	.LASF1434
	.uleb128 0x82
	.long	.LASF1433
	.long	.LASF1435
	.uleb128 0x82
	.long	.LASF1436
	.long	.LASF1437
	.byte	0
	.section	.debug_abbrev,"",@progbits
.Ldebug_abbrev0:
	.uleb128 0x1
	.uleb128 0x5
	.byte	0
	.uleb128 0x49
	.uleb128 0x13
	.byte	0
	.byte	0
	.uleb128 0x2
	.uleb128 0x5
	.byte	0
	.uleb128 0x49
	.uleb128 0x13
	.uleb128 0x34
	.uleb128 0x19
	.byte	0
	.byte	0
	.uleb128 0x3
	.uleb128 0x5
	.byte	0
	.uleb128 0x31
	.uleb128 0x13
	.byte	0
	.byte	0
	.uleb128 0x4
	.uleb128 0x5
	.byte	0
	.uleb128 0x31
	.uleb128 0x13
	.uleb128 0x2
	.uleb128 0x17
	.uleb128 0x2137
	.uleb128 0x17
	.byte	0
	.byte	0
	.uleb128 0x5
	.uleb128 0x8
	.byte	0
	.uleb128 0x3a
	.uleb128 0xb
	.uleb128 0x3b
	.uleb128 0xb
	.uleb128 0x39
	.uleb128 0xb
	.uleb128 0x18
	.uleb128 0x13
	.byte	0
	.byte	0
	.uleb128 0x6
	.uleb128 0x2e
	.byte	0x1
	.uleb128 0x3f
	.uleb128 0x19
	.uleb128 0x3
	.uleb128 0xe
	.uleb128 0x3a
	.uleb128 0xb
	.uleb128 0x3b
	.uleb128 0x5
	.uleb128 0x39
	.uleb128 0xb
	.uleb128 0x6e
	.uleb128 0xe
	.uleb128 0x49
	.uleb128 0x13
	.uleb128 0x32
	.uleb128 0xb
	.uleb128 0x3c
	.uleb128 0x19
	.uleb128 0x64
	.uleb128 0x13
	.uleb128 0x1
	.uleb128 0x13
	.byte	0
	.byte	0
	.uleb128 0x7
	.uleb128 0x26
	.byte	0
	.uleb128 0x49
	.uleb128 0x13
	.byte	0
	.byte	0
	.uleb128 0x8
	.uleb128 0x16
	.byte	0
	.uleb128 0x3
	.uleb128 0xe
	.uleb128 0x3a
	.uleb128 0xb
	.uleb128 0x3b
	.uleb128 0xb
	.uleb128 0x39
	.uleb128 0xb
	.uleb128 0x49
	.uleb128 0x13
	.byte	0
	.byte	0
	.uleb128 0x9
	.uleb128 0x5
	.byte	0
	.uleb128 0x3
	.uleb128 0xe
	.uleb128 0x49
	.uleb128 0x13
	.uleb128 0x34
	.uleb128 0x19
	.byte	0
	.byte	0
	.uleb128 0xa
	.uleb128 0x10
	.byte	0
	.uleb128 0xb
	.uleb128 0x21
	.sleb128 8
	.uleb128 0x49
	.uleb128 0x13
	.byte	0
	.byte	0
	.uleb128 0xb
	.uleb128 0x2e
	.byte	0x1
	.uleb128 0x47
	.uleb128 0x13
	.uleb128 0x64
	.uleb128 0x13
	.uleb128 0x20
	.uleb128 0xb
	.uleb128 0x1
	.uleb128 0x13
	.byte	0
	.byte	0
	.uleb128 0xc
	.uleb128 0x2f
	.byte	0
	.uleb128 0x3
	.uleb128 0xe
	.uleb128 0x49
	.uleb128 0x13
	.byte	0
	.byte	0
	.uleb128 0xd
	.uleb128 0xf
	.byte	0
	.uleb128 0xb
	.uleb128 0x21
	.sleb128 8
	.uleb128 0x49
	.uleb128 0x13
	.byte	0
	.byte	0
	.uleb128 0xe
	.uleb128 0x5
	.byte	0
	.uleb128 0x3
	.uleb128 0x8
	.uleb128 0x3a
	.uleb128 0xb
	.uleb128 0x3b
	.uleb128 0x5
	.uleb128 0x39
	.uleb128 0xb
	.uleb128 0x49
	.uleb128 0x13
	.byte	0
	.byte	0
	.uleb128 0xf
	.uleb128 0xd
	.byte	0
	.uleb128 0x3
	.uleb128 0xe
	.uleb128 0x3a
	.uleb128 0xb
	.uleb128 0x3b
	.uleb128 0xb
	.uleb128 0x39
	.uleb128 0xb
	.uleb128 0x49
	.uleb128 0x13
	.uleb128 0x38
	.uleb128 0xb
	.byte	0
	.byte	0
	.uleb128 0x10
	.uleb128 0x2e
	.byte	0x1
	.uleb128 0x3f
	.uleb128 0x19
	.uleb128 0x3
	.uleb128 0xe
	.uleb128 0x3a
	.uleb128 0xb
	.uleb128 0x3b
	.uleb128 0x5
	.uleb128 0x39
	.uleb128 0xb
	.uleb128 0x6e
	.uleb128 0xe
	.uleb128 0x32
	.uleb128 0xb
	.uleb128 0x3c
	.uleb128 0x19
	.uleb128 0x64
	.uleb128 0x13
	.uleb128 0x1
	.uleb128 0x13
	.byte	0
	.byte	0
	.uleb128 0x11
	.uleb128 0x2f
	.byte	0
	.uleb128 0x3
	.uleb128 0x8
	.uleb128 0x49
	.uleb128 0x13
	.byte	0
	.byte	0
	.uleb128 0x12
	.uleb128 0x5
	.byte	0
	.uleb128 0x3
	.uleb128 0xe
	.uleb128 0x3a
	.uleb128 0xb
	.uleb128 0x3b
	.uleb128 0x5
	.uleb128 0x39
	.uleb128 0xb
	.uleb128 0x49
	.uleb128 0x13
	.byte	0
	.byte	0
	.uleb128 0x13
	.uleb128 0x16
	.byte	0
	.uleb128 0x3
	.uleb128 0xe
	.uleb128 0x3a
	.uleb128 0xb
	.uleb128 0x3b
	.uleb128 0x5
	.uleb128 0x39
	.uleb128 0xb
	.uleb128 0x49
	.uleb128 0x13
	.uleb128 0x32
	.uleb128 0x21
	.sleb128 1
	.byte	0
	.byte	0
	.uleb128 0x14
	.uleb128 0x2e
	.byte	0x1
	.uleb128 0x47
	.uleb128 0x13
	.uleb128 0x20
	.uleb128 0xb
	.uleb128 0x1
	.uleb128 0x13
	.byte	0
	.byte	0
	.uleb128 0x15
	.uleb128 0x2e
	.byte	0x1
	.uleb128 0x3f
	.uleb128 0x19
	.uleb128 0x3
	.uleb128 0xe
	.uleb128 0x3a
	.uleb128 0xb
	.uleb128 0x3b
	.uleb128 0x5
	.uleb128 0x39
	.uleb128 0xb
	.uleb128 0x49
	.uleb128 0x13
	.uleb128 0x3c
	.uleb128 0x19
	.uleb128 0x1
	.uleb128 0x13
	.byte	0
	.byte	0
	.uleb128 0x16
	.uleb128 0x2e
	.byte	0x1
	.uleb128 0x3f
	.uleb128 0x19
	.uleb128 0x3
	.uleb128 0xe
	.uleb128 0x3a
	.uleb128 0xb
	.uleb128 0x3b
	.uleb128 0x5
	.uleb128 0x39
	.uleb128 0xb
	.uleb128 0x6e
	.uleb128 0xe
	.uleb128 0x49
	.uleb128 0x13
	.uleb128 0x3c
	.uleb128 0x19
	.uleb128 0x1
	.uleb128 0x13
	.byte	0
	.byte	0
	.uleb128 0x17
	.uleb128 0x1d
	.byte	0x1
	.uleb128 0x31
	.uleb128 0x13
	.uleb128 0x52
	.uleb128 0x1
	.uleb128 0x2138
	.uleb128 0x5
	.uleb128 0x55
	.uleb128 0x17
	.uleb128 0x58
	.uleb128 0xb
	.uleb128 0x59
	.uleb128 0x5
	.uleb128 0x57
	.uleb128 0xb
	.byte	0
	.byte	0
	.uleb128 0x18
	.uleb128 0x8
	.byte	0
	.uleb128 0x3a
	.uleb128 0xb
	.uleb128 0x3b
	.uleb128 0x5
	.uleb128 0x39
	.uleb128 0xb
	.uleb128 0x18
	.uleb128 0x13
	.byte	0
	.byte	0
	.uleb128 0x19
	.uleb128 0x1d
	.byte	0x1
	.uleb128 0x31
	.uleb128 0x13
	.uleb128 0x52
	.uleb128 0x1
	.uleb128 0x2138
	.uleb128 0x5
	.uleb128 0x11
	.uleb128 0x1
	.uleb128 0x12
	.uleb128 0x7
	.uleb128 0x58
	.uleb128 0xb
	.uleb128 0x59
	.uleb128 0x5
	.uleb128 0x57
	.uleb128 0xb
	.byte	0
	.byte	0
	.uleb128 0x1a
	.uleb128 0x2e
	.byte	0x1
	.uleb128 0x31
	.uleb128 0x13
	.uleb128 0x6e
	.uleb128 0xe
	.uleb128 0x64
	.uleb128 0x13
	.uleb128 0x1
	.uleb128 0x13
	.byte	0
	.byte	0
	.uleb128 0x1b
	.uleb128 0x13
	.byte	0x1
	.uleb128 0x3
	.uleb128 0xe
	.uleb128 0xb
	.uleb128 0xb
	.uleb128 0x3a
	.uleb128 0xb
	.uleb128 0x3b
	.uleb128 0xb
	.uleb128 0x39
	.uleb128 0xb
	.uleb128 0x1
	.uleb128 0x13
	.byte	0
	.byte	0
	.uleb128 0x1c
	.uleb128 0x2e
	.byte	0x1
	.uleb128 0x3f
	.uleb128 0x19
	.uleb128 0x3
	.uleb128 0xe
	.uleb128 0x3a
	.uleb128 0x21
	.sleb128 2
	.uleb128 0x3b
	.uleb128 0x5
	.uleb128 0x39
	.uleb128 0x21
	.sleb128 7
	.uleb128 0x6e
	.uleb128 0xe
	.uleb128 0x3c
	.uleb128 0x19
	.uleb128 0x64
	.uleb128 0x13
	.uleb128 0x1
	.uleb128 0x13
	.byte	0
	.byte	0
	.uleb128 0x1d
	.uleb128 0x16
	.byte	0
	.uleb128 0x3
	.uleb128 0xe
	.uleb128 0x3a
	.uleb128 0xb
	.uleb128 0x3b
	.uleb128 0x5
	.uleb128 0x39
	.uleb128 0xb
	.uleb128 0x49
	.uleb128 0x13
	.byte	0
	.byte	0
	.uleb128 0x1e
	.uleb128 0x2e
	.byte	0x1
	.uleb128 0x3
	.uleb128 0xe
	.uleb128 0x3a
	.uleb128 0xb
	.uleb128 0x3b
	.uleb128 0x5
	.uleb128 0x39
	.uleb128 0xb
	.uleb128 0x49
	.uleb128 0x13
	.uleb128 0x32
	.uleb128 0xb
	.uleb128 0x3c
	.uleb128 0x19
	.uleb128 0x64
	.uleb128 0x13
	.uleb128 0x1
	.uleb128 0x13
	.byte	0
	.byte	0
	.uleb128 0x1f
	.uleb128 0x49
	.byte	0
	.uleb128 0x2
	.uleb128 0x18
	.uleb128 0x7e
	.uleb128 0x18
	.byte	0
	.byte	0
	.uleb128 0x20
	.uleb128 0x2e
	.byte	0x1
	.uleb128 0x3f
	.uleb128 0x19
	.uleb128 0x3
	.uleb128 0xe
	.uleb128 0x3a
	.uleb128 0xb
	.uleb128 0x3b
	.uleb128 0xb
	.uleb128 0x39
	.uleb128 0xb
	.uleb128 0x6e
	.uleb128 0xe
	.uleb128 0x3c
	.uleb128 0x19
	.uleb128 0x64
	.uleb128 0x13
	.uleb128 0x1
	.uleb128 0x13
	.byte	0
	.byte	0
	.uleb128 0x21
	.uleb128 0x2e
	.byte	0x1
	.uleb128 0x3f
	.uleb128 0x19
	.uleb128 0x3
	.uleb128 0xe
	.uleb128 0x3a
	.uleb128 0xb
	.uleb128 0x3b
	.uleb128 0xb
	.uleb128 0x39
	.uleb128 0xb
	.uleb128 0x6e
	.uleb128 0xe
	.uleb128 0x32
	.uleb128 0xb
	.uleb128 0x3c
	.uleb128 0x19
	.uleb128 0x64
	.uleb128 0x13
	.uleb128 0x1
	.uleb128 0x13
	.byte	0
	.byte	0
	.uleb128 0x22
	.uleb128 0x2e
	.byte	0x1
	.uleb128 0x3f
	.uleb128 0x19
	.uleb128 0x3
	.uleb128 0xe
	.uleb128 0x3a
	.uleb128 0xb
	.uleb128 0x3b
	.uleb128 0xb
	.uleb128 0x39
	.uleb128 0xb
	.uleb128 0x6e
	.uleb128 0xe
	.uleb128 0x49
	.uleb128 0x13
	.uleb128 0x32
	.uleb128 0xb
	.uleb128 0x3c
	.uleb128 0x19
	.uleb128 0x64
	.uleb128 0x13
	.uleb128 0x1
	.uleb128 0x13
	.byte	0
	.byte	0
	.uleb128 0x23
	.uleb128 0x1d
	.byte	0x1
	.uleb128 0x31
	.uleb128 0x13
	.uleb128 0x52
	.uleb128 0x1
	.uleb128 0x2138
	.uleb128 0x5
	.uleb128 0x11
	.uleb128 0x1
	.uleb128 0x12
	.uleb128 0x7
	.uleb128 0x58
	.uleb128 0xb
	.uleb128 0x59
	.uleb128 0xb
	.uleb128 0x57
	.uleb128 0xb
	.byte	0
	.byte	0
	.uleb128 0x24
	.uleb128 0x2e
	.byte	0x1
	.uleb128 0x3f
	.uleb128 0x19
	.uleb128 0x3
	.uleb128 0xe
	.uleb128 0x3a
	.uleb128 0xb
	.uleb128 0x3b
	.uleb128 0xb
	.uleb128 0x39
	.uleb128 0xb
	.uleb128 0x49
	.uleb128 0x13
	.uleb128 0x3c
	.uleb128 0x19
	.uleb128 0x1
	.uleb128 0x13
	.byte	0
	.byte	0
	.uleb128 0x25
	.uleb128 0x5
	.byte	0
	.uleb128 0x3
	.uleb128 0x8
	.uleb128 0x3a
	.uleb128 0xb
	.uleb128 0x3b
	.uleb128 0xb
	.uleb128 0x39
	.uleb128 0xb
	.uleb128 0x49
	.uleb128 0x13
	.byte	0
	.byte	0
	.uleb128 0x26
	.uleb128 0x16
	.byte	0
	.uleb128 0x3
	.uleb128 0xe
	.uleb128 0x3a
	.uleb128 0xb
	.uleb128 0x3b
	.uleb128 0xb
	.uleb128 0x39
	.uleb128 0xb
	.uleb128 0x49
	.uleb128 0x13
	.uleb128 0x32
	.uleb128 0x21
	.sleb128 1
	.byte	0
	.byte	0
	.uleb128 0x27
	.uleb128 0x42
	.byte	0
	.uleb128 0xb
	.uleb128 0x21
	.sleb128 8
	.uleb128 0x49
	.uleb128 0x13
	.byte	0
	.byte	0
	.uleb128 0x28
	.uleb128 0x34
	.byte	0
	.uleb128 0x3
	.uleb128 0xe
	.uleb128 0x3a
	.uleb128 0xb
	.uleb128 0x3b
	.uleb128 0x5
	.uleb128 0x39
	.uleb128 0xb
	.uleb128 0x49
	.uleb128 0x13
	.byte	0
	.byte	0
	.uleb128 0x29
	.uleb128 0x24
	.byte	0
	.uleb128 0xb
	.uleb128 0xb
	.uleb128 0x3e
	.uleb128 0xb
	.uleb128 0x3
	.uleb128 0xe
	.byte	0
	.byte	0
	.uleb128 0x2a
	.uleb128 0x2e
	.byte	0x1
	.uleb128 0x3
	.uleb128 0xe
	.uleb128 0x3a
	.uleb128 0xb
	.uleb128 0x3b
	.uleb128 0x5
	.uleb128 0x39
	.uleb128 0xb
	.uleb128 0x32
	.uleb128 0xb
	.uleb128 0x3c
	.uleb128 0x19
	.uleb128 0x64
	.uleb128 0x13
	.uleb128 0x1
	.uleb128 0x13
	.byte	0
	.byte	0
	.uleb128 0x2b
	.uleb128 0x34
	.byte	0
	.uleb128 0x3
	.uleb128 0x8
	.uleb128 0x3a
	.uleb128 0x21
	.sleb128 1
	.uleb128 0x3b
	.uleb128 0xb
	.uleb128 0x39
	.uleb128 0xb
	.uleb128 0x49
	.uleb128 0x13
	.uleb128 0x2
	.uleb128 0x17
	.uleb128 0x2137
	.uleb128 0x17
	.byte	0
	.byte	0
	.uleb128 0x2c
	.uleb128 0x48
	.byte	0x1
	.uleb128 0x7d
	.uleb128 0x1
	.uleb128 0x7f
	.uleb128 0x13
	.byte	0
	.byte	0
	.uleb128 0x2d
	.uleb128 0x1d
	.byte	0x1
	.uleb128 0x31
	.uleb128 0x13
	.uleb128 0x52
	.uleb128 0x1
	.uleb128 0x2138
	.uleb128 0x5
	.uleb128 0x11
	.uleb128 0x1
	.uleb128 0x12
	.uleb128 0x7
	.uleb128 0x58
	.uleb128 0xb
	.uleb128 0x59
	.uleb128 0x5
	.uleb128 0x57
	.uleb128 0xb
	.uleb128 0x1
	.uleb128 0x13
	.byte	0
	.byte	0
	.uleb128 0x2e
	.uleb128 0x1d
	.byte	0x1
	.uleb128 0x31
	.uleb128 0x13
	.uleb128 0x52
	.uleb128 0x1
	.uleb128 0x2138
	.uleb128 0x5
	.uleb128 0x11
	.uleb128 0x1
	.uleb128 0x12
	.uleb128 0x7
	.uleb128 0x58
	.uleb128 0xb
	.uleb128 0x59
	.uleb128 0xb
	.uleb128 0x57
	.uleb128 0xb
	.uleb128 0x1
	.uleb128 0x13
	.byte	0
	.byte	0
	.uleb128 0x2f
	.uleb128 0x1d
	.byte	0x1
	.uleb128 0x31
	.uleb128 0x13
	.uleb128 0x52
	.uleb128 0x1
	.uleb128 0x2138
	.uleb128 0x5
	.uleb128 0x55
	.uleb128 0x17
	.uleb128 0x58
	.uleb128 0xb
	.uleb128 0x59
	.uleb128 0xb
	.uleb128 0x57
	.uleb128 0xb
	.uleb128 0x1
	.uleb128 0x13
	.byte	0
	.byte	0
	.uleb128 0x30
	.uleb128 0x2
	.byte	0
	.uleb128 0x3
	.uleb128 0xe
	.uleb128 0x3c
	.uleb128 0x19
	.byte	0
	.byte	0
	.uleb128 0x31
	.uleb128 0x2e
	.byte	0
	.uleb128 0x3f
	.uleb128 0x19
	.uleb128 0x3
	.uleb128 0xe
	.uleb128 0x3a
	.uleb128 0x21
	.sleb128 50
	.uleb128 0x3b
	.uleb128 0xb
	.uleb128 0x39
	.uleb128 0x21
	.sleb128 27
	.uleb128 0x6e
	.uleb128 0xe
	.uleb128 0x49
	.uleb128 0x13
	.uleb128 0x3c
	.uleb128 0x19
	.byte	0
	.byte	0
	.uleb128 0x32
	.uleb128 0x2e
	.byte	0x1
	.uleb128 0x3f
	.uleb128 0x19
	.uleb128 0x3
	.uleb128 0xe
	.uleb128 0x3a
	.uleb128 0xb
	.uleb128 0x3b
	.uleb128 0xb
	.uleb128 0x39
	.uleb128 0xb
	.uleb128 0x6e
	.uleb128 0xe
	.uleb128 0x49
	.uleb128 0x13
	.uleb128 0x3c
	.uleb128 0x19
	.uleb128 0x1
	.uleb128 0x13
	.byte	0
	.byte	0
	.uleb128 0x33
	.uleb128 0x1c
	.byte	0
	.uleb128 0x49
	.uleb128 0x13
	.uleb128 0x38
	.uleb128 0x21
	.sleb128 0
	.byte	0
	.byte	0
	.uleb128 0x34
	.uleb128 0x2e
	.byte	0x1
	.uleb128 0x3f
	.uleb128 0x19
	.uleb128 0x3
	.uleb128 0xe
	.uleb128 0x3a
	.uleb128 0x21
	.sleb128 2
	.uleb128 0x3b
	.uleb128 0x5
	.uleb128 0x39
	.uleb128 0xb
	.uleb128 0x6e
	.uleb128 0xe
	.uleb128 0x49
	.uleb128 0x13
	.uleb128 0x3c
	.uleb128 0x19
	.uleb128 0x64
	.uleb128 0x13
	.uleb128 0x1
	.uleb128 0x13
	.byte	0
	.byte	0
	.uleb128 0x35
	.uleb128 0x34
	.byte	0
	.uleb128 0x31
	.uleb128 0x13
	.byte	0
	.byte	0
	.uleb128 0x36
	.uleb128 0x2e
	.byte	0x1
	.uleb128 0x3f
	.uleb128 0x19
	.uleb128 0x3
	.uleb128 0x8
	.uleb128 0x3a
	.uleb128 0x21
	.sleb128 2
	.uleb128 0x3b
	.uleb128 0x5
	.uleb128 0x39
	.uleb128 0x21
	.sleb128 7
	.uleb128 0x6e
	.uleb128 0xe
	.uleb128 0x49
	.uleb128 0x13
	.uleb128 0x32
	.uleb128 0x21
	.sleb128 1
	.uleb128 0x3c
	.uleb128 0x19
	.uleb128 0x64
	.uleb128 0x13
	.uleb128 0x1
	.uleb128 0x13
	.byte	0
	.byte	0
	.uleb128 0x37
	.uleb128 0x1d
	.byte	0x1
	.uleb128 0x31
	.uleb128 0x13
	.uleb128 0x52
	.uleb128 0x1
	.uleb128 0x2138
	.uleb128 0x5
	.uleb128 0x55
	.uleb128 0x17
	.uleb128 0x58
	.uleb128 0xb
	.uleb128 0x59
	.uleb128 0x5
	.uleb128 0x57
	.uleb128 0xb
	.uleb128 0x1
	.uleb128 0x13
	.byte	0
	.byte	0
	.uleb128 0x38
	.uleb128 0x5
	.byte	0
	.uleb128 0x3
	.uleb128 0xe
	.uleb128 0x3a
	.uleb128 0xb
	.uleb128 0x3b
	.uleb128 0xb
	.uleb128 0x39
	.uleb128 0xb
	.uleb128 0x49
	.uleb128 0x13
	.byte	0
	.byte	0
	.uleb128 0x39
	.uleb128 0x34
	.byte	0
	.uleb128 0x3
	.uleb128 0xe
	.uleb128 0x3a
	.uleb128 0xb
	.uleb128 0x3b
	.uleb128 0xb
	.uleb128 0x39
	.uleb128 0xb
	.uleb128 0x49
	.uleb128 0x13
	.byte	0
	.byte	0
	.uleb128 0x3a
	.uleb128 0x34
	.byte	0
	.uleb128 0x31
	.uleb128 0x13
	.uleb128 0x2
	.uleb128 0x17
	.uleb128 0x2137
	.uleb128 0x17
	.byte	0
	.byte	0
	.uleb128 0x3b
	.uleb128 0x2e
	.byte	0x1
	.uleb128 0x3
	.uleb128 0xe
	.uleb128 0x3a
	.uleb128 0x21
	.sleb128 2
	.uleb128 0x3b
	.uleb128 0x5
	.uleb128 0x39
	.uleb128 0xb
	.uleb128 0x3c
	.uleb128 0x19
	.uleb128 0x64
	.uleb128 0x13
	.uleb128 0x1
	.uleb128 0x13
	.byte	0
	.byte	0
	.uleb128 0x3c
	.uleb128 0x2e
	.byte	0x1
	.uleb128 0x31
	.uleb128 0x13
	.uleb128 0x64
	.uleb128 0x13
	.uleb128 0x1
	.uleb128 0x13
	.byte	0
	.byte	0
	.uleb128 0x3d
	.uleb128 0x1d
	.byte	0x1
	.uleb128 0x31
	.uleb128 0x13
	.uleb128 0x52
	.uleb128 0x1
	.uleb128 0x2138
	.uleb128 0x5
	.uleb128 0x55
	.uleb128 0x17
	.uleb128 0x58
	.uleb128 0xb
	.uleb128 0x59
	.uleb128 0xb
	.uleb128 0x57
	.uleb128 0xb
	.uleb128 0x2136
	.uleb128 0xb
	.uleb128 0x1
	.uleb128 0x13
	.byte	0
	.byte	0
	.uleb128 0x3e
	.uleb128 0x2
	.byte	0x1
	.uleb128 0x3
	.uleb128 0xe
	.uleb128 0xb
	.uleb128 0xb
	.uleb128 0x3a
	.uleb128 0xb
	.uleb128 0x3b
	.uleb128 0xb
	.uleb128 0x39
	.uleb128 0x21
	.sleb128 11
	.uleb128 0x1
	.uleb128 0x13
	.byte	0
	.byte	0
	.uleb128 0x3f
	.uleb128 0x34
	.byte	0
	.uleb128 0x3
	.uleb128 0xe
	.uleb128 0x3a
	.uleb128 0x21
	.sleb128 1
	.uleb128 0x3b
	.uleb128 0xb
	.uleb128 0x39
	.uleb128 0xb
	.uleb128 0x49
	.uleb128 0x13
	.uleb128 0x2
	.uleb128 0x17
	.uleb128 0x2137
	.uleb128 0x17
	.byte	0
	.byte	0
	.uleb128 0x40
	.uleb128 0x2e
	.byte	0x1
	.uleb128 0x3f
	.uleb128 0x19
	.uleb128 0x3
	.uleb128 0xe
	.uleb128 0x3a
	.uleb128 0xb
	.uleb128 0x3b
	.uleb128 0x5
	.uleb128 0x39
	.uleb128 0xb
	.uleb128 0x6e
	.uleb128 0xe
	.uleb128 0x3c
	.uleb128 0x19
	.uleb128 0x1
	.uleb128 0x13
	.byte	0
	.byte	0
	.uleb128 0x41
	.uleb128 0xd
	.byte	0
	.uleb128 0x3
	.uleb128 0x8
	.uleb128 0x3a
	.uleb128 0xb
	.uleb128 0x3b
	.uleb128 0xb
	.uleb128 0x39
	.uleb128 0xb
	.uleb128 0x49
	.uleb128 0x13
	.uleb128 0x38
	.uleb128 0xb
	.byte	0
	.byte	0
	.uleb128 0x42
	.uleb128 0x2e
	.byte	0x1
	.uleb128 0x3f
	.uleb128 0x19
	.uleb128 0x3
	.uleb128 0xe
	.uleb128 0x3a
	.uleb128 0xb
	.uleb128 0x3b
	.uleb128 0xb
	.uleb128 0x39
	.uleb128 0xb
	.uleb128 0x6e
	.uleb128 0xe
	.uleb128 0x49
	.uleb128 0x13
	.uleb128 0x3c
	.uleb128 0x19
	.uleb128 0x64
	.uleb128 0x13
	.uleb128 0x1
	.uleb128 0x13
	.byte	0
	.byte	0
	.uleb128 0x43
	.uleb128 0x2e
	.byte	0x1
	.uleb128 0x3f
	.uleb128 0x19
	.uleb128 0x3
	.uleb128 0xe
	.uleb128 0x3a
	.uleb128 0xb
	.uleb128 0x3b
	.uleb128 0x5
	.uleb128 0x39
	.uleb128 0x21
	.sleb128 7
	.uleb128 0x6e
	.uleb128 0xe
	.uleb128 0x32
	.uleb128 0x21
	.sleb128 1
	.uleb128 0x3c
	.uleb128 0x19
	.uleb128 0x63
	.uleb128 0x19
	.uleb128 0x64
	.uleb128 0x13
	.uleb128 0x1
	.uleb128 0x13
	.byte	0
	.byte	0
	.uleb128 0x44
	.uleb128 0x2e
	.byte	0x1
	.uleb128 0x3
	.uleb128 0xe
	.uleb128 0x3a
	.uleb128 0xb
	.uleb128 0x3b
	.uleb128 0x5
	.uleb128 0x39
	.uleb128 0xb
	.uleb128 0x49
	.uleb128 0x13
	.uleb128 0x3c
	.uleb128 0x19
	.uleb128 0x1
	.uleb128 0x13
	.byte	0
	.byte	0
	.uleb128 0x45
	.uleb128 0xb
	.byte	0x1
	.byte	0
	.byte	0
	.uleb128 0x46
	.uleb128 0x1c
	.byte	0
	.uleb128 0x49
	.uleb128 0x13
	.uleb128 0x38
	.uleb128 0x21
	.sleb128 0
	.uleb128 0x32
	.uleb128 0xb
	.byte	0
	.byte	0
	.uleb128 0x47
	.uleb128 0x4107
	.byte	0x1
	.uleb128 0x3
	.uleb128 0xe
	.uleb128 0x1
	.uleb128 0x13
	.byte	0
	.byte	0
	.uleb128 0x48
	.uleb128 0x2f
	.byte	0
	.uleb128 0x49
	.uleb128 0x13
	.byte	0
	.byte	0
	.uleb128 0x49
	.uleb128 0x2e
	.byte	0x1
	.uleb128 0x3f
	.uleb128 0x19
	.uleb128 0x3
	.uleb128 0xe
	.uleb128 0x3a
	.uleb128 0xb
	.uleb128 0x3b
	.uleb128 0xb
	.uleb128 0x39
	.uleb128 0xb
	.uleb128 0x6e
	.uleb128 0xe
	.uleb128 0x3c
	.uleb128 0x19
	.uleb128 0x1
	.uleb128 0x13
	.byte	0
	.byte	0
	.uleb128 0x4a
	.uleb128 0xb
	.byte	0x1
	.uleb128 0x55
	.uleb128 0x17
	.byte	0
	.byte	0
	.uleb128 0x4b
	.uleb128 0x2
	.byte	0x1
	.uleb128 0x3
	.uleb128 0xe
	.uleb128 0xb
	.uleb128 0xb
	.uleb128 0x3a
	.uleb128 0xb
	.uleb128 0x3b
	.uleb128 0x5
	.uleb128 0x39
	.uleb128 0x21
	.sleb128 11
	.uleb128 0x1
	.uleb128 0x13
	.byte	0
	.byte	0
	.uleb128 0x4c
	.uleb128 0x2e
	.byte	0x1
	.uleb128 0x3f
	.uleb128 0x19
	.uleb128 0x3
	.uleb128 0x8
	.uleb128 0x3a
	.uleb128 0xb
	.uleb128 0x3b
	.uleb128 0xb
	.uleb128 0x39
	.uleb128 0x21
	.sleb128 3
	.uleb128 0x6e
	.uleb128 0xe
	.uleb128 0x49
	.uleb128 0x13
	.uleb128 0x3c
	.uleb128 0x19
	.uleb128 0x1
	.uleb128 0x13
	.byte	0
	.byte	0
	.uleb128 0x4d
	.uleb128 0x1d
	.byte	0x1
	.uleb128 0x31
	.uleb128 0x13
	.uleb128 0x52
	.uleb128 0x1
	.uleb128 0x2138
	.uleb128 0x5
	.uleb128 0x55
	.uleb128 0x17
	.uleb128 0x58
	.uleb128 0xb
	.uleb128 0x59
	.uleb128 0xb
	.uleb128 0x57
	.uleb128 0xb
	.byte	0
	.byte	0
	.uleb128 0x4e
	.uleb128 0x48
	.byte	0
	.uleb128 0x7d
	.uleb128 0x1
	.uleb128 0x83
	.uleb128 0x18
	.byte	0
	.byte	0
	.uleb128 0x4f
	.uleb128 0x2e
	.byte	0x1
	.uleb128 0x3f
	.uleb128 0x19
	.uleb128 0x3
	.uleb128 0xe
	.uleb128 0x3a
	.uleb128 0xb
	.uleb128 0x3b
	.uleb128 0xb
	.uleb128 0x39
	.uleb128 0xb
	.uleb128 0x6e
	.uleb128 0xe
	.uleb128 0x49
	.uleb128 0x13
	.uleb128 0x32
	.uleb128 0x21
	.sleb128 1
	.uleb128 0x3c
	.uleb128 0x19
	.uleb128 0x8b
	.uleb128 0x21
	.sleb128 1
	.uleb128 0x64
	.uleb128 0x13
	.uleb128 0x1
	.uleb128 0x13
	.byte	0
	.byte	0
	.uleb128 0x50
	.uleb128 0x2e
	.byte	0x1
	.uleb128 0x3f
	.uleb128 0x19
	.uleb128 0x3
	.uleb128 0xe
	.uleb128 0x3a
	.uleb128 0x21
	.sleb128 2
	.uleb128 0x3b
	.uleb128 0x5
	.uleb128 0x39
	.uleb128 0x21
	.sleb128 7
	.uleb128 0x6e
	.uleb128 0xe
	.uleb128 0x3c
	.uleb128 0x19
	.uleb128 0x8b
	.uleb128 0x21
	.sleb128 1
	.uleb128 0x64
	.uleb128 0x13
	.uleb128 0x1
	.uleb128 0x13
	.byte	0
	.byte	0
	.uleb128 0x51
	.uleb128 0xd
	.byte	0
	.uleb128 0x3
	.uleb128 0xe
	.uleb128 0x3a
	.uleb128 0x21
	.sleb128 2
	.uleb128 0x3b
	.uleb128 0x5
	.uleb128 0x39
	.uleb128 0xb
	.uleb128 0x49
	.uleb128 0x13
	.uleb128 0x38
	.uleb128 0xb
	.byte	0
	.byte	0
	.uleb128 0x52
	.uleb128 0x2e
	.byte	0x1
	.uleb128 0x3f
	.uleb128 0x19
	.uleb128 0x3
	.uleb128 0xe
	.uleb128 0x3a
	.uleb128 0x21
	.sleb128 2
	.uleb128 0x3b
	.uleb128 0x5
	.uleb128 0x39
	.uleb128 0x21
	.sleb128 7
	.uleb128 0x6e
	.uleb128 0xe
	.uleb128 0x32
	.uleb128 0x21
	.sleb128 1
	.uleb128 0x3c
	.uleb128 0x19
	.uleb128 0x8b
	.uleb128 0x21
	.sleb128 1
	.uleb128 0x64
	.uleb128 0x13
	.uleb128 0x1
	.uleb128 0x13
	.byte	0
	.byte	0
	.uleb128 0x53
	.uleb128 0x2e
	.byte	0x1
	.uleb128 0x3f
	.uleb128 0x19
	.uleb128 0x3
	.uleb128 0xe
	.uleb128 0x3a
	.uleb128 0x21
	.sleb128 2
	.uleb128 0x3b
	.uleb128 0x5
	.uleb128 0x39
	.uleb128 0x21
	.sleb128 7
	.uleb128 0x6e
	.uleb128 0xe
	.uleb128 0x49
	.uleb128 0x13
	.uleb128 0x32
	.uleb128 0x21
	.sleb128 2
	.uleb128 0x3c
	.uleb128 0x19
	.uleb128 0x1
	.uleb128 0x13
	.byte	0
	.byte	0
	.uleb128 0x54
	.uleb128 0x2e
	.byte	0x1
	.uleb128 0x3
	.uleb128 0xe
	.uleb128 0x3a
	.uleb128 0xb
	.uleb128 0x3b
	.uleb128 0xb
	.uleb128 0x39
	.uleb128 0xb
	.uleb128 0x32
	.uleb128 0x21
	.sleb128 1
	.uleb128 0x3c
	.uleb128 0x19
	.uleb128 0x64
	.uleb128 0x13
	.uleb128 0x1
	.uleb128 0x13
	.byte	0
	.byte	0
	.uleb128 0x55
	.uleb128 0x2e
	.byte	0x1
	.uleb128 0x3
	.uleb128 0xe
	.uleb128 0x3a
	.uleb128 0xb
	.uleb128 0x3b
	.uleb128 0xb
	.uleb128 0x39
	.uleb128 0xb
	.uleb128 0x49
	.uleb128 0x13
	.uleb128 0x32
	.uleb128 0xb
	.uleb128 0x3c
	.uleb128 0x19
	.uleb128 0x64
	.uleb128 0x13
	.uleb128 0x1
	.uleb128 0x13
	.byte	0
	.byte	0
	.uleb128 0x56
	.uleb128 0x2e
	.byte	0x1
	.uleb128 0x3
	.uleb128 0xe
	.uleb128 0x3a
	.uleb128 0x21
	.sleb128 2
	.uleb128 0x3b
	.uleb128 0xb
	.uleb128 0x39
	.uleb128 0x21
	.sleb128 2
	.uleb128 0x3c
	.uleb128 0x19
	.uleb128 0x64
	.uleb128 0x13
	.uleb128 0x1
	.uleb128 0x13
	.byte	0
	.byte	0
	.uleb128 0x57
	.uleb128 0x1d
	.byte	0x1
	.uleb128 0x31
	.uleb128 0x13
	.uleb128 0x52
	.uleb128 0x1
	.uleb128 0x2138
	.uleb128 0x5
	.uleb128 0x55
	.uleb128 0x17
	.uleb128 0x58
	.uleb128 0xb
	.uleb128 0x59
	.uleb128 0x5
	.uleb128 0x57
	.uleb128 0xb
	.uleb128 0x2136
	.uleb128 0xb
	.uleb128 0x1
	.uleb128 0x13
	.byte	0
	.byte	0
	.uleb128 0x58
	.uleb128 0x1
	.byte	0x1
	.uleb128 0x2107
	.uleb128 0x19
	.uleb128 0x49
	.uleb128 0x13
	.uleb128 0x1
	.uleb128 0x13
	.byte	0
	.byte	0
	.uleb128 0x59
	.uleb128 0x21
	.byte	0
	.uleb128 0x2f
	.uleb128 0xb
	.byte	0
	.byte	0
	.uleb128 0x5a
	.uleb128 0xb
	.byte	0x1
	.uleb128 0x55
	.uleb128 0x17
	.uleb128 0x1
	.uleb128 0x13
	.byte	0
	.byte	0
	.uleb128 0x5b
	.uleb128 0x34
	.byte	0
	.uleb128 0x3
	.uleb128 0xe
	.uleb128 0x49
	.uleb128 0x13
	.uleb128 0x34
	.uleb128 0x19
	.byte	0
	.byte	0
	.uleb128 0x5c
	.uleb128 0x1d
	.byte	0x1
	.uleb128 0x31
	.uleb128 0x13
	.uleb128 0x52
	.uleb128 0x1
	.uleb128 0x2138
	.uleb128 0x5
	.uleb128 0x55
	.uleb128 0x17
	.uleb128 0x58
	.uleb128 0xb
	.uleb128 0x59
	.uleb128 0x5
	.uleb128 0x57
	.uleb128 0x21
	.sleb128 33
	.uleb128 0x2136
	.uleb128 0xb
	.byte	0
	.byte	0
	.uleb128 0x5d
	.uleb128 0x1d
	.byte	0x1
	.uleb128 0x31
	.uleb128 0x13
	.uleb128 0x52
	.uleb128 0x1
	.uleb128 0x2138
	.uleb128 0x5
	.uleb128 0x11
	.uleb128 0x1
	.uleb128 0x12
	.uleb128 0x7
	.uleb128 0x58
	.uleb128 0x21
	.sleb128 1
	.uleb128 0x59
	.uleb128 0xb
	.uleb128 0x57
	.uleb128 0xb
	.uleb128 0x2136
	.uleb128 0xb
	.uleb128 0x1
	.uleb128 0x13
	.byte	0
	.byte	0
	.uleb128 0x5e
	.uleb128 0x2e
	.byte	0x1
	.uleb128 0x3f
	.uleb128 0x19
	.uleb128 0x3
	.uleb128 0xe
	.uleb128 0x3a
	.uleb128 0xb
	.uleb128 0x3b
	.uleb128 0x5
	.uleb128 0x39
	.uleb128 0x21
	.sleb128 1
	.uleb128 0x6e
	.uleb128 0xe
	.uleb128 0x49
	.uleb128 0x13
	.uleb128 0x20
	.uleb128 0x21
	.sleb128 3
	.uleb128 0x34
	.uleb128 0x19
	.uleb128 0x1
	.uleb128 0x13
	.byte	0
	.byte	0
	.uleb128 0x5f
	.uleb128 0x13
	.byte	0x1
	.uleb128 0x3
	.uleb128 0xe
	.uleb128 0xb
	.uleb128 0xb
	.uleb128 0x3a
	.uleb128 0xb
	.uleb128 0x3b
	.uleb128 0x5
	.uleb128 0x39
	.uleb128 0xb
	.uleb128 0x1
	.uleb128 0x13
	.byte	0
	.byte	0
	.uleb128 0x60
	.uleb128 0x18
	.byte	0
	.byte	0
	.byte	0
	.uleb128 0x61
	.uleb128 0x2e
	.byte	0x1
	.uleb128 0x3f
	.uleb128 0x19
	.uleb128 0x3
	.uleb128 0xe
	.uleb128 0x3a
	.uleb128 0xb
	.uleb128 0x3b
	.uleb128 0x5
	.uleb128 0x39
	.uleb128 0x21
	.sleb128 13
	.uleb128 0x3c
	.uleb128 0x19
	.uleb128 0x1
	.uleb128 0x13
	.byte	0
	.byte	0
	.uleb128 0x62
	.uleb128 0x34
	.byte	0
	.uleb128 0x3
	.uleb128 0x8
	.uleb128 0x3a
	.uleb128 0xb
	.uleb128 0x3b
	.uleb128 0x5
	.uleb128 0x39
	.uleb128 0xb
	.uleb128 0x49
	.uleb128 0x13
	.byte	0
	.byte	0
	.uleb128 0x63
	.uleb128 0x2e
	.byte	0x1
	.uleb128 0x47
	.uleb128 0x13
	.uleb128 0x3a
	.uleb128 0xb
	.uleb128 0x3b
	.uleb128 0xb
	.uleb128 0x39
	.uleb128 0xb
	.uleb128 0x64
	.uleb128 0x13
	.uleb128 0x20
	.uleb128 0x21
	.sleb128 2
	.uleb128 0x1
	.uleb128 0x13
	.byte	0
	.byte	0
	.uleb128 0x64
	.uleb128 0x2e
	.byte	0x1
	.uleb128 0x3f
	.uleb128 0x19
	.uleb128 0x3
	.uleb128 0xe
	.uleb128 0x3a
	.uleb128 0x21
	.sleb128 2
	.uleb128 0x3b
	.uleb128 0xb
	.uleb128 0x39
	.uleb128 0x21
	.sleb128 2
	.uleb128 0x6e
	.uleb128 0xe
	.uleb128 0x3c
	.uleb128 0x19
	.uleb128 0x64
	.uleb128 0x13
	.byte	0
	.byte	0
	.uleb128 0x65
	.uleb128 0x2f
	.byte	0
	.uleb128 0x3
	.uleb128 0xe
	.uleb128 0x49
	.uleb128 0x13
	.uleb128 0x1e
	.uleb128 0x19
	.byte	0
	.byte	0
	.uleb128 0x66
	.uleb128 0x2e
	.byte	0x1
	.uleb128 0x3
	.uleb128 0xe
	.uleb128 0x3a
	.uleb128 0x21
	.sleb128 2
	.uleb128 0x3b
	.uleb128 0x5
	.uleb128 0x39
	.uleb128 0xb
	.uleb128 0x49
	.uleb128 0x13
	.uleb128 0x3c
	.uleb128 0x19
	.uleb128 0x64
	.uleb128 0x13
	.uleb128 0x1
	.uleb128 0x13
	.byte	0
	.byte	0
	.uleb128 0x67
	.uleb128 0x2e
	.byte	0
	.uleb128 0x3
	.uleb128 0xe
	.uleb128 0x3a
	.uleb128 0x21
	.sleb128 50
	.uleb128 0x3b
	.uleb128 0xb
	.uleb128 0x39
	.uleb128 0x21
	.sleb128 27
	.uleb128 0x49
	.uleb128 0x13
	.uleb128 0x3c
	.uleb128 0x19
	.byte	0
	.byte	0
	.uleb128 0x68
	.uleb128 0x34
	.byte	0
	.uleb128 0x3
	.uleb128 0x8
	.uleb128 0x3a
	.uleb128 0x21
	.sleb128 1
	.uleb128 0x3b
	.uleb128 0xb
	.uleb128 0x39
	.uleb128 0xb
	.uleb128 0x49
	.uleb128 0x13
	.byte	0
	.byte	0
	.uleb128 0x69
	.uleb128 0xb
	.byte	0x1
	.uleb128 0x31
	.uleb128 0x13
	.uleb128 0x55
	.uleb128 0x17
	.uleb128 0x1
	.uleb128 0x13
	.byte	0
	.byte	0
	.uleb128 0x6a
	.uleb128 0x39
	.byte	0x1
	.uleb128 0x3
	.uleb128 0xe
	.uleb128 0x3a
	.uleb128 0xb
	.uleb128 0x3b
	.uleb128 0xb
	.uleb128 0x39
	.uleb128 0xb
	.uleb128 0x1
	.uleb128 0x13
	.byte	0
	.byte	0
	.uleb128 0x6b
	.uleb128 0x2e
	.byte	0x1
	.uleb128 0x3f
	.uleb128 0x19
	.uleb128 0x3
	.uleb128 0xe
	.uleb128 0x3a
	.uleb128 0x21
	.sleb128 5
	.uleb128 0x3b
	.uleb128 0x21
	.sleb128 189
	.uleb128 0x39
	.uleb128 0x21
	.sleb128 7
	.uleb128 0x6e
	.uleb128 0xe
	.uleb128 0x32
	.uleb128 0x21
	.sleb128 1
	.uleb128 0x3c
	.uleb128 0x19
	.uleb128 0x64
	.uleb128 0x13
	.byte	0
	.byte	0
	.uleb128 0x6c
	.uleb128 0x2e
	.byte	0x1
	.uleb128 0x3f
	.uleb128 0x19
	.uleb128 0x3
	.uleb128 0xe
	.uleb128 0x6e
	.uleb128 0xe
	.uleb128 0x34
	.uleb128 0x19
	.uleb128 0x3c
	.uleb128 0x19
	.uleb128 0x64
	.uleb128 0x13
	.byte	0
	.byte	0
	.uleb128 0x6d
	.uleb128 0x2e
	.byte	0
	.uleb128 0x3f
	.uleb128 0x19
	.uleb128 0x3
	.uleb128 0xe
	.uleb128 0x3a
	.uleb128 0x21
	.sleb128 2
	.uleb128 0x3b
	.uleb128 0x21
	.sleb128 515
	.uleb128 0x39
	.uleb128 0x21
	.sleb128 7
	.uleb128 0x6e
	.uleb128 0xe
	.uleb128 0x49
	.uleb128 0x13
	.uleb128 0x3c
	.uleb128 0x19
	.byte	0
	.byte	0
	.uleb128 0x6e
	.uleb128 0x2e
	.byte	0x1
	.uleb128 0x3
	.uleb128 0x8
	.uleb128 0x3a
	.uleb128 0x21
	.sleb128 2
	.uleb128 0x3b
	.uleb128 0x5
	.uleb128 0x39
	.uleb128 0x21
	.sleb128 7
	.uleb128 0x49
	.uleb128 0x13
	.uleb128 0x32
	.uleb128 0x21
	.sleb128 1
	.uleb128 0x3c
	.uleb128 0x19
	.uleb128 0x64
	.uleb128 0x13
	.uleb128 0x1
	.uleb128 0x13
	.byte	0
	.byte	0
	.uleb128 0x6f
	.uleb128 0xd
	.byte	0
	.uleb128 0x3
	.uleb128 0xe
	.uleb128 0x3a
	.uleb128 0x21
	.sleb128 41
	.uleb128 0x3b
	.uleb128 0x21
	.sleb128 0
	.uleb128 0x49
	.uleb128 0x13
	.uleb128 0x38
	.uleb128 0xb
	.byte	0
	.byte	0
	.uleb128 0x70
	.uleb128 0x13
	.byte	0x1
	.uleb128 0xb
	.uleb128 0xb
	.uleb128 0x3a
	.uleb128 0xb
	.uleb128 0x3b
	.uleb128 0xb
	.uleb128 0x39
	.uleb128 0xb
	.uleb128 0x6e
	.uleb128 0xe
	.uleb128 0x1
	.uleb128 0x13
	.byte	0
	.byte	0
	.uleb128 0x71
	.uleb128 0xd
	.byte	0
	.uleb128 0x3
	.uleb128 0xe
	.uleb128 0x3a
	.uleb128 0x21
	.sleb128 3
	.uleb128 0x3b
	.uleb128 0x21
	.sleb128 1029
	.uleb128 0x39
	.uleb128 0x21
	.sleb128 17
	.uleb128 0x49
	.uleb128 0x13
	.uleb128 0x38
	.uleb128 0x21
	.sleb128 0
	.uleb128 0x32
	.uleb128 0x21
	.sleb128 2
	.byte	0
	.byte	0
	.uleb128 0x72
	.uleb128 0x2e
	.byte	0
	.uleb128 0x3f
	.uleb128 0x19
	.uleb128 0x3
	.uleb128 0xe
	.uleb128 0x3a
	.uleb128 0xb
	.uleb128 0x3b
	.uleb128 0xb
	.uleb128 0x39
	.uleb128 0xb
	.uleb128 0x49
	.uleb128 0x13
	.uleb128 0x3c
	.uleb128 0x19
	.byte	0
	.byte	0
	.uleb128 0x73
	.uleb128 0xb
	.byte	0x1
	.uleb128 0x31
	.uleb128 0x13
	.byte	0
	.byte	0
	.uleb128 0x74
	.uleb128 0x1d
	.byte	0x1
	.uleb128 0x31
	.uleb128 0x13
	.uleb128 0x52
	.uleb128 0x1
	.uleb128 0x2138
	.uleb128 0x5
	.uleb128 0x11
	.uleb128 0x1
	.uleb128 0x12
	.uleb128 0x7
	.uleb128 0x58
	.uleb128 0x21
	.sleb128 2
	.uleb128 0x59
	.uleb128 0x5
	.uleb128 0x57
	.uleb128 0xb
	.uleb128 0x2136
	.uleb128 0xb
	.uleb128 0x1
	.uleb128 0x13
	.byte	0
	.byte	0
	.uleb128 0x75
	.uleb128 0xb
	.byte	0x1
	.uleb128 0x31
	.uleb128 0x13
	.uleb128 0x55
	.uleb128 0x17
	.byte	0
	.byte	0
	.uleb128 0x76
	.uleb128 0x1d
	.byte	0x1
	.uleb128 0x31
	.uleb128 0x13
	.uleb128 0x52
	.uleb128 0x1
	.uleb128 0x2138
	.uleb128 0x5
	.uleb128 0x11
	.uleb128 0x1
	.uleb128 0x12
	.uleb128 0x7
	.uleb128 0x58
	.uleb128 0xb
	.uleb128 0x59
	.uleb128 0xb
	.uleb128 0x57
	.uleb128 0x21
	.sleb128 22
	.uleb128 0x2136
	.uleb128 0xb
	.byte	0
	.byte	0
	.uleb128 0x77
	.uleb128 0xb
	.byte	0x1
	.uleb128 0x31
	.uleb128 0x13
	.uleb128 0x11
	.uleb128 0x1
	.uleb128 0x12
	.uleb128 0x7
	.uleb128 0x1
	.uleb128 0x13
	.byte	0
	.byte	0
	.uleb128 0x78
	.uleb128 0x2e
	.byte	0x1
	.uleb128 0x3f
	.uleb128 0x19
	.uleb128 0x3
	.uleb128 0xe
	.uleb128 0x3a
	.uleb128 0xb
	.uleb128 0x3b
	.uleb128 0xb
	.uleb128 0x39
	.uleb128 0xb
	.uleb128 0x6e
	.uleb128 0xe
	.uleb128 0x3c
	.uleb128 0x19
	.uleb128 0x63
	.uleb128 0x19
	.uleb128 0x64
	.uleb128 0x13
	.uleb128 0x1
	.uleb128 0x13
	.byte	0
	.byte	0
	.uleb128 0x79
	.uleb128 0x39
	.byte	0
	.uleb128 0x3
	.uleb128 0xe
	.uleb128 0x3a
	.uleb128 0xb
	.uleb128 0x3b
	.uleb128 0xb
	.uleb128 0x39
	.uleb128 0xb
	.byte	0
	.byte	0
	.uleb128 0x7a
	.uleb128 0x2e
	.byte	0x1
	.uleb128 0x3
	.uleb128 0xe
	.uleb128 0x3a
	.uleb128 0xb
	.uleb128 0x3b
	.uleb128 0x5
	.uleb128 0x39
	.uleb128 0x21
	.sleb128 7
	.uleb128 0x32
	.uleb128 0x21
	.sleb128 1
	.uleb128 0x3c
	.uleb128 0x19
	.uleb128 0x63
	.uleb128 0x19
	.uleb128 0x64
	.uleb128 0x13
	.uleb128 0x1
	.uleb128 0x13
	.byte	0
	.byte	0
	.uleb128 0x7b
	.uleb128 0x1
	.byte	0x1
	.uleb128 0x49
	.uleb128 0x13
	.uleb128 0x1
	.uleb128 0x13
	.byte	0
	.byte	0
	.uleb128 0x7c
	.uleb128 0x21
	.byte	0
	.uleb128 0x49
	.uleb128 0x13
	.uleb128 0x2f
	.uleb128 0xb
	.byte	0
	.byte	0
	.uleb128 0x7d
	.uleb128 0x28
	.byte	0
	.uleb128 0x3
	.uleb128 0xe
	.uleb128 0x1c
	.uleb128 0xb
	.byte	0
	.byte	0
	.uleb128 0x7e
	.uleb128 0x13
	.byte	0
	.uleb128 0x3
	.uleb128 0xe
	.uleb128 0x3c
	.uleb128 0x19
	.byte	0
	.byte	0
	.uleb128 0x7f
	.uleb128 0x16
	.byte	0
	.uleb128 0x3
	.uleb128 0xe
	.uleb128 0x3a
	.uleb128 0xb
	.uleb128 0x3b
	.uleb128 0xb
	.uleb128 0x39
	.uleb128 0xb
	.uleb128 0x49
	.uleb128 0x13
	.uleb128 0x88
	.uleb128 0x21
	.sleb128 1
	.byte	0
	.byte	0
	.uleb128 0x80
	.uleb128 0x4108
	.byte	0x1
	.uleb128 0x3
	.uleb128 0xe
	.uleb128 0x3a
	.uleb128 0xb
	.uleb128 0x3b
	.uleb128 0xb
	.uleb128 0x39
	.uleb128 0xb
	.byte	0
	.byte	0
	.uleb128 0x81
	.uleb128 0x1d
	.byte	0x1
	.uleb128 0x31
	.uleb128 0x13
	.uleb128 0x55
	.uleb128 0x17
	.uleb128 0x58
	.uleb128 0x21
	.sleb128 12
	.uleb128 0x59
	.uleb128 0x21
	.sleb128 492
	.uleb128 0x57
	.uleb128 0x21
	.sleb128 17
	.uleb128 0x1
	.uleb128 0x13
	.byte	0
	.byte	0
	.uleb128 0x82
	.uleb128 0x2e
	.byte	0
	.uleb128 0x3f
	.uleb128 0x19
	.uleb128 0x3c
	.uleb128 0x19
	.uleb128 0x6e
	.uleb128 0xe
	.uleb128 0x3
	.uleb128 0xe
	.byte	0
	.byte	0
	.uleb128 0x83
	.uleb128 0x30
	.byte	0
	.uleb128 0x3
	.uleb128 0x8
	.uleb128 0x49
	.uleb128 0x13
	.uleb128 0x1c
	.uleb128 0xb
	.byte	0
	.byte	0
	.uleb128 0x84
	.uleb128 0x39
	.byte	0
	.uleb128 0x3
	.uleb128 0xe
	.uleb128 0x3a
	.uleb128 0x21
	.sleb128 19
	.uleb128 0x3b
	.uleb128 0x5
	.uleb128 0x39
	.uleb128 0x21
	.sleb128 13
	.byte	0
	.byte	0
	.uleb128 0x85
	.uleb128 0x2e
	.byte	0x1
	.uleb128 0x3f
	.uleb128 0x19
	.uleb128 0x3
	.uleb128 0xe
	.uleb128 0x3a
	.uleb128 0xb
	.uleb128 0x3b
	.uleb128 0xb
	.uleb128 0x39
	.uleb128 0xb
	.uleb128 0x6e
	.uleb128 0xe
	.uleb128 0x87
	.uleb128 0x19
	.uleb128 0x3c
	.uleb128 0x19
	.uleb128 0x1
	.uleb128 0x13
	.byte	0
	.byte	0
	.uleb128 0x86
	.uleb128 0x39
	.byte	0
	.uleb128 0x3
	.uleb128 0xe
	.uleb128 0x3a
	.uleb128 0xb
	.uleb128 0x3b
	.uleb128 0x5
	.uleb128 0x39
	.uleb128 0xb
	.uleb128 0x89
	.uleb128 0x19
	.byte	0
	.byte	0
	.uleb128 0x87
	.uleb128 0x39
	.byte	0
	.uleb128 0x3
	.uleb128 0x8
	.uleb128 0x3a
	.uleb128 0xb
	.uleb128 0x3b
	.uleb128 0xb
	.uleb128 0x39
	.uleb128 0xb
	.uleb128 0x89
	.uleb128 0x19
	.byte	0
	.byte	0
	.uleb128 0x88
	.uleb128 0x2e
	.byte	0x1
	.uleb128 0x3
	.uleb128 0xe
	.uleb128 0x3a
	.uleb128 0xb
	.uleb128 0x3b
	.uleb128 0xb
	.uleb128 0x39
	.uleb128 0xb
	.uleb128 0x49
	.uleb128 0x13
	.uleb128 0x32
	.uleb128 0x21
	.sleb128 1
	.uleb128 0x3c
	.uleb128 0x19
	.uleb128 0x8b
	.uleb128 0x21
	.sleb128 1
	.uleb128 0x64
	.uleb128 0x13
	.uleb128 0x1
	.uleb128 0x13
	.byte	0
	.byte	0
	.uleb128 0x89
	.uleb128 0x2e
	.byte	0x1
	.uleb128 0x3
	.uleb128 0xe
	.uleb128 0x3a
	.uleb128 0x21
	.sleb128 8
	.uleb128 0x3b
	.uleb128 0x5
	.uleb128 0x39
	.uleb128 0xb
	.uleb128 0x3c
	.uleb128 0x19
	.uleb128 0x1
	.uleb128 0x13
	.byte	0
	.byte	0
	.uleb128 0x8a
	.uleb128 0x2e
	.byte	0x1
	.uleb128 0x3
	.uleb128 0xe
	.uleb128 0x3a
	.uleb128 0x21
	.sleb128 2
	.uleb128 0x3b
	.uleb128 0x5
	.uleb128 0x39
	.uleb128 0x21
	.sleb128 7
	.uleb128 0x3c
	.uleb128 0x19
	.uleb128 0x8b
	.uleb128 0x21
	.sleb128 1
	.uleb128 0x64
	.uleb128 0x13
	.uleb128 0x1
	.uleb128 0x13
	.byte	0
	.byte	0
	.uleb128 0x8b
	.uleb128 0x2e
	.byte	0x1
	.uleb128 0x3
	.uleb128 0xe
	.uleb128 0x3a
	.uleb128 0x21
	.sleb128 2
	.uleb128 0x3b
	.uleb128 0x5
	.uleb128 0x39
	.uleb128 0x21
	.sleb128 7
	.uleb128 0x32
	.uleb128 0x21
	.sleb128 1
	.uleb128 0x3c
	.uleb128 0x19
	.uleb128 0x8b
	.uleb128 0x21
	.sleb128 1
	.uleb128 0x64
	.uleb128 0x13
	.uleb128 0x1
	.uleb128 0x13
	.byte	0
	.byte	0
	.uleb128 0x8c
	.uleb128 0x2e
	.byte	0x1
	.uleb128 0x3
	.uleb128 0xe
	.uleb128 0x3a
	.uleb128 0x21
	.sleb128 2
	.uleb128 0x3b
	.uleb128 0x5
	.uleb128 0x39
	.uleb128 0x21
	.sleb128 7
	.uleb128 0x49
	.uleb128 0x13
	.uleb128 0x32
	.uleb128 0x21
	.sleb128 2
	.uleb128 0x3c
	.uleb128 0x19
	.uleb128 0x1
	.uleb128 0x13
	.byte	0
	.byte	0
	.uleb128 0x8d
	.uleb128 0x2e
	.byte	0x1
	.uleb128 0x3f
	.uleb128 0x19
	.uleb128 0x3
	.uleb128 0x8
	.uleb128 0x3a
	.uleb128 0x21
	.sleb128 36
	.uleb128 0x3b
	.uleb128 0xb
	.uleb128 0x39
	.uleb128 0x21
	.sleb128 7
	.uleb128 0x6e
	.uleb128 0xe
	.uleb128 0x49
	.uleb128 0x13
	.uleb128 0x32
	.uleb128 0x21
	.sleb128 1
	.uleb128 0x3c
	.uleb128 0x19
	.uleb128 0x64
	.uleb128 0x13
	.uleb128 0x1
	.uleb128 0x13
	.byte	0
	.byte	0
	.uleb128 0x8e
	.uleb128 0x2e
	.byte	0x1
	.uleb128 0x3f
	.uleb128 0x19
	.uleb128 0x3
	.uleb128 0xe
	.uleb128 0x3a
	.uleb128 0x21
	.sleb128 12
	.uleb128 0x3b
	.uleb128 0xb
	.uleb128 0x39
	.uleb128 0x21
	.sleb128 2
	.uleb128 0x6e
	.uleb128 0xe
	.uleb128 0x32
	.uleb128 0x21
	.sleb128 3
	.uleb128 0x3c
	.uleb128 0x19
	.uleb128 0x1
	.uleb128 0x13
	.byte	0
	.byte	0
	.uleb128 0x8f
	.uleb128 0x2f
	.byte	0
	.uleb128 0x3
	.uleb128 0xe
	.byte	0
	.byte	0
	.uleb128 0x90
	.uleb128 0x2e
	.byte	0
	.uleb128 0x3f
	.uleb128 0x19
	.uleb128 0x3
	.uleb128 0xe
	.uleb128 0x3a
	.uleb128 0x21
	.sleb128 37
	.uleb128 0x3b
	.uleb128 0xb
	.uleb128 0x39
	.uleb128 0x21
	.sleb128 3
	.uleb128 0x6e
	.uleb128 0xe
	.uleb128 0x87
	.uleb128 0x19
	.uleb128 0x3c
	.uleb128 0x19
	.byte	0
	.byte	0
	.uleb128 0x91
	.uleb128 0x2e
	.byte	0x1
	.uleb128 0x3
	.uleb128 0xe
	.uleb128 0x3a
	.uleb128 0xb
	.uleb128 0x3b
	.uleb128 0xb
	.uleb128 0x39
	.uleb128 0xb
	.uleb128 0x49
	.uleb128 0x13
	.uleb128 0x3c
	.uleb128 0x19
	.uleb128 0x1
	.uleb128 0x13
	.byte	0
	.byte	0
	.uleb128 0x92
	.uleb128 0x2e
	.byte	0x1
	.uleb128 0x3
	.uleb128 0xe
	.uleb128 0x3a
	.uleb128 0xb
	.uleb128 0x3b
	.uleb128 0xb
	.uleb128 0x39
	.uleb128 0xb
	.uleb128 0x3c
	.uleb128 0x19
	.uleb128 0x1
	.uleb128 0x13
	.byte	0
	.byte	0
	.uleb128 0x93
	.uleb128 0x2e
	.byte	0x1
	.uleb128 0x3f
	.uleb128 0x19
	.uleb128 0x3
	.uleb128 0xe
	.uleb128 0x3a
	.uleb128 0xb
	.uleb128 0x3b
	.uleb128 0x5
	.uleb128 0x39
	.uleb128 0xb
	.uleb128 0x6e
	.uleb128 0xe
	.uleb128 0x49
	.uleb128 0x13
	.uleb128 0x3c
	.uleb128 0x19
	.byte	0
	.byte	0
	.uleb128 0x94
	.uleb128 0xd
	.byte	0
	.uleb128 0x3
	.uleb128 0xe
	.uleb128 0x3a
	.uleb128 0x21
	.sleb128 43
	.uleb128 0x3b
	.uleb128 0xb
	.uleb128 0x39
	.uleb128 0xb
	.uleb128 0x49
	.uleb128 0x13
	.byte	0
	.byte	0
	.uleb128 0x95
	.uleb128 0x2e
	.byte	0
	.uleb128 0x3f
	.uleb128 0x19
	.uleb128 0x3
	.uleb128 0xe
	.uleb128 0x3a
	.uleb128 0xb
	.uleb128 0x3b
	.uleb128 0x5
	.uleb128 0x39
	.uleb128 0xb
	.uleb128 0x49
	.uleb128 0x13
	.uleb128 0x3c
	.uleb128 0x19
	.byte	0
	.byte	0
	.uleb128 0x96
	.uleb128 0x39
	.byte	0x1
	.uleb128 0x3
	.uleb128 0xe
	.uleb128 0x3a
	.uleb128 0xb
	.uleb128 0x3b
	.uleb128 0x5
	.uleb128 0x39
	.uleb128 0x21
	.sleb128 11
	.uleb128 0x1
	.uleb128 0x13
	.byte	0
	.byte	0
	.uleb128 0x97
	.uleb128 0xd
	.byte	0
	.uleb128 0x3
	.uleb128 0xe
	.uleb128 0x3a
	.uleb128 0x21
	.sleb128 40
	.uleb128 0x3b
	.uleb128 0x5
	.uleb128 0x39
	.uleb128 0xb
	.uleb128 0x49
	.uleb128 0x13
	.uleb128 0x88
	.uleb128 0xb
	.uleb128 0x38
	.uleb128 0xb
	.byte	0
	.byte	0
	.uleb128 0x98
	.uleb128 0x34
	.byte	0
	.uleb128 0x47
	.uleb128 0x13
	.byte	0
	.byte	0
	.uleb128 0x99
	.uleb128 0x2e
	.byte	0x1
	.uleb128 0x3f
	.uleb128 0x19
	.uleb128 0x3
	.uleb128 0x8
	.uleb128 0x3a
	.uleb128 0x21
	.sleb128 4
	.uleb128 0x3b
	.uleb128 0xb
	.uleb128 0x39
	.uleb128 0xb
	.uleb128 0x6e
	.uleb128 0xe
	.uleb128 0x49
	.uleb128 0x13
	.uleb128 0x3c
	.uleb128 0x19
	.uleb128 0x64
	.uleb128 0x13
	.uleb128 0x1
	.uleb128 0x13
	.byte	0
	.byte	0
	.uleb128 0x9a
	.uleb128 0x5
	.byte	0
	.uleb128 0x3
	.uleb128 0xe
	.uleb128 0x3a
	.uleb128 0x21
	.sleb128 1
	.uleb128 0x3b
	.uleb128 0x21
	.sleb128 33
	.uleb128 0x39
	.uleb128 0xb
	.uleb128 0x49
	.uleb128 0x13
	.uleb128 0x2
	.uleb128 0x17
	.uleb128 0x2137
	.uleb128 0x17
	.byte	0
	.byte	0
	.uleb128 0x9b
	.uleb128 0x34
	.byte	0
	.uleb128 0x3
	.uleb128 0xe
	.uleb128 0x49
	.uleb128 0x13
	.uleb128 0x34
	.uleb128 0x19
	.uleb128 0x2
	.uleb128 0x17
	.uleb128 0x2137
	.uleb128 0x17
	.byte	0
	.byte	0
	.uleb128 0x9c
	.uleb128 0xb
	.byte	0x1
	.uleb128 0x11
	.uleb128 0x1
	.uleb128 0x12
	.uleb128 0x7
	.uleb128 0x1
	.uleb128 0x13
	.byte	0
	.byte	0
	.uleb128 0x9d
	.uleb128 0x1d
	.byte	0x1
	.uleb128 0x31
	.uleb128 0x13
	.uleb128 0x52
	.uleb128 0x1
	.uleb128 0x2138
	.uleb128 0x5
	.uleb128 0x55
	.uleb128 0x17
	.uleb128 0x58
	.uleb128 0x21
	.sleb128 2
	.uleb128 0x59
	.uleb128 0xb
	.uleb128 0x57
	.uleb128 0xb
	.uleb128 0x2136
	.uleb128 0x21
	.sleb128 1
	.byte	0
	.byte	0
	.uleb128 0x9e
	.uleb128 0x11
	.byte	0x1
	.uleb128 0x25
	.uleb128 0xe
	.uleb128 0x13
	.uleb128 0xb
	.uleb128 0x90
	.uleb128 0xb
	.uleb128 0x91
	.uleb128 0x6
	.uleb128 0x3
	.uleb128 0x1f
	.uleb128 0x1b
	.uleb128 0x1f
	.uleb128 0x55
	.uleb128 0x17
	.uleb128 0x11
	.uleb128 0x1
	.uleb128 0x10
	.uleb128 0x17
	.byte	0
	.byte	0
	.uleb128 0x9f
	.uleb128 0x24
	.byte	0
	.uleb128 0xb
	.uleb128 0xb
	.uleb128 0x3e
	.uleb128 0xb
	.uleb128 0x3
	.uleb128 0x8
	.byte	0
	.byte	0
	.uleb128 0xa0
	.uleb128 0x39
	.byte	0x1
	.uleb128 0x3
	.uleb128 0x8
	.uleb128 0x3a
	.uleb128 0xb
	.uleb128 0x3b
	.uleb128 0x5
	.uleb128 0x39
	.uleb128 0xb
	.uleb128 0x1
	.uleb128 0x13
	.byte	0
	.byte	0
	.uleb128 0xa1
	.uleb128 0x2e
	.byte	0x1
	.uleb128 0x3f
	.uleb128 0x19
	.uleb128 0x3
	.uleb128 0xe
	.uleb128 0x3a
	.uleb128 0xb
	.uleb128 0x3b
	.uleb128 0xb
	.uleb128 0x39
	.uleb128 0xb
	.uleb128 0x6e
	.uleb128 0xe
	.uleb128 0x49
	.uleb128 0x13
	.uleb128 0x32
	.uleb128 0xb
	.uleb128 0x3c
	.uleb128 0x19
	.uleb128 0x63
	.uleb128 0x19
	.uleb128 0x64
	.uleb128 0x13
	.uleb128 0x1
	.uleb128 0x13
	.byte	0
	.byte	0
	.uleb128 0xa2
	.uleb128 0x2e
	.byte	0x1
	.uleb128 0x3f
	.uleb128 0x19
	.uleb128 0x3
	.uleb128 0xe
	.uleb128 0x3a
	.uleb128 0xb
	.uleb128 0x3b
	.uleb128 0xb
	.uleb128 0x39
	.uleb128 0xb
	.uleb128 0x6e
	.uleb128 0xe
	.uleb128 0x49
	.uleb128 0x13
	.uleb128 0x32
	.uleb128 0xb
	.uleb128 0x3c
	.uleb128 0x19
	.uleb128 0x64
	.uleb128 0x13
	.byte	0
	.byte	0
	.uleb128 0xa3
	.uleb128 0x2e
	.byte	0x1
	.uleb128 0x3f
	.uleb128 0x19
	.uleb128 0x3
	.uleb128 0xe
	.uleb128 0x3a
	.uleb128 0xb
	.uleb128 0x3b
	.uleb128 0x5
	.uleb128 0x39
	.uleb128 0xb
	.uleb128 0x6e
	.uleb128 0xe
	.uleb128 0x3c
	.uleb128 0x19
	.byte	0
	.byte	0
	.uleb128 0xa4
	.uleb128 0x13
	.byte	0
	.uleb128 0x3
	.uleb128 0xe
	.uleb128 0xb
	.uleb128 0xb
	.uleb128 0x3a
	.uleb128 0xb
	.uleb128 0x3b
	.uleb128 0xb
	.uleb128 0x39
	.uleb128 0xb
	.byte	0
	.byte	0
	.uleb128 0xa5
	.uleb128 0x39
	.byte	0
	.uleb128 0x3
	.uleb128 0x8
	.uleb128 0x3a
	.uleb128 0xb
	.uleb128 0x3b
	.uleb128 0xb
	.uleb128 0x39
	.uleb128 0xb
	.byte	0
	.byte	0
	.uleb128 0xa6
	.uleb128 0x39
	.byte	0
	.uleb128 0x3
	.uleb128 0x8
	.uleb128 0x3a
	.uleb128 0xb
	.uleb128 0x3b
	.uleb128 0x5
	.uleb128 0x39
	.uleb128 0xb
	.uleb128 0x89
	.uleb128 0x19
	.byte	0
	.byte	0
	.uleb128 0xa7
	.uleb128 0x3a
	.byte	0
	.uleb128 0x3a
	.uleb128 0xb
	.uleb128 0x3b
	.uleb128 0x5
	.uleb128 0x39
	.uleb128 0xb
	.uleb128 0x18
	.uleb128 0x13
	.byte	0
	.byte	0
	.uleb128 0xa8
	.uleb128 0x39
	.byte	0x1
	.uleb128 0x3
	.uleb128 0xe
	.uleb128 0x3a
	.uleb128 0xb
	.uleb128 0x3b
	.uleb128 0x5
	.uleb128 0x39
	.uleb128 0xb
	.uleb128 0x89
	.uleb128 0x19
	.uleb128 0x1
	.uleb128 0x13
	.byte	0
	.byte	0
	.uleb128 0xa9
	.uleb128 0x39
	.byte	0x1
	.uleb128 0x3
	.uleb128 0xe
	.uleb128 0x3a
	.uleb128 0xb
	.uleb128 0x3b
	.uleb128 0xb
	.uleb128 0x39
	.uleb128 0xb
	.uleb128 0x89
	.uleb128 0x19
	.byte	0
	.byte	0
	.uleb128 0xaa
	.uleb128 0x2e
	.byte	0x1
	.uleb128 0x3
	.uleb128 0xe
	.uleb128 0x3a
	.uleb128 0xb
	.uleb128 0x3b
	.uleb128 0xb
	.uleb128 0x39
	.uleb128 0xb
	.uleb128 0x49
	.uleb128 0x13
	.uleb128 0x3c
	.uleb128 0x19
	.uleb128 0x64
	.uleb128 0x13
	.uleb128 0x1
	.uleb128 0x13
	.byte	0
	.byte	0
	.uleb128 0xab
	.uleb128 0x2e
	.byte	0x1
	.uleb128 0x3
	.uleb128 0xe
	.uleb128 0x3a
	.uleb128 0xb
	.uleb128 0x3b
	.uleb128 0xb
	.uleb128 0x39
	.uleb128 0xb
	.uleb128 0x32
	.uleb128 0xb
	.uleb128 0x3c
	.uleb128 0x19
	.uleb128 0x64
	.uleb128 0x13
	.byte	0
	.byte	0
	.uleb128 0xac
	.uleb128 0x2e
	.byte	0x1
	.uleb128 0x3
	.uleb128 0xe
	.uleb128 0x3a
	.uleb128 0xb
	.uleb128 0x3b
	.uleb128 0x5
	.uleb128 0x39
	.uleb128 0xb
	.uleb128 0x3c
	.uleb128 0x19
	.byte	0
	.byte	0
	.uleb128 0xad
	.uleb128 0x2e
	.byte	0x1
	.uleb128 0x3
	.uleb128 0xe
	.uleb128 0x3a
	.uleb128 0xb
	.uleb128 0x3b
	.uleb128 0xb
	.uleb128 0x39
	.uleb128 0xb
	.uleb128 0x3c
	.uleb128 0x19
	.uleb128 0x64
	.uleb128 0x13
	.byte	0
	.byte	0
	.uleb128 0xae
	.uleb128 0x2e
	.byte	0x1
	.uleb128 0x3
	.uleb128 0xe
	.uleb128 0x34
	.uleb128 0x19
	.uleb128 0x3c
	.uleb128 0x19
	.uleb128 0x64
	.uleb128 0x13
	.byte	0
	.byte	0
	.uleb128 0xaf
	.uleb128 0x2e
	.byte	0
	.uleb128 0x3
	.uleb128 0xe
	.uleb128 0x3a
	.uleb128 0xb
	.uleb128 0x3b
	.uleb128 0x5
	.uleb128 0x39
	.uleb128 0xb
	.uleb128 0x49
	.uleb128 0x13
	.uleb128 0x3c
	.uleb128 0x19
	.byte	0
	.byte	0
	.uleb128 0xb0
	.uleb128 0x2e
	.byte	0x1
	.uleb128 0x3
	.uleb128 0xe
	.uleb128 0x3a
	.uleb128 0xb
	.uleb128 0x3b
	.uleb128 0x5
	.uleb128 0x39
	.uleb128 0xb
	.uleb128 0x32
	.uleb128 0xb
	.uleb128 0x3c
	.uleb128 0x19
	.uleb128 0x64
	.uleb128 0x13
	.byte	0
	.byte	0
	.uleb128 0xb1
	.uleb128 0x34
	.byte	0
	.uleb128 0x3
	.uleb128 0xe
	.uleb128 0x3a
	.uleb128 0xb
	.uleb128 0x3b
	.uleb128 0x5
	.uleb128 0x39
	.uleb128 0xb
	.uleb128 0x49
	.uleb128 0x13
	.uleb128 0x3c
	.uleb128 0x19
	.uleb128 0x1c
	.uleb128 0xb
	.uleb128 0x6c
	.uleb128 0x19
	.uleb128 0x20
	.uleb128 0xb
	.byte	0
	.byte	0
	.uleb128 0xb2
	.uleb128 0x13
	.byte	0x1
	.uleb128 0x3
	.uleb128 0xe
	.uleb128 0xb
	.uleb128 0xb
	.uleb128 0x3a
	.uleb128 0xb
	.uleb128 0x3b
	.uleb128 0xb
	.uleb128 0x1
	.uleb128 0x13
	.byte	0
	.byte	0
	.uleb128 0xb3
	.uleb128 0xf
	.byte	0
	.uleb128 0xb
	.uleb128 0xb
	.byte	0
	.byte	0
	.uleb128 0xb4
	.uleb128 0x17
	.byte	0x1
	.uleb128 0xb
	.uleb128 0xb
	.uleb128 0x3a
	.uleb128 0xb
	.uleb128 0x3b
	.uleb128 0xb
	.uleb128 0x39
	.uleb128 0xb
	.uleb128 0x1
	.uleb128 0x13
	.byte	0
	.byte	0
	.uleb128 0xb5
	.uleb128 0xd
	.byte	0
	.uleb128 0x3
	.uleb128 0xe
	.uleb128 0x3a
	.uleb128 0xb
	.uleb128 0x3b
	.uleb128 0xb
	.uleb128 0x39
	.uleb128 0xb
	.uleb128 0x49
	.uleb128 0x13
	.uleb128 0xd
	.uleb128 0xb
	.uleb128 0x6b
	.uleb128 0x5
	.byte	0
	.byte	0
	.uleb128 0xb6
	.uleb128 0x13
	.byte	0x1
	.uleb128 0x3
	.uleb128 0x8
	.uleb128 0xb
	.uleb128 0xb
	.uleb128 0x3a
	.uleb128 0xb
	.uleb128 0x3b
	.uleb128 0xb
	.uleb128 0x39
	.uleb128 0xb
	.uleb128 0x1
	.uleb128 0x13
	.byte	0
	.byte	0
	.uleb128 0xb7
	.uleb128 0x4
	.byte	0x1
	.uleb128 0x3
	.uleb128 0xe
	.uleb128 0x3e
	.uleb128 0xb
	.uleb128 0xb
	.uleb128 0xb
	.uleb128 0x49
	.uleb128 0x13
	.uleb128 0x3a
	.uleb128 0xb
	.uleb128 0x3b
	.uleb128 0xb
	.uleb128 0x39
	.uleb128 0xb
	.uleb128 0x1
	.uleb128 0x13
	.byte	0
	.byte	0
	.uleb128 0xb8
	.uleb128 0x34
	.byte	0
	.uleb128 0x3
	.uleb128 0xe
	.uleb128 0x3a
	.uleb128 0xb
	.uleb128 0x3b
	.uleb128 0xb
	.uleb128 0x39
	.uleb128 0xb
	.uleb128 0x6e
	.uleb128 0xe
	.uleb128 0x49
	.uleb128 0x13
	.uleb128 0x3f
	.uleb128 0x19
	.uleb128 0x3c
	.uleb128 0x19
	.uleb128 0x1c
	.uleb128 0xb
	.uleb128 0x20
	.uleb128 0xb
	.byte	0
	.byte	0
	.uleb128 0xb9
	.uleb128 0x13
	.byte	0x1
	.uleb128 0xb
	.uleb128 0xb
	.uleb128 0x88
	.uleb128 0xb
	.uleb128 0x3a
	.uleb128 0xb
	.uleb128 0x3b
	.uleb128 0x5
	.uleb128 0x39
	.uleb128 0xb
	.uleb128 0x6e
	.uleb128 0xe
	.uleb128 0x1
	.uleb128 0x13
	.byte	0
	.byte	0
	.uleb128 0xba
	.uleb128 0x16
	.byte	0
	.uleb128 0x3
	.uleb128 0xe
	.uleb128 0x3a
	.uleb128 0xb
	.uleb128 0x3b
	.uleb128 0x5
	.uleb128 0x39
	.uleb128 0xb
	.uleb128 0x49
	.uleb128 0x13
	.uleb128 0x88
	.uleb128 0xb
	.byte	0
	.byte	0
	.uleb128 0xbb
	.uleb128 0x3b
	.byte	0
	.uleb128 0x3
	.uleb128 0xe
	.byte	0
	.byte	0
	.uleb128 0xbc
	.uleb128 0x26
	.byte	0
	.byte	0
	.byte	0
	.uleb128 0xbd
	.uleb128 0x3a
	.byte	0
	.uleb128 0x3a
	.uleb128 0xb
	.uleb128 0x3b
	.uleb128 0xb
	.uleb128 0x39
	.uleb128 0xb
	.uleb128 0x18
	.uleb128 0x13
	.byte	0
	.byte	0
	.uleb128 0xbe
	.uleb128 0x15
	.byte	0x1
	.uleb128 0x49
	.uleb128 0x13
	.uleb128 0x1
	.uleb128 0x13
	.byte	0
	.byte	0
	.uleb128 0xbf
	.uleb128 0x15
	.byte	0
	.byte	0
	.byte	0
	.uleb128 0xc0
	.uleb128 0x2e
	.byte	0x1
	.uleb128 0x3f
	.uleb128 0x19
	.uleb128 0x3
	.uleb128 0x8
	.uleb128 0x3a
	.uleb128 0xb
	.uleb128 0x3b
	.uleb128 0x5
	.uleb128 0x39
	.uleb128 0xb
	.uleb128 0x49
	.uleb128 0x13
	.uleb128 0x3c
	.uleb128 0x19
	.uleb128 0x1
	.uleb128 0x13
	.byte	0
	.byte	0
	.uleb128 0xc1
	.uleb128 0x2e
	.byte	0x1
	.uleb128 0x3f
	.uleb128 0x19
	.uleb128 0x3
	.uleb128 0xe
	.uleb128 0x3a
	.uleb128 0xb
	.uleb128 0x3b
	.uleb128 0x5
	.uleb128 0x39
	.uleb128 0xb
	.uleb128 0x87
	.uleb128 0x19
	.uleb128 0x3c
	.uleb128 0x19
	.uleb128 0x1
	.uleb128 0x13
	.byte	0
	.byte	0
	.uleb128 0xc2
	.uleb128 0x16
	.byte	0
	.uleb128 0x3
	.uleb128 0xe
	.uleb128 0x3a
	.uleb128 0xb
	.uleb128 0x3b
	.uleb128 0xb
	.uleb128 0x39
	.uleb128 0xb
	.byte	0
	.byte	0
	.uleb128 0xc3
	.uleb128 0x8
	.byte	0
	.uleb128 0x3
	.uleb128 0x8
	.uleb128 0x3a
	.uleb128 0xb
	.uleb128 0x3b
	.uleb128 0xb
	.uleb128 0x39
	.uleb128 0xb
	.uleb128 0x18
	.uleb128 0x13
	.byte	0
	.byte	0
	.uleb128 0xc4
	.uleb128 0x2e
	.byte	0x1
	.uleb128 0x3f
	.uleb128 0x19
	.uleb128 0x3
	.uleb128 0xe
	.uleb128 0x6e
	.uleb128 0xe
	.uleb128 0x34
	.uleb128 0x19
	.uleb128 0x3c
	.uleb128 0x19
	.uleb128 0x64
	.uleb128 0x13
	.uleb128 0x1
	.uleb128 0x13
	.byte	0
	.byte	0
	.uleb128 0xc5
	.uleb128 0x39
	.byte	0x1
	.uleb128 0x3
	.uleb128 0xe
	.uleb128 0x3a
	.uleb128 0xb
	.uleb128 0x3b
	.uleb128 0xb
	.uleb128 0x39
	.uleb128 0xb
	.byte	0
	.byte	0
	.uleb128 0xc6
	.uleb128 0x39
	.byte	0x1
	.uleb128 0x89
	.uleb128 0x19
	.uleb128 0x1
	.uleb128 0x13
	.byte	0
	.byte	0
	.uleb128 0xc7
	.uleb128 0x4108
	.byte	0x1
	.uleb128 0x3
	.uleb128 0xe
	.uleb128 0x3a
	.uleb128 0xb
	.uleb128 0x3b
	.uleb128 0x5
	.uleb128 0x39
	.uleb128 0xb
	.uleb128 0x1
	.uleb128 0x13
	.byte	0
	.byte	0
	.uleb128 0xc8
	.uleb128 0x4108
	.byte	0x1
	.uleb128 0x3
	.uleb128 0xe
	.uleb128 0x3a
	.uleb128 0xb
	.uleb128 0x3b
	.uleb128 0x5
	.uleb128 0x39
	.uleb128 0xb
	.byte	0
	.byte	0
	.uleb128 0xc9
	.uleb128 0xb
	.byte	0x1
	.uleb128 0x1
	.uleb128 0x13
	.byte	0
	.byte	0
	.uleb128 0xca
	.uleb128 0x2e
	.byte	0x1
	.uleb128 0x3f
	.uleb128 0x19
	.uleb128 0x3
	.uleb128 0xe
	.uleb128 0x3a
	.uleb128 0xb
	.uleb128 0x3b
	.uleb128 0xb
	.uleb128 0x39
	.uleb128 0xb
	.uleb128 0x6e
	.uleb128 0xe
	.uleb128 0x49
	.uleb128 0x13
	.uleb128 0x55
	.uleb128 0x17
	.uleb128 0x40
	.uleb128 0x18
	.uleb128 0x7a
	.uleb128 0x19
	.uleb128 0x1
	.uleb128 0x13
	.byte	0
	.byte	0
	.uleb128 0xcb
	.uleb128 0x34
	.byte	0
	.uleb128 0x31
	.uleb128 0x13
	.uleb128 0x1c
	.uleb128 0xb
	.byte	0
	.byte	0
	.uleb128 0xcc
	.uleb128 0xb
	.byte	0x1
	.uleb128 0x31
	.uleb128 0x13
	.uleb128 0x11
	.uleb128 0x1
	.uleb128 0x12
	.uleb128 0x7
	.byte	0
	.byte	0
	.uleb128 0xcd
	.uleb128 0x48
	.byte	0
	.uleb128 0x7d
	.uleb128 0x1
	.uleb128 0x7f
	.uleb128 0x13
	.byte	0
	.byte	0
	.uleb128 0xce
	.uleb128 0x48
	.byte	0x1
	.uleb128 0x7d
	.uleb128 0x1
	.uleb128 0x7f
	.uleb128 0x13
	.uleb128 0x1
	.uleb128 0x13
	.byte	0
	.byte	0
	.uleb128 0xcf
	.uleb128 0x2e
	.byte	0x1
	.uleb128 0x3f
	.uleb128 0x19
	.uleb128 0x3
	.uleb128 0xe
	.uleb128 0x3a
	.uleb128 0xb
	.uleb128 0x3b
	.uleb128 0xb
	.uleb128 0x39
	.uleb128 0xb
	.uleb128 0x6e
	.uleb128 0xe
	.uleb128 0x49
	.uleb128 0x13
	.uleb128 0x20
	.uleb128 0xb
	.uleb128 0x34
	.uleb128 0x19
	.uleb128 0x1
	.uleb128 0x13
	.byte	0
	.byte	0
	.uleb128 0xd0
	.uleb128 0x2e
	.byte	0x1
	.uleb128 0x3f
	.uleb128 0x19
	.uleb128 0x3
	.uleb128 0xe
	.uleb128 0x3a
	.uleb128 0xb
	.uleb128 0x3b
	.uleb128 0x5
	.uleb128 0x39
	.uleb128 0xb
	.uleb128 0x6e
	.uleb128 0xe
	.uleb128 0x20
	.uleb128 0xb
	.uleb128 0x34
	.uleb128 0x19
	.uleb128 0x1
	.uleb128 0x13
	.byte	0
	.byte	0
	.uleb128 0xd1
	.uleb128 0x2e
	.byte	0x1
	.uleb128 0x3f
	.uleb128 0x19
	.uleb128 0x3
	.uleb128 0xe
	.uleb128 0x3a
	.uleb128 0xb
	.uleb128 0x3b
	.uleb128 0xb
	.uleb128 0x39
	.uleb128 0xb
	.uleb128 0x6e
	.uleb128 0xe
	.uleb128 0x20
	.uleb128 0xb
	.uleb128 0x1
	.uleb128 0x13
	.byte	0
	.byte	0
	.uleb128 0xd2
	.uleb128 0x2e
	.byte	0x1
	.uleb128 0x3f
	.uleb128 0x19
	.uleb128 0x3
	.uleb128 0xe
	.uleb128 0x3a
	.uleb128 0xb
	.uleb128 0x3b
	.uleb128 0xb
	.uleb128 0x39
	.uleb128 0xb
	.uleb128 0x6e
	.uleb128 0xe
	.uleb128 0x49
	.uleb128 0x13
	.uleb128 0x20
	.uleb128 0xb
	.uleb128 0x1
	.uleb128 0x13
	.byte	0
	.byte	0
	.byte	0
	.section	.debug_loclists,"",@progbits
	.long	.Ldebug_loc3-.Ldebug_loc2
.Ldebug_loc2:
	.value	0x5
	.byte	0x8
	.byte	0
	.long	0
.Ldebug_loc0:
.LVUS1:
	.uleb128 0
	.uleb128 .LVU18
	.uleb128 .LVU18
	.uleb128 .LVU67
	.uleb128 .LVU67
	.uleb128 .LVU997
	.uleb128 .LVU997
	.uleb128 .LVU1011
	.uleb128 .LVU1011
	.uleb128 .LVU1030
	.uleb128 .LVU1030
	.uleb128 .LVU1109
	.uleb128 .LVU1109
	.uleb128 0
	.uleb128 0
	.uleb128 .LVU1310
	.uleb128 .LVU1310
	.uleb128 .LVU1312
	.uleb128 .LVU1312
	.uleb128 0
.LLST1:
	.byte	0x6
	.quad	.LVL0
	.byte	0x4
	.uleb128 .LVL0-.LVL0
	.uleb128 .LVL4-.LVL0
	.uleb128 0x1
	.byte	0x54
	.byte	0x4
	.uleb128 .LVL4-.LVL0
	.uleb128 .LVL11-.LVL0
	.uleb128 0x1
	.byte	0x53
	.byte	0x4
	.uleb128 .LVL11-.LVL0
	.uleb128 .LVL183-.LVL0
	.uleb128 0x4
	.byte	0xa3
	.uleb128 0x1
	.byte	0x54
	.byte	0x9f
	.byte	0x4
	.uleb128 .LVL183-.LVL0
	.uleb128 .LVL185-.LVL0
	.uleb128 0x1
	.byte	0x53
	.byte	0x4
	.uleb128 .LVL185-.LVL0
	.uleb128 .LVL190-.LVL0
	.uleb128 0x4
	.byte	0xa3
	.uleb128 0x1
	.byte	0x54
	.byte	0x9f
	.byte	0x4
	.uleb128 .LVL190-.LVL0
	.uleb128 .LVL201-.LVL0
	.uleb128 0x1
	.byte	0x53
	.byte	0x4
	.uleb128 .LVL201-.LVL0
	.uleb128 .LHOTE4-.LVL0
	.uleb128 0x4
	.byte	0xa3
	.uleb128 0x1
	.byte	0x54
	.byte	0x9f
	.byte	0x6
	.quad	.LFSB11707
	.byte	0x4
	.uleb128 .LFSB11707-.LFSB11707
	.uleb128 .LVL259-.LFSB11707
	.uleb128 0x4
	.byte	0xa3
	.uleb128 0x1
	.byte	0x54
	.byte	0x9f
	.byte	0x4
	.uleb128 .LVL259-.LFSB11707
	.uleb128 .LVL260-.LFSB11707
	.uleb128 0x1
	.byte	0x53
	.byte	0x4
	.uleb128 .LVL260-.LFSB11707
	.uleb128 .LFE11707-.LFSB11707
	.uleb128 0x4
	.byte	0xa3
	.uleb128 0x1
	.byte	0x54
	.byte	0x9f
	.byte	0
.LVUS2:
	.uleb128 0
	.uleb128 .LVU13
	.uleb128 .LVU13
	.uleb128 .LVU66
	.uleb128 .LVU66
	.uleb128 .LVU997
	.uleb128 .LVU997
	.uleb128 .LVU1011
	.uleb128 .LVU1011
	.uleb128 .LVU1030
	.uleb128 .LVU1030
	.uleb128 .LVU1053
	.uleb128 .LVU1053
	.uleb128 .LVU1109
	.uleb128 .LVU1109
	.uleb128 0
	.uleb128 0
	.uleb128 .LVU1310
	.uleb128 .LVU1310
	.uleb128 .LVU1312
	.uleb128 .LVU1312
	.uleb128 0
.LLST2:
	.byte	0x6
	.quad	.LVL0
	.byte	0x4
	.uleb128 .LVL0-.LVL0
	.uleb128 .LVL2-.LVL0
	.uleb128 0x1
	.byte	0x61
	.byte	0x4
	.uleb128 .LVL2-.LVL0
	.uleb128 .LVL10-.LVL0
	.uleb128 0x1
	.byte	0x65
	.byte	0x4
	.uleb128 .LVL10-.LVL0
	.uleb128 .LVL183-.LVL0
	.uleb128 0x6
	.byte	0xa3
	.uleb128 0x3
	.byte	0xa5
	.uleb128 0x11
	.uleb128 0x30
	.byte	0x9f
	.byte	0x4
	.uleb128 .LVL183-.LVL0
	.uleb128 .LVL185-.LVL0
	.uleb128 0x1
	.byte	0x65
	.byte	0x4
	.uleb128 .LVL185-.LVL0
	.uleb128 .LVL190-.LVL0
	.uleb128 0x6
	.byte	0xa3
	.uleb128 0x3
	.byte	0xa5
	.uleb128 0x11
	.uleb128 0x30
	.byte	0x9f
	.byte	0x4
	.uleb128 .LVL190-.LVL0
	.uleb128 .LVL192-1-.LVL0
	.uleb128 0x1
	.byte	0x65
	.byte	0x4
	.uleb128 .LVL192-1-.LVL0
	.uleb128 .LVL201-.LVL0
	.uleb128 0x3
	.byte	0x77
	.sleb128 216
	.byte	0x4
	.uleb128 .LVL201-.LVL0
	.uleb128 .LHOTE4-.LVL0
	.uleb128 0x6
	.byte	0xa3
	.uleb128 0x3
	.byte	0xa5
	.uleb128 0x11
	.uleb128 0x30
	.byte	0x9f
	.byte	0x6
	.quad	.LFSB11707
	.byte	0x4
	.uleb128 .LFSB11707-.LFSB11707
	.uleb128 .LVL259-.LFSB11707
	.uleb128 0x6
	.byte	0xa3
	.uleb128 0x3
	.byte	0xa5
	.uleb128 0x11
	.uleb128 0x30
	.byte	0x9f
	.byte	0x4
	.uleb128 .LVL259-.LFSB11707
	.uleb128 .LVL260-1-.LFSB11707
	.uleb128 0x1
	.byte	0x65
	.byte	0x4
	.uleb128 .LVL260-1-.LFSB11707
	.uleb128 .LFE11707-.LFSB11707
	.uleb128 0x6
	.byte	0xa3
	.uleb128 0x3
	.byte	0xa5
	.uleb128 0x11
	.uleb128 0x30
	.byte	0x9f
	.byte	0
.LVUS3:
	.uleb128 0
	.uleb128 .LVU17
	.uleb128 .LVU17
	.uleb128 .LVU995
	.uleb128 .LVU995
	.uleb128 .LVU996
	.uleb128 .LVU996
	.uleb128 .LVU997
	.uleb128 .LVU997
	.uleb128 0
	.uleb128 0
	.uleb128 0
.LLST3:
	.byte	0x6
	.quad	.LVL0
	.byte	0x4
	.uleb128 .LVL0-.LVL0
	.uleb128 .LVL3-.LVL0
	.uleb128 0x2
	.byte	0x75
	.sleb128 0
	.byte	0x4
	.uleb128 .LVL3-.LVL0
	.uleb128 .LVL181-.LVL0
	.uleb128 0x4
	.byte	0x77
	.sleb128 72
	.byte	0x6
	.byte	0x4
	.uleb128 .LVL181-.LVL0
	.uleb128 .LVL182-.LVL0
	.uleb128 0x9
	.byte	0x76
	.sleb128 -40
	.byte	0x9
	.byte	0xe0
	.byte	0x1a
	.byte	0x8
	.byte	0xb8
	.byte	0x1c
	.byte	0x6
	.byte	0x4
	.uleb128 .LVL182-.LVL0
	.uleb128 .LVL183-.LVL0
	.uleb128 0x9
	.byte	0x77
	.sleb128 -48
	.byte	0x9
	.byte	0xe0
	.byte	0x1a
	.byte	0x8
	.byte	0xb8
	.byte	0x1c
	.byte	0x6
	.byte	0x4
	.uleb128 .LVL183-.LVL0
	.uleb128 .LHOTE4-.LVL0
	.uleb128 0x4
	.byte	0x77
	.sleb128 72
	.byte	0x6
	.byte	0x8
	.quad	.LFSB11707
	.uleb128 .LCOLDE4-.LFSB11707
	.uleb128 0x4
	.byte	0x77
	.sleb128 72
	.byte	0x6
	.byte	0
.LVUS4:
	.uleb128 .LVU56
	.uleb128 .LVU74
	.uleb128 .LVU74
	.uleb128 .LVU76
	.uleb128 .LVU76
	.uleb128 .LVU77
	.uleb128 .LVU93
	.uleb128 .LVU168
	.uleb128 .LVU168
	.uleb128 .LVU176
	.uleb128 .LVU176
	.uleb128 .LVU189
	.uleb128 .LVU997
	.uleb128 .LVU1011
	.uleb128 .LVU1097
	.uleb128 .LVU1109
	.uleb128 .LVU1109
	.uleb128 .LVU1157
	.uleb128 .LVU1157
	.uleb128 .LVU1159
	.uleb128 .LVU1159
	.uleb128 .LVU1162
	.uleb128 .LVU1162
	.uleb128 .LVU1173
	.uleb128 .LVU1173
	.uleb128 .LVU1175
	.uleb128 .LVU1175
	.uleb128 .LVU1178
	.uleb128 .LVU1224
	.uleb128 .LVU1225
	.uleb128 .LVU1245
	.uleb128 .LVU1263
	.uleb128 .LVU1305
	.uleb128 .LVU1306
	.uleb128 .LVU1308
	.uleb128 .LVU1310
	.uleb128 .LVU1312
	.uleb128 0
.LLST4:
	.byte	0x6
	.quad	.LVL7
	.byte	0x4
	.uleb128 .LVL7-.LVL7
	.uleb128 .LVL14-.LVL7
	.uleb128 0xc
	.byte	0x30
	.byte	0x9f
	.byte	0x93
	.uleb128 0x8
	.byte	0x30
	.byte	0x9f
	.byte	0x93
	.uleb128 0x8
	.byte	0x30
	.byte	0x9f
	.byte	0x93
	.uleb128 0x8
	.byte	0x4
	.uleb128 .LVL14-.LVL7
	.uleb128 .LVL15-.LVL7
	.uleb128 0xa
	.byte	0x50
	.byte	0x93
	.uleb128 0x8
	.byte	0x50
	.byte	0x93
	.uleb128 0x8
	.byte	0x30
	.byte	0x9f
	.byte	0x93
	.uleb128 0x8
	.byte	0x4
	.uleb128 .LVL15-.LVL7
	.uleb128 .LVL16-.LVL7
	.uleb128 0xe
	.byte	0x77
	.sleb128 128
	.byte	0x93
	.uleb128 0x8
	.byte	0x77
	.sleb128 128
	.byte	0x93
	.uleb128 0x8
	.byte	0x30
	.byte	0x9f
	.byte	0x93
	.uleb128 0x8
	.byte	0x4
	.uleb128 .LVL19-.LVL7
	.uleb128 .LVL40-.LVL7
	.uleb128 0x7
	.byte	0x77
	.sleb128 112
	.byte	0x93
	.uleb128 0x8
	.byte	0x93
	.uleb128 0x10
	.byte	0x4
	.uleb128 .LVL40-.LVL7
	.uleb128 .LVL42-.LVL7
	.uleb128 0x7
	.byte	0x77
	.sleb128 112
	.byte	0x93
	.uleb128 0x8
	.byte	0x93
	.uleb128 0x10
	.byte	0x4
	.uleb128 .LVL42-.LVL7
	.uleb128 .LVL43-.LVL7
	.uleb128 0x7
	.byte	0x77
	.sleb128 112
	.byte	0x93
	.uleb128 0x8
	.byte	0x93
	.uleb128 0x10
	.byte	0x4
	.uleb128 .LVL183-.LVL7
	.uleb128 .LVL185-.LVL7
	.uleb128 0xc
	.byte	0x30
	.byte	0x9f
	.byte	0x93
	.uleb128 0x8
	.byte	0x30
	.byte	0x9f
	.byte	0x93
	.uleb128 0x8
	.byte	0x30
	.byte	0x9f
	.byte	0x93
	.uleb128 0x8
	.byte	0x4
	.uleb128 .LVL198-.LVL7
	.uleb128 .LVL201-.LVL7
	.uleb128 0xc
	.byte	0x30
	.byte	0x9f
	.byte	0x93
	.uleb128 0x8
	.byte	0x30
	.byte	0x9f
	.byte	0x93
	.uleb128 0x8
	.byte	0x30
	.byte	0x9f
	.byte	0x93
	.uleb128 0x8
	.byte	0x4
	.uleb128 .LVL201-.LVL7
	.uleb128 .LVL210-.LVL7
	.uleb128 0x7
	.byte	0x77
	.sleb128 112
	.byte	0x93
	.uleb128 0x8
	.byte	0x93
	.uleb128 0x10
	.byte	0x4
	.uleb128 .LVL210-.LVL7
	.uleb128 .LVL211-.LVL7
	.uleb128 0x13
	.byte	0x77
	.sleb128 112
	.byte	0x93
	.uleb128 0x8
	.byte	0x77
	.sleb128 200
	.byte	0x6
	.byte	0x7c
	.sleb128 0
	.byte	0x22
	.byte	0x23
	.uleb128 0x30
	.byte	0x9f
	.byte	0x93
	.uleb128 0x8
	.byte	0x93
	.uleb128 0x8
	.byte	0x4
	.uleb128 .LVL211-.LVL7
	.uleb128 .LVL213-.LVL7
	.uleb128 0xa
	.byte	0x77
	.sleb128 112
	.byte	0x93
	.uleb128 0x8
	.byte	0x50
	.byte	0x93
	.uleb128 0x8
	.byte	0x93
	.uleb128 0x8
	.byte	0x4
	.uleb128 .LVL213-.LVL7
	.uleb128 .LVL217-.LVL7
	.uleb128 0xc
	.byte	0x77
	.sleb128 112
	.byte	0x93
	.uleb128 0x8
	.byte	0x77
	.sleb128 128
	.byte	0x93
	.uleb128 0x8
	.byte	0x93
	.uleb128 0x8
	.byte	0x4
	.uleb128 .LVL217-.LVL7
	.uleb128 .LVL218-.LVL7
	.uleb128 0x16
	.byte	0x77
	.sleb128 200
	.byte	0x93
	.uleb128 0x8
	.byte	0x77
	.sleb128 128
	.byte	0x93
	.uleb128 0x8
	.byte	0x77
	.sleb128 200
	.byte	0x6
	.byte	0x77
	.sleb128 192
	.byte	0x6
	.byte	0x22
	.byte	0x9f
	.byte	0x93
	.uleb128 0x8
	.byte	0x4
	.uleb128 .LVL218-.LVL7
	.uleb128 .LVL221-.LVL7
	.uleb128 0xd
	.byte	0x77
	.sleb128 200
	.byte	0x93
	.uleb128 0x8
	.byte	0x77
	.sleb128 128
	.byte	0x93
	.uleb128 0x8
	.byte	0x50
	.byte	0x93
	.uleb128 0x8
	.byte	0x4
	.uleb128 .LVL236-.LVL7
	.uleb128 .LVL237-.LVL7
	.uleb128 0x7
	.byte	0x77
	.sleb128 112
	.byte	0x93
	.uleb128 0x8
	.byte	0x93
	.uleb128 0x10
	.byte	0x6
	.quad	.LVL241
	.byte	0x4
	.uleb128 .LVL241-.LVL241
	.uleb128 .LVL243-.LVL241
	.uleb128 0x7
	.byte	0x77
	.sleb128 112
	.byte	0x93
	.uleb128 0x8
	.byte	0x93
	.uleb128 0x10
	.byte	0x4
	.uleb128 .LVL254-.LVL241
	.uleb128 .LVL255-.LVL241
	.uleb128 0x7
	.byte	0x77
	.sleb128 112
	.byte	0x93
	.uleb128 0x8
	.byte	0x93
	.uleb128 0x10
	.byte	0x4
	.uleb128 .LVL257-.LVL241
	.uleb128 .LVL259-.LVL241
	.uleb128 0x7
	.byte	0x77
	.sleb128 112
	.byte	0x93
	.uleb128 0x8
	.byte	0x93
	.uleb128 0x10
	.byte	0x4
	.uleb128 .LVL260-.LVL241
	.uleb128 .LFE11707-.LVL241
	.uleb128 0x7
	.byte	0x77
	.sleb128 112
	.byte	0x93
	.uleb128 0x8
	.byte	0x93
	.uleb128 0x10
	.byte	0
.LVUS108:
	.uleb128 .LVU93
	.uleb128 .LVU168
	.uleb128 .LVU1109
	.uleb128 .LVU1130
	.uleb128 .LVU1130
	.uleb128 .LVU1178
	.uleb128 .LVU1224
	.uleb128 .LVU1225
	.uleb128 .LVU1312
	.uleb128 .LVU1314
.LLST108:
	.byte	0x6
	.quad	.LVL19
	.byte	0x4
	.uleb128 .LVL19-.LVL19
	.uleb128 .LVL40-.LVL19
	.uleb128 0x1
	.byte	0x52
	.byte	0x4
	.uleb128 .LVL201-.LVL19
	.uleb128 .LVL205-1-.LVL19
	.uleb128 0x1
	.byte	0x52
	.byte	0x4
	.uleb128 .LVL205-1-.LVL19
	.uleb128 .LVL221-.LVL19
	.uleb128 0x3
	.byte	0x77
	.sleb128 104
	.byte	0x4
	.uleb128 .LVL236-.LVL19
	.uleb128 .LVL237-.LVL19
	.uleb128 0x3
	.byte	0x77
	.sleb128 104
	.byte	0x8
	.quad	.LVL260
	.uleb128 .LVL261-1-.LVL260
	.uleb128 0x1
	.byte	0x52
	.byte	0
.LVUS109:
	.uleb128 .LVU81
	.uleb128 .LVU997
	.uleb128 .LVU1001
	.uleb128 .LVU1011
	.uleb128 .LVU1011
	.uleb128 .LVU1030
	.uleb128 .LVU1109
	.uleb128 .LVU1222
	.uleb128 .LVU1223
	.uleb128 0
	.uleb128 0
	.uleb128 .LVU1263
	.uleb128 .LVU1283
	.uleb128 .LVU1306
	.uleb128 .LVU1308
	.uleb128 .LVU1310
	.uleb128 .LVU1312
	.uleb128 0
.LLST109:
	.byte	0x6
	.quad	.LVL17
	.byte	0x4
	.uleb128 .LVL17-.LVL17
	.uleb128 .LVL183-.LVL17
	.uleb128 0x4
	.byte	0xa3
	.uleb128 0x1
	.byte	0x54
	.byte	0x9f
	.byte	0x4
	.uleb128 .LVL184-.LVL17
	.uleb128 .LVL185-.LVL17
	.uleb128 0x1
	.byte	0x53
	.byte	0x4
	.uleb128 .LVL185-.LVL17
	.uleb128 .LVL190-.LVL17
	.uleb128 0x4
	.byte	0xa3
	.uleb128 0x1
	.byte	0x54
	.byte	0x9f
	.byte	0x4
	.uleb128 .LVL201-.LVL17
	.uleb128 .LVL234-.LVL17
	.uleb128 0x4
	.byte	0xa3
	.uleb128 0x1
	.byte	0x54
	.byte	0x9f
	.byte	0x4
	.uleb128 .LVL235-.LVL17
	.uleb128 .LHOTE4-.LVL17
	.uleb128 0x4
	.byte	0xa3
	.uleb128 0x1
	.byte	0x54
	.byte	0x9f
	.byte	0x6
	.quad	.LFSB11707
	.byte	0x4
	.uleb128 .LFSB11707-.LFSB11707
	.uleb128 .LVL243-.LFSB11707
	.uleb128 0x4
	.byte	0xa3
	.uleb128 0x1
	.byte	0x54
	.byte	0x9f
	.byte	0x4
	.uleb128 .LVL247-.LFSB11707
	.uleb128 .LVL255-.LFSB11707
	.uleb128 0x4
	.byte	0xa3
	.uleb128 0x1
	.byte	0x54
	.byte	0x9f
	.byte	0x4
	.uleb128 .LVL257-.LFSB11707
	.uleb128 .LVL259-.LFSB11707
	.uleb128 0x4
	.byte	0xa3
	.uleb128 0x1
	.byte	0x54
	.byte	0x9f
	.byte	0x4
	.uleb128 .LVL260-.LFSB11707
	.uleb128 .LFE11707-.LFSB11707
	.uleb128 0x4
	.byte	0xa3
	.uleb128 0x1
	.byte	0x54
	.byte	0x9f
	.byte	0
.LVUS117:
	.uleb128 .LVU107
	.uleb128 .LVU113
	.uleb128 .LVU113
	.uleb128 .LVU116
	.uleb128 .LVU116
	.uleb128 .LVU117
	.uleb128 .LVU117
	.uleb128 .LVU118
	.uleb128 .LVU118
	.uleb128 .LVU119
	.uleb128 .LVU119
	.uleb128 .LVU124
	.uleb128 .LVU124
	.uleb128 .LVU129
	.uleb128 .LVU129
	.uleb128 .LVU146
	.uleb128 .LVU146
	.uleb128 .LVU147
	.uleb128 .LVU147
	.uleb128 .LVU150
	.uleb128 .LVU150
	.uleb128 .LVU151
	.uleb128 .LVU151
	.uleb128 .LVU153
	.uleb128 .LVU153
	.uleb128 .LVU154
	.uleb128 .LVU154
	.uleb128 .LVU155
	.uleb128 .LVU155
	.uleb128 .LVU158
	.uleb128 .LVU158
	.uleb128 .LVU168
	.uleb128 .LVU1109
	.uleb128 .LVU1130
	.uleb128 .LVU1130
	.uleb128 .LVU1155
	.uleb128 .LVU1155
	.uleb128 .LVU1178
	.uleb128 .LVU1224
	.uleb128 .LVU1225
	.uleb128 .LVU1312
	.uleb128 .LVU1314
	.uleb128 .LVU1314
	.uleb128 .LVU1315
.LLST117:
	.byte	0x6
	.quad	.LVL23
	.byte	0x4
	.uleb128 .LVL23-.LVL23
	.uleb128 .LVL25-.LVL23
	.uleb128 0x5
	.byte	0x59
	.byte	0x93
	.uleb128 0x4
	.byte	0x93
	.uleb128 0x2c
	.byte	0x4
	.uleb128 .LVL25-.LVL23
	.uleb128 .LVL25-.LVL23
	.uleb128 0x8
	.byte	0x59
	.byte	0x93
	.uleb128 0x4
	.byte	0x58
	.byte	0x93
	.uleb128 0x4
	.byte	0x93
	.uleb128 0x28
	.byte	0x4
	.uleb128 .LVL25-.LVL23
	.uleb128 .LVL25-.LVL23
	.uleb128 0x2a
	.byte	0x59
	.byte	0x93
	.uleb128 0x4
	.byte	0x58
	.byte	0x93
	.uleb128 0x4
	.byte	0xa5
	.uleb128 0x11
	.uleb128 0x30
	.byte	0xa4
	.uleb128 0x30
	.byte	0x4
	.long	0x3f800000
	.byte	0x22
	.byte	0xa5
	.uleb128 0x14
	.uleb128 0x30
	.byte	0x1c
	.byte	0xa5
	.uleb128 0x12
	.uleb128 0x30
	.byte	0xa4
	.uleb128 0x30
	.byte	0x4
	.long	0x3f800000
	.byte	0x22
	.byte	0xa5
	.uleb128 0x13
	.uleb128 0x30
	.byte	0x1c
	.byte	0x1e
	.byte	0x9f
	.byte	0x93
	.uleb128 0x4
	.byte	0x93
	.uleb128 0x24
	.byte	0x4
	.uleb128 .LVL25-.LVL23
	.uleb128 .LVL25-.LVL23
	.uleb128 0x44
	.byte	0x59
	.byte	0x93
	.uleb128 0x4
	.byte	0x58
	.byte	0x93
	.uleb128 0x4
	.byte	0xa5
	.uleb128 0x11
	.uleb128 0x30
	.byte	0xa4
	.uleb128 0x30
	.byte	0x4
	.long	0x3f800000
	.byte	0x22
	.byte	0xa5
	.uleb128 0x14
	.uleb128 0x30
	.byte	0x1c
	.byte	0xa5
	.uleb128 0x12
	.uleb128 0x30
	.byte	0xa4
	.uleb128 0x30
	.byte	0x4
	.long	0x3f800000
	.byte	0x22
	.byte	0xa5
	.uleb128 0x13
	.uleb128 0x30
	.byte	0x1c
	.byte	0x1e
	.byte	0x9f
	.byte	0x93
	.uleb128 0x4
	.byte	0xa5
	.uleb128 0x12
	.uleb128 0x30
	.byte	0xa4
	.uleb128 0x30
	.byte	0x4
	.long	0x3f800000
	.byte	0x22
	.byte	0xa5
	.uleb128 0x13
	.uleb128 0x30
	.byte	0x1c
	.byte	0xa5
	.uleb128 0x14
	.uleb128 0x30
	.byte	0xa5
	.uleb128 0x11
	.uleb128 0x30
	.byte	0x1c
	.byte	0x1e
	.byte	0x9f
	.byte	0x93
	.uleb128 0x4
	.byte	0x93
	.uleb128 0x20
	.byte	0x4
	.uleb128 .LVL25-.LVL23
	.uleb128 .LVL25-.LVL23
	.uleb128 0x5e
	.byte	0x59
	.byte	0x93
	.uleb128 0x4
	.byte	0x58
	.byte	0x93
	.uleb128 0x4
	.byte	0xa5
	.uleb128 0x11
	.uleb128 0x30
	.byte	0xa4
	.uleb128 0x30
	.byte	0x4
	.long	0x3f800000
	.byte	0x22
	.byte	0xa5
	.uleb128 0x14
	.uleb128 0x30
	.byte	0x1c
	.byte	0xa5
	.uleb128 0x12
	.uleb128 0x30
	.byte	0xa4
	.uleb128 0x30
	.byte	0x4
	.long	0x3f800000
	.byte	0x22
	.byte	0xa5
	.uleb128 0x13
	.uleb128 0x30
	.byte	0x1c
	.byte	0x1e
	.byte	0x9f
	.byte	0x93
	.uleb128 0x4
	.byte	0xa5
	.uleb128 0x12
	.uleb128 0x30
	.byte	0xa4
	.uleb128 0x30
	.byte	0x4
	.long	0x3f800000
	.byte	0x22
	.byte	0xa5
	.uleb128 0x13
	.uleb128 0x30
	.byte	0x1c
	.byte	0xa5
	.uleb128 0x14
	.uleb128 0x30
	.byte	0xa5
	.uleb128 0x11
	.uleb128 0x30
	.byte	0x1c
	.byte	0x1e
	.byte	0x9f
	.byte	0x93
	.uleb128 0x4
	.byte	0xa5
	.uleb128 0x11
	.uleb128 0x30
	.byte	0xa4
	.uleb128 0x30
	.byte	0x4
	.long	0x3f800000
	.byte	0x22
	.byte	0xa5
	.uleb128 0x14
	.uleb128 0x30
	.byte	0x1c
	.byte	0xa5
	.uleb128 0x13
	.uleb128 0x30
	.byte	0xa5
	.uleb128 0x12
	.uleb128 0x30
	.byte	0x1c
	.byte	0x1e
	.byte	0x9f
	.byte	0x93
	.uleb128 0x4
	.byte	0x93
	.uleb128 0x1c
	.byte	0x4
	.uleb128 .LVL25-.LVL23
	.uleb128 .LVL26-.LVL23
	.uleb128 0x70
	.byte	0x59
	.byte	0x93
	.uleb128 0x4
	.byte	0x58
	.byte	0x93
	.uleb128 0x4
	.byte	0xa5
	.uleb128 0x11
	.uleb128 0x30
	.byte	0xa4
	.uleb128 0x30
	.byte	0x4
	.long	0x3f800000
	.byte	0x22
	.byte	0xa5
	.uleb128 0x14
	.uleb128 0x30
	.byte	0x1c
	.byte	0xa5
	.uleb128 0x12
	.uleb128 0x30
	.byte	0xa4
	.uleb128 0x30
	.byte	0x4
	.long	0x3f800000
	.byte	0x22
	.byte	0xa5
	.uleb128 0x13
	.uleb128 0x30
	.byte	0x1c
	.byte	0x1e
	.byte	0x9f
	.byte	0x93
	.uleb128 0x4
	.byte	0xa5
	.uleb128 0x12
	.uleb128 0x30
	.byte	0xa4
	.uleb128 0x30
	.byte	0x4
	.long	0x3f800000
	.byte	0x22
	.byte	0xa5
	.uleb128 0x13
	.uleb128 0x30
	.byte	0x1c
	.byte	0xa5
	.uleb128 0x14
	.uleb128 0x30
	.byte	0xa5
	.uleb128 0x11
	.uleb128 0x30
	.byte	0x1c
	.byte	0x1e
	.byte	0x9f
	.byte	0x93
	.uleb128 0x4
	.byte	0xa5
	.uleb128 0x11
	.uleb128 0x30
	.byte	0xa4
	.uleb128 0x30
	.byte	0x4
	.long	0x3f800000
	.byte	0x22
	.byte	0xa5
	.uleb128 0x14
	.uleb128 0x30
	.byte	0x1c
	.byte	0xa5
	.uleb128 0x13
	.uleb128 0x30
	.byte	0xa5
	.uleb128 0x12
	.uleb128 0x30
	.byte	0x1c
	.byte	0x1e
	.byte	0x9f
	.byte	0x93
	.uleb128 0x4
	.byte	0xa5
	.uleb128 0x14
	.uleb128 0x30
	.byte	0xa5
	.uleb128 0x11
	.uleb128 0x30
	.byte	0x1c
	.byte	0xa5
	.uleb128 0x13
	.uleb128 0x30
	.byte	0xa5
	.uleb128 0x12
	.uleb128 0x30
	.byte	0x1c
	.byte	0x1e
	.byte	0x9f
	.byte	0x93
	.uleb128 0x4
	.byte	0x93
	.uleb128 0x18
	.byte	0x4
	.uleb128 .LVL26-.LVL23
	.uleb128 .LVL27-.LVL23
	.uleb128 0x73
	.byte	0x59
	.byte	0x93
	.uleb128 0x4
	.byte	0x58
	.byte	0x93
	.uleb128 0x4
	.byte	0xa5
	.uleb128 0x11
	.uleb128 0x30
	.byte	0xa4
	.uleb128 0x30
	.byte	0x4
	.long	0x3f800000
	.byte	0x22
	.byte	0xa5
	.uleb128 0x14
	.uleb128 0x30
	.byte	0x1c
	.byte	0xa5
	.uleb128 0x12
	.uleb128 0x30
	.byte	0xa4
	.uleb128 0x30
	.byte	0x4
	.long	0x3f800000
	.byte	0x22
	.byte	0xa5
	.uleb128 0x13
	.uleb128 0x30
	.byte	0x1c
	.byte	0x1e
	.byte	0x9f
	.byte	0x93
	.uleb128 0x4
	.byte	0xa5
	.uleb128 0x12
	.uleb128 0x30
	.byte	0xa4
	.uleb128 0x30
	.byte	0x4
	.long	0x3f800000
	.byte	0x22
	.byte	0xa5
	.uleb128 0x13
	.uleb128 0x30
	.byte	0x1c
	.byte	0xa5
	.uleb128 0x14
	.uleb128 0x30
	.byte	0xa5
	.uleb128 0x11
	.uleb128 0x30
	.byte	0x1c
	.byte	0x1e
	.byte	0x9f
	.byte	0x93
	.uleb128 0x4
	.byte	0xa5
	.uleb128 0x11
	.uleb128 0x30
	.byte	0xa4
	.uleb128 0x30
	.byte	0x4
	.long	0x3f800000
	.byte	0x22
	.byte	0xa5
	.uleb128 0x14
	.uleb128 0x30
	.byte	0x1c
	.byte	0xa5
	.uleb128 0x13
	.uleb128 0x30
	.byte	0xa5
	.uleb128 0x12
	.uleb128 0x30
	.byte	0x1c
	.byte	0x1e
	.byte	0x9f
	.byte	0x93
	.uleb128 0x4
	.byte	0xa5
	.uleb128 0x14
	.uleb128 0x30
	.byte	0xa5
	.uleb128 0x11
	.uleb128 0x30
	.byte	0x1c
	.byte	0xa5
	.uleb128 0x13
	.uleb128 0x30
	.byte	0xa5
	.uleb128 0x12
	.uleb128 0x30
	.byte	0x1c
	.byte	0x1e
	.byte	0x9f
	.byte	0x93
	.uleb128 0x4
	.byte	0x54
	.byte	0x93
	.uleb128 0x4
	.byte	0x93
	.uleb128 0x14
	.byte	0x4
	.uleb128 .LVL27-.LVL23
	.uleb128 .LVL30-.LVL23
	.uleb128 0x76
	.byte	0x59
	.byte	0x93
	.uleb128 0x4
	.byte	0x58
	.byte	0x93
	.uleb128 0x4
	.byte	0xa5
	.uleb128 0x11
	.uleb128 0x30
	.byte	0xa4
	.uleb128 0x30
	.byte	0x4
	.long	0x3f800000
	.byte	0x22
	.byte	0xa5
	.uleb128 0x14
	.uleb128 0x30
	.byte	0x1c
	.byte	0xa5
	.uleb128 0x12
	.uleb128 0x30
	.byte	0xa4
	.uleb128 0x30
	.byte	0x4
	.long	0x3f800000
	.byte	0x22
	.byte	0xa5
	.uleb128 0x13
	.uleb128 0x30
	.byte	0x1c
	.byte	0x1e
	.byte	0x9f
	.byte	0x93
	.uleb128 0x4
	.byte	0xa5
	.uleb128 0x12
	.uleb128 0x30
	.byte	0xa4
	.uleb128 0x30
	.byte	0x4
	.long	0x3f800000
	.byte	0x22
	.byte	0xa5
	.uleb128 0x13
	.uleb128 0x30
	.byte	0x1c
	.byte	0xa5
	.uleb128 0x14
	.uleb128 0x30
	.byte	0xa5
	.uleb128 0x11
	.uleb128 0x30
	.byte	0x1c
	.byte	0x1e
	.byte	0x9f
	.byte	0x93
	.uleb128 0x4
	.byte	0xa5
	.uleb128 0x11
	.uleb128 0x30
	.byte	0xa4
	.uleb128 0x30
	.byte	0x4
	.long	0x3f800000
	.byte	0x22
	.byte	0xa5
	.uleb128 0x14
	.uleb128 0x30
	.byte	0x1c
	.byte	0xa5
	.uleb128 0x13
	.uleb128 0x30
	.byte	0xa5
	.uleb128 0x12
	.uleb128 0x30
	.byte	0x1c
	.byte	0x1e
	.byte	0x9f
	.byte	0x93
	.uleb128 0x4
	.byte	0xa5
	.uleb128 0x14
	.uleb128 0x30
	.byte	0xa5
	.uleb128 0x11
	.uleb128 0x30
	.byte	0x1c
	.byte	0xa5
	.uleb128 0x13
	.uleb128 0x30
	.byte	0xa5
	.uleb128 0x12
	.uleb128 0x30
	.byte	0x1c
	.byte	0x1e
	.byte	0x9f
	.byte	0x93
	.uleb128 0x4
	.byte	0x54
	.byte	0x93
	.uleb128 0x4
	.byte	0x53
	.byte	0x93
	.uleb128 0x4
	.byte	0x93
	.uleb128 0x10
	.byte	0x4
	.uleb128 .LVL30-.LVL23
	.uleb128 .LVL31-.LVL23
	.uleb128 0x6e
	.byte	0x59
	.byte	0x93
	.uleb128 0x4
	.byte	0x58
	.byte	0x93
	.uleb128 0x4
	.byte	0xa5
	.uleb128 0x11
	.uleb128 0x30
	.byte	0xa4
	.uleb128 0x30
	.byte	0x4
	.long	0x3f800000
	.byte	0x22
	.byte	0xa5
	.uleb128 0x14
	.uleb128 0x30
	.byte	0x1c
	.byte	0xa5
	.uleb128 0x12
	.uleb128 0x30
	.byte	0xa4
	.uleb128 0x30
	.byte	0x4
	.long	0x3f800000
	.byte	0x22
	.byte	0xa5
	.uleb128 0x13
	.uleb128 0x30
	.byte	0x1c
	.byte	0x1e
	.byte	0x9f
	.byte	0x93
	.uleb128 0x4
	.byte	0xa5
	.uleb128 0x12
	.uleb128 0x30
	.byte	0xa4
	.uleb128 0x30
	.byte	0x4
	.long	0x3f800000
	.byte	0x22
	.byte	0xa5
	.uleb128 0x13
	.uleb128 0x30
	.byte	0x1c
	.byte	0xa5
	.uleb128 0x14
	.uleb128 0x30
	.byte	0xa5
	.uleb128 0x11
	.uleb128 0x30
	.byte	0x1c
	.byte	0x1e
	.byte	0x9f
	.byte	0x93
	.uleb128 0x4
	.byte	0xa5
	.uleb128 0x11
	.uleb128 0x30
	.byte	0xa4
	.uleb128 0x30
	.byte	0x4
	.long	0x3f800000
	.byte	0x22
	.byte	0xa5
	.uleb128 0x14
	.uleb128 0x30
	.byte	0x1c
	.byte	0xa5
	.uleb128 0x17
	.uleb128 0x30
	.byte	0x1e
	.byte	0x9f
	.byte	0x93
	.uleb128 0x4
	.byte	0xa5
	.uleb128 0x14
	.uleb128 0x30
	.byte	0xa5
	.uleb128 0x11
	.uleb128 0x30
	.byte	0x1c
	.byte	0xa5
	.uleb128 0x17
	.uleb128 0x30
	.byte	0x1e
	.byte	0x9f
	.byte	0x93
	.uleb128 0x4
	.byte	0x54
	.byte	0x93
	.uleb128 0x4
	.byte	0x53
	.byte	0x93
	.uleb128 0x4
	.byte	0x93
	.uleb128 0x10
	.byte	0x4
	.uleb128 .LVL31-.LVL23
	.uleb128 .LVL32-.LVL23
	.uleb128 0x66
	.byte	0x59
	.byte	0x93
	.uleb128 0x4
	.byte	0x58
	.byte	0x93
	.uleb128 0x4
	.byte	0xa5
	.uleb128 0x11
	.uleb128 0x30
	.byte	0xa4
	.uleb128 0x30
	.byte	0x4
	.long	0x3f800000
	.byte	0x22
	.byte	0xa5
	.uleb128 0x14
	.uleb128 0x30
	.byte	0x1c
	.byte	0xa5
	.uleb128 0x12
	.uleb128 0x30
	.byte	0xa4
	.uleb128 0x30
	.byte	0x4
	.long	0x3f800000
	.byte	0x22
	.byte	0xa5
	.uleb128 0x13
	.uleb128 0x30
	.byte	0x1c
	.byte	0x1e
	.byte	0x9f
	.byte	0x93
	.uleb128 0x4
	.byte	0xa5
	.uleb128 0x12
	.uleb128 0x30
	.byte	0xa4
	.uleb128 0x30
	.byte	0x4
	.long	0x3f800000
	.byte	0x22
	.byte	0xa5
	.uleb128 0x13
	.uleb128 0x30
	.byte	0x1c
	.byte	0xa5
	.uleb128 0x16
	.uleb128 0x30
	.byte	0x1e
	.byte	0x9f
	.byte	0x93
	.uleb128 0x4
	.byte	0xa5
	.uleb128 0x11
	.uleb128 0x30
	.byte	0xa4
	.uleb128 0x30
	.byte	0x4
	.long	0x3f800000
	.byte	0x22
	.byte	0xa5
	.uleb128 0x14
	.uleb128 0x30
	.byte	0x1c
	.byte	0xa5
	.uleb128 0x17
	.uleb128 0x30
	.byte	0x1e
	.byte	0x9f
	.byte	0x93
	.uleb128 0x4
	.byte	0xa5
	.uleb128 0x16
	.uleb128 0x30
	.byte	0xa5
	.uleb128 0x17
	.uleb128 0x30
	.byte	0x1e
	.byte	0x9f
	.byte	0x93
	.uleb128 0x4
	.byte	0x54
	.byte	0x93
	.uleb128 0x4
	.byte	0x53
	.byte	0x93
	.uleb128 0x4
	.byte	0x93
	.uleb128 0x10
	.byte	0x4
	.uleb128 .LVL32-.LVL23
	.uleb128 .LVL33-.LVL23
	.uleb128 0x56
	.byte	0x59
	.byte	0x93
	.uleb128 0x4
	.byte	0x58
	.byte	0x93
	.uleb128 0x4
	.byte	0xa5
	.uleb128 0x11
	.uleb128 0x30
	.byte	0xa5
	.uleb128 0x14
	.uleb128 0x30
	.byte	0x1c
	.byte	0xa5
	.uleb128 0x12
	.uleb128 0x30
	.byte	0xa4
	.uleb128 0x30
	.byte	0x4
	.long	0x3f800000
	.byte	0x22
	.byte	0xa5
	.uleb128 0x13
	.uleb128 0x30
	.byte	0x1c
	.byte	0x1e
	.byte	0x9f
	.byte	0x93
	.uleb128 0x4
	.byte	0xa5
	.uleb128 0x12
	.uleb128 0x30
	.byte	0xa4
	.uleb128 0x30
	.byte	0x4
	.long	0x3f800000
	.byte	0x22
	.byte	0xa5
	.uleb128 0x13
	.uleb128 0x30
	.byte	0x1c
	.byte	0xa5
	.uleb128 0x16
	.uleb128 0x30
	.byte	0x1e
	.byte	0x9f
	.byte	0x93
	.uleb128 0x4
	.byte	0xa5
	.uleb128 0x11
	.uleb128 0x30
	.byte	0xa5
	.uleb128 0x14
	.uleb128 0x30
	.byte	0x1c
	.byte	0xa5
	.uleb128 0x17
	.uleb128 0x30
	.byte	0x1e
	.byte	0x9f
	.byte	0x93
	.uleb128 0x4
	.byte	0xa5
	.uleb128 0x16
	.uleb128 0x30
	.byte	0xa5
	.uleb128 0x17
	.uleb128 0x30
	.byte	0x1e
	.byte	0x9f
	.byte	0x93
	.uleb128 0x4
	.byte	0x54
	.byte	0x93
	.uleb128 0x4
	.byte	0x53
	.byte	0x93
	.uleb128 0x4
	.byte	0x93
	.uleb128 0x10
	.byte	0x4
	.uleb128 .LVL33-.LVL23
	.uleb128 .LVL34-.LVL23
	.uleb128 0x46
	.byte	0x59
	.byte	0x93
	.uleb128 0x4
	.byte	0x58
	.byte	0x93
	.uleb128 0x4
	.byte	0xa5
	.uleb128 0x11
	.uleb128 0x30
	.byte	0xa5
	.uleb128 0x14
	.uleb128 0x30
	.byte	0x1c
	.byte	0xa5
	.uleb128 0x12
	.uleb128 0x30
	.byte	0xa5
	.uleb128 0x13
	.uleb128 0x30
	.byte	0x1c
	.byte	0x1e
	.byte	0x9f
	.byte	0x93
	.uleb128 0x4
	.byte	0xa5
	.uleb128 0x12
	.uleb128 0x30
	.byte	0xa5
	.uleb128 0x13
	.uleb128 0x30
	.byte	0x1c
	.byte	0xa5
	.uleb128 0x16
	.uleb128 0x30
	.byte	0x1e
	.byte	0x9f
	.byte	0x93
	.uleb128 0x4
	.byte	0xa5
	.uleb128 0x11
	.uleb128 0x30
	.byte	0xa5
	.uleb128 0x14
	.uleb128 0x30
	.byte	0x1c
	.byte	0xa5
	.uleb128 0x17
	.uleb128 0x30
	.byte	0x1e
	.byte	0x9f
	.byte	0x93
	.uleb128 0x4
	.byte	0xa5
	.uleb128 0x16
	.uleb128 0x30
	.byte	0xa5
	.uleb128 0x17
	.uleb128 0x30
	.byte	0x1e
	.byte	0x9f
	.byte	0x93
	.uleb128 0x4
	.byte	0x54
	.byte	0x93
	.uleb128 0x4
	.byte	0x53
	.byte	0x93
	.uleb128 0x4
	.byte	0x93
	.uleb128 0x10
	.byte	0x4
	.uleb128 .LVL34-.LVL23
	.uleb128 .LVL35-.LVL23
	.uleb128 0x2a
	.byte	0x59
	.byte	0x93
	.uleb128 0x4
	.byte	0x58
	.byte	0x93
	.uleb128 0x4
	.byte	0x93
	.uleb128 0x4
	.byte	0xa5
	.uleb128 0x12
	.uleb128 0x30
	.byte	0xa5
	.uleb128 0x13
	.uleb128 0x30
	.byte	0x1c
	.byte	0xa5
	.uleb128 0x16
	.uleb128 0x30
	.byte	0x1e
	.byte	0x9f
	.byte	0x93
	.uleb128 0x4
	.byte	0x93
	.uleb128 0x4
	.byte	0xa5
	.uleb128 0x16
	.uleb128 0x30
	.byte	0xa5
	.uleb128 0x17
	.uleb128 0x30
	.byte	0x1e
	.byte	0x9f
	.byte	0x93
	.uleb128 0x4
	.byte	0x54
	.byte	0x93
	.uleb128 0x4
	.byte	0x53
	.byte	0x93
	.uleb128 0x4
	.byte	0x93
	.uleb128 0x10
	.byte	0x4
	.uleb128 .LVL35-.LVL23
	.uleb128 .LVL36-.LVL23
	.uleb128 0x1a
	.byte	0x59
	.byte	0x93
	.uleb128 0x4
	.byte	0x58
	.byte	0x93
	.uleb128 0x4
	.byte	0x93
	.uleb128 0xc
	.byte	0xa5
	.uleb128 0x16
	.uleb128 0x30
	.byte	0xa5
	.uleb128 0x17
	.uleb128 0x30
	.byte	0x1e
	.byte	0x9f
	.byte	0x93
	.uleb128 0x4
	.byte	0x54
	.byte	0x93
	.uleb128 0x4
	.byte	0x53
	.byte	0x93
	.uleb128 0x4
	.byte	0x93
	.uleb128 0x10
	.byte	0x4
	.uleb128 .LVL36-.LVL23
	.uleb128 .LVL37-.LVL23
	.uleb128 0x1a
	.byte	0x59
	.byte	0x93
	.uleb128 0x4
	.byte	0x58
	.byte	0x93
	.uleb128 0x4
	.byte	0x93
	.uleb128 0xc
	.byte	0xa5
	.uleb128 0x16
	.uleb128 0x30
	.byte	0xa5
	.uleb128 0x17
	.uleb128 0x30
	.byte	0x1e
	.byte	0x9f
	.byte	0x93
	.uleb128 0x4
	.byte	0x54
	.byte	0x93
	.uleb128 0x4
	.byte	0x53
	.byte	0x93
	.uleb128 0x4
	.byte	0x93
	.uleb128 0x10
	.byte	0x4
	.uleb128 .LVL37-.LVL23
	.uleb128 .LVL40-.LVL23
	.uleb128 0x10
	.byte	0x59
	.byte	0x93
	.uleb128 0x4
	.byte	0x58
	.byte	0x93
	.uleb128 0x4
	.byte	0x93
	.uleb128 0x10
	.byte	0x54
	.byte	0x93
	.uleb128 0x4
	.byte	0x53
	.byte	0x93
	.uleb128 0x4
	.byte	0x93
	.uleb128 0x10
	.byte	0x4
	.uleb128 .LVL201-.LVL23
	.uleb128 .LVL205-1-.LVL23
	.uleb128 0x10
	.byte	0x59
	.byte	0x93
	.uleb128 0x4
	.byte	0x58
	.byte	0x93
	.uleb128 0x4
	.byte	0x93
	.uleb128 0x10
	.byte	0x54
	.byte	0x93
	.uleb128 0x4
	.byte	0x53
	.byte	0x93
	.uleb128 0x4
	.byte	0x93
	.uleb128 0x10
	.byte	0x4
	.uleb128 .LVL205-1-.LVL23
	.uleb128 .LVL208-.LVL23
	.uleb128 0x16
	.byte	0x77
	.sleb128 176
	.byte	0x93
	.uleb128 0x4
	.byte	0x77
	.sleb128 168
	.byte	0x93
	.uleb128 0x4
	.byte	0x93
	.uleb128 0x10
	.byte	0x77
	.sleb128 152
	.byte	0x93
	.uleb128 0x4
	.byte	0x53
	.byte	0x93
	.uleb128 0x4
	.byte	0x93
	.uleb128 0x10
	.byte	0x4
	.uleb128 .LVL208-.LVL23
	.uleb128 .LVL221-.LVL23
	.uleb128 0x13
	.byte	0x93
	.uleb128 0x4
	.byte	0x77
	.sleb128 168
	.byte	0x93
	.uleb128 0x4
	.byte	0x93
	.uleb128 0x10
	.byte	0x77
	.sleb128 152
	.byte	0x93
	.uleb128 0x4
	.byte	0x53
	.byte	0x93
	.uleb128 0x4
	.byte	0x93
	.uleb128 0x10
	.byte	0x4
	.uleb128 .LVL236-.LVL23
	.uleb128 .LVL237-.LVL23
	.uleb128 0x16
	.byte	0x77
	.sleb128 176
	.byte	0x93
	.uleb128 0x4
	.byte	0x77
	.sleb128 168
	.byte	0x93
	.uleb128 0x4
	.byte	0x93
	.uleb128 0x10
	.byte	0x77
	.sleb128 152
	.byte	0x93
	.uleb128 0x4
	.byte	0x53
	.byte	0x93
	.uleb128 0x4
	.byte	0x93
	.uleb128 0x10
	.byte	0x6
	.quad	.LVL260
	.byte	0x4
	.uleb128 .LVL260-.LVL260
	.uleb128 .LVL261-1-.LVL260
	.uleb128 0x10
	.byte	0x59
	.byte	0x93
	.uleb128 0x4
	.byte	0x58
	.byte	0x93
	.uleb128 0x4
	.byte	0x93
	.uleb128 0x10
	.byte	0x54
	.byte	0x93
	.uleb128 0x4
	.byte	0x53
	.byte	0x93
	.uleb128 0x4
	.byte	0x93
	.uleb128 0x10
	.byte	0x4
	.uleb128 .LVL261-1-.LVL260
	.uleb128 .LVL262-.LVL260
	.uleb128 0x7
	.byte	0x93
	.uleb128 0x1c
	.byte	0x53
	.byte	0x93
	.uleb128 0x4
	.byte	0x93
	.uleb128 0x10
	.byte	0
.LVUS118:
	.uleb128 .LVU97
	.uleb128 .LVU168
	.uleb128 .LVU1109
	.uleb128 .LVU1130
	.uleb128 .LVU1312
	.uleb128 .LVU1314
.LLST118:
	.byte	0x6
	.quad	.LVL20
	.byte	0x4
	.uleb128 .LVL20-.LVL20
	.uleb128 .LVL40-.LVL20
	.uleb128 0x1
	.byte	0x64
	.byte	0x4
	.uleb128 .LVL201-.LVL20
	.uleb128 .LVL205-1-.LVL20
	.uleb128 0x1
	.byte	0x64
	.byte	0x8
	.quad	.LVL260
	.uleb128 .LVL261-1-.LVL260
	.uleb128 0x1
	.byte	0x64
	.byte	0
.LVUS119:
	.uleb128 .LVU101
	.uleb128 .LVU155
	.uleb128 .LVU155
	.uleb128 .LVU168
	.uleb128 .LVU1109
	.uleb128 .LVU1130
	.uleb128 .LVU1312
	.uleb128 .LVU1314
.LLST119:
	.byte	0x6
	.quad	.LVL21
	.byte	0x4
	.uleb128 .LVL21-.LVL21
	.uleb128 .LVL36-.LVL21
	.uleb128 0x1
	.byte	0x63
	.byte	0x4
	.uleb128 .LVL36-.LVL21
	.uleb128 .LVL40-.LVL21
	.uleb128 0xa
	.byte	0xa5
	.uleb128 0x15
	.uleb128 0x30
	.byte	0x72
	.sleb128 44
	.byte	0xa6
	.byte	0x4
	.uleb128 0x30
	.byte	0x1e
	.byte	0x9f
	.byte	0x4
	.uleb128 .LVL201-.LVL21
	.uleb128 .LVL205-1-.LVL21
	.uleb128 0xa
	.byte	0xa5
	.uleb128 0x15
	.uleb128 0x30
	.byte	0x72
	.sleb128 44
	.byte	0xa6
	.byte	0x4
	.uleb128 0x30
	.byte	0x1e
	.byte	0x9f
	.byte	0x8
	.quad	.LVL260
	.uleb128 .LVL261-1-.LVL260
	.uleb128 0xa
	.byte	0xa5
	.uleb128 0x15
	.uleb128 0x30
	.byte	0x72
	.sleb128 44
	.byte	0xa6
	.byte	0x4
	.uleb128 0x30
	.byte	0x1e
	.byte	0x9f
	.byte	0
.LVUS120:
	.uleb128 .LVU114
	.uleb128 .LVU147
	.uleb128 .LVU147
	.uleb128 .LVU158
.LLST120:
	.byte	0x6
	.quad	.LVL25
	.byte	0x4
	.uleb128 .LVL25-.LVL25
	.uleb128 .LVL31-.LVL25
	.uleb128 0x8
	.byte	0xa5
	.uleb128 0x14
	.uleb128 0x30
	.byte	0xa5
	.uleb128 0x11
	.uleb128 0x30
	.byte	0x1c
	.byte	0x9f
	.byte	0x4
	.uleb128 .LVL31-.LVL25
	.uleb128 .LVL37-.LVL25
	.uleb128 0x1
	.byte	0x66
	.byte	0
.LVUS121:
	.uleb128 .LVU115
	.uleb128 .LVU146
	.uleb128 .LVU146
	.uleb128 .LVU168
	.uleb128 .LVU1109
	.uleb128 .LVU1130
	.uleb128 .LVU1312
	.uleb128 .LVU1314
.LLST121:
	.byte	0x6
	.quad	.LVL25
	.byte	0x4
	.uleb128 .LVL25-.LVL25
	.uleb128 .LVL30-.LVL25
	.uleb128 0x8
	.byte	0xa5
	.uleb128 0x13
	.uleb128 0x30
	.byte	0xa5
	.uleb128 0x12
	.uleb128 0x30
	.byte	0x1c
	.byte	0x9f
	.byte	0x4
	.uleb128 .LVL30-.LVL25
	.uleb128 .LVL40-.LVL25
	.uleb128 0x1
	.byte	0x67
	.byte	0x4
	.uleb128 .LVL201-.LVL25
	.uleb128 .LVL205-1-.LVL25
	.uleb128 0x1
	.byte	0x67
	.byte	0x8
	.quad	.LVL260
	.uleb128 .LVL261-1-.LVL260
	.uleb128 0x1
	.byte	0x67
	.byte	0
.LVUS122:
	.uleb128 .LVU102
	.uleb128 .LVU105
.LLST122:
	.byte	0x8
	.quad	.LVL21
	.uleb128 .LVL22-.LVL21
	.uleb128 0x1
	.byte	0x64
	.byte	0
.LVUS123:
	.uleb128 .LVU108
	.uleb128 .LVU111
.LLST123:
	.byte	0x8
	.quad	.LVL23
	.uleb128 .LVL24-.LVL23
	.uleb128 0x1
	.byte	0x63
	.byte	0
.LVUS125:
	.uleb128 .LVU125
	.uleb128 .LVU129
.LLST125:
	.byte	0x8
	.quad	.LVL26
	.uleb128 .LVL27-.LVL26
	.uleb128 0x6
	.byte	0xa0
	.long	.Ldebug_info0+51647
	.sleb128 0
	.byte	0
.LVUS127:
	.uleb128 .LVU134
	.uleb128 .LVU138
.LLST127:
	.byte	0x8
	.quad	.LVL28
	.uleb128 .LVL29-.LVL28
	.uleb128 0x6
	.byte	0xa0
	.long	.Ldebug_info0+51656
	.sleb128 0
	.byte	0
.LVUS129:
	.uleb128 .LVU140
	.uleb128 .LVU141
.LLST129:
	.byte	0x8
	.quad	.LVL29
	.uleb128 .LVL29-.LVL29
	.uleb128 0x3
	.byte	0x72
	.sleb128 16
	.byte	0x9f
	.byte	0
.LVUS131:
	.uleb128 .LVU159
	.uleb128 .LVU168
	.uleb128 .LVU1109
	.uleb128 .LVU1178
	.uleb128 .LVU1224
	.uleb128 .LVU1225
	.uleb128 .LVU1312
	.uleb128 0
.LLST131:
	.byte	0x6
	.quad	.LVL37
	.byte	0x4
	.uleb128 .LVL37-.LVL37
	.uleb128 .LVL40-.LVL37
	.uleb128 0x6
	.byte	0xa0
	.long	.Ldebug_info0+51684
	.sleb128 0
	.byte	0x4
	.uleb128 .LVL201-.LVL37
	.uleb128 .LVL221-.LVL37
	.uleb128 0x6
	.byte	0xa0
	.long	.Ldebug_info0+51684
	.sleb128 0
	.byte	0x4
	.uleb128 .LVL236-.LVL37
	.uleb128 .LVL237-.LVL37
	.uleb128 0x6
	.byte	0xa0
	.long	.Ldebug_info0+51684
	.sleb128 0
	.byte	0x8
	.quad	.LVL260
	.uleb128 .LFE11707-.LVL260
	.uleb128 0x6
	.byte	0xa0
	.long	.Ldebug_info0+51684
	.sleb128 0
	.byte	0
.LVUS132:
	.uleb128 .LVU159
	.uleb128 .LVU168
	.uleb128 .LVU1109
	.uleb128 .LVU1178
	.uleb128 .LVU1224
	.uleb128 .LVU1225
	.uleb128 .LVU1312
	.uleb128 0
.LLST132:
	.byte	0x6
	.quad	.LVL37
	.byte	0x4
	.uleb128 .LVL37-.LVL37
	.uleb128 .LVL40-.LVL37
	.uleb128 0x6
	.byte	0xa0
	.long	.Ldebug_info0+51812
	.sleb128 0
	.byte	0x4
	.uleb128 .LVL201-.LVL37
	.uleb128 .LVL221-.LVL37
	.uleb128 0x6
	.byte	0xa0
	.long	.Ldebug_info0+51812
	.sleb128 0
	.byte	0x4
	.uleb128 .LVL236-.LVL37
	.uleb128 .LVL237-.LVL37
	.uleb128 0x6
	.byte	0xa0
	.long	.Ldebug_info0+51812
	.sleb128 0
	.byte	0x8
	.quad	.LVL260
	.uleb128 .LFE11707-.LVL260
	.uleb128 0x6
	.byte	0xa0
	.long	.Ldebug_info0+51812
	.sleb128 0
	.byte	0
.LVUS134:
	.uleb128 .LVU161
	.uleb128 .LVU166
.LLST134:
	.byte	0x8
	.quad	.LVL38
	.uleb128 .LVL39-.LVL38
	.uleb128 0x6
	.byte	0xa0
	.long	.Ldebug_info0+51684
	.sleb128 0
	.byte	0
.LVUS135:
	.uleb128 .LVU161
	.uleb128 .LVU166
.LLST135:
	.byte	0x8
	.quad	.LVL38
	.uleb128 .LVL39-.LVL38
	.uleb128 0x6
	.byte	0xa0
	.long	.Ldebug_info0+51812
	.sleb128 0
	.byte	0
.LVUS136:
	.uleb128 .LVU162
	.uleb128 .LVU166
.LLST136:
	.byte	0x8
	.quad	.LVL38
	.uleb128 .LVL39-.LVL38
	.uleb128 0x6
	.byte	0xa0
	.long	.Ldebug_info0+51684
	.sleb128 0
	.byte	0
.LVUS137:
	.uleb128 .LVU162
	.uleb128 .LVU166
.LLST137:
	.byte	0x8
	.quad	.LVL38
	.uleb128 .LVL39-.LVL38
	.uleb128 0x6
	.byte	0xa0
	.long	.Ldebug_info0+51812
	.sleb128 0
	.byte	0
.LVUS139:
	.uleb128 .LVU1109
	.uleb128 .LVU1177
	.uleb128 .LVU1224
	.uleb128 .LVU1225
	.uleb128 .LVU1312
	.uleb128 0
.LLST139:
	.byte	0x6
	.quad	.LVL201
	.byte	0x4
	.uleb128 .LVL201-.LVL201
	.uleb128 .LVL220-.LVL201
	.uleb128 0x6
	.byte	0xa0
	.long	.Ldebug_info0+51684
	.sleb128 0
	.byte	0x4
	.uleb128 .LVL236-.LVL201
	.uleb128 .LVL237-.LVL201
	.uleb128 0x6
	.byte	0xa0
	.long	.Ldebug_info0+51684
	.sleb128 0
	.byte	0x8
	.quad	.LVL260
	.uleb128 .LFE11707-.LVL260
	.uleb128 0x6
	.byte	0xa0
	.long	.Ldebug_info0+51684
	.sleb128 0
	.byte	0
.LVUS140:
	.uleb128 .LVU1109
	.uleb128 .LVU1177
	.uleb128 .LVU1224
	.uleb128 .LVU1225
	.uleb128 .LVU1312
	.uleb128 0
.LLST140:
	.byte	0x6
	.quad	.LVL201
	.byte	0x4
	.uleb128 .LVL201-.LVL201
	.uleb128 .LVL220-.LVL201
	.uleb128 0x6
	.byte	0xa0
	.long	.Ldebug_info0+51812
	.sleb128 0
	.byte	0x4
	.uleb128 .LVL236-.LVL201
	.uleb128 .LVL237-.LVL201
	.uleb128 0x6
	.byte	0xa0
	.long	.Ldebug_info0+51812
	.sleb128 0
	.byte	0x8
	.quad	.LVL260
	.uleb128 .LFE11707-.LVL260
	.uleb128 0x6
	.byte	0xa0
	.long	.Ldebug_info0+51812
	.sleb128 0
	.byte	0
.LVUS141:
	.uleb128 .LVU1123
	.uleb128 .LVU1176
	.uleb128 .LVU1224
	.uleb128 .LVU1225
.LLST141:
	.byte	0x6
	.quad	.LVL204
	.byte	0x4
	.uleb128 .LVL204-.LVL204
	.uleb128 .LVL219-.LVL204
	.uleb128 0x3
	.byte	0x77
	.sleb128 112
	.byte	0x4
	.uleb128 .LVL236-.LVL204
	.uleb128 .LVL237-.LVL204
	.uleb128 0x3
	.byte	0x77
	.sleb128 112
	.byte	0
.LVUS142:
	.uleb128 .LVU1157
	.uleb128 .LVU1159
	.uleb128 .LVU1159
	.uleb128 .LVU1162
	.uleb128 .LVU1162
	.uleb128 .LVU1178
.LLST142:
	.byte	0x6
	.quad	.LVL210
	.byte	0x4
	.uleb128 .LVL210-.LVL210
	.uleb128 .LVL211-.LVL210
	.uleb128 0xa
	.byte	0x77
	.sleb128 200
	.byte	0x6
	.byte	0x7c
	.sleb128 0
	.byte	0x22
	.byte	0x23
	.uleb128 0x30
	.byte	0x9f
	.byte	0x4
	.uleb128 .LVL211-.LVL210
	.uleb128 .LVL213-.LVL210
	.uleb128 0x1
	.byte	0x50
	.byte	0x4
	.uleb128 .LVL213-.LVL210
	.uleb128 .LVL221-.LVL210
	.uleb128 0x3
	.byte	0x77
	.sleb128 128
	.byte	0
.LVUS143:
	.uleb128 .LVU1123
	.uleb128 .LVU1178
	.uleb128 .LVU1224
	.uleb128 .LVU1225
.LLST143:
	.byte	0x6
	.quad	.LVL204
	.byte	0x4
	.uleb128 .LVL204-.LVL204
	.uleb128 .LVL221-.LVL204
	.uleb128 0x6
	.byte	0x7c
	.sleb128 0
	.byte	0x8
	.byte	0x30
	.byte	0x1b
	.byte	0x9f
	.byte	0x4
	.uleb128 .LVL236-.LVL204
	.uleb128 .LVL237-.LVL204
	.uleb128 0x6
	.byte	0x7c
	.sleb128 0
	.byte	0x8
	.byte	0x30
	.byte	0x1b
	.byte	0x9f
	.byte	0
.LVUS144:
	.uleb128 .LVU1134
	.uleb128 .LVU1156
	.uleb128 .LVU1156
	.uleb128 .LVU1178
.LLST144:
	.byte	0x6
	.quad	.LVL206
	.byte	0x4
	.uleb128 .LVL206-.LVL206
	.uleb128 .LVL209-1-.LVL206
	.uleb128 0x1
	.byte	0x50
	.byte	0x4
	.uleb128 .LVL209-1-.LVL206
	.uleb128 .LVL221-.LVL206
	.uleb128 0x3
	.byte	0x77
	.sleb128 200
	.byte	0
.LVUS145:
	.uleb128 .LVU1134
	.uleb128 .LVU1156
	.uleb128 .LVU1156
	.uleb128 .LVU1157
	.uleb128 .LVU1157
	.uleb128 .LVU1160
	.uleb128 .LVU1160
	.uleb128 .LVU1162
	.uleb128 .LVU1162
	.uleb128 .LVU1177
.LLST145:
	.byte	0x6
	.quad	.LVL206
	.byte	0x4
	.uleb128 .LVL206-.LVL206
	.uleb128 .LVL209-1-.LVL206
	.uleb128 0x1
	.byte	0x50
	.byte	0x4
	.uleb128 .LVL209-1-.LVL206
	.uleb128 .LVL210-.LVL206
	.uleb128 0x3
	.byte	0x77
	.sleb128 200
	.byte	0x4
	.uleb128 .LVL210-.LVL206
	.uleb128 .LVL212-.LVL206
	.uleb128 0x8
	.byte	0x77
	.sleb128 200
	.byte	0x6
	.byte	0x7c
	.sleb128 0
	.byte	0x22
	.byte	0x9f
	.byte	0x4
	.uleb128 .LVL212-.LVL206
	.uleb128 .LVL213-.LVL206
	.uleb128 0x1
	.byte	0x50
	.byte	0x4
	.uleb128 .LVL213-.LVL206
	.uleb128 .LVL220-.LVL206
	.uleb128 0x3
	.byte	0x77
	.sleb128 128
	.byte	0
.LVUS147:
	.uleb128 .LVU1111
	.uleb128 .LVU1123
	.uleb128 .LVU1312
	.uleb128 .LVU1314
.LLST147:
	.byte	0x8
	.quad	.LVL201
	.uleb128 .LVL204-.LVL201
	.uleb128 0x6
	.byte	0xa0
	.long	.Ldebug_info0+51684
	.sleb128 0
	.byte	0x8
	.quad	.LVL260
	.uleb128 .LVL261-.LVL260
	.uleb128 0x6
	.byte	0xa0
	.long	.Ldebug_info0+51684
	.sleb128 0
	.byte	0
.LVUS148:
	.uleb128 .LVU1111
	.uleb128 .LVU1123
	.uleb128 .LVU1312
	.uleb128 .LVU1314
.LLST148:
	.byte	0x8
	.quad	.LVL201
	.uleb128 .LVL204-.LVL201
	.uleb128 0x2
	.byte	0x31
	.byte	0x9f
	.byte	0x8
	.quad	.LVL260
	.uleb128 .LVL261-.LVL260
	.uleb128 0x2
	.byte	0x31
	.byte	0x9f
	.byte	0
.LVUS149:
	.uleb128 .LVU1111
	.uleb128 .LVU1123
	.uleb128 .LVU1312
	.uleb128 .LVU1314
.LLST149:
	.byte	0x8
	.quad	.LVL201
	.uleb128 .LVL204-.LVL201
	.uleb128 0xa
	.byte	0x3
	.quad	.LC2
	.byte	0x9f
	.byte	0x8
	.quad	.LVL260
	.uleb128 .LVL261-.LVL260
	.uleb128 0xa
	.byte	0x3
	.quad	.LC2
	.byte	0x9f
	.byte	0
.LVUS150:
	.uleb128 .LVU1112
	.uleb128 .LVU1117
.LLST150:
	.byte	0x8
	.quad	.LVL201
	.uleb128 .LVL203-.LVL201
	.uleb128 0x6
	.byte	0xa0
	.long	.Ldebug_info0+51684
	.sleb128 0
	.byte	0
.LVUS151:
	.uleb128 .LVU1116
	.uleb128 .LVU1117
.LLST151:
	.byte	0x8
	.quad	.LVL202
	.uleb128 .LVL203-.LVL202
	.uleb128 0x6
	.byte	0x7c
	.sleb128 0
	.byte	0x8
	.byte	0x30
	.byte	0x1b
	.byte	0x9f
	.byte	0
.LVUS153:
	.uleb128 .LVU1122
	.uleb128 .LVU1123
.LLST153:
	.byte	0x8
	.quad	.LVL204
	.uleb128 .LVL204-.LVL204
	.uleb128 0x6
	.byte	0xa0
	.long	.Ldebug_info0+52556
	.sleb128 0
	.byte	0
.LVUS155:
	.uleb128 .LVU1123
	.uleb128 .LVU1134
	.uleb128 .LVU1224
	.uleb128 .LVU1225
.LLST155:
	.byte	0x6
	.quad	.LVL204
	.byte	0x4
	.uleb128 .LVL204-.LVL204
	.uleb128 .LVL206-.LVL204
	.uleb128 0x6
	.byte	0xa0
	.long	.Ldebug_info0+51684
	.sleb128 0
	.byte	0x4
	.uleb128 .LVL236-.LVL204
	.uleb128 .LVL237-.LVL204
	.uleb128 0x6
	.byte	0xa0
	.long	.Ldebug_info0+51684
	.sleb128 0
	.byte	0
.LVUS157:
	.uleb128 .LVU1125
	.uleb128 .LVU1134
	.uleb128 .LVU1224
	.uleb128 .LVU1225
.LLST157:
	.byte	0x6
	.quad	.LVL204
	.byte	0x4
	.uleb128 .LVL204-.LVL204
	.uleb128 .LVL206-.LVL204
	.uleb128 0x6
	.byte	0xa0
	.long	.Ldebug_info0+51684
	.sleb128 0
	.byte	0x4
	.uleb128 .LVL236-.LVL204
	.uleb128 .LVL237-.LVL204
	.uleb128 0x6
	.byte	0xa0
	.long	.Ldebug_info0+51684
	.sleb128 0
	.byte	0
.LVUS159:
	.uleb128 .LVU1127
	.uleb128 .LVU1134
	.uleb128 .LVU1224
	.uleb128 .LVU1225
.LLST159:
	.byte	0x6
	.quad	.LVL204
	.byte	0x4
	.uleb128 .LVL204-.LVL204
	.uleb128 .LVL206-.LVL204
	.uleb128 0x2
	.byte	0x30
	.byte	0x9f
	.byte	0x4
	.uleb128 .LVL236-.LVL204
	.uleb128 .LVL237-.LVL204
	.uleb128 0x2
	.byte	0x30
	.byte	0x9f
	.byte	0
.LVUS160:
	.uleb128 .LVU1127
	.uleb128 .LVU1134
	.uleb128 .LVU1224
	.uleb128 .LVU1225
.LLST160:
	.byte	0x6
	.quad	.LVL204
	.byte	0x4
	.uleb128 .LVL204-.LVL204
	.uleb128 .LVL206-.LVL204
	.uleb128 0x6
	.byte	0xa0
	.long	.Ldebug_info0+51684
	.sleb128 0
	.byte	0x4
	.uleb128 .LVL236-.LVL204
	.uleb128 .LVL237-.LVL204
	.uleb128 0x6
	.byte	0xa0
	.long	.Ldebug_info0+51684
	.sleb128 0
	.byte	0
.LVUS163:
	.uleb128 .LVU1136
	.uleb128 .LVU1144
.LLST163:
	.byte	0x8
	.quad	.LVL206
	.uleb128 .LVL207-.LVL206
	.uleb128 0x6
	.byte	0xa0
	.long	.Ldebug_info0+51684
	.sleb128 0
	.byte	0
.LVUS164:
	.uleb128 .LVU1136
	.uleb128 .LVU1144
.LLST164:
	.byte	0x8
	.quad	.LVL206
	.uleb128 .LVL207-.LVL206
	.uleb128 0x6
	.byte	0x70
	.sleb128 0
	.byte	0x7c
	.sleb128 0
	.byte	0x22
	.byte	0x9f
	.byte	0
.LVUS165:
	.uleb128 .LVU1136
	.uleb128 .LVU1144
.LLST165:
	.byte	0x8
	.quad	.LVL206
	.uleb128 .LVL207-.LVL206
	.uleb128 0x6
	.byte	0xa0
	.long	.Ldebug_info0+51812
	.sleb128 0
	.byte	0
.LVUS166:
	.uleb128 .LVU1138
	.uleb128 .LVU1144
.LLST166:
	.byte	0x8
	.quad	.LVL206
	.uleb128 .LVL207-.LVL206
	.uleb128 0x6
	.byte	0xa0
	.long	.Ldebug_info0+51684
	.sleb128 0
	.byte	0
.LVUS167:
	.uleb128 .LVU1138
	.uleb128 .LVU1144
.LLST167:
	.byte	0x8
	.quad	.LVL206
	.uleb128 .LVL207-.LVL206
	.uleb128 0x6
	.byte	0x70
	.sleb128 0
	.byte	0x7c
	.sleb128 0
	.byte	0x22
	.byte	0x9f
	.byte	0
.LVUS168:
	.uleb128 .LVU1138
	.uleb128 .LVU1144
.LLST168:
	.byte	0x8
	.quad	.LVL206
	.uleb128 .LVL207-.LVL206
	.uleb128 0x6
	.byte	0xa0
	.long	.Ldebug_info0+51812
	.sleb128 0
	.byte	0
.LVUS170:
	.uleb128 .LVU1144
	.uleb128 .LVU1157
.LLST170:
	.byte	0x8
	.quad	.LVL207
	.uleb128 .LVL210-.LVL207
	.uleb128 0x3
	.byte	0x77
	.sleb128 112
	.byte	0
.LVUS171:
	.uleb128 .LVU1144
	.uleb128 .LVU1156
	.uleb128 .LVU1156
	.uleb128 .LVU1157
.LLST171:
	.byte	0x6
	.quad	.LVL207
	.byte	0x4
	.uleb128 .LVL207-.LVL207
	.uleb128 .LVL209-1-.LVL207
	.uleb128 0x1
	.byte	0x50
	.byte	0x4
	.uleb128 .LVL209-1-.LVL207
	.uleb128 .LVL210-.LVL207
	.uleb128 0x3
	.byte	0x77
	.sleb128 200
	.byte	0
.LVUS172:
	.uleb128 .LVU1144
	.uleb128 .LVU1157
.LLST172:
	.byte	0x8
	.quad	.LVL207
	.uleb128 .LVL210-.LVL207
	.uleb128 0x6
	.byte	0xa0
	.long	.Ldebug_info0+51684
	.sleb128 0
	.byte	0
.LVUS173:
	.uleb128 .LVU1146
	.uleb128 .LVU1157
.LLST173:
	.byte	0x8
	.quad	.LVL207
	.uleb128 .LVL210-.LVL207
	.uleb128 0x3
	.byte	0x77
	.sleb128 112
	.byte	0
.LVUS174:
	.uleb128 .LVU1146
	.uleb128 .LVU1156
	.uleb128 .LVU1156
	.uleb128 .LVU1157
.LLST174:
	.byte	0x6
	.quad	.LVL207
	.byte	0x4
	.uleb128 .LVL207-.LVL207
	.uleb128 .LVL209-1-.LVL207
	.uleb128 0x1
	.byte	0x50
	.byte	0x4
	.uleb128 .LVL209-1-.LVL207
	.uleb128 .LVL210-.LVL207
	.uleb128 0x3
	.byte	0x77
	.sleb128 200
	.byte	0
.LVUS175:
	.uleb128 .LVU1146
	.uleb128 .LVU1157
.LLST175:
	.byte	0x8
	.quad	.LVL207
	.uleb128 .LVL210-.LVL207
	.uleb128 0x6
	.byte	0xa0
	.long	.Ldebug_info0+51684
	.sleb128 0
	.byte	0
.LVUS176:
	.uleb128 .LVU1147
	.uleb128 .LVU1178
.LLST176:
	.byte	0x8
	.quad	.LVL207
	.uleb128 .LVL221-.LVL207
	.uleb128 0x6
	.byte	0x7c
	.sleb128 0
	.byte	0x8
	.byte	0x30
	.byte	0x1b
	.byte	0x9f
	.byte	0
.LVUS177:
	.uleb128 .LVU1134
	.uleb128 .LVU1136
.LLST177:
	.byte	0x8
	.quad	.LVL206
	.uleb128 .LVL206-.LVL206
	.uleb128 0x6
	.byte	0xa0
	.long	.Ldebug_info0+52902
	.sleb128 0
	.byte	0
.LVUS178:
	.uleb128 .LVU1134
	.uleb128 .LVU1136
.LLST178:
	.byte	0x8
	.quad	.LVL206
	.uleb128 .LVL206-.LVL206
	.uleb128 0x1
	.byte	0x50
	.byte	0
.LVUS179:
	.uleb128 .LVU1134
	.uleb128 .LVU1136
.LLST179:
	.byte	0x8
	.quad	.LVL206
	.uleb128 .LVL206-.LVL206
	.uleb128 0x6
	.byte	0xa0
	.long	.Ldebug_info0+51684
	.sleb128 0
	.byte	0
.LVUS181:
	.uleb128 .LVU1160
	.uleb128 .LVU1173
.LLST181:
	.byte	0x8
	.quad	.LVL212
	.uleb128 .LVL217-.LVL212
	.uleb128 0x6
	.byte	0xa0
	.long	.Ldebug_info0+52902
	.sleb128 0
	.byte	0
.LVUS183:
	.uleb128 .LVU1165
	.uleb128 .LVU1173
.LLST183:
	.byte	0x8
	.quad	.LVL214
	.uleb128 .LVL217-.LVL214
	.uleb128 0x3
	.byte	0x77
	.sleb128 112
	.byte	0
.LVUS185:
	.uleb128 .LVU1167
	.uleb128 .LVU1172
.LLST185:
	.byte	0x8
	.quad	.LVL214
	.uleb128 .LVL216-.LVL214
	.uleb128 0x3
	.byte	0x77
	.sleb128 112
	.byte	0
.LVUS187:
	.uleb128 .LVU1168
	.uleb128 .LVU1172
.LLST187:
	.byte	0x8
	.quad	.LVL214
	.uleb128 .LVL216-.LVL214
	.uleb128 0x3
	.byte	0x77
	.sleb128 112
	.byte	0
.LVUS189:
	.uleb128 .LVU1169
	.uleb128 .LVU1172
.LLST189:
	.byte	0x8
	.quad	.LVL214
	.uleb128 .LVL216-.LVL214
	.uleb128 0x3
	.byte	0x77
	.sleb128 112
	.byte	0
.LVUS111:
	.uleb128 .LVU81
	.uleb128 .LVU83
	.uleb128 .LVU1001
	.uleb128 .LVU1003
.LLST111:
	.byte	0x8
	.quad	.LVL17
	.uleb128 .LVL17-.LVL17
	.uleb128 0x4
	.byte	0xa3
	.uleb128 0x1
	.byte	0x54
	.byte	0x9f
	.byte	0x8
	.quad	.LVL184
	.uleb128 .LVL184-.LVL184
	.uleb128 0x1
	.byte	0x53
	.byte	0
.LVUS112:
	.uleb128 .LVU82
	.uleb128 .LVU83
	.uleb128 .LVU1002
	.uleb128 .LVU1003
.LLST112:
	.byte	0x8
	.quad	.LVL17
	.uleb128 .LVL17-.LVL17
	.uleb128 0x4
	.byte	0xa3
	.uleb128 0x1
	.byte	0x54
	.byte	0x9f
	.byte	0x8
	.quad	.LVL184
	.uleb128 .LVL184-.LVL184
	.uleb128 0x1
	.byte	0x53
	.byte	0
.LVUS114:
	.uleb128 .LVU83
	.uleb128 .LVU86
	.uleb128 .LVU1003
	.uleb128 .LVU1006
.LLST114:
	.byte	0x8
	.quad	.LVL17
	.uleb128 .LVL17-.LVL17
	.uleb128 0x4
	.byte	0xa3
	.uleb128 0x1
	.byte	0x54
	.byte	0x9f
	.byte	0x8
	.quad	.LVL184
	.uleb128 .LVL184-.LVL184
	.uleb128 0x1
	.byte	0x53
	.byte	0
.LVUS115:
	.uleb128 .LVU85
	.uleb128 .LVU86
	.uleb128 .LVU1005
	.uleb128 .LVU1006
.LLST115:
	.byte	0x8
	.quad	.LVL17
	.uleb128 .LVL17-.LVL17
	.uleb128 0x6
	.byte	0xa3
	.uleb128 0x1
	.byte	0x54
	.byte	0x23
	.uleb128 0x8
	.byte	0x9f
	.byte	0x8
	.quad	.LVL184
	.uleb128 .LVL184-.LVL184
	.uleb128 0x3
	.byte	0x73
	.sleb128 8
	.byte	0x9f
	.byte	0
.LVUS190:
	.uleb128 .LVU170
	.uleb128 .LVU172
.LLST190:
	.byte	0x8
	.quad	.LVL40
	.uleb128 .LVL41-.LVL40
	.uleb128 0x6
	.byte	0xa0
	.long	.Ldebug_info0+51785
	.sleb128 0
	.byte	0
.LVUS295:
	.uleb128 .LVU280
	.uleb128 .LVU284
	.uleb128 .LVU284
	.uleb128 .LVU317
.LLST295:
	.byte	0x6
	.quad	.LVL57
	.byte	0x4
	.uleb128 .LVL57-.LVL57
	.uleb128 .LVL58-.LVL57
	.uleb128 0x1
	.byte	0x50
	.byte	0x4
	.uleb128 .LVL58-.LVL57
	.uleb128 .LVL64-.LVL57
	.uleb128 0x3
	.byte	0x70
	.sleb128 -48
	.byte	0x9f
	.byte	0
.LVUS296:
	.uleb128 .LVU271
	.uleb128 .LVU997
	.uleb128 .LVU1014
	.uleb128 .LVU1030
	.uleb128 .LVU1180
	.uleb128 .LVU1215
	.uleb128 .LVU1217
	.uleb128 .LVU1220
	.uleb128 .LVU1223
	.uleb128 .LVU1224
	.uleb128 .LVU1225
	.uleb128 0
	.uleb128 0
	.uleb128 .LVU1227
	.uleb128 .LVU1283
	.uleb128 .LVU1303
.LLST296:
	.byte	0x6
	.quad	.LVL55
	.byte	0x4
	.uleb128 .LVL55-.LVL55
	.uleb128 .LVL183-.LVL55
	.uleb128 0x6
	.byte	0xa0
	.long	.Ldebug_info0+51684
	.sleb128 0
	.byte	0x4
	.uleb128 .LVL186-.LVL55
	.uleb128 .LVL190-.LVL55
	.uleb128 0x6
	.byte	0xa0
	.long	.Ldebug_info0+51684
	.sleb128 0
	.byte	0x4
	.uleb128 .LVL222-.LVL55
	.uleb128 .LVL229-.LVL55
	.uleb128 0x6
	.byte	0xa0
	.long	.Ldebug_info0+51684
	.sleb128 0
	.byte	0x4
	.uleb128 .LVL230-.LVL55
	.uleb128 .LVL231-.LVL55
	.uleb128 0x6
	.byte	0xa0
	.long	.Ldebug_info0+51684
	.sleb128 0
	.byte	0x4
	.uleb128 .LVL235-.LVL55
	.uleb128 .LVL236-.LVL55
	.uleb128 0x6
	.byte	0xa0
	.long	.Ldebug_info0+51684
	.sleb128 0
	.byte	0x4
	.uleb128 .LVL237-.LVL55
	.uleb128 .LHOTE4-.LVL55
	.uleb128 0x6
	.byte	0xa0
	.long	.Ldebug_info0+51684
	.sleb128 0
	.byte	0x6
	.quad	.LFSB11707
	.byte	0x4
	.uleb128 .LFSB11707-.LFSB11707
	.uleb128 .LVL238-.LFSB11707
	.uleb128 0x6
	.byte	0xa0
	.long	.Ldebug_info0+51684
	.sleb128 0
	.byte	0x4
	.uleb128 .LVL247-.LFSB11707
	.uleb128 .LVL253-.LFSB11707
	.uleb128 0x6
	.byte	0xa0
	.long	.Ldebug_info0+51684
	.sleb128 0
	.byte	0
.LVUS297:
	.uleb128 .LVU271
	.uleb128 .LVU273
.LLST297:
	.byte	0x8
	.quad	.LVL55
	.uleb128 .LVL55-.LVL55
	.uleb128 0x6
	.byte	0xa0
	.long	.Ldebug_info0+51684
	.sleb128 0
	.byte	0
.LVUS298:
	.uleb128 .LVU272
	.uleb128 .LVU273
.LLST298:
	.byte	0x8
	.quad	.LVL55
	.uleb128 .LVL55-.LVL55
	.uleb128 0x6
	.byte	0xa0
	.long	.Ldebug_info0+51684
	.sleb128 0
	.byte	0
.LVUS299:
	.uleb128 .LVU273
	.uleb128 .LVU276
.LLST299:
	.byte	0x8
	.quad	.LVL55
	.uleb128 .LVL55-.LVL55
	.uleb128 0x6
	.byte	0xa0
	.long	.Ldebug_info0+51684
	.sleb128 0
	.byte	0
.LVUS300:
	.uleb128 .LVU275
	.uleb128 .LVU276
.LLST300:
	.byte	0x8
	.quad	.LVL55
	.uleb128 .LVL55-.LVL55
	.uleb128 0x6
	.byte	0xa0
	.long	.Ldebug_info0+51684
	.sleb128 8
	.byte	0
.LVUS302:
	.uleb128 .LVU313
	.uleb128 .LVU314
.LLST302:
	.byte	0x8
	.quad	.LVL63
	.uleb128 .LVL63-.LVL63
	.uleb128 0x6
	.byte	0xa0
	.long	.Ldebug_info0+53846
	.sleb128 0
	.byte	0
.LVUS303:
	.uleb128 .LVU287
	.uleb128 .LVU289
.LLST303:
	.byte	0x8
	.quad	.LVL59
	.uleb128 .LVL59-.LVL59
	.uleb128 0x6
	.byte	0x71
	.sleb128 0
	.byte	0x74
	.sleb128 0
	.byte	0x22
	.byte	0x9f
	.byte	0
.LVUS304:
	.uleb128 .LVU295
	.uleb128 .LVU297
.LLST304:
	.byte	0x8
	.quad	.LVL60
	.uleb128 .LVL60-.LVL60
	.uleb128 0x6
	.byte	0x71
	.sleb128 0
	.byte	0x72
	.sleb128 0
	.byte	0x22
	.byte	0x9f
	.byte	0
.LVUS305:
	.uleb128 .LVU301
	.uleb128 .LVU303
.LLST305:
	.byte	0x8
	.quad	.LVL61
	.uleb128 .LVL61-.LVL61
	.uleb128 0x6
	.byte	0x74
	.sleb128 0
	.byte	0x75
	.sleb128 0
	.byte	0x22
	.byte	0x9f
	.byte	0
.LVUS306:
	.uleb128 .LVU307
	.uleb128 .LVU309
.LLST306:
	.byte	0x8
	.quad	.LVL62
	.uleb128 .LVL62-.LVL62
	.uleb128 0x6
	.byte	0x72
	.sleb128 0
	.byte	0x75
	.sleb128 0
	.byte	0x22
	.byte	0x9f
	.byte	0
.LVUS307:
	.uleb128 .LVU317
	.uleb128 .LVU330
	.uleb128 .LVU330
	.uleb128 .LVU333
	.uleb128 .LVU333
	.uleb128 .LVU348
	.uleb128 .LVU1187
	.uleb128 .LVU1215
.LLST307:
	.byte	0x6
	.quad	.LVL64
	.byte	0x4
	.uleb128 .LVL64-.LVL64
	.uleb128 .LVL70-.LVL64
	.uleb128 0x2
	.byte	0x30
	.byte	0x9f
	.byte	0x4
	.uleb128 .LVL70-.LVL64
	.uleb128 .LVL71-.LVL64
	.uleb128 0x2
	.byte	0x31
	.byte	0x9f
	.byte	0x4
	.uleb128 .LVL71-.LVL64
	.uleb128 .LVL78-.LVL64
	.uleb128 0x1
	.byte	0x5b
	.byte	0x4
	.uleb128 .LVL226-.LVL64
	.uleb128 .LVL229-.LVL64
	.uleb128 0x2
	.byte	0x30
	.byte	0x9f
	.byte	0
.LVUS309:
	.uleb128 .LVU319
	.uleb128 .LVU322
	.uleb128 .LVU322
	.uleb128 .LVU333
	.uleb128 .LVU333
	.uleb128 .LVU336
	.uleb128 .LVU337
	.uleb128 .LVU348
.LLST309:
	.byte	0x6
	.quad	.LVL65
	.byte	0x4
	.uleb128 .LVL65-.LVL65
	.uleb128 .LVL66-.LVL65
	.uleb128 0x2
	.byte	0x30
	.byte	0x9f
	.byte	0x4
	.uleb128 .LVL66-.LVL65
	.uleb128 .LVL71-.LVL65
	.uleb128 0x1
	.byte	0x51
	.byte	0x4
	.uleb128 .LVL71-.LVL65
	.uleb128 .LVL72-.LVL65
	.uleb128 0x2
	.byte	0x30
	.byte	0x9f
	.byte	0x4
	.uleb128 .LVL73-.LVL65
	.uleb128 .LVL78-.LVL65
	.uleb128 0x1
	.byte	0x51
	.byte	0
.LVUS311:
	.uleb128 .LVU319
	.uleb128 .LVU322
	.uleb128 .LVU322
	.uleb128 .LVU327
	.uleb128 .LVU327
	.uleb128 .LVU328
	.uleb128 .LVU333
	.uleb128 .LVU336
	.uleb128 .LVU337
	.uleb128 .LVU344
	.uleb128 .LVU344
	.uleb128 .LVU345
.LLST311:
	.byte	0x6
	.quad	.LVL65
	.byte	0x4
	.uleb128 .LVL65-.LVL65
	.uleb128 .LVL66-.LVL65
	.uleb128 0x2
	.byte	0x30
	.byte	0x9f
	.byte	0x4
	.uleb128 .LVL66-.LVL65
	.uleb128 .LVL68-.LVL65
	.uleb128 0x1
	.byte	0x50
	.byte	0x4
	.uleb128 .LVL68-.LVL65
	.uleb128 .LVL69-.LVL65
	.uleb128 0x3
	.byte	0x70
	.sleb128 1
	.byte	0x9f
	.byte	0x4
	.uleb128 .LVL71-.LVL65
	.uleb128 .LVL72-.LVL65
	.uleb128 0x2
	.byte	0x30
	.byte	0x9f
	.byte	0x4
	.uleb128 .LVL73-.LVL65
	.uleb128 .LVL75-.LVL65
	.uleb128 0x1
	.byte	0x50
	.byte	0x4
	.uleb128 .LVL75-.LVL65
	.uleb128 .LVL76-.LVL65
	.uleb128 0x3
	.byte	0x70
	.sleb128 1
	.byte	0x9f
	.byte	0
.LVUS361:
	.uleb128 .LVU397
	.uleb128 .LVU862
	.uleb128 .LVU1014
	.uleb128 .LVU1030
.LLST361:
	.byte	0x6
	.quad	.LVL87
	.byte	0x4
	.uleb128 .LVL87-.LVL87
	.uleb128 .LVL150-.LVL87
	.uleb128 0x3
	.byte	0x77
	.sleb128 200
	.byte	0x4
	.uleb128 .LVL186-.LVL87
	.uleb128 .LVL190-.LVL87
	.uleb128 0x3
	.byte	0x77
	.sleb128 200
	.byte	0
.LVUS363:
	.uleb128 .LVU401
	.uleb128 .LVU441
.LLST363:
	.byte	0x8
	.quad	.LVL87
	.uleb128 .LVL89-.LVL87
	.uleb128 0x40
	.byte	0x77
	.sleb128 200
	.byte	0x6
	.byte	0x23
	.uleb128 0x8
	.byte	0x93
	.uleb128 0x4
	.byte	0x77
	.sleb128 200
	.byte	0x6
	.byte	0x23
	.uleb128 0x8
	.byte	0x93
	.uleb128 0x4
	.byte	0x77
	.sleb128 200
	.byte	0x6
	.byte	0x23
	.uleb128 0x8
	.byte	0x93
	.uleb128 0x4
	.byte	0x77
	.sleb128 200
	.byte	0x6
	.byte	0x23
	.uleb128 0x8
	.byte	0x93
	.uleb128 0x4
	.byte	0x77
	.sleb128 200
	.byte	0x6
	.byte	0x23
	.uleb128 0x8
	.byte	0x93
	.uleb128 0x4
	.byte	0x77
	.sleb128 200
	.byte	0x6
	.byte	0x23
	.uleb128 0x8
	.byte	0x93
	.uleb128 0x4
	.byte	0x77
	.sleb128 200
	.byte	0x6
	.byte	0x23
	.uleb128 0x8
	.byte	0x93
	.uleb128 0x4
	.byte	0x77
	.sleb128 200
	.byte	0x6
	.byte	0x23
	.uleb128 0x8
	.byte	0x93
	.uleb128 0x4
	.byte	0
.LVUS364:
	.uleb128 .LVU405
	.uleb128 .LVU441
.LLST364:
	.byte	0x8
	.quad	.LVL87
	.uleb128 .LVL89-.LVL87
	.uleb128 0x40
	.byte	0x77
	.sleb128 200
	.byte	0x6
	.byte	0x23
	.uleb128 0xc
	.byte	0x93
	.uleb128 0x4
	.byte	0x77
	.sleb128 200
	.byte	0x6
	.byte	0x23
	.uleb128 0xc
	.byte	0x93
	.uleb128 0x4
	.byte	0x77
	.sleb128 200
	.byte	0x6
	.byte	0x23
	.uleb128 0xc
	.byte	0x93
	.uleb128 0x4
	.byte	0x77
	.sleb128 200
	.byte	0x6
	.byte	0x23
	.uleb128 0xc
	.byte	0x93
	.uleb128 0x4
	.byte	0x77
	.sleb128 200
	.byte	0x6
	.byte	0x23
	.uleb128 0xc
	.byte	0x93
	.uleb128 0x4
	.byte	0x77
	.sleb128 200
	.byte	0x6
	.byte	0x23
	.uleb128 0xc
	.byte	0x93
	.uleb128 0x4
	.byte	0x77
	.sleb128 200
	.byte	0x6
	.byte	0x23
	.uleb128 0xc
	.byte	0x93
	.uleb128 0x4
	.byte	0x77
	.sleb128 200
	.byte	0x6
	.byte	0x23
	.uleb128 0xc
	.byte	0x93
	.uleb128 0x4
	.byte	0
.LVUS365:
	.uleb128 .LVU409
	.uleb128 .LVU441
.LLST365:
	.byte	0x8
	.quad	.LVL87
	.uleb128 .LVL89-.LVL87
	.uleb128 0x40
	.byte	0x77
	.sleb128 200
	.byte	0x6
	.byte	0x23
	.uleb128 0x10
	.byte	0x93
	.uleb128 0x4
	.byte	0x77
	.sleb128 200
	.byte	0x6
	.byte	0x23
	.uleb128 0x10
	.byte	0x93
	.uleb128 0x4
	.byte	0x77
	.sleb128 200
	.byte	0x6
	.byte	0x23
	.uleb128 0x10
	.byte	0x93
	.uleb128 0x4
	.byte	0x77
	.sleb128 200
	.byte	0x6
	.byte	0x23
	.uleb128 0x10
	.byte	0x93
	.uleb128 0x4
	.byte	0x77
	.sleb128 200
	.byte	0x6
	.byte	0x23
	.uleb128 0x10
	.byte	0x93
	.uleb128 0x4
	.byte	0x77
	.sleb128 200
	.byte	0x6
	.byte	0x23
	.uleb128 0x10
	.byte	0x93
	.uleb128 0x4
	.byte	0x77
	.sleb128 200
	.byte	0x6
	.byte	0x23
	.uleb128 0x10
	.byte	0x93
	.uleb128 0x4
	.byte	0x77
	.sleb128 200
	.byte	0x6
	.byte	0x23
	.uleb128 0x10
	.byte	0x93
	.uleb128 0x4
	.byte	0
.LVUS366:
	.uleb128 .LVU413
	.uleb128 .LVU441
.LLST366:
	.byte	0x8
	.quad	.LVL87
	.uleb128 .LVL89-.LVL87
	.uleb128 0x40
	.byte	0x77
	.sleb128 200
	.byte	0x6
	.byte	0x23
	.uleb128 0x14
	.byte	0x93
	.uleb128 0x4
	.byte	0x77
	.sleb128 200
	.byte	0x6
	.byte	0x23
	.uleb128 0x14
	.byte	0x93
	.uleb128 0x4
	.byte	0x77
	.sleb128 200
	.byte	0x6
	.byte	0x23
	.uleb128 0x14
	.byte	0x93
	.uleb128 0x4
	.byte	0x77
	.sleb128 200
	.byte	0x6
	.byte	0x23
	.uleb128 0x14
	.byte	0x93
	.uleb128 0x4
	.byte	0x77
	.sleb128 200
	.byte	0x6
	.byte	0x23
	.uleb128 0x14
	.byte	0x93
	.uleb128 0x4
	.byte	0x77
	.sleb128 200
	.byte	0x6
	.byte	0x23
	.uleb128 0x14
	.byte	0x93
	.uleb128 0x4
	.byte	0x77
	.sleb128 200
	.byte	0x6
	.byte	0x23
	.uleb128 0x14
	.byte	0x93
	.uleb128 0x4
	.byte	0x77
	.sleb128 200
	.byte	0x6
	.byte	0x23
	.uleb128 0x14
	.byte	0x93
	.uleb128 0x4
	.byte	0
.LVUS368:
	.uleb128 .LVU418
	.uleb128 .LVU441
	.uleb128 .LVU441
	.uleb128 .LVU855
	.uleb128 .LVU857
	.uleb128 .LVU858
	.uleb128 .LVU1014
	.uleb128 .LVU1030
.LLST368:
	.byte	0x6
	.quad	.LVL88
	.byte	0x4
	.uleb128 .LVL88-.LVL88
	.uleb128 .LVL89-.LVL88
	.uleb128 0x1
	.byte	0x53
	.byte	0x4
	.uleb128 .LVL89-.LVL88
	.uleb128 .LVL147-.LVL88
	.uleb128 0x3
	.byte	0x77
	.sleb128 240
	.byte	0x4
	.uleb128 .LVL148-.LVL88
	.uleb128 .LVL149-.LVL88
	.uleb128 0x1
	.byte	0x50
	.byte	0x4
	.uleb128 .LVL186-.LVL88
	.uleb128 .LVL190-.LVL88
	.uleb128 0x3
	.byte	0x77
	.sleb128 240
	.byte	0
.LVUS370:
	.uleb128 .LVU442
	.uleb128 .LVU456
	.uleb128 .LVU1014
	.uleb128 .LVU1024
.LLST370:
	.byte	0x6
	.quad	.LVL89
	.byte	0x4
	.uleb128 .LVL89-.LVL89
	.uleb128 .LVL92-.LVL89
	.uleb128 0x1
	.byte	0x5f
	.byte	0x4
	.uleb128 .LVL186-.LVL89
	.uleb128 .LVL188-.LVL89
	.uleb128 0x1
	.byte	0x5f
	.byte	0
.LVUS371:
	.uleb128 .LVU447
	.uleb128 .LVU456
	.uleb128 .LVU1014
	.uleb128 .LVU1024
.LLST371:
	.byte	0x6
	.quad	.LVL90
	.byte	0x4
	.uleb128 .LVL90-.LVL90
	.uleb128 .LVL92-.LVL90
	.uleb128 0x1
	.byte	0x51
	.byte	0x4
	.uleb128 .LVL186-.LVL90
	.uleb128 .LVL188-.LVL90
	.uleb128 0x1
	.byte	0x51
	.byte	0
.LVUS372:
	.uleb128 .LVU448
	.uleb128 .LVU456
	.uleb128 .LVU1014
	.uleb128 .LVU1023
	.uleb128 .LVU1023
	.uleb128 .LVU1024
.LLST372:
	.byte	0x6
	.quad	.LVL90
	.byte	0x4
	.uleb128 .LVL90-.LVL90
	.uleb128 .LVL92-.LVL90
	.uleb128 0x1
	.byte	0x52
	.byte	0x4
	.uleb128 .LVL186-.LVL90
	.uleb128 .LVL187-.LVL90
	.uleb128 0x1
	.byte	0x52
	.byte	0x4
	.uleb128 .LVL187-.LVL90
	.uleb128 .LVL188-.LVL90
	.uleb128 0x3
	.byte	0x7f
	.sleb128 3
	.byte	0x9f
	.byte	0
.LVUS373:
	.uleb128 .LVU449
	.uleb128 .LVU451
	.uleb128 .LVU451
	.uleb128 .LVU456
	.uleb128 .LVU1014
	.uleb128 .LVU1024
.LLST373:
	.byte	0x6
	.quad	.LVL90
	.byte	0x4
	.uleb128 .LVL90-.LVL90
	.uleb128 .LVL91-.LVL90
	.uleb128 0x1
	.byte	0x50
	.byte	0x4
	.uleb128 .LVL91-.LVL90
	.uleb128 .LVL92-.LVL90
	.uleb128 0x3
	.byte	0x77
	.sleb128 224
	.byte	0x4
	.uleb128 .LVL186-.LVL90
	.uleb128 .LVL188-.LVL90
	.uleb128 0x3
	.byte	0x77
	.sleb128 224
	.byte	0
.LVUS374:
	.uleb128 .LVU454
	.uleb128 .LVU461
	.uleb128 .LVU461
	.uleb128 .LVU557
	.uleb128 .LVU557
	.uleb128 .LVU562
	.uleb128 .LVU1014
	.uleb128 .LVU1024
.LLST374:
	.byte	0x6
	.quad	.LVL91
	.byte	0x4
	.uleb128 .LVL91-.LVL91
	.uleb128 .LVL93-.LVL91
	.uleb128 0x1
	.byte	0x50
	.byte	0x4
	.uleb128 .LVL93-.LVL91
	.uleb128 .LVL103-.LVL91
	.uleb128 0x3
	.byte	0x70
	.sleb128 -32
	.byte	0x9f
	.byte	0x4
	.uleb128 .LVL103-.LVL91
	.uleb128 .LVL106-.LVL91
	.uleb128 0x1
	.byte	0x50
	.byte	0x4
	.uleb128 .LVL186-.LVL91
	.uleb128 .LVL188-.LVL91
	.uleb128 0x1
	.byte	0x50
	.byte	0
.LVUS375:
	.uleb128 .LVU454
	.uleb128 .LVU456
	.uleb128 .LVU1014
	.uleb128 .LVU1024
.LLST375:
	.byte	0x6
	.quad	.LVL91
	.byte	0x4
	.uleb128 .LVL91-.LVL91
	.uleb128 .LVL92-.LVL91
	.uleb128 0x2
	.byte	0x30
	.byte	0x9f
	.byte	0x4
	.uleb128 .LVL186-.LVL91
	.uleb128 .LVL188-.LVL91
	.uleb128 0x2
	.byte	0x30
	.byte	0x9f
	.byte	0
.LVUS377:
	.uleb128 .LVU501
	.uleb128 .LVU515
.LLST377:
	.byte	0x8
	.quad	.LVL97
	.uleb128 .LVL98-.LVL97
	.uleb128 0x1
	.byte	0x69
	.byte	0
.LVUS378:
	.uleb128 .LVU507
	.uleb128 .LVU540
.LLST378:
	.byte	0x8
	.quad	.LVL97
	.uleb128 .LVL101-.LVL97
	.uleb128 0x1
	.byte	0x67
	.byte	0
.LVUS379:
	.uleb128 .LVU517
	.uleb128 .LVU535
.LLST379:
	.byte	0x8
	.quad	.LVL99
	.uleb128 .LVL100-.LVL99
	.uleb128 0x1
	.byte	0x68
	.byte	0
.LVUS380:
	.uleb128 .LVU523
	.uleb128 .LVU545
.LLST380:
	.byte	0x8
	.quad	.LVL99
	.uleb128 .LVL102-.LVL99
	.uleb128 0x1
	.byte	0x66
	.byte	0
.LVUS381:
	.uleb128 .LVU530
	.uleb128 .LVU535
	.uleb128 .LVU535
	.uleb128 .LVU540
	.uleb128 .LVU540
	.uleb128 .LVU545
	.uleb128 .LVU545
	.uleb128 .LVU564
	.uleb128 .LVU1027
	.uleb128 .LVU1030
.LLST381:
	.byte	0x6
	.quad	.LVL99
	.byte	0x4
	.uleb128 .LVL99-.LVL99
	.uleb128 .LVL100-.LVL99
	.uleb128 0x1
	.byte	0x69
	.byte	0x4
	.uleb128 .LVL100-.LVL99
	.uleb128 .LVL101-.LVL99
	.uleb128 0x1
	.byte	0x68
	.byte	0x4
	.uleb128 .LVL101-.LVL99
	.uleb128 .LVL102-.LVL99
	.uleb128 0x1
	.byte	0x67
	.byte	0x4
	.uleb128 .LVL102-.LVL99
	.uleb128 .LVL108-.LVL99
	.uleb128 0x1
	.byte	0x66
	.byte	0x4
	.uleb128 .LVL189-.LVL99
	.uleb128 .LVL190-.LVL99
	.uleb128 0x1
	.byte	0x66
	.byte	0
.LVUS383:
	.uleb128 .LVU462
	.uleb128 .LVU466
.LLST383:
	.byte	0x8
	.quad	.LVL94
	.uleb128 .LVL94-.LVL94
	.uleb128 0x5
	.byte	0x79
	.sleb128 0
	.byte	0x7f
	.sleb128 0
	.byte	0x22
	.byte	0
.LVUS384:
	.uleb128 .LVU464
	.uleb128 .LVU466
.LLST384:
	.byte	0x8
	.quad	.LVL94
	.uleb128 .LVL94-.LVL94
	.uleb128 0x2
	.byte	0x30
	.byte	0x9f
	.byte	0
.LVUS385:
	.uleb128 .LVU464
	.uleb128 .LVU466
.LLST385:
	.byte	0x8
	.quad	.LVL94
	.uleb128 .LVL94-.LVL94
	.uleb128 0x5
	.byte	0x79
	.sleb128 0
	.byte	0x7f
	.sleb128 0
	.byte	0x22
	.byte	0
.LVUS388:
	.uleb128 .LVU468
	.uleb128 .LVU474
.LLST388:
	.byte	0x8
	.quad	.LVL94
	.uleb128 .LVL94-.LVL94
	.uleb128 0x1
	.byte	0x58
	.byte	0
.LVUS389:
	.uleb128 .LVU470
	.uleb128 .LVU474
.LLST389:
	.byte	0x8
	.quad	.LVL94
	.uleb128 .LVL94-.LVL94
	.uleb128 0x2
	.byte	0x78
	.sleb128 0
	.byte	0
.LVUS390:
	.uleb128 .LVU472
	.uleb128 .LVU474
.LLST390:
	.byte	0x8
	.quad	.LVL94
	.uleb128 .LVL94-.LVL94
	.uleb128 0x2
	.byte	0x30
	.byte	0x9f
	.byte	0
.LVUS391:
	.uleb128 .LVU472
	.uleb128 .LVU474
.LLST391:
	.byte	0x8
	.quad	.LVL94
	.uleb128 .LVL94-.LVL94
	.uleb128 0x2
	.byte	0x78
	.sleb128 0
	.byte	0
.LVUS392:
	.uleb128 .LVU478
	.uleb128 .LVU482
.LLST392:
	.byte	0x8
	.quad	.LVL94
	.uleb128 .LVL94-.LVL94
	.uleb128 0x7
	.byte	0x79
	.sleb128 0
	.byte	0x7f
	.sleb128 0
	.byte	0x22
	.byte	0x23
	.uleb128 0x3
	.byte	0
.LVUS393:
	.uleb128 .LVU480
	.uleb128 .LVU482
.LLST393:
	.byte	0x8
	.quad	.LVL94
	.uleb128 .LVL94-.LVL94
	.uleb128 0x2
	.byte	0x30
	.byte	0x9f
	.byte	0
.LVUS394:
	.uleb128 .LVU480
	.uleb128 .LVU482
.LLST394:
	.byte	0x8
	.quad	.LVL94
	.uleb128 .LVL94-.LVL94
	.uleb128 0x7
	.byte	0x79
	.sleb128 0
	.byte	0x7f
	.sleb128 0
	.byte	0x22
	.byte	0x23
	.uleb128 0x3
	.byte	0
.LVUS395:
	.uleb128 .LVU484
	.uleb128 .LVU490
.LLST395:
	.byte	0x8
	.quad	.LVL94
	.uleb128 .LVL94-.LVL94
	.uleb128 0x3
	.byte	0x78
	.sleb128 3
	.byte	0x9f
	.byte	0
.LVUS396:
	.uleb128 .LVU486
	.uleb128 .LVU490
.LLST396:
	.byte	0x8
	.quad	.LVL94
	.uleb128 .LVL94-.LVL94
	.uleb128 0x2
	.byte	0x78
	.sleb128 3
	.byte	0
.LVUS397:
	.uleb128 .LVU488
	.uleb128 .LVU490
.LLST397:
	.byte	0x8
	.quad	.LVL94
	.uleb128 .LVL94-.LVL94
	.uleb128 0x2
	.byte	0x30
	.byte	0x9f
	.byte	0
.LVUS398:
	.uleb128 .LVU488
	.uleb128 .LVU490
.LLST398:
	.byte	0x8
	.quad	.LVL94
	.uleb128 .LVL94-.LVL94
	.uleb128 0x2
	.byte	0x78
	.sleb128 3
	.byte	0
.LVUS401:
	.uleb128 .LVU496
	.uleb128 .LVU501
.LLST401:
	.byte	0x8
	.quad	.LVL96
	.uleb128 .LVL97-.LVL96
	.uleb128 0x1
	.byte	0x69
	.byte	0
.LVUS406:
	.uleb128 .LVU511
	.uleb128 .LVU517
.LLST406:
	.byte	0x8
	.quad	.LVL97
	.uleb128 .LVL99-.LVL97
	.uleb128 0x1
	.byte	0x68
	.byte	0
.LVUS408:
	.uleb128 .LVU532
	.uleb128 .LVU535
.LLST408:
	.byte	0x8
	.quad	.LVL99
	.uleb128 .LVL100-.LVL99
	.uleb128 0x1
	.byte	0x68
	.byte	0
.LVUS409:
	.uleb128 .LVU532
	.uleb128 .LVU535
.LLST409:
	.byte	0x8
	.quad	.LVL99
	.uleb128 .LVL100-.LVL99
	.uleb128 0x1
	.byte	0x69
	.byte	0
.LVUS410:
	.uleb128 .LVU537
	.uleb128 .LVU540
.LLST410:
	.byte	0x8
	.quad	.LVL100
	.uleb128 .LVL101-.LVL100
	.uleb128 0x1
	.byte	0x67
	.byte	0
.LVUS411:
	.uleb128 .LVU537
	.uleb128 .LVU540
.LLST411:
	.byte	0x8
	.quad	.LVL100
	.uleb128 .LVL101-.LVL100
	.uleb128 0x1
	.byte	0x68
	.byte	0
.LVUS412:
	.uleb128 .LVU542
	.uleb128 .LVU545
.LLST412:
	.byte	0x8
	.quad	.LVL101
	.uleb128 .LVL102-.LVL101
	.uleb128 0x1
	.byte	0x66
	.byte	0
.LVUS413:
	.uleb128 .LVU542
	.uleb128 .LVU545
.LLST413:
	.byte	0x8
	.quad	.LVL101
	.uleb128 .LVL102-.LVL101
	.uleb128 0x1
	.byte	0x67
	.byte	0
.LVUS414:
	.uleb128 .LVU547
	.uleb128 .LVU550
.LLST414:
	.byte	0x8
	.quad	.LVL102
	.uleb128 .LVL103-.LVL102
	.uleb128 0x1
	.byte	0x66
	.byte	0
.LVUS416:
	.uleb128 .LVU560
	.uleb128 .LVU564
	.uleb128 .LVU731
	.uleb128 .LVU742
	.uleb128 .LVU742
	.uleb128 .LVU752
	.uleb128 .LVU752
	.uleb128 .LVU762
	.uleb128 .LVU762
	.uleb128 .LVU772
	.uleb128 .LVU772
	.uleb128 .LVU781
	.uleb128 .LVU781
	.uleb128 .LVU790
	.uleb128 .LVU790
	.uleb128 .LVU800
	.uleb128 .LVU800
	.uleb128 .LVU810
	.uleb128 .LVU810
	.uleb128 .LVU819
	.uleb128 .LVU819
	.uleb128 .LVU821
	.uleb128 .LVU830
	.uleb128 .LVU852
	.uleb128 .LVU1017
	.uleb128 .LVU1024
	.uleb128 .LVU1027
	.uleb128 .LVU1030
.LLST416:
	.byte	0x6
	.quad	.LVL104
	.byte	0x4
	.uleb128 .LVL104-.LVL104
	.uleb128 .LVL108-.LVL104
	.uleb128 0x2
	.byte	0x30
	.byte	0x9f
	.byte	0x4
	.uleb128 .LVL122-.LVL104
	.uleb128 .LVL124-.LVL104
	.uleb128 0x1
	.byte	0x5a
	.byte	0x4
	.uleb128 .LVL124-.LVL104
	.uleb128 .LVL125-.LVL104
	.uleb128 0x3
	.byte	0x78
	.sleb128 1
	.byte	0x9f
	.byte	0x4
	.uleb128 .LVL125-.LVL104
	.uleb128 .LVL127-.LVL104
	.uleb128 0x1
	.byte	0x5a
	.byte	0x4
	.uleb128 .LVL127-.LVL104
	.uleb128 .LVL128-.LVL104
	.uleb128 0x3
	.byte	0x78
	.sleb128 2
	.byte	0x9f
	.byte	0x4
	.uleb128 .LVL128-.LVL104
	.uleb128 .LVL130-.LVL104
	.uleb128 0x1
	.byte	0x5a
	.byte	0x4
	.uleb128 .LVL130-.LVL104
	.uleb128 .LVL131-.LVL104
	.uleb128 0x3
	.byte	0x77
	.sleb128 208
	.byte	0x4
	.uleb128 .LVL131-.LVL104
	.uleb128 .LVL133-.LVL104
	.uleb128 0x1
	.byte	0x5a
	.byte	0x4
	.uleb128 .LVL133-.LVL104
	.uleb128 .LVL134-.LVL104
	.uleb128 0x3
	.byte	0x78
	.sleb128 4
	.byte	0x9f
	.byte	0x4
	.uleb128 .LVL134-.LVL104
	.uleb128 .LVL136-.LVL104
	.uleb128 0x1
	.byte	0x5a
	.byte	0x4
	.uleb128 .LVL136-.LVL104
	.uleb128 .LVL137-.LVL104
	.uleb128 0x3
	.byte	0x78
	.sleb128 5
	.byte	0x9f
	.byte	0x4
	.uleb128 .LVL140-.LVL104
	.uleb128 .LVL146-.LVL104
	.uleb128 0x1
	.byte	0x58
	.byte	0x4
	.uleb128 .LVL186-.LVL104
	.uleb128 .LVL188-.LVL104
	.uleb128 0x2
	.byte	0x30
	.byte	0x9f
	.byte	0x4
	.uleb128 .LVL189-.LVL104
	.uleb128 .LVL190-.LVL104
	.uleb128 0x2
	.byte	0x30
	.byte	0x9f
	.byte	0
.LVUS418:
	.uleb128 .LVU716
	.uleb128 .LVU721
	.uleb128 .LVU721
	.uleb128 .LVU736
	.uleb128 .LVU736
	.uleb128 .LVU742
	.uleb128 .LVU742
	.uleb128 .LVU757
	.uleb128 .LVU757
	.uleb128 .LVU762
	.uleb128 .LVU762
	.uleb128 .LVU777
	.uleb128 .LVU777
	.uleb128 .LVU781
	.uleb128 .LVU781
	.uleb128 .LVU795
	.uleb128 .LVU795
	.uleb128 .LVU800
	.uleb128 .LVU800
	.uleb128 .LVU815
	.uleb128 .LVU815
	.uleb128 .LVU819
	.uleb128 .LVU819
	.uleb128 .LVU821
	.uleb128 .LVU824
	.uleb128 .LVU826
	.uleb128 .LVU835
	.uleb128 .LVU838
	.uleb128 .LVU842
	.uleb128 .LVU846
.LLST418:
	.byte	0x6
	.quad	.LVL120
	.byte	0x4
	.uleb128 .LVL120-.LVL120
	.uleb128 .LVL121-.LVL120
	.uleb128 0xf
	.byte	0x74
	.sleb128 0
	.byte	0x71
	.sleb128 0
	.byte	0x22
	.byte	0x73
	.sleb128 0
	.byte	0x22
	.byte	0x94
	.byte	0x1
	.byte	0xa8
	.uleb128 0x37
	.byte	0xa8
	.uleb128 0x30
	.byte	0x9f
	.byte	0x4
	.uleb128 .LVL121-.LVL120
	.uleb128 .LVL123-.LVL120
	.uleb128 0x15
	.byte	0x78
	.sleb128 0
	.byte	0x8
	.byte	0x20
	.byte	0x24
	.byte	0x8
	.byte	0x20
	.byte	0x26
	.byte	0x74
	.sleb128 0
	.byte	0x22
	.byte	0x71
	.sleb128 0
	.byte	0x22
	.byte	0x94
	.byte	0x1
	.byte	0xa8
	.uleb128 0x37
	.byte	0xa8
	.uleb128 0x30
	.byte	0x9f
	.byte	0x4
	.uleb128 .LVL123-.LVL120
	.uleb128 .LVL124-.LVL120
	.uleb128 0xf
	.byte	0x74
	.sleb128 0
	.byte	0x71
	.sleb128 0
	.byte	0x22
	.byte	0x7a
	.sleb128 0
	.byte	0x22
	.byte	0x94
	.byte	0x1
	.byte	0xa8
	.uleb128 0x37
	.byte	0xa8
	.uleb128 0x30
	.byte	0x9f
	.byte	0x4
	.uleb128 .LVL124-.LVL120
	.uleb128 .LVL126-.LVL120
	.uleb128 0x15
	.byte	0x78
	.sleb128 1
	.byte	0xc
	.long	0xffffffff
	.byte	0x1a
	.byte	0x74
	.sleb128 0
	.byte	0x22
	.byte	0x71
	.sleb128 0
	.byte	0x22
	.byte	0x94
	.byte	0x1
	.byte	0xa8
	.uleb128 0x37
	.byte	0xa8
	.uleb128 0x30
	.byte	0x9f
	.byte	0x4
	.uleb128 .LVL126-.LVL120
	.uleb128 .LVL127-.LVL120
	.uleb128 0xf
	.byte	0x74
	.sleb128 0
	.byte	0x71
	.sleb128 0
	.byte	0x22
	.byte	0x7a
	.sleb128 0
	.byte	0x22
	.byte	0x94
	.byte	0x1
	.byte	0xa8
	.uleb128 0x37
	.byte	0xa8
	.uleb128 0x30
	.byte	0x9f
	.byte	0x4
	.uleb128 .LVL127-.LVL120
	.uleb128 .LVL129-.LVL120
	.uleb128 0x15
	.byte	0x78
	.sleb128 2
	.byte	0xc
	.long	0xffffffff
	.byte	0x1a
	.byte	0x74
	.sleb128 0
	.byte	0x22
	.byte	0x71
	.sleb128 0
	.byte	0x22
	.byte	0x94
	.byte	0x1
	.byte	0xa8
	.uleb128 0x37
	.byte	0xa8
	.uleb128 0x30
	.byte	0x9f
	.byte	0x4
	.uleb128 .LVL129-.LVL120
	.uleb128 .LVL130-.LVL120
	.uleb128 0xf
	.byte	0x74
	.sleb128 0
	.byte	0x71
	.sleb128 0
	.byte	0x22
	.byte	0x7a
	.sleb128 0
	.byte	0x22
	.byte	0x94
	.byte	0x1
	.byte	0xa8
	.uleb128 0x37
	.byte	0xa8
	.uleb128 0x30
	.byte	0x9f
	.byte	0x4
	.uleb128 .LVL130-.LVL120
	.uleb128 .LVL132-.LVL120
	.uleb128 0x11
	.byte	0x74
	.sleb128 0
	.byte	0x71
	.sleb128 0
	.byte	0x22
	.byte	0x77
	.sleb128 208
	.byte	0x6
	.byte	0x22
	.byte	0x94
	.byte	0x1
	.byte	0xa8
	.uleb128 0x37
	.byte	0xa8
	.uleb128 0x30
	.byte	0x9f
	.byte	0x4
	.uleb128 .LVL132-.LVL120
	.uleb128 .LVL133-.LVL120
	.uleb128 0xf
	.byte	0x74
	.sleb128 0
	.byte	0x71
	.sleb128 0
	.byte	0x22
	.byte	0x7a
	.sleb128 0
	.byte	0x22
	.byte	0x94
	.byte	0x1
	.byte	0xa8
	.uleb128 0x37
	.byte	0xa8
	.uleb128 0x30
	.byte	0x9f
	.byte	0x4
	.uleb128 .LVL133-.LVL120
	.uleb128 .LVL135-.LVL120
	.uleb128 0x15
	.byte	0x78
	.sleb128 4
	.byte	0xc
	.long	0xffffffff
	.byte	0x1a
	.byte	0x74
	.sleb128 0
	.byte	0x22
	.byte	0x71
	.sleb128 0
	.byte	0x22
	.byte	0x94
	.byte	0x1
	.byte	0xa8
	.uleb128 0x37
	.byte	0xa8
	.uleb128 0x30
	.byte	0x9f
	.byte	0x4
	.uleb128 .LVL135-.LVL120
	.uleb128 .LVL136-.LVL120
	.uleb128 0xf
	.byte	0x74
	.sleb128 0
	.byte	0x71
	.sleb128 0
	.byte	0x22
	.byte	0x7a
	.sleb128 0
	.byte	0x22
	.byte	0x94
	.byte	0x1
	.byte	0xa8
	.uleb128 0x37
	.byte	0xa8
	.uleb128 0x30
	.byte	0x9f
	.byte	0x4
	.uleb128 .LVL136-.LVL120
	.uleb128 .LVL137-.LVL120
	.uleb128 0x15
	.byte	0x78
	.sleb128 5
	.byte	0xc
	.long	0xffffffff
	.byte	0x1a
	.byte	0x74
	.sleb128 0
	.byte	0x22
	.byte	0x71
	.sleb128 0
	.byte	0x22
	.byte	0x94
	.byte	0x1
	.byte	0xa8
	.uleb128 0x37
	.byte	0xa8
	.uleb128 0x30
	.byte	0x9f
	.byte	0x4
	.uleb128 .LVL138-.LVL120
	.uleb128 .LVL139-.LVL120
	.uleb128 0x7
	.byte	0x7a
	.sleb128 0
	.byte	0xa8
	.uleb128 0x37
	.byte	0xa8
	.uleb128 0x30
	.byte	0x9f
	.byte	0x4
	.uleb128 .LVL141-.LVL120
	.uleb128 .LVL142-.LVL120
	.uleb128 0xf
	.byte	0x74
	.sleb128 0
	.byte	0x71
	.sleb128 0
	.byte	0x22
	.byte	0x78
	.sleb128 0
	.byte	0x22
	.byte	0x94
	.byte	0x1
	.byte	0xa8
	.uleb128 0x37
	.byte	0xa8
	.uleb128 0x30
	.byte	0x9f
	.byte	0x4
	.uleb128 .LVL143-.LVL120
	.uleb128 .LVL145-.LVL120
	.uleb128 0x7
	.byte	0x71
	.sleb128 0
	.byte	0xa8
	.uleb128 0x37
	.byte	0xa8
	.uleb128 0x30
	.byte	0x9f
	.byte	0
.LVUS419:
	.uleb128 .LVU717
	.uleb128 .LVU721
	.uleb128 .LVU721
	.uleb128 .LVU737
	.uleb128 .LVU737
	.uleb128 .LVU742
	.uleb128 .LVU742
	.uleb128 .LVU758
	.uleb128 .LVU758
	.uleb128 .LVU762
	.uleb128 .LVU762
	.uleb128 .LVU778
	.uleb128 .LVU778
	.uleb128 .LVU781
	.uleb128 .LVU781
	.uleb128 .LVU796
	.uleb128 .LVU796
	.uleb128 .LVU800
	.uleb128 .LVU800
	.uleb128 .LVU816
	.uleb128 .LVU816
	.uleb128 .LVU819
	.uleb128 .LVU819
	.uleb128 .LVU821
	.uleb128 .LVU826
	.uleb128 .LVU836
	.uleb128 .LVU836
	.uleb128 .LVU843
	.uleb128 .LVU846
	.uleb128 .LVU853
.LLST419:
	.byte	0x6
	.quad	.LVL120
	.byte	0x4
	.uleb128 .LVL120-.LVL120
	.uleb128 .LVL121-.LVL120
	.uleb128 0xf
	.byte	0x74
	.sleb128 0
	.byte	0x73
	.sleb128 0
	.byte	0x22
	.byte	0x7e
	.sleb128 0
	.byte	0x22
	.byte	0x94
	.byte	0x1
	.byte	0xa8
	.uleb128 0x37
	.byte	0xa8
	.uleb128 0x30
	.byte	0x9f
	.byte	0x4
	.uleb128 .LVL121-.LVL120
	.uleb128 .LVL123-.LVL120
	.uleb128 0x15
	.byte	0x78
	.sleb128 0
	.byte	0x8
	.byte	0x20
	.byte	0x24
	.byte	0x8
	.byte	0x20
	.byte	0x26
	.byte	0x74
	.sleb128 0
	.byte	0x22
	.byte	0x7e
	.sleb128 0
	.byte	0x22
	.byte	0x94
	.byte	0x1
	.byte	0xa8
	.uleb128 0x37
	.byte	0xa8
	.uleb128 0x30
	.byte	0x9f
	.byte	0x4
	.uleb128 .LVL123-.LVL120
	.uleb128 .LVL124-.LVL120
	.uleb128 0xf
	.byte	0x74
	.sleb128 0
	.byte	0x7a
	.sleb128 0
	.byte	0x22
	.byte	0x7e
	.sleb128 0
	.byte	0x22
	.byte	0x94
	.byte	0x1
	.byte	0xa8
	.uleb128 0x37
	.byte	0xa8
	.uleb128 0x30
	.byte	0x9f
	.byte	0x4
	.uleb128 .LVL124-.LVL120
	.uleb128 .LVL126-.LVL120
	.uleb128 0x15
	.byte	0x78
	.sleb128 1
	.byte	0xc
	.long	0xffffffff
	.byte	0x1a
	.byte	0x74
	.sleb128 0
	.byte	0x22
	.byte	0x7e
	.sleb128 0
	.byte	0x22
	.byte	0x94
	.byte	0x1
	.byte	0xa8
	.uleb128 0x37
	.byte	0xa8
	.uleb128 0x30
	.byte	0x9f
	.byte	0x4
	.uleb128 .LVL126-.LVL120
	.uleb128 .LVL127-.LVL120
	.uleb128 0xf
	.byte	0x74
	.sleb128 0
	.byte	0x7a
	.sleb128 0
	.byte	0x22
	.byte	0x7e
	.sleb128 0
	.byte	0x22
	.byte	0x94
	.byte	0x1
	.byte	0xa8
	.uleb128 0x37
	.byte	0xa8
	.uleb128 0x30
	.byte	0x9f
	.byte	0x4
	.uleb128 .LVL127-.LVL120
	.uleb128 .LVL129-.LVL120
	.uleb128 0x15
	.byte	0x78
	.sleb128 2
	.byte	0xc
	.long	0xffffffff
	.byte	0x1a
	.byte	0x74
	.sleb128 0
	.byte	0x22
	.byte	0x7e
	.sleb128 0
	.byte	0x22
	.byte	0x94
	.byte	0x1
	.byte	0xa8
	.uleb128 0x37
	.byte	0xa8
	.uleb128 0x30
	.byte	0x9f
	.byte	0x4
	.uleb128 .LVL129-.LVL120
	.uleb128 .LVL130-.LVL120
	.uleb128 0xf
	.byte	0x74
	.sleb128 0
	.byte	0x7a
	.sleb128 0
	.byte	0x22
	.byte	0x7e
	.sleb128 0
	.byte	0x22
	.byte	0x94
	.byte	0x1
	.byte	0xa8
	.uleb128 0x37
	.byte	0xa8
	.uleb128 0x30
	.byte	0x9f
	.byte	0x4
	.uleb128 .LVL130-.LVL120
	.uleb128 .LVL132-.LVL120
	.uleb128 0x11
	.byte	0x74
	.sleb128 0
	.byte	0x7e
	.sleb128 0
	.byte	0x22
	.byte	0x77
	.sleb128 208
	.byte	0x6
	.byte	0x22
	.byte	0x94
	.byte	0x1
	.byte	0xa8
	.uleb128 0x37
	.byte	0xa8
	.uleb128 0x30
	.byte	0x9f
	.byte	0x4
	.uleb128 .LVL132-.LVL120
	.uleb128 .LVL133-.LVL120
	.uleb128 0xf
	.byte	0x74
	.sleb128 0
	.byte	0x7a
	.sleb128 0
	.byte	0x22
	.byte	0x7e
	.sleb128 0
	.byte	0x22
	.byte	0x94
	.byte	0x1
	.byte	0xa8
	.uleb128 0x37
	.byte	0xa8
	.uleb128 0x30
	.byte	0x9f
	.byte	0x4
	.uleb128 .LVL133-.LVL120
	.uleb128 .LVL135-.LVL120
	.uleb128 0x15
	.byte	0x78
	.sleb128 4
	.byte	0xc
	.long	0xffffffff
	.byte	0x1a
	.byte	0x74
	.sleb128 0
	.byte	0x22
	.byte	0x7e
	.sleb128 0
	.byte	0x22
	.byte	0x94
	.byte	0x1
	.byte	0xa8
	.uleb128 0x37
	.byte	0xa8
	.uleb128 0x30
	.byte	0x9f
	.byte	0x4
	.uleb128 .LVL135-.LVL120
	.uleb128 .LVL136-.LVL120
	.uleb128 0xf
	.byte	0x74
	.sleb128 0
	.byte	0x7a
	.sleb128 0
	.byte	0x22
	.byte	0x7e
	.sleb128 0
	.byte	0x22
	.byte	0x94
	.byte	0x1
	.byte	0xa8
	.uleb128 0x37
	.byte	0xa8
	.uleb128 0x30
	.byte	0x9f
	.byte	0x4
	.uleb128 .LVL136-.LVL120
	.uleb128 .LVL137-.LVL120
	.uleb128 0x15
	.byte	0x78
	.sleb128 5
	.byte	0xc
	.long	0xffffffff
	.byte	0x1a
	.byte	0x74
	.sleb128 0
	.byte	0x22
	.byte	0x7e
	.sleb128 0
	.byte	0x22
	.byte	0x94
	.byte	0x1
	.byte	0xa8
	.uleb128 0x37
	.byte	0xa8
	.uleb128 0x30
	.byte	0x9f
	.byte	0x4
	.uleb128 .LVL139-.LVL120
	.uleb128 .LVL141-.LVL120
	.uleb128 0x7
	.byte	0x7a
	.sleb128 0
	.byte	0xa8
	.uleb128 0x37
	.byte	0xa8
	.uleb128 0x30
	.byte	0x9f
	.byte	0x4
	.uleb128 .LVL141-.LVL120
	.uleb128 .LVL144-.LVL120
	.uleb128 0xf
	.byte	0x74
	.sleb128 0
	.byte	0x78
	.sleb128 0
	.byte	0x22
	.byte	0x7e
	.sleb128 0
	.byte	0x22
	.byte	0x94
	.byte	0x1
	.byte	0xa8
	.uleb128 0x37
	.byte	0xa8
	.uleb128 0x30
	.byte	0x9f
	.byte	0x4
	.uleb128 .LVL145-.LVL120
	.uleb128 .LVL146-.LVL120
	.uleb128 0x7
	.byte	0x71
	.sleb128 0
	.byte	0xa8
	.uleb128 0x37
	.byte	0xa8
	.uleb128 0x30
	.byte	0x9f
	.byte	0
.LVUS421:
	.uleb128 .LVU399
	.uleb128 .LVU401
.LLST421:
	.byte	0x8
	.quad	.LVL87
	.uleb128 .LVL87-.LVL87
	.uleb128 0x6
	.byte	0x77
	.sleb128 200
	.byte	0x6
	.byte	0x23
	.uleb128 0x8
	.byte	0
.LVUS423:
	.uleb128 .LVU403
	.uleb128 .LVU405
.LLST423:
	.byte	0x8
	.quad	.LVL87
	.uleb128 .LVL87-.LVL87
	.uleb128 0x6
	.byte	0x77
	.sleb128 200
	.byte	0x6
	.byte	0x23
	.uleb128 0xc
	.byte	0
.LVUS425:
	.uleb128 .LVU407
	.uleb128 .LVU409
.LLST425:
	.byte	0x8
	.quad	.LVL87
	.uleb128 .LVL87-.LVL87
	.uleb128 0x6
	.byte	0x77
	.sleb128 200
	.byte	0x6
	.byte	0x23
	.uleb128 0x10
	.byte	0
.LVUS427:
	.uleb128 .LVU411
	.uleb128 .LVU413
.LLST427:
	.byte	0x8
	.quad	.LVL87
	.uleb128 .LVL87-.LVL87
	.uleb128 0x6
	.byte	0x77
	.sleb128 200
	.byte	0x6
	.byte	0x23
	.uleb128 0x14
	.byte	0
.LVUS429:
	.uleb128 .LVU864
	.uleb128 .LVU865
	.uleb128 .LVU871
	.uleb128 .LVU927
	.uleb128 .LVU1184
	.uleb128 .LVU1187
.LLST429:
	.byte	0x6
	.quad	.LVL151
	.byte	0x4
	.uleb128 .LVL151-.LVL151
	.uleb128 .LVL152-.LVL151
	.uleb128 0x2
	.byte	0x30
	.byte	0x9f
	.byte	0x4
	.uleb128 .LVL153-.LVL151
	.uleb128 .LVL172-.LVL151
	.uleb128 0x1
	.byte	0x5e
	.byte	0x4
	.uleb128 .LVL223-.LVL151
	.uleb128 .LVL226-.LVL151
	.uleb128 0x2
	.byte	0x30
	.byte	0x9f
	.byte	0
.LVUS432:
	.uleb128 .LVU877
	.uleb128 .LVU879
	.uleb128 .LVU879
	.uleb128 .LVU887
	.uleb128 .LVU887
	.uleb128 .LVU888
	.uleb128 .LVU888
	.uleb128 .LVU889
	.uleb128 .LVU889
	.uleb128 .LVU917
	.uleb128 .LVU917
	.uleb128 .LVU923
.LLST432:
	.byte	0x6
	.quad	.LVL153
	.byte	0x4
	.uleb128 .LVL153-.LVL153
	.uleb128 .LVL154-.LVL153
	.uleb128 0x2
	.byte	0x30
	.byte	0x9f
	.byte	0x4
	.uleb128 .LVL154-.LVL153
	.uleb128 .LVL157-.LVL153
	.uleb128 0xb
	.byte	0x70
	.sleb128 0
	.byte	0xa8
	.uleb128 0x3e
	.byte	0x33
	.byte	0xa8
	.uleb128 0x3e
	.byte	0x1b
	.byte	0xa8
	.uleb128 0
	.byte	0x9f
	.byte	0x4
	.uleb128 .LVL157-.LVL153
	.uleb128 .LVL158-.LVL153
	.uleb128 0xd
	.byte	0x70
	.sleb128 0
	.byte	0xa8
	.uleb128 0x3e
	.byte	0x33
	.byte	0xa8
	.uleb128 0x3e
	.byte	0x1b
	.byte	0xa8
	.uleb128 0
	.byte	0x23
	.uleb128 0x1
	.byte	0x9f
	.byte	0x4
	.uleb128 .LVL158-.LVL153
	.uleb128 .LVL159-.LVL153
	.uleb128 0xd
	.byte	0x70
	.sleb128 -3
	.byte	0xa8
	.uleb128 0x3e
	.byte	0x33
	.byte	0xa8
	.uleb128 0x3e
	.byte	0x1b
	.byte	0xa8
	.uleb128 0
	.byte	0x23
	.uleb128 0x1
	.byte	0x9f
	.byte	0x4
	.uleb128 .LVL159-.LVL153
	.uleb128 .LVL167-.LVL153
	.uleb128 0xb
	.byte	0x70
	.sleb128 0
	.byte	0xa8
	.uleb128 0x3e
	.byte	0x33
	.byte	0xa8
	.uleb128 0x3e
	.byte	0x1b
	.byte	0xa8
	.uleb128 0
	.byte	0x9f
	.byte	0x4
	.uleb128 .LVL167-.LVL153
	.uleb128 .LVL169-.LVL153
	.uleb128 0xb
	.byte	0x70
	.sleb128 -3
	.byte	0xa8
	.uleb128 0x3e
	.byte	0x33
	.byte	0xa8
	.uleb128 0x3e
	.byte	0x1b
	.byte	0xa8
	.uleb128 0
	.byte	0x9f
	.byte	0
.LVUS434:
	.uleb128 .LVU879
	.uleb128 .LVU882
	.uleb128 .LVU882
	.uleb128 .LVU884
	.uleb128 .LVU884
	.uleb128 .LVU889
	.uleb128 .LVU891
	.uleb128 .LVU902
	.uleb128 .LVU902
	.uleb128 .LVU924
.LLST434:
	.byte	0x6
	.quad	.LVL154
	.byte	0x4
	.uleb128 .LVL154-.LVL154
	.uleb128 .LVL155-.LVL154
	.uleb128 0x1
	.byte	0x54
	.byte	0x4
	.uleb128 .LVL155-.LVL154
	.uleb128 .LVL156-.LVL154
	.uleb128 0x2
	.byte	0x71
	.sleb128 0
	.byte	0x4
	.uleb128 .LVL156-.LVL154
	.uleb128 .LVL159-.LVL154
	.uleb128 0x2
	.byte	0x71
	.sleb128 -4
	.byte	0x4
	.uleb128 .LVL160-.LVL154
	.uleb128 .LVL162-.LVL154
	.uleb128 0x1
	.byte	0x54
	.byte	0x4
	.uleb128 .LVL162-.LVL154
	.uleb128 .LVL170-.LVL154
	.uleb128 0x2
	.byte	0x71
	.sleb128 -4
	.byte	0
.LVUS435:
	.uleb128 .LVU896
	.uleb128 .LVU919
.LLST435:
	.byte	0x8
	.quad	.LVL161
	.uleb128 .LVL168-.LVL161
	.uleb128 0x1
	.byte	0x61
	.byte	0
.LVUS437:
	.uleb128 .LVU897
	.uleb128 .LVU904
	.uleb128 .LVU904
	.uleb128 .LVU912
	.uleb128 .LVU912
	.uleb128 .LVU921
	.uleb128 .LVU921
	.uleb128 .LVU924
.LLST437:
	.byte	0x6
	.quad	.LVL161
	.byte	0x4
	.uleb128 .LVL161-.LVL161
	.uleb128 .LVL163-.LVL161
	.uleb128 0x2
	.byte	0x30
	.byte	0x9f
	.byte	0x4
	.uleb128 .LVL163-.LVL161
	.uleb128 .LVL165-.LVL161
	.uleb128 0x2
	.byte	0x31
	.byte	0x9f
	.byte	0x4
	.uleb128 .LVL165-.LVL161
	.uleb128 .LVL169-.LVL161
	.uleb128 0x2
	.byte	0x32
	.byte	0x9f
	.byte	0x4
	.uleb128 .LVL169-.LVL161
	.uleb128 .LVL170-.LVL161
	.uleb128 0x2
	.byte	0x33
	.byte	0x9f
	.byte	0
.LVUS439:
	.uleb128 .LVU899
	.uleb128 .LVU907
	.uleb128 .LVU907
	.uleb128 .LVU919
.LLST439:
	.byte	0x6
	.quad	.LVL161
	.byte	0x4
	.uleb128 .LVL161-.LVL161
	.uleb128 .LVL164-.LVL161
	.uleb128 0xf
	.byte	0x70
	.sleb128 0
	.byte	0x32
	.byte	0x24
	.byte	0x7b
	.sleb128 0
	.byte	0x22
	.byte	0xa6
	.byte	0x4
	.uleb128 0x30
	.byte	0xa5
	.uleb128 0x11
	.uleb128 0x30
	.byte	0x1e
	.byte	0x9f
	.byte	0x4
	.uleb128 .LVL164-.LVL161
	.uleb128 .LVL168-.LVL161
	.uleb128 0x12
	.byte	0x74
	.sleb128 0
	.byte	0x32
	.byte	0x24
	.byte	0x75
	.sleb128 0
	.byte	0x22
	.byte	0x79
	.sleb128 0
	.byte	0x22
	.byte	0xa6
	.byte	0x4
	.uleb128 0x30
	.byte	0xa5
	.uleb128 0x11
	.uleb128 0x30
	.byte	0x1e
	.byte	0x9f
	.byte	0
.LVUS440:
	.uleb128 .LVU874
	.uleb128 .LVU875
.LLST440:
	.byte	0x8
	.quad	.LVL153
	.uleb128 .LVL153-.LVL153
	.uleb128 0x3
	.byte	0x73
	.sleb128 16
	.byte	0x9f
	.byte	0
.LVUS8:
	.uleb128 .LVU7
	.uleb128 .LVU11
.LLST8:
	.byte	0x8
	.quad	.LVL1
	.uleb128 .LVL1-.LVL1
	.uleb128 0x1
	.byte	0x54
	.byte	0
.LVUS9:
	.uleb128 .LVU9
	.uleb128 .LVU11
.LLST9:
	.byte	0x8
	.quad	.LVL1
	.uleb128 .LVL1-.LVL1
	.uleb128 0x1
	.byte	0x54
	.byte	0
.LVUS10:
	.uleb128 .LVU10
	.uleb128 .LVU11
.LLST10:
	.byte	0x8
	.quad	.LVL1
	.uleb128 .LVL1-.LVL1
	.uleb128 0x1
	.byte	0x54
	.byte	0
.LVUS11:
	.uleb128 .LVU20
	.uleb128 .LVU24
.LLST11:
	.byte	0x8
	.quad	.LVL5
	.uleb128 .LVL5-.LVL5
	.uleb128 0x1
	.byte	0x53
	.byte	0
.LVUS12:
	.uleb128 .LVU22
	.uleb128 .LVU24
.LLST12:
	.byte	0x8
	.quad	.LVL5
	.uleb128 .LVL5-.LVL5
	.uleb128 0x1
	.byte	0x53
	.byte	0
.LVUS13:
	.uleb128 .LVU23
	.uleb128 .LVU24
.LLST13:
	.byte	0x8
	.quad	.LVL5
	.uleb128 .LVL5-.LVL5
	.uleb128 0x1
	.byte	0x53
	.byte	0
.LVUS15:
	.uleb128 .LVU44
	.uleb128 .LVU47
	.uleb128 .LVU1030
	.uleb128 .LVU1088
	.uleb128 .LVU1310
	.uleb128 .LVU1312
.LLST15:
	.byte	0x6
	.quad	.LVL6
	.byte	0x4
	.uleb128 .LVL6-.LVL6
	.uleb128 .LVL7-.LVL6
	.uleb128 0x7
	.byte	0x77
	.sleb128 72
	.byte	0x6
	.byte	0x23
	.uleb128 0x10
	.byte	0x9f
	.byte	0x4
	.uleb128 .LVL190-.LVL6
	.uleb128 .LVL198-.LVL6
	.uleb128 0x7
	.byte	0x77
	.sleb128 72
	.byte	0x6
	.byte	0x23
	.uleb128 0x10
	.byte	0x9f
	.byte	0x8
	.quad	.LVL259
	.uleb128 .LVL260-.LVL259
	.uleb128 0x7
	.byte	0x77
	.sleb128 72
	.byte	0x6
	.byte	0x23
	.uleb128 0x10
	.byte	0x9f
	.byte	0
.LVUS16:
	.uleb128 .LVU44
	.uleb128 .LVU47
	.uleb128 .LVU1030
	.uleb128 .LVU1053
	.uleb128 .LVU1053
	.uleb128 .LVU1053
	.uleb128 .LVU1053
	.uleb128 .LVU1088
	.uleb128 .LVU1310
	.uleb128 .LVU1312
	.uleb128 .LVU1312
	.uleb128 .LVU1312
.LLST16:
	.byte	0x6
	.quad	.LVL6
	.byte	0x4
	.uleb128 .LVL6-.LVL6
	.uleb128 .LVL7-.LVL6
	.uleb128 0x1
	.byte	0x51
	.byte	0x4
	.uleb128 .LVL190-.LVL6
	.uleb128 .LVL192-1-.LVL6
	.uleb128 0x1
	.byte	0x51
	.byte	0x4
	.uleb128 .LVL192-1-.LVL6
	.uleb128 .LVL192-.LVL6
	.uleb128 0x3
	.byte	0x77
	.sleb128 224
	.byte	0x4
	.uleb128 .LVL192-.LVL6
	.uleb128 .LVL198-.LVL6
	.uleb128 0x1
	.byte	0x5e
	.byte	0x6
	.quad	.LVL259
	.byte	0x4
	.uleb128 .LVL259-.LVL259
	.uleb128 .LVL260-1-.LVL259
	.uleb128 0x1
	.byte	0x51
	.byte	0x4
	.uleb128 .LVL260-1-.LVL259
	.uleb128 .LVL260-.LVL259
	.uleb128 0x3
	.byte	0x77
	.sleb128 224
	.byte	0
.LVUS18:
	.uleb128 .LVU45
	.uleb128 .LVU47
	.uleb128 .LVU1030
	.uleb128 .LVU1088
	.uleb128 .LVU1310
	.uleb128 .LVU1312
.LLST18:
	.byte	0x6
	.quad	.LVL6
	.byte	0x4
	.uleb128 .LVL6-.LVL6
	.uleb128 .LVL7-.LVL6
	.uleb128 0x7
	.byte	0x77
	.sleb128 72
	.byte	0x6
	.byte	0x23
	.uleb128 0x10
	.byte	0x9f
	.byte	0x4
	.uleb128 .LVL190-.LVL6
	.uleb128 .LVL198-.LVL6
	.uleb128 0x7
	.byte	0x77
	.sleb128 72
	.byte	0x6
	.byte	0x23
	.uleb128 0x10
	.byte	0x9f
	.byte	0x8
	.quad	.LVL259
	.uleb128 .LVL260-.LVL259
	.uleb128 0x7
	.byte	0x77
	.sleb128 72
	.byte	0x6
	.byte	0x23
	.uleb128 0x10
	.byte	0x9f
	.byte	0
.LVUS19:
	.uleb128 .LVU45
	.uleb128 .LVU47
	.uleb128 .LVU1030
	.uleb128 .LVU1053
	.uleb128 .LVU1053
	.uleb128 .LVU1053
	.uleb128 .LVU1053
	.uleb128 .LVU1088
	.uleb128 .LVU1310
	.uleb128 .LVU1312
	.uleb128 .LVU1312
	.uleb128 .LVU1312
.LLST19:
	.byte	0x6
	.quad	.LVL6
	.byte	0x4
	.uleb128 .LVL6-.LVL6
	.uleb128 .LVL7-.LVL6
	.uleb128 0x1
	.byte	0x51
	.byte	0x4
	.uleb128 .LVL190-.LVL6
	.uleb128 .LVL192-1-.LVL6
	.uleb128 0x1
	.byte	0x51
	.byte	0x4
	.uleb128 .LVL192-1-.LVL6
	.uleb128 .LVL192-.LVL6
	.uleb128 0x3
	.byte	0x77
	.sleb128 224
	.byte	0x4
	.uleb128 .LVL192-.LVL6
	.uleb128 .LVL198-.LVL6
	.uleb128 0x1
	.byte	0x5e
	.byte	0x6
	.quad	.LVL259
	.byte	0x4
	.uleb128 .LVL259-.LVL259
	.uleb128 .LVL260-1-.LVL259
	.uleb128 0x1
	.byte	0x51
	.byte	0x4
	.uleb128 .LVL260-1-.LVL259
	.uleb128 .LVL260-.LVL259
	.uleb128 0x3
	.byte	0x77
	.sleb128 224
	.byte	0
.LVUS23:
	.uleb128 .LVU1030
	.uleb128 .LVU1067
	.uleb128 .LVU1310
	.uleb128 .LVU1312
.LLST23:
	.byte	0x8
	.quad	.LVL190
	.uleb128 .LVL196-.LVL190
	.uleb128 0x6
	.byte	0xa0
	.long	.Ldebug_info0+57248
	.sleb128 0
	.byte	0x8
	.quad	.LVL259
	.uleb128 .LVL260-.LVL259
	.uleb128 0x6
	.byte	0xa0
	.long	.Ldebug_info0+57248
	.sleb128 0
	.byte	0
.LVUS24:
	.uleb128 .LVU1030
	.uleb128 .LVU1053
	.uleb128 .LVU1053
	.uleb128 .LVU1053
	.uleb128 .LVU1053
	.uleb128 .LVU1067
	.uleb128 .LVU1310
	.uleb128 .LVU1312
	.uleb128 .LVU1312
	.uleb128 .LVU1312
.LLST24:
	.byte	0x6
	.quad	.LVL190
	.byte	0x4
	.uleb128 .LVL190-.LVL190
	.uleb128 .LVL192-1-.LVL190
	.uleb128 0x1
	.byte	0x51
	.byte	0x4
	.uleb128 .LVL192-1-.LVL190
	.uleb128 .LVL192-.LVL190
	.uleb128 0x3
	.byte	0x77
	.sleb128 224
	.byte	0x4
	.uleb128 .LVL192-.LVL190
	.uleb128 .LVL196-.LVL190
	.uleb128 0x1
	.byte	0x5e
	.byte	0x6
	.quad	.LVL259
	.byte	0x4
	.uleb128 .LVL259-.LVL259
	.uleb128 .LVL260-1-.LVL259
	.uleb128 0x1
	.byte	0x51
	.byte	0x4
	.uleb128 .LVL260-1-.LVL259
	.uleb128 .LVL260-.LVL259
	.uleb128 0x3
	.byte	0x77
	.sleb128 224
	.byte	0
.LVUS26:
	.uleb128 .LVU1030
	.uleb128 .LVU1067
	.uleb128 .LVU1310
	.uleb128 .LVU1312
.LLST26:
	.byte	0x8
	.quad	.LVL190
	.uleb128 .LVL196-.LVL190
	.uleb128 0x7
	.byte	0x77
	.sleb128 72
	.byte	0x6
	.byte	0x23
	.uleb128 0x10
	.byte	0x9f
	.byte	0x8
	.quad	.LVL259
	.uleb128 .LVL260-.LVL259
	.uleb128 0x7
	.byte	0x77
	.sleb128 72
	.byte	0x6
	.byte	0x23
	.uleb128 0x10
	.byte	0x9f
	.byte	0
.LVUS28:
	.uleb128 .LVU1032
	.uleb128 .LVU1040
	.uleb128 .LVU1310
	.uleb128 .LVU1312
	.uleb128 .LVU1312
	.uleb128 .LVU1312
.LLST28:
	.byte	0x8
	.quad	.LVL190
	.uleb128 .LVL191-.LVL190
	.uleb128 0x1
	.byte	0x51
	.byte	0x6
	.quad	.LVL259
	.byte	0x4
	.uleb128 .LVL259-.LVL259
	.uleb128 .LVL260-1-.LVL259
	.uleb128 0x1
	.byte	0x51
	.byte	0x4
	.uleb128 .LVL260-1-.LVL259
	.uleb128 .LVL260-.LVL259
	.uleb128 0x3
	.byte	0x77
	.sleb128 224
	.byte	0
.LVUS29:
	.uleb128 .LVU1032
	.uleb128 .LVU1040
	.uleb128 .LVU1310
	.uleb128 .LVU1312
.LLST29:
	.byte	0x8
	.quad	.LVL190
	.uleb128 .LVL191-.LVL190
	.uleb128 0x7
	.byte	0x77
	.sleb128 72
	.byte	0x6
	.byte	0x23
	.uleb128 0x10
	.byte	0x9f
	.byte	0x8
	.quad	.LVL259
	.uleb128 .LVL260-.LVL259
	.uleb128 0x7
	.byte	0x77
	.sleb128 72
	.byte	0x6
	.byte	0x23
	.uleb128 0x10
	.byte	0x9f
	.byte	0
.LVUS30:
	.uleb128 .LVU1033
	.uleb128 .LVU1035
.LLST30:
	.byte	0x8
	.quad	.LVL190
	.uleb128 .LVL190-.LVL190
	.uleb128 0x7
	.byte	0x77
	.sleb128 72
	.byte	0x6
	.byte	0x23
	.uleb128 0x10
	.byte	0x9f
	.byte	0
.LVUS31:
	.uleb128 .LVU1034
	.uleb128 .LVU1035
.LLST31:
	.byte	0x8
	.quad	.LVL190
	.uleb128 .LVL190-.LVL190
	.uleb128 0x7
	.byte	0x77
	.sleb128 72
	.byte	0x6
	.byte	0x23
	.uleb128 0x10
	.byte	0x9f
	.byte	0
.LVUS33:
	.uleb128 .LVU1040
	.uleb128 .LVU1057
.LLST33:
	.byte	0x8
	.quad	.LVL191
	.uleb128 .LVL194-.LVL191
	.uleb128 0x6
	.byte	0xa0
	.long	.Ldebug_info0+57248
	.sleb128 0
	.byte	0
.LVUS34:
	.uleb128 .LVU1040
	.uleb128 .LVU1053
	.uleb128 .LVU1053
	.uleb128 .LVU1053
	.uleb128 .LVU1053
	.uleb128 .LVU1057
.LLST34:
	.byte	0x6
	.quad	.LVL191
	.byte	0x4
	.uleb128 .LVL191-.LVL191
	.uleb128 .LVL192-1-.LVL191
	.uleb128 0x1
	.byte	0x51
	.byte	0x4
	.uleb128 .LVL192-1-.LVL191
	.uleb128 .LVL192-.LVL191
	.uleb128 0x3
	.byte	0x77
	.sleb128 224
	.byte	0x4
	.uleb128 .LVL192-.LVL191
	.uleb128 .LVL194-.LVL191
	.uleb128 0x1
	.byte	0x5e
	.byte	0
.LVUS35:
	.uleb128 .LVU1040
	.uleb128 .LVU1057
.LLST35:
	.byte	0x8
	.quad	.LVL191
	.uleb128 .LVL194-.LVL191
	.uleb128 0x7
	.byte	0x77
	.sleb128 72
	.byte	0x6
	.byte	0x23
	.uleb128 0x10
	.byte	0x9f
	.byte	0
.LVUS37:
	.uleb128 .LVU1047
	.uleb128 .LVU1057
.LLST37:
	.byte	0x8
	.quad	.LVL191
	.uleb128 .LVL194-.LVL191
	.uleb128 0x6
	.byte	0xa0
	.long	.Ldebug_info0+57248
	.sleb128 0
	.byte	0
.LVUS38:
	.uleb128 .LVU1047
	.uleb128 .LVU1053
	.uleb128 .LVU1053
	.uleb128 .LVU1053
	.uleb128 .LVU1053
	.uleb128 .LVU1057
.LLST38:
	.byte	0x6
	.quad	.LVL191
	.byte	0x4
	.uleb128 .LVL191-.LVL191
	.uleb128 .LVL192-1-.LVL191
	.uleb128 0x1
	.byte	0x51
	.byte	0x4
	.uleb128 .LVL192-1-.LVL191
	.uleb128 .LVL192-.LVL191
	.uleb128 0x3
	.byte	0x77
	.sleb128 224
	.byte	0x4
	.uleb128 .LVL192-.LVL191
	.uleb128 .LVL194-.LVL191
	.uleb128 0x1
	.byte	0x5e
	.byte	0
.LVUS40:
	.uleb128 .LVU1049
	.uleb128 .LVU1054
.LLST40:
	.byte	0x8
	.quad	.LVL191
	.uleb128 .LVL193-.LVL191
	.uleb128 0x6
	.byte	0xa0
	.long	.Ldebug_info0+57248
	.sleb128 0
	.byte	0
.LVUS41:
	.uleb128 .LVU1049
	.uleb128 .LVU1053
	.uleb128 .LVU1053
	.uleb128 .LVU1053
	.uleb128 .LVU1053
	.uleb128 .LVU1054
.LLST41:
	.byte	0x6
	.quad	.LVL191
	.byte	0x4
	.uleb128 .LVL191-.LVL191
	.uleb128 .LVL192-1-.LVL191
	.uleb128 0x1
	.byte	0x51
	.byte	0x4
	.uleb128 .LVL192-1-.LVL191
	.uleb128 .LVL192-.LVL191
	.uleb128 0x3
	.byte	0x77
	.sleb128 224
	.byte	0x4
	.uleb128 .LVL192-.LVL191
	.uleb128 .LVL193-.LVL191
	.uleb128 0x1
	.byte	0x5e
	.byte	0
.LVUS43:
	.uleb128 .LVU1050
	.uleb128 .LVU1054
.LLST43:
	.byte	0x8
	.quad	.LVL191
	.uleb128 .LVL193-.LVL191
	.uleb128 0x6
	.byte	0xa0
	.long	.Ldebug_info0+57248
	.sleb128 0
	.byte	0
.LVUS44:
	.uleb128 .LVU1050
	.uleb128 .LVU1053
	.uleb128 .LVU1053
	.uleb128 .LVU1053
	.uleb128 .LVU1053
	.uleb128 .LVU1054
.LLST44:
	.byte	0x6
	.quad	.LVL191
	.byte	0x4
	.uleb128 .LVL191-.LVL191
	.uleb128 .LVL192-1-.LVL191
	.uleb128 0x1
	.byte	0x51
	.byte	0x4
	.uleb128 .LVL192-1-.LVL191
	.uleb128 .LVL192-.LVL191
	.uleb128 0x3
	.byte	0x77
	.sleb128 224
	.byte	0x4
	.uleb128 .LVL192-.LVL191
	.uleb128 .LVL193-.LVL191
	.uleb128 0x1
	.byte	0x5e
	.byte	0
.LVUS46:
	.uleb128 .LVU1051
	.uleb128 .LVU1054
.LLST46:
	.byte	0x8
	.quad	.LVL191
	.uleb128 .LVL193-.LVL191
	.uleb128 0x6
	.byte	0xa0
	.long	.Ldebug_info0+57248
	.sleb128 0
	.byte	0
.LVUS47:
	.uleb128 .LVU1051
	.uleb128 .LVU1053
	.uleb128 .LVU1053
	.uleb128 .LVU1053
	.uleb128 .LVU1053
	.uleb128 .LVU1054
.LLST47:
	.byte	0x6
	.quad	.LVL191
	.byte	0x4
	.uleb128 .LVL191-.LVL191
	.uleb128 .LVL192-1-.LVL191
	.uleb128 0x1
	.byte	0x51
	.byte	0x4
	.uleb128 .LVL192-1-.LVL191
	.uleb128 .LVL192-.LVL191
	.uleb128 0x3
	.byte	0x77
	.sleb128 224
	.byte	0x4
	.uleb128 .LVL192-.LVL191
	.uleb128 .LVL193-.LVL191
	.uleb128 0x1
	.byte	0x5e
	.byte	0
.LVUS48:
	.uleb128 .LVU1051
	.uleb128 .LVU1054
.LLST48:
	.byte	0x8
	.quad	.LVL191
	.uleb128 .LVL193-.LVL191
	.uleb128 0x2
	.byte	0x30
	.byte	0x9f
	.byte	0
.LVUS49:
	.uleb128 .LVU1042
	.uleb128 .LVU1047
.LLST49:
	.byte	0x8
	.quad	.LVL191
	.uleb128 .LVL191-.LVL191
	.uleb128 0x6
	.byte	0xa0
	.long	.Ldebug_info0+57248
	.sleb128 0
	.byte	0
.LVUS50:
	.uleb128 .LVU1042
	.uleb128 .LVU1047
.LLST50:
	.byte	0x8
	.quad	.LVL191
	.uleb128 .LVL191-.LVL191
	.uleb128 0x7
	.byte	0x77
	.sleb128 72
	.byte	0x6
	.byte	0x23
	.uleb128 0x10
	.byte	0x9f
	.byte	0
.LVUS51:
	.uleb128 .LVU1043
	.uleb128 .LVU1045
.LLST51:
	.byte	0x8
	.quad	.LVL191
	.uleb128 .LVL191-.LVL191
	.uleb128 0x6
	.byte	0xa0
	.long	.Ldebug_info0+57248
	.sleb128 0
	.byte	0
.LVUS52:
	.uleb128 .LVU1043
	.uleb128 .LVU1045
.LLST52:
	.byte	0x8
	.quad	.LVL191
	.uleb128 .LVL191-.LVL191
	.uleb128 0x7
	.byte	0x77
	.sleb128 72
	.byte	0x6
	.byte	0x23
	.uleb128 0x10
	.byte	0x9f
	.byte	0
.LVUS53:
	.uleb128 .LVU1044
	.uleb128 .LVU1045
.LLST53:
	.byte	0x8
	.quad	.LVL191
	.uleb128 .LVL191-.LVL191
	.uleb128 0x6
	.byte	0xa0
	.long	.Ldebug_info0+57248
	.sleb128 0
	.byte	0
.LVUS54:
	.uleb128 .LVU1044
	.uleb128 .LVU1045
.LLST54:
	.byte	0x8
	.quad	.LVL191
	.uleb128 .LVL191-.LVL191
	.uleb128 0x7
	.byte	0x77
	.sleb128 72
	.byte	0x6
	.byte	0x23
	.uleb128 0x10
	.byte	0x9f
	.byte	0
.LVUS55:
	.uleb128 .LVU1045
	.uleb128 .LVU1047
.LLST55:
	.byte	0x8
	.quad	.LVL191
	.uleb128 .LVL191-.LVL191
	.uleb128 0x6
	.byte	0xa0
	.long	.Ldebug_info0+57248
	.sleb128 0
	.byte	0
.LVUS57:
	.uleb128 .LVU1057
	.uleb128 .LVU1067
.LLST57:
	.byte	0x8
	.quad	.LVL194
	.uleb128 .LVL196-.LVL194
	.uleb128 0x6
	.byte	0xa0
	.long	.Ldebug_info0+57248
	.sleb128 0
	.byte	0
.LVUS58:
	.uleb128 .LVU1057
	.uleb128 .LVU1067
.LLST58:
	.byte	0x8
	.quad	.LVL194
	.uleb128 .LVL196-.LVL194
	.uleb128 0x1
	.byte	0x5e
	.byte	0
.LVUS60:
	.uleb128 .LVU1059
	.uleb128 .LVU1064
.LLST60:
	.byte	0x8
	.quad	.LVL194
	.uleb128 .LVL195-1-.LVL194
	.uleb128 0x1
	.byte	0x50
	.byte	0
.LVUS61:
	.uleb128 .LVU1059
	.uleb128 .LVU1067
.LLST61:
	.byte	0x8
	.quad	.LVL194
	.uleb128 .LVL196-.LVL194
	.uleb128 0x1
	.byte	0x5e
	.byte	0
.LVUS63:
	.uleb128 .LVU1059
	.uleb128 .LVU1067
.LLST63:
	.byte	0x8
	.quad	.LVL194
	.uleb128 .LVL196-.LVL194
	.uleb128 0x6
	.byte	0xa0
	.long	.Ldebug_info0+57248
	.sleb128 0
	.byte	0
.LVUS64:
	.uleb128 .LVU1060
	.uleb128 .LVU1064
.LLST64:
	.byte	0x8
	.quad	.LVL194
	.uleb128 .LVL195-1-.LVL194
	.uleb128 0x1
	.byte	0x50
	.byte	0
.LVUS65:
	.uleb128 .LVU1060
	.uleb128 .LVU1067
.LLST65:
	.byte	0x8
	.quad	.LVL194
	.uleb128 .LVL196-.LVL194
	.uleb128 0x1
	.byte	0x5e
	.byte	0
.LVUS69:
	.uleb128 .LVU1061
	.uleb128 .LVU1064
.LLST69:
	.byte	0x8
	.quad	.LVL194
	.uleb128 .LVL195-1-.LVL194
	.uleb128 0x1
	.byte	0x50
	.byte	0
.LVUS70:
	.uleb128 .LVU1067
	.uleb128 .LVU1076
.LLST70:
	.byte	0x8
	.quad	.LVL196
	.uleb128 .LVL198-.LVL196
	.uleb128 0x6
	.byte	0xa0
	.long	.Ldebug_info0+57248
	.sleb128 0
	.byte	0
.LVUS71:
	.uleb128 .LVU1067
	.uleb128 .LVU1076
.LLST71:
	.byte	0x8
	.quad	.LVL196
	.uleb128 .LVL198-.LVL196
	.uleb128 0x7
	.byte	0x77
	.sleb128 72
	.byte	0x6
	.byte	0x23
	.uleb128 0x10
	.byte	0x9f
	.byte	0
.LVUS72:
	.uleb128 .LVU1069
	.uleb128 .LVU1070
.LLST72:
	.byte	0x8
	.quad	.LVL196
	.uleb128 .LVL196-.LVL196
	.uleb128 0x6
	.byte	0xa0
	.long	.Ldebug_info0+58445
	.sleb128 0
	.byte	0
.LVUS73:
	.uleb128 .LVU1070
	.uleb128 .LVU1076
.LLST73:
	.byte	0x8
	.quad	.LVL196
	.uleb128 .LVL198-.LVL196
	.uleb128 0x7
	.byte	0x77
	.sleb128 72
	.byte	0x6
	.byte	0x23
	.uleb128 0x10
	.byte	0x9f
	.byte	0
.LVUS74:
	.uleb128 .LVU1070
	.uleb128 .LVU1076
.LLST74:
	.byte	0x8
	.quad	.LVL196
	.uleb128 .LVL198-.LVL196
	.uleb128 0x6
	.byte	0xa0
	.long	.Ldebug_info0+58445
	.sleb128 0
	.byte	0
.LVUS75:
	.uleb128 .LVU1076
	.uleb128 .LVU1088
.LLST75:
	.byte	0x8
	.quad	.LVL198
	.uleb128 .LVL198-.LVL198
	.uleb128 0x6
	.byte	0xa0
	.long	.Ldebug_info0+57248
	.sleb128 0
	.byte	0
.LVUS76:
	.uleb128 .LVU1078
	.uleb128 .LVU1079
.LLST76:
	.byte	0x8
	.quad	.LVL198
	.uleb128 .LVL198-.LVL198
	.uleb128 0x6
	.byte	0xa0
	.long	.Ldebug_info0+57248
	.sleb128 0
	.byte	0
.LVUS77:
	.uleb128 .LVU1079
	.uleb128 .LVU1081
.LLST77:
	.byte	0x8
	.quad	.LVL198
	.uleb128 .LVL198-.LVL198
	.uleb128 0x6
	.byte	0xa0
	.long	.Ldebug_info0+57248
	.sleb128 0
	.byte	0
.LVUS78:
	.uleb128 .LVU1081
	.uleb128 .LVU1088
.LLST78:
	.byte	0x8
	.quad	.LVL198
	.uleb128 .LVL198-.LVL198
	.uleb128 0x6
	.byte	0xa0
	.long	.Ldebug_info0+57248
	.sleb128 0
	.byte	0
.LVUS79:
	.uleb128 .LVU1083
	.uleb128 .LVU1088
.LLST79:
	.byte	0x8
	.quad	.LVL198
	.uleb128 .LVL198-.LVL198
	.uleb128 0x2
	.byte	0x30
	.byte	0x9f
	.byte	0
.LVUS80:
	.uleb128 .LVU1083
	.uleb128 .LVU1084
.LLST80:
	.byte	0x8
	.quad	.LVL198
	.uleb128 .LVL198-.LVL198
	.uleb128 0x6
	.byte	0xa0
	.long	.Ldebug_info0+57248
	.sleb128 0
	.byte	0
.LVUS81:
	.uleb128 .LVU1083
	.uleb128 .LVU1084
.LLST81:
	.byte	0x8
	.quad	.LVL198
	.uleb128 .LVL198-.LVL198
	.uleb128 0x2
	.byte	0x30
	.byte	0x9f
	.byte	0
.LVUS83:
	.uleb128 .LVU1084
	.uleb128 .LVU1088
.LLST83:
	.byte	0x8
	.quad	.LVL198
	.uleb128 .LVL198-.LVL198
	.uleb128 0x6
	.byte	0xa0
	.long	.Ldebug_info0+57248
	.sleb128 0
	.byte	0
.LVUS84:
	.uleb128 .LVU1086
	.uleb128 .LVU1088
.LLST84:
	.byte	0x8
	.quad	.LVL198
	.uleb128 .LVL198-.LVL198
	.uleb128 0x6
	.byte	0xa0
	.long	.Ldebug_info0+57248
	.sleb128 0
	.byte	0
.LVUS85:
	.uleb128 .LVU1087
	.uleb128 .LVU1088
.LLST85:
	.byte	0x8
	.quad	.LVL198
	.uleb128 .LVL198-.LVL198
	.uleb128 0x6
	.byte	0xa0
	.long	.Ldebug_info0+57248
	.sleb128 0
	.byte	0
.LVUS87:
	.uleb128 .LVU49
	.uleb128 .LVU56
	.uleb128 .LVU1090
	.uleb128 .LVU1097
.LLST87:
	.byte	0x8
	.quad	.LVL7
	.uleb128 .LVL7-.LVL7
	.uleb128 0x6
	.byte	0xa0
	.long	.Ldebug_info0+51684
	.sleb128 0
	.byte	0x8
	.quad	.LVL198
	.uleb128 .LVL198-.LVL198
	.uleb128 0x6
	.byte	0xa0
	.long	.Ldebug_info0+51684
	.sleb128 0
	.byte	0
.LVUS88:
	.uleb128 .LVU50
	.uleb128 .LVU56
	.uleb128 .LVU1091
	.uleb128 .LVU1097
.LLST88:
	.byte	0x8
	.quad	.LVL7
	.uleb128 .LVL7-.LVL7
	.uleb128 0x6
	.byte	0xa0
	.long	.Ldebug_info0+51684
	.sleb128 0
	.byte	0x8
	.quad	.LVL198
	.uleb128 .LVL198-.LVL198
	.uleb128 0x6
	.byte	0xa0
	.long	.Ldebug_info0+51684
	.sleb128 0
	.byte	0
.LVUS89:
	.uleb128 .LVU51
	.uleb128 .LVU56
	.uleb128 .LVU1092
	.uleb128 .LVU1097
.LLST89:
	.byte	0x8
	.quad	.LVL7
	.uleb128 .LVL7-.LVL7
	.uleb128 0x6
	.byte	0xa0
	.long	.Ldebug_info0+51684
	.sleb128 0
	.byte	0x8
	.quad	.LVL198
	.uleb128 .LVL198-.LVL198
	.uleb128 0x6
	.byte	0xa0
	.long	.Ldebug_info0+51684
	.sleb128 0
	.byte	0
.LVUS91:
	.uleb128 .LVU52
	.uleb128 .LVU54
	.uleb128 .LVU1093
	.uleb128 .LVU1095
.LLST91:
	.byte	0x8
	.quad	.LVL7
	.uleb128 .LVL7-.LVL7
	.uleb128 0x6
	.byte	0xa0
	.long	.Ldebug_info0+51684
	.sleb128 0
	.byte	0x8
	.quad	.LVL198
	.uleb128 .LVL198-.LVL198
	.uleb128 0x6
	.byte	0xa0
	.long	.Ldebug_info0+51684
	.sleb128 0
	.byte	0
.LVUS92:
	.uleb128 .LVU53
	.uleb128 .LVU54
	.uleb128 .LVU1094
	.uleb128 .LVU1095
.LLST92:
	.byte	0x8
	.quad	.LVL7
	.uleb128 .LVL7-.LVL7
	.uleb128 0x6
	.byte	0xa0
	.long	.Ldebug_info0+51684
	.sleb128 0
	.byte	0x8
	.quad	.LVL198
	.uleb128 .LVL198-.LVL198
	.uleb128 0x6
	.byte	0xa0
	.long	.Ldebug_info0+51684
	.sleb128 0
	.byte	0
.LVUS94:
	.uleb128 .LVU54
	.uleb128 .LVU56
	.uleb128 .LVU1095
	.uleb128 .LVU1097
.LLST94:
	.byte	0x8
	.quad	.LVL7
	.uleb128 .LVL7-.LVL7
	.uleb128 0x6
	.byte	0xa0
	.long	.Ldebug_info0+51684
	.sleb128 0
	.byte	0x8
	.quad	.LVL198
	.uleb128 .LVL198-.LVL198
	.uleb128 0x6
	.byte	0xa0
	.long	.Ldebug_info0+51684
	.sleb128 0
	.byte	0
.LVUS96:
	.uleb128 .LVU58
	.uleb128 .LVU60
	.uleb128 .LVU1099
	.uleb128 .LVU1101
.LLST96:
	.byte	0x6
	.quad	.LVL7
	.byte	0x4
	.uleb128 .LVL7-.LVL7
	.uleb128 .LVL8-.LVL7
	.uleb128 0x1
	.byte	0x53
	.byte	0x4
	.uleb128 .LVL198-.LVL7
	.uleb128 .LVL199-.LVL7
	.uleb128 0x1
	.byte	0x53
	.byte	0
.LVUS98:
	.uleb128 .LVU60
	.uleb128 .LVU80
	.uleb128 .LVU997
	.uleb128 .LVU1000
	.uleb128 .LVU1101
	.uleb128 .LVU1109
.LLST98:
	.byte	0x6
	.quad	.LVL8
	.byte	0x4
	.uleb128 .LVL8-.LVL8
	.uleb128 .LVL17-.LVL8
	.uleb128 0x6
	.byte	0xa0
	.long	.Ldebug_info0+51684
	.sleb128 0
	.byte	0x4
	.uleb128 .LVL183-.LVL8
	.uleb128 .LVL184-.LVL8
	.uleb128 0x6
	.byte	0xa0
	.long	.Ldebug_info0+51684
	.sleb128 0
	.byte	0x4
	.uleb128 .LVL199-.LVL8
	.uleb128 .LVL201-.LVL8
	.uleb128 0x6
	.byte	0xa0
	.long	.Ldebug_info0+51684
	.sleb128 0
	.byte	0
.LVUS99:
	.uleb128 .LVU60
	.uleb128 .LVU65
	.uleb128 .LVU65
	.uleb128 .LVU66
	.uleb128 .LVU997
	.uleb128 .LVU1000
	.uleb128 .LVU1101
	.uleb128 .LVU1106
	.uleb128 .LVU1106
	.uleb128 .LVU1109
.LLST99:
	.byte	0x6
	.quad	.LVL8
	.byte	0x4
	.uleb128 .LVL8-.LVL8
	.uleb128 .LVL9-.LVL8
	.uleb128 0x9
	.byte	0x74
	.sleb128 0
	.byte	0x72
	.sleb128 0
	.byte	0x1c
	.byte	0x8
	.byte	0x30
	.byte	0x1b
	.byte	0x9f
	.byte	0x4
	.uleb128 .LVL9-.LVL8
	.uleb128 .LVL10-.LVL8
	.uleb128 0x6
	.byte	0x71
	.sleb128 0
	.byte	0x8
	.byte	0x30
	.byte	0x1b
	.byte	0x9f
	.byte	0x4
	.uleb128 .LVL183-.LVL8
	.uleb128 .LVL184-.LVL8
	.uleb128 0x6
	.byte	0x71
	.sleb128 0
	.byte	0x8
	.byte	0x30
	.byte	0x1b
	.byte	0x9f
	.byte	0x4
	.uleb128 .LVL199-.LVL8
	.uleb128 .LVL200-.LVL8
	.uleb128 0x9
	.byte	0x70
	.sleb128 0
	.byte	0x72
	.sleb128 0
	.byte	0x1c
	.byte	0x8
	.byte	0x30
	.byte	0x1b
	.byte	0x9f
	.byte	0x4
	.uleb128 .LVL200-.LVL8
	.uleb128 .LVL201-.LVL8
	.uleb128 0x6
	.byte	0x70
	.sleb128 0
	.byte	0x8
	.byte	0x30
	.byte	0x1b
	.byte	0x9f
	.byte	0
.LVUS100:
	.uleb128 .LVU68
	.uleb128 .LVU77
.LLST100:
	.byte	0x8
	.quad	.LVL12
	.uleb128 .LVL16-.LVL12
	.uleb128 0x2
	.byte	0x30
	.byte	0x9f
	.byte	0
.LVUS101:
	.uleb128 .LVU74
	.uleb128 .LVU76
	.uleb128 .LVU76
	.uleb128 .LVU77
.LLST101:
	.byte	0x6
	.quad	.LVL14
	.byte	0x4
	.uleb128 .LVL14-.LVL14
	.uleb128 .LVL15-.LVL14
	.uleb128 0x1
	.byte	0x50
	.byte	0x4
	.uleb128 .LVL15-.LVL14
	.uleb128 .LVL16-.LVL14
	.uleb128 0x3
	.byte	0x77
	.sleb128 128
	.byte	0
.LVUS102:
	.uleb128 .LVU68
	.uleb128 .LVU74
.LLST102:
	.byte	0x8
	.quad	.LVL12
	.uleb128 .LVL14-.LVL12
	.uleb128 0x6
	.byte	0xa0
	.long	.Ldebug_info0+51684
	.sleb128 0
	.byte	0
.LVUS104:
	.uleb128 .LVU70
	.uleb128 .LVU74
.LLST104:
	.byte	0x8
	.quad	.LVL12
	.uleb128 .LVL14-.LVL12
	.uleb128 0x6
	.byte	0xa0
	.long	.Ldebug_info0+51684
	.sleb128 0
	.byte	0
.LVUS105:
	.uleb128 .LVU72
	.uleb128 .LVU74
.LLST105:
	.byte	0x8
	.quad	.LVL12
	.uleb128 .LVL14-.LVL12
	.uleb128 0x2
	.byte	0x30
	.byte	0x9f
	.byte	0
.LVUS106:
	.uleb128 .LVU72
	.uleb128 .LVU74
.LLST106:
	.byte	0x8
	.quad	.LVL12
	.uleb128 .LVL14-.LVL12
	.uleb128 0x6
	.byte	0xa0
	.long	.Ldebug_info0+51684
	.sleb128 0
	.byte	0
.LVUS192:
	.uleb128 .LVU976
	.uleb128 .LVU993
.LLST192:
	.byte	0x8
	.quad	.LVL178
	.uleb128 .LVL180-.LVL178
	.uleb128 0x6
	.byte	0xa0
	.long	.Ldebug_info0+51684
	.sleb128 0
	.byte	0
.LVUS194:
	.uleb128 .LVU981
	.uleb128 .LVU993
.LLST194:
	.byte	0x8
	.quad	.LVL178
	.uleb128 .LVL180-.LVL178
	.uleb128 0x6
	.byte	0xa0
	.long	.Ldebug_info0+51684
	.sleb128 0
	.byte	0
.LVUS196:
	.uleb128 .LVU983
	.uleb128 .LVU989
.LLST196:
	.byte	0x8
	.quad	.LVL178
	.uleb128 .LVL180-.LVL178
	.uleb128 0x6
	.byte	0xa0
	.long	.Ldebug_info0+51684
	.sleb128 0
	.byte	0
.LVUS197:
	.uleb128 .LVU983
	.uleb128 .LVU989
.LLST197:
	.byte	0x8
	.quad	.LVL178
	.uleb128 .LVL180-.LVL178
	.uleb128 0x3
	.byte	0x77
	.sleb128 112
	.byte	0
.LVUS198:
	.uleb128 .LVU986
	.uleb128 .LVU989
.LLST198:
	.byte	0x8
	.quad	.LVL179
	.uleb128 .LVL180-.LVL179
	.uleb128 0x6
	.byte	0xa0
	.long	.Ldebug_info0+51684
	.sleb128 0
	.byte	0
.LVUS199:
	.uleb128 .LVU985
	.uleb128 .LVU989
.LLST199:
	.byte	0x8
	.quad	.LVL179
	.uleb128 .LVL180-.LVL179
	.uleb128 0x3
	.byte	0x77
	.sleb128 112
	.byte	0
.LVUS200:
	.uleb128 .LVU986
	.uleb128 .LVU989
.LLST200:
	.byte	0x8
	.quad	.LVL179
	.uleb128 .LVL180-.LVL179
	.uleb128 0x3
	.byte	0x77
	.sleb128 112
	.byte	0
.LVUS201:
	.uleb128 .LVU987
	.uleb128 .LVU989
.LLST201:
	.byte	0x8
	.quad	.LVL179
	.uleb128 .LVL180-.LVL179
	.uleb128 0x3
	.byte	0x77
	.sleb128 112
	.byte	0
.LVUS202:
	.uleb128 .LVU989
	.uleb128 .LVU993
.LLST202:
	.byte	0x8
	.quad	.LVL180
	.uleb128 .LVL180-.LVL180
	.uleb128 0x6
	.byte	0xa0
	.long	.Ldebug_info0+51684
	.sleb128 0
	.byte	0
.LVUS203:
	.uleb128 .LVU991
	.uleb128 .LVU993
.LLST203:
	.byte	0x8
	.quad	.LVL180
	.uleb128 .LVL180-.LVL180
	.uleb128 0x6
	.byte	0xa0
	.long	.Ldebug_info0+51684
	.sleb128 0
	.byte	0
.LVUS204:
	.uleb128 .LVU992
	.uleb128 .LVU993
.LLST204:
	.byte	0x8
	.quad	.LVL180
	.uleb128 .LVL180-.LVL180
	.uleb128 0x6
	.byte	0xa0
	.long	.Ldebug_info0+51684
	.sleb128 0
	.byte	0
.LVUS205:
	.uleb128 .LVU978
	.uleb128 .LVU979
.LLST205:
	.byte	0x8
	.quad	.LVL178
	.uleb128 .LVL178-.LVL178
	.uleb128 0x6
	.byte	0xa0
	.long	.Ldebug_info0+51684
	.sleb128 0
	.byte	0
.LVUS206:
	.uleb128 .LVU979
	.uleb128 .LVU981
.LLST206:
	.byte	0x8
	.quad	.LVL178
	.uleb128 .LVL178-.LVL178
	.uleb128 0x6
	.byte	0xa0
	.long	.Ldebug_info0+51684
	.sleb128 0
	.byte	0
.LVUS210:
	.uleb128 .LVU180
	.uleb128 .LVU189
	.uleb128 .LVU1305
	.uleb128 .LVU1306
	.uleb128 .LVU1308
	.uleb128 .LVU1310
.LLST210:
	.byte	0x8
	.quad	.LVL42
	.uleb128 .LVL43-.LVL42
	.uleb128 0x3
	.byte	0x77
	.sleb128 80
	.byte	0x6
	.quad	.LVL254
	.byte	0x4
	.uleb128 .LVL254-.LVL254
	.uleb128 .LVL255-.LVL254
	.uleb128 0x3
	.byte	0x77
	.sleb128 80
	.byte	0x4
	.uleb128 .LVL257-.LVL254
	.uleb128 .LVL259-.LVL254
	.uleb128 0x3
	.byte	0x77
	.sleb128 80
	.byte	0
.LVUS214:
	.uleb128 .LVU182
	.uleb128 .LVU189
	.uleb128 .LVU1305
	.uleb128 .LVU1306
	.uleb128 .LVU1308
	.uleb128 .LVU1310
.LLST214:
	.byte	0x8
	.quad	.LVL42
	.uleb128 .LVL43-.LVL42
	.uleb128 0x3
	.byte	0x77
	.sleb128 80
	.byte	0x6
	.quad	.LVL254
	.byte	0x4
	.uleb128 .LVL254-.LVL254
	.uleb128 .LVL255-.LVL254
	.uleb128 0x3
	.byte	0x77
	.sleb128 80
	.byte	0x4
	.uleb128 .LVL257-.LVL254
	.uleb128 .LVL259-.LVL254
	.uleb128 0x3
	.byte	0x77
	.sleb128 80
	.byte	0
.LVUS219:
	.uleb128 .LVU189
	.uleb128 .LVU205
	.uleb128 .LVU1221
	.uleb128 .LVU1222
.LLST219:
	.byte	0x6
	.quad	.LVL43
	.byte	0x4
	.uleb128 .LVL43-.LVL43
	.uleb128 .LVL46-.LVL43
	.uleb128 0x3
	.byte	0x77
	.sleb128 80
	.byte	0x4
	.uleb128 .LVL232-.LVL43
	.uleb128 .LVL234-.LVL43
	.uleb128 0x3
	.byte	0x77
	.sleb128 80
	.byte	0
.LVUS225:
	.uleb128 .LVU196
	.uleb128 .LVU205
	.uleb128 .LVU1221
	.uleb128 .LVU1222
.LLST225:
	.byte	0x6
	.quad	.LVL43
	.byte	0x4
	.uleb128 .LVL43-.LVL43
	.uleb128 .LVL46-.LVL43
	.uleb128 0x3
	.byte	0x77
	.sleb128 80
	.byte	0x4
	.uleb128 .LVL232-.LVL43
	.uleb128 .LVL234-.LVL43
	.uleb128 0x3
	.byte	0x77
	.sleb128 80
	.byte	0
.LVUS227:
	.uleb128 .LVU198
	.uleb128 .LVU205
	.uleb128 .LVU1221
	.uleb128 .LVU1222
.LLST227:
	.byte	0x6
	.quad	.LVL43
	.byte	0x4
	.uleb128 .LVL43-.LVL43
	.uleb128 .LVL46-.LVL43
	.uleb128 0x3
	.byte	0x77
	.sleb128 80
	.byte	0x4
	.uleb128 .LVL232-.LVL43
	.uleb128 .LVL234-.LVL43
	.uleb128 0x3
	.byte	0x77
	.sleb128 80
	.byte	0
.LVUS229:
	.uleb128 .LVU200
	.uleb128 .LVU205
	.uleb128 .LVU1221
	.uleb128 .LVU1222
.LLST229:
	.byte	0x6
	.quad	.LVL44
	.byte	0x4
	.uleb128 .LVL44-.LVL44
	.uleb128 .LVL46-.LVL44
	.uleb128 0x3
	.byte	0x77
	.sleb128 80
	.byte	0x4
	.uleb128 .LVL232-.LVL44
	.uleb128 .LVL234-.LVL44
	.uleb128 0x3
	.byte	0x77
	.sleb128 80
	.byte	0
.LVUS230:
	.uleb128 .LVU202
	.uleb128 .LVU205
	.uleb128 .LVU1221
	.uleb128 .LVU1222
.LLST230:
	.byte	0x6
	.quad	.LVL44
	.byte	0x4
	.uleb128 .LVL44-.LVL44
	.uleb128 .LVL46-.LVL44
	.uleb128 0x2
	.byte	0x30
	.byte	0x9f
	.byte	0x4
	.uleb128 .LVL232-.LVL44
	.uleb128 .LVL234-.LVL44
	.uleb128 0x2
	.byte	0x30
	.byte	0x9f
	.byte	0
.LVUS231:
	.uleb128 .LVU201
	.uleb128 .LVU205
	.uleb128 .LVU1221
	.uleb128 .LVU1222
.LLST231:
	.byte	0x6
	.quad	.LVL44
	.byte	0x4
	.uleb128 .LVL44-.LVL44
	.uleb128 .LVL46-.LVL44
	.uleb128 0x3
	.byte	0x77
	.sleb128 80
	.byte	0x4
	.uleb128 .LVL232-.LVL44
	.uleb128 .LVL234-.LVL44
	.uleb128 0x3
	.byte	0x77
	.sleb128 80
	.byte	0
.LVUS233:
	.uleb128 .LVU205
	.uleb128 .LVU215
.LLST233:
	.byte	0x8
	.quad	.LVL46
	.uleb128 .LVL47-.LVL46
	.uleb128 0x3
	.byte	0x77
	.sleb128 80
	.byte	0
.LVUS235:
	.uleb128 .LVU207
	.uleb128 .LVU215
	.uleb128 .LVU215
	.uleb128 .LVU215
.LLST235:
	.byte	0x6
	.quad	.LVL46
	.byte	0x4
	.uleb128 .LVL46-.LVL46
	.uleb128 .LVL47-1-.LVL46
	.uleb128 0x1
	.byte	0x50
	.byte	0x4
	.uleb128 .LVL47-1-.LVL46
	.uleb128 .LVL47-.LVL46
	.uleb128 0x3
	.byte	0x77
	.sleb128 88
	.byte	0
.LVUS236:
	.uleb128 .LVU207
	.uleb128 .LVU215
.LLST236:
	.byte	0x8
	.quad	.LVL46
	.uleb128 .LVL47-.LVL46
	.uleb128 0x3
	.byte	0x77
	.sleb128 80
	.byte	0
.LVUS238:
	.uleb128 .LVU208
	.uleb128 .LVU215
	.uleb128 .LVU215
	.uleb128 .LVU215
.LLST238:
	.byte	0x6
	.quad	.LVL46
	.byte	0x4
	.uleb128 .LVL46-.LVL46
	.uleb128 .LVL47-1-.LVL46
	.uleb128 0x1
	.byte	0x50
	.byte	0x4
	.uleb128 .LVL47-1-.LVL46
	.uleb128 .LVL47-.LVL46
	.uleb128 0x3
	.byte	0x77
	.sleb128 88
	.byte	0
.LVUS239:
	.uleb128 .LVU208
	.uleb128 .LVU215
.LLST239:
	.byte	0x8
	.quad	.LVL46
	.uleb128 .LVL47-.LVL46
	.uleb128 0x3
	.byte	0x77
	.sleb128 80
	.byte	0
.LVUS242:
	.uleb128 .LVU209
	.uleb128 .LVU215
	.uleb128 .LVU215
	.uleb128 .LVU215
.LLST242:
	.byte	0x6
	.quad	.LVL46
	.byte	0x4
	.uleb128 .LVL46-.LVL46
	.uleb128 .LVL47-1-.LVL46
	.uleb128 0x1
	.byte	0x50
	.byte	0x4
	.uleb128 .LVL47-1-.LVL46
	.uleb128 .LVL47-.LVL46
	.uleb128 0x3
	.byte	0x77
	.sleb128 88
	.byte	0
.LVUS243:
	.uleb128 .LVU209
	.uleb128 .LVU214
	.uleb128 .LVU214
	.uleb128 .LVU215
.LLST243:
	.byte	0x6
	.quad	.LVL46
	.byte	0x4
	.uleb128 .LVL46-.LVL46
	.uleb128 .LVL46-.LVL46
	.uleb128 0x3
	.byte	0x77
	.sleb128 80
	.byte	0x4
	.uleb128 .LVL46-.LVL46
	.uleb128 .LVL47-.LVL46
	.uleb128 0x7
	.byte	0x77
	.sleb128 80
	.byte	0x6
	.byte	0x31
	.byte	0x1c
	.byte	0x9f
	.byte	0
.LVUS246:
	.uleb128 .LVU210
	.uleb128 .LVU211
.LLST246:
	.byte	0x8
	.quad	.LVL46
	.uleb128 .LVL46-.LVL46
	.uleb128 0x6
	.byte	0xa0
	.long	.Ldebug_info0+61265
	.sleb128 0
	.byte	0
.LVUS247:
	.uleb128 .LVU210
	.uleb128 .LVU211
.LLST247:
	.byte	0x8
	.quad	.LVL46
	.uleb128 .LVL46-.LVL46
	.uleb128 0x6
	.byte	0xa0
	.long	.Ldebug_info0+61234
	.sleb128 0
	.byte	0
.LVUS248:
	.uleb128 .LVU215
	.uleb128 .LVU217
.LLST248:
	.byte	0x8
	.quad	.LVL47
	.uleb128 .LVL47-.LVL47
	.uleb128 0x6
	.byte	0xa0
	.long	.Ldebug_info0+61265
	.sleb128 0
	.byte	0
.LVUS254:
	.uleb128 .LVU228
	.uleb128 .LVU236
	.uleb128 .LVU236
	.uleb128 .LVU251
	.uleb128 .LVU251
	.uleb128 .LVU266
	.uleb128 .LVU1178
	.uleb128 .LVU1180
	.uleb128 .LVU1220
	.uleb128 .LVU1221
	.uleb128 .LVU1227
	.uleb128 .LVU1229
	.uleb128 .LVU1303
	.uleb128 .LVU1305
.LLST254:
	.byte	0x6
	.quad	.LVL48
	.byte	0x4
	.uleb128 .LVL48-.LVL48
	.uleb128 .LVL49-.LVL48
	.uleb128 0x1
	.byte	0x50
	.byte	0x4
	.uleb128 .LVL49-.LVL48
	.uleb128 .LVL52-.LVL48
	.uleb128 0x3
	.byte	0x77
	.sleb128 64
	.byte	0x4
	.uleb128 .LVL52-.LVL48
	.uleb128 .LVL55-.LVL48
	.uleb128 0xa
	.byte	0x77
	.sleb128 208
	.byte	0x6
	.byte	0x23
	.uleb128 0x1
	.byte	0x7c
	.sleb128 0
	.byte	0x1e
	.byte	0x9f
	.byte	0x4
	.uleb128 .LVL221-.LVL48
	.uleb128 .LVL222-.LVL48
	.uleb128 0x1
	.byte	0x5e
	.byte	0x4
	.uleb128 .LVL231-.LVL48
	.uleb128 .LVL232-.LVL48
	.uleb128 0xa
	.byte	0x77
	.sleb128 208
	.byte	0x6
	.byte	0x23
	.uleb128 0x1
	.byte	0x7c
	.sleb128 0
	.byte	0x1e
	.byte	0x9f
	.byte	0x6
	.quad	.LVL238
	.byte	0x4
	.uleb128 .LVL238-.LVL238
	.uleb128 .LVL239-.LVL238
	.uleb128 0xa
	.byte	0x77
	.sleb128 208
	.byte	0x6
	.byte	0x23
	.uleb128 0x1
	.byte	0x7c
	.sleb128 0
	.byte	0x1e
	.byte	0x9f
	.byte	0x4
	.uleb128 .LVL253-.LVL238
	.uleb128 .LVL254-.LVL238
	.uleb128 0x3
	.byte	0x77
	.sleb128 64
	.byte	0
.LVUS258:
	.uleb128 .LVU229
	.uleb128 .LVU236
	.uleb128 .LVU236
	.uleb128 .LVU237
	.uleb128 .LVU1303
	.uleb128 .LVU1305
.LLST258:
	.byte	0x6
	.quad	.LVL48
	.byte	0x4
	.uleb128 .LVL48-.LVL48
	.uleb128 .LVL49-.LVL48
	.uleb128 0x1
	.byte	0x50
	.byte	0x4
	.uleb128 .LVL49-.LVL48
	.uleb128 .LVL50-.LVL48
	.uleb128 0x3
	.byte	0x77
	.sleb128 64
	.byte	0x8
	.quad	.LVL253
	.uleb128 .LVL254-.LVL253
	.uleb128 0x3
	.byte	0x77
	.sleb128 64
	.byte	0
.LVUS263:
	.uleb128 .LVU237
	.uleb128 .LVU251
	.uleb128 .LVU251
	.uleb128 .LVU254
	.uleb128 .LVU1178
	.uleb128 .LVU1180
	.uleb128 .LVU1220
	.uleb128 .LVU1221
.LLST263:
	.byte	0x6
	.quad	.LVL50
	.byte	0x4
	.uleb128 .LVL50-.LVL50
	.uleb128 .LVL52-.LVL50
	.uleb128 0x3
	.byte	0x77
	.sleb128 64
	.byte	0x4
	.uleb128 .LVL52-.LVL50
	.uleb128 .LVL54-.LVL50
	.uleb128 0xa
	.byte	0x77
	.sleb128 208
	.byte	0x6
	.byte	0x23
	.uleb128 0x1
	.byte	0x7c
	.sleb128 0
	.byte	0x1e
	.byte	0x9f
	.byte	0x4
	.uleb128 .LVL221-.LVL50
	.uleb128 .LVL222-.LVL50
	.uleb128 0x1
	.byte	0x5e
	.byte	0x4
	.uleb128 .LVL231-.LVL50
	.uleb128 .LVL232-.LVL50
	.uleb128 0xa
	.byte	0x77
	.sleb128 208
	.byte	0x6
	.byte	0x23
	.uleb128 0x1
	.byte	0x7c
	.sleb128 0
	.byte	0x1e
	.byte	0x9f
	.byte	0
.LVUS269:
	.uleb128 .LVU244
	.uleb128 .LVU251
	.uleb128 .LVU251
	.uleb128 .LVU254
	.uleb128 .LVU1178
	.uleb128 .LVU1180
	.uleb128 .LVU1220
	.uleb128 .LVU1221
.LLST269:
	.byte	0x6
	.quad	.LVL50
	.byte	0x4
	.uleb128 .LVL50-.LVL50
	.uleb128 .LVL52-.LVL50
	.uleb128 0x3
	.byte	0x77
	.sleb128 64
	.byte	0x4
	.uleb128 .LVL52-.LVL50
	.uleb128 .LVL54-.LVL50
	.uleb128 0xa
	.byte	0x77
	.sleb128 208
	.byte	0x6
	.byte	0x23
	.uleb128 0x1
	.byte	0x7c
	.sleb128 0
	.byte	0x1e
	.byte	0x9f
	.byte	0x4
	.uleb128 .LVL221-.LVL50
	.uleb128 .LVL222-.LVL50
	.uleb128 0x1
	.byte	0x5e
	.byte	0x4
	.uleb128 .LVL231-.LVL50
	.uleb128 .LVL232-.LVL50
	.uleb128 0xa
	.byte	0x77
	.sleb128 208
	.byte	0x6
	.byte	0x23
	.uleb128 0x1
	.byte	0x7c
	.sleb128 0
	.byte	0x1e
	.byte	0x9f
	.byte	0
.LVUS271:
	.uleb128 .LVU246
	.uleb128 .LVU251
	.uleb128 .LVU251
	.uleb128 .LVU254
	.uleb128 .LVU1178
	.uleb128 .LVU1180
	.uleb128 .LVU1220
	.uleb128 .LVU1221
.LLST271:
	.byte	0x6
	.quad	.LVL50
	.byte	0x4
	.uleb128 .LVL50-.LVL50
	.uleb128 .LVL52-.LVL50
	.uleb128 0x3
	.byte	0x77
	.sleb128 64
	.byte	0x4
	.uleb128 .LVL52-.LVL50
	.uleb128 .LVL54-.LVL50
	.uleb128 0xa
	.byte	0x77
	.sleb128 208
	.byte	0x6
	.byte	0x23
	.uleb128 0x1
	.byte	0x7c
	.sleb128 0
	.byte	0x1e
	.byte	0x9f
	.byte	0x4
	.uleb128 .LVL221-.LVL50
	.uleb128 .LVL222-.LVL50
	.uleb128 0x1
	.byte	0x5e
	.byte	0x4
	.uleb128 .LVL231-.LVL50
	.uleb128 .LVL232-.LVL50
	.uleb128 0xa
	.byte	0x77
	.sleb128 208
	.byte	0x6
	.byte	0x23
	.uleb128 0x1
	.byte	0x7c
	.sleb128 0
	.byte	0x1e
	.byte	0x9f
	.byte	0
.LVUS273:
	.uleb128 .LVU248
	.uleb128 .LVU251
	.uleb128 .LVU251
	.uleb128 .LVU254
	.uleb128 .LVU1220
	.uleb128 .LVU1221
.LLST273:
	.byte	0x6
	.quad	.LVL51
	.byte	0x4
	.uleb128 .LVL51-.LVL51
	.uleb128 .LVL52-.LVL51
	.uleb128 0x3
	.byte	0x77
	.sleb128 64
	.byte	0x4
	.uleb128 .LVL52-.LVL51
	.uleb128 .LVL54-.LVL51
	.uleb128 0xa
	.byte	0x77
	.sleb128 208
	.byte	0x6
	.byte	0x23
	.uleb128 0x1
	.byte	0x7c
	.sleb128 0
	.byte	0x1e
	.byte	0x9f
	.byte	0x4
	.uleb128 .LVL231-.LVL51
	.uleb128 .LVL232-.LVL51
	.uleb128 0xa
	.byte	0x77
	.sleb128 208
	.byte	0x6
	.byte	0x23
	.uleb128 0x1
	.byte	0x7c
	.sleb128 0
	.byte	0x1e
	.byte	0x9f
	.byte	0
.LVUS274:
	.uleb128 .LVU250
	.uleb128 .LVU254
	.uleb128 .LVU1220
	.uleb128 .LVU1221
.LLST274:
	.byte	0x6
	.quad	.LVL51
	.byte	0x4
	.uleb128 .LVL51-.LVL51
	.uleb128 .LVL54-.LVL51
	.uleb128 0x2
	.byte	0x30
	.byte	0x9f
	.byte	0x4
	.uleb128 .LVL231-.LVL51
	.uleb128 .LVL232-.LVL51
	.uleb128 0x2
	.byte	0x30
	.byte	0x9f
	.byte	0
.LVUS275:
	.uleb128 .LVU249
	.uleb128 .LVU251
	.uleb128 .LVU251
	.uleb128 .LVU254
	.uleb128 .LVU1220
	.uleb128 .LVU1221
.LLST275:
	.byte	0x6
	.quad	.LVL51
	.byte	0x4
	.uleb128 .LVL51-.LVL51
	.uleb128 .LVL52-.LVL51
	.uleb128 0x3
	.byte	0x77
	.sleb128 64
	.byte	0x4
	.uleb128 .LVL52-.LVL51
	.uleb128 .LVL54-.LVL51
	.uleb128 0xa
	.byte	0x77
	.sleb128 208
	.byte	0x6
	.byte	0x23
	.uleb128 0x1
	.byte	0x7c
	.sleb128 0
	.byte	0x1e
	.byte	0x9f
	.byte	0x4
	.uleb128 .LVL231-.LVL51
	.uleb128 .LVL232-.LVL51
	.uleb128 0xa
	.byte	0x77
	.sleb128 208
	.byte	0x6
	.byte	0x23
	.uleb128 0x1
	.byte	0x7c
	.sleb128 0
	.byte	0x1e
	.byte	0x9f
	.byte	0
.LVUS277:
	.uleb128 .LVU254
	.uleb128 .LVU264
.LLST277:
	.byte	0x8
	.quad	.LVL54
	.uleb128 .LVL55-.LVL54
	.uleb128 0x1
	.byte	0x5e
	.byte	0
.LVUS279:
	.uleb128 .LVU256
	.uleb128 .LVU264
	.uleb128 .LVU264
	.uleb128 .LVU264
.LLST279:
	.byte	0x6
	.quad	.LVL54
	.byte	0x4
	.uleb128 .LVL54-.LVL54
	.uleb128 .LVL55-1-.LVL54
	.uleb128 0x1
	.byte	0x50
	.byte	0x4
	.uleb128 .LVL55-1-.LVL54
	.uleb128 .LVL55-.LVL54
	.uleb128 0x1
	.byte	0x53
	.byte	0
.LVUS280:
	.uleb128 .LVU256
	.uleb128 .LVU264
.LLST280:
	.byte	0x8
	.quad	.LVL54
	.uleb128 .LVL55-.LVL54
	.uleb128 0x1
	.byte	0x5e
	.byte	0
.LVUS282:
	.uleb128 .LVU257
	.uleb128 .LVU264
	.uleb128 .LVU264
	.uleb128 .LVU264
.LLST282:
	.byte	0x6
	.quad	.LVL54
	.byte	0x4
	.uleb128 .LVL54-.LVL54
	.uleb128 .LVL55-1-.LVL54
	.uleb128 0x1
	.byte	0x50
	.byte	0x4
	.uleb128 .LVL55-1-.LVL54
	.uleb128 .LVL55-.LVL54
	.uleb128 0x1
	.byte	0x53
	.byte	0
.LVUS283:
	.uleb128 .LVU257
	.uleb128 .LVU264
.LLST283:
	.byte	0x8
	.quad	.LVL54
	.uleb128 .LVL55-.LVL54
	.uleb128 0x1
	.byte	0x5e
	.byte	0
.LVUS286:
	.uleb128 .LVU258
	.uleb128 .LVU264
	.uleb128 .LVU264
	.uleb128 .LVU264
.LLST286:
	.byte	0x6
	.quad	.LVL54
	.byte	0x4
	.uleb128 .LVL54-.LVL54
	.uleb128 .LVL55-1-.LVL54
	.uleb128 0x1
	.byte	0x50
	.byte	0x4
	.uleb128 .LVL55-1-.LVL54
	.uleb128 .LVL55-.LVL54
	.uleb128 0x1
	.byte	0x53
	.byte	0
.LVUS287:
	.uleb128 .LVU258
	.uleb128 .LVU263
	.uleb128 .LVU263
	.uleb128 .LVU264
.LLST287:
	.byte	0x6
	.quad	.LVL54
	.byte	0x4
	.uleb128 .LVL54-.LVL54
	.uleb128 .LVL54-.LVL54
	.uleb128 0x1
	.byte	0x5e
	.byte	0x4
	.uleb128 .LVL54-.LVL54
	.uleb128 .LVL55-.LVL54
	.uleb128 0x3
	.byte	0x7e
	.sleb128 -1
	.byte	0x9f
	.byte	0
.LVUS290:
	.uleb128 .LVU259
	.uleb128 .LVU260
.LLST290:
	.byte	0x8
	.quad	.LVL54
	.uleb128 .LVL54-.LVL54
	.uleb128 0x6
	.byte	0xa0
	.long	.Ldebug_info0+62574
	.sleb128 0
	.byte	0
.LVUS291:
	.uleb128 .LVU259
	.uleb128 .LVU260
.LLST291:
	.byte	0x8
	.quad	.LVL54
	.uleb128 .LVL54-.LVL54
	.uleb128 0x6
	.byte	0xa0
	.long	.Ldebug_info0+62543
	.sleb128 0
	.byte	0
.LVUS292:
	.uleb128 .LVU264
	.uleb128 .LVU266
.LLST292:
	.byte	0x8
	.quad	.LVL55
	.uleb128 .LVL55-.LVL55
	.uleb128 0x6
	.byte	0xa0
	.long	.Ldebug_info0+62574
	.sleb128 0
	.byte	0
.LVUS316:
	.uleb128 .LVU352
	.uleb128 .LVU373
	.uleb128 .LVU373
	.uleb128 .LVU377
	.uleb128 .LVU377
	.uleb128 .LVU393
	.uleb128 .LVU1191
	.uleb128 .LVU1211
	.uleb128 .LVU1223
	.uleb128 .LVU1224
	.uleb128 .LVU1225
	.uleb128 0
	.uleb128 0
	.uleb128 .LVU1227
	.uleb128 .LVU1283
	.uleb128 .LVU1303
.LLST316:
	.byte	0x6
	.quad	.LVL78
	.byte	0x4
	.uleb128 .LVL78-.LVL78
	.uleb128 .LVL80-.LVL78
	.uleb128 0x3
	.byte	0x77
	.sleb128 224
	.byte	0x4
	.uleb128 .LVL80-.LVL78
	.uleb128 .LVL81-.LVL78
	.uleb128 0xa
	.byte	0x77
	.sleb128 184
	.byte	0x6
	.byte	0x77
	.sleb128 80
	.byte	0x6
	.byte	0x22
	.byte	0x9f
	.byte	0x4
	.uleb128 .LVL81-.LVL78
	.uleb128 .LVL85-.LVL78
	.uleb128 0xf
	.byte	0x77
	.sleb128 120
	.byte	0x6
	.byte	0x77
	.sleb128 208
	.byte	0x6
	.byte	0x1e
	.byte	0x77
	.sleb128 184
	.byte	0x6
	.byte	0x22
	.byte	0x9f
	.byte	0x4
	.uleb128 .LVL226-.LVL78
	.uleb128 .LVL228-.LVL78
	.uleb128 0x3
	.byte	0x77
	.sleb128 224
	.byte	0x4
	.uleb128 .LVL235-.LVL78
	.uleb128 .LVL236-.LVL78
	.uleb128 0xf
	.byte	0x77
	.sleb128 120
	.byte	0x6
	.byte	0x77
	.sleb128 208
	.byte	0x6
	.byte	0x1e
	.byte	0x77
	.sleb128 184
	.byte	0x6
	.byte	0x22
	.byte	0x9f
	.byte	0x4
	.uleb128 .LVL237-.LVL78
	.uleb128 .LHOTE4-.LVL78
	.uleb128 0x3
	.byte	0x77
	.sleb128 224
	.byte	0x6
	.quad	.LFSB11707
	.byte	0x4
	.uleb128 .LFSB11707-.LFSB11707
	.uleb128 .LVL238-.LFSB11707
	.uleb128 0x3
	.byte	0x77
	.sleb128 224
	.byte	0x4
	.uleb128 .LVL247-.LFSB11707
	.uleb128 .LVL253-.LFSB11707
	.uleb128 0xf
	.byte	0x77
	.sleb128 120
	.byte	0x6
	.byte	0x77
	.sleb128 208
	.byte	0x6
	.byte	0x1e
	.byte	0x77
	.sleb128 184
	.byte	0x6
	.byte	0x22
	.byte	0x9f
	.byte	0
.LVUS320:
	.uleb128 .LVU354
	.uleb128 .LVU361
	.uleb128 .LVU1193
	.uleb128 .LVU1200
	.uleb128 .LVU1225
	.uleb128 0
	.uleb128 0
	.uleb128 .LVU1227
.LLST320:
	.byte	0x6
	.quad	.LVL78
	.byte	0x4
	.uleb128 .LVL78-.LVL78
	.uleb128 .LVL79-.LVL78
	.uleb128 0x3
	.byte	0x77
	.sleb128 224
	.byte	0x4
	.uleb128 .LVL226-.LVL78
	.uleb128 .LVL227-.LVL78
	.uleb128 0x3
	.byte	0x77
	.sleb128 224
	.byte	0x4
	.uleb128 .LVL237-.LVL78
	.uleb128 .LHOTE4-.LVL78
	.uleb128 0x3
	.byte	0x77
	.sleb128 224
	.byte	0x8
	.quad	.LFSB11707
	.uleb128 .LVL238-.LFSB11707
	.uleb128 0x3
	.byte	0x77
	.sleb128 224
	.byte	0
.LVUS327:
	.uleb128 .LVU361
	.uleb128 .LVU373
	.uleb128 .LVU373
	.uleb128 .LVU377
	.uleb128 .LVU377
	.uleb128 .LVU380
	.uleb128 .LVU1200
	.uleb128 .LVU1211
	.uleb128 .LVU1223
	.uleb128 .LVU1224
.LLST327:
	.byte	0x6
	.quad	.LVL79
	.byte	0x4
	.uleb128 .LVL79-.LVL79
	.uleb128 .LVL80-.LVL79
	.uleb128 0x3
	.byte	0x77
	.sleb128 224
	.byte	0x4
	.uleb128 .LVL80-.LVL79
	.uleb128 .LVL81-.LVL79
	.uleb128 0xa
	.byte	0x77
	.sleb128 184
	.byte	0x6
	.byte	0x77
	.sleb128 80
	.byte	0x6
	.byte	0x22
	.byte	0x9f
	.byte	0x4
	.uleb128 .LVL81-.LVL79
	.uleb128 .LVL83-.LVL79
	.uleb128 0xf
	.byte	0x77
	.sleb128 120
	.byte	0x6
	.byte	0x77
	.sleb128 208
	.byte	0x6
	.byte	0x1e
	.byte	0x77
	.sleb128 184
	.byte	0x6
	.byte	0x22
	.byte	0x9f
	.byte	0x4
	.uleb128 .LVL227-.LVL79
	.uleb128 .LVL228-.LVL79
	.uleb128 0x3
	.byte	0x77
	.sleb128 224
	.byte	0x4
	.uleb128 .LVL235-.LVL79
	.uleb128 .LVL236-.LVL79
	.uleb128 0xf
	.byte	0x77
	.sleb128 120
	.byte	0x6
	.byte	0x77
	.sleb128 208
	.byte	0x6
	.byte	0x1e
	.byte	0x77
	.sleb128 184
	.byte	0x6
	.byte	0x22
	.byte	0x9f
	.byte	0
.LVUS336:
	.uleb128 .LVU368
	.uleb128 .LVU373
	.uleb128 .LVU373
	.uleb128 .LVU377
	.uleb128 .LVU377
	.uleb128 .LVU380
	.uleb128 .LVU1207
	.uleb128 .LVU1211
	.uleb128 .LVU1223
	.uleb128 .LVU1224
.LLST336:
	.byte	0x6
	.quad	.LVL79
	.byte	0x4
	.uleb128 .LVL79-.LVL79
	.uleb128 .LVL80-.LVL79
	.uleb128 0x3
	.byte	0x77
	.sleb128 224
	.byte	0x4
	.uleb128 .LVL80-.LVL79
	.uleb128 .LVL81-.LVL79
	.uleb128 0xa
	.byte	0x77
	.sleb128 184
	.byte	0x6
	.byte	0x77
	.sleb128 80
	.byte	0x6
	.byte	0x22
	.byte	0x9f
	.byte	0x4
	.uleb128 .LVL81-.LVL79
	.uleb128 .LVL83-.LVL79
	.uleb128 0xf
	.byte	0x77
	.sleb128 120
	.byte	0x6
	.byte	0x77
	.sleb128 208
	.byte	0x6
	.byte	0x1e
	.byte	0x77
	.sleb128 184
	.byte	0x6
	.byte	0x22
	.byte	0x9f
	.byte	0x4
	.uleb128 .LVL227-.LVL79
	.uleb128 .LVL228-.LVL79
	.uleb128 0x3
	.byte	0x77
	.sleb128 224
	.byte	0x4
	.uleb128 .LVL235-.LVL79
	.uleb128 .LVL236-.LVL79
	.uleb128 0xf
	.byte	0x77
	.sleb128 120
	.byte	0x6
	.byte	0x77
	.sleb128 208
	.byte	0x6
	.byte	0x1e
	.byte	0x77
	.sleb128 184
	.byte	0x6
	.byte	0x22
	.byte	0x9f
	.byte	0
.LVUS338:
	.uleb128 .LVU370
	.uleb128 .LVU373
	.uleb128 .LVU373
	.uleb128 .LVU377
	.uleb128 .LVU377
	.uleb128 .LVU380
	.uleb128 .LVU1209
	.uleb128 .LVU1211
	.uleb128 .LVU1223
	.uleb128 .LVU1224
.LLST338:
	.byte	0x6
	.quad	.LVL79
	.byte	0x4
	.uleb128 .LVL79-.LVL79
	.uleb128 .LVL80-.LVL79
	.uleb128 0x3
	.byte	0x77
	.sleb128 224
	.byte	0x4
	.uleb128 .LVL80-.LVL79
	.uleb128 .LVL81-.LVL79
	.uleb128 0xa
	.byte	0x77
	.sleb128 184
	.byte	0x6
	.byte	0x77
	.sleb128 80
	.byte	0x6
	.byte	0x22
	.byte	0x9f
	.byte	0x4
	.uleb128 .LVL81-.LVL79
	.uleb128 .LVL83-.LVL79
	.uleb128 0xf
	.byte	0x77
	.sleb128 120
	.byte	0x6
	.byte	0x77
	.sleb128 208
	.byte	0x6
	.byte	0x1e
	.byte	0x77
	.sleb128 184
	.byte	0x6
	.byte	0x22
	.byte	0x9f
	.byte	0x4
	.uleb128 .LVL227-.LVL79
	.uleb128 .LVL228-.LVL79
	.uleb128 0x3
	.byte	0x77
	.sleb128 224
	.byte	0x4
	.uleb128 .LVL235-.LVL79
	.uleb128 .LVL236-.LVL79
	.uleb128 0xf
	.byte	0x77
	.sleb128 120
	.byte	0x6
	.byte	0x77
	.sleb128 208
	.byte	0x6
	.byte	0x1e
	.byte	0x77
	.sleb128 184
	.byte	0x6
	.byte	0x22
	.byte	0x9f
	.byte	0
.LVUS340:
	.uleb128 .LVU373
	.uleb128 .LVU377
	.uleb128 .LVU377
	.uleb128 .LVU380
	.uleb128 .LVU1223
	.uleb128 .LVU1224
.LLST340:
	.byte	0x6
	.quad	.LVL80
	.byte	0x4
	.uleb128 .LVL80-.LVL80
	.uleb128 .LVL81-.LVL80
	.uleb128 0xa
	.byte	0x77
	.sleb128 184
	.byte	0x6
	.byte	0x77
	.sleb128 80
	.byte	0x6
	.byte	0x22
	.byte	0x9f
	.byte	0x4
	.uleb128 .LVL81-.LVL80
	.uleb128 .LVL83-.LVL80
	.uleb128 0xf
	.byte	0x77
	.sleb128 120
	.byte	0x6
	.byte	0x77
	.sleb128 208
	.byte	0x6
	.byte	0x1e
	.byte	0x77
	.sleb128 184
	.byte	0x6
	.byte	0x22
	.byte	0x9f
	.byte	0x4
	.uleb128 .LVL235-.LVL80
	.uleb128 .LVL236-.LVL80
	.uleb128 0xf
	.byte	0x77
	.sleb128 120
	.byte	0x6
	.byte	0x77
	.sleb128 208
	.byte	0x6
	.byte	0x1e
	.byte	0x77
	.sleb128 184
	.byte	0x6
	.byte	0x22
	.byte	0x9f
	.byte	0
.LVUS342:
	.uleb128 .LVU376
	.uleb128 .LVU380
	.uleb128 .LVU1223
	.uleb128 .LVU1224
.LLST342:
	.byte	0x6
	.quad	.LVL80
	.byte	0x4
	.uleb128 .LVL80-.LVL80
	.uleb128 .LVL83-.LVL80
	.uleb128 0x2
	.byte	0x30
	.byte	0x9f
	.byte	0x4
	.uleb128 .LVL235-.LVL80
	.uleb128 .LVL236-.LVL80
	.uleb128 0x2
	.byte	0x30
	.byte	0x9f
	.byte	0
.LVUS343:
	.uleb128 .LVU375
	.uleb128 .LVU377
	.uleb128 .LVU377
	.uleb128 .LVU380
	.uleb128 .LVU1223
	.uleb128 .LVU1224
.LLST343:
	.byte	0x6
	.quad	.LVL80
	.byte	0x4
	.uleb128 .LVL80-.LVL80
	.uleb128 .LVL81-.LVL80
	.uleb128 0xa
	.byte	0x77
	.sleb128 184
	.byte	0x6
	.byte	0x77
	.sleb128 80
	.byte	0x6
	.byte	0x22
	.byte	0x9f
	.byte	0x4
	.uleb128 .LVL81-.LVL80
	.uleb128 .LVL83-.LVL80
	.uleb128 0xf
	.byte	0x77
	.sleb128 120
	.byte	0x6
	.byte	0x77
	.sleb128 208
	.byte	0x6
	.byte	0x1e
	.byte	0x77
	.sleb128 184
	.byte	0x6
	.byte	0x22
	.byte	0x9f
	.byte	0x4
	.uleb128 .LVL235-.LVL80
	.uleb128 .LVL236-.LVL80
	.uleb128 0xf
	.byte	0x77
	.sleb128 120
	.byte	0x6
	.byte	0x77
	.sleb128 208
	.byte	0x6
	.byte	0x1e
	.byte	0x77
	.sleb128 184
	.byte	0x6
	.byte	0x22
	.byte	0x9f
	.byte	0
.LVUS345:
	.uleb128 .LVU380
	.uleb128 .LVU393
.LLST345:
	.byte	0x8
	.quad	.LVL83
	.uleb128 .LVL85-.LVL83
	.uleb128 0xf
	.byte	0x77
	.sleb128 120
	.byte	0x6
	.byte	0x77
	.sleb128 208
	.byte	0x6
	.byte	0x1e
	.byte	0x77
	.sleb128 184
	.byte	0x6
	.byte	0x22
	.byte	0x9f
	.byte	0
.LVUS347:
	.uleb128 .LVU382
	.uleb128 .LVU390
.LLST347:
	.byte	0x8
	.quad	.LVL83
	.uleb128 .LVL84-1-.LVL83
	.uleb128 0x1
	.byte	0x50
	.byte	0
.LVUS348:
	.uleb128 .LVU382
	.uleb128 .LVU393
.LLST348:
	.byte	0x8
	.quad	.LVL83
	.uleb128 .LVL85-.LVL83
	.uleb128 0xf
	.byte	0x77
	.sleb128 120
	.byte	0x6
	.byte	0x77
	.sleb128 208
	.byte	0x6
	.byte	0x1e
	.byte	0x77
	.sleb128 184
	.byte	0x6
	.byte	0x22
	.byte	0x9f
	.byte	0
.LVUS350:
	.uleb128 .LVU383
	.uleb128 .LVU390
.LLST350:
	.byte	0x8
	.quad	.LVL83
	.uleb128 .LVL84-1-.LVL83
	.uleb128 0x1
	.byte	0x50
	.byte	0
.LVUS351:
	.uleb128 .LVU383
	.uleb128 .LVU393
.LLST351:
	.byte	0x8
	.quad	.LVL83
	.uleb128 .LVL85-.LVL83
	.uleb128 0xf
	.byte	0x77
	.sleb128 120
	.byte	0x6
	.byte	0x77
	.sleb128 208
	.byte	0x6
	.byte	0x1e
	.byte	0x77
	.sleb128 184
	.byte	0x6
	.byte	0x22
	.byte	0x9f
	.byte	0
.LVUS354:
	.uleb128 .LVU384
	.uleb128 .LVU390
.LLST354:
	.byte	0x8
	.quad	.LVL83
	.uleb128 .LVL84-1-.LVL83
	.uleb128 0x1
	.byte	0x50
	.byte	0
.LVUS355:
	.uleb128 .LVU384
	.uleb128 .LVU389
	.uleb128 .LVU389
	.uleb128 .LVU393
.LLST355:
	.byte	0x6
	.quad	.LVL83
	.byte	0x4
	.uleb128 .LVL83-.LVL83
	.uleb128 .LVL83-.LVL83
	.uleb128 0xf
	.byte	0x77
	.sleb128 120
	.byte	0x6
	.byte	0x77
	.sleb128 208
	.byte	0x6
	.byte	0x1e
	.byte	0x77
	.sleb128 184
	.byte	0x6
	.byte	0x22
	.byte	0x9f
	.byte	0x4
	.uleb128 .LVL83-.LVL83
	.uleb128 .LVL85-.LVL83
	.uleb128 0x11
	.byte	0x77
	.sleb128 120
	.byte	0x6
	.byte	0x77
	.sleb128 208
	.byte	0x6
	.byte	0x1e
	.byte	0x77
	.sleb128 184
	.byte	0x6
	.byte	0x22
	.byte	0x31
	.byte	0x1c
	.byte	0x9f
	.byte	0
.LVUS358:
	.uleb128 .LVU385
	.uleb128 .LVU386
.LLST358:
	.byte	0x8
	.quad	.LVL83
	.uleb128 .LVL83-.LVL83
	.uleb128 0x6
	.byte	0xa0
	.long	.Ldebug_info0+63764
	.sleb128 0
	.byte	0
.LVUS359:
	.uleb128 .LVU385
	.uleb128 .LVU386
.LLST359:
	.byte	0x8
	.quad	.LVL83
	.uleb128 .LVL83-.LVL83
	.uleb128 0x6
	.byte	0xa0
	.long	.Ldebug_info0+63733
	.sleb128 0
	.byte	0
.LVUS441:
	.uleb128 .LVU935
	.uleb128 .LVU951
.LLST441:
	.byte	0x8
	.quad	.LVL172
	.uleb128 .LVL174-.LVL172
	.uleb128 0x7
	.byte	0x77
	.sleb128 80
	.byte	0x6
	.byte	0x34
	.byte	0x1b
	.byte	0x9f
	.byte	0
.LVUS442:
	.uleb128 .LVU935
	.uleb128 .LVU940
.LLST442:
	.byte	0x8
	.quad	.LVL172
	.uleb128 .LVL174-1-.LVL172
	.uleb128 0x1
	.byte	0x55
	.byte	0
.LVUS443:
	.uleb128 .LVU935
	.uleb128 .LVU940
.LLST443:
	.byte	0x8
	.quad	.LVL172
	.uleb128 .LVL174-.LVL172
	.uleb128 0x7
	.byte	0x77
	.sleb128 80
	.byte	0x6
	.byte	0x34
	.byte	0x1b
	.byte	0x9f
	.byte	0
.LVUS444:
	.uleb128 .LVU937
	.uleb128 .LVU940
.LLST444:
	.byte	0x8
	.quad	.LVL173
	.uleb128 .LVL174-1-.LVL173
	.uleb128 0x1
	.byte	0x55
	.byte	0
.LVUS445:
	.uleb128 .LVU937
	.uleb128 .LVU940
.LLST445:
	.byte	0x8
	.quad	.LVL173
	.uleb128 .LVL174-.LVL173
	.uleb128 0x7
	.byte	0x77
	.sleb128 80
	.byte	0x6
	.byte	0x34
	.byte	0x1b
	.byte	0x9f
	.byte	0
.LVUS446:
	.uleb128 .LVU938
	.uleb128 .LVU940
.LLST446:
	.byte	0x8
	.quad	.LVL173
	.uleb128 .LVL174-1-.LVL173
	.uleb128 0x1
	.byte	0x55
	.byte	0
.LVUS447:
	.uleb128 .LVU938
	.uleb128 .LVU940
.LLST447:
	.byte	0x8
	.quad	.LVL173
	.uleb128 .LVL174-.LVL173
	.uleb128 0x7
	.byte	0x77
	.sleb128 80
	.byte	0x6
	.byte	0x34
	.byte	0x1b
	.byte	0x9f
	.byte	0
.LVUS448:
	.uleb128 .LVU951
	.uleb128 .LVU956
.LLST448:
	.byte	0x8
	.quad	.LVL174
	.uleb128 .LVL176-.LVL174
	.uleb128 0x1
	.byte	0x53
	.byte	0
.LVUS449:
	.uleb128 .LVU953
	.uleb128 .LVU956
.LLST449:
	.byte	0x8
	.quad	.LVL175
	.uleb128 .LVL176-.LVL175
	.uleb128 0x1
	.byte	0x53
	.byte	0
.LVUS450:
	.uleb128 .LVU954
	.uleb128 .LVU956
.LLST450:
	.byte	0x8
	.quad	.LVL175
	.uleb128 .LVL176-.LVL175
	.uleb128 0x1
	.byte	0x53
	.byte	0
.LVUS451:
	.uleb128 .LVU967
	.uleb128 .LVU972
.LLST451:
	.byte	0x8
	.quad	.LVL176
	.uleb128 .LVL178-.LVL176
	.uleb128 0x3
	.byte	0x77
	.sleb128 88
	.byte	0
.LVUS452:
	.uleb128 .LVU969
	.uleb128 .LVU972
.LLST452:
	.byte	0x8
	.quad	.LVL177
	.uleb128 .LVL178-.LVL177
	.uleb128 0x3
	.byte	0x77
	.sleb128 88
	.byte	0
.LVUS453:
	.uleb128 .LVU970
	.uleb128 .LVU972
.LLST453:
	.byte	0x8
	.quad	.LVL177
	.uleb128 .LVL178-.LVL177
	.uleb128 0x3
	.byte	0x77
	.sleb128 88
	.byte	0
.LVUS456:
	.uleb128 .LVU1236
	.uleb128 .LVU1245
.LLST456:
	.byte	0x8
	.quad	.LVL239
	.uleb128 .LVL241-.LVL239
	.uleb128 0x6
	.byte	0x77
	.sleb128 48
	.byte	0x6
	.byte	0x34
	.byte	0x1b
	.byte	0x9f
	.byte	0
.LVUS457:
	.uleb128 .LVU1236
	.uleb128 .LVU1241
.LLST457:
	.byte	0x8
	.quad	.LVL239
	.uleb128 .LVL241-.LVL239
	.uleb128 0x3
	.byte	0x77
	.sleb128 88
	.byte	0
.LVUS458:
	.uleb128 .LVU1236
	.uleb128 .LVU1241
.LLST458:
	.byte	0x8
	.quad	.LVL239
	.uleb128 .LVL241-.LVL239
	.uleb128 0x6
	.byte	0x77
	.sleb128 48
	.byte	0x6
	.byte	0x34
	.byte	0x1b
	.byte	0x9f
	.byte	0
.LVUS459:
	.uleb128 .LVU1238
	.uleb128 .LVU1241
.LLST459:
	.byte	0x8
	.quad	.LVL240
	.uleb128 .LVL241-.LVL240
	.uleb128 0x3
	.byte	0x77
	.sleb128 88
	.byte	0
.LVUS460:
	.uleb128 .LVU1238
	.uleb128 .LVU1241
.LLST460:
	.byte	0x8
	.quad	.LVL240
	.uleb128 .LVL241-.LVL240
	.uleb128 0x6
	.byte	0x77
	.sleb128 48
	.byte	0x6
	.byte	0x34
	.byte	0x1b
	.byte	0x9f
	.byte	0
.LVUS461:
	.uleb128 .LVU1239
	.uleb128 .LVU1241
.LLST461:
	.byte	0x8
	.quad	.LVL240
	.uleb128 .LVL241-.LVL240
	.uleb128 0x3
	.byte	0x77
	.sleb128 88
	.byte	0
.LVUS462:
	.uleb128 .LVU1239
	.uleb128 .LVU1241
.LLST462:
	.byte	0x8
	.quad	.LVL240
	.uleb128 .LVL241-.LVL240
	.uleb128 0x6
	.byte	0x77
	.sleb128 48
	.byte	0x6
	.byte	0x34
	.byte	0x1b
	.byte	0x9f
	.byte	0
.LVUS464:
	.uleb128 .LVU1245
	.uleb128 .LVU1263
.LLST464:
	.byte	0x8
	.quad	.LVL241
	.uleb128 .LVL243-.LVL241
	.uleb128 0x6
	.byte	0xa0
	.long	.Ldebug_info0+51684
	.sleb128 0
	.byte	0
.LVUS465:
	.uleb128 .LVU1247
	.uleb128 .LVU1248
.LLST465:
	.byte	0x8
	.quad	.LVL241
	.uleb128 .LVL241-.LVL241
	.uleb128 0x6
	.byte	0xa0
	.long	.Ldebug_info0+51684
	.sleb128 0
	.byte	0
.LVUS466:
	.uleb128 .LVU1248
	.uleb128 .LVU1250
.LLST466:
	.byte	0x8
	.quad	.LVL241
	.uleb128 .LVL241-.LVL241
	.uleb128 0x6
	.byte	0xa0
	.long	.Ldebug_info0+51684
	.sleb128 0
	.byte	0
.LVUS468:
	.uleb128 .LVU1250
	.uleb128 .LVU1263
.LLST468:
	.byte	0x8
	.quad	.LVL241
	.uleb128 .LVL243-.LVL241
	.uleb128 0x6
	.byte	0xa0
	.long	.Ldebug_info0+51684
	.sleb128 0
	.byte	0
.LVUS471:
	.uleb128 .LVU1252
	.uleb128 .LVU1259
.LLST471:
	.byte	0x8
	.quad	.LVL241
	.uleb128 .LVL243-.LVL241
	.uleb128 0x6
	.byte	0xa0
	.long	.Ldebug_info0+51684
	.sleb128 0
	.byte	0
.LVUS472:
	.uleb128 .LVU1252
	.uleb128 .LVU1259
.LLST472:
	.byte	0x8
	.quad	.LVL241
	.uleb128 .LVL243-.LVL241
	.uleb128 0x3
	.byte	0x77
	.sleb128 112
	.byte	0
.LVUS474:
	.uleb128 .LVU1255
	.uleb128 .LVU1259
.LLST474:
	.byte	0x8
	.quad	.LVL242
	.uleb128 .LVL243-.LVL242
	.uleb128 0x6
	.byte	0xa0
	.long	.Ldebug_info0+51684
	.sleb128 0
	.byte	0
.LVUS475:
	.uleb128 .LVU1254
	.uleb128 .LVU1259
.LLST475:
	.byte	0x8
	.quad	.LVL242
	.uleb128 .LVL243-.LVL242
	.uleb128 0x3
	.byte	0x77
	.sleb128 112
	.byte	0
.LVUS477:
	.uleb128 .LVU1255
	.uleb128 .LVU1259
.LLST477:
	.byte	0x8
	.quad	.LVL242
	.uleb128 .LVL243-.LVL242
	.uleb128 0x3
	.byte	0x77
	.sleb128 112
	.byte	0
.LVUS479:
	.uleb128 .LVU1256
	.uleb128 .LVU1259
.LLST479:
	.byte	0x8
	.quad	.LVL242
	.uleb128 .LVL243-.LVL242
	.uleb128 0x3
	.byte	0x77
	.sleb128 112
	.byte	0
.LVUS480:
	.uleb128 .LVU1259
	.uleb128 .LVU1263
.LLST480:
	.byte	0x8
	.quad	.LVL243
	.uleb128 .LVL243-.LVL243
	.uleb128 0x6
	.byte	0xa0
	.long	.Ldebug_info0+51684
	.sleb128 0
	.byte	0
.LVUS481:
	.uleb128 .LVU1261
	.uleb128 .LVU1263
.LLST481:
	.byte	0x8
	.quad	.LVL243
	.uleb128 .LVL243-.LVL243
	.uleb128 0x6
	.byte	0xa0
	.long	.Ldebug_info0+51684
	.sleb128 0
	.byte	0
.LVUS482:
	.uleb128 .LVU1262
	.uleb128 .LVU1263
.LLST482:
	.byte	0x8
	.quad	.LVL243
	.uleb128 .LVL243-.LVL243
	.uleb128 0x6
	.byte	0xa0
	.long	.Ldebug_info0+51684
	.sleb128 0
	.byte	0
.LVUS484:
	.uleb128 .LVU1263
	.uleb128 .LVU1282
.LLST484:
	.byte	0x8
	.quad	.LVL243
	.uleb128 .LVL246-.LVL243
	.uleb128 0x3
	.byte	0x77
	.sleb128 72
	.byte	0
.LVUS485:
	.uleb128 .LVU1265
	.uleb128 .LVU1282
.LLST485:
	.byte	0x8
	.quad	.LVL243
	.uleb128 .LVL246-.LVL243
	.uleb128 0x7
	.byte	0x77
	.sleb128 72
	.byte	0x6
	.byte	0x23
	.uleb128 0x10
	.byte	0x9f
	.byte	0
.LVUS486:
	.uleb128 .LVU1266
	.uleb128 .LVU1267
.LLST486:
	.byte	0x8
	.quad	.LVL243
	.uleb128 .LVL243-.LVL243
	.uleb128 0x7
	.byte	0x77
	.sleb128 72
	.byte	0x6
	.byte	0x23
	.uleb128 0x10
	.byte	0x9f
	.byte	0
.LVUS487:
	.uleb128 .LVU1267
	.uleb128 .LVU1269
.LLST487:
	.byte	0x8
	.quad	.LVL243
	.uleb128 .LVL243-.LVL243
	.uleb128 0x6
	.byte	0x77
	.sleb128 72
	.byte	0x6
	.byte	0x23
	.uleb128 0x10
	.byte	0
.LVUS488:
	.uleb128 .LVU1267
	.uleb128 .LVU1269
.LLST488:
	.byte	0x8
	.quad	.LVL243
	.uleb128 .LVL243-.LVL243
	.uleb128 0x6
	.byte	0x77
	.sleb128 72
	.byte	0x6
	.byte	0x23
	.uleb128 0x18
	.byte	0
.LVUS489:
	.uleb128 .LVU1267
	.uleb128 .LVU1269
.LLST489:
	.byte	0x8
	.quad	.LVL243
	.uleb128 .LVL243-.LVL243
	.uleb128 0x7
	.byte	0x77
	.sleb128 72
	.byte	0x6
	.byte	0x23
	.uleb128 0x10
	.byte	0x9f
	.byte	0
.LVUS491:
	.uleb128 .LVU1269
	.uleb128 .LVU1282
.LLST491:
	.byte	0x8
	.quad	.LVL243
	.uleb128 .LVL246-.LVL243
	.uleb128 0x7
	.byte	0x77
	.sleb128 72
	.byte	0x6
	.byte	0x23
	.uleb128 0x10
	.byte	0x9f
	.byte	0
.LVUS493:
	.uleb128 .LVU1272
	.uleb128 .LVU1278
.LLST493:
	.byte	0x8
	.quad	.LVL244
	.uleb128 .LVL246-1-.LVL244
	.uleb128 0xb
	.byte	0x77
	.sleb128 72
	.byte	0x6
	.byte	0x23
	.uleb128 0x20
	.byte	0x6
	.byte	0x75
	.sleb128 0
	.byte	0x1c
	.byte	0x9f
	.byte	0
.LVUS495:
	.uleb128 .LVU1272
	.uleb128 .LVU1278
.LLST495:
	.byte	0x8
	.quad	.LVL244
	.uleb128 .LVL246-.LVL244
	.uleb128 0x7
	.byte	0x77
	.sleb128 72
	.byte	0x6
	.byte	0x23
	.uleb128 0x10
	.byte	0x9f
	.byte	0
.LVUS496:
	.uleb128 .LVU1272
	.uleb128 .LVU1278
.LLST496:
	.byte	0x8
	.quad	.LVL244
	.uleb128 .LVL246-1-.LVL244
	.uleb128 0x1
	.byte	0x55
	.byte	0
.LVUS499:
	.uleb128 .LVU1274
	.uleb128 .LVU1278
.LLST499:
	.byte	0x8
	.quad	.LVL245
	.uleb128 .LVL246-.LVL245
	.uleb128 0x7
	.byte	0x77
	.sleb128 72
	.byte	0x6
	.byte	0x23
	.uleb128 0x10
	.byte	0x9f
	.byte	0
.LVUS500:
	.uleb128 .LVU1274
	.uleb128 .LVU1278
.LLST500:
	.byte	0x8
	.quad	.LVL245
	.uleb128 .LVL246-1-.LVL245
	.uleb128 0x1
	.byte	0x55
	.byte	0
.LVUS501:
	.uleb128 .LVU1274
	.uleb128 .LVU1278
.LLST501:
	.byte	0x8
	.quad	.LVL245
	.uleb128 .LVL246-1-.LVL245
	.uleb128 0xb
	.byte	0x77
	.sleb128 72
	.byte	0x6
	.byte	0x23
	.uleb128 0x20
	.byte	0x6
	.byte	0x75
	.sleb128 0
	.byte	0x1c
	.byte	0x9f
	.byte	0
.LVUS502:
	.uleb128 .LVU1275
	.uleb128 .LVU1278
.LLST502:
	.byte	0x8
	.quad	.LVL245
	.uleb128 .LVL246-.LVL245
	.uleb128 0x7
	.byte	0x77
	.sleb128 72
	.byte	0x6
	.byte	0x23
	.uleb128 0x10
	.byte	0x9f
	.byte	0
.LVUS503:
	.uleb128 .LVU1275
	.uleb128 .LVU1278
.LLST503:
	.byte	0x8
	.quad	.LVL245
	.uleb128 .LVL246-1-.LVL245
	.uleb128 0x1
	.byte	0x55
	.byte	0
.LVUS504:
	.uleb128 .LVU1275
	.uleb128 .LVU1278
.LLST504:
	.byte	0x8
	.quad	.LVL245
	.uleb128 .LVL246-1-.LVL245
	.uleb128 0xb
	.byte	0x77
	.sleb128 72
	.byte	0x6
	.byte	0x23
	.uleb128 0x20
	.byte	0x6
	.byte	0x75
	.sleb128 0
	.byte	0x1c
	.byte	0x9f
	.byte	0
.LVUS505:
	.uleb128 .LVU1278
	.uleb128 .LVU1282
.LLST505:
	.byte	0x8
	.quad	.LVL246
	.uleb128 .LVL246-.LVL246
	.uleb128 0x7
	.byte	0x77
	.sleb128 72
	.byte	0x6
	.byte	0x23
	.uleb128 0x10
	.byte	0x9f
	.byte	0
.LVUS506:
	.uleb128 .LVU1280
	.uleb128 .LVU1282
.LLST506:
	.byte	0x8
	.quad	.LVL246
	.uleb128 .LVL246-.LVL246
	.uleb128 0x7
	.byte	0x77
	.sleb128 72
	.byte	0x6
	.byte	0x23
	.uleb128 0x10
	.byte	0x9f
	.byte	0
.LVUS507:
	.uleb128 .LVU1281
	.uleb128 .LVU1282
.LLST507:
	.byte	0x8
	.quad	.LVL246
	.uleb128 .LVL246-.LVL246
	.uleb128 0x7
	.byte	0x77
	.sleb128 72
	.byte	0x6
	.byte	0x23
	.uleb128 0x10
	.byte	0x9f
	.byte	0
.LVUS510:
	.uleb128 .LVU1291
	.uleb128 .LVU1303
.LLST510:
	.byte	0x8
	.quad	.LVL248
	.uleb128 .LVL253-.LVL248
	.uleb128 0x7
	.byte	0x77
	.sleb128 64
	.byte	0x6
	.byte	0x34
	.byte	0x1b
	.byte	0x9f
	.byte	0
.LVUS511:
	.uleb128 .LVU1291
	.uleb128 .LVU1293
	.uleb128 .LVU1298
	.uleb128 .LVU1303
.LLST511:
	.byte	0x6
	.quad	.LVL248
	.byte	0x4
	.uleb128 .LVL248-.LVL248
	.uleb128 .LVL249-.LVL248
	.uleb128 0x1
	.byte	0x53
	.byte	0x4
	.uleb128 .LVL250-.LVL248
	.uleb128 .LVL253-.LVL248
	.uleb128 0x1
	.byte	0x53
	.byte	0
.LVUS512:
	.uleb128 .LVU1291
	.uleb128 .LVU1293
	.uleb128 .LVU1298
	.uleb128 .LVU1303
.LLST512:
	.byte	0x6
	.quad	.LVL248
	.byte	0x4
	.uleb128 .LVL248-.LVL248
	.uleb128 .LVL249-.LVL248
	.uleb128 0x7
	.byte	0x77
	.sleb128 64
	.byte	0x6
	.byte	0x34
	.byte	0x1b
	.byte	0x9f
	.byte	0x4
	.uleb128 .LVL250-.LVL248
	.uleb128 .LVL253-.LVL248
	.uleb128 0x7
	.byte	0x77
	.sleb128 64
	.byte	0x6
	.byte	0x34
	.byte	0x1b
	.byte	0x9f
	.byte	0
.LVUS513:
	.uleb128 .LVU1298
	.uleb128 .LVU1302
.LLST513:
	.byte	0x8
	.quad	.LVL250
	.uleb128 .LVL252-.LVL250
	.uleb128 0x1
	.byte	0x53
	.byte	0
.LVUS514:
	.uleb128 .LVU1298
	.uleb128 .LVU1302
.LLST514:
	.byte	0x8
	.quad	.LVL250
	.uleb128 .LVL252-.LVL250
	.uleb128 0x7
	.byte	0x77
	.sleb128 64
	.byte	0x6
	.byte	0x34
	.byte	0x1b
	.byte	0x9f
	.byte	0
.LVUS515:
	.uleb128 .LVU1300
	.uleb128 .LVU1302
.LLST515:
	.byte	0x8
	.quad	.LVL250
	.uleb128 .LVL252-.LVL250
	.uleb128 0x1
	.byte	0x53
	.byte	0
.LVUS516:
	.uleb128 .LVU1300
	.uleb128 .LVU1302
.LLST516:
	.byte	0x8
	.quad	.LVL250
	.uleb128 .LVL252-.LVL250
	.uleb128 0x7
	.byte	0x77
	.sleb128 64
	.byte	0x6
	.byte	0x34
	.byte	0x1b
	.byte	0x9f
	.byte	0
.Ldebug_loc3:
	.section	.debug_aranges,"",@progbits
	.long	0x3c
	.value	0x2
	.long	.Ldebug_info0
	.byte	0x8
	.byte	0
	.value	0
	.value	0
	.quad	.Ltext0
	.quad	.Letext0-.Ltext0
	.quad	.Ltext_cold0
	.quad	.Letext_cold0-.Ltext_cold0
	.quad	0
	.quad	0
	.section	.debug_rnglists,"",@progbits
.Ldebug_ranges0:
	.long	.Ldebug_ranges3-.Ldebug_ranges2
.Ldebug_ranges2:
	.value	0x5
	.byte	0x8
	.byte	0
	.long	0
.LLRL0:
	.byte	0x7
	.quad	.LFB11707
	.uleb128 .LHOTE4-.LFB11707
	.byte	0x7
	.quad	.LFSB11707
	.uleb128 .LCOLDE4-.LFSB11707
	.byte	0
.LLRL5:
	.byte	0x5
	.quad	.LBB2006
	.byte	0x4
	.uleb128 .LBB2006-.LBB2006
	.uleb128 .LBE2006-.LBB2006
	.byte	0x4
	.uleb128 .LBB2030-.LBB2006
	.uleb128 .LBE2030-.LBB2006
	.byte	0x4
	.uleb128 .LBB2034-.LBB2006
	.uleb128 .LBE2034-.LBB2006
	.byte	0
.LLRL6:
	.byte	0x5
	.quad	.LBB2010
	.byte	0x4
	.uleb128 .LBB2010-.LBB2010
	.uleb128 .LBE2010-.LBB2010
	.byte	0x4
	.uleb128 .LBB2013-.LBB2010
	.uleb128 .LBE2013-.LBB2010
	.byte	0x4
	.uleb128 .LBB2016-.LBB2010
	.uleb128 .LBE2016-.LBB2010
	.byte	0
.LLRL7:
	.byte	0x5
	.quad	.LBB2023
	.byte	0x4
	.uleb128 .LBB2023-.LBB2023
	.uleb128 .LBE2023-.LBB2023
	.byte	0x4
	.uleb128 .LBB2029-.LBB2023
	.uleb128 .LBE2029-.LBB2023
	.byte	0
.LLRL14:
	.byte	0x5
	.quad	.LBB2035
	.byte	0x4
	.uleb128 .LBB2035-.LBB2035
	.uleb128 .LBE2035-.LBB2035
	.byte	0x4
	.uleb128 .LBB2793-.LBB2035
	.uleb128 .LBE2793-.LBB2035
	.byte	0x4
	.uleb128 .LBB2795-.LBB2035
	.uleb128 .LBE2795-.LBB2035
	.byte	0x7
	.quad	.LBB2901
	.uleb128 .LBE2901-.LBB2901
	.byte	0
.LLRL21:
	.byte	0x5
	.quad	.LBB2039
	.byte	0x4
	.uleb128 .LBB2039-.LBB2039
	.uleb128 .LBE2039-.LBB2039
	.byte	0x4
	.uleb128 .LBB2111-.LBB2039
	.uleb128 .LBE2111-.LBB2039
	.byte	0x7
	.quad	.LBB2112
	.uleb128 .LBE2112-.LBB2112
	.byte	0
.LLRL22:
	.byte	0x5
	.quad	.LBB2040
	.byte	0x4
	.uleb128 .LBB2040-.LBB2040
	.uleb128 .LBE2040-.LBB2040
	.byte	0x4
	.uleb128 .LBB2095-.LBB2040
	.uleb128 .LBE2095-.LBB2040
	.byte	0x7
	.quad	.LBB2110
	.uleb128 .LBE2110-.LBB2110
	.byte	0
.LLRL27:
	.byte	0x7
	.quad	.LBB2041
	.uleb128 .LBE2041-.LBB2041
	.byte	0x7
	.quad	.LBB2094
	.uleb128 .LBE2094-.LBB2094
	.byte	0
.LLRL32:
	.byte	0x5
	.quad	.LBB2048
	.byte	0x4
	.uleb128 .LBB2048-.LBB2048
	.uleb128 .LBE2048-.LBB2048
	.byte	0x4
	.uleb128 .LBB2089-.LBB2048
	.uleb128 .LBE2089-.LBB2048
	.byte	0x4
	.uleb128 .LBB2091-.LBB2048
	.uleb128 .LBE2091-.LBB2048
	.byte	0
.LLRL36:
	.byte	0x5
	.quad	.LBB2049
	.byte	0x4
	.uleb128 .LBB2049-.LBB2049
	.uleb128 .LBE2049-.LBB2049
	.byte	0x4
	.uleb128 .LBB2068-.LBB2049
	.uleb128 .LBE2068-.LBB2049
	.byte	0x4
	.uleb128 .LBB2069-.LBB2049
	.uleb128 .LBE2069-.LBB2049
	.byte	0x4
	.uleb128 .LBB2070-.LBB2049
	.uleb128 .LBE2070-.LBB2049
	.byte	0
.LLRL39:
	.byte	0x5
	.quad	.LBB2051
	.byte	0x4
	.uleb128 .LBB2051-.LBB2051
	.uleb128 .LBE2051-.LBB2051
	.byte	0x4
	.uleb128 .LBB2060-.LBB2051
	.uleb128 .LBE2060-.LBB2051
	.byte	0
.LLRL42:
	.byte	0x5
	.quad	.LBB2053
	.byte	0x4
	.uleb128 .LBB2053-.LBB2053
	.uleb128 .LBE2053-.LBB2053
	.byte	0x4
	.uleb128 .LBB2058-.LBB2053
	.uleb128 .LBE2058-.LBB2053
	.byte	0
.LLRL45:
	.byte	0x5
	.quad	.LBB2054
	.byte	0x4
	.uleb128 .LBB2054-.LBB2054
	.uleb128 .LBE2054-.LBB2054
	.byte	0x4
	.uleb128 .LBB2057-.LBB2054
	.uleb128 .LBE2057-.LBB2054
	.byte	0
.LLRL56:
	.byte	0x5
	.quad	.LBB2071
	.byte	0x4
	.uleb128 .LBB2071-.LBB2071
	.uleb128 .LBE2071-.LBB2071
	.byte	0x4
	.uleb128 .LBB2090-.LBB2071
	.uleb128 .LBE2090-.LBB2071
	.byte	0x4
	.uleb128 .LBB2092-.LBB2071
	.uleb128 .LBE2092-.LBB2071
	.byte	0x4
	.uleb128 .LBB2093-.LBB2071
	.uleb128 .LBE2093-.LBB2071
	.byte	0
.LLRL67:
	.byte	0x5
	.quad	.LBB2075
	.byte	0x4
	.uleb128 .LBB2075-.LBB2075
	.uleb128 .LBE2075-.LBB2075
	.byte	0x4
	.uleb128 .LBB2079-.LBB2075
	.uleb128 .LBE2079-.LBB2075
	.byte	0x4
	.uleb128 .LBB2080-.LBB2075
	.uleb128 .LBE2080-.LBB2075
	.byte	0
.LLRL68:
	.byte	0x5
	.quad	.LBB2076
	.byte	0x4
	.uleb128 .LBB2076-.LBB2076
	.uleb128 .LBE2076-.LBB2076
	.byte	0x4
	.uleb128 .LBB2077-.LBB2076
	.uleb128 .LBE2077-.LBB2076
	.byte	0x4
	.uleb128 .LBB2078-.LBB2076
	.uleb128 .LBE2078-.LBB2076
	.byte	0
.LLRL86:
	.byte	0x5
	.quad	.LBB2122
	.byte	0x4
	.uleb128 .LBB2122-.LBB2122
	.uleb128 .LBE2122-.LBB2122
	.byte	0x4
	.uleb128 .LBB2326-.LBB2122
	.uleb128 .LBE2326-.LBB2122
	.byte	0x4
	.uleb128 .LBB2328-.LBB2122
	.uleb128 .LBE2328-.LBB2122
	.byte	0x4
	.uleb128 .LBB2786-.LBB2122
	.uleb128 .LBE2786-.LBB2122
	.byte	0x4
	.uleb128 .LBB2788-.LBB2122
	.uleb128 .LBE2788-.LBB2122
	.byte	0x4
	.uleb128 .LBB2790-.LBB2122
	.uleb128 .LBE2790-.LBB2122
	.byte	0x4
	.uleb128 .LBB2796-.LBB2122
	.uleb128 .LBE2796-.LBB2122
	.byte	0x4
	.uleb128 .LBB2801-.LBB2122
	.uleb128 .LBE2801-.LBB2122
	.byte	0
.LLRL90:
	.byte	0x5
	.quad	.LBB2125
	.byte	0x4
	.uleb128 .LBB2125-.LBB2125
	.uleb128 .LBE2125-.LBB2125
	.byte	0x4
	.uleb128 .LBB2140-.LBB2125
	.uleb128 .LBE2140-.LBB2125
	.byte	0
.LLRL93:
	.byte	0x5
	.quad	.LBB2128
	.byte	0x4
	.uleb128 .LBB2128-.LBB2128
	.uleb128 .LBE2128-.LBB2128
	.byte	0x4
	.uleb128 .LBB2135-.LBB2128
	.uleb128 .LBE2135-.LBB2128
	.byte	0x4
	.uleb128 .LBB2136-.LBB2128
	.uleb128 .LBE2136-.LBB2128
	.byte	0x4
	.uleb128 .LBB2137-.LBB2128
	.uleb128 .LBE2137-.LBB2128
	.byte	0x4
	.uleb128 .LBB2138-.LBB2128
	.uleb128 .LBE2138-.LBB2128
	.byte	0x4
	.uleb128 .LBB2139-.LBB2128
	.uleb128 .LBE2139-.LBB2128
	.byte	0x4
	.uleb128 .LBB2141-.LBB2128
	.uleb128 .LBE2141-.LBB2128
	.byte	0x4
	.uleb128 .LBB2142-.LBB2128
	.uleb128 .LBE2142-.LBB2128
	.byte	0
.LLRL95:
	.byte	0x5
	.quad	.LBB2157
	.byte	0x4
	.uleb128 .LBB2157-.LBB2157
	.uleb128 .LBE2157-.LBB2157
	.byte	0x4
	.uleb128 .LBB2177-.LBB2157
	.uleb128 .LBE2177-.LBB2157
	.byte	0x4
	.uleb128 .LBB2797-.LBB2157
	.uleb128 .LBE2797-.LBB2157
	.byte	0x4
	.uleb128 .LBB2799-.LBB2157
	.uleb128 .LBE2799-.LBB2157
	.byte	0
.LLRL97:
	.byte	0x5
	.quad	.LBB2162
	.byte	0x4
	.uleb128 .LBB2162-.LBB2162
	.uleb128 .LBE2162-.LBB2162
	.byte	0x4
	.uleb128 .LBB2178-.LBB2162
	.uleb128 .LBE2178-.LBB2162
	.byte	0x4
	.uleb128 .LBB2794-.LBB2162
	.uleb128 .LBE2794-.LBB2162
	.byte	0x4
	.uleb128 .LBB2798-.LBB2162
	.uleb128 .LBE2798-.LBB2162
	.byte	0x4
	.uleb128 .LBB2800-.LBB2162
	.uleb128 .LBE2800-.LBB2162
	.byte	0
.LLRL103:
	.byte	0x5
	.quad	.LBB2167
	.byte	0x4
	.uleb128 .LBB2167-.LBB2167
	.uleb128 .LBE2167-.LBB2167
	.byte	0x4
	.uleb128 .LBB2172-.LBB2167
	.uleb128 .LBE2172-.LBB2167
	.byte	0
.LLRL107:
	.byte	0x5
	.quad	.LBB2179
	.byte	0x4
	.uleb128 .LBB2179-.LBB2179
	.uleb128 .LBE2179-.LBB2179
	.byte	0x4
	.uleb128 .LBB2327-.LBB2179
	.uleb128 .LBE2327-.LBB2179
	.byte	0x4
	.uleb128 .LBB2329-.LBB2179
	.uleb128 .LBE2329-.LBB2179
	.byte	0x4
	.uleb128 .LBB2787-.LBB2179
	.uleb128 .LBE2787-.LBB2179
	.byte	0x4
	.uleb128 .LBB2789-.LBB2179
	.uleb128 .LBE2789-.LBB2179
	.byte	0x4
	.uleb128 .LBB2802-.LBB2179
	.uleb128 .LBE2802-.LBB2179
	.byte	0x4
	.uleb128 .LBB2811-.LBB2179
	.uleb128 .LBE2811-.LBB2179
	.byte	0x7
	.quad	.LBB2902
	.uleb128 .LBE2902-.LBB2902
	.byte	0
.LLRL110:
	.byte	0x5
	.quad	.LBB2180
	.byte	0x4
	.uleb128 .LBB2180-.LBB2180
	.uleb128 .LBE2180-.LBB2180
	.byte	0x4
	.uleb128 .LBB2322-.LBB2180
	.uleb128 .LBE2322-.LBB2180
	.byte	0
.LLRL113:
	.byte	0x5
	.quad	.LBB2183
	.byte	0x4
	.uleb128 .LBB2183-.LBB2183
	.uleb128 .LBE2183-.LBB2183
	.byte	0x4
	.uleb128 .LBB2323-.LBB2183
	.uleb128 .LBE2323-.LBB2183
	.byte	0
.LLRL116:
	.byte	0x5
	.quad	.LBB2186
	.byte	0x4
	.uleb128 .LBB2186-.LBB2186
	.uleb128 .LBE2186-.LBB2186
	.byte	0x4
	.uleb128 .LBB2319-.LBB2186
	.uleb128 .LBE2319-.LBB2186
	.byte	0x4
	.uleb128 .LBB2324-.LBB2186
	.uleb128 .LBE2324-.LBB2186
	.byte	0x7
	.quad	.LBB2325
	.uleb128 .LBE2325-.LBB2325
	.byte	0
.LLRL124:
	.byte	0x5
	.quad	.LBB2192
	.byte	0x4
	.uleb128 .LBB2192-.LBB2192
	.uleb128 .LBE2192-.LBB2192
	.byte	0x4
	.uleb128 .LBB2194-.LBB2192
	.uleb128 .LBE2194-.LBB2192
	.byte	0
.LLRL126:
	.byte	0x5
	.quad	.LBB2196
	.byte	0x4
	.uleb128 .LBB2196-.LBB2196
	.uleb128 .LBE2196-.LBB2196
	.byte	0x4
	.uleb128 .LBB2198-.LBB2196
	.uleb128 .LBE2198-.LBB2196
	.byte	0
.LLRL128:
	.byte	0x5
	.quad	.LBB2199
	.byte	0x4
	.uleb128 .LBB2199-.LBB2199
	.uleb128 .LBE2199-.LBB2199
	.byte	0x4
	.uleb128 .LBB2202-.LBB2199
	.uleb128 .LBE2202-.LBB2199
	.byte	0x4
	.uleb128 .LBB2315-.LBB2199
	.uleb128 .LBE2315-.LBB2199
	.byte	0
.LLRL130:
	.byte	0x5
	.quad	.LBB2203
	.byte	0x4
	.uleb128 .LBB2203-.LBB2203
	.uleb128 .LBE2203-.LBB2203
	.byte	0x4
	.uleb128 .LBB2316-.LBB2203
	.uleb128 .LBE2316-.LBB2203
	.byte	0x4
	.uleb128 .LBB2317-.LBB2203
	.uleb128 .LBE2317-.LBB2203
	.byte	0x7
	.quad	.LBB2318
	.uleb128 .LBE2318-.LBB2318
	.byte	0
.LLRL133:
	.byte	0x5
	.quad	.LBB2205
	.byte	0x4
	.uleb128 .LBB2205-.LBB2205
	.uleb128 .LBE2205-.LBB2205
	.byte	0x4
	.uleb128 .LBB2210-.LBB2205
	.uleb128 .LBE2210-.LBB2205
	.byte	0
.LLRL138:
	.byte	0x7
	.quad	.LBB2211
	.uleb128 .LBE2211-.LBB2211
	.byte	0x7
	.quad	.LBB2311
	.uleb128 .LBE2311-.LBB2311
	.byte	0
.LLRL146:
	.byte	0x5
	.quad	.LBB2213
	.byte	0x4
	.uleb128 .LBB2213-.LBB2213
	.uleb128 .LBE2213-.LBB2213
	.byte	0x4
	.uleb128 .LBB2238-.LBB2213
	.uleb128 .LBE2238-.LBB2213
	.byte	0x7
	.quad	.LBB2309
	.uleb128 .LBE2309-.LBB2309
	.byte	0
.LLRL152:
	.byte	0x5
	.quad	.LBB2217
	.byte	0x4
	.uleb128 .LBB2217-.LBB2217
	.uleb128 .LBE2217-.LBB2217
	.byte	0x4
	.uleb128 .LBB2219-.LBB2217
	.uleb128 .LBE2219-.LBB2217
	.byte	0
.LLRL154:
	.byte	0x5
	.quad	.LBB2222
	.byte	0x4
	.uleb128 .LBB2222-.LBB2222
	.uleb128 .LBE2222-.LBB2222
	.byte	0x4
	.uleb128 .LBB2239-.LBB2222
	.uleb128 .LBE2239-.LBB2222
	.byte	0x4
	.uleb128 .LBB2305-.LBB2222
	.uleb128 .LBE2305-.LBB2222
	.byte	0x4
	.uleb128 .LBB2307-.LBB2222
	.uleb128 .LBE2307-.LBB2222
	.byte	0
.LLRL156:
	.byte	0x5
	.quad	.LBB2224
	.byte	0x4
	.uleb128 .LBB2224-.LBB2224
	.uleb128 .LBE2224-.LBB2224
	.byte	0x4
	.uleb128 .LBB2232-.LBB2224
	.uleb128 .LBE2232-.LBB2224
	.byte	0x4
	.uleb128 .LBB2233-.LBB2224
	.uleb128 .LBE2233-.LBB2224
	.byte	0x4
	.uleb128 .LBB2234-.LBB2224
	.uleb128 .LBE2234-.LBB2224
	.byte	0
.LLRL158:
	.byte	0x5
	.quad	.LBB2225
	.byte	0x4
	.uleb128 .LBB2225-.LBB2225
	.uleb128 .LBE2225-.LBB2225
	.byte	0x4
	.uleb128 .LBB2229-.LBB2225
	.uleb128 .LBE2229-.LBB2225
	.byte	0x4
	.uleb128 .LBB2230-.LBB2225
	.uleb128 .LBE2230-.LBB2225
	.byte	0x4
	.uleb128 .LBB2231-.LBB2225
	.uleb128 .LBE2231-.LBB2225
	.byte	0
.LLRL161:
	.byte	0x5
	.quad	.LBB2240
	.byte	0x4
	.uleb128 .LBB2240-.LBB2240
	.uleb128 .LBE2240-.LBB2240
	.byte	0x4
	.uleb128 .LBB2306-.LBB2240
	.uleb128 .LBE2306-.LBB2240
	.byte	0x4
	.uleb128 .LBB2308-.LBB2240
	.uleb128 .LBE2308-.LBB2240
	.byte	0
.LLRL162:
	.byte	0x5
	.quad	.LBB2241
	.byte	0x4
	.uleb128 .LBB2241-.LBB2241
	.uleb128 .LBE2241-.LBB2241
	.byte	0x4
	.uleb128 .LBB2269-.LBB2241
	.uleb128 .LBE2269-.LBB2241
	.byte	0x4
	.uleb128 .LBB2270-.LBB2241
	.uleb128 .LBE2270-.LBB2241
	.byte	0x4
	.uleb128 .LBB2272-.LBB2241
	.uleb128 .LBE2272-.LBB2241
	.byte	0x4
	.uleb128 .LBB2274-.LBB2241
	.uleb128 .LBE2274-.LBB2241
	.byte	0x4
	.uleb128 .LBB2276-.LBB2241
	.uleb128 .LBE2276-.LBB2241
	.byte	0x4
	.uleb128 .LBB2278-.LBB2241
	.uleb128 .LBE2278-.LBB2241
	.byte	0
.LLRL169:
	.byte	0x5
	.quad	.LBB2256
	.byte	0x4
	.uleb128 .LBB2256-.LBB2256
	.uleb128 .LBE2256-.LBB2256
	.byte	0x4
	.uleb128 .LBB2271-.LBB2256
	.uleb128 .LBE2271-.LBB2256
	.byte	0x4
	.uleb128 .LBB2273-.LBB2256
	.uleb128 .LBE2273-.LBB2256
	.byte	0x4
	.uleb128 .LBB2275-.LBB2256
	.uleb128 .LBE2275-.LBB2256
	.byte	0x4
	.uleb128 .LBB2277-.LBB2256
	.uleb128 .LBE2277-.LBB2256
	.byte	0x4
	.uleb128 .LBB2279-.LBB2256
	.uleb128 .LBE2279-.LBB2256
	.byte	0
.LLRL180:
	.byte	0x5
	.quad	.LBB2280
	.byte	0x4
	.uleb128 .LBB2280-.LBB2280
	.uleb128 .LBE2280-.LBB2280
	.byte	0x4
	.uleb128 .LBB2303-.LBB2280
	.uleb128 .LBE2303-.LBB2280
	.byte	0x4
	.uleb128 .LBB2304-.LBB2280
	.uleb128 .LBE2304-.LBB2280
	.byte	0
.LLRL182:
	.byte	0x5
	.quad	.LBB2282
	.byte	0x4
	.uleb128 .LBB2282-.LBB2282
	.uleb128 .LBE2282-.LBB2282
	.byte	0x4
	.uleb128 .LBB2300-.LBB2282
	.uleb128 .LBE2300-.LBB2282
	.byte	0
.LLRL184:
	.byte	0x5
	.quad	.LBB2284
	.byte	0x4
	.uleb128 .LBB2284-.LBB2284
	.uleb128 .LBE2284-.LBB2284
	.byte	0x4
	.uleb128 .LBB2296-.LBB2284
	.uleb128 .LBE2296-.LBB2284
	.byte	0x4
	.uleb128 .LBB2297-.LBB2284
	.uleb128 .LBE2297-.LBB2284
	.byte	0
.LLRL186:
	.byte	0x5
	.quad	.LBB2286
	.byte	0x4
	.uleb128 .LBB2286-.LBB2286
	.uleb128 .LBE2286-.LBB2286
	.byte	0x4
	.uleb128 .LBB2292-.LBB2286
	.uleb128 .LBE2292-.LBB2286
	.byte	0x4
	.uleb128 .LBB2293-.LBB2286
	.uleb128 .LBE2293-.LBB2286
	.byte	0
.LLRL188:
	.byte	0x5
	.quad	.LBB2287
	.byte	0x4
	.uleb128 .LBB2287-.LBB2287
	.uleb128 .LBE2287-.LBB2287
	.byte	0x4
	.uleb128 .LBB2290-.LBB2287
	.uleb128 .LBE2290-.LBB2287
	.byte	0x4
	.uleb128 .LBB2291-.LBB2287
	.uleb128 .LBE2291-.LBB2287
	.byte	0
.LLRL191:
	.byte	0x5
	.quad	.LBB2330
	.byte	0x4
	.uleb128 .LBB2330-.LBB2330
	.uleb128 .LBE2330-.LBB2330
	.byte	0x4
	.uleb128 .LBB2785-.LBB2330
	.uleb128 .LBE2785-.LBB2330
	.byte	0
.LLRL193:
	.byte	0x5
	.quad	.LBB2331
	.byte	0x4
	.uleb128 .LBB2331-.LBB2331
	.uleb128 .LBE2331-.LBB2331
	.byte	0x4
	.uleb128 .LBB2346-.LBB2331
	.uleb128 .LBE2346-.LBB2331
	.byte	0
.LLRL195:
	.byte	0x5
	.quad	.LBB2332
	.byte	0x4
	.uleb128 .LBB2332-.LBB2332
	.uleb128 .LBE2332-.LBB2332
	.byte	0x4
	.uleb128 .LBB2340-.LBB2332
	.uleb128 .LBE2340-.LBB2332
	.byte	0
.LLRL209:
	.byte	0x5
	.quad	.LBB2349
	.byte	0x4
	.uleb128 .LBB2349-.LBB2349
	.uleb128 .LBE2349-.LBB2349
	.byte	0x4
	.uleb128 .LBB2791-.LBB2349
	.uleb128 .LBE2791-.LBB2349
	.byte	0x7
	.quad	.LBB2898
	.uleb128 .LBE2898-.LBB2898
	.byte	0
.LLRL213:
	.byte	0x7
	.quad	.LBB2350
	.uleb128 .LBE2350-.LBB2350
	.byte	0x7
	.quad	.LBB2400
	.uleb128 .LBE2400-.LBB2400
	.byte	0
.LLRL218:
	.byte	0x5
	.quad	.LBB2357
	.byte	0x4
	.uleb128 .LBB2357-.LBB2357
	.uleb128 .LBE2357-.LBB2357
	.byte	0x4
	.uleb128 .LBB2397-.LBB2357
	.uleb128 .LBE2397-.LBB2357
	.byte	0x4
	.uleb128 .LBB2399-.LBB2357
	.uleb128 .LBE2399-.LBB2357
	.byte	0
.LLRL224:
	.byte	0x5
	.quad	.LBB2362
	.byte	0x4
	.uleb128 .LBB2362-.LBB2362
	.uleb128 .LBE2362-.LBB2362
	.byte	0x4
	.uleb128 .LBB2378-.LBB2362
	.uleb128 .LBE2378-.LBB2362
	.byte	0x4
	.uleb128 .LBB2379-.LBB2362
	.uleb128 .LBE2379-.LBB2362
	.byte	0
.LLRL226:
	.byte	0x5
	.quad	.LBB2364
	.byte	0x4
	.uleb128 .LBB2364-.LBB2364
	.uleb128 .LBE2364-.LBB2364
	.byte	0x4
	.uleb128 .LBB2374-.LBB2364
	.uleb128 .LBE2374-.LBB2364
	.byte	0x4
	.uleb128 .LBB2375-.LBB2364
	.uleb128 .LBE2375-.LBB2364
	.byte	0
.LLRL228:
	.byte	0x5
	.quad	.LBB2366
	.byte	0x4
	.uleb128 .LBB2366-.LBB2366
	.uleb128 .LBE2366-.LBB2366
	.byte	0x4
	.uleb128 .LBB2371-.LBB2366
	.uleb128 .LBE2371-.LBB2366
	.byte	0
.LLRL232:
	.byte	0x5
	.quad	.LBB2380
	.byte	0x4
	.uleb128 .LBB2380-.LBB2380
	.uleb128 .LBE2380-.LBB2380
	.byte	0x4
	.uleb128 .LBB2398-.LBB2380
	.uleb128 .LBE2398-.LBB2380
	.byte	0
.LLRL241:
	.byte	0x5
	.quad	.LBB2384
	.byte	0x4
	.uleb128 .LBB2384-.LBB2384
	.uleb128 .LBE2384-.LBB2384
	.byte	0x4
	.uleb128 .LBB2393-.LBB2384
	.uleb128 .LBE2393-.LBB2384
	.byte	0
.LLRL245:
	.byte	0x5
	.quad	.LBB2386
	.byte	0x4
	.uleb128 .LBB2386-.LBB2386
	.uleb128 .LBE2386-.LBB2386
	.byte	0x4
	.uleb128 .LBB2390-.LBB2386
	.uleb128 .LBE2390-.LBB2386
	.byte	0
.LLRL253:
	.byte	0x5
	.quad	.LBB2405
	.byte	0x4
	.uleb128 .LBB2405-.LBB2405
	.uleb128 .LBE2405-.LBB2405
	.byte	0x4
	.uleb128 .LBB2803-.LBB2405
	.uleb128 .LBE2803-.LBB2405
	.byte	0x7
	.quad	.LBB2897
	.uleb128 .LBE2897-.LBB2897
	.byte	0
.LLRL257:
	.byte	0x7
	.quad	.LBB2406
	.uleb128 .LBE2406-.LBB2406
	.byte	0x7
	.quad	.LBB2456
	.uleb128 .LBE2456-.LBB2456
	.byte	0
.LLRL262:
	.byte	0x5
	.quad	.LBB2413
	.byte	0x4
	.uleb128 .LBB2413-.LBB2413
	.uleb128 .LBE2413-.LBB2413
	.byte	0x4
	.uleb128 .LBB2453-.LBB2413
	.uleb128 .LBE2453-.LBB2413
	.byte	0x4
	.uleb128 .LBB2455-.LBB2413
	.uleb128 .LBE2455-.LBB2413
	.byte	0
.LLRL268:
	.byte	0x5
	.quad	.LBB2418
	.byte	0x4
	.uleb128 .LBB2418-.LBB2418
	.uleb128 .LBE2418-.LBB2418
	.byte	0x4
	.uleb128 .LBB2434-.LBB2418
	.uleb128 .LBE2434-.LBB2418
	.byte	0x4
	.uleb128 .LBB2435-.LBB2418
	.uleb128 .LBE2435-.LBB2418
	.byte	0
.LLRL270:
	.byte	0x5
	.quad	.LBB2420
	.byte	0x4
	.uleb128 .LBB2420-.LBB2420
	.uleb128 .LBE2420-.LBB2420
	.byte	0x4
	.uleb128 .LBB2430-.LBB2420
	.uleb128 .LBE2430-.LBB2420
	.byte	0x4
	.uleb128 .LBB2431-.LBB2420
	.uleb128 .LBE2431-.LBB2420
	.byte	0
.LLRL272:
	.byte	0x5
	.quad	.LBB2422
	.byte	0x4
	.uleb128 .LBB2422-.LBB2422
	.uleb128 .LBE2422-.LBB2422
	.byte	0x4
	.uleb128 .LBB2427-.LBB2422
	.uleb128 .LBE2427-.LBB2422
	.byte	0
.LLRL276:
	.byte	0x5
	.quad	.LBB2436
	.byte	0x4
	.uleb128 .LBB2436-.LBB2436
	.uleb128 .LBE2436-.LBB2436
	.byte	0x4
	.uleb128 .LBB2454-.LBB2436
	.uleb128 .LBE2454-.LBB2436
	.byte	0
.LLRL285:
	.byte	0x5
	.quad	.LBB2440
	.byte	0x4
	.uleb128 .LBB2440-.LBB2440
	.uleb128 .LBE2440-.LBB2440
	.byte	0x4
	.uleb128 .LBB2449-.LBB2440
	.uleb128 .LBE2449-.LBB2440
	.byte	0
.LLRL289:
	.byte	0x5
	.quad	.LBB2442
	.byte	0x4
	.uleb128 .LBB2442-.LBB2442
	.uleb128 .LBE2442-.LBB2442
	.byte	0x4
	.uleb128 .LBB2446-.LBB2442
	.uleb128 .LBE2446-.LBB2442
	.byte	0
.LLRL301:
	.byte	0x5
	.quad	.LBB2464
	.byte	0x4
	.uleb128 .LBB2464-.LBB2464
	.uleb128 .LBE2464-.LBB2464
	.byte	0x4
	.uleb128 .LBB2474-.LBB2464
	.uleb128 .LBE2474-.LBB2464
	.byte	0
.LLRL308:
	.byte	0x5
	.quad	.LBB2476
	.byte	0x4
	.uleb128 .LBB2476-.LBB2476
	.uleb128 .LBE2476-.LBB2476
	.byte	0x4
	.uleb128 .LBB2482-.LBB2476
	.uleb128 .LBE2482-.LBB2476
	.byte	0x4
	.uleb128 .LBB2483-.LBB2476
	.uleb128 .LBE2483-.LBB2476
	.byte	0x4
	.uleb128 .LBB2484-.LBB2476
	.uleb128 .LBE2484-.LBB2476
	.byte	0x4
	.uleb128 .LBB2485-.LBB2476
	.uleb128 .LBE2485-.LBB2476
	.byte	0
.LLRL310:
	.byte	0x5
	.quad	.LBB2477
	.byte	0x4
	.uleb128 .LBB2477-.LBB2477
	.uleb128 .LBE2477-.LBB2477
	.byte	0x4
	.uleb128 .LBB2478-.LBB2477
	.uleb128 .LBE2478-.LBB2477
	.byte	0x4
	.uleb128 .LBB2479-.LBB2477
	.uleb128 .LBE2479-.LBB2477
	.byte	0x4
	.uleb128 .LBB2480-.LBB2477
	.uleb128 .LBE2480-.LBB2477
	.byte	0x4
	.uleb128 .LBB2481-.LBB2477
	.uleb128 .LBE2481-.LBB2477
	.byte	0
.LLRL312:
	.byte	0x5
	.quad	.LBB2486
	.byte	0x4
	.uleb128 .LBB2486-.LBB2486
	.uleb128 .LBE2486-.LBB2486
	.byte	0x4
	.uleb128 .LBB2807-.LBB2486
	.uleb128 .LBE2807-.LBB2486
	.byte	0
.LLRL315:
	.byte	0x5
	.quad	.LBB2489
	.byte	0x4
	.uleb128 .LBB2489-.LBB2489
	.uleb128 .LBE2489-.LBB2489
	.byte	0x4
	.uleb128 .LBB2718-.LBB2489
	.uleb128 .LBE2718-.LBB2489
	.byte	0x4
	.uleb128 .LBB2744-.LBB2489
	.uleb128 .LBE2744-.LBB2489
	.byte	0x4
	.uleb128 .LBB2805-.LBB2489
	.uleb128 .LBE2805-.LBB2489
	.byte	0x4
	.uleb128 .LBB2808-.LBB2489
	.uleb128 .LBE2808-.LBB2489
	.byte	0x4
	.uleb128 .LBB2810-.LBB2489
	.uleb128 .LBE2810-.LBB2489
	.byte	0x4
	.uleb128 .LBB2812-.LBB2489
	.uleb128 .LBE2812-.LBB2489
	.byte	0x7
	.quad	.LBB2813
	.uleb128 .LBE2813-.LBB2813
	.byte	0
.LLRL319:
	.byte	0x5
	.quad	.LBB2490
	.byte	0x4
	.uleb128 .LBB2490-.LBB2490
	.uleb128 .LBE2490-.LBB2490
	.byte	0x4
	.uleb128 .LBB2577-.LBB2490
	.uleb128 .LBE2577-.LBB2490
	.byte	0x7
	.quad	.LBB2582
	.uleb128 .LBE2582-.LBB2582
	.byte	0
.LLRL322:
	.byte	0x5
	.quad	.LBB2492
	.byte	0x4
	.uleb128 .LBB2492-.LBB2492
	.uleb128 .LBE2492-.LBB2492
	.byte	0x4
	.uleb128 .LBB2498-.LBB2492
	.uleb128 .LBE2498-.LBB2492
	.byte	0
.LLRL325:
	.byte	0x5
	.quad	.LBB2495
	.byte	0x4
	.uleb128 .LBB2495-.LBB2495
	.uleb128 .LBE2495-.LBB2495
	.byte	0x4
	.uleb128 .LBB2499-.LBB2495
	.uleb128 .LBE2499-.LBB2495
	.byte	0
.LLRL326:
	.byte	0x5
	.quad	.LBB2502
	.byte	0x4
	.uleb128 .LBB2502-.LBB2502
	.uleb128 .LBE2502-.LBB2502
	.byte	0x4
	.uleb128 .LBB2572-.LBB2502
	.uleb128 .LBE2572-.LBB2502
	.byte	0x4
	.uleb128 .LBB2575-.LBB2502
	.uleb128 .LBE2575-.LBB2502
	.byte	0x4
	.uleb128 .LBB2576-.LBB2502
	.uleb128 .LBE2576-.LBB2502
	.byte	0x4
	.uleb128 .LBB2578-.LBB2502
	.uleb128 .LBE2578-.LBB2502
	.byte	0x4
	.uleb128 .LBB2579-.LBB2502
	.uleb128 .LBE2579-.LBB2502
	.byte	0x4
	.uleb128 .LBB2580-.LBB2502
	.uleb128 .LBE2580-.LBB2502
	.byte	0x7
	.quad	.LBB2581
	.uleb128 .LBE2581-.LBB2581
	.byte	0
.LLRL329:
	.byte	0x5
	.quad	.LBB2503
	.byte	0x4
	.uleb128 .LBB2503-.LBB2503
	.uleb128 .LBE2503-.LBB2503
	.byte	0x4
	.uleb128 .LBB2544-.LBB2503
	.uleb128 .LBE2544-.LBB2503
	.byte	0
.LLRL331:
	.byte	0x5
	.quad	.LBB2504
	.byte	0x4
	.uleb128 .LBB2504-.LBB2504
	.uleb128 .LBE2504-.LBB2504
	.byte	0x4
	.uleb128 .LBB2508-.LBB2504
	.uleb128 .LBE2508-.LBB2504
	.byte	0
.LLRL334:
	.byte	0x5
	.quad	.LBB2507
	.byte	0x4
	.uleb128 .LBB2507-.LBB2507
	.uleb128 .LBE2507-.LBB2507
	.byte	0x4
	.uleb128 .LBB2509-.LBB2507
	.uleb128 .LBE2509-.LBB2507
	.byte	0
.LLRL335:
	.byte	0x5
	.quad	.LBB2510
	.byte	0x4
	.uleb128 .LBB2510-.LBB2510
	.uleb128 .LBE2510-.LBB2510
	.byte	0x4
	.uleb128 .LBB2541-.LBB2510
	.uleb128 .LBE2541-.LBB2510
	.byte	0x4
	.uleb128 .LBB2542-.LBB2510
	.uleb128 .LBE2542-.LBB2510
	.byte	0x4
	.uleb128 .LBB2543-.LBB2510
	.uleb128 .LBE2543-.LBB2510
	.byte	0x4
	.uleb128 .LBB2545-.LBB2510
	.uleb128 .LBE2545-.LBB2510
	.byte	0x4
	.uleb128 .LBB2546-.LBB2510
	.uleb128 .LBE2546-.LBB2510
	.byte	0x4
	.uleb128 .LBB2547-.LBB2510
	.uleb128 .LBE2547-.LBB2510
	.byte	0x7
	.quad	.LBB2548
	.uleb128 .LBE2548-.LBB2548
	.byte	0
.LLRL337:
	.byte	0x5
	.quad	.LBB2512
	.byte	0x4
	.uleb128 .LBB2512-.LBB2512
	.uleb128 .LBE2512-.LBB2512
	.byte	0x4
	.uleb128 .LBB2528-.LBB2512
	.uleb128 .LBE2528-.LBB2512
	.byte	0x4
	.uleb128 .LBB2529-.LBB2512
	.uleb128 .LBE2529-.LBB2512
	.byte	0x4
	.uleb128 .LBB2530-.LBB2512
	.uleb128 .LBE2530-.LBB2512
	.byte	0x4
	.uleb128 .LBB2531-.LBB2512
	.uleb128 .LBE2531-.LBB2512
	.byte	0x4
	.uleb128 .LBB2532-.LBB2512
	.uleb128 .LBE2532-.LBB2512
	.byte	0x7
	.quad	.LBB2533
	.uleb128 .LBE2533-.LBB2533
	.byte	0
.LLRL339:
	.byte	0x5
	.quad	.LBB2514
	.byte	0x4
	.uleb128 .LBB2514-.LBB2514
	.uleb128 .LBE2514-.LBB2514
	.byte	0x4
	.uleb128 .LBB2521-.LBB2514
	.uleb128 .LBE2521-.LBB2514
	.byte	0
.LLRL341:
	.byte	0x5
	.quad	.LBB2515
	.byte	0x4
	.uleb128 .LBB2515-.LBB2515
	.uleb128 .LBE2515-.LBB2515
	.byte	0x4
	.uleb128 .LBB2519-.LBB2515
	.uleb128 .LBE2519-.LBB2515
	.byte	0x4
	.uleb128 .LBB2520-.LBB2515
	.uleb128 .LBE2520-.LBB2515
	.byte	0
.LLRL344:
	.byte	0x5
	.quad	.LBB2549
	.byte	0x4
	.uleb128 .LBB2549-.LBB2549
	.uleb128 .LBE2549-.LBB2549
	.byte	0x4
	.uleb128 .LBB2573-.LBB2549
	.uleb128 .LBE2573-.LBB2549
	.byte	0x4
	.uleb128 .LBB2574-.LBB2549
	.uleb128 .LBE2574-.LBB2549
	.byte	0
.LLRL353:
	.byte	0x5
	.quad	.LBB2553
	.byte	0x4
	.uleb128 .LBB2553-.LBB2553
	.uleb128 .LBE2553-.LBB2553
	.byte	0x4
	.uleb128 .LBB2564-.LBB2553
	.uleb128 .LBE2564-.LBB2553
	.byte	0x4
	.uleb128 .LBB2565-.LBB2553
	.uleb128 .LBE2565-.LBB2553
	.byte	0
.LLRL357:
	.byte	0x5
	.quad	.LBB2555
	.byte	0x4
	.uleb128 .LBB2555-.LBB2555
	.uleb128 .LBE2555-.LBB2555
	.byte	0x4
	.uleb128 .LBB2560-.LBB2555
	.uleb128 .LBE2560-.LBB2555
	.byte	0x4
	.uleb128 .LBB2561-.LBB2555
	.uleb128 .LBE2561-.LBB2555
	.byte	0
.LLRL360:
	.byte	0x5
	.quad	.LBB2583
	.byte	0x4
	.uleb128 .LBB2583-.LBB2583
	.uleb128 .LBE2583-.LBB2583
	.byte	0x4
	.uleb128 .LBB2719-.LBB2583
	.uleb128 .LBE2719-.LBB2583
	.byte	0x4
	.uleb128 .LBB2792-.LBB2583
	.uleb128 .LBE2792-.LBB2583
	.byte	0x4
	.uleb128 .LBB2804-.LBB2583
	.uleb128 .LBE2804-.LBB2583
	.byte	0x4
	.uleb128 .LBB2809-.LBB2583
	.uleb128 .LBE2809-.LBB2583
	.byte	0
.LLRL362:
	.byte	0x5
	.quad	.LBB2584
	.byte	0x4
	.uleb128 .LBB2584-.LBB2584
	.uleb128 .LBE2584-.LBB2584
	.byte	0x4
	.uleb128 .LBB2717-.LBB2584
	.uleb128 .LBE2717-.LBB2584
	.byte	0
.LLRL367:
	.byte	0x5
	.quad	.LBB2585
	.byte	0x4
	.uleb128 .LBB2585-.LBB2585
	.uleb128 .LBE2585-.LBB2585
	.byte	0x4
	.uleb128 .LBB2705-.LBB2585
	.uleb128 .LBE2705-.LBB2585
	.byte	0x4
	.uleb128 .LBB2706-.LBB2585
	.uleb128 .LBE2706-.LBB2585
	.byte	0x4
	.uleb128 .LBB2707-.LBB2585
	.uleb128 .LBE2707-.LBB2585
	.byte	0x4
	.uleb128 .LBB2708-.LBB2585
	.uleb128 .LBE2708-.LBB2585
	.byte	0x4
	.uleb128 .LBB2710-.LBB2585
	.uleb128 .LBE2710-.LBB2585
	.byte	0x4
	.uleb128 .LBB2713-.LBB2585
	.uleb128 .LBE2713-.LBB2585
	.byte	0x4
	.uleb128 .LBB2715-.LBB2585
	.uleb128 .LBE2715-.LBB2585
	.byte	0x4
	.uleb128 .LBB2716-.LBB2585
	.uleb128 .LBE2716-.LBB2585
	.byte	0
.LLRL369:
	.byte	0x5
	.quad	.LBB2586
	.byte	0x4
	.uleb128 .LBB2586-.LBB2586
	.uleb128 .LBE2586-.LBB2586
	.byte	0x4
	.uleb128 .LBB2685-.LBB2586
	.uleb128 .LBE2685-.LBB2586
	.byte	0x4
	.uleb128 .LBB2686-.LBB2586
	.uleb128 .LBE2686-.LBB2586
	.byte	0x4
	.uleb128 .LBB2687-.LBB2586
	.uleb128 .LBE2687-.LBB2586
	.byte	0x4
	.uleb128 .LBB2688-.LBB2586
	.uleb128 .LBE2688-.LBB2586
	.byte	0x4
	.uleb128 .LBB2689-.LBB2586
	.uleb128 .LBE2689-.LBB2586
	.byte	0x4
	.uleb128 .LBB2690-.LBB2586
	.uleb128 .LBE2690-.LBB2586
	.byte	0x4
	.uleb128 .LBB2691-.LBB2586
	.uleb128 .LBE2691-.LBB2586
	.byte	0x4
	.uleb128 .LBB2692-.LBB2586
	.uleb128 .LBE2692-.LBB2586
	.byte	0
.LLRL376:
	.byte	0x5
	.quad	.LBB2588
	.byte	0x4
	.uleb128 .LBB2588-.LBB2588
	.uleb128 .LBE2588-.LBB2588
	.byte	0x4
	.uleb128 .LBB2661-.LBB2588
	.uleb128 .LBE2661-.LBB2588
	.byte	0
.LLRL382:
	.byte	0x5
	.quad	.LBB2589
	.byte	0x4
	.uleb128 .LBB2589-.LBB2589
	.uleb128 .LBE2589-.LBB2589
	.byte	0x4
	.uleb128 .LBB2602-.LBB2589
	.uleb128 .LBE2602-.LBB2589
	.byte	0
.LLRL386:
	.byte	0x5
	.quad	.LBB2596
	.byte	0x4
	.uleb128 .LBB2596-.LBB2596
	.uleb128 .LBE2596-.LBB2596
	.byte	0x4
	.uleb128 .LBB2638-.LBB2596
	.uleb128 .LBE2638-.LBB2596
	.byte	0
.LLRL387:
	.byte	0x5
	.quad	.LBB2599
	.byte	0x4
	.uleb128 .LBB2599-.LBB2599
	.uleb128 .LBE2599-.LBB2599
	.byte	0x4
	.uleb128 .LBB2648-.LBB2599
	.uleb128 .LBE2648-.LBB2599
	.byte	0
.LLRL399:
	.byte	0x5
	.quad	.LBB2621
	.byte	0x4
	.uleb128 .LBB2621-.LBB2621
	.uleb128 .LBE2621-.LBB2621
	.byte	0x4
	.uleb128 .LBB2624-.LBB2621
	.uleb128 .LBE2624-.LBB2621
	.byte	0
.LLRL400:
	.byte	0x5
	.quad	.LBB2625
	.byte	0x4
	.uleb128 .LBB2625-.LBB2625
	.uleb128 .LBE2625-.LBB2625
	.byte	0x4
	.uleb128 .LBB2637-.LBB2625
	.uleb128 .LBE2637-.LBB2625
	.byte	0
.LLRL402:
	.byte	0x5
	.quad	.LBB2628
	.byte	0x4
	.uleb128 .LBB2628-.LBB2628
	.uleb128 .LBE2628-.LBB2628
	.byte	0x4
	.uleb128 .LBB2640-.LBB2628
	.uleb128 .LBE2640-.LBB2628
	.byte	0
.LLRL403:
	.byte	0x5
	.quad	.LBB2631
	.byte	0x4
	.uleb128 .LBB2631-.LBB2631
	.uleb128 .LBE2631-.LBB2631
	.byte	0x4
	.uleb128 .LBB2639-.LBB2631
	.uleb128 .LBE2639-.LBB2631
	.byte	0
.LLRL404:
	.byte	0x5
	.quad	.LBB2634
	.byte	0x4
	.uleb128 .LBB2634-.LBB2634
	.uleb128 .LBE2634-.LBB2634
	.byte	0x4
	.uleb128 .LBB2649-.LBB2634
	.uleb128 .LBE2649-.LBB2634
	.byte	0
.LLRL405:
	.byte	0x5
	.quad	.LBB2641
	.byte	0x4
	.uleb128 .LBB2641-.LBB2641
	.uleb128 .LBE2641-.LBB2641
	.byte	0x4
	.uleb128 .LBB2647-.LBB2641
	.uleb128 .LBE2647-.LBB2641
	.byte	0
.LLRL407:
	.byte	0x5
	.quad	.LBB2644
	.byte	0x4
	.uleb128 .LBB2644-.LBB2644
	.uleb128 .LBE2644-.LBB2644
	.byte	0x4
	.uleb128 .LBB2652-.LBB2644
	.uleb128 .LBE2652-.LBB2644
	.byte	0
.LLRL415:
	.byte	0x5
	.quad	.LBB2663
	.byte	0x4
	.uleb128 .LBB2663-.LBB2663
	.uleb128 .LBE2663-.LBB2663
	.byte	0x4
	.uleb128 .LBB2683-.LBB2663
	.uleb128 .LBE2683-.LBB2663
	.byte	0x4
	.uleb128 .LBB2684-.LBB2663
	.uleb128 .LBE2684-.LBB2663
	.byte	0
.LLRL417:
	.byte	0x5
	.quad	.LBB2664
	.byte	0x4
	.uleb128 .LBB2664-.LBB2664
	.uleb128 .LBE2664-.LBB2664
	.byte	0x4
	.uleb128 .LBB2665-.LBB2664
	.uleb128 .LBE2665-.LBB2664
	.byte	0x4
	.uleb128 .LBB2666-.LBB2664
	.uleb128 .LBE2666-.LBB2664
	.byte	0x4
	.uleb128 .LBB2667-.LBB2664
	.uleb128 .LBE2667-.LBB2664
	.byte	0x4
	.uleb128 .LBB2668-.LBB2664
	.uleb128 .LBE2668-.LBB2664
	.byte	0x4
	.uleb128 .LBB2669-.LBB2664
	.uleb128 .LBE2669-.LBB2664
	.byte	0x4
	.uleb128 .LBB2670-.LBB2664
	.uleb128 .LBE2670-.LBB2664
	.byte	0x4
	.uleb128 .LBB2671-.LBB2664
	.uleb128 .LBE2671-.LBB2664
	.byte	0x4
	.uleb128 .LBB2672-.LBB2664
	.uleb128 .LBE2672-.LBB2664
	.byte	0x4
	.uleb128 .LBB2673-.LBB2664
	.uleb128 .LBE2673-.LBB2664
	.byte	0x4
	.uleb128 .LBB2674-.LBB2664
	.uleb128 .LBE2674-.LBB2664
	.byte	0x4
	.uleb128 .LBB2675-.LBB2664
	.uleb128 .LBE2675-.LBB2664
	.byte	0x4
	.uleb128 .LBB2676-.LBB2664
	.uleb128 .LBE2676-.LBB2664
	.byte	0x4
	.uleb128 .LBB2677-.LBB2664
	.uleb128 .LBE2677-.LBB2664
	.byte	0x4
	.uleb128 .LBB2678-.LBB2664
	.uleb128 .LBE2678-.LBB2664
	.byte	0x4
	.uleb128 .LBB2679-.LBB2664
	.uleb128 .LBE2679-.LBB2664
	.byte	0x4
	.uleb128 .LBB2680-.LBB2664
	.uleb128 .LBE2680-.LBB2664
	.byte	0x4
	.uleb128 .LBB2681-.LBB2664
	.uleb128 .LBE2681-.LBB2664
	.byte	0x4
	.uleb128 .LBB2682-.LBB2664
	.uleb128 .LBE2682-.LBB2664
	.byte	0
.LLRL420:
	.byte	0x5
	.quad	.LBB2693
	.byte	0x4
	.uleb128 .LBB2693-.LBB2693
	.uleb128 .LBE2693-.LBB2693
	.byte	0x4
	.uleb128 .LBB2709-.LBB2693
	.uleb128 .LBE2709-.LBB2693
	.byte	0
.LLRL422:
	.byte	0x5
	.quad	.LBB2696
	.byte	0x4
	.uleb128 .LBB2696-.LBB2696
	.uleb128 .LBE2696-.LBB2696
	.byte	0x4
	.uleb128 .LBB2711-.LBB2696
	.uleb128 .LBE2711-.LBB2696
	.byte	0
.LLRL424:
	.byte	0x5
	.quad	.LBB2699
	.byte	0x4
	.uleb128 .LBB2699-.LBB2699
	.uleb128 .LBE2699-.LBB2699
	.byte	0x4
	.uleb128 .LBB2712-.LBB2699
	.uleb128 .LBE2712-.LBB2699
	.byte	0
.LLRL426:
	.byte	0x5
	.quad	.LBB2702
	.byte	0x4
	.uleb128 .LBB2702-.LBB2702
	.uleb128 .LBE2702-.LBB2702
	.byte	0x4
	.uleb128 .LBB2714-.LBB2702
	.uleb128 .LBE2714-.LBB2702
	.byte	0
.LLRL428:
	.byte	0x5
	.quad	.LBB2720
	.byte	0x4
	.uleb128 .LBB2720-.LBB2720
	.uleb128 .LBE2720-.LBB2720
	.byte	0x4
	.uleb128 .LBB2745-.LBB2720
	.uleb128 .LBE2745-.LBB2720
	.byte	0x4
	.uleb128 .LBB2806-.LBB2720
	.uleb128 .LBE2806-.LBB2720
	.byte	0
.LLRL430:
	.byte	0x5
	.quad	.LBB2721
	.byte	0x4
	.uleb128 .LBB2721-.LBB2721
	.uleb128 .LBE2721-.LBB2721
	.byte	0x4
	.uleb128 .LBB2742-.LBB2721
	.uleb128 .LBE2742-.LBB2721
	.byte	0x4
	.uleb128 .LBB2743-.LBB2721
	.uleb128 .LBE2743-.LBB2721
	.byte	0
.LLRL431:
	.byte	0x5
	.quad	.LBB2722
	.byte	0x4
	.uleb128 .LBB2722-.LBB2722
	.uleb128 .LBE2722-.LBB2722
	.byte	0x4
	.uleb128 .LBB2737-.LBB2722
	.uleb128 .LBE2737-.LBB2722
	.byte	0x4
	.uleb128 .LBB2738-.LBB2722
	.uleb128 .LBE2738-.LBB2722
	.byte	0x4
	.uleb128 .LBB2740-.LBB2722
	.uleb128 .LBE2740-.LBB2722
	.byte	0x4
	.uleb128 .LBB2741-.LBB2722
	.uleb128 .LBE2741-.LBB2722
	.byte	0
.LLRL433:
	.byte	0x5
	.quad	.LBB2723
	.byte	0x4
	.uleb128 .LBB2723-.LBB2723
	.uleb128 .LBE2723-.LBB2723
	.byte	0x4
	.uleb128 .LBB2730-.LBB2723
	.uleb128 .LBE2730-.LBB2723
	.byte	0x4
	.uleb128 .LBB2731-.LBB2723
	.uleb128 .LBE2731-.LBB2723
	.byte	0x4
	.uleb128 .LBB2732-.LBB2723
	.uleb128 .LBE2732-.LBB2723
	.byte	0x4
	.uleb128 .LBB2733-.LBB2723
	.uleb128 .LBE2733-.LBB2723
	.byte	0x4
	.uleb128 .LBB2734-.LBB2723
	.uleb128 .LBE2734-.LBB2723
	.byte	0x4
	.uleb128 .LBB2735-.LBB2723
	.uleb128 .LBE2735-.LBB2723
	.byte	0x4
	.uleb128 .LBB2736-.LBB2723
	.uleb128 .LBE2736-.LBB2723
	.byte	0
.LLRL436:
	.byte	0x5
	.quad	.LBB2724
	.byte	0x4
	.uleb128 .LBB2724-.LBB2724
	.uleb128 .LBE2724-.LBB2724
	.byte	0x4
	.uleb128 .LBB2729-.LBB2724
	.uleb128 .LBE2729-.LBB2724
	.byte	0
.LLRL438:
	.byte	0x5
	.quad	.LBB2725
	.byte	0x4
	.uleb128 .LBB2725-.LBB2725
	.uleb128 .LBE2725-.LBB2725
	.byte	0x4
	.uleb128 .LBB2726-.LBB2725
	.uleb128 .LBE2726-.LBB2725
	.byte	0x4
	.uleb128 .LBB2727-.LBB2725
	.uleb128 .LBE2727-.LBB2725
	.byte	0x4
	.uleb128 .LBB2728-.LBB2725
	.uleb128 .LBE2728-.LBB2725
	.byte	0
.LLRL454:
	.byte	0x5
	.quad	.LBB2815
	.byte	0x4
	.uleb128 .LBB2815-.LBB2815
	.uleb128 .LBE2815-.LBB2815
	.byte	0x4
	.uleb128 .LBB2830-.LBB2815
	.uleb128 .LBE2830-.LBB2815
	.byte	0
.LLRL455:
	.byte	0x5
	.quad	.LBB2816
	.byte	0x4
	.uleb128 .LBB2816-.LBB2816
	.uleb128 .LBE2816-.LBB2816
	.byte	0x4
	.uleb128 .LBB2824-.LBB2816
	.uleb128 .LBE2824-.LBB2816
	.byte	0
.LLRL463:
	.byte	0x5
	.quad	.LBB2831
	.byte	0x4
	.uleb128 .LBB2831-.LBB2831
	.uleb128 .LBE2831-.LBB2831
	.byte	0x4
	.uleb128 .LBB2900-.LBB2831
	.uleb128 .LBE2900-.LBB2831
	.byte	0
.LLRL467:
	.byte	0x5
	.quad	.LBB2834
	.byte	0x4
	.uleb128 .LBB2834-.LBB2834
	.uleb128 .LBE2834-.LBB2834
	.byte	0x4
	.uleb128 .LBB2855-.LBB2834
	.uleb128 .LBE2855-.LBB2834
	.byte	0
.LLRL469:
	.byte	0x5
	.quad	.LBB2835
	.byte	0x4
	.uleb128 .LBB2835-.LBB2835
	.uleb128 .LBE2835-.LBB2835
	.byte	0x4
	.uleb128 .LBB2854-.LBB2835
	.uleb128 .LBE2854-.LBB2835
	.byte	0
.LLRL470:
	.byte	0x5
	.quad	.LBB2836
	.byte	0x4
	.uleb128 .LBB2836-.LBB2836
	.uleb128 .LBE2836-.LBB2836
	.byte	0x4
	.uleb128 .LBB2849-.LBB2836
	.uleb128 .LBE2849-.LBB2836
	.byte	0x4
	.uleb128 .LBB2850-.LBB2836
	.uleb128 .LBE2850-.LBB2836
	.byte	0
.LLRL473:
	.byte	0x5
	.quad	.LBB2838
	.byte	0x4
	.uleb128 .LBB2838-.LBB2838
	.uleb128 .LBE2838-.LBB2838
	.byte	0x4
	.uleb128 .LBB2846-.LBB2838
	.uleb128 .LBE2846-.LBB2838
	.byte	0
.LLRL476:
	.byte	0x5
	.quad	.LBB2840
	.byte	0x4
	.uleb128 .LBB2840-.LBB2840
	.uleb128 .LBE2840-.LBB2840
	.byte	0x4
	.uleb128 .LBB2844-.LBB2840
	.uleb128 .LBE2844-.LBB2840
	.byte	0
.LLRL478:
	.byte	0x5
	.quad	.LBB2841
	.byte	0x4
	.uleb128 .LBB2841-.LBB2841
	.uleb128 .LBE2841-.LBB2841
	.byte	0x4
	.uleb128 .LBB2843-.LBB2841
	.uleb128 .LBE2843-.LBB2841
	.byte	0
.LLRL483:
	.byte	0x5
	.quad	.LBB2856
	.byte	0x4
	.uleb128 .LBB2856-.LBB2856
	.uleb128 .LBE2856-.LBB2856
	.byte	0x4
	.uleb128 .LBB2899-.LBB2856
	.uleb128 .LBE2899-.LBB2856
	.byte	0
.LLRL490:
	.byte	0x5
	.quad	.LBB2860
	.byte	0x4
	.uleb128 .LBB2860-.LBB2860
	.uleb128 .LBE2860-.LBB2860
	.byte	0x4
	.uleb128 .LBB2875-.LBB2860
	.uleb128 .LBE2875-.LBB2860
	.byte	0
.LLRL492:
	.byte	0x5
	.quad	.LBB2861
	.byte	0x4
	.uleb128 .LBB2861-.LBB2861
	.uleb128 .LBE2861-.LBB2861
	.byte	0x4
	.uleb128 .LBB2874-.LBB2861
	.uleb128 .LBE2874-.LBB2861
	.byte	0
.LLRL494:
	.byte	0x5
	.quad	.LBB2862
	.byte	0x4
	.uleb128 .LBB2862-.LBB2862
	.uleb128 .LBE2862-.LBB2862
	.byte	0x4
	.uleb128 .LBB2870-.LBB2862
	.uleb128 .LBE2870-.LBB2862
	.byte	0
.LLRL498:
	.byte	0x5
	.quad	.LBB2864
	.byte	0x4
	.uleb128 .LBB2864-.LBB2864
	.uleb128 .LBE2864-.LBB2864
	.byte	0x4
	.uleb128 .LBB2868-.LBB2864
	.uleb128 .LBE2868-.LBB2864
	.byte	0
.LLRL508:
	.byte	0x5
	.quad	.LBB2878
	.byte	0x4
	.uleb128 .LBB2878-.LBB2878
	.uleb128 .LBE2878-.LBB2878
	.byte	0x4
	.uleb128 .LBB2896-.LBB2878
	.uleb128 .LBE2896-.LBB2878
	.byte	0
.LLRL509:
	.byte	0x5
	.quad	.LBB2879
	.byte	0x4
	.uleb128 .LBB2879-.LBB2879
	.uleb128 .LBE2879-.LBB2879
	.byte	0x4
	.uleb128 .LBB2889-.LBB2879
	.uleb128 .LBE2889-.LBB2879
	.byte	0x4
	.uleb128 .LBB2893-.LBB2879
	.uleb128 .LBE2893-.LBB2879
	.byte	0
.LLRL517:
	.byte	0x7
	.quad	.Ltext0
	.uleb128 .Letext0-.Ltext0
	.byte	0x7
	.quad	.Ltext_cold0
	.uleb128 .Letext_cold0-.Ltext_cold0
	.byte	0
.Ldebug_ranges3:
	.section	.debug_line,"",@progbits
.Ldebug_line0:
	.section	.debug_str,"MS",@progbits,1
.LASF351:
	.string	"_ZNSt6vectorI16SubApertureImageSaIS0_EEC4EOS2_RKS1_St17integral_constantIbLb1EE"
.LASF1090:
	.string	"lconv"
.LASF666:
	.string	"_ZNKSt6vectorIfSaIfEE4cendEv"
.LASF147:
	.string	"_ZNSt6vectorIhSaIhEE19_S_nothrow_relocateESt17integral_constantIbLb1EE"
.LASF688:
	.string	"_ZNSt6vectorIfSaIfEE9push_backERKf"
.LASF529:
	.string	"_ZNKSt6vectorIiSaIiEE4sizeEv"
.LASF944:
	.string	"wmemmove"
.LASF576:
	.string	"initializer_list<int>"
.LASF130:
	.string	"_ZNSt12_Vector_baseIhSaIhEEC4EOS1_RKS0_"
.LASF1132:
	.string	"__int_least64_t"
.LASF1042:
	.string	"_ZNK9__gnu_cxx17__normal_iteratorIPK16SubApertureImageSt6vectorIS1_SaIS1_EEEmiEl"
.LASF414:
	.string	"_ZNSt6vectorI16SubApertureImageSaIS0_EE11_S_max_sizeERKS1_"
.LASF374:
	.string	"_ZNKSt6vectorI16SubApertureImageSaIS0_EE8max_sizeEv"
.LASF1314:
	.string	"__it"
.LASF161:
	.string	"_ZNSt6vectorIhSaIhEEC4EOS1_RKS0_"
.LASF1337:
	.string	"_ZNSt15__new_allocatorIhEC2Ev"
.LASF521:
	.string	"_ZNSt6vectorIiSaIiEE6rbeginEv"
.LASF178:
	.string	"reverse_iterator"
.LASF914:
	.string	"tm_sec"
.LASF420:
	.string	"initializer_list<SubApertureImage>"
.LASF591:
	.string	"_ZNKSt15__new_allocatorIfE7addressERf"
.LASF695:
	.string	"_ZNSt6vectorIfSaIfEE5eraseEN9__gnu_cxx17__normal_iteratorIPKfS1_EE"
.LASF417:
	.string	"_ZNSt6vectorI16SubApertureImageSaIS0_EE8_M_eraseEN9__gnu_cxx17__normal_iteratorIPS0_S2_EES6_"
.LASF1007:
	.string	"_ZN9__gnu_cxx14__alloc_traitsISaI16SubApertureImageES1_E10_S_on_swapERS2_S4_"
.LASF75:
	.string	"allocate"
.LASF358:
	.string	"_ZNSt6vectorI16SubApertureImageSaIS0_EEaSESt16initializer_listIS0_E"
.LASF691:
	.string	"_ZNSt6vectorIfSaIfEE6insertEN9__gnu_cxx17__normal_iteratorIPKfS1_EERS4_"
.LASF1317:
	.string	"__allocmax"
.LASF1331:
	.string	"__vect"
.LASF883:
	.string	"fwide"
.LASF612:
	.string	"_ZNSt12_Vector_baseIfSaIfEE17_Vector_impl_data12_M_swap_dataERS2_"
.LASF1058:
	.string	"__normal_iterator<int const*, std::vector<int, std::allocator<int> > >"
.LASF1110:
	.string	"int_p_sep_by_space"
.LASF507:
	.string	"_ZNSt6vectorIiSaIiEEC4EOS1_RKS0_St17integral_constantIbLb1EE"
.LASF305:
	.string	"_ZNSt16allocator_traitsISaI16SubApertureImageEE8allocateERS1_mPKv"
.LASF210:
	.string	"_ZNKSt6vectorIhSaIhEEixEm"
.LASF317:
	.string	"_ZNSt12_Vector_baseI16SubApertureImageSaIS0_EE12_Vector_implC4ERKS1_"
.LASF1119:
	.string	"__uint8_t"
.LASF887:
	.string	"getwc"
.LASF156:
	.string	"_ZNSt6vectorIhSaIhEEC4ERKS1_"
.LASF1148:
	.string	"7lldiv_t"
.LASF643:
	.string	"_ZNSt6vectorIfSaIfEEC4EmRKfRKS0_"
.LASF965:
	.string	"_ZN9__gnu_cxx14__alloc_traitsISaIhEhE27_S_propagate_on_copy_assignEv"
.LASF1198:
	.string	"fpos_t"
.LASF299:
	.string	"_ZNSaI16SubApertureImageEC4Ev"
.LASF622:
	.string	"_ZNSt12_Vector_baseIfSaIfEEC4Ev"
.LASF1373:
	.string	"refocus_shift_and_sum"
.LASF630:
	.string	"_ZNSt12_Vector_baseIfSaIfEED4Ev"
.LASF1028:
	.string	"_ZNK9__gnu_cxx17__normal_iteratorIP16SubApertureImageSt6vectorIS1_SaIS1_EEE4baseEv"
.LASF1401:
	.string	"outp"
.LASF1276:
	.string	"SubApertureImage"
.LASF974:
	.string	"rebind<unsigned char>"
.LASF719:
	.string	"_ZNSt16initializer_listIfEC4EPKfm"
.LASF648:
	.string	"_ZNSt6vectorIfSaIfEEC4EOS1_RKS0_St17integral_constantIbLb0EE"
.LASF543:
	.string	"_ZNKSt6vectorIiSaIiEE5frontEv"
.LASF731:
	.string	"_UninitDestroyGuard"
.LASF610:
	.string	"_ZNSt12_Vector_baseIfSaIfEE17_Vector_impl_dataC4EOS2_"
.LASF446:
	.string	"_ZNSt15__new_allocatorIiEC4ERKS0_"
.LASF865:
	.string	"_shortbuf"
.LASF232:
	.string	"_ZNSt6vectorIhSaIhEE6insertEN9__gnu_cxx17__normal_iteratorIPKhS1_EESt16initializer_listIhE"
.LASF637:
	.string	"_ZNSt6vectorIfSaIfEE19_S_nothrow_relocateESt17integral_constantIbLb0EE"
.LASF794:
	.string	"_Tp2"
.LASF799:
	.string	"__to_address<(anonymous namespace)::SubParams>"
.LASF954:
	.string	"__gnu_cxx"
.LASF1344:
	.string	"_ZNSt12_Vector_baseIiSaIiEED2Ev"
.LASF164:
	.string	"_ZNSt6vectorIhSaIhEED4Ev"
.LASF1301:
	.string	"operator new"
.LASF517:
	.string	"_ZNSt6vectorIiSaIiEE5beginEv"
.LASF1037:
	.string	"_ZN9__gnu_cxx17__normal_iteratorIPK16SubApertureImageSt6vectorIS1_SaIS1_EEEmmEi"
.LASF960:
	.string	"_S_select_on_copy"
.LASF1113:
	.string	"int_p_sign_posn"
.LASF1275:
	.string	"_ZN9ImageDataC4Ev"
.LASF991:
	.string	"_ZN9__gnu_cxx17__normal_iteratorIPhSt6vectorIhSaIhEEEmmEi"
.LASF900:
	.string	"__isoc23_vfwscanf"
.LASF1036:
	.string	"_ZN9__gnu_cxx17__normal_iteratorIPK16SubApertureImageSt6vectorIS1_SaIS1_EEEmmEv"
.LASF927:
	.string	"wcsncmp"
.LASF239:
	.string	"_ZNSt6vectorIhSaIhEE5clearEv"
.LASF480:
	.string	"_ZNKSt12_Vector_baseIiSaIiEE19_M_get_Tp_allocatorEv"
.LASF309:
	.string	"_ZNSt16allocator_traitsISaI16SubApertureImageEE37select_on_container_copy_constructionERKS1_"
.LASF311:
	.string	"_ZNSt12_Vector_baseI16SubApertureImageSaIS0_EE17_Vector_impl_dataC4Ev"
.LASF202:
	.string	"capacity"
.LASF1316:
	.string	"__diffmax"
.LASF199:
	.string	"_ZNSt6vectorIhSaIhEE6resizeEmRKh"
.LASF384:
	.string	"_ZNSt6vectorI16SubApertureImageSaIS0_EE2atEm"
.LASF293:
	.string	"_ZNKSt15__new_allocatorI16SubApertureImageE7addressERKS0_"
.LASF583:
	.string	"reverse_iterator<__gnu_cxx::__normal_iterator<int*, std::vector<int, std::allocator<int> > > >"
.LASF693:
	.string	"_ZNSt6vectorIfSaIfEE6insertEN9__gnu_cxx17__normal_iteratorIPKfS1_EESt16initializer_listIfE"
.LASF198:
	.string	"_ZNSt6vectorIhSaIhEE6resizeEm"
.LASF1078:
	.string	"__isoc23_wcstoull"
.LASF1201:
	.string	"feof"
.LASF1225:
	.string	"uint16_t"
.LASF1427:
	.string	"__q0"
.LASF698:
	.string	"_ZNSt6vectorIfSaIfEE5clearEv"
.LASF330:
	.string	"_ZNSt12_Vector_baseI16SubApertureImageSaIS0_EEC4EOS2_RKS1_"
.LASF595:
	.string	"_ZNKSt15__new_allocatorIfE8max_sizeEv"
.LASF1151:
	.string	"time_t"
.LASF120:
	.string	"_ZNKSt12_Vector_baseIhSaIhEE19_M_get_Tp_allocatorEv"
.LASF1412:
	.string	"_mm256_cvtepu8_epi32"
.LASF100:
	.string	"_Vector_base<unsigned char, std::allocator<unsigned char> >"
.LASF1008:
	.string	"_ZN9__gnu_cxx14__alloc_traitsISaI16SubApertureImageES1_E27_S_propagate_on_copy_assignEv"
.LASF1277:
	.string	"float_t"
.LASF1068:
	.string	"__normal_iterator<float*, std::vector<float, std::allocator<float> > >"
.LASF762:
	.string	"_ZSt9__fill_a1IhhEN9__gnu_cxx11__enable_ifIXaasrSt9__is_byteIT_E7__valueoosrSt10__are_sameIS3_T0_E7__valuesrSt20__memcpyable_integerIS6_E7__widthEvE6__typeEPS3_SC_RKS6_"
.LASF203:
	.string	"_ZNKSt6vectorIhSaIhEE8capacityEv"
.LASF835:
	.string	"reg_save_area"
.LASF1319:
	.string	"_ZNSt15__new_allocatorIfEC2ERKS0_"
.LASF1363:
	.string	"_ZNSaIfEC2Ev"
.LASF824:
	.string	"min<int>"
.LASF1136:
	.string	"__off_t"
.LASF216:
	.string	"_ZNSt6vectorIhSaIhEE5frontEv"
.LASF72:
	.string	"const_pointer"
.LASF1379:
	.string	"counts"
.LASF430:
	.string	"vector<(anonymous namespace)::SubParams, std::allocator<(anonymous namespace)::SubParams> >"
.LASF659:
	.string	"_ZNSt6vectorIfSaIfEE3endEv"
.LASF81:
	.string	"_ZNKSt15__new_allocatorIhE8max_sizeEv"
.LASF15:
	.string	"_ZNKSt17integral_constantIbLb0EEcvbEv"
.LASF157:
	.string	"_ZNSt6vectorIhSaIhEEC4EOS1_"
.LASF78:
	.string	"deallocate"
.LASF1264:
	.string	"towctrans"
.LASF139:
	.string	"_M_create_storage"
.LASF8:
	.string	"operator std::integral_constant<bool, true>::value_type"
.LASF1409:
	.string	"_ZNSt12_Vector_baseIhSaIhEE12_Vector_implD2Ev"
.LASF682:
	.string	"_ZNSt6vectorIfSaIfEE5frontEv"
.LASF922:
	.string	"tm_isdst"
.LASF1250:
	.string	"_Float128"
.LASF1269:
	.string	"height"
.LASF206:
	.string	"reserve"
.LASF1093:
	.string	"grouping"
.LASF1310:
	.string	"_ZNSt19_UninitDestroyGuardIPivEC2ERS0_"
.LASF866:
	.string	"_lock"
.LASF85:
	.string	"allocator"
.LASF816:
	.string	"_Destroy<int*, int>"
.LASF1075:
	.string	"__isoc23_wcstoll"
.LASF1074:
	.string	"wcstoll"
.LASF131:
	.string	"_ZNSt12_Vector_baseIhSaIhEEC4ERKS0_OS1_"
.LASF522:
	.string	"_ZNKSt6vectorIiSaIiEE6rbeginEv"
.LASF1294:
	.string	"SubParams"
.LASF546:
	.string	"_ZNSt6vectorIiSaIiEE4dataEv"
.LASF777:
	.string	"uninitialized_fill_n<float*, long unsigned int, float>"
.LASF63:
	.string	"operator bool"
.LASF686:
	.string	"_ZNSt6vectorIfSaIfEE4dataEv"
.LASF80:
	.string	"max_size"
.LASF126:
	.string	"_ZNSt12_Vector_baseIhSaIhEEC4Em"
.LASF1081:
	.string	"__max_align_ld"
.LASF558:
	.string	"_ZNSt6vectorIiSaIiEE5clearEv"
.LASF1083:
	.string	"bool"
.LASF721:
	.string	"_ZNKSt16initializer_listIfE4sizeEv"
.LASF124:
	.string	"_ZNSt12_Vector_baseIhSaIhEEC4Ev"
.LASF1163:
	.string	"atoi"
.LASF1080:
	.string	"__max_align_ll"
.LASF1164:
	.string	"atol"
.LASF267:
	.string	"_ZNSt6vectorIhSaIhEE8_M_eraseEN9__gnu_cxx17__normal_iteratorIPhS1_EE"
.LASF10:
	.string	"_ZNKSt17integral_constantIbLb1EEcvbEv"
.LASF530:
	.string	"_ZNKSt6vectorIiSaIiEE8max_sizeEv"
.LASF928:
	.string	"wcsncpy"
.LASF1017:
	.string	"_ZNK9__gnu_cxx17__normal_iteratorIP16SubApertureImageSt6vectorIS1_SaIS1_EEEdeEv"
.LASF930:
	.string	"wcsspn"
.LASF1390:
	.string	"ind_rbot"
.LASF1360:
	.string	"_ZNSt6vectorIfSaIfEED2Ev"
.LASF217:
	.string	"_ZNKSt6vectorIhSaIhEE5frontEv"
.LASF363:
	.string	"_ZNSt6vectorI16SubApertureImageSaIS0_EE3endEv"
.LASF16:
	.string	"_ZNKSt17integral_constantIbLb0EEclEv"
.LASF795:
	.string	"_Destroy<int*>"
.LASF613:
	.string	"_ZNSt12_Vector_baseIfSaIfEE12_Vector_implC4Ev"
.LASF151:
	.string	"vector"
.LASF259:
	.string	"_ZNKSt6vectorIhSaIhEE12_M_check_lenEmPKc"
.LASF1154:
	.string	"int32_t"
.LASF1246:
	.string	"intmax_t"
.LASF1192:
	.string	"__pos"
.LASF297:
	.string	"_ZNKSt15__new_allocatorI16SubApertureImageE11_M_max_sizeEv"
.LASF53:
	.string	"__debug"
.LASF756:
	.string	"_ZSt20__throw_length_errorPKc"
.LASF1265:
	.string	"wctrans"
.LASF497:
	.string	"_ZNSt6vectorIiSaIiEE19_S_nothrow_relocateESt17integral_constantIbLb0EE"
.LASF229:
	.string	"insert"
.LASF257:
	.string	"_ZNSt6vectorIhSaIhEE14_M_emplace_auxEN9__gnu_cxx17__normal_iteratorIPKhS1_EEOh"
.LASF505:
	.string	"_ZNSt6vectorIiSaIiEEC4EOS1_"
.LASF537:
	.string	"_ZNSt6vectorIiSaIiEEixEm"
.LASF1115:
	.string	"setlocale"
.LASF1426:
	.string	"__q1"
.LASF170:
	.string	"_ZNSt6vectorIhSaIhEE6assignESt16initializer_listIhE"
.LASF1247:
	.string	"uintmax_t"
.LASF645:
	.string	"_ZNSt6vectorIfSaIfEEC4EOS1_"
.LASF1432:
	.string	"memcpy"
.LASF905:
	.string	"vwscanf"
.LASF54:
	.string	"__cxx11"
.LASF264:
	.string	"_M_erase_at_end"
.LASF487:
	.string	"_ZNSt12_Vector_baseIiSaIiEEC4EOS0_"
.LASF599:
	.string	"_ZNSaIfEC4ERKS_"
.LASF499:
	.string	"_ZNSt6vectorIiSaIiEE11_S_relocateEPiS2_S2_RS0_"
.LASF627:
	.string	"_ZNSt12_Vector_baseIfSaIfEEC4EOS0_"
.LASF61:
	.string	"_ZNSt15__new_allocatorIhEC4Ev"
.LASF1447:
	.string	"11max_align_t"
.LASF647:
	.string	"_ZNSt6vectorIfSaIfEEC4EOS1_RKS0_St17integral_constantIbLb1EE"
.LASF263:
	.string	"_ZNSt6vectorIhSaIhEE11_S_max_sizeERKS0_"
.LASF541:
	.string	"_ZNKSt6vectorIiSaIiEE2atEm"
.LASF356:
	.string	"_ZNSt6vectorI16SubApertureImageSaIS0_EEaSERKS2_"
.LASF457:
	.string	"_ZNSaIiEC4ERKS_"
.LASF1429:
	.string	"_Z14_mm_set_epi64xxx"
.LASF1131:
	.string	"__uint_least32_t"
.LASF1140:
	.string	"__syscall_slong_t"
.LASF1435:
	.string	"__builtin_memset"
.LASF886:
	.string	"__isoc23_fwscanf"
.LASF1438:
	.ascii	"GNU C++17 16.0.1 20260425 (prerelease) [gcc-16 r16-8812-gd9c"
	.ascii	"07462a22] -march=tigerlake -mmmx -mpopcnt -msse -msse2 -msse"
	.ascii	"3 -mssse3 -msse4.1 -msse4.2 -mavx -mno-sse4a -mno-fma4 -mno-"
	.ascii	"xop -mavx512f -mbmi -mbmi2 -maes -mpclmul -mavx512vl -mavx51"
	.ascii	"2bw -mavx512dq -mavx512cd -mavx512vbmi -mavx512ifma -mavx512"
	.ascii	"vpopcntdq -mavx512vbmi2 -mgfni -mvpclmulqdq -mavx512vnni -ma"
	.ascii	"vx512bitalg -mno-avx512bf16 -mavx512vp2intersect -mno-3dnow "
	.ascii	"-madx -mabm -mno-cldemote -mclflushopt -mclwb -mno-clzero -m"
	.ascii	"cx16 -mno-enqcmd -mf16c -mfsgsbase -mfxsr -mno-hle -msahf -m"
	.ascii	"no-lwp -mlzcnt -mmovbe -mmovdir64b -mmovdiri -mno-mwaitx -mn"
	.ascii	"o-pconfig -mpku -mprfchw -mno-ptwrite -mrdpid -mrdrnd -mrdse"
	.ascii	"ed -mno-rtm -mno-serialize -mno-sgx -msha -mshstk -mno-tbm -"
	.ascii	"mno-tsxldtrk -mvaes -mno-waitpkg -mno-wbnoinvd -mxsave -mxsa"
	.ascii	"vec -mxsaveopt -mxsaves -mno-amx-tile -mno-amx-int8 -mno-amx"
	.ascii	"-bf16 -mno-uintr -mno-hreset -mno-kl -mno-widekl -mno-avxvnn"
	.ascii	"i -mno-avx512fp16 -mno-avxifma -mno-avxvnniint8 -mno-avxneco"
	.ascii	"nvert -mno-cmpccxadd -mno-amx-fp16 -mno-prefetchi -mno-raoin"
	.ascii	"t -mno-amx-complex -mno-avxvnniint16 -mno-sm3 -mno-sha512 -m"
	.ascii	"no-sm4 -mno-apxf -mno-usermsr -mno-avx10.1 -mno-avx10.2 -mno"
	.ascii	"-amx-a"
	.string	"vx512 -mno-amx-tf32 -mno-amx-fp8 -mno-movrs -mno-amx-movrs -mno-avx512bmm --param=l1-cache-size=48 --param=l1-cache-line-size=64 --param=l2-cache-size=8192 -mtune=tigerlake -mavx2 -mfma -masm=intel -g -O3 -std=c++17 -ffast-math -fasynchronous-unwind-tables"
.LASF985:
	.string	"_ZNK9__gnu_cxx17__normal_iteratorIPhSt6vectorIhSaIhEEEptEv"
.LASF636:
	.string	"_ZNSt6vectorIfSaIfEE19_S_nothrow_relocateESt17integral_constantIbLb1EE"
.LASF99:
	.string	"rebind_alloc"
.LASF852:
	.string	"_IO_write_end"
.LASF1177:
	.string	"__isoc23_strtol"
.LASF79:
	.string	"_ZNSt15__new_allocatorIhE10deallocateEPhm"
.LASF459:
	.string	"_ZNSaIiED4Ev"
.LASF781:
	.string	"max<long unsigned int>"
.LASF486:
	.string	"_ZNSt12_Vector_baseIiSaIiEEC4EOS1_"
.LASF1346:
	.string	"_ZNSt12_Vector_baseIiSaIiEE12_Vector_implD2Ev"
.LASF709:
	.string	"_ZNSt6vectorIfSaIfEE17_S_check_init_lenEmRKS0_"
.LASF7:
	.string	"value_type"
.LASF1231:
	.string	"int_least64_t"
.LASF626:
	.string	"_ZNSt12_Vector_baseIfSaIfEEC4EOS1_"
.LASF1182:
	.string	"wctomb"
.LASF47:
	.string	"nullptr_t"
.LASF937:
	.string	"long int"
.LASF667:
	.string	"_ZNKSt6vectorIfSaIfEE7crbeginEv"
.LASF228:
	.string	"_ZNSt6vectorIhSaIhEE8pop_backEv"
.LASF1044:
	.string	"__alloc_traits<std::allocator<(anonymous namespace)::SubParams>, (anonymous namespace)::SubParams>"
.LASF614:
	.string	"_ZNSt12_Vector_baseIfSaIfEE12_Vector_implC4ERKS0_"
.LASF1229:
	.string	"int_least16_t"
.LASF831:
	.string	"_ZSt17__size_to_integerm"
.LASF1063:
	.string	"_ZN9__gnu_cxx14__alloc_traitsISaIfEfE27_S_propagate_on_move_assignEv"
.LASF1270:
	.string	"index"
.LASF90:
	.string	"_ZNSaIhED4Ev"
.LASF1327:
	.string	"_ZNSaIfEC2ERKS_"
.LASF262:
	.string	"_S_max_size"
.LASF1186:
	.string	"__isoc23_strtoll"
.LASF587:
	.string	"_ZNSt15__new_allocatorIfEC4Ev"
.LASF1217:
	.string	"rename"
.LASF1338:
	.string	"_ZNSaIhEC2ERKS_"
.LASF949:
	.string	"wcschr"
.LASF173:
	.string	"_ZNSt6vectorIhSaIhEE5beginEv"
.LASF29:
	.string	"_ZNKSt15__exception_ptr13exception_ptr6_M_getEv"
.LASF1329:
	.string	"_ZNSaIiEC2ERKS_"
.LASF754:
	.string	"_ZSt17__throw_bad_allocv"
.LASF1062:
	.string	"_ZN9__gnu_cxx14__alloc_traitsISaIfEfE27_S_propagate_on_copy_assignEv"
.LASF1259:
	.string	"localtime"
.LASF734:
	.string	"_ZNSt19_UninitDestroyGuardIPivED4Ev"
.LASF1228:
	.string	"int_least8_t"
.LASF952:
	.string	"wcsstr"
.LASF690:
	.string	"_ZNSt6vectorIfSaIfEE8pop_backEv"
.LASF1208:
	.string	"fread"
.LASF1101:
	.string	"int_frac_digits"
.LASF1071:
	.string	"_ZN9__gnu_cxxneERKNS_17__normal_iteratorIP16SubApertureImageSt6vectorIS1_SaIS1_EEEES8_"
.LASF1355:
	.string	"__sz"
.LASF804:
	.string	"fill_n<unsigned char*, long unsigned int, unsigned char>"
.LASF745:
	.string	"_ZNSt19_UninitDestroyGuardIPfvEC4ERS0_"
.LASF463:
	.string	"_ZNSt16allocator_traitsISaIiEE10deallocateERS0_Pim"
.LASF323:
	.string	"_ZNKSt12_Vector_baseI16SubApertureImageSaIS0_EE13get_allocatorEv"
.LASF1092:
	.string	"thousands_sep"
.LASF1349:
	.string	"__old_start"
.LASF56:
	.string	"chrono_literals"
.LASF1216:
	.string	"remove"
.LASF631:
	.string	"_ZNSt12_Vector_baseIfSaIfEE11_M_allocateEm"
.LASF931:
	.string	"wcstod"
.LASF1135:
	.string	"__uintmax_t"
.LASF933:
	.string	"wcstof"
.LASF1375:
	.string	"subapertures"
.LASF609:
	.string	"_ZNSt12_Vector_baseIfSaIfEE17_Vector_impl_dataC4Ev"
.LASF934:
	.string	"wcstok"
.LASF935:
	.string	"wcstol"
.LASF454:
	.string	"_ZNKSt15__new_allocatorIiE11_M_max_sizeEv"
.LASF110:
	.string	"_M_swap_data"
.LASF679:
	.string	"_ZNKSt6vectorIfSaIfEE14_M_range_checkEm"
.LASF412:
	.string	"_ZNKSt6vectorI16SubApertureImageSaIS0_EE12_M_check_lenEmPKc"
.LASF415:
	.string	"_ZNSt6vectorI16SubApertureImageSaIS0_EE15_M_erase_at_endEPS0_"
.LASF436:
	.string	"~_Guard_alloc"
.LASF146:
	.string	"_S_nothrow_relocate"
.LASF1304:
	.string	"__first"
.LASF236:
	.string	"_ZNSt6vectorIhSaIhEE5eraseEN9__gnu_cxx17__normal_iteratorIPKhS1_EES6_"
.LASF1404:
	.string	"__rhs"
.LASF223:
	.string	"_ZNKSt6vectorIhSaIhEE4dataEv"
.LASF1149:
	.string	"lldiv_t"
.LASF1204:
	.string	"fgetc"
.LASF1183:
	.string	"lldiv"
.LASF1138:
	.string	"__clock_t"
.LASF680:
	.string	"_ZNSt6vectorIfSaIfEE2atEm"
.LASF455:
	.string	"allocator<int>"
.LASF820:
	.string	"_Allocator"
.LASF790:
	.string	"_Destroy<float*>"
.LASF37:
	.string	"_ZNSt15__exception_ptr13exception_ptraSERKS0_"
.LASF273:
	.string	"_ZNKSt6vectorIhSaIhEE11_M_data_ptrIhEEPT_S4_"
.LASF437:
	.string	"_M_realloc_append<const (anonymous namespace)::SubParams&>"
.LASF737:
	.string	"_M_first"
.LASF1043:
	.string	"_ZNK9__gnu_cxx17__normal_iteratorIPK16SubApertureImageSt6vectorIS1_SaIS1_EEE4baseEv"
.LASF982:
	.string	"operator*"
.LASF995:
	.string	"operator+"
.LASF999:
	.string	"operator-"
.LASF1141:
	.string	"__gnu_debug"
.LASF394:
	.string	"_ZNSt6vectorI16SubApertureImageSaIS0_EE8pop_backEv"
.LASF815:
	.string	"_ZSt8_DestroyIPffEvT_S1_RSaIT0_E"
.LASF1120:
	.string	"__int16_t"
.LASF945:
	.string	"wmemset"
.LASF36:
	.string	"operator="
.LASF1121:
	.string	"__uint16_t"
.LASF481:
	.string	"_ZNKSt12_Vector_baseIiSaIiEE13get_allocatorEv"
.LASF877:
	.string	"btowc"
.LASF1388:
	.string	"ind_lbot"
.LASF168:
	.string	"assign"
.LASF1285:
	.string	"__m128i"
.LASF1308:
	.string	"__args"
.LASF694:
	.string	"_ZNSt6vectorIfSaIfEE6insertEN9__gnu_cxx17__normal_iteratorIPKfS1_EEmRS4_"
.LASF496:
	.string	"_ZNSt6vectorIiSaIiEE19_S_nothrow_relocateESt17integral_constantIbLb1EE"
.LASF253:
	.string	"_ZNSt6vectorIhSaIhEE16_M_shrink_to_fitEv"
.LASF893:
	.string	"putwchar"
.LASF628:
	.string	"_ZNSt12_Vector_baseIfSaIfEEC4EOS1_RKS0_"
.LASF1064:
	.string	"_ZN9__gnu_cxx14__alloc_traitsISaIfEfE20_S_propagate_on_swapEv"
.LASF500:
	.string	"_ZNSt6vectorIiSaIiEEC4Ev"
.LASF1129:
	.string	"__uint_least16_t"
.LASF561:
	.string	"_ZNSt6vectorIiSaIiEE14_M_fill_assignEmRKi"
.LASF654:
	.string	"_ZNSt6vectorIfSaIfEEaSESt16initializer_listIfE"
.LASF1095:
	.string	"currency_symbol"
.LASF1278:
	.string	"double_t"
.LASF1365:
	.string	"_ZNSt6vectorIiSaIiEEC2EmRKiRKS0_"
.LASF728:
	.string	"iterator_traits<const SubApertureImage*>"
.LASF784:
	.string	"_ZSt10__fill_n_aIPhmhET_S1_T0_RKT1_St26random_access_iterator_tag"
.LASF569:
	.string	"_ZNSt6vectorIiSaIiEE17_S_check_init_lenEmRKS0_"
.LASF283:
	.string	"_ZSt3absd"
.LASF155:
	.string	"_ZNSt6vectorIhSaIhEEC4EmRKhRKS0_"
.LASF295:
	.string	"_ZNSt15__new_allocatorI16SubApertureImageE10deallocateEPS0_m"
.LASF570:
	.string	"_ZNSt6vectorIiSaIiEE11_S_max_sizeERKS0_"
.LASF859:
	.string	"_chain"
.LASF115:
	.string	"_ZNSt12_Vector_baseIhSaIhEE12_Vector_implC4EOS0_"
.LASF1111:
	.string	"int_n_cs_precedes"
.LASF231:
	.string	"_ZNSt6vectorIhSaIhEE6insertEN9__gnu_cxx17__normal_iteratorIPKhS1_EEOh"
.LASF1012:
	.string	"_ZN9__gnu_cxx14__alloc_traitsISaI16SubApertureImageES1_E15_S_nothrow_moveEv"
.LASF578:
	.string	"initializer_list"
.LASF490:
	.string	"_ZNSt12_Vector_baseIiSaIiEED4Ev"
.LASF1414:
	.string	"_mm256_set1_ps"
.LASF700:
	.string	"_ZNSt6vectorIfSaIfEE21_M_default_initializeEm"
.LASF1142:
	.string	"11__mbstate_t"
.LASF549:
	.string	"_ZNSt6vectorIiSaIiEE9push_backEOi"
.LASF3:
	.string	"unsigned char"
.LASF1013:
	.string	"rebind<SubApertureImage>"
.LASF494:
	.string	"__type_identity<std::allocator<int> >"
.LASF1273:
	.string	"_ZNK9ImageData2atEmmm"
.LASF52:
	.string	"random_access_iterator_tag"
.LASF940:
	.string	"wcsxfrm"
.LASF450:
	.string	"_ZNKSt15__new_allocatorIiE7addressERKi"
.LASF1392:
	.string	"remaining"
.LASF925:
	.string	"wcslen"
.LASF479:
	.string	"_ZNSt12_Vector_baseIiSaIiEE19_M_get_Tp_allocatorEv"
.LASF1050:
	.string	"_ZN9__gnu_cxx14__alloc_traitsISaIiEiE10_S_on_swapERS1_S3_"
.LASF2:
	.string	"float"
.LASF83:
	.string	"_ZNKSt15__new_allocatorIhE11_M_max_sizeEv"
.LASF334:
	.string	"_ZNSt12_Vector_baseI16SubApertureImageSaIS0_EE13_M_deallocateEPS0_m"
.LASF687:
	.string	"_ZNKSt6vectorIfSaIfEE4dataEv"
.LASF18:
	.string	"__bool_constant"
.LASF461:
	.string	"_ZNSt16allocator_traitsISaIiEE8allocateERS0_m"
.LASF475:
	.string	"_ZNSt12_Vector_baseIiSaIiEE12_Vector_implC4EOS0_OS2_"
.LASF903:
	.string	"__isoc23_vswscanf"
.LASF429:
	.string	"__type_identity<std::allocator<(anonymous namespace)::SubParams> >"
.LASF1242:
	.string	"uint_fast32_t"
.LASF404:
	.string	"_ZNSt6vectorI16SubApertureImageSaIS0_EE21_M_default_initializeEm"
.LASF1377:
	.string	"output"
.LASF119:
	.string	"_ZNSt12_Vector_baseIhSaIhEE19_M_get_Tp_allocatorEv"
.LASF1234:
	.string	"uint_least32_t"
.LASF717:
	.string	"_ZNKSt6vectorIfSaIfEE11_M_data_ptrIfEEPT_S4_"
.LASF970:
	.string	"_S_always_equal"
.LASF315:
	.string	"_ZNSt12_Vector_baseI16SubApertureImageSaIS0_EE17_Vector_impl_data12_M_swap_dataERS3_"
.LASF817:
	.string	"_ZSt8_DestroyIPiiEvT_S1_RSaIT0_E"
.LASF598:
	.string	"_ZNSaIfEC4Ev"
.LASF689:
	.string	"_ZNSt6vectorIfSaIfEE9push_backEOf"
.LASF183:
	.string	"rend"
.LASF746:
	.string	"_ZNSt19_UninitDestroyGuardIPfvED4Ev"
.LASF1219:
	.string	"setbuf"
.LASF1413:
	.string	"_Z20_mm256_cvtepu8_epi32Dv2_x"
.LASF502:
	.string	"_ZNSt6vectorIiSaIiEEC4EmRKS0_"
.LASF337:
	.string	"vector<SubApertureImage, std::allocator<SubApertureImage> >"
.LASF1286:
	.string	"__m128i_u"
.LASF956:
	.string	"_S_single"
.LASF773:
	.string	"__fill_a1<unsigned char*, std::vector<unsigned char>, unsigned char>"
.LASF251:
	.string	"_ZNSt6vectorIhSaIhEE17_M_default_appendEm"
.LASF638:
	.string	"_ZNSt6vectorIfSaIfEE15_S_use_relocateEv"
.LASF40:
	.string	"_ZNSt15__exception_ptr13exception_ptrD4Ev"
.LASF1423:
	.string	"_Z15_mm_loadl_epi64PKDv2_x"
.LASF477:
	.string	"_ZNSt12_Vector_baseIhSaIhEE12_Vector_implD4Ev"
.LASF924:
	.string	"tm_zone"
.LASF1227:
	.string	"uint64_t"
.LASF66:
	.string	"~__new_allocator"
.LASF885:
	.string	"fwscanf"
.LASF1030:
	.string	"_ZN9__gnu_cxx17__normal_iteratorIPK16SubApertureImageSt6vectorIS1_SaIS1_EEEC4Ev"
.LASF254:
	.string	"_M_insert_rval"
.LASF913:
	.string	"wcsftime"
.LASF1032:
	.string	"_ZNK9__gnu_cxx17__normal_iteratorIPK16SubApertureImageSt6vectorIS1_SaIS1_EEEdeEv"
.LASF980:
	.string	"_ZN9__gnu_cxx17__normal_iteratorIPhSt6vectorIhSaIhEEEC4Ev"
.LASF460:
	.string	"allocator_traits<std::allocator<int> >"
.LASF24:
	.string	"_M_addref"
.LASF619:
	.string	"_ZNSt12_Vector_baseIfSaIfEE19_M_get_Tp_allocatorEv"
.LASF523:
	.string	"_ZNSt6vectorIiSaIiEE4rendEv"
.LASF379:
	.string	"_ZNKSt6vectorI16SubApertureImageSaIS0_EE5emptyEv"
.LASF64:
	.string	"_ZNKSt15__exception_ptr13exception_ptrcvbEv"
.LASF1274:
	.string	"~ImageData"
.LASF671:
	.string	"_ZNSt6vectorIfSaIfEE6resizeEm"
.LASF663:
	.string	"_ZNSt6vectorIfSaIfEE4rendEv"
.LASF271:
	.string	"_ZNSt6vectorIhSaIhEE14_M_move_assignEOS1_St17integral_constantIbLb0EE"
.LASF77:
	.string	"size_type"
.LASF1218:
	.string	"rewind"
.LASF422:
	.string	"reverse_iterator<__gnu_cxx::__normal_iterator<const SubApertureImage*, std::vector<SubApertureImage, std::allocator<SubApertureImage> > > >"
.LASF1279:
	.string	"_Float32x"
.LASF372:
	.string	"_ZNKSt6vectorI16SubApertureImageSaIS0_EE5crendEv"
.LASF616:
	.string	"_ZNSt12_Vector_baseIfSaIfEE12_Vector_implC4EOS0_"
.LASF313:
	.string	"_ZNSt12_Vector_baseI16SubApertureImageSaIS0_EE17_Vector_impl_data12_M_copy_dataERKS3_"
.LASF1296:
	.string	"x_end"
.LASF1436:
	.string	"_Unwind_Resume"
.LASF550:
	.string	"_ZNSt6vectorIiSaIiEE8pop_backEv"
.LASF488:
	.string	"_ZNSt12_Vector_baseIiSaIiEEC4EOS1_RKS0_"
.LASF651:
	.string	"_ZNSt6vectorIfSaIfEED4Ev"
.LASF665:
	.string	"_ZNKSt6vectorIfSaIfEE6cbeginEv"
.LASF171:
	.string	"iterator"
.LASF1190:
	.string	"strtold"
.LASF1011:
	.string	"_ZN9__gnu_cxx14__alloc_traitsISaI16SubApertureImageES1_E15_S_always_equalEv"
.LASF1185:
	.string	"strtoll"
.LASF1039:
	.string	"_ZN9__gnu_cxx17__normal_iteratorIPK16SubApertureImageSt6vectorIS1_SaIS1_EEEpLEl"
.LASF699:
	.string	"_ZNSt6vectorIfSaIfEE18_M_fill_initializeEmRKf"
.LASF452:
	.string	"_ZNSt15__new_allocatorIiE10deallocateEPim"
.LASF594:
	.string	"_ZNSt15__new_allocatorIfE10deallocateEPfm"
.LASF994:
	.string	"_ZN9__gnu_cxx17__normal_iteratorIPhSt6vectorIhSaIhEEEpLEl"
.LASF290:
	.string	"_ZNSt15__new_allocatorI16SubApertureImageEaSERKS1_"
.LASF1160:
	.string	"atexit"
.LASF851:
	.string	"_IO_write_ptr"
.LASF1172:
	.string	"quick_exit"
.LASF669:
	.string	"_ZNKSt6vectorIfSaIfEE4sizeEv"
.LASF413:
	.string	"_ZNSt6vectorI16SubApertureImageSaIS0_EE17_S_check_init_lenEmRKS1_"
.LASF1437:
	.string	"__builtin_unwind_resume"
.LASF1100:
	.string	"negative_sign"
.LASF585:
	.string	"iterator_traits<(anonymous namespace)::SubParams*>"
.LASF411:
	.string	"_ZNSt6vectorI16SubApertureImageSaIS0_EE14_M_emplace_auxEN9__gnu_cxx17__normal_iteratorIPKS0_S2_EEOS0_"
.LASF513:
	.string	"_ZNSt6vectorIiSaIiEEaSEOS1_"
.LASF1126:
	.string	"__int_least8_t"
.LASF908:
	.string	"wcscat"
.LASF1396:
	.string	"rbot_b"
.LASF653:
	.string	"_ZNSt6vectorIfSaIfEEaSEOS1_"
.LASF975:
	.string	"other"
.LASF805:
	.string	"_ZSt6fill_nIPhmhET_S1_T0_RKT1_"
.LASF140:
	.string	"_ZNSt12_Vector_baseIhSaIhEE17_M_create_storageEm"
.LASF635:
	.string	"vector<float, std::allocator<float> >"
.LASF432:
	.string	"_Guard_alloc"
.LASF163:
	.string	"~vector"
.LASF294:
	.string	"_ZNSt15__new_allocatorI16SubApertureImageE8allocateEmPKv"
.LASF600:
	.string	"_ZNSaIfEaSERKS_"
.LASF1212:
	.string	"ftell"
.LASF527:
	.string	"_ZNKSt6vectorIiSaIiEE7crbeginEv"
.LASF1266:
	.string	"wctype"
.LASF1094:
	.string	"int_curr_symbol"
.LASF11:
	.string	"_ZNKSt17integral_constantIbLb1EEclEv"
.LASF65:
	.string	"_ZNSt15__new_allocatorIhEaSERKS0_"
.LASF88:
	.string	"_ZNSaIhEaSERKS_"
.LASF153:
	.string	"_ZNSt6vectorIhSaIhEEC4ERKS0_"
.LASF803:
	.string	"_Destroy<(anonymous namespace)::SubParams*>"
.LASF458:
	.string	"_ZNSaIiEaSERKS_"
.LASF767:
	.string	"_ZSt18__do_uninit_fill_nIPimiET_S1_T0_RKT1_"
.LASF1015:
	.string	"_ZN9__gnu_cxx17__normal_iteratorIP16SubApertureImageSt6vectorIS1_SaIS1_EEEC4Ev"
.LASF615:
	.string	"_ZNSt12_Vector_baseIfSaIfEE12_Vector_implC4EOS2_"
.LASF1292:
	.string	"_Float16"
.LASF46:
	.string	"_ZSt17rethrow_exceptionNSt15__exception_ptr13exception_ptrE"
.LASF708:
	.string	"_ZNKSt6vectorIfSaIfEE12_M_check_lenEmPKc"
.LASF1024:
	.string	"_ZN9__gnu_cxx17__normal_iteratorIP16SubApertureImageSt6vectorIS1_SaIS1_EEEpLEl"
.LASF194:
	.string	"size"
.LASF519:
	.string	"_ZNSt6vectorIiSaIiEE3endEv"
.LASF1016:
	.string	"_ZN9__gnu_cxx17__normal_iteratorIP16SubApertureImageSt6vectorIS1_SaIS1_EEEC4ERKS2_"
.LASF19:
	.string	"__swappable_details"
.LASF1380:
	.string	"diff"
.LASF723:
	.string	"_ZNKSt16initializer_listIiE3endEv"
.LASF1272:
	.string	"_ZN9ImageData2atEmmm"
.LASF875:
	.string	"FILE"
.LASF214:
	.string	"_ZNKSt6vectorIhSaIhEE2atEm"
.LASF476:
	.string	"~_Vector_impl"
.LASF478:
	.string	"_ZNSt12_Vector_baseIiSaIiEE12_Vector_implD4Ev"
.LASF1405:
	.string	"_ZN9ImageDataD2Ev"
.LASF108:
	.string	"_M_copy_data"
.LASF1252:
	.string	"clock"
.LASF238:
	.string	"clear"
.LASF122:
	.string	"_ZNKSt12_Vector_baseIhSaIhEE13get_allocatorEv"
.LASF1256:
	.string	"asctime"
.LASF1018:
	.string	"_ZNK9__gnu_cxx17__normal_iteratorIP16SubApertureImageSt6vectorIS1_SaIS1_EEEptEv"
.LASF44:
	.string	"_ZNKSt15__exception_ptr13exception_ptr20__cxa_exception_typeEv"
.LASF1221:
	.string	"tmpfile"
.LASF107:
	.string	"_ZNSt12_Vector_baseIhSaIhEE17_Vector_impl_dataC4EOS2_"
.LASF703:
	.string	"_ZNSt6vectorIfSaIfEE14_M_fill_appendEmRKf"
.LASF747:
	.string	"_ZNSt19_UninitDestroyGuardIPfvE7releaseEv"
.LASF772:
	.string	"_ZSt12__niter_baseIPhET_S1_"
.LASF602:
	.string	"allocator_traits<std::allocator<float> >"
.LASF6:
	.string	"size_t"
.LASF807:
	.string	"_ZSt24__uninitialized_fill_n_aIPhmhhET_S1_T0_RKT1_RSaIT2_E"
.LASF624:
	.string	"_ZNSt12_Vector_baseIfSaIfEEC4Em"
.LASF1023:
	.string	"_ZNK9__gnu_cxx17__normal_iteratorIP16SubApertureImageSt6vectorIS1_SaIS1_EEEixEl"
.LASF1258:
	.string	"gmtime"
.LASF840:
	.string	"__count"
.LASF1284:
	.string	"__v16qi"
.LASF1224:
	.string	"uint8_t"
.LASF1144:
	.string	"quot"
.LASF715:
	.string	"_ZNSt6vectorIfSaIfEE14_M_move_assignEOS1_St17integral_constantIbLb0EE"
.LASF950:
	.string	"wcspbrk"
.LASF1391:
	.string	"x_stop"
.LASF215:
	.string	"front"
.LASF96:
	.string	"_ZNSt16allocator_traitsISaIhEE8max_sizeERKS0_"
.LASF300:
	.string	"_ZNSaI16SubApertureImageEC4ERKS0_"
.LASF288:
	.string	"_ZNSt15__new_allocatorI16SubApertureImageEC4Ev"
.LASF1348:
	.string	"_ZNSt15__new_allocatorIiEC2Ev"
.LASF770:
	.string	"_FIte"
.LASF1248:
	.string	"_Float32"
.LASF520:
	.string	"_ZNKSt6vectorIiSaIiEE3endEv"
.LASF1215:
	.string	"perror"
.LASF978:
	.string	"_M_current"
.LASF316:
	.string	"_ZNSt12_Vector_baseI16SubApertureImageSaIS0_EE12_Vector_implC4Ev"
.LASF342:
	.string	"_ZNSt6vectorI16SubApertureImageSaIS0_EE15_S_use_relocateEv"
.LASF1130:
	.string	"__int_least32_t"
.LASF402:
	.string	"_ZNSt6vectorI16SubApertureImageSaIS0_EE5clearEv"
.LASF725:
	.string	"reverse_iterator<__gnu_cxx::__normal_iterator<float*, std::vector<float, std::allocator<float> > > >"
.LASF1315:
	.string	"_ZNSt12_Vector_baseIhSaIhEE12_Vector_implC2ERKS0_"
.LASF246:
	.string	"_M_fill_insert"
.LASF878:
	.string	"fgetwc"
.LASF855:
	.string	"_IO_save_base"
.LASF1238:
	.string	"int_fast32_t"
.LASF365:
	.string	"_ZNSt6vectorI16SubApertureImageSaIS0_EE6rbeginEv"
.LASF710:
	.string	"_ZNSt6vectorIfSaIfEE11_S_max_sizeERKS0_"
.LASF1439:
	.string	"_ZNSt15__exception_ptr4swapERNS_13exception_ptrES1_"
.LASF657:
	.string	"_ZNSt6vectorIfSaIfEE5beginEv"
.LASF268:
	.string	"_ZNSt6vectorIhSaIhEE8_M_eraseEN9__gnu_cxx17__normal_iteratorIPhS1_EES5_"
.LASF418:
	.string	"_ZNSt6vectorI16SubApertureImageSaIS0_EE14_M_move_assignEOS2_St17integral_constantIbLb1EE"
.LASF941:
	.string	"wctob"
.LASF874:
	.string	"_unused2"
.LASF620:
	.string	"_ZNKSt12_Vector_baseIfSaIfEE19_M_get_Tp_allocatorEv"
.LASF633:
	.string	"_ZNSt12_Vector_baseIfSaIfEE17_M_create_storageEm"
.LASF307:
	.string	"_ZNSt16allocator_traitsISaI16SubApertureImageEE10deallocateERS1_PS0_m"
.LASF884:
	.string	"fwprintf"
.LASF1415:
	.string	"_Z14_mm256_set1_psf"
.LASF1134:
	.string	"__intmax_t"
.LASF506:
	.string	"_ZNSt6vectorIiSaIiEEC4ERKS1_RKS0_"
.LASF138:
	.string	"_ZNSt12_Vector_baseIhSaIhEE13_M_deallocateEPhm"
.LASF435:
	.string	"_M_vect"
.LASF244:
	.string	"_M_fill_assign"
.LASF839:
	.string	"__wchb"
.LASF1267:
	.string	"ImageData"
.LASF676:
	.string	"_ZNSt6vectorIfSaIfEE7reserveEm"
.LASF1084:
	.string	"__int128 unsigned"
.LASF386:
	.string	"_ZNSt6vectorI16SubApertureImageSaIS0_EE5frontEv"
.LASF12:
	.string	"integral_constant<bool, true>"
.LASF738:
	.string	"_M_cur"
.LASF393:
	.string	"_ZNSt6vectorI16SubApertureImageSaIS0_EE9push_backEOS0_"
.LASF390:
	.string	"_ZNSt6vectorI16SubApertureImageSaIS0_EE4dataEv"
.LASF606:
	.string	"_ZNSt16allocator_traitsISaIfEE8max_sizeERKS0_"
.LASF750:
	.string	"_ZNSt19_UninitDestroyGuardIPfvE10_S_destroyIS0_EEvT_S3_"
.LASF258:
	.string	"_M_check_len"
.LASF470:
	.string	"_ZNSt12_Vector_baseIiSaIiEE17_Vector_impl_data12_M_swap_dataERS2_"
.LASF837:
	.string	"wint_t"
.LASF1168:
	.string	"mblen"
.LASF117:
	.string	"_Tp_alloc_type"
.LASF1393:
	.string	"ltop_b"
.LASF898:
	.string	"vfwprintf"
.LASF753:
	.string	"_ZSt28__throw_bad_array_new_lengthv"
.LASF1384:
	.string	"__for_end"
.LASF91:
	.string	"allocator_traits<std::allocator<unsigned char> >"
.LASF465:
	.string	"_ZNSt16allocator_traitsISaIiEE37select_on_container_copy_constructionERKS0_"
.LASF67:
	.string	"_ZNSt15__new_allocatorIhED4Ev"
.LASF1341:
	.string	"_ZNSt12_Vector_baseIfSaIfEE12_Vector_implD2Ev"
.LASF589:
	.string	"_ZNSt15__new_allocatorIfEaSERKS0_"
.LASF1077:
	.string	"wcstoull"
.LASF869:
	.string	"_wide_data"
.LASF510:
	.string	"_ZNSt6vectorIiSaIiEEC4ESt16initializer_listIiERKS0_"
.LASF969:
	.string	"_ZN9__gnu_cxx14__alloc_traitsISaIhEhE20_S_propagate_on_swapEv"
.LASF185:
	.string	"_ZNKSt6vectorIhSaIhEE4rendEv"
.LASF306:
	.string	"_ZNSt16allocator_traitsISaIhEE10deallocateERS0_Phm"
.LASF392:
	.string	"_ZNSt6vectorI16SubApertureImageSaIS0_EE9push_backERKS0_"
.LASF1060:
	.string	"_ZN9__gnu_cxx14__alloc_traitsISaIfEfE17_S_select_on_copyERKS1_"
.LASF713:
	.string	"_ZNSt6vectorIfSaIfEE8_M_eraseEN9__gnu_cxx17__normal_iteratorIPfS1_EES5_"
.LASF1203:
	.string	"fflush"
.LASF286:
	.string	"_ZSt3divll"
.LASF707:
	.string	"_ZNSt6vectorIfSaIfEE14_M_emplace_auxEN9__gnu_cxx17__normal_iteratorIPKfS1_EEOf"
.LASF1054:
	.string	"_ZN9__gnu_cxx14__alloc_traitsISaIiEiE15_S_always_equalEv"
.LASF881:
	.string	"fputwc"
.LASF1340:
	.string	"_ZNSt12_Vector_baseIfSaIfEEC2EmRKS0_"
.LASF1249:
	.string	"_Float64"
.LASF1300:
	.string	"_ZdlPvm"
.LASF400:
	.string	"_ZNSt6vectorI16SubApertureImageSaIS0_EE5eraseEN9__gnu_cxx17__normal_iteratorIPKS0_S2_EES7_"
.LASF408:
	.string	"_ZNSt6vectorI16SubApertureImageSaIS0_EE17_M_default_appendEm"
.LASF882:
	.string	"fputws"
.LASF395:
	.string	"_ZNSt6vectorI16SubApertureImageSaIS0_EE6insertEN9__gnu_cxx17__normal_iteratorIPKS0_S2_EERS5_"
.LASF1307:
	.string	"_ZNSt19_UninitDestroyGuardIPfvEC2ERS0_"
.LASF172:
	.string	"begin"
.LASF123:
	.string	"_Vector_base"
.LASF474:
	.string	"_ZNSt12_Vector_baseIiSaIiEE12_Vector_implC4EOS0_"
.LASF800:
	.string	"__enable_if_t"
.LASF779:
	.string	"uninitialized_fill_n<int*, long unsigned int, int>"
.LASF1357:
	.string	"_ZNSt15__new_allocatorIhED2Ev"
.LASF1330:
	.string	"__ptr"
.LASF98:
	.string	"_ZNSt16allocator_traitsISaIhEE37select_on_container_copy_constructionERKS0_"
.LASF1003:
	.string	"_Container"
.LASF992:
	.string	"_ZNK9__gnu_cxx17__normal_iteratorIPhSt6vectorIhSaIhEEEixEl"
.LASF1124:
	.string	"__int64_t"
.LASF134:
	.string	"_M_impl"
.LASF802:
	.string	"__niter_base<(anonymous namespace)::SubParams*>"
.LASF1125:
	.string	"__uint64_t"
.LASF355:
	.string	"_ZNSt6vectorI16SubApertureImageSaIS0_EED4Ev"
.LASF579:
	.string	"_ZNSt16initializer_listIiEC4EPKim"
.LASF1345:
	.string	"_ZNSt12_Vector_baseIiSaIiEEC2EmRKS0_"
.LASF87:
	.string	"_ZNSaIhEC4ERKS_"
.LASF1385:
	.string	"shift_x"
.LASF1386:
	.string	"shift_y"
.LASF186:
	.string	"cbegin"
.LASF121:
	.string	"get_allocator"
.LASF287:
	.string	"__new_allocator<SubApertureImage>"
.LASF1325:
	.string	"_ZNSt15__new_allocatorIhEC2ERKS0_"
.LASF201:
	.string	"_ZNSt6vectorIhSaIhEE13shrink_to_fitEv"
.LASF1378:
	.string	"params"
.LASF189:
	.string	"_ZNKSt6vectorIhSaIhEE4cendEv"
.LASF158:
	.string	"_ZNSt6vectorIhSaIhEEC4ERKS1_RKS0_"
.LASF1091:
	.string	"decimal_point"
.LASF349:
	.string	"_ZNSt6vectorI16SubApertureImageSaIS0_EEC4EOS2_"
.LASF426:
	.string	"allocator_traits<std::allocator<(anonymous namespace)::SubParams> >"
.LASF112:
	.string	"_ZNSt12_Vector_baseIhSaIhEE12_Vector_implC4Ev"
.LASF785:
	.string	"_OutputIterator"
.LASF1055:
	.string	"_ZN9__gnu_cxx14__alloc_traitsISaIiEiE15_S_nothrow_moveEv"
.LASF560:
	.string	"_ZNSt6vectorIiSaIiEE21_M_default_initializeEm"
.LASF399:
	.string	"_ZNSt6vectorI16SubApertureImageSaIS0_EE5eraseEN9__gnu_cxx17__normal_iteratorIPKS0_S2_EE"
.LASF73:
	.string	"_ZNKSt15__new_allocatorIhE7addressERKh"
.LASF1448:
	.string	"decltype(nullptr)"
.LASF1303:
	.string	"this"
.LASF524:
	.string	"_ZNKSt6vectorIiSaIiEE4rendEv"
.LASF192:
	.string	"crend"
.LASF664:
	.string	"_ZNKSt6vectorIfSaIfEE4rendEv"
.LASF1200:
	.string	"fclose"
.LASF1178:
	.string	"strtoul"
.LASF1342:
	.string	"_ZNSt15__new_allocatorIfED2Ev"
.LASF473:
	.string	"_ZNSt12_Vector_baseIiSaIiEE12_Vector_implC4EOS2_"
.LASF971:
	.string	"_ZN9__gnu_cxx14__alloc_traitsISaIhEhE15_S_always_equalEv"
.LASF961:
	.string	"_ZN9__gnu_cxx14__alloc_traitsISaIhEhE17_S_select_on_copyERKS1_"
.LASF714:
	.string	"_ZNSt6vectorIfSaIfEE14_M_move_assignEOS1_St17integral_constantIbLb1EE"
.LASF544:
	.string	"_ZNSt6vectorIiSaIiEE4backEv"
.LASF846:
	.string	"_flags"
.LASF1102:
	.string	"frac_digits"
.LASF516:
	.string	"_ZNSt6vectorIiSaIiEE6assignESt16initializer_listIiE"
.LASF1156:
	.string	"timespec"
.LASF364:
	.string	"_ZNKSt6vectorI16SubApertureImageSaIS0_EE3endEv"
.LASF573:
	.string	"_ZNSt6vectorIiSaIiEE8_M_eraseEN9__gnu_cxx17__normal_iteratorIPiS1_EES5_"
.LASF888:
	.string	"mbrlen"
.LASF684:
	.string	"_ZNSt6vectorIfSaIfEE4backEv"
.LASF1147:
	.string	"ldiv_t"
.LASF967:
	.string	"_ZN9__gnu_cxx14__alloc_traitsISaIhEhE27_S_propagate_on_move_assignEv"
.LASF208:
	.string	"operator[]"
.LASF58:
	.string	"__detail"
.LASF711:
	.string	"_ZNSt6vectorIfSaIfEE15_M_erase_at_endEPf"
.LASF1128:
	.string	"__int_least16_t"
.LASF705:
	.string	"_ZNSt6vectorIfSaIfEE16_M_shrink_to_fitEv"
.LASF343:
	.string	"_ZNSt6vectorI16SubApertureImageSaIS0_EE11_S_relocateEPS0_S3_S3_RS1_"
.LASF1283:
	.string	"__m64_u"
.LASF564:
	.string	"_ZNSt6vectorIiSaIiEE17_M_default_appendEm"
.LASF553:
	.string	"_ZNSt6vectorIiSaIiEE6insertEN9__gnu_cxx17__normal_iteratorIPKiS1_EESt16initializer_listIiE"
.LASF1311:
	.string	"__val"
.LASF1323:
	.string	"_ZN9__gnu_cxx17__normal_iteratorIPhSt6vectorIhSaIhEEEC2ERKS1_"
.LASF1005:
	.string	"__alloc_traits<std::allocator<SubApertureImage>, SubApertureImage>"
.LASF896:
	.string	"__isoc23_swscanf"
.LASF1324:
	.string	"_ZNSt12_Vector_baseIhSaIhEEC2EmRKS0_"
.LASF1181:
	.string	"wcstombs"
.LASF793:
	.string	"_ZSt24__uninitialized_fill_n_aIPfmffET_S1_T0_RKT1_RSaIT2_E"
.LASF673:
	.string	"_ZNSt6vectorIfSaIfEE13shrink_to_fitEv"
.LASF1367:
	.string	"_ZNSaIiEC2Ev"
.LASF1334:
	.string	"__tmp"
.LASF209:
	.string	"_ZNSt6vectorIhSaIhEEixEm"
.LASF243:
	.string	"_ZNSt6vectorIhSaIhEE21_M_default_initializeEm"
.LASF174:
	.string	"const_iterator"
.LASF1368:
	.string	"__old_size"
.LASF810:
	.string	"_Destroy<unsigned char*>"
.LASF407:
	.string	"_ZNSt6vectorI16SubApertureImageSaIS0_EE14_M_fill_appendEmRKS0_"
.LASF1049:
	.string	"_ZN9__gnu_cxx14__alloc_traitsISaIiEiE17_S_select_on_copyERKS1_"
.LASF1328:
	.string	"_ZNSt12_Vector_baseIiSaIiEE12_Vector_implC2ERKS0_"
.LASF607:
	.string	"_ZNSt16allocator_traitsISaIfEE37select_on_container_copy_constructionERKS0_"
.LASF92:
	.string	"allocator_type"
.LASF485:
	.string	"_ZNSt12_Vector_baseIiSaIiEEC4EmRKS0_"
.LASF1419:
	.string	"_Z15_mm256_loadu_psPKf"
.LASF518:
	.string	"_ZNKSt6vectorIiSaIiEE5beginEv"
.LASF1451:
	.string	"execution"
.LASF227:
	.string	"pop_back"
.LASF611:
	.string	"_ZNSt12_Vector_baseIfSaIfEE17_Vector_impl_data12_M_copy_dataERKS2_"
.LASF361:
	.string	"_ZNSt6vectorI16SubApertureImageSaIS0_EE5beginEv"
.LASF1356:
	.string	"__add"
.LASF828:
	.string	"floor"
.LASF352:
	.string	"_ZNSt6vectorI16SubApertureImageSaIS0_EEC4EOS2_RKS1_St17integral_constantIbLb0EE"
.LASF1237:
	.string	"int_fast16_t"
.LASF1194:
	.string	"__fpos_t"
.LASF697:
	.string	"_ZNSt6vectorIfSaIfEE4swapERS1_"
.LASF1359:
	.string	"_ZNSaIhEC2Ev"
.LASF538:
	.string	"_ZNKSt6vectorIiSaIiEEixEm"
.LASF308:
	.string	"_ZNSt16allocator_traitsISaI16SubApertureImageEE8max_sizeERKS1_"
.LASF789:
	.string	"_ZSt8__fill_aIN9__gnu_cxx17__normal_iteratorIPhSt6vectorIhSaIhEEEEhEvT_S7_RKT0_"
.LASF180:
	.string	"_ZNSt6vectorIhSaIhEE6rbeginEv"
.LASF405:
	.string	"_ZNSt6vectorI16SubApertureImageSaIS0_EE14_M_fill_assignEmRKS0_"
.LASF160:
	.string	"_ZNSt6vectorIhSaIhEEC4EOS1_RKS0_St17integral_constantIbLb0EE"
.LASF391:
	.string	"_ZNKSt6vectorI16SubApertureImageSaIS0_EE4dataEv"
.LASF105:
	.string	"_M_end_of_storage"
.LASF895:
	.string	"swscanf"
.LASF525:
	.string	"_ZNKSt6vectorIiSaIiEE6cbeginEv"
.LASF366:
	.string	"_ZNKSt6vectorI16SubApertureImageSaIS0_EE6rbeginEv"
.LASF1433:
	.string	"memset"
.LASF339:
	.string	"_ZNSt6vectorI16SubApertureImageSaIS0_EE19_S_nothrow_relocateESt17integral_constantIbLb0EE"
.LASF1420:
	.string	"_mm256_cvtepi32_ps"
.LASF759:
	.string	"_Construct<int, int const&>"
.LASF1199:
	.string	"clearerr"
.LASF444:
	.string	"__new_allocator<int>"
.LASF732:
	.string	"_ZNSt19_UninitDestroyGuardIPivEC4ERS0_"
.LASF776:
	.string	"_Cont"
.LASF535:
	.string	"_ZNKSt6vectorIiSaIiEE5emptyEv"
.LASF256:
	.string	"_M_emplace_aux"
.LASF588:
	.string	"_ZNSt15__new_allocatorIfEC4ERKS0_"
.LASF555:
	.string	"_ZNSt6vectorIiSaIiEE5eraseEN9__gnu_cxx17__normal_iteratorIPKiS1_EE"
.LASF1070:
	.string	"operator!="
.LASF1059:
	.string	"__alloc_traits<std::allocator<float>, float>"
.LASF1223:
	.string	"ungetc"
.LASF1152:
	.string	"int8_t"
.LASF493:
	.string	"_ZNSt12_Vector_baseIiSaIiEE17_M_create_storageEm"
.LASF857:
	.string	"_IO_save_end"
.LASF946:
	.string	"wprintf"
.LASF410:
	.string	"_ZNSt6vectorI16SubApertureImageSaIS0_EE14_M_insert_rvalEN9__gnu_cxx17__normal_iteratorIPKS0_S2_EEOS0_"
.LASF447:
	.string	"_ZNSt15__new_allocatorIiEaSERKS0_"
.LASF559:
	.string	"_ZNSt6vectorIiSaIiEE18_M_fill_initializeEmRKi"
.LASF964:
	.string	"_S_propagate_on_copy_assign"
.LASF801:
	.string	"__relocate_a_1<(anonymous namespace)::SubParams, (anonymous namespace)::SubParams>"
.LASF1241:
	.string	"uint_fast16_t"
.LASF1230:
	.string	"int_least32_t"
.LASF1174:
	.string	"srand"
.LASF59:
	.string	"__new_allocator<unsigned char>"
.LASF1103:
	.string	"p_cs_precedes"
.LASF909:
	.string	"wcscmp"
.LASF674:
	.string	"_ZNKSt6vectorIfSaIfEE8capacityEv"
.LASF662:
	.string	"_ZNKSt6vectorIfSaIfEE6rbeginEv"
.LASF568:
	.string	"_ZNKSt6vectorIiSaIiEE12_M_check_lenEmPKc"
.LASF798:
	.string	"_ZSt24__uninitialized_fill_n_aIPimiiET_S1_T0_RKT1_RSaIT2_E"
.LASF302:
	.string	"_ZNSaI16SubApertureImageED4Ev"
.LASF833:
	.string	"fp_offset"
.LASF143:
	.string	"type"
.LASF1139:
	.string	"__time_t"
.LASF891:
	.string	"mbsrtowcs"
.LASF28:
	.string	"_M_get"
.LASF1098:
	.string	"mon_grouping"
.LASF832:
	.string	"gp_offset"
.LASF70:
	.string	"pointer"
.LASF512:
	.string	"_ZNSt6vectorIiSaIiEEaSERKS1_"
.LASF250:
	.string	"_M_default_append"
.LASF1033:
	.string	"_ZNK9__gnu_cxx17__normal_iteratorIPK16SubApertureImageSt6vectorIS1_SaIS1_EEEptEv"
.LASF1087:
	.string	"__int128"
.LASF179:
	.string	"rbegin"
.LASF1009:
	.string	"_ZN9__gnu_cxx14__alloc_traitsISaI16SubApertureImageES1_E27_S_propagate_on_move_assignEv"
.LASF783:
	.string	"__fill_n_a<unsigned char*, long unsigned int, unsigned char>"
.LASF921:
	.string	"tm_yday"
.LASF890:
	.string	"mbsinit"
.LASF1394:
	.string	"lbot_b"
.LASF195:
	.string	"_ZNKSt6vectorIhSaIhEE4sizeEv"
.LASF1038:
	.string	"_ZNK9__gnu_cxx17__normal_iteratorIPK16SubApertureImageSt6vectorIS1_SaIS1_EEEixEl"
.LASF39:
	.string	"~exception_ptr"
.LASF547:
	.string	"_ZNKSt6vectorIiSaIiEE4dataEv"
.LASF1082:
	.string	"max_align_t"
.LASF440:
	.string	"reverse_iterator<__gnu_cxx::__normal_iterator<const (anonymous namespace)::SubParams*, std::vector<(anonymous namespace)::SubParams, std::allocator<(anonymous namespace)::SubParams> > > >"
.LASF1099:
	.string	"positive_sign"
.LASF915:
	.string	"tm_min"
.LASF939:
	.string	"__isoc23_wcstoul"
.LASF1450:
	.string	"_ZN9ImageDataD4Ev"
.LASF38:
	.string	"_ZNSt15__exception_ptr13exception_ptraSEOS0_"
.LASF1180:
	.string	"system"
.LASF1153:
	.string	"int16_t"
.LASF1034:
	.string	"_ZN9__gnu_cxx17__normal_iteratorIPK16SubApertureImageSt6vectorIS1_SaIS1_EEEppEv"
.LASF428:
	.string	"_Vector_base<(anonymous namespace)::SubParams, std::allocator<(anonymous namespace)::SubParams> >"
.LASF819:
	.string	"_InputIterator"
.LASF876:
	.string	"short unsigned int"
.LASF245:
	.string	"_ZNSt6vectorIhSaIhEE14_M_fill_assignEmRKh"
.LASF1085:
	.string	"signed char"
.LASF757:
	.string	"_Construct<float, float const&>"
.LASF196:
	.string	"_ZNKSt6vectorIhSaIhEE8max_sizeEv"
.LASF378:
	.string	"_ZNKSt6vectorI16SubApertureImageSaIS0_EE8capacityEv"
.LASF736:
	.string	"_ZNSt19_UninitDestroyGuardIPivE7releaseEv"
.LASF109:
	.string	"_ZNSt12_Vector_baseIhSaIhEE17_Vector_impl_data12_M_copy_dataERKS2_"
.LASF503:
	.string	"_ZNSt6vectorIiSaIiEEC4EmRKiRKS0_"
.LASF1295:
	.string	"x_begin"
.LASF176:
	.string	"_ZNSt6vectorIhSaIhEE3endEv"
.LASF456:
	.string	"_ZNSaIiEC4Ev"
.LASF983:
	.string	"_ZNK9__gnu_cxx17__normal_iteratorIPhSt6vectorIhSaIhEEEdeEv"
.LASF442:
	.string	"difference_type"
.LASF548:
	.string	"_ZNSt6vectorIiSaIiEE9push_backERKi"
.LASF48:
	.string	"ptrdiff_t"
.LASF894:
	.string	"swprintf"
.LASF34:
	.string	"_ZNSt15__exception_ptr13exception_ptrC4EDn"
.LASF425:
	.string	"allocator<(anonymous namespace)::SubParams>"
.LASF93:
	.string	"_ZNSt16allocator_traitsISaIhEE8allocateERS0_m"
.LASF692:
	.string	"_ZNSt6vectorIfSaIfEE6insertEN9__gnu_cxx17__normal_iteratorIPKfS1_EEOf"
.LASF354:
	.string	"_ZNSt6vectorI16SubApertureImageSaIS0_EEC4ESt16initializer_listIS0_ERKS1_"
.LASF218:
	.string	"back"
.LASF716:
	.string	"_M_data_ptr<float>"
.LASF660:
	.string	"_ZNKSt6vectorIfSaIfEE3endEv"
.LASF843:
	.string	"mbstate_t"
.LASF948:
	.string	"__isoc23_wscanf"
.LASF445:
	.string	"_ZNSt15__new_allocatorIiEC4Ev"
.LASF1362:
	.string	"_ZNSaIfED2Ev"
.LASF389:
	.string	"_ZNKSt6vectorI16SubApertureImageSaIS0_EE4backEv"
.LASF625:
	.string	"_ZNSt12_Vector_baseIfSaIfEEC4EmRKS0_"
.LASF536:
	.string	"_ZNSt6vectorIiSaIiEE7reserveEm"
.LASF68:
	.string	"address"
.LASF1137:
	.string	"__off64_t"
.LASF911:
	.string	"wcscpy"
.LASF880:
	.string	"wchar_t"
.LASF901:
	.string	"vswprintf"
.LASF1312:
	.string	"__len"
.LASF892:
	.string	"putwc"
.LASF152:
	.string	"_ZNSt6vectorIhSaIhEEC4Ev"
.LASF849:
	.string	"_IO_read_base"
.LASF1395:
	.string	"rtop_b"
.LASF182:
	.string	"_ZNKSt6vectorIhSaIhEE6rbeginEv"
.LASF377:
	.string	"_ZNSt6vectorI16SubApertureImageSaIS0_EE13shrink_to_fitEv"
.LASF1399:
	.string	"rtop_f"
.LASF867:
	.string	"_offset"
.LASF1041:
	.string	"_ZN9__gnu_cxx17__normal_iteratorIPK16SubApertureImageSt6vectorIS1_SaIS1_EEEmIEl"
.LASF1025:
	.string	"_ZNK9__gnu_cxx17__normal_iteratorIP16SubApertureImageSt6vectorIS1_SaIS1_EEEplEl"
.LASF1350:
	.string	"__old_finish"
.LASF220:
	.string	"_ZNKSt6vectorIhSaIhEE4backEv"
.LASF491:
	.string	"_ZNSt12_Vector_baseIiSaIiEE11_M_allocateEm"
.LASF278:
	.string	"reverse_iterator<__gnu_cxx::__normal_iterator<unsigned char const*, std::vector<unsigned char, std::allocator<unsigned char> > > >"
.LASF197:
	.string	"resize"
.LASF854:
	.string	"_IO_buf_end"
.LASF726:
	.string	"reverse_iterator<__gnu_cxx::__normal_iterator<float const*, std::vector<float, std::allocator<float> > > >"
.LASF177:
	.string	"_ZNKSt6vectorIhSaIhEE3endEv"
.LASF1398:
	.string	"lbot_f"
.LASF1169:
	.string	"mbstowcs"
.LASF1069:
	.string	"__normal_iterator<float const*, std::vector<float, std::allocator<float> > >"
.LASF114:
	.string	"_ZNSt12_Vector_baseIhSaIhEE12_Vector_implC4EOS2_"
.LASF466:
	.string	"_Vector_base<int, std::allocator<int> >"
.LASF1067:
	.string	"rebind<float>"
.LASF1108:
	.string	"n_sign_posn"
.LASF586:
	.string	"__new_allocator<float>"
.LASF977:
	.string	"_flags2"
.LASF823:
	.string	"_ZSt8_DestroyIPhhEvT_S1_RSaIT0_E"
.LASF764:
	.string	"_ZSt18__do_uninit_fill_nIPfmfET_S1_T0_RKT1_"
.LASF55:
	.string	"chrono"
.LASF929:
	.string	"wcsrtombs"
.LASF1191:
	.string	"_G_fpos_t"
.LASF159:
	.string	"_ZNSt6vectorIhSaIhEEC4EOS1_RKS0_St17integral_constantIbLb1EE"
.LASF266:
	.string	"_M_erase"
.LASF920:
	.string	"tm_wday"
.LASF133:
	.string	"_ZNSt12_Vector_baseIhSaIhEED4Ev"
.LASF572:
	.string	"_ZNSt6vectorIiSaIiEE8_M_eraseEN9__gnu_cxx17__normal_iteratorIPiS1_EE"
.LASF912:
	.string	"wcscspn"
.LASF603:
	.string	"_ZNSt16allocator_traitsISaIfEE8allocateERS0_m"
.LASF25:
	.string	"_M_release"
.LASF873:
	.string	"_mode"
.LASF531:
	.string	"_ZNSt6vectorIiSaIiEE6resizeEm"
.LASF371:
	.string	"_ZNKSt6vectorI16SubApertureImageSaIS0_EE7crbeginEv"
.LASF136:
	.string	"_ZNSt12_Vector_baseIhSaIhEE11_M_allocateEm"
.LASF367:
	.string	"_ZNSt6vectorI16SubApertureImageSaIS0_EE4rendEv"
.LASF850:
	.string	"_IO_write_base"
.LASF1297:
	.string	"y_begin"
.LASF540:
	.string	"_ZNSt6vectorIiSaIiEE2atEm"
.LASF1431:
	.string	"_ZnwmPv"
.LASF338:
	.string	"_ZNSt6vectorI16SubApertureImageSaIS0_EE19_S_nothrow_relocateESt17integral_constantIbLb1EE"
.LASF187:
	.string	"_ZNKSt6vectorIhSaIhEE6cbeginEv"
.LASF838:
	.string	"__wch"
.LASF321:
	.string	"_ZNSt12_Vector_baseI16SubApertureImageSaIS0_EE19_M_get_Tp_allocatorEv"
.LASF814:
	.string	"_Destroy<float*, float>"
.LASF575:
	.string	"_ZNSt6vectorIiSaIiEE14_M_move_assignEOS1_St17integral_constantIbLb0EE"
.LASF618:
	.string	"_ZNSt12_Vector_baseIfSaIfEE12_Vector_implD4Ev"
.LASF581:
	.string	"_ZNKSt16initializer_listIiE4sizeEv"
.LASF191:
	.string	"_ZNKSt6vectorIhSaIhEE7crbeginEv"
.LASF1358:
	.string	"_ZNSt12_Vector_baseIhSaIhEE17_Vector_impl_dataC2Ev"
.LASF515:
	.string	"_ZNSt6vectorIiSaIiEE6assignEmRKi"
.LASF821:
	.string	"_Destroy<(anonymous namespace)::SubParams*, (anonymous namespace)::SubParams>"
.LASF902:
	.string	"vswscanf"
.LASF483:
	.string	"_ZNSt12_Vector_baseIiSaIiEEC4ERKS0_"
.LASF1322:
	.string	"__dest"
.LASF918:
	.string	"tm_mon"
.LASF501:
	.string	"_ZNSt6vectorIiSaIiEEC4ERKS0_"
.LASF1372:
	.string	"_ZNSt12_Vector_baseIhSaIhEE12_Vector_implC2Ev"
.LASF1076:
	.string	"long long int"
.LASF1255:
	.string	"time"
.LASF498:
	.string	"_ZNSt6vectorIiSaIiEE15_S_use_relocateEv"
.LASF1188:
	.string	"__isoc23_strtoull"
.LASF1245:
	.string	"uintptr_t"
.LASF296:
	.string	"_ZNKSt15__new_allocatorI16SubApertureImageE8max_sizeEv"
.LASF43:
	.string	"__cxa_exception_type"
.LASF545:
	.string	"_ZNKSt6vectorIiSaIiEE4backEv"
.LASF9:
	.string	"operator()"
.LASF1298:
	.string	"y_end"
.LASF1205:
	.string	"fgetpos"
.LASF495:
	.string	"vector<int, std::allocator<int> >"
.LASF1403:
	.string	"__lhs"
.LASF685:
	.string	"_ZNKSt6vectorIfSaIfEE4backEv"
.LASF1411:
	.string	"_Z15_mm256_fmadd_psDv8_fS_S_"
.LASF1026:
	.string	"_ZN9__gnu_cxx17__normal_iteratorIP16SubApertureImageSt6vectorIS1_SaIS1_EEEmIEl"
.LASF222:
	.string	"_ZNSt6vectorIhSaIhEE4dataEv"
.LASF387:
	.string	"_ZNKSt6vectorI16SubApertureImageSaIS0_EE5frontEv"
.LASF904:
	.string	"vwprintf"
.LASF1195:
	.string	"_IO_marker"
.LASF872:
	.string	"_prevchain"
.LASF504:
	.string	"_ZNSt6vectorIiSaIiEEC4ERKS1_"
.LASF1280:
	.string	"_Float64x"
.LASF919:
	.string	"tm_year"
.LASF1127:
	.string	"__uint_least8_t"
.LASF13:
	.string	"integral_constant<bool, false>"
.LASF320:
	.string	"_ZNSt12_Vector_baseI16SubApertureImageSaIS0_EE12_Vector_implC4EOS1_OS3_"
.LASF464:
	.string	"_ZNSt16allocator_traitsISaIiEE8max_sizeERKS0_"
.LASF1213:
	.string	"getc"
.LASF1309:
	.string	"_ZNSt19_UninitDestroyGuardIPivED2Ev"
.LASF947:
	.string	"wscanf"
.LASF357:
	.string	"_ZNSt6vectorI16SubApertureImageSaIS0_EEaSEOS2_"
.LASF712:
	.string	"_ZNSt6vectorIfSaIfEE8_M_eraseEN9__gnu_cxx17__normal_iteratorIPfS1_EE"
.LASF1313:
	.string	"__guard"
.LASF1162:
	.string	"atof"
.LASF655:
	.string	"_ZNSt6vectorIfSaIfEE6assignEmRKf"
.LASF554:
	.string	"_ZNSt6vectorIiSaIiEE6insertEN9__gnu_cxx17__normal_iteratorIPKiS1_EEmRS4_"
.LASF149:
	.string	"_S_relocate"
.LASF376:
	.string	"_ZNSt6vectorI16SubApertureImageSaIS0_EE6resizeEmRKS0_"
.LASF534:
	.string	"_ZNKSt6vectorIiSaIiEE8capacityEv"
.LASF421:
	.string	"reverse_iterator<__gnu_cxx::__normal_iterator<SubApertureImage*, std::vector<SubApertureImage, std::allocator<SubApertureImage> > > >"
.LASF1244:
	.string	"intptr_t"
.LASF729:
	.string	"iterator_traits<unsigned char*>"
.LASF842:
	.string	"__mbstate_t"
.LASF1293:
	.string	"__bf16"
.LASF1096:
	.string	"mon_decimal_point"
.LASF1097:
	.string	"mon_thousands_sep"
.LASF1302:
	.string	"_Znwm"
.LASF423:
	.string	"__new_allocator<(anonymous namespace)::SubParams>"
.LASF1226:
	.string	"uint32_t"
.LASF41:
	.string	"swap"
.LASF996:
	.string	"_ZNK9__gnu_cxx17__normal_iteratorIPhSt6vectorIhSaIhEEEplEl"
.LASF341:
	.string	"_ZNSt6vectorIhSaIhEE15_S_use_relocateEv"
.LASF1196:
	.string	"_IO_codecvt"
.LASF771:
	.string	"__niter_base<unsigned char*>"
.LASF1339:
	.string	"_ZNSt12_Vector_baseIfSaIfEED2Ev"
.LASF813:
	.string	"_ZSt3minImERKT_S2_S2_"
.LASF590:
	.string	"_ZNSt15__new_allocatorIfED4Ev"
.LASF678:
	.string	"_ZNKSt6vectorIfSaIfEEixEm"
.LASF230:
	.string	"_ZNSt6vectorIhSaIhEE6insertEN9__gnu_cxx17__normal_iteratorIPKhS1_EERS4_"
.LASF780:
	.string	"_ZSt20uninitialized_fill_nIPimiET_S1_T0_RKT1_"
.LASF1175:
	.string	"strtod"
.LASF1189:
	.string	"strtof"
.LASF806:
	.string	"__uninitialized_fill_n_a<unsigned char*, long unsigned int, unsigned char, unsigned char>"
.LASF1176:
	.string	"strtol"
.LASF959:
	.string	"__alloc_traits<std::allocator<unsigned char>, unsigned char>"
.LASF301:
	.string	"_ZNSaI16SubApertureImageEaSERKS0_"
.LASF1073:
	.string	"long double"
.LASF129:
	.string	"_ZNSt12_Vector_baseIhSaIhEEC4EOS0_"
.LASF84:
	.string	"allocator<unsigned char>"
.LASF706:
	.string	"_ZNSt6vectorIfSaIfEE14_M_insert_rvalEN9__gnu_cxx17__normal_iteratorIPKfS1_EEOf"
.LASF270:
	.string	"_ZNSt6vectorIhSaIhEE14_M_move_assignEOS1_St17integral_constantIbLb1EE"
.LASF1002:
	.string	"_ZNK9__gnu_cxx17__normal_iteratorIPhSt6vectorIhSaIhEEE4baseEv"
.LASF1014:
	.string	"__normal_iterator<SubApertureImage*, std::vector<SubApertureImage, std::allocator<SubApertureImage> > >"
.LASF1425:
	.string	"_Z13_mm_set_epi64Dv2_iS_"
.LASF345:
	.string	"_ZNSt6vectorI16SubApertureImageSaIS0_EEC4ERKS1_"
.LASF1104:
	.string	"p_sep_by_space"
.LASF752:
	.string	"__throw_bad_alloc"
.LASF4:
	.string	"long unsigned int"
.LASF701:
	.string	"_ZNSt6vectorIfSaIfEE14_M_fill_assignEmRKf"
.LASF962:
	.string	"_S_on_swap"
.LASF1424:
	.string	"_mm_set_epi64"
.LASF993:
	.string	"operator+="
.LASF749:
	.string	"_S_destroy<float*>"
.LASF727:
	.string	"enable_if<true, (anonymous namespace)::SubParams*>"
.LASF128:
	.string	"_ZNSt12_Vector_baseIhSaIhEEC4EOS1_"
.LASF1222:
	.string	"tmpnam"
.LASF419:
	.string	"_ZNSt6vectorI16SubApertureImageSaIS0_EE14_M_move_assignEOS2_St17integral_constantIbLb0EE"
.LASF17:
	.string	"false_type"
.LASF1202:
	.string	"ferror"
.LASF141:
	.string	"_Alloc"
.LASF348:
	.string	"_ZNSt6vectorI16SubApertureImageSaIS0_EEC4ERKS2_"
.LASF449:
	.string	"_ZNKSt15__new_allocatorIiE7addressERi"
.LASF247:
	.string	"_ZNSt6vectorIhSaIhEE14_M_fill_insertEN9__gnu_cxx17__normal_iteratorIPhS1_EEmRKh"
.LASF346:
	.string	"_ZNSt6vectorI16SubApertureImageSaIS0_EEC4EmRKS1_"
.LASF1407:
	.string	"_ZNSt6vectorIhSaIhEEC2Ev"
.LASF827:
	.string	"_ZSt3maxIiERKT_S2_S2_"
.LASF86:
	.string	"_ZNSaIhEC4Ev"
.LASF453:
	.string	"_ZNKSt15__new_allocatorIiE8max_sizeEv"
.LASF1261:
	.string	"wctype_t"
.LASF5:
	.string	"char"
.LASF314:
	.string	"_ZNSt12_Vector_baseIhSaIhEE17_Vector_impl_data12_M_swap_dataERS2_"
.LASF907:
	.string	"wcrtomb"
.LASF936:
	.string	"__isoc23_wcstol"
.LASF272:
	.string	"_M_data_ptr<unsigned char>"
.LASF788:
	.string	"__fill_a<__gnu_cxx::__normal_iterator<unsigned char*, std::vector<unsigned char> >, unsigned char>"
.LASF224:
	.string	"push_back"
.LASF1072:
	.string	"wcstold"
.LASF683:
	.string	"_ZNKSt6vectorIfSaIfEE5frontEv"
.LASF1370:
	.string	"_ZNSt12_Vector_baseIhSaIhEED2Ev"
.LASF986:
	.string	"operator++"
.LASF1106:
	.string	"n_sep_by_space"
.LASF577:
	.string	"_M_array"
.LASF424:
	.string	"construct<(anonymous namespace)::SubParams, const (anonymous namespace)::SubParams&>"
.LASF862:
	.string	"_old_offset"
.LASF451:
	.string	"_ZNSt15__new_allocatorIiE8allocateEmPKv"
.LASF1353:
	.string	"__new_finish"
.LASF1010:
	.string	"_ZN9__gnu_cxx14__alloc_traitsISaI16SubApertureImageES1_E20_S_propagate_on_swapEv"
.LASF188:
	.string	"cend"
.LASF826:
	.string	"max<int>"
.LASF233:
	.string	"_ZNSt6vectorIhSaIhEE6insertEN9__gnu_cxx17__normal_iteratorIPKhS1_EEmRS4_"
.LASF853:
	.string	"_IO_buf_base"
.LASF574:
	.string	"_ZNSt6vectorIiSaIiEE14_M_move_assignEOS1_St17integral_constantIbLb1EE"
.LASF252:
	.string	"_M_shrink_to_fit"
.LASF383:
	.string	"_ZNKSt6vectorI16SubApertureImageSaIS0_EE14_M_range_checkEm"
.LASF144:
	.string	"_Type"
.LASF989:
	.string	"operator--"
.LASF751:
	.string	"__throw_bad_array_new_length"
.LASF281:
	.string	"_ZSt3abse"
.LASF282:
	.string	"_ZSt3absf"
.LASF279:
	.string	"_ZSt3absg"
.LASF580:
	.string	"_ZNSt16initializer_listIiEC4Ev"
.LASF285:
	.string	"_ZSt3absl"
.LASF280:
	.string	"_ZSt3absn"
.LASF89:
	.string	"~allocator"
.LASF997:
	.string	"operator-="
.LASF984:
	.string	"operator->"
.LASF1253:
	.string	"difftime"
.LASF284:
	.string	"_ZSt3absx"
.LASF528:
	.string	"_ZNKSt6vectorIiSaIiEE5crendEv"
.LASF31:
	.string	"_ZNKSt15__exception_ptr13exception_ptr21_M_exception_ptr_castERKSt9type_info"
.LASF848:
	.string	"_IO_read_end"
.LASF511:
	.string	"_ZNSt6vectorIiSaIiEED4Ev"
.LASF1333:
	.string	"__alloc"
.LASF362:
	.string	"_ZNKSt6vectorI16SubApertureImageSaIS0_EE5beginEv"
.LASF744:
	.string	"_UninitDestroyGuard<float*, void>"
.LASF169:
	.string	"_ZNSt6vectorIhSaIhEE6assignEmRKh"
.LASF468:
	.string	"_ZNSt12_Vector_baseIiSaIiEE17_Vector_impl_dataC4EOS2_"
.LASF845:
	.string	"_IO_FILE"
.LASF427:
	.string	"_Args"
.LASF953:
	.string	"wmemchr"
.LASF1361:
	.string	"_ZNSt6vectorIfSaIfEEC2EmRKfRKS0_"
.LASF403:
	.string	"_ZNSt6vectorI16SubApertureImageSaIS0_EE18_M_fill_initializeEmRKS0_"
.LASF1197:
	.string	"_IO_wide_data"
.LASF1056:
	.string	"rebind<int>"
.LASF642:
	.string	"_ZNSt6vectorIfSaIfEEC4EmRKS0_"
.LASF467:
	.string	"_ZNSt12_Vector_baseIiSaIiEE17_Vector_impl_dataC4Ev"
.LASF45:
	.string	"rethrow_exception"
.LASF1446:
	.string	"_ZN9__gnu_cxx21__default_lock_policyE"
.LASF916:
	.string	"tm_hour"
.LASF382:
	.string	"_ZNKSt6vectorI16SubApertureImageSaIS0_EEixEm"
.LASF758:
	.string	"_ZSt10_ConstructIfJRKfEEvPT_DpOT0_"
.LASF369:
	.string	"_ZNKSt6vectorI16SubApertureImageSaIS0_EE6cbeginEv"
.LASF1400:
	.string	"rbot_f"
.LASF27:
	.string	"_ZNSt15__exception_ptr13exception_ptr10_M_releaseEv"
.LASF761:
	.string	"__fill_a1<unsigned char, unsigned char>"
.LASF1089:
	.string	"char32_t"
.LASF1184:
	.string	"atoll"
.LASF677:
	.string	"_ZNSt6vectorIfSaIfEEixEm"
.LASF235:
	.string	"_ZNSt6vectorIhSaIhEE5eraseEN9__gnu_cxx17__normal_iteratorIPKhS1_EE"
.LASF1210:
	.string	"fseek"
.LASF748:
	.string	"_ZNSt19_UninitDestroyGuardIPfvEC4ERKS1_"
.LASF106:
	.string	"_ZNSt12_Vector_baseIhSaIhEE17_Vector_impl_dataC4Ev"
.LASF248:
	.string	"_M_fill_append"
.LASF326:
	.string	"_ZNSt12_Vector_baseI16SubApertureImageSaIS0_EEC4Em"
.LASF1243:
	.string	"uint_fast64_t"
.LASF324:
	.string	"_ZNSt12_Vector_baseI16SubApertureImageSaIS0_EEC4Ev"
.LASF742:
	.string	"_Iter"
.LASF617:
	.string	"_ZNSt12_Vector_baseIfSaIfEE12_Vector_implC4EOS0_OS2_"
.LASF1165:
	.string	"bsearch"
.LASF226:
	.string	"_ZNSt6vectorIhSaIhEE9push_backEOh"
.LASF1326:
	.string	"_ZNSt12_Vector_baseIfSaIfEE12_Vector_implC2ERKS0_"
.LASF562:
	.string	"_ZNSt6vectorIiSaIiEE14_M_fill_insertEN9__gnu_cxx17__normal_iteratorIPiS1_EEmRKi"
.LASF1122:
	.string	"__int32_t"
.LASF181:
	.string	"const_reverse_iterator"
.LASF1209:
	.string	"freopen"
.LASF1116:
	.string	"getwchar"
.LASF822:
	.string	"_Destroy<unsigned char*, unsigned char>"
.LASF1022:
	.string	"_ZN9__gnu_cxx17__normal_iteratorIP16SubApertureImageSt6vectorIS1_SaIS1_EEEmmEi"
.LASF1381:
	.string	"vals"
.LASF1114:
	.string	"int_n_sign_posn"
.LASF94:
	.string	"_ZNSt16allocator_traitsISaIhEE8allocateERS0_mPKv"
.LASF359:
	.string	"_ZNSt6vectorI16SubApertureImageSaIS0_EE6assignEmRKS0_"
.LASF33:
	.string	"_ZNSt15__exception_ptr13exception_ptrC4ERKS0_"
.LASF26:
	.string	"_ZNSt15__exception_ptr13exception_ptr9_M_addrefEv"
.LASF917:
	.string	"tm_mday"
.LASF720:
	.string	"_ZNSt16initializer_listIfEC4Ev"
.LASF1057:
	.string	"__normal_iterator<int*, std::vector<int, std::allocator<int> > >"
.LASF431:
	.string	"_Base"
.LASF95:
	.string	"const_void_pointer"
.LASF74:
	.string	"const_reference"
.LASF406:
	.string	"_ZNSt6vectorI16SubApertureImageSaIS0_EE14_M_fill_insertEN9__gnu_cxx17__normal_iteratorIPS0_S2_EEmRKS0_"
.LASF1021:
	.string	"_ZN9__gnu_cxx17__normal_iteratorIP16SubApertureImageSt6vectorIS1_SaIS1_EEEmmEv"
.LASF82:
	.string	"_M_max_size"
.LASF812:
	.string	"min<long unsigned int>"
.LASF1299:
	.string	"operator delete"
.LASF768:
	.string	"__fill_a<unsigned char*, unsigned char>"
.LASF681:
	.string	"_ZNKSt6vectorIfSaIfEE2atEm"
.LASF1260:
	.string	"timespec_get"
.LASF1040:
	.string	"_ZNK9__gnu_cxx17__normal_iteratorIPK16SubApertureImageSt6vectorIS1_SaIS1_EEEplEl"
.LASF23:
	.string	"_ZNSt15__exception_ptr13exception_ptrC4EPv"
.LASF1045:
	.string	"rebind<(anonymous namespace)::SubParams>"
.LASF1320:
	.string	"_ZNSt12_Vector_baseIiSaIiEE17_Vector_impl_dataC2Ev"
.LASF565:
	.string	"_ZNSt6vectorIiSaIiEE16_M_shrink_to_fitEv"
.LASF1211:
	.string	"fsetpos"
.LASF601:
	.string	"_ZNSaIfED4Ev"
.LASF1410:
	.string	"_mm256_fmadd_ps"
.LASF829:
	.string	"_ZSt5floorf"
.LASF388:
	.string	"_ZNSt6vectorI16SubApertureImageSaIS0_EE4backEv"
.LASF42:
	.string	"_ZNSt15__exception_ptr13exception_ptr4swapERS0_"
.LASF858:
	.string	"_markers"
.LASF1155:
	.string	"int64_t"
.LASF484:
	.string	"_ZNSt12_Vector_baseIiSaIiEEC4Em"
.LASF958:
	.string	"_S_atomic"
.LASF782:
	.string	"_ZSt3maxImERKT_S2_S2_"
.LASF482:
	.string	"_ZNSt12_Vector_baseIiSaIiEEC4Ev"
.LASF1445:
	.string	"__default_lock_policy"
.LASF327:
	.string	"_ZNSt12_Vector_baseI16SubApertureImageSaIS0_EEC4EmRKS1_"
.LASF743:
	.string	"_ForwardIterator"
.LASF1364:
	.string	"_ZNSt6vectorIiSaIiEED2Ev"
.LASF304:
	.string	"_ZNSt16allocator_traitsISaI16SubApertureImageEE8allocateERS1_m"
.LASF1281:
	.string	"__pstl"
.LASF808:
	.string	"fill<__gnu_cxx::__normal_iterator<unsigned char*, std::vector<unsigned char> >, unsigned char>"
.LASF621:
	.string	"_ZNKSt12_Vector_baseIfSaIfEE13get_allocatorEv"
.LASF175:
	.string	"_ZNKSt6vectorIhSaIhEE5beginEv"
.LASF868:
	.string	"_codecvt"
.LASF1232:
	.string	"uint_least8_t"
.LASF292:
	.string	"_ZNKSt15__new_allocatorI16SubApertureImageE7addressERS0_"
.LASF1167:
	.string	"ldiv"
.LASF1239:
	.string	"int_fast64_t"
.LASF145:
	.string	"vector<unsigned char, std::allocator<unsigned char> >"
.LASF154:
	.string	"_ZNSt6vectorIhSaIhEEC4EmRKS0_"
.LASF604:
	.string	"_ZNSt16allocator_traitsISaIfEE8allocateERS0_mPKv"
.LASF735:
	.string	"release"
.LASF1421:
	.string	"_Z18_mm256_cvtepi32_psDv4_x"
.LASF234:
	.string	"erase"
.LASF932:
	.string	"double"
.LASF102:
	.string	"_M_exception_object"
.LASF249:
	.string	"_ZNSt6vectorIhSaIhEE14_M_fill_appendEmRKh"
.LASF20:
	.string	"__swappable_with_details"
.LASF658:
	.string	"_ZNKSt6vectorIfSaIfEE5beginEv"
.LASF1434:
	.string	"__builtin_memcpy"
.LASF834:
	.string	"overflow_arg_area"
.LASF844:
	.string	"__FILE"
.LASF1443:
	.string	"typedef __va_list_tag __va_list_tag"
.LASF976:
	.string	"__normal_iterator<unsigned char*, std::vector<unsigned char, std::allocator<unsigned char> > >"
.LASF350:
	.string	"_ZNSt6vectorI16SubApertureImageSaIS0_EEC4ERKS2_RKS1_"
.LASF1133:
	.string	"__uint_least64_t"
.LASF1397:
	.string	"ltop_f"
.LASF1053:
	.string	"_ZN9__gnu_cxx14__alloc_traitsISaIiEiE20_S_propagate_on_swapEv"
.LASF433:
	.string	"_M_storage"
.LASF566:
	.string	"_ZNSt6vectorIiSaIiEE14_M_insert_rvalEN9__gnu_cxx17__normal_iteratorIPKiS1_EEOi"
.LASF1257:
	.string	"ctime"
.LASF973:
	.string	"_ZN9__gnu_cxx14__alloc_traitsISaIhEhE15_S_nothrow_moveEv"
.LASF740:
	.string	"_S_destroy<int*>"
.LASF205:
	.string	"_ZNKSt6vectorIhSaIhEE5emptyEv"
.LASF443:
	.string	"_Iterator"
.LASF649:
	.string	"_ZNSt6vectorIfSaIfEEC4EOS1_RKS0_"
.LASF1383:
	.string	"__for_begin"
.LASF514:
	.string	"_ZNSt6vectorIiSaIiEEaSESt16initializer_listIiE"
.LASF584:
	.string	"reverse_iterator<__gnu_cxx::__normal_iterator<int const*, std::vector<int, std::allocator<int> > > >"
.LASF240:
	.string	"_M_fill_initialize"
.LASF1035:
	.string	"_ZN9__gnu_cxx17__normal_iteratorIPK16SubApertureImageSt6vectorIS1_SaIS1_EEEppEi"
.LASF696:
	.string	"_ZNSt6vectorIfSaIfEE5eraseEN9__gnu_cxx17__normal_iteratorIPKfS1_EES6_"
.LASF1123:
	.string	"__uint32_t"
.LASF1171:
	.string	"qsort"
.LASF1047:
	.string	"__normal_iterator<const (anonymous namespace)::SubParams*, std::vector<(anonymous namespace)::SubParams, std::allocator<(anonymous namespace)::SubParams> > >"
.LASF988:
	.string	"_ZN9__gnu_cxx17__normal_iteratorIPhSt6vectorIhSaIhEEEppEi"
.LASF137:
	.string	"_M_deallocate"
.LASF325:
	.string	"_ZNSt12_Vector_baseI16SubApertureImageSaIS0_EEC4ERKS1_"
.LASF193:
	.string	"_ZNKSt6vectorIhSaIhEE5crendEv"
.LASF221:
	.string	"data"
.LASF542:
	.string	"_ZNSt6vectorIiSaIiEE5frontEv"
.LASF942:
	.string	"wmemcmp"
.LASF774:
	.string	"_ZSt9__fill_a1IPhSt6vectorIhSaIhEEhEvN9__gnu_cxx17__normal_iteratorIT_T0_EES8_RKT1_"
.LASF797:
	.string	"__uninitialized_fill_n_a<int*, long unsigned int, int, int>"
.LASF310:
	.string	"_Vector_base<SubApertureImage, std::allocator<SubApertureImage> >"
.LASF987:
	.string	"_ZN9__gnu_cxx17__normal_iteratorIPhSt6vectorIhSaIhEEEppEv"
.LASF791:
	.string	"_ZSt8_DestroyIPfEvT_S1_"
.LASF213:
	.string	"_ZNSt6vectorIhSaIhEE2atEm"
.LASF841:
	.string	"__value"
.LASF675:
	.string	"_ZNKSt6vectorIfSaIfEE5emptyEv"
.LASF32:
	.string	"_ZNSt15__exception_ptr13exception_ptrC4Ev"
.LASF1402:
	.string	"inv_c"
.LASF556:
	.string	"_ZNSt6vectorIiSaIiEE5eraseEN9__gnu_cxx17__normal_iteratorIPKiS1_EES6_"
.LASF1428:
	.string	"_mm_set_epi64x"
.LASF1376:
	.string	"focus"
.LASF818:
	.string	"__relocate_a<(anonymous namespace)::SubParams*, (anonymous namespace)::SubParams*, std::allocator<(anonymous namespace)::SubParams> >"
.LASF1441:
	.string	"literals"
.LASF113:
	.string	"_ZNSt12_Vector_baseIhSaIhEE12_Vector_implC4ERKS0_"
.LASF298:
	.string	"allocator<SubApertureImage>"
.LASF1416:
	.string	"_mm256_storeu_ps"
.LASF1442:
	.string	"__is_nothrow_new_constructible"
.LASF1352:
	.string	"__new_start"
.LASF492:
	.string	"_ZNSt12_Vector_baseIiSaIiEE13_M_deallocateEPim"
.LASF241:
	.string	"_ZNSt6vectorIhSaIhEE18_M_fill_initializeEmRKh"
.LASF165:
	.string	"_ZNSt6vectorIhSaIhEEaSERKS1_"
.LASF1440:
	.string	"input_iterator_tag"
.LASF963:
	.string	"_ZN9__gnu_cxx14__alloc_traitsISaIhEhE10_S_on_swapERS1_S3_"
.LASF416:
	.string	"_ZNSt6vectorI16SubApertureImageSaIS0_EE8_M_eraseEN9__gnu_cxx17__normal_iteratorIPS0_S2_EE"
.LASF1268:
	.string	"width"
.LASF1001:
	.string	"base"
.LASF35:
	.string	"_ZNSt15__exception_ptr13exception_ptrC4EOS0_"
.LASF322:
	.string	"_ZNKSt12_Vector_baseI16SubApertureImageSaIS0_EE19_M_get_Tp_allocatorEv"
.LASF184:
	.string	"_ZNSt6vectorIhSaIhEE4rendEv"
.LASF1019:
	.string	"_ZN9__gnu_cxx17__normal_iteratorIP16SubApertureImageSt6vectorIS1_SaIS1_EEEppEv"
.LASF385:
	.string	"_ZNKSt6vectorI16SubApertureImageSaIS0_EE2atEm"
.LASF1220:
	.string	"setvbuf"
.LASF142:
	.string	"__type_identity<std::allocator<unsigned char> >"
.LASF652:
	.string	"_ZNSt6vectorIfSaIfEEaSERKS1_"
.LASF1179:
	.string	"__isoc23_strtoul"
.LASF811:
	.string	"_ZSt8_DestroyIPhEvT_S1_"
.LASF640:
	.string	"_ZNSt6vectorIfSaIfEEC4Ev"
.LASF596:
	.string	"_ZNKSt15__new_allocatorIfE11_M_max_sizeEv"
.LASF1143:
	.string	"5div_t"
.LASF1146:
	.string	"6ldiv_t"
.LASF1145:
	.string	"div_t"
.LASF650:
	.string	"_ZNSt6vectorIfSaIfEEC4ESt16initializer_listIfERKS0_"
.LASF353:
	.string	"_ZNSt6vectorI16SubApertureImageSaIS0_EEC4EOS2_RKS1_"
.LASF1161:
	.string	"at_quick_exit"
.LASF765:
	.string	"_Size"
.LASF1233:
	.string	"uint_least16_t"
.LASF289:
	.string	"_ZNSt15__new_allocatorI16SubApertureImageEC4ERKS1_"
.LASF204:
	.string	"empty"
.LASF871:
	.string	"_freeres_buf"
.LASF1027:
	.string	"_ZNK9__gnu_cxx17__normal_iteratorIP16SubApertureImageSt6vectorIS1_SaIS1_EEEmiEl"
.LASF672:
	.string	"_ZNSt6vectorIfSaIfEE6resizeEmRKf"
.LASF724:
	.string	"_ZNKSt16initializer_listIfE3endEv"
.LASF1170:
	.string	"mbtowc"
.LASF1020:
	.string	"_ZN9__gnu_cxx17__normal_iteratorIP16SubApertureImageSt6vectorIS1_SaIS1_EEEppEi"
.LASF166:
	.string	"_ZNSt6vectorIhSaIhEEaSEOS1_"
.LASF50:
	.string	"forward_iterator_tag"
.LASF207:
	.string	"_ZNSt6vectorIhSaIhEE7reserveEm"
.LASF1157:
	.string	"tv_sec"
.LASF104:
	.string	"_M_finish"
.LASF968:
	.string	"_S_propagate_on_swap"
.LASF242:
	.string	"_M_default_initialize"
.LASF1079:
	.string	"long long unsigned int"
.LASF792:
	.string	"__uninitialized_fill_n_a<float*, long unsigned int, float, float>"
.LASF796:
	.string	"_ZSt8_DestroyIPiEvT_S1_"
.LASF889:
	.string	"mbrtowc"
.LASF863:
	.string	"_cur_column"
.LASF775:
	.string	"_Ite"
.LASF30:
	.string	"_M_exception_ptr_cast"
.LASF943:
	.string	"wmemcpy"
.LASF1159:
	.string	"__compar_fn_t"
.LASF135:
	.string	"_M_allocate"
.LASF397:
	.string	"_ZNSt6vectorI16SubApertureImageSaIS0_EE6insertEN9__gnu_cxx17__normal_iteratorIPKS0_S2_EESt16initializer_listIS0_E"
.LASF291:
	.string	"_ZNSt15__new_allocatorI16SubApertureImageED4Ev"
.LASF1347:
	.string	"_ZNSt15__new_allocatorIiED2Ev"
.LASF225:
	.string	"_ZNSt6vectorIhSaIhEE9push_backERKh"
.LASF741:
	.string	"_ZNSt19_UninitDestroyGuardIPivE10_S_destroyIS0_EEvT_S3_"
.LASF592:
	.string	"_ZNKSt15__new_allocatorIfE7addressERKf"
.LASF1389:
	.string	"ind_rtop"
.LASF1150:
	.string	"clock_t"
.LASF132:
	.string	"~_Vector_base"
.LASF381:
	.string	"_ZNSt6vectorI16SubApertureImageSaIS0_EEixEm"
.LASF1336:
	.string	"__dif"
.LASF639:
	.string	"_ZNSt6vectorIfSaIfEE11_S_relocateEPfS2_S2_RS0_"
.LASF730:
	.string	"_UninitDestroyGuard<int*, void>"
.LASF1369:
	.string	"_ZNSt6vectorIhSaIhEED2Ev"
.LASF1422:
	.string	"_mm_loadl_epi64"
.LASF469:
	.string	"_ZNSt12_Vector_baseIiSaIiEE17_Vector_impl_data12_M_copy_dataERKS2_"
.LASF471:
	.string	"_ZNSt12_Vector_baseIiSaIiEE12_Vector_implC4Ev"
.LASF336:
	.string	"__type_identity<std::allocator<SubApertureImage> >"
.LASF1406:
	.string	"_ZN9ImageDataC2Ev"
.LASF926:
	.string	"wcsncat"
.LASF116:
	.string	"_ZNSt12_Vector_baseIhSaIhEE12_Vector_implC4EOS0_OS2_"
.LASF1207:
	.string	"fopen"
.LASF552:
	.string	"_ZNSt6vectorIiSaIiEE6insertEN9__gnu_cxx17__normal_iteratorIPKiS1_EEOi"
.LASF923:
	.string	"tm_gmtoff"
.LASF62:
	.string	"_ZNSt15__new_allocatorIhEC4ERKS0_"
.LASF370:
	.string	"_ZNKSt6vectorI16SubApertureImageSaIS0_EE4cendEv"
.LASF274:
	.string	"__type_identity_t"
.LASF57:
	.string	"filesystem"
.LASF605:
	.string	"_ZNSt16allocator_traitsISaIfEE10deallocateERS0_Pfm"
.LASF856:
	.string	"_IO_backup_base"
.LASF957:
	.string	"_S_mutex"
.LASF329:
	.string	"_ZNSt12_Vector_baseI16SubApertureImageSaIS0_EEC4EOS1_"
.LASF1112:
	.string	"int_n_sep_by_space"
.LASF847:
	.string	"_IO_read_ptr"
.LASF629:
	.string	"_ZNSt12_Vector_baseIfSaIfEEC4ERKS0_OS1_"
.LASF608:
	.string	"_Vector_base<float, std::allocator<float> >"
.LASF275:
	.string	"type_info"
.LASF1206:
	.string	"fgets"
.LASF49:
	.string	"true_type"
.LASF722:
	.string	"_ZNKSt16initializer_listIfE5beginEv"
.LASF1236:
	.string	"int_fast8_t"
.LASF1166:
	.string	"getenv"
.LASF870:
	.string	"_freeres_list"
.LASF990:
	.string	"_ZN9__gnu_cxx17__normal_iteratorIPhSt6vectorIhSaIhEEEmmEv"
.LASF1418:
	.string	"_mm256_loadu_ps"
.LASF1282:
	.string	"__m64"
.LASF1251:
	.string	"__float128"
.LASF787:
	.string	"_ZSt20uninitialized_fill_nIPhmhET_S1_T0_RKT1_"
.LASF162:
	.string	"_ZNSt6vectorIhSaIhEEC4ESt16initializer_listIhERKS0_"
.LASF380:
	.string	"_ZNSt6vectorI16SubApertureImageSaIS0_EE7reserveEm"
.LASF670:
	.string	"_ZNKSt6vectorIfSaIfEE8max_sizeEv"
.LASF879:
	.string	"fgetws"
.LASF1417:
	.string	"_Z16_mm256_storeu_psPfDv8_f"
.LASF328:
	.string	"_ZNSt12_Vector_baseI16SubApertureImageSaIS0_EEC4EOS2_"
.LASF1173:
	.string	"rand"
.LASF60:
	.string	"__new_allocator"
.LASF1374:
	.string	"_Z21refocus_shift_and_sumRSt6vectorI16SubApertureImageSaIS0_EEf"
.LASF439:
	.string	"reverse_iterator<__gnu_cxx::__normal_iterator<(anonymous namespace)::SubParams*, std::vector<(anonymous namespace)::SubParams, std::allocator<(anonymous namespace)::SubParams> > > >"
.LASF760:
	.string	"_ZSt10_ConstructIiJRKiEEvPT_DpOT0_"
.LASF125:
	.string	"_ZNSt12_Vector_baseIhSaIhEEC4ERKS0_"
.LASF396:
	.string	"_ZNSt6vectorI16SubApertureImageSaIS0_EE6insertEN9__gnu_cxx17__normal_iteratorIPKS0_S2_EEOS0_"
.LASF861:
	.string	"_short_backupbuf"
.LASF979:
	.string	"__normal_iterator"
.LASF766:
	.string	"__do_uninit_fill_n<int*, long unsigned int, int>"
.LASF1052:
	.string	"_ZN9__gnu_cxx14__alloc_traitsISaIiEiE27_S_propagate_on_move_assignEv"
.LASF597:
	.string	"allocator<float>"
.LASF981:
	.string	"_ZN9__gnu_cxx17__normal_iteratorIPhSt6vectorIhSaIhEEEC4ERKS1_"
.LASF910:
	.string	"wcscoll"
.LASF1430:
	.string	"_ZdlPvS_"
.LASF150:
	.string	"_ZNSt6vectorIhSaIhEE11_S_relocateEPhS2_S2_RS0_"
.LASF1262:
	.string	"wctrans_t"
.LASF97:
	.string	"select_on_container_copy_construction"
.LASF551:
	.string	"_ZNSt6vectorIiSaIiEE6insertEN9__gnu_cxx17__normal_iteratorIPKiS1_EERS4_"
.LASF269:
	.string	"_M_move_assign"
.LASF1031:
	.string	"_ZN9__gnu_cxx17__normal_iteratorIPK16SubApertureImageSt6vectorIS1_SaIS1_EEEC4ERKS3_"
.LASF786:
	.string	"uninitialized_fill_n<unsigned char*, long unsigned int, unsigned char>"
.LASF623:
	.string	"_ZNSt12_Vector_baseIfSaIfEEC4ERKS0_"
.LASF718:
	.string	"initializer_list<float>"
.LASF641:
	.string	"_ZNSt6vectorIfSaIfEEC4ERKS0_"
.LASF265:
	.string	"_ZNSt6vectorIhSaIhEE15_M_erase_at_endEPh"
.LASF1051:
	.string	"_ZN9__gnu_cxx14__alloc_traitsISaIiEiE27_S_propagate_on_copy_assignEv"
.LASF1107:
	.string	"p_sign_posn"
.LASF472:
	.string	"_ZNSt12_Vector_baseIiSaIiEE12_Vector_implC4ERKS0_"
.LASF398:
	.string	"_ZNSt6vectorI16SubApertureImageSaIS0_EE6insertEN9__gnu_cxx17__normal_iteratorIPKS0_S2_EEmRS5_"
.LASF951:
	.string	"wcsrchr"
.LASF656:
	.string	"_ZNSt6vectorIfSaIfEE6assignESt16initializer_listIfE"
.LASF1235:
	.string	"uint_least64_t"
.LASF668:
	.string	"_ZNKSt6vectorIfSaIfEE5crendEv"
.LASF333:
	.string	"_ZNSt12_Vector_baseI16SubApertureImageSaIS0_EE11_M_allocateEm"
.LASF1000:
	.string	"_ZNK9__gnu_cxx17__normal_iteratorIPhSt6vectorIhSaIhEEEmiEl"
.LASF509:
	.string	"_ZNSt6vectorIiSaIiEEC4EOS1_RKS0_"
.LASF704:
	.string	"_ZNSt6vectorIfSaIfEE17_M_default_appendEm"
.LASF347:
	.string	"_ZNSt6vectorI16SubApertureImageSaIS0_EEC4EmRKS0_RKS1_"
.LASF1066:
	.string	"_ZN9__gnu_cxx14__alloc_traitsISaIfEfE15_S_nothrow_moveEv"
.LASF1335:
	.string	"_ZNSt6vectorIhSaIhEEC2EmRKhRKS0_"
.LASF563:
	.string	"_ZNSt6vectorIiSaIiEE14_M_fill_appendEmRKi"
.LASF340:
	.string	"_S_use_relocate"
.LASF148:
	.string	"_ZNSt6vectorIhSaIhEE19_S_nothrow_relocateESt17integral_constantIbLb0EE"
.LASF111:
	.string	"_Vector_impl"
.LASF1408:
	.string	"_ZNSt12_Vector_baseIhSaIhEEC2Ev"
.LASF1254:
	.string	"mktime"
.LASF1354:
	.string	"_ZN9__gnu_cxx17__normal_iteratorIP16SubApertureImageSt6vectorIS1_SaIS1_EEEC2ERKS2_"
.LASF1214:
	.string	"getchar"
.LASF1158:
	.string	"tv_nsec"
.LASF733:
	.string	"~_UninitDestroyGuard"
.LASF526:
	.string	"_ZNKSt6vectorIiSaIiEE4cendEv"
.LASF644:
	.string	"_ZNSt6vectorIfSaIfEEC4ERKS1_"
.LASF830:
	.string	"__size_to_integer"
.LASF533:
	.string	"_ZNSt6vectorIiSaIiEE13shrink_to_fitEv"
.LASF319:
	.string	"_ZNSt12_Vector_baseI16SubApertureImageSaIS0_EE12_Vector_implC4EOS1_"
.LASF1046:
	.string	"__normal_iterator<(anonymous namespace)::SubParams*, std::vector<(anonymous namespace)::SubParams, std::allocator<(anonymous namespace)::SubParams> > >"
.LASF103:
	.string	"_M_start"
.LASF557:
	.string	"_ZNSt6vectorIiSaIiEE4swapERS1_"
.LASF1305:
	.string	"__last"
.LASF331:
	.string	"_ZNSt12_Vector_baseI16SubApertureImageSaIS0_EEC4ERKS1_OS2_"
.LASF972:
	.string	"_S_nothrow_move"
.LASF897:
	.string	"ungetwc"
.LASF276:
	.string	"initializer_list<unsigned char>"
.LASF1061:
	.string	"_ZN9__gnu_cxx14__alloc_traitsISaIfEfE10_S_on_swapERS1_S3_"
.LASF1287:
	.string	"__v8sf"
.LASF1048:
	.string	"__alloc_traits<std::allocator<int>, int>"
.LASF1288:
	.string	"__v8si"
.LASF966:
	.string	"_S_propagate_on_move_assign"
.LASF237:
	.string	"_ZNSt6vectorIhSaIhEE4swapERS1_"
.LASF508:
	.string	"_ZNSt6vectorIiSaIiEEC4EOS1_RKS0_St17integral_constantIbLb0EE"
.LASF1029:
	.string	"__normal_iterator<const SubApertureImage*, std::vector<SubApertureImage, std::allocator<SubApertureImage> > >"
.LASF769:
	.string	"_ZSt8__fill_aIPhhEvT_S1_RKT0_"
.LASF1004:
	.string	"__normal_iterator<unsigned char const*, std::vector<unsigned char, std::allocator<unsigned char> > >"
.LASF634:
	.string	"__type_identity<std::allocator<float> >"
.LASF955:
	.string	"_ZN9__gnu_cxx3divExx"
.LASF899:
	.string	"vfwscanf"
.LASF1105:
	.string	"n_cs_precedes"
.LASF539:
	.string	"_ZNKSt6vectorIiSaIiEE14_M_range_checkEm"
.LASF76:
	.string	"_ZNSt15__new_allocatorIhE8allocateEmPKv"
.LASF118:
	.string	"_M_get_Tp_allocator"
.LASF1193:
	.string	"__state"
.LASF360:
	.string	"_ZNSt6vectorI16SubApertureImageSaIS0_EE6assignESt16initializer_listIS0_E"
.LASF438:
	.string	"initializer_list<(anonymous namespace)::SubParams>"
.LASF462:
	.string	"_ZNSt16allocator_traitsISaIiEE8allocateERS0_mPKv"
.LASF1117:
	.string	"localeconv"
.LASF71:
	.string	"reference"
.LASF21:
	.string	"__exception_ptr"
.LASF344:
	.string	"_ZNSt6vectorI16SubApertureImageSaIS0_EEC4Ev"
.LASF1088:
	.string	"char16_t"
.LASF1332:
	.string	"__result"
.LASF303:
	.string	"allocator_traits<std::allocator<SubApertureImage> >"
.LASF1444:
	.string	"_Lock_policy"
.LASF127:
	.string	"_ZNSt12_Vector_baseIhSaIhEEC4EmRKS0_"
.LASF1187:
	.string	"strtoull"
.LASF1366:
	.string	"_ZNSaIiED2Ev"
.LASF409:
	.string	"_ZNSt6vectorI16SubApertureImageSaIS0_EE16_M_shrink_to_fitEv"
.LASF532:
	.string	"_ZNSt6vectorIiSaIiEE6resizeEmRKi"
.LASF318:
	.string	"_ZNSt12_Vector_baseI16SubApertureImageSaIS0_EE12_Vector_implC4EOS3_"
.LASF1118:
	.string	"__int8_t"
.LASF373:
	.string	"_ZNKSt6vectorI16SubApertureImageSaIS0_EE4sizeEv"
.LASF375:
	.string	"_ZNSt6vectorI16SubApertureImageSaIS0_EE6resizeEm"
.LASF1387:
	.string	"ind_ltop"
.LASF1290:
	.string	"__m256i"
.LASF200:
	.string	"shrink_to_fit"
.LASF368:
	.string	"_ZNKSt6vectorI16SubApertureImageSaIS0_EE4rendEv"
.LASF261:
	.string	"_ZNSt6vectorIhSaIhEE17_S_check_init_lenEmRKS0_"
.LASF277:
	.string	"reverse_iterator<__gnu_cxx::__normal_iterator<unsigned char*, std::vector<unsigned char, std::allocator<unsigned char> > > >"
.LASF1291:
	.string	"__m256_u"
.LASF860:
	.string	"_fileno"
.LASF763:
	.string	"__do_uninit_fill_n<float*, long unsigned int, float>"
.LASF809:
	.string	"_ZSt4fillIN9__gnu_cxx17__normal_iteratorIPhSt6vectorIhSaIhEEEEhEvT_S7_RKT0_"
.LASF1371:
	.string	"_ZNSaIhED2Ev"
.LASF836:
	.string	"unsigned int"
.LASF739:
	.string	"_ZNSt19_UninitDestroyGuardIPivEC4ERKS1_"
.LASF1006:
	.string	"_ZN9__gnu_cxx14__alloc_traitsISaI16SubApertureImageES1_E17_S_select_on_copyERKS2_"
.LASF1343:
	.string	"_ZNSt15__new_allocatorIfEC2Ev"
.LASF1351:
	.string	"__elems"
.LASF332:
	.string	"_ZNSt12_Vector_baseI16SubApertureImageSaIS0_EED4Ev"
.LASF69:
	.string	"_ZNKSt15__new_allocatorIhE7addressERh"
.LASF22:
	.string	"exception_ptr"
.LASF1065:
	.string	"_ZN9__gnu_cxx14__alloc_traitsISaIfEfE15_S_always_equalEv"
.LASF1240:
	.string	"uint_fast8_t"
.LASF101:
	.string	"_Vector_impl_data"
.LASF167:
	.string	"_ZNSt6vectorIhSaIhEEaSESt16initializer_listIhE"
.LASF448:
	.string	"_ZNSt15__new_allocatorIiED4Ev"
.LASF441:
	.string	"iterator_traits<SubApertureImage*>"
.LASF1382:
	.string	"__for_range"
.LASF998:
	.string	"_ZN9__gnu_cxx17__normal_iteratorIPhSt6vectorIhSaIhEEEmIEl"
.LASF582:
	.string	"_ZNKSt16initializer_listIiE5beginEv"
.LASF646:
	.string	"_ZNSt6vectorIfSaIfEEC4ERKS1_RKS0_"
.LASF219:
	.string	"_ZNSt6vectorIhSaIhEE4backEv"
.LASF1263:
	.string	"iswctype"
.LASF567:
	.string	"_ZNSt6vectorIiSaIiEE14_M_emplace_auxEN9__gnu_cxx17__normal_iteratorIPKiS1_EEOi"
.LASF1086:
	.string	"short int"
.LASF1289:
	.string	"__m256"
.LASF1109:
	.string	"int_p_cs_precedes"
.LASF755:
	.string	"__throw_length_error"
.LASF938:
	.string	"wcstoul"
.LASF1271:
	.string	"_ZNK9ImageData5indexEmmm"
.LASF190:
	.string	"crbegin"
.LASF255:
	.string	"_ZNSt6vectorIhSaIhEE14_M_insert_rvalEN9__gnu_cxx17__normal_iteratorIPKhS1_EEOh"
.LASF825:
	.string	"_ZSt3minIiERKT_S2_S2_"
.LASF864:
	.string	"_vtable_offset"
.LASF312:
	.string	"_ZNSt12_Vector_baseI16SubApertureImageSaIS0_EE17_Vector_impl_dataC4EOS3_"
.LASF906:
	.string	"__isoc23_vwscanf"
.LASF489:
	.string	"_ZNSt12_Vector_baseIiSaIiEEC4ERKS0_OS1_"
.LASF1306:
	.string	"_ZNSt19_UninitDestroyGuardIPfvED2Ev"
.LASF401:
	.string	"_ZNSt6vectorI16SubApertureImageSaIS0_EE4swapERS2_"
.LASF335:
	.string	"_ZNSt12_Vector_baseI16SubApertureImageSaIS0_EE17_M_create_storageEm"
.LASF778:
	.string	"_ZSt20uninitialized_fill_nIPfmfET_S1_T0_RKT1_"
.LASF211:
	.string	"_M_range_check"
.LASF632:
	.string	"_ZNSt12_Vector_baseIfSaIfEE13_M_deallocateEPfm"
.LASF260:
	.string	"_S_check_init_len"
.LASF1449:
	.string	"_IO_lock_t"
.LASF212:
	.string	"_ZNKSt6vectorIhSaIhEE14_M_range_checkEm"
.LASF1318:
	.string	"_ZNSt12_Vector_baseIfSaIfEE17_Vector_impl_dataC2Ev"
.LASF571:
	.string	"_ZNSt6vectorIiSaIiEE15_M_erase_at_endEPi"
.LASF593:
	.string	"_ZNSt15__new_allocatorIfE8allocateEmPKv"
.LASF14:
	.string	"operator std::integral_constant<bool, false>::value_type"
.LASF661:
	.string	"_ZNSt6vectorIfSaIfEE6rbeginEv"
.LASF51:
	.string	"bidirectional_iterator_tag"
.LASF702:
	.string	"_ZNSt6vectorIfSaIfEE14_M_fill_insertEN9__gnu_cxx17__normal_iteratorIPfS1_EEmRKf"
.LASF1321:
	.string	"_ZNSt15__new_allocatorIiEC2ERKS0_"
.LASF434:
	.string	"_M_len"
	.section	.debug_line_str,"MS",@progbits,1
.LASF1:
	.string	"/home/team15/tomasz-worktree-dir/cpp_refocus"
.LASF0:
	.string	"src/avx_analysis_code_ablations/opt9_abl_hand_vec_no_tile.cpp"
	.hidden	"DW.ref.__gxx_personality_v0"
	.weak	"DW.ref.__gxx_personality_v0"
	.section	.data.rel.local.DW.ref.__gxx_personality_v0,"awG",@progbits,DW.ref.__gxx_personality_v0,comdat
	.align 8
	.type	"DW.ref.__gxx_personality_v0", @object
	.size	"DW.ref.__gxx_personality_v0", 8
"DW.ref.__gxx_personality_v0":
	.quad	"__gxx_personality_v0"
	.globl	"__gxx_personality_v0"
	.ident	"GCC: (Debian 16-20260425-1) 16.0.1 20260425 (prerelease) [gcc-16 r16-8812-gd9c07462a22]"
	.section	.note.GNU-stack,"",@progbits
