	.file	"opt9_abl_hand_vec_no_tile_ilp.cpp"
	.intel_syntax noprefix
# GNU C++17 (Debian 16-20260425-1) version 16.0.1 20260425 (prerelease) [gcc-16 r16-8812-gd9c07462a22] (x86_64-linux-gnu)
#	compiled by GNU C version 16.0.1 20260425 (prerelease) [gcc-16 r16-8812-gd9c07462a22], GMP version 6.3.0, MPFR version 4.2.2, MPC version 1.3.1, isl version isl-0.27-GMP

# GGC heuristics: --param ggc-min-expand=30 --param ggc-min-heapsize=4096
# options passed: -march=tigerlake -mmmx -mpopcnt -msse -msse2 -msse3 -mssse3 -msse4.1 -msse4.2 -mavx -mno-sse4a -mno-fma4 -mno-xop -mavx512f -mbmi -mbmi2 -maes -mpclmul -mavx512vl -mavx512bw -mavx512dq -mavx512cd -mavx512vbmi -mavx512ifma -mavx512vpopcntdq -mavx512vbmi2 -mgfni -mvpclmulqdq -mavx512vnni -mavx512bitalg -mno-avx512bf16 -mavx512vp2intersect -mno-3dnow -madx -mabm -mno-cldemote -mclflushopt -mclwb -mno-clzero -mcx16 -mno-enqcmd -mf16c -mfsgsbase -mfxsr -mno-hle -msahf -mno-lwp -mlzcnt -mmovbe -mmovdir64b -mmovdiri -mno-mwaitx -mno-pconfig -mpku -mprfchw -mno-ptwrite -mrdpid -mrdrnd -mrdseed -mno-rtm -mno-serialize -mno-sgx -msha -mshstk -mno-tbm -mno-tsxldtrk -mvaes -mno-waitpkg -mno-wbnoinvd -mxsave -mxsavec -mxsaveopt -mxsaves -mno-amx-tile -mno-amx-int8 -mno-amx-bf16 -mno-uintr -mno-hreset -mno-kl -mno-widekl -mno-avxvnni -mno-avx512fp16 -mno-avxifma -mno-avxvnniint8 -mno-avxneconvert -mno-cmpccxadd -mno-amx-fp16 -mno-prefetchi -mno-raoint -mno-amx-complex -mno-avxvnniint16 -mno-sm3 -mno-sha512 -mno-sm4 -mno-apxf -mno-usermsr -mno-avx10.1 -mno-avx10.2 -mno-amx-avx512 -mno-amx-tf32 -mno-amx-fp8 -mno-movrs -mno-amx-movrs -mno-avx512bmm --param=l1-cache-size=48 --param=l1-cache-line-size=64 --param=l2-cache-size=8192 -mtune=tigerlake -mavx2 -mfma -masm=intel -g -O3 -std=c++17 -ffast-math -fasynchronous-unwind-tables
	.text
.Ltext0:
	.file 0 "/home/team15/tomasz-worktree-dir/cpp_refocus" "src/avx_analysis_code_ablations/opt9_abl_hand_vec_no_tile_ilp.cpp"
	.section	.rodata.str1.8,"aMS",@progbits,1
	.align 8
.LC0:
	.string	"cannot create std::vector larger than max_size()"
	.section	.rodata.str1.1,"aMS",@progbits,1
.LC2:
	.string	"vector::_M_realloc_append"
	.section	.text.unlikely,"ax",@progbits
.LCOLDB4:
	.text
.LHOTB4:
	.p2align 4
	.section	.text.unlikely
.Ltext_cold0:
	.text
	.globl	"_Z21refocus_shift_and_sumRSt6vectorI16SubApertureImageSaIS0_EEf"
	.type	"_Z21refocus_shift_and_sumRSt6vectorI16SubApertureImageSaIS0_EEf", @function
"_Z21refocus_shift_and_sumRSt6vectorI16SubApertureImageSaIS0_EEf":
.LVL0:
.LFB11707:
	.file 1 "src/avx_analysis_code_ablations/opt9_abl_hand_vec_no_tile_ilp.cpp"
	.loc 1 34 91 view -0
	.cfi_startproc
	.cfi_personality 0x9b,"DW.ref.__gxx_personality_v0"
	.cfi_lsda 0x1b,.LLSDA11707
	.loc 1 34 91 is_stmt 0 view .LVU1
	push	rbp	#
	.cfi_def_cfa_offset 16
	.cfi_offset 6, -16
	vmovaps	xmm4, xmm0	# focus, focus
.LBB2324:
.LBB2325:
.LBB2326:
.LBB2327:
.LBB2328:
.LBB2329:
# /usr/include/c++/16/bits/stl_vector.h:106: 	: _M_start(), _M_finish(), _M_end_of_storage()
	.file 2 "/usr/include/c++/16/bits/stl_vector.h"
	.loc 2 106 4 view .LVU2
	vpxor	xmm1, xmm1, xmm1	# tmp853
.LBE2329:
.LBE2328:
.LBE2327:
.LBE2326:
.LBE2325:
.LBE2324:
# src/avx_analysis_code_ablations/opt9_abl_hand_vec_no_tile_ilp.cpp:34: ImageData refocus_shift_and_sum(std::vector<SubApertureImage>& subapertures, float focus) {
	.loc 1 34 91 view .LVU3
	mov	rbp, rsp	#,
	.cfi_def_cfa_register 6
	push	r15	#
	push	r14	#
	push	r13	#
	push	r12	#
	push	rbx	#
	.cfi_offset 15, -24
	.cfi_offset 14, -32
	.cfi_offset 13, -40
	.cfi_offset 12, -48
	.cfi_offset 3, -56
	mov	rbx, rsi	# subapertures, subapertures
	and	rsp, -32	#,
	sub	rsp, 224	#,
.LBB2341:
.LBB2342:
.LBB2343:
.LBB2344:
# /usr/include/c++/16/bits/stl_iterator.h:1059:       : _M_current(__i) { }
	.file 3 "/usr/include/c++/16/bits/stl_iterator.h"
	.loc 3 1059 9 view .LVU4
	mov	rcx, QWORD PTR [rsi]	# SR.270, MEM[(struct SubApertureImage * const &)subapertures_207(D)]
.LBE2344:
.LBE2343:
.LBE2342:
.LBE2341:
# src/avx_analysis_code_ablations/opt9_abl_hand_vec_no_tile_ilp.cpp:34: ImageData refocus_shift_and_sum(std::vector<SubApertureImage>& subapertures, float focus) {
	.loc 1 34 91 view .LVU5
	mov	QWORD PTR 40[rsp], rdi	# %sfp, <retval>
	.loc 1 35 5 is_stmt 1 view .LVU6
.LVL1:
.LBB2347:
.LBI2341:
	.loc 2 1334 7 view .LVU7
	.loc 2 1336 2 discriminator 2 view .LVU8
.LBB2346:
.LBI2342:
	.loc 2 988 7 view .LVU9
.LBB2345:
.LBI2343:
	.loc 3 1058 7 view .LVU10
	.loc 3 1058 7 is_stmt 0 view .LVU11
.LBE2345:
.LBE2346:
.LBE2347:
# src/avx_analysis_code_ablations/opt9_abl_hand_vec_no_tile_ilp.cpp:35:     const size_t width  = subapertures.front().data.width;
	.loc 1 35 53 discriminator 1 view .LVU12
	vmovdqu	xmm0, XMMWORD PTR [rcx]	# MEM <vector(2) long unsigned int> [(long unsigned int *)_405], MEM <vector(2) long unsigned int> [(long unsigned int *)_405]
.LVL2:
.LBB2348:
.LBB2339:
.LBB2337:
.LBB2335:
.LBB2331:
.LBB2330:
# /usr/include/c++/16/bits/stl_vector.h:106: 	: _M_start(), _M_finish(), _M_end_of_storage()
	.loc 2 106 29 view .LVU13
	mov	QWORD PTR 32[rdi], 0	# MEM[(struct _Vector_impl_data *)output_212(D) + 16B]._M_end_of_storage,
# /usr/include/c++/16/bits/stl_vector.h:106: 	: _M_start(), _M_finish(), _M_end_of_storage()
	.loc 2 106 4 view .LVU14
	vmovdqu	XMMWORD PTR 16[rdi], xmm1	# MEM <vector(2) long unsigned int> [(unsigned char * *)output_212(D) + 16B], tmp853
	vmovq	rax, xmm0	# _716, MEM <vector(2) long unsigned int> [(long unsigned int *)_405]
	vpextrq	rdx, xmm0, 1	# _817, MEM <vector(2) long unsigned int> [(long unsigned int *)_405]
.LBE2330:
.LBE2331:
.LBE2335:
.LBE2337:
.LBE2339:
.LBE2348:
# src/avx_analysis_code_ablations/opt9_abl_hand_vec_no_tile_ilp.cpp:41:     output.width = width;
	.loc 1 41 18 view .LVU15
	vmovdqu	XMMWORD PTR [rdi], xmm0	# MEM <vector(2) long unsigned int> [(long unsigned int *)output_212(D)], MEM <vector(2) long unsigned int> [(long unsigned int *)_405]
# src/avx_analysis_code_ablations/opt9_abl_hand_vec_no_tile_ilp.cpp:43:     output.data.assign(width * height * 3, 0);
	.loc 1 43 30 view .LVU16
	mov	rdi, rax	# _728, _716
.LVL3:
	.loc 1 43 30 view .LVU17
	mov	QWORD PTR 176[rsp], rdx	# %sfp, _817
	imul	rdi, rdx	# _728, _817
	vmovq	QWORD PTR 104[rsp], xmm0	# %sfp, _716
.LVL4:
	.loc 1 36 5 is_stmt 1 view .LVU18
.LBB2349:
.LBI2349:
	.loc 2 1334 7 view .LVU19
	.loc 2 1336 2 discriminator 2 view .LVU20
.LBB2350:
.LBI2350:
	.loc 2 988 7 view .LVU21
.LBB2351:
.LBI2351:
	.loc 3 1058 7 view .LVU22
	.loc 3 1058 7 is_stmt 0 view .LVU23
.LBE2351:
.LBE2350:
.LBE2349:
	.loc 1 37 5 is_stmt 1 view .LVU24
	.loc 1 38 5 view .LVU25
	.loc 1 40 5 view .LVU26
.LBB2352:
.LBI2324:
	.file 4 "include/utils.hpp"
	.loc 4 11 8 view .LVU27
.LBB2340:
.LBI2325:
	.loc 2 551 7 view .LVU28
.LBB2338:
.LBI2326:
	.loc 2 321 7 view .LVU29
.LBB2336:
.LBI2327:
	.loc 2 143 2 view .LVU30
.LBB2332:
.LBI2332:
	.file 5 "/usr/include/c++/16/bits/allocator.h"
	.loc 5 168 7 view .LVU31
.LBB2333:
.LBI2333:
	.file 6 "/usr/include/c++/16/bits/new_allocator.h"
	.loc 6 88 7 view .LVU32
	.loc 6 88 7 is_stmt 0 view .LVU33
.LBE2333:
.LBE2332:
.LBB2334:
.LBI2328:
	.loc 2 105 2 is_stmt 1 view .LVU34
	.loc 2 105 2 is_stmt 0 view .LVU35
.LBE2334:
.LBE2336:
.LBE2338:
.LBE2340:
.LBE2352:
	.loc 1 41 5 is_stmt 1 view .LVU36
	.loc 1 42 5 view .LVU37
	.loc 1 43 5 view .LVU38
# src/avx_analysis_code_ablations/opt9_abl_hand_vec_no_tile_ilp.cpp:43:     output.data.assign(width * height * 3, 0);
	.loc 1 43 23 is_stmt 0 view .LVU39
	lea	rsi, [rdi+rdi]	# tmp1611,
.LVL5:
# src/avx_analysis_code_ablations/opt9_abl_hand_vec_no_tile_ilp.cpp:43:     output.data.assign(width * height * 3, 0);
	.loc 1 43 30 view .LVU40
	mov	QWORD PTR 56[rsp], rdi	# %sfp, _728
# src/avx_analysis_code_ablations/opt9_abl_hand_vec_no_tile_ilp.cpp:43:     output.data.assign(width * height * 3, 0);
	.loc 1 43 23 view .LVU41
	mov	QWORD PTR 152[rsp], rsi	# %sfp, tmp1611
	add	rsi, rdi	# _5, _728
	mov	QWORD PTR 192[rsp], rsi	# %sfp, _5
.LVL6:
.LBB2353:
.LBI2353:
	.loc 2 865 7 is_stmt 1 view .LVU42
.LBB2354:
.LBI2354:
	.file 7 "/usr/include/c++/16/bits/vector.tcc"
	.loc 7 274 5 view .LVU43
.LBB2355:
.LBB2356:
# /usr/include/c++/16/bits/vector.tcc:278:       if (__n > capacity())
	.loc 7 278 7 is_stmt 0 discriminator 1 view .LVU44
	test	rdi, rdi	# _728
	jne	.L2	#,
.LVL7:
	.loc 7 278 7 discriminator 1 view .LVU45
.LBE2356:
.LBE2355:
.LBE2354:
.LBE2353:
	.loc 1 46 5 is_stmt 1 view .LVU46
.LBB2440:
.LBI2440:
	.loc 2 551 7 view .LVU47
.LBB2441:
.LBI2441:
	.loc 2 321 7 view .LVU48
.LBB2442:
.LBI2442:
	.loc 2 143 2 view .LVU49
.LBB2443:
.LBI2443:
	.loc 5 168 7 view .LVU50
.LBB2444:
.LBI2444:
	.loc 6 88 7 view .LVU51
	.loc 6 88 7 is_stmt 0 view .LVU52
.LBE2444:
.LBE2443:
.LBB2446:
.LBI2446:
	.loc 2 105 2 is_stmt 1 view .LVU53
	.loc 2 105 2 is_stmt 0 view .LVU54
.LBE2446:
.LBE2442:
.LBE2441:
.LBE2440:
	.loc 1 47 5 is_stmt 1 view .LVU55
.LBB2471:
.LBI2471:
	.loc 2 1107 7 view .LVU56
.LBB2472:
# /usr/include/c++/16/bits/stl_vector.h:1109: 	ptrdiff_t __dif = this->_M_impl._M_finish - this->_M_impl._M_start;
	.loc 2 1109 34 is_stmt 0 view .LVU57
	mov	rsi, QWORD PTR 8[rbx]	# _648, MEM[(const struct vector *)subapertures_207(D)].D.139286._M_impl.D.138633._M_finish
.LVL8:
	.loc 2 1109 34 view .LVU58
.LBE2472:
.LBE2471:
.LBB2476:
.LBI2476:
	.loc 7 70 5 is_stmt 1 view .LVU59
.LBB2477:
# /usr/include/c++/16/bits/vector.tcc:75:       if (this->capacity() < __n)
	.loc 7 75 7 is_stmt 0 discriminator 1 view .LVU60
	mov	rdi, rsi	# _424, _648
.LBE2477:
.LBE2476:
.LBB2491:
.LBB2473:
# /usr/include/c++/16/bits/stl_vector.h:1109: 	ptrdiff_t __dif = this->_M_impl._M_finish - this->_M_impl._M_start;
	.loc 2 1109 34 view .LVU61
	mov	QWORD PTR 216[rsp], rsi	# %sfp, _648
.LBE2473:
.LBE2491:
.LBB2492:
.LBB2488:
# /usr/include/c++/16/bits/vector.tcc:75:       if (this->capacity() < __n)
	.loc 7 75 7 discriminator 1 view .LVU62
	sub	rdi, rcx	# _424, SR.270
.LVL9:
	.loc 7 75 7 discriminator 1 view .LVU63
	mov	QWORD PTR 32[rsp], rdi	# %sfp, _424
	je	.L160	#,
.LVL10:
.L4:
.LBB2478:
.LBB2479:
.LBB2480:
.LBB2481:
.LBB2482:
.LBB2483:
# /usr/include/c++/16/bits/new_allocator.h:162: 	  return static_cast<_Tp*>(_GLIBCXX_OPERATOR_NEW(__n * sizeof(_Tp)));
	.loc 6 162 68 view .LVU64
	mov	rbx, QWORD PTR 32[rsp]	# _424, %sfp
.LVL11:
	.loc 6 162 68 view .LVU65
	mov	QWORD PTR 184[rsp], rcx	# %sfp, SR.270
.LVL12:
	.loc 6 162 68 view .LVU66
.LBE2483:
.LBE2482:
.LBE2481:
.LBE2480:
.LBI2479:
	.loc 2 386 7 is_stmt 1 view .LVU67
.LBB2487:
.LBB2486:
.LBI2481:
	.file 8 "/usr/include/c++/16/bits/alloc_traits.h"
	.loc 8 637 7 view .LVU68
.LBB2485:
.LBI2482:
	.loc 6 129 7 view .LVU69
	.loc 6 129 7 is_stmt 0 view .LVU70
	vmovss	DWORD PTR 168[rsp], xmm4	# %sfp, focus
.LBB2484:
# /usr/include/c++/16/bits/new_allocator.h:162: 	  return static_cast<_Tp*>(_GLIBCXX_OPERATOR_NEW(__n * sizeof(_Tp)));
	.loc 6 162 68 view .LVU71
	mov	rdi, rbx	#, _424
.LEHB0:
	call	"_Znwm"@PLT	#
.LVL13:
.LEHE0:
	mov	r12, rax	# __new_finish, __new_finish
.LVL14:
	.loc 6 162 68 view .LVU72
.LBE2484:
.LBE2485:
.LBE2486:
.LBE2487:
.LBE2479:
# /usr/include/c++/16/bits/vector.tcc:101: 	  this->_M_impl._M_end_of_storage = this->_M_impl._M_start + __n;
	.loc 7 101 61 view .LVU73
	lea	rax, [rax+rbx]	# params$_M_end_of_storage,
.LVL15:
	.loc 7 101 61 view .LVU74
	mov	rcx, QWORD PTR 184[rsp]	# SR.270, %sfp
	vmovss	xmm4, DWORD PTR 168[rsp]	# focus, %sfp
	mov	QWORD PTR 208[rsp], rax	# %sfp, params$_M_end_of_storage
.LVL16:
.L8:
	.loc 7 101 61 view .LVU75
.LBE2478:
.LBE2488:
.LBE2492:
# src/avx_analysis_code_ablations/opt9_abl_hand_vec_no_tile_ilp.cpp:37:     const int w = static_cast<int>(width);
	.loc 1 37 15 view .LVU76
	mov	r15d, DWORD PTR 104[rsp]	# _1187, %sfp
# src/avx_analysis_code_ablations/opt9_abl_hand_vec_no_tile_ilp.cpp:38:     const int h = static_cast<int>(height);
	.loc 1 38 15 view .LVU77
	mov	r13d, DWORD PTR 176[rsp]	# _2, %sfp
.LVL17:
	.loc 1 48 5 is_stmt 1 view .LVU78
.LBB2493:
.LBB2494:
.LBI2494:
	.loc 2 988 7 view .LVU79
.LBB2495:
.LBI2495:
	.loc 3 1058 7 view .LVU80
	.loc 3 1058 7 is_stmt 0 view .LVU81
.LBE2495:
.LBE2494:
.LBB2497:
.LBI2497:
	.loc 2 1008 7 is_stmt 1 view .LVU82
.LBB2498:
.LBI2498:
	.loc 3 1058 7 view .LVU83
	.loc 3 1058 7 is_stmt 0 view .LVU84
.LBE2498:
.LBE2497:
	.loc 1 48 22 is_stmt 1 discriminator 5 view .LVU85
# src/avx_analysis_code_ablations/opt9_abl_hand_vec_no_tile_ilp.cpp:48:     for (auto& sub : subapertures) {
	.loc 1 48 22 is_stmt 0 discriminator 6 view .LVU86
	cmp	rcx, QWORD PTR 216[rsp]	# SR.270, %sfp
	je	.L76	#,
.LVL18:
.L5:
	.loc 1 48 22 discriminator 6 view .LVU87
.LBE2493:
.LBB2637:
.LBB2465:
.LBB2459:
.LBB2452:
.LBB2447:
# /usr/include/c++/16/bits/stl_vector.h:106: 	: _M_start(), _M_finish(), _M_end_of_storage()
	.loc 2 106 29 view .LVU88
	mov	QWORD PTR 96[rsp], r12	# %sfp, __new_finish
.LBE2447:
.LBE2452:
.LBE2459:
.LBE2465:
.LBE2637:
.LBB2638:
.LBB2500:
# src/avx_analysis_code_ablations/opt9_abl_hand_vec_no_tile_ilp.cpp:60:         p.x_begin = std::max(0, -p.sx);
	.loc 1 60 33 view .LVU89
	xor	r9d, r9d	# tmp1613
	.p2align 4,,10
	.p2align 3
.L17:
.LVL19:
	.loc 1 49 9 is_stmt 1 view .LVU90
	.loc 1 50 9 view .LVU91
# src/avx_analysis_code_ablations/opt9_abl_hand_vec_no_tile_ilp.cpp:50:         float shift_x = focus * sub.u;
	.loc 1 50 15 is_stmt 0 view .LVU92
	vmulss	xmm3, xmm4, DWORD PTR 40[rcx]	# shift_x, focus, MEM[(float *)SR.270_759 + 40B]
.LVL20:
	.loc 1 51 9 is_stmt 1 view .LVU93
# src/avx_analysis_code_ablations/opt9_abl_hand_vec_no_tile_ilp.cpp:61:         p.x_end   = std::min(w, w - p.sx - 1);
	.loc 1 61 35 is_stmt 0 view .LVU94
	mov	ebx, r15d	# _19, _1187
# src/avx_analysis_code_ablations/opt9_abl_hand_vec_no_tile_ilp.cpp:63:         p.y_end   = std::min(h, h - p.sy - 1);
	.loc 1 63 35 view .LVU95
	mov	r14d, r13d	# _24, _2
# src/avx_analysis_code_ablations/opt9_abl_hand_vec_no_tile_ilp.cpp:51:         float shift_y = focus * sub.v;
	.loc 1 51 15 view .LVU96
	vmulss	xmm2, xmm4, DWORD PTR 44[rcx]	# shift_y, focus, MEM[(float *)SR.270_759 + 44B]
.LVL21:
	.loc 1 52 9 is_stmt 1 view .LVU97
.LBB2501:
.LBI2501:
	.file 9 "/usr/include/c++/16/cmath"
	.loc 9 264 3 view .LVU98
.LBB2502:
	.loc 9 265 5 view .LVU99
# /usr/include/c++/16/cmath:265:   { return __builtin_floorf(__x); }
	.loc 9 265 28 is_stmt 0 view .LVU100
	vrndscaless	xmm0, xmm3, xmm3, 9	# _415, shift_x,
.LVL22:
	.loc 9 265 28 view .LVU101
.LBE2502:
.LBE2501:
# src/avx_analysis_code_ablations/opt9_abl_hand_vec_no_tile_ilp.cpp:52:         p.sx = static_cast<int>(std::floor(shift_x));
	.loc 1 52 16 discriminator 1 view .LVU102
	vcvttss2si	r10d, xmm0	# _9, _415
.LVL23:
	.loc 1 53 9 is_stmt 1 view .LVU103
.LBB2503:
.LBI2503:
	.loc 9 264 3 view .LVU104
.LBB2504:
	.loc 9 265 5 view .LVU105
# /usr/include/c++/16/cmath:265:   { return __builtin_floorf(__x); }
	.loc 9 265 28 is_stmt 0 view .LVU106
	vrndscaless	xmm1, xmm2, xmm2, 9	# _414, shift_y,
.LVL24:
	.loc 9 265 28 view .LVU107
.LBE2504:
.LBE2503:
# src/avx_analysis_code_ablations/opt9_abl_hand_vec_no_tile_ilp.cpp:53:         p.sy = static_cast<int>(std::floor(shift_y));
	.loc 1 53 16 discriminator 1 view .LVU108
	vcvttss2si	r8d, xmm1	# _10, _414
.LVL25:
	.loc 1 54 9 is_stmt 1 view .LVU109
	.loc 1 55 9 view .LVU110
	.loc 1 56 9 view .LVU111
	.loc 1 57 9 view .LVU112
	.loc 1 58 9 view .LVU113
	.loc 1 59 9 view .LVU114
	.loc 1 60 9 view .LVU115
.LBB2505:
.LBI2505:
	.file 10 "/usr/include/c++/16/bits/stl_algobase.h"
	.loc 10 256 5 view .LVU116
.LBE2505:
# src/avx_analysis_code_ablations/opt9_abl_hand_vec_no_tile_ilp.cpp:60:         p.x_begin = std::max(0, -p.sx);
	.loc 1 60 33 is_stmt 0 view .LVU117
	mov	esi, r10d	# tmp1612, _9
	neg	esi	# tmp1612
	test	r10d, r10d	# _9
# src/avx_analysis_code_ablations/opt9_abl_hand_vec_no_tile_ilp.cpp:62:         p.y_begin = std::max(0, -p.sy);
	.loc 1 62 33 view .LVU118
	mov	r11d, r8d	# tmp1614, _10
# src/avx_analysis_code_ablations/opt9_abl_hand_vec_no_tile_ilp.cpp:60:         p.x_begin = std::max(0, -p.sx);
	.loc 1 60 33 view .LVU119
	cmovns	esi, r9d	# tmp1612,, _17, tmp1613
.LVL26:
	.loc 1 61 9 is_stmt 1 view .LVU120
.LBB2506:
.LBI2506:
	.loc 10 232 5 view .LVU121
.LBE2506:
# src/avx_analysis_code_ablations/opt9_abl_hand_vec_no_tile_ilp.cpp:61:         p.x_end   = std::min(w, w - p.sx - 1);
	.loc 1 61 35 is_stmt 0 view .LVU122
	sub	ebx, r10d	# _19, _9
# src/avx_analysis_code_ablations/opt9_abl_hand_vec_no_tile_ilp.cpp:61:         p.x_end   = std::min(w, w - p.sx - 1);
	.loc 1 61 42 view .LVU123
	dec	ebx	# _20
.LBB2508:
.LBB2507:
# /usr/include/c++/16/bits/stl_algobase.h:237:       if (__b < __a)
	.loc 10 237 7 view .LVU124
	cmp	ebx, r15d	# _20, _1187
	cmovg	ebx, r15d	# _20,, _6, _1187
.LVL27:
	.loc 10 237 7 view .LVU125
.LBE2507:
.LBE2508:
	.loc 1 62 9 is_stmt 1 view .LVU126
.LBB2509:
.LBI2509:
	.loc 10 256 5 view .LVU127
.LBE2509:
# src/avx_analysis_code_ablations/opt9_abl_hand_vec_no_tile_ilp.cpp:62:         p.y_begin = std::max(0, -p.sy);
	.loc 1 62 33 is_stmt 0 view .LVU128
	neg	r11d	# tmp1614
	test	r8d, r8d	# _10
	cmovns	r11d, r9d	# tmp1614,, _21, tmp1613
	.loc 1 63 9 is_stmt 1 view .LVU129
.LVL28:
.LBB2510:
.LBI2510:
	.loc 10 232 5 view .LVU130
.LBE2510:
# src/avx_analysis_code_ablations/opt9_abl_hand_vec_no_tile_ilp.cpp:63:         p.y_end   = std::min(h, h - p.sy - 1);
	.loc 1 63 35 is_stmt 0 view .LVU131
	sub	r14d, r8d	# _24, _10
# src/avx_analysis_code_ablations/opt9_abl_hand_vec_no_tile_ilp.cpp:63:         p.y_end   = std::min(h, h - p.sy - 1);
	.loc 1 63 42 view .LVU132
	dec	r14d	# _25
.LBB2512:
.LBB2511:
# /usr/include/c++/16/bits/stl_algobase.h:237:       if (__b < __a)
	.loc 10 237 7 view .LVU133
	cmp	r14d, r13d	# _25, _2
	cmovg	r14d, r13d	# _25,, _494, _2
.LVL29:
	.loc 10 237 7 view .LVU134
.LBE2511:
.LBE2512:
	.loc 1 64 9 is_stmt 1 view .LVU135
.LBB2513:
.LBI2513:
	.loc 2 1385 7 view .LVU136
	.loc 2 1385 7 is_stmt 0 view .LVU137
.LBE2513:
	.loc 1 65 9 is_stmt 1 view .LVU138
# src/avx_analysis_code_ablations/opt9_abl_hand_vec_no_tile_ilp.cpp:65:         if (p.x_begin >= p.x_end || p.y_begin >= p.y_end) continue;  // skip degenerate
	.loc 1 65 34 is_stmt 0 discriminator 1 view .LVU139
	cmp	ebx, esi	# _6, _17
	jle	.L12	#,
	.loc 1 65 34 discriminator 1 view .LVU140
	cmp	r11d, r14d	# _21, _494
	jge	.L12	#,
# src/avx_analysis_code_ablations/opt9_abl_hand_vec_no_tile_ilp.cpp:55:         float dy = shift_y - p.sy;
	.loc 1 55 15 view .LVU141
	vsubss	xmm6, xmm2, xmm1	# dy, shift_y, _414
.LVL30:
# src/avx_analysis_code_ablations/opt9_abl_hand_vec_no_tile_ilp.cpp:54:         float dx = shift_x - p.sx;
	.loc 1 54 15 view .LVU142
	vsubss	xmm5, xmm3, xmm0	# dx, shift_x, _415
.LVL31:
.LBB2516:
.LBB2514:
# /usr/include/c++/16/bits/stl_vector.h:1386:       { return _M_data_ptr(this->_M_impl._M_start); }
	.loc 2 1386 42 view .LVU143
	mov	rax, QWORD PTR 16[rcx]	# _413, MEM[(unsigned char * *)SR.270_759 + 16B]
.LBE2514:
.LBE2516:
# src/avx_analysis_code_ablations/opt9_abl_hand_vec_no_tile_ilp.cpp:56:         p.A = (1 - dx) * (1 - dy);
	.loc 1 56 18 view .LVU144
	vaddss	xmm0, xmm0, DWORD PTR .LC1[rip]	# _717, _415,
.LVL32:
# src/avx_analysis_code_ablations/opt9_abl_hand_vec_no_tile_ilp.cpp:56:         p.A = (1 - dx) * (1 - dy);
	.loc 1 56 29 view .LVU145
	vaddss	xmm1, xmm1, DWORD PTR .LC1[rip]	# _719, _414,
.LVL33:
.LBB2517:
.LBB2515:
# /usr/include/c++/16/bits/stl_vector.h:1386:       { return _M_data_ptr(this->_M_impl._M_start); }
	.loc 2 1386 42 view .LVU146
	mov	QWORD PTR 184[rsp], rax	# %sfp, _413
.LBE2515:
.LBE2517:
# src/avx_analysis_code_ablations/opt9_abl_hand_vec_no_tile_ilp.cpp:56:         p.A = (1 - dx) * (1 - dy);
	.loc 1 56 18 view .LVU147
	vsubss	xmm0, xmm0, xmm3	# _11, _717, shift_x
.LVL34:
# src/avx_analysis_code_ablations/opt9_abl_hand_vec_no_tile_ilp.cpp:56:         p.A = (1 - dx) * (1 - dy);
	.loc 1 56 29 view .LVU148
	vsubss	xmm1, xmm1, xmm2	# _12, _719, shift_y
.LVL35:
# src/avx_analysis_code_ablations/opt9_abl_hand_vec_no_tile_ilp.cpp:56:         p.A = (1 - dx) * (1 - dy);
	.loc 1 56 24 view .LVU149
	vmulss	xmm2, xmm0, xmm1	# _13, _11, _12
.LVL36:
# src/avx_analysis_code_ablations/opt9_abl_hand_vec_no_tile_ilp.cpp:57:         p.B = dx       * (1 - dy);
	.loc 1 57 24 view .LVU150
	vmulss	xmm1, xmm1, xmm5	# _14, _12, dx
# src/avx_analysis_code_ablations/opt9_abl_hand_vec_no_tile_ilp.cpp:58:         p.C = (1 - dx) * dy;
	.loc 1 58 24 view .LVU151
	vmulss	xmm0, xmm0, xmm6	# _15, _11, dy
# src/avx_analysis_code_ablations/opt9_abl_hand_vec_no_tile_ilp.cpp:59:         p.D = dx       * dy;
	.loc 1 59 24 view .LVU152
	vmulss	xmm5, xmm5, xmm6	# _16, dx, dy
.LVL37:
	.loc 1 66 9 is_stmt 1 view .LVU153
.LBB2518:
.LBI2518:
	.loc 2 1406 7 view .LVU154
.LBB2519:
# /usr/include/c++/16/bits/stl_vector.h:1408: 	if (this->_M_impl._M_finish != this->_M_impl._M_end_of_storage)
	.loc 2 1408 2 is_stmt 0 view .LVU155
	cmp	QWORD PTR 208[rsp], r12	# %sfp, __new_finish
	je	.L13	#,
.LVL38:
.LBB2520:
.LBI2520:
	.loc 8 705 2 is_stmt 1 view .LVU156
.LBB2521:
.LBI2521:
	.loc 6 201 2 view .LVU157
.LBB2522:
# /usr/include/c++/16/bits/new_allocator.h:203: 	{ ::new((void *)__p) _Up(std::forward<_Args>(__args)...); }
	.loc 6 203 4 is_stmt 0 discriminator 1 view .LVU158
	vunpcklps	xmm0, xmm0, xmm5	# tmp877, _15, _16
	vunpcklps	xmm2, xmm2, xmm1	# tmp878, _13, _14
	mov	DWORD PTR [r12], r10d	# params$_M_finish_186->sx, _9
.LBE2522:
.LBE2521:
.LBE2520:
# /usr/include/c++/16/bits/stl_vector.h:1413: 	    ++this->_M_impl._M_finish;
	.loc 2 1413 6 view .LVU159
	add	r12, 48	# __new_finish,
.LBB2525:
.LBB2524:
.LBB2523:
# /usr/include/c++/16/bits/new_allocator.h:203: 	{ ::new((void *)__p) _Up(std::forward<_Args>(__args)...); }
	.loc 6 203 4 discriminator 1 view .LVU160
	mov	DWORD PTR -44[r12], r8d	# params$_M_finish_186->sy, _10
	vmovlhps	xmm2, xmm2, xmm0	# _68, tmp878, tmp877
	mov	DWORD PTR -24[r12], esi	# params$_M_finish_186->x_begin, _17
	mov	DWORD PTR -20[r12], ebx	# params$_M_finish_186->x_end, _6
	mov	DWORD PTR -16[r12], r11d	# params$_M_finish_186->y_begin, _21
	mov	DWORD PTR -12[r12], r14d	# params$_M_finish_186->y_end, _494
	mov	QWORD PTR -8[r12], rax	# MEM <const unsigned char *> [(struct SubParams *)params$_M_finish_186 + 40B], _413
.LVL39:
	.loc 6 203 4 discriminator 1 view .LVU161
	vmovups	XMMWORD PTR -40[r12], xmm2	# MEM <vector(4) float> [(float *)params$_M_finish_186 + 8B], _68
.LVL40:
.L12:
	.loc 6 203 4 discriminator 1 view .LVU162
.LBE2523:
.LBE2524:
.LBE2525:
.LBE2519:
.LBE2518:
.LBE2500:
	.loc 1 48 5 is_stmt 1 discriminator 4 view .LVU163
.LBB2631:
.LBI2631:
	.loc 3 1101 7 view .LVU164
.LBB2632:
# /usr/include/c++/16/bits/stl_iterator.h:1103: 	++_M_current;
	.loc 3 1103 2 is_stmt 0 view .LVU165
	add	rcx, 48	# SR.270,
.LVL41:
	.loc 3 1103 2 view .LVU166
.LBE2632:
.LBE2631:
	.loc 1 48 22 is_stmt 1 discriminator 5 view .LVU167
# src/avx_analysis_code_ablations/opt9_abl_hand_vec_no_tile_ilp.cpp:48:     for (auto& sub : subapertures) {
	.loc 1 48 22 is_stmt 0 discriminator 6 view .LVU168
	cmp	rcx, QWORD PTR 216[rsp]	# SR.270, %sfp
	jne	.L17	#,
.LBE2638:
.LBB2639:
.LBB2640:
.LBB2641:
# /usr/include/c++/16/bits/stl_vector.h:375: 	ptrdiff_t __n = _M_impl._M_end_of_storage - _M_impl._M_start;
	.loc 2 375 44 view .LVU169
	mov	rax, QWORD PTR 208[rsp]	# _424, %sfp
	sub	rax, QWORD PTR 96[rsp]	# _424, %sfp
	mov	QWORD PTR 32[rsp], rax	# %sfp, _424
.LVL42:
.L9:
	.loc 2 375 44 view .LVU170
.LBE2641:
.LBE2640:
.LBE2639:
	.loc 1 70 5 is_stmt 1 view .LVU171
.LBB2656:
.LBI2656:
	.loc 5 168 7 view .LVU172
.LBB2657:
.LBI2657:
	.loc 6 88 7 view .LVU173
	.loc 6 88 7 is_stmt 0 view .LVU174
.LBE2657:
.LBE2656:
.LBB2658:
.LBI2658:
	.loc 2 589 7 is_stmt 1 view .LVU175
.LBB2659:
.LBI2659:
	.loc 2 2203 7 view .LVU176
.LBB2660:
.LBB2661:
.LBI2661:
	.loc 5 172 7 view .LVU177
.LBB2662:
.LBI2662:
	.loc 6 92 7 view .LVU178
	.loc 6 92 7 is_stmt 0 view .LVU179
.LBE2662:
.LBE2661:
.LBB2663:
.LBI2663:
	.loc 5 189 7 is_stmt 1 view .LVU180
.LBB2664:
.LBI2664:
	.loc 6 104 7 view .LVU181
.LBE2664:
.LBE2663:
# /usr/include/c++/16/bits/stl_vector.h:2205: 	if (__n > _S_max_size(_Tp_alloc_type(__a)))
	.loc 2 2205 2 is_stmt 0 discriminator 3 view .LVU182
	mov	rax, QWORD PTR 56[rsp]	# tmp1683, %sfp
	shr	rax, 61	# tmp1683,
	jne	.L146	#,
.LVL43:
	.loc 2 2205 2 discriminator 3 view .LVU183
.LBE2660:
.LBE2659:
.LBB2666:
.LBI2666:
	.loc 2 339 7 is_stmt 1 view .LVU184
.LBB2667:
.LBI2667:
	.loc 2 152 2 view .LVU185
.LBB2668:
.LBI2668:
	.loc 5 172 7 view .LVU186
.LBB2669:
.LBI2669:
	.loc 6 92 7 view .LVU187
	.loc 6 92 7 is_stmt 0 view .LVU188
.LBE2669:
.LBE2668:
.LBB2670:
.LBI2670:
	.loc 2 105 2 is_stmt 1 view .LVU189
	.loc 2 105 2 is_stmt 0 view .LVU190
.LBE2670:
.LBE2667:
.LBB2671:
.LBI2671:
	.loc 2 405 7 is_stmt 1 view .LVU191
.LBB2672:
.LBB2673:
.LBI2673:
	.loc 2 386 7 view .LVU192
.LBB2674:
# /usr/include/c++/16/bits/stl_vector.h:389: 	return __n != 0 ? _Tr::allocate(_M_impl, __n) : pointer();
	.loc 2 389 18 is_stmt 0 view .LVU193
	mov	rax, QWORD PTR 56[rsp]	# _728, %sfp
	test	rax, rax	# _728
	je	.L79	#,
.LVL44:
.LBB2675:
.LBI2675:
	.loc 8 637 7 is_stmt 1 view .LVU194
.LBB2676:
.LBI2676:
	.loc 6 129 7 view .LVU195
.LBB2677:
# /usr/include/c++/16/bits/new_allocator.h:162: 	  return static_cast<_Tp*>(_GLIBCXX_OPERATOR_NEW(__n * sizeof(_Tp)));
	.loc 6 162 68 is_stmt 0 view .LVU196
	lea	rbx, 0[0+rax*4]	# _530,
	mov	rdi, rbx	#, _530
	mov	QWORD PTR 24[rsp], rbx	# %sfp, _530
.LEHB1:
	call	"_Znwm"@PLT	#
.LVL45:
.LEHE1:
.LBE2677:
.LBE2676:
.LBE2675:
.LBE2674:
.LBE2673:
.LBE2672:
.LBE2671:
.LBE2666:
.LBB2689:
.LBB2690:
.LBB2691:
.LBB2692:
.LBB2693:
.LBB2694:
.LBB2695:
.LBB2696:
# /usr/include/c++/16/bits/stl_construct.h:133:       ::new(static_cast<void*>(__p)) _Tp(std::forward<_Args>(__args)...);
	.file 11 "/usr/include/c++/16/bits/stl_construct.h"
	.loc 11 133 7 discriminator 1 view .LVU197
	mov	rdx, rbx	#, _530
	xor	esi, esi	#
	mov	rdi, rax	#, _532
.LBE2696:
.LBE2695:
.LBE2694:
.LBE2693:
.LBE2692:
.LBE2691:
.LBE2690:
.LBE2689:
.LBB2706:
.LBB2687:
.LBB2685:
.LBB2683:
.LBB2681:
.LBB2680:
.LBB2679:
.LBB2678:
# /usr/include/c++/16/bits/new_allocator.h:162: 	  return static_cast<_Tp*>(_GLIBCXX_OPERATOR_NEW(__n * sizeof(_Tp)));
	.loc 6 162 68 view .LVU198
	mov	QWORD PTR 64[rsp], rax	# %sfp, _532
.LVL46:
	.loc 6 162 68 view .LVU199
.LBE2678:
.LBE2679:
.LBE2680:
.LBE2681:
.LBE2683:
.LBE2685:
.LBE2687:
.LBE2706:
.LBB2707:
.LBI2689:
	.loc 2 1987 7 is_stmt 1 view .LVU200
.LBB2705:
.LBI2690:
	.file 12 "/usr/include/c++/16/bits/stl_uninitialized.h"
	.loc 12 771 5 view .LVU201
.LBB2704:
.LBI2691:
	.loc 12 550 5 view .LVU202
.LBB2703:
.LBB2702:
.LBI2693:
	.loc 12 477 5 view .LVU203
.LBB2701:
.LBB2698:
.LBI2698:
	.loc 12 113 7 view .LVU204
	.loc 12 113 7 is_stmt 0 view .LVU205
.LBE2698:
	.loc 12 485 2 is_stmt 1 discriminator 2 view .LVU206
	.loc 12 491 7 discriminator 2 view .LVU207
.LBB2699:
.LBB2697:
# /usr/include/c++/16/bits/stl_construct.h:133:       ::new(static_cast<void*>(__p)) _Tp(std::forward<_Args>(__args)...);
	.loc 11 133 7 is_stmt 0 discriminator 1 view .LVU208
	call	"memset"@PLT	#
.LVL47:
.L18:
	.loc 11 133 7 discriminator 1 view .LVU209
.LBE2697:
.LBE2699:
.LBB2700:
.LBI2700:
	.loc 12 118 7 is_stmt 1 view .LVU210
	.loc 12 118 7 is_stmt 0 view .LVU211
.LBE2700:
.LBE2701:
.LBE2702:
.LBE2703:
.LBE2704:
.LBE2705:
.LBE2707:
.LBE2658:
.LBB2710:
.LBI2710:
	.loc 5 189 7 is_stmt 1 view .LVU212
.LBB2711:
.LBI2711:
	.loc 6 104 7 view .LVU213
	.loc 6 104 7 is_stmt 0 view .LVU214
.LBE2711:
.LBE2710:
	.loc 1 71 5 is_stmt 1 view .LVU215
.LBB2712:
.LBI2712:
	.loc 5 168 7 view .LVU216
.LBB2713:
.LBI2713:
	.loc 6 88 7 view .LVU217
	.loc 6 88 7 is_stmt 0 view .LVU218
.LBE2713:
.LBE2712:
# src/avx_analysis_code_ablations/opt9_abl_hand_vec_no_tile_ilp.cpp:71:     std::vector<int> diff((width + 1) * (height + 1), 0);
	.loc 1 71 34 discriminator 1 view .LVU219
	mov	rax, QWORD PTR 104[rsp]	# _716, %sfp
	lea	r14, 1[rax]	# _26,
# src/avx_analysis_code_ablations/opt9_abl_hand_vec_no_tile_ilp.cpp:71:     std::vector<int> diff((width + 1) * (height + 1), 0);
	.loc 1 71 49 discriminator 1 view .LVU220
	mov	rax, QWORD PTR 176[rsp]	# _817, %sfp
	inc	rax	# _817
# src/avx_analysis_code_ablations/opt9_abl_hand_vec_no_tile_ilp.cpp:71:     std::vector<int> diff((width + 1) * (height + 1), 0);
	.loc 1 71 56 discriminator 1 view .LVU221
	imul	rax, r14	# _27, _26
	mov	QWORD PTR 48[rsp], rax	# %sfp, _28
.LVL48:
.LBB2714:
.LBI2714:
	.loc 2 589 7 is_stmt 1 view .LVU222
.LBB2715:
.LBI2715:
	.loc 2 2203 7 view .LVU223
.LBB2716:
.LBB2717:
.LBI2717:
	.loc 5 172 7 view .LVU224
.LBB2718:
.LBI2718:
	.loc 6 92 7 view .LVU225
	.loc 6 92 7 is_stmt 0 view .LVU226
.LBE2718:
.LBE2717:
.LBB2719:
.LBI2719:
	.loc 5 189 7 is_stmt 1 view .LVU227
.LBB2720:
.LBI2720:
	.loc 6 104 7 view .LVU228
.LBE2720:
.LBE2719:
# /usr/include/c++/16/bits/stl_vector.h:2205: 	if (__n > _S_max_size(_Tp_alloc_type(__a)))
	.loc 2 2205 2 is_stmt 0 discriminator 3 view .LVU229
	shr	rax, 61	# tmp1684,
.LVL49:
	.loc 2 2205 2 discriminator 3 view .LVU230
	jne	.L147	#,
.LVL50:
	.loc 2 2205 2 discriminator 3 view .LVU231
.LBE2716:
.LBE2715:
.LBB2722:
.LBI2722:
	.loc 2 339 7 is_stmt 1 view .LVU232
.LBB2723:
.LBI2723:
	.loc 2 152 2 view .LVU233
.LBB2724:
.LBI2724:
	.loc 5 172 7 view .LVU234
.LBB2725:
.LBI2725:
	.loc 6 92 7 view .LVU235
	.loc 6 92 7 is_stmt 0 view .LVU236
.LBE2725:
.LBE2724:
.LBB2726:
.LBI2726:
	.loc 2 105 2 is_stmt 1 view .LVU237
	.loc 2 105 2 is_stmt 0 view .LVU238
.LBE2726:
.LBE2723:
.LBB2727:
.LBI2727:
	.loc 2 405 7 is_stmt 1 view .LVU239
.LBB2728:
.LBB2729:
.LBI2729:
	.loc 2 386 7 view .LVU240
.LBB2730:
# /usr/include/c++/16/bits/stl_vector.h:389: 	return __n != 0 ? _Tr::allocate(_M_impl, __n) : pointer();
	.loc 2 389 18 is_stmt 0 view .LVU241
	mov	rax, QWORD PTR 48[rsp]	# _28, %sfp
	test	rax, rax	# _28
	je	.L80	#,
.LVL51:
.LBB2731:
.LBI2731:
	.loc 8 637 7 is_stmt 1 view .LVU242
.LBB2732:
.LBI2732:
	.loc 6 129 7 view .LVU243
.LBB2733:
# /usr/include/c++/16/bits/new_allocator.h:162: 	  return static_cast<_Tp*>(_GLIBCXX_OPERATOR_NEW(__n * sizeof(_Tp)));
	.loc 6 162 68 is_stmt 0 view .LVU244
	sal	rax, 2	# _28,
	mov	rdi, rax	#, _28
	mov	QWORD PTR 48[rsp], rax	# %sfp, _28
.LVL52:
.LEHB2:
	.loc 6 162 68 view .LVU245
	call	"_Znwm"@PLT	#
.LVL53:
.LEHE2:
.LBE2733:
.LBE2732:
.LBE2731:
.LBE2730:
.LBE2729:
.LBE2728:
.LBE2727:
.LBE2722:
.LBB2745:
.LBB2746:
.LBB2747:
.LBB2748:
.LBB2749:
.LBB2750:
.LBB2751:
.LBB2752:
# /usr/include/c++/16/bits/stl_construct.h:133:       ::new(static_cast<void*>(__p)) _Tp(std::forward<_Args>(__args)...);
	.loc 11 133 7 discriminator 1 view .LVU246
	mov	rdx, QWORD PTR 48[rsp]	#, %sfp
	xor	esi, esi	#
	mov	rdi, rax	#, _356
.LBE2752:
.LBE2751:
.LBE2750:
.LBE2749:
.LBE2748:
.LBE2747:
.LBE2746:
.LBE2745:
.LBB2762:
.LBB2743:
.LBB2741:
.LBB2739:
.LBB2737:
.LBB2736:
.LBB2735:
.LBB2734:
# /usr/include/c++/16/bits/new_allocator.h:162: 	  return static_cast<_Tp*>(_GLIBCXX_OPERATOR_NEW(__n * sizeof(_Tp)));
	.loc 6 162 68 view .LVU247
	mov	rbx, rax	# _356, _356
.LVL54:
	.loc 6 162 68 view .LVU248
.LBE2734:
.LBE2735:
.LBE2736:
.LBE2737:
.LBE2739:
.LBE2741:
.LBE2743:
.LBE2762:
.LBB2763:
.LBI2745:
	.loc 2 1987 7 is_stmt 1 view .LVU249
.LBB2761:
.LBI2746:
	.loc 12 771 5 view .LVU250
.LBB2760:
.LBI2747:
	.loc 12 550 5 view .LVU251
.LBB2759:
.LBB2758:
.LBI2749:
	.loc 12 477 5 view .LVU252
.LBB2757:
.LBB2754:
.LBI2754:
	.loc 12 113 7 view .LVU253
	.loc 12 113 7 is_stmt 0 view .LVU254
.LBE2754:
	.loc 12 485 2 is_stmt 1 discriminator 2 view .LVU255
	.loc 12 491 7 discriminator 2 view .LVU256
.LBB2755:
.LBB2753:
# /usr/include/c++/16/bits/stl_construct.h:133:       ::new(static_cast<void*>(__p)) _Tp(std::forward<_Args>(__args)...);
	.loc 11 133 7 is_stmt 0 discriminator 1 view .LVU257
	call	"memset"@PLT	#
.LVL55:
.L23:
	.loc 11 133 7 discriminator 1 view .LVU258
.LBE2753:
.LBE2755:
.LBB2756:
.LBI2756:
	.loc 12 118 7 is_stmt 1 view .LVU259
	.loc 12 118 7 is_stmt 0 view .LVU260
.LBE2756:
.LBE2757:
.LBE2758:
.LBE2759:
.LBE2760:
.LBE2761:
.LBE2763:
.LBE2714:
.LBB2766:
.LBI2766:
	.loc 5 189 7 is_stmt 1 view .LVU261
.LBB2767:
.LBI2767:
	.loc 6 104 7 view .LVU262
	.loc 6 104 7 is_stmt 0 view .LVU263
.LBE2767:
.LBE2766:
	.loc 1 73 5 is_stmt 1 view .LVU264
.LBB2768:
.LBB2769:
.LBI2769:
	.loc 2 988 7 view .LVU265
.LBB2770:
.LBI2770:
	.loc 3 1058 7 view .LVU266
	.loc 3 1058 7 is_stmt 0 view .LVU267
.LBE2770:
.LBE2769:
.LBB2771:
.LBI2771:
	.loc 2 1008 7 is_stmt 1 view .LVU268
.LBB2772:
.LBI2772:
	.loc 3 1058 7 view .LVU269
	.loc 3 1058 7 is_stmt 0 view .LVU270
.LBE2772:
.LBE2771:
	.loc 1 73 26 is_stmt 1 discriminator 5 view .LVU271
# src/avx_analysis_code_ablations/opt9_abl_hand_vec_no_tile_ilp.cpp:73:     for (const auto& p : params) {
	.loc 1 73 26 is_stmt 0 discriminator 6 view .LVU272
	mov	rax, QWORD PTR 96[rsp]	# params$_M_start, %sfp
	cmp	rax, r12	# params$_M_start, __new_finish
	je	.L24	#,
.LVL56:
	.loc 1 73 26 discriminator 6 view .LVU273
	.p2align 6
	.p2align 4,,10
	.p2align 3
.L25:
.LVL57:
	.loc 1 74 9 is_stmt 1 view .LVU274
# src/avx_analysis_code_ablations/opt9_abl_hand_vec_no_tile_ilp.cpp:74:         diff[p.y_begin * (width + 1) + p.x_begin] += 1;
	.loc 1 74 16 is_stmt 0 view .LVU275
	movsxd	rdx, DWORD PTR 32[rax]	# _30, MEM[(int *)SR.272_756 + 32B]
# src/avx_analysis_code_ablations/opt9_abl_hand_vec_no_tile_ilp.cpp:74:         diff[p.y_begin * (width + 1) + p.x_begin] += 1;
	.loc 1 74 42 view .LVU276
	movsxd	rsi, DWORD PTR 24[rax]	# _33, MEM[(int *)SR.272_756 + 24B]
.LBB2773:
.LBB2774:
# /usr/include/c++/16/bits/stl_iterator.h:1103: 	++_M_current;
	.loc 3 1103 2 view .LVU277
	add	rax, 48	# SR.272,
.LVL58:
	.loc 3 1103 2 view .LVU278
.LBE2774:
.LBE2773:
# src/avx_analysis_code_ablations/opt9_abl_hand_vec_no_tile_ilp.cpp:76:         diff[p.y_end   * (width + 1) + p.x_begin] -= 1;
	.loc 1 76 16 view .LVU279
	movsxd	rdi, DWORD PTR -12[rax]	# _46, MEM[(int *)SR.272_756 + 36B]
# src/avx_analysis_code_ablations/opt9_abl_hand_vec_no_tile_ilp.cpp:74:         diff[p.y_begin * (width + 1) + p.x_begin] += 1;
	.loc 1 74 24 view .LVU280
	imul	rdx, r14	# _31, _26
.LVL59:
.LBB2775:
.LBI2775:
	.loc 2 1251 7 is_stmt 1 view .LVU281
.LBB2776:
	.loc 2 1253 2 discriminator 2 view .LVU282
	.loc 2 1253 2 is_stmt 0 discriminator 2 view .LVU283
.LBE2776:
.LBE2775:
# src/avx_analysis_code_ablations/opt9_abl_hand_vec_no_tile_ilp.cpp:76:         diff[p.y_end   * (width + 1) + p.x_begin] -= 1;
	.loc 1 76 24 view .LVU284
	imul	rdi, r14	# _47, _26
# src/avx_analysis_code_ablations/opt9_abl_hand_vec_no_tile_ilp.cpp:74:         diff[p.y_begin * (width + 1) + p.x_begin] += 1;
	.loc 1 74 49 view .LVU285
	lea	rcx, [rdx+rsi]	# _34,
# src/avx_analysis_code_ablations/opt9_abl_hand_vec_no_tile_ilp.cpp:74:         diff[p.y_begin * (width + 1) + p.x_begin] += 1;
	.loc 1 74 51 discriminator 1 view .LVU286
	inc	DWORD PTR [rbx+rcx*4]	# *_426
	.loc 1 75 9 is_stmt 1 view .LVU287
# src/avx_analysis_code_ablations/opt9_abl_hand_vec_no_tile_ilp.cpp:75:         diff[p.y_begin * (width + 1) + p.x_end  ] -= 1;
	.loc 1 75 42 is_stmt 0 view .LVU288
	movsxd	rcx, DWORD PTR -20[rax]	# _41, MEM[(int *)SR.272_756 + 28B]
.LVL60:
.LBB2777:
.LBI2777:
	.loc 2 1251 7 is_stmt 1 view .LVU289
.LBB2778:
	.loc 2 1253 2 discriminator 2 view .LVU290
	.loc 2 1253 2 is_stmt 0 discriminator 2 view .LVU291
.LBE2778:
.LBE2777:
# src/avx_analysis_code_ablations/opt9_abl_hand_vec_no_tile_ilp.cpp:75:         diff[p.y_begin * (width + 1) + p.x_end  ] -= 1;
	.loc 1 75 49 view .LVU292
	add	rdx, rcx	# _42, _41
# src/avx_analysis_code_ablations/opt9_abl_hand_vec_no_tile_ilp.cpp:75:         diff[p.y_begin * (width + 1) + p.x_end  ] -= 1;
	.loc 1 75 51 discriminator 1 view .LVU293
	dec	DWORD PTR [rbx+rdx*4]	# *_423
	.loc 1 76 9 is_stmt 1 view .LVU294
.LVL61:
.LBB2779:
.LBI2779:
	.loc 2 1251 7 view .LVU295
.LBB2780:
	.loc 2 1253 2 discriminator 2 view .LVU296
	.loc 2 1253 2 is_stmt 0 discriminator 2 view .LVU297
.LBE2780:
.LBE2779:
# src/avx_analysis_code_ablations/opt9_abl_hand_vec_no_tile_ilp.cpp:76:         diff[p.y_end   * (width + 1) + p.x_begin] -= 1;
	.loc 1 76 49 view .LVU298
	lea	rdx, [rsi+rdi]	# _50,
# src/avx_analysis_code_ablations/opt9_abl_hand_vec_no_tile_ilp.cpp:76:         diff[p.y_end   * (width + 1) + p.x_begin] -= 1;
	.loc 1 76 51 discriminator 1 view .LVU299
	dec	DWORD PTR [rbx+rdx*4]	# *_421
	.loc 1 77 9 is_stmt 1 view .LVU300
.LVL62:
.LBB2781:
.LBI2781:
	.loc 2 1251 7 view .LVU301
.LBB2782:
	.loc 2 1253 2 discriminator 2 view .LVU302
	.loc 2 1253 2 is_stmt 0 discriminator 2 view .LVU303
.LBE2782:
.LBE2781:
# src/avx_analysis_code_ablations/opt9_abl_hand_vec_no_tile_ilp.cpp:77:         diff[p.y_end   * (width + 1) + p.x_end  ] += 1;
	.loc 1 77 49 view .LVU304
	lea	rdx, [rcx+rdi]	# _58,
# src/avx_analysis_code_ablations/opt9_abl_hand_vec_no_tile_ilp.cpp:77:         diff[p.y_end   * (width + 1) + p.x_end  ] += 1;
	.loc 1 77 51 discriminator 1 view .LVU305
	inc	DWORD PTR [rbx+rdx*4]	# *_419
	.loc 1 73 5 is_stmt 1 discriminator 4 view .LVU306
.LVL63:
.LBB2783:
.LBI2773:
	.loc 3 1101 7 view .LVU307
	.loc 3 1101 7 is_stmt 0 view .LVU308
.LBE2783:
	.loc 1 73 26 is_stmt 1 discriminator 5 view .LVU309
# src/avx_analysis_code_ablations/opt9_abl_hand_vec_no_tile_ilp.cpp:73:     for (const auto& p : params) {
	.loc 1 73 26 is_stmt 0 discriminator 6 view .LVU310
	cmp	rax, r12	# SR.272, __new_finish
	jne	.L25	#,
.LVL64:
.L24:
	.loc 1 73 26 discriminator 6 view .LVU311
.LBE2768:
.LBB2784:
	.loc 1 80 23 is_stmt 1 discriminator 2 view .LVU312
	vxorps	xmm5, xmm5, xmm5	# tmp1646
	test	r13d, r13d	# _2
	jle	.L26	#,
	test	r15d, r15d	# _1187
	jle	.L148	#,
.LVL65:
.LBB2785:
.LBB2786:
	.loc 1 82 27 discriminator 2 view .LVU313
	mov	rax, QWORD PTR 104[rsp]	# _716, %sfp
.LBE2786:
# src/avx_analysis_code_ablations/opt9_abl_hand_vec_no_tile_ilp.cpp:81:         int row = 0;
	.loc 1 81 13 is_stmt 0 view .LVU314
	xor	edx, edx	# row
	lea	ecx, -1[rax]	# _994,
.LBE2785:
# src/avx_analysis_code_ablations/opt9_abl_hand_vec_no_tile_ilp.cpp:80:     for (int y = 0; y < h; ++y) {
	.loc 1 80 23 discriminator 2 view .LVU315
	xor	eax, eax	# ivtmp.547
	lea	r8, 1[rcx]	# _1106,
	mov	rcx, QWORD PTR 64[rsp]	# _532, %sfp
.LVL66:
.L29:
.LBB2791:
.LBB2787:
	.loc 1 83 13 is_stmt 1 view .LVU316
# src/avx_analysis_code_ablations/opt9_abl_hand_vec_no_tile_ilp.cpp:83:             row += diff[y * (width + 1) + x];
	.loc 1 83 17 is_stmt 0 discriminator 1 view .LVU317
	add	edx, DWORD PTR [rbx+rax*4]	# row, MEM[(value_type &)_565 + ivtmp.547_990 * 4]
.LVL67:
	.loc 1 84 13 is_stmt 1 view .LVU318
# src/avx_analysis_code_ablations/opt9_abl_hand_vec_no_tile_ilp.cpp:84:             counts[y * w + x] = row + (y > 0 ? counts[(y - 1) * w + x] : 0);
	.loc 1 84 31 is_stmt 0 discriminator 5 view .LVU319
	mov	DWORD PTR [rcx+rax*4], edx	# MEM[(value_type &)_623 + ivtmp.547_990 * 4], row
	.loc 1 82 9 is_stmt 1 discriminator 1 view .LVU320
.LVL68:
	.loc 1 82 27 discriminator 2 view .LVU321
	inc	rax	# ivtmp.547
.LVL69:
	.loc 1 82 27 is_stmt 0 discriminator 2 view .LVU322
	cmp	rax, r8	# ivtmp.547, _1106
	jne	.L29	#,
.LBE2787:
.LBE2791:
	.loc 1 80 5 is_stmt 1 discriminator 1 view .LVU323
.LVL70:
	.loc 1 80 23 discriminator 2 view .LVU324
	cmp	r13d, 1	# _2,
	je	.L148	#,
	lea	rax, 0[0+r14*4]	# _561,
	mov	rsi, QWORD PTR 64[rsp]	# _532, %sfp
.LBB2792:
.LBB2788:
# src/avx_analysis_code_ablations/opt9_abl_hand_vec_no_tile_ilp.cpp:82:         for (int x = 0; x < w; ++x) {
	.loc 1 82 27 is_stmt 0 discriminator 2 view .LVU325
	xor	ecx, ecx	# ivtmp.542
.LBE2788:
.LBE2792:
# src/avx_analysis_code_ablations/opt9_abl_hand_vec_no_tile_ilp.cpp:80:     for (int y = 0; y < h; ++y) {
	.loc 1 80 14 view .LVU326
	mov	r11d, 1	# y,
	mov	QWORD PTR 216[rsp], rax	# %sfp, _561
	lea	rdi, [rbx+rax]	# ivtmp.541,
	mov	eax, r15d	# _865, _1187
	sal	rax, 2	# _864,
	mov	QWORD PTR 184[rsp], rax	# %sfp, _864
	add	rsi, rax	# ivtmp.544, _864
.LVL71:
.L32:
.LBB2793:
.LBB2789:
	.loc 1 82 27 is_stmt 1 discriminator 2 view .LVU327
	mov	rdx, QWORD PTR 64[rsp]	# _532, %sfp
	movsxd	rax, ecx	# _1325, ivtmp.542
	add	ecx, DWORD PTR 104[rsp]	# ivtmp.542, %sfp
	lea	r10, [rdx+rax*4]	# _1327,
.LBE2789:
.LBE2793:
# src/avx_analysis_code_ablations/opt9_abl_hand_vec_no_tile_ilp.cpp:80:     for (int y = 0; y < h; ++y) {
	.loc 1 80 14 is_stmt 0 view .LVU328
	xor	eax, eax	# ivtmp.528
.LBB2794:
# src/avx_analysis_code_ablations/opt9_abl_hand_vec_no_tile_ilp.cpp:81:         int row = 0;
	.loc 1 81 13 view .LVU329
	xor	edx, edx	# row
.LVL72:
	.loc 1 81 13 view .LVU330
	.p2align 5
	.p2align 4,,10
	.p2align 3
.L31:
.LVL73:
.LBB2790:
	.loc 1 83 13 is_stmt 1 view .LVU331
# src/avx_analysis_code_ablations/opt9_abl_hand_vec_no_tile_ilp.cpp:84:             counts[y * w + x] = row + (y > 0 ? counts[(y - 1) * w + x] : 0);
	.loc 1 84 37 is_stmt 0 discriminator 4 view .LVU332
	mov	r9d, DWORD PTR [r10+rax*4]	# _1159, MEM[(value_type &)_1327 + ivtmp.528_1284 * 4]
# src/avx_analysis_code_ablations/opt9_abl_hand_vec_no_tile_ilp.cpp:83:             row += diff[y * (width + 1) + x];
	.loc 1 83 17 discriminator 1 view .LVU333
	add	edx, DWORD PTR [rdi+rax*4]	# row, MEM[(value_type &)_1288 + ivtmp.528_1284 * 4]
.LVL74:
	.loc 1 84 13 is_stmt 1 view .LVU334
# src/avx_analysis_code_ablations/opt9_abl_hand_vec_no_tile_ilp.cpp:84:             counts[y * w + x] = row + (y > 0 ? counts[(y - 1) * w + x] : 0);
	.loc 1 84 37 is_stmt 0 discriminator 4 view .LVU335
	add	r9d, edx	# _1159, row
# src/avx_analysis_code_ablations/opt9_abl_hand_vec_no_tile_ilp.cpp:84:             counts[y * w + x] = row + (y > 0 ? counts[(y - 1) * w + x] : 0);
	.loc 1 84 31 discriminator 5 view .LVU336
	mov	DWORD PTR [rsi+rax*4], r9d	# MEM[(value_type &)_746 + ivtmp.528_1284 * 4], _1159
	.loc 1 82 9 is_stmt 1 discriminator 1 view .LVU337
.LVL75:
	.loc 1 82 27 discriminator 2 view .LVU338
	inc	rax	# ivtmp.528
.LVL76:
	.loc 1 82 27 is_stmt 0 discriminator 2 view .LVU339
	cmp	r8, rax	# _1106, ivtmp.528
	jne	.L31	#,
.LBE2790:
.LBE2794:
	.loc 1 80 5 is_stmt 1 discriminator 1 view .LVU340
	inc	r11d	# y
.LVL77:
	.loc 1 80 23 discriminator 2 view .LVU341
	add	rdi, QWORD PTR 216[rsp]	# ivtmp.541, %sfp
	add	rsi, QWORD PTR 184[rsp]	# ivtmp.544, %sfp
	cmp	r13d, r11d	# _2, y
	jg	.L32	#,
.LVL78:
.L148:
	.loc 1 80 23 is_stmt 0 discriminator 2 view .LVU342
.LBE2784:
	.loc 1 89 5 is_stmt 1 view .LVU343
.LBB2795:
.LBI2795:
	.loc 5 168 7 view .LVU344
.LBB2796:
.LBI2796:
	.loc 6 88 7 view .LVU345
	.loc 6 88 7 is_stmt 0 view .LVU346
.LBE2796:
.LBE2795:
.LBB2798:
.LBI2798:
	.loc 2 589 7 is_stmt 1 view .LVU347
.LBB2799:
.LBI2799:
	.loc 2 2203 7 view .LVU348
.LBB2800:
.LBB2801:
.LBI2801:
	.loc 5 172 7 view .LVU349
.LBB2802:
.LBI2802:
	.loc 6 92 7 view .LVU350
	.loc 6 92 7 is_stmt 0 view .LVU351
.LBE2802:
.LBE2801:
.LBB2804:
.LBI2804:
	.loc 5 189 7 is_stmt 1 view .LVU352
.LBB2805:
.LBI2805:
	.loc 6 104 7 view .LVU353
.LBE2805:
.LBE2804:
# /usr/include/c++/16/bits/stl_vector.h:2205: 	if (__n > _S_max_size(_Tp_alloc_type(__a)))
	.loc 2 2205 2 is_stmt 0 discriminator 3 view .LVU354
	mov	rax, QWORD PTR 192[rsp]	# _5, %sfp
	shr	rax, 61	# _5,
	jne	.L34	#,
.LVL79:
	.loc 2 2205 2 discriminator 3 view .LVU355
.LBE2800:
.LBE2799:
.LBB2811:
.LBI2811:
	.loc 2 339 7 is_stmt 1 view .LVU356
.LBB2812:
.LBI2812:
	.loc 2 152 2 view .LVU357
.LBB2813:
.LBI2813:
	.loc 5 172 7 view .LVU358
.LBB2814:
.LBI2814:
	.loc 6 92 7 view .LVU359
	.loc 6 92 7 is_stmt 0 view .LVU360
.LBE2814:
.LBE2813:
.LBB2816:
.LBI2816:
	.loc 2 105 2 is_stmt 1 view .LVU361
	.loc 2 105 2 is_stmt 0 view .LVU362
.LBE2816:
.LBE2812:
.LBB2819:
.LBI2819:
	.loc 2 405 7 is_stmt 1 view .LVU363
.LBB2820:
.LBB2821:
.LBI2821:
	.loc 2 386 7 view .LVU364
.LBB2822:
# /usr/include/c++/16/bits/stl_vector.h:389: 	return __n != 0 ? _Tr::allocate(_M_impl, __n) : pointer();
	.loc 2 389 18 is_stmt 0 view .LVU365
	cmp	QWORD PTR 56[rsp], 0	# %sfp,
	je	.L161	#,
.L35:
.LBB2823:
.LBB2824:
.LBB2825:
# /usr/include/c++/16/bits/new_allocator.h:162: 	  return static_cast<_Tp*>(_GLIBCXX_OPERATOR_NEW(__n * sizeof(_Tp)));
	.loc 6 162 68 view .LVU366
	mov	rdx, QWORD PTR 152[rsp]	# tmp1611, %sfp
	vmovaps	XMMWORD PTR 192[rsp], xmm5	# %sfp, tmp1646
.LVL80:
	.loc 6 162 68 view .LVU367
.LBE2825:
.LBE2824:
.LBI2823:
	.loc 8 637 7 is_stmt 1 view .LVU368
.LBB2828:
.LBI2824:
	.loc 6 129 7 view .LVU369
.LBB2826:
# /usr/include/c++/16/bits/new_allocator.h:162: 	  return static_cast<_Tp*>(_GLIBCXX_OPERATOR_NEW(__n * sizeof(_Tp)));
	.loc 6 162 68 is_stmt 0 view .LVU370
	add	rdx, QWORD PTR 56[rsp]	# tmp1611, %sfp
	sal	rdx, 2	# tmp955,
	mov	rdi, rdx	# _728, tmp955
	mov	QWORD PTR 216[rsp], rdx	# %sfp, tmp955
	mov	QWORD PTR 56[rsp], rdx	# %sfp, _728
.LVL81:
.LEHB3:
	.loc 6 162 68 view .LVU371
	call	"_Znwm"@PLT	#
.LVL82:
.LEHE3:
.LBE2826:
.LBE2828:
.LBE2823:
.LBE2822:
.LBE2821:
.LBE2820:
.LBE2819:
.LBE2811:
.LBB2858:
.LBB2859:
.LBB2860:
.LBB2861:
.LBB2862:
.LBB2863:
.LBB2864:
.LBB2865:
# /usr/include/c++/16/bits/stl_construct.h:133:       ::new(static_cast<void*>(__p)) _Tp(std::forward<_Args>(__args)...);
	.loc 11 133 7 discriminator 1 view .LVU372
	mov	rdx, QWORD PTR 216[rsp]	# tmp955, %sfp
.LBE2865:
.LBE2864:
.LBE2863:
.LBE2862:
.LBE2861:
.LBE2860:
.LBE2859:
.LBE2858:
.LBB2881:
.LBB2850:
.LBB2843:
.LBB2837:
.LBB2831:
.LBB2830:
.LBB2829:
.LBB2827:
# /usr/include/c++/16/bits/new_allocator.h:162: 	  return static_cast<_Tp*>(_GLIBCXX_OPERATOR_NEW(__n * sizeof(_Tp)));
	.loc 6 162 68 view .LVU373
	mov	rdi, rax	# _188, _188
.LVL83:
	.loc 6 162 68 view .LVU374
.LBE2827:
.LBE2829:
.LBE2830:
.LBE2831:
.LBE2837:
.LBE2843:
.LBE2850:
.LBE2881:
.LBB2882:
.LBI2858:
	.loc 2 1987 7 is_stmt 1 view .LVU375
.LBB2879:
.LBI2859:
	.loc 12 771 5 view .LVU376
.LBB2877:
.LBI2860:
	.loc 12 550 5 view .LVU377
.LBB2875:
.LBB2873:
.LBI2862:
	.loc 12 477 5 view .LVU378
.LBB2871:
.LBB2868:
.LBI2868:
	.loc 12 113 7 view .LVU379
	.loc 12 113 7 is_stmt 0 view .LVU380
.LBE2868:
	.loc 12 485 2 is_stmt 1 discriminator 2 view .LVU381
	.loc 12 491 7 discriminator 2 view .LVU382
.LBB2869:
.LBB2866:
# /usr/include/c++/16/bits/stl_construct.h:133:       ::new(static_cast<void*>(__p)) _Tp(std::forward<_Args>(__args)...);
	.loc 11 133 7 is_stmt 0 discriminator 1 view .LVU383
	xor	esi, esi	#
	call	"memset"@PLT	#
.LVL84:
	.loc 11 133 7 discriminator 1 view .LVU384
.LBE2866:
.LBE2869:
.LBE2871:
.LBE2873:
.LBE2875:
.LBE2877:
.LBE2879:
.LBE2882:
.LBE2798:
.LBB2892:
# src/avx_analysis_code_ablations/opt9_abl_hand_vec_no_tile_ilp.cpp:91:     for (const SubParams& p : params) {
	.loc 1 91 31 discriminator 6 view .LVU385
	cmp	QWORD PTR 96[rsp], r12	# %sfp, __new_finish
	vmovaps	xmm5, XMMWORD PTR 192[rsp]	# tmp1646, %sfp
.LBE2892:
.LBB3174:
.LBB2883:
.LBB2880:
.LBB2878:
.LBB2876:
.LBB2874:
.LBB2872:
.LBB2870:
.LBB2867:
# /usr/include/c++/16/bits/stl_construct.h:133:       ::new(static_cast<void*>(__p)) _Tp(std::forward<_Args>(__args)...);
	.loc 11 133 7 discriminator 1 view .LVU386
	mov	rdi, rax	# _188,
.LVL85:
	.loc 11 133 7 discriminator 1 view .LVU387
.LBE2867:
.LBE2870:
.LBE2872:
.LBE2874:
.LBE2876:
.LBE2878:
.LBE2880:
.LBE2883:
.LBE3174:
.LBB3175:
	.loc 1 91 31 is_stmt 1 discriminator 5 view .LVU388
# src/avx_analysis_code_ablations/opt9_abl_hand_vec_no_tile_ilp.cpp:91:     for (const SubParams& p : params) {
	.loc 1 91 31 is_stmt 0 discriminator 6 view .LVU389
	je	.L41	#,
.LVL86:
.L37:
.LBB2893:
.LBB2894:
.LBB2895:
# src/avx_analysis_code_ablations/opt9_abl_hand_vec_no_tile_ilp.cpp:99:             size_t ind_lbot = ind_ltop + width * 3;
	.loc 1 99 48 view .LVU390
	mov	rsi, QWORD PTR 104[rsp]	# _716, %sfp
	mov	rdx, QWORD PTR 96[rsp]	# params$_M_start, %sfp
	mov	DWORD PTR 20[rsp], r13d	# %sfp, _2
	mov	QWORD PTR 72[rsp], r14	# %sfp, _26
	lea	rax, [rsi+rsi]	# tmp1610,
	mov	QWORD PTR 160[rsp], rdx	# %sfp, params$_M_start
	add	rsi, rax	# _86, tmp1610
	mov	QWORD PTR 88[rsp], r12	# %sfp, __new_finish
	mov	QWORD PTR 144[rsp], rsi	# %sfp, _86
	sal	rsi, 2	# tmp967,
	mov	QWORD PTR 136[rsp], rsi	# %sfp, tmp967
	mov	QWORD PTR 80[rsp], rdi	# %sfp, _188
	mov	QWORD PTR 8[rsp], rbx	# %sfp, _356
	mov	DWORD PTR 16[rsp], r15d	# %sfp, _1187
	mov	QWORD PTR [rsp], rax	# %sfp, tmp1610
	.p2align 4,,10
	.p2align 3
.L53:
.LVL87:
	.loc 1 99 48 view .LVU391
.LBE2895:
.LBE2894:
	.loc 1 92 9 is_stmt 1 view .LVU392
.LBB3149:
.LBI3149:
	.file 13 "/usr/lib/gcc/x86_64-linux-gnu/16/include/avxintrin.h"
	.loc 13 1271 1 view .LVU393
.LBB3150:
	.loc 13 1273 3 view .LVU394
	.loc 13 1273 3 is_stmt 0 view .LVU395
.LBE3150:
.LBE3149:
	.loc 1 93 9 is_stmt 1 view .LVU396
.LBB3152:
.LBI3152:
	.loc 13 1271 1 view .LVU397
.LBB3153:
	.loc 13 1273 3 view .LVU398
	.loc 13 1273 3 is_stmt 0 view .LVU399
.LBE3153:
.LBE3152:
	.loc 1 94 9 is_stmt 1 view .LVU400
.LBB3155:
.LBI3155:
	.loc 13 1271 1 view .LVU401
.LBB3156:
	.loc 13 1273 3 view .LVU402
	.loc 13 1273 3 is_stmt 0 view .LVU403
.LBE3156:
.LBE3155:
	.loc 1 95 9 is_stmt 1 view .LVU404
.LBB3158:
.LBI3158:
	.loc 13 1271 1 view .LVU405
.LBB3159:
	.loc 13 1273 3 view .LVU406
	.loc 13 1273 3 is_stmt 0 view .LVU407
.LBE3159:
.LBE3158:
	.loc 1 97 9 is_stmt 1 view .LVU408
.LBB3161:
# src/avx_analysis_code_ablations/opt9_abl_hand_vec_no_tile_ilp.cpp:97:         for (int y = p.y_begin; y < p.y_end; ++y) {
	.loc 1 97 18 is_stmt 0 view .LVU409
	mov	rax, QWORD PTR 160[rsp]	# ivtmp.526, %sfp
	mov	edi, DWORD PTR 32[rax]	# y, MEM[(int *)_1247 + 32B]
# src/avx_analysis_code_ablations/opt9_abl_hand_vec_no_tile_ilp.cpp:97:         for (int y = p.y_begin; y < p.y_end; ++y) {
	.loc 1 97 39 discriminator 2 view .LVU410
	mov	esi, DWORD PTR 36[rax]	# _457, MEM[(int *)_1247 + 36B]
# src/avx_analysis_code_ablations/opt9_abl_hand_vec_no_tile_ilp.cpp:97:         for (int y = p.y_begin; y < p.y_end; ++y) {
	.loc 1 97 18 view .LVU411
	mov	DWORD PTR 192[rsp], edi	# %sfp, y
.LVL88:
	.loc 1 97 35 is_stmt 1 discriminator 2 view .LVU412
# src/avx_analysis_code_ablations/opt9_abl_hand_vec_no_tile_ilp.cpp:97:         for (int y = p.y_begin; y < p.y_end; ++y) {
	.loc 1 97 39 is_stmt 0 discriminator 2 view .LVU413
	mov	DWORD PTR 152[rsp], esi	# %sfp, _457
# src/avx_analysis_code_ablations/opt9_abl_hand_vec_no_tile_ilp.cpp:97:         for (int y = p.y_begin; y < p.y_end; ++y) {
	.loc 1 97 35 discriminator 2 view .LVU414
	cmp	edi, esi	# y, _457
	jge	.L42	#,
.LBB3141:
# src/avx_analysis_code_ablations/opt9_abl_hand_vec_no_tile_ilp.cpp:108:             const int x_stop = (p.x_end - p.x_begin) * 3;
	.loc 1 108 41 view .LVU415
	mov	ebx, DWORD PTR 28[rax]	# MEM[(int *)_1247 + 28B], MEM[(int *)_1247 + 28B]
# src/avx_analysis_code_ablations/opt9_abl_hand_vec_no_tile_ilp.cpp:98:             size_t ind_ltop = ((y + p.sy) * width + (p.x_begin + p.sx)) * 3;
	.loc 1 98 56 view .LVU416
	movsxd	r8, DWORD PTR 24[rax]	#, MEM[(int *)_1247 + 24B]
.LBE3141:
.LBE3161:
# src/avx_analysis_code_ablations/opt9_abl_hand_vec_no_tile_ilp.cpp:92:         const __m256 Avx = _mm256_set1_ps(p.A);
	.loc 1 92 45 view .LVU417
	vmovss	xmm18, DWORD PTR 8[rax]	# _73, MEM[(float *)_1247 + 8B]
# src/avx_analysis_code_ablations/opt9_abl_hand_vec_no_tile_ilp.cpp:93:         const __m256 Bvx = _mm256_set1_ps(p.B);
	.loc 1 93 45 view .LVU418
	vmovss	xmm17, DWORD PTR 12[rax]	# _74, MEM[(float *)_1247 + 12B]
.LBB3162:
.LBB3142:
# src/avx_analysis_code_ablations/opt9_abl_hand_vec_no_tile_ilp.cpp:108:             const int x_stop = (p.x_end - p.x_begin) * 3;
	.loc 1 108 41 view .LVU419
	mov	edx, ebx	# MEM[(int *)_1247 + 28B], MEM[(int *)_1247 + 28B]
.LBE3142:
.LBE3162:
# src/avx_analysis_code_ablations/opt9_abl_hand_vec_no_tile_ilp.cpp:94:         const __m256 Cvx = _mm256_set1_ps(p.C);
	.loc 1 94 45 view .LVU420
	vmovss	xmm16, DWORD PTR 16[rax]	# _75, MEM[(float *)_1247 + 16B]
# src/avx_analysis_code_ablations/opt9_abl_hand_vec_no_tile_ilp.cpp:95:         const __m256 Dvx = _mm256_set1_ps(p.D);
	.loc 1 95 45 view .LVU421
	vmovss	xmm15, DWORD PTR 20[rax]	# _76, MEM[(float *)_1247 + 20B]
.LBB3163:
.LBB3143:
# src/avx_analysis_code_ablations/opt9_abl_hand_vec_no_tile_ilp.cpp:108:             const int x_stop = (p.x_end - p.x_begin) * 3;
	.loc 1 108 41 view .LVU422
	mov	DWORD PTR 216[rsp], ebx	# %sfp, MEM[(int *)_1247 + 28B]
# src/avx_analysis_code_ablations/opt9_abl_hand_vec_no_tile_ilp.cpp:98:             size_t ind_ltop = ((y + p.sy) * width + (p.x_begin + p.sx)) * 3;
	.loc 1 98 64 view .LVU423
	mov	esi, DWORD PTR [rax]	# _83, MEM[(int *)_1247]
	movsxd	r9, DWORD PTR 4[rax]	# _214, MEM[(int *)_1247 + 4B]
# src/avx_analysis_code_ablations/opt9_abl_hand_vec_no_tile_ilp.cpp:108:             const int x_stop = (p.x_end - p.x_begin) * 3;
	.loc 1 108 41 view .LVU424
	sub	edx, r8d	# MEM[(int *)_1247 + 28B], _81
.LBE3143:
.LBE3163:
# src/avx_analysis_code_ablations/opt9_abl_hand_vec_no_tile_ilp.cpp:92:         const __m256 Avx = _mm256_set1_ps(p.A);
	.loc 1 92 45 view .LVU425
	vbroadcastss	ymm11, xmm18	# tmp1677, _73
	mov	rax, QWORD PTR 104[rsp]	# _716, %sfp
.LBB3164:
.LBB3144:
# src/avx_analysis_code_ablations/opt9_abl_hand_vec_no_tile_ilp.cpp:108:             const int x_stop = (p.x_end - p.x_begin) * 3;
	.loc 1 108 23 view .LVU426
	lea	ebx, [rdx+rdx*2]	# x_stop_268,
	movsxd	rdx, edi	# _213, y
.LBE3144:
.LBE3164:
# src/avx_analysis_code_ablations/opt9_abl_hand_vec_no_tile_ilp.cpp:93:         const __m256 Bvx = _mm256_set1_ps(p.B);
	.loc 1 93 45 view .LVU427
	vbroadcastss	ymm12, xmm17	# tmp1678, _74
	add	r9, rdx	# _566, _213
.LBB3165:
.LBB3145:
# src/avx_analysis_code_ablations/opt9_abl_hand_vec_no_tile_ilp.cpp:98:             size_t ind_ltop = ((y + p.sy) * width + (p.x_begin + p.sx)) * 3;
	.loc 1 98 64 view .LVU428
	add	esi, r8d	# _83, _81
# src/avx_analysis_code_ablations/opt9_abl_hand_vec_no_tile_ilp.cpp:108:             const int x_stop = (p.x_end - p.x_begin) * 3;
	.loc 1 108 23 view .LVU429
	mov	DWORD PTR 176[rsp], ebx	# %sfp, x_stop_268
.LBE3145:
.LBE3165:
# src/avx_analysis_code_ablations/opt9_abl_hand_vec_no_tile_ilp.cpp:94:         const __m256 Cvx = _mm256_set1_ps(p.C);
	.loc 1 94 45 view .LVU430
	vbroadcastss	ymm13, xmm16	# tmp1679, _75
	imul	rdx, rax	# _146, _716
# src/avx_analysis_code_ablations/opt9_abl_hand_vec_no_tile_ilp.cpp:95:         const __m256 Dvx = _mm256_set1_ps(p.D);
	.loc 1 95 45 view .LVU431
	vbroadcastss	ymm10, xmm15	# tmp1680, _76
.LBB3166:
.LBB3151:
# /usr/lib/gcc/x86_64-linux-gnu/16/include/avxintrin.h:1274: 				 __A, __A, __A, __A };
	.loc 13 1274 25 view .LVU432
	vmovaps	ymm3, ymm11	# _276, tmp1677
.LBE3151:
.LBE3166:
.LBB3167:
.LBB3146:
# src/avx_analysis_code_ablations/opt9_abl_hand_vec_no_tile_ilp.cpp:98:             size_t ind_ltop = ((y + p.sy) * width + (p.x_begin + p.sx)) * 3;
	.loc 1 98 64 view .LVU433
	movsxd	rsi, esi	# _84, _83
	imul	r9, rax	# _548, _716
	mov	rax, QWORD PTR 80[rsp]	# _188, %sfp
.LBE3146:
.LBE3167:
.LBB3168:
.LBB3154:
# /usr/lib/gcc/x86_64-linux-gnu/16/include/avxintrin.h:1274: 				 __A, __A, __A, __A };
	.loc 13 1274 25 view .LVU434
	vmovaps	ymm2, ymm12	# _277, tmp1678
.LBE3154:
.LBE3168:
.LBB3169:
.LBB3157:
	vmovaps	ymm1, ymm13	# _278, tmp1679
.LBE3157:
.LBE3169:
.LBB3170:
.LBB3160:
	vmovaps	ymm0, ymm10	# _279, tmp1680
	add	rdx, r8	# _148, _89
	lea	rdx, [rdx+rdx*2]	# _247,
	lea	r10, [rsi+r9]	# _1075,
	add	rsi, QWORD PTR 72[rsp]	# _65, %sfp
	lea	rax, [rax+rdx*4]	# ivtmp.519,
	lea	edx, -16[rbx]	# _551,
	add	rsi, r9	# _374, _548
	mov	QWORD PTR 168[rsp], rax	# %sfp, ivtmp.519
	mov	eax, edx	# _331, _551
	shr	edx, 4	# _477,
	lea	rdi, [rsi+rsi*2]	# ivtmp.518,
.LVL89:
	.loc 13 1274 25 view .LVU435
	and	eax, -16	# _331,
	inc	rdx	# _891
	mov	QWORD PTR 184[rsp], rdi	# %sfp, ivtmp.518
	lea	r14, [r10+r10*2]	# ivtmp.515,
	mov	DWORD PTR 128[rsp], eax	# %sfp, _331
.LBE3160:
.LBE3170:
.LBB3171:
.LBB3147:
.LBB2896:
# src/avx_analysis_code_ablations/opt9_abl_hand_vec_no_tile_ilp.cpp:155:             if(x + 8 <= x_stop) {
	.loc 1 155 22 view .LVU436
	add	eax, 23	# _1137,
	mov	DWORD PTR 132[rsp], eax	# %sfp, _1137
	mov	rax, rdx	# _512, _891
	sal	rdx, 4	# _891,
	sal	rax, 6	# _512,
	mov	QWORD PTR 112[rsp], rdx	# %sfp, _891
	mov	QWORD PTR 120[rsp], rax	# %sfp, _512
.LVL90:
	.p2align 4,,10
	.p2align 3
.L52:
	.loc 1 155 22 view .LVU437
.LBE2896:
	.loc 1 98 13 is_stmt 1 view .LVU438
	.loc 1 99 13 view .LVU439
# src/avx_analysis_code_ablations/opt9_abl_hand_vec_no_tile_ilp.cpp:99:             size_t ind_lbot = ind_ltop + width * 3;
	.loc 1 99 20 is_stmt 0 view .LVU440
	mov	rax, QWORD PTR 184[rsp]	# ivtmp.518, %sfp
.LBB2970:
# src/avx_analysis_code_ablations/opt9_abl_hand_vec_no_tile_ilp.cpp:112:             for (; x + 16 <= x_stop; x += 16) {
	.loc 1 112 27 discriminator 2 view .LVU441
	cmp	DWORD PTR 176[rsp], 15	# %sfp,
.LBE2970:
# src/avx_analysis_code_ablations/opt9_abl_hand_vec_no_tile_ilp.cpp:100:             size_t ind_rtop = ind_ltop + 3;
	.loc 1 100 20 view .LVU442
	lea	r8, 3[r14]	# ind_rtop,
# src/avx_analysis_code_ablations/opt9_abl_hand_vec_no_tile_ilp.cpp:105:                         + (size_t)p.x_begin * 3;
	.loc 1 105 47 view .LVU443
	mov	rdx, QWORD PTR 168[rsp]	# vp, %sfp
# src/avx_analysis_code_ablations/opt9_abl_hand_vec_no_tile_ilp.cpp:99:             size_t ind_lbot = ind_ltop + width * 3;
	.loc 1 99 20 view .LVU444
	lea	rsi, -3[rax]	# ind_lbot,
.LVL91:
	.loc 1 100 13 is_stmt 1 view .LVU445
	.loc 1 101 13 view .LVU446
	.loc 1 103 13 view .LVU447
	.loc 1 107 13 view .LVU448
	.loc 1 108 13 view .LVU449
	.loc 1 112 13 view .LVU450
.LBB3113:
	.loc 1 112 27 discriminator 2 view .LVU451
	jle	.L162	#,
	mov	rax, QWORD PTR 160[rsp]	# ivtmp.526, %sfp
.LVL92:
	.loc 1 112 27 is_stmt 0 discriminator 2 view .LVU452
	mov	rcx, QWORD PTR 120[rsp]	# _512, %sfp
	mov	rdi, QWORD PTR 40[rax]	# _114, MEM[(const unsigned char * *)_1247 + 40B]
	lea	r9, [rdx+rcx]	# vp,
	lea	rax, [rdi+rsi]	# ivtmp.509,
.LVL93:
	.p2align 4,,10
	.p2align 3
.L47:
.LBB2971:
	.loc 1 113 17 is_stmt 1 view .LVU453
.LBB2972:
.LBI2972:
	.file 14 "/usr/lib/gcc/x86_64-linux-gnu/16/include/emmintrin.h"
	.loc 14 711 1 view .LVU454
.LBB2973:
	.loc 14 713 3 view .LVU455
	mov	rcx, rax	# _1192, ivtmp.509
.LBE2973:
.LBE2972:
.LBB2979:
.LBB2980:
# /usr/lib/gcc/x86_64-linux-gnu/16/include/avx2intrin.h:491:   return (__m256i) __builtin_ia32_pmovzxbd256 ((__v16qi)__X);
	.file 15 "/usr/lib/gcc/x86_64-linux-gnu/16/include/avx2intrin.h"
	.loc 15 491 47 is_stmt 0 view .LVU456
	vpmovzxbd	ymm8, QWORD PTR [rax]	# tmp1008, MEM[(__m64_u * {ref-all})_428]
.LBE2980:
.LBE2979:
.LBB2982:
.LBB2983:
	vpmovzxbd	ymm7, QWORD PTR 8[rax]	# tmp1028, MEM[(__m64_u * {ref-all})_428 + 8B]
.LBE2983:
.LBE2982:
# src/avx_analysis_code_ablations/opt9_abl_hand_vec_no_tile_ilp.cpp:151:                 vp += 16;
	.loc 1 151 20 view .LVU457
	add	rdx, 64	# vp,
.LVL94:
	.loc 1 151 20 view .LVU458
	sub	rcx, rsi	# _1192, ind_lbot
.LVL95:
.LBB2985:
.LBB2978:
.LBB2974:
.LBI2974:
	.loc 14 600 1 is_stmt 1 view .LVU459
.LBB2975:
	.loc 14 602 3 view .LVU460
.LBB2976:
.LBI2976:
	.loc 14 594 1 view .LVU461
.LBB2977:
	.loc 14 596 3 view .LVU462
	.loc 14 596 3 is_stmt 0 view .LVU463
.LBE2977:
.LBE2976:
.LBE2975:
.LBE2974:
.LBE2978:
.LBE2985:
	.loc 1 114 17 is_stmt 1 view .LVU464
.LBB2986:
.LBI2986:
	.loc 14 711 1 view .LVU465
.LBB2987:
	.loc 14 713 3 view .LVU466
.LBB2988:
.LBI2988:
	.loc 14 600 1 view .LVU467
.LBB2989:
	.loc 14 602 3 view .LVU468
.LBB2990:
.LBI2990:
	.loc 14 594 1 view .LVU469
.LBB2991:
	.loc 14 596 3 view .LVU470
	.loc 14 596 3 is_stmt 0 view .LVU471
.LBE2991:
.LBE2990:
.LBE2989:
.LBE2988:
.LBE2987:
.LBE2986:
	.loc 1 115 17 is_stmt 1 view .LVU472
.LBB2992:
.LBI2992:
	.loc 14 711 1 view .LVU473
.LBB2993:
	.loc 14 713 3 view .LVU474
.LBB2994:
.LBI2994:
	.loc 14 600 1 view .LVU475
.LBB2995:
	.loc 14 602 3 view .LVU476
.LBB2996:
.LBI2996:
	.loc 14 594 1 view .LVU477
.LBB2997:
	.loc 14 596 3 view .LVU478
	.loc 14 596 3 is_stmt 0 view .LVU479
.LBE2997:
.LBE2996:
.LBE2995:
.LBE2994:
.LBE2993:
.LBE2992:
	.loc 1 116 17 is_stmt 1 view .LVU480
.LBB2998:
.LBI2998:
	.loc 14 711 1 view .LVU481
.LBB2999:
	.loc 14 713 3 view .LVU482
.LBB3000:
.LBI3000:
	.loc 14 600 1 view .LVU483
.LBB3001:
	.loc 14 602 3 view .LVU484
.LBB3002:
.LBI3002:
	.loc 14 594 1 view .LVU485
.LBB3003:
	.loc 14 596 3 view .LVU486
	.loc 14 596 3 is_stmt 0 view .LVU487
.LBE3003:
.LBE3002:
.LBE3001:
.LBE3000:
.LBE2999:
.LBE2998:
	.loc 1 118 17 is_stmt 1 view .LVU488
.LBB3004:
.LBI3004:
	.loc 14 711 1 view .LVU489
.LBB3005:
	.loc 14 713 3 view .LVU490
.LBB3006:
.LBI3006:
	.loc 14 600 1 view .LVU491
.LBB3007:
	.loc 14 602 3 view .LVU492
.LBB3008:
.LBI3008:
	.loc 14 594 1 view .LVU493
.LBB3009:
	.loc 14 596 3 view .LVU494
	.loc 14 596 3 is_stmt 0 view .LVU495
.LBE3009:
.LBE3008:
.LBE3007:
.LBE3006:
.LBE3005:
.LBE3004:
	.loc 1 119 17 is_stmt 1 view .LVU496
.LBB3010:
.LBI3010:
	.loc 14 711 1 view .LVU497
.LBB3011:
	.loc 14 713 3 view .LVU498
.LBB3012:
.LBI3012:
	.loc 14 600 1 view .LVU499
.LBB3013:
	.loc 14 602 3 view .LVU500
.LBB3014:
.LBI3014:
	.loc 14 594 1 view .LVU501
.LBB3015:
	.loc 14 596 3 view .LVU502
	.loc 14 596 3 is_stmt 0 view .LVU503
.LBE3015:
.LBE3014:
.LBE3013:
.LBE3012:
.LBE3011:
.LBE3010:
	.loc 1 120 17 is_stmt 1 view .LVU504
.LBB3016:
.LBI3016:
	.loc 14 711 1 view .LVU505
.LBB3017:
	.loc 14 713 3 view .LVU506
.LBB3018:
.LBI3018:
	.loc 14 600 1 view .LVU507
.LBB3019:
	.loc 14 602 3 view .LVU508
.LBB3020:
.LBI3020:
	.loc 14 594 1 view .LVU509
.LBB3021:
	.loc 14 596 3 view .LVU510
	.loc 14 596 3 is_stmt 0 view .LVU511
.LBE3021:
.LBE3020:
.LBE3019:
.LBE3018:
.LBE3017:
.LBE3016:
	.loc 1 121 17 is_stmt 1 view .LVU512
.LBB3022:
.LBI3022:
	.loc 14 711 1 view .LVU513
.LBB3023:
	.loc 14 713 3 view .LVU514
.LBB3024:
.LBI3024:
	.loc 14 600 1 view .LVU515
.LBB3025:
	.loc 14 602 3 view .LVU516
.LBB3026:
.LBI3026:
	.loc 14 594 1 view .LVU517
.LBB3027:
	.loc 14 596 3 view .LVU518
	.loc 14 596 3 is_stmt 0 view .LVU519
.LBE3027:
.LBE3026:
.LBE3025:
.LBE3024:
.LBE3023:
.LBE3022:
	.loc 1 123 17 is_stmt 1 view .LVU520
.LBB3028:
.LBI3028:
	.loc 15 489 1 view .LVU521
.LBB3029:
	.loc 15 491 3 view .LVU522
.LBE3029:
.LBE3028:
.LBB3031:
.LBB3032:
# /usr/lib/gcc/x86_64-linux-gnu/16/include/avx2intrin.h:491:   return (__m256i) __builtin_ia32_pmovzxbd256 ((__v16qi)__X);
	.loc 15 491 47 is_stmt 0 view .LVU523
	vpmovzxbd	ymm6, QWORD PTR 3[rax]	# tmp1018, MEM[(__m64_u * {ref-all})_428 + 3B]
.LBE3032:
.LBE3031:
.LBB3034:
.LBB3035:
	vpmovzxbd	ymm4, QWORD PTR 11[rax]	# tmp1038, MEM[(__m64_u * {ref-all})_428 + 11B]
.LBE3035:
.LBE3034:
.LBE2971:
# src/avx_analysis_code_ablations/opt9_abl_hand_vec_no_tile_ilp.cpp:112:             for (; x + 16 <= x_stop; x += 16) {
	.loc 1 112 27 discriminator 2 view .LVU524
	add	rax, 16	# ivtmp.509,
.LVL96:
.LBB3112:
.LBB3037:
.LBB3030:
# /usr/lib/gcc/x86_64-linux-gnu/16/include/avx2intrin.h:491:   return (__m256i) __builtin_ia32_pmovzxbd256 ((__v16qi)__X);
	.loc 15 491 47 view .LVU525
	vpmovzxbd	ymm20, QWORD PTR [rcx+r14]	# tmp1003, MEM[(__m64_u * {ref-all})_1192 + ivtmp.515_770 * 1]
.LVL97:
	.loc 15 491 47 view .LVU526
.LBE3030:
.LBE3037:
.LBB3038:
.LBI3038:
	.loc 13 405 1 is_stmt 1 view .LVU527
.LBB3039:
	.loc 13 407 3 view .LVU528
.LBE3039:
.LBE3038:
.LBB3041:
.LBB3042:
# /usr/lib/gcc/x86_64-linux-gnu/16/include/avx2intrin.h:491:   return (__m256i) __builtin_ia32_pmovzxbd256 ((__v16qi)__X);
	.loc 15 491 47 is_stmt 0 view .LVU529
	vpmovzxbd	ymm19, QWORD PTR 8[rcx+r14]	# tmp1023, MEM[(__m64_u * {ref-all})_1192 + 8B + ivtmp.515_770 * 1]
.LBE3042:
.LBE3041:
.LBB3044:
.LBB3045:
# /usr/lib/gcc/x86_64-linux-gnu/16/include/avxintrin.h:407:   return (__m256)__builtin_ia32_cvtdq2ps256 ((__v8si) __A);
	.loc 13 407 10 view .LVU530
	vcvtdq2ps	ymm8, ymm8	# tmp1012, tmp1008
.LBE3045:
.LBE3044:
.LBB3047:
.LBB3048:
	vcvtdq2ps	ymm7, ymm7	# tmp1032, tmp1028
.LBE3048:
.LBE3047:
.LBB3050:
.LBB3051:
# /usr/lib/gcc/x86_64-linux-gnu/16/include/avx2intrin.h:491:   return (__m256i) __builtin_ia32_pmovzxbd256 ((__v16qi)__X);
	.loc 15 491 47 view .LVU531
	vpmovzxbd	ymm14, QWORD PTR 3[rcx+r14]	# tmp1013, MEM[(__m64_u * {ref-all})_1192 + 3B + ivtmp.515_770 * 1]
.LBE3051:
.LBE3050:
.LBB3053:
.LBB3054:
	vpmovzxbd	ymm9, QWORD PTR 11[rcx+r14]	# tmp1033, MEM[(__m64_u * {ref-all})_1192 + 11B + ivtmp.515_770 * 1]
.LBE3054:
.LBE3053:
.LBB3056:
.LBB3057:
# /usr/lib/gcc/x86_64-linux-gnu/16/include/avxintrin.h:407:   return (__m256)__builtin_ia32_cvtdq2ps256 ((__v8si) __A);
	.loc 13 407 10 view .LVU532
	vcvtdq2ps	ymm6, ymm6	# tmp1022, tmp1018
.LBE3057:
.LBE3056:
.LBB3059:
.LBB3060:
	vcvtdq2ps	ymm4, ymm4	# tmp1042, tmp1038
.LBE3060:
.LBE3059:
.LBB3062:
.LBB3040:
	vcvtdq2ps	ymm20, ymm20	# tmp1007, tmp1003
.LVL98:
	.loc 13 407 10 view .LVU533
.LBE3040:
.LBE3062:
	.loc 1 124 17 is_stmt 1 view .LVU534
.LBB3063:
.LBI2979:
	.loc 15 489 1 view .LVU535
.LBB2981:
	.loc 15 491 3 view .LVU536
.LBE2981:
.LBE3063:
.LBB3064:
.LBI3044:
	.loc 13 405 1 view .LVU537
.LBB3046:
	.loc 13 407 3 view .LVU538
	.loc 13 407 3 is_stmt 0 view .LVU539
.LBE3046:
.LBE3064:
	.loc 1 125 17 is_stmt 1 view .LVU540
.LBB3065:
.LBI3050:
	.loc 15 489 1 view .LVU541
.LBB3052:
	.loc 15 491 3 view .LVU542
	.loc 15 491 3 is_stmt 0 view .LVU543
.LBE3052:
.LBE3065:
.LBB3066:
.LBI3066:
	.loc 13 405 1 is_stmt 1 view .LVU544
.LBB3067:
	.loc 13 407 3 view .LVU545
.LBE3067:
.LBE3066:
.LBB3069:
.LBB3070:
# /usr/lib/gcc/x86_64-linux-gnu/16/include/avxintrin.h:407:   return (__m256)__builtin_ia32_cvtdq2ps256 ((__v8si) __A);
	.loc 13 407 10 is_stmt 0 view .LVU546
	vcvtdq2ps	ymm19, ymm19	# tmp1027, tmp1023
.LBE3070:
.LBE3069:
.LBB3072:
.LBB3073:
# /usr/lib/gcc/x86_64-linux-gnu/16/include/fmaintrin.h:65:   return (__m256)__builtin_ia32_vfmaddps256 ((__v8sf)__A, (__v8sf)__B,
	.file 16 "/usr/lib/gcc/x86_64-linux-gnu/16/include/fmaintrin.h"
	.loc 16 65 10 view .LVU547
	vfmadd213ps	ymm20, ymm3, YMMWORD PTR -64[rdx]	# tmp1043, _276, MEM[(__m256_u * {ref-all})vp_675]
.LVL99:
	.loc 16 65 10 view .LVU548
.LBE3073:
.LBE3072:
.LBB3075:
.LBB3076:
	vfmadd213ps	ymm19, ymm3, YMMWORD PTR -32[rdx]	# tmp1045, _276, MEM[(__m256_u * {ref-all})vp_675 + 32B]
.LBE3076:
.LBE3075:
.LBB3078:
.LBB3068:
# /usr/lib/gcc/x86_64-linux-gnu/16/include/avxintrin.h:407:   return (__m256)__builtin_ia32_cvtdq2ps256 ((__v8si) __A);
	.loc 13 407 10 view .LVU549
	vcvtdq2ps	ymm14, ymm14	# tmp1017, tmp1013
.LVL100:
	.loc 13 407 10 view .LVU550
.LBE3068:
.LBE3078:
	.loc 1 126 17 is_stmt 1 view .LVU551
.LBB3079:
.LBI3031:
	.loc 15 489 1 view .LVU552
.LBB3033:
	.loc 15 491 3 view .LVU553
.LBE3033:
.LBE3079:
.LBB3080:
.LBI3056:
	.loc 13 405 1 view .LVU554
.LBB3058:
	.loc 13 407 3 view .LVU555
	.loc 13 407 3 is_stmt 0 view .LVU556
.LBE3058:
.LBE3080:
	.loc 1 128 17 is_stmt 1 view .LVU557
.LBB3081:
.LBI3041:
	.loc 15 489 1 view .LVU558
.LBB3043:
	.loc 15 491 3 view .LVU559
	.loc 15 491 3 is_stmt 0 view .LVU560
.LBE3043:
.LBE3081:
.LBB3082:
.LBI3069:
	.loc 13 405 1 is_stmt 1 view .LVU561
.LBB3071:
	.loc 13 407 3 view .LVU562
.LBE3071:
.LBE3082:
	.loc 1 129 17 view .LVU563
.LBB3083:
.LBI2982:
	.loc 15 489 1 view .LVU564
.LBB2984:
	.loc 15 491 3 view .LVU565
.LBE2984:
.LBE3083:
.LBB3084:
.LBI3047:
	.loc 13 405 1 view .LVU566
.LBB3049:
	.loc 13 407 3 view .LVU567
	.loc 13 407 3 is_stmt 0 view .LVU568
.LBE3049:
.LBE3084:
	.loc 1 130 17 is_stmt 1 view .LVU569
.LBB3085:
.LBI3053:
	.loc 15 489 1 view .LVU570
.LBB3055:
	.loc 15 491 3 view .LVU571
	.loc 15 491 3 is_stmt 0 view .LVU572
.LBE3055:
.LBE3085:
.LBB3086:
.LBI3086:
	.loc 13 405 1 is_stmt 1 view .LVU573
.LBB3087:
	.loc 13 407 3 view .LVU574
# /usr/lib/gcc/x86_64-linux-gnu/16/include/avxintrin.h:407:   return (__m256)__builtin_ia32_cvtdq2ps256 ((__v8si) __A);
	.loc 13 407 10 is_stmt 0 view .LVU575
	vcvtdq2ps	ymm9, ymm9	# tmp1037, tmp1033
.LVL101:
	.loc 13 407 10 view .LVU576
.LBE3087:
.LBE3086:
	.loc 1 131 17 is_stmt 1 view .LVU577
.LBB3088:
.LBI3034:
	.loc 15 489 1 view .LVU578
.LBB3036:
	.loc 15 491 3 view .LVU579
.LBE3036:
.LBE3088:
.LBB3089:
.LBI3059:
	.loc 13 405 1 view .LVU580
.LBB3061:
	.loc 13 407 3 view .LVU581
	.loc 13 407 3 is_stmt 0 view .LVU582
.LBE3061:
.LBE3089:
	.loc 1 133 17 is_stmt 1 view .LVU583
.LBB3090:
.LBI3090:
	.loc 13 847 1 view .LVU584
.LBB3091:
	.loc 13 849 3 view .LVU585
.LBE3091:
.LBE3090:
	.loc 1 134 17 view .LVU586
.LBB3092:
.LBI3092:
	.loc 13 847 1 view .LVU587
.LBB3093:
	.loc 13 849 3 view .LVU588
.LBE3093:
.LBE3092:
	.loc 1 136 17 view .LVU589
.LBB3094:
.LBI3072:
	.loc 16 63 1 view .LVU590
.LBB3074:
	.loc 16 65 3 view .LVU591
	.loc 16 65 3 is_stmt 0 view .LVU592
.LBE3074:
.LBE3094:
	.loc 1 137 17 is_stmt 1 view .LVU593
.LBB3095:
.LBI3075:
	.loc 16 63 1 view .LVU594
.LBB3077:
	.loc 16 65 3 view .LVU595
	.loc 16 65 3 is_stmt 0 view .LVU596
.LBE3077:
.LBE3095:
	.loc 1 139 17 is_stmt 1 view .LVU597
.LBB3096:
.LBI3096:
	.loc 16 63 1 view .LVU598
.LBB3097:
	.loc 16 65 3 view .LVU599
# /usr/lib/gcc/x86_64-linux-gnu/16/include/fmaintrin.h:65:   return (__m256)__builtin_ia32_vfmaddps256 ((__v8sf)__A, (__v8sf)__B,
	.loc 16 65 10 is_stmt 0 view .LVU600
	vfmadd132ps	ymm14, ymm20, ymm2	# tmp1047, tmp1043, _277
.LVL102:
	.loc 16 65 10 view .LVU601
.LBE3097:
.LBE3096:
	.loc 1 140 17 is_stmt 1 view .LVU602
.LBB3098:
.LBI3098:
	.loc 16 63 1 view .LVU603
.LBB3099:
	.loc 16 65 3 view .LVU604
# /usr/lib/gcc/x86_64-linux-gnu/16/include/fmaintrin.h:65:   return (__m256)__builtin_ia32_vfmaddps256 ((__v8sf)__A, (__v8sf)__B,
	.loc 16 65 10 is_stmt 0 view .LVU605
	vfmadd132ps	ymm9, ymm19, ymm2	# tmp1048, tmp1045, _277
.LVL103:
	.loc 16 65 10 view .LVU606
.LBE3099:
.LBE3098:
	.loc 1 142 17 is_stmt 1 view .LVU607
.LBB3100:
.LBI3100:
	.loc 16 63 1 view .LVU608
.LBB3101:
	.loc 16 65 3 view .LVU609
# /usr/lib/gcc/x86_64-linux-gnu/16/include/fmaintrin.h:65:   return (__m256)__builtin_ia32_vfmaddps256 ((__v8sf)__A, (__v8sf)__B,
	.loc 16 65 10 is_stmt 0 view .LVU610
	vfmadd132ps	ymm8, ymm14, ymm1	# tmp1049, tmp1047, _278
.LVL104:
	.loc 16 65 10 view .LVU611
.LBE3101:
.LBE3100:
	.loc 1 143 17 is_stmt 1 view .LVU612
.LBB3102:
.LBI3102:
	.loc 16 63 1 view .LVU613
.LBB3103:
	.loc 16 65 3 view .LVU614
# /usr/lib/gcc/x86_64-linux-gnu/16/include/fmaintrin.h:65:   return (__m256)__builtin_ia32_vfmaddps256 ((__v8sf)__A, (__v8sf)__B,
	.loc 16 65 10 is_stmt 0 view .LVU615
	vfmadd132ps	ymm7, ymm9, ymm1	# tmp1050, tmp1048, _278
.LVL105:
	.loc 16 65 10 view .LVU616
.LBE3103:
.LBE3102:
	.loc 1 145 17 is_stmt 1 view .LVU617
.LBB3104:
.LBI3104:
	.loc 16 63 1 view .LVU618
.LBB3105:
	.loc 16 65 3 view .LVU619
# /usr/lib/gcc/x86_64-linux-gnu/16/include/fmaintrin.h:65:   return (__m256)__builtin_ia32_vfmaddps256 ((__v8sf)__A, (__v8sf)__B,
	.loc 16 65 10 is_stmt 0 view .LVU620
	vfmadd132ps	ymm6, ymm8, ymm0	# tmp1051, tmp1049, _279
.LVL106:
	.loc 16 65 10 view .LVU621
.LBE3105:
.LBE3104:
	.loc 1 146 17 is_stmt 1 view .LVU622
.LBB3106:
.LBI3106:
	.loc 16 63 1 view .LVU623
.LBB3107:
	.loc 16 65 3 view .LVU624
# /usr/lib/gcc/x86_64-linux-gnu/16/include/fmaintrin.h:65:   return (__m256)__builtin_ia32_vfmaddps256 ((__v8sf)__A, (__v8sf)__B,
	.loc 16 65 10 is_stmt 0 view .LVU625
	vfmadd132ps	ymm4, ymm7, ymm0	# tmp1052, tmp1050, _279
.LVL107:
	.loc 16 65 10 view .LVU626
.LBE3107:
.LBE3106:
	.loc 1 148 17 is_stmt 1 view .LVU627
.LBB3108:
.LBI3108:
	.loc 13 853 1 view .LVU628
.LBB3109:
	.loc 13 855 3 view .LVU629
# /usr/lib/gcc/x86_64-linux-gnu/16/include/avxintrin.h:855:   *(__m256_u *)__P = __A;
	.loc 13 855 20 is_stmt 0 view .LVU630
	vmovups	YMMWORD PTR -64[rdx], ymm6	# MEM[(__m256_u * {ref-all})vp_675], tmp1051
.LVL108:
	.loc 13 855 20 view .LVU631
.LBE3109:
.LBE3108:
	.loc 1 149 17 is_stmt 1 view .LVU632
.LBB3110:
.LBI3110:
	.loc 13 853 1 view .LVU633
.LBB3111:
	.loc 13 855 3 view .LVU634
# /usr/lib/gcc/x86_64-linux-gnu/16/include/avxintrin.h:855:   *(__m256_u *)__P = __A;
	.loc 13 855 20 is_stmt 0 view .LVU635
	vmovups	YMMWORD PTR -32[rdx], ymm4	# MEM[(__m256_u * {ref-all})vp_675 + 32B], tmp1052
.LVL109:
	.loc 13 855 20 view .LVU636
.LBE3111:
.LBE3110:
	.loc 1 151 17 is_stmt 1 view .LVU637
	.loc 1 152 17 view .LVU638
	.loc 1 152 33 view .LVU639
	.loc 1 153 17 view .LVU640
	.loc 1 153 33 view .LVU641
.LBE3112:
	.loc 1 112 13 discriminator 1 view .LVU642
	.loc 1 112 27 discriminator 2 view .LVU643
	cmp	rdx, r9	# vp, vp
	jne	.L47	#,
	mov	rax, QWORD PTR 112[rsp]	# _738, %sfp
.LVL110:
	.loc 1 112 27 is_stmt 0 discriminator 2 view .LVU644
	mov	rbx, QWORD PTR 184[rsp]	# ivtmp.518, %sfp
.LBE3113:
.LBB3114:
# src/avx_analysis_code_ablations/opt9_abl_hand_vec_no_tile_ilp.cpp:155:             if(x + 8 <= x_stop) {
	.loc 1 155 13 view .LVU645
	mov	r10d, DWORD PTR 132[rsp]	# _1137, %sfp
	add	rbx, rax	# ind_rbot, _738
	add	r8, rax	# ind_rtop, _738
	add	rsi, rax	# ind_lbot, _738
	add	rax, r14	# ind_ltop, ivtmp.515
	mov	QWORD PTR 208[rsp], rbx	# %sfp, ind_rbot
	mov	ebx, DWORD PTR 128[rsp]	# _331, %sfp
	mov	QWORD PTR 216[rsp], rax	# %sfp, ind_ltop
.LBE3114:
	.loc 1 155 13 is_stmt 1 view .LVU646
.LBB3115:
	lea	eax, 16[rbx]	# x,
	cmp	DWORD PTR 176[rsp], r10d	# %sfp, _1137
	jle	.L48	#,
.LVL111:
.L44:
.LBB2897:
	.loc 1 156 17 view .LVU647
.LBB2898:
.LBI2898:
	.loc 14 711 1 view .LVU648
.LBB2899:
	.loc 14 713 3 view .LVU649
.LBB2900:
.LBI2900:
	.loc 14 600 1 view .LVU650
.LBB2901:
	.loc 14 602 3 view .LVU651
.LBB2902:
.LBI2902:
	.loc 14 594 1 view .LVU652
.LBB2903:
	.loc 14 596 3 view .LVU653
	.loc 14 596 3 is_stmt 0 view .LVU654
.LBE2903:
.LBE2902:
.LBE2901:
.LBE2900:
.LBE2899:
.LBE2898:
	.loc 1 157 17 is_stmt 1 view .LVU655
.LBB2904:
.LBI2904:
	.loc 14 711 1 view .LVU656
.LBB2905:
	.loc 14 713 3 view .LVU657
.LBB2906:
.LBI2906:
	.loc 14 600 1 view .LVU658
.LBB2907:
	.loc 14 602 3 view .LVU659
.LBB2908:
.LBI2908:
	.loc 14 594 1 view .LVU660
.LBB2909:
	.loc 14 596 3 view .LVU661
	.loc 14 596 3 is_stmt 0 view .LVU662
.LBE2909:
.LBE2908:
.LBE2907:
.LBE2906:
.LBE2905:
.LBE2904:
	.loc 1 158 17 is_stmt 1 view .LVU663
.LBB2910:
.LBI2910:
	.loc 14 711 1 view .LVU664
.LBB2911:
	.loc 14 713 3 view .LVU665
.LBB2912:
.LBI2912:
	.loc 14 600 1 view .LVU666
.LBB2913:
	.loc 14 602 3 view .LVU667
.LBB2914:
.LBI2914:
	.loc 14 594 1 view .LVU668
.LBB2915:
	.loc 14 596 3 view .LVU669
	.loc 14 596 3 is_stmt 0 view .LVU670
.LBE2915:
.LBE2914:
.LBE2913:
.LBE2912:
.LBE2911:
.LBE2910:
	.loc 1 159 17 is_stmt 1 view .LVU671
.LBB2916:
.LBI2916:
	.loc 14 711 1 view .LVU672
.LBB2917:
	.loc 14 713 3 view .LVU673
.LBB2918:
.LBI2918:
	.loc 14 600 1 view .LVU674
.LBB2919:
	.loc 14 602 3 view .LVU675
.LBB2920:
.LBI2920:
	.loc 14 594 1 view .LVU676
.LBB2921:
	.loc 14 596 3 view .LVU677
	.loc 14 596 3 is_stmt 0 view .LVU678
.LBE2921:
.LBE2920:
.LBE2919:
.LBE2918:
.LBE2917:
.LBE2916:
	.loc 1 161 17 is_stmt 1 view .LVU679
.LBB2922:
.LBI2922:
	.loc 15 489 1 view .LVU680
.LBB2923:
	.loc 15 491 3 view .LVU681
# /usr/lib/gcc/x86_64-linux-gnu/16/include/avx2intrin.h:491:   return (__m256i) __builtin_ia32_pmovzxbd256 ((__v16qi)__X);
	.loc 15 491 47 is_stmt 0 view .LVU682
	mov	rbx, QWORD PTR 216[rsp]	# ind_ltop, %sfp
.LBE2923:
.LBE2922:
.LBB2925:
.LBB2926:
	vpmovzxbd	ymm7, QWORD PTR [rdi+r8]	# tmp1064, MEM[(__m64_u * {ref-all})_112]
.LBE2926:
.LBE2925:
# src/avx_analysis_code_ablations/opt9_abl_hand_vec_no_tile_ilp.cpp:173:                 vp += 8;
	.loc 1 173 20 view .LVU683
	add	rdx, 32	# vp,
.LVL112:
# src/avx_analysis_code_ablations/opt9_abl_hand_vec_no_tile_ilp.cpp:175:                 ind_rtop += 8; ind_rbot += 8;
	.loc 1 175 26 view .LVU684
	add	r8, 8	# ind_rtop,
.LVL113:
.LBB2928:
.LBB2929:
# /usr/lib/gcc/x86_64-linux-gnu/16/include/avx2intrin.h:491:   return (__m256i) __builtin_ia32_pmovzxbd256 ((__v16qi)__X);
	.loc 15 491 47 view .LVU685
	vpmovzxbd	ymm6, QWORD PTR [rdi+rsi]	# tmp1059, MEM[(__m64_u * {ref-all})_111]
.LBE2929:
.LBE2928:
.LBB2931:
.LBB2932:
	mov	rcx, QWORD PTR 208[rsp]	# ind_rbot, %sfp
.LBE2932:
.LBE2931:
# src/avx_analysis_code_ablations/opt9_abl_hand_vec_no_tile_ilp.cpp:174:                 ind_ltop += 8; ind_lbot += 8;
	.loc 1 174 41 view .LVU686
	add	rsi, 8	# ind_lbot,
.LVL114:
# src/avx_analysis_code_ablations/opt9_abl_hand_vec_no_tile_ilp.cpp:176:                 x += 8;
	.loc 1 176 19 view .LVU687
	add	eax, 8	# x,
.LBB2935:
.LBB2924:
# /usr/lib/gcc/x86_64-linux-gnu/16/include/avx2intrin.h:491:   return (__m256i) __builtin_ia32_pmovzxbd256 ((__v16qi)__X);
	.loc 15 491 47 view .LVU688
	vpmovzxbd	ymm8, QWORD PTR [rdi+rbx]	# tmp1054, MEM[(__m64_u * {ref-all})_110]
.LVL115:
	.loc 15 491 47 view .LVU689
.LBE2924:
.LBE2935:
.LBB2936:
.LBI2936:
	.loc 13 405 1 is_stmt 1 view .LVU690
.LBB2937:
	.loc 13 407 3 view .LVU691
.LBE2937:
.LBE2936:
.LBB2939:
.LBB2940:
# /usr/lib/gcc/x86_64-linux-gnu/16/include/avxintrin.h:407:   return (__m256)__builtin_ia32_cvtdq2ps256 ((__v8si) __A);
	.loc 13 407 10 is_stmt 0 view .LVU692
	vcvtdq2ps	ymm7, ymm7	# tmp1068, tmp1064
.LBE2940:
.LBE2939:
# src/avx_analysis_code_ablations/opt9_abl_hand_vec_no_tile_ilp.cpp:174:                 ind_ltop += 8; ind_lbot += 8;
	.loc 1 174 26 view .LVU693
	add	rbx, 8	# ind_ltop,
.LBB2942:
.LBB2943:
# /usr/lib/gcc/x86_64-linux-gnu/16/include/avxintrin.h:407:   return (__m256)__builtin_ia32_cvtdq2ps256 ((__v8si) __A);
	.loc 13 407 10 view .LVU694
	vcvtdq2ps	ymm6, ymm6	# tmp1063, tmp1059
.LBE2943:
.LBE2942:
.LBB2945:
.LBB2933:
# /usr/lib/gcc/x86_64-linux-gnu/16/include/avx2intrin.h:491:   return (__m256i) __builtin_ia32_pmovzxbd256 ((__v16qi)__X);
	.loc 15 491 47 view .LVU695
	vpmovzxbd	ymm4, QWORD PTR [rdi+rcx]	# tmp1069, MEM[(__m64_u * {ref-all})_113]
.LBE2933:
.LBE2945:
# src/avx_analysis_code_ablations/opt9_abl_hand_vec_no_tile_ilp.cpp:175:                 ind_rtop += 8; ind_rbot += 8;
	.loc 1 175 41 view .LVU696
	add	rcx, 8	# ind_rbot,
# src/avx_analysis_code_ablations/opt9_abl_hand_vec_no_tile_ilp.cpp:174:                 ind_ltop += 8; ind_lbot += 8;
	.loc 1 174 26 view .LVU697
	mov	QWORD PTR 216[rsp], rbx	# %sfp, ind_ltop
.LVL116:
.LBB2946:
.LBB2938:
# /usr/lib/gcc/x86_64-linux-gnu/16/include/avxintrin.h:407:   return (__m256)__builtin_ia32_cvtdq2ps256 ((__v8si) __A);
	.loc 13 407 10 view .LVU698
	vcvtdq2ps	ymm8, ymm8	# tmp1058, tmp1054
.LVL117:
	.loc 13 407 10 view .LVU699
.LBE2938:
.LBE2946:
	.loc 1 162 17 is_stmt 1 view .LVU700
.LBB2947:
.LBI2928:
	.loc 15 489 1 view .LVU701
.LBB2930:
	.loc 15 491 3 view .LVU702
.LBE2930:
.LBE2947:
.LBB2948:
.LBI2942:
	.loc 13 405 1 view .LVU703
.LBB2944:
	.loc 13 407 3 view .LVU704
	.loc 13 407 3 is_stmt 0 view .LVU705
.LBE2944:
.LBE2948:
	.loc 1 163 17 is_stmt 1 view .LVU706
.LBB2949:
.LBI2925:
	.loc 15 489 1 view .LVU707
.LBB2927:
	.loc 15 491 3 view .LVU708
.LBE2927:
.LBE2949:
.LBB2950:
.LBI2939:
	.loc 13 405 1 view .LVU709
.LBB2941:
	.loc 13 407 3 view .LVU710
	.loc 13 407 3 is_stmt 0 view .LVU711
.LBE2941:
.LBE2950:
	.loc 1 164 17 is_stmt 1 view .LVU712
.LBB2951:
.LBI2931:
	.loc 15 489 1 view .LVU713
.LBB2934:
	.loc 15 491 3 view .LVU714
	.loc 15 491 3 is_stmt 0 view .LVU715
.LBE2934:
.LBE2951:
.LBB2952:
.LBI2952:
	.loc 13 405 1 is_stmt 1 view .LVU716
.LBB2953:
	.loc 13 407 3 view .LVU717
.LBE2953:
.LBE2952:
.LBB2955:
.LBB2956:
# /usr/lib/gcc/x86_64-linux-gnu/16/include/fmaintrin.h:65:   return (__m256)__builtin_ia32_vfmaddps256 ((__v8sf)__A, (__v8sf)__B,
	.loc 16 65 10 is_stmt 0 view .LVU718
	vfmadd213ps	ymm8, ymm3, YMMWORD PTR -32[rdx]	# tmp1074, _276, MEM[(__m256_u * {ref-all})vp_735]
.LVL118:
	.loc 16 65 10 view .LVU719
.LBE2956:
.LBE2955:
# src/avx_analysis_code_ablations/opt9_abl_hand_vec_no_tile_ilp.cpp:175:                 ind_rtop += 8; ind_rbot += 8;
	.loc 1 175 41 view .LVU720
	mov	QWORD PTR 208[rsp], rcx	# %sfp, ind_rbot
.LVL119:
.LBB2958:
.LBB2954:
# /usr/lib/gcc/x86_64-linux-gnu/16/include/avxintrin.h:407:   return (__m256)__builtin_ia32_cvtdq2ps256 ((__v8si) __A);
	.loc 13 407 10 view .LVU721
	vcvtdq2ps	ymm4, ymm4	# tmp1073, tmp1069
.LVL120:
	.loc 13 407 10 view .LVU722
.LBE2954:
.LBE2958:
	.loc 1 166 17 is_stmt 1 view .LVU723
.LBB2959:
.LBI2959:
	.loc 13 847 1 view .LVU724
.LBB2960:
	.loc 13 849 3 view .LVU725
.LBE2960:
.LBE2959:
	.loc 1 167 17 view .LVU726
.LBB2961:
.LBI2955:
	.loc 16 63 1 view .LVU727
.LBB2957:
	.loc 16 65 3 view .LVU728
	.loc 16 65 3 is_stmt 0 view .LVU729
.LBE2957:
.LBE2961:
	.loc 1 168 17 is_stmt 1 view .LVU730
.LBB2962:
.LBI2962:
	.loc 16 63 1 view .LVU731
.LBB2963:
	.loc 16 65 3 view .LVU732
# /usr/lib/gcc/x86_64-linux-gnu/16/include/fmaintrin.h:65:   return (__m256)__builtin_ia32_vfmaddps256 ((__v8sf)__A, (__v8sf)__B,
	.loc 16 65 10 is_stmt 0 view .LVU733
	vfmadd132ps	ymm7, ymm8, ymm2	# tmp1076, tmp1074, _277
.LVL121:
	.loc 16 65 10 view .LVU734
.LBE2963:
.LBE2962:
	.loc 1 169 17 is_stmt 1 view .LVU735
.LBB2964:
.LBI2964:
	.loc 16 63 1 view .LVU736
.LBB2965:
	.loc 16 65 3 view .LVU737
# /usr/lib/gcc/x86_64-linux-gnu/16/include/fmaintrin.h:65:   return (__m256)__builtin_ia32_vfmaddps256 ((__v8sf)__A, (__v8sf)__B,
	.loc 16 65 10 is_stmt 0 view .LVU738
	vfmadd132ps	ymm6, ymm7, ymm1	# tmp1077, tmp1076, _278
.LVL122:
	.loc 16 65 10 view .LVU739
.LBE2965:
.LBE2964:
	.loc 1 170 17 is_stmt 1 view .LVU740
.LBB2966:
.LBI2966:
	.loc 16 63 1 view .LVU741
.LBB2967:
	.loc 16 65 3 view .LVU742
# /usr/lib/gcc/x86_64-linux-gnu/16/include/fmaintrin.h:65:   return (__m256)__builtin_ia32_vfmaddps256 ((__v8sf)__A, (__v8sf)__B,
	.loc 16 65 10 is_stmt 0 view .LVU743
	vfmadd132ps	ymm4, ymm6, ymm0	# tmp1078, tmp1077, _279
.LVL123:
	.loc 16 65 10 view .LVU744
.LBE2967:
.LBE2966:
	.loc 1 171 17 is_stmt 1 view .LVU745
.LBB2968:
.LBI2968:
	.loc 13 853 1 view .LVU746
.LBB2969:
	.loc 13 855 3 view .LVU747
# /usr/lib/gcc/x86_64-linux-gnu/16/include/avxintrin.h:855:   *(__m256_u *)__P = __A;
	.loc 13 855 20 is_stmt 0 view .LVU748
	vmovups	YMMWORD PTR -32[rdx], ymm4	# MEM[(__m256_u * {ref-all})vp_735], tmp1078
.LVL124:
	.loc 13 855 20 view .LVU749
.LBE2969:
.LBE2968:
	.loc 1 173 17 is_stmt 1 view .LVU750
	.loc 1 174 17 view .LVU751
	.loc 1 174 32 view .LVU752
	.loc 1 175 17 view .LVU753
	.loc 1 175 32 view .LVU754
	.loc 1 176 17 view .LVU755
.L48:
	.loc 1 176 17 is_stmt 0 view .LVU756
.LBE2897:
.LBE3115:
	.loc 1 179 13 is_stmt 1 view .LVU757
# src/avx_analysis_code_ablations/opt9_abl_hand_vec_no_tile_ilp.cpp:179:             int remaining = x_stop - x;
	.loc 1 179 17 is_stmt 0 view .LVU758
	mov	r10d, DWORD PTR 176[rsp]	# remaining, %sfp
	sub	r10d, eax	# remaining, x
.LVL125:
	.loc 1 180 13 is_stmt 1 view .LVU759
.LBB3116:
	.loc 1 180 31 discriminator 2 view .LVU760
	test	r10d, r10d	# remaining
	jle	.L45	#,
	.loc 1 180 31 is_stmt 0 discriminator 2 view .LVU761
	lea	eax, -1[r10]	# _938,
.LVL126:
	.loc 1 180 31 discriminator 2 view .LVU762
	cmp	eax, 30	# _938,
	jbe	.L84	#,
	mov	rax, QWORD PTR 208[rsp]	# ind_rbot, %sfp
	mov	r15d, r10d	# bnd.316, remaining
	lea	r12, [rdi+rsi]	# vectp.326,
	lea	rbx, [rdi+r8]	# vectp.332,
	shr	r15d, 5	# bnd.316,
.LBB3117:
# src/avx_analysis_code_ablations/opt9_abl_hand_vec_no_tile_ilp.cpp:181:                 float TL = p.SUB[ind_ltop + k];
	.loc 1 181 30 view .LVU763
	xor	ecx, ecx	# ivtmp.484
	lea	r13, [rdi+rax]	# vectp.320,
	mov	rax, QWORD PTR 216[rsp]	# ind_ltop, %sfp
	mov	r9d, r15d	# _784, bnd.316
	sal	r9, 5	# _819,
	lea	r11, [rdi+rax]	# vectp.344,
	mov	rax, rdx	# ivtmp.482, vp
.LVL127:
	.p2align 4,,10
	.p2align 3
.L50:
	.loc 1 181 17 is_stmt 1 view .LVU764
# src/avx_analysis_code_ablations/opt9_abl_hand_vec_no_tile_ilp.cpp:183:                 float BL = p.SUB[ind_lbot + k];
	.loc 1 183 46 is_stmt 0 discriminator 40960 view .LVU765
	vmovdqu	ymm4, YMMWORD PTR [r12+rcx]	# MEM <const vector(32) unsigned char> [(const unsigned char *)vectp.326_907 + ivtmp.484_445 * 1], MEM <const vector(32) unsigned char> [(const unsigned char *)vectp.326_907 + ivtmp.484_445 * 1]
# src/avx_analysis_code_ablations/opt9_abl_hand_vec_no_tile_ilp.cpp:182:                 float TR = p.SUB[ind_rtop + k];
	.loc 1 182 46 discriminator 40960 view .LVU766
	vmovdqu	ymm6, YMMWORD PTR [rbx+rcx]	# MEM <const vector(32) unsigned char> [(const unsigned char *)vectp.332_889 + ivtmp.484_445 * 1], MEM <const vector(32) unsigned char> [(const unsigned char *)vectp.332_889 + ivtmp.484_445 * 1]
	sub	rax, -128	# ivtmp.482,
# src/avx_analysis_code_ablations/opt9_abl_hand_vec_no_tile_ilp.cpp:181:                 float TL = p.SUB[ind_ltop + k];
	.loc 1 181 46 discriminator 40960 view .LVU767
	vmovdqu	ymm7, YMMWORD PTR [r11+rcx]	# MEM <const vector(32) unsigned char> [(const unsigned char *)vectp.344_862 + ivtmp.484_445 * 1], MEM <const vector(32) unsigned char> [(const unsigned char *)vectp.344_862 + ivtmp.484_445 * 1]
# src/avx_analysis_code_ablations/opt9_abl_hand_vec_no_tile_ilp.cpp:183:                 float BL = p.SUB[ind_lbot + k];
	.loc 1 183 23 discriminator 40960 view .LVU768
	vpmovzxbw	ymm9, xmm4	#, MEM <const vector(32) unsigned char> [(const unsigned char *)vectp.326_907 + ivtmp.484_445 * 1]
# src/avx_analysis_code_ablations/opt9_abl_hand_vec_no_tile_ilp.cpp:182:                 float TR = p.SUB[ind_rtop + k];
	.loc 1 182 23 discriminator 40960 view .LVU769
	vpmovzxbw	ymm8, xmm6	#, MEM <const vector(32) unsigned char> [(const unsigned char *)vectp.332_889 + ivtmp.484_445 * 1]
# src/avx_analysis_code_ablations/opt9_abl_hand_vec_no_tile_ilp.cpp:183:                 float BL = p.SUB[ind_lbot + k];
	.loc 1 183 23 discriminator 40960 view .LVU770
	vextracti32x4	xmm4, ymm4, 0x1	# tmp1090, MEM <const vector(32) unsigned char> [(const unsigned char *)vectp.326_907 + ivtmp.484_445 * 1]
	vpmovsxwd	ymm19, xmm9	#, vect_BL_291.329
	vextracti32x4	xmm9, ymm9, 0x1	# tmp1103, vect_BL_291.329
# src/avx_analysis_code_ablations/opt9_abl_hand_vec_no_tile_ilp.cpp:182:                 float TR = p.SUB[ind_rtop + k];
	.loc 1 182 23 discriminator 40960 view .LVU771
	vpmovsxwd	ymm14, xmm8	#, vect_TR_290.335
# src/avx_analysis_code_ablations/opt9_abl_hand_vec_no_tile_ilp.cpp:183:                 float BL = p.SUB[ind_lbot + k];
	.loc 1 183 23 discriminator 40960 view .LVU772
	vpmovsxwd	ymm9, xmm9	# tmp1102, tmp1103
# src/avx_analysis_code_ablations/opt9_abl_hand_vec_no_tile_ilp.cpp:182:                 float TR = p.SUB[ind_rtop + k];
	.loc 1 182 23 discriminator 40960 view .LVU773
	vextracti32x4	xmm8, ymm8, 0x1	# tmp1100, vect_TR_290.335
# src/avx_analysis_code_ablations/opt9_abl_hand_vec_no_tile_ilp.cpp:183:                 float BL = p.SUB[ind_lbot + k];
	.loc 1 183 23 discriminator 40960 view .LVU774
	vpmovzxbw	ymm4, xmm4	# vect_BL_291.329, tmp1090
	vcvtdq2ps	ymm19, ymm19	# vect_BL_291.328_901, tmp1095
# src/avx_analysis_code_ablations/opt9_abl_hand_vec_no_tile_ilp.cpp:182:                 float TR = p.SUB[ind_rtop + k];
	.loc 1 182 23 discriminator 40960 view .LVU775
	vcvtdq2ps	ymm14, ymm14	# vect_TR_290.334_883, tmp1092
# src/avx_analysis_code_ablations/opt9_abl_hand_vec_no_tile_ilp.cpp:183:                 float BL = p.SUB[ind_lbot + k];
	.loc 1 183 23 discriminator 40960 view .LVU776
	vcvtdq2ps	ymm9, ymm9	# vect_BL_291.328_900, tmp1102
# src/avx_analysis_code_ablations/opt9_abl_hand_vec_no_tile_ilp.cpp:185:                 vp[k] += p.A*TL + p.B*TR + p.C*BL + p.D*BR;
	.loc 1 185 47 discriminator 40960 view .LVU777
	vmulps	ymm9, ymm9, ymm1	# vect__137.330_896, vect_BL_291.328_900, _278
# src/avx_analysis_code_ablations/opt9_abl_hand_vec_no_tile_ilp.cpp:182:                 float TR = p.SUB[ind_rtop + k];
	.loc 1 182 23 discriminator 40960 view .LVU778
	vpmovsxwd	ymm8, xmm8	# tmp1099, tmp1100
	vextracti32x4	xmm6, ymm6, 0x1	# tmp1087, MEM <const vector(32) unsigned char> [(const unsigned char *)vectp.332_889 + ivtmp.484_445 * 1]
# src/avx_analysis_code_ablations/opt9_abl_hand_vec_no_tile_ilp.cpp:185:                 vp[k] += p.A*TL + p.B*TR + p.C*BL + p.D*BR;
	.loc 1 185 47 discriminator 40960 view .LVU779
	vmulps	ymm19, ymm19, ymm1	# vect__137.330_897, vect_BL_291.328_901, _278
# src/avx_analysis_code_ablations/opt9_abl_hand_vec_no_tile_ilp.cpp:182:                 float TR = p.SUB[ind_rtop + k];
	.loc 1 182 23 discriminator 40960 view .LVU780
	vcvtdq2ps	ymm8, ymm8	# vect_TR_290.334_882, tmp1099
	vpmovzxbw	ymm6, xmm6	# vect_TR_290.335, tmp1087
# src/avx_analysis_code_ablations/opt9_abl_hand_vec_no_tile_ilp.cpp:181:                 float TL = p.SUB[ind_ltop + k];
	.loc 1 181 23 discriminator 40960 view .LVU781
	vpmovzxbw	ymm22, xmm7	#, MEM <const vector(32) unsigned char> [(const unsigned char *)vectp.344_862 + ivtmp.484_445 * 1]
	vextracti32x4	xmm7, ymm7, 0x1	# tmp1084, MEM <const vector(32) unsigned char> [(const unsigned char *)vectp.344_862 + ivtmp.484_445 * 1]
	vpmovzxbw	ymm7, xmm7	# vect_TL_289.347, tmp1084
.LVL128:
	.loc 1 182 17 is_stmt 1 view .LVU782
	.loc 1 183 17 view .LVU783
	vfmadd132ps	ymm8, ymm9, ymm2	# _1185, vect__137.330_896, _277
# src/avx_analysis_code_ablations/opt9_abl_hand_vec_no_tile_ilp.cpp:183:                 float BL = p.SUB[ind_lbot + k];
	.loc 1 183 23 is_stmt 0 discriminator 40960 view .LVU784
	vpmovsxwd	ymm9, xmm4	#, vect_BL_291.329
	vextracti32x4	xmm4, ymm4, 0x1	# tmp1117, vect_BL_291.329
	vcvtdq2ps	ymm9, ymm9	# vect_BL_291.328_899, tmp1109
# src/avx_analysis_code_ablations/opt9_abl_hand_vec_no_tile_ilp.cpp:185:                 vp[k] += p.A*TL + p.B*TR + p.C*BL + p.D*BR;
	.loc 1 185 47 discriminator 40960 view .LVU785
	vmulps	ymm9, ymm9, ymm1	# vect__137.330_895, vect_BL_291.328_899, _278
	vfmadd132ps	ymm14, ymm19, ymm2	# _1064, vect__137.330_897, _277
# src/avx_analysis_code_ablations/opt9_abl_hand_vec_no_tile_ilp.cpp:183:                 float BL = p.SUB[ind_lbot + k];
	.loc 1 183 23 discriminator 40960 view .LVU786
	vpmovsxwd	ymm4, xmm4	# tmp1116, tmp1117
	vcvtdq2ps	ymm4, ymm4	# vect_BL_291.328_898, tmp1116
# src/avx_analysis_code_ablations/opt9_abl_hand_vec_no_tile_ilp.cpp:185:                 vp[k] += p.A*TL + p.B*TR + p.C*BL + p.D*BR;
	.loc 1 185 47 discriminator 40960 view .LVU787
	vmulps	ymm4, ymm4, ymm1	# vect__137.330_894, vect_BL_291.328_898, _278
# src/avx_analysis_code_ablations/opt9_abl_hand_vec_no_tile_ilp.cpp:182:                 float TR = p.SUB[ind_rtop + k];
	.loc 1 182 23 discriminator 40960 view .LVU788
	vpmovsxwd	ymm19, xmm6	#, vect_TR_290.335
	vextracti32x4	xmm6, ymm6, 0x1	# tmp1114, vect_TR_290.335
	vcvtdq2ps	ymm19, ymm19	# vect_TR_290.334_881, tmp1106
	vpmovsxwd	ymm6, xmm6	# tmp1113, tmp1114
	vcvtdq2ps	ymm6, ymm6	# vect_TR_290.334_880, tmp1113
	vfmadd132ps	ymm19, ymm9, ymm2	# _1158, vect__137.330_895, _277
# src/avx_analysis_code_ablations/opt9_abl_hand_vec_no_tile_ilp.cpp:181:                 float TL = p.SUB[ind_ltop + k];
	.loc 1 181 23 discriminator 40960 view .LVU789
	vpmovsxwd	ymm9, xmm22	#, vect_TL_289.347
	vcvtdq2ps	ymm9, ymm9	# vect_TL_289.346_856, tmp1127
	vfmadd213ps	ymm9, ymm3, YMMWORD PTR -128[rax]	# tmp1125, _276, MEM <vector(8) float> [(float *)_438]
	vfmadd132ps	ymm6, ymm4, ymm2	# _1208, vect__137.330_894, _277
.LVL129:
	.loc 1 184 17 is_stmt 1 view .LVU790
# src/avx_analysis_code_ablations/opt9_abl_hand_vec_no_tile_ilp.cpp:184:                 float BR = p.SUB[ind_rbot + k];
	.loc 1 184 46 is_stmt 0 discriminator 40960 view .LVU791
	vmovdqu	ymm4, YMMWORD PTR 0[r13+rcx]	# MEM <const vector(32) unsigned char> [(const unsigned char *)vectp.320_926 + ivtmp.484_445 * 1], MEM <const vector(32) unsigned char> [(const unsigned char *)vectp.320_926 + ivtmp.484_445 * 1]
	add	rcx, 32	# ivtmp.484,
# src/avx_analysis_code_ablations/opt9_abl_hand_vec_no_tile_ilp.cpp:184:                 float BR = p.SUB[ind_rbot + k];
	.loc 1 184 23 discriminator 40960 view .LVU792
	vpmovzxbw	ymm21, xmm4	#, MEM <const vector(32) unsigned char> [(const unsigned char *)vectp.320_926 + ivtmp.484_445 * 1]
	vextracti32x4	xmm4, ymm4, 0x1	# tmp1121, MEM <const vector(32) unsigned char> [(const unsigned char *)vectp.320_926 + ivtmp.484_445 * 1]
	vpmovsxwd	ymm20, xmm21	#, vect_BR_292.323
	vextracti32x4	xmm21, ymm21, 0x1	# tmp1132, vect_BR_292.323
	vpmovzxbw	ymm4, xmm4	# vect_BR_292.323, tmp1121
.LVL130:
	.loc 1 185 17 is_stmt 1 view .LVU793
# src/avx_analysis_code_ablations/opt9_abl_hand_vec_no_tile_ilp.cpp:184:                 float BR = p.SUB[ind_rbot + k];
	.loc 1 184 23 is_stmt 0 discriminator 40960 view .LVU794
	vcvtdq2ps	ymm20, ymm20	# vect_BR_292.322_920, tmp1123
	vpmovsxwd	ymm21, xmm21	# tmp1131, tmp1132
	vfmadd132ps	ymm20, ymm9, ymm0	# _1115, tmp1125, _279
# src/avx_analysis_code_ablations/opt9_abl_hand_vec_no_tile_ilp.cpp:181:                 float TL = p.SUB[ind_ltop + k];
	.loc 1 181 23 discriminator 40960 view .LVU795
	vextracti32x4	xmm9, ymm22, 0x1	# tmp1136, vect_TL_289.347
	vpmovsxwd	ymm22, xmm7	#, vect_TL_289.347
# src/avx_analysis_code_ablations/opt9_abl_hand_vec_no_tile_ilp.cpp:184:                 float BR = p.SUB[ind_rbot + k];
	.loc 1 184 23 discriminator 40960 view .LVU796
	vcvtdq2ps	ymm21, ymm21	# vect_BR_292.322_918, tmp1131
# src/avx_analysis_code_ablations/opt9_abl_hand_vec_no_tile_ilp.cpp:181:                 float TL = p.SUB[ind_ltop + k];
	.loc 1 181 23 discriminator 40960 view .LVU797
	vpmovsxwd	ymm9, xmm9	# tmp1135, tmp1136
	vextracti32x4	xmm7, ymm7, 0x1	# tmp1153, vect_TL_289.347
	vcvtdq2ps	ymm22, ymm22	# vect_TL_289.346_854, tmp1143
	vcvtdq2ps	ymm9, ymm9	# vect_TL_289.346_855, tmp1135
	vfmadd213ps	ymm9, ymm3, YMMWORD PTR -96[rax]	# tmp1133, _276, MEM <vector(8) float> [(float *)_438 + 32B]
	vfmadd213ps	ymm22, ymm3, YMMWORD PTR -64[rax]	# tmp1141, _276, MEM <vector(8) float> [(float *)_438 + 64B]
	vpmovsxwd	ymm7, xmm7	# tmp1152, tmp1153
	vcvtdq2ps	ymm7, ymm7	# vect_TL_289.346_853, tmp1152
# src/avx_analysis_code_ablations/opt9_abl_hand_vec_no_tile_ilp.cpp:185:                 vp[k] += p.A*TL + p.B*TR + p.C*BL + p.D*BR;
	.loc 1 185 23 discriminator 40960 view .LVU798
	vfmadd213ps	ymm7, ymm3, YMMWORD PTR -32[rax]	# tmp1150, _276, MEM <vector(8) float> [(float *)_438 + 96B]
	vaddps	ymm14, ymm14, ymm20	# vect__142.352_836, _1064, _1115
	vfmadd132ps	ymm21, ymm9, ymm0	# _1198, tmp1133, _279
# src/avx_analysis_code_ablations/opt9_abl_hand_vec_no_tile_ilp.cpp:184:                 float BR = p.SUB[ind_rbot + k];
	.loc 1 184 23 discriminator 40960 view .LVU799
	vpmovsxwd	ymm9, xmm4	#, vect_BR_292.323
	vextracti32x4	xmm4, ymm4, 0x1	# tmp1149, vect_BR_292.323
	vpmovsxwd	ymm4, xmm4	# tmp1148, tmp1149
	vcvtdq2ps	ymm9, ymm9	# vect_BR_292.322_917, tmp1139
	vfmadd132ps	ymm9, ymm22, ymm0	# _1164, tmp1141, _279
# src/avx_analysis_code_ablations/opt9_abl_hand_vec_no_tile_ilp.cpp:185:                 vp[k] += p.A*TL + p.B*TR + p.C*BL + p.D*BR;
	.loc 1 185 23 discriminator 40960 view .LVU800
	vmovups	YMMWORD PTR -128[rax], ymm14	# MEM <vector(8) float> [(float *)_438], vect__142.352_836
# src/avx_analysis_code_ablations/opt9_abl_hand_vec_no_tile_ilp.cpp:184:                 float BR = p.SUB[ind_rbot + k];
	.loc 1 184 23 discriminator 40960 view .LVU801
	vcvtdq2ps	ymm4, ymm4	# vect_BR_292.322_916, tmp1148
# src/avx_analysis_code_ablations/opt9_abl_hand_vec_no_tile_ilp.cpp:185:                 vp[k] += p.A*TL + p.B*TR + p.C*BL + p.D*BR;
	.loc 1 185 23 discriminator 40960 view .LVU802
	vfmadd132ps	ymm4, ymm7, ymm0	# tmp1146, tmp1150, _279
	vaddps	ymm8, ymm8, ymm21	# vect__142.352_835, _1185, _1198
	vaddps	ymm19, ymm19, ymm9	# vect__142.352_834, _1158, _1164
	vaddps	ymm4, ymm4, ymm6	# vect__142.352, tmp1146, _1208
	vmovups	YMMWORD PTR -96[rax], ymm8	# MEM <vector(8) float> [(float *)_438 + 32B], vect__142.352_835
	vmovups	YMMWORD PTR -64[rax], ymm19	# MEM <vector(8) float> [(float *)_438 + 64B], vect__142.352_834
	vmovups	YMMWORD PTR -32[rax], ymm4	# MEM <vector(8) float> [(float *)_438 + 96B], vect__142.352
.LBE3117:
	.loc 1 180 13 is_stmt 1 discriminator 1 view .LVU803
	.loc 1 180 31 discriminator 2 view .LVU804
	cmp	rcx, r9	# ivtmp.484, _819
	jne	.L50	#,
	sal	r15d, 5	# niters_vector_mult_vf.317,
	cmp	r15d, r10d	# niters_vector_mult_vf.317, remaining
	je	.L45	#,
	mov	r9d, r10d	# niters.355, remaining
	mov	eax, r15d	# tmp.318, niters_vector_mult_vf.317
	sub	r9d, r15d	# niters.355, niters_vector_mult_vf.317
	lea	ecx, -1[r9]	# _782,
	cmp	ecx, 14	# _782,
	jbe	.L85	#,
.LVL131:
.L164:
.LBB3118:
# src/avx_analysis_code_ablations/opt9_abl_hand_vec_no_tile_ilp.cpp:181:                 float TL = p.SUB[ind_ltop + k];
	.loc 1 181 46 is_stmt 0 discriminator 69632 view .LVU805
	mov	r13, QWORD PTR 216[rsp]	# ind_ltop, %sfp
	mov	r11d, r15d	# _729, niters_vector_mult_vf.317
	mov	rbx, QWORD PTR 208[rsp]	# ind_rbot, %sfp
	lea	rcx, [rdx+r11*4]	# vectp_vp.378,
	.loc 1 181 17 is_stmt 1 view .LVU806
# src/avx_analysis_code_ablations/opt9_abl_hand_vec_no_tile_ilp.cpp:181:                 float TL = p.SUB[ind_ltop + k];
	.loc 1 181 46 is_stmt 0 discriminator 69632 view .LVU807
	lea	r12, [rdi+r13]	# tmp1165,
	add	rbx, r11	# _714, _729
	vmovdqu	xmm7, XMMWORD PTR [r12+r11]	# MEM <const vector(16) unsigned char> [(const unsigned char *)vectp.384_559], MEM <const vector(16) unsigned char> [(const unsigned char *)vectp.384_559]
# src/avx_analysis_code_ablations/opt9_abl_hand_vec_no_tile_ilp.cpp:182:                 float TR = p.SUB[ind_rtop + k];
	.loc 1 182 46 discriminator 69632 view .LVU808
	lea	r12, [rdi+r11]	# tmp1169,
	vmovdqu	xmm6, XMMWORD PTR [r12+r8]	# MEM <const vector(16) unsigned char> [(const unsigned char *)vectp.372_627], MEM <const vector(16) unsigned char> [(const unsigned char *)vectp.372_627]
# src/avx_analysis_code_ablations/opt9_abl_hand_vec_no_tile_ilp.cpp:183:                 float BL = p.SUB[ind_lbot + k];
	.loc 1 183 46 discriminator 69632 view .LVU809
	lea	r12, [rdi+rsi]	# tmp1173,
	vmovdqu	xmm4, XMMWORD PTR [r12+r11]	# MEM <const vector(16) unsigned char> [(const unsigned char *)vectp.366_658], MEM <const vector(16) unsigned char> [(const unsigned char *)vectp.366_658]
# src/avx_analysis_code_ablations/opt9_abl_hand_vec_no_tile_ilp.cpp:181:                 float TL = p.SUB[ind_ltop + k];
	.loc 1 181 23 discriminator 69632 view .LVU810
	vpmovzxbw	xmm9, xmm7	# vect_TL_967.387, MEM <const vector(16) unsigned char> [(const unsigned char *)vectp.384_559]
	vpsrldq	xmm7, xmm7, 8	# tmp1168, MEM <const vector(16) unsigned char> [(const unsigned char *)vectp.384_559],
# src/avx_analysis_code_ablations/opt9_abl_hand_vec_no_tile_ilp.cpp:182:                 float TR = p.SUB[ind_rtop + k];
	.loc 1 182 23 discriminator 69632 view .LVU811
	vpmovzxbw	xmm8, xmm6	# vect_TR_963.375, MEM <const vector(16) unsigned char> [(const unsigned char *)vectp.372_627]
	vpsrldq	xmm6, xmm6, 8	# tmp1172, MEM <const vector(16) unsigned char> [(const unsigned char *)vectp.372_627],
# src/avx_analysis_code_ablations/opt9_abl_hand_vec_no_tile_ilp.cpp:181:                 float TL = p.SUB[ind_ltop + k];
	.loc 1 181 23 discriminator 69632 view .LVU812
	vpmovsxwd	xmm22, xmm9	# tmp1207, vect_TL_967.387
# src/avx_analysis_code_ablations/opt9_abl_hand_vec_no_tile_ilp.cpp:183:                 float BL = p.SUB[ind_lbot + k];
	.loc 1 183 23 discriminator 69632 view .LVU813
	vpmovzxbw	xmm14, xmm4	# vect_BL_959.369, MEM <const vector(16) unsigned char> [(const unsigned char *)vectp.366_658]
	vpsrldq	xmm4, xmm4, 8	# tmp1176, MEM <const vector(16) unsigned char> [(const unsigned char *)vectp.366_658],
# src/avx_analysis_code_ablations/opt9_abl_hand_vec_no_tile_ilp.cpp:182:                 float TR = p.SUB[ind_rtop + k];
	.loc 1 182 23 discriminator 69632 view .LVU814
	vpmovsxwd	xmm19, xmm8	# tmp1178, vect_TR_963.375
# src/avx_analysis_code_ablations/opt9_abl_hand_vec_no_tile_ilp.cpp:181:                 float TL = p.SUB[ind_ltop + k];
	.loc 1 181 23 discriminator 69632 view .LVU815
	vcvtdq2ps	xmm22, xmm22	# vect_TL_967.386_541, tmp1207
# src/avx_analysis_code_ablations/opt9_abl_hand_vec_no_tile_ilp.cpp:183:                 float BL = p.SUB[ind_lbot + k];
	.loc 1 183 23 discriminator 69632 view .LVU816
	vpmovsxwd	xmm20, xmm14	# tmp1180, vect_BL_959.369
	vpsrldq	xmm14, xmm14, 8	# tmp1187, vect_BL_959.369,
	vpmovzxbw	xmm4, xmm4	# vect_BL_959.369, tmp1176
# src/avx_analysis_code_ablations/opt9_abl_hand_vec_no_tile_ilp.cpp:182:                 float TR = p.SUB[ind_rtop + k];
	.loc 1 182 23 discriminator 69632 view .LVU817
	vcvtdq2ps	xmm19, xmm19	# vect_TR_963.374_607, tmp1178
# src/avx_analysis_code_ablations/opt9_abl_hand_vec_no_tile_ilp.cpp:183:                 float BL = p.SUB[ind_lbot + k];
	.loc 1 183 23 discriminator 69632 view .LVU818
	vcvtdq2ps	xmm20, xmm20	# vect_BL_959.368_642, tmp1180
# src/avx_analysis_code_ablations/opt9_abl_hand_vec_no_tile_ilp.cpp:185:                 vp[k] += p.A*TL + p.B*TR + p.C*BL + p.D*BR;
	.loc 1 185 47 discriminator 69632 view .LVU819
	vmulps	xmm20, xmm20, xmm13	# vect__948.370_635, vect_BL_959.368_642, _39
# src/avx_analysis_code_ablations/opt9_abl_hand_vec_no_tile_ilp.cpp:183:                 float BL = p.SUB[ind_lbot + k];
	.loc 1 183 23 discriminator 69632 view .LVU820
	vpmovsxwd	xmm14, xmm14	# tmp1186, tmp1187
# src/avx_analysis_code_ablations/opt9_abl_hand_vec_no_tile_ilp.cpp:182:                 float TR = p.SUB[ind_rtop + k];
	.loc 1 182 23 discriminator 69632 view .LVU821
	vpmovzxbw	xmm6, xmm6	# vect_TR_963.375, tmp1172
# src/avx_analysis_code_ablations/opt9_abl_hand_vec_no_tile_ilp.cpp:183:                 float BL = p.SUB[ind_lbot + k];
	.loc 1 183 23 discriminator 69632 view .LVU822
	vcvtdq2ps	xmm14, xmm14	# vect_BL_959.368_641, tmp1186
# src/avx_analysis_code_ablations/opt9_abl_hand_vec_no_tile_ilp.cpp:185:                 vp[k] += p.A*TL + p.B*TR + p.C*BL + p.D*BR;
	.loc 1 185 47 discriminator 69632 view .LVU823
	vmulps	xmm14, xmm14, xmm13	# vect__948.370_634, vect_BL_959.368_641, _39
# src/avx_analysis_code_ablations/opt9_abl_hand_vec_no_tile_ilp.cpp:182:                 float TR = p.SUB[ind_rtop + k];
	.loc 1 182 23 discriminator 69632 view .LVU824
	vpsrldq	xmm8, xmm8, 8	# tmp1184, vect_TR_963.375,
# src/avx_analysis_code_ablations/opt9_abl_hand_vec_no_tile_ilp.cpp:181:                 float TL = p.SUB[ind_ltop + k];
	.loc 1 181 23 discriminator 69632 view .LVU825
	vpmovzxbw	xmm7, xmm7	# vect_TL_967.387, tmp1168
.LVL132:
	.loc 1 182 17 is_stmt 1 view .LVU826
	.loc 1 183 17 view .LVU827
	vfmadd213ps	xmm22, xmm11, XMMWORD PTR [rcx]	# tmp1205, _1283, MEM <vector(4) float> [(float *)vectp_vp.378_582]
# src/avx_analysis_code_ablations/opt9_abl_hand_vec_no_tile_ilp.cpp:181:                 float TL = p.SUB[ind_ltop + k];
	.loc 1 181 23 is_stmt 0 discriminator 69632 view .LVU828
	vpsrldq	xmm9, xmm9, 8	# tmp1215, vect_TL_967.387,
# src/avx_analysis_code_ablations/opt9_abl_hand_vec_no_tile_ilp.cpp:182:                 float TR = p.SUB[ind_rtop + k];
	.loc 1 182 23 discriminator 69632 view .LVU829
	vpmovsxwd	xmm8, xmm8	# tmp1183, tmp1184
	vcvtdq2ps	xmm8, xmm8	# vect_TR_963.374_606, tmp1183
# src/avx_analysis_code_ablations/opt9_abl_hand_vec_no_tile_ilp.cpp:181:                 float TL = p.SUB[ind_ltop + k];
	.loc 1 181 23 discriminator 69632 view .LVU830
	vpmovsxwd	xmm9, xmm9	# tmp1214, tmp1215
	vcvtdq2ps	xmm9, xmm9	# vect_TL_967.386_539, tmp1214
	vfmadd213ps	xmm9, xmm11, XMMWORD PTR 16[rcx]	# tmp1212, _1283, MEM <vector(4) float> [(float *)vectp_vp.378_582 + 16B]
	vfmadd132ps	xmm19, xmm20, xmm12	# _611, vect__948.370_635, _1245
# src/avx_analysis_code_ablations/opt9_abl_hand_vec_no_tile_ilp.cpp:183:                 float BL = p.SUB[ind_lbot + k];
	.loc 1 183 23 discriminator 69632 view .LVU831
	vpmovsxwd	xmm20, xmm4	# tmp1192, vect_BL_959.369
	vpsrldq	xmm4, xmm4, 8	# tmp1199, vect_BL_959.369,
	vfmadd132ps	xmm8, xmm14, xmm12	# _502, vect__948.370_634, _1245
	vcvtdq2ps	xmm20, xmm20	# vect_BL_959.368_639, tmp1192
# src/avx_analysis_code_ablations/opt9_abl_hand_vec_no_tile_ilp.cpp:182:                 float TR = p.SUB[ind_rtop + k];
	.loc 1 182 23 discriminator 69632 view .LVU832
	vpmovsxwd	xmm14, xmm6	# tmp1190, vect_TR_963.375
# src/avx_analysis_code_ablations/opt9_abl_hand_vec_no_tile_ilp.cpp:185:                 vp[k] += p.A*TL + p.B*TR + p.C*BL + p.D*BR;
	.loc 1 185 47 discriminator 69632 view .LVU833
	vmulps	xmm20, xmm20, xmm13	# vect__948.370_633, vect_BL_959.368_639, _39
# src/avx_analysis_code_ablations/opt9_abl_hand_vec_no_tile_ilp.cpp:182:                 float TR = p.SUB[ind_rtop + k];
	.loc 1 182 23 discriminator 69632 view .LVU834
	vpsrldq	xmm6, xmm6, 8	# tmp1196, vect_TR_963.375,
# src/avx_analysis_code_ablations/opt9_abl_hand_vec_no_tile_ilp.cpp:183:                 float BL = p.SUB[ind_lbot + k];
	.loc 1 183 23 discriminator 69632 view .LVU835
	vpmovsxwd	xmm4, xmm4	# tmp1198, tmp1199
# src/avx_analysis_code_ablations/opt9_abl_hand_vec_no_tile_ilp.cpp:182:                 float TR = p.SUB[ind_rtop + k];
	.loc 1 182 23 discriminator 69632 view .LVU836
	vcvtdq2ps	xmm14, xmm14	# vect_TR_963.374_605, tmp1190
# src/avx_analysis_code_ablations/opt9_abl_hand_vec_no_tile_ilp.cpp:183:                 float BL = p.SUB[ind_lbot + k];
	.loc 1 183 23 discriminator 69632 view .LVU837
	vcvtdq2ps	xmm4, xmm4	# vect_BL_959.368_637, tmp1198
# src/avx_analysis_code_ablations/opt9_abl_hand_vec_no_tile_ilp.cpp:185:                 vp[k] += p.A*TL + p.B*TR + p.C*BL + p.D*BR;
	.loc 1 185 47 discriminator 69632 view .LVU838
	vmulps	xmm4, xmm4, xmm13	# vect__948.370_632, vect_BL_959.368_637, _39
# src/avx_analysis_code_ablations/opt9_abl_hand_vec_no_tile_ilp.cpp:182:                 float TR = p.SUB[ind_rtop + k];
	.loc 1 182 23 discriminator 69632 view .LVU839
	vpmovsxwd	xmm6, xmm6	# tmp1195, tmp1196
	vcvtdq2ps	xmm6, xmm6	# vect_TR_963.374_603, tmp1195
	vfmadd132ps	xmm14, xmm20, xmm12	# _1197, vect__948.370_633, _1245
	vfmadd132ps	xmm6, xmm4, xmm12	# _1163, vect__948.370_632, _1245
.LVL133:
	.loc 1 184 17 is_stmt 1 view .LVU840
# src/avx_analysis_code_ablations/opt9_abl_hand_vec_no_tile_ilp.cpp:184:                 float BR = p.SUB[ind_rbot + k];
	.loc 1 184 46 is_stmt 0 discriminator 69632 view .LVU841
	vmovdqu	xmm4, XMMWORD PTR [rdi+rbx]	# MEM <const vector(16) unsigned char> [(const unsigned char *)vectp.360_730], MEM <const vector(16) unsigned char> [(const unsigned char *)vectp.360_730]
# src/avx_analysis_code_ablations/opt9_abl_hand_vec_no_tile_ilp.cpp:184:                 float BR = p.SUB[ind_rbot + k];
	.loc 1 184 23 discriminator 69632 view .LVU842
	vpmovzxbw	xmm21, xmm4	# vect_BR_955.363, MEM <const vector(16) unsigned char> [(const unsigned char *)vectp.360_730]
	vpsrldq	xmm4, xmm4, 8	# tmp1202, MEM <const vector(16) unsigned char> [(const unsigned char *)vectp.360_730],
	vpmovsxwd	xmm20, xmm21	# tmp1204, vect_BR_955.363
	vpsrldq	xmm21, xmm21, 8	# tmp1211, vect_BR_955.363,
	vpmovzxbw	xmm4, xmm4	# vect_BR_955.363, tmp1202
.LVL134:
	.loc 1 185 17 is_stmt 1 view .LVU843
# src/avx_analysis_code_ablations/opt9_abl_hand_vec_no_tile_ilp.cpp:184:                 float BR = p.SUB[ind_rbot + k];
	.loc 1 184 23 is_stmt 0 discriminator 69632 view .LVU844
	vcvtdq2ps	xmm20, xmm20	# vect_BR_955.362_683, tmp1204
	vfmadd132ps	xmm20, xmm22, xmm10	# _706, tmp1205, _174
# src/avx_analysis_code_ablations/opt9_abl_hand_vec_no_tile_ilp.cpp:181:                 float TL = p.SUB[ind_ltop + k];
	.loc 1 181 23 discriminator 69632 view .LVU845
	vpmovsxwd	xmm22, xmm7	# tmp1221, vect_TL_967.387
# src/avx_analysis_code_ablations/opt9_abl_hand_vec_no_tile_ilp.cpp:184:                 float BR = p.SUB[ind_rbot + k];
	.loc 1 184 23 discriminator 69632 view .LVU846
	vpmovsxwd	xmm21, xmm21	# tmp1210, tmp1211
# src/avx_analysis_code_ablations/opt9_abl_hand_vec_no_tile_ilp.cpp:181:                 float TL = p.SUB[ind_ltop + k];
	.loc 1 181 23 discriminator 69632 view .LVU847
	vpsrldq	xmm7, xmm7, 8	# tmp1230, vect_TL_967.387,
	vcvtdq2ps	xmm22, xmm22	# vect_TL_967.386_537, tmp1221
	vfmadd213ps	xmm22, xmm11, XMMWORD PTR 32[rcx]	# tmp1219, _1283, MEM <vector(4) float> [(float *)vectp_vp.378_582 + 32B]
# src/avx_analysis_code_ablations/opt9_abl_hand_vec_no_tile_ilp.cpp:184:                 float BR = p.SUB[ind_rbot + k];
	.loc 1 184 23 discriminator 69632 view .LVU848
	vcvtdq2ps	xmm21, xmm21	# vect_BR_955.362_682, tmp1210
# src/avx_analysis_code_ablations/opt9_abl_hand_vec_no_tile_ilp.cpp:181:                 float TL = p.SUB[ind_ltop + k];
	.loc 1 181 23 discriminator 69632 view .LVU849
	vpmovsxwd	xmm7, xmm7	# tmp1229, tmp1230
	vfmadd132ps	xmm21, xmm9, xmm10	# _519, tmp1212, _174
# src/avx_analysis_code_ablations/opt9_abl_hand_vec_no_tile_ilp.cpp:184:                 float BR = p.SUB[ind_rbot + k];
	.loc 1 184 23 discriminator 69632 view .LVU850
	vpmovsxwd	xmm9, xmm4	# tmp1218, vect_BR_955.363
# src/avx_analysis_code_ablations/opt9_abl_hand_vec_no_tile_ilp.cpp:181:                 float TL = p.SUB[ind_ltop + k];
	.loc 1 181 23 discriminator 69632 view .LVU851
	vcvtdq2ps	xmm7, xmm7	# vect_TL_967.386_536, tmp1229
# src/avx_analysis_code_ablations/opt9_abl_hand_vec_no_tile_ilp.cpp:185:                 vp[k] += p.A*TL + p.B*TR + p.C*BL + p.D*BR;
	.loc 1 185 23 discriminator 69632 view .LVU852
	vfmadd213ps	xmm7, xmm11, XMMWORD PTR 48[rcx]	# tmp1227, _1283, MEM <vector(4) float> [(float *)vectp_vp.378_582 + 48B]
# src/avx_analysis_code_ablations/opt9_abl_hand_vec_no_tile_ilp.cpp:184:                 float BR = p.SUB[ind_rbot + k];
	.loc 1 184 23 discriminator 69632 view .LVU853
	vpsrldq	xmm4, xmm4, 8	# tmp1226, vect_BR_955.363,
	vcvtdq2ps	xmm9, xmm9	# vect_BR_955.362_681, tmp1218
	vpmovsxwd	xmm4, xmm4	# tmp1225, tmp1226
	vcvtdq2ps	xmm4, xmm4	# vect_BR_955.362_678, tmp1225
# src/avx_analysis_code_ablations/opt9_abl_hand_vec_no_tile_ilp.cpp:185:                 vp[k] += p.A*TL + p.B*TR + p.C*BL + p.D*BR;
	.loc 1 185 23 discriminator 69632 view .LVU854
	vaddps	xmm19, xmm19, xmm20	# vect__944.392_466, _611, _706
	vfmadd132ps	xmm9, xmm22, xmm10	# _1218, tmp1219, _174
	vaddps	xmm8, xmm8, xmm21	# vect__944.392_463, _502, _519
	vfmadd132ps	xmm4, xmm7, xmm10	# tmp1223, tmp1227, _174
	vmovups	XMMWORD PTR [rcx], xmm19	# MEM <vector(4) float> [(float *)vectp_vp.378_582], vect__944.392_466
	.loc 1 185 23 discriminator 69632 view .LVU855
	vmovups	XMMWORD PTR 16[rcx], xmm8	# MEM <vector(4) float> [(float *)vectp_vp.378_582 + 16B], vect__944.392_463
	vaddps	xmm14, xmm14, xmm9	# vect__944.392_462, _1197, _1218
	vaddps	xmm4, xmm4, xmm6	# vect__944.392, tmp1223, _1163
	vmovups	XMMWORD PTR 32[rcx], xmm14	# MEM <vector(4) float> [(float *)vectp_vp.378_582 + 32B], vect__944.392_462
	vmovups	XMMWORD PTR 48[rcx], xmm4	# MEM <vector(4) float> [(float *)vectp_vp.378_582 + 48B], vect__944.392
.LBE3118:
	.loc 1 180 13 is_stmt 1 discriminator 1 view .LVU856
	.loc 1 180 31 discriminator 2 view .LVU857
	mov	ecx, r9d	# niters_vector_mult_vf.357, niters.355
	and	ecx, -16	# niters_vector_mult_vf.357,
	test	r9b, 15	# niters.355,
	je	.L45	#,
	add	eax, ecx	# tmp.318, niters_vector_mult_vf.357
.LVL135:
.L51:
	.loc 1 180 31 is_stmt 0 discriminator 2 view .LVU858
	sub	r9d, ecx	# niters.395, niters_vector_mult_vf.357
	lea	r11d, -1[r9]	# _196,
	cmp	r11d, 6	# _196,
	jbe	.L46	#,
	add	ecx, r15d	# _163, niters_vector_mult_vf.317
	mov	rbx, QWORD PTR 208[rsp]	# ind_rbot, %sfp
.LBB3119:
# src/avx_analysis_code_ablations/opt9_abl_hand_vec_no_tile_ilp.cpp:181:                 float TL = p.SUB[ind_ltop + k];
	.loc 1 181 46 discriminator 133120 view .LVU859
	mov	r15, QWORD PTR 216[rsp]	# ind_ltop, %sfp
	mov	ecx, ecx	# _163, _163
	lea	r12, [rcx+rbx]	# _162,
	lea	rbx, [rdx+rcx*4]	# vectp_vp.421,
	.loc 1 181 17 is_stmt 1 view .LVU860
# src/avx_analysis_code_ablations/opt9_abl_hand_vec_no_tile_ilp.cpp:181:                 float TL = p.SUB[ind_ltop + k];
	.loc 1 181 46 is_stmt 0 discriminator 133120 view .LVU861
	add	rcx, rdi	# tmp1244, _114
	vmovq	xmm4, QWORD PTR [rcx+r15]	# MEM <const vector(8) unsigned char> [(const unsigned char *)vectp.427_1287], MEM <const vector(8) unsigned char> [(const unsigned char *)vectp.427_1287]
# src/avx_analysis_code_ablations/opt9_abl_hand_vec_no_tile_ilp.cpp:181:                 float TL = p.SUB[ind_ltop + k];
	.loc 1 181 23 discriminator 133120 view .LVU862
	vpmovzxbw	xmm7, xmm4	# vect_TL_812.430, MEM <const vector(8) unsigned char> [(const unsigned char *)vectp.427_1287]
	vpsrlq	xmm4, xmm4, 32	# tmp1247, MEM <const vector(8) unsigned char> [(const unsigned char *)vectp.427_1287],
	vpmovzxbw	xmm6, xmm4	# vect_TL_812.430, tmp1247
# src/avx_analysis_code_ablations/opt9_abl_hand_vec_no_tile_ilp.cpp:182:                 float TR = p.SUB[ind_rtop + k];
	.loc 1 182 46 discriminator 133120 view .LVU863
	vmovq	xmm4, QWORD PTR [rcx+r8]	# MEM <const vector(8) unsigned char> [(const unsigned char *)vectp.414_1249], MEM <const vector(8) unsigned char> [(const unsigned char *)vectp.414_1249]
# src/avx_analysis_code_ablations/opt9_abl_hand_vec_no_tile_ilp.cpp:181:                 float TL = p.SUB[ind_ltop + k];
	.loc 1 181 23 discriminator 133120 view .LVU864
	vmovq	r11, xmm6	# vect_TL_812.430, vect_TL_812.430
.LVL136:
	.loc 1 182 17 is_stmt 1 view .LVU865
# src/avx_analysis_code_ablations/opt9_abl_hand_vec_no_tile_ilp.cpp:183:                 float BL = p.SUB[ind_lbot + k];
	.loc 1 183 46 is_stmt 0 discriminator 133120 view .LVU866
	vmovq	xmm6, QWORD PTR [rcx+rsi]	# MEM <const vector(8) unsigned char> [(const unsigned char *)vectp.407_108], MEM <const vector(8) unsigned char> [(const unsigned char *)vectp.407_108]
	mov	ecx, r9d	# niters_vector_mult_vf.397, niters.395
# src/avx_analysis_code_ablations/opt9_abl_hand_vec_no_tile_ilp.cpp:182:                 float TR = p.SUB[ind_rtop + k];
	.loc 1 182 23 discriminator 133120 view .LVU867
	vpmovzxbw	xmm9, xmm4	# vect_TR_808.417, MEM <const vector(8) unsigned char> [(const unsigned char *)vectp.414_1249]
	vpsrlq	xmm4, xmm4, 32	# tmp1251, MEM <const vector(8) unsigned char> [(const unsigned char *)vectp.414_1249],
	and	ecx, -8	# niters_vector_mult_vf.397,
	and	r9d, 7	# niters.395,
	vpmovzxwd	xmm14, xmm9	# vect_TR_808.416_1258, vect_TR_808.417
# src/avx_analysis_code_ablations/opt9_abl_hand_vec_no_tile_ilp.cpp:183:                 float BL = p.SUB[ind_lbot + k];
	.loc 1 183 23 discriminator 133120 view .LVU868
	vpmovzxbw	xmm8, xmm6	# vect_BL_804.410, MEM <const vector(8) unsigned char> [(const unsigned char *)vectp.407_108]
# src/avx_analysis_code_ablations/opt9_abl_hand_vec_no_tile_ilp.cpp:182:                 float TR = p.SUB[ind_rtop + k];
	.loc 1 182 23 discriminator 133120 view .LVU869
	vpmovzxbw	xmm4, xmm4	# vect_TR_808.417, tmp1251
.LVL137:
	.loc 1 183 17 is_stmt 1 view .LVU870
# src/avx_analysis_code_ablations/opt9_abl_hand_vec_no_tile_ilp.cpp:182:                 float TR = p.SUB[ind_rtop + k];
	.loc 1 182 23 is_stmt 0 discriminator 133120 view .LVU871
	vpsrlq	xmm9, xmm9, 32	# tmp1273, vect_TR_808.417,
# src/avx_analysis_code_ablations/opt9_abl_hand_vec_no_tile_ilp.cpp:183:                 float BL = p.SUB[ind_lbot + k];
	.loc 1 183 23 discriminator 133120 view .LVU872
	vpsrlq	xmm6, xmm6, 32	# tmp1255, MEM <const vector(8) unsigned char> [(const unsigned char *)vectp.407_108],
# src/avx_analysis_code_ablations/opt9_abl_hand_vec_no_tile_ilp.cpp:182:                 float TR = p.SUB[ind_rtop + k];
	.loc 1 182 23 discriminator 133120 view .LVU873
	vmovq	xmm14, xmm14	# tmp1258, vect_TR_808.416_1258
	vcvtdq2ps	xmm20, xmm14	# tmp1259, tmp1258
# src/avx_analysis_code_ablations/opt9_abl_hand_vec_no_tile_ilp.cpp:183:                 float BL = p.SUB[ind_lbot + k];
	.loc 1 183 23 discriminator 133120 view .LVU874
	vpmovzxwd	xmm14, xmm8	# vect_BL_804.409_1233, vect_BL_804.410
	vpsrlq	xmm8, xmm8, 32	# tmp1278, vect_BL_804.410,
# src/avx_analysis_code_ablations/opt9_abl_hand_vec_no_tile_ilp.cpp:182:                 float TR = p.SUB[ind_rtop + k];
	.loc 1 182 23 discriminator 133120 view .LVU875
	vpmovzxwd	xmm9, xmm9	# vect_TR_808.416_1259, tmp1273
# src/avx_analysis_code_ablations/opt9_abl_hand_vec_no_tile_ilp.cpp:183:                 float BL = p.SUB[ind_lbot + k];
	.loc 1 183 23 discriminator 133120 view .LVU876
	vpmovzxwd	xmm8, xmm8	# vect_BL_804.409_1234, tmp1278
# src/avx_analysis_code_ablations/opt9_abl_hand_vec_no_tile_ilp.cpp:182:                 float TR = p.SUB[ind_rtop + k];
	.loc 1 182 23 discriminator 133120 view .LVU877
	vmovq	xmm9, xmm9	# tmp1275, vect_TR_808.416_1259
# src/avx_analysis_code_ablations/opt9_abl_hand_vec_no_tile_ilp.cpp:183:                 float BL = p.SUB[ind_lbot + k];
	.loc 1 183 23 discriminator 133120 view .LVU878
	vpmovzxbw	xmm6, xmm6	# vect_BL_804.410, tmp1255
	vmovq	xmm8, xmm8	# tmp1280, vect_BL_804.409_1234
# src/avx_analysis_code_ablations/opt9_abl_hand_vec_no_tile_ilp.cpp:182:                 float TR = p.SUB[ind_rtop + k];
	.loc 1 182 23 discriminator 133120 view .LVU879
	vcvtdq2ps	xmm9, xmm9	# tmp1276, tmp1275
# src/avx_analysis_code_ablations/opt9_abl_hand_vec_no_tile_ilp.cpp:183:                 float BL = p.SUB[ind_lbot + k];
	.loc 1 183 23 discriminator 133120 view .LVU880
	vmovq	xmm19, xmm14	# tmp1262, vect_BL_804.409_1233
	vcvtdq2ps	xmm8, xmm8	# tmp1281, tmp1280
# src/avx_analysis_code_ablations/opt9_abl_hand_vec_no_tile_ilp.cpp:185:                 vp[k] += p.A*TL + p.B*TR + p.C*BL + p.D*BR;
	.loc 1 185 47 discriminator 133120 view .LVU881
	vmulps	xmm8, xmm8, xmm13	# tmp1285, tmp1281, _39
# src/avx_analysis_code_ablations/opt9_abl_hand_vec_no_tile_ilp.cpp:183:                 float BL = p.SUB[ind_lbot + k];
	.loc 1 183 23 discriminator 133120 view .LVU882
	vcvtdq2ps	xmm19, xmm19	# tmp1263, tmp1262
# src/avx_analysis_code_ablations/opt9_abl_hand_vec_no_tile_ilp.cpp:185:                 vp[k] += p.A*TL + p.B*TR + p.C*BL + p.D*BR;
	.loc 1 185 47 discriminator 133120 view .LVU883
	vmulps	xmm19, xmm19, xmm13	# tmp1267, tmp1263, _39
	vfmadd132ps	xmm9, xmm8, xmm12	# tmp1276, tmp1285, _1245
# src/avx_analysis_code_ablations/opt9_abl_hand_vec_no_tile_ilp.cpp:182:                 float TR = p.SUB[ind_rtop + k];
	.loc 1 182 23 discriminator 133120 view .LVU884
	vpmovzxwd	xmm8, xmm4	# vect_TR_808.416_1260, vect_TR_808.417
	vmovq	xmm8, xmm8	# tmp1292, vect_TR_808.416_1260
	vfmadd231ps	xmm19, xmm12, xmm20	# tmp1271, _1245, tmp1259
	vcvtdq2ps	xmm14, xmm8	# tmp1293, tmp1292
	vmovaps	xmm21, xmm9	# tmp1289, tmp1276
# src/avx_analysis_code_ablations/opt9_abl_hand_vec_no_tile_ilp.cpp:183:                 float BL = p.SUB[ind_lbot + k];
	.loc 1 183 23 discriminator 133120 view .LVU885
	vpmovzxwd	xmm9, xmm6	# vect_BL_804.409_1235, vect_BL_804.410
	vmovq	xmm9, xmm9	# tmp1296, vect_BL_804.409_1235
	vpsrlq	xmm6, xmm6, 32	# tmp1312, vect_BL_804.410,
	vcvtdq2ps	xmm9, xmm9	# tmp1297, tmp1296
# src/avx_analysis_code_ablations/opt9_abl_hand_vec_no_tile_ilp.cpp:185:                 vp[k] += p.A*TL + p.B*TR + p.C*BL + p.D*BR;
	.loc 1 185 47 discriminator 133120 view .LVU886
	vmulps	xmm9, xmm9, xmm13	# tmp1301, tmp1297, _39
# src/avx_analysis_code_ablations/opt9_abl_hand_vec_no_tile_ilp.cpp:183:                 float BL = p.SUB[ind_lbot + k];
	.loc 1 183 23 discriminator 133120 view .LVU887
	vpmovzxwd	xmm6, xmm6	# vect_BL_804.409_1236, tmp1312
	vmovq	xmm6, xmm6	# tmp1314, vect_BL_804.409_1236
	vcvtdq2ps	xmm6, xmm6	# tmp1315, tmp1314
# src/avx_analysis_code_ablations/opt9_abl_hand_vec_no_tile_ilp.cpp:185:                 vp[k] += p.A*TL + p.B*TR + p.C*BL + p.D*BR;
	.loc 1 185 47 discriminator 133120 view .LVU888
	vmulps	xmm6, xmm6, xmm13	# tmp1319, tmp1315, _39
	vfmadd132ps	xmm14, xmm9, xmm12	# tmp1293, tmp1301, _1245
# src/avx_analysis_code_ablations/opt9_abl_hand_vec_no_tile_ilp.cpp:185:                 vp[k] += p.A*TL + p.B*TR + p.C*BL + p.D*BR;
	.loc 1 185 21 discriminator 133120 view .LVU889
	vmovq	xmm9, QWORD PTR [rbx]	# vect__797.422_1276, MEM <vector(2) float> [(float *)vectp_vp.421_1270]
	vmovaps	xmm22, xmm14	# tmp1305, tmp1293
# src/avx_analysis_code_ablations/opt9_abl_hand_vec_no_tile_ilp.cpp:182:                 float TR = p.SUB[ind_rtop + k];
	.loc 1 182 23 discriminator 133120 view .LVU890
	vpsrlq	xmm14, xmm4, 32	# tmp1307, vect_TR_808.417,
# src/avx_analysis_code_ablations/opt9_abl_hand_vec_no_tile_ilp.cpp:184:                 float BR = p.SUB[ind_rbot + k];
	.loc 1 184 46 discriminator 133120 view .LVU891
	vmovq	xmm4, QWORD PTR [rdi+r12]	# MEM <const vector(8) unsigned char> [(const unsigned char *)vectp.400_165], MEM <const vector(8) unsigned char> [(const unsigned char *)vectp.400_165]
# src/avx_analysis_code_ablations/opt9_abl_hand_vec_no_tile_ilp.cpp:182:                 float TR = p.SUB[ind_rtop + k];
	.loc 1 182 23 discriminator 133120 view .LVU892
	vpmovzxwd	xmm14, xmm14	# vect_TR_808.416_1261, tmp1307
	vmovq	xmm14, xmm14	# tmp1309, vect_TR_808.416_1261
	vcvtdq2ps	xmm14, xmm14	# tmp1310, tmp1309
	vfmadd132ps	xmm14, xmm6, xmm12	# tmp1323, tmp1319, _1245
.LVL138:
	.loc 1 184 17 is_stmt 1 view .LVU893
# src/avx_analysis_code_ablations/opt9_abl_hand_vec_no_tile_ilp.cpp:184:                 float BR = p.SUB[ind_rbot + k];
	.loc 1 184 23 is_stmt 0 discriminator 133120 view .LVU894
	vpmovzxbw	xmm6, xmm4	# vect_BR_800.403, MEM <const vector(8) unsigned char> [(const unsigned char *)vectp.400_165]
	vpmovzxwd	xmm8, xmm6	# vect_BR_800.402_138, vect_BR_800.403
	vpsrlq	xmm6, xmm6, 32	# tmp1345, vect_BR_800.403,
	vmovq	xmm8, xmm8	# tmp1328, vect_BR_800.402_138
	vpsrlq	xmm4, xmm4, 32	# tmp1325, MEM <const vector(8) unsigned char> [(const unsigned char *)vectp.400_165],
	vpmovzxwd	xmm6, xmm6	# vect_BR_800.402_136, tmp1345
	vcvtdq2ps	xmm20, xmm8	# tmp1329, tmp1328
# src/avx_analysis_code_ablations/opt9_abl_hand_vec_no_tile_ilp.cpp:181:                 float TL = p.SUB[ind_ltop + k];
	.loc 1 181 23 discriminator 133120 view .LVU895
	vpmovzxwd	xmm8, xmm7	# vect_TL_812.429_1296, vect_TL_812.430
	vpsrlq	xmm7, xmm7, 32	# tmp1351, vect_TL_812.430,
# src/avx_analysis_code_ablations/opt9_abl_hand_vec_no_tile_ilp.cpp:184:                 float BR = p.SUB[ind_rbot + k];
	.loc 1 184 23 discriminator 133120 view .LVU896
	vpmovzxbw	xmm4, xmm4	# vect_BR_800.403, tmp1325
.LVL139:
	.loc 1 185 17 is_stmt 1 view .LVU897
# src/avx_analysis_code_ablations/opt9_abl_hand_vec_no_tile_ilp.cpp:181:                 float TL = p.SUB[ind_ltop + k];
	.loc 1 181 23 is_stmt 0 discriminator 133120 view .LVU898
	vmovq	xmm8, xmm8	# tmp1333, vect_TL_812.429_1296
	vpmovzxwd	xmm7, xmm7	# vect_TL_812.429_1297, tmp1351
# src/avx_analysis_code_ablations/opt9_abl_hand_vec_no_tile_ilp.cpp:184:                 float BR = p.SUB[ind_rbot + k];
	.loc 1 184 23 discriminator 133120 view .LVU899
	vmovq	xmm6, xmm6	# tmp1347, vect_BR_800.402_136
# src/avx_analysis_code_ablations/opt9_abl_hand_vec_no_tile_ilp.cpp:181:                 float TL = p.SUB[ind_ltop + k];
	.loc 1 181 23 discriminator 133120 view .LVU900
	vcvtdq2ps	xmm8, xmm8	# tmp1334, tmp1333
	vfmadd231ps	xmm9, xmm11, xmm8	# tmp1339, _1283, tmp1334
# src/avx_analysis_code_ablations/opt9_abl_hand_vec_no_tile_ilp.cpp:185:                 vp[k] += p.A*TL + p.B*TR + p.C*BL + p.D*BR;
	.loc 1 185 21 discriminator 133120 view .LVU901
	vmovq	xmm8, QWORD PTR 8[rbx]	# vect__797.423_1278, MEM <vector(2) float> [(float *)vectp_vp.421_1270 + 8B]
# src/avx_analysis_code_ablations/opt9_abl_hand_vec_no_tile_ilp.cpp:181:                 float TL = p.SUB[ind_ltop + k];
	.loc 1 181 23 discriminator 133120 view .LVU902
	vmovq	xmm7, xmm7	# tmp1353, vect_TL_812.429_1297
# src/avx_analysis_code_ablations/opt9_abl_hand_vec_no_tile_ilp.cpp:184:                 float BR = p.SUB[ind_rbot + k];
	.loc 1 184 23 discriminator 133120 view .LVU903
	vcvtdq2ps	xmm6, xmm6	# tmp1348, tmp1347
# src/avx_analysis_code_ablations/opt9_abl_hand_vec_no_tile_ilp.cpp:181:                 float TL = p.SUB[ind_ltop + k];
	.loc 1 181 23 discriminator 133120 view .LVU904
	vcvtdq2ps	xmm7, xmm7	# tmp1354, tmp1353
	vfmadd132ps	xmm7, xmm8, xmm11	# tmp1359, vect__797.423_1278, _1283
	vmovq	xmm8, r11	# vect_TL_812.430, vect_TL_812.430
	vpmovzxwd	xmm8, xmm8	# vect_TL_812.429_1298, vect_TL_812.430
	vmovq	xmm8, xmm8	# tmp1371, vect_TL_812.429_1298
	vfmadd132ps	xmm20, xmm9, xmm10	# tmp1343, tmp1339, _174
# src/avx_analysis_code_ablations/opt9_abl_hand_vec_no_tile_ilp.cpp:185:                 vp[k] += p.A*TL + p.B*TR + p.C*BL + p.D*BR;
	.loc 1 185 21 discriminator 133120 view .LVU905
	vmovq	xmm9, QWORD PTR 16[rbx]	# vect__797.424_1280, MEM <vector(2) float> [(float *)vectp_vp.421_1270 + 16B]
# src/avx_analysis_code_ablations/opt9_abl_hand_vec_no_tile_ilp.cpp:181:                 float TL = p.SUB[ind_ltop + k];
	.loc 1 181 23 discriminator 133120 view .LVU906
	vcvtdq2ps	xmm8, xmm8	# tmp1372, tmp1371
	vfmadd132ps	xmm8, xmm9, xmm11	# tmp1377, vect__797.424_1280, _1283
	vfmadd132ps	xmm6, xmm7, xmm10	# tmp1363, tmp1359, _174
# src/avx_analysis_code_ablations/opt9_abl_hand_vec_no_tile_ilp.cpp:184:                 float BR = p.SUB[ind_rbot + k];
	.loc 1 184 23 discriminator 133120 view .LVU907
	vpmovzxwd	xmm7, xmm4	# vect_BR_800.402_135, vect_BR_800.403
# src/avx_analysis_code_ablations/opt9_abl_hand_vec_no_tile_ilp.cpp:185:                 vp[k] += p.A*TL + p.B*TR + p.C*BL + p.D*BR;
	.loc 1 185 21 discriminator 133120 view .LVU908
	vmovq	xmm9, QWORD PTR 24[rbx]	# vect__797.425_1282, MEM <vector(2) float> [(float *)vectp_vp.421_1270 + 24B]
# src/avx_analysis_code_ablations/opt9_abl_hand_vec_no_tile_ilp.cpp:184:                 float BR = p.SUB[ind_rbot + k];
	.loc 1 184 23 discriminator 133120 view .LVU909
	vmovq	xmm7, xmm7	# tmp1366, vect_BR_800.402_135
	vpsrlq	xmm4, xmm4, 32	# tmp1384, vect_BR_800.403,
	vcvtdq2ps	xmm7, xmm7	# tmp1367, tmp1366
	vpmovzxwd	xmm4, xmm4	# vect_BR_800.402_133, tmp1384
	vmovq	xmm4, xmm4	# tmp1386, vect_BR_800.402_133
	vcvtdq2ps	xmm4, xmm4	# tmp1387, tmp1386
	vfmadd132ps	xmm7, xmm8, xmm10	# tmp1381, tmp1377, _174
# src/avx_analysis_code_ablations/opt9_abl_hand_vec_no_tile_ilp.cpp:181:                 float TL = p.SUB[ind_ltop + k];
	.loc 1 181 23 discriminator 133120 view .LVU910
	vmovq	xmm8, r11	# tmp1948, vect_TL_812.430
# src/avx_analysis_code_ablations/opt9_abl_hand_vec_no_tile_ilp.cpp:185:                 vp[k] += p.A*TL + p.B*TR + p.C*BL + p.D*BR;
	.loc 1 185 23 discriminator 133120 view .LVU911
	vaddps	xmm6, xmm21, xmm6	# tmp1413, tmp1289, tmp1363
# src/avx_analysis_code_ablations/opt9_abl_hand_vec_no_tile_ilp.cpp:181:                 float TL = p.SUB[ind_ltop + k];
	.loc 1 181 23 discriminator 133120 view .LVU912
	vpsrlq	xmm8, xmm8, 32	# tmp1390, tmp1948,
	vpmovzxwd	xmm8, xmm8	# vect_TL_812.429_1299, tmp1390
	vmovq	xmm8, xmm8	# tmp1392, vect_TL_812.429_1299
# src/avx_analysis_code_ablations/opt9_abl_hand_vec_no_tile_ilp.cpp:185:                 vp[k] += p.A*TL + p.B*TR + p.C*BL + p.D*BR;
	.loc 1 185 23 discriminator 133120 view .LVU913
	vmovlps	QWORD PTR 8[rbx], xmm6	# MEM <vector(2) float> [(float *)vectp_vp.421_1270 + 8B], tmp1413
# src/avx_analysis_code_ablations/opt9_abl_hand_vec_no_tile_ilp.cpp:181:                 float TL = p.SUB[ind_ltop + k];
	.loc 1 181 23 discriminator 133120 view .LVU914
	vcvtdq2ps	xmm8, xmm8	# tmp1393, tmp1392
# src/avx_analysis_code_ablations/opt9_abl_hand_vec_no_tile_ilp.cpp:185:                 vp[k] += p.A*TL + p.B*TR + p.C*BL + p.D*BR;
	.loc 1 185 23 discriminator 133120 view .LVU915
	vfmadd132ps	xmm8, xmm9, xmm11	# tmp1398, vect__797.425_1282, _1283
	vaddps	xmm6, xmm22, xmm7	# tmp1417, tmp1305, tmp1381
	vmovlps	QWORD PTR 16[rbx], xmm6	# MEM <vector(2) float> [(float *)vectp_vp.421_1270 + 16B], tmp1417
	vfmadd132ps	xmm4, xmm8, xmm10	# tmp1402, tmp1398, _174
	vaddps	xmm8, xmm19, xmm20	# tmp1409, tmp1271, tmp1343
	vmovlps	QWORD PTR [rbx], xmm8	# MEM <vector(2) float> [(float *)vectp_vp.421_1270], tmp1409
	vaddps	xmm4, xmm4, xmm14	# tmp1405, tmp1402, tmp1323
	vmovlps	QWORD PTR 24[rbx], xmm4	# MEM <vector(2) float> [(float *)vectp_vp.421_1270 + 24B], tmp1405
.LBE3119:
	.loc 1 180 13 is_stmt 1 discriminator 1 view .LVU916
	.loc 1 180 31 discriminator 2 view .LVU917
	je	.L45	#,
	add	eax, ecx	# tmp.318, niters_vector_mult_vf.397
.LVL140:
.L46:
.LBB3120:
	.loc 1 181 17 view .LVU918
# src/avx_analysis_code_ablations/opt9_abl_hand_vec_no_tile_ilp.cpp:181:                 float TL = p.SUB[ind_ltop + k];
	.loc 1 181 45 is_stmt 0 discriminator 163840 view .LVU919
	movsxd	rcx, eax	# _367, tmp.318
.LVL141:
	.loc 1 182 17 is_stmt 1 view .LVU920
	.loc 1 183 17 view .LVU921
	.loc 1 184 17 view .LVU922
	.loc 1 185 17 view .LVU923
# src/avx_analysis_code_ablations/opt9_abl_hand_vec_no_tile_ilp.cpp:181:                 float TL = p.SUB[ind_ltop + k];
	.loc 1 181 23 is_stmt 0 discriminator 163840 view .LVU924
	mov	r15, QWORD PTR 216[rsp]	# ind_ltop, %sfp
# src/avx_analysis_code_ablations/opt9_abl_hand_vec_no_tile_ilp.cpp:185:                 vp[k] += p.A*TL + p.B*TR + p.C*BL + p.D*BR;
	.loc 1 185 21 discriminator 163840 view .LVU925
	lea	r9, 0[0+rcx*4]	# _124,
# src/avx_analysis_code_ablations/opt9_abl_hand_vec_no_tile_ilp.cpp:181:                 float TL = p.SUB[ind_ltop + k];
	.loc 1 181 46 discriminator 163840 view .LVU926
	add	rcx, rdi	# tmp1419, _114
.LVL142:
# src/avx_analysis_code_ablations/opt9_abl_hand_vec_no_tile_ilp.cpp:181:                 float TL = p.SUB[ind_ltop + k];
	.loc 1 181 23 discriminator 163840 view .LVU927
	movzx	ebx, BYTE PTR [rcx+r15]	# *_1017, *_1017
	vcvtusi2ss	xmm4, xmm5, ebx	# tmp1647, tmp1646, *_1017
# src/avx_analysis_code_ablations/opt9_abl_hand_vec_no_tile_ilp.cpp:182:                 float TR = p.SUB[ind_rtop + k];
	.loc 1 182 23 discriminator 163840 view .LVU928
	movzx	ebx, BYTE PTR [rcx+r8]	# *_115, *_115
	vmovaps	xmm7, xmm4	# TL_1068, TL_1068
	vcvtusi2ss	xmm4, xmm5, ebx	# tmp1648, tmp1646, *_115
# src/avx_analysis_code_ablations/opt9_abl_hand_vec_no_tile_ilp.cpp:183:                 float BL = p.SUB[ind_lbot + k];
	.loc 1 183 23 discriminator 163840 view .LVU929
	movzx	ebx, BYTE PTR [rcx+rsi]	# *_289, *_289
	vfmadd213ss	xmm7, xmm18, DWORD PTR [rdx+r9]	# TL_1068, _73, *_291
	vcvtusi2ss	xmm6, xmm5, ebx	# tmp1649, tmp1646, *_289
# src/avx_analysis_code_ablations/opt9_abl_hand_vec_no_tile_ilp.cpp:184:                 float BR = p.SUB[ind_rbot + k];
	.loc 1 184 23 discriminator 163840 view .LVU930
	mov	rbx, QWORD PTR 208[rsp]	# ind_rbot, %sfp
	movzx	ecx, BYTE PTR [rcx+rbx]	# *_290, *_290
# src/avx_analysis_code_ablations/opt9_abl_hand_vec_no_tile_ilp.cpp:185:                 vp[k] += p.A*TL + p.B*TR + p.C*BL + p.D*BR;
	.loc 1 185 47 discriminator 163840 view .LVU931
	vmulss	xmm6, xmm6, xmm16	# _128, BL_120, _75
	vfmadd231ss	xmm6, xmm17, xmm4	# _1114, _74, TR_117
# src/avx_analysis_code_ablations/opt9_abl_hand_vec_no_tile_ilp.cpp:184:                 float BR = p.SUB[ind_rbot + k];
	.loc 1 184 23 discriminator 163840 view .LVU932
	vcvtusi2ss	xmm4, xmm5, ecx	# tmp1650, tmp1646, *_290
.LBE3120:
# src/avx_analysis_code_ablations/opt9_abl_hand_vec_no_tile_ilp.cpp:180:             for (int k = 0; k < remaining; ++k) {
	.loc 1 180 13 discriminator 163841 view .LVU933
	lea	ecx, 1[rax]	#,
.LBB3121:
# src/avx_analysis_code_ablations/opt9_abl_hand_vec_no_tile_ilp.cpp:185:                 vp[k] += p.A*TL + p.B*TR + p.C*BL + p.D*BR;
	.loc 1 185 23 discriminator 163840 view .LVU934
	vfmadd132ss	xmm4, xmm7, xmm15	# tmp1432, _1063, _76
	vaddss	xmm4, xmm4, xmm6	# _134, tmp1432, _1114
	vmovss	DWORD PTR [rdx+r9], xmm4	# *_291, _134
.LBE3121:
	.loc 1 180 13 is_stmt 1 discriminator 1 view .LVU935
.LVL143:
	.loc 1 180 31 discriminator 2 view .LVU936
# src/avx_analysis_code_ablations/opt9_abl_hand_vec_no_tile_ilp.cpp:180:             for (int k = 0; k < remaining; ++k) {
	.loc 1 180 31 is_stmt 0 discriminator 163842 view .LVU937
	cmp	ecx, r10d	# k, remaining
	jge	.L45	#,
.LBB3122:
	.loc 1 181 17 is_stmt 1 view .LVU938
.LVL144:
	.loc 1 182 17 view .LVU939
	.loc 1 183 17 view .LVU940
	.loc 1 184 17 view .LVU941
	.loc 1 185 17 view .LVU942
# src/avx_analysis_code_ablations/opt9_abl_hand_vec_no_tile_ilp.cpp:181:                 float TL = p.SUB[ind_ltop + k];
	.loc 1 181 46 is_stmt 0 discriminator 196608 view .LVU943
	lea	r12, [rdi+r15]	# tmp1439,
# src/avx_analysis_code_ablations/opt9_abl_hand_vec_no_tile_ilp.cpp:183:                 float BL = p.SUB[ind_lbot + k];
	.loc 1 183 46 discriminator 196608 view .LVU944
	lea	rbx, [rdi+rsi]	# tmp1447,
# src/avx_analysis_code_ablations/opt9_abl_hand_vec_no_tile_ilp.cpp:181:                 float TL = p.SUB[ind_ltop + k];
	.loc 1 181 23 discriminator 196608 view .LVU945
	movzx	r11d, BYTE PTR [r12+rcx]	# *_294, *_294
	vcvtusi2ss	xmm4, xmm5, r11d	# tmp1651, tmp1646, *_294
# src/avx_analysis_code_ablations/opt9_abl_hand_vec_no_tile_ilp.cpp:182:                 float TR = p.SUB[ind_rtop + k];
	.loc 1 182 46 discriminator 196608 view .LVU946
	lea	r11, [rdi+rcx]	# tmp1443,
# src/avx_analysis_code_ablations/opt9_abl_hand_vec_no_tile_ilp.cpp:182:                 float TR = p.SUB[ind_rtop + k];
	.loc 1 182 23 discriminator 196608 view .LVU947
	movzx	r11d, BYTE PTR [r11+r8]	# *_969, *_969
	vmovaps	xmm7, xmm4	# TL_973, TL_973
	vcvtusi2ss	xmm4, xmm5, r11d	# tmp1652, tmp1646, *_969
# src/avx_analysis_code_ablations/opt9_abl_hand_vec_no_tile_ilp.cpp:183:                 float BL = p.SUB[ind_lbot + k];
	.loc 1 183 23 discriminator 196608 view .LVU948
	movzx	r11d, BYTE PTR [rbx+rcx]	# *_965, *_965
	vfmadd213ss	xmm7, xmm18, DWORD PTR 4[rdx+r9]	# TL_973, _73, *_957
	vcvtusi2ss	xmm6, xmm5, r11d	# tmp1653, tmp1646, *_965
# src/avx_analysis_code_ablations/opt9_abl_hand_vec_no_tile_ilp.cpp:184:                 float BR = p.SUB[ind_rbot + k];
	.loc 1 184 46 discriminator 196608 view .LVU949
	mov	r11, QWORD PTR 208[rsp]	# ind_rbot, %sfp
	add	r11, rdi	# tmp1453, _114
# src/avx_analysis_code_ablations/opt9_abl_hand_vec_no_tile_ilp.cpp:184:                 float BR = p.SUB[ind_rbot + k];
	.loc 1 184 23 discriminator 196608 view .LVU950
	movzx	ecx, BYTE PTR [r11+rcx]	# *_961, *_961
.LVL145:
# src/avx_analysis_code_ablations/opt9_abl_hand_vec_no_tile_ilp.cpp:185:                 vp[k] += p.A*TL + p.B*TR + p.C*BL + p.D*BR;
	.loc 1 185 47 discriminator 196608 view .LVU951
	vmulss	xmm6, xmm6, xmm16	# _952, BL_963, _75
	vfmadd231ss	xmm6, xmm17, xmm4	# _1168, _74, TR_967
# src/avx_analysis_code_ablations/opt9_abl_hand_vec_no_tile_ilp.cpp:184:                 float BR = p.SUB[ind_rbot + k];
	.loc 1 184 23 discriminator 196608 view .LVU952
	vcvtusi2ss	xmm4, xmm5, ecx	# tmp1654, tmp1646, *_961
.LBE3122:
# src/avx_analysis_code_ablations/opt9_abl_hand_vec_no_tile_ilp.cpp:180:             for (int k = 0; k < remaining; ++k) {
	.loc 1 180 13 discriminator 196609 view .LVU953
	lea	ecx, 2[rax]	#,
.LBB3123:
# src/avx_analysis_code_ablations/opt9_abl_hand_vec_no_tile_ilp.cpp:185:                 vp[k] += p.A*TL + p.B*TR + p.C*BL + p.D*BR;
	.loc 1 185 23 discriminator 196608 view .LVU954
	vfmadd132ss	xmm4, xmm7, xmm15	# tmp1452, _1162, _76
	vaddss	xmm4, xmm4, xmm6	# _948, tmp1452, _1168
	vmovss	DWORD PTR 4[rdx+r9], xmm4	# *_957, _948
.LBE3123:
	.loc 1 180 13 is_stmt 1 discriminator 1 view .LVU955
.LVL146:
	.loc 1 180 31 discriminator 2 view .LVU956
# src/avx_analysis_code_ablations/opt9_abl_hand_vec_no_tile_ilp.cpp:180:             for (int k = 0; k < remaining; ++k) {
	.loc 1 180 31 is_stmt 0 discriminator 196610 view .LVU957
	cmp	ecx, r10d	# k, remaining
	jge	.L45	#,
.LBB3124:
	.loc 1 181 17 is_stmt 1 view .LVU958
.LVL147:
	.loc 1 182 17 view .LVU959
	.loc 1 183 17 view .LVU960
	.loc 1 184 17 view .LVU961
	.loc 1 185 17 view .LVU962
# src/avx_analysis_code_ablations/opt9_abl_hand_vec_no_tile_ilp.cpp:181:                 float TL = p.SUB[ind_ltop + k];
	.loc 1 181 23 is_stmt 0 discriminator 229376 view .LVU963
	movzx	r15d, BYTE PTR [r12+rcx]	# *_818, *_818
	vcvtusi2ss	xmm4, xmm5, r15d	# tmp1655, tmp1646, *_818
# src/avx_analysis_code_ablations/opt9_abl_hand_vec_no_tile_ilp.cpp:182:                 float TR = p.SUB[ind_rtop + k];
	.loc 1 182 46 discriminator 229376 view .LVU964
	lea	r15, [rdi+rcx]	# tmp1463,
# src/avx_analysis_code_ablations/opt9_abl_hand_vec_no_tile_ilp.cpp:182:                 float TR = p.SUB[ind_rtop + k];
	.loc 1 182 23 discriminator 229376 view .LVU965
	movzx	r15d, BYTE PTR [r15+r8]	# *_813, *_813
	vmovaps	xmm7, xmm4	# TL_815, TL_815
	vcvtusi2ss	xmm4, xmm5, r15d	# tmp1656, tmp1646, *_813
# src/avx_analysis_code_ablations/opt9_abl_hand_vec_no_tile_ilp.cpp:183:                 float BL = p.SUB[ind_lbot + k];
	.loc 1 183 23 discriminator 229376 view .LVU966
	movzx	r15d, BYTE PTR [rbx+rcx]	# *_809, *_809
# src/avx_analysis_code_ablations/opt9_abl_hand_vec_no_tile_ilp.cpp:184:                 float BR = p.SUB[ind_rbot + k];
	.loc 1 184 23 discriminator 229376 view .LVU967
	movzx	ecx, BYTE PTR [r11+rcx]	# *_805, *_805
.LVL148:
	.loc 1 184 23 discriminator 229376 view .LVU968
	vfmadd213ss	xmm7, xmm18, DWORD PTR 8[rdx+r9]	# TL_815, _73, *_801
# src/avx_analysis_code_ablations/opt9_abl_hand_vec_no_tile_ilp.cpp:183:                 float BL = p.SUB[ind_lbot + k];
	.loc 1 183 23 discriminator 229376 view .LVU969
	vcvtusi2ss	xmm6, xmm5, r15d	# tmp1657, tmp1646, *_809
# src/avx_analysis_code_ablations/opt9_abl_hand_vec_no_tile_ilp.cpp:185:                 vp[k] += p.A*TL + p.B*TR + p.C*BL + p.D*BR;
	.loc 1 185 47 discriminator 229376 view .LVU970
	vmulss	xmm6, xmm6, xmm16	# _796, BL_807, _75
	vfmadd231ss	xmm6, xmm17, xmm4	# _1215, _74, TR_811
# src/avx_analysis_code_ablations/opt9_abl_hand_vec_no_tile_ilp.cpp:184:                 float BR = p.SUB[ind_rbot + k];
	.loc 1 184 23 discriminator 229376 view .LVU971
	vcvtusi2ss	xmm4, xmm5, ecx	# tmp1658, tmp1646, *_805
.LBE3124:
# src/avx_analysis_code_ablations/opt9_abl_hand_vec_no_tile_ilp.cpp:180:             for (int k = 0; k < remaining; ++k) {
	.loc 1 180 13 discriminator 229377 view .LVU972
	lea	ecx, 3[rax]	#,
.LBB3125:
# src/avx_analysis_code_ablations/opt9_abl_hand_vec_no_tile_ilp.cpp:185:                 vp[k] += p.A*TL + p.B*TR + p.C*BL + p.D*BR;
	.loc 1 185 23 discriminator 229376 view .LVU973
	vfmadd132ss	xmm4, xmm7, xmm15	# tmp1472, _1196, _76
	vaddss	xmm4, xmm4, xmm6	# _792, tmp1472, _1215
	vmovss	DWORD PTR 8[rdx+r9], xmm4	# *_801, _792
.LBE3125:
	.loc 1 180 13 is_stmt 1 discriminator 1 view .LVU974
.LVL149:
	.loc 1 180 31 discriminator 2 view .LVU975
# src/avx_analysis_code_ablations/opt9_abl_hand_vec_no_tile_ilp.cpp:180:             for (int k = 0; k < remaining; ++k) {
	.loc 1 180 31 is_stmt 0 discriminator 229378 view .LVU976
	cmp	ecx, r10d	# k, remaining
	jge	.L45	#,
.LBB3126:
	.loc 1 181 17 is_stmt 1 view .LVU977
.LVL150:
	.loc 1 182 17 view .LVU978
	.loc 1 183 17 view .LVU979
	.loc 1 184 17 view .LVU980
	.loc 1 185 17 view .LVU981
# src/avx_analysis_code_ablations/opt9_abl_hand_vec_no_tile_ilp.cpp:181:                 float TL = p.SUB[ind_ltop + k];
	.loc 1 181 23 is_stmt 0 discriminator 262144 view .LVU982
	movzx	r15d, BYTE PTR [r12+rcx]	# *_433, *_433
	vcvtusi2ss	xmm4, xmm5, r15d	# tmp1659, tmp1646, *_433
# src/avx_analysis_code_ablations/opt9_abl_hand_vec_no_tile_ilp.cpp:182:                 float TR = p.SUB[ind_rtop + k];
	.loc 1 182 46 discriminator 262144 view .LVU983
	lea	r15, [rdi+rcx]	# tmp1483,
# src/avx_analysis_code_ablations/opt9_abl_hand_vec_no_tile_ilp.cpp:182:                 float TR = p.SUB[ind_rtop + k];
	.loc 1 182 23 discriminator 262144 view .LVU984
	movzx	r15d, BYTE PTR [r15+r8]	# *_1116, *_1116
	vmovaps	xmm7, xmm4	# TL_977, TL_977
	vcvtusi2ss	xmm4, xmm5, r15d	# tmp1660, tmp1646, *_1116
# src/avx_analysis_code_ablations/opt9_abl_hand_vec_no_tile_ilp.cpp:183:                 float BL = p.SUB[ind_lbot + k];
	.loc 1 183 23 discriminator 262144 view .LVU985
	movzx	r15d, BYTE PTR [rbx+rcx]	# *_653, *_653
# src/avx_analysis_code_ablations/opt9_abl_hand_vec_no_tile_ilp.cpp:184:                 float BR = p.SUB[ind_rbot + k];
	.loc 1 184 23 discriminator 262144 view .LVU986
	movzx	ecx, BYTE PTR [r11+rcx]	# *_761, *_761
.LVL151:
	.loc 1 184 23 discriminator 262144 view .LVU987
	vfmadd213ss	xmm7, xmm18, DWORD PTR 12[rdx+r9]	# TL_977, _73, *_1100
# src/avx_analysis_code_ablations/opt9_abl_hand_vec_no_tile_ilp.cpp:183:                 float BL = p.SUB[ind_lbot + k];
	.loc 1 183 23 discriminator 262144 view .LVU988
	vcvtusi2ss	xmm6, xmm5, r15d	# tmp1661, tmp1646, *_653
# src/avx_analysis_code_ablations/opt9_abl_hand_vec_no_tile_ilp.cpp:185:                 vp[k] += p.A*TL + p.B*TR + p.C*BL + p.D*BR;
	.loc 1 185 47 discriminator 262144 view .LVU989
	vmulss	xmm6, xmm6, xmm16	# _1096, BL_544, _75
	vfmadd231ss	xmm6, xmm17, xmm4	# _79, _74, TR_763
# src/avx_analysis_code_ablations/opt9_abl_hand_vec_no_tile_ilp.cpp:184:                 float BR = p.SUB[ind_rbot + k];
	.loc 1 184 23 discriminator 262144 view .LVU990
	vcvtusi2ss	xmm4, xmm5, ecx	# tmp1662, tmp1646, *_761
.LBE3126:
# src/avx_analysis_code_ablations/opt9_abl_hand_vec_no_tile_ilp.cpp:180:             for (int k = 0; k < remaining; ++k) {
	.loc 1 180 13 discriminator 262145 view .LVU991
	lea	ecx, 4[rax]	#,
.LBB3127:
# src/avx_analysis_code_ablations/opt9_abl_hand_vec_no_tile_ilp.cpp:185:                 vp[k] += p.A*TL + p.B*TR + p.C*BL + p.D*BR;
	.loc 1 185 23 discriminator 262144 view .LVU992
	vfmadd132ss	xmm4, xmm7, xmm15	# tmp1492, _78, _76
	vaddss	xmm4, xmm4, xmm6	# _638, tmp1492, _79
	vmovss	DWORD PTR 12[rdx+r9], xmm4	# *_1100, _638
.LBE3127:
	.loc 1 180 13 is_stmt 1 discriminator 1 view .LVU993
.LVL152:
	.loc 1 180 31 discriminator 2 view .LVU994
# src/avx_analysis_code_ablations/opt9_abl_hand_vec_no_tile_ilp.cpp:180:             for (int k = 0; k < remaining; ++k) {
	.loc 1 180 31 is_stmt 0 discriminator 262146 view .LVU995
	cmp	ecx, r10d	# k, remaining
	jge	.L45	#,
.LBB3128:
	.loc 1 181 17 is_stmt 1 view .LVU996
.LVL153:
	.loc 1 182 17 view .LVU997
	.loc 1 183 17 view .LVU998
	.loc 1 184 17 view .LVU999
	.loc 1 185 17 view .LVU1000
# src/avx_analysis_code_ablations/opt9_abl_hand_vec_no_tile_ilp.cpp:183:                 float BL = p.SUB[ind_lbot + k];
	.loc 1 183 23 is_stmt 0 discriminator 294912 view .LVU1001
	movzx	ebx, BYTE PTR [rbx+rcx]	# *_1006, *_1006
# src/avx_analysis_code_ablations/opt9_abl_hand_vec_no_tile_ilp.cpp:181:                 float TL = p.SUB[ind_ltop + k];
	.loc 1 181 23 discriminator 294912 view .LVU1002
	movzx	r12d, BYTE PTR [r12+rcx]	# *_619, *_619
# src/avx_analysis_code_ablations/opt9_abl_hand_vec_no_tile_ilp.cpp:183:                 float BL = p.SUB[ind_lbot + k];
	.loc 1 183 23 discriminator 294912 view .LVU1003
	vcvtusi2ss	xmm6, xmm5, ebx	# tmp1665, tmp1646, *_1006
# src/avx_analysis_code_ablations/opt9_abl_hand_vec_no_tile_ilp.cpp:181:                 float TL = p.SUB[ind_ltop + k];
	.loc 1 181 23 discriminator 294912 view .LVU1004
	vcvtusi2ss	xmm4, xmm5, r12d	# tmp1663, tmp1646, *_619
# src/avx_analysis_code_ablations/opt9_abl_hand_vec_no_tile_ilp.cpp:182:                 float TR = p.SUB[ind_rtop + k];
	.loc 1 182 46 discriminator 294912 view .LVU1005
	lea	r12, [rdi+rcx]	# tmp1503,
# src/avx_analysis_code_ablations/opt9_abl_hand_vec_no_tile_ilp.cpp:184:                 float BR = p.SUB[ind_rbot + k];
	.loc 1 184 23 discriminator 294912 view .LVU1006
	movzx	ecx, BYTE PTR [r11+rcx]	# *_1004, *_1004
.LVL154:
# src/avx_analysis_code_ablations/opt9_abl_hand_vec_no_tile_ilp.cpp:182:                 float TR = p.SUB[ind_rtop + k];
	.loc 1 182 23 discriminator 294912 view .LVU1007
	movzx	r12d, BYTE PTR [r12+r8]	# *_453, *_453
# src/avx_analysis_code_ablations/opt9_abl_hand_vec_no_tile_ilp.cpp:185:                 vp[k] += p.A*TL + p.B*TR + p.C*BL + p.D*BR;
	.loc 1 185 47 discriminator 294912 view .LVU1008
	vmulss	xmm6, xmm6, xmm16	# _1000, BL_1129, _75
	vmovaps	xmm7, xmm4	# TL_1009, TL_1009
# src/avx_analysis_code_ablations/opt9_abl_hand_vec_no_tile_ilp.cpp:182:                 float TR = p.SUB[ind_rtop + k];
	.loc 1 182 23 discriminator 294912 view .LVU1009
	vcvtusi2ss	xmm4, xmm5, r12d	# tmp1664, tmp1646, *_453
	vfmadd213ss	xmm7, xmm18, DWORD PTR 16[rdx+r9]	# TL_1009, _73, *_1002
	vfmadd231ss	xmm6, xmm4, xmm17	# _87, TR_66, _74
# src/avx_analysis_code_ablations/opt9_abl_hand_vec_no_tile_ilp.cpp:184:                 float BR = p.SUB[ind_rbot + k];
	.loc 1 184 23 discriminator 294912 view .LVU1010
	vcvtusi2ss	xmm4, xmm5, ecx	# tmp1666, tmp1646, *_1004
.LBE3128:
# src/avx_analysis_code_ablations/opt9_abl_hand_vec_no_tile_ilp.cpp:180:             for (int k = 0; k < remaining; ++k) {
	.loc 1 180 13 discriminator 294913 view .LVU1011
	lea	ecx, 5[rax]	#,
.LBB3129:
# src/avx_analysis_code_ablations/opt9_abl_hand_vec_no_tile_ilp.cpp:185:                 vp[k] += p.A*TL + p.B*TR + p.C*BL + p.D*BR;
	.loc 1 185 23 discriminator 294912 view .LVU1012
	vfmadd132ss	xmm4, xmm7, xmm15	# tmp1512, _85, _76
	vaddss	xmm4, xmm4, xmm6	# _998, tmp1512, _87
	vmovss	DWORD PTR 16[rdx+r9], xmm4	# *_1002, _998
.LBE3129:
	.loc 1 180 13 is_stmt 1 discriminator 1 view .LVU1013
.LVL155:
	.loc 1 180 31 discriminator 2 view .LVU1014
# src/avx_analysis_code_ablations/opt9_abl_hand_vec_no_tile_ilp.cpp:180:             for (int k = 0; k < remaining; ++k) {
	.loc 1 180 31 is_stmt 0 discriminator 294914 view .LVU1015
	cmp	ecx, r10d	# k, remaining
	jge	.L45	#,
.LBB3130:
	.loc 1 181 17 is_stmt 1 view .LVU1016
.LVL156:
	.loc 1 182 17 view .LVU1017
	.loc 1 183 17 view .LVU1018
	.loc 1 184 17 view .LVU1019
	.loc 1 185 17 view .LVU1020
# src/avx_analysis_code_ablations/opt9_abl_hand_vec_no_tile_ilp.cpp:181:                 float TL = p.SUB[ind_ltop + k];
	.loc 1 181 23 is_stmt 0 discriminator 327680 view .LVU1021
	mov	r15, QWORD PTR 216[rsp]	# ind_ltop, %sfp
# src/avx_analysis_code_ablations/opt9_abl_hand_vec_no_tile_ilp.cpp:181:                 float TL = p.SUB[ind_ltop + k];
	.loc 1 181 46 discriminator 327680 view .LVU1022
	add	rcx, rdi	# tmp1519, _114
.LVL157:
	.loc 1 181 46 discriminator 327680 view .LVU1023
.LBE3130:
# src/avx_analysis_code_ablations/opt9_abl_hand_vec_no_tile_ilp.cpp:180:             for (int k = 0; k < remaining; ++k) {
	.loc 1 180 13 discriminator 327681 view .LVU1024
	add	eax, 6	#,
.LVL158:
.LBB3131:
# src/avx_analysis_code_ablations/opt9_abl_hand_vec_no_tile_ilp.cpp:181:                 float TL = p.SUB[ind_ltop + k];
	.loc 1 181 23 discriminator 327680 view .LVU1025
	movzx	ebx, BYTE PTR [rcx+r15]	# *_750, *_750
.LVL159:
	.loc 1 181 23 discriminator 327680 view .LVU1026
	vcvtusi2ss	xmm4, xmm5, ebx	# tmp1667, tmp1646, *_750
# src/avx_analysis_code_ablations/opt9_abl_hand_vec_no_tile_ilp.cpp:182:                 float TR = p.SUB[ind_rtop + k];
	.loc 1 182 23 discriminator 327680 view .LVU1027
	movzx	ebx, BYTE PTR [rcx+r8]	# *_440, *_440
.LVL160:
	.loc 1 182 23 discriminator 327680 view .LVU1028
	vmovaps	xmm7, xmm4	# TL_150, TL_150
	vcvtusi2ss	xmm4, xmm5, ebx	# tmp1668, tmp1646, *_440
# src/avx_analysis_code_ablations/opt9_abl_hand_vec_no_tile_ilp.cpp:183:                 float BL = p.SUB[ind_lbot + k];
	.loc 1 183 23 discriminator 327680 view .LVU1029
	movzx	ebx, BYTE PTR [rcx+rsi]	# *_1222, *_1222
.LVL161:
	.loc 1 183 23 discriminator 327680 view .LVU1030
	vfmadd213ss	xmm7, xmm18, DWORD PTR 20[rdx+r9]	# TL_150, _73, *_1087
	vcvtusi2ss	xmm6, xmm5, ebx	# tmp1669, tmp1646, *_1222
# src/avx_analysis_code_ablations/opt9_abl_hand_vec_no_tile_ilp.cpp:184:                 float BR = p.SUB[ind_rbot + k];
	.loc 1 184 23 discriminator 327680 view .LVU1031
	mov	rbx, QWORD PTR 208[rsp]	# ind_rbot, %sfp
.LVL162:
	.loc 1 184 23 discriminator 327680 view .LVU1032
	movzx	ecx, BYTE PTR [rcx+rbx]	# *_1089, *_1089
.LVL163:
# src/avx_analysis_code_ablations/opt9_abl_hand_vec_no_tile_ilp.cpp:185:                 vp[k] += p.A*TL + p.B*TR + p.C*BL + p.D*BR;
	.loc 1 185 47 discriminator 327680 view .LVU1033
	vmulss	xmm6, xmm6, xmm16	# _250, BL_1150, _75
	vfmadd231ss	xmm6, xmm17, xmm4	# _91, _74, TR_249
# src/avx_analysis_code_ablations/opt9_abl_hand_vec_no_tile_ilp.cpp:184:                 float BR = p.SUB[ind_rbot + k];
	.loc 1 184 23 discriminator 327680 view .LVU1034
	vcvtusi2ss	xmm4, xmm5, ecx	# tmp1670, tmp1646, *_1089
# src/avx_analysis_code_ablations/opt9_abl_hand_vec_no_tile_ilp.cpp:185:                 vp[k] += p.A*TL + p.B*TR + p.C*BL + p.D*BR;
	.loc 1 185 23 discriminator 327680 view .LVU1035
	vfmadd132ss	xmm4, xmm7, xmm15	# tmp1532, _90, _76
	vaddss	xmm4, xmm4, xmm6	# _723, tmp1532, _91
	vmovss	DWORD PTR 20[rdx+r9], xmm4	# *_1087, _723
.LBE3131:
	.loc 1 180 13 is_stmt 1 discriminator 1 view .LVU1036
.LVL164:
	.loc 1 180 31 discriminator 2 view .LVU1037
# src/avx_analysis_code_ablations/opt9_abl_hand_vec_no_tile_ilp.cpp:180:             for (int k = 0; k < remaining; ++k) {
	.loc 1 180 31 is_stmt 0 discriminator 327682 view .LVU1038
	cmp	eax, r10d	# k, remaining
	jge	.L45	#,
.LBB3132:
	.loc 1 181 17 is_stmt 1 view .LVU1039
.LVL165:
	.loc 1 182 17 view .LVU1040
	.loc 1 183 17 view .LVU1041
	.loc 1 184 17 view .LVU1042
	.loc 1 185 17 view .LVU1043
# src/avx_analysis_code_ablations/opt9_abl_hand_vec_no_tile_ilp.cpp:181:                 float TL = p.SUB[ind_ltop + k];
	.loc 1 181 46 is_stmt 0 discriminator 98304 view .LVU1044
	add	rax, rdi	# tmp1539, _114
.LVL166:
# src/avx_analysis_code_ablations/opt9_abl_hand_vec_no_tile_ilp.cpp:181:                 float TL = p.SUB[ind_ltop + k];
	.loc 1 181 23 discriminator 98304 view .LVU1045
	movzx	ecx, BYTE PTR [rax+r15]	# *_410, *_410
.LVL167:
	.loc 1 181 23 discriminator 98304 view .LVU1046
	vcvtusi2ss	xmm4, xmm5, ecx	# tmp1671, tmp1646, *_410
# src/avx_analysis_code_ablations/opt9_abl_hand_vec_no_tile_ilp.cpp:182:                 float TR = p.SUB[ind_rtop + k];
	.loc 1 182 23 discriminator 98304 view .LVU1047
	movzx	ecx, BYTE PTR [rax+r8]	# *_372, *_372
.LVL168:
	.loc 1 182 23 discriminator 98304 view .LVU1048
	vmovaps	xmm7, xmm4	# TL_407, TL_407
	vcvtusi2ss	xmm4, xmm5, ecx	# tmp1672, tmp1646, *_372
# src/avx_analysis_code_ablations/opt9_abl_hand_vec_no_tile_ilp.cpp:183:                 float BL = p.SUB[ind_lbot + k];
	.loc 1 183 23 discriminator 98304 view .LVU1049
	movzx	ecx, BYTE PTR [rax+rsi]	# *_365, *_365
.LVL169:
# src/avx_analysis_code_ablations/opt9_abl_hand_vec_no_tile_ilp.cpp:184:                 float BR = p.SUB[ind_rbot + k];
	.loc 1 184 23 discriminator 98304 view .LVU1050
	movzx	eax, BYTE PTR [rax+rbx]	# *_353, *_353
.LVL170:
	.loc 1 184 23 discriminator 98304 view .LVU1051
	vfmadd213ss	xmm7, xmm18, DWORD PTR 24[rdx+r9]	# TL_407, _73, *_322
# src/avx_analysis_code_ablations/opt9_abl_hand_vec_no_tile_ilp.cpp:183:                 float BL = p.SUB[ind_lbot + k];
	.loc 1 183 23 discriminator 98304 view .LVU1052
	vcvtusi2ss	xmm6, xmm5, ecx	# tmp1673, tmp1646, *_365
# src/avx_analysis_code_ablations/opt9_abl_hand_vec_no_tile_ilp.cpp:185:                 vp[k] += p.A*TL + p.B*TR + p.C*BL + p.D*BR;
	.loc 1 185 47 discriminator 98304 view .LVU1053
	vmulss	xmm6, xmm6, xmm16	# _239, BL_361, _75
	vfmadd231ss	xmm6, xmm17, xmm4	# _97, _74, TR_370
# src/avx_analysis_code_ablations/opt9_abl_hand_vec_no_tile_ilp.cpp:184:                 float BR = p.SUB[ind_rbot + k];
	.loc 1 184 23 discriminator 98304 view .LVU1054
	vcvtusi2ss	xmm4, xmm5, eax	# tmp1674, tmp1646, *_353
# src/avx_analysis_code_ablations/opt9_abl_hand_vec_no_tile_ilp.cpp:185:                 vp[k] += p.A*TL + p.B*TR + p.C*BL + p.D*BR;
	.loc 1 185 23 discriminator 98304 view .LVU1055
	vfmadd132ss	xmm4, xmm7, xmm15	# tmp1552, _96, _76
	vaddss	xmm4, xmm4, xmm6	# _230, tmp1552, _97
	vmovss	DWORD PTR 24[rdx+r9], xmm4	# *_322, _230
.LBE3132:
	.loc 1 180 13 is_stmt 1 discriminator 1 view .LVU1056
	.loc 1 180 31 discriminator 2 view .LVU1057
.LVL171:
.L45:
	.loc 1 180 31 is_stmt 0 discriminator 2 view .LVU1058
.LBE3116:
.LBE3147:
	.loc 1 97 9 is_stmt 1 discriminator 1 view .LVU1059
	inc	DWORD PTR 192[rsp]	# %sfp
.LVL172:
# src/avx_analysis_code_ablations/opt9_abl_hand_vec_no_tile_ilp.cpp:97:         for (int y = p.y_begin; y < p.y_end; ++y) {
	.loc 1 97 35 is_stmt 0 discriminator 2 view .LVU1060
	mov	rdi, QWORD PTR 144[rsp]	# _86, %sfp
	add	QWORD PTR 184[rsp], rdi	# %sfp, _86
	add	r14, rdi	# ivtmp.515, _86
	mov	rdi, QWORD PTR 136[rsp]	# tmp967, %sfp
# src/avx_analysis_code_ablations/opt9_abl_hand_vec_no_tile_ilp.cpp:97:         for (int y = p.y_begin; y < p.y_end; ++y) {
	.loc 1 97 9 discriminator 1 view .LVU1061
	mov	eax, DWORD PTR 192[rsp]	# y, %sfp
.LVL173:
	.loc 1 97 35 is_stmt 1 discriminator 2 view .LVU1062
	add	QWORD PTR 168[rsp], rdi	# %sfp, tmp967
	cmp	eax, DWORD PTR 152[rsp]	# y, %sfp
	jne	.L52	#,
.LVL174:
.L42:
	.loc 1 97 35 is_stmt 0 discriminator 2 view .LVU1063
.LBE3171:
.LBE2893:
	.loc 1 91 5 is_stmt 1 discriminator 4 view .LVU1064
	.loc 1 91 31 discriminator 5 view .LVU1065
# src/avx_analysis_code_ablations/opt9_abl_hand_vec_no_tile_ilp.cpp:91:     for (const SubParams& p : params) {
	.loc 1 91 31 is_stmt 0 discriminator 6 view .LVU1066
	add	QWORD PTR 160[rsp], 48	# %sfp,
.LVL175:
	.loc 1 91 31 discriminator 6 view .LVU1067
	mov	rax, QWORD PTR 160[rsp]	# ivtmp.526, %sfp
	cmp	QWORD PTR 88[rsp], rax	# %sfp, ivtmp.526
	jne	.L53	#,
.LBE3175:
.LBB3176:
# src/avx_analysis_code_ablations/opt9_abl_hand_vec_no_tile_ilp.cpp:191:     for (int y = 0; y < h; ++y) {
	.loc 1 191 23 discriminator 2 view .LVU1068
	mov	r13d, DWORD PTR 20[rsp]	# _2, %sfp
	mov	rdi, QWORD PTR 80[rsp]	# _188, %sfp
	mov	rbx, QWORD PTR 8[rsp]	# _356, %sfp
	mov	r15d, DWORD PTR 16[rsp]	# _1187, %sfp
	mov	rax, QWORD PTR [rsp]	# tmp1610, %sfp
.LVL176:
	.loc 1 191 23 is_stmt 1 discriminator 2 view .LVU1069
	test	r13d, r13d	# _2
	jle	.L151	#,
	test	r15d, r15d	# _1187
	jle	.L151	#,
	vzeroupper
.LVL177:
.L40:
	.loc 1 191 23 is_stmt 0 discriminator 2 view .LVU1070
	mov	rsi, QWORD PTR 104[rsp]	# _716, %sfp
.LBB3177:
.LBB3178:
.LBB3179:
# src/avx_analysis_code_ablations/opt9_abl_hand_vec_no_tile_ilp.cpp:200:             float inv_c = 1.0f / static_cast<float>(c);
	.loc 1 200 19 view .LVU1071
	mov	DWORD PTR 192[rsp], r13d	# %sfp, _2
	mov	r10, rdi	# ivtmp.474, _188
.LBE3179:
.LBE3178:
.LBE3177:
.LBE3176:
.LBB3200:
.LBB2884:
.LBB2851:
.LBB2844:
# /usr/include/c++/16/bits/stl_vector.h:409: 	this->_M_impl._M_end_of_storage = this->_M_impl._M_start + __n;
	.loc 2 409 59 view .LVU1072
	xor	r11d, r11d	# ivtmp.472
	mov	r12, QWORD PTR 64[rsp]	# ivtmp.475, %sfp
.LBE2844:
.LBE2851:
.LBE2884:
.LBE3200:
.LBB3201:
.LBB3198:
.LBB3193:
.LBB3186:
# src/avx_analysis_code_ablations/opt9_abl_hand_vec_no_tile_ilp.cpp:200:             float inv_c = 1.0f / static_cast<float>(c);
	.loc 1 200 19 view .LVU1073
	vmovss	xmm2, DWORD PTR .LC1[rip]	# tmp1616,
	mov	QWORD PTR 184[rsp], rbx	# %sfp, _356
.LBE3186:
.LBE3193:
.LBE3198:
# src/avx_analysis_code_ablations/opt9_abl_hand_vec_no_tile_ilp.cpp:191:     for (int y = 0; y < h; ++y) {
	.loc 1 191 14 view .LVU1074
	xor	r14d, r14d	# y
	add	rax, rsi	# _542, _716
.LBB3199:
.LBB3194:
.LBB3187:
# src/avx_analysis_code_ablations/opt9_abl_hand_vec_no_tile_ilp.cpp:200:             float inv_c = 1.0f / static_cast<float>(c);
	.loc 1 200 19 view .LVU1075
	mov	rbx, QWORD PTR 40[rsp]	# <retval>, %sfp
	mov	QWORD PTR 216[rsp], rax	# %sfp, _542
	sal	rax, 2	# tmp1564,
	mov	QWORD PTR 208[rsp], rax	# %sfp, tmp1564
	mov	eax, r15d	# _1291, _1187
	lea	r15, 0[0+rax*4]	# _1274,
	lea	eax, -1[rsi]	# _640,
	lea	r8, 3[rax+rax*2]	# _657,
	.p2align 4,,10
	.p2align 3
.L60:
.LVL178:
	.loc 1 200 19 view .LVU1076
.LBE3187:
.LBE3194:
	.loc 1 192 9 is_stmt 1 view .LVU1077
	.loc 1 193 9 view .LVU1078
.LBB3195:
.LBI3195:
	.loc 2 1385 7 view .LVU1079
	.loc 2 1385 7 is_stmt 0 view .LVU1080
.LBE3195:
	.loc 1 194 9 is_stmt 1 view .LVU1081
.LBB3196:
	.loc 1 194 27 discriminator 2 view .LVU1082
.LBE3196:
# src/avx_analysis_code_ablations/opt9_abl_hand_vec_no_tile_ilp.cpp:193:         unsigned char* outp = output.data.data() + (size_t)y * width * 3;
	.loc 1 193 72 is_stmt 0 discriminator 1 view .LVU1083
	mov	rcx, QWORD PTR 16[rbx]	# outp, MEM[(struct vector *)output_212(D) + 16B].D.87585._M_impl.D.86896._M_start
	lea	r9, 0[0+r11*4]	# _427,
	mov	rdx, r12	# ivtmp.459, ivtmp.475
	xor	eax, eax	# ivtmp.467
	add	rcx, r11	# outp, ivtmp.472
	jmp	.L59	#
.LVL179:
	.loc 1 193 72 discriminator 1 view .LVU1084
	.p2align 5
	.p2align 4,,10
	.p2align 3
.L57:
.LBB3197:
.LBB3188:
	.loc 1 197 17 is_stmt 1 view .LVU1085
# src/avx_analysis_code_ablations/opt9_abl_hand_vec_no_tile_ilp.cpp:197:                 outp[x*3] = outp[x*3+1] = outp[x*3+2] = 0;
	.loc 1 197 27 is_stmt 0 view .LVU1086
	xor	esi, esi	#
.LVL180:
# src/avx_analysis_code_ablations/opt9_abl_hand_vec_no_tile_ilp.cpp:197:                 outp[x*3] = outp[x*3+1] = outp[x*3+2] = 0;
	.loc 1 197 55 view .LVU1087
	mov	BYTE PTR 2[rcx+rax], 0	# MEM[(unsigned char *)outp_1127 + 2B + ivtmp.467_615 * 1],
.LBE3188:
# src/avx_analysis_code_ablations/opt9_abl_hand_vec_no_tile_ilp.cpp:194:         for (int x = 0; x < w; ++x) {
	.loc 1 194 27 discriminator 2 view .LVU1088
	add	rdx, 4	# ivtmp.459,
.LVL181:
.LBB3189:
# src/avx_analysis_code_ablations/opt9_abl_hand_vec_no_tile_ilp.cpp:197:                 outp[x*3] = outp[x*3+1] = outp[x*3+2] = 0;
	.loc 1 197 27 view .LVU1089
	mov	WORD PTR [rcx+rax], si	# MEM <vector(2) unsigned char> [(unsigned char *)outp_1127 + ivtmp.467_615 * 1],
	.loc 1 198 17 is_stmt 1 view .LVU1090
.LBE3189:
	.loc 1 194 9 discriminator 1 view .LVU1091
.LVL182:
	.loc 1 194 27 discriminator 2 view .LVU1092
	add	rax, 3	# ivtmp.467,
.LVL183:
	.loc 1 194 27 is_stmt 0 discriminator 2 view .LVU1093
	cmp	r8, rax	# _657, ivtmp.467
	je	.L163	#,
.LVL184:
.L59:
.LBB3190:
	.loc 1 195 13 is_stmt 1 view .LVU1094
# src/avx_analysis_code_ablations/opt9_abl_hand_vec_no_tile_ilp.cpp:195:             int c = counts[y * w + x];
	.loc 1 195 37 is_stmt 0 discriminator 1 view .LVU1095
	mov	esi, DWORD PTR [rdx]	# c, MEM[(value_type &)_1052]
.LVL185:
	.loc 1 196 13 is_stmt 1 view .LVU1096
	test	esi, esi	# c
	je	.L57	#,
	.loc 1 200 13 view .LVU1097
# src/avx_analysis_code_ablations/opt9_abl_hand_vec_no_tile_ilp.cpp:200:             float inv_c = 1.0f / static_cast<float>(c);
	.loc 1 200 34 is_stmt 0 view .LVU1098
	vcvtsi2ss	xmm0, xmm5, esi	# tmp1675, tmp1646, c
.LBE3190:
# src/avx_analysis_code_ablations/opt9_abl_hand_vec_no_tile_ilp.cpp:194:         for (int x = 0; x < w; ++x) {
	.loc 1 194 27 discriminator 2 view .LVU1099
	add	rdx, 4	# ivtmp.459,
.LBB3191:
# src/avx_analysis_code_ablations/opt9_abl_hand_vec_no_tile_ilp.cpp:200:             float inv_c = 1.0f / static_cast<float>(c);
	.loc 1 200 19 view .LVU1100
	vdivss	xmm0, xmm2, xmm0	# inv_c, tmp1616, _1050
.LVL186:
	.loc 1 201 13 is_stmt 1 view .LVU1101
.LBB3180:
	.loc 1 201 33 discriminator 2 view .LVU1102
.LBB3181:
	.loc 1 202 17 view .LVU1103
	.loc 1 203 17 view .LVU1104
# src/avx_analysis_code_ablations/opt9_abl_hand_vec_no_tile_ilp.cpp:202:                 float v = vp[x*3 + ch] * inv_c;
	.loc 1 202 23 is_stmt 0 discriminator 32768 view .LVU1105
	vmulss	xmm1, xmm0, DWORD PTR [r10+rax*4]	# v_1044, inv_c, MEM[(const float *)_1102 + ivtmp.467_615 * 4]
# src/avx_analysis_code_ablations/opt9_abl_hand_vec_no_tile_ilp.cpp:203:                 outp[x*3 + ch] = static_cast<unsigned char>(v);
	.loc 1 203 34 discriminator 32768 view .LVU1106
	vcvttss2si	esi, xmm1	# tmp1578, v_1044
.LVL187:
	.loc 1 203 34 discriminator 32768 view .LVU1107
	mov	BYTE PTR [rcx+rax], sil	# MEM[(unsigned char *)outp_1127 + ivtmp.467_615 * 1], tmp1578
.LBE3181:
	.loc 1 201 13 is_stmt 1 discriminator 1 view .LVU1108
.LVL188:
	.loc 1 201 33 discriminator 2 view .LVU1109
.LBB3182:
	.loc 1 202 17 view .LVU1110
# src/avx_analysis_code_ablations/opt9_abl_hand_vec_no_tile_ilp.cpp:202:                 float v = vp[x*3 + ch] * inv_c;
	.loc 1 202 34 is_stmt 0 discriminator 65536 view .LVU1111
	lea	esi, 1[rax]	# _1040,
.LVL189:
	.loc 1 203 17 is_stmt 1 view .LVU1112
# src/avx_analysis_code_ablations/opt9_abl_hand_vec_no_tile_ilp.cpp:202:                 float v = vp[x*3 + ch] * inv_c;
	.loc 1 202 38 is_stmt 0 discriminator 65536 view .LVU1113
	lea	r13, [rdi+rsi*4]	# tmp1580,
# src/avx_analysis_code_ablations/opt9_abl_hand_vec_no_tile_ilp.cpp:202:                 float v = vp[x*3 + ch] * inv_c;
	.loc 1 202 23 discriminator 65536 view .LVU1114
	vmulss	xmm1, xmm0, DWORD PTR 0[r13+r9]	# v_1035, inv_c, *_1037
# src/avx_analysis_code_ablations/opt9_abl_hand_vec_no_tile_ilp.cpp:203:                 outp[x*3 + ch] = static_cast<unsigned char>(v);
	.loc 1 203 34 discriminator 65536 view .LVU1115
	vcvttss2si	r13d, xmm1	# tmp1585, v_1035
	mov	BYTE PTR [rcx+rsi], r13b	# *_1034, tmp1585
.LBE3182:
	.loc 1 201 13 is_stmt 1 discriminator 1 view .LVU1116
.LVL190:
	.loc 1 201 33 discriminator 2 view .LVU1117
.LBB3183:
	.loc 1 202 17 view .LVU1118
# src/avx_analysis_code_ablations/opt9_abl_hand_vec_no_tile_ilp.cpp:202:                 float v = vp[x*3 + ch] * inv_c;
	.loc 1 202 34 is_stmt 0 discriminator 98304 view .LVU1119
	lea	esi, 2[rax]	# _1028,
.LVL191:
	.loc 1 203 17 is_stmt 1 view .LVU1120
.LBE3183:
.LBE3180:
.LBE3191:
# src/avx_analysis_code_ablations/opt9_abl_hand_vec_no_tile_ilp.cpp:194:         for (int x = 0; x < w; ++x) {
	.loc 1 194 27 is_stmt 0 discriminator 2 view .LVU1121
	add	rax, 3	# ivtmp.467,
.LVL192:
.LBB3192:
.LBB3185:
.LBB3184:
# src/avx_analysis_code_ablations/opt9_abl_hand_vec_no_tile_ilp.cpp:202:                 float v = vp[x*3 + ch] * inv_c;
	.loc 1 202 38 discriminator 98304 view .LVU1122
	lea	r13, [rdi+rsi*4]	# tmp1587,
# src/avx_analysis_code_ablations/opt9_abl_hand_vec_no_tile_ilp.cpp:202:                 float v = vp[x*3 + ch] * inv_c;
	.loc 1 202 23 discriminator 98304 view .LVU1123
	vmulss	xmm0, xmm0, DWORD PTR 0[r13+r9]	# v_1023, inv_c, *_1025
.LVL193:
# src/avx_analysis_code_ablations/opt9_abl_hand_vec_no_tile_ilp.cpp:203:                 outp[x*3 + ch] = static_cast<unsigned char>(v);
	.loc 1 203 34 discriminator 98304 view .LVU1124
	vcvttss2si	r13d, xmm0	# tmp1592, v_1023
	mov	BYTE PTR [rcx+rsi], r13b	# *_1022, tmp1592
.LBE3184:
	.loc 1 201 13 is_stmt 1 discriminator 1 view .LVU1125
.LVL194:
	.loc 1 201 33 discriminator 2 view .LVU1126
.LBE3185:
.LBE3192:
	.loc 1 194 9 discriminator 1 view .LVU1127
	.loc 1 194 27 discriminator 2 view .LVU1128
	cmp	r8, rax	# _657, ivtmp.467
	jne	.L59	#,
.LVL195:
.L163:
	.loc 1 194 27 is_stmt 0 discriminator 2 view .LVU1129
.LBE3197:
.LBE3199:
	.loc 1 191 5 is_stmt 1 discriminator 1 view .LVU1130
	inc	r14d	# y
.LVL196:
	.loc 1 191 23 discriminator 2 view .LVU1131
	add	r11, QWORD PTR 216[rsp]	# ivtmp.472, %sfp
	add	r10, QWORD PTR 208[rsp]	# ivtmp.474, %sfp
	add	r12, r15	# ivtmp.475, _1274
	cmp	DWORD PTR 192[rsp], r14d	# %sfp, y
	jne	.L60	#,
	mov	rbx, QWORD PTR 184[rsp]	# _356, %sfp
.LVL197:
.L55:
	.loc 1 191 23 is_stmt 0 discriminator 2 view .LVU1132
.LBE3201:
	.loc 1 208 5 is_stmt 1 view .LVU1133
.LBB3202:
.LBI3202:
	.loc 2 790 7 view .LVU1134
.LBB3203:
.LBI3203:
	.loc 2 307 7 view .LVU1135
	.loc 2 307 7 is_stmt 0 view .LVU1136
.LBE3203:
.LBB3204:
.LBI3204:
	.loc 8 1082 5 is_stmt 1 view .LVU1137
	.loc 8 1082 5 is_stmt 0 view .LVU1138
.LBE3204:
.LBB3205:
.LBI3205:
	.loc 2 373 7 is_stmt 1 view .LVU1139
.LBB3206:
.LBB3207:
.LBI3207:
	.loc 2 394 7 view .LVU1140
.LBB3208:
# /usr/include/c++/16/bits/stl_vector.h:397: 	if (__p)
	.loc 2 397 2 is_stmt 0 view .LVU1141
	test	rdi, rdi	# _188
	je	.L39	#,
.LVL198:
.L73:
.LBB3209:
.LBI3209:
	.loc 8 688 7 is_stmt 1 view .LVU1142
.LBB3210:
.LBI3210:
	.loc 6 167 7 view .LVU1143
.LBB3211:
# /usr/include/c++/16/bits/new_allocator.h:183: 	_GLIBCXX_OPERATOR_DELETE(_GLIBCXX_SIZED_DEALLOC(__p, __n));
	.loc 6 183 59 is_stmt 0 view .LVU1144
	mov	rsi, QWORD PTR 56[rsp]	#, %sfp
	call	"_ZdlPvm"@PLT	#
.LVL199:
	.loc 6 183 59 view .LVU1145
.LBE3211:
.LBE3210:
.LBE3209:
.LBE3208:
.LBE3207:
.LBE3206:
.LBB3212:
.LBI3212:
	.loc 2 139 14 is_stmt 1 view .LVU1146
.LBB3213:
.LBI3213:
	.loc 5 189 7 view .LVU1147
.LBB3214:
.LBI3214:
	.loc 6 104 7 view .LVU1148
	.loc 6 104 7 is_stmt 0 view .LVU1149
.LBE3214:
.LBE3213:
.LBE3212:
.LBE3205:
.LBE3202:
.LBB3215:
.LBI3215:
	.loc 2 790 7 is_stmt 1 view .LVU1150
.LBB3216:
.LBI3216:
	.loc 2 307 7 view .LVU1151
	.loc 2 307 7 is_stmt 0 view .LVU1152
.LBE3216:
.LBB3217:
.LBI3217:
	.loc 8 1082 5 is_stmt 1 view .LVU1153
	.loc 8 1082 5 is_stmt 0 view .LVU1154
.LBE3217:
.LBB3218:
.LBI3218:
	.loc 2 373 7 is_stmt 1 view .LVU1155
.L39:
.LBB3219:
.LBB3220:
.LBI3220:
	.loc 2 394 7 view .LVU1156
.LBB3221:
# /usr/include/c++/16/bits/stl_vector.h:397: 	if (__p)
	.loc 2 397 2 is_stmt 0 view .LVU1157
	test	rbx, rbx	# _356
	je	.L61	#,
.LVL200:
.LBB3222:
.LBI3222:
	.loc 8 688 7 is_stmt 1 view .LVU1158
.LBB3223:
.LBI3223:
	.loc 6 167 7 view .LVU1159
.LBB3224:
# /usr/include/c++/16/bits/new_allocator.h:183: 	_GLIBCXX_OPERATOR_DELETE(_GLIBCXX_SIZED_DEALLOC(__p, __n));
	.loc 6 183 59 is_stmt 0 view .LVU1160
	mov	rsi, QWORD PTR 48[rsp]	#, %sfp
	mov	rdi, rbx	#, _356
	call	"_ZdlPvm"@PLT	#
.LVL201:
	.loc 6 183 59 view .LVU1161
.LBE3224:
.LBE3223:
.LBE3222:
.LBE3221:
.LBE3220:
.LBE3219:
.LBB3225:
.LBI3225:
	.loc 2 139 14 is_stmt 1 view .LVU1162
.LBB3226:
.LBI3226:
	.loc 5 189 7 view .LVU1163
.LBB3227:
.LBI3227:
	.loc 6 104 7 view .LVU1164
	.loc 6 104 7 is_stmt 0 view .LVU1165
.LBE3227:
.LBE3226:
.LBE3225:
.LBE3218:
.LBE3215:
.LBB3228:
.LBI3228:
	.loc 2 790 7 is_stmt 1 view .LVU1166
.LBB3229:
.LBI3229:
	.loc 2 307 7 view .LVU1167
	.loc 2 307 7 is_stmt 0 view .LVU1168
.LBE3229:
.LBB3230:
.LBI3230:
	.loc 8 1082 5 is_stmt 1 view .LVU1169
	.loc 8 1082 5 is_stmt 0 view .LVU1170
.LBE3230:
.LBB3231:
.LBI3231:
	.loc 2 373 7 is_stmt 1 view .LVU1171
.L61:
.LBB3232:
.LBB3233:
.LBI3233:
	.loc 2 394 7 view .LVU1172
.LBB3234:
# /usr/include/c++/16/bits/stl_vector.h:397: 	if (__p)
	.loc 2 397 2 is_stmt 0 view .LVU1173
	mov	rax, QWORD PTR 64[rsp]	# _532, %sfp
	test	rax, rax	# _532
	je	.L62	#,
.LVL202:
.LBB3235:
.LBI3235:
	.loc 8 688 7 is_stmt 1 view .LVU1174
.LBB3236:
.LBI3236:
	.loc 6 167 7 view .LVU1175
.LBB3237:
# /usr/include/c++/16/bits/new_allocator.h:183: 	_GLIBCXX_OPERATOR_DELETE(_GLIBCXX_SIZED_DEALLOC(__p, __n));
	.loc 6 183 59 is_stmt 0 view .LVU1176
	mov	rsi, QWORD PTR 24[rsp]	#, %sfp
	mov	rdi, rax	#, _532
	call	"_ZdlPvm"@PLT	#
.LVL203:
.L62:
	.loc 6 183 59 view .LVU1177
.LBE3237:
.LBE3236:
.LBE3235:
.LBE3234:
.LBE3233:
.LBE3232:
.LBB3238:
.LBI3238:
	.loc 2 139 14 is_stmt 1 view .LVU1178
.LBB3239:
.LBI3239:
	.loc 5 189 7 view .LVU1179
.LBB3240:
.LBI3240:
	.loc 6 104 7 view .LVU1180
	.loc 6 104 7 is_stmt 0 view .LVU1181
.LBE3240:
.LBE3239:
.LBE3238:
.LBE3231:
.LBE3228:
.LBB3241:
.LBI2639:
	.loc 2 790 7 is_stmt 1 view .LVU1182
.LBB2653:
.LBI2653:
	.loc 2 307 7 view .LVU1183
	.loc 2 307 7 is_stmt 0 view .LVU1184
.LBE2653:
.LBB2654:
.LBI2654:
	.loc 8 1082 5 is_stmt 1 view .LVU1185
	.loc 8 1082 5 is_stmt 0 view .LVU1186
.LBE2654:
.LBB2655:
.LBI2640:
	.loc 2 373 7 is_stmt 1 view .LVU1187
.LBB2649:
.LBB2642:
.LBI2642:
	.loc 2 394 7 view .LVU1188
.LBB2643:
# /usr/include/c++/16/bits/stl_vector.h:397: 	if (__p)
	.loc 2 397 2 is_stmt 0 view .LVU1189
	mov	rax, QWORD PTR 96[rsp]	# params$_M_start, %sfp
	test	rax, rax	# params$_M_start
	je	.L1	#,
.LVL204:
.LBB2644:
.LBI2644:
	.loc 2 394 7 is_stmt 1 view .LVU1190
.LBB2645:
.LBB2646:
.LBI2646:
	.loc 8 688 7 view .LVU1191
.LBB2647:
.LBI2647:
	.loc 6 167 7 view .LVU1192
.LBB2648:
# /usr/include/c++/16/bits/new_allocator.h:183: 	_GLIBCXX_OPERATOR_DELETE(_GLIBCXX_SIZED_DEALLOC(__p, __n));
	.loc 6 183 59 is_stmt 0 view .LVU1193
	mov	rsi, QWORD PTR 32[rsp]	#, %sfp
	mov	rdi, rax	#, params$_M_start
	call	"_ZdlPvm"@PLT	#
.LVL205:
	.loc 6 183 59 view .LVU1194
.LBE2648:
.LBE2647:
.LBE2646:
.LBE2645:
.LBE2644:
.LBE2643:
.LBE2642:
.LBE2649:
.LBB2650:
.LBI2650:
	.loc 2 139 14 is_stmt 1 view .LVU1195
.LBB2651:
.LBI2651:
	.loc 5 189 7 view .LVU1196
.LBB2652:
.LBI2652:
	.loc 6 104 7 view .LVU1197
.L1:
	.loc 6 104 7 is_stmt 0 view .LVU1198
.LBE2652:
.LBE2651:
.LBE2650:
.LBE2655:
.LBE3241:
# src/avx_analysis_code_ablations/opt9_abl_hand_vec_no_tile_ilp.cpp:209: }
	.loc 1 209 1 view .LVU1199
	mov	rax, QWORD PTR 40[rsp]	#, %sfp
	lea	rsp, -40[rbp]	#,
.LVL206:
	.loc 1 209 1 view .LVU1200
	pop	rbx	#
	pop	r12	#
	pop	r13	#
	pop	r14	#
	pop	r15	#
	pop	rbp	#
	.cfi_remember_state
	.cfi_def_cfa 7, 8
.LVL207:
	.loc 1 209 1 view .LVU1201
	ret	
.LVL208:
.L160:
	.cfi_restore_state
.LBB3242:
.LBB2466:
.LBB2460:
.LBB2453:
.LBB2448:
# /usr/include/c++/16/bits/stl_vector.h:106: 	: _M_start(), _M_finish(), _M_end_of_storage()
	.loc 2 106 29 view .LVU1202
	mov	QWORD PTR 208[rsp], 0	# %sfp,
.LBE2448:
.LBE2453:
.LBE2460:
.LBE2466:
.LBE3242:
# src/avx_analysis_code_ablations/opt9_abl_hand_vec_no_tile_ilp.cpp:37:     const int w = static_cast<int>(width);
	.loc 1 37 15 view .LVU1203
	mov	r15d, eax	# _1187, _716
# src/avx_analysis_code_ablations/opt9_abl_hand_vec_no_tile_ilp.cpp:38:     const int h = static_cast<int>(height);
	.loc 1 38 15 view .LVU1204
	mov	r13d, edx	# _2, _817
.LVL209:
	.loc 1 48 5 is_stmt 1 view .LVU1205
.LBB3243:
.LBB2633:
	.loc 2 988 7 view .LVU1206
.LBB2496:
	.loc 3 1058 7 view .LVU1207
	.loc 3 1058 7 is_stmt 0 view .LVU1208
.LBE2496:
.LBE2633:
.LBB2634:
	.loc 2 1008 7 is_stmt 1 view .LVU1209
.LBB2499:
	.loc 3 1058 7 view .LVU1210
	.loc 3 1058 7 is_stmt 0 view .LVU1211
.LBE2499:
.LBE2634:
	.loc 1 48 22 is_stmt 1 discriminator 5 view .LVU1212
.LBE3243:
.LBB3244:
.LBB2467:
.LBB2461:
.LBB2454:
.LBB2449:
# /usr/include/c++/16/bits/stl_vector.h:106: 	: _M_start(), _M_finish(), _M_end_of_storage()
	.loc 2 106 4 is_stmt 0 view .LVU1213
	xor	r12d, r12d	# __new_finish
.LBE2449:
.LBE2454:
.LBE2461:
.LBE2467:
.LBE3244:
.LBB3245:
# src/avx_analysis_code_ablations/opt9_abl_hand_vec_no_tile_ilp.cpp:48:     for (auto& sub : subapertures) {
	.loc 1 48 22 discriminator 6 view .LVU1214
	cmp	rcx, rsi	# SR.270, _648
	jne	.L5	#,
.LBE3245:
.LBB3246:
.LBB2468:
.LBB2462:
.LBB2455:
.LBB2450:
# /usr/include/c++/16/bits/stl_vector.h:106: 	: _M_start(), _M_finish(), _M_end_of_storage()
	.loc 2 106 4 view .LVU1215
	mov	QWORD PTR 96[rsp], 0	# %sfp,
.LVL210:
.L79:
	.loc 2 106 4 view .LVU1216
.LBE2450:
.LBE2455:
.LBE2462:
.LBE2468:
.LBE3246:
.LBB3247:
.LBB2708:
.LBB2688:
.LBB2686:
# /usr/include/c++/16/bits/stl_vector.h:409: 	this->_M_impl._M_end_of_storage = this->_M_impl._M_start + __n;
	.loc 2 409 59 view .LVU1217
	mov	QWORD PTR 24[rsp], 0	# %sfp,
.LBB2684:
.LBB2682:
# /usr/include/c++/16/bits/stl_vector.h:389: 	return __n != 0 ? _Tr::allocate(_M_impl, __n) : pointer();
	.loc 2 389 58 discriminator 3 view .LVU1218
	mov	QWORD PTR 64[rsp], 0	# %sfp,
	jmp	.L18	#
.LVL211:
	.p2align 4,,10
	.p2align 3
.L162:
	.loc 2 389 58 discriminator 3 view .LVU1219
.LBE2682:
.LBE2684:
.LBE2686:
.LBE2688:
.LBE2708:
.LBE3247:
.LBB3248:
.LBB3173:
.LBB3172:
.LBB3148:
	.loc 1 155 13 is_stmt 1 view .LVU1220
.LBB3136:
	mov	r10d, DWORD PTR 176[rsp]	# x_stop_268, %sfp
	cmp	r10d, 7	# x_stop_268,
	jg	.L82	#,
.LVL212:
	.loc 1 155 13 is_stmt 0 view .LVU1221
.LBE3136:
	.loc 1 179 13 is_stmt 1 view .LVU1222
	.loc 1 180 13 view .LVU1223
.LBB3137:
	.loc 1 180 31 discriminator 2 view .LVU1224
	test	r10d, r10d	# x_stop_268
	jle	.L45	#,
.LBB3133:
# src/avx_analysis_code_ablations/opt9_abl_hand_vec_no_tile_ilp.cpp:181:                 float TL = p.SUB[ind_ltop + k];
	.loc 1 181 30 is_stmt 0 view .LVU1225
	mov	rax, QWORD PTR 160[rsp]	# ivtmp.526, %sfp
.LBE3133:
.LBE3137:
# src/avx_analysis_code_ablations/opt9_abl_hand_vec_no_tile_ilp.cpp:98:             size_t ind_ltop = ((y + p.sy) * width + (p.x_begin + p.sx)) * 3;
	.loc 1 98 20 view .LVU1226
	mov	QWORD PTR 216[rsp], r14	# %sfp, ivtmp.515
.LBB3138:
.LBB3134:
# src/avx_analysis_code_ablations/opt9_abl_hand_vec_no_tile_ilp.cpp:181:                 float TL = p.SUB[ind_ltop + k];
	.loc 1 181 30 view .LVU1227
	mov	rdi, QWORD PTR 40[rax]	# _114, MEM[(const unsigned char * *)_1247 + 40B]
.LBE3134:
.LBE3138:
# src/avx_analysis_code_ablations/opt9_abl_hand_vec_no_tile_ilp.cpp:101:             size_t ind_rbot = ind_lbot + 3;
	.loc 1 101 20 view .LVU1228
	mov	rax, QWORD PTR 184[rsp]	# ivtmp.518, %sfp
	mov	QWORD PTR 208[rsp], rax	# %sfp, ivtmp.518
.LBB3139:
# src/avx_analysis_code_ablations/opt9_abl_hand_vec_no_tile_ilp.cpp:180:             for (int k = 0; k < remaining; ++k) {
	.loc 1 180 22 view .LVU1229
	xor	eax, eax	# tmp.318
	jmp	.L46	#
.LVL213:
.L82:
	.loc 1 180 22 view .LVU1230
	mov	rdi, QWORD PTR 160[rsp]	# ivtmp.526, %sfp
.LBE3139:
# src/avx_analysis_code_ablations/opt9_abl_hand_vec_no_tile_ilp.cpp:101:             size_t ind_rbot = ind_lbot + 3;
	.loc 1 101 20 view .LVU1231
	mov	QWORD PTR 208[rsp], rax	# %sfp, ivtmp.518
# src/avx_analysis_code_ablations/opt9_abl_hand_vec_no_tile_ilp.cpp:107:             int x = 0;
	.loc 1 107 17 view .LVU1232
	xor	eax, eax	# x
.LVL214:
# src/avx_analysis_code_ablations/opt9_abl_hand_vec_no_tile_ilp.cpp:98:             size_t ind_ltop = ((y + p.sy) * width + (p.x_begin + p.sx)) * 3;
	.loc 1 98 20 view .LVU1233
	mov	QWORD PTR 216[rsp], r14	# %sfp, ivtmp.515
	mov	rdi, QWORD PTR 40[rdi]	# _114, MEM[(const unsigned char * *)_1247 + 40B]
	jmp	.L44	#
.LVL215:
.L84:
.LBB3140:
.LBB3135:
# src/avx_analysis_code_ablations/opt9_abl_hand_vec_no_tile_ilp.cpp:181:                 float TL = p.SUB[ind_ltop + k];
	.loc 1 181 30 view .LVU1234
	xor	r15d, r15d	# niters_vector_mult_vf.317
	mov	r9d, r10d	# niters.355, remaining
.LBE3135:
# src/avx_analysis_code_ablations/opt9_abl_hand_vec_no_tile_ilp.cpp:180:             for (int k = 0; k < remaining; ++k) {
	.loc 1 180 22 view .LVU1235
	xor	eax, eax	# tmp.318
	sub	r9d, r15d	# niters.355, niters_vector_mult_vf.317
	lea	ecx, -1[r9]	# _782,
	cmp	ecx, 14	# _782,
	ja	.L164	#,
.LVL216:
.L85:
	.loc 1 180 22 view .LVU1236
	xor	ecx, ecx	# niters_vector_mult_vf.357
	jmp	.L51	#
.LVL217:
.L2:
	.loc 1 180 22 view .LVU1237
.LBE3140:
.LBE3148:
.LBE3172:
.LBE3173:
.LBE3248:
.LBB3249:
.LBB2437:
.LBB2434:
.LBB2431:
.LBB2357:
.LBB2358:
.LBI2358:
	.loc 2 589 7 is_stmt 1 view .LVU1238
.LBB2359:
.LBI2359:
	.loc 2 2203 7 view .LVU1239
.LBB2360:
.LBB2361:
.LBI2361:
	.loc 5 172 7 view .LVU1240
.LBB2362:
.LBI2362:
	.loc 6 92 7 view .LVU1241
	.loc 6 92 7 is_stmt 0 view .LVU1242
.LBE2362:
.LBE2361:
.LBB2363:
.LBI2363:
	.loc 5 189 7 is_stmt 1 view .LVU1243
.LBB2364:
.LBI2364:
	.loc 6 104 7 view .LVU1244
.LBE2364:
.LBE2363:
# /usr/include/c++/16/bits/stl_vector.h:2205: 	if (__n > _S_max_size(_Tp_alloc_type(__a)))
	.loc 2 2205 2 is_stmt 0 discriminator 3 view .LVU1245
	cmp	QWORD PTR 192[rsp], 0	# %sfp,
	js	.L144	#,
.LBE2360:
.LBE2359:
.LBB2366:
.LBB2367:
.LBB2368:
.LBB2369:
.LBB2370:
.LBB2371:
.LBB2372:
.LBB2373:
# /usr/include/c++/16/bits/new_allocator.h:162: 	  return static_cast<_Tp*>(_GLIBCXX_OPERATOR_NEW(__n * sizeof(_Tp)));
	.loc 6 162 68 view .LVU1246
	mov	rdi, rsi	#, _5
	mov	QWORD PTR 208[rsp], rcx	# %sfp, SR.270
.LVL218:
	.loc 6 162 68 view .LVU1247
.LBE2373:
.LBE2372:
.LBE2371:
.LBE2370:
.LBE2369:
.LBE2368:
.LBE2367:
.LBI2366:
	.loc 2 339 7 is_stmt 1 view .LVU1248
.LBB2382:
.LBI2382:
	.loc 2 152 2 view .LVU1249
.LBB2383:
.LBI2383:
	.loc 5 172 7 view .LVU1250
.LBB2384:
.LBI2384:
	.loc 6 92 7 view .LVU1251
	.loc 6 92 7 is_stmt 0 view .LVU1252
.LBE2384:
.LBE2383:
.LBB2385:
.LBI2385:
	.loc 2 105 2 is_stmt 1 view .LVU1253
	.loc 2 105 2 is_stmt 0 view .LVU1254
.LBE2385:
.LBE2382:
.LBB2386:
.LBI2367:
	.loc 2 405 7 is_stmt 1 view .LVU1255
.LBB2379:
.LBB2378:
.LBI2369:
	.loc 2 386 7 view .LVU1256
.LBB2377:
.LBB2376:
.LBI2371:
	.loc 8 637 7 view .LVU1257
.LBB2375:
.LBI2372:
	.loc 6 129 7 view .LVU1258
	mov	r15, rsi	# _5, _5
	vmovss	DWORD PTR 184[rsp], xmm4	# %sfp, focus
.LEHB4:
.LBB2374:
# /usr/include/c++/16/bits/new_allocator.h:162: 	  return static_cast<_Tp*>(_GLIBCXX_OPERATOR_NEW(__n * sizeof(_Tp)));
	.loc 6 162 68 is_stmt 0 view .LVU1259
	call	"_Znwm"@PLT	#
.LVL219:
.LEHE4:
	.loc 6 162 68 view .LVU1260
	mov	rdi, rax	# tmp1634,
.LVL220:
	.loc 6 162 68 view .LVU1261
.LBE2374:
.LBE2375:
.LBE2376:
.LBE2377:
.LBE2378:
.LBE2379:
.LBE2386:
.LBE2366:
.LBB2389:
.LBB2390:
.LBB2391:
.LBB2392:
.LBB2393:
.LBB2394:
# /usr/include/c++/16/bits/stl_uninitialized.h:577: 		      __builtin_memset(__dest, (unsigned char)__x, __n);
	.loc 12 577 25 view .LVU1262
	xor	esi, esi	#
.LBE2394:
.LBE2393:
.LBE2392:
.LBE2391:
.LBE2390:
.LBE2389:
.LBB2407:
.LBB2387:
.LBB2380:
# /usr/include/c++/16/bits/stl_vector.h:409: 	this->_M_impl._M_end_of_storage = this->_M_impl._M_start + __n;
	.loc 2 409 59 view .LVU1263
	lea	r12, [rax+r15]	# _521,
.LVL221:
	.loc 2 409 59 view .LVU1264
.LBE2380:
.LBE2387:
.LBE2407:
.LBB2408:
.LBI2389:
	.loc 2 1987 7 is_stmt 1 view .LVU1265
.LBB2404:
.LBI2390:
	.loc 12 771 5 view .LVU1266
.LBB2401:
.LBI2391:
	.loc 12 550 5 view .LVU1267
	.loc 12 550 5 is_stmt 0 view .LVU1268
.LBE2401:
.LBE2404:
.LBE2408:
.LBB2409:
.LBB2388:
.LBB2381:
# /usr/include/c++/16/bits/stl_vector.h:409: 	this->_M_impl._M_end_of_storage = this->_M_impl._M_start + __n;
	.loc 2 409 59 view .LVU1269
	mov	rdx, r15	# _5, _5
.LBE2381:
.LBE2388:
.LBE2409:
.LBB2410:
.LBB2405:
.LBB2402:
.LBB2399:
.LBB2397:
.LBB2395:
# /usr/include/c++/16/bits/stl_uninitialized.h:577: 		      __builtin_memset(__dest, (unsigned char)__x, __n);
	.loc 12 577 25 view .LVU1270
	call	"memset"@PLT	#
.LVL222:
	.loc 12 577 25 view .LVU1271
.LBE2395:
.LBE2397:
.LBE2399:
.LBE2402:
.LBE2405:
.LBE2410:
.LBE2358:
.LBE2357:
.LBE2431:
.LBE2434:
.LBE2437:
.LBE3249:
.LBB3250:
.LBB2489:
# /usr/include/c++/16/bits/vector.tcc:75:       if (this->capacity() < __n)
	.loc 7 75 7 discriminator 1 view .LVU1272
	mov	rcx, QWORD PTR 208[rsp]	# SR.270, %sfp
	vmovss	xmm4, DWORD PTR 184[rsp]	# focus, %sfp
.LBE2489:
.LBE3250:
.LBB3251:
.LBB2438:
.LBB2435:
.LBB2432:
.LBB2429:
.LBB2413:
.LBB2411:
.LBB2406:
.LBB2403:
.LBB2400:
.LBB2398:
.LBB2396:
# /usr/include/c++/16/bits/stl_uninitialized.h:577: 		      __builtin_memset(__dest, (unsigned char)__x, __n);
	.loc 12 577 25 view .LVU1273
	mov	rdi, rax	# tmp1634,
.LVL223:
	.loc 12 577 25 view .LVU1274
.LBE2396:
.LBE2398:
.LBE2400:
.LBE2403:
.LBE2406:
.LBE2411:
.LBE2413:
.LBB2414:
.LBI2414:
	.loc 2 128 2 is_stmt 1 view .LVU1275
.LBB2415:
.LBB2416:
.LBI2416:
	.loc 2 105 2 view .LVU1276
	.loc 2 105 2 is_stmt 0 view .LVU1277
.LBE2416:
.LBB2417:
.LBI2417:
	.loc 2 119 2 is_stmt 1 view .LVU1278
.LBB2418:
# /usr/include/c++/16/bits/stl_vector.h:121: 	  _M_start = __x._M_start;
	.loc 2 121 13 is_stmt 0 view .LVU1279
	mov	rax, QWORD PTR 40[rsp]	# <retval>, %sfp
.LVL224:
	.loc 2 121 13 view .LVU1280
	mov	QWORD PTR 16[rax], rdi	# MEM[(struct _Vector_impl_data *)output_212(D) + 16B]._M_start, tmp1634
# /usr/include/c++/16/bits/stl_vector.h:122: 	  _M_finish = __x._M_finish;
	.loc 2 122 14 view .LVU1281
	mov	QWORD PTR 24[rax], r12	# MEM[(struct _Vector_impl_data *)output_212(D) + 16B]._M_finish, _521
# /usr/include/c++/16/bits/stl_vector.h:123: 	  _M_end_of_storage = __x._M_end_of_storage;
	.loc 2 123 22 view .LVU1282
	mov	QWORD PTR 32[rax], r12	# MEM[(struct _Vector_impl_data *)output_212(D) + 16B]._M_end_of_storage, _521
.LVL225:
	.loc 2 123 22 view .LVU1283
.LBE2418:
.LBE2417:
.LBE2415:
.LBE2414:
.LBB2419:
.LBI2419:
	.loc 2 790 7 is_stmt 1 view .LVU1284
.LBB2420:
.LBI2420:
	.loc 2 307 7 view .LVU1285
	.loc 2 307 7 is_stmt 0 view .LVU1286
.LBE2420:
.LBB2421:
.LBI2421:
	.loc 8 1082 5 is_stmt 1 view .LVU1287
	.loc 8 1082 5 is_stmt 0 view .LVU1288
.LBE2421:
.LBB2422:
.LBI2422:
	.loc 2 373 7 is_stmt 1 view .LVU1289
.LBB2423:
.LBB2424:
.LBI2424:
	.loc 2 394 7 view .LVU1290
	.loc 2 394 7 is_stmt 0 view .LVU1291
.LBE2424:
.LBE2423:
.LBB2425:
.LBI2425:
	.loc 2 139 14 is_stmt 1 view .LVU1292
.LBB2426:
.LBI2426:
	.loc 5 189 7 view .LVU1293
.LBB2427:
.LBI2427:
	.loc 6 104 7 view .LVU1294
	.loc 6 104 7 is_stmt 0 view .LVU1295
.LBE2427:
.LBE2426:
.LBE2425:
.LBE2422:
.LBE2419:
.LBE2429:
.LBE2432:
.LBE2435:
.LBE2438:
.LBE3251:
	.loc 1 46 5 is_stmt 1 view .LVU1296
.LBB3252:
	.loc 2 551 7 view .LVU1297
.LBB2469:
	.loc 2 321 7 view .LVU1298
.LBB2463:
	.loc 2 143 2 view .LVU1299
.LBB2456:
	.loc 5 168 7 view .LVU1300
.LBB2445:
	.loc 6 88 7 view .LVU1301
	.loc 6 88 7 is_stmt 0 view .LVU1302
.LBE2445:
.LBE2456:
.LBB2457:
	.loc 2 105 2 is_stmt 1 view .LVU1303
	.loc 2 105 2 is_stmt 0 view .LVU1304
.LBE2457:
.LBE2463:
.LBE2469:
.LBE3252:
	.loc 1 47 5 is_stmt 1 view .LVU1305
.LBB3253:
	.loc 2 1107 7 view .LVU1306
.LBB2474:
# /usr/include/c++/16/bits/stl_vector.h:1109: 	ptrdiff_t __dif = this->_M_impl._M_finish - this->_M_impl._M_start;
	.loc 2 1109 34 is_stmt 0 view .LVU1307
	mov	rax, QWORD PTR 8[rbx]	# _648, MEM[(const struct vector *)subapertures_207(D)].D.139286._M_impl.D.138633._M_finish
.LVL226:
	.loc 2 1109 34 view .LVU1308
.LBE2474:
.LBE3253:
.LBB3254:
	.loc 7 70 5 is_stmt 1 view .LVU1309
	.loc 7 70 5 is_stmt 0 view .LVU1310
.LBE3254:
.LBB3255:
.LBB2475:
# /usr/include/c++/16/bits/stl_vector.h:1109: 	ptrdiff_t __dif = this->_M_impl._M_finish - this->_M_impl._M_start;
	.loc 2 1109 34 view .LVU1311
	mov	QWORD PTR 216[rsp], rax	# %sfp, _648
.LBE2475:
.LBE3255:
.LBB3256:
.LBB2490:
# /usr/include/c++/16/bits/vector.tcc:75:       if (this->capacity() < __n)
	.loc 7 75 7 discriminator 1 view .LVU1312
	sub	rax, rcx	# _424, SR.270
.LVL227:
	.loc 7 75 7 discriminator 1 view .LVU1313
	mov	QWORD PTR 32[rsp], rax	# %sfp, _424
	jne	.L4	#,
.LBE2490:
.LBE3256:
.LBB3257:
.LBB2470:
.LBB2464:
.LBB2458:
.LBB2451:
# /usr/include/c++/16/bits/stl_vector.h:106: 	: _M_start(), _M_finish(), _M_end_of_storage()
	.loc 2 106 29 view .LVU1314
	mov	QWORD PTR 208[rsp], 0	# %sfp,
# /usr/include/c++/16/bits/stl_vector.h:106: 	: _M_start(), _M_finish(), _M_end_of_storage()
	.loc 2 106 4 view .LVU1315
	xor	r12d, r12d	# __new_finish
.LVL228:
	.loc 2 106 4 view .LVU1316
	jmp	.L8	#
.LVL229:
.L13:
	.loc 2 106 4 view .LVU1317
.LBE2451:
.LBE2458:
.LBE2464:
.LBE2470:
.LBE3257:
.LBB3258:
.LBB2635:
.LBB2629:
.LBB2627:
.LBB2526:
.LBI2526:
	.loc 7 565 7 is_stmt 1 view .LVU1318
.LBB2527:
.LBB2528:
.LBI2528:
	.loc 2 2192 7 view .LVU1319
.LBB2529:
.LBB2530:
.LBI2530:
	.loc 2 1107 7 view .LVU1320
.LBB2531:
# /usr/include/c++/16/bits/stl_vector.h:1109: 	ptrdiff_t __dif = this->_M_impl._M_finish - this->_M_impl._M_start;
	.loc 2 1109 44 is_stmt 0 view .LVU1321
	mov	r12, QWORD PTR 208[rsp]	# _591, %sfp
# /usr/include/c++/16/bits/stl_vector.h:1109: 	ptrdiff_t __dif = this->_M_impl._M_finish - this->_M_impl._M_start;
	.loc 2 1109 12 view .LVU1322
	movabs	rax, -6148914691236517205	# tmp881,
# /usr/include/c++/16/bits/stl_vector.h:1109: 	ptrdiff_t __dif = this->_M_impl._M_finish - this->_M_impl._M_start;
	.loc 2 1109 44 view .LVU1323
	sub	r12, QWORD PTR 96[rsp]	# _591, %sfp
.LVL230:
# /usr/include/c++/16/bits/stl_vector.h:1109: 	ptrdiff_t __dif = this->_M_impl._M_finish - this->_M_impl._M_start;
	.loc 2 1109 12 view .LVU1324
	mov	rdx, r12	# tmp879, _591
	sar	rdx, 4	# tmp879,
	imul	rdx, rax	# __dif_592, tmp881
.LVL231:
	.loc 2 1109 12 view .LVU1325
.LBE2531:
.LBE2530:
# /usr/include/c++/16/bits/stl_vector.h:2194: 	if (max_size() - size() < __n)
	.loc 2 2194 2 discriminator 2 view .LVU1326
	movabs	rax, 192153584101141162	# tmp882,
	cmp	rdx, rax	# __dif_592, tmp882
	je	.L145	#,
.LBB2532:
.LBB2533:
# /usr/include/c++/16/bits/stl_algobase.h:261:       if (__a < __b)
	.loc 10 261 7 view .LVU1327
	test	rdx, rdx	# __dif_592
	mov	eax, 1	# tmp1681,
	mov	QWORD PTR 72[rsp], rcx	# %sfp, SR.270
	cmovne	rax, rdx	# __dif_592,, _594
	mov	DWORD PTR 80[rsp], r11d	# %sfp, _21
	mov	DWORD PTR 88[rsp], esi	# %sfp, _17
.LBE2533:
.LBE2532:
# /usr/include/c++/16/bits/stl_vector.h:2197: 	const size_type __len = size() + (std::max)(size(), __n);
	.loc 2 2197 18 discriminator 3 view .LVU1328
	add	rax, rdx	# __len_595, __dif_592
# /usr/include/c++/16/bits/stl_vector.h:2198: 	return (__len < size() || __len > max_size()) ? max_size() : __len;
	.loc 2 2198 25 discriminator 3 view .LVU1329
	movabs	rdx, 192153584101141162	# tmp1682,
	mov	DWORD PTR 136[rsp], r8d	# %sfp, _10
	cmp	rax, rdx	# __len_595, tmp1682
	mov	DWORD PTR 144[rsp], r10d	# %sfp, _9
.LVL232:
.LBB2534:
.LBI2532:
	.loc 10 256 5 is_stmt 1 view .LVU1330
	.loc 10 256 5 is_stmt 0 view .LVU1331
.LBE2534:
.LBE2529:
.LBE2528:
.LBB2537:
.LBI2537:
	.loc 2 386 7 is_stmt 1 view .LVU1332
.LBB2538:
.LBB2539:
.LBI2539:
	.loc 8 637 7 view .LVU1333
.LBB2540:
.LBI2540:
	.loc 6 129 7 view .LVU1334
	.loc 6 129 7 is_stmt 0 view .LVU1335
.LBE2540:
.LBE2539:
.LBE2538:
.LBE2537:
.LBB2553:
.LBB2535:
# /usr/include/c++/16/bits/stl_vector.h:2198: 	return (__len < size() || __len > max_size()) ? max_size() : __len;
	.loc 2 2198 25 discriminator 3 view .LVU1336
	cmova	rax, rdx	# __len_595,, __len_595, tmp1682
	vmovss	DWORD PTR 64[rsp], xmm4	# %sfp, focus
	vmovss	DWORD PTR 112[rsp], xmm5	# %sfp, _16
.LBE2535:
.LBE2553:
.LBB2554:
.LBB2550:
.LBB2547:
.LBB2544:
.LBB2541:
# /usr/include/c++/16/bits/new_allocator.h:162: 	  return static_cast<_Tp*>(_GLIBCXX_OPERATOR_NEW(__n * sizeof(_Tp)));
	.loc 6 162 68 view .LVU1337
	lea	rax, [rax+rax*2]	# _612,
	vmovss	DWORD PTR 120[rsp], xmm0	# %sfp, _15
	sal	rax, 4	# _612,
	vmovss	DWORD PTR 128[rsp], xmm1	# %sfp, _14
	mov	rdi, rax	#, tmp889
	mov	QWORD PTR 160[rsp], rax	# %sfp, tmp889
	vmovss	DWORD PTR 132[rsp], xmm2	# %sfp, _13
.LEHB5:
	call	"_Znwm"@PLT	#
.LVL233:
.LEHE5:
	.loc 6 162 68 view .LVU1338
.LBE2541:
.LBE2544:
.LBE2547:
.LBE2550:
.LBE2554:
.LBB2555:
.LBB2556:
.LBB2557:
.LBB2558:
# /usr/include/c++/16/bits/new_allocator.h:203: 	{ ::new((void *)__p) _Up(std::forward<_Args>(__args)...); }
	.loc 6 203 4 discriminator 1 view .LVU1339
	mov	esi, DWORD PTR 88[rsp]	# _17, %sfp
	vmovss	xmm0, DWORD PTR 120[rsp]	# _15, %sfp
.LBE2558:
.LBE2557:
.LBE2556:
.LBB2571:
.LBB2572:
.LBB2573:
# /usr/include/c++/16/bits/stl_uninitialized.h:1382:       if (__count > 0)
	.loc 12 1382 7 view .LVU1340
	test	r12, r12	# _591
.LBE2573:
.LBE2572:
.LBE2571:
.LBE2555:
.LBB2620:
.LBB2551:
.LBB2548:
.LBB2545:
.LBB2542:
# /usr/include/c++/16/bits/new_allocator.h:162: 	  return static_cast<_Tp*>(_GLIBCXX_OPERATOR_NEW(__n * sizeof(_Tp)));
	.loc 6 162 68 view .LVU1341
	mov	QWORD PTR 168[rsp], rax	# %sfp, _613
.LVL234:
	.loc 6 162 68 view .LVU1342
.LBE2542:
.LBE2545:
.LBE2548:
.LBE2551:
.LBE2620:
.LBB2621:
.LBB2583:
.LBI2583:
	.loc 2 1865 2 is_stmt 1 view .LVU1343
	.loc 2 1865 2 is_stmt 0 view .LVU1344
.LBE2583:
.LBB2584:
.LBI2556:
	.loc 8 705 2 is_stmt 1 view .LVU1345
.LBB2565:
.LBI2557:
	.loc 6 201 2 view .LVU1346
.LBB2559:
# /usr/include/c++/16/bits/new_allocator.h:203: 	{ ::new((void *)__p) _Up(std::forward<_Args>(__args)...); }
	.loc 6 203 4 is_stmt 0 discriminator 1 view .LVU1347
	vmovss	xmm2, DWORD PTR 132[rsp]	# _13, %sfp
	mov	r10d, DWORD PTR 144[rsp]	# _9, %sfp
	mov	DWORD PTR 28[rax+r12], ebx	# _600->x_end, _6
.LBE2559:
.LBE2565:
.LBE2584:
.LBE2621:
.LBB2622:
.LBB2552:
.LBB2549:
.LBB2546:
.LBB2543:
# /usr/include/c++/16/bits/new_allocator.h:162: 	  return static_cast<_Tp*>(_GLIBCXX_OPERATOR_NEW(__n * sizeof(_Tp)));
	.loc 6 162 68 view .LVU1348
	mov	rdi, rax	# _613,
.LBE2543:
.LBE2546:
.LBE2549:
.LBE2552:
.LBE2622:
.LBB2623:
.LBB2585:
.LBB2566:
.LBB2560:
# /usr/include/c++/16/bits/new_allocator.h:203: 	{ ::new((void *)__p) _Up(std::forward<_Args>(__args)...); }
	.loc 6 203 4 discriminator 1 view .LVU1349
	mov	r8d, DWORD PTR 136[rsp]	# _10, %sfp
	vinsertps	xmm0, xmm0, DWORD PTR 112[rsp], 0x10	# tmp892, _15, %sfp
	mov	DWORD PTR 24[rax+r12], esi	# _600->x_begin, _17
.LBE2560:
.LBE2566:
.LBE2585:
.LBB2586:
.LBB2578:
.LBB2574:
# /usr/include/c++/16/bits/stl_uninitialized.h:1382:       if (__count > 0)
	.loc 12 1382 7 view .LVU1350
	mov	r9d, 0	# tmp1613,
.LBE2574:
.LBE2578:
.LBE2586:
.LBB2587:
.LBB2567:
.LBB2561:
# /usr/include/c++/16/bits/new_allocator.h:203: 	{ ::new((void *)__p) _Up(std::forward<_Args>(__args)...); }
	.loc 6 203 4 discriminator 1 view .LVU1351
	vinsertps	xmm2, xmm2, DWORD PTR 128[rsp], 0x10	# tmp893, _13, %sfp
	mov	r11d, DWORD PTR 80[rsp]	# _21, %sfp
	mov	DWORD PTR [rax+r12], r10d	# _600->sx, _9
	mov	rsi, QWORD PTR 184[rsp]	# _413, %sfp
.LBE2561:
.LBE2567:
.LBE2587:
.LBB2588:
.LBB2579:
.LBB2575:
# /usr/include/c++/16/bits/stl_uninitialized.h:1382:       if (__count > 0)
	.loc 12 1382 7 view .LVU1352
	mov	rcx, QWORD PTR 72[rsp]	# SR.270, %sfp
.LBE2575:
.LBE2579:
.LBE2588:
.LBB2589:
.LBB2568:
.LBB2562:
# /usr/include/c++/16/bits/new_allocator.h:203: 	{ ::new((void *)__p) _Up(std::forward<_Args>(__args)...); }
	.loc 6 203 4 discriminator 1 view .LVU1353
	mov	DWORD PTR 4[rax+r12], r8d	# _600->sy, _10
	vmovlhps	xmm2, xmm2, xmm0	# _434, tmp893, tmp892
	mov	DWORD PTR 32[rax+r12], r11d	# _600->y_begin, _21
.LBE2562:
.LBE2568:
.LBE2589:
.LBB2590:
.LBB2580:
.LBB2576:
# /usr/include/c++/16/bits/stl_uninitialized.h:1382:       if (__count > 0)
	.loc 12 1382 7 view .LVU1354
	vmovss	xmm4, DWORD PTR 64[rsp]	# focus, %sfp
.LBE2576:
.LBE2580:
.LBE2590:
.LBB2591:
.LBB2569:
.LBB2563:
# /usr/include/c++/16/bits/new_allocator.h:203: 	{ ::new((void *)__p) _Up(std::forward<_Args>(__args)...); }
	.loc 6 203 4 discriminator 1 view .LVU1355
	mov	DWORD PTR 36[rax+r12], r14d	# _600->y_end, _494
	mov	QWORD PTR 40[rax+r12], rsi	# MEM <const unsigned char *> [(struct SubParams *)_600 + 40B], _413
.LVL235:
	.loc 6 203 4 discriminator 1 view .LVU1356
.LBE2563:
.LBE2569:
.LBE2591:
.LBB2592:
.LBI2571:
	.loc 12 1404 5 is_stmt 1 view .LVU1357
.LBB2581:
.LBI2572:
	.loc 12 1377 5 view .LVU1358
	.loc 12 1377 5 is_stmt 0 view .LVU1359
.LBE2581:
.LBE2592:
.LBB2593:
.LBB2570:
.LBB2564:
# /usr/include/c++/16/bits/new_allocator.h:203: 	{ ::new((void *)__p) _Up(std::forward<_Args>(__args)...); }
	.loc 6 203 4 discriminator 1 view .LVU1360
	vmovups	XMMWORD PTR 8[rax+r12], xmm2	# MEM <vector(4) float> [(float *)_600 + 8B], _434
.LBE2564:
.LBE2570:
.LBE2593:
.LBB2594:
.LBB2582:
.LBB2577:
# /usr/include/c++/16/bits/stl_uninitialized.h:1382:       if (__count > 0)
	.loc 12 1382 7 view .LVU1361
	je	.L15	#,
# /usr/include/c++/16/bits/stl_uninitialized.h:1394: 	  __builtin_memcpy(__result, __first, __count * sizeof(_Tp));
	.loc 12 1394 20 view .LVU1362
	mov	rsi, QWORD PTR 96[rsp]	#, %sfp
	mov	rdx, r12	#, _591
	mov	QWORD PTR 184[rsp], rcx	# %sfp, SR.270
	vmovss	DWORD PTR 144[rsp], xmm4	# %sfp, focus
.LVL236:
	.loc 12 1394 20 view .LVU1363
	call	"memcpy"@PLT	#
.LVL237:
	.loc 12 1394 20 view .LVU1364
	vmovss	xmm4, DWORD PTR 144[rsp]	# focus, %sfp
	mov	rcx, QWORD PTR 184[rsp]	# SR.270, %sfp
	xor	r9d, r9d	# tmp1613
.L15:
.LVL238:
	.loc 12 1394 20 view .LVU1365
.LBE2577:
.LBE2582:
.LBE2594:
# /usr/include/c++/16/bits/vector.tcc:610: 	    ++__new_finish;
	.loc 7 610 6 view .LVU1366
	mov	rax, QWORD PTR 168[rsp]	# _613, %sfp
	lea	r12, 48[rax+r12]	# __new_finish,
.LVL239:
.LBB2595:
.LBI2595:
	.loc 2 1870 2 is_stmt 1 view .LVU1367
.LBB2596:
# /usr/include/c++/16/bits/stl_vector.h:1872: 	  if (_M_storage)
	.loc 2 1872 4 is_stmt 0 view .LVU1368
	mov	rax, QWORD PTR 96[rsp]	# params$_M_start, %sfp
	test	rax, rax	# params$_M_start
	je	.L16	#,
.LBE2596:
.LBE2595:
# /usr/include/c++/16/bits/vector.tcc:648: 	__guard._M_len = this->_M_impl._M_end_of_storage - __old_start;
	.loc 7 648 51 view .LVU1369
	mov	rsi, QWORD PTR 208[rsp]	# params$_M_end_of_storage, %sfp
.LBB2618:
.LBB2616:
.LBB2597:
.LBB2598:
.LBB2599:
.LBB2600:
.LBB2601:
.LBB2602:
.LBB2603:
# /usr/include/c++/16/bits/new_allocator.h:183: 	_GLIBCXX_OPERATOR_DELETE(_GLIBCXX_SIZED_DEALLOC(__p, __n));
	.loc 6 183 59 view .LVU1370
	mov	rdi, rax	#, params$_M_start
	mov	QWORD PTR 184[rsp], rcx	# %sfp, SR.270
.LVL240:
	.loc 6 183 59 view .LVU1371
.LBE2603:
.LBE2602:
.LBE2601:
.LBE2600:
.LBE2599:
.LBE2598:
.LBI2597:
	.loc 2 394 7 is_stmt 1 view .LVU1372
.LBB2613:
.LBB2611:
.LBI2599:
	.loc 2 394 7 view .LVU1373
.LBB2609:
.LBB2607:
.LBI2601:
	.loc 8 688 7 view .LVU1374
.LBB2605:
.LBI2602:
	.loc 6 167 7 view .LVU1375
	vmovss	DWORD PTR 144[rsp], xmm4	# %sfp, focus
.LBE2605:
.LBE2607:
.LBE2609:
.LBE2611:
.LBE2613:
.LBE2597:
.LBE2616:
.LBE2618:
# /usr/include/c++/16/bits/vector.tcc:648: 	__guard._M_len = this->_M_impl._M_end_of_storage - __old_start;
	.loc 7 648 51 is_stmt 0 view .LVU1376
	sub	rsi, rax	# params$_M_end_of_storage, params$_M_start
.LBB2619:
.LBB2617:
.LBB2615:
.LBB2614:
.LBB2612:
.LBB2610:
.LBB2608:
.LBB2606:
.LBB2604:
# /usr/include/c++/16/bits/new_allocator.h:183: 	_GLIBCXX_OPERATOR_DELETE(_GLIBCXX_SIZED_DEALLOC(__p, __n));
	.loc 6 183 59 view .LVU1377
	call	"_ZdlPvm"@PLT	#
.LVL241:
	vmovss	xmm4, DWORD PTR 144[rsp]	# focus, %sfp
	mov	rcx, QWORD PTR 184[rsp]	# SR.270, %sfp
.LVL242:
	.loc 6 183 59 view .LVU1378
	xor	r9d, r9d	# tmp1613
.LVL243:
.L16:
	.loc 6 183 59 view .LVU1379
.LBE2604:
.LBE2606:
.LBE2608:
.LBE2610:
.LBE2612:
.LBE2614:
.LBE2615:
.LBE2617:
.LBE2619:
.LBE2623:
# /usr/include/c++/16/bits/vector.tcc:655:       this->_M_impl._M_end_of_storage = __new_start + __len;
	.loc 7 655 53 view .LVU1380
	mov	rsi, QWORD PTR 168[rsp]	# _613, %sfp
	mov	rax, QWORD PTR 160[rsp]	# tmp889, %sfp
	add	rax, rsi	# tmp889, _613
.LVL244:
# /usr/include/c++/16/bits/vector.tcc:653:       this->_M_impl._M_start = __new_start;
	.loc 7 653 30 view .LVU1381
	mov	QWORD PTR 96[rsp], rsi	# %sfp, _613
.LVL245:
# /usr/include/c++/16/bits/vector.tcc:655:       this->_M_impl._M_end_of_storage = __new_start + __len;
	.loc 7 655 53 view .LVU1382
	mov	QWORD PTR 208[rsp], rax	# %sfp, tmp889
.LVL246:
	.loc 7 655 53 view .LVU1383
	jmp	.L12	#
.LVL247:
.L80:
	.loc 7 655 53 view .LVU1384
.LBE2527:
.LBE2526:
.LBE2627:
.LBE2629:
.LBE2635:
.LBE3258:
.LBB3259:
.LBB2764:
.LBB2744:
.LBB2742:
.LBB2740:
.LBB2738:
# /usr/include/c++/16/bits/stl_vector.h:389: 	return __n != 0 ? _Tr::allocate(_M_impl, __n) : pointer();
	.loc 2 389 58 discriminator 3 view .LVU1385
	xor	ebx, ebx	# _356
	jmp	.L23	#
.LVL248:
.L161:
	.loc 2 389 58 discriminator 3 view .LVU1386
.LBE2738:
.LBE2740:
.LBE2742:
.LBE2744:
.LBE2764:
.LBE3259:
.LBB3260:
	.loc 1 91 31 is_stmt 1 discriminator 5 view .LVU1387
# src/avx_analysis_code_ablations/opt9_abl_hand_vec_no_tile_ilp.cpp:91:     for (const SubParams& p : params) {
	.loc 1 91 31 is_stmt 0 discriminator 6 view .LVU1388
	cmp	QWORD PTR 96[rsp], r12	# %sfp, __new_finish
	je	.L36	#,
.LBE3260:
.LBB3261:
.LBB2885:
.LBB2852:
.LBB2845:
.LBB2838:
.LBB2832:
# /usr/include/c++/16/bits/stl_vector.h:389: 	return __n != 0 ? _Tr::allocate(_M_impl, __n) : pointer();
	.loc 2 389 58 discriminator 3 view .LVU1389
	xor	edi, edi	# _188
	jmp	.L37	#
.LVL249:
.L151:
	.loc 2 389 58 discriminator 3 view .LVU1390
	vzeroupper
.LVL250:
	jmp	.L55	#
.LVL251:
.L41:
	.loc 2 389 58 discriminator 3 view .LVU1391
.LBE2832:
.LBE2838:
.LBE2845:
.LBE2852:
.LBE2885:
.LBE3261:
.LBB3262:
	.loc 1 191 23 is_stmt 1 discriminator 2 view .LVU1392
	test	r13d, r13d	# _2
	jle	.L73	#,
	mov	rax, QWORD PTR 104[rsp]	# _716, %sfp
	add	rax, rax	# tmp1610, _716
	test	r15d, r15d	# _1187
	jg	.L40	#,
	jmp	.L73	#
.LVL252:
	.p2align 4,,10
	.p2align 3
.L26:
	.loc 1 191 23 is_stmt 0 discriminator 2 view .LVU1393
.LBE3262:
	.loc 1 89 5 is_stmt 1 view .LVU1394
.LBB3263:
	.loc 5 168 7 view .LVU1395
.LBB2797:
	.loc 6 88 7 view .LVU1396
	.loc 6 88 7 is_stmt 0 view .LVU1397
.LBE2797:
.LBE3263:
.LBB3264:
	.loc 2 589 7 is_stmt 1 view .LVU1398
.LBB2886:
	.loc 2 2203 7 view .LVU1399
.LBB2809:
.LBB2807:
	.loc 5 172 7 view .LVU1400
.LBB2803:
	.loc 6 92 7 view .LVU1401
	.loc 6 92 7 is_stmt 0 view .LVU1402
.LBE2803:
.LBE2807:
.LBB2808:
	.loc 5 189 7 is_stmt 1 view .LVU1403
.LBB2806:
	.loc 6 104 7 view .LVU1404
.LBE2806:
.LBE2808:
# /usr/include/c++/16/bits/stl_vector.h:2205: 	if (__n > _S_max_size(_Tp_alloc_type(__a)))
	.loc 2 2205 2 is_stmt 0 discriminator 3 view .LVU1405
	mov	rax, QWORD PTR 192[rsp]	# _5, %sfp
	shr	rax, 61	# _5,
	jne	.L34	#,
.LVL253:
	.loc 2 2205 2 discriminator 3 view .LVU1406
.LBE2809:
.LBE2886:
.LBB2887:
	.loc 2 339 7 is_stmt 1 view .LVU1407
.LBB2853:
	.loc 2 152 2 view .LVU1408
.LBB2817:
	.loc 5 172 7 view .LVU1409
.LBB2815:
	.loc 6 92 7 view .LVU1410
	.loc 6 92 7 is_stmt 0 view .LVU1411
.LBE2815:
.LBE2817:
.LBB2818:
	.loc 2 105 2 is_stmt 1 view .LVU1412
	.loc 2 105 2 is_stmt 0 view .LVU1413
.LBE2818:
.LBE2853:
.LBB2854:
	.loc 2 405 7 is_stmt 1 view .LVU1414
.LBB2846:
.LBB2839:
	.loc 2 386 7 view .LVU1415
.LBB2833:
# /usr/include/c++/16/bits/stl_vector.h:389: 	return __n != 0 ? _Tr::allocate(_M_impl, __n) : pointer();
	.loc 2 389 18 is_stmt 0 view .LVU1416
	cmp	QWORD PTR 56[rsp], 0	# %sfp,
	jne	.L35	#,
.LVL254:
	.loc 2 389 18 view .LVU1417
.LBE2833:
.LBE2839:
.LBE2846:
.LBE2854:
.LBE2887:
.LBE3264:
.LBB3265:
	.loc 1 91 31 is_stmt 1 discriminator 5 view .LVU1418
# src/avx_analysis_code_ablations/opt9_abl_hand_vec_no_tile_ilp.cpp:91:     for (const SubParams& p : params) {
	.loc 1 91 31 is_stmt 0 discriminator 6 view .LVU1419
	cmp	QWORD PTR 96[rsp], r12	# %sfp, __new_finish
	je	.L39	#,
.LBE3265:
.LBB3266:
.LBB2888:
.LBB2855:
.LBB2847:
.LBB2840:
.LBB2834:
# /usr/include/c++/16/bits/stl_vector.h:389: 	return __n != 0 ? _Tr::allocate(_M_impl, __n) : pointer();
	.loc 2 389 58 discriminator 3 view .LVU1420
	xor	edi, edi	# _188
	jmp	.L37	#
.LVL255:
.L76:
	.loc 2 389 58 discriminator 3 view .LVU1421
.LBE2834:
.LBE2840:
.LBE2847:
.LBE2855:
.LBE2888:
.LBE3266:
.LBB3267:
# src/avx_analysis_code_ablations/opt9_abl_hand_vec_no_tile_ilp.cpp:48:     for (auto& sub : subapertures) {
	.loc 1 48 22 discriminator 6 view .LVU1422
	mov	QWORD PTR 96[rsp], r12	# %sfp, __new_finish
	jmp	.L9	#
.LVL256:
.L36:
	.loc 1 48 22 discriminator 6 view .LVU1423
	mov	rax, QWORD PTR 104[rsp]	# _716, %sfp
.LBE3267:
.LBB3268:
.LBB2889:
.LBB2856:
.LBB2848:
# /usr/include/c++/16/bits/stl_vector.h:409: 	this->_M_impl._M_end_of_storage = this->_M_impl._M_start + __n;
	.loc 2 409 59 view .LVU1424
	mov	QWORD PTR 56[rsp], 0	# %sfp,
.LBB2841:
.LBB2835:
# /usr/include/c++/16/bits/stl_vector.h:389: 	return __n != 0 ? _Tr::allocate(_M_impl, __n) : pointer();
	.loc 2 389 58 discriminator 3 view .LVU1425
	xor	edi, edi	# _188
	add	rax, rax	# tmp1610, _716
	test	r15d, r15d	# _1187
	jg	.L40	#,
	jmp	.L39	#
.LVL257:
.L138:
	.loc 2 389 58 discriminator 3 view .LVU1426
	jmp	.L139	#
.LVL258:
.L90:
	.loc 2 389 58 discriminator 3 view .LVU1427
	mov	rbx, rax	# tmp1599, tmp1638
	vzeroupper
.LVL259:
	jmp	.L21	#
.LVL260:
.L136:
	.loc 2 389 58 discriminator 3 view .LVU1428
	jmp	.L137	#
.LVL261:
.L140:
	.loc 2 389 58 discriminator 3 view .LVU1429
	jmp	.L141	#
.LVL262:
.L142:
	.loc 2 389 58 discriminator 3 view .LVU1430
	jmp	.L143	#
.LVL263:
	.loc 2 389 58 discriminator 3 view .LVU1431
.LBE2835:
.LBE2841:
.LBE2848:
.LBE2856:
.LBE2889:
.LBE3268:
	.section	.gcc_except_table,"a",@progbits
.LLSDA11707:
	.byte	0xff
	.byte	0xff
	.byte	0x1
	.uleb128 .LLSDACSE11707-.LLSDACSB11707
.LLSDACSB11707:
	.uleb128 .LEHB0-.LFB11707
	.uleb128 .LEHE0-.LEHB0
	.uleb128 .L136-.LFB11707
	.uleb128 0
	.uleb128 .LEHB1-.LFB11707
	.uleb128 .LEHE1-.LEHB1
	.uleb128 .L90-.LFB11707
	.uleb128 0
	.uleb128 .LEHB2-.LFB11707
	.uleb128 .LEHE2-.LEHB2
	.uleb128 .L138-.LFB11707
	.uleb128 0
	.uleb128 .LEHB3-.LFB11707
	.uleb128 .LEHE3-.LEHB3
	.uleb128 .L140-.LFB11707
	.uleb128 0
	.uleb128 .LEHB4-.LFB11707
	.uleb128 .LEHE4-.LEHB4
	.uleb128 .L136-.LFB11707
	.uleb128 0
	.uleb128 .LEHB5-.LFB11707
	.uleb128 .LEHE5-.LEHB5
	.uleb128 .L142-.LFB11707
	.uleb128 0
.LLSDACSE11707:
	.text
	.cfi_endproc
	.section	.text.unlikely
	.cfi_startproc
	.cfi_personality 0x9b,"DW.ref.__gxx_personality_v0"
	.cfi_lsda 0x1b,.LLSDAC11707
	.type	"_Z21refocus_shift_and_sumRSt6vectorI16SubApertureImageSaIS0_EEf.cold", @function
"_Z21refocus_shift_and_sumRSt6vectorI16SubApertureImageSaIS0_EEf.cold":
.LFSB11707:
.LBB3269:
.LBB2890:
.LBB2857:
.LBB2849:
.LBB2842:
.LBB2836:
.L34:
	.cfi_def_cfa 6, 16
	.cfi_offset 3, -56
	.cfi_offset 6, -16
	.cfi_offset 12, -48
	.cfi_offset 13, -40
	.cfi_offset 14, -32
	.cfi_offset 15, -24
.LBE2836:
.LBE2842:
.LBE2849:
.LBE2857:
.LBE2890:
.LBB2891:
.LBB2810:
# /usr/include/c++/16/bits/stl_vector.h:2206: 	  __throw_length_error(
	.loc 2 2206 24 view -0
	lea	rdi, .LC0[rip]	#,
.LEHB6:
	call	"_ZSt20__throw_length_errorPKc"@PLT	#
.LVL264:
.LEHE6:
.L88:
.L139:
	.loc 2 2206 24 view .LVU1433
.LBE2810:
.LBE2891:
.LBE3269:
.LBB3270:
.LBB3271:
.LBB3272:
.LBB3273:
.LBB3274:
# /usr/include/c++/16/bits/stl_vector.h:397: 	if (__p)
	.loc 2 397 2 view .LVU1434
	mov	rbx, rax	# tmp1595, tmp1642
	vzeroupper
.LVL265:
.L66:
	.loc 2 397 2 view .LVU1435
.LBE3274:
.LBE3273:
.LBE3272:
.LBE3271:
.LBI3270:
	.loc 2 790 7 is_stmt 1 view .LVU1436
.LBB3284:
.LBI3284:
	.loc 2 307 7 view .LVU1437
	.loc 2 307 7 is_stmt 0 view .LVU1438
.LBE3284:
.LBB3285:
.LBI3285:
	.loc 8 1082 5 is_stmt 1 view .LVU1439
	.loc 8 1082 5 is_stmt 0 view .LVU1440
.LBE3285:
.LBB3286:
.LBI3271:
	.loc 2 373 7 is_stmt 1 view .LVU1441
.LBB3280:
.LBB3279:
.LBI3273:
	.loc 2 394 7 view .LVU1442
.LBB3278:
# /usr/include/c++/16/bits/stl_vector.h:397: 	if (__p)
	.loc 2 397 2 is_stmt 0 view .LVU1443
	cmp	QWORD PTR 64[rsp], 0	# %sfp,
	je	.L21	#,
.LVL266:
.LBB3275:
.LBI3275:
	.loc 8 688 7 is_stmt 1 view .LVU1444
.LBB3276:
.LBI3276:
	.loc 6 167 7 view .LVU1445
.LBB3277:
# /usr/include/c++/16/bits/new_allocator.h:183: 	_GLIBCXX_OPERATOR_DELETE(_GLIBCXX_SIZED_DEALLOC(__p, __n));
	.loc 6 183 59 is_stmt 0 view .LVU1446
	mov	rsi, QWORD PTR 24[rsp]	#, %sfp
	mov	rdi, QWORD PTR 64[rsp]	#, %sfp
	call	"_ZdlPvm"@PLT	#
.LVL267:
	.loc 6 183 59 view .LVU1447
.LBE3277:
.LBE3276:
.LBE3275:
.LBE3278:
.LBE3279:
.LBE3280:
.LBB3281:
.LBI3281:
	.loc 2 139 14 is_stmt 1 view .LVU1448
.LBB3282:
.LBI3282:
	.loc 5 189 7 view .LVU1449
.LBB3283:
.LBI3283:
	.loc 6 104 7 view .LVU1450
.L21:
	.loc 6 104 7 is_stmt 0 view .LVU1451
.LBE3283:
.LBE3282:
.LBE3281:
.LBE3286:
.LBE3270:
.LBB3287:
.LBI3287:
	.loc 2 790 7 is_stmt 1 view .LVU1452
.LBB3288:
.LBI3288:
	.loc 2 307 7 view .LVU1453
	.loc 2 307 7 is_stmt 0 view .LVU1454
.LBE3288:
.LBB3289:
.LBI3289:
	.loc 8 1082 5 is_stmt 1 view .LVU1455
	.loc 8 1082 5 is_stmt 0 view .LVU1456
.LBE3289:
.LBB3290:
.LBI3290:
	.loc 2 373 7 is_stmt 1 view .LVU1457
.LBB3291:
.LBB3292:
.LBI3292:
	.loc 2 394 7 view .LVU1458
.LBB3293:
# /usr/include/c++/16/bits/stl_vector.h:397: 	if (__p)
	.loc 2 397 2 is_stmt 0 view .LVU1459
	cmp	QWORD PTR 96[rsp], 0	# %sfp,
	je	.L70	#,
.LVL268:
.LBB3294:
.LBI3294:
	.loc 2 394 7 is_stmt 1 view .LVU1460
.LBB3295:
.LBB3296:
.LBI3296:
	.loc 8 688 7 view .LVU1461
.LBB3297:
.LBI3297:
	.loc 6 167 7 view .LVU1462
.LBE3297:
.LBE3296:
.LBE3295:
.LBE3294:
.LBE3293:
.LBE3292:
# /usr/include/c++/16/bits/stl_vector.h:375: 	ptrdiff_t __n = _M_impl._M_end_of_storage - _M_impl._M_start;
	.loc 2 375 44 is_stmt 0 view .LVU1463
	mov	rsi, QWORD PTR 208[rsp]	# params$_M_end_of_storage, %sfp
	mov	rdi, QWORD PTR 96[rsp]	# params$_M_start, %sfp
	sub	rsi, rdi	# params$_M_end_of_storage, params$_M_start
.LBB3305:
.LBB3303:
.LBB3302:
.LBB3301:
.LBB3300:
.LBB3299:
.LBB3298:
# /usr/include/c++/16/bits/new_allocator.h:183: 	_GLIBCXX_OPERATOR_DELETE(_GLIBCXX_SIZED_DEALLOC(__p, __n));
	.loc 6 183 59 view .LVU1464
	call	"_ZdlPvm"@PLT	#
.LVL269:
	.loc 6 183 59 view .LVU1465
.LBE3298:
.LBE3299:
.LBE3300:
.LBE3301:
.LBE3302:
.LBE3303:
.LBE3305:
.LBE3291:
.LBB3307:
.LBI3307:
	.loc 2 139 14 is_stmt 1 view .LVU1466
.LBB3308:
.LBI3308:
	.loc 5 189 7 view .LVU1467
.LBB3309:
.LBI3309:
	.loc 6 104 7 view .LVU1468
.L70:
	.loc 6 104 7 is_stmt 0 view .LVU1469
.LBE3309:
.LBE3308:
.LBE3307:
.LBE3290:
.LBE3287:
.LBB3312:
.LBI3312:
	.loc 4 11 8 is_stmt 1 view .LVU1470
.LBB3313:
.LBI3313:
	.loc 2 790 7 view .LVU1471
.LBB3314:
.LBI3314:
	.loc 2 307 7 view .LVU1472
	.loc 2 307 7 is_stmt 0 view .LVU1473
.LBE3314:
.LBB3315:
.LBI3315:
	.loc 8 1082 5 is_stmt 1 view .LVU1474
	.loc 8 1082 5 is_stmt 0 view .LVU1475
.LBE3315:
.LBB3316:
.LBI3316:
	.loc 2 373 7 is_stmt 1 view .LVU1476
.LBB3317:
# /usr/include/c++/16/bits/stl_vector.h:375: 	ptrdiff_t __n = _M_impl._M_end_of_storage - _M_impl._M_start;
	.loc 2 375 54 is_stmt 0 view .LVU1477
	mov	rax, QWORD PTR 40[rsp]	# <retval>, %sfp
	mov	rdi, QWORD PTR 16[rax]	# _472, MEM[(struct _Vector_base *)output_212(D) + 16B]._M_impl.D.86896._M_start
.LVL270:
.LBB3318:
.LBI3318:
	.loc 2 394 7 is_stmt 1 view .LVU1478
.LBB3319:
# /usr/include/c++/16/bits/stl_vector.h:397: 	if (__p)
	.loc 2 397 2 is_stmt 0 view .LVU1479
	test	rdi, rdi	# _472
	je	.L71	#,
.LVL271:
.LBB3320:
.LBI3320:
	.loc 8 688 7 is_stmt 1 view .LVU1480
.LBB3321:
.LBI3321:
	.loc 6 167 7 view .LVU1481
.LBE3321:
.LBE3320:
.LBE3319:
.LBE3318:
# /usr/include/c++/16/bits/stl_vector.h:375: 	ptrdiff_t __n = _M_impl._M_end_of_storage - _M_impl._M_start;
	.loc 2 375 12 is_stmt 0 view .LVU1482
	mov	rsi, QWORD PTR 32[rax]	# MEM[(struct _Vector_base *)output_212(D) + 16B]._M_impl.D.86896._M_end_of_storage, MEM[(struct _Vector_base *)output_212(D) + 16B]._M_impl.D.86896._M_end_of_storage
	sub	rsi, rdi	# __n_473, _472
.LBB3326:
.LBB3325:
.LBB3324:
.LBB3323:
.LBB3322:
# /usr/include/c++/16/bits/new_allocator.h:183: 	_GLIBCXX_OPERATOR_DELETE(_GLIBCXX_SIZED_DEALLOC(__p, __n));
	.loc 6 183 59 view .LVU1483
	call	"_ZdlPvm"@PLT	#
.LVL272:
.L71:
	.loc 6 183 59 view .LVU1484
.LBE3322:
.LBE3323:
.LBE3324:
.LBE3325:
.LBE3326:
.LBE3317:
.LBB3327:
.LBI3327:
	.loc 2 139 14 is_stmt 1 view .LVU1485
.LBB3328:
.LBI3328:
	.loc 5 189 7 view .LVU1486
.LBB3329:
.LBI3329:
	.loc 6 104 7 view .LVU1487
	.loc 6 104 7 is_stmt 0 view .LVU1488
	mov	rdi, rbx	#, tmp1602
.LEHB7:
	call	"_Unwind_Resume"@PLT	#
.LVL273:
.LEHE7:
.L89:
.L141:
	.loc 6 104 7 view .LVU1489
.LBE3329:
.LBE3328:
.LBE3327:
.LBE3316:
.LBE3313:
.LBE3312:
.LBB3333:
.LBB3334:
.LBB3335:
.LBB3336:
.LBB3337:
# /usr/include/c++/16/bits/stl_vector.h:397: 	if (__p)
	.loc 2 397 2 view .LVU1490
	mov	r12, rax	# tmp1641,
.LBE3337:
.LBE3336:
.LBE3335:
.LBE3334:
.LBI3333:
	.loc 2 790 7 is_stmt 1 view .LVU1491
.LVL274:
.LBB3350:
.LBI3350:
	.loc 2 307 7 view .LVU1492
	.loc 2 307 7 is_stmt 0 view .LVU1493
.LBE3350:
.LBB3351:
.LBI3351:
	.loc 8 1082 5 is_stmt 1 view .LVU1494
	.loc 8 1082 5 is_stmt 0 view .LVU1495
.LBE3351:
.LBB3352:
.LBI3334:
	.loc 2 373 7 is_stmt 1 view .LVU1496
.LBB3345:
.LBB3343:
.LBI3336:
	.loc 2 394 7 view .LVU1497
.LBB3341:
# /usr/include/c++/16/bits/stl_vector.h:397: 	if (__p)
	.loc 2 397 2 is_stmt 0 view .LVU1498
	test	rbx, rbx	# _356
	jne	.L165	#,
	vzeroupper
.LVL275:
.L65:
	.loc 2 397 2 view .LVU1499
.LBE3341:
.LBE3343:
.LBE3345:
.LBB3346:
.LBI3346:
	.loc 2 139 14 is_stmt 1 view .LVU1500
.LBB3347:
.LBI3347:
	.loc 5 189 7 view .LVU1501
.LBB3348:
.LBI3348:
	.loc 6 104 7 view .LVU1502
	.loc 6 104 7 is_stmt 0 view .LVU1503
	mov	rbx, r12	# tmp1595, tmp1641
	jmp	.L66	#
.LVL276:
.L165:
	.loc 6 104 7 view .LVU1504
.LBE3348:
.LBE3347:
.LBE3346:
.LBB3349:
.LBB3344:
.LBB3342:
.LBB3338:
.LBI3338:
	.loc 8 688 7 is_stmt 1 view .LVU1505
.LBB3339:
.LBI3339:
	.loc 6 167 7 view .LVU1506
.LBB3340:
# /usr/include/c++/16/bits/new_allocator.h:183: 	_GLIBCXX_OPERATOR_DELETE(_GLIBCXX_SIZED_DEALLOC(__p, __n));
	.loc 6 183 59 is_stmt 0 view .LVU1507
	mov	rsi, QWORD PTR 48[rsp]	#, %sfp
	mov	rdi, rbx	#, _356
	vzeroupper
.LVL277:
	call	"_ZdlPvm"@PLT	#
.LVL278:
	.loc 6 183 59 view .LVU1508
	jmp	.L65	#
.LVL279:
.L147:
	.loc 6 183 59 view .LVU1509
.LBE3340:
.LBE3339:
.LBE3338:
.LBE3342:
.LBE3344:
.LBE3349:
.LBE3352:
.LBE3333:
.LBB3353:
.LBB2765:
.LBB2721:
# /usr/include/c++/16/bits/stl_vector.h:2206: 	  __throw_length_error(
	.loc 2 2206 24 view .LVU1510
	lea	rdi, .LC0[rip]	#,
.LEHB8:
	call	"_ZSt20__throw_length_errorPKc"@PLT	#
.LVL280:
.LEHE8:
.L146:
	.loc 2 2206 24 view .LVU1511
.LBE2721:
.LBE2765:
.LBE3353:
.LBB3354:
.LBB2709:
.LBB2665:
	lea	rdi, .LC0[rip]	#,
.LEHB9:
	call	"_ZSt20__throw_length_errorPKc"@PLT	#
.LVL281:
.LEHE9:
.L86:
.L137:
	.loc 2 2206 24 view .LVU1512
.LBE2665:
.LBE2709:
.LBE3354:
.LBB3355:
.LBB3332:
.LBB3331:
.LBB3330:
# /usr/include/c++/16/bits/stl_vector.h:375: 	ptrdiff_t __n = _M_impl._M_end_of_storage - _M_impl._M_start;
	.loc 2 375 54 view .LVU1513
	mov	rbx, rax	# tmp1602, tmp1645
	vzeroupper
.LVL282:
	jmp	.L70	#
.LVL283:
.L87:
	.loc 2 375 54 view .LVU1514
.LBE3330:
.LBE3331:
.LBE3332:
.LBE3355:
.LBB3356:
.LBB3311:
.LBB3310:
.LBB3306:
.LBB3304:
# /usr/include/c++/16/bits/stl_vector.h:397: 	if (__p)
	.loc 2 397 2 view .LVU1515
	mov	rbx, rax	# tmp1599, tmp1644
	vzeroupper
.LVL284:
	jmp	.L21	#
.LVL285:
.L144:
	.loc 2 397 2 view .LVU1516
.LBE3304:
.LBE3306:
.LBE3310:
.LBE3311:
.LBE3356:
.LBB3357:
.LBB2439:
.LBB2436:
.LBB2433:
.LBB2430:
.LBB2428:
.LBB2412:
.LBB2365:
# /usr/include/c++/16/bits/stl_vector.h:2206: 	  __throw_length_error(
	.loc 2 2206 24 view .LVU1517
	lea	rdi, .LC0[rip]	#,
.LEHB10:
	call	"_ZSt20__throw_length_errorPKc"@PLT	#
.LVL286:
.LEHE10:
.L145:
	.loc 2 2206 24 view .LVU1518
.LBE2365:
.LBE2412:
.LBE2428:
.LBE2430:
.LBE2433:
.LBE2436:
.LBE2439:
.LBE3357:
.LBB3358:
.LBB2636:
.LBB2630:
.LBB2628:
.LBB2626:
.LBB2625:
.LBB2624:
.LBB2536:
# /usr/include/c++/16/bits/stl_vector.h:2195: 	  __throw_length_error(__N(__s));
	.loc 2 2195 24 view .LVU1519
	lea	rdi, .LC2[rip]	#,
.LEHB11:
	call	"_ZSt20__throw_length_errorPKc"@PLT	#
.LVL287:
.LEHE11:
.L91:
.L143:
	.loc 2 2195 24 view .LVU1520
	mov	rbx, rax	# tmp1599, tmp1643
.LVL288:
	.loc 2 2195 24 view .LVU1521
	vzeroupper
.LVL289:
	jmp	.L21	#
.LBE2536:
.LBE2624:
.LBE2625:
.LBE2626:
.LBE2628:
.LBE2630:
.LBE2636:
.LBE3358:
	.cfi_endproc
.LFE11707:
	.section	.gcc_except_table
.LLSDAC11707:
	.byte	0xff
	.byte	0xff
	.byte	0x1
	.uleb128 .LLSDACSEC11707-.LLSDACSBC11707
.LLSDACSBC11707:
	.uleb128 .LEHB6-.LCOLDB4
	.uleb128 .LEHE6-.LEHB6
	.uleb128 .L89-.LCOLDB4
	.uleb128 0
	.uleb128 .LEHB7-.LCOLDB4
	.uleb128 .LEHE7-.LEHB7
	.uleb128 0
	.uleb128 0
	.uleb128 .LEHB8-.LCOLDB4
	.uleb128 .LEHE8-.LEHB8
	.uleb128 .L88-.LCOLDB4
	.uleb128 0
	.uleb128 .LEHB9-.LCOLDB4
	.uleb128 .LEHE9-.LEHB9
	.uleb128 .L87-.LCOLDB4
	.uleb128 0
	.uleb128 .LEHB10-.LCOLDB4
	.uleb128 .LEHE10-.LEHB10
	.uleb128 .L86-.LCOLDB4
	.uleb128 0
	.uleb128 .LEHB11-.LCOLDB4
	.uleb128 .LEHE11-.LEHB11
	.uleb128 .L91-.LCOLDB4
	.uleb128 0
.LLSDACSEC11707:
	.section	.text.unlikely
	.text
	.size	"_Z21refocus_shift_and_sumRSt6vectorI16SubApertureImageSaIS0_EEf", .-"_Z21refocus_shift_and_sumRSt6vectorI16SubApertureImageSaIS0_EEf"
	.section	.text.unlikely
	.size	"_Z21refocus_shift_and_sumRSt6vectorI16SubApertureImageSaIS0_EEf.cold", .-"_Z21refocus_shift_and_sumRSt6vectorI16SubApertureImageSaIS0_EEf.cold"
.LCOLDE4:
	.text
.LHOTE4:
	.section	.rodata.cst4,"aM",@progbits,4
	.align 4
.LC1:
	.long	1065353216
	.text
.Letext0:
	.section	.text.unlikely
.Letext_cold0:
	.file 17 "/usr/include/c++/16/cwchar"
	.file 18 "/usr/include/x86_64-linux-gnu/c++/16/bits/c++config.h"
	.file 19 "/usr/include/c++/16/type_traits"
	.file 20 "/usr/include/c++/16/bits/exception_ptr.h"
	.file 21 "/usr/include/c++/16/clocale"
	.file 22 "/usr/include/c++/16/bits/stl_iterator_base_types.h"
	.file 23 "/usr/include/c++/16/debug/debug.h"
	.file 24 "/usr/include/c++/16/cstdlib"
	.file 25 "/usr/include/c++/16/cstdio"
	.file 26 "/usr/include/c++/16/cstddef"
	.file 27 "/usr/include/c++/16/cstdint"
	.file 28 "/usr/include/c++/16/ctime"
	.file 29 "/usr/include/c++/16/bits/chrono.h"
	.file 30 "/usr/include/c++/16/system_error"
	.file 31 "/usr/include/c++/16/bits/fs_fwd.h"
	.file 32 "/usr/include/c++/16/bits/fs_path.h"
	.file 33 "/usr/include/c++/16/cwctype"
	.file 34 "/usr/include/c++/16/bits/shared_ptr_base.h"
	.file 35 "/usr/include/c++/16/bits/std_abs.h"
	.file 36 "/usr/include/c++/16/initializer_list"
	.file 37 "/usr/include/c++/16/bits/new_throw.h"
	.file 38 "/usr/include/c++/16/bits/stdexcept_throwfwd.h"
	.file 39 "/usr/include/c++/16/bits/ptr_traits.h"
	.file 40 "/usr/lib/gcc/x86_64-linux-gnu/16/include/stddef.h"
	.file 41 "<built-in>"
	.file 42 "/usr/include/x86_64-linux-gnu/bits/types/wint_t.h"
	.file 43 "/usr/include/x86_64-linux-gnu/bits/types/__mbstate_t.h"
	.file 44 "/usr/include/x86_64-linux-gnu/bits/types/mbstate_t.h"
	.file 45 "/usr/include/x86_64-linux-gnu/bits/types/__FILE.h"
	.file 46 "/usr/include/x86_64-linux-gnu/bits/types/struct_FILE.h"
	.file 47 "/usr/include/x86_64-linux-gnu/bits/types/FILE.h"
	.file 48 "/usr/include/wchar.h"
	.file 49 "/usr/include/x86_64-linux-gnu/bits/types/struct_tm.h"
	.file 50 "/usr/include/c++/16/ext/alloc_traits.h"
	.file 51 "/usr/include/locale.h"
	.file 52 "/usr/include/x86_64-linux-gnu/bits/types.h"
	.file 53 "/usr/include/stdlib.h"
	.file 54 "/usr/include/x86_64-linux-gnu/bits/types/clock_t.h"
	.file 55 "/usr/include/x86_64-linux-gnu/bits/types/time_t.h"
	.file 56 "/usr/include/x86_64-linux-gnu/bits/stdint-intn.h"
	.file 57 "/usr/include/x86_64-linux-gnu/bits/types/struct_timespec.h"
	.file 58 "/usr/include/x86_64-linux-gnu/bits/stdlib-float.h"
	.file 59 "/usr/include/x86_64-linux-gnu/bits/stdlib-bsearch.h"
	.file 60 "/usr/include/x86_64-linux-gnu/bits/types/__fpos_t.h"
	.file 61 "/usr/include/stdio.h"
	.file 62 "/usr/include/x86_64-linux-gnu/bits/stdio.h"
	.file 63 "/usr/include/x86_64-linux-gnu/bits/stdint-uintn.h"
	.file 64 "/usr/include/x86_64-linux-gnu/bits/stdint-least.h"
	.file 65 "/usr/include/stdint.h"
	.file 66 "/usr/include/time.h"
	.file 67 "/usr/include/x86_64-linux-gnu/bits/wctype-wchar.h"
	.file 68 "/usr/include/wctype.h"
	.file 69 "/usr/include/math.h"
	.file 70 "/usr/include/c++/16/pstl/execution_defs.h"
	.file 71 "/usr/lib/gcc/x86_64-linux-gnu/16/include/mmintrin.h"
	.file 72 "/usr/include/c++/16/stdlib.h"
	.file 73 "/usr/include/c++/16/new"
	.file 74 "/usr/include/c++/16/bits/memory_resource.h"
	.file 75 "/usr/include/c++/16/string_view"
	.file 76 "/usr/include/c++/16/ext/concurrence.h"
	.section	.debug_info,"",@progbits
.Ldebug_info0:
	.long	0x1193b
	.value	0x5
	.byte	0x1
	.byte	0x8
	.long	.Ldebug_abbrev0
	.uleb128 0x9e
	.long	.LASF1456
	.byte	0x21
	.byte	0x4
	.long	0x313e7
	.long	.LASF0
	.long	.LASF1
	.long	.LLRL593
	.quad	0
	.long	.Ldebug_line0
	.uleb128 0x2b
	.byte	0x4
	.byte	0x4
	.long	.LASF2
	.uleb128 0x2b
	.byte	0x1
	.byte	0x8
	.long	.LASF3
	.uleb128 0x2b
	.byte	0x8
	.byte	0x7
	.long	.LASF4
	.uleb128 0xd
	.long	0x4a
	.uleb128 0x2b
	.byte	0x1
	.byte	0x6
	.long	.LASF5
	.uleb128 0x7
	.long	0x4a
	.uleb128 0x9f
	.byte	0x4
	.byte	0x5
	.string	"int"
	.uleb128 0x7
	.long	0x56
	.uleb128 0xa0
	.string	"std"
	.byte	0x12
	.value	0x156
	.byte	0xb
	.long	0x7515
	.uleb128 0x5
	.byte	0x11
	.byte	0x42
	.byte	0xb
	.long	0x75de
	.uleb128 0x5
	.byte	0x11
	.byte	0x8f
	.byte	0xb
	.long	0x756b
	.uleb128 0x5
	.byte	0x11
	.byte	0x91
	.byte	0xb
	.long	0x77af
	.uleb128 0x5
	.byte	0x11
	.byte	0x92
	.byte	0xb
	.long	0x77c6
	.uleb128 0x5
	.byte	0x11
	.byte	0x93
	.byte	0xb
	.long	0x77e2
	.uleb128 0x5
	.byte	0x11
	.byte	0x94
	.byte	0xb
	.long	0x7814
	.uleb128 0x5
	.byte	0x11
	.byte	0x95
	.byte	0xb
	.long	0x7830
	.uleb128 0x5
	.byte	0x11
	.byte	0x96
	.byte	0xb
	.long	0x7851
	.uleb128 0x5
	.byte	0x11
	.byte	0x97
	.byte	0xb
	.long	0x786d
	.uleb128 0x5
	.byte	0x11
	.byte	0x98
	.byte	0xb
	.long	0x788a
	.uleb128 0x5
	.byte	0x11
	.byte	0x99
	.byte	0xb
	.long	0x78ab
	.uleb128 0x5
	.byte	0x11
	.byte	0x9a
	.byte	0xb
	.long	0x78c2
	.uleb128 0x5
	.byte	0x11
	.byte	0x9b
	.byte	0xb
	.long	0x78d0
	.uleb128 0x5
	.byte	0x11
	.byte	0x9c
	.byte	0xb
	.long	0x78f6
	.uleb128 0x5
	.byte	0x11
	.byte	0x9d
	.byte	0xb
	.long	0x791c
	.uleb128 0x5
	.byte	0x11
	.byte	0x9e
	.byte	0xb
	.long	0x7938
	.uleb128 0x5
	.byte	0x11
	.byte	0x9f
	.byte	0xb
	.long	0x7963
	.uleb128 0x5
	.byte	0x11
	.byte	0xa0
	.byte	0xb
	.long	0x797f
	.uleb128 0x5
	.byte	0x11
	.byte	0xa2
	.byte	0xb
	.long	0x7996
	.uleb128 0x5
	.byte	0x11
	.byte	0xa4
	.byte	0xb
	.long	0x79b8
	.uleb128 0x5
	.byte	0x11
	.byte	0xa5
	.byte	0xb
	.long	0x79d9
	.uleb128 0x5
	.byte	0x11
	.byte	0xa6
	.byte	0xb
	.long	0x79f5
	.uleb128 0x5
	.byte	0x11
	.byte	0xa8
	.byte	0xb
	.long	0x7a1b
	.uleb128 0x5
	.byte	0x11
	.byte	0xab
	.byte	0xb
	.long	0x7a40
	.uleb128 0x5
	.byte	0x11
	.byte	0xae
	.byte	0xb
	.long	0x7a66
	.uleb128 0x5
	.byte	0x11
	.byte	0xb0
	.byte	0xb
	.long	0x7a8b
	.uleb128 0x5
	.byte	0x11
	.byte	0xb2
	.byte	0xb
	.long	0x7aa7
	.uleb128 0x5
	.byte	0x11
	.byte	0xb4
	.byte	0xb
	.long	0x7ac7
	.uleb128 0x5
	.byte	0x11
	.byte	0xb5
	.byte	0xb
	.long	0x7ae8
	.uleb128 0x5
	.byte	0x11
	.byte	0xb6
	.byte	0xb
	.long	0x7b03
	.uleb128 0x5
	.byte	0x11
	.byte	0xb7
	.byte	0xb
	.long	0x7b1e
	.uleb128 0x5
	.byte	0x11
	.byte	0xb8
	.byte	0xb
	.long	0x7b39
	.uleb128 0x5
	.byte	0x11
	.byte	0xb9
	.byte	0xb
	.long	0x7b54
	.uleb128 0x5
	.byte	0x11
	.byte	0xba
	.byte	0xb
	.long	0x7b6f
	.uleb128 0x5
	.byte	0x11
	.byte	0xbb
	.byte	0xb
	.long	0x7c3c
	.uleb128 0x5
	.byte	0x11
	.byte	0xbc
	.byte	0xb
	.long	0x7c52
	.uleb128 0x5
	.byte	0x11
	.byte	0xbd
	.byte	0xb
	.long	0x7c72
	.uleb128 0x5
	.byte	0x11
	.byte	0xbe
	.byte	0xb
	.long	0x7c92
	.uleb128 0x5
	.byte	0x11
	.byte	0xbf
	.byte	0xb
	.long	0x7cb2
	.uleb128 0x5
	.byte	0x11
	.byte	0xc0
	.byte	0xb
	.long	0x7cdd
	.uleb128 0x5
	.byte	0x11
	.byte	0xc1
	.byte	0xb
	.long	0x7cf8
	.uleb128 0x5
	.byte	0x11
	.byte	0xc3
	.byte	0xb
	.long	0x7d20
	.uleb128 0x5
	.byte	0x11
	.byte	0xc5
	.byte	0xb
	.long	0x7d41
	.uleb128 0x5
	.byte	0x11
	.byte	0xc6
	.byte	0xb
	.long	0x7d61
	.uleb128 0x5
	.byte	0x11
	.byte	0xc7
	.byte	0xb
	.long	0x7d8d
	.uleb128 0x5
	.byte	0x11
	.byte	0xc8
	.byte	0xb
	.long	0x7db2
	.uleb128 0x5
	.byte	0x11
	.byte	0xc9
	.byte	0xb
	.long	0x7dd2
	.uleb128 0x5
	.byte	0x11
	.byte	0xca
	.byte	0xb
	.long	0x7de9
	.uleb128 0x5
	.byte	0x11
	.byte	0xcb
	.byte	0xb
	.long	0x7e0a
	.uleb128 0x5
	.byte	0x11
	.byte	0xcc
	.byte	0xb
	.long	0x7e2b
	.uleb128 0x5
	.byte	0x11
	.byte	0xcd
	.byte	0xb
	.long	0x7e4c
	.uleb128 0x5
	.byte	0x11
	.byte	0xce
	.byte	0xb
	.long	0x7e6d
	.uleb128 0x5
	.byte	0x11
	.byte	0xcf
	.byte	0xb
	.long	0x7e85
	.uleb128 0x5
	.byte	0x11
	.byte	0xd0
	.byte	0xb
	.long	0x7ea1
	.uleb128 0x5
	.byte	0x11
	.byte	0xd0
	.byte	0xb
	.long	0x7ec0
	.uleb128 0x5
	.byte	0x11
	.byte	0xd1
	.byte	0xb
	.long	0x7edf
	.uleb128 0x5
	.byte	0x11
	.byte	0xd1
	.byte	0xb
	.long	0x7efe
	.uleb128 0x5
	.byte	0x11
	.byte	0xd2
	.byte	0xb
	.long	0x7f1d
	.uleb128 0x5
	.byte	0x11
	.byte	0xd2
	.byte	0xb
	.long	0x7f3c
	.uleb128 0x5
	.byte	0x11
	.byte	0xd3
	.byte	0xb
	.long	0x7f5b
	.uleb128 0x5
	.byte	0x11
	.byte	0xd3
	.byte	0xb
	.long	0x7f7a
	.uleb128 0x5
	.byte	0x11
	.byte	0xd4
	.byte	0xb
	.long	0x7f99
	.uleb128 0x5
	.byte	0x11
	.byte	0xd4
	.byte	0xb
	.long	0x7fbe
	.uleb128 0x19
	.byte	0x11
	.value	0x10d
	.byte	0x16
	.long	0x8ebb
	.uleb128 0x19
	.byte	0x11
	.value	0x10e
	.byte	0x16
	.long	0x8ede
	.uleb128 0x19
	.byte	0x11
	.value	0x10f
	.byte	0x16
	.long	0x8f0a
	.uleb128 0x19
	.byte	0x11
	.value	0x11d
	.byte	0xe
	.long	0x7d20
	.uleb128 0x19
	.byte	0x11
	.value	0x120
	.byte	0xe
	.long	0x7a1b
	.uleb128 0x19
	.byte	0x11
	.value	0x123
	.byte	0xe
	.long	0x7a66
	.uleb128 0x19
	.byte	0x11
	.value	0x126
	.byte	0xe
	.long	0x7aa7
	.uleb128 0x19
	.byte	0x11
	.value	0x12a
	.byte	0xe
	.long	0x8ebb
	.uleb128 0x19
	.byte	0x11
	.value	0x12b
	.byte	0xe
	.long	0x8ede
	.uleb128 0x19
	.byte	0x11
	.value	0x12c
	.byte	0xe
	.long	0x8f0a
	.uleb128 0x1d
	.long	.LASF6
	.byte	0x12
	.value	0x158
	.byte	0x1a
	.long	0x3e
	.uleb128 0x7
	.long	0x2c3
	.uleb128 0x1b
	.long	.LASF12
	.byte	0x1
	.byte	0x13
	.byte	0x5f
	.byte	0xc
	.long	0x33f
	.uleb128 0x8
	.long	.LASF7
	.byte	0x13
	.byte	0x62
	.byte	0xd
	.long	0x8f7a
	.uleb128 0x42
	.long	.LASF8
	.byte	0x13
	.byte	0x64
	.byte	0x11
	.long	.LASF10
	.long	0x2e2
	.long	0x306
	.long	0x30c
	.uleb128 0x2
	.long	0x8f86
	.byte	0
	.uleb128 0x42
	.long	.LASF9
	.byte	0x13
	.byte	0x67
	.byte	0x1c
	.long	.LASF11
	.long	0x2e2
	.long	0x324
	.long	0x32a
	.uleb128 0x2
	.long	0x8f86
	.byte	0
	.uleb128 0x11
	.string	"_Tp"
	.long	0x8f7a
	.uleb128 0x84
	.string	"__v"
	.long	0x8f7a
	.byte	0x1
	.byte	0
	.uleb128 0x7
	.long	0x2d5
	.uleb128 0x1b
	.long	.LASF13
	.byte	0x1
	.byte	0x13
	.byte	0x5f
	.byte	0xc
	.long	0x3ae
	.uleb128 0x8
	.long	.LASF7
	.byte	0x13
	.byte	0x62
	.byte	0xd
	.long	0x8f7a
	.uleb128 0x42
	.long	.LASF14
	.byte	0x13
	.byte	0x64
	.byte	0x11
	.long	.LASF15
	.long	0x351
	.long	0x375
	.long	0x37b
	.uleb128 0x2
	.long	0x8f8b
	.byte	0
	.uleb128 0x42
	.long	.LASF9
	.byte	0x13
	.byte	0x67
	.byte	0x1c
	.long	.LASF16
	.long	0x351
	.long	0x393
	.long	0x399
	.uleb128 0x2
	.long	0x8f8b
	.byte	0
	.uleb128 0x11
	.string	"_Tp"
	.long	0x8f7a
	.uleb128 0x84
	.string	"__v"
	.long	0x8f7a
	.byte	0
	.byte	0
	.uleb128 0x7
	.long	0x344
	.uleb128 0x8
	.long	.LASF17
	.byte	0x13
	.byte	0x7a
	.byte	0x9
	.long	0x3bf
	.uleb128 0x8
	.long	.LASF18
	.byte	0x13
	.byte	0x73
	.byte	0xb
	.long	0x344
	.uleb128 0x85
	.long	.LASF19
	.value	0xbfb
	.uleb128 0x85
	.long	.LASF20
	.value	0xc50
	.uleb128 0x69
	.long	.LASF21
	.byte	0x14
	.byte	0x3d
	.byte	0xd
	.long	0x5f6
	.uleb128 0x3f
	.long	.LASF22
	.byte	0x8
	.byte	0x14
	.byte	0x69
	.long	0x5cf
	.uleb128 0xf
	.long	.LASF102
	.byte	0x14
	.byte	0x6b
	.byte	0xd
	.long	0x7568
	.byte	0
	.uleb128 0x77
	.long	.LASF22
	.byte	0x14
	.byte	0x7f
	.byte	0x10
	.long	.LASF23
	.long	0x414
	.long	0x41f
	.uleb128 0x2
	.long	0x8fbf
	.uleb128 0x1
	.long	0x7568
	.byte	0
	.uleb128 0x21
	.long	.LASF24
	.byte	0x14
	.byte	0x82
	.byte	0xc
	.long	.LASF26
	.long	0x433
	.long	0x439
	.uleb128 0x2
	.long	0x8fbf
	.byte	0
	.uleb128 0x21
	.long	.LASF25
	.byte	0x14
	.byte	0x83
	.byte	0xc
	.long	.LASF27
	.long	0x44d
	.long	0x453
	.uleb128 0x2
	.long	0x8fbf
	.byte	0
	.uleb128 0x42
	.long	.LASF28
	.byte	0x14
	.byte	0x85
	.byte	0xd
	.long	.LASF29
	.long	0x7568
	.long	0x46b
	.long	0x471
	.uleb128 0x2
	.long	0x8fc4
	.byte	0
	.uleb128 0x42
	.long	.LASF30
	.byte	0x14
	.byte	0x92
	.byte	0x13
	.long	.LASF31
	.long	0x8fc9
	.long	0x489
	.long	0x494
	.uleb128 0x2
	.long	0x8fc4
	.uleb128 0x1
	.long	0x8fd0
	.byte	0
	.uleb128 0x23
	.long	.LASF22
	.byte	0x14
	.byte	0x96
	.byte	0x1c
	.long	.LASF32
	.byte	0x1
	.long	0x4a9
	.long	0x4af
	.uleb128 0x2
	.long	0x8fbf
	.byte	0
	.uleb128 0x23
	.long	.LASF22
	.byte	0x14
	.byte	0x98
	.byte	0x1c
	.long	.LASF33
	.byte	0x1
	.long	0x4c4
	.long	0x4cf
	.uleb128 0x2
	.long	0x8fbf
	.uleb128 0x1
	.long	0x8fd5
	.byte	0
	.uleb128 0x23
	.long	.LASF22
	.byte	0x14
	.byte	0x9c
	.byte	0x1c
	.long	.LASF34
	.byte	0x1
	.long	0x4e4
	.long	0x4ef
	.uleb128 0x2
	.long	0x8fbf
	.uleb128 0x1
	.long	0x61f
	.byte	0
	.uleb128 0x23
	.long	.LASF22
	.byte	0x14
	.byte	0xa0
	.byte	0x1c
	.long	.LASF35
	.byte	0x1
	.long	0x504
	.long	0x50f
	.uleb128 0x2
	.long	0x8fbf
	.uleb128 0x1
	.long	0x8fda
	.byte	0
	.uleb128 0x24
	.long	.LASF36
	.byte	0x14
	.byte	0xad
	.byte	0x7
	.long	.LASF37
	.long	0x8fdf
	.byte	0x1
	.long	0x528
	.long	0x533
	.uleb128 0x2
	.long	0x8fbf
	.uleb128 0x1
	.long	0x8fd5
	.byte	0
	.uleb128 0x24
	.long	.LASF36
	.byte	0x14
	.byte	0xb1
	.byte	0x7
	.long	.LASF38
	.long	0x8fdf
	.byte	0x1
	.long	0x54c
	.long	0x557
	.uleb128 0x2
	.long	0x8fbf
	.uleb128 0x1
	.long	0x8fda
	.byte	0
	.uleb128 0x23
	.long	.LASF39
	.byte	0x14
	.byte	0xb8
	.byte	0x1c
	.long	.LASF40
	.byte	0x1
	.long	0x56c
	.long	0x572
	.uleb128 0x2
	.long	0x8fbf
	.byte	0
	.uleb128 0x23
	.long	.LASF41
	.byte	0x14
	.byte	0xbb
	.byte	0x7
	.long	.LASF42
	.byte	0x1
	.long	0x587
	.long	0x592
	.uleb128 0x2
	.long	0x8fbf
	.uleb128 0x1
	.long	0x8fdf
	.byte	0
	.uleb128 0xa1
	.long	.LASF63
	.byte	0x14
	.byte	0xc6
	.byte	0x25
	.long	.LASF64
	.long	0x8f7a
	.byte	0x1
	.long	0x5ac
	.long	0x5b2
	.uleb128 0x2
	.long	0x8fc4
	.byte	0
	.uleb128 0xa2
	.long	.LASF43
	.byte	0x14
	.byte	0xdf
	.byte	0x7
	.long	.LASF44
	.long	0x8fe4
	.byte	0x1
	.long	0x5c8
	.uleb128 0x2
	.long	0x8fc4
	.byte	0
	.byte	0
	.uleb128 0x7
	.long	0x3e7
	.uleb128 0x5
	.byte	0x14
	.byte	0x5d
	.byte	0x10
	.long	0x5fe
	.uleb128 0xa3
	.long	.LASF41
	.byte	0x14
	.value	0x120
	.byte	0x5
	.long	.LASF1457
	.uleb128 0x1
	.long	0x8fdf
	.uleb128 0x1
	.long	0x8fdf
	.byte	0
	.byte	0
	.uleb128 0x5
	.byte	0x14
	.byte	0x42
	.byte	0x1a
	.long	0x3e7
	.uleb128 0x86
	.long	.LASF45
	.byte	0x14
	.byte	0x52
	.byte	0x8
	.long	.LASF46
	.long	0x615
	.uleb128 0x1
	.long	0x3e7
	.byte	0
	.uleb128 0x33
	.long	.LASF275
	.uleb128 0x7
	.long	0x615
	.uleb128 0x1d
	.long	.LASF47
	.byte	0x12
	.value	0x15c
	.byte	0x1d
	.long	0x8f74
	.uleb128 0x19
	.byte	0x14
	.value	0x12d
	.byte	0x1a
	.long	0x5dc
	.uleb128 0x1d
	.long	.LASF48
	.byte	0x12
	.value	0x159
	.byte	0x1c
	.long	0x7d86
	.uleb128 0x8
	.long	.LASF49
	.byte	0x13
	.byte	0x77
	.byte	0x9
	.long	0x64e
	.uleb128 0x8
	.long	.LASF18
	.byte	0x13
	.byte	0x73
	.byte	0xb
	.long	0x2d5
	.uleb128 0x5
	.byte	0x15
	.byte	0x37
	.byte	0xb
	.long	0x8fe9
	.uleb128 0x5
	.byte	0x15
	.byte	0x38
	.byte	0xb
	.long	0x912f
	.uleb128 0x5
	.byte	0x15
	.byte	0x39
	.byte	0xb
	.long	0x914a
	.uleb128 0xa4
	.long	.LASF1458
	.byte	0x1
	.byte	0x16
	.byte	0x5f
	.byte	0xa
	.uleb128 0x1b
	.long	.LASF50
	.byte	0x1
	.byte	0x16
	.byte	0x65
	.byte	0xa
	.long	0x68f
	.uleb128 0x36
	.long	0x672
	.byte	0
	.uleb128 0x1b
	.long	.LASF51
	.byte	0x1
	.byte	0x16
	.byte	0x69
	.byte	0xa
	.long	0x6a2
	.uleb128 0x36
	.long	0x67c
	.byte	0
	.uleb128 0x1b
	.long	.LASF52
	.byte	0x1
	.byte	0x16
	.byte	0x6d
	.byte	0xa
	.long	0x6b5
	.uleb128 0x36
	.long	0x68f
	.byte	0
	.uleb128 0x78
	.long	.LASF53
	.byte	0x17
	.byte	0x32
	.byte	0xd
	.uleb128 0x5
	.byte	0x18
	.byte	0x89
	.byte	0xb
	.long	0x92b3
	.uleb128 0x5
	.byte	0x18
	.byte	0x8a
	.byte	0xb
	.long	0x92e7
	.uleb128 0x5
	.byte	0x18
	.byte	0x90
	.byte	0xb
	.long	0x93c3
	.uleb128 0x5
	.byte	0x18
	.byte	0x93
	.byte	0xb
	.long	0x93e1
	.uleb128 0x5
	.byte	0x18
	.byte	0x96
	.byte	0xb
	.long	0x93fc
	.uleb128 0x5
	.byte	0x18
	.byte	0x97
	.byte	0xb
	.long	0x9412
	.uleb128 0x5
	.byte	0x18
	.byte	0x98
	.byte	0xb
	.long	0x9429
	.uleb128 0x5
	.byte	0x18
	.byte	0x99
	.byte	0xb
	.long	0x9440
	.uleb128 0x5
	.byte	0x18
	.byte	0x9b
	.byte	0xb
	.long	0x946a
	.uleb128 0x5
	.byte	0x18
	.byte	0x9e
	.byte	0xb
	.long	0x9487
	.uleb128 0x5
	.byte	0x18
	.byte	0xa0
	.byte	0xb
	.long	0x949e
	.uleb128 0x5
	.byte	0x18
	.byte	0xa3
	.byte	0xb
	.long	0x94ba
	.uleb128 0x5
	.byte	0x18
	.byte	0xa4
	.byte	0xb
	.long	0x94d6
	.uleb128 0x5
	.byte	0x18
	.byte	0xa5
	.byte	0xb
	.long	0x94f7
	.uleb128 0x5
	.byte	0x18
	.byte	0xa7
	.byte	0xb
	.long	0x9518
	.uleb128 0x5
	.byte	0x18
	.byte	0xaa
	.byte	0xb
	.long	0x9539
	.uleb128 0x5
	.byte	0x18
	.byte	0xad
	.byte	0xb
	.long	0x954d
	.uleb128 0x5
	.byte	0x18
	.byte	0xaf
	.byte	0xb
	.long	0x955b
	.uleb128 0x5
	.byte	0x18
	.byte	0xb0
	.byte	0xb
	.long	0x956d
	.uleb128 0x5
	.byte	0x18
	.byte	0xb1
	.byte	0xb
	.long	0x958d
	.uleb128 0x5
	.byte	0x18
	.byte	0xb2
	.byte	0xb
	.long	0x95b1
	.uleb128 0x5
	.byte	0x18
	.byte	0xb3
	.byte	0xb
	.long	0x95d5
	.uleb128 0x5
	.byte	0x18
	.byte	0xb5
	.byte	0xb
	.long	0x95ec
	.uleb128 0x5
	.byte	0x18
	.byte	0xb6
	.byte	0xb
	.long	0x960d
	.uleb128 0x5
	.byte	0x18
	.byte	0xfd
	.byte	0x16
	.long	0x931b
	.uleb128 0x19
	.byte	0x18
	.value	0x102
	.byte	0x16
	.long	0x8042
	.uleb128 0x19
	.byte	0x18
	.value	0x103
	.byte	0x16
	.long	0x9629
	.uleb128 0x19
	.byte	0x18
	.value	0x105
	.byte	0x16
	.long	0x9645
	.uleb128 0x19
	.byte	0x18
	.value	0x106
	.byte	0x16
	.long	0x96a4
	.uleb128 0x19
	.byte	0x18
	.value	0x107
	.byte	0x16
	.long	0x965c
	.uleb128 0x19
	.byte	0x18
	.value	0x108
	.byte	0x16
	.long	0x9680
	.uleb128 0x19
	.byte	0x18
	.value	0x109
	.byte	0x16
	.long	0x96bf
	.uleb128 0x5
	.byte	0x19
	.byte	0x64
	.byte	0xb
	.long	0x7792
	.uleb128 0x5
	.byte	0x19
	.byte	0x65
	.byte	0xb
	.long	0x9764
	.uleb128 0x5
	.byte	0x19
	.byte	0x67
	.byte	0xb
	.long	0x977a
	.uleb128 0x5
	.byte	0x19
	.byte	0x68
	.byte	0xb
	.long	0x978c
	.uleb128 0x5
	.byte	0x19
	.byte	0x69
	.byte	0xb
	.long	0x97a2
	.uleb128 0x5
	.byte	0x19
	.byte	0x6a
	.byte	0xb
	.long	0x97b9
	.uleb128 0x5
	.byte	0x19
	.byte	0x6b
	.byte	0xb
	.long	0x97d0
	.uleb128 0x5
	.byte	0x19
	.byte	0x6c
	.byte	0xb
	.long	0x97e6
	.uleb128 0x5
	.byte	0x19
	.byte	0x6d
	.byte	0xb
	.long	0x97fd
	.uleb128 0x5
	.byte	0x19
	.byte	0x6e
	.byte	0xb
	.long	0x981e
	.uleb128 0x5
	.byte	0x19
	.byte	0x6f
	.byte	0xb
	.long	0x983f
	.uleb128 0x5
	.byte	0x19
	.byte	0x73
	.byte	0xb
	.long	0x985b
	.uleb128 0x5
	.byte	0x19
	.byte	0x74
	.byte	0xb
	.long	0x9881
	.uleb128 0x5
	.byte	0x19
	.byte	0x76
	.byte	0xb
	.long	0x98a2
	.uleb128 0x5
	.byte	0x19
	.byte	0x77
	.byte	0xb
	.long	0x98c3
	.uleb128 0x5
	.byte	0x19
	.byte	0x78
	.byte	0xb
	.long	0x98e4
	.uleb128 0x5
	.byte	0x19
	.byte	0x7a
	.byte	0xb
	.long	0x98fb
	.uleb128 0x5
	.byte	0x19
	.byte	0x7b
	.byte	0xb
	.long	0x9912
	.uleb128 0x5
	.byte	0x19
	.byte	0x80
	.byte	0xb
	.long	0x991e
	.uleb128 0x5
	.byte	0x19
	.byte	0x85
	.byte	0xb
	.long	0x9930
	.uleb128 0x5
	.byte	0x19
	.byte	0x86
	.byte	0xb
	.long	0x9946
	.uleb128 0x5
	.byte	0x19
	.byte	0x87
	.byte	0xb
	.long	0x9961
	.uleb128 0x5
	.byte	0x19
	.byte	0x89
	.byte	0xb
	.long	0x9973
	.uleb128 0x5
	.byte	0x19
	.byte	0x8a
	.byte	0xb
	.long	0x998a
	.uleb128 0x5
	.byte	0x19
	.byte	0x8d
	.byte	0xb
	.long	0x99b0
	.uleb128 0x5
	.byte	0x19
	.byte	0x8f
	.byte	0xb
	.long	0x99bc
	.uleb128 0x5
	.byte	0x19
	.byte	0x91
	.byte	0xb
	.long	0x99d2
	.uleb128 0x87
	.long	.LASF54
	.byte	0x12
	.value	0x179
	.byte	0x41
	.uleb128 0x5
	.byte	0x1a
	.byte	0x42
	.byte	0xb
	.long	0x8f65
	.uleb128 0xa5
	.string	"pmr"
	.byte	0x4a
	.byte	0x37
	.byte	0xb
	.uleb128 0x88
	.string	"_V2"
	.byte	0x1e
	.byte	0x54
	.byte	0x1
	.uleb128 0x5
	.byte	0x1b
	.byte	0x35
	.byte	0xb
	.long	0x9344
	.uleb128 0x5
	.byte	0x1b
	.byte	0x36
	.byte	0xb
	.long	0x9350
	.uleb128 0x5
	.byte	0x1b
	.byte	0x37
	.byte	0xb
	.long	0x935c
	.uleb128 0x5
	.byte	0x1b
	.byte	0x38
	.byte	0xb
	.long	0x9368
	.uleb128 0x5
	.byte	0x1b
	.byte	0x3a
	.byte	0xb
	.long	0x9a7e
	.uleb128 0x5
	.byte	0x1b
	.byte	0x3b
	.byte	0xb
	.long	0x9a8a
	.uleb128 0x5
	.byte	0x1b
	.byte	0x3c
	.byte	0xb
	.long	0x9a96
	.uleb128 0x5
	.byte	0x1b
	.byte	0x3d
	.byte	0xb
	.long	0x9aa2
	.uleb128 0x5
	.byte	0x1b
	.byte	0x3f
	.byte	0xb
	.long	0x9a1e
	.uleb128 0x5
	.byte	0x1b
	.byte	0x40
	.byte	0xb
	.long	0x9a2a
	.uleb128 0x5
	.byte	0x1b
	.byte	0x41
	.byte	0xb
	.long	0x9a36
	.uleb128 0x5
	.byte	0x1b
	.byte	0x42
	.byte	0xb
	.long	0x9a42
	.uleb128 0x5
	.byte	0x1b
	.byte	0x44
	.byte	0xb
	.long	0x9af6
	.uleb128 0x5
	.byte	0x1b
	.byte	0x45
	.byte	0xb
	.long	0x9ade
	.uleb128 0x5
	.byte	0x1b
	.byte	0x47
	.byte	0xb
	.long	0x99ee
	.uleb128 0x5
	.byte	0x1b
	.byte	0x48
	.byte	0xb
	.long	0x99fa
	.uleb128 0x5
	.byte	0x1b
	.byte	0x49
	.byte	0xb
	.long	0x9a06
	.uleb128 0x5
	.byte	0x1b
	.byte	0x4a
	.byte	0xb
	.long	0x9a12
	.uleb128 0x5
	.byte	0x1b
	.byte	0x4c
	.byte	0xb
	.long	0x9aae
	.uleb128 0x5
	.byte	0x1b
	.byte	0x4d
	.byte	0xb
	.long	0x9aba
	.uleb128 0x5
	.byte	0x1b
	.byte	0x4e
	.byte	0xb
	.long	0x9ac6
	.uleb128 0x5
	.byte	0x1b
	.byte	0x4f
	.byte	0xb
	.long	0x9ad2
	.uleb128 0x5
	.byte	0x1b
	.byte	0x51
	.byte	0xb
	.long	0x9a4e
	.uleb128 0x5
	.byte	0x1b
	.byte	0x52
	.byte	0xb
	.long	0x9a5a
	.uleb128 0x5
	.byte	0x1b
	.byte	0x53
	.byte	0xb
	.long	0x9a66
	.uleb128 0x5
	.byte	0x1b
	.byte	0x54
	.byte	0xb
	.long	0x9a72
	.uleb128 0x5
	.byte	0x1b
	.byte	0x56
	.byte	0xb
	.long	0x9b02
	.uleb128 0x5
	.byte	0x1b
	.byte	0x57
	.byte	0xb
	.long	0x9aea
	.uleb128 0x5
	.byte	0x1c
	.byte	0x3e
	.byte	0xb
	.long	0x9327
	.uleb128 0x5
	.byte	0x1c
	.byte	0x3f
	.byte	0xb
	.long	0x9333
	.uleb128 0x5
	.byte	0x1c
	.byte	0x40
	.byte	0xb
	.long	0x7b9a
	.uleb128 0x5
	.byte	0x1c
	.byte	0x42
	.byte	0xb
	.long	0x9b2a
	.uleb128 0x5
	.byte	0x1c
	.byte	0x43
	.byte	0xb
	.long	0x9b36
	.uleb128 0x5
	.byte	0x1c
	.byte	0x44
	.byte	0xb
	.long	0x9b51
	.uleb128 0x5
	.byte	0x1c
	.byte	0x45
	.byte	0xb
	.long	0x9b6c
	.uleb128 0x5
	.byte	0x1c
	.byte	0x46
	.byte	0xb
	.long	0x9b87
	.uleb128 0x5
	.byte	0x1c
	.byte	0x47
	.byte	0xb
	.long	0x9b9d
	.uleb128 0x5
	.byte	0x1c
	.byte	0x48
	.byte	0xb
	.long	0x9bb8
	.uleb128 0x5
	.byte	0x1c
	.byte	0x49
	.byte	0xb
	.long	0x9bce
	.uleb128 0x5
	.byte	0x1c
	.byte	0x51
	.byte	0xb
	.long	0x9374
	.uleb128 0x5
	.byte	0x1c
	.byte	0x52
	.byte	0xb
	.long	0x9be4
	.uleb128 0x69
	.long	.LASF55
	.byte	0x1d
	.byte	0x3d
	.byte	0xd
	.long	0xa29
	.uleb128 0xa6
	.string	"_V2"
	.byte	0x1d
	.value	0x4c6
	.byte	0x1
	.uleb128 0xa7
	.byte	0x1d
	.value	0x5aa
	.byte	0x1f
	.long	0xa37
	.byte	0
	.uleb128 0xa8
	.long	.LASF1459
	.byte	0x4b
	.value	0x369
	.byte	0x14
	.long	0xa42
	.uleb128 0x87
	.long	.LASF56
	.byte	0x1d
	.value	0x54e
	.byte	0x14
	.byte	0
	.uleb128 0x69
	.long	.LASF57
	.byte	0x1d
	.byte	0x3a
	.byte	0xd
	.long	0xa61
	.uleb128 0xa9
	.long	.LASF54
	.byte	0x1f
	.byte	0x30
	.byte	0x3f
	.uleb128 0x78
	.long	.LASF58
	.byte	0x20
	.byte	0x48
	.byte	0xb
	.byte	0
	.byte	0
	.uleb128 0x5
	.byte	0x21
	.byte	0x54
	.byte	0xb
	.long	0x9c11
	.uleb128 0x5
	.byte	0x21
	.byte	0x55
	.byte	0xb
	.long	0x9c05
	.uleb128 0x5
	.byte	0x21
	.byte	0x56
	.byte	0xb
	.long	0x756b
	.uleb128 0x5
	.byte	0x21
	.byte	0x5e
	.byte	0xb
	.long	0x9c22
	.uleb128 0x5
	.byte	0x21
	.byte	0x67
	.byte	0xb
	.long	0x9c3d
	.uleb128 0x5
	.byte	0x21
	.byte	0x6a
	.byte	0xb
	.long	0x9c58
	.uleb128 0x5
	.byte	0x21
	.byte	0x6b
	.byte	0xb
	.long	0x9c6e
	.uleb128 0x5
	.byte	0x22
	.byte	0x61
	.byte	0x14
	.long	0x8060
	.uleb128 0x5
	.byte	0x22
	.byte	0x62
	.byte	0x14
	.long	0x9c84
	.uleb128 0x5
	.byte	0x22
	.byte	0x63
	.byte	0x14
	.long	0x8073
	.uleb128 0x5
	.byte	0x22
	.byte	0x64
	.byte	0x14
	.long	0x8079
	.uleb128 0x5
	.byte	0x22
	.byte	0x65
	.byte	0x14
	.long	0x807f
	.uleb128 0x3f
	.long	.LASF59
	.byte	0x1
	.byte	0x6
	.byte	0x3f
	.long	0xc5f
	.uleb128 0x23
	.long	.LASF60
	.byte	0x6
	.byte	0x58
	.byte	0x7
	.long	.LASF61
	.byte	0x1
	.long	0xae2
	.long	0xae8
	.uleb128 0x2
	.long	0x9c96
	.byte	0
	.uleb128 0x23
	.long	.LASF60
	.byte	0x6
	.byte	0x5c
	.byte	0x7
	.long	.LASF62
	.byte	0x1
	.long	0xafd
	.long	0xb08
	.uleb128 0x2
	.long	0x9c96
	.uleb128 0x1
	.long	0x9ca0
	.byte	0
	.uleb128 0x4f
	.long	.LASF36
	.byte	0x6
	.byte	0x64
	.byte	0x18
	.long	.LASF65
	.long	0x9ca5
	.long	0xb20
	.long	0xb2b
	.uleb128 0x2
	.long	0x9c96
	.uleb128 0x1
	.long	0x9ca0
	.byte	0
	.uleb128 0x23
	.long	.LASF66
	.byte	0x6
	.byte	0x68
	.byte	0x7
	.long	.LASF67
	.byte	0x1
	.long	0xb40
	.long	0xb46
	.uleb128 0x2
	.long	0x9c96
	.byte	0
	.uleb128 0x27
	.long	.LASF70
	.byte	0x6
	.byte	0x46
	.byte	0x1a
	.long	0x9caa
	.uleb128 0x24
	.long	.LASF68
	.byte	0x6
	.byte	0x6b
	.byte	0x7
	.long	.LASF69
	.long	0xb46
	.byte	0x1
	.long	0xb6b
	.long	0xb76
	.uleb128 0x2
	.long	0x9cb4
	.uleb128 0x1
	.long	0xb76
	.byte	0
	.uleb128 0x27
	.long	.LASF71
	.byte	0x6
	.byte	0x48
	.byte	0x1a
	.long	0x9cbe
	.uleb128 0x27
	.long	.LASF72
	.byte	0x6
	.byte	0x47
	.byte	0x1a
	.long	0x9cc3
	.uleb128 0x24
	.long	.LASF68
	.byte	0x6
	.byte	0x6f
	.byte	0x7
	.long	.LASF73
	.long	0xb82
	.byte	0x1
	.long	0xba7
	.long	0xbb2
	.uleb128 0x2
	.long	0x9cb4
	.uleb128 0x1
	.long	0xbb2
	.byte	0
	.uleb128 0x27
	.long	.LASF74
	.byte	0x6
	.byte	0x49
	.byte	0x1a
	.long	0x9cc8
	.uleb128 0x24
	.long	.LASF75
	.byte	0x6
	.byte	0x81
	.byte	0x7
	.long	.LASF76
	.long	0x9caa
	.byte	0x1
	.long	0xbd7
	.long	0xbe7
	.uleb128 0x2
	.long	0x9c96
	.uleb128 0x1
	.long	0xbe7
	.uleb128 0x1
	.long	0x8fc9
	.byte	0
	.uleb128 0x27
	.long	.LASF77
	.byte	0x6
	.byte	0x43
	.byte	0x1f
	.long	0x2c3
	.uleb128 0x23
	.long	.LASF78
	.byte	0x6
	.byte	0xa7
	.byte	0x7
	.long	.LASF79
	.byte	0x1
	.long	0xc08
	.long	0xc18
	.uleb128 0x2
	.long	0x9c96
	.uleb128 0x1
	.long	0x9caa
	.uleb128 0x1
	.long	0xbe7
	.byte	0
	.uleb128 0x24
	.long	.LASF80
	.byte	0x6
	.byte	0xc2
	.byte	0x7
	.long	.LASF81
	.long	0xbe7
	.byte	0x1
	.long	0xc31
	.long	0xc37
	.uleb128 0x2
	.long	0x9cb4
	.byte	0
	.uleb128 0x42
	.long	.LASF82
	.byte	0x6
	.byte	0xf2
	.byte	0x7
	.long	.LASF83
	.long	0xbe7
	.long	0xc4f
	.long	0xc55
	.uleb128 0x2
	.long	0x9cb4
	.byte	0
	.uleb128 0x11
	.string	"_Tp"
	.long	0x37
	.byte	0
	.uleb128 0x7
	.long	0xac1
	.uleb128 0x3f
	.long	.LASF84
	.byte	0x1
	.byte	0x5
	.byte	0x85
	.long	0xce8
	.uleb128 0x46
	.long	0xac1
	.byte	0x1
	.uleb128 0x23
	.long	.LASF85
	.byte	0x5
	.byte	0xa8
	.byte	0x7
	.long	.LASF86
	.byte	0x1
	.long	0xc8b
	.long	0xc91
	.uleb128 0x2
	.long	0x9ccd
	.byte	0
	.uleb128 0x23
	.long	.LASF85
	.byte	0x5
	.byte	0xac
	.byte	0x7
	.long	.LASF87
	.byte	0x1
	.long	0xca6
	.long	0xcb1
	.uleb128 0x2
	.long	0x9ccd
	.uleb128 0x1
	.long	0x9cd7
	.byte	0
	.uleb128 0x4f
	.long	.LASF36
	.byte	0x5
	.byte	0xb1
	.byte	0x12
	.long	.LASF88
	.long	0x9cdc
	.long	0xcc9
	.long	0xcd4
	.uleb128 0x2
	.long	0x9ccd
	.uleb128 0x1
	.long	0x9cd7
	.byte	0
	.uleb128 0x6a
	.long	.LASF89
	.long	.LASF90
	.long	0xce1
	.uleb128 0x2
	.long	0x9ccd
	.byte	0
	.byte	0
	.uleb128 0x7
	.long	0xc64
	.uleb128 0x5f
	.long	.LASF91
	.byte	0x1
	.byte	0x8
	.value	0x248
	.byte	0xc
	.long	0xdeb
	.uleb128 0x1d
	.long	.LASF70
	.byte	0x8
	.value	0x251
	.byte	0xd
	.long	0x9caa
	.uleb128 0x17
	.long	.LASF75
	.byte	0x8
	.value	0x27d
	.byte	0x7
	.long	.LASF93
	.long	0xcfb
	.long	0xd28
	.uleb128 0x1
	.long	0x9ce1
	.uleb128 0x1
	.long	0xd3a
	.byte	0
	.uleb128 0x1d
	.long	.LASF92
	.byte	0x8
	.value	0x24b
	.byte	0xd
	.long	0xc64
	.uleb128 0x7
	.long	0xd28
	.uleb128 0x1d
	.long	.LASF77
	.byte	0x8
	.value	0x260
	.byte	0xd
	.long	0x2c3
	.uleb128 0x17
	.long	.LASF75
	.byte	0x8
	.value	0x28c
	.byte	0x7
	.long	.LASF94
	.long	0xcfb
	.long	0xd6c
	.uleb128 0x1
	.long	0x9ce1
	.uleb128 0x1
	.long	0xd3a
	.uleb128 0x1
	.long	0xd6c
	.byte	0
	.uleb128 0x1d
	.long	.LASF95
	.byte	0x8
	.value	0x25a
	.byte	0xd
	.long	0x8fc9
	.uleb128 0x40
	.long	.LASF78
	.byte	0x8
	.value	0x2b0
	.byte	0x7
	.long	.LASF306
	.long	0xd9a
	.uleb128 0x1
	.long	0x9ce1
	.uleb128 0x1
	.long	0xcfb
	.uleb128 0x1
	.long	0xd3a
	.byte	0
	.uleb128 0x17
	.long	.LASF80
	.byte	0x8
	.value	0x2ed
	.byte	0x7
	.long	.LASF96
	.long	0xd3a
	.long	0xdb5
	.uleb128 0x1
	.long	0x9ce6
	.byte	0
	.uleb128 0x17
	.long	.LASF97
	.byte	0x8
	.value	0x2fd
	.byte	0x7
	.long	.LASF98
	.long	0xd28
	.long	0xdd0
	.uleb128 0x1
	.long	0x9ce6
	.byte	0
	.uleb128 0x1d
	.long	.LASF7
	.byte	0x8
	.value	0x24e
	.byte	0xd
	.long	0x37
	.uleb128 0x1d
	.long	.LASF99
	.byte	0x8
	.value	0x26f
	.byte	0x8
	.long	0xc64
	.byte	0
	.uleb128 0x1b
	.long	.LASF100
	.byte	0x18
	.byte	0x2
	.byte	0x5b
	.byte	0xc
	.long	0x118c
	.uleb128 0x1b
	.long	.LASF101
	.byte	0x18
	.byte	0x2
	.byte	0x62
	.byte	0xe
	.long	0xe9e
	.uleb128 0xf
	.long	.LASF103
	.byte	0x2
	.byte	0x64
	.byte	0xa
	.long	0xea3
	.byte	0
	.uleb128 0xf
	.long	.LASF104
	.byte	0x2
	.byte	0x65
	.byte	0xa
	.long	0xea3
	.byte	0x8
	.uleb128 0xf
	.long	.LASF105
	.byte	0x2
	.byte	0x66
	.byte	0xa
	.long	0xea3
	.byte	0x10
	.uleb128 0x21
	.long	.LASF101
	.byte	0x2
	.byte	0x69
	.byte	0x2
	.long	.LASF106
	.long	0xe40
	.long	0xe46
	.uleb128 0x2
	.long	0x9cf5
	.byte	0
	.uleb128 0x21
	.long	.LASF101
	.byte	0x2
	.byte	0x6f
	.byte	0x2
	.long	.LASF107
	.long	0xe5a
	.long	0xe65
	.uleb128 0x2
	.long	0x9cf5
	.uleb128 0x1
	.long	0x9cff
	.byte	0
	.uleb128 0x21
	.long	.LASF108
	.byte	0x2
	.byte	0x77
	.byte	0x2
	.long	.LASF109
	.long	0xe79
	.long	0xe84
	.uleb128 0x2
	.long	0x9cf5
	.uleb128 0x1
	.long	0x9d04
	.byte	0
	.uleb128 0x64
	.long	.LASF110
	.byte	0x80
	.long	.LASF314
	.long	0xe92
	.uleb128 0x2
	.long	0x9cf5
	.uleb128 0x1
	.long	0x9d09
	.byte	0
	.byte	0
	.uleb128 0x7
	.long	0xdf8
	.uleb128 0x8
	.long	.LASF70
	.byte	0x2
	.byte	0x60
	.byte	0x9
	.long	0x815c
	.uleb128 0x1b
	.long	.LASF111
	.byte	0x18
	.byte	0x2
	.byte	0x8b
	.byte	0xe
	.long	0xf75
	.uleb128 0x36
	.long	0xc64
	.uleb128 0x36
	.long	0xdf8
	.uleb128 0x21
	.long	.LASF111
	.byte	0x2
	.byte	0x8f
	.byte	0x2
	.long	.LASF112
	.long	0xeda
	.long	0xee0
	.uleb128 0x2
	.long	0x9d0e
	.byte	0
	.uleb128 0x21
	.long	.LASF111
	.byte	0x2
	.byte	0x98
	.byte	0x2
	.long	.LASF113
	.long	0xef4
	.long	0xeff
	.uleb128 0x2
	.long	0x9d0e
	.uleb128 0x1
	.long	0x9d18
	.byte	0
	.uleb128 0x21
	.long	.LASF111
	.byte	0x2
	.byte	0xa0
	.byte	0x2
	.long	.LASF114
	.long	0xf13
	.long	0xf1e
	.uleb128 0x2
	.long	0x9d0e
	.uleb128 0x1
	.long	0x9d1d
	.byte	0
	.uleb128 0x21
	.long	.LASF111
	.byte	0x2
	.byte	0xa5
	.byte	0x2
	.long	.LASF115
	.long	0xf32
	.long	0xf3d
	.uleb128 0x2
	.long	0x9d0e
	.uleb128 0x1
	.long	0x9d22
	.byte	0
	.uleb128 0x21
	.long	.LASF111
	.byte	0x2
	.byte	0xaa
	.byte	0x2
	.long	.LASF116
	.long	0xf51
	.long	0xf61
	.uleb128 0x2
	.long	0x9d0e
	.uleb128 0x1
	.long	0x9d22
	.uleb128 0x1
	.long	0x9d1d
	.byte	0
	.uleb128 0x6b
	.long	.LASF476
	.long	.LASF477
	.long	0xf6e
	.uleb128 0x2
	.long	0x9d0e
	.byte	0
	.byte	0
	.uleb128 0x8
	.long	.LASF117
	.byte	0x2
	.byte	0x5e
	.byte	0x15
	.long	0x818d
	.uleb128 0x7
	.long	0xf75
	.uleb128 0x37
	.long	.LASF118
	.value	0x133
	.byte	0x7
	.long	.LASF119
	.long	0x9d27
	.long	0xf9e
	.long	0xfa4
	.uleb128 0x2
	.long	0x9d2c
	.byte	0
	.uleb128 0x37
	.long	.LASF118
	.value	0x138
	.byte	0x7
	.long	.LASF120
	.long	0x9d18
	.long	0xfbc
	.long	0xfc2
	.uleb128 0x2
	.long	0x9d36
	.byte	0
	.uleb128 0x1d
	.long	.LASF92
	.byte	0x2
	.value	0x12f
	.byte	0x16
	.long	0xc64
	.uleb128 0x7
	.long	0xfc2
	.uleb128 0x37
	.long	.LASF121
	.value	0x13d
	.byte	0x7
	.long	.LASF122
	.long	0xfc2
	.long	0xfec
	.long	0xff2
	.uleb128 0x2
	.long	0x9d36
	.byte	0
	.uleb128 0x50
	.long	.LASF123
	.value	0x141
	.long	.LASF124
	.long	0x1005
	.long	0x100b
	.uleb128 0x2
	.long	0x9d2c
	.byte	0
	.uleb128 0x1c
	.long	.LASF123
	.value	0x147
	.long	.LASF125
	.long	0x101e
	.long	0x1029
	.uleb128 0x2
	.long	0x9d2c
	.uleb128 0x1
	.long	0x9d3b
	.byte	0
	.uleb128 0x1c
	.long	.LASF123
	.value	0x14d
	.long	.LASF126
	.long	0x103c
	.long	0x1047
	.uleb128 0x2
	.long	0x9d2c
	.uleb128 0x1
	.long	0x2c3
	.byte	0
	.uleb128 0x1c
	.long	.LASF123
	.value	0x153
	.long	.LASF127
	.long	0x105a
	.long	0x106a
	.uleb128 0x2
	.long	0x9d2c
	.uleb128 0x1
	.long	0x2c3
	.uleb128 0x1
	.long	0x9d3b
	.byte	0
	.uleb128 0x50
	.long	.LASF123
	.value	0x158
	.long	.LASF128
	.long	0x107d
	.long	0x1088
	.uleb128 0x2
	.long	0x9d2c
	.uleb128 0x1
	.long	0x9d40
	.byte	0
	.uleb128 0x1c
	.long	.LASF123
	.value	0x15d
	.long	.LASF129
	.long	0x109b
	.long	0x10a6
	.uleb128 0x2
	.long	0x9d2c
	.uleb128 0x1
	.long	0x9d22
	.byte	0
	.uleb128 0x1c
	.long	.LASF123
	.value	0x161
	.long	.LASF130
	.long	0x10b9
	.long	0x10c9
	.uleb128 0x2
	.long	0x9d2c
	.uleb128 0x1
	.long	0x9d40
	.uleb128 0x1
	.long	0x9d3b
	.byte	0
	.uleb128 0x1c
	.long	.LASF123
	.value	0x16f
	.long	.LASF131
	.long	0x10dc
	.long	0x10ec
	.uleb128 0x2
	.long	0x9d2c
	.uleb128 0x1
	.long	0x9d3b
	.uleb128 0x1
	.long	0x9d40
	.byte	0
	.uleb128 0x1c
	.long	.LASF132
	.value	0x175
	.long	.LASF133
	.long	0x10ff
	.long	0x1105
	.uleb128 0x2
	.long	0x9d2c
	.byte	0
	.uleb128 0x51
	.long	.LASF134
	.value	0x17e
	.byte	0x14
	.long	0xeaf
	.byte	0
	.uleb128 0x37
	.long	.LASF135
	.value	0x182
	.byte	0x7
	.long	.LASF136
	.long	0xea3
	.long	0x112a
	.long	0x1135
	.uleb128 0x2
	.long	0x9d2c
	.uleb128 0x1
	.long	0x2c3
	.byte	0
	.uleb128 0x1c
	.long	.LASF137
	.value	0x18a
	.long	.LASF138
	.long	0x1148
	.long	0x1158
	.uleb128 0x2
	.long	0x9d2c
	.uleb128 0x1
	.long	0xea3
	.uleb128 0x1
	.long	0x2c3
	.byte	0
	.uleb128 0x10
	.long	.LASF139
	.byte	0x2
	.value	0x195
	.byte	0x7
	.long	.LASF140
	.byte	0x2
	.long	0x116e
	.long	0x1179
	.uleb128 0x2
	.long	0x9d2c
	.uleb128 0x1
	.long	0x2c3
	.byte	0
	.uleb128 0x11
	.string	"_Tp"
	.long	0x37
	.uleb128 0xc
	.long	.LASF141
	.long	0xc64
	.byte	0
	.uleb128 0x7
	.long	0xdeb
	.uleb128 0x1b
	.long	.LASF142
	.byte	0x1
	.byte	0x13
	.byte	0xa9
	.byte	0xc
	.long	0x11b4
	.uleb128 0x8
	.long	.LASF143
	.byte	0x13
	.byte	0xaa
	.byte	0xd
	.long	0xc64
	.uleb128 0xc
	.long	.LASF144
	.long	0xc64
	.byte	0
	.uleb128 0x4b
	.long	.LASF145
	.byte	0x18
	.byte	0x2
	.value	0x1cc
	.long	0x1d8d
	.uleb128 0x19
	.byte	0x2
	.value	0x1cc
	.byte	0xb
	.long	0x1112
	.uleb128 0x19
	.byte	0x2
	.value	0x1cc
	.byte	0xb
	.long	0x1135
	.uleb128 0x19
	.byte	0x2
	.value	0x1cc
	.byte	0xb
	.long	0x1105
	.uleb128 0x19
	.byte	0x2
	.value	0x1cc
	.byte	0xb
	.long	0xfa4
	.uleb128 0x19
	.byte	0x2
	.value	0x1cc
	.byte	0xb
	.long	0xf86
	.uleb128 0x19
	.byte	0x2
	.value	0x1cc
	.byte	0xb
	.long	0xfd4
	.uleb128 0x46
	.long	0xdeb
	.byte	0x2
	.uleb128 0x17
	.long	.LASF146
	.byte	0x2
	.value	0x1f6
	.byte	0x7
	.long	.LASF147
	.long	0x8f7a
	.long	0x1218
	.uleb128 0x1
	.long	0x642
	.byte	0
	.uleb128 0x17
	.long	.LASF146
	.byte	0x2
	.value	0x1ff
	.byte	0x7
	.long	.LASF148
	.long	0x8f7a
	.long	0x1233
	.uleb128 0x1
	.long	0x3b3
	.byte	0
	.uleb128 0x6c
	.long	.LASF340
	.long	.LASF341
	.long	0x8f7a
	.uleb128 0x14
	.long	.LASF70
	.byte	0x2
	.value	0x1e6
	.byte	0x29
	.long	0xea3
	.uleb128 0x17
	.long	.LASF149
	.byte	0x2
	.value	0x20c
	.byte	0x7
	.long	.LASF150
	.long	0x1240
	.long	0x1277
	.uleb128 0x1
	.long	0x1240
	.uleb128 0x1
	.long	0x1240
	.uleb128 0x1
	.long	0x1240
	.uleb128 0x1
	.long	0x9d45
	.byte	0
	.uleb128 0x1d
	.long	.LASF117
	.byte	0x2
	.value	0x1e1
	.byte	0x2f
	.long	0xf75
	.uleb128 0x7
	.long	0x1277
	.uleb128 0x52
	.long	.LASF151
	.value	0x227
	.long	.LASF152
	.long	0x129c
	.long	0x12a2
	.uleb128 0x2
	.long	0x9d4a
	.byte	0
	.uleb128 0x43
	.long	.LASF151
	.byte	0x2
	.value	0x232
	.long	.LASF153
	.long	0x12b6
	.long	0x12c1
	.uleb128 0x2
	.long	0x9d4a
	.uleb128 0x1
	.long	0x9d54
	.byte	0
	.uleb128 0x14
	.long	.LASF92
	.byte	0x2
	.value	0x1f1
	.byte	0x1a
	.long	0xc64
	.uleb128 0x7
	.long	0x12c1
	.uleb128 0x43
	.long	.LASF151
	.byte	0x2
	.value	0x240
	.long	.LASF154
	.long	0x12e7
	.long	0x12f7
	.uleb128 0x2
	.long	0x9d4a
	.uleb128 0x1
	.long	0x12f7
	.uleb128 0x1
	.long	0x9d54
	.byte	0
	.uleb128 0x14
	.long	.LASF77
	.byte	0x2
	.value	0x1ef
	.byte	0x1a
	.long	0x2c3
	.uleb128 0x7
	.long	0x12f7
	.uleb128 0x10
	.long	.LASF151
	.byte	0x2
	.value	0x24d
	.byte	0x7
	.long	.LASF155
	.byte	0x1
	.long	0x131f
	.long	0x1334
	.uleb128 0x2
	.long	0x9d4a
	.uleb128 0x1
	.long	0x12f7
	.uleb128 0x1
	.long	0x9d59
	.uleb128 0x1
	.long	0x9d54
	.byte	0
	.uleb128 0x14
	.long	.LASF7
	.byte	0x2
	.value	0x1e5
	.byte	0x17
	.long	0x37
	.uleb128 0x7
	.long	0x1334
	.uleb128 0x10
	.long	.LASF151
	.byte	0x2
	.value	0x26d
	.byte	0x7
	.long	.LASF156
	.byte	0x1
	.long	0x135c
	.long	0x1367
	.uleb128 0x2
	.long	0x9d4a
	.uleb128 0x1
	.long	0x9d5e
	.byte	0
	.uleb128 0x52
	.long	.LASF151
	.value	0x280
	.long	.LASF157
	.long	0x137a
	.long	0x1385
	.uleb128 0x2
	.long	0x9d4a
	.uleb128 0x1
	.long	0x9d63
	.byte	0
	.uleb128 0x10
	.long	.LASF151
	.byte	0x2
	.value	0x284
	.byte	0x7
	.long	.LASF158
	.byte	0x1
	.long	0x139b
	.long	0x13ab
	.uleb128 0x2
	.long	0x9d4a
	.uleb128 0x1
	.long	0x9d5e
	.uleb128 0x1
	.long	0x9d68
	.byte	0
	.uleb128 0x1c
	.long	.LASF151
	.value	0x28f
	.long	.LASF159
	.long	0x13be
	.long	0x13d3
	.uleb128 0x2
	.long	0x9d4a
	.uleb128 0x1
	.long	0x9d63
	.uleb128 0x1
	.long	0x9d54
	.uleb128 0x1
	.long	0x642
	.byte	0
	.uleb128 0x1c
	.long	.LASF151
	.value	0x294
	.long	.LASF160
	.long	0x13e6
	.long	0x13fb
	.uleb128 0x2
	.long	0x9d4a
	.uleb128 0x1
	.long	0x9d63
	.uleb128 0x1
	.long	0x9d54
	.uleb128 0x1
	.long	0x3b3
	.byte	0
	.uleb128 0x10
	.long	.LASF151
	.byte	0x2
	.value	0x2a7
	.byte	0x7
	.long	.LASF161
	.byte	0x1
	.long	0x1411
	.long	0x1421
	.uleb128 0x2
	.long	0x9d4a
	.uleb128 0x1
	.long	0x9d63
	.uleb128 0x1
	.long	0x9d68
	.byte	0
	.uleb128 0x10
	.long	.LASF151
	.byte	0x2
	.value	0x2ba
	.byte	0x7
	.long	.LASF162
	.byte	0x1
	.long	0x1437
	.long	0x1447
	.uleb128 0x2
	.long	0x9d4a
	.uleb128 0x1
	.long	0x1da3
	.uleb128 0x1
	.long	0x9d54
	.byte	0
	.uleb128 0x10
	.long	.LASF163
	.byte	0x2
	.value	0x316
	.byte	0x7
	.long	.LASF164
	.byte	0x1
	.long	0x145d
	.long	0x1463
	.uleb128 0x2
	.long	0x9d4a
	.byte	0
	.uleb128 0x24
	.long	.LASF36
	.byte	0x7
	.byte	0xd6
	.byte	0x5
	.long	.LASF165
	.long	0x9d6d
	.byte	0x1
	.long	0x147c
	.long	0x1487
	.uleb128 0x2
	.long	0x9d4a
	.uleb128 0x1
	.long	0x9d5e
	.byte	0
	.uleb128 0x6
	.long	.LASF36
	.byte	0x2
	.value	0x337
	.byte	0x7
	.long	.LASF166
	.long	0x9d6d
	.byte	0x1
	.long	0x14a1
	.long	0x14ac
	.uleb128 0x2
	.long	0x9d4a
	.uleb128 0x1
	.long	0x9d63
	.byte	0
	.uleb128 0x6
	.long	.LASF36
	.byte	0x2
	.value	0x34d
	.byte	0x7
	.long	.LASF167
	.long	0x9d6d
	.byte	0x1
	.long	0x14c6
	.long	0x14d1
	.uleb128 0x2
	.long	0x9d4a
	.uleb128 0x1
	.long	0x1da3
	.byte	0
	.uleb128 0x10
	.long	.LASF168
	.byte	0x2
	.value	0x361
	.byte	0x7
	.long	.LASF169
	.byte	0x1
	.long	0x14e7
	.long	0x14f7
	.uleb128 0x2
	.long	0x9d4a
	.uleb128 0x1
	.long	0x12f7
	.uleb128 0x1
	.long	0x9d59
	.byte	0
	.uleb128 0x10
	.long	.LASF168
	.byte	0x2
	.value	0x390
	.byte	0x7
	.long	.LASF170
	.byte	0x1
	.long	0x150d
	.long	0x1518
	.uleb128 0x2
	.long	0x9d4a
	.uleb128 0x1
	.long	0x1da3
	.byte	0
	.uleb128 0x14
	.long	.LASF171
	.byte	0x2
	.value	0x1ea
	.byte	0x3d
	.long	0x81ad
	.uleb128 0x6
	.long	.LASF172
	.byte	0x2
	.value	0x3dc
	.byte	0x7
	.long	.LASF173
	.long	0x1518
	.byte	0x1
	.long	0x153f
	.long	0x1545
	.uleb128 0x2
	.long	0x9d4a
	.byte	0
	.uleb128 0x14
	.long	.LASF174
	.byte	0x2
	.value	0x1ec
	.byte	0x7
	.long	0x83e0
	.uleb128 0x6
	.long	.LASF172
	.byte	0x2
	.value	0x3e6
	.byte	0x7
	.long	.LASF175
	.long	0x1545
	.byte	0x1
	.long	0x156c
	.long	0x1572
	.uleb128 0x2
	.long	0x9d72
	.byte	0
	.uleb128 0x39
	.string	"end"
	.value	0x3f0
	.long	.LASF176
	.long	0x1518
	.long	0x1589
	.long	0x158f
	.uleb128 0x2
	.long	0x9d4a
	.byte	0
	.uleb128 0x39
	.string	"end"
	.value	0x3fa
	.long	.LASF177
	.long	0x1545
	.long	0x15a6
	.long	0x15ac
	.uleb128 0x2
	.long	0x9d72
	.byte	0
	.uleb128 0x14
	.long	.LASF178
	.byte	0x2
	.value	0x1ee
	.byte	0x30
	.long	0x1da8
	.uleb128 0x6
	.long	.LASF179
	.byte	0x2
	.value	0x404
	.byte	0x7
	.long	.LASF180
	.long	0x15ac
	.byte	0x1
	.long	0x15d3
	.long	0x15d9
	.uleb128 0x2
	.long	0x9d4a
	.byte	0
	.uleb128 0x14
	.long	.LASF181
	.byte	0x2
	.value	0x1ed
	.byte	0x35
	.long	0x1dad
	.uleb128 0x6
	.long	.LASF179
	.byte	0x2
	.value	0x40e
	.byte	0x7
	.long	.LASF182
	.long	0x15d9
	.byte	0x1
	.long	0x1600
	.long	0x1606
	.uleb128 0x2
	.long	0x9d72
	.byte	0
	.uleb128 0x6
	.long	.LASF183
	.byte	0x2
	.value	0x418
	.byte	0x7
	.long	.LASF184
	.long	0x15ac
	.byte	0x1
	.long	0x1620
	.long	0x1626
	.uleb128 0x2
	.long	0x9d4a
	.byte	0
	.uleb128 0x6
	.long	.LASF183
	.byte	0x2
	.value	0x422
	.byte	0x7
	.long	.LASF185
	.long	0x15d9
	.byte	0x1
	.long	0x1640
	.long	0x1646
	.uleb128 0x2
	.long	0x9d72
	.byte	0
	.uleb128 0x6
	.long	.LASF186
	.byte	0x2
	.value	0x42d
	.byte	0x7
	.long	.LASF187
	.long	0x1545
	.byte	0x1
	.long	0x1660
	.long	0x1666
	.uleb128 0x2
	.long	0x9d72
	.byte	0
	.uleb128 0x6
	.long	.LASF188
	.byte	0x2
	.value	0x437
	.byte	0x7
	.long	.LASF189
	.long	0x1545
	.byte	0x1
	.long	0x1680
	.long	0x1686
	.uleb128 0x2
	.long	0x9d72
	.byte	0
	.uleb128 0x6
	.long	.LASF190
	.byte	0x2
	.value	0x441
	.byte	0x7
	.long	.LASF191
	.long	0x15d9
	.byte	0x1
	.long	0x16a0
	.long	0x16a6
	.uleb128 0x2
	.long	0x9d72
	.byte	0
	.uleb128 0x6
	.long	.LASF192
	.byte	0x2
	.value	0x44b
	.byte	0x7
	.long	.LASF193
	.long	0x15d9
	.byte	0x1
	.long	0x16c0
	.long	0x16c6
	.uleb128 0x2
	.long	0x9d72
	.byte	0
	.uleb128 0x6
	.long	.LASF194
	.byte	0x2
	.value	0x453
	.byte	0x7
	.long	.LASF195
	.long	0x12f7
	.byte	0x1
	.long	0x16e0
	.long	0x16e6
	.uleb128 0x2
	.long	0x9d72
	.byte	0
	.uleb128 0x6
	.long	.LASF80
	.byte	0x2
	.value	0x45e
	.byte	0x7
	.long	.LASF196
	.long	0x12f7
	.byte	0x1
	.long	0x1700
	.long	0x1706
	.uleb128 0x2
	.long	0x9d72
	.byte	0
	.uleb128 0x10
	.long	.LASF197
	.byte	0x2
	.value	0x46d
	.byte	0x7
	.long	.LASF198
	.byte	0x1
	.long	0x171c
	.long	0x1727
	.uleb128 0x2
	.long	0x9d4a
	.uleb128 0x1
	.long	0x12f7
	.byte	0
	.uleb128 0x10
	.long	.LASF197
	.byte	0x2
	.value	0x482
	.byte	0x7
	.long	.LASF199
	.byte	0x1
	.long	0x173d
	.long	0x174d
	.uleb128 0x2
	.long	0x9d4a
	.uleb128 0x1
	.long	0x12f7
	.uleb128 0x1
	.long	0x9d59
	.byte	0
	.uleb128 0x10
	.long	.LASF200
	.byte	0x2
	.value	0x4a4
	.byte	0x7
	.long	.LASF201
	.byte	0x1
	.long	0x1763
	.long	0x1769
	.uleb128 0x2
	.long	0x9d4a
	.byte	0
	.uleb128 0x6
	.long	.LASF202
	.byte	0x2
	.value	0x4ae
	.byte	0x7
	.long	.LASF203
	.long	0x12f7
	.byte	0x1
	.long	0x1783
	.long	0x1789
	.uleb128 0x2
	.long	0x9d72
	.byte	0
	.uleb128 0x6
	.long	.LASF204
	.byte	0x2
	.value	0x4bd
	.byte	0x7
	.long	.LASF205
	.long	0x8f7a
	.byte	0x1
	.long	0x17a3
	.long	0x17a9
	.uleb128 0x2
	.long	0x9d72
	.byte	0
	.uleb128 0x23
	.long	.LASF206
	.byte	0x7
	.byte	0x46
	.byte	0x5
	.long	.LASF207
	.byte	0x1
	.long	0x17be
	.long	0x17c9
	.uleb128 0x2
	.long	0x9d4a
	.uleb128 0x1
	.long	0x12f7
	.byte	0
	.uleb128 0x14
	.long	.LASF71
	.byte	0x2
	.value	0x1e8
	.byte	0x32
	.long	0x8168
	.uleb128 0x6
	.long	.LASF208
	.byte	0x2
	.value	0x4e3
	.byte	0x7
	.long	.LASF209
	.long	0x17c9
	.byte	0x1
	.long	0x17f0
	.long	0x17fb
	.uleb128 0x2
	.long	0x9d4a
	.uleb128 0x1
	.long	0x12f7
	.byte	0
	.uleb128 0x14
	.long	.LASF74
	.byte	0x2
	.value	0x1e9
	.byte	0x37
	.long	0x8174
	.uleb128 0x6
	.long	.LASF208
	.byte	0x2
	.value	0x4f6
	.byte	0x7
	.long	.LASF210
	.long	0x17fb
	.byte	0x1
	.long	0x1822
	.long	0x182d
	.uleb128 0x2
	.long	0x9d72
	.uleb128 0x1
	.long	0x12f7
	.byte	0
	.uleb128 0x10
	.long	.LASF211
	.byte	0x2
	.value	0x500
	.byte	0x7
	.long	.LASF212
	.byte	0x2
	.long	0x1843
	.long	0x184e
	.uleb128 0x2
	.long	0x9d72
	.uleb128 0x1
	.long	0x12f7
	.byte	0
	.uleb128 0x39
	.string	"at"
	.value	0x517
	.long	.LASF213
	.long	0x17c9
	.long	0x1864
	.long	0x186f
	.uleb128 0x2
	.long	0x9d4a
	.uleb128 0x1
	.long	0x12f7
	.byte	0
	.uleb128 0x39
	.string	"at"
	.value	0x52a
	.long	.LASF214
	.long	0x17fb
	.long	0x1885
	.long	0x1890
	.uleb128 0x2
	.long	0x9d72
	.uleb128 0x1
	.long	0x12f7
	.byte	0
	.uleb128 0x6
	.long	.LASF215
	.byte	0x2
	.value	0x536
	.byte	0x7
	.long	.LASF216
	.long	0x17c9
	.byte	0x1
	.long	0x18aa
	.long	0x18b0
	.uleb128 0x2
	.long	0x9d4a
	.byte	0
	.uleb128 0x6
	.long	.LASF215
	.byte	0x2
	.value	0x542
	.byte	0x7
	.long	.LASF217
	.long	0x17fb
	.byte	0x1
	.long	0x18ca
	.long	0x18d0
	.uleb128 0x2
	.long	0x9d72
	.byte	0
	.uleb128 0x6
	.long	.LASF218
	.byte	0x2
	.value	0x54e
	.byte	0x7
	.long	.LASF219
	.long	0x17c9
	.byte	0x1
	.long	0x18ea
	.long	0x18f0
	.uleb128 0x2
	.long	0x9d4a
	.byte	0
	.uleb128 0x6
	.long	.LASF218
	.byte	0x2
	.value	0x55a
	.byte	0x7
	.long	.LASF220
	.long	0x17fb
	.byte	0x1
	.long	0x190a
	.long	0x1910
	.uleb128 0x2
	.long	0x9d72
	.byte	0
	.uleb128 0x6
	.long	.LASF221
	.byte	0x2
	.value	0x569
	.byte	0x7
	.long	.LASF222
	.long	0x9caa
	.byte	0x1
	.long	0x192a
	.long	0x1930
	.uleb128 0x2
	.long	0x9d4a
	.byte	0
	.uleb128 0x6
	.long	.LASF221
	.byte	0x2
	.value	0x56e
	.byte	0x7
	.long	.LASF223
	.long	0x9cc3
	.byte	0x1
	.long	0x194a
	.long	0x1950
	.uleb128 0x2
	.long	0x9d72
	.byte	0
	.uleb128 0x10
	.long	.LASF224
	.byte	0x2
	.value	0x57e
	.byte	0x7
	.long	.LASF225
	.byte	0x1
	.long	0x1966
	.long	0x1971
	.uleb128 0x2
	.long	0x9d4a
	.uleb128 0x1
	.long	0x9d59
	.byte	0
	.uleb128 0x10
	.long	.LASF224
	.byte	0x2
	.value	0x58f
	.byte	0x7
	.long	.LASF226
	.byte	0x1
	.long	0x1987
	.long	0x1992
	.uleb128 0x2
	.long	0x9d4a
	.uleb128 0x1
	.long	0x9d7c
	.byte	0
	.uleb128 0x10
	.long	.LASF227
	.byte	0x2
	.value	0x5a7
	.byte	0x7
	.long	.LASF228
	.byte	0x1
	.long	0x19a8
	.long	0x19ae
	.uleb128 0x2
	.long	0x9d4a
	.byte	0
	.uleb128 0x24
	.long	.LASF229
	.byte	0x7
	.byte	0x89
	.byte	0x5
	.long	.LASF230
	.long	0x1518
	.byte	0x1
	.long	0x19c7
	.long	0x19d7
	.uleb128 0x2
	.long	0x9d4a
	.uleb128 0x1
	.long	0x1545
	.uleb128 0x1
	.long	0x9d59
	.byte	0
	.uleb128 0x6
	.long	.LASF229
	.byte	0x2
	.value	0x5ee
	.byte	0x7
	.long	.LASF231
	.long	0x1518
	.byte	0x1
	.long	0x19f1
	.long	0x1a01
	.uleb128 0x2
	.long	0x9d4a
	.uleb128 0x1
	.long	0x1545
	.uleb128 0x1
	.long	0x9d7c
	.byte	0
	.uleb128 0x6
	.long	.LASF229
	.byte	0x2
	.value	0x600
	.byte	0x7
	.long	.LASF232
	.long	0x1518
	.byte	0x1
	.long	0x1a1b
	.long	0x1a2b
	.uleb128 0x2
	.long	0x9d4a
	.uleb128 0x1
	.long	0x1545
	.uleb128 0x1
	.long	0x1da3
	.byte	0
	.uleb128 0x6
	.long	.LASF229
	.byte	0x2
	.value	0x61a
	.byte	0x7
	.long	.LASF233
	.long	0x1518
	.byte	0x1
	.long	0x1a45
	.long	0x1a5a
	.uleb128 0x2
	.long	0x9d4a
	.uleb128 0x1
	.long	0x1545
	.uleb128 0x1
	.long	0x12f7
	.uleb128 0x1
	.long	0x9d59
	.byte	0
	.uleb128 0x6
	.long	.LASF234
	.byte	0x2
	.value	0x6f6
	.byte	0x7
	.long	.LASF235
	.long	0x1518
	.byte	0x1
	.long	0x1a74
	.long	0x1a7f
	.uleb128 0x2
	.long	0x9d4a
	.uleb128 0x1
	.long	0x1545
	.byte	0
	.uleb128 0x6
	.long	.LASF234
	.byte	0x2
	.value	0x712
	.byte	0x7
	.long	.LASF236
	.long	0x1518
	.byte	0x1
	.long	0x1a99
	.long	0x1aa9
	.uleb128 0x2
	.long	0x9d4a
	.uleb128 0x1
	.long	0x1545
	.uleb128 0x1
	.long	0x1545
	.byte	0
	.uleb128 0x10
	.long	.LASF41
	.byte	0x2
	.value	0x72a
	.byte	0x7
	.long	.LASF237
	.byte	0x1
	.long	0x1abf
	.long	0x1aca
	.uleb128 0x2
	.long	0x9d4a
	.uleb128 0x1
	.long	0x9d6d
	.byte	0
	.uleb128 0x10
	.long	.LASF238
	.byte	0x2
	.value	0x73d
	.byte	0x7
	.long	.LASF239
	.byte	0x1
	.long	0x1ae0
	.long	0x1ae6
	.uleb128 0x2
	.long	0x9d4a
	.byte	0
	.uleb128 0x10
	.long	.LASF240
	.byte	0x2
	.value	0x7c3
	.byte	0x7
	.long	.LASF241
	.byte	0x2
	.long	0x1afc
	.long	0x1b0c
	.uleb128 0x2
	.long	0x9d4a
	.uleb128 0x1
	.long	0x12f7
	.uleb128 0x1
	.long	0x9d59
	.byte	0
	.uleb128 0x10
	.long	.LASF242
	.byte	0x2
	.value	0x7ce
	.byte	0x7
	.long	.LASF243
	.byte	0x2
	.long	0x1b22
	.long	0x1b2d
	.uleb128 0x2
	.long	0x9d4a
	.uleb128 0x1
	.long	0x12f7
	.byte	0
	.uleb128 0x10
	.long	.LASF244
	.byte	0x7
	.value	0x112
	.byte	0x5
	.long	.LASF245
	.byte	0x2
	.long	0x1b43
	.long	0x1b53
	.uleb128 0x2
	.long	0x9d4a
	.uleb128 0x1
	.long	0x2c3
	.uleb128 0x1
	.long	0x9d59
	.byte	0
	.uleb128 0x10
	.long	.LASF246
	.byte	0x7
	.value	0x296
	.byte	0x5
	.long	.LASF247
	.byte	0x2
	.long	0x1b69
	.long	0x1b7e
	.uleb128 0x2
	.long	0x9d4a
	.uleb128 0x1
	.long	0x1518
	.uleb128 0x1
	.long	0x12f7
	.uleb128 0x1
	.long	0x9d59
	.byte	0
	.uleb128 0x10
	.long	.LASF248
	.byte	0x7
	.value	0x300
	.byte	0x5
	.long	.LASF249
	.byte	0x2
	.long	0x1b94
	.long	0x1ba4
	.uleb128 0x2
	.long	0x9d4a
	.uleb128 0x1
	.long	0x12f7
	.uleb128 0x1
	.long	0x9d59
	.byte	0
	.uleb128 0x10
	.long	.LASF250
	.byte	0x7
	.value	0x339
	.byte	0x5
	.long	.LASF251
	.byte	0x2
	.long	0x1bba
	.long	0x1bc5
	.uleb128 0x2
	.long	0x9d4a
	.uleb128 0x1
	.long	0x12f7
	.byte	0
	.uleb128 0x6
	.long	.LASF252
	.byte	0x7
	.value	0x396
	.byte	0x5
	.long	.LASF253
	.long	0x8f7a
	.byte	0x2
	.long	0x1bdf
	.long	0x1be5
	.uleb128 0x2
	.long	0x9d4a
	.byte	0
	.uleb128 0x6
	.long	.LASF254
	.byte	0x7
	.value	0x16f
	.byte	0x5
	.long	.LASF255
	.long	0x1518
	.byte	0x2
	.long	0x1bff
	.long	0x1c0f
	.uleb128 0x2
	.long	0x9d4a
	.uleb128 0x1
	.long	0x1545
	.uleb128 0x1
	.long	0x9d7c
	.byte	0
	.uleb128 0x6
	.long	.LASF256
	.byte	0x2
	.value	0x889
	.byte	0x7
	.long	.LASF257
	.long	0x1518
	.byte	0x2
	.long	0x1c29
	.long	0x1c39
	.uleb128 0x2
	.long	0x9d4a
	.uleb128 0x1
	.long	0x1545
	.uleb128 0x1
	.long	0x9d7c
	.byte	0
	.uleb128 0x6
	.long	.LASF258
	.byte	0x2
	.value	0x890
	.byte	0x7
	.long	.LASF259
	.long	0x12f7
	.byte	0x2
	.long	0x1c53
	.long	0x1c63
	.uleb128 0x2
	.long	0x9d72
	.uleb128 0x1
	.long	0x12f7
	.uleb128 0x1
	.long	0x77aa
	.byte	0
	.uleb128 0x53
	.long	.LASF260
	.value	0x89b
	.long	.LASF261
	.long	0x12f7
	.long	0x1c81
	.uleb128 0x1
	.long	0x12f7
	.uleb128 0x1
	.long	0x9d54
	.byte	0
	.uleb128 0x53
	.long	.LASF262
	.value	0x8a4
	.long	.LASF263
	.long	0x12f7
	.long	0x1c9a
	.uleb128 0x1
	.long	0x9d81
	.byte	0
	.uleb128 0x10
	.long	.LASF264
	.byte	0x2
	.value	0x8b5
	.byte	0x7
	.long	.LASF265
	.byte	0x2
	.long	0x1cb0
	.long	0x1cbb
	.uleb128 0x2
	.long	0x9d4a
	.uleb128 0x1
	.long	0x1240
	.byte	0
	.uleb128 0x24
	.long	.LASF266
	.byte	0x7
	.byte	0xb9
	.byte	0x5
	.long	.LASF267
	.long	0x1518
	.byte	0x2
	.long	0x1cd4
	.long	0x1cdf
	.uleb128 0x2
	.long	0x9d4a
	.uleb128 0x1
	.long	0x1518
	.byte	0
	.uleb128 0x24
	.long	.LASF266
	.byte	0x7
	.byte	0xc7
	.byte	0x5
	.long	.LASF268
	.long	0x1518
	.byte	0x2
	.long	0x1cf8
	.long	0x1d08
	.uleb128 0x2
	.long	0x9d4a
	.uleb128 0x1
	.long	0x1518
	.uleb128 0x1
	.long	0x1518
	.byte	0
	.uleb128 0x1c
	.long	.LASF269
	.value	0x8cf
	.long	.LASF270
	.long	0x1d1b
	.long	0x1d2b
	.uleb128 0x2
	.long	0x9d4a
	.uleb128 0x1
	.long	0x9d63
	.uleb128 0x1
	.long	0x642
	.byte	0
	.uleb128 0x1c
	.long	.LASF269
	.value	0x8db
	.long	.LASF271
	.long	0x1d3e
	.long	0x1d4e
	.uleb128 0x2
	.long	0x9d4a
	.uleb128 0x1
	.long	0x9d63
	.uleb128 0x1
	.long	0x3b3
	.byte	0
	.uleb128 0x37
	.long	.LASF272
	.value	0x8ee
	.byte	0x2
	.long	.LASF273
	.long	0x9caa
	.long	0x1d6f
	.long	0x1d7a
	.uleb128 0x11
	.string	"_Up"
	.long	0x37
	.uleb128 0x2
	.long	0x9d72
	.uleb128 0x1
	.long	0x9caa
	.byte	0
	.uleb128 0x11
	.string	"_Tp"
	.long	0x37
	.uleb128 0x65
	.long	.LASF141
	.long	0xc64
	.byte	0
	.uleb128 0x7
	.long	0x11b4
	.uleb128 0x8
	.long	.LASF274
	.byte	0x13
	.byte	0xad
	.byte	0xb
	.long	0x119e
	.uleb128 0x7
	.long	0x1d92
	.uleb128 0x33
	.long	.LASF276
	.uleb128 0x33
	.long	.LASF277
	.uleb128 0x33
	.long	.LASF278
	.uleb128 0x19
	.byte	0x9
	.value	0x82c
	.byte	0xb
	.long	0x9ec1
	.uleb128 0x19
	.byte	0x9
	.value	0x82d
	.byte	0xb
	.long	0x9eb5
	.uleb128 0x4c
	.string	"abs"
	.byte	0x23
	.byte	0x96
	.long	.LASF279
	.long	0x9b23
	.long	0x1ddd
	.uleb128 0x1
	.long	0x9b23
	.byte	0
	.uleb128 0x4c
	.string	"abs"
	.byte	0x23
	.byte	0x6e
	.long	.LASF280
	.long	0x8faa
	.long	0x1df6
	.uleb128 0x1
	.long	0x8faa
	.byte	0
	.uleb128 0x4c
	.string	"abs"
	.byte	0x23
	.byte	0x55
	.long	.LASF281
	.long	0x8ed7
	.long	0x1e0f
	.uleb128 0x1
	.long	0x8ed7
	.byte	0
	.uleb128 0x4c
	.string	"abs"
	.byte	0x23
	.byte	0x51
	.long	.LASF282
	.long	0x30
	.long	0x1e28
	.uleb128 0x1
	.long	0x30
	.byte	0
	.uleb128 0x4c
	.string	"abs"
	.byte	0x23
	.byte	0x4d
	.long	.LASF283
	.long	0x7d14
	.long	0x1e41
	.uleb128 0x1
	.long	0x7d14
	.byte	0
	.uleb128 0x4c
	.string	"abs"
	.byte	0x23
	.byte	0x43
	.long	.LASF284
	.long	0x8f03
	.long	0x1e5a
	.uleb128 0x1
	.long	0x8f03
	.byte	0
	.uleb128 0x4c
	.string	"abs"
	.byte	0x23
	.byte	0x3e
	.long	.LASF285
	.long	0x7d86
	.long	0x1e73
	.uleb128 0x1
	.long	0x7d86
	.byte	0
	.uleb128 0x4c
	.string	"div"
	.byte	0x18
	.byte	0xbb
	.long	.LASF286
	.long	0x92e7
	.long	0x1e91
	.uleb128 0x1
	.long	0x7d86
	.uleb128 0x1
	.long	0x7d86
	.byte	0
	.uleb128 0x3f
	.long	.LASF287
	.byte	0x1
	.byte	0x6
	.byte	0x3f
	.long	0x202f
	.uleb128 0x23
	.long	.LASF60
	.byte	0x6
	.byte	0x58
	.byte	0x7
	.long	.LASF288
	.byte	0x1
	.long	0x1eb2
	.long	0x1eb8
	.uleb128 0x2
	.long	0xa193
	.byte	0
	.uleb128 0x23
	.long	.LASF60
	.byte	0x6
	.byte	0x5c
	.byte	0x7
	.long	.LASF289
	.byte	0x1
	.long	0x1ecd
	.long	0x1ed8
	.uleb128 0x2
	.long	0xa193
	.uleb128 0x1
	.long	0xa198
	.byte	0
	.uleb128 0x4f
	.long	.LASF36
	.byte	0x6
	.byte	0x64
	.byte	0x18
	.long	.LASF290
	.long	0xa19d
	.long	0x1ef0
	.long	0x1efb
	.uleb128 0x2
	.long	0xa193
	.uleb128 0x1
	.long	0xa198
	.byte	0
	.uleb128 0x23
	.long	.LASF66
	.byte	0x6
	.byte	0x68
	.byte	0x7
	.long	.LASF291
	.byte	0x1
	.long	0x1f10
	.long	0x1f16
	.uleb128 0x2
	.long	0xa193
	.byte	0
	.uleb128 0x27
	.long	.LASF70
	.byte	0x6
	.byte	0x46
	.byte	0x1a
	.long	0xa1a2
	.uleb128 0x24
	.long	.LASF68
	.byte	0x6
	.byte	0x6b
	.byte	0x7
	.long	.LASF292
	.long	0x1f16
	.byte	0x1
	.long	0x1f3b
	.long	0x1f46
	.uleb128 0x2
	.long	0xa1ac
	.uleb128 0x1
	.long	0x1f46
	.byte	0
	.uleb128 0x27
	.long	.LASF71
	.byte	0x6
	.byte	0x48
	.byte	0x1a
	.long	0xa1b1
	.uleb128 0x27
	.long	.LASF72
	.byte	0x6
	.byte	0x47
	.byte	0x1a
	.long	0xa1b6
	.uleb128 0x24
	.long	.LASF68
	.byte	0x6
	.byte	0x6f
	.byte	0x7
	.long	.LASF293
	.long	0x1f52
	.byte	0x1
	.long	0x1f77
	.long	0x1f82
	.uleb128 0x2
	.long	0xa1ac
	.uleb128 0x1
	.long	0x1f82
	.byte	0
	.uleb128 0x27
	.long	.LASF74
	.byte	0x6
	.byte	0x49
	.byte	0x1a
	.long	0xa1c0
	.uleb128 0x24
	.long	.LASF75
	.byte	0x6
	.byte	0x81
	.byte	0x7
	.long	.LASF294
	.long	0xa1a2
	.byte	0x1
	.long	0x1fa7
	.long	0x1fb7
	.uleb128 0x2
	.long	0xa193
	.uleb128 0x1
	.long	0x1fb7
	.uleb128 0x1
	.long	0x8fc9
	.byte	0
	.uleb128 0x27
	.long	.LASF77
	.byte	0x6
	.byte	0x43
	.byte	0x1f
	.long	0x2c3
	.uleb128 0x23
	.long	.LASF78
	.byte	0x6
	.byte	0xa7
	.byte	0x7
	.long	.LASF295
	.byte	0x1
	.long	0x1fd8
	.long	0x1fe8
	.uleb128 0x2
	.long	0xa193
	.uleb128 0x1
	.long	0xa1a2
	.uleb128 0x1
	.long	0x1fb7
	.byte	0
	.uleb128 0x24
	.long	.LASF80
	.byte	0x6
	.byte	0xc2
	.byte	0x7
	.long	.LASF296
	.long	0x1fb7
	.byte	0x1
	.long	0x2001
	.long	0x2007
	.uleb128 0x2
	.long	0xa1ac
	.byte	0
	.uleb128 0x42
	.long	.LASF82
	.byte	0x6
	.byte	0xf2
	.byte	0x7
	.long	.LASF297
	.long	0x1fb7
	.long	0x201f
	.long	0x2025
	.uleb128 0x2
	.long	0xa1ac
	.byte	0
	.uleb128 0x11
	.string	"_Tp"
	.long	0x9e7f
	.byte	0
	.uleb128 0x7
	.long	0x1e91
	.uleb128 0x3f
	.long	.LASF298
	.byte	0x1
	.byte	0x5
	.byte	0x85
	.long	0x20b8
	.uleb128 0x46
	.long	0x1e91
	.byte	0x1
	.uleb128 0x23
	.long	.LASF85
	.byte	0x5
	.byte	0xa8
	.byte	0x7
	.long	.LASF299
	.byte	0x1
	.long	0x205b
	.long	0x2061
	.uleb128 0x2
	.long	0xa1c5
	.byte	0
	.uleb128 0x23
	.long	.LASF85
	.byte	0x5
	.byte	0xac
	.byte	0x7
	.long	.LASF300
	.byte	0x1
	.long	0x2076
	.long	0x2081
	.uleb128 0x2
	.long	0xa1c5
	.uleb128 0x1
	.long	0xa1ca
	.byte	0
	.uleb128 0x4f
	.long	.LASF36
	.byte	0x5
	.byte	0xb1
	.byte	0x12
	.long	.LASF301
	.long	0xa1cf
	.long	0x2099
	.long	0x20a4
	.uleb128 0x2
	.long	0xa1c5
	.uleb128 0x1
	.long	0xa1ca
	.byte	0
	.uleb128 0x6a
	.long	.LASF89
	.long	.LASF302
	.long	0x20b1
	.uleb128 0x2
	.long	0xa1c5
	.byte	0
	.byte	0
	.uleb128 0x7
	.long	0x2034
	.uleb128 0x5f
	.long	.LASF303
	.byte	0x1
	.byte	0x8
	.value	0x248
	.byte	0xc
	.long	0x21bb
	.uleb128 0x1d
	.long	.LASF70
	.byte	0x8
	.value	0x251
	.byte	0xd
	.long	0xa1a2
	.uleb128 0x17
	.long	.LASF75
	.byte	0x8
	.value	0x27d
	.byte	0x7
	.long	.LASF304
	.long	0x20cb
	.long	0x20f8
	.uleb128 0x1
	.long	0xa1d4
	.uleb128 0x1
	.long	0x210a
	.byte	0
	.uleb128 0x1d
	.long	.LASF92
	.byte	0x8
	.value	0x24b
	.byte	0xd
	.long	0x2034
	.uleb128 0x7
	.long	0x20f8
	.uleb128 0x1d
	.long	.LASF77
	.byte	0x8
	.value	0x260
	.byte	0xd
	.long	0x2c3
	.uleb128 0x17
	.long	.LASF75
	.byte	0x8
	.value	0x28c
	.byte	0x7
	.long	.LASF305
	.long	0x20cb
	.long	0x213c
	.uleb128 0x1
	.long	0xa1d4
	.uleb128 0x1
	.long	0x210a
	.uleb128 0x1
	.long	0x213c
	.byte	0
	.uleb128 0x1d
	.long	.LASF95
	.byte	0x8
	.value	0x25a
	.byte	0xd
	.long	0x8fc9
	.uleb128 0x40
	.long	.LASF78
	.byte	0x8
	.value	0x2b0
	.byte	0x7
	.long	.LASF307
	.long	0x216a
	.uleb128 0x1
	.long	0xa1d4
	.uleb128 0x1
	.long	0x20cb
	.uleb128 0x1
	.long	0x210a
	.byte	0
	.uleb128 0x17
	.long	.LASF80
	.byte	0x8
	.value	0x2ed
	.byte	0x7
	.long	.LASF308
	.long	0x210a
	.long	0x2185
	.uleb128 0x1
	.long	0xa1d9
	.byte	0
	.uleb128 0x17
	.long	.LASF97
	.byte	0x8
	.value	0x2fd
	.byte	0x7
	.long	.LASF309
	.long	0x20f8
	.long	0x21a0
	.uleb128 0x1
	.long	0xa1d9
	.byte	0
	.uleb128 0x1d
	.long	.LASF7
	.byte	0x8
	.value	0x24e
	.byte	0xd
	.long	0x9e7f
	.uleb128 0x1d
	.long	.LASF99
	.byte	0x8
	.value	0x26f
	.byte	0x8
	.long	0x2034
	.byte	0
	.uleb128 0x1b
	.long	.LASF310
	.byte	0x18
	.byte	0x2
	.byte	0x5b
	.byte	0xc
	.long	0x2543
	.uleb128 0x1b
	.long	.LASF101
	.byte	0x18
	.byte	0x2
	.byte	0x62
	.byte	0xe
	.long	0x226e
	.uleb128 0xf
	.long	.LASF103
	.byte	0x2
	.byte	0x64
	.byte	0xa
	.long	0x2273
	.byte	0
	.uleb128 0xf
	.long	.LASF104
	.byte	0x2
	.byte	0x65
	.byte	0xa
	.long	0x2273
	.byte	0x8
	.uleb128 0xf
	.long	.LASF105
	.byte	0x2
	.byte	0x66
	.byte	0xa
	.long	0x2273
	.byte	0x10
	.uleb128 0x21
	.long	.LASF101
	.byte	0x2
	.byte	0x69
	.byte	0x2
	.long	.LASF311
	.long	0x2210
	.long	0x2216
	.uleb128 0x2
	.long	0xa1e8
	.byte	0
	.uleb128 0x21
	.long	.LASF101
	.byte	0x2
	.byte	0x6f
	.byte	0x2
	.long	.LASF312
	.long	0x222a
	.long	0x2235
	.uleb128 0x2
	.long	0xa1e8
	.uleb128 0x1
	.long	0xa1ed
	.byte	0
	.uleb128 0x21
	.long	.LASF108
	.byte	0x2
	.byte	0x77
	.byte	0x2
	.long	.LASF313
	.long	0x2249
	.long	0x2254
	.uleb128 0x2
	.long	0xa1e8
	.uleb128 0x1
	.long	0xa1f2
	.byte	0
	.uleb128 0x64
	.long	.LASF110
	.byte	0x80
	.long	.LASF315
	.long	0x2262
	.uleb128 0x2
	.long	0xa1e8
	.uleb128 0x1
	.long	0xa1f7
	.byte	0
	.byte	0
	.uleb128 0x7
	.long	0x21c8
	.uleb128 0x8
	.long	.LASF70
	.byte	0x2
	.byte	0x60
	.byte	0x9
	.long	0x84a3
	.uleb128 0x1b
	.long	.LASF111
	.byte	0x18
	.byte	0x2
	.byte	0x8b
	.byte	0xe
	.long	0x232c
	.uleb128 0x36
	.long	0x2034
	.uleb128 0x36
	.long	0x21c8
	.uleb128 0x21
	.long	.LASF111
	.byte	0x2
	.byte	0x8f
	.byte	0x2
	.long	.LASF316
	.long	0x22aa
	.long	0x22b0
	.uleb128 0x2
	.long	0xa1fc
	.byte	0
	.uleb128 0x21
	.long	.LASF111
	.byte	0x2
	.byte	0x98
	.byte	0x2
	.long	.LASF317
	.long	0x22c4
	.long	0x22cf
	.uleb128 0x2
	.long	0xa1fc
	.uleb128 0x1
	.long	0xa201
	.byte	0
	.uleb128 0x21
	.long	.LASF111
	.byte	0x2
	.byte	0xa0
	.byte	0x2
	.long	.LASF318
	.long	0x22e3
	.long	0x22ee
	.uleb128 0x2
	.long	0xa1fc
	.uleb128 0x1
	.long	0xa206
	.byte	0
	.uleb128 0x21
	.long	.LASF111
	.byte	0x2
	.byte	0xa5
	.byte	0x2
	.long	.LASF319
	.long	0x2302
	.long	0x230d
	.uleb128 0x2
	.long	0xa1fc
	.uleb128 0x1
	.long	0xa20b
	.byte	0
	.uleb128 0x64
	.long	.LASF111
	.byte	0xaa
	.long	.LASF320
	.long	0x231b
	.uleb128 0x2
	.long	0xa1fc
	.uleb128 0x1
	.long	0xa20b
	.uleb128 0x1
	.long	0xa206
	.byte	0
	.byte	0
	.uleb128 0x8
	.long	.LASF117
	.byte	0x2
	.byte	0x5e
	.byte	0x15
	.long	0x84d4
	.uleb128 0x7
	.long	0x232c
	.uleb128 0x37
	.long	.LASF118
	.value	0x133
	.byte	0x7
	.long	.LASF321
	.long	0xa210
	.long	0x2355
	.long	0x235b
	.uleb128 0x2
	.long	0xa215
	.byte	0
	.uleb128 0x37
	.long	.LASF118
	.value	0x138
	.byte	0x7
	.long	.LASF322
	.long	0xa201
	.long	0x2373
	.long	0x2379
	.uleb128 0x2
	.long	0xa21a
	.byte	0
	.uleb128 0x1d
	.long	.LASF92
	.byte	0x2
	.value	0x12f
	.byte	0x16
	.long	0x2034
	.uleb128 0x7
	.long	0x2379
	.uleb128 0x37
	.long	.LASF121
	.value	0x13d
	.byte	0x7
	.long	.LASF323
	.long	0x2379
	.long	0x23a3
	.long	0x23a9
	.uleb128 0x2
	.long	0xa21a
	.byte	0
	.uleb128 0x50
	.long	.LASF123
	.value	0x141
	.long	.LASF324
	.long	0x23bc
	.long	0x23c2
	.uleb128 0x2
	.long	0xa215
	.byte	0
	.uleb128 0x1c
	.long	.LASF123
	.value	0x147
	.long	.LASF325
	.long	0x23d5
	.long	0x23e0
	.uleb128 0x2
	.long	0xa215
	.uleb128 0x1
	.long	0xa21f
	.byte	0
	.uleb128 0x1c
	.long	.LASF123
	.value	0x14d
	.long	.LASF326
	.long	0x23f3
	.long	0x23fe
	.uleb128 0x2
	.long	0xa215
	.uleb128 0x1
	.long	0x2c3
	.byte	0
	.uleb128 0x1c
	.long	.LASF123
	.value	0x153
	.long	.LASF327
	.long	0x2411
	.long	0x2421
	.uleb128 0x2
	.long	0xa215
	.uleb128 0x1
	.long	0x2c3
	.uleb128 0x1
	.long	0xa21f
	.byte	0
	.uleb128 0x50
	.long	.LASF123
	.value	0x158
	.long	.LASF328
	.long	0x2434
	.long	0x243f
	.uleb128 0x2
	.long	0xa215
	.uleb128 0x1
	.long	0xa224
	.byte	0
	.uleb128 0x1c
	.long	.LASF123
	.value	0x15d
	.long	.LASF329
	.long	0x2452
	.long	0x245d
	.uleb128 0x2
	.long	0xa215
	.uleb128 0x1
	.long	0xa20b
	.byte	0
	.uleb128 0x1c
	.long	.LASF123
	.value	0x161
	.long	.LASF330
	.long	0x2470
	.long	0x2480
	.uleb128 0x2
	.long	0xa215
	.uleb128 0x1
	.long	0xa224
	.uleb128 0x1
	.long	0xa21f
	.byte	0
	.uleb128 0x1c
	.long	.LASF123
	.value	0x16f
	.long	.LASF331
	.long	0x2493
	.long	0x24a3
	.uleb128 0x2
	.long	0xa215
	.uleb128 0x1
	.long	0xa21f
	.uleb128 0x1
	.long	0xa224
	.byte	0
	.uleb128 0x1c
	.long	.LASF132
	.value	0x175
	.long	.LASF332
	.long	0x24b6
	.long	0x24bc
	.uleb128 0x2
	.long	0xa215
	.byte	0
	.uleb128 0x51
	.long	.LASF134
	.value	0x17e
	.byte	0x14
	.long	0x227f
	.byte	0
	.uleb128 0x37
	.long	.LASF135
	.value	0x182
	.byte	0x7
	.long	.LASF333
	.long	0x2273
	.long	0x24e1
	.long	0x24ec
	.uleb128 0x2
	.long	0xa215
	.uleb128 0x1
	.long	0x2c3
	.byte	0
	.uleb128 0x1c
	.long	.LASF137
	.value	0x18a
	.long	.LASF334
	.long	0x24ff
	.long	0x250f
	.uleb128 0x2
	.long	0xa215
	.uleb128 0x1
	.long	0x2273
	.uleb128 0x1
	.long	0x2c3
	.byte	0
	.uleb128 0x10
	.long	.LASF139
	.byte	0x2
	.value	0x195
	.byte	0x7
	.long	.LASF335
	.byte	0x2
	.long	0x2525
	.long	0x2530
	.uleb128 0x2
	.long	0xa215
	.uleb128 0x1
	.long	0x2c3
	.byte	0
	.uleb128 0x11
	.string	"_Tp"
	.long	0x9e7f
	.uleb128 0xc
	.long	.LASF141
	.long	0x2034
	.byte	0
	.uleb128 0x7
	.long	0x21bb
	.uleb128 0x1b
	.long	.LASF336
	.byte	0x1
	.byte	0x13
	.byte	0xa9
	.byte	0xc
	.long	0x256b
	.uleb128 0x8
	.long	.LASF143
	.byte	0x13
	.byte	0xaa
	.byte	0xd
	.long	0x2034
	.uleb128 0xc
	.long	.LASF144
	.long	0x2034
	.byte	0
	.uleb128 0x4b
	.long	.LASF337
	.byte	0x18
	.byte	0x2
	.value	0x1cc
	.long	0x3113
	.uleb128 0x19
	.byte	0x2
	.value	0x1cc
	.byte	0xb
	.long	0x24c9
	.uleb128 0x19
	.byte	0x2
	.value	0x1cc
	.byte	0xb
	.long	0x24ec
	.uleb128 0x19
	.byte	0x2
	.value	0x1cc
	.byte	0xb
	.long	0x24bc
	.uleb128 0x19
	.byte	0x2
	.value	0x1cc
	.byte	0xb
	.long	0x235b
	.uleb128 0x19
	.byte	0x2
	.value	0x1cc
	.byte	0xb
	.long	0x233d
	.uleb128 0x19
	.byte	0x2
	.value	0x1cc
	.byte	0xb
	.long	0x238b
	.uleb128 0x46
	.long	0x21bb
	.byte	0x2
	.uleb128 0x17
	.long	.LASF146
	.byte	0x2
	.value	0x1f6
	.byte	0x7
	.long	.LASF338
	.long	0x8f7a
	.long	0x25cf
	.uleb128 0x1
	.long	0x642
	.byte	0
	.uleb128 0x17
	.long	.LASF146
	.byte	0x2
	.value	0x1ff
	.byte	0x7
	.long	.LASF339
	.long	0x8f7a
	.long	0x25ea
	.uleb128 0x1
	.long	0x3b3
	.byte	0
	.uleb128 0x6c
	.long	.LASF340
	.long	.LASF342
	.long	0x8f7a
	.uleb128 0x14
	.long	.LASF70
	.byte	0x2
	.value	0x1e6
	.byte	0x29
	.long	0x2273
	.uleb128 0x17
	.long	.LASF149
	.byte	0x2
	.value	0x20c
	.byte	0x7
	.long	.LASF343
	.long	0x25f7
	.long	0x262e
	.uleb128 0x1
	.long	0x25f7
	.uleb128 0x1
	.long	0x25f7
	.uleb128 0x1
	.long	0x25f7
	.uleb128 0x1
	.long	0xa229
	.byte	0
	.uleb128 0x1d
	.long	.LASF117
	.byte	0x2
	.value	0x1e1
	.byte	0x2f
	.long	0x232c
	.uleb128 0x7
	.long	0x262e
	.uleb128 0x52
	.long	.LASF151
	.value	0x227
	.long	.LASF344
	.long	0x2653
	.long	0x2659
	.uleb128 0x2
	.long	0xa22e
	.byte	0
	.uleb128 0x43
	.long	.LASF151
	.byte	0x2
	.value	0x232
	.long	.LASF345
	.long	0x266d
	.long	0x2678
	.uleb128 0x2
	.long	0xa22e
	.uleb128 0x1
	.long	0xa238
	.byte	0
	.uleb128 0x14
	.long	.LASF92
	.byte	0x2
	.value	0x1f1
	.byte	0x1a
	.long	0x2034
	.uleb128 0x7
	.long	0x2678
	.uleb128 0x43
	.long	.LASF151
	.byte	0x2
	.value	0x240
	.long	.LASF346
	.long	0x269e
	.long	0x26ae
	.uleb128 0x2
	.long	0xa22e
	.uleb128 0x1
	.long	0x26ae
	.uleb128 0x1
	.long	0xa238
	.byte	0
	.uleb128 0x14
	.long	.LASF77
	.byte	0x2
	.value	0x1ef
	.byte	0x1a
	.long	0x2c3
	.uleb128 0x10
	.long	.LASF151
	.byte	0x2
	.value	0x24d
	.byte	0x7
	.long	.LASF347
	.byte	0x1
	.long	0x26d1
	.long	0x26e6
	.uleb128 0x2
	.long	0xa22e
	.uleb128 0x1
	.long	0x26ae
	.uleb128 0x1
	.long	0xa23d
	.uleb128 0x1
	.long	0xa238
	.byte	0
	.uleb128 0x14
	.long	.LASF7
	.byte	0x2
	.value	0x1e5
	.byte	0x17
	.long	0x9e7f
	.uleb128 0x7
	.long	0x26e6
	.uleb128 0x10
	.long	.LASF151
	.byte	0x2
	.value	0x26d
	.byte	0x7
	.long	.LASF348
	.byte	0x1
	.long	0x270e
	.long	0x2719
	.uleb128 0x2
	.long	0xa22e
	.uleb128 0x1
	.long	0xa242
	.byte	0
	.uleb128 0x52
	.long	.LASF151
	.value	0x280
	.long	.LASF349
	.long	0x272c
	.long	0x2737
	.uleb128 0x2
	.long	0xa22e
	.uleb128 0x1
	.long	0xa247
	.byte	0
	.uleb128 0x10
	.long	.LASF151
	.byte	0x2
	.value	0x284
	.byte	0x7
	.long	.LASF350
	.byte	0x1
	.long	0x274d
	.long	0x275d
	.uleb128 0x2
	.long	0xa22e
	.uleb128 0x1
	.long	0xa242
	.uleb128 0x1
	.long	0xa24c
	.byte	0
	.uleb128 0x1c
	.long	.LASF151
	.value	0x28f
	.long	.LASF351
	.long	0x2770
	.long	0x2785
	.uleb128 0x2
	.long	0xa22e
	.uleb128 0x1
	.long	0xa247
	.uleb128 0x1
	.long	0xa238
	.uleb128 0x1
	.long	0x642
	.byte	0
	.uleb128 0x1c
	.long	.LASF151
	.value	0x294
	.long	.LASF352
	.long	0x2798
	.long	0x27ad
	.uleb128 0x2
	.long	0xa22e
	.uleb128 0x1
	.long	0xa247
	.uleb128 0x1
	.long	0xa238
	.uleb128 0x1
	.long	0x3b3
	.byte	0
	.uleb128 0x10
	.long	.LASF151
	.byte	0x2
	.value	0x2a7
	.byte	0x7
	.long	.LASF353
	.byte	0x1
	.long	0x27c3
	.long	0x27d3
	.uleb128 0x2
	.long	0xa22e
	.uleb128 0x1
	.long	0xa247
	.uleb128 0x1
	.long	0xa24c
	.byte	0
	.uleb128 0x10
	.long	.LASF151
	.byte	0x2
	.value	0x2ba
	.byte	0x7
	.long	.LASF354
	.byte	0x1
	.long	0x27e9
	.long	0x27f9
	.uleb128 0x2
	.long	0xa22e
	.uleb128 0x1
	.long	0x3129
	.uleb128 0x1
	.long	0xa238
	.byte	0
	.uleb128 0x10
	.long	.LASF163
	.byte	0x2
	.value	0x316
	.byte	0x7
	.long	.LASF355
	.byte	0x1
	.long	0x280f
	.long	0x2815
	.uleb128 0x2
	.long	0xa22e
	.byte	0
	.uleb128 0x24
	.long	.LASF36
	.byte	0x7
	.byte	0xd6
	.byte	0x5
	.long	.LASF356
	.long	0xa251
	.byte	0x1
	.long	0x282e
	.long	0x2839
	.uleb128 0x2
	.long	0xa22e
	.uleb128 0x1
	.long	0xa242
	.byte	0
	.uleb128 0x6
	.long	.LASF36
	.byte	0x2
	.value	0x337
	.byte	0x7
	.long	.LASF357
	.long	0xa251
	.byte	0x1
	.long	0x2853
	.long	0x285e
	.uleb128 0x2
	.long	0xa22e
	.uleb128 0x1
	.long	0xa247
	.byte	0
	.uleb128 0x6
	.long	.LASF36
	.byte	0x2
	.value	0x34d
	.byte	0x7
	.long	.LASF358
	.long	0xa251
	.byte	0x1
	.long	0x2878
	.long	0x2883
	.uleb128 0x2
	.long	0xa22e
	.uleb128 0x1
	.long	0x3129
	.byte	0
	.uleb128 0x10
	.long	.LASF168
	.byte	0x2
	.value	0x361
	.byte	0x7
	.long	.LASF359
	.byte	0x1
	.long	0x2899
	.long	0x28a9
	.uleb128 0x2
	.long	0xa22e
	.uleb128 0x1
	.long	0x26ae
	.uleb128 0x1
	.long	0xa23d
	.byte	0
	.uleb128 0x10
	.long	.LASF168
	.byte	0x2
	.value	0x390
	.byte	0x7
	.long	.LASF360
	.byte	0x1
	.long	0x28bf
	.long	0x28ca
	.uleb128 0x2
	.long	0xa22e
	.uleb128 0x1
	.long	0x3129
	.byte	0
	.uleb128 0x14
	.long	.LASF171
	.byte	0x2
	.value	0x1ea
	.byte	0x3d
	.long	0x84f4
	.uleb128 0x6
	.long	.LASF172
	.byte	0x2
	.value	0x3dc
	.byte	0x7
	.long	.LASF361
	.long	0x28ca
	.byte	0x1
	.long	0x28f1
	.long	0x28f7
	.uleb128 0x2
	.long	0xa22e
	.byte	0
	.uleb128 0x14
	.long	.LASF174
	.byte	0x2
	.value	0x1ec
	.byte	0x7
	.long	0x8727
	.uleb128 0x6
	.long	.LASF172
	.byte	0x2
	.value	0x3e6
	.byte	0x7
	.long	.LASF362
	.long	0x28f7
	.byte	0x1
	.long	0x291e
	.long	0x2924
	.uleb128 0x2
	.long	0xa256
	.byte	0
	.uleb128 0x39
	.string	"end"
	.value	0x3f0
	.long	.LASF363
	.long	0x28ca
	.long	0x293b
	.long	0x2941
	.uleb128 0x2
	.long	0xa22e
	.byte	0
	.uleb128 0x39
	.string	"end"
	.value	0x3fa
	.long	.LASF364
	.long	0x28f7
	.long	0x2958
	.long	0x295e
	.uleb128 0x2
	.long	0xa256
	.byte	0
	.uleb128 0x14
	.long	.LASF178
	.byte	0x2
	.value	0x1ee
	.byte	0x30
	.long	0x312e
	.uleb128 0x6
	.long	.LASF179
	.byte	0x2
	.value	0x404
	.byte	0x7
	.long	.LASF365
	.long	0x295e
	.byte	0x1
	.long	0x2985
	.long	0x298b
	.uleb128 0x2
	.long	0xa22e
	.byte	0
	.uleb128 0x14
	.long	.LASF181
	.byte	0x2
	.value	0x1ed
	.byte	0x35
	.long	0x3133
	.uleb128 0x6
	.long	.LASF179
	.byte	0x2
	.value	0x40e
	.byte	0x7
	.long	.LASF366
	.long	0x298b
	.byte	0x1
	.long	0x29b2
	.long	0x29b8
	.uleb128 0x2
	.long	0xa256
	.byte	0
	.uleb128 0x6
	.long	.LASF183
	.byte	0x2
	.value	0x418
	.byte	0x7
	.long	.LASF367
	.long	0x295e
	.byte	0x1
	.long	0x29d2
	.long	0x29d8
	.uleb128 0x2
	.long	0xa22e
	.byte	0
	.uleb128 0x6
	.long	.LASF183
	.byte	0x2
	.value	0x422
	.byte	0x7
	.long	.LASF368
	.long	0x298b
	.byte	0x1
	.long	0x29f2
	.long	0x29f8
	.uleb128 0x2
	.long	0xa256
	.byte	0
	.uleb128 0x6
	.long	.LASF186
	.byte	0x2
	.value	0x42d
	.byte	0x7
	.long	.LASF369
	.long	0x28f7
	.byte	0x1
	.long	0x2a12
	.long	0x2a18
	.uleb128 0x2
	.long	0xa256
	.byte	0
	.uleb128 0x6
	.long	.LASF188
	.byte	0x2
	.value	0x437
	.byte	0x7
	.long	.LASF370
	.long	0x28f7
	.byte	0x1
	.long	0x2a32
	.long	0x2a38
	.uleb128 0x2
	.long	0xa256
	.byte	0
	.uleb128 0x6
	.long	.LASF190
	.byte	0x2
	.value	0x441
	.byte	0x7
	.long	.LASF371
	.long	0x298b
	.byte	0x1
	.long	0x2a52
	.long	0x2a58
	.uleb128 0x2
	.long	0xa256
	.byte	0
	.uleb128 0x6
	.long	.LASF192
	.byte	0x2
	.value	0x44b
	.byte	0x7
	.long	.LASF372
	.long	0x298b
	.byte	0x1
	.long	0x2a72
	.long	0x2a78
	.uleb128 0x2
	.long	0xa256
	.byte	0
	.uleb128 0x6
	.long	.LASF194
	.byte	0x2
	.value	0x453
	.byte	0x7
	.long	.LASF373
	.long	0x26ae
	.byte	0x1
	.long	0x2a92
	.long	0x2a98
	.uleb128 0x2
	.long	0xa256
	.byte	0
	.uleb128 0x6
	.long	.LASF80
	.byte	0x2
	.value	0x45e
	.byte	0x7
	.long	.LASF374
	.long	0x26ae
	.byte	0x1
	.long	0x2ab2
	.long	0x2ab8
	.uleb128 0x2
	.long	0xa256
	.byte	0
	.uleb128 0x10
	.long	.LASF197
	.byte	0x2
	.value	0x46d
	.byte	0x7
	.long	.LASF375
	.byte	0x1
	.long	0x2ace
	.long	0x2ad9
	.uleb128 0x2
	.long	0xa22e
	.uleb128 0x1
	.long	0x26ae
	.byte	0
	.uleb128 0x10
	.long	.LASF197
	.byte	0x2
	.value	0x482
	.byte	0x7
	.long	.LASF376
	.byte	0x1
	.long	0x2aef
	.long	0x2aff
	.uleb128 0x2
	.long	0xa22e
	.uleb128 0x1
	.long	0x26ae
	.uleb128 0x1
	.long	0xa23d
	.byte	0
	.uleb128 0x10
	.long	.LASF200
	.byte	0x2
	.value	0x4a4
	.byte	0x7
	.long	.LASF377
	.byte	0x1
	.long	0x2b15
	.long	0x2b1b
	.uleb128 0x2
	.long	0xa22e
	.byte	0
	.uleb128 0x6
	.long	.LASF202
	.byte	0x2
	.value	0x4ae
	.byte	0x7
	.long	.LASF378
	.long	0x26ae
	.byte	0x1
	.long	0x2b35
	.long	0x2b3b
	.uleb128 0x2
	.long	0xa256
	.byte	0
	.uleb128 0x6
	.long	.LASF204
	.byte	0x2
	.value	0x4bd
	.byte	0x7
	.long	.LASF379
	.long	0x8f7a
	.byte	0x1
	.long	0x2b55
	.long	0x2b5b
	.uleb128 0x2
	.long	0xa256
	.byte	0
	.uleb128 0x23
	.long	.LASF206
	.byte	0x7
	.byte	0x46
	.byte	0x5
	.long	.LASF380
	.byte	0x1
	.long	0x2b70
	.long	0x2b7b
	.uleb128 0x2
	.long	0xa22e
	.uleb128 0x1
	.long	0x26ae
	.byte	0
	.uleb128 0x14
	.long	.LASF71
	.byte	0x2
	.value	0x1e8
	.byte	0x32
	.long	0x84af
	.uleb128 0x6
	.long	.LASF208
	.byte	0x2
	.value	0x4e3
	.byte	0x7
	.long	.LASF381
	.long	0x2b7b
	.byte	0x1
	.long	0x2ba2
	.long	0x2bad
	.uleb128 0x2
	.long	0xa22e
	.uleb128 0x1
	.long	0x26ae
	.byte	0
	.uleb128 0x14
	.long	.LASF74
	.byte	0x2
	.value	0x1e9
	.byte	0x37
	.long	0x84bb
	.uleb128 0x6
	.long	.LASF208
	.byte	0x2
	.value	0x4f6
	.byte	0x7
	.long	.LASF382
	.long	0x2bad
	.byte	0x1
	.long	0x2bd4
	.long	0x2bdf
	.uleb128 0x2
	.long	0xa256
	.uleb128 0x1
	.long	0x26ae
	.byte	0
	.uleb128 0x10
	.long	.LASF211
	.byte	0x2
	.value	0x500
	.byte	0x7
	.long	.LASF383
	.byte	0x2
	.long	0x2bf5
	.long	0x2c00
	.uleb128 0x2
	.long	0xa256
	.uleb128 0x1
	.long	0x26ae
	.byte	0
	.uleb128 0x39
	.string	"at"
	.value	0x517
	.long	.LASF384
	.long	0x2b7b
	.long	0x2c16
	.long	0x2c21
	.uleb128 0x2
	.long	0xa22e
	.uleb128 0x1
	.long	0x26ae
	.byte	0
	.uleb128 0x39
	.string	"at"
	.value	0x52a
	.long	.LASF385
	.long	0x2bad
	.long	0x2c37
	.long	0x2c42
	.uleb128 0x2
	.long	0xa256
	.uleb128 0x1
	.long	0x26ae
	.byte	0
	.uleb128 0x6
	.long	.LASF215
	.byte	0x2
	.value	0x536
	.byte	0x7
	.long	.LASF386
	.long	0x2b7b
	.byte	0x1
	.long	0x2c5c
	.long	0x2c62
	.uleb128 0x2
	.long	0xa22e
	.byte	0
	.uleb128 0x6
	.long	.LASF215
	.byte	0x2
	.value	0x542
	.byte	0x7
	.long	.LASF387
	.long	0x2bad
	.byte	0x1
	.long	0x2c7c
	.long	0x2c82
	.uleb128 0x2
	.long	0xa256
	.byte	0
	.uleb128 0x6
	.long	.LASF218
	.byte	0x2
	.value	0x54e
	.byte	0x7
	.long	.LASF388
	.long	0x2b7b
	.byte	0x1
	.long	0x2c9c
	.long	0x2ca2
	.uleb128 0x2
	.long	0xa22e
	.byte	0
	.uleb128 0x6
	.long	.LASF218
	.byte	0x2
	.value	0x55a
	.byte	0x7
	.long	.LASF389
	.long	0x2bad
	.byte	0x1
	.long	0x2cbc
	.long	0x2cc2
	.uleb128 0x2
	.long	0xa256
	.byte	0
	.uleb128 0x6
	.long	.LASF221
	.byte	0x2
	.value	0x569
	.byte	0x7
	.long	.LASF390
	.long	0xa1a2
	.byte	0x1
	.long	0x2cdc
	.long	0x2ce2
	.uleb128 0x2
	.long	0xa22e
	.byte	0
	.uleb128 0x6
	.long	.LASF221
	.byte	0x2
	.value	0x56e
	.byte	0x7
	.long	.LASF391
	.long	0xa1b6
	.byte	0x1
	.long	0x2cfc
	.long	0x2d02
	.uleb128 0x2
	.long	0xa256
	.byte	0
	.uleb128 0x10
	.long	.LASF224
	.byte	0x2
	.value	0x57e
	.byte	0x7
	.long	.LASF392
	.byte	0x1
	.long	0x2d18
	.long	0x2d23
	.uleb128 0x2
	.long	0xa22e
	.uleb128 0x1
	.long	0xa23d
	.byte	0
	.uleb128 0x10
	.long	.LASF224
	.byte	0x2
	.value	0x58f
	.byte	0x7
	.long	.LASF393
	.byte	0x1
	.long	0x2d39
	.long	0x2d44
	.uleb128 0x2
	.long	0xa22e
	.uleb128 0x1
	.long	0xa260
	.byte	0
	.uleb128 0x10
	.long	.LASF227
	.byte	0x2
	.value	0x5a7
	.byte	0x7
	.long	.LASF394
	.byte	0x1
	.long	0x2d5a
	.long	0x2d60
	.uleb128 0x2
	.long	0xa22e
	.byte	0
	.uleb128 0x24
	.long	.LASF229
	.byte	0x7
	.byte	0x89
	.byte	0x5
	.long	.LASF395
	.long	0x28ca
	.byte	0x1
	.long	0x2d79
	.long	0x2d89
	.uleb128 0x2
	.long	0xa22e
	.uleb128 0x1
	.long	0x28f7
	.uleb128 0x1
	.long	0xa23d
	.byte	0
	.uleb128 0x6
	.long	.LASF229
	.byte	0x2
	.value	0x5ee
	.byte	0x7
	.long	.LASF396
	.long	0x28ca
	.byte	0x1
	.long	0x2da3
	.long	0x2db3
	.uleb128 0x2
	.long	0xa22e
	.uleb128 0x1
	.long	0x28f7
	.uleb128 0x1
	.long	0xa260
	.byte	0
	.uleb128 0x6
	.long	.LASF229
	.byte	0x2
	.value	0x600
	.byte	0x7
	.long	.LASF397
	.long	0x28ca
	.byte	0x1
	.long	0x2dcd
	.long	0x2ddd
	.uleb128 0x2
	.long	0xa22e
	.uleb128 0x1
	.long	0x28f7
	.uleb128 0x1
	.long	0x3129
	.byte	0
	.uleb128 0x6
	.long	.LASF229
	.byte	0x2
	.value	0x61a
	.byte	0x7
	.long	.LASF398
	.long	0x28ca
	.byte	0x1
	.long	0x2df7
	.long	0x2e0c
	.uleb128 0x2
	.long	0xa22e
	.uleb128 0x1
	.long	0x28f7
	.uleb128 0x1
	.long	0x26ae
	.uleb128 0x1
	.long	0xa23d
	.byte	0
	.uleb128 0x6
	.long	.LASF234
	.byte	0x2
	.value	0x6f6
	.byte	0x7
	.long	.LASF399
	.long	0x28ca
	.byte	0x1
	.long	0x2e26
	.long	0x2e31
	.uleb128 0x2
	.long	0xa22e
	.uleb128 0x1
	.long	0x28f7
	.byte	0
	.uleb128 0x6
	.long	.LASF234
	.byte	0x2
	.value	0x712
	.byte	0x7
	.long	.LASF400
	.long	0x28ca
	.byte	0x1
	.long	0x2e4b
	.long	0x2e5b
	.uleb128 0x2
	.long	0xa22e
	.uleb128 0x1
	.long	0x28f7
	.uleb128 0x1
	.long	0x28f7
	.byte	0
	.uleb128 0x10
	.long	.LASF41
	.byte	0x2
	.value	0x72a
	.byte	0x7
	.long	.LASF401
	.byte	0x1
	.long	0x2e71
	.long	0x2e7c
	.uleb128 0x2
	.long	0xa22e
	.uleb128 0x1
	.long	0xa251
	.byte	0
	.uleb128 0x10
	.long	.LASF238
	.byte	0x2
	.value	0x73d
	.byte	0x7
	.long	.LASF402
	.byte	0x1
	.long	0x2e92
	.long	0x2e98
	.uleb128 0x2
	.long	0xa22e
	.byte	0
	.uleb128 0x10
	.long	.LASF240
	.byte	0x2
	.value	0x7c3
	.byte	0x7
	.long	.LASF403
	.byte	0x2
	.long	0x2eae
	.long	0x2ebe
	.uleb128 0x2
	.long	0xa22e
	.uleb128 0x1
	.long	0x26ae
	.uleb128 0x1
	.long	0xa23d
	.byte	0
	.uleb128 0x10
	.long	.LASF242
	.byte	0x2
	.value	0x7ce
	.byte	0x7
	.long	.LASF404
	.byte	0x2
	.long	0x2ed4
	.long	0x2edf
	.uleb128 0x2
	.long	0xa22e
	.uleb128 0x1
	.long	0x26ae
	.byte	0
	.uleb128 0x10
	.long	.LASF244
	.byte	0x7
	.value	0x112
	.byte	0x5
	.long	.LASF405
	.byte	0x2
	.long	0x2ef5
	.long	0x2f05
	.uleb128 0x2
	.long	0xa22e
	.uleb128 0x1
	.long	0x2c3
	.uleb128 0x1
	.long	0xa23d
	.byte	0
	.uleb128 0x10
	.long	.LASF246
	.byte	0x7
	.value	0x296
	.byte	0x5
	.long	.LASF406
	.byte	0x2
	.long	0x2f1b
	.long	0x2f30
	.uleb128 0x2
	.long	0xa22e
	.uleb128 0x1
	.long	0x28ca
	.uleb128 0x1
	.long	0x26ae
	.uleb128 0x1
	.long	0xa23d
	.byte	0
	.uleb128 0x10
	.long	.LASF248
	.byte	0x7
	.value	0x300
	.byte	0x5
	.long	.LASF407
	.byte	0x2
	.long	0x2f46
	.long	0x2f56
	.uleb128 0x2
	.long	0xa22e
	.uleb128 0x1
	.long	0x26ae
	.uleb128 0x1
	.long	0xa23d
	.byte	0
	.uleb128 0x10
	.long	.LASF250
	.byte	0x7
	.value	0x339
	.byte	0x5
	.long	.LASF408
	.byte	0x2
	.long	0x2f6c
	.long	0x2f77
	.uleb128 0x2
	.long	0xa22e
	.uleb128 0x1
	.long	0x26ae
	.byte	0
	.uleb128 0x6
	.long	.LASF252
	.byte	0x7
	.value	0x396
	.byte	0x5
	.long	.LASF409
	.long	0x8f7a
	.byte	0x2
	.long	0x2f91
	.long	0x2f97
	.uleb128 0x2
	.long	0xa22e
	.byte	0
	.uleb128 0x6
	.long	.LASF254
	.byte	0x7
	.value	0x16f
	.byte	0x5
	.long	.LASF410
	.long	0x28ca
	.byte	0x2
	.long	0x2fb1
	.long	0x2fc1
	.uleb128 0x2
	.long	0xa22e
	.uleb128 0x1
	.long	0x28f7
	.uleb128 0x1
	.long	0xa260
	.byte	0
	.uleb128 0x6
	.long	.LASF256
	.byte	0x2
	.value	0x889
	.byte	0x7
	.long	.LASF411
	.long	0x28ca
	.byte	0x2
	.long	0x2fdb
	.long	0x2feb
	.uleb128 0x2
	.long	0xa22e
	.uleb128 0x1
	.long	0x28f7
	.uleb128 0x1
	.long	0xa260
	.byte	0
	.uleb128 0x6
	.long	.LASF258
	.byte	0x2
	.value	0x890
	.byte	0x7
	.long	.LASF412
	.long	0x26ae
	.byte	0x2
	.long	0x3005
	.long	0x3015
	.uleb128 0x2
	.long	0xa256
	.uleb128 0x1
	.long	0x26ae
	.uleb128 0x1
	.long	0x77aa
	.byte	0
	.uleb128 0x53
	.long	.LASF260
	.value	0x89b
	.long	.LASF413
	.long	0x26ae
	.long	0x3033
	.uleb128 0x1
	.long	0x26ae
	.uleb128 0x1
	.long	0xa238
	.byte	0
	.uleb128 0x53
	.long	.LASF262
	.value	0x8a4
	.long	.LASF414
	.long	0x26ae
	.long	0x304c
	.uleb128 0x1
	.long	0xa265
	.byte	0
	.uleb128 0x10
	.long	.LASF264
	.byte	0x2
	.value	0x8b5
	.byte	0x7
	.long	.LASF415
	.byte	0x2
	.long	0x3062
	.long	0x306d
	.uleb128 0x2
	.long	0xa22e
	.uleb128 0x1
	.long	0x25f7
	.byte	0
	.uleb128 0x24
	.long	.LASF266
	.byte	0x7
	.byte	0xb9
	.byte	0x5
	.long	.LASF416
	.long	0x28ca
	.byte	0x2
	.long	0x3086
	.long	0x3091
	.uleb128 0x2
	.long	0xa22e
	.uleb128 0x1
	.long	0x28ca
	.byte	0
	.uleb128 0x24
	.long	.LASF266
	.byte	0x7
	.byte	0xc7
	.byte	0x5
	.long	.LASF417
	.long	0x28ca
	.byte	0x2
	.long	0x30aa
	.long	0x30ba
	.uleb128 0x2
	.long	0xa22e
	.uleb128 0x1
	.long	0x28ca
	.uleb128 0x1
	.long	0x28ca
	.byte	0
	.uleb128 0x1c
	.long	.LASF269
	.value	0x8cf
	.long	.LASF418
	.long	0x30cd
	.long	0x30dd
	.uleb128 0x2
	.long	0xa22e
	.uleb128 0x1
	.long	0xa247
	.uleb128 0x1
	.long	0x642
	.byte	0
	.uleb128 0x1c
	.long	.LASF269
	.value	0x8db
	.long	.LASF419
	.long	0x30f0
	.long	0x3100
	.uleb128 0x2
	.long	0xa22e
	.uleb128 0x1
	.long	0xa247
	.uleb128 0x1
	.long	0x3b3
	.byte	0
	.uleb128 0x11
	.string	"_Tp"
	.long	0x9e7f
	.uleb128 0x65
	.long	.LASF141
	.long	0x2034
	.byte	0
	.uleb128 0x7
	.long	0x256b
	.uleb128 0x8
	.long	.LASF274
	.byte	0x13
	.byte	0xad
	.byte	0xb
	.long	0x2555
	.uleb128 0x7
	.long	0x3118
	.uleb128 0x33
	.long	.LASF420
	.uleb128 0x33
	.long	.LASF421
	.uleb128 0x33
	.long	.LASF422
	.uleb128 0x3f
	.long	.LASF423
	.byte	0x1
	.byte	0x6
	.byte	0x3f
	.long	0x32e4
	.uleb128 0x54
	.long	.LASF60
	.byte	0x6
	.byte	0x58
	.byte	0x7
	.long	0x3154
	.long	0x315a
	.uleb128 0x2
	.long	0xa26a
	.byte	0
	.uleb128 0x54
	.long	.LASF60
	.byte	0x6
	.byte	0x5c
	.byte	0x7
	.long	0x316a
	.long	0x3175
	.uleb128 0x2
	.long	0xa26a
	.uleb128 0x1
	.long	0xa274
	.byte	0
	.uleb128 0x89
	.long	.LASF36
	.byte	0x6
	.byte	0x64
	.byte	0x18
	.long	0xa279
	.long	0x318a
	.long	0x3195
	.uleb128 0x2
	.long	0xa26a
	.uleb128 0x1
	.long	0xa274
	.byte	0
	.uleb128 0x54
	.long	.LASF66
	.byte	0x6
	.byte	0x68
	.byte	0x7
	.long	0x31a5
	.long	0x31ab
	.uleb128 0x2
	.long	0xa26a
	.byte	0
	.uleb128 0x27
	.long	.LASF70
	.byte	0x6
	.byte	0x46
	.byte	0x1a
	.long	0xa27e
	.uleb128 0x55
	.long	.LASF68
	.byte	0x6
	.byte	0x6b
	.byte	0x7
	.long	0x31ab
	.byte	0x1
	.long	0x31cc
	.long	0x31d7
	.uleb128 0x2
	.long	0xa288
	.uleb128 0x1
	.long	0x31d7
	.byte	0
	.uleb128 0x27
	.long	.LASF71
	.byte	0x6
	.byte	0x48
	.byte	0x1a
	.long	0xa292
	.uleb128 0x27
	.long	.LASF72
	.byte	0x6
	.byte	0x47
	.byte	0x1a
	.long	0xa297
	.uleb128 0x55
	.long	.LASF68
	.byte	0x6
	.byte	0x6f
	.byte	0x7
	.long	0x31e3
	.byte	0x1
	.long	0x3204
	.long	0x320f
	.uleb128 0x2
	.long	0xa288
	.uleb128 0x1
	.long	0x320f
	.byte	0
	.uleb128 0x27
	.long	.LASF74
	.byte	0x6
	.byte	0x49
	.byte	0x1a
	.long	0xa29c
	.uleb128 0x55
	.long	.LASF75
	.byte	0x6
	.byte	0x81
	.byte	0x7
	.long	0xa27e
	.byte	0x1
	.long	0x3230
	.long	0x3240
	.uleb128 0x2
	.long	0xa26a
	.uleb128 0x1
	.long	0x3240
	.uleb128 0x1
	.long	0x8fc9
	.byte	0
	.uleb128 0x27
	.long	.LASF77
	.byte	0x6
	.byte	0x43
	.byte	0x1f
	.long	0x2c3
	.uleb128 0x54
	.long	.LASF78
	.byte	0x6
	.byte	0xa7
	.byte	0x7
	.long	0x325c
	.long	0x326c
	.uleb128 0x2
	.long	0xa26a
	.uleb128 0x1
	.long	0xa27e
	.uleb128 0x1
	.long	0x3240
	.byte	0
	.uleb128 0x55
	.long	.LASF80
	.byte	0x6
	.byte	0xc2
	.byte	0x7
	.long	0x3240
	.byte	0x1
	.long	0x3281
	.long	0x3287
	.uleb128 0x2
	.long	0xa288
	.byte	0
	.uleb128 0xaa
	.long	.LASF82
	.byte	0x6
	.byte	0xf2
	.byte	0x7
	.long	0x3240
	.long	0x329c
	.long	0x32a2
	.uleb128 0x2
	.long	0xa288
	.byte	0
	.uleb128 0x54
	.long	.LASF424
	.byte	0x6
	.byte	0xc9
	.byte	0x2
	.long	0x32ca
	.long	0x32da
	.uleb128 0x11
	.string	"_Up"
	.long	0xa0fa
	.uleb128 0x47
	.long	.LASF427
	.long	0x32ca
	.uleb128 0x48
	.long	0xa29c
	.byte	0
	.uleb128 0x2
	.long	0xa26a
	.uleb128 0x1
	.long	0xa27e
	.uleb128 0x1
	.long	0xa29c
	.byte	0
	.uleb128 0x11
	.string	"_Tp"
	.long	0xa0fa
	.byte	0
	.uleb128 0x7
	.long	0x3138
	.uleb128 0x3f
	.long	.LASF425
	.byte	0x1
	.byte	0x5
	.byte	0x85
	.long	0x3361
	.uleb128 0x46
	.long	0x3138
	.byte	0x1
	.uleb128 0x54
	.long	.LASF85
	.byte	0x5
	.byte	0xa8
	.byte	0x7
	.long	0x330b
	.long	0x3311
	.uleb128 0x2
	.long	0xa2a1
	.byte	0
	.uleb128 0x54
	.long	.LASF85
	.byte	0x5
	.byte	0xac
	.byte	0x7
	.long	0x3321
	.long	0x332c
	.uleb128 0x2
	.long	0xa2a1
	.uleb128 0x1
	.long	0xa2ab
	.byte	0
	.uleb128 0x89
	.long	.LASF36
	.byte	0x5
	.byte	0xb1
	.byte	0x12
	.long	0xa2b0
	.long	0x3341
	.long	0x334c
	.uleb128 0x2
	.long	0xa2a1
	.uleb128 0x1
	.long	0xa2ab
	.byte	0
	.uleb128 0xab
	.long	.LASF89
	.byte	0x5
	.byte	0xbd
	.byte	0x7
	.byte	0x1
	.long	0x335a
	.uleb128 0x2
	.long	0xa2a1
	.byte	0
	.byte	0
	.uleb128 0x7
	.long	0x32e9
	.uleb128 0x5f
	.long	.LASF426
	.byte	0x1
	.byte	0x8
	.value	0x248
	.byte	0xc
	.long	0x3482
	.uleb128 0x1d
	.long	.LASF70
	.byte	0x8
	.value	0x251
	.byte	0xd
	.long	0xa27e
	.uleb128 0x44
	.long	.LASF75
	.byte	0x8
	.value	0x27d
	.byte	0x7
	.long	0x3374
	.long	0x339d
	.uleb128 0x1
	.long	0xa2b5
	.uleb128 0x1
	.long	0x33af
	.byte	0
	.uleb128 0x1d
	.long	.LASF92
	.byte	0x8
	.value	0x24b
	.byte	0xd
	.long	0x32e9
	.uleb128 0x7
	.long	0x339d
	.uleb128 0x1d
	.long	.LASF77
	.byte	0x8
	.value	0x260
	.byte	0xd
	.long	0x2c3
	.uleb128 0x44
	.long	.LASF75
	.byte	0x8
	.value	0x28c
	.byte	0x7
	.long	0x3374
	.long	0x33dd
	.uleb128 0x1
	.long	0xa2b5
	.uleb128 0x1
	.long	0x33af
	.uleb128 0x1
	.long	0x33dd
	.byte	0
	.uleb128 0x1d
	.long	.LASF95
	.byte	0x8
	.value	0x25a
	.byte	0xd
	.long	0x8fc9
	.uleb128 0x8a
	.long	.LASF78
	.value	0x2b0
	.byte	0x7
	.long	0x3407
	.uleb128 0x1
	.long	0xa2b5
	.uleb128 0x1
	.long	0x3374
	.uleb128 0x1
	.long	0x33af
	.byte	0
	.uleb128 0x44
	.long	.LASF80
	.byte	0x8
	.value	0x2ed
	.byte	0x7
	.long	0x33af
	.long	0x341e
	.uleb128 0x1
	.long	0xa2ba
	.byte	0
	.uleb128 0x44
	.long	.LASF97
	.byte	0x8
	.value	0x2fd
	.byte	0x7
	.long	0x339d
	.long	0x3435
	.uleb128 0x1
	.long	0xa2ba
	.byte	0
	.uleb128 0x1d
	.long	.LASF7
	.byte	0x8
	.value	0x24e
	.byte	0xd
	.long	0xa0fa
	.uleb128 0x1d
	.long	.LASF99
	.byte	0x8
	.value	0x26f
	.byte	0x8
	.long	0x32e9
	.uleb128 0xac
	.long	.LASF424
	.byte	0x8
	.value	0x2c1
	.byte	0x2
	.uleb128 0x11
	.string	"_Up"
	.long	0xa0fa
	.uleb128 0x47
	.long	.LASF427
	.long	0x3471
	.uleb128 0x48
	.long	0xa29c
	.byte	0
	.uleb128 0x1
	.long	0xa2b5
	.uleb128 0x1
	.long	0xa27e
	.uleb128 0x1
	.long	0xa29c
	.byte	0
	.byte	0
	.uleb128 0x1b
	.long	.LASF428
	.byte	0x18
	.byte	0x2
	.byte	0x5b
	.byte	0xc
	.long	0x37bd
	.uleb128 0x1b
	.long	.LASF101
	.byte	0x18
	.byte	0x2
	.byte	0x62
	.byte	0xe
	.long	0x3522
	.uleb128 0xf
	.long	.LASF103
	.byte	0x2
	.byte	0x64
	.byte	0xa
	.long	0x3527
	.byte	0
	.uleb128 0xf
	.long	.LASF104
	.byte	0x2
	.byte	0x65
	.byte	0xa
	.long	0x3527
	.byte	0x8
	.uleb128 0xf
	.long	.LASF105
	.byte	0x2
	.byte	0x66
	.byte	0xa
	.long	0x3527
	.byte	0x10
	.uleb128 0x56
	.long	.LASF101
	.byte	0x69
	.long	0x34d1
	.long	0x34d7
	.uleb128 0x2
	.long	0xa2c9
	.byte	0
	.uleb128 0x56
	.long	.LASF101
	.byte	0x6f
	.long	0x34e5
	.long	0x34f0
	.uleb128 0x2
	.long	0xa2c9
	.uleb128 0x1
	.long	0xa2d3
	.byte	0
	.uleb128 0x56
	.long	.LASF108
	.byte	0x77
	.long	0x34fe
	.long	0x3509
	.uleb128 0x2
	.long	0xa2c9
	.uleb128 0x1
	.long	0xa2d8
	.byte	0
	.uleb128 0xad
	.long	.LASF110
	.byte	0x2
	.byte	0x80
	.byte	0x2
	.long	0x3516
	.uleb128 0x2
	.long	0xa2c9
	.uleb128 0x1
	.long	0xa2dd
	.byte	0
	.byte	0
	.uleb128 0x7
	.long	0x348f
	.uleb128 0x8
	.long	.LASF70
	.byte	0x2
	.byte	0x60
	.byte	0x9
	.long	0x89fe
	.uleb128 0x1b
	.long	.LASF111
	.byte	0x18
	.byte	0x2
	.byte	0x8b
	.byte	0xe
	.long	0x35d8
	.uleb128 0x36
	.long	0x32e9
	.uleb128 0x36
	.long	0x348f
	.uleb128 0x56
	.long	.LASF111
	.byte	0x8f
	.long	0x3558
	.long	0x355e
	.uleb128 0x2
	.long	0xa2e2
	.byte	0
	.uleb128 0x56
	.long	.LASF111
	.byte	0x98
	.long	0x356c
	.long	0x3577
	.uleb128 0x2
	.long	0xa2e2
	.uleb128 0x1
	.long	0xa2ec
	.byte	0
	.uleb128 0x56
	.long	.LASF111
	.byte	0xa0
	.long	0x3585
	.long	0x3590
	.uleb128 0x2
	.long	0xa2e2
	.uleb128 0x1
	.long	0xa2f1
	.byte	0
	.uleb128 0x56
	.long	.LASF111
	.byte	0xa5
	.long	0x359e
	.long	0x35a9
	.uleb128 0x2
	.long	0xa2e2
	.uleb128 0x1
	.long	0xa2f6
	.byte	0
	.uleb128 0x56
	.long	.LASF111
	.byte	0xaa
	.long	0x35b7
	.long	0x35c7
	.uleb128 0x2
	.long	0xa2e2
	.uleb128 0x1
	.long	0xa2f6
	.uleb128 0x1
	.long	0xa2f1
	.byte	0
	.uleb128 0xae
	.long	.LASF476
	.long	0x35d1
	.uleb128 0x2
	.long	0xa2e2
	.byte	0
	.byte	0
	.uleb128 0x8
	.long	.LASF117
	.byte	0x2
	.byte	0x5e
	.byte	0x15
	.long	0x8a2f
	.uleb128 0x7
	.long	0x35d8
	.uleb128 0x66
	.long	.LASF118
	.value	0x133
	.byte	0x7
	.long	0xa2fb
	.long	0x35fd
	.long	0x3603
	.uleb128 0x2
	.long	0xa300
	.byte	0
	.uleb128 0x66
	.long	.LASF118
	.value	0x138
	.byte	0x7
	.long	0xa2ec
	.long	0x3617
	.long	0x361d
	.uleb128 0x2
	.long	0xa30a
	.byte	0
	.uleb128 0x1d
	.long	.LASF92
	.byte	0x2
	.value	0x12f
	.byte	0x16
	.long	0x32e9
	.uleb128 0x7
	.long	0x361d
	.uleb128 0x66
	.long	.LASF121
	.value	0x13d
	.byte	0x7
	.long	0x361d
	.long	0x3643
	.long	0x3649
	.uleb128 0x2
	.long	0xa30a
	.byte	0
	.uleb128 0x8b
	.long	.LASF123
	.value	0x141
	.long	0x3659
	.long	0x365f
	.uleb128 0x2
	.long	0xa300
	.byte	0
	.uleb128 0x3d
	.long	.LASF123
	.value	0x147
	.byte	0x7
	.long	0x366f
	.long	0x367a
	.uleb128 0x2
	.long	0xa300
	.uleb128 0x1
	.long	0xa314
	.byte	0
	.uleb128 0x3d
	.long	.LASF123
	.value	0x14d
	.byte	0x7
	.long	0x368a
	.long	0x3695
	.uleb128 0x2
	.long	0xa300
	.uleb128 0x1
	.long	0x2c3
	.byte	0
	.uleb128 0x3d
	.long	.LASF123
	.value	0x153
	.byte	0x7
	.long	0x36a5
	.long	0x36b5
	.uleb128 0x2
	.long	0xa300
	.uleb128 0x1
	.long	0x2c3
	.uleb128 0x1
	.long	0xa314
	.byte	0
	.uleb128 0x8b
	.long	.LASF123
	.value	0x158
	.long	0x36c5
	.long	0x36d0
	.uleb128 0x2
	.long	0xa300
	.uleb128 0x1
	.long	0xa319
	.byte	0
	.uleb128 0x3d
	.long	.LASF123
	.value	0x15d
	.byte	0x7
	.long	0x36e0
	.long	0x36eb
	.uleb128 0x2
	.long	0xa300
	.uleb128 0x1
	.long	0xa2f6
	.byte	0
	.uleb128 0x3d
	.long	.LASF123
	.value	0x161
	.byte	0x7
	.long	0x36fb
	.long	0x370b
	.uleb128 0x2
	.long	0xa300
	.uleb128 0x1
	.long	0xa319
	.uleb128 0x1
	.long	0xa314
	.byte	0
	.uleb128 0x3d
	.long	.LASF123
	.value	0x16f
	.byte	0x7
	.long	0x371b
	.long	0x372b
	.uleb128 0x2
	.long	0xa300
	.uleb128 0x1
	.long	0xa314
	.uleb128 0x1
	.long	0xa319
	.byte	0
	.uleb128 0x3d
	.long	.LASF132
	.value	0x175
	.byte	0x7
	.long	0x373b
	.long	0x3741
	.uleb128 0x2
	.long	0xa300
	.byte	0
	.uleb128 0x51
	.long	.LASF134
	.value	0x17e
	.byte	0x14
	.long	0x3533
	.byte	0
	.uleb128 0x66
	.long	.LASF135
	.value	0x182
	.byte	0x7
	.long	0x3527
	.long	0x3762
	.long	0x376d
	.uleb128 0x2
	.long	0xa300
	.uleb128 0x1
	.long	0x2c3
	.byte	0
	.uleb128 0x3d
	.long	.LASF137
	.value	0x18a
	.byte	0x7
	.long	0x377d
	.long	0x378d
	.uleb128 0x2
	.long	0xa300
	.uleb128 0x1
	.long	0x3527
	.uleb128 0x1
	.long	0x2c3
	.byte	0
	.uleb128 0x2c
	.long	.LASF139
	.byte	0x2
	.value	0x195
	.byte	0x7
	.byte	0x2
	.long	0x379f
	.long	0x37aa
	.uleb128 0x2
	.long	0xa300
	.uleb128 0x1
	.long	0x2c3
	.byte	0
	.uleb128 0x11
	.string	"_Tp"
	.long	0xa0fa
	.uleb128 0xc
	.long	.LASF141
	.long	0x32e9
	.byte	0
	.uleb128 0x7
	.long	0x3482
	.uleb128 0x1b
	.long	.LASF429
	.byte	0x1
	.byte	0x13
	.byte	0xa9
	.byte	0xc
	.long	0x37e5
	.uleb128 0x8
	.long	.LASF143
	.byte	0x13
	.byte	0xaa
	.byte	0xd
	.long	0x32e9
	.uleb128 0xc
	.long	.LASF144
	.long	0x32e9
	.byte	0
	.uleb128 0x4b
	.long	.LASF430
	.byte	0x18
	.byte	0x2
	.value	0x1cc
	.long	0x4341
	.uleb128 0x19
	.byte	0x2
	.value	0x1cc
	.byte	0xb
	.long	0x374e
	.uleb128 0x19
	.byte	0x2
	.value	0x1cc
	.byte	0xb
	.long	0x376d
	.uleb128 0x19
	.byte	0x2
	.value	0x1cc
	.byte	0xb
	.long	0x3741
	.uleb128 0x19
	.byte	0x2
	.value	0x1cc
	.byte	0xb
	.long	0x3603
	.uleb128 0x19
	.byte	0x2
	.value	0x1cc
	.byte	0xb
	.long	0x35e9
	.uleb128 0x19
	.byte	0x2
	.value	0x1cc
	.byte	0xb
	.long	0x362f
	.uleb128 0x46
	.long	0x3482
	.byte	0x2
	.uleb128 0x44
	.long	.LASF146
	.byte	0x2
	.value	0x1f6
	.byte	0x7
	.long	0x8f7a
	.long	0x3845
	.uleb128 0x1
	.long	0x642
	.byte	0
	.uleb128 0x44
	.long	.LASF146
	.byte	0x2
	.value	0x1ff
	.byte	0x7
	.long	0x8f7a
	.long	0x385c
	.uleb128 0x1
	.long	0x3b3
	.byte	0
	.uleb128 0xaf
	.long	.LASF340
	.byte	0x2
	.value	0x203
	.byte	0x7
	.long	0x8f7a
	.uleb128 0x14
	.long	.LASF70
	.byte	0x2
	.value	0x1e6
	.byte	0x29
	.long	0x3527
	.uleb128 0x44
	.long	.LASF149
	.byte	0x2
	.value	0x20c
	.byte	0x7
	.long	0x386a
	.long	0x389d
	.uleb128 0x1
	.long	0x386a
	.uleb128 0x1
	.long	0x386a
	.uleb128 0x1
	.long	0x386a
	.uleb128 0x1
	.long	0xa31e
	.byte	0
	.uleb128 0x1d
	.long	.LASF117
	.byte	0x2
	.value	0x1e1
	.byte	0x2f
	.long	0x35d8
	.uleb128 0x7
	.long	0x389d
	.uleb128 0x8c
	.long	.LASF151
	.value	0x227
	.long	0x38bf
	.long	0x38c5
	.uleb128 0x2
	.long	0xa323
	.byte	0
	.uleb128 0x79
	.long	.LASF151
	.byte	0x2
	.value	0x232
	.long	0x38d5
	.long	0x38e0
	.uleb128 0x2
	.long	0xa323
	.uleb128 0x1
	.long	0xa32d
	.byte	0
	.uleb128 0x14
	.long	.LASF92
	.byte	0x2
	.value	0x1f1
	.byte	0x1a
	.long	0x32e9
	.uleb128 0x7
	.long	0x38e0
	.uleb128 0x79
	.long	.LASF151
	.byte	0x2
	.value	0x240
	.long	0x3902
	.long	0x3912
	.uleb128 0x2
	.long	0xa323
	.uleb128 0x1
	.long	0x3912
	.uleb128 0x1
	.long	0xa32d
	.byte	0
	.uleb128 0x14
	.long	.LASF77
	.byte	0x2
	.value	0x1ef
	.byte	0x1a
	.long	0x2c3
	.uleb128 0x7
	.long	0x3912
	.uleb128 0x2c
	.long	.LASF151
	.byte	0x2
	.value	0x24d
	.byte	0x7
	.byte	0x1
	.long	0x3936
	.long	0x394b
	.uleb128 0x2
	.long	0xa323
	.uleb128 0x1
	.long	0x3912
	.uleb128 0x1
	.long	0xa332
	.uleb128 0x1
	.long	0xa32d
	.byte	0
	.uleb128 0x14
	.long	.LASF7
	.byte	0x2
	.value	0x1e5
	.byte	0x17
	.long	0xa0fa
	.uleb128 0x7
	.long	0x394b
	.uleb128 0x2c
	.long	.LASF151
	.byte	0x2
	.value	0x26d
	.byte	0x7
	.byte	0x1
	.long	0x396f
	.long	0x397a
	.uleb128 0x2
	.long	0xa323
	.uleb128 0x1
	.long	0xa337
	.byte	0
	.uleb128 0x8c
	.long	.LASF151
	.value	0x280
	.long	0x398a
	.long	0x3995
	.uleb128 0x2
	.long	0xa323
	.uleb128 0x1
	.long	0xa33c
	.byte	0
	.uleb128 0x2c
	.long	.LASF151
	.byte	0x2
	.value	0x284
	.byte	0x7
	.byte	0x1
	.long	0x39a7
	.long	0x39b7
	.uleb128 0x2
	.long	0xa323
	.uleb128 0x1
	.long	0xa337
	.uleb128 0x1
	.long	0xa341
	.byte	0
	.uleb128 0x3d
	.long	.LASF151
	.value	0x28f
	.byte	0x7
	.long	0x39c7
	.long	0x39dc
	.uleb128 0x2
	.long	0xa323
	.uleb128 0x1
	.long	0xa33c
	.uleb128 0x1
	.long	0xa32d
	.uleb128 0x1
	.long	0x642
	.byte	0
	.uleb128 0x3d
	.long	.LASF151
	.value	0x294
	.byte	0x7
	.long	0x39ec
	.long	0x3a01
	.uleb128 0x2
	.long	0xa323
	.uleb128 0x1
	.long	0xa33c
	.uleb128 0x1
	.long	0xa32d
	.uleb128 0x1
	.long	0x3b3
	.byte	0
	.uleb128 0x2c
	.long	.LASF151
	.byte	0x2
	.value	0x2a7
	.byte	0x7
	.byte	0x1
	.long	0x3a13
	.long	0x3a23
	.uleb128 0x2
	.long	0xa323
	.uleb128 0x1
	.long	0xa33c
	.uleb128 0x1
	.long	0xa341
	.byte	0
	.uleb128 0x2c
	.long	.LASF151
	.byte	0x2
	.value	0x2ba
	.byte	0x7
	.byte	0x1
	.long	0x3a35
	.long	0x3a45
	.uleb128 0x2
	.long	0xa323
	.uleb128 0x1
	.long	0x4357
	.uleb128 0x1
	.long	0xa32d
	.byte	0
	.uleb128 0x2c
	.long	.LASF163
	.byte	0x2
	.value	0x316
	.byte	0x7
	.byte	0x1
	.long	0x3a57
	.long	0x3a5d
	.uleb128 0x2
	.long	0xa323
	.byte	0
	.uleb128 0x55
	.long	.LASF36
	.byte	0x7
	.byte	0xd6
	.byte	0x5
	.long	0xa346
	.byte	0x1
	.long	0x3a72
	.long	0x3a7d
	.uleb128 0x2
	.long	0xa323
	.uleb128 0x1
	.long	0xa337
	.byte	0
	.uleb128 0x1e
	.long	.LASF36
	.byte	0x2
	.value	0x337
	.byte	0x7
	.long	0xa346
	.byte	0x1
	.long	0x3a93
	.long	0x3a9e
	.uleb128 0x2
	.long	0xa323
	.uleb128 0x1
	.long	0xa33c
	.byte	0
	.uleb128 0x1e
	.long	.LASF36
	.byte	0x2
	.value	0x34d
	.byte	0x7
	.long	0xa346
	.byte	0x1
	.long	0x3ab4
	.long	0x3abf
	.uleb128 0x2
	.long	0xa323
	.uleb128 0x1
	.long	0x4357
	.byte	0
	.uleb128 0x2c
	.long	.LASF168
	.byte	0x2
	.value	0x361
	.byte	0x7
	.byte	0x1
	.long	0x3ad1
	.long	0x3ae1
	.uleb128 0x2
	.long	0xa323
	.uleb128 0x1
	.long	0x3912
	.uleb128 0x1
	.long	0xa332
	.byte	0
	.uleb128 0x2c
	.long	.LASF168
	.byte	0x2
	.value	0x390
	.byte	0x7
	.byte	0x1
	.long	0x3af3
	.long	0x3afe
	.uleb128 0x2
	.long	0xa323
	.uleb128 0x1
	.long	0x4357
	.byte	0
	.uleb128 0x14
	.long	.LASF171
	.byte	0x2
	.value	0x1ea
	.byte	0x3d
	.long	0x8a4f
	.uleb128 0x1e
	.long	.LASF172
	.byte	0x2
	.value	0x3dc
	.byte	0x7
	.long	0x3afe
	.byte	0x1
	.long	0x3b21
	.long	0x3b27
	.uleb128 0x2
	.long	0xa323
	.byte	0
	.uleb128 0x14
	.long	.LASF174
	.byte	0x2
	.value	0x1ec
	.byte	0x7
	.long	0x8c4a
	.uleb128 0x1e
	.long	.LASF172
	.byte	0x2
	.value	0x3e6
	.byte	0x7
	.long	0x3b27
	.byte	0x1
	.long	0x3b4a
	.long	0x3b50
	.uleb128 0x2
	.long	0xa34b
	.byte	0
	.uleb128 0x6d
	.string	"end"
	.value	0x3f0
	.long	0x3afe
	.long	0x3b63
	.long	0x3b69
	.uleb128 0x2
	.long	0xa323
	.byte	0
	.uleb128 0x6d
	.string	"end"
	.value	0x3fa
	.long	0x3b27
	.long	0x3b7c
	.long	0x3b82
	.uleb128 0x2
	.long	0xa34b
	.byte	0
	.uleb128 0x14
	.long	.LASF178
	.byte	0x2
	.value	0x1ee
	.byte	0x30
	.long	0x435c
	.uleb128 0x1e
	.long	.LASF179
	.byte	0x2
	.value	0x404
	.byte	0x7
	.long	0x3b82
	.byte	0x1
	.long	0x3ba5
	.long	0x3bab
	.uleb128 0x2
	.long	0xa323
	.byte	0
	.uleb128 0x14
	.long	.LASF181
	.byte	0x2
	.value	0x1ed
	.byte	0x35
	.long	0x4361
	.uleb128 0x1e
	.long	.LASF179
	.byte	0x2
	.value	0x40e
	.byte	0x7
	.long	0x3bab
	.byte	0x1
	.long	0x3bce
	.long	0x3bd4
	.uleb128 0x2
	.long	0xa34b
	.byte	0
	.uleb128 0x1e
	.long	.LASF183
	.byte	0x2
	.value	0x418
	.byte	0x7
	.long	0x3b82
	.byte	0x1
	.long	0x3bea
	.long	0x3bf0
	.uleb128 0x2
	.long	0xa323
	.byte	0
	.uleb128 0x1e
	.long	.LASF183
	.byte	0x2
	.value	0x422
	.byte	0x7
	.long	0x3bab
	.byte	0x1
	.long	0x3c06
	.long	0x3c0c
	.uleb128 0x2
	.long	0xa34b
	.byte	0
	.uleb128 0x1e
	.long	.LASF186
	.byte	0x2
	.value	0x42d
	.byte	0x7
	.long	0x3b27
	.byte	0x1
	.long	0x3c22
	.long	0x3c28
	.uleb128 0x2
	.long	0xa34b
	.byte	0
	.uleb128 0x1e
	.long	.LASF188
	.byte	0x2
	.value	0x437
	.byte	0x7
	.long	0x3b27
	.byte	0x1
	.long	0x3c3e
	.long	0x3c44
	.uleb128 0x2
	.long	0xa34b
	.byte	0
	.uleb128 0x1e
	.long	.LASF190
	.byte	0x2
	.value	0x441
	.byte	0x7
	.long	0x3bab
	.byte	0x1
	.long	0x3c5a
	.long	0x3c60
	.uleb128 0x2
	.long	0xa34b
	.byte	0
	.uleb128 0x1e
	.long	.LASF192
	.byte	0x2
	.value	0x44b
	.byte	0x7
	.long	0x3bab
	.byte	0x1
	.long	0x3c76
	.long	0x3c7c
	.uleb128 0x2
	.long	0xa34b
	.byte	0
	.uleb128 0x1e
	.long	.LASF194
	.byte	0x2
	.value	0x453
	.byte	0x7
	.long	0x3912
	.byte	0x1
	.long	0x3c92
	.long	0x3c98
	.uleb128 0x2
	.long	0xa34b
	.byte	0
	.uleb128 0x1e
	.long	.LASF80
	.byte	0x2
	.value	0x45e
	.byte	0x7
	.long	0x3912
	.byte	0x1
	.long	0x3cae
	.long	0x3cb4
	.uleb128 0x2
	.long	0xa34b
	.byte	0
	.uleb128 0x2c
	.long	.LASF197
	.byte	0x2
	.value	0x46d
	.byte	0x7
	.byte	0x1
	.long	0x3cc6
	.long	0x3cd1
	.uleb128 0x2
	.long	0xa323
	.uleb128 0x1
	.long	0x3912
	.byte	0
	.uleb128 0x2c
	.long	.LASF197
	.byte	0x2
	.value	0x482
	.byte	0x7
	.byte	0x1
	.long	0x3ce3
	.long	0x3cf3
	.uleb128 0x2
	.long	0xa323
	.uleb128 0x1
	.long	0x3912
	.uleb128 0x1
	.long	0xa332
	.byte	0
	.uleb128 0x2c
	.long	.LASF200
	.byte	0x2
	.value	0x4a4
	.byte	0x7
	.byte	0x1
	.long	0x3d05
	.long	0x3d0b
	.uleb128 0x2
	.long	0xa323
	.byte	0
	.uleb128 0x1e
	.long	.LASF202
	.byte	0x2
	.value	0x4ae
	.byte	0x7
	.long	0x3912
	.byte	0x1
	.long	0x3d21
	.long	0x3d27
	.uleb128 0x2
	.long	0xa34b
	.byte	0
	.uleb128 0x1e
	.long	.LASF204
	.byte	0x2
	.value	0x4bd
	.byte	0x7
	.long	0x8f7a
	.byte	0x1
	.long	0x3d3d
	.long	0x3d43
	.uleb128 0x2
	.long	0xa34b
	.byte	0
	.uleb128 0x54
	.long	.LASF206
	.byte	0x7
	.byte	0x46
	.byte	0x5
	.long	0x3d53
	.long	0x3d5e
	.uleb128 0x2
	.long	0xa323
	.uleb128 0x1
	.long	0x3912
	.byte	0
	.uleb128 0x14
	.long	.LASF71
	.byte	0x2
	.value	0x1e8
	.byte	0x32
	.long	0x8a0a
	.uleb128 0x1e
	.long	.LASF208
	.byte	0x2
	.value	0x4e3
	.byte	0x7
	.long	0x3d5e
	.byte	0x1
	.long	0x3d81
	.long	0x3d8c
	.uleb128 0x2
	.long	0xa323
	.uleb128 0x1
	.long	0x3912
	.byte	0
	.uleb128 0x14
	.long	.LASF74
	.byte	0x2
	.value	0x1e9
	.byte	0x37
	.long	0x8a16
	.uleb128 0x1e
	.long	.LASF208
	.byte	0x2
	.value	0x4f6
	.byte	0x7
	.long	0x3d8c
	.byte	0x1
	.long	0x3daf
	.long	0x3dba
	.uleb128 0x2
	.long	0xa34b
	.uleb128 0x1
	.long	0x3912
	.byte	0
	.uleb128 0x2c
	.long	.LASF211
	.byte	0x2
	.value	0x500
	.byte	0x7
	.byte	0x2
	.long	0x3dcc
	.long	0x3dd7
	.uleb128 0x2
	.long	0xa34b
	.uleb128 0x1
	.long	0x3912
	.byte	0
	.uleb128 0x6d
	.string	"at"
	.value	0x517
	.long	0x3d5e
	.long	0x3de9
	.long	0x3df4
	.uleb128 0x2
	.long	0xa323
	.uleb128 0x1
	.long	0x3912
	.byte	0
	.uleb128 0x6d
	.string	"at"
	.value	0x52a
	.long	0x3d8c
	.long	0x3e06
	.long	0x3e11
	.uleb128 0x2
	.long	0xa34b
	.uleb128 0x1
	.long	0x3912
	.byte	0
	.uleb128 0x1e
	.long	.LASF215
	.byte	0x2
	.value	0x536
	.byte	0x7
	.long	0x3d5e
	.byte	0x1
	.long	0x3e27
	.long	0x3e2d
	.uleb128 0x2
	.long	0xa323
	.byte	0
	.uleb128 0x1e
	.long	.LASF215
	.byte	0x2
	.value	0x542
	.byte	0x7
	.long	0x3d8c
	.byte	0x1
	.long	0x3e43
	.long	0x3e49
	.uleb128 0x2
	.long	0xa34b
	.byte	0
	.uleb128 0x1e
	.long	.LASF218
	.byte	0x2
	.value	0x54e
	.byte	0x7
	.long	0x3d5e
	.byte	0x1
	.long	0x3e5f
	.long	0x3e65
	.uleb128 0x2
	.long	0xa323
	.byte	0
	.uleb128 0x1e
	.long	.LASF218
	.byte	0x2
	.value	0x55a
	.byte	0x7
	.long	0x3d8c
	.byte	0x1
	.long	0x3e7b
	.long	0x3e81
	.uleb128 0x2
	.long	0xa34b
	.byte	0
	.uleb128 0x1e
	.long	.LASF221
	.byte	0x2
	.value	0x569
	.byte	0x7
	.long	0xa27e
	.byte	0x1
	.long	0x3e97
	.long	0x3e9d
	.uleb128 0x2
	.long	0xa323
	.byte	0
	.uleb128 0x1e
	.long	.LASF221
	.byte	0x2
	.value	0x56e
	.byte	0x7
	.long	0xa297
	.byte	0x1
	.long	0x3eb3
	.long	0x3eb9
	.uleb128 0x2
	.long	0xa34b
	.byte	0
	.uleb128 0x2c
	.long	.LASF224
	.byte	0x2
	.value	0x57e
	.byte	0x7
	.byte	0x1
	.long	0x3ecb
	.long	0x3ed6
	.uleb128 0x2
	.long	0xa323
	.uleb128 0x1
	.long	0xa332
	.byte	0
	.uleb128 0x2c
	.long	.LASF224
	.byte	0x2
	.value	0x58f
	.byte	0x7
	.byte	0x1
	.long	0x3ee8
	.long	0x3ef3
	.uleb128 0x2
	.long	0xa323
	.uleb128 0x1
	.long	0xa355
	.byte	0
	.uleb128 0x2c
	.long	.LASF227
	.byte	0x2
	.value	0x5a7
	.byte	0x7
	.byte	0x1
	.long	0x3f05
	.long	0x3f0b
	.uleb128 0x2
	.long	0xa323
	.byte	0
	.uleb128 0x55
	.long	.LASF229
	.byte	0x7
	.byte	0x89
	.byte	0x5
	.long	0x3afe
	.byte	0x1
	.long	0x3f20
	.long	0x3f30
	.uleb128 0x2
	.long	0xa323
	.uleb128 0x1
	.long	0x3b27
	.uleb128 0x1
	.long	0xa332
	.byte	0
	.uleb128 0x1e
	.long	.LASF229
	.byte	0x2
	.value	0x5ee
	.byte	0x7
	.long	0x3afe
	.byte	0x1
	.long	0x3f46
	.long	0x3f56
	.uleb128 0x2
	.long	0xa323
	.uleb128 0x1
	.long	0x3b27
	.uleb128 0x1
	.long	0xa355
	.byte	0
	.uleb128 0x1e
	.long	.LASF229
	.byte	0x2
	.value	0x600
	.byte	0x7
	.long	0x3afe
	.byte	0x1
	.long	0x3f6c
	.long	0x3f7c
	.uleb128 0x2
	.long	0xa323
	.uleb128 0x1
	.long	0x3b27
	.uleb128 0x1
	.long	0x4357
	.byte	0
	.uleb128 0x1e
	.long	.LASF229
	.byte	0x2
	.value	0x61a
	.byte	0x7
	.long	0x3afe
	.byte	0x1
	.long	0x3f92
	.long	0x3fa7
	.uleb128 0x2
	.long	0xa323
	.uleb128 0x1
	.long	0x3b27
	.uleb128 0x1
	.long	0x3912
	.uleb128 0x1
	.long	0xa332
	.byte	0
	.uleb128 0x1e
	.long	.LASF234
	.byte	0x2
	.value	0x6f6
	.byte	0x7
	.long	0x3afe
	.byte	0x1
	.long	0x3fbd
	.long	0x3fc8
	.uleb128 0x2
	.long	0xa323
	.uleb128 0x1
	.long	0x3b27
	.byte	0
	.uleb128 0x1e
	.long	.LASF234
	.byte	0x2
	.value	0x712
	.byte	0x7
	.long	0x3afe
	.byte	0x1
	.long	0x3fde
	.long	0x3fee
	.uleb128 0x2
	.long	0xa323
	.uleb128 0x1
	.long	0x3b27
	.uleb128 0x1
	.long	0x3b27
	.byte	0
	.uleb128 0x2c
	.long	.LASF41
	.byte	0x2
	.value	0x72a
	.byte	0x7
	.byte	0x1
	.long	0x4000
	.long	0x400b
	.uleb128 0x2
	.long	0xa323
	.uleb128 0x1
	.long	0xa346
	.byte	0
	.uleb128 0x2c
	.long	.LASF238
	.byte	0x2
	.value	0x73d
	.byte	0x7
	.byte	0x1
	.long	0x401d
	.long	0x4023
	.uleb128 0x2
	.long	0xa323
	.byte	0
	.uleb128 0x2c
	.long	.LASF240
	.byte	0x2
	.value	0x7c3
	.byte	0x7
	.byte	0x2
	.long	0x4035
	.long	0x4045
	.uleb128 0x2
	.long	0xa323
	.uleb128 0x1
	.long	0x3912
	.uleb128 0x1
	.long	0xa332
	.byte	0
	.uleb128 0x2c
	.long	.LASF242
	.byte	0x2
	.value	0x7ce
	.byte	0x7
	.byte	0x2
	.long	0x4057
	.long	0x4062
	.uleb128 0x2
	.long	0xa323
	.uleb128 0x1
	.long	0x3912
	.byte	0
	.uleb128 0x2c
	.long	.LASF244
	.byte	0x7
	.value	0x112
	.byte	0x5
	.byte	0x2
	.long	0x4074
	.long	0x4084
	.uleb128 0x2
	.long	0xa323
	.uleb128 0x1
	.long	0x2c3
	.uleb128 0x1
	.long	0xa332
	.byte	0
	.uleb128 0x2c
	.long	.LASF246
	.byte	0x7
	.value	0x296
	.byte	0x5
	.byte	0x2
	.long	0x4096
	.long	0x40ab
	.uleb128 0x2
	.long	0xa323
	.uleb128 0x1
	.long	0x3afe
	.uleb128 0x1
	.long	0x3912
	.uleb128 0x1
	.long	0xa332
	.byte	0
	.uleb128 0x2c
	.long	.LASF248
	.byte	0x7
	.value	0x300
	.byte	0x5
	.byte	0x2
	.long	0x40bd
	.long	0x40cd
	.uleb128 0x2
	.long	0xa323
	.uleb128 0x1
	.long	0x3912
	.uleb128 0x1
	.long	0xa332
	.byte	0
	.uleb128 0x2c
	.long	.LASF250
	.byte	0x7
	.value	0x339
	.byte	0x5
	.byte	0x2
	.long	0x40df
	.long	0x40ea
	.uleb128 0x2
	.long	0xa323
	.uleb128 0x1
	.long	0x3912
	.byte	0
	.uleb128 0x1e
	.long	.LASF252
	.byte	0x7
	.value	0x396
	.byte	0x5
	.long	0x8f7a
	.byte	0x2
	.long	0x4100
	.long	0x4106
	.uleb128 0x2
	.long	0xa323
	.byte	0
	.uleb128 0x1e
	.long	.LASF254
	.byte	0x7
	.value	0x16f
	.byte	0x5
	.long	0x3afe
	.byte	0x2
	.long	0x411c
	.long	0x412c
	.uleb128 0x2
	.long	0xa323
	.uleb128 0x1
	.long	0x3b27
	.uleb128 0x1
	.long	0xa355
	.byte	0
	.uleb128 0x1e
	.long	.LASF256
	.byte	0x2
	.value	0x889
	.byte	0x7
	.long	0x3afe
	.byte	0x2
	.long	0x4142
	.long	0x4152
	.uleb128 0x2
	.long	0xa323
	.uleb128 0x1
	.long	0x3b27
	.uleb128 0x1
	.long	0xa355
	.byte	0
	.uleb128 0x1e
	.long	.LASF258
	.byte	0x2
	.value	0x890
	.byte	0x7
	.long	0x3912
	.byte	0x2
	.long	0x4168
	.long	0x4178
	.uleb128 0x2
	.long	0xa34b
	.uleb128 0x1
	.long	0x3912
	.uleb128 0x1
	.long	0x77aa
	.byte	0
	.uleb128 0x8d
	.long	.LASF260
	.value	0x89b
	.long	0x3912
	.long	0x4193
	.uleb128 0x1
	.long	0x3912
	.uleb128 0x1
	.long	0xa32d
	.byte	0
	.uleb128 0x8d
	.long	.LASF262
	.value	0x8a4
	.long	0x3912
	.long	0x41a9
	.uleb128 0x1
	.long	0xa35a
	.byte	0
	.uleb128 0x2c
	.long	.LASF264
	.byte	0x2
	.value	0x8b5
	.byte	0x7
	.byte	0x2
	.long	0x41bb
	.long	0x41c6
	.uleb128 0x2
	.long	0xa323
	.uleb128 0x1
	.long	0x386a
	.byte	0
	.uleb128 0x55
	.long	.LASF266
	.byte	0x7
	.byte	0xb9
	.byte	0x5
	.long	0x3afe
	.byte	0x2
	.long	0x41db
	.long	0x41e6
	.uleb128 0x2
	.long	0xa323
	.uleb128 0x1
	.long	0x3afe
	.byte	0
	.uleb128 0x55
	.long	.LASF266
	.byte	0x7
	.byte	0xc7
	.byte	0x5
	.long	0x3afe
	.byte	0x2
	.long	0x41fb
	.long	0x420b
	.uleb128 0x2
	.long	0xa323
	.uleb128 0x1
	.long	0x3afe
	.uleb128 0x1
	.long	0x3afe
	.byte	0
	.uleb128 0x3d
	.long	.LASF269
	.value	0x8cf
	.byte	0x7
	.long	0x421b
	.long	0x422b
	.uleb128 0x2
	.long	0xa323
	.uleb128 0x1
	.long	0xa33c
	.uleb128 0x1
	.long	0x642
	.byte	0
	.uleb128 0x3d
	.long	.LASF269
	.value	0x8db
	.byte	0x7
	.long	0x423b
	.long	0x424b
	.uleb128 0x2
	.long	0xa323
	.uleb128 0x1
	.long	0xa33c
	.uleb128 0x1
	.long	0x3b3
	.byte	0
	.uleb128 0x1d
	.long	.LASF431
	.byte	0x2
	.value	0x1e0
	.byte	0x2b
	.long	0x3482
	.uleb128 0x5f
	.long	.LASF432
	.byte	0x18
	.byte	0x2
	.value	0x742
	.byte	0xe
	.long	0x42fd
	.uleb128 0x51
	.long	.LASF433
	.value	0x744
	.byte	0xa
	.long	0x386a
	.byte	0
	.uleb128 0x51
	.long	.LASF434
	.value	0x745
	.byte	0xc
	.long	0x3912
	.byte	0x8
	.uleb128 0x51
	.long	.LASF435
	.value	0x746
	.byte	0x9
	.long	0xa5b7
	.byte	0x10
	.uleb128 0x3d
	.long	.LASF432
	.value	0x749
	.byte	0x2
	.long	0x429d
	.long	0x42b2
	.uleb128 0x2
	.long	0xa5bc
	.uleb128 0x1
	.long	0x386a
	.uleb128 0x1
	.long	0x3912
	.uleb128 0x1
	.long	0xa5b7
	.byte	0
	.uleb128 0x3d
	.long	.LASF436
	.value	0x74e
	.byte	0x2
	.long	0x42c2
	.long	0x42c8
	.uleb128 0x2
	.long	0xa5bc
	.byte	0
	.uleb128 0x66
	.long	.LASF25
	.value	0x756
	.byte	0x2
	.long	0x386a
	.long	0x42dc
	.long	0x42e2
	.uleb128 0x2
	.long	0xa5bc
	.byte	0
	.uleb128 0xb0
	.long	.LASF432
	.byte	0x2
	.value	0x75e
	.byte	0x2
	.byte	0x3
	.long	0x42f1
	.uleb128 0x2
	.long	0xa5bc
	.uleb128 0x1
	.long	0xa5c6
	.byte	0
	.byte	0
	.uleb128 0x7
	.long	0x4258
	.uleb128 0x2c
	.long	.LASF437
	.byte	0x7
	.value	0x235
	.byte	0x7
	.byte	0x2
	.long	0x4323
	.long	0x432e
	.uleb128 0x47
	.long	.LASF427
	.long	0x4323
	.uleb128 0x48
	.long	0xa29c
	.byte	0
	.uleb128 0x2
	.long	0xa323
	.uleb128 0x1
	.long	0xa29c
	.byte	0
	.uleb128 0x11
	.string	"_Tp"
	.long	0xa0fa
	.uleb128 0x65
	.long	.LASF141
	.long	0x32e9
	.byte	0
	.uleb128 0x7
	.long	0x37e5
	.uleb128 0x8
	.long	.LASF274
	.byte	0x13
	.byte	0xad
	.byte	0xb
	.long	0x37cf
	.uleb128 0x7
	.long	0x4346
	.uleb128 0x33
	.long	.LASF438
	.uleb128 0x33
	.long	.LASF439
	.uleb128 0x33
	.long	.LASF440
	.uleb128 0x1b
	.long	.LASF441
	.byte	0x1
	.byte	0x16
	.byte	0xd4
	.byte	0xc
	.long	0x43a1
	.uleb128 0x8
	.long	.LASF442
	.byte	0x16
	.byte	0xd8
	.byte	0x2b
	.long	0x635
	.uleb128 0x8
	.long	.LASF70
	.byte	0x16
	.byte	0xd9
	.byte	0x2b
	.long	0xa1a2
	.uleb128 0x8
	.long	.LASF71
	.byte	0x16
	.byte	0xda
	.byte	0x2b
	.long	0xa1b1
	.uleb128 0xc
	.long	.LASF443
	.long	0xa1a2
	.byte	0
	.uleb128 0x3f
	.long	.LASF444
	.byte	0x1
	.byte	0x6
	.byte	0x3f
	.long	0x453f
	.uleb128 0x23
	.long	.LASF60
	.byte	0x6
	.byte	0x58
	.byte	0x7
	.long	.LASF445
	.byte	0x1
	.long	0x43c2
	.long	0x43c8
	.uleb128 0x2
	.long	0xa37d
	.byte	0
	.uleb128 0x23
	.long	.LASF60
	.byte	0x6
	.byte	0x5c
	.byte	0x7
	.long	.LASF446
	.byte	0x1
	.long	0x43dd
	.long	0x43e8
	.uleb128 0x2
	.long	0xa37d
	.uleb128 0x1
	.long	0xa387
	.byte	0
	.uleb128 0x4f
	.long	.LASF36
	.byte	0x6
	.byte	0x64
	.byte	0x18
	.long	.LASF447
	.long	0xa38c
	.long	0x4400
	.long	0x440b
	.uleb128 0x2
	.long	0xa37d
	.uleb128 0x1
	.long	0xa387
	.byte	0
	.uleb128 0x23
	.long	.LASF66
	.byte	0x6
	.byte	0x68
	.byte	0x7
	.long	.LASF448
	.byte	0x1
	.long	0x4420
	.long	0x4426
	.uleb128 0x2
	.long	0xa37d
	.byte	0
	.uleb128 0x27
	.long	.LASF70
	.byte	0x6
	.byte	0x46
	.byte	0x1a
	.long	0xa391
	.uleb128 0x24
	.long	.LASF68
	.byte	0x6
	.byte	0x6b
	.byte	0x7
	.long	.LASF449
	.long	0x4426
	.byte	0x1
	.long	0x444b
	.long	0x4456
	.uleb128 0x2
	.long	0xa39b
	.uleb128 0x1
	.long	0x4456
	.byte	0
	.uleb128 0x27
	.long	.LASF71
	.byte	0x6
	.byte	0x48
	.byte	0x1a
	.long	0xa3a5
	.uleb128 0x27
	.long	.LASF72
	.byte	0x6
	.byte	0x47
	.byte	0x1a
	.long	0x77a5
	.uleb128 0x24
	.long	.LASF68
	.byte	0x6
	.byte	0x6f
	.byte	0x7
	.long	.LASF450
	.long	0x4462
	.byte	0x1
	.long	0x4487
	.long	0x4492
	.uleb128 0x2
	.long	0xa39b
	.uleb128 0x1
	.long	0x4492
	.byte	0
	.uleb128 0x27
	.long	.LASF74
	.byte	0x6
	.byte	0x49
	.byte	0x1a
	.long	0xa3aa
	.uleb128 0x24
	.long	.LASF75
	.byte	0x6
	.byte	0x81
	.byte	0x7
	.long	.LASF451
	.long	0xa391
	.byte	0x1
	.long	0x44b7
	.long	0x44c7
	.uleb128 0x2
	.long	0xa37d
	.uleb128 0x1
	.long	0x44c7
	.uleb128 0x1
	.long	0x8fc9
	.byte	0
	.uleb128 0x27
	.long	.LASF77
	.byte	0x6
	.byte	0x43
	.byte	0x1f
	.long	0x2c3
	.uleb128 0x23
	.long	.LASF78
	.byte	0x6
	.byte	0xa7
	.byte	0x7
	.long	.LASF452
	.byte	0x1
	.long	0x44e8
	.long	0x44f8
	.uleb128 0x2
	.long	0xa37d
	.uleb128 0x1
	.long	0xa391
	.uleb128 0x1
	.long	0x44c7
	.byte	0
	.uleb128 0x24
	.long	.LASF80
	.byte	0x6
	.byte	0xc2
	.byte	0x7
	.long	.LASF453
	.long	0x44c7
	.byte	0x1
	.long	0x4511
	.long	0x4517
	.uleb128 0x2
	.long	0xa39b
	.byte	0
	.uleb128 0x42
	.long	.LASF82
	.byte	0x6
	.byte	0xf2
	.byte	0x7
	.long	.LASF454
	.long	0x44c7
	.long	0x452f
	.long	0x4535
	.uleb128 0x2
	.long	0xa39b
	.byte	0
	.uleb128 0x11
	.string	"_Tp"
	.long	0x56
	.byte	0
	.uleb128 0x7
	.long	0x43a1
	.uleb128 0x3f
	.long	.LASF455
	.byte	0x1
	.byte	0x5
	.byte	0x85
	.long	0x45c8
	.uleb128 0x46
	.long	0x43a1
	.byte	0x1
	.uleb128 0x23
	.long	.LASF85
	.byte	0x5
	.byte	0xa8
	.byte	0x7
	.long	.LASF456
	.byte	0x1
	.long	0x456b
	.long	0x4571
	.uleb128 0x2
	.long	0xa3af
	.byte	0
	.uleb128 0x23
	.long	.LASF85
	.byte	0x5
	.byte	0xac
	.byte	0x7
	.long	.LASF457
	.byte	0x1
	.long	0x4586
	.long	0x4591
	.uleb128 0x2
	.long	0xa3af
	.uleb128 0x1
	.long	0xa3b9
	.byte	0
	.uleb128 0x4f
	.long	.LASF36
	.byte	0x5
	.byte	0xb1
	.byte	0x12
	.long	.LASF458
	.long	0xa3be
	.long	0x45a9
	.long	0x45b4
	.uleb128 0x2
	.long	0xa3af
	.uleb128 0x1
	.long	0xa3b9
	.byte	0
	.uleb128 0x6a
	.long	.LASF89
	.long	.LASF459
	.long	0x45c1
	.uleb128 0x2
	.long	0xa3af
	.byte	0
	.byte	0
	.uleb128 0x7
	.long	0x4544
	.uleb128 0x5f
	.long	.LASF460
	.byte	0x1
	.byte	0x8
	.value	0x248
	.byte	0xc
	.long	0x46cb
	.uleb128 0x1d
	.long	.LASF70
	.byte	0x8
	.value	0x251
	.byte	0xd
	.long	0xa391
	.uleb128 0x17
	.long	.LASF75
	.byte	0x8
	.value	0x27d
	.byte	0x7
	.long	.LASF461
	.long	0x45db
	.long	0x4608
	.uleb128 0x1
	.long	0xa3c3
	.uleb128 0x1
	.long	0x461a
	.byte	0
	.uleb128 0x1d
	.long	.LASF92
	.byte	0x8
	.value	0x24b
	.byte	0xd
	.long	0x4544
	.uleb128 0x7
	.long	0x4608
	.uleb128 0x1d
	.long	.LASF77
	.byte	0x8
	.value	0x260
	.byte	0xd
	.long	0x2c3
	.uleb128 0x17
	.long	.LASF75
	.byte	0x8
	.value	0x28c
	.byte	0x7
	.long	.LASF462
	.long	0x45db
	.long	0x464c
	.uleb128 0x1
	.long	0xa3c3
	.uleb128 0x1
	.long	0x461a
	.uleb128 0x1
	.long	0x464c
	.byte	0
	.uleb128 0x1d
	.long	.LASF95
	.byte	0x8
	.value	0x25a
	.byte	0xd
	.long	0x8fc9
	.uleb128 0x40
	.long	.LASF78
	.byte	0x8
	.value	0x2b0
	.byte	0x7
	.long	.LASF463
	.long	0x467a
	.uleb128 0x1
	.long	0xa3c3
	.uleb128 0x1
	.long	0x45db
	.uleb128 0x1
	.long	0x461a
	.byte	0
	.uleb128 0x17
	.long	.LASF80
	.byte	0x8
	.value	0x2ed
	.byte	0x7
	.long	.LASF464
	.long	0x461a
	.long	0x4695
	.uleb128 0x1
	.long	0xa3c8
	.byte	0
	.uleb128 0x17
	.long	.LASF97
	.byte	0x8
	.value	0x2fd
	.byte	0x7
	.long	.LASF465
	.long	0x4608
	.long	0x46b0
	.uleb128 0x1
	.long	0xa3c8
	.byte	0
	.uleb128 0x1d
	.long	.LASF7
	.byte	0x8
	.value	0x24e
	.byte	0xd
	.long	0x56
	.uleb128 0x1d
	.long	.LASF99
	.byte	0x8
	.value	0x26f
	.byte	0x8
	.long	0x4544
	.byte	0
	.uleb128 0x1b
	.long	.LASF466
	.byte	0x18
	.byte	0x2
	.byte	0x5b
	.byte	0xc
	.long	0x4a6c
	.uleb128 0x1b
	.long	.LASF101
	.byte	0x18
	.byte	0x2
	.byte	0x62
	.byte	0xe
	.long	0x477e
	.uleb128 0xf
	.long	.LASF103
	.byte	0x2
	.byte	0x64
	.byte	0xa
	.long	0x4783
	.byte	0
	.uleb128 0xf
	.long	.LASF104
	.byte	0x2
	.byte	0x65
	.byte	0xa
	.long	0x4783
	.byte	0x8
	.uleb128 0xf
	.long	.LASF105
	.byte	0x2
	.byte	0x66
	.byte	0xa
	.long	0x4783
	.byte	0x10
	.uleb128 0x21
	.long	.LASF101
	.byte	0x2
	.byte	0x69
	.byte	0x2
	.long	.LASF467
	.long	0x4720
	.long	0x4726
	.uleb128 0x2
	.long	0xa3d7
	.byte	0
	.uleb128 0x21
	.long	.LASF101
	.byte	0x2
	.byte	0x6f
	.byte	0x2
	.long	.LASF468
	.long	0x473a
	.long	0x4745
	.uleb128 0x2
	.long	0xa3d7
	.uleb128 0x1
	.long	0xa3e1
	.byte	0
	.uleb128 0x21
	.long	.LASF108
	.byte	0x2
	.byte	0x77
	.byte	0x2
	.long	.LASF469
	.long	0x4759
	.long	0x4764
	.uleb128 0x2
	.long	0xa3d7
	.uleb128 0x1
	.long	0xa3e6
	.byte	0
	.uleb128 0x64
	.long	.LASF110
	.byte	0x80
	.long	.LASF470
	.long	0x4772
	.uleb128 0x2
	.long	0xa3d7
	.uleb128 0x1
	.long	0xa3eb
	.byte	0
	.byte	0
	.uleb128 0x7
	.long	0x46d8
	.uleb128 0x8
	.long	.LASF70
	.byte	0x2
	.byte	0x60
	.byte	0x9
	.long	0x8d0d
	.uleb128 0x1b
	.long	.LASF111
	.byte	0x18
	.byte	0x2
	.byte	0x8b
	.byte	0xe
	.long	0x4855
	.uleb128 0x36
	.long	0x4544
	.uleb128 0x36
	.long	0x46d8
	.uleb128 0x21
	.long	.LASF111
	.byte	0x2
	.byte	0x8f
	.byte	0x2
	.long	.LASF471
	.long	0x47ba
	.long	0x47c0
	.uleb128 0x2
	.long	0xa3f0
	.byte	0
	.uleb128 0x21
	.long	.LASF111
	.byte	0x2
	.byte	0x98
	.byte	0x2
	.long	.LASF472
	.long	0x47d4
	.long	0x47df
	.uleb128 0x2
	.long	0xa3f0
	.uleb128 0x1
	.long	0xa3fa
	.byte	0
	.uleb128 0x21
	.long	.LASF111
	.byte	0x2
	.byte	0xa0
	.byte	0x2
	.long	.LASF473
	.long	0x47f3
	.long	0x47fe
	.uleb128 0x2
	.long	0xa3f0
	.uleb128 0x1
	.long	0xa3ff
	.byte	0
	.uleb128 0x21
	.long	.LASF111
	.byte	0x2
	.byte	0xa5
	.byte	0x2
	.long	.LASF474
	.long	0x4812
	.long	0x481d
	.uleb128 0x2
	.long	0xa3f0
	.uleb128 0x1
	.long	0xa404
	.byte	0
	.uleb128 0x21
	.long	.LASF111
	.byte	0x2
	.byte	0xaa
	.byte	0x2
	.long	.LASF475
	.long	0x4831
	.long	0x4841
	.uleb128 0x2
	.long	0xa3f0
	.uleb128 0x1
	.long	0xa404
	.uleb128 0x1
	.long	0xa3ff
	.byte	0
	.uleb128 0x6b
	.long	.LASF476
	.long	.LASF478
	.long	0x484e
	.uleb128 0x2
	.long	0xa3f0
	.byte	0
	.byte	0
	.uleb128 0x8
	.long	.LASF117
	.byte	0x2
	.byte	0x5e
	.byte	0x15
	.long	0x8d3e
	.uleb128 0x7
	.long	0x4855
	.uleb128 0x37
	.long	.LASF118
	.value	0x133
	.byte	0x7
	.long	.LASF479
	.long	0xa409
	.long	0x487e
	.long	0x4884
	.uleb128 0x2
	.long	0xa40e
	.byte	0
	.uleb128 0x37
	.long	.LASF118
	.value	0x138
	.byte	0x7
	.long	.LASF480
	.long	0xa3fa
	.long	0x489c
	.long	0x48a2
	.uleb128 0x2
	.long	0xa418
	.byte	0
	.uleb128 0x1d
	.long	.LASF92
	.byte	0x2
	.value	0x12f
	.byte	0x16
	.long	0x4544
	.uleb128 0x7
	.long	0x48a2
	.uleb128 0x37
	.long	.LASF121
	.value	0x13d
	.byte	0x7
	.long	.LASF481
	.long	0x48a2
	.long	0x48cc
	.long	0x48d2
	.uleb128 0x2
	.long	0xa418
	.byte	0
	.uleb128 0x50
	.long	.LASF123
	.value	0x141
	.long	.LASF482
	.long	0x48e5
	.long	0x48eb
	.uleb128 0x2
	.long	0xa40e
	.byte	0
	.uleb128 0x1c
	.long	.LASF123
	.value	0x147
	.long	.LASF483
	.long	0x48fe
	.long	0x4909
	.uleb128 0x2
	.long	0xa40e
	.uleb128 0x1
	.long	0xa41d
	.byte	0
	.uleb128 0x1c
	.long	.LASF123
	.value	0x14d
	.long	.LASF484
	.long	0x491c
	.long	0x4927
	.uleb128 0x2
	.long	0xa40e
	.uleb128 0x1
	.long	0x2c3
	.byte	0
	.uleb128 0x1c
	.long	.LASF123
	.value	0x153
	.long	.LASF485
	.long	0x493a
	.long	0x494a
	.uleb128 0x2
	.long	0xa40e
	.uleb128 0x1
	.long	0x2c3
	.uleb128 0x1
	.long	0xa41d
	.byte	0
	.uleb128 0x50
	.long	.LASF123
	.value	0x158
	.long	.LASF486
	.long	0x495d
	.long	0x4968
	.uleb128 0x2
	.long	0xa40e
	.uleb128 0x1
	.long	0xa422
	.byte	0
	.uleb128 0x1c
	.long	.LASF123
	.value	0x15d
	.long	.LASF487
	.long	0x497b
	.long	0x4986
	.uleb128 0x2
	.long	0xa40e
	.uleb128 0x1
	.long	0xa404
	.byte	0
	.uleb128 0x1c
	.long	.LASF123
	.value	0x161
	.long	.LASF488
	.long	0x4999
	.long	0x49a9
	.uleb128 0x2
	.long	0xa40e
	.uleb128 0x1
	.long	0xa422
	.uleb128 0x1
	.long	0xa41d
	.byte	0
	.uleb128 0x1c
	.long	.LASF123
	.value	0x16f
	.long	.LASF489
	.long	0x49bc
	.long	0x49cc
	.uleb128 0x2
	.long	0xa40e
	.uleb128 0x1
	.long	0xa41d
	.uleb128 0x1
	.long	0xa422
	.byte	0
	.uleb128 0x1c
	.long	.LASF132
	.value	0x175
	.long	.LASF490
	.long	0x49df
	.long	0x49e5
	.uleb128 0x2
	.long	0xa40e
	.byte	0
	.uleb128 0x51
	.long	.LASF134
	.value	0x17e
	.byte	0x14
	.long	0x478f
	.byte	0
	.uleb128 0x37
	.long	.LASF135
	.value	0x182
	.byte	0x7
	.long	.LASF491
	.long	0x4783
	.long	0x4a0a
	.long	0x4a15
	.uleb128 0x2
	.long	0xa40e
	.uleb128 0x1
	.long	0x2c3
	.byte	0
	.uleb128 0x1c
	.long	.LASF137
	.value	0x18a
	.long	.LASF492
	.long	0x4a28
	.long	0x4a38
	.uleb128 0x2
	.long	0xa40e
	.uleb128 0x1
	.long	0x4783
	.uleb128 0x1
	.long	0x2c3
	.byte	0
	.uleb128 0x10
	.long	.LASF139
	.byte	0x2
	.value	0x195
	.byte	0x7
	.long	.LASF493
	.byte	0x2
	.long	0x4a4e
	.long	0x4a59
	.uleb128 0x2
	.long	0xa40e
	.uleb128 0x1
	.long	0x2c3
	.byte	0
	.uleb128 0x11
	.string	"_Tp"
	.long	0x56
	.uleb128 0xc
	.long	.LASF141
	.long	0x4544
	.byte	0
	.uleb128 0x7
	.long	0x46cb
	.uleb128 0x1b
	.long	.LASF494
	.byte	0x1
	.byte	0x13
	.byte	0xa9
	.byte	0xc
	.long	0x4a94
	.uleb128 0x8
	.long	.LASF143
	.byte	0x13
	.byte	0xaa
	.byte	0xd
	.long	0x4544
	.uleb128 0xc
	.long	.LASF144
	.long	0x4544
	.byte	0
	.uleb128 0x4b
	.long	.LASF495
	.byte	0x18
	.byte	0x2
	.value	0x1cc
	.long	0x563c
	.uleb128 0x19
	.byte	0x2
	.value	0x1cc
	.byte	0xb
	.long	0x49f2
	.uleb128 0x19
	.byte	0x2
	.value	0x1cc
	.byte	0xb
	.long	0x4a15
	.uleb128 0x19
	.byte	0x2
	.value	0x1cc
	.byte	0xb
	.long	0x49e5
	.uleb128 0x19
	.byte	0x2
	.value	0x1cc
	.byte	0xb
	.long	0x4884
	.uleb128 0x19
	.byte	0x2
	.value	0x1cc
	.byte	0xb
	.long	0x4866
	.uleb128 0x19
	.byte	0x2
	.value	0x1cc
	.byte	0xb
	.long	0x48b4
	.uleb128 0x46
	.long	0x46cb
	.byte	0x2
	.uleb128 0x17
	.long	.LASF146
	.byte	0x2
	.value	0x1f6
	.byte	0x7
	.long	.LASF496
	.long	0x8f7a
	.long	0x4af8
	.uleb128 0x1
	.long	0x642
	.byte	0
	.uleb128 0x17
	.long	.LASF146
	.byte	0x2
	.value	0x1ff
	.byte	0x7
	.long	.LASF497
	.long	0x8f7a
	.long	0x4b13
	.uleb128 0x1
	.long	0x3b3
	.byte	0
	.uleb128 0x6c
	.long	.LASF340
	.long	.LASF498
	.long	0x8f7a
	.uleb128 0x14
	.long	.LASF70
	.byte	0x2
	.value	0x1e6
	.byte	0x29
	.long	0x4783
	.uleb128 0x17
	.long	.LASF149
	.byte	0x2
	.value	0x20c
	.byte	0x7
	.long	.LASF499
	.long	0x4b20
	.long	0x4b57
	.uleb128 0x1
	.long	0x4b20
	.uleb128 0x1
	.long	0x4b20
	.uleb128 0x1
	.long	0x4b20
	.uleb128 0x1
	.long	0xa427
	.byte	0
	.uleb128 0x1d
	.long	.LASF117
	.byte	0x2
	.value	0x1e1
	.byte	0x2f
	.long	0x4855
	.uleb128 0x7
	.long	0x4b57
	.uleb128 0x52
	.long	.LASF151
	.value	0x227
	.long	.LASF500
	.long	0x4b7c
	.long	0x4b82
	.uleb128 0x2
	.long	0xa42c
	.byte	0
	.uleb128 0x43
	.long	.LASF151
	.byte	0x2
	.value	0x232
	.long	.LASF501
	.long	0x4b96
	.long	0x4ba1
	.uleb128 0x2
	.long	0xa42c
	.uleb128 0x1
	.long	0xa436
	.byte	0
	.uleb128 0x14
	.long	.LASF92
	.byte	0x2
	.value	0x1f1
	.byte	0x1a
	.long	0x4544
	.uleb128 0x7
	.long	0x4ba1
	.uleb128 0x43
	.long	.LASF151
	.byte	0x2
	.value	0x240
	.long	.LASF502
	.long	0x4bc7
	.long	0x4bd7
	.uleb128 0x2
	.long	0xa42c
	.uleb128 0x1
	.long	0x4bd7
	.uleb128 0x1
	.long	0xa436
	.byte	0
	.uleb128 0x14
	.long	.LASF77
	.byte	0x2
	.value	0x1ef
	.byte	0x1a
	.long	0x2c3
	.uleb128 0x10
	.long	.LASF151
	.byte	0x2
	.value	0x24d
	.byte	0x7
	.long	.LASF503
	.byte	0x1
	.long	0x4bfa
	.long	0x4c0f
	.uleb128 0x2
	.long	0xa42c
	.uleb128 0x1
	.long	0x4bd7
	.uleb128 0x1
	.long	0xa43b
	.uleb128 0x1
	.long	0xa436
	.byte	0
	.uleb128 0x14
	.long	.LASF7
	.byte	0x2
	.value	0x1e5
	.byte	0x17
	.long	0x56
	.uleb128 0x7
	.long	0x4c0f
	.uleb128 0x10
	.long	.LASF151
	.byte	0x2
	.value	0x26d
	.byte	0x7
	.long	.LASF504
	.byte	0x1
	.long	0x4c37
	.long	0x4c42
	.uleb128 0x2
	.long	0xa42c
	.uleb128 0x1
	.long	0xa440
	.byte	0
	.uleb128 0x52
	.long	.LASF151
	.value	0x280
	.long	.LASF505
	.long	0x4c55
	.long	0x4c60
	.uleb128 0x2
	.long	0xa42c
	.uleb128 0x1
	.long	0xa445
	.byte	0
	.uleb128 0x10
	.long	.LASF151
	.byte	0x2
	.value	0x284
	.byte	0x7
	.long	.LASF506
	.byte	0x1
	.long	0x4c76
	.long	0x4c86
	.uleb128 0x2
	.long	0xa42c
	.uleb128 0x1
	.long	0xa440
	.uleb128 0x1
	.long	0xa44a
	.byte	0
	.uleb128 0x1c
	.long	.LASF151
	.value	0x28f
	.long	.LASF507
	.long	0x4c99
	.long	0x4cae
	.uleb128 0x2
	.long	0xa42c
	.uleb128 0x1
	.long	0xa445
	.uleb128 0x1
	.long	0xa436
	.uleb128 0x1
	.long	0x642
	.byte	0
	.uleb128 0x1c
	.long	.LASF151
	.value	0x294
	.long	.LASF508
	.long	0x4cc1
	.long	0x4cd6
	.uleb128 0x2
	.long	0xa42c
	.uleb128 0x1
	.long	0xa445
	.uleb128 0x1
	.long	0xa436
	.uleb128 0x1
	.long	0x3b3
	.byte	0
	.uleb128 0x10
	.long	.LASF151
	.byte	0x2
	.value	0x2a7
	.byte	0x7
	.long	.LASF509
	.byte	0x1
	.long	0x4cec
	.long	0x4cfc
	.uleb128 0x2
	.long	0xa42c
	.uleb128 0x1
	.long	0xa445
	.uleb128 0x1
	.long	0xa44a
	.byte	0
	.uleb128 0x10
	.long	.LASF151
	.byte	0x2
	.value	0x2ba
	.byte	0x7
	.long	.LASF510
	.byte	0x1
	.long	0x4d12
	.long	0x4d22
	.uleb128 0x2
	.long	0xa42c
	.uleb128 0x1
	.long	0x5652
	.uleb128 0x1
	.long	0xa436
	.byte	0
	.uleb128 0x10
	.long	.LASF163
	.byte	0x2
	.value	0x316
	.byte	0x7
	.long	.LASF511
	.byte	0x1
	.long	0x4d38
	.long	0x4d3e
	.uleb128 0x2
	.long	0xa42c
	.byte	0
	.uleb128 0x24
	.long	.LASF36
	.byte	0x7
	.byte	0xd6
	.byte	0x5
	.long	.LASF512
	.long	0xa44f
	.byte	0x1
	.long	0x4d57
	.long	0x4d62
	.uleb128 0x2
	.long	0xa42c
	.uleb128 0x1
	.long	0xa440
	.byte	0
	.uleb128 0x6
	.long	.LASF36
	.byte	0x2
	.value	0x337
	.byte	0x7
	.long	.LASF513
	.long	0xa44f
	.byte	0x1
	.long	0x4d7c
	.long	0x4d87
	.uleb128 0x2
	.long	0xa42c
	.uleb128 0x1
	.long	0xa445
	.byte	0
	.uleb128 0x6
	.long	.LASF36
	.byte	0x2
	.value	0x34d
	.byte	0x7
	.long	.LASF514
	.long	0xa44f
	.byte	0x1
	.long	0x4da1
	.long	0x4dac
	.uleb128 0x2
	.long	0xa42c
	.uleb128 0x1
	.long	0x5652
	.byte	0
	.uleb128 0x10
	.long	.LASF168
	.byte	0x2
	.value	0x361
	.byte	0x7
	.long	.LASF515
	.byte	0x1
	.long	0x4dc2
	.long	0x4dd2
	.uleb128 0x2
	.long	0xa42c
	.uleb128 0x1
	.long	0x4bd7
	.uleb128 0x1
	.long	0xa43b
	.byte	0
	.uleb128 0x10
	.long	.LASF168
	.byte	0x2
	.value	0x390
	.byte	0x7
	.long	.LASF516
	.byte	0x1
	.long	0x4de8
	.long	0x4df3
	.uleb128 0x2
	.long	0xa42c
	.uleb128 0x1
	.long	0x5652
	.byte	0
	.uleb128 0x14
	.long	.LASF171
	.byte	0x2
	.value	0x1ea
	.byte	0x3d
	.long	0x8d5e
	.uleb128 0x6
	.long	.LASF172
	.byte	0x2
	.value	0x3dc
	.byte	0x7
	.long	.LASF517
	.long	0x4df3
	.byte	0x1
	.long	0x4e1a
	.long	0x4e20
	.uleb128 0x2
	.long	0xa42c
	.byte	0
	.uleb128 0x14
	.long	.LASF174
	.byte	0x2
	.value	0x1ec
	.byte	0x7
	.long	0x8d63
	.uleb128 0x6
	.long	.LASF172
	.byte	0x2
	.value	0x3e6
	.byte	0x7
	.long	.LASF518
	.long	0x4e20
	.byte	0x1
	.long	0x4e47
	.long	0x4e4d
	.uleb128 0x2
	.long	0xa454
	.byte	0
	.uleb128 0x39
	.string	"end"
	.value	0x3f0
	.long	.LASF519
	.long	0x4df3
	.long	0x4e64
	.long	0x4e6a
	.uleb128 0x2
	.long	0xa42c
	.byte	0
	.uleb128 0x39
	.string	"end"
	.value	0x3fa
	.long	.LASF520
	.long	0x4e20
	.long	0x4e81
	.long	0x4e87
	.uleb128 0x2
	.long	0xa454
	.byte	0
	.uleb128 0x14
	.long	.LASF178
	.byte	0x2
	.value	0x1ee
	.byte	0x30
	.long	0x5744
	.uleb128 0x6
	.long	.LASF179
	.byte	0x2
	.value	0x404
	.byte	0x7
	.long	.LASF521
	.long	0x4e87
	.byte	0x1
	.long	0x4eae
	.long	0x4eb4
	.uleb128 0x2
	.long	0xa42c
	.byte	0
	.uleb128 0x14
	.long	.LASF181
	.byte	0x2
	.value	0x1ed
	.byte	0x35
	.long	0x5749
	.uleb128 0x6
	.long	.LASF179
	.byte	0x2
	.value	0x40e
	.byte	0x7
	.long	.LASF522
	.long	0x4eb4
	.byte	0x1
	.long	0x4edb
	.long	0x4ee1
	.uleb128 0x2
	.long	0xa454
	.byte	0
	.uleb128 0x6
	.long	.LASF183
	.byte	0x2
	.value	0x418
	.byte	0x7
	.long	.LASF523
	.long	0x4e87
	.byte	0x1
	.long	0x4efb
	.long	0x4f01
	.uleb128 0x2
	.long	0xa42c
	.byte	0
	.uleb128 0x6
	.long	.LASF183
	.byte	0x2
	.value	0x422
	.byte	0x7
	.long	.LASF524
	.long	0x4eb4
	.byte	0x1
	.long	0x4f1b
	.long	0x4f21
	.uleb128 0x2
	.long	0xa454
	.byte	0
	.uleb128 0x6
	.long	.LASF186
	.byte	0x2
	.value	0x42d
	.byte	0x7
	.long	.LASF525
	.long	0x4e20
	.byte	0x1
	.long	0x4f3b
	.long	0x4f41
	.uleb128 0x2
	.long	0xa454
	.byte	0
	.uleb128 0x6
	.long	.LASF188
	.byte	0x2
	.value	0x437
	.byte	0x7
	.long	.LASF526
	.long	0x4e20
	.byte	0x1
	.long	0x4f5b
	.long	0x4f61
	.uleb128 0x2
	.long	0xa454
	.byte	0
	.uleb128 0x6
	.long	.LASF190
	.byte	0x2
	.value	0x441
	.byte	0x7
	.long	.LASF527
	.long	0x4eb4
	.byte	0x1
	.long	0x4f7b
	.long	0x4f81
	.uleb128 0x2
	.long	0xa454
	.byte	0
	.uleb128 0x6
	.long	.LASF192
	.byte	0x2
	.value	0x44b
	.byte	0x7
	.long	.LASF528
	.long	0x4eb4
	.byte	0x1
	.long	0x4f9b
	.long	0x4fa1
	.uleb128 0x2
	.long	0xa454
	.byte	0
	.uleb128 0x6
	.long	.LASF194
	.byte	0x2
	.value	0x453
	.byte	0x7
	.long	.LASF529
	.long	0x4bd7
	.byte	0x1
	.long	0x4fbb
	.long	0x4fc1
	.uleb128 0x2
	.long	0xa454
	.byte	0
	.uleb128 0x6
	.long	.LASF80
	.byte	0x2
	.value	0x45e
	.byte	0x7
	.long	.LASF530
	.long	0x4bd7
	.byte	0x1
	.long	0x4fdb
	.long	0x4fe1
	.uleb128 0x2
	.long	0xa454
	.byte	0
	.uleb128 0x10
	.long	.LASF197
	.byte	0x2
	.value	0x46d
	.byte	0x7
	.long	.LASF531
	.byte	0x1
	.long	0x4ff7
	.long	0x5002
	.uleb128 0x2
	.long	0xa42c
	.uleb128 0x1
	.long	0x4bd7
	.byte	0
	.uleb128 0x10
	.long	.LASF197
	.byte	0x2
	.value	0x482
	.byte	0x7
	.long	.LASF532
	.byte	0x1
	.long	0x5018
	.long	0x5028
	.uleb128 0x2
	.long	0xa42c
	.uleb128 0x1
	.long	0x4bd7
	.uleb128 0x1
	.long	0xa43b
	.byte	0
	.uleb128 0x10
	.long	.LASF200
	.byte	0x2
	.value	0x4a4
	.byte	0x7
	.long	.LASF533
	.byte	0x1
	.long	0x503e
	.long	0x5044
	.uleb128 0x2
	.long	0xa42c
	.byte	0
	.uleb128 0x6
	.long	.LASF202
	.byte	0x2
	.value	0x4ae
	.byte	0x7
	.long	.LASF534
	.long	0x4bd7
	.byte	0x1
	.long	0x505e
	.long	0x5064
	.uleb128 0x2
	.long	0xa454
	.byte	0
	.uleb128 0x6
	.long	.LASF204
	.byte	0x2
	.value	0x4bd
	.byte	0x7
	.long	.LASF535
	.long	0x8f7a
	.byte	0x1
	.long	0x507e
	.long	0x5084
	.uleb128 0x2
	.long	0xa454
	.byte	0
	.uleb128 0x23
	.long	.LASF206
	.byte	0x7
	.byte	0x46
	.byte	0x5
	.long	.LASF536
	.byte	0x1
	.long	0x5099
	.long	0x50a4
	.uleb128 0x2
	.long	0xa42c
	.uleb128 0x1
	.long	0x4bd7
	.byte	0
	.uleb128 0x14
	.long	.LASF71
	.byte	0x2
	.value	0x1e8
	.byte	0x32
	.long	0x8d19
	.uleb128 0x6
	.long	.LASF208
	.byte	0x2
	.value	0x4e3
	.byte	0x7
	.long	.LASF537
	.long	0x50a4
	.byte	0x1
	.long	0x50cb
	.long	0x50d6
	.uleb128 0x2
	.long	0xa42c
	.uleb128 0x1
	.long	0x4bd7
	.byte	0
	.uleb128 0x14
	.long	.LASF74
	.byte	0x2
	.value	0x1e9
	.byte	0x37
	.long	0x8d25
	.uleb128 0x6
	.long	.LASF208
	.byte	0x2
	.value	0x4f6
	.byte	0x7
	.long	.LASF538
	.long	0x50d6
	.byte	0x1
	.long	0x50fd
	.long	0x5108
	.uleb128 0x2
	.long	0xa454
	.uleb128 0x1
	.long	0x4bd7
	.byte	0
	.uleb128 0x10
	.long	.LASF211
	.byte	0x2
	.value	0x500
	.byte	0x7
	.long	.LASF539
	.byte	0x2
	.long	0x511e
	.long	0x5129
	.uleb128 0x2
	.long	0xa454
	.uleb128 0x1
	.long	0x4bd7
	.byte	0
	.uleb128 0x39
	.string	"at"
	.value	0x517
	.long	.LASF540
	.long	0x50a4
	.long	0x513f
	.long	0x514a
	.uleb128 0x2
	.long	0xa42c
	.uleb128 0x1
	.long	0x4bd7
	.byte	0
	.uleb128 0x39
	.string	"at"
	.value	0x52a
	.long	.LASF541
	.long	0x50d6
	.long	0x5160
	.long	0x516b
	.uleb128 0x2
	.long	0xa454
	.uleb128 0x1
	.long	0x4bd7
	.byte	0
	.uleb128 0x6
	.long	.LASF215
	.byte	0x2
	.value	0x536
	.byte	0x7
	.long	.LASF542
	.long	0x50a4
	.byte	0x1
	.long	0x5185
	.long	0x518b
	.uleb128 0x2
	.long	0xa42c
	.byte	0
	.uleb128 0x6
	.long	.LASF215
	.byte	0x2
	.value	0x542
	.byte	0x7
	.long	.LASF543
	.long	0x50d6
	.byte	0x1
	.long	0x51a5
	.long	0x51ab
	.uleb128 0x2
	.long	0xa454
	.byte	0
	.uleb128 0x6
	.long	.LASF218
	.byte	0x2
	.value	0x54e
	.byte	0x7
	.long	.LASF544
	.long	0x50a4
	.byte	0x1
	.long	0x51c5
	.long	0x51cb
	.uleb128 0x2
	.long	0xa42c
	.byte	0
	.uleb128 0x6
	.long	.LASF218
	.byte	0x2
	.value	0x55a
	.byte	0x7
	.long	.LASF545
	.long	0x50d6
	.byte	0x1
	.long	0x51e5
	.long	0x51eb
	.uleb128 0x2
	.long	0xa454
	.byte	0
	.uleb128 0x6
	.long	.LASF221
	.byte	0x2
	.value	0x569
	.byte	0x7
	.long	.LASF546
	.long	0xa391
	.byte	0x1
	.long	0x5205
	.long	0x520b
	.uleb128 0x2
	.long	0xa42c
	.byte	0
	.uleb128 0x6
	.long	.LASF221
	.byte	0x2
	.value	0x56e
	.byte	0x7
	.long	.LASF547
	.long	0x77a5
	.byte	0x1
	.long	0x5225
	.long	0x522b
	.uleb128 0x2
	.long	0xa454
	.byte	0
	.uleb128 0x10
	.long	.LASF224
	.byte	0x2
	.value	0x57e
	.byte	0x7
	.long	.LASF548
	.byte	0x1
	.long	0x5241
	.long	0x524c
	.uleb128 0x2
	.long	0xa42c
	.uleb128 0x1
	.long	0xa43b
	.byte	0
	.uleb128 0x10
	.long	.LASF224
	.byte	0x2
	.value	0x58f
	.byte	0x7
	.long	.LASF549
	.byte	0x1
	.long	0x5262
	.long	0x526d
	.uleb128 0x2
	.long	0xa42c
	.uleb128 0x1
	.long	0xa459
	.byte	0
	.uleb128 0x10
	.long	.LASF227
	.byte	0x2
	.value	0x5a7
	.byte	0x7
	.long	.LASF550
	.byte	0x1
	.long	0x5283
	.long	0x5289
	.uleb128 0x2
	.long	0xa42c
	.byte	0
	.uleb128 0x24
	.long	.LASF229
	.byte	0x7
	.byte	0x89
	.byte	0x5
	.long	.LASF551
	.long	0x4df3
	.byte	0x1
	.long	0x52a2
	.long	0x52b2
	.uleb128 0x2
	.long	0xa42c
	.uleb128 0x1
	.long	0x4e20
	.uleb128 0x1
	.long	0xa43b
	.byte	0
	.uleb128 0x6
	.long	.LASF229
	.byte	0x2
	.value	0x5ee
	.byte	0x7
	.long	.LASF552
	.long	0x4df3
	.byte	0x1
	.long	0x52cc
	.long	0x52dc
	.uleb128 0x2
	.long	0xa42c
	.uleb128 0x1
	.long	0x4e20
	.uleb128 0x1
	.long	0xa459
	.byte	0
	.uleb128 0x6
	.long	.LASF229
	.byte	0x2
	.value	0x600
	.byte	0x7
	.long	.LASF553
	.long	0x4df3
	.byte	0x1
	.long	0x52f6
	.long	0x5306
	.uleb128 0x2
	.long	0xa42c
	.uleb128 0x1
	.long	0x4e20
	.uleb128 0x1
	.long	0x5652
	.byte	0
	.uleb128 0x6
	.long	.LASF229
	.byte	0x2
	.value	0x61a
	.byte	0x7
	.long	.LASF554
	.long	0x4df3
	.byte	0x1
	.long	0x5320
	.long	0x5335
	.uleb128 0x2
	.long	0xa42c
	.uleb128 0x1
	.long	0x4e20
	.uleb128 0x1
	.long	0x4bd7
	.uleb128 0x1
	.long	0xa43b
	.byte	0
	.uleb128 0x6
	.long	.LASF234
	.byte	0x2
	.value	0x6f6
	.byte	0x7
	.long	.LASF555
	.long	0x4df3
	.byte	0x1
	.long	0x534f
	.long	0x535a
	.uleb128 0x2
	.long	0xa42c
	.uleb128 0x1
	.long	0x4e20
	.byte	0
	.uleb128 0x6
	.long	.LASF234
	.byte	0x2
	.value	0x712
	.byte	0x7
	.long	.LASF556
	.long	0x4df3
	.byte	0x1
	.long	0x5374
	.long	0x5384
	.uleb128 0x2
	.long	0xa42c
	.uleb128 0x1
	.long	0x4e20
	.uleb128 0x1
	.long	0x4e20
	.byte	0
	.uleb128 0x10
	.long	.LASF41
	.byte	0x2
	.value	0x72a
	.byte	0x7
	.long	.LASF557
	.byte	0x1
	.long	0x539a
	.long	0x53a5
	.uleb128 0x2
	.long	0xa42c
	.uleb128 0x1
	.long	0xa44f
	.byte	0
	.uleb128 0x10
	.long	.LASF238
	.byte	0x2
	.value	0x73d
	.byte	0x7
	.long	.LASF558
	.byte	0x1
	.long	0x53bb
	.long	0x53c1
	.uleb128 0x2
	.long	0xa42c
	.byte	0
	.uleb128 0x10
	.long	.LASF240
	.byte	0x2
	.value	0x7c3
	.byte	0x7
	.long	.LASF559
	.byte	0x2
	.long	0x53d7
	.long	0x53e7
	.uleb128 0x2
	.long	0xa42c
	.uleb128 0x1
	.long	0x4bd7
	.uleb128 0x1
	.long	0xa43b
	.byte	0
	.uleb128 0x10
	.long	.LASF242
	.byte	0x2
	.value	0x7ce
	.byte	0x7
	.long	.LASF560
	.byte	0x2
	.long	0x53fd
	.long	0x5408
	.uleb128 0x2
	.long	0xa42c
	.uleb128 0x1
	.long	0x4bd7
	.byte	0
	.uleb128 0x10
	.long	.LASF244
	.byte	0x7
	.value	0x112
	.byte	0x5
	.long	.LASF561
	.byte	0x2
	.long	0x541e
	.long	0x542e
	.uleb128 0x2
	.long	0xa42c
	.uleb128 0x1
	.long	0x2c3
	.uleb128 0x1
	.long	0xa43b
	.byte	0
	.uleb128 0x10
	.long	.LASF246
	.byte	0x7
	.value	0x296
	.byte	0x5
	.long	.LASF562
	.byte	0x2
	.long	0x5444
	.long	0x5459
	.uleb128 0x2
	.long	0xa42c
	.uleb128 0x1
	.long	0x4df3
	.uleb128 0x1
	.long	0x4bd7
	.uleb128 0x1
	.long	0xa43b
	.byte	0
	.uleb128 0x10
	.long	.LASF248
	.byte	0x7
	.value	0x300
	.byte	0x5
	.long	.LASF563
	.byte	0x2
	.long	0x546f
	.long	0x547f
	.uleb128 0x2
	.long	0xa42c
	.uleb128 0x1
	.long	0x4bd7
	.uleb128 0x1
	.long	0xa43b
	.byte	0
	.uleb128 0x10
	.long	.LASF250
	.byte	0x7
	.value	0x339
	.byte	0x5
	.long	.LASF564
	.byte	0x2
	.long	0x5495
	.long	0x54a0
	.uleb128 0x2
	.long	0xa42c
	.uleb128 0x1
	.long	0x4bd7
	.byte	0
	.uleb128 0x6
	.long	.LASF252
	.byte	0x7
	.value	0x396
	.byte	0x5
	.long	.LASF565
	.long	0x8f7a
	.byte	0x2
	.long	0x54ba
	.long	0x54c0
	.uleb128 0x2
	.long	0xa42c
	.byte	0
	.uleb128 0x6
	.long	.LASF254
	.byte	0x7
	.value	0x16f
	.byte	0x5
	.long	.LASF566
	.long	0x4df3
	.byte	0x2
	.long	0x54da
	.long	0x54ea
	.uleb128 0x2
	.long	0xa42c
	.uleb128 0x1
	.long	0x4e20
	.uleb128 0x1
	.long	0xa459
	.byte	0
	.uleb128 0x6
	.long	.LASF256
	.byte	0x2
	.value	0x889
	.byte	0x7
	.long	.LASF567
	.long	0x4df3
	.byte	0x2
	.long	0x5504
	.long	0x5514
	.uleb128 0x2
	.long	0xa42c
	.uleb128 0x1
	.long	0x4e20
	.uleb128 0x1
	.long	0xa459
	.byte	0
	.uleb128 0x6
	.long	.LASF258
	.byte	0x2
	.value	0x890
	.byte	0x7
	.long	.LASF568
	.long	0x4bd7
	.byte	0x2
	.long	0x552e
	.long	0x553e
	.uleb128 0x2
	.long	0xa454
	.uleb128 0x1
	.long	0x4bd7
	.uleb128 0x1
	.long	0x77aa
	.byte	0
	.uleb128 0x53
	.long	.LASF260
	.value	0x89b
	.long	.LASF569
	.long	0x4bd7
	.long	0x555c
	.uleb128 0x1
	.long	0x4bd7
	.uleb128 0x1
	.long	0xa436
	.byte	0
	.uleb128 0x53
	.long	.LASF262
	.value	0x8a4
	.long	.LASF570
	.long	0x4bd7
	.long	0x5575
	.uleb128 0x1
	.long	0xa45e
	.byte	0
	.uleb128 0x10
	.long	.LASF264
	.byte	0x2
	.value	0x8b5
	.byte	0x7
	.long	.LASF571
	.byte	0x2
	.long	0x558b
	.long	0x5596
	.uleb128 0x2
	.long	0xa42c
	.uleb128 0x1
	.long	0x4b20
	.byte	0
	.uleb128 0x24
	.long	.LASF266
	.byte	0x7
	.byte	0xb9
	.byte	0x5
	.long	.LASF572
	.long	0x4df3
	.byte	0x2
	.long	0x55af
	.long	0x55ba
	.uleb128 0x2
	.long	0xa42c
	.uleb128 0x1
	.long	0x4df3
	.byte	0
	.uleb128 0x24
	.long	.LASF266
	.byte	0x7
	.byte	0xc7
	.byte	0x5
	.long	.LASF573
	.long	0x4df3
	.byte	0x2
	.long	0x55d3
	.long	0x55e3
	.uleb128 0x2
	.long	0xa42c
	.uleb128 0x1
	.long	0x4df3
	.uleb128 0x1
	.long	0x4df3
	.byte	0
	.uleb128 0x1c
	.long	.LASF269
	.value	0x8cf
	.long	.LASF574
	.long	0x55f6
	.long	0x5606
	.uleb128 0x2
	.long	0xa42c
	.uleb128 0x1
	.long	0xa445
	.uleb128 0x1
	.long	0x642
	.byte	0
	.uleb128 0x1c
	.long	.LASF269
	.value	0x8db
	.long	.LASF575
	.long	0x5619
	.long	0x5629
	.uleb128 0x2
	.long	0xa42c
	.uleb128 0x1
	.long	0xa445
	.uleb128 0x1
	.long	0x3b3
	.byte	0
	.uleb128 0x11
	.string	"_Tp"
	.long	0x56
	.uleb128 0x65
	.long	.LASF141
	.long	0x4544
	.byte	0
	.uleb128 0x7
	.long	0x4a94
	.uleb128 0x8
	.long	.LASF274
	.byte	0x13
	.byte	0xad
	.byte	0xb
	.long	0x4a7e
	.uleb128 0x7
	.long	0x5641
	.uleb128 0x3f
	.long	.LASF576
	.byte	0x10
	.byte	0x24
	.byte	0x2f
	.long	0x573f
	.uleb128 0x27
	.long	.LASF171
	.byte	0x24
	.byte	0x36
	.byte	0x1a
	.long	0x77a5
	.uleb128 0xf
	.long	.LASF577
	.byte	0x24
	.byte	0x3a
	.byte	0x12
	.long	0x565e
	.byte	0
	.uleb128 0x27
	.long	.LASF77
	.byte	0x24
	.byte	0x35
	.byte	0x18
	.long	0x2c3
	.uleb128 0xf
	.long	.LASF434
	.byte	0x24
	.byte	0x3b
	.byte	0x13
	.long	0x5677
	.byte	0x8
	.uleb128 0x21
	.long	.LASF578
	.byte	0x24
	.byte	0x3e
	.byte	0x11
	.long	.LASF579
	.long	0x56a4
	.long	0x56b4
	.uleb128 0x2
	.long	0xa463
	.uleb128 0x1
	.long	0x56b4
	.uleb128 0x1
	.long	0x5677
	.byte	0
	.uleb128 0x27
	.long	.LASF174
	.byte	0x24
	.byte	0x37
	.byte	0x1a
	.long	0x77a5
	.uleb128 0x23
	.long	.LASF578
	.byte	0x24
	.byte	0x42
	.byte	0x11
	.long	.LASF580
	.byte	0x1
	.long	0x56d5
	.long	0x56db
	.uleb128 0x2
	.long	0xa463
	.byte	0
	.uleb128 0x24
	.long	.LASF194
	.byte	0x24
	.byte	0x47
	.byte	0x7
	.long	.LASF581
	.long	0x5677
	.byte	0x1
	.long	0x56f4
	.long	0x56fa
	.uleb128 0x2
	.long	0xa468
	.byte	0
	.uleb128 0x24
	.long	.LASF172
	.byte	0x24
	.byte	0x4b
	.byte	0x7
	.long	.LASF582
	.long	0x56b4
	.byte	0x1
	.long	0x5713
	.long	0x5719
	.uleb128 0x2
	.long	0xa468
	.byte	0
	.uleb128 0x8e
	.string	"end"
	.byte	0x4f
	.long	.LASF723
	.long	0x56b4
	.long	0x5730
	.long	0x5736
	.uleb128 0x2
	.long	0xa468
	.byte	0
	.uleb128 0x11
	.string	"_E"
	.long	0x56
	.byte	0
	.uleb128 0x7
	.long	0x5652
	.uleb128 0x33
	.long	.LASF583
	.uleb128 0x33
	.long	.LASF584
	.uleb128 0x1b
	.long	.LASF585
	.byte	0x1
	.byte	0x16
	.byte	0xd4
	.byte	0xc
	.long	0x5789
	.uleb128 0x8
	.long	.LASF442
	.byte	0x16
	.byte	0xd8
	.byte	0x2b
	.long	0x635
	.uleb128 0x8
	.long	.LASF70
	.byte	0x16
	.byte	0xd9
	.byte	0x2b
	.long	0xa27e
	.uleb128 0x8
	.long	.LASF71
	.byte	0x16
	.byte	0xda
	.byte	0x2b
	.long	0xa292
	.uleb128 0xc
	.long	.LASF443
	.long	0xa27e
	.byte	0
	.uleb128 0x3f
	.long	.LASF586
	.byte	0x1
	.byte	0x6
	.byte	0x3f
	.long	0x5927
	.uleb128 0x23
	.long	.LASF60
	.byte	0x6
	.byte	0x58
	.byte	0x7
	.long	.LASF587
	.byte	0x1
	.long	0x57aa
	.long	0x57b0
	.uleb128 0x2
	.long	0xa48b
	.byte	0
	.uleb128 0x23
	.long	.LASF60
	.byte	0x6
	.byte	0x5c
	.byte	0x7
	.long	.LASF588
	.byte	0x1
	.long	0x57c5
	.long	0x57d0
	.uleb128 0x2
	.long	0xa48b
	.uleb128 0x1
	.long	0xa495
	.byte	0
	.uleb128 0x4f
	.long	.LASF36
	.byte	0x6
	.byte	0x64
	.byte	0x18
	.long	.LASF589
	.long	0xa49a
	.long	0x57e8
	.long	0x57f3
	.uleb128 0x2
	.long	0xa48b
	.uleb128 0x1
	.long	0xa495
	.byte	0
	.uleb128 0x23
	.long	.LASF66
	.byte	0x6
	.byte	0x68
	.byte	0x7
	.long	.LASF590
	.byte	0x1
	.long	0x5808
	.long	0x580e
	.uleb128 0x2
	.long	0xa48b
	.byte	0
	.uleb128 0x27
	.long	.LASF70
	.byte	0x6
	.byte	0x46
	.byte	0x1a
	.long	0xa49f
	.uleb128 0x24
	.long	.LASF68
	.byte	0x6
	.byte	0x6b
	.byte	0x7
	.long	.LASF591
	.long	0x580e
	.byte	0x1
	.long	0x5833
	.long	0x583e
	.uleb128 0x2
	.long	0xa4a9
	.uleb128 0x1
	.long	0x583e
	.byte	0
	.uleb128 0x27
	.long	.LASF71
	.byte	0x6
	.byte	0x48
	.byte	0x1a
	.long	0xa4b3
	.uleb128 0x27
	.long	.LASF72
	.byte	0x6
	.byte	0x47
	.byte	0x1a
	.long	0xa4b8
	.uleb128 0x24
	.long	.LASF68
	.byte	0x6
	.byte	0x6f
	.byte	0x7
	.long	.LASF592
	.long	0x584a
	.byte	0x1
	.long	0x586f
	.long	0x587a
	.uleb128 0x2
	.long	0xa4a9
	.uleb128 0x1
	.long	0x587a
	.byte	0
	.uleb128 0x27
	.long	.LASF74
	.byte	0x6
	.byte	0x49
	.byte	0x1a
	.long	0xa4bd
	.uleb128 0x24
	.long	.LASF75
	.byte	0x6
	.byte	0x81
	.byte	0x7
	.long	.LASF593
	.long	0xa49f
	.byte	0x1
	.long	0x589f
	.long	0x58af
	.uleb128 0x2
	.long	0xa48b
	.uleb128 0x1
	.long	0x58af
	.uleb128 0x1
	.long	0x8fc9
	.byte	0
	.uleb128 0x27
	.long	.LASF77
	.byte	0x6
	.byte	0x43
	.byte	0x1f
	.long	0x2c3
	.uleb128 0x23
	.long	.LASF78
	.byte	0x6
	.byte	0xa7
	.byte	0x7
	.long	.LASF594
	.byte	0x1
	.long	0x58d0
	.long	0x58e0
	.uleb128 0x2
	.long	0xa48b
	.uleb128 0x1
	.long	0xa49f
	.uleb128 0x1
	.long	0x58af
	.byte	0
	.uleb128 0x24
	.long	.LASF80
	.byte	0x6
	.byte	0xc2
	.byte	0x7
	.long	.LASF595
	.long	0x58af
	.byte	0x1
	.long	0x58f9
	.long	0x58ff
	.uleb128 0x2
	.long	0xa4a9
	.byte	0
	.uleb128 0x42
	.long	.LASF82
	.byte	0x6
	.byte	0xf2
	.byte	0x7
	.long	.LASF596
	.long	0x58af
	.long	0x5917
	.long	0x591d
	.uleb128 0x2
	.long	0xa4a9
	.byte	0
	.uleb128 0x11
	.string	"_Tp"
	.long	0x30
	.byte	0
	.uleb128 0x7
	.long	0x5789
	.uleb128 0x3f
	.long	.LASF597
	.byte	0x1
	.byte	0x5
	.byte	0x85
	.long	0x59b0
	.uleb128 0x46
	.long	0x5789
	.byte	0x1
	.uleb128 0x23
	.long	.LASF85
	.byte	0x5
	.byte	0xa8
	.byte	0x7
	.long	.LASF598
	.byte	0x1
	.long	0x5953
	.long	0x5959
	.uleb128 0x2
	.long	0xa4c2
	.byte	0
	.uleb128 0x23
	.long	.LASF85
	.byte	0x5
	.byte	0xac
	.byte	0x7
	.long	.LASF599
	.byte	0x1
	.long	0x596e
	.long	0x5979
	.uleb128 0x2
	.long	0xa4c2
	.uleb128 0x1
	.long	0xa4cc
	.byte	0
	.uleb128 0x4f
	.long	.LASF36
	.byte	0x5
	.byte	0xb1
	.byte	0x12
	.long	.LASF600
	.long	0xa4d1
	.long	0x5991
	.long	0x599c
	.uleb128 0x2
	.long	0xa4c2
	.uleb128 0x1
	.long	0xa4cc
	.byte	0
	.uleb128 0x6a
	.long	.LASF89
	.long	.LASF601
	.long	0x59a9
	.uleb128 0x2
	.long	0xa4c2
	.byte	0
	.byte	0
	.uleb128 0x7
	.long	0x592c
	.uleb128 0x5f
	.long	.LASF602
	.byte	0x1
	.byte	0x8
	.value	0x248
	.byte	0xc
	.long	0x5ab3
	.uleb128 0x1d
	.long	.LASF70
	.byte	0x8
	.value	0x251
	.byte	0xd
	.long	0xa49f
	.uleb128 0x17
	.long	.LASF75
	.byte	0x8
	.value	0x27d
	.byte	0x7
	.long	.LASF603
	.long	0x59c3
	.long	0x59f0
	.uleb128 0x1
	.long	0xa4d6
	.uleb128 0x1
	.long	0x5a02
	.byte	0
	.uleb128 0x1d
	.long	.LASF92
	.byte	0x8
	.value	0x24b
	.byte	0xd
	.long	0x592c
	.uleb128 0x7
	.long	0x59f0
	.uleb128 0x1d
	.long	.LASF77
	.byte	0x8
	.value	0x260
	.byte	0xd
	.long	0x2c3
	.uleb128 0x17
	.long	.LASF75
	.byte	0x8
	.value	0x28c
	.byte	0x7
	.long	.LASF604
	.long	0x59c3
	.long	0x5a34
	.uleb128 0x1
	.long	0xa4d6
	.uleb128 0x1
	.long	0x5a02
	.uleb128 0x1
	.long	0x5a34
	.byte	0
	.uleb128 0x1d
	.long	.LASF95
	.byte	0x8
	.value	0x25a
	.byte	0xd
	.long	0x8fc9
	.uleb128 0x40
	.long	.LASF78
	.byte	0x8
	.value	0x2b0
	.byte	0x7
	.long	.LASF605
	.long	0x5a62
	.uleb128 0x1
	.long	0xa4d6
	.uleb128 0x1
	.long	0x59c3
	.uleb128 0x1
	.long	0x5a02
	.byte	0
	.uleb128 0x17
	.long	.LASF80
	.byte	0x8
	.value	0x2ed
	.byte	0x7
	.long	.LASF606
	.long	0x5a02
	.long	0x5a7d
	.uleb128 0x1
	.long	0xa4db
	.byte	0
	.uleb128 0x17
	.long	.LASF97
	.byte	0x8
	.value	0x2fd
	.byte	0x7
	.long	.LASF607
	.long	0x59f0
	.long	0x5a98
	.uleb128 0x1
	.long	0xa4db
	.byte	0
	.uleb128 0x1d
	.long	.LASF7
	.byte	0x8
	.value	0x24e
	.byte	0xd
	.long	0x30
	.uleb128 0x1d
	.long	.LASF99
	.byte	0x8
	.value	0x26f
	.byte	0x8
	.long	0x592c
	.byte	0
	.uleb128 0x1b
	.long	.LASF608
	.byte	0x18
	.byte	0x2
	.byte	0x5b
	.byte	0xc
	.long	0x5e54
	.uleb128 0x1b
	.long	.LASF101
	.byte	0x18
	.byte	0x2
	.byte	0x62
	.byte	0xe
	.long	0x5b66
	.uleb128 0xf
	.long	.LASF103
	.byte	0x2
	.byte	0x64
	.byte	0xa
	.long	0x5b6b
	.byte	0
	.uleb128 0xf
	.long	.LASF104
	.byte	0x2
	.byte	0x65
	.byte	0xa
	.long	0x5b6b
	.byte	0x8
	.uleb128 0xf
	.long	.LASF105
	.byte	0x2
	.byte	0x66
	.byte	0xa
	.long	0x5b6b
	.byte	0x10
	.uleb128 0x21
	.long	.LASF101
	.byte	0x2
	.byte	0x69
	.byte	0x2
	.long	.LASF609
	.long	0x5b08
	.long	0x5b0e
	.uleb128 0x2
	.long	0xa4ea
	.byte	0
	.uleb128 0x21
	.long	.LASF101
	.byte	0x2
	.byte	0x6f
	.byte	0x2
	.long	.LASF610
	.long	0x5b22
	.long	0x5b2d
	.uleb128 0x2
	.long	0xa4ea
	.uleb128 0x1
	.long	0xa4f4
	.byte	0
	.uleb128 0x21
	.long	.LASF108
	.byte	0x2
	.byte	0x77
	.byte	0x2
	.long	.LASF611
	.long	0x5b41
	.long	0x5b4c
	.uleb128 0x2
	.long	0xa4ea
	.uleb128 0x1
	.long	0xa4f9
	.byte	0
	.uleb128 0x64
	.long	.LASF110
	.byte	0x80
	.long	.LASF612
	.long	0x5b5a
	.uleb128 0x2
	.long	0xa4ea
	.uleb128 0x1
	.long	0xa4fe
	.byte	0
	.byte	0
	.uleb128 0x7
	.long	0x5ac0
	.uleb128 0x8
	.long	.LASF70
	.byte	0x2
	.byte	0x60
	.byte	0x9
	.long	0x8e26
	.uleb128 0x1b
	.long	.LASF111
	.byte	0x18
	.byte	0x2
	.byte	0x8b
	.byte	0xe
	.long	0x5c3d
	.uleb128 0x36
	.long	0x592c
	.uleb128 0x36
	.long	0x5ac0
	.uleb128 0x21
	.long	.LASF111
	.byte	0x2
	.byte	0x8f
	.byte	0x2
	.long	.LASF613
	.long	0x5ba2
	.long	0x5ba8
	.uleb128 0x2
	.long	0xa503
	.byte	0
	.uleb128 0x21
	.long	.LASF111
	.byte	0x2
	.byte	0x98
	.byte	0x2
	.long	.LASF614
	.long	0x5bbc
	.long	0x5bc7
	.uleb128 0x2
	.long	0xa503
	.uleb128 0x1
	.long	0xa50d
	.byte	0
	.uleb128 0x21
	.long	.LASF111
	.byte	0x2
	.byte	0xa0
	.byte	0x2
	.long	.LASF615
	.long	0x5bdb
	.long	0x5be6
	.uleb128 0x2
	.long	0xa503
	.uleb128 0x1
	.long	0xa512
	.byte	0
	.uleb128 0x21
	.long	.LASF111
	.byte	0x2
	.byte	0xa5
	.byte	0x2
	.long	.LASF616
	.long	0x5bfa
	.long	0x5c05
	.uleb128 0x2
	.long	0xa503
	.uleb128 0x1
	.long	0xa517
	.byte	0
	.uleb128 0x21
	.long	.LASF111
	.byte	0x2
	.byte	0xaa
	.byte	0x2
	.long	.LASF617
	.long	0x5c19
	.long	0x5c29
	.uleb128 0x2
	.long	0xa503
	.uleb128 0x1
	.long	0xa517
	.uleb128 0x1
	.long	0xa512
	.byte	0
	.uleb128 0x6b
	.long	.LASF476
	.long	.LASF618
	.long	0x5c36
	.uleb128 0x2
	.long	0xa503
	.byte	0
	.byte	0
	.uleb128 0x8
	.long	.LASF117
	.byte	0x2
	.byte	0x5e
	.byte	0x15
	.long	0x8e57
	.uleb128 0x7
	.long	0x5c3d
	.uleb128 0x37
	.long	.LASF118
	.value	0x133
	.byte	0x7
	.long	.LASF619
	.long	0xa51c
	.long	0x5c66
	.long	0x5c6c
	.uleb128 0x2
	.long	0xa521
	.byte	0
	.uleb128 0x37
	.long	.LASF118
	.value	0x138
	.byte	0x7
	.long	.LASF620
	.long	0xa50d
	.long	0x5c84
	.long	0x5c8a
	.uleb128 0x2
	.long	0xa52b
	.byte	0
	.uleb128 0x1d
	.long	.LASF92
	.byte	0x2
	.value	0x12f
	.byte	0x16
	.long	0x592c
	.uleb128 0x7
	.long	0x5c8a
	.uleb128 0x37
	.long	.LASF121
	.value	0x13d
	.byte	0x7
	.long	.LASF621
	.long	0x5c8a
	.long	0x5cb4
	.long	0x5cba
	.uleb128 0x2
	.long	0xa52b
	.byte	0
	.uleb128 0x50
	.long	.LASF123
	.value	0x141
	.long	.LASF622
	.long	0x5ccd
	.long	0x5cd3
	.uleb128 0x2
	.long	0xa521
	.byte	0
	.uleb128 0x1c
	.long	.LASF123
	.value	0x147
	.long	.LASF623
	.long	0x5ce6
	.long	0x5cf1
	.uleb128 0x2
	.long	0xa521
	.uleb128 0x1
	.long	0xa530
	.byte	0
	.uleb128 0x1c
	.long	.LASF123
	.value	0x14d
	.long	.LASF624
	.long	0x5d04
	.long	0x5d0f
	.uleb128 0x2
	.long	0xa521
	.uleb128 0x1
	.long	0x2c3
	.byte	0
	.uleb128 0x1c
	.long	.LASF123
	.value	0x153
	.long	.LASF625
	.long	0x5d22
	.long	0x5d32
	.uleb128 0x2
	.long	0xa521
	.uleb128 0x1
	.long	0x2c3
	.uleb128 0x1
	.long	0xa530
	.byte	0
	.uleb128 0x50
	.long	.LASF123
	.value	0x158
	.long	.LASF626
	.long	0x5d45
	.long	0x5d50
	.uleb128 0x2
	.long	0xa521
	.uleb128 0x1
	.long	0xa535
	.byte	0
	.uleb128 0x1c
	.long	.LASF123
	.value	0x15d
	.long	.LASF627
	.long	0x5d63
	.long	0x5d6e
	.uleb128 0x2
	.long	0xa521
	.uleb128 0x1
	.long	0xa517
	.byte	0
	.uleb128 0x1c
	.long	.LASF123
	.value	0x161
	.long	.LASF628
	.long	0x5d81
	.long	0x5d91
	.uleb128 0x2
	.long	0xa521
	.uleb128 0x1
	.long	0xa535
	.uleb128 0x1
	.long	0xa530
	.byte	0
	.uleb128 0x1c
	.long	.LASF123
	.value	0x16f
	.long	.LASF629
	.long	0x5da4
	.long	0x5db4
	.uleb128 0x2
	.long	0xa521
	.uleb128 0x1
	.long	0xa530
	.uleb128 0x1
	.long	0xa535
	.byte	0
	.uleb128 0x1c
	.long	.LASF132
	.value	0x175
	.long	.LASF630
	.long	0x5dc7
	.long	0x5dcd
	.uleb128 0x2
	.long	0xa521
	.byte	0
	.uleb128 0x51
	.long	.LASF134
	.value	0x17e
	.byte	0x14
	.long	0x5b77
	.byte	0
	.uleb128 0x37
	.long	.LASF135
	.value	0x182
	.byte	0x7
	.long	.LASF631
	.long	0x5b6b
	.long	0x5df2
	.long	0x5dfd
	.uleb128 0x2
	.long	0xa521
	.uleb128 0x1
	.long	0x2c3
	.byte	0
	.uleb128 0x1c
	.long	.LASF137
	.value	0x18a
	.long	.LASF632
	.long	0x5e10
	.long	0x5e20
	.uleb128 0x2
	.long	0xa521
	.uleb128 0x1
	.long	0x5b6b
	.uleb128 0x1
	.long	0x2c3
	.byte	0
	.uleb128 0x10
	.long	.LASF139
	.byte	0x2
	.value	0x195
	.byte	0x7
	.long	.LASF633
	.byte	0x2
	.long	0x5e36
	.long	0x5e41
	.uleb128 0x2
	.long	0xa521
	.uleb128 0x1
	.long	0x2c3
	.byte	0
	.uleb128 0x11
	.string	"_Tp"
	.long	0x30
	.uleb128 0xc
	.long	.LASF141
	.long	0x592c
	.byte	0
	.uleb128 0x7
	.long	0x5ab3
	.uleb128 0x1b
	.long	.LASF634
	.byte	0x1
	.byte	0x13
	.byte	0xa9
	.byte	0xc
	.long	0x5e7c
	.uleb128 0x8
	.long	.LASF143
	.byte	0x13
	.byte	0xaa
	.byte	0xd
	.long	0x592c
	.uleb128 0xc
	.long	.LASF144
	.long	0x592c
	.byte	0
	.uleb128 0x4b
	.long	.LASF635
	.byte	0x18
	.byte	0x2
	.value	0x1cc
	.long	0x6a50
	.uleb128 0x19
	.byte	0x2
	.value	0x1cc
	.byte	0xb
	.long	0x5dda
	.uleb128 0x19
	.byte	0x2
	.value	0x1cc
	.byte	0xb
	.long	0x5dfd
	.uleb128 0x19
	.byte	0x2
	.value	0x1cc
	.byte	0xb
	.long	0x5dcd
	.uleb128 0x19
	.byte	0x2
	.value	0x1cc
	.byte	0xb
	.long	0x5c6c
	.uleb128 0x19
	.byte	0x2
	.value	0x1cc
	.byte	0xb
	.long	0x5c4e
	.uleb128 0x19
	.byte	0x2
	.value	0x1cc
	.byte	0xb
	.long	0x5c9c
	.uleb128 0x46
	.long	0x5ab3
	.byte	0x2
	.uleb128 0x17
	.long	.LASF146
	.byte	0x2
	.value	0x1f6
	.byte	0x7
	.long	.LASF636
	.long	0x8f7a
	.long	0x5ee0
	.uleb128 0x1
	.long	0x642
	.byte	0
	.uleb128 0x17
	.long	.LASF146
	.byte	0x2
	.value	0x1ff
	.byte	0x7
	.long	.LASF637
	.long	0x8f7a
	.long	0x5efb
	.uleb128 0x1
	.long	0x3b3
	.byte	0
	.uleb128 0x6c
	.long	.LASF340
	.long	.LASF638
	.long	0x8f7a
	.uleb128 0x14
	.long	.LASF70
	.byte	0x2
	.value	0x1e6
	.byte	0x29
	.long	0x5b6b
	.uleb128 0x17
	.long	.LASF149
	.byte	0x2
	.value	0x20c
	.byte	0x7
	.long	.LASF639
	.long	0x5f08
	.long	0x5f3f
	.uleb128 0x1
	.long	0x5f08
	.uleb128 0x1
	.long	0x5f08
	.uleb128 0x1
	.long	0x5f08
	.uleb128 0x1
	.long	0xa53a
	.byte	0
	.uleb128 0x1d
	.long	.LASF117
	.byte	0x2
	.value	0x1e1
	.byte	0x2f
	.long	0x5c3d
	.uleb128 0x7
	.long	0x5f3f
	.uleb128 0x52
	.long	.LASF151
	.value	0x227
	.long	.LASF640
	.long	0x5f64
	.long	0x5f6a
	.uleb128 0x2
	.long	0xa53f
	.byte	0
	.uleb128 0x43
	.long	.LASF151
	.byte	0x2
	.value	0x232
	.long	.LASF641
	.long	0x5f7e
	.long	0x5f89
	.uleb128 0x2
	.long	0xa53f
	.uleb128 0x1
	.long	0xa549
	.byte	0
	.uleb128 0x14
	.long	.LASF92
	.byte	0x2
	.value	0x1f1
	.byte	0x1a
	.long	0x592c
	.uleb128 0x7
	.long	0x5f89
	.uleb128 0x43
	.long	.LASF151
	.byte	0x2
	.value	0x240
	.long	.LASF642
	.long	0x5faf
	.long	0x5fbf
	.uleb128 0x2
	.long	0xa53f
	.uleb128 0x1
	.long	0x5fbf
	.uleb128 0x1
	.long	0xa549
	.byte	0
	.uleb128 0x14
	.long	.LASF77
	.byte	0x2
	.value	0x1ef
	.byte	0x1a
	.long	0x2c3
	.uleb128 0x10
	.long	.LASF151
	.byte	0x2
	.value	0x24d
	.byte	0x7
	.long	.LASF643
	.byte	0x1
	.long	0x5fe2
	.long	0x5ff7
	.uleb128 0x2
	.long	0xa53f
	.uleb128 0x1
	.long	0x5fbf
	.uleb128 0x1
	.long	0xa54e
	.uleb128 0x1
	.long	0xa549
	.byte	0
	.uleb128 0x14
	.long	.LASF7
	.byte	0x2
	.value	0x1e5
	.byte	0x17
	.long	0x30
	.uleb128 0x7
	.long	0x5ff7
	.uleb128 0x10
	.long	.LASF151
	.byte	0x2
	.value	0x26d
	.byte	0x7
	.long	.LASF644
	.byte	0x1
	.long	0x601f
	.long	0x602a
	.uleb128 0x2
	.long	0xa53f
	.uleb128 0x1
	.long	0xa553
	.byte	0
	.uleb128 0x52
	.long	.LASF151
	.value	0x280
	.long	.LASF645
	.long	0x603d
	.long	0x6048
	.uleb128 0x2
	.long	0xa53f
	.uleb128 0x1
	.long	0xa558
	.byte	0
	.uleb128 0x10
	.long	.LASF151
	.byte	0x2
	.value	0x284
	.byte	0x7
	.long	.LASF646
	.byte	0x1
	.long	0x605e
	.long	0x606e
	.uleb128 0x2
	.long	0xa53f
	.uleb128 0x1
	.long	0xa553
	.uleb128 0x1
	.long	0xa55d
	.byte	0
	.uleb128 0x1c
	.long	.LASF151
	.value	0x28f
	.long	.LASF647
	.long	0x6081
	.long	0x6096
	.uleb128 0x2
	.long	0xa53f
	.uleb128 0x1
	.long	0xa558
	.uleb128 0x1
	.long	0xa549
	.uleb128 0x1
	.long	0x642
	.byte	0
	.uleb128 0x1c
	.long	.LASF151
	.value	0x294
	.long	.LASF648
	.long	0x60a9
	.long	0x60be
	.uleb128 0x2
	.long	0xa53f
	.uleb128 0x1
	.long	0xa558
	.uleb128 0x1
	.long	0xa549
	.uleb128 0x1
	.long	0x3b3
	.byte	0
	.uleb128 0x10
	.long	.LASF151
	.byte	0x2
	.value	0x2a7
	.byte	0x7
	.long	.LASF649
	.byte	0x1
	.long	0x60d4
	.long	0x60e4
	.uleb128 0x2
	.long	0xa53f
	.uleb128 0x1
	.long	0xa558
	.uleb128 0x1
	.long	0xa55d
	.byte	0
	.uleb128 0x10
	.long	.LASF151
	.byte	0x2
	.value	0x2ba
	.byte	0x7
	.long	.LASF650
	.byte	0x1
	.long	0x60fa
	.long	0x610a
	.uleb128 0x2
	.long	0xa53f
	.uleb128 0x1
	.long	0x6a66
	.uleb128 0x1
	.long	0xa549
	.byte	0
	.uleb128 0x10
	.long	.LASF163
	.byte	0x2
	.value	0x316
	.byte	0x7
	.long	.LASF651
	.byte	0x1
	.long	0x6120
	.long	0x6126
	.uleb128 0x2
	.long	0xa53f
	.byte	0
	.uleb128 0x24
	.long	.LASF36
	.byte	0x7
	.byte	0xd6
	.byte	0x5
	.long	.LASF652
	.long	0xa562
	.byte	0x1
	.long	0x613f
	.long	0x614a
	.uleb128 0x2
	.long	0xa53f
	.uleb128 0x1
	.long	0xa553
	.byte	0
	.uleb128 0x6
	.long	.LASF36
	.byte	0x2
	.value	0x337
	.byte	0x7
	.long	.LASF653
	.long	0xa562
	.byte	0x1
	.long	0x6164
	.long	0x616f
	.uleb128 0x2
	.long	0xa53f
	.uleb128 0x1
	.long	0xa558
	.byte	0
	.uleb128 0x6
	.long	.LASF36
	.byte	0x2
	.value	0x34d
	.byte	0x7
	.long	.LASF654
	.long	0xa562
	.byte	0x1
	.long	0x6189
	.long	0x6194
	.uleb128 0x2
	.long	0xa53f
	.uleb128 0x1
	.long	0x6a66
	.byte	0
	.uleb128 0x10
	.long	.LASF168
	.byte	0x2
	.value	0x361
	.byte	0x7
	.long	.LASF655
	.byte	0x1
	.long	0x61aa
	.long	0x61ba
	.uleb128 0x2
	.long	0xa53f
	.uleb128 0x1
	.long	0x5fbf
	.uleb128 0x1
	.long	0xa54e
	.byte	0
	.uleb128 0x10
	.long	.LASF168
	.byte	0x2
	.value	0x390
	.byte	0x7
	.long	.LASF656
	.byte	0x1
	.long	0x61d0
	.long	0x61db
	.uleb128 0x2
	.long	0xa53f
	.uleb128 0x1
	.long	0x6a66
	.byte	0
	.uleb128 0x14
	.long	.LASF171
	.byte	0x2
	.value	0x1ea
	.byte	0x3d
	.long	0x8e77
	.uleb128 0x6
	.long	.LASF172
	.byte	0x2
	.value	0x3dc
	.byte	0x7
	.long	.LASF657
	.long	0x61db
	.byte	0x1
	.long	0x6202
	.long	0x6208
	.uleb128 0x2
	.long	0xa53f
	.byte	0
	.uleb128 0x14
	.long	.LASF174
	.byte	0x2
	.value	0x1ec
	.byte	0x7
	.long	0x8e7c
	.uleb128 0x6
	.long	.LASF172
	.byte	0x2
	.value	0x3e6
	.byte	0x7
	.long	.LASF658
	.long	0x6208
	.byte	0x1
	.long	0x622f
	.long	0x6235
	.uleb128 0x2
	.long	0xa567
	.byte	0
	.uleb128 0x39
	.string	"end"
	.value	0x3f0
	.long	.LASF659
	.long	0x61db
	.long	0x624c
	.long	0x6252
	.uleb128 0x2
	.long	0xa53f
	.byte	0
	.uleb128 0x39
	.string	"end"
	.value	0x3fa
	.long	.LASF660
	.long	0x6208
	.long	0x6269
	.long	0x626f
	.uleb128 0x2
	.long	0xa567
	.byte	0
	.uleb128 0x14
	.long	.LASF178
	.byte	0x2
	.value	0x1ee
	.byte	0x30
	.long	0x6b58
	.uleb128 0x6
	.long	.LASF179
	.byte	0x2
	.value	0x404
	.byte	0x7
	.long	.LASF661
	.long	0x626f
	.byte	0x1
	.long	0x6296
	.long	0x629c
	.uleb128 0x2
	.long	0xa53f
	.byte	0
	.uleb128 0x14
	.long	.LASF181
	.byte	0x2
	.value	0x1ed
	.byte	0x35
	.long	0x6b5d
	.uleb128 0x6
	.long	.LASF179
	.byte	0x2
	.value	0x40e
	.byte	0x7
	.long	.LASF662
	.long	0x629c
	.byte	0x1
	.long	0x62c3
	.long	0x62c9
	.uleb128 0x2
	.long	0xa567
	.byte	0
	.uleb128 0x6
	.long	.LASF183
	.byte	0x2
	.value	0x418
	.byte	0x7
	.long	.LASF663
	.long	0x626f
	.byte	0x1
	.long	0x62e3
	.long	0x62e9
	.uleb128 0x2
	.long	0xa53f
	.byte	0
	.uleb128 0x6
	.long	.LASF183
	.byte	0x2
	.value	0x422
	.byte	0x7
	.long	.LASF664
	.long	0x629c
	.byte	0x1
	.long	0x6303
	.long	0x6309
	.uleb128 0x2
	.long	0xa567
	.byte	0
	.uleb128 0x6
	.long	.LASF186
	.byte	0x2
	.value	0x42d
	.byte	0x7
	.long	.LASF665
	.long	0x6208
	.byte	0x1
	.long	0x6323
	.long	0x6329
	.uleb128 0x2
	.long	0xa567
	.byte	0
	.uleb128 0x6
	.long	.LASF188
	.byte	0x2
	.value	0x437
	.byte	0x7
	.long	.LASF666
	.long	0x6208
	.byte	0x1
	.long	0x6343
	.long	0x6349
	.uleb128 0x2
	.long	0xa567
	.byte	0
	.uleb128 0x6
	.long	.LASF190
	.byte	0x2
	.value	0x441
	.byte	0x7
	.long	.LASF667
	.long	0x629c
	.byte	0x1
	.long	0x6363
	.long	0x6369
	.uleb128 0x2
	.long	0xa567
	.byte	0
	.uleb128 0x6
	.long	.LASF192
	.byte	0x2
	.value	0x44b
	.byte	0x7
	.long	.LASF668
	.long	0x629c
	.byte	0x1
	.long	0x6383
	.long	0x6389
	.uleb128 0x2
	.long	0xa567
	.byte	0
	.uleb128 0x6
	.long	.LASF194
	.byte	0x2
	.value	0x453
	.byte	0x7
	.long	.LASF669
	.long	0x5fbf
	.byte	0x1
	.long	0x63a3
	.long	0x63a9
	.uleb128 0x2
	.long	0xa567
	.byte	0
	.uleb128 0x6
	.long	.LASF80
	.byte	0x2
	.value	0x45e
	.byte	0x7
	.long	.LASF670
	.long	0x5fbf
	.byte	0x1
	.long	0x63c3
	.long	0x63c9
	.uleb128 0x2
	.long	0xa567
	.byte	0
	.uleb128 0x10
	.long	.LASF197
	.byte	0x2
	.value	0x46d
	.byte	0x7
	.long	.LASF671
	.byte	0x1
	.long	0x63df
	.long	0x63ea
	.uleb128 0x2
	.long	0xa53f
	.uleb128 0x1
	.long	0x5fbf
	.byte	0
	.uleb128 0x10
	.long	.LASF197
	.byte	0x2
	.value	0x482
	.byte	0x7
	.long	.LASF672
	.byte	0x1
	.long	0x6400
	.long	0x6410
	.uleb128 0x2
	.long	0xa53f
	.uleb128 0x1
	.long	0x5fbf
	.uleb128 0x1
	.long	0xa54e
	.byte	0
	.uleb128 0x10
	.long	.LASF200
	.byte	0x2
	.value	0x4a4
	.byte	0x7
	.long	.LASF673
	.byte	0x1
	.long	0x6426
	.long	0x642c
	.uleb128 0x2
	.long	0xa53f
	.byte	0
	.uleb128 0x6
	.long	.LASF202
	.byte	0x2
	.value	0x4ae
	.byte	0x7
	.long	.LASF674
	.long	0x5fbf
	.byte	0x1
	.long	0x6446
	.long	0x644c
	.uleb128 0x2
	.long	0xa567
	.byte	0
	.uleb128 0x6
	.long	.LASF204
	.byte	0x2
	.value	0x4bd
	.byte	0x7
	.long	.LASF675
	.long	0x8f7a
	.byte	0x1
	.long	0x6466
	.long	0x646c
	.uleb128 0x2
	.long	0xa567
	.byte	0
	.uleb128 0x23
	.long	.LASF206
	.byte	0x7
	.byte	0x46
	.byte	0x5
	.long	.LASF676
	.byte	0x1
	.long	0x6481
	.long	0x648c
	.uleb128 0x2
	.long	0xa53f
	.uleb128 0x1
	.long	0x5fbf
	.byte	0
	.uleb128 0x14
	.long	.LASF71
	.byte	0x2
	.value	0x1e8
	.byte	0x32
	.long	0x8e32
	.uleb128 0x6
	.long	.LASF208
	.byte	0x2
	.value	0x4e3
	.byte	0x7
	.long	.LASF677
	.long	0x648c
	.byte	0x1
	.long	0x64b3
	.long	0x64be
	.uleb128 0x2
	.long	0xa53f
	.uleb128 0x1
	.long	0x5fbf
	.byte	0
	.uleb128 0x14
	.long	.LASF74
	.byte	0x2
	.value	0x1e9
	.byte	0x37
	.long	0x8e3e
	.uleb128 0x6
	.long	.LASF208
	.byte	0x2
	.value	0x4f6
	.byte	0x7
	.long	.LASF678
	.long	0x64be
	.byte	0x1
	.long	0x64e5
	.long	0x64f0
	.uleb128 0x2
	.long	0xa567
	.uleb128 0x1
	.long	0x5fbf
	.byte	0
	.uleb128 0x10
	.long	.LASF211
	.byte	0x2
	.value	0x500
	.byte	0x7
	.long	.LASF679
	.byte	0x2
	.long	0x6506
	.long	0x6511
	.uleb128 0x2
	.long	0xa567
	.uleb128 0x1
	.long	0x5fbf
	.byte	0
	.uleb128 0x39
	.string	"at"
	.value	0x517
	.long	.LASF680
	.long	0x648c
	.long	0x6527
	.long	0x6532
	.uleb128 0x2
	.long	0xa53f
	.uleb128 0x1
	.long	0x5fbf
	.byte	0
	.uleb128 0x39
	.string	"at"
	.value	0x52a
	.long	.LASF681
	.long	0x64be
	.long	0x6548
	.long	0x6553
	.uleb128 0x2
	.long	0xa567
	.uleb128 0x1
	.long	0x5fbf
	.byte	0
	.uleb128 0x6
	.long	.LASF215
	.byte	0x2
	.value	0x536
	.byte	0x7
	.long	.LASF682
	.long	0x648c
	.byte	0x1
	.long	0x656d
	.long	0x6573
	.uleb128 0x2
	.long	0xa53f
	.byte	0
	.uleb128 0x6
	.long	.LASF215
	.byte	0x2
	.value	0x542
	.byte	0x7
	.long	.LASF683
	.long	0x64be
	.byte	0x1
	.long	0x658d
	.long	0x6593
	.uleb128 0x2
	.long	0xa567
	.byte	0
	.uleb128 0x6
	.long	.LASF218
	.byte	0x2
	.value	0x54e
	.byte	0x7
	.long	.LASF684
	.long	0x648c
	.byte	0x1
	.long	0x65ad
	.long	0x65b3
	.uleb128 0x2
	.long	0xa53f
	.byte	0
	.uleb128 0x6
	.long	.LASF218
	.byte	0x2
	.value	0x55a
	.byte	0x7
	.long	.LASF685
	.long	0x64be
	.byte	0x1
	.long	0x65cd
	.long	0x65d3
	.uleb128 0x2
	.long	0xa567
	.byte	0
	.uleb128 0x6
	.long	.LASF221
	.byte	0x2
	.value	0x569
	.byte	0x7
	.long	.LASF686
	.long	0xa49f
	.byte	0x1
	.long	0x65ed
	.long	0x65f3
	.uleb128 0x2
	.long	0xa53f
	.byte	0
	.uleb128 0x6
	.long	.LASF221
	.byte	0x2
	.value	0x56e
	.byte	0x7
	.long	.LASF687
	.long	0xa4b8
	.byte	0x1
	.long	0x660d
	.long	0x6613
	.uleb128 0x2
	.long	0xa567
	.byte	0
	.uleb128 0x10
	.long	.LASF224
	.byte	0x2
	.value	0x57e
	.byte	0x7
	.long	.LASF688
	.byte	0x1
	.long	0x6629
	.long	0x6634
	.uleb128 0x2
	.long	0xa53f
	.uleb128 0x1
	.long	0xa54e
	.byte	0
	.uleb128 0x10
	.long	.LASF224
	.byte	0x2
	.value	0x58f
	.byte	0x7
	.long	.LASF689
	.byte	0x1
	.long	0x664a
	.long	0x6655
	.uleb128 0x2
	.long	0xa53f
	.uleb128 0x1
	.long	0xa571
	.byte	0
	.uleb128 0x10
	.long	.LASF227
	.byte	0x2
	.value	0x5a7
	.byte	0x7
	.long	.LASF690
	.byte	0x1
	.long	0x666b
	.long	0x6671
	.uleb128 0x2
	.long	0xa53f
	.byte	0
	.uleb128 0x24
	.long	.LASF229
	.byte	0x7
	.byte	0x89
	.byte	0x5
	.long	.LASF691
	.long	0x61db
	.byte	0x1
	.long	0x668a
	.long	0x669a
	.uleb128 0x2
	.long	0xa53f
	.uleb128 0x1
	.long	0x6208
	.uleb128 0x1
	.long	0xa54e
	.byte	0
	.uleb128 0x6
	.long	.LASF229
	.byte	0x2
	.value	0x5ee
	.byte	0x7
	.long	.LASF692
	.long	0x61db
	.byte	0x1
	.long	0x66b4
	.long	0x66c4
	.uleb128 0x2
	.long	0xa53f
	.uleb128 0x1
	.long	0x6208
	.uleb128 0x1
	.long	0xa571
	.byte	0
	.uleb128 0x6
	.long	.LASF229
	.byte	0x2
	.value	0x600
	.byte	0x7
	.long	.LASF693
	.long	0x61db
	.byte	0x1
	.long	0x66de
	.long	0x66ee
	.uleb128 0x2
	.long	0xa53f
	.uleb128 0x1
	.long	0x6208
	.uleb128 0x1
	.long	0x6a66
	.byte	0
	.uleb128 0x6
	.long	.LASF229
	.byte	0x2
	.value	0x61a
	.byte	0x7
	.long	.LASF694
	.long	0x61db
	.byte	0x1
	.long	0x6708
	.long	0x671d
	.uleb128 0x2
	.long	0xa53f
	.uleb128 0x1
	.long	0x6208
	.uleb128 0x1
	.long	0x5fbf
	.uleb128 0x1
	.long	0xa54e
	.byte	0
	.uleb128 0x6
	.long	.LASF234
	.byte	0x2
	.value	0x6f6
	.byte	0x7
	.long	.LASF695
	.long	0x61db
	.byte	0x1
	.long	0x6737
	.long	0x6742
	.uleb128 0x2
	.long	0xa53f
	.uleb128 0x1
	.long	0x6208
	.byte	0
	.uleb128 0x6
	.long	.LASF234
	.byte	0x2
	.value	0x712
	.byte	0x7
	.long	.LASF696
	.long	0x61db
	.byte	0x1
	.long	0x675c
	.long	0x676c
	.uleb128 0x2
	.long	0xa53f
	.uleb128 0x1
	.long	0x6208
	.uleb128 0x1
	.long	0x6208
	.byte	0
	.uleb128 0x10
	.long	.LASF41
	.byte	0x2
	.value	0x72a
	.byte	0x7
	.long	.LASF697
	.byte	0x1
	.long	0x6782
	.long	0x678d
	.uleb128 0x2
	.long	0xa53f
	.uleb128 0x1
	.long	0xa562
	.byte	0
	.uleb128 0x10
	.long	.LASF238
	.byte	0x2
	.value	0x73d
	.byte	0x7
	.long	.LASF698
	.byte	0x1
	.long	0x67a3
	.long	0x67a9
	.uleb128 0x2
	.long	0xa53f
	.byte	0
	.uleb128 0x10
	.long	.LASF240
	.byte	0x2
	.value	0x7c3
	.byte	0x7
	.long	.LASF699
	.byte	0x2
	.long	0x67bf
	.long	0x67cf
	.uleb128 0x2
	.long	0xa53f
	.uleb128 0x1
	.long	0x5fbf
	.uleb128 0x1
	.long	0xa54e
	.byte	0
	.uleb128 0x10
	.long	.LASF242
	.byte	0x2
	.value	0x7ce
	.byte	0x7
	.long	.LASF700
	.byte	0x2
	.long	0x67e5
	.long	0x67f0
	.uleb128 0x2
	.long	0xa53f
	.uleb128 0x1
	.long	0x5fbf
	.byte	0
	.uleb128 0x10
	.long	.LASF244
	.byte	0x7
	.value	0x112
	.byte	0x5
	.long	.LASF701
	.byte	0x2
	.long	0x6806
	.long	0x6816
	.uleb128 0x2
	.long	0xa53f
	.uleb128 0x1
	.long	0x2c3
	.uleb128 0x1
	.long	0xa54e
	.byte	0
	.uleb128 0x10
	.long	.LASF246
	.byte	0x7
	.value	0x296
	.byte	0x5
	.long	.LASF702
	.byte	0x2
	.long	0x682c
	.long	0x6841
	.uleb128 0x2
	.long	0xa53f
	.uleb128 0x1
	.long	0x61db
	.uleb128 0x1
	.long	0x5fbf
	.uleb128 0x1
	.long	0xa54e
	.byte	0
	.uleb128 0x10
	.long	.LASF248
	.byte	0x7
	.value	0x300
	.byte	0x5
	.long	.LASF703
	.byte	0x2
	.long	0x6857
	.long	0x6867
	.uleb128 0x2
	.long	0xa53f
	.uleb128 0x1
	.long	0x5fbf
	.uleb128 0x1
	.long	0xa54e
	.byte	0
	.uleb128 0x10
	.long	.LASF250
	.byte	0x7
	.value	0x339
	.byte	0x5
	.long	.LASF704
	.byte	0x2
	.long	0x687d
	.long	0x6888
	.uleb128 0x2
	.long	0xa53f
	.uleb128 0x1
	.long	0x5fbf
	.byte	0
	.uleb128 0x6
	.long	.LASF252
	.byte	0x7
	.value	0x396
	.byte	0x5
	.long	.LASF705
	.long	0x8f7a
	.byte	0x2
	.long	0x68a2
	.long	0x68a8
	.uleb128 0x2
	.long	0xa53f
	.byte	0
	.uleb128 0x6
	.long	.LASF254
	.byte	0x7
	.value	0x16f
	.byte	0x5
	.long	.LASF706
	.long	0x61db
	.byte	0x2
	.long	0x68c2
	.long	0x68d2
	.uleb128 0x2
	.long	0xa53f
	.uleb128 0x1
	.long	0x6208
	.uleb128 0x1
	.long	0xa571
	.byte	0
	.uleb128 0x6
	.long	.LASF256
	.byte	0x2
	.value	0x889
	.byte	0x7
	.long	.LASF707
	.long	0x61db
	.byte	0x2
	.long	0x68ec
	.long	0x68fc
	.uleb128 0x2
	.long	0xa53f
	.uleb128 0x1
	.long	0x6208
	.uleb128 0x1
	.long	0xa571
	.byte	0
	.uleb128 0x6
	.long	.LASF258
	.byte	0x2
	.value	0x890
	.byte	0x7
	.long	.LASF708
	.long	0x5fbf
	.byte	0x2
	.long	0x6916
	.long	0x6926
	.uleb128 0x2
	.long	0xa567
	.uleb128 0x1
	.long	0x5fbf
	.uleb128 0x1
	.long	0x77aa
	.byte	0
	.uleb128 0x53
	.long	.LASF260
	.value	0x89b
	.long	.LASF709
	.long	0x5fbf
	.long	0x6944
	.uleb128 0x1
	.long	0x5fbf
	.uleb128 0x1
	.long	0xa549
	.byte	0
	.uleb128 0x53
	.long	.LASF262
	.value	0x8a4
	.long	.LASF710
	.long	0x5fbf
	.long	0x695d
	.uleb128 0x1
	.long	0xa576
	.byte	0
	.uleb128 0x10
	.long	.LASF264
	.byte	0x2
	.value	0x8b5
	.byte	0x7
	.long	.LASF711
	.byte	0x2
	.long	0x6973
	.long	0x697e
	.uleb128 0x2
	.long	0xa53f
	.uleb128 0x1
	.long	0x5f08
	.byte	0
	.uleb128 0x24
	.long	.LASF266
	.byte	0x7
	.byte	0xb9
	.byte	0x5
	.long	.LASF712
	.long	0x61db
	.byte	0x2
	.long	0x6997
	.long	0x69a2
	.uleb128 0x2
	.long	0xa53f
	.uleb128 0x1
	.long	0x61db
	.byte	0
	.uleb128 0x24
	.long	.LASF266
	.byte	0x7
	.byte	0xc7
	.byte	0x5
	.long	.LASF713
	.long	0x61db
	.byte	0x2
	.long	0x69bb
	.long	0x69cb
	.uleb128 0x2
	.long	0xa53f
	.uleb128 0x1
	.long	0x61db
	.uleb128 0x1
	.long	0x61db
	.byte	0
	.uleb128 0x1c
	.long	.LASF269
	.value	0x8cf
	.long	.LASF714
	.long	0x69de
	.long	0x69ee
	.uleb128 0x2
	.long	0xa53f
	.uleb128 0x1
	.long	0xa558
	.uleb128 0x1
	.long	0x642
	.byte	0
	.uleb128 0x1c
	.long	.LASF269
	.value	0x8db
	.long	.LASF715
	.long	0x6a01
	.long	0x6a11
	.uleb128 0x2
	.long	0xa53f
	.uleb128 0x1
	.long	0xa558
	.uleb128 0x1
	.long	0x3b3
	.byte	0
	.uleb128 0x37
	.long	.LASF716
	.value	0x8ee
	.byte	0x2
	.long	.LASF717
	.long	0xa49f
	.long	0x6a32
	.long	0x6a3d
	.uleb128 0x11
	.string	"_Up"
	.long	0x30
	.uleb128 0x2
	.long	0xa567
	.uleb128 0x1
	.long	0xa49f
	.byte	0
	.uleb128 0x11
	.string	"_Tp"
	.long	0x30
	.uleb128 0x65
	.long	.LASF141
	.long	0x592c
	.byte	0
	.uleb128 0x7
	.long	0x5e7c
	.uleb128 0x8
	.long	.LASF274
	.byte	0x13
	.byte	0xad
	.byte	0xb
	.long	0x5e66
	.uleb128 0x7
	.long	0x6a55
	.uleb128 0x3f
	.long	.LASF718
	.byte	0x10
	.byte	0x24
	.byte	0x2f
	.long	0x6b53
	.uleb128 0x27
	.long	.LASF171
	.byte	0x24
	.byte	0x36
	.byte	0x1a
	.long	0xa4b8
	.uleb128 0xf
	.long	.LASF577
	.byte	0x24
	.byte	0x3a
	.byte	0x12
	.long	0x6a72
	.byte	0
	.uleb128 0x27
	.long	.LASF77
	.byte	0x24
	.byte	0x35
	.byte	0x18
	.long	0x2c3
	.uleb128 0xf
	.long	.LASF434
	.byte	0x24
	.byte	0x3b
	.byte	0x13
	.long	0x6a8b
	.byte	0x8
	.uleb128 0x21
	.long	.LASF578
	.byte	0x24
	.byte	0x3e
	.byte	0x11
	.long	.LASF719
	.long	0x6ab8
	.long	0x6ac8
	.uleb128 0x2
	.long	0xa57b
	.uleb128 0x1
	.long	0x6ac8
	.uleb128 0x1
	.long	0x6a8b
	.byte	0
	.uleb128 0x27
	.long	.LASF174
	.byte	0x24
	.byte	0x37
	.byte	0x1a
	.long	0xa4b8
	.uleb128 0x23
	.long	.LASF578
	.byte	0x24
	.byte	0x42
	.byte	0x11
	.long	.LASF720
	.byte	0x1
	.long	0x6ae9
	.long	0x6aef
	.uleb128 0x2
	.long	0xa57b
	.byte	0
	.uleb128 0x24
	.long	.LASF194
	.byte	0x24
	.byte	0x47
	.byte	0x7
	.long	.LASF721
	.long	0x6a8b
	.byte	0x1
	.long	0x6b08
	.long	0x6b0e
	.uleb128 0x2
	.long	0xa580
	.byte	0
	.uleb128 0x24
	.long	.LASF172
	.byte	0x24
	.byte	0x4b
	.byte	0x7
	.long	.LASF722
	.long	0x6ac8
	.byte	0x1
	.long	0x6b27
	.long	0x6b2d
	.uleb128 0x2
	.long	0xa580
	.byte	0
	.uleb128 0x8e
	.string	"end"
	.byte	0x4f
	.long	.LASF724
	.long	0x6ac8
	.long	0x6b44
	.long	0x6b4a
	.uleb128 0x2
	.long	0xa580
	.byte	0
	.uleb128 0x11
	.string	"_E"
	.long	0x30
	.byte	0
	.uleb128 0x7
	.long	0x6a66
	.uleb128 0x33
	.long	.LASF725
	.uleb128 0x33
	.long	.LASF726
	.uleb128 0x78
	.long	.LASF58
	.byte	0x13
	.byte	0xaf
	.byte	0xd
	.uleb128 0x1b
	.long	.LASF727
	.byte	0x1
	.byte	0x13
	.byte	0x8d
	.byte	0xc
	.long	0x6b8d
	.uleb128 0x8
	.long	.LASF143
	.byte	0x13
	.byte	0x8e
	.byte	0xd
	.long	0xa27e
	.uleb128 0x11
	.string	"_Tp"
	.long	0xa27e
	.byte	0
	.uleb128 0x1b
	.long	.LASF728
	.byte	0x1
	.byte	0x16
	.byte	0xdf
	.byte	0xc
	.long	0x6bc8
	.uleb128 0x8
	.long	.LASF442
	.byte	0x16
	.byte	0xe3
	.byte	0x2b
	.long	0x635
	.uleb128 0x8
	.long	.LASF70
	.byte	0x16
	.byte	0xe4
	.byte	0x2b
	.long	0xa1b6
	.uleb128 0x8
	.long	.LASF71
	.byte	0x16
	.byte	0xe5
	.byte	0x2b
	.long	0xa1c0
	.uleb128 0xc
	.long	.LASF443
	.long	0xa1b6
	.byte	0
	.uleb128 0x1b
	.long	.LASF729
	.byte	0x1
	.byte	0x16
	.byte	0xd4
	.byte	0xc
	.long	0x6c03
	.uleb128 0x8
	.long	.LASF442
	.byte	0x16
	.byte	0xd8
	.byte	0x2b
	.long	0x635
	.uleb128 0x8
	.long	.LASF70
	.byte	0x16
	.byte	0xd9
	.byte	0x2b
	.long	0x9caa
	.uleb128 0x8
	.long	.LASF71
	.byte	0x16
	.byte	0xda
	.byte	0x2b
	.long	0x9cbe
	.uleb128 0xc
	.long	.LASF443
	.long	0x9caa
	.byte	0
	.uleb128 0x1b
	.long	.LASF730
	.byte	0x10
	.byte	0xc
	.byte	0x6d
	.byte	0xc
	.long	0x6cd0
	.uleb128 0x77
	.long	.LASF731
	.byte	0xc
	.byte	0x71
	.byte	0x7
	.long	.LASF732
	.long	0x6c24
	.long	0x6c2f
	.uleb128 0x2
	.long	0xa5cb
	.uleb128 0x1
	.long	0xa5d5
	.byte	0
	.uleb128 0x21
	.long	.LASF733
	.byte	0xc
	.byte	0x76
	.byte	0x7
	.long	.LASF734
	.long	0x6c43
	.long	0x6c49
	.uleb128 0x2
	.long	0xa5cb
	.byte	0
	.uleb128 0x21
	.long	.LASF735
	.byte	0xc
	.byte	0x83
	.byte	0xc
	.long	.LASF736
	.long	0x6c5d
	.long	0x6c63
	.uleb128 0x2
	.long	0xa5cb
	.byte	0
	.uleb128 0xf
	.long	.LASF737
	.byte	0xc
	.byte	0x85
	.byte	0x1e
	.long	0xa396
	.byte	0
	.uleb128 0xf
	.long	.LASF738
	.byte	0xc
	.byte	0x86
	.byte	0x19
	.long	0xa5da
	.byte	0x8
	.uleb128 0x23
	.long	.LASF731
	.byte	0xc
	.byte	0x89
	.byte	0x7
	.long	.LASF739
	.byte	0x3
	.long	0x6c92
	.long	0x6c9d
	.uleb128 0x2
	.long	0xa5cb
	.uleb128 0x1
	.long	0xa5df
	.byte	0
	.uleb128 0x8f
	.long	.LASF740
	.byte	0x8e
	.long	.LASF741
	.long	0x6cc0
	.uleb128 0xc
	.long	.LASF742
	.long	0xa391
	.uleb128 0x1
	.long	0xa391
	.uleb128 0x1
	.long	0xa391
	.byte	0
	.uleb128 0xc
	.long	.LASF743
	.long	0xa391
	.uleb128 0x90
	.long	.LASF141
	.byte	0
	.uleb128 0x7
	.long	0x6c03
	.uleb128 0x1b
	.long	.LASF744
	.byte	0x10
	.byte	0xc
	.byte	0x6d
	.byte	0xc
	.long	0x6da2
	.uleb128 0x77
	.long	.LASF731
	.byte	0xc
	.byte	0x71
	.byte	0x7
	.long	.LASF745
	.long	0x6cf6
	.long	0x6d01
	.uleb128 0x2
	.long	0xa5e4
	.uleb128 0x1
	.long	0xa5ee
	.byte	0
	.uleb128 0x21
	.long	.LASF733
	.byte	0xc
	.byte	0x76
	.byte	0x7
	.long	.LASF746
	.long	0x6d15
	.long	0x6d1b
	.uleb128 0x2
	.long	0xa5e4
	.byte	0
	.uleb128 0x21
	.long	.LASF735
	.byte	0xc
	.byte	0x83
	.byte	0xc
	.long	.LASF747
	.long	0x6d2f
	.long	0x6d35
	.uleb128 0x2
	.long	0xa5e4
	.byte	0
	.uleb128 0xf
	.long	.LASF737
	.byte	0xc
	.byte	0x85
	.byte	0x1e
	.long	0xa4a4
	.byte	0
	.uleb128 0xf
	.long	.LASF738
	.byte	0xc
	.byte	0x86
	.byte	0x19
	.long	0xa5f3
	.byte	0x8
	.uleb128 0x23
	.long	.LASF731
	.byte	0xc
	.byte	0x89
	.byte	0x7
	.long	.LASF748
	.byte	0x3
	.long	0x6d64
	.long	0x6d6f
	.uleb128 0x2
	.long	0xa5e4
	.uleb128 0x1
	.long	0xa5f8
	.byte	0
	.uleb128 0x8f
	.long	.LASF749
	.byte	0x8e
	.long	.LASF750
	.long	0x6d92
	.uleb128 0xc
	.long	.LASF742
	.long	0xa49f
	.uleb128 0x1
	.long	0xa49f
	.uleb128 0x1
	.long	0xa49f
	.byte	0
	.uleb128 0xc
	.long	.LASF743
	.long	0xa49f
	.uleb128 0x90
	.long	.LASF141
	.byte	0
	.uleb128 0x7
	.long	0x6cd5
	.uleb128 0xb1
	.long	.LASF1460
	.byte	0x13
	.value	0x6e5
	.byte	0x26
	.long	0x8f81
	.byte	0x1
	.byte	0x3
	.uleb128 0x91
	.long	.LASF751
	.byte	0x45
	.long	.LASF753
	.uleb128 0x91
	.long	.LASF752
	.byte	0x42
	.long	.LASF754
	.uleb128 0x86
	.long	.LASF755
	.byte	0x26
	.byte	0x4f
	.byte	0x3
	.long	.LASF756
	.long	0x6de4
	.uleb128 0x1
	.long	0x77aa
	.byte	0
	.uleb128 0x49
	.long	.LASF757
	.byte	0xb
	.byte	0x7b
	.byte	0x5
	.long	.LASF758
	.long	0x6e17
	.uleb128 0x11
	.string	"_Tp"
	.long	0x30
	.uleb128 0x47
	.long	.LASF427
	.long	0x6e0c
	.uleb128 0x48
	.long	0xa4bd
	.byte	0
	.uleb128 0x1
	.long	0xa49f
	.uleb128 0x1
	.long	0xa4bd
	.byte	0
	.uleb128 0x49
	.long	.LASF759
	.byte	0xb
	.byte	0x7b
	.byte	0x5
	.long	.LASF760
	.long	0x6e4a
	.uleb128 0x11
	.string	"_Tp"
	.long	0x56
	.uleb128 0x47
	.long	.LASF427
	.long	0x6e3f
	.uleb128 0x48
	.long	0xa3aa
	.byte	0
	.uleb128 0x1
	.long	0xa391
	.uleb128 0x1
	.long	0xa3aa
	.byte	0
	.uleb128 0x40
	.long	.LASF761
	.byte	0xa
	.value	0x3a7
	.byte	0x5
	.long	.LASF762
	.long	0x6e7d
	.uleb128 0x11
	.string	"_Up"
	.long	0x37
	.uleb128 0x11
	.string	"_Tp"
	.long	0x37
	.uleb128 0x1
	.long	0x9caa
	.uleb128 0x1
	.long	0x9caa
	.uleb128 0x1
	.long	0x9cc8
	.byte	0
	.uleb128 0x17
	.long	.LASF763
	.byte	0xc
	.value	0x1dd
	.byte	0x5
	.long	.LASF764
	.long	0xa49f
	.long	0x6ebd
	.uleb128 0xc
	.long	.LASF743
	.long	0xa49f
	.uleb128 0xc
	.long	.LASF765
	.long	0x3e
	.uleb128 0x11
	.string	"_Tp"
	.long	0x30
	.uleb128 0x1
	.long	0xa49f
	.uleb128 0x1
	.long	0x3e
	.uleb128 0x1
	.long	0xa4bd
	.byte	0
	.uleb128 0x17
	.long	.LASF766
	.byte	0xc
	.value	0x1dd
	.byte	0x5
	.long	.LASF767
	.long	0xa391
	.long	0x6efd
	.uleb128 0xc
	.long	.LASF743
	.long	0xa391
	.uleb128 0xc
	.long	.LASF765
	.long	0x3e
	.uleb128 0x11
	.string	"_Tp"
	.long	0x56
	.uleb128 0x1
	.long	0xa391
	.uleb128 0x1
	.long	0x3e
	.uleb128 0x1
	.long	0xa3aa
	.byte	0
	.uleb128 0x40
	.long	.LASF768
	.byte	0xa
	.value	0x3d0
	.byte	0x5
	.long	.LASF769
	.long	0x6f30
	.uleb128 0xc
	.long	.LASF770
	.long	0x9caa
	.uleb128 0x11
	.string	"_Tp"
	.long	0x37
	.uleb128 0x1
	.long	0x9caa
	.uleb128 0x1
	.long	0x9caa
	.uleb128 0x1
	.long	0x9cc8
	.byte	0
	.uleb128 0x17
	.long	.LASF771
	.byte	0x3
	.value	0xbce
	.byte	0x5
	.long	.LASF772
	.long	0x9caa
	.long	0x6f54
	.uleb128 0xc
	.long	.LASF443
	.long	0x9caa
	.uleb128 0x1
	.long	0x9caa
	.byte	0
	.uleb128 0x40
	.long	.LASF773
	.byte	0xa
	.value	0x3bc
	.byte	0x5
	.long	.LASF774
	.long	0x6f90
	.uleb128 0xc
	.long	.LASF775
	.long	0x9caa
	.uleb128 0xc
	.long	.LASF776
	.long	0x11b4
	.uleb128 0x11
	.string	"_Tp"
	.long	0x37
	.uleb128 0x1
	.long	0x81ad
	.uleb128 0x1
	.long	0x81ad
	.uleb128 0x1
	.long	0x9cc8
	.byte	0
	.uleb128 0x17
	.long	.LASF777
	.byte	0xc
	.value	0x226
	.byte	0x5
	.long	.LASF778
	.long	0xa49f
	.long	0x6fd0
	.uleb128 0xc
	.long	.LASF743
	.long	0xa49f
	.uleb128 0xc
	.long	.LASF765
	.long	0x3e
	.uleb128 0x11
	.string	"_Tp"
	.long	0x30
	.uleb128 0x1
	.long	0xa49f
	.uleb128 0x1
	.long	0x3e
	.uleb128 0x1
	.long	0xa4bd
	.byte	0
	.uleb128 0x17
	.long	.LASF779
	.byte	0xc
	.value	0x226
	.byte	0x5
	.long	.LASF780
	.long	0xa391
	.long	0x7010
	.uleb128 0xc
	.long	.LASF743
	.long	0xa391
	.uleb128 0xc
	.long	.LASF765
	.long	0x3e
	.uleb128 0x11
	.string	"_Tp"
	.long	0x56
	.uleb128 0x1
	.long	0xa391
	.uleb128 0x1
	.long	0x3e
	.uleb128 0x1
	.long	0xa3aa
	.byte	0
	.uleb128 0x17
	.long	.LASF781
	.byte	0xa
	.value	0x100
	.byte	0x5
	.long	.LASF782
	.long	0xaf1c
	.long	0x7039
	.uleb128 0x11
	.string	"_Tp"
	.long	0x3e
	.uleb128 0x1
	.long	0xaf1c
	.uleb128 0x1
	.long	0xaf1c
	.byte	0
	.uleb128 0x17
	.long	.LASF783
	.byte	0xa
	.value	0x475
	.byte	0x5
	.long	.LASF784
	.long	0x9caa
	.long	0x707e
	.uleb128 0xc
	.long	.LASF785
	.long	0x9caa
	.uleb128 0xc
	.long	.LASF765
	.long	0x3e
	.uleb128 0x11
	.string	"_Tp"
	.long	0x37
	.uleb128 0x1
	.long	0x9caa
	.uleb128 0x1
	.long	0x3e
	.uleb128 0x1
	.long	0x9cc8
	.uleb128 0x1
	.long	0x6a2
	.byte	0
	.uleb128 0x17
	.long	.LASF786
	.byte	0xc
	.value	0x226
	.byte	0x5
	.long	.LASF787
	.long	0x9caa
	.long	0x70be
	.uleb128 0xc
	.long	.LASF743
	.long	0x9caa
	.uleb128 0xc
	.long	.LASF765
	.long	0x3e
	.uleb128 0x11
	.string	"_Tp"
	.long	0x37
	.uleb128 0x1
	.long	0x9caa
	.uleb128 0x1
	.long	0x3e
	.uleb128 0x1
	.long	0x9cc8
	.byte	0
	.uleb128 0x40
	.long	.LASF788
	.byte	0xa
	.value	0x3d0
	.byte	0x5
	.long	.LASF789
	.long	0x70f1
	.uleb128 0xc
	.long	.LASF770
	.long	0x81ad
	.uleb128 0x11
	.string	"_Tp"
	.long	0x37
	.uleb128 0x1
	.long	0x81ad
	.uleb128 0x1
	.long	0x81ad
	.uleb128 0x1
	.long	0x9cc8
	.byte	0
	.uleb128 0x49
	.long	.LASF790
	.byte	0xb
	.byte	0xdb
	.byte	0x5
	.long	.LASF791
	.long	0x7115
	.uleb128 0xc
	.long	.LASF743
	.long	0xa49f
	.uleb128 0x1
	.long	0xa49f
	.uleb128 0x1
	.long	0xa49f
	.byte	0
	.uleb128 0x17
	.long	.LASF792
	.byte	0xc
	.value	0x303
	.byte	0x5
	.long	.LASF793
	.long	0xa49f
	.long	0x7163
	.uleb128 0xc
	.long	.LASF743
	.long	0xa49f
	.uleb128 0xc
	.long	.LASF765
	.long	0x3e
	.uleb128 0x11
	.string	"_Tp"
	.long	0x30
	.uleb128 0xc
	.long	.LASF794
	.long	0x30
	.uleb128 0x1
	.long	0xa49f
	.uleb128 0x1
	.long	0x3e
	.uleb128 0x1
	.long	0xa4bd
	.uleb128 0x1
	.long	0xa4d1
	.byte	0
	.uleb128 0x49
	.long	.LASF795
	.byte	0xb
	.byte	0xdb
	.byte	0x5
	.long	.LASF796
	.long	0x7187
	.uleb128 0xc
	.long	.LASF743
	.long	0xa391
	.uleb128 0x1
	.long	0xa391
	.uleb128 0x1
	.long	0xa391
	.byte	0
	.uleb128 0x17
	.long	.LASF797
	.byte	0xc
	.value	0x303
	.byte	0x5
	.long	.LASF798
	.long	0xa391
	.long	0x71d5
	.uleb128 0xc
	.long	.LASF743
	.long	0xa391
	.uleb128 0xc
	.long	.LASF765
	.long	0x3e
	.uleb128 0x11
	.string	"_Tp"
	.long	0x56
	.uleb128 0xc
	.long	.LASF794
	.long	0x56
	.uleb128 0x1
	.long	0xa391
	.uleb128 0x1
	.long	0x3e
	.uleb128 0x1
	.long	0xa3aa
	.uleb128 0x1
	.long	0xa3be
	.byte	0
	.uleb128 0x92
	.long	.LASF799
	.byte	0x27
	.byte	0xcf
	.byte	0x5
	.long	0xa27e
	.long	0x71f5
	.uleb128 0x11
	.string	"_Tp"
	.long	0xa0fa
	.uleb128 0x1
	.long	0xa27e
	.byte	0
	.uleb128 0x8
	.long	.LASF800
	.byte	0x13
	.byte	0x92
	.byte	0xb
	.long	0x6b77
	.uleb128 0x44
	.long	.LASF801
	.byte	0xc
	.value	0x561
	.byte	0x5
	.long	0x71f5
	.long	0x7239
	.uleb128 0x11
	.string	"_Tp"
	.long	0xa0fa
	.uleb128 0x11
	.string	"_Up"
	.long	0xa0fa
	.uleb128 0x1
	.long	0xa27e
	.uleb128 0x1
	.long	0xa27e
	.uleb128 0x1
	.long	0xa27e
	.uleb128 0x1
	.long	0xa2b0
	.byte	0
	.uleb128 0x44
	.long	.LASF802
	.byte	0x3
	.value	0xbce
	.byte	0x5
	.long	0xa27e
	.long	0x7259
	.uleb128 0xc
	.long	.LASF443
	.long	0xa27e
	.uleb128 0x1
	.long	0xa27e
	.byte	0
	.uleb128 0x93
	.long	.LASF803
	.byte	0xb
	.byte	0xdb
	.byte	0x5
	.long	0x727a
	.uleb128 0xc
	.long	.LASF743
	.long	0xa27e
	.uleb128 0x1
	.long	0xa27e
	.uleb128 0x1
	.long	0xa27e
	.byte	0
	.uleb128 0x17
	.long	.LASF804
	.byte	0xa
	.value	0x49b
	.byte	0x5
	.long	.LASF805
	.long	0x9caa
	.long	0x72ba
	.uleb128 0x11
	.string	"_OI"
	.long	0x9caa
	.uleb128 0xc
	.long	.LASF765
	.long	0x3e
	.uleb128 0x11
	.string	"_Tp"
	.long	0x37
	.uleb128 0x1
	.long	0x9caa
	.uleb128 0x1
	.long	0x3e
	.uleb128 0x1
	.long	0x9cc8
	.byte	0
	.uleb128 0x17
	.long	.LASF806
	.byte	0xc
	.value	0x303
	.byte	0x5
	.long	.LASF807
	.long	0x9caa
	.long	0x7308
	.uleb128 0xc
	.long	.LASF743
	.long	0x9caa
	.uleb128 0xc
	.long	.LASF765
	.long	0x3e
	.uleb128 0x11
	.string	"_Tp"
	.long	0x37
	.uleb128 0xc
	.long	.LASF794
	.long	0x37
	.uleb128 0x1
	.long	0x9caa
	.uleb128 0x1
	.long	0x3e
	.uleb128 0x1
	.long	0x9cc8
	.uleb128 0x1
	.long	0x9cdc
	.byte	0
	.uleb128 0x40
	.long	.LASF808
	.byte	0xa
	.value	0x3e9
	.byte	0x5
	.long	.LASF809
	.long	0x733b
	.uleb128 0xc
	.long	.LASF743
	.long	0x81ad
	.uleb128 0x11
	.string	"_Tp"
	.long	0x37
	.uleb128 0x1
	.long	0x81ad
	.uleb128 0x1
	.long	0x81ad
	.uleb128 0x1
	.long	0x9cc8
	.byte	0
	.uleb128 0x49
	.long	.LASF810
	.byte	0xb
	.byte	0xdb
	.byte	0x5
	.long	.LASF811
	.long	0x735f
	.uleb128 0xc
	.long	.LASF743
	.long	0x9caa
	.uleb128 0x1
	.long	0x9caa
	.uleb128 0x1
	.long	0x9caa
	.byte	0
	.uleb128 0x35
	.long	.LASF812
	.byte	0xa
	.byte	0xe8
	.byte	0x5
	.long	.LASF813
	.long	0xaf1c
	.long	0x7387
	.uleb128 0x11
	.string	"_Tp"
	.long	0x3e
	.uleb128 0x1
	.long	0xaf1c
	.uleb128 0x1
	.long	0xaf1c
	.byte	0
	.uleb128 0x40
	.long	.LASF814
	.byte	0x8
	.value	0x43a
	.byte	0x5
	.long	.LASF815
	.long	0x73ba
	.uleb128 0xc
	.long	.LASF743
	.long	0xa49f
	.uleb128 0x11
	.string	"_Tp"
	.long	0x30
	.uleb128 0x1
	.long	0xa49f
	.uleb128 0x1
	.long	0xa49f
	.uleb128 0x1
	.long	0xa4d1
	.byte	0
	.uleb128 0x40
	.long	.LASF816
	.byte	0x8
	.value	0x43a
	.byte	0x5
	.long	.LASF817
	.long	0x73ed
	.uleb128 0xc
	.long	.LASF743
	.long	0xa391
	.uleb128 0x11
	.string	"_Tp"
	.long	0x56
	.uleb128 0x1
	.long	0xa391
	.uleb128 0x1
	.long	0xa391
	.uleb128 0x1
	.long	0xa3be
	.byte	0
	.uleb128 0x44
	.long	.LASF818
	.byte	0xc
	.value	0x57c
	.byte	0x5
	.long	0xa27e
	.long	0x742e
	.uleb128 0xc
	.long	.LASF819
	.long	0xa27e
	.uleb128 0xc
	.long	.LASF743
	.long	0xa27e
	.uleb128 0xc
	.long	.LASF820
	.long	0x32e9
	.uleb128 0x1
	.long	0xa27e
	.uleb128 0x1
	.long	0xa27e
	.uleb128 0x1
	.long	0xa27e
	.uleb128 0x1
	.long	0xa2b0
	.byte	0
	.uleb128 0x8a
	.long	.LASF821
	.value	0x43a
	.byte	0x5
	.long	0x745d
	.uleb128 0xc
	.long	.LASF743
	.long	0xa27e
	.uleb128 0x11
	.string	"_Tp"
	.long	0xa0fa
	.uleb128 0x1
	.long	0xa27e
	.uleb128 0x1
	.long	0xa27e
	.uleb128 0x1
	.long	0xa2b0
	.byte	0
	.uleb128 0x40
	.long	.LASF822
	.byte	0x8
	.value	0x43a
	.byte	0x5
	.long	.LASF823
	.long	0x7490
	.uleb128 0xc
	.long	.LASF743
	.long	0x9caa
	.uleb128 0x11
	.string	"_Tp"
	.long	0x37
	.uleb128 0x1
	.long	0x9caa
	.uleb128 0x1
	.long	0x9caa
	.uleb128 0x1
	.long	0x9cdc
	.byte	0
	.uleb128 0x35
	.long	.LASF824
	.byte	0xa
	.byte	0xe8
	.byte	0x5
	.long	.LASF825
	.long	0xa3aa
	.long	0x74b8
	.uleb128 0x11
	.string	"_Tp"
	.long	0x56
	.uleb128 0x1
	.long	0xa3aa
	.uleb128 0x1
	.long	0xa3aa
	.byte	0
	.uleb128 0x17
	.long	.LASF826
	.byte	0xa
	.value	0x100
	.byte	0x5
	.long	.LASF827
	.long	0xa3aa
	.long	0x74e1
	.uleb128 0x11
	.string	"_Tp"
	.long	0x56
	.uleb128 0x1
	.long	0xa3aa
	.uleb128 0x1
	.long	0xa3aa
	.byte	0
	.uleb128 0x17
	.long	.LASF828
	.byte	0x9
	.value	0x108
	.byte	0x3
	.long	.LASF829
	.long	0x30
	.long	0x74fc
	.uleb128 0x1
	.long	0x30
	.byte	0
	.uleb128 0x94
	.long	.LASF830
	.byte	0xa
	.value	0x3fd
	.byte	0x3
	.long	.LASF831
	.long	0x3e
	.uleb128 0x1
	.long	0x3e
	.byte	0
	.byte	0
	.uleb128 0x8
	.long	.LASF6
	.byte	0x28
	.byte	0xe5
	.byte	0x17
	.long	0x3e
	.uleb128 0x7
	.long	0x7515
	.uleb128 0x7
	.long	0x3e
	.uleb128 0xb2
	.long	.LASF1461
	.byte	0x18
	.byte	0x29
	.byte	0
	.long	0x7561
	.uleb128 0x6e
	.long	.LASF832
	.long	0x7561
	.byte	0
	.uleb128 0x6e
	.long	.LASF833
	.long	0x7561
	.byte	0x4
	.uleb128 0x6e
	.long	.LASF834
	.long	0x7568
	.byte	0x8
	.uleb128 0x6e
	.long	.LASF835
	.long	0x7568
	.byte	0x10
	.byte	0
	.uleb128 0x2b
	.byte	0x4
	.byte	0x7
	.long	.LASF836
	.uleb128 0xb3
	.byte	0x8
	.uleb128 0x8
	.long	.LASF837
	.byte	0x2a
	.byte	0x14
	.byte	0x17
	.long	0x7561
	.uleb128 0x6f
	.byte	0x8
	.byte	0x2b
	.byte	0xe
	.byte	0x1
	.long	.LASF1142
	.long	0x75c2
	.uleb128 0xb4
	.byte	0x4
	.byte	0x2b
	.byte	0x11
	.byte	0x3
	.long	0x75a7
	.uleb128 0x95
	.long	.LASF838
	.byte	0x12
	.byte	0x13
	.long	0x7561
	.uleb128 0x95
	.long	.LASF839
	.byte	0x13
	.byte	0xa
	.long	0x75c2
	.byte	0
	.uleb128 0xf
	.long	.LASF840
	.byte	0x2b
	.byte	0xf
	.byte	0x7
	.long	0x56
	.byte	0
	.uleb128 0xf
	.long	.LASF841
	.byte	0x2b
	.byte	0x14
	.byte	0x5
	.long	0x7584
	.byte	0x4
	.byte	0
	.uleb128 0x7a
	.long	0x4a
	.long	0x75d2
	.uleb128 0x7b
	.long	0x3e
	.byte	0x3
	.byte	0
	.uleb128 0x8
	.long	.LASF842
	.byte	0x2b
	.byte	0x15
	.byte	0x3
	.long	0x7577
	.uleb128 0x8
	.long	.LASF843
	.byte	0x2c
	.byte	0x6
	.byte	0x15
	.long	0x75d2
	.uleb128 0x7
	.long	0x75de
	.uleb128 0x8
	.long	.LASF844
	.byte	0x2d
	.byte	0x5
	.byte	0x19
	.long	0x75fb
	.uleb128 0x1b
	.long	.LASF845
	.byte	0xd8
	.byte	0x2e
	.byte	0x32
	.byte	0x8
	.long	0x7792
	.uleb128 0xf
	.long	.LASF846
	.byte	0x2e
	.byte	0x34
	.byte	0x7
	.long	0x56
	.byte	0
	.uleb128 0xf
	.long	.LASF847
	.byte	0x2e
	.byte	0x37
	.byte	0x9
	.long	0x45
	.byte	0x8
	.uleb128 0xf
	.long	.LASF848
	.byte	0x2e
	.byte	0x38
	.byte	0x9
	.long	0x45
	.byte	0x10
	.uleb128 0xf
	.long	.LASF849
	.byte	0x2e
	.byte	0x39
	.byte	0x9
	.long	0x45
	.byte	0x18
	.uleb128 0xf
	.long	.LASF850
	.byte	0x2e
	.byte	0x3a
	.byte	0x9
	.long	0x45
	.byte	0x20
	.uleb128 0xf
	.long	.LASF851
	.byte	0x2e
	.byte	0x3b
	.byte	0x9
	.long	0x45
	.byte	0x28
	.uleb128 0xf
	.long	.LASF852
	.byte	0x2e
	.byte	0x3c
	.byte	0x9
	.long	0x45
	.byte	0x30
	.uleb128 0xf
	.long	.LASF853
	.byte	0x2e
	.byte	0x3d
	.byte	0x9
	.long	0x45
	.byte	0x38
	.uleb128 0xf
	.long	.LASF854
	.byte	0x2e
	.byte	0x3e
	.byte	0x9
	.long	0x45
	.byte	0x40
	.uleb128 0xf
	.long	.LASF855
	.byte	0x2e
	.byte	0x41
	.byte	0x9
	.long	0x45
	.byte	0x48
	.uleb128 0xf
	.long	.LASF856
	.byte	0x2e
	.byte	0x42
	.byte	0x9
	.long	0x45
	.byte	0x50
	.uleb128 0xf
	.long	.LASF857
	.byte	0x2e
	.byte	0x43
	.byte	0x9
	.long	0x45
	.byte	0x58
	.uleb128 0xf
	.long	.LASF858
	.byte	0x2e
	.byte	0x45
	.byte	0x16
	.long	0x971c
	.byte	0x60
	.uleb128 0xf
	.long	.LASF859
	.byte	0x2e
	.byte	0x47
	.byte	0x14
	.long	0x9721
	.byte	0x68
	.uleb128 0xf
	.long	.LASF860
	.byte	0x2e
	.byte	0x49
	.byte	0x7
	.long	0x56
	.byte	0x70
	.uleb128 0xb5
	.long	.LASF977
	.byte	0x2e
	.byte	0x4a
	.byte	0x7
	.long	0x56
	.byte	0x18
	.value	0x3a0
	.uleb128 0xf
	.long	.LASF861
	.byte	0x2e
	.byte	0x4c
	.byte	0x8
	.long	0x9726
	.byte	0x77
	.uleb128 0xf
	.long	.LASF862
	.byte	0x2e
	.byte	0x4d
	.byte	0xb
	.long	0x9238
	.byte	0x78
	.uleb128 0xf
	.long	.LASF863
	.byte	0x2e
	.byte	0x50
	.byte	0x12
	.long	0x779e
	.byte	0x80
	.uleb128 0xf
	.long	.LASF864
	.byte	0x2e
	.byte	0x51
	.byte	0xf
	.long	0x8f9c
	.byte	0x82
	.uleb128 0xf
	.long	.LASF865
	.byte	0x2e
	.byte	0x52
	.byte	0x8
	.long	0x9726
	.byte	0x83
	.uleb128 0xf
	.long	.LASF866
	.byte	0x2e
	.byte	0x54
	.byte	0xf
	.long	0x9736
	.byte	0x88
	.uleb128 0xf
	.long	.LASF867
	.byte	0x2e
	.byte	0x5c
	.byte	0xd
	.long	0x9244
	.byte	0x90
	.uleb128 0xf
	.long	.LASF868
	.byte	0x2e
	.byte	0x5e
	.byte	0x17
	.long	0x9740
	.byte	0x98
	.uleb128 0xf
	.long	.LASF869
	.byte	0x2e
	.byte	0x5f
	.byte	0x19
	.long	0x974a
	.byte	0xa0
	.uleb128 0xf
	.long	.LASF870
	.byte	0x2e
	.byte	0x60
	.byte	0x14
	.long	0x9721
	.byte	0xa8
	.uleb128 0xf
	.long	.LASF871
	.byte	0x2e
	.byte	0x61
	.byte	0x9
	.long	0x7568
	.byte	0xb0
	.uleb128 0xf
	.long	.LASF872
	.byte	0x2e
	.byte	0x62
	.byte	0x15
	.long	0x974f
	.byte	0xb8
	.uleb128 0xf
	.long	.LASF873
	.byte	0x2e
	.byte	0x63
	.byte	0x7
	.long	0x56
	.byte	0xc0
	.uleb128 0xf
	.long	.LASF874
	.byte	0x2e
	.byte	0x65
	.byte	0x8
	.long	0x9754
	.byte	0xc4
	.byte	0
	.uleb128 0x8
	.long	.LASF875
	.byte	0x2f
	.byte	0x7
	.byte	0x19
	.long	0x75fb
	.uleb128 0x2b
	.byte	0x2
	.byte	0x7
	.long	.LASF876
	.uleb128 0xd
	.long	0x5e
	.uleb128 0xd
	.long	0x51
	.uleb128 0x16
	.long	.LASF877
	.byte	0x30
	.value	0x157
	.byte	0x1
	.long	0x756b
	.long	0x77c6
	.uleb128 0x1
	.long	0x56
	.byte	0
	.uleb128 0x16
	.long	.LASF878
	.byte	0x30
	.value	0x3a7
	.byte	0xf
	.long	0x756b
	.long	0x77dd
	.uleb128 0x1
	.long	0x77dd
	.byte	0
	.uleb128 0xd
	.long	0x75ef
	.uleb128 0x16
	.long	.LASF879
	.byte	0x30
	.value	0x3c4
	.byte	0x11
	.long	0x7803
	.long	0x7803
	.uleb128 0x1
	.long	0x7803
	.uleb128 0x1
	.long	0x56
	.uleb128 0x1
	.long	0x77dd
	.byte	0
	.uleb128 0xd
	.long	0x7808
	.uleb128 0x2b
	.byte	0x4
	.byte	0x5
	.long	.LASF880
	.uleb128 0x7
	.long	0x7808
	.uleb128 0x16
	.long	.LASF881
	.byte	0x30
	.value	0x3b5
	.byte	0xf
	.long	0x756b
	.long	0x7830
	.uleb128 0x1
	.long	0x7808
	.uleb128 0x1
	.long	0x77dd
	.byte	0
	.uleb128 0x16
	.long	.LASF882
	.byte	0x30
	.value	0x3cb
	.byte	0xc
	.long	0x56
	.long	0x784c
	.uleb128 0x1
	.long	0x784c
	.uleb128 0x1
	.long	0x77dd
	.byte	0
	.uleb128 0xd
	.long	0x780f
	.uleb128 0x16
	.long	.LASF883
	.byte	0x30
	.value	0x2d5
	.byte	0xc
	.long	0x56
	.long	0x786d
	.uleb128 0x1
	.long	0x77dd
	.uleb128 0x1
	.long	0x56
	.byte	0
	.uleb128 0x16
	.long	.LASF884
	.byte	0x30
	.value	0x2dc
	.byte	0xc
	.long	0x56
	.long	0x788a
	.uleb128 0x1
	.long	0x77dd
	.uleb128 0x1
	.long	0x784c
	.uleb128 0x60
	.byte	0
	.uleb128 0x17
	.long	.LASF885
	.byte	0x30
	.value	0x31b
	.byte	0xc
	.long	.LASF886
	.long	0x56
	.long	0x78ab
	.uleb128 0x1
	.long	0x77dd
	.uleb128 0x1
	.long	0x784c
	.uleb128 0x60
	.byte	0
	.uleb128 0x16
	.long	.LASF887
	.byte	0x30
	.value	0x3a8
	.byte	0xf
	.long	0x756b
	.long	0x78c2
	.uleb128 0x1
	.long	0x77dd
	.byte	0
	.uleb128 0x96
	.long	.LASF1116
	.byte	0x30
	.value	0x3ae
	.byte	0xf
	.long	0x756b
	.uleb128 0x16
	.long	.LASF888
	.byte	0x30
	.value	0x162
	.byte	0x1
	.long	0x7515
	.long	0x78f1
	.uleb128 0x1
	.long	0x77aa
	.uleb128 0x1
	.long	0x7515
	.uleb128 0x1
	.long	0x78f1
	.byte	0
	.uleb128 0xd
	.long	0x75de
	.uleb128 0x16
	.long	.LASF889
	.byte	0x30
	.value	0x141
	.byte	0xf
	.long	0x7515
	.long	0x791c
	.uleb128 0x1
	.long	0x7803
	.uleb128 0x1
	.long	0x77aa
	.uleb128 0x1
	.long	0x7515
	.uleb128 0x1
	.long	0x78f1
	.byte	0
	.uleb128 0x16
	.long	.LASF890
	.byte	0x30
	.value	0x13d
	.byte	0xc
	.long	0x56
	.long	0x7933
	.uleb128 0x1
	.long	0x7933
	.byte	0
	.uleb128 0xd
	.long	0x75ea
	.uleb128 0x16
	.long	.LASF891
	.byte	0x30
	.value	0x16a
	.byte	0xf
	.long	0x7515
	.long	0x795e
	.uleb128 0x1
	.long	0x7803
	.uleb128 0x1
	.long	0x795e
	.uleb128 0x1
	.long	0x7515
	.uleb128 0x1
	.long	0x78f1
	.byte	0
	.uleb128 0xd
	.long	0x77aa
	.uleb128 0x16
	.long	.LASF892
	.byte	0x30
	.value	0x3b6
	.byte	0xf
	.long	0x756b
	.long	0x797f
	.uleb128 0x1
	.long	0x7808
	.uleb128 0x1
	.long	0x77dd
	.byte	0
	.uleb128 0x16
	.long	.LASF893
	.byte	0x30
	.value	0x3bc
	.byte	0xf
	.long	0x756b
	.long	0x7996
	.uleb128 0x1
	.long	0x7808
	.byte	0
	.uleb128 0x16
	.long	.LASF894
	.byte	0x30
	.value	0x2e6
	.byte	0xc
	.long	0x56
	.long	0x79b8
	.uleb128 0x1
	.long	0x7803
	.uleb128 0x1
	.long	0x7515
	.uleb128 0x1
	.long	0x784c
	.uleb128 0x60
	.byte	0
	.uleb128 0x17
	.long	.LASF895
	.byte	0x30
	.value	0x322
	.byte	0xc
	.long	.LASF896
	.long	0x56
	.long	0x79d9
	.uleb128 0x1
	.long	0x784c
	.uleb128 0x1
	.long	0x784c
	.uleb128 0x60
	.byte	0
	.uleb128 0x16
	.long	.LASF897
	.byte	0x30
	.value	0x3d3
	.byte	0xf
	.long	0x756b
	.long	0x79f5
	.uleb128 0x1
	.long	0x756b
	.uleb128 0x1
	.long	0x77dd
	.byte	0
	.uleb128 0x16
	.long	.LASF898
	.byte	0x30
	.value	0x2ee
	.byte	0xc
	.long	0x56
	.long	0x7a16
	.uleb128 0x1
	.long	0x77dd
	.uleb128 0x1
	.long	0x784c
	.uleb128 0x1
	.long	0x7a16
	.byte	0
	.uleb128 0xd
	.long	0x752b
	.uleb128 0x17
	.long	.LASF899
	.byte	0x30
	.value	0x36b
	.byte	0xc
	.long	.LASF900
	.long	0x56
	.long	0x7a40
	.uleb128 0x1
	.long	0x77dd
	.uleb128 0x1
	.long	0x784c
	.uleb128 0x1
	.long	0x7a16
	.byte	0
	.uleb128 0x16
	.long	.LASF901
	.byte	0x30
	.value	0x2fb
	.byte	0xc
	.long	0x56
	.long	0x7a66
	.uleb128 0x1
	.long	0x7803
	.uleb128 0x1
	.long	0x7515
	.uleb128 0x1
	.long	0x784c
	.uleb128 0x1
	.long	0x7a16
	.byte	0
	.uleb128 0x17
	.long	.LASF902
	.byte	0x30
	.value	0x372
	.byte	0xc
	.long	.LASF903
	.long	0x56
	.long	0x7a8b
	.uleb128 0x1
	.long	0x784c
	.uleb128 0x1
	.long	0x784c
	.uleb128 0x1
	.long	0x7a16
	.byte	0
	.uleb128 0x16
	.long	.LASF904
	.byte	0x30
	.value	0x2f6
	.byte	0xc
	.long	0x56
	.long	0x7aa7
	.uleb128 0x1
	.long	0x784c
	.uleb128 0x1
	.long	0x7a16
	.byte	0
	.uleb128 0x17
	.long	.LASF905
	.byte	0x30
	.value	0x36f
	.byte	0xc
	.long	.LASF906
	.long	0x56
	.long	0x7ac7
	.uleb128 0x1
	.long	0x784c
	.uleb128 0x1
	.long	0x7a16
	.byte	0
	.uleb128 0x16
	.long	.LASF907
	.byte	0x30
	.value	0x146
	.byte	0xf
	.long	0x7515
	.long	0x7ae8
	.uleb128 0x1
	.long	0x45
	.uleb128 0x1
	.long	0x7808
	.uleb128 0x1
	.long	0x78f1
	.byte	0
	.uleb128 0x25
	.long	.LASF908
	.byte	0x30
	.byte	0x79
	.byte	0x11
	.long	0x7803
	.long	0x7b03
	.uleb128 0x1
	.long	0x7803
	.uleb128 0x1
	.long	0x784c
	.byte	0
	.uleb128 0x25
	.long	.LASF909
	.byte	0x30
	.byte	0x82
	.byte	0xc
	.long	0x56
	.long	0x7b1e
	.uleb128 0x1
	.long	0x784c
	.uleb128 0x1
	.long	0x784c
	.byte	0
	.uleb128 0x25
	.long	.LASF910
	.byte	0x30
	.byte	0x9b
	.byte	0xc
	.long	0x56
	.long	0x7b39
	.uleb128 0x1
	.long	0x784c
	.uleb128 0x1
	.long	0x784c
	.byte	0
	.uleb128 0x25
	.long	.LASF911
	.byte	0x30
	.byte	0x62
	.byte	0x11
	.long	0x7803
	.long	0x7b54
	.uleb128 0x1
	.long	0x7803
	.uleb128 0x1
	.long	0x784c
	.byte	0
	.uleb128 0x25
	.long	.LASF912
	.byte	0x30
	.byte	0xd4
	.byte	0xf
	.long	0x7515
	.long	0x7b6f
	.uleb128 0x1
	.long	0x784c
	.uleb128 0x1
	.long	0x784c
	.byte	0
	.uleb128 0x16
	.long	.LASF913
	.byte	0x30
	.value	0x413
	.byte	0xf
	.long	0x7515
	.long	0x7b95
	.uleb128 0x1
	.long	0x7803
	.uleb128 0x1
	.long	0x7515
	.uleb128 0x1
	.long	0x784c
	.uleb128 0x1
	.long	0x7b95
	.byte	0
	.uleb128 0xd
	.long	0x7c37
	.uleb128 0xb6
	.string	"tm"
	.byte	0x38
	.byte	0x31
	.byte	0x7
	.byte	0x8
	.long	0x7c37
	.uleb128 0xf
	.long	.LASF914
	.byte	0x31
	.byte	0x9
	.byte	0x7
	.long	0x56
	.byte	0
	.uleb128 0xf
	.long	.LASF915
	.byte	0x31
	.byte	0xa
	.byte	0x7
	.long	0x56
	.byte	0x4
	.uleb128 0xf
	.long	.LASF916
	.byte	0x31
	.byte	0xb
	.byte	0x7
	.long	0x56
	.byte	0x8
	.uleb128 0xf
	.long	.LASF917
	.byte	0x31
	.byte	0xc
	.byte	0x7
	.long	0x56
	.byte	0xc
	.uleb128 0xf
	.long	.LASF918
	.byte	0x31
	.byte	0xd
	.byte	0x7
	.long	0x56
	.byte	0x10
	.uleb128 0xf
	.long	.LASF919
	.byte	0x31
	.byte	0xe
	.byte	0x7
	.long	0x56
	.byte	0x14
	.uleb128 0xf
	.long	.LASF920
	.byte	0x31
	.byte	0xf
	.byte	0x7
	.long	0x56
	.byte	0x18
	.uleb128 0xf
	.long	.LASF921
	.byte	0x31
	.byte	0x10
	.byte	0x7
	.long	0x56
	.byte	0x1c
	.uleb128 0xf
	.long	.LASF922
	.byte	0x31
	.byte	0x11
	.byte	0x7
	.long	0x56
	.byte	0x20
	.uleb128 0xf
	.long	.LASF923
	.byte	0x31
	.byte	0x14
	.byte	0xc
	.long	0x7d86
	.byte	0x28
	.uleb128 0xf
	.long	.LASF924
	.byte	0x31
	.byte	0x15
	.byte	0xf
	.long	0x77aa
	.byte	0x30
	.byte	0
	.uleb128 0x7
	.long	0x7b9a
	.uleb128 0x25
	.long	.LASF925
	.byte	0x30
	.byte	0xf7
	.byte	0xf
	.long	0x7515
	.long	0x7c52
	.uleb128 0x1
	.long	0x784c
	.byte	0
	.uleb128 0x25
	.long	.LASF926
	.byte	0x30
	.byte	0x7d
	.byte	0x11
	.long	0x7803
	.long	0x7c72
	.uleb128 0x1
	.long	0x7803
	.uleb128 0x1
	.long	0x784c
	.uleb128 0x1
	.long	0x7515
	.byte	0
	.uleb128 0x25
	.long	.LASF927
	.byte	0x30
	.byte	0x85
	.byte	0xc
	.long	0x56
	.long	0x7c92
	.uleb128 0x1
	.long	0x784c
	.uleb128 0x1
	.long	0x784c
	.uleb128 0x1
	.long	0x7515
	.byte	0
	.uleb128 0x25
	.long	.LASF928
	.byte	0x30
	.byte	0x67
	.byte	0x11
	.long	0x7803
	.long	0x7cb2
	.uleb128 0x1
	.long	0x7803
	.uleb128 0x1
	.long	0x784c
	.uleb128 0x1
	.long	0x7515
	.byte	0
	.uleb128 0x16
	.long	.LASF929
	.byte	0x30
	.value	0x170
	.byte	0xf
	.long	0x7515
	.long	0x7cd8
	.uleb128 0x1
	.long	0x45
	.uleb128 0x1
	.long	0x7cd8
	.uleb128 0x1
	.long	0x7515
	.uleb128 0x1
	.long	0x78f1
	.byte	0
	.uleb128 0xd
	.long	0x784c
	.uleb128 0x25
	.long	.LASF930
	.byte	0x30
	.byte	0xd8
	.byte	0xf
	.long	0x7515
	.long	0x7cf8
	.uleb128 0x1
	.long	0x784c
	.uleb128 0x1
	.long	0x784c
	.byte	0
	.uleb128 0x16
	.long	.LASF931
	.byte	0x30
	.value	0x192
	.byte	0xf
	.long	0x7d14
	.long	0x7d14
	.uleb128 0x1
	.long	0x784c
	.uleb128 0x1
	.long	0x7d1b
	.byte	0
	.uleb128 0x2b
	.byte	0x8
	.byte	0x4
	.long	.LASF932
	.uleb128 0xd
	.long	0x7803
	.uleb128 0x16
	.long	.LASF933
	.byte	0x30
	.value	0x197
	.byte	0xe
	.long	0x30
	.long	0x7d3c
	.uleb128 0x1
	.long	0x784c
	.uleb128 0x1
	.long	0x7d1b
	.byte	0
	.uleb128 0x7
	.long	0x30
	.uleb128 0x25
	.long	.LASF934
	.byte	0x30
	.byte	0xf2
	.byte	0x11
	.long	0x7803
	.long	0x7d61
	.uleb128 0x1
	.long	0x7803
	.uleb128 0x1
	.long	0x784c
	.uleb128 0x1
	.long	0x7d1b
	.byte	0
	.uleb128 0x17
	.long	.LASF935
	.byte	0x30
	.value	0x1f4
	.byte	0x11
	.long	.LASF936
	.long	0x7d86
	.long	0x7d86
	.uleb128 0x1
	.long	0x784c
	.uleb128 0x1
	.long	0x7d1b
	.uleb128 0x1
	.long	0x56
	.byte	0
	.uleb128 0x2b
	.byte	0x8
	.byte	0x5
	.long	.LASF937
	.uleb128 0x17
	.long	.LASF938
	.byte	0x30
	.value	0x1f7
	.byte	0x1a
	.long	.LASF939
	.long	0x3e
	.long	0x7db2
	.uleb128 0x1
	.long	0x784c
	.uleb128 0x1
	.long	0x7d1b
	.uleb128 0x1
	.long	0x56
	.byte	0
	.uleb128 0x25
	.long	.LASF940
	.byte	0x30
	.byte	0x9f
	.byte	0xf
	.long	0x7515
	.long	0x7dd2
	.uleb128 0x1
	.long	0x7803
	.uleb128 0x1
	.long	0x784c
	.uleb128 0x1
	.long	0x7515
	.byte	0
	.uleb128 0x16
	.long	.LASF941
	.byte	0x30
	.value	0x15d
	.byte	0x1
	.long	0x56
	.long	0x7de9
	.uleb128 0x1
	.long	0x756b
	.byte	0
	.uleb128 0x16
	.long	.LASF942
	.byte	0x30
	.value	0x11b
	.byte	0xc
	.long	0x56
	.long	0x7e0a
	.uleb128 0x1
	.long	0x784c
	.uleb128 0x1
	.long	0x784c
	.uleb128 0x1
	.long	0x7515
	.byte	0
	.uleb128 0x16
	.long	.LASF943
	.byte	0x30
	.value	0x11f
	.byte	0x11
	.long	0x7803
	.long	0x7e2b
	.uleb128 0x1
	.long	0x7803
	.uleb128 0x1
	.long	0x784c
	.uleb128 0x1
	.long	0x7515
	.byte	0
	.uleb128 0x16
	.long	.LASF944
	.byte	0x30
	.value	0x124
	.byte	0x11
	.long	0x7803
	.long	0x7e4c
	.uleb128 0x1
	.long	0x7803
	.uleb128 0x1
	.long	0x784c
	.uleb128 0x1
	.long	0x7515
	.byte	0
	.uleb128 0x16
	.long	.LASF945
	.byte	0x30
	.value	0x128
	.byte	0x11
	.long	0x7803
	.long	0x7e6d
	.uleb128 0x1
	.long	0x7803
	.uleb128 0x1
	.long	0x7808
	.uleb128 0x1
	.long	0x7515
	.byte	0
	.uleb128 0x16
	.long	.LASF946
	.byte	0x30
	.value	0x2e3
	.byte	0xc
	.long	0x56
	.long	0x7e85
	.uleb128 0x1
	.long	0x784c
	.uleb128 0x60
	.byte	0
	.uleb128 0x17
	.long	.LASF947
	.byte	0x30
	.value	0x31f
	.byte	0xc
	.long	.LASF948
	.long	0x56
	.long	0x7ea1
	.uleb128 0x1
	.long	0x784c
	.uleb128 0x60
	.byte	0
	.uleb128 0x35
	.long	.LASF949
	.byte	0x30
	.byte	0xba
	.byte	0x1d
	.long	.LASF949
	.long	0x784c
	.long	0x7ec0
	.uleb128 0x1
	.long	0x784c
	.uleb128 0x1
	.long	0x7808
	.byte	0
	.uleb128 0x35
	.long	.LASF949
	.byte	0x30
	.byte	0xb8
	.byte	0x17
	.long	.LASF949
	.long	0x7803
	.long	0x7edf
	.uleb128 0x1
	.long	0x7803
	.uleb128 0x1
	.long	0x7808
	.byte	0
	.uleb128 0x35
	.long	.LASF950
	.byte	0x30
	.byte	0xde
	.byte	0x1d
	.long	.LASF950
	.long	0x784c
	.long	0x7efe
	.uleb128 0x1
	.long	0x784c
	.uleb128 0x1
	.long	0x784c
	.byte	0
	.uleb128 0x35
	.long	.LASF950
	.byte	0x30
	.byte	0xdc
	.byte	0x17
	.long	.LASF950
	.long	0x7803
	.long	0x7f1d
	.uleb128 0x1
	.long	0x7803
	.uleb128 0x1
	.long	0x784c
	.byte	0
	.uleb128 0x35
	.long	.LASF951
	.byte	0x30
	.byte	0xc4
	.byte	0x1d
	.long	.LASF951
	.long	0x784c
	.long	0x7f3c
	.uleb128 0x1
	.long	0x784c
	.uleb128 0x1
	.long	0x7808
	.byte	0
	.uleb128 0x35
	.long	.LASF951
	.byte	0x30
	.byte	0xc2
	.byte	0x17
	.long	.LASF951
	.long	0x7803
	.long	0x7f5b
	.uleb128 0x1
	.long	0x7803
	.uleb128 0x1
	.long	0x7808
	.byte	0
	.uleb128 0x35
	.long	.LASF952
	.byte	0x30
	.byte	0xe9
	.byte	0x1d
	.long	.LASF952
	.long	0x784c
	.long	0x7f7a
	.uleb128 0x1
	.long	0x784c
	.uleb128 0x1
	.long	0x784c
	.byte	0
	.uleb128 0x35
	.long	.LASF952
	.byte	0x30
	.byte	0xe7
	.byte	0x17
	.long	.LASF952
	.long	0x7803
	.long	0x7f99
	.uleb128 0x1
	.long	0x7803
	.uleb128 0x1
	.long	0x784c
	.byte	0
	.uleb128 0x17
	.long	.LASF953
	.byte	0x30
	.value	0x112
	.byte	0x1d
	.long	.LASF953
	.long	0x784c
	.long	0x7fbe
	.uleb128 0x1
	.long	0x784c
	.uleb128 0x1
	.long	0x7808
	.uleb128 0x1
	.long	0x7515
	.byte	0
	.uleb128 0x17
	.long	.LASF953
	.byte	0x30
	.value	0x110
	.byte	0x17
	.long	.LASF953
	.long	0x7803
	.long	0x7fe3
	.uleb128 0x1
	.long	0x7803
	.uleb128 0x1
	.long	0x7808
	.uleb128 0x1
	.long	0x7515
	.byte	0
	.uleb128 0x97
	.long	.LASF954
	.byte	0x12
	.value	0x17b
	.long	0x8ebb
	.uleb128 0x5
	.byte	0x11
	.byte	0xfd
	.byte	0xb
	.long	0x8ebb
	.uleb128 0x19
	.byte	0x11
	.value	0x106
	.byte	0xb
	.long	0x8ede
	.uleb128 0x19
	.byte	0x11
	.value	0x107
	.byte	0xb
	.long	0x8f0a
	.uleb128 0x5
	.byte	0x18
	.byte	0xd2
	.byte	0xb
	.long	0x931b
	.uleb128 0x5
	.byte	0x18
	.byte	0xe4
	.byte	0xb
	.long	0x9629
	.uleb128 0x5
	.byte	0x18
	.byte	0xf0
	.byte	0xb
	.long	0x9645
	.uleb128 0x5
	.byte	0x18
	.byte	0xf1
	.byte	0xb
	.long	0x965c
	.uleb128 0x5
	.byte	0x18
	.byte	0xf2
	.byte	0xb
	.long	0x9680
	.uleb128 0x5
	.byte	0x18
	.byte	0xf4
	.byte	0xb
	.long	0x96a4
	.uleb128 0x5
	.byte	0x18
	.byte	0xf5
	.byte	0xb
	.long	0x96bf
	.uleb128 0x4c
	.string	"div"
	.byte	0x18
	.byte	0xe1
	.long	.LASF955
	.long	0x931b
	.long	0x8060
	.uleb128 0x1
	.long	0x8f03
	.uleb128 0x1
	.long	0x8f03
	.byte	0
	.uleb128 0xb7
	.long	.LASF1462
	.byte	0x7
	.byte	0x4
	.long	0x7561
	.byte	0x4c
	.byte	0x36
	.byte	0x8
	.long	0x8086
	.uleb128 0x7c
	.long	.LASF956
	.byte	0
	.uleb128 0x7c
	.long	.LASF957
	.byte	0x1
	.uleb128 0x7c
	.long	.LASF958
	.byte	0x2
	.byte	0
	.uleb128 0x7
	.long	0x8060
	.uleb128 0xb8
	.long	.LASF1463
	.byte	0x4c
	.byte	0x3a
	.byte	0x28
	.long	.LASF1464
	.long	0x8086
	.byte	0x2
	.byte	0x3
	.uleb128 0x1b
	.long	.LASF959
	.byte	0x1
	.byte	0x32
	.byte	0x2f
	.byte	0xa
	.long	0x81ad
	.uleb128 0x5
	.byte	0x32
	.byte	0x2f
	.byte	0xa
	.long	0xd47
	.uleb128 0x5
	.byte	0x32
	.byte	0x2f
	.byte	0xa
	.long	0xd08
	.uleb128 0x5
	.byte	0x32
	.byte	0x2f
	.byte	0xa
	.long	0xd79
	.uleb128 0x5
	.byte	0x32
	.byte	0x2f
	.byte	0xa
	.long	0xd9a
	.uleb128 0x36
	.long	0xced
	.uleb128 0x35
	.long	.LASF960
	.byte	0x32
	.byte	0x63
	.byte	0x1d
	.long	.LASF961
	.long	0xc64
	.long	0x80ea
	.uleb128 0x1
	.long	0x9cd7
	.byte	0
	.uleb128 0x49
	.long	.LASF962
	.byte	0x32
	.byte	0x67
	.byte	0x26
	.long	.LASF963
	.long	0x8105
	.uleb128 0x1
	.long	0x9cdc
	.uleb128 0x1
	.long	0x9cdc
	.byte	0
	.uleb128 0x34
	.long	.LASF964
	.byte	0x6b
	.long	.LASF965
	.long	0x8f7a
	.uleb128 0x34
	.long	.LASF966
	.byte	0x6f
	.long	.LASF967
	.long	0x8f7a
	.uleb128 0x34
	.long	.LASF968
	.byte	0x73
	.long	.LASF969
	.long	0x8f7a
	.uleb128 0x34
	.long	.LASF970
	.byte	0x77
	.long	.LASF971
	.long	0x8f7a
	.uleb128 0x34
	.long	.LASF972
	.byte	0x7b
	.long	.LASF973
	.long	0x8f7a
	.uleb128 0x8
	.long	.LASF7
	.byte	0x32
	.byte	0x37
	.byte	0x35
	.long	0xdd0
	.uleb128 0x7
	.long	0x814b
	.uleb128 0x8
	.long	.LASF70
	.byte	0x32
	.byte	0x38
	.byte	0x35
	.long	0xcfb
	.uleb128 0x8
	.long	.LASF71
	.byte	0x32
	.byte	0x3d
	.byte	0x35
	.long	0x9ceb
	.uleb128 0x8
	.long	.LASF74
	.byte	0x32
	.byte	0x3e
	.byte	0x35
	.long	0x9cf0
	.uleb128 0x1b
	.long	.LASF974
	.byte	0x1
	.byte	0x32
	.byte	0x7f
	.byte	0xe
	.long	0x81a3
	.uleb128 0x8
	.long	.LASF975
	.byte	0x32
	.byte	0x80
	.byte	0x41
	.long	0xddd
	.uleb128 0x11
	.string	"_Tp"
	.long	0x37
	.byte	0
	.uleb128 0xc
	.long	.LASF141
	.long	0xc64
	.byte	0
	.uleb128 0x4b
	.long	.LASF976
	.byte	0x8
	.byte	0x3
	.value	0x402
	.long	0x83db
	.uleb128 0x70
	.long	.LASF978
	.long	0x9caa
	.uleb128 0x10
	.long	.LASF979
	.byte	0x3
	.value	0x41d
	.byte	0x7
	.long	.LASF980
	.byte	0x1
	.long	0x81d9
	.long	0x81df
	.uleb128 0x2
	.long	0xa599
	.byte	0
	.uleb128 0x43
	.long	.LASF979
	.byte	0x3
	.value	0x422
	.long	.LASF981
	.long	0x81f3
	.long	0x81fe
	.uleb128 0x2
	.long	0xa599
	.uleb128 0x1
	.long	0xa5a3
	.byte	0
	.uleb128 0x14
	.long	.LASF71
	.byte	0x3
	.value	0x414
	.byte	0x32
	.long	0x6bed
	.uleb128 0x6
	.long	.LASF982
	.byte	0x3
	.value	0x441
	.byte	0x7
	.long	.LASF983
	.long	0x81fe
	.byte	0x1
	.long	0x8225
	.long	0x822b
	.uleb128 0x2
	.long	0xa5a8
	.byte	0
	.uleb128 0x14
	.long	.LASF70
	.byte	0x3
	.value	0x415
	.byte	0x32
	.long	0x6be1
	.uleb128 0x6
	.long	.LASF984
	.byte	0x3
	.value	0x447
	.byte	0x7
	.long	.LASF985
	.long	0x822b
	.byte	0x1
	.long	0x8252
	.long	0x8258
	.uleb128 0x2
	.long	0xa5a8
	.byte	0
	.uleb128 0x6
	.long	.LASF986
	.byte	0x3
	.value	0x44d
	.byte	0x7
	.long	.LASF987
	.long	0xa5b2
	.byte	0x1
	.long	0x8272
	.long	0x8278
	.uleb128 0x2
	.long	0xa599
	.byte	0
	.uleb128 0x6
	.long	.LASF986
	.byte	0x3
	.value	0x456
	.byte	0x7
	.long	.LASF988
	.long	0x81ad
	.byte	0x1
	.long	0x8292
	.long	0x829d
	.uleb128 0x2
	.long	0xa599
	.uleb128 0x1
	.long	0x56
	.byte	0
	.uleb128 0x6
	.long	.LASF989
	.byte	0x3
	.value	0x45e
	.byte	0x7
	.long	.LASF990
	.long	0xa5b2
	.byte	0x1
	.long	0x82b7
	.long	0x82bd
	.uleb128 0x2
	.long	0xa599
	.byte	0
	.uleb128 0x6
	.long	.LASF989
	.byte	0x3
	.value	0x467
	.byte	0x7
	.long	.LASF991
	.long	0x81ad
	.byte	0x1
	.long	0x82d7
	.long	0x82e2
	.uleb128 0x2
	.long	0xa599
	.uleb128 0x1
	.long	0x56
	.byte	0
	.uleb128 0x6
	.long	.LASF208
	.byte	0x3
	.value	0x46f
	.byte	0x7
	.long	.LASF992
	.long	0x81fe
	.byte	0x1
	.long	0x82fc
	.long	0x8307
	.uleb128 0x2
	.long	0xa5a8
	.uleb128 0x1
	.long	0x8307
	.byte	0
	.uleb128 0x14
	.long	.LASF442
	.byte	0x3
	.value	0x413
	.byte	0x38
	.long	0x6bd5
	.uleb128 0x6
	.long	.LASF993
	.byte	0x3
	.value	0x475
	.byte	0x7
	.long	.LASF994
	.long	0xa5b2
	.byte	0x1
	.long	0x832e
	.long	0x8339
	.uleb128 0x2
	.long	0xa599
	.uleb128 0x1
	.long	0x8307
	.byte	0
	.uleb128 0x6
	.long	.LASF995
	.byte	0x3
	.value	0x47b
	.byte	0x7
	.long	.LASF996
	.long	0x81ad
	.byte	0x1
	.long	0x8353
	.long	0x835e
	.uleb128 0x2
	.long	0xa5a8
	.uleb128 0x1
	.long	0x8307
	.byte	0
	.uleb128 0x6
	.long	.LASF997
	.byte	0x3
	.value	0x481
	.byte	0x7
	.long	.LASF998
	.long	0xa5b2
	.byte	0x1
	.long	0x8378
	.long	0x8383
	.uleb128 0x2
	.long	0xa599
	.uleb128 0x1
	.long	0x8307
	.byte	0
	.uleb128 0x6
	.long	.LASF999
	.byte	0x3
	.value	0x487
	.byte	0x7
	.long	.LASF1000
	.long	0x81ad
	.byte	0x1
	.long	0x839d
	.long	0x83a8
	.uleb128 0x2
	.long	0xa5a8
	.uleb128 0x1
	.long	0x8307
	.byte	0
	.uleb128 0x6
	.long	.LASF1001
	.byte	0x3
	.value	0x48d
	.byte	0x7
	.long	.LASF1002
	.long	0xa5a3
	.byte	0x1
	.long	0x83c2
	.long	0x83c8
	.uleb128 0x2
	.long	0xa5a8
	.byte	0
	.uleb128 0xc
	.long	.LASF443
	.long	0x9caa
	.uleb128 0xc
	.long	.LASF1003
	.long	0x11b4
	.byte	0
	.uleb128 0x7
	.long	0x81ad
	.uleb128 0x33
	.long	.LASF1004
	.uleb128 0x1b
	.long	.LASF1005
	.byte	0x1
	.byte	0x32
	.byte	0x2f
	.byte	0xa
	.long	0x84f4
	.uleb128 0x5
	.byte	0x32
	.byte	0x2f
	.byte	0xa
	.long	0x2117
	.uleb128 0x5
	.byte	0x32
	.byte	0x2f
	.byte	0xa
	.long	0x20d8
	.uleb128 0x5
	.byte	0x32
	.byte	0x2f
	.byte	0xa
	.long	0x2149
	.uleb128 0x5
	.byte	0x32
	.byte	0x2f
	.byte	0xa
	.long	0x216a
	.uleb128 0x36
	.long	0x20bd
	.uleb128 0x35
	.long	.LASF960
	.byte	0x32
	.byte	0x63
	.byte	0x1d
	.long	.LASF1006
	.long	0x2034
	.long	0x8431
	.uleb128 0x1
	.long	0xa1ca
	.byte	0
	.uleb128 0x49
	.long	.LASF962
	.byte	0x32
	.byte	0x67
	.byte	0x26
	.long	.LASF1007
	.long	0x844c
	.uleb128 0x1
	.long	0xa1cf
	.uleb128 0x1
	.long	0xa1cf
	.byte	0
	.uleb128 0x34
	.long	.LASF964
	.byte	0x6b
	.long	.LASF1008
	.long	0x8f7a
	.uleb128 0x34
	.long	.LASF966
	.byte	0x6f
	.long	.LASF1009
	.long	0x8f7a
	.uleb128 0x34
	.long	.LASF968
	.byte	0x73
	.long	.LASF1010
	.long	0x8f7a
	.uleb128 0x34
	.long	.LASF970
	.byte	0x77
	.long	.LASF1011
	.long	0x8f7a
	.uleb128 0x34
	.long	.LASF972
	.byte	0x7b
	.long	.LASF1012
	.long	0x8f7a
	.uleb128 0x8
	.long	.LASF7
	.byte	0x32
	.byte	0x37
	.byte	0x35
	.long	0x21a0
	.uleb128 0x7
	.long	0x8492
	.uleb128 0x8
	.long	.LASF70
	.byte	0x32
	.byte	0x38
	.byte	0x35
	.long	0x20cb
	.uleb128 0x8
	.long	.LASF71
	.byte	0x32
	.byte	0x3d
	.byte	0x35
	.long	0xa1de
	.uleb128 0x8
	.long	.LASF74
	.byte	0x32
	.byte	0x3e
	.byte	0x35
	.long	0xa1e3
	.uleb128 0x1b
	.long	.LASF1013
	.byte	0x1
	.byte	0x32
	.byte	0x7f
	.byte	0xe
	.long	0x84ea
	.uleb128 0x8
	.long	.LASF975
	.byte	0x32
	.byte	0x80
	.byte	0x41
	.long	0x21ad
	.uleb128 0x11
	.string	"_Tp"
	.long	0x9e7f
	.byte	0
	.uleb128 0xc
	.long	.LASF141
	.long	0x2034
	.byte	0
	.uleb128 0x4b
	.long	.LASF1014
	.byte	0x8
	.byte	0x3
	.value	0x402
	.long	0x8722
	.uleb128 0x70
	.long	.LASF978
	.long	0xa1a2
	.uleb128 0x10
	.long	.LASF979
	.byte	0x3
	.value	0x41d
	.byte	0x7
	.long	.LASF1015
	.byte	0x1
	.long	0x8520
	.long	0x8526
	.uleb128 0x2
	.long	0xa35f
	.byte	0
	.uleb128 0x43
	.long	.LASF979
	.byte	0x3
	.value	0x422
	.long	.LASF1016
	.long	0x853a
	.long	0x8545
	.uleb128 0x2
	.long	0xa35f
	.uleb128 0x1
	.long	0xa369
	.byte	0
	.uleb128 0x14
	.long	.LASF71
	.byte	0x3
	.value	0x414
	.byte	0x32
	.long	0x438b
	.uleb128 0x6
	.long	.LASF982
	.byte	0x3
	.value	0x441
	.byte	0x7
	.long	.LASF1017
	.long	0x8545
	.byte	0x1
	.long	0x856c
	.long	0x8572
	.uleb128 0x2
	.long	0xa36e
	.byte	0
	.uleb128 0x14
	.long	.LASF70
	.byte	0x3
	.value	0x415
	.byte	0x32
	.long	0x437f
	.uleb128 0x6
	.long	.LASF984
	.byte	0x3
	.value	0x447
	.byte	0x7
	.long	.LASF1018
	.long	0x8572
	.byte	0x1
	.long	0x8599
	.long	0x859f
	.uleb128 0x2
	.long	0xa36e
	.byte	0
	.uleb128 0x6
	.long	.LASF986
	.byte	0x3
	.value	0x44d
	.byte	0x7
	.long	.LASF1019
	.long	0xa378
	.byte	0x1
	.long	0x85b9
	.long	0x85bf
	.uleb128 0x2
	.long	0xa35f
	.byte	0
	.uleb128 0x6
	.long	.LASF986
	.byte	0x3
	.value	0x456
	.byte	0x7
	.long	.LASF1020
	.long	0x84f4
	.byte	0x1
	.long	0x85d9
	.long	0x85e4
	.uleb128 0x2
	.long	0xa35f
	.uleb128 0x1
	.long	0x56
	.byte	0
	.uleb128 0x6
	.long	.LASF989
	.byte	0x3
	.value	0x45e
	.byte	0x7
	.long	.LASF1021
	.long	0xa378
	.byte	0x1
	.long	0x85fe
	.long	0x8604
	.uleb128 0x2
	.long	0xa35f
	.byte	0
	.uleb128 0x6
	.long	.LASF989
	.byte	0x3
	.value	0x467
	.byte	0x7
	.long	.LASF1022
	.long	0x84f4
	.byte	0x1
	.long	0x861e
	.long	0x8629
	.uleb128 0x2
	.long	0xa35f
	.uleb128 0x1
	.long	0x56
	.byte	0
	.uleb128 0x6
	.long	.LASF208
	.byte	0x3
	.value	0x46f
	.byte	0x7
	.long	.LASF1023
	.long	0x8545
	.byte	0x1
	.long	0x8643
	.long	0x864e
	.uleb128 0x2
	.long	0xa36e
	.uleb128 0x1
	.long	0x864e
	.byte	0
	.uleb128 0x14
	.long	.LASF442
	.byte	0x3
	.value	0x413
	.byte	0x38
	.long	0x4373
	.uleb128 0x6
	.long	.LASF993
	.byte	0x3
	.value	0x475
	.byte	0x7
	.long	.LASF1024
	.long	0xa378
	.byte	0x1
	.long	0x8675
	.long	0x8680
	.uleb128 0x2
	.long	0xa35f
	.uleb128 0x1
	.long	0x864e
	.byte	0
	.uleb128 0x6
	.long	.LASF995
	.byte	0x3
	.value	0x47b
	.byte	0x7
	.long	.LASF1025
	.long	0x84f4
	.byte	0x1
	.long	0x869a
	.long	0x86a5
	.uleb128 0x2
	.long	0xa36e
	.uleb128 0x1
	.long	0x864e
	.byte	0
	.uleb128 0x6
	.long	.LASF997
	.byte	0x3
	.value	0x481
	.byte	0x7
	.long	.LASF1026
	.long	0xa378
	.byte	0x1
	.long	0x86bf
	.long	0x86ca
	.uleb128 0x2
	.long	0xa35f
	.uleb128 0x1
	.long	0x864e
	.byte	0
	.uleb128 0x6
	.long	.LASF999
	.byte	0x3
	.value	0x487
	.byte	0x7
	.long	.LASF1027
	.long	0x84f4
	.byte	0x1
	.long	0x86e4
	.long	0x86ef
	.uleb128 0x2
	.long	0xa36e
	.uleb128 0x1
	.long	0x864e
	.byte	0
	.uleb128 0x6
	.long	.LASF1001
	.byte	0x3
	.value	0x48d
	.byte	0x7
	.long	.LASF1028
	.long	0xa369
	.byte	0x1
	.long	0x8709
	.long	0x870f
	.uleb128 0x2
	.long	0xa36e
	.byte	0
	.uleb128 0xc
	.long	.LASF443
	.long	0xa1a2
	.uleb128 0xc
	.long	.LASF1003
	.long	0x256b
	.byte	0
	.uleb128 0x7
	.long	0x84f4
	.uleb128 0x4b
	.long	.LASF1029
	.byte	0x8
	.byte	0x3
	.value	0x402
	.long	0x8955
	.uleb128 0x70
	.long	.LASF978
	.long	0xa1b6
	.uleb128 0x10
	.long	.LASF979
	.byte	0x3
	.value	0x41d
	.byte	0x7
	.long	.LASF1030
	.byte	0x1
	.long	0x8753
	.long	0x8759
	.uleb128 0x2
	.long	0xa585
	.byte	0
	.uleb128 0x43
	.long	.LASF979
	.byte	0x3
	.value	0x422
	.long	.LASF1031
	.long	0x876d
	.long	0x8778
	.uleb128 0x2
	.long	0xa585
	.uleb128 0x1
	.long	0xa58a
	.byte	0
	.uleb128 0x14
	.long	.LASF71
	.byte	0x3
	.value	0x414
	.byte	0x32
	.long	0x6bb2
	.uleb128 0x6
	.long	.LASF982
	.byte	0x3
	.value	0x441
	.byte	0x7
	.long	.LASF1032
	.long	0x8778
	.byte	0x1
	.long	0x879f
	.long	0x87a5
	.uleb128 0x2
	.long	0xa58f
	.byte	0
	.uleb128 0x14
	.long	.LASF70
	.byte	0x3
	.value	0x415
	.byte	0x32
	.long	0x6ba6
	.uleb128 0x6
	.long	.LASF984
	.byte	0x3
	.value	0x447
	.byte	0x7
	.long	.LASF1033
	.long	0x87a5
	.byte	0x1
	.long	0x87cc
	.long	0x87d2
	.uleb128 0x2
	.long	0xa58f
	.byte	0
	.uleb128 0x6
	.long	.LASF986
	.byte	0x3
	.value	0x44d
	.byte	0x7
	.long	.LASF1034
	.long	0xa594
	.byte	0x1
	.long	0x87ec
	.long	0x87f2
	.uleb128 0x2
	.long	0xa585
	.byte	0
	.uleb128 0x6
	.long	.LASF986
	.byte	0x3
	.value	0x456
	.byte	0x7
	.long	.LASF1035
	.long	0x8727
	.byte	0x1
	.long	0x880c
	.long	0x8817
	.uleb128 0x2
	.long	0xa585
	.uleb128 0x1
	.long	0x56
	.byte	0
	.uleb128 0x6
	.long	.LASF989
	.byte	0x3
	.value	0x45e
	.byte	0x7
	.long	.LASF1036
	.long	0xa594
	.byte	0x1
	.long	0x8831
	.long	0x8837
	.uleb128 0x2
	.long	0xa585
	.byte	0
	.uleb128 0x6
	.long	.LASF989
	.byte	0x3
	.value	0x467
	.byte	0x7
	.long	.LASF1037
	.long	0x8727
	.byte	0x1
	.long	0x8851
	.long	0x885c
	.uleb128 0x2
	.long	0xa585
	.uleb128 0x1
	.long	0x56
	.byte	0
	.uleb128 0x6
	.long	.LASF208
	.byte	0x3
	.value	0x46f
	.byte	0x7
	.long	.LASF1038
	.long	0x8778
	.byte	0x1
	.long	0x8876
	.long	0x8881
	.uleb128 0x2
	.long	0xa58f
	.uleb128 0x1
	.long	0x8881
	.byte	0
	.uleb128 0x14
	.long	.LASF442
	.byte	0x3
	.value	0x413
	.byte	0x38
	.long	0x6b9a
	.uleb128 0x6
	.long	.LASF993
	.byte	0x3
	.value	0x475
	.byte	0x7
	.long	.LASF1039
	.long	0xa594
	.byte	0x1
	.long	0x88a8
	.long	0x88b3
	.uleb128 0x2
	.long	0xa585
	.uleb128 0x1
	.long	0x8881
	.byte	0
	.uleb128 0x6
	.long	.LASF995
	.byte	0x3
	.value	0x47b
	.byte	0x7
	.long	.LASF1040
	.long	0x8727
	.byte	0x1
	.long	0x88cd
	.long	0x88d8
	.uleb128 0x2
	.long	0xa58f
	.uleb128 0x1
	.long	0x8881
	.byte	0
	.uleb128 0x6
	.long	.LASF997
	.byte	0x3
	.value	0x481
	.byte	0x7
	.long	.LASF1041
	.long	0xa594
	.byte	0x1
	.long	0x88f2
	.long	0x88fd
	.uleb128 0x2
	.long	0xa585
	.uleb128 0x1
	.long	0x8881
	.byte	0
	.uleb128 0x6
	.long	.LASF999
	.byte	0x3
	.value	0x487
	.byte	0x7
	.long	.LASF1042
	.long	0x8727
	.byte	0x1
	.long	0x8917
	.long	0x8922
	.uleb128 0x2
	.long	0xa58f
	.uleb128 0x1
	.long	0x8881
	.byte	0
	.uleb128 0x6
	.long	.LASF1001
	.byte	0x3
	.value	0x48d
	.byte	0x7
	.long	.LASF1043
	.long	0xa58a
	.byte	0x1
	.long	0x893c
	.long	0x8942
	.uleb128 0x2
	.long	0xa58f
	.byte	0
	.uleb128 0xc
	.long	.LASF443
	.long	0xa1b6
	.uleb128 0xc
	.long	.LASF1003
	.long	0x256b
	.byte	0
	.uleb128 0x7
	.long	0x8727
	.uleb128 0x1b
	.long	.LASF1044
	.byte	0x1
	.byte	0x32
	.byte	0x2f
	.byte	0xa
	.long	0x8a4f
	.uleb128 0x5
	.byte	0x32
	.byte	0x2f
	.byte	0xa
	.long	0x33bc
	.uleb128 0x5
	.byte	0x32
	.byte	0x2f
	.byte	0xa
	.long	0x3381
	.uleb128 0x5
	.byte	0x32
	.byte	0x2f
	.byte	0xa
	.long	0x33ea
	.uleb128 0x5
	.byte	0x32
	.byte	0x2f
	.byte	0xa
	.long	0x3407
	.uleb128 0x36
	.long	0x3366
	.uleb128 0x92
	.long	.LASF960
	.byte	0x32
	.byte	0x63
	.byte	0x1d
	.long	0x32e9
	.long	0x89a3
	.uleb128 0x1
	.long	0xa2ab
	.byte	0
	.uleb128 0x93
	.long	.LASF962
	.byte	0x32
	.byte	0x67
	.byte	0x26
	.long	0x89bb
	.uleb128 0x1
	.long	0xa2b0
	.uleb128 0x1
	.long	0xa2b0
	.byte	0
	.uleb128 0x67
	.long	.LASF964
	.byte	0x6b
	.long	0x8f7a
	.uleb128 0x67
	.long	.LASF966
	.byte	0x6f
	.long	0x8f7a
	.uleb128 0x67
	.long	.LASF968
	.byte	0x73
	.long	0x8f7a
	.uleb128 0x67
	.long	.LASF970
	.byte	0x77
	.long	0x8f7a
	.uleb128 0x67
	.long	.LASF972
	.byte	0x7b
	.long	0x8f7a
	.uleb128 0x8
	.long	.LASF7
	.byte	0x32
	.byte	0x37
	.byte	0x35
	.long	0x3435
	.uleb128 0x7
	.long	0x89ed
	.uleb128 0x8
	.long	.LASF70
	.byte	0x32
	.byte	0x38
	.byte	0x35
	.long	0x3374
	.uleb128 0x8
	.long	.LASF71
	.byte	0x32
	.byte	0x3d
	.byte	0x35
	.long	0xa2bf
	.uleb128 0x8
	.long	.LASF74
	.byte	0x32
	.byte	0x3e
	.byte	0x35
	.long	0xa2c4
	.uleb128 0x1b
	.long	.LASF1045
	.byte	0x1
	.byte	0x32
	.byte	0x7f
	.byte	0xe
	.long	0x8a45
	.uleb128 0x8
	.long	.LASF975
	.byte	0x32
	.byte	0x80
	.byte	0x41
	.long	0x3442
	.uleb128 0x11
	.string	"_Tp"
	.long	0xa0fa
	.byte	0
	.uleb128 0xc
	.long	.LASF141
	.long	0x32e9
	.byte	0
	.uleb128 0x4b
	.long	.LASF1046
	.byte	0x8
	.byte	0x3
	.value	0x402
	.long	0x8c45
	.uleb128 0x70
	.long	.LASF978
	.long	0xa27e
	.uleb128 0x2c
	.long	.LASF979
	.byte	0x3
	.value	0x41d
	.byte	0x7
	.byte	0x1
	.long	0x8a77
	.long	0x8a7d
	.uleb128 0x2
	.long	0xa46d
	.byte	0
	.uleb128 0x79
	.long	.LASF979
	.byte	0x3
	.value	0x422
	.long	0x8a8d
	.long	0x8a98
	.uleb128 0x2
	.long	0xa46d
	.uleb128 0x1
	.long	0xa477
	.byte	0
	.uleb128 0x14
	.long	.LASF71
	.byte	0x3
	.value	0x414
	.byte	0x32
	.long	0x5773
	.uleb128 0x1e
	.long	.LASF982
	.byte	0x3
	.value	0x441
	.byte	0x7
	.long	0x8a98
	.byte	0x1
	.long	0x8abb
	.long	0x8ac1
	.uleb128 0x2
	.long	0xa47c
	.byte	0
	.uleb128 0x14
	.long	.LASF70
	.byte	0x3
	.value	0x415
	.byte	0x32
	.long	0x5767
	.uleb128 0x1e
	.long	.LASF984
	.byte	0x3
	.value	0x447
	.byte	0x7
	.long	0x8ac1
	.byte	0x1
	.long	0x8ae4
	.long	0x8aea
	.uleb128 0x2
	.long	0xa47c
	.byte	0
	.uleb128 0x1e
	.long	.LASF986
	.byte	0x3
	.value	0x44d
	.byte	0x7
	.long	0xa486
	.byte	0x1
	.long	0x8b00
	.long	0x8b06
	.uleb128 0x2
	.long	0xa46d
	.byte	0
	.uleb128 0x1e
	.long	.LASF986
	.byte	0x3
	.value	0x456
	.byte	0x7
	.long	0x8a4f
	.byte	0x1
	.long	0x8b1c
	.long	0x8b27
	.uleb128 0x2
	.long	0xa46d
	.uleb128 0x1
	.long	0x56
	.byte	0
	.uleb128 0x1e
	.long	.LASF989
	.byte	0x3
	.value	0x45e
	.byte	0x7
	.long	0xa486
	.byte	0x1
	.long	0x8b3d
	.long	0x8b43
	.uleb128 0x2
	.long	0xa46d
	.byte	0
	.uleb128 0x1e
	.long	.LASF989
	.byte	0x3
	.value	0x467
	.byte	0x7
	.long	0x8a4f
	.byte	0x1
	.long	0x8b59
	.long	0x8b64
	.uleb128 0x2
	.long	0xa46d
	.uleb128 0x1
	.long	0x56
	.byte	0
	.uleb128 0x1e
	.long	.LASF208
	.byte	0x3
	.value	0x46f
	.byte	0x7
	.long	0x8a98
	.byte	0x1
	.long	0x8b7a
	.long	0x8b85
	.uleb128 0x2
	.long	0xa47c
	.uleb128 0x1
	.long	0x8b85
	.byte	0
	.uleb128 0x14
	.long	.LASF442
	.byte	0x3
	.value	0x413
	.byte	0x38
	.long	0x575b
	.uleb128 0x1e
	.long	.LASF993
	.byte	0x3
	.value	0x475
	.byte	0x7
	.long	0xa486
	.byte	0x1
	.long	0x8ba8
	.long	0x8bb3
	.uleb128 0x2
	.long	0xa46d
	.uleb128 0x1
	.long	0x8b85
	.byte	0
	.uleb128 0x1e
	.long	.LASF995
	.byte	0x3
	.value	0x47b
	.byte	0x7
	.long	0x8a4f
	.byte	0x1
	.long	0x8bc9
	.long	0x8bd4
	.uleb128 0x2
	.long	0xa47c
	.uleb128 0x1
	.long	0x8b85
	.byte	0
	.uleb128 0x1e
	.long	.LASF997
	.byte	0x3
	.value	0x481
	.byte	0x7
	.long	0xa486
	.byte	0x1
	.long	0x8bea
	.long	0x8bf5
	.uleb128 0x2
	.long	0xa46d
	.uleb128 0x1
	.long	0x8b85
	.byte	0
	.uleb128 0x1e
	.long	.LASF999
	.byte	0x3
	.value	0x487
	.byte	0x7
	.long	0x8a4f
	.byte	0x1
	.long	0x8c0b
	.long	0x8c16
	.uleb128 0x2
	.long	0xa47c
	.uleb128 0x1
	.long	0x8b85
	.byte	0
	.uleb128 0x1e
	.long	.LASF1001
	.byte	0x3
	.value	0x48d
	.byte	0x7
	.long	0xa477
	.byte	0x1
	.long	0x8c2c
	.long	0x8c32
	.uleb128 0x2
	.long	0xa47c
	.byte	0
	.uleb128 0xc
	.long	.LASF443
	.long	0xa27e
	.uleb128 0xc
	.long	.LASF1003
	.long	0x37e5
	.byte	0
	.uleb128 0x7
	.long	0x8a4f
	.uleb128 0x33
	.long	.LASF1047
	.uleb128 0x1b
	.long	.LASF1048
	.byte	0x1
	.byte	0x32
	.byte	0x2f
	.byte	0xa
	.long	0x8d5e
	.uleb128 0x5
	.byte	0x32
	.byte	0x2f
	.byte	0xa
	.long	0x4627
	.uleb128 0x5
	.byte	0x32
	.byte	0x2f
	.byte	0xa
	.long	0x45e8
	.uleb128 0x5
	.byte	0x32
	.byte	0x2f
	.byte	0xa
	.long	0x4659
	.uleb128 0x5
	.byte	0x32
	.byte	0x2f
	.byte	0xa
	.long	0x467a
	.uleb128 0x36
	.long	0x45cd
	.uleb128 0x35
	.long	.LASF960
	.byte	0x32
	.byte	0x63
	.byte	0x1d
	.long	.LASF1049
	.long	0x4544
	.long	0x8c9b
	.uleb128 0x1
	.long	0xa3b9
	.byte	0
	.uleb128 0x49
	.long	.LASF962
	.byte	0x32
	.byte	0x67
	.byte	0x26
	.long	.LASF1050
	.long	0x8cb6
	.uleb128 0x1
	.long	0xa3be
	.uleb128 0x1
	.long	0xa3be
	.byte	0
	.uleb128 0x34
	.long	.LASF964
	.byte	0x6b
	.long	.LASF1051
	.long	0x8f7a
	.uleb128 0x34
	.long	.LASF966
	.byte	0x6f
	.long	.LASF1052
	.long	0x8f7a
	.uleb128 0x34
	.long	.LASF968
	.byte	0x73
	.long	.LASF1053
	.long	0x8f7a
	.uleb128 0x34
	.long	.LASF970
	.byte	0x77
	.long	.LASF1054
	.long	0x8f7a
	.uleb128 0x34
	.long	.LASF972
	.byte	0x7b
	.long	.LASF1055
	.long	0x8f7a
	.uleb128 0x8
	.long	.LASF7
	.byte	0x32
	.byte	0x37
	.byte	0x35
	.long	0x46b0
	.uleb128 0x7
	.long	0x8cfc
	.uleb128 0x8
	.long	.LASF70
	.byte	0x32
	.byte	0x38
	.byte	0x35
	.long	0x45db
	.uleb128 0x8
	.long	.LASF71
	.byte	0x32
	.byte	0x3d
	.byte	0x35
	.long	0xa3cd
	.uleb128 0x8
	.long	.LASF74
	.byte	0x32
	.byte	0x3e
	.byte	0x35
	.long	0xa3d2
	.uleb128 0x1b
	.long	.LASF1056
	.byte	0x1
	.byte	0x32
	.byte	0x7f
	.byte	0xe
	.long	0x8d54
	.uleb128 0x8
	.long	.LASF975
	.byte	0x32
	.byte	0x80
	.byte	0x41
	.long	0x46bd
	.uleb128 0x11
	.string	"_Tp"
	.long	0x56
	.byte	0
	.uleb128 0xc
	.long	.LASF141
	.long	0x4544
	.byte	0
	.uleb128 0x33
	.long	.LASF1057
	.uleb128 0x33
	.long	.LASF1058
	.uleb128 0x1b
	.long	.LASF1059
	.byte	0x1
	.byte	0x32
	.byte	0x2f
	.byte	0xa
	.long	0x8e77
	.uleb128 0x5
	.byte	0x32
	.byte	0x2f
	.byte	0xa
	.long	0x5a0f
	.uleb128 0x5
	.byte	0x32
	.byte	0x2f
	.byte	0xa
	.long	0x59d0
	.uleb128 0x5
	.byte	0x32
	.byte	0x2f
	.byte	0xa
	.long	0x5a41
	.uleb128 0x5
	.byte	0x32
	.byte	0x2f
	.byte	0xa
	.long	0x5a62
	.uleb128 0x36
	.long	0x59b5
	.uleb128 0x35
	.long	.LASF960
	.byte	0x32
	.byte	0x63
	.byte	0x1d
	.long	.LASF1060
	.long	0x592c
	.long	0x8db4
	.uleb128 0x1
	.long	0xa4cc
	.byte	0
	.uleb128 0x49
	.long	.LASF962
	.byte	0x32
	.byte	0x67
	.byte	0x26
	.long	.LASF1061
	.long	0x8dcf
	.uleb128 0x1
	.long	0xa4d1
	.uleb128 0x1
	.long	0xa4d1
	.byte	0
	.uleb128 0x34
	.long	.LASF964
	.byte	0x6b
	.long	.LASF1062
	.long	0x8f7a
	.uleb128 0x34
	.long	.LASF966
	.byte	0x6f
	.long	.LASF1063
	.long	0x8f7a
	.uleb128 0x34
	.long	.LASF968
	.byte	0x73
	.long	.LASF1064
	.long	0x8f7a
	.uleb128 0x34
	.long	.LASF970
	.byte	0x77
	.long	.LASF1065
	.long	0x8f7a
	.uleb128 0x34
	.long	.LASF972
	.byte	0x7b
	.long	.LASF1066
	.long	0x8f7a
	.uleb128 0x8
	.long	.LASF7
	.byte	0x32
	.byte	0x37
	.byte	0x35
	.long	0x5a98
	.uleb128 0x7
	.long	0x8e15
	.uleb128 0x8
	.long	.LASF70
	.byte	0x32
	.byte	0x38
	.byte	0x35
	.long	0x59c3
	.uleb128 0x8
	.long	.LASF71
	.byte	0x32
	.byte	0x3d
	.byte	0x35
	.long	0xa4e0
	.uleb128 0x8
	.long	.LASF74
	.byte	0x32
	.byte	0x3e
	.byte	0x35
	.long	0xa4e5
	.uleb128 0x1b
	.long	.LASF1067
	.byte	0x1
	.byte	0x32
	.byte	0x7f
	.byte	0xe
	.long	0x8e6d
	.uleb128 0x8
	.long	.LASF975
	.byte	0x32
	.byte	0x80
	.byte	0x41
	.long	0x5aa5
	.uleb128 0x11
	.string	"_Tp"
	.long	0x30
	.byte	0
	.uleb128 0xc
	.long	.LASF141
	.long	0x592c
	.byte	0
	.uleb128 0x33
	.long	.LASF1068
	.uleb128 0x33
	.long	.LASF1069
	.uleb128 0x44
	.long	.LASF1070
	.byte	0x3
	.value	0x4dd
	.byte	0x7
	.long	0x8f7a
	.long	0x8e9d
	.uleb128 0x1
	.long	0x1153d
	.uleb128 0x1
	.long	0x1153d
	.byte	0
	.uleb128 0x94
	.long	.LASF1070
	.byte	0x3
	.value	0x4dd
	.byte	0x7
	.long	.LASF1071
	.long	0x8f7a
	.uleb128 0x1
	.long	0x11597
	.uleb128 0x1
	.long	0x11597
	.byte	0
	.byte	0
	.uleb128 0x16
	.long	.LASF1072
	.byte	0x30
	.value	0x199
	.byte	0x14
	.long	0x8ed7
	.long	0x8ed7
	.uleb128 0x1
	.long	0x784c
	.uleb128 0x1
	.long	0x7d1b
	.byte	0
	.uleb128 0x2b
	.byte	0x10
	.byte	0x4
	.long	.LASF1073
	.uleb128 0x17
	.long	.LASF1074
	.byte	0x30
	.value	0x1fc
	.byte	0x16
	.long	.LASF1075
	.long	0x8f03
	.long	0x8f03
	.uleb128 0x1
	.long	0x784c
	.uleb128 0x1
	.long	0x7d1b
	.uleb128 0x1
	.long	0x56
	.byte	0
	.uleb128 0x2b
	.byte	0x8
	.byte	0x5
	.long	.LASF1076
	.uleb128 0x17
	.long	.LASF1077
	.byte	0x30
	.value	0x201
	.byte	0x1f
	.long	.LASF1078
	.long	0x8f2f
	.long	0x8f2f
	.uleb128 0x1
	.long	0x784c
	.uleb128 0x1
	.long	0x7d1b
	.uleb128 0x1
	.long	0x56
	.byte	0
	.uleb128 0x2b
	.byte	0x8
	.byte	0x7
	.long	.LASF1079
	.uleb128 0xb9
	.byte	0x20
	.byte	0x10
	.byte	0x28
	.value	0x1b8
	.byte	0x10
	.long	.LASF1465
	.long	0x8f65
	.uleb128 0x98
	.long	.LASF1080
	.value	0x1b9
	.byte	0xd
	.long	0x8f03
	.byte	0x8
	.byte	0
	.uleb128 0x98
	.long	.LASF1081
	.value	0x1ba
	.byte	0xf
	.long	0x8ed7
	.byte	0x10
	.byte	0x10
	.byte	0
	.uleb128 0xba
	.long	.LASF1082
	.byte	0x28
	.value	0x1c3
	.byte	0x3
	.long	0x8f36
	.byte	0x10
	.uleb128 0xbb
	.long	.LASF1466
	.uleb128 0x2b
	.byte	0x1
	.byte	0x2
	.long	.LASF1083
	.uleb128 0x7
	.long	0x8f7a
	.uleb128 0xd
	.long	0x33f
	.uleb128 0xd
	.long	0x3ae
	.uleb128 0x7
	.long	0x37
	.uleb128 0x2b
	.byte	0x10
	.byte	0x7
	.long	.LASF1084
	.uleb128 0x2b
	.byte	0x1
	.byte	0x6
	.long	.LASF1085
	.uleb128 0x2b
	.byte	0x2
	.byte	0x5
	.long	.LASF1086
	.uleb128 0x2b
	.byte	0x10
	.byte	0x5
	.long	.LASF1087
	.uleb128 0x2b
	.byte	0x2
	.byte	0x10
	.long	.LASF1088
	.uleb128 0x2b
	.byte	0x4
	.byte	0x10
	.long	.LASF1089
	.uleb128 0xd
	.long	0x3e7
	.uleb128 0xd
	.long	0x5cf
	.uleb128 0xd
	.long	0x8fce
	.uleb128 0xbc
	.uleb128 0xa
	.long	0x61a
	.uleb128 0xa
	.long	0x5cf
	.uleb128 0x28
	.long	0x3e7
	.uleb128 0xa
	.long	0x3e7
	.uleb128 0xd
	.long	0x61a
	.uleb128 0x1b
	.long	.LASF1090
	.byte	0x60
	.byte	0x33
	.byte	0x33
	.byte	0x8
	.long	0x912f
	.uleb128 0xf
	.long	.LASF1091
	.byte	0x33
	.byte	0x37
	.byte	0x9
	.long	0x45
	.byte	0
	.uleb128 0xf
	.long	.LASF1092
	.byte	0x33
	.byte	0x38
	.byte	0x9
	.long	0x45
	.byte	0x8
	.uleb128 0xf
	.long	.LASF1093
	.byte	0x33
	.byte	0x3e
	.byte	0x9
	.long	0x45
	.byte	0x10
	.uleb128 0xf
	.long	.LASF1094
	.byte	0x33
	.byte	0x44
	.byte	0x9
	.long	0x45
	.byte	0x18
	.uleb128 0xf
	.long	.LASF1095
	.byte	0x33
	.byte	0x45
	.byte	0x9
	.long	0x45
	.byte	0x20
	.uleb128 0xf
	.long	.LASF1096
	.byte	0x33
	.byte	0x46
	.byte	0x9
	.long	0x45
	.byte	0x28
	.uleb128 0xf
	.long	.LASF1097
	.byte	0x33
	.byte	0x47
	.byte	0x9
	.long	0x45
	.byte	0x30
	.uleb128 0xf
	.long	.LASF1098
	.byte	0x33
	.byte	0x48
	.byte	0x9
	.long	0x45
	.byte	0x38
	.uleb128 0xf
	.long	.LASF1099
	.byte	0x33
	.byte	0x49
	.byte	0x9
	.long	0x45
	.byte	0x40
	.uleb128 0xf
	.long	.LASF1100
	.byte	0x33
	.byte	0x4a
	.byte	0x9
	.long	0x45
	.byte	0x48
	.uleb128 0xf
	.long	.LASF1101
	.byte	0x33
	.byte	0x4b
	.byte	0x8
	.long	0x4a
	.byte	0x50
	.uleb128 0xf
	.long	.LASF1102
	.byte	0x33
	.byte	0x4c
	.byte	0x8
	.long	0x4a
	.byte	0x51
	.uleb128 0xf
	.long	.LASF1103
	.byte	0x33
	.byte	0x4e
	.byte	0x8
	.long	0x4a
	.byte	0x52
	.uleb128 0xf
	.long	.LASF1104
	.byte	0x33
	.byte	0x50
	.byte	0x8
	.long	0x4a
	.byte	0x53
	.uleb128 0xf
	.long	.LASF1105
	.byte	0x33
	.byte	0x52
	.byte	0x8
	.long	0x4a
	.byte	0x54
	.uleb128 0xf
	.long	.LASF1106
	.byte	0x33
	.byte	0x54
	.byte	0x8
	.long	0x4a
	.byte	0x55
	.uleb128 0xf
	.long	.LASF1107
	.byte	0x33
	.byte	0x5b
	.byte	0x8
	.long	0x4a
	.byte	0x56
	.uleb128 0xf
	.long	.LASF1108
	.byte	0x33
	.byte	0x5c
	.byte	0x8
	.long	0x4a
	.byte	0x57
	.uleb128 0xf
	.long	.LASF1109
	.byte	0x33
	.byte	0x5f
	.byte	0x8
	.long	0x4a
	.byte	0x58
	.uleb128 0xf
	.long	.LASF1110
	.byte	0x33
	.byte	0x61
	.byte	0x8
	.long	0x4a
	.byte	0x59
	.uleb128 0xf
	.long	.LASF1111
	.byte	0x33
	.byte	0x63
	.byte	0x8
	.long	0x4a
	.byte	0x5a
	.uleb128 0xf
	.long	.LASF1112
	.byte	0x33
	.byte	0x65
	.byte	0x8
	.long	0x4a
	.byte	0x5b
	.uleb128 0xf
	.long	.LASF1113
	.byte	0x33
	.byte	0x6c
	.byte	0x8
	.long	0x4a
	.byte	0x5c
	.uleb128 0xf
	.long	.LASF1114
	.byte	0x33
	.byte	0x6d
	.byte	0x8
	.long	0x4a
	.byte	0x5d
	.byte	0
	.uleb128 0x25
	.long	.LASF1115
	.byte	0x33
	.byte	0x7a
	.byte	0xe
	.long	0x45
	.long	0x914a
	.uleb128 0x1
	.long	0x56
	.uleb128 0x1
	.long	0x77aa
	.byte	0
	.uleb128 0x71
	.long	.LASF1117
	.byte	0x33
	.byte	0x7d
	.byte	0x16
	.long	0x9156
	.uleb128 0xd
	.long	0x8fe9
	.uleb128 0x8
	.long	.LASF1118
	.byte	0x34
	.byte	0x25
	.byte	0x15
	.long	0x8f9c
	.uleb128 0x8
	.long	.LASF1119
	.byte	0x34
	.byte	0x26
	.byte	0x17
	.long	0x37
	.uleb128 0x8
	.long	.LASF1120
	.byte	0x34
	.byte	0x27
	.byte	0x1a
	.long	0x8fa3
	.uleb128 0x8
	.long	.LASF1121
	.byte	0x34
	.byte	0x28
	.byte	0x1c
	.long	0x779e
	.uleb128 0x8
	.long	.LASF1122
	.byte	0x34
	.byte	0x29
	.byte	0x14
	.long	0x56
	.uleb128 0x7
	.long	0x918b
	.uleb128 0x8
	.long	.LASF1123
	.byte	0x34
	.byte	0x2a
	.byte	0x16
	.long	0x7561
	.uleb128 0x8
	.long	.LASF1124
	.byte	0x34
	.byte	0x2c
	.byte	0x19
	.long	0x7d86
	.uleb128 0x8
	.long	.LASF1125
	.byte	0x34
	.byte	0x2d
	.byte	0x1b
	.long	0x3e
	.uleb128 0x8
	.long	.LASF1126
	.byte	0x34
	.byte	0x34
	.byte	0x12
	.long	0x915b
	.uleb128 0x8
	.long	.LASF1127
	.byte	0x34
	.byte	0x35
	.byte	0x13
	.long	0x9167
	.uleb128 0x8
	.long	.LASF1128
	.byte	0x34
	.byte	0x36
	.byte	0x13
	.long	0x9173
	.uleb128 0x8
	.long	.LASF1129
	.byte	0x34
	.byte	0x37
	.byte	0x14
	.long	0x917f
	.uleb128 0x8
	.long	.LASF1130
	.byte	0x34
	.byte	0x38
	.byte	0x13
	.long	0x918b
	.uleb128 0x8
	.long	.LASF1131
	.byte	0x34
	.byte	0x39
	.byte	0x14
	.long	0x919c
	.uleb128 0x8
	.long	.LASF1132
	.byte	0x34
	.byte	0x3a
	.byte	0x13
	.long	0x91a8
	.uleb128 0x8
	.long	.LASF1133
	.byte	0x34
	.byte	0x3b
	.byte	0x14
	.long	0x91b4
	.uleb128 0x8
	.long	.LASF1134
	.byte	0x34
	.byte	0x48
	.byte	0x12
	.long	0x7d86
	.uleb128 0x8
	.long	.LASF1135
	.byte	0x34
	.byte	0x49
	.byte	0x1b
	.long	0x3e
	.uleb128 0x8
	.long	.LASF1136
	.byte	0x34
	.byte	0x98
	.byte	0x19
	.long	0x7d86
	.uleb128 0x8
	.long	.LASF1137
	.byte	0x34
	.byte	0x99
	.byte	0x1b
	.long	0x7d86
	.uleb128 0x8
	.long	.LASF1138
	.byte	0x34
	.byte	0x9c
	.byte	0x1b
	.long	0x7d86
	.uleb128 0x8
	.long	.LASF1139
	.byte	0x34
	.byte	0xa0
	.byte	0x1a
	.long	0x7d86
	.uleb128 0x8
	.long	.LASF1140
	.byte	0x34
	.byte	0xc5
	.byte	0x21
	.long	0x7d86
	.uleb128 0x97
	.long	.LASF1141
	.byte	0x3
	.value	0xbb4
	.long	0x928b
	.uleb128 0xbd
	.byte	0x17
	.byte	0x3a
	.byte	0x18
	.long	0x6b5
	.byte	0
	.uleb128 0x6f
	.byte	0x8
	.byte	0x35
	.byte	0x3c
	.byte	0x3
	.long	.LASF1143
	.long	0x92b3
	.uleb128 0xf
	.long	.LASF1144
	.byte	0x35
	.byte	0x3d
	.byte	0x9
	.long	0x56
	.byte	0
	.uleb128 0x41
	.string	"rem"
	.byte	0x35
	.byte	0x3e
	.byte	0x9
	.long	0x56
	.byte	0x4
	.byte	0
	.uleb128 0x8
	.long	.LASF1145
	.byte	0x35
	.byte	0x3f
	.byte	0x5
	.long	0x928b
	.uleb128 0x6f
	.byte	0x10
	.byte	0x35
	.byte	0x44
	.byte	0x3
	.long	.LASF1146
	.long	0x92e7
	.uleb128 0xf
	.long	.LASF1144
	.byte	0x35
	.byte	0x45
	.byte	0xe
	.long	0x7d86
	.byte	0
	.uleb128 0x41
	.string	"rem"
	.byte	0x35
	.byte	0x46
	.byte	0xe
	.long	0x7d86
	.byte	0x8
	.byte	0
	.uleb128 0x8
	.long	.LASF1147
	.byte	0x35
	.byte	0x47
	.byte	0x5
	.long	0x92bf
	.uleb128 0x6f
	.byte	0x10
	.byte	0x35
	.byte	0x4e
	.byte	0x3
	.long	.LASF1148
	.long	0x931b
	.uleb128 0xf
	.long	.LASF1144
	.byte	0x35
	.byte	0x4f
	.byte	0x13
	.long	0x8f03
	.byte	0
	.uleb128 0x41
	.string	"rem"
	.byte	0x35
	.byte	0x50
	.byte	0x13
	.long	0x8f03
	.byte	0x8
	.byte	0
	.uleb128 0x8
	.long	.LASF1149
	.byte	0x35
	.byte	0x51
	.byte	0x5
	.long	0x92f3
	.uleb128 0x8
	.long	.LASF1150
	.byte	0x36
	.byte	0x7
	.byte	0x13
	.long	0x9250
	.uleb128 0x8
	.long	.LASF1151
	.byte	0x37
	.byte	0xa
	.byte	0x12
	.long	0x925c
	.uleb128 0x7
	.long	0x9333
	.uleb128 0x8
	.long	.LASF1152
	.byte	0x38
	.byte	0x18
	.byte	0x12
	.long	0x915b
	.uleb128 0x8
	.long	.LASF1153
	.byte	0x38
	.byte	0x19
	.byte	0x13
	.long	0x9173
	.uleb128 0x8
	.long	.LASF1154
	.byte	0x38
	.byte	0x1a
	.byte	0x13
	.long	0x918b
	.uleb128 0x8
	.long	.LASF1155
	.byte	0x38
	.byte	0x1b
	.byte	0x13
	.long	0x91a8
	.uleb128 0x1b
	.long	.LASF1156
	.byte	0x10
	.byte	0x39
	.byte	0xb
	.byte	0x8
	.long	0x939c
	.uleb128 0xf
	.long	.LASF1157
	.byte	0x39
	.byte	0x10
	.byte	0xc
	.long	0x925c
	.byte	0
	.uleb128 0xf
	.long	.LASF1158
	.byte	0x39
	.byte	0x15
	.byte	0x15
	.long	0x9268
	.byte	0x8
	.byte	0
	.uleb128 0x1d
	.long	.LASF1159
	.byte	0x35
	.value	0x3b4
	.byte	0xf
	.long	0x93a9
	.uleb128 0xd
	.long	0x93ae
	.uleb128 0xbe
	.long	0x56
	.long	0x93c3
	.uleb128 0x1
	.long	0x8fc9
	.uleb128 0x1
	.long	0x8fc9
	.byte	0
	.uleb128 0x16
	.long	.LASF1160
	.byte	0x35
	.value	0x2de
	.byte	0xc
	.long	0x56
	.long	0x93da
	.uleb128 0x1
	.long	0x93da
	.byte	0
	.uleb128 0xd
	.long	0x93df
	.uleb128 0xbf
	.uleb128 0x17
	.long	.LASF1161
	.byte	0x35
	.value	0x2e3
	.byte	0x12
	.long	.LASF1161
	.long	0x56
	.long	0x93fc
	.uleb128 0x1
	.long	0x93da
	.byte	0
	.uleb128 0x25
	.long	.LASF1162
	.byte	0x3a
	.byte	0x19
	.byte	0x1
	.long	0x7d14
	.long	0x9412
	.uleb128 0x1
	.long	0x77aa
	.byte	0
	.uleb128 0x16
	.long	.LASF1163
	.byte	0x35
	.value	0x1e1
	.byte	0x1
	.long	0x56
	.long	0x9429
	.uleb128 0x1
	.long	0x77aa
	.byte	0
	.uleb128 0x16
	.long	.LASF1164
	.byte	0x35
	.value	0x1e6
	.byte	0x1
	.long	0x7d86
	.long	0x9440
	.uleb128 0x1
	.long	0x77aa
	.byte	0
	.uleb128 0x25
	.long	.LASF1165
	.byte	0x3b
	.byte	0x14
	.byte	0x1
	.long	0x7568
	.long	0x946a
	.uleb128 0x1
	.long	0x8fc9
	.uleb128 0x1
	.long	0x8fc9
	.uleb128 0x1
	.long	0x7515
	.uleb128 0x1
	.long	0x7515
	.uleb128 0x1
	.long	0x939c
	.byte	0
	.uleb128 0xc0
	.string	"div"
	.byte	0x35
	.value	0x3e0
	.byte	0xe
	.long	0x92b3
	.long	0x9487
	.uleb128 0x1
	.long	0x56
	.uleb128 0x1
	.long	0x56
	.byte	0
	.uleb128 0x16
	.long	.LASF1166
	.byte	0x35
	.value	0x305
	.byte	0xe
	.long	0x45
	.long	0x949e
	.uleb128 0x1
	.long	0x77aa
	.byte	0
	.uleb128 0x16
	.long	.LASF1167
	.byte	0x35
	.value	0x3e2
	.byte	0xf
	.long	0x92e7
	.long	0x94ba
	.uleb128 0x1
	.long	0x7d86
	.uleb128 0x1
	.long	0x7d86
	.byte	0
	.uleb128 0x16
	.long	.LASF1168
	.byte	0x35
	.value	0x426
	.byte	0xc
	.long	0x56
	.long	0x94d6
	.uleb128 0x1
	.long	0x77aa
	.uleb128 0x1
	.long	0x7515
	.byte	0
	.uleb128 0x16
	.long	.LASF1169
	.byte	0x35
	.value	0x431
	.byte	0xf
	.long	0x7515
	.long	0x94f7
	.uleb128 0x1
	.long	0x7803
	.uleb128 0x1
	.long	0x77aa
	.uleb128 0x1
	.long	0x7515
	.byte	0
	.uleb128 0x16
	.long	.LASF1170
	.byte	0x35
	.value	0x429
	.byte	0xc
	.long	0x56
	.long	0x9518
	.uleb128 0x1
	.long	0x7803
	.uleb128 0x1
	.long	0x77aa
	.uleb128 0x1
	.long	0x7515
	.byte	0
	.uleb128 0x61
	.long	.LASF1171
	.byte	0x35
	.value	0x3ca
	.long	0x9539
	.uleb128 0x1
	.long	0x7568
	.uleb128 0x1
	.long	0x7515
	.uleb128 0x1
	.long	0x7515
	.uleb128 0x1
	.long	0x939c
	.byte	0
	.uleb128 0xc1
	.long	.LASF1172
	.byte	0x35
	.value	0x2fa
	.byte	0xd
	.long	0x954d
	.uleb128 0x1
	.long	0x56
	.byte	0
	.uleb128 0x96
	.long	.LASF1173
	.byte	0x35
	.value	0x23d
	.byte	0xc
	.long	0x56
	.uleb128 0x61
	.long	.LASF1174
	.byte	0x35
	.value	0x23f
	.long	0x956d
	.uleb128 0x1
	.long	0x7561
	.byte	0
	.uleb128 0x25
	.long	.LASF1175
	.byte	0x35
	.byte	0x76
	.byte	0xf
	.long	0x7d14
	.long	0x9588
	.uleb128 0x1
	.long	0x77aa
	.uleb128 0x1
	.long	0x9588
	.byte	0
	.uleb128 0xd
	.long	0x45
	.uleb128 0x35
	.long	.LASF1176
	.byte	0x35
	.byte	0xd7
	.byte	0x11
	.long	.LASF1177
	.long	0x7d86
	.long	0x95b1
	.uleb128 0x1
	.long	0x77aa
	.uleb128 0x1
	.long	0x9588
	.uleb128 0x1
	.long	0x56
	.byte	0
	.uleb128 0x35
	.long	.LASF1178
	.byte	0x35
	.byte	0xdb
	.byte	0x1a
	.long	.LASF1179
	.long	0x3e
	.long	0x95d5
	.uleb128 0x1
	.long	0x77aa
	.uleb128 0x1
	.long	0x9588
	.uleb128 0x1
	.long	0x56
	.byte	0
	.uleb128 0x16
	.long	.LASF1180
	.byte	0x35
	.value	0x39b
	.byte	0xc
	.long	0x56
	.long	0x95ec
	.uleb128 0x1
	.long	0x77aa
	.byte	0
	.uleb128 0x16
	.long	.LASF1181
	.byte	0x35
	.value	0x435
	.byte	0xf
	.long	0x7515
	.long	0x960d
	.uleb128 0x1
	.long	0x45
	.uleb128 0x1
	.long	0x784c
	.uleb128 0x1
	.long	0x7515
	.byte	0
	.uleb128 0x16
	.long	.LASF1182
	.byte	0x35
	.value	0x42d
	.byte	0xc
	.long	0x56
	.long	0x9629
	.uleb128 0x1
	.long	0x45
	.uleb128 0x1
	.long	0x7808
	.byte	0
	.uleb128 0x16
	.long	.LASF1183
	.byte	0x35
	.value	0x3e6
	.byte	0x1e
	.long	0x931b
	.long	0x9645
	.uleb128 0x1
	.long	0x8f03
	.uleb128 0x1
	.long	0x8f03
	.byte	0
	.uleb128 0x16
	.long	.LASF1184
	.byte	0x35
	.value	0x1ed
	.byte	0x1
	.long	0x8f03
	.long	0x965c
	.uleb128 0x1
	.long	0x77aa
	.byte	0
	.uleb128 0x35
	.long	.LASF1185
	.byte	0x35
	.byte	0xee
	.byte	0x16
	.long	.LASF1186
	.long	0x8f03
	.long	0x9680
	.uleb128 0x1
	.long	0x77aa
	.uleb128 0x1
	.long	0x9588
	.uleb128 0x1
	.long	0x56
	.byte	0
	.uleb128 0x35
	.long	.LASF1187
	.byte	0x35
	.byte	0xf3
	.byte	0x1f
	.long	.LASF1188
	.long	0x8f2f
	.long	0x96a4
	.uleb128 0x1
	.long	0x77aa
	.uleb128 0x1
	.long	0x9588
	.uleb128 0x1
	.long	0x56
	.byte	0
	.uleb128 0x25
	.long	.LASF1189
	.byte	0x35
	.byte	0x7c
	.byte	0xe
	.long	0x30
	.long	0x96bf
	.uleb128 0x1
	.long	0x77aa
	.uleb128 0x1
	.long	0x9588
	.byte	0
	.uleb128 0x25
	.long	.LASF1190
	.byte	0x35
	.byte	0x7f
	.byte	0x14
	.long	0x8ed7
	.long	0x96da
	.uleb128 0x1
	.long	0x77aa
	.uleb128 0x1
	.long	0x9588
	.byte	0
	.uleb128 0x1b
	.long	.LASF1191
	.byte	0x10
	.byte	0x3c
	.byte	0xa
	.byte	0x10
	.long	0x9702
	.uleb128 0xf
	.long	.LASF1192
	.byte	0x3c
	.byte	0xc
	.byte	0xb
	.long	0x9238
	.byte	0
	.uleb128 0xf
	.long	.LASF1193
	.byte	0x3c
	.byte	0xd
	.byte	0xf
	.long	0x75d2
	.byte	0x8
	.byte	0
	.uleb128 0x8
	.long	.LASF1194
	.byte	0x3c
	.byte	0xe
	.byte	0x3
	.long	0x96da
	.uleb128 0xc2
	.long	.LASF1467
	.byte	0x2e
	.byte	0x2c
	.byte	0xe
	.uleb128 0x7d
	.long	.LASF1195
	.uleb128 0xd
	.long	0x9717
	.uleb128 0xd
	.long	0x75fb
	.uleb128 0x7a
	.long	0x4a
	.long	0x9736
	.uleb128 0x7b
	.long	0x3e
	.byte	0
	.byte	0
	.uleb128 0xd
	.long	0x970e
	.uleb128 0x7d
	.long	.LASF1196
	.uleb128 0xd
	.long	0x973b
	.uleb128 0x7d
	.long	.LASF1197
	.uleb128 0xd
	.long	0x9745
	.uleb128 0xd
	.long	0x9721
	.uleb128 0x7a
	.long	0x4a
	.long	0x9764
	.uleb128 0x7b
	.long	0x3e
	.byte	0x13
	.byte	0
	.uleb128 0x8
	.long	.LASF1198
	.byte	0x3d
	.byte	0x55
	.byte	0x12
	.long	0x9702
	.uleb128 0x7
	.long	0x9764
	.uleb128 0xd
	.long	0x7792
	.uleb128 0x61
	.long	.LASF1199
	.byte	0x3d
	.value	0x352
	.long	0x978c
	.uleb128 0x1
	.long	0x9775
	.byte	0
	.uleb128 0x25
	.long	.LASF1200
	.byte	0x3d
	.byte	0xb8
	.byte	0xc
	.long	0x56
	.long	0x97a2
	.uleb128 0x1
	.long	0x9775
	.byte	0
	.uleb128 0x16
	.long	.LASF1201
	.byte	0x3d
	.value	0x354
	.byte	0xc
	.long	0x56
	.long	0x97b9
	.uleb128 0x1
	.long	0x9775
	.byte	0
	.uleb128 0x16
	.long	.LASF1202
	.byte	0x3d
	.value	0x356
	.byte	0xc
	.long	0x56
	.long	0x97d0
	.uleb128 0x1
	.long	0x9775
	.byte	0
	.uleb128 0x25
	.long	.LASF1203
	.byte	0x3d
	.byte	0xec
	.byte	0xc
	.long	0x56
	.long	0x97e6
	.uleb128 0x1
	.long	0x9775
	.byte	0
	.uleb128 0x16
	.long	.LASF1204
	.byte	0x3d
	.value	0x23f
	.byte	0xc
	.long	0x56
	.long	0x97fd
	.uleb128 0x1
	.long	0x9775
	.byte	0
	.uleb128 0x16
	.long	.LASF1205
	.byte	0x3d
	.value	0x333
	.byte	0xc
	.long	0x56
	.long	0x9819
	.uleb128 0x1
	.long	0x9775
	.uleb128 0x1
	.long	0x9819
	.byte	0
	.uleb128 0xd
	.long	0x9764
	.uleb128 0x16
	.long	.LASF1206
	.byte	0x3d
	.value	0x28e
	.byte	0xe
	.long	0x45
	.long	0x983f
	.uleb128 0x1
	.long	0x45
	.uleb128 0x1
	.long	0x56
	.uleb128 0x1
	.long	0x9775
	.byte	0
	.uleb128 0x16
	.long	.LASF1207
	.byte	0x3d
	.value	0x108
	.byte	0xe
	.long	0x9775
	.long	0x985b
	.uleb128 0x1
	.long	0x77aa
	.uleb128 0x1
	.long	0x77aa
	.byte	0
	.uleb128 0x16
	.long	.LASF1208
	.byte	0x3d
	.value	0x2d8
	.byte	0xf
	.long	0x7515
	.long	0x9881
	.uleb128 0x1
	.long	0x7568
	.uleb128 0x1
	.long	0x7515
	.uleb128 0x1
	.long	0x7515
	.uleb128 0x1
	.long	0x9775
	.byte	0
	.uleb128 0x16
	.long	.LASF1209
	.byte	0x3d
	.value	0x10f
	.byte	0xe
	.long	0x9775
	.long	0x98a2
	.uleb128 0x1
	.long	0x77aa
	.uleb128 0x1
	.long	0x77aa
	.uleb128 0x1
	.long	0x9775
	.byte	0
	.uleb128 0x16
	.long	.LASF1210
	.byte	0x3d
	.value	0x301
	.byte	0xc
	.long	0x56
	.long	0x98c3
	.uleb128 0x1
	.long	0x9775
	.uleb128 0x1
	.long	0x7d86
	.uleb128 0x1
	.long	0x56
	.byte	0
	.uleb128 0x16
	.long	.LASF1211
	.byte	0x3d
	.value	0x339
	.byte	0xc
	.long	0x56
	.long	0x98df
	.uleb128 0x1
	.long	0x9775
	.uleb128 0x1
	.long	0x98df
	.byte	0
	.uleb128 0xd
	.long	0x9770
	.uleb128 0x16
	.long	.LASF1212
	.byte	0x3d
	.value	0x307
	.byte	0x11
	.long	0x7d86
	.long	0x98fb
	.uleb128 0x1
	.long	0x9775
	.byte	0
	.uleb128 0x16
	.long	.LASF1213
	.byte	0x3d
	.value	0x240
	.byte	0xc
	.long	0x56
	.long	0x9912
	.uleb128 0x1
	.long	0x9775
	.byte	0
	.uleb128 0x71
	.long	.LASF1214
	.byte	0x3e
	.byte	0x2f
	.byte	0x1
	.long	0x56
	.uleb128 0x61
	.long	.LASF1215
	.byte	0x3d
	.value	0x364
	.long	0x9930
	.uleb128 0x1
	.long	0x77aa
	.byte	0
	.uleb128 0x25
	.long	.LASF1216
	.byte	0x3d
	.byte	0x9e
	.byte	0xc
	.long	0x56
	.long	0x9946
	.uleb128 0x1
	.long	0x77aa
	.byte	0
	.uleb128 0x25
	.long	.LASF1217
	.byte	0x3d
	.byte	0xa0
	.byte	0xc
	.long	0x56
	.long	0x9961
	.uleb128 0x1
	.long	0x77aa
	.uleb128 0x1
	.long	0x77aa
	.byte	0
	.uleb128 0x61
	.long	.LASF1218
	.byte	0x3d
	.value	0x30c
	.long	0x9973
	.uleb128 0x1
	.long	0x9775
	.byte	0
	.uleb128 0x61
	.long	.LASF1219
	.byte	0x3d
	.value	0x14e
	.long	0x998a
	.uleb128 0x1
	.long	0x9775
	.uleb128 0x1
	.long	0x45
	.byte	0
	.uleb128 0x16
	.long	.LASF1220
	.byte	0x3d
	.value	0x153
	.byte	0xc
	.long	0x56
	.long	0x99b0
	.uleb128 0x1
	.long	0x9775
	.uleb128 0x1
	.long	0x45
	.uleb128 0x1
	.long	0x56
	.uleb128 0x1
	.long	0x7515
	.byte	0
	.uleb128 0x71
	.long	.LASF1221
	.byte	0x3d
	.byte	0xc2
	.byte	0xe
	.long	0x9775
	.uleb128 0x25
	.long	.LASF1222
	.byte	0x3d
	.byte	0xd3
	.byte	0xe
	.long	0x45
	.long	0x99d2
	.uleb128 0x1
	.long	0x45
	.byte	0
	.uleb128 0x16
	.long	.LASF1223
	.byte	0x3d
	.value	0x2d1
	.byte	0xc
	.long	0x56
	.long	0x99ee
	.uleb128 0x1
	.long	0x56
	.uleb128 0x1
	.long	0x9775
	.byte	0
	.uleb128 0x8
	.long	.LASF1224
	.byte	0x3f
	.byte	0x18
	.byte	0x13
	.long	0x9167
	.uleb128 0x8
	.long	.LASF1225
	.byte	0x3f
	.byte	0x19
	.byte	0x14
	.long	0x917f
	.uleb128 0x8
	.long	.LASF1226
	.byte	0x3f
	.byte	0x1a
	.byte	0x14
	.long	0x919c
	.uleb128 0x8
	.long	.LASF1227
	.byte	0x3f
	.byte	0x1b
	.byte	0x14
	.long	0x91b4
	.uleb128 0x8
	.long	.LASF1228
	.byte	0x40
	.byte	0x19
	.byte	0x18
	.long	0x91c0
	.uleb128 0x8
	.long	.LASF1229
	.byte	0x40
	.byte	0x1a
	.byte	0x19
	.long	0x91d8
	.uleb128 0x8
	.long	.LASF1230
	.byte	0x40
	.byte	0x1b
	.byte	0x19
	.long	0x91f0
	.uleb128 0x8
	.long	.LASF1231
	.byte	0x40
	.byte	0x1c
	.byte	0x19
	.long	0x9208
	.uleb128 0x8
	.long	.LASF1232
	.byte	0x40
	.byte	0x1f
	.byte	0x19
	.long	0x91cc
	.uleb128 0x8
	.long	.LASF1233
	.byte	0x40
	.byte	0x20
	.byte	0x1a
	.long	0x91e4
	.uleb128 0x8
	.long	.LASF1234
	.byte	0x40
	.byte	0x21
	.byte	0x1a
	.long	0x91fc
	.uleb128 0x8
	.long	.LASF1235
	.byte	0x40
	.byte	0x22
	.byte	0x1a
	.long	0x9214
	.uleb128 0x8
	.long	.LASF1236
	.byte	0x41
	.byte	0x2f
	.byte	0x16
	.long	0x8f9c
	.uleb128 0x8
	.long	.LASF1237
	.byte	0x41
	.byte	0x31
	.byte	0x13
	.long	0x7d86
	.uleb128 0x8
	.long	.LASF1238
	.byte	0x41
	.byte	0x32
	.byte	0x13
	.long	0x7d86
	.uleb128 0x8
	.long	.LASF1239
	.byte	0x41
	.byte	0x33
	.byte	0x13
	.long	0x7d86
	.uleb128 0x8
	.long	.LASF1240
	.byte	0x41
	.byte	0x3c
	.byte	0x18
	.long	0x37
	.uleb128 0x8
	.long	.LASF1241
	.byte	0x41
	.byte	0x3e
	.byte	0x1b
	.long	0x3e
	.uleb128 0x8
	.long	.LASF1242
	.byte	0x41
	.byte	0x3f
	.byte	0x1b
	.long	0x3e
	.uleb128 0x8
	.long	.LASF1243
	.byte	0x41
	.byte	0x40
	.byte	0x1b
	.long	0x3e
	.uleb128 0x8
	.long	.LASF1244
	.byte	0x41
	.byte	0x4c
	.byte	0x13
	.long	0x7d86
	.uleb128 0x8
	.long	.LASF1245
	.byte	0x41
	.byte	0x4f
	.byte	0x1b
	.long	0x3e
	.uleb128 0x8
	.long	.LASF1246
	.byte	0x41
	.byte	0x5a
	.byte	0x15
	.long	0x9220
	.uleb128 0x8
	.long	.LASF1247
	.byte	0x41
	.byte	0x5b
	.byte	0x16
	.long	0x922c
	.uleb128 0x2b
	.byte	0x4
	.byte	0x4
	.long	.LASF1248
	.uleb128 0x2b
	.byte	0x8
	.byte	0x4
	.long	.LASF1249
	.uleb128 0x2b
	.byte	0x10
	.byte	0x4
	.long	.LASF1250
	.uleb128 0x2b
	.byte	0x10
	.byte	0x4
	.long	.LASF1251
	.uleb128 0x71
	.long	.LASF1252
	.byte	0x42
	.byte	0x48
	.byte	0x10
	.long	0x9327
	.uleb128 0x25
	.long	.LASF1253
	.byte	0x42
	.byte	0x4f
	.byte	0xf
	.long	0x7d14
	.long	0x9b51
	.uleb128 0x1
	.long	0x9333
	.uleb128 0x1
	.long	0x9333
	.byte	0
	.uleb128 0x25
	.long	.LASF1254
	.byte	0x42
	.byte	0x52
	.byte	0xf
	.long	0x9333
	.long	0x9b67
	.uleb128 0x1
	.long	0x9b67
	.byte	0
	.uleb128 0xd
	.long	0x7b9a
	.uleb128 0x25
	.long	.LASF1255
	.byte	0x42
	.byte	0x4c
	.byte	0xf
	.long	0x9333
	.long	0x9b82
	.uleb128 0x1
	.long	0x9b82
	.byte	0
	.uleb128 0xd
	.long	0x9333
	.uleb128 0x25
	.long	.LASF1256
	.byte	0x42
	.byte	0xb3
	.byte	0xe
	.long	0x45
	.long	0x9b9d
	.uleb128 0x1
	.long	0x7b95
	.byte	0
	.uleb128 0x25
	.long	.LASF1257
	.byte	0x42
	.byte	0xb7
	.byte	0xe
	.long	0x45
	.long	0x9bb3
	.uleb128 0x1
	.long	0x9bb3
	.byte	0
	.uleb128 0xd
	.long	0x933f
	.uleb128 0x25
	.long	.LASF1258
	.byte	0x42
	.byte	0x84
	.byte	0x13
	.long	0x9b67
	.long	0x9bce
	.uleb128 0x1
	.long	0x9bb3
	.byte	0
	.uleb128 0x25
	.long	.LASF1259
	.byte	0x42
	.byte	0x88
	.byte	0x13
	.long	0x9b67
	.long	0x9be4
	.uleb128 0x1
	.long	0x9bb3
	.byte	0
	.uleb128 0x16
	.long	.LASF1260
	.byte	0x42
	.value	0x17f
	.byte	0xc
	.long	0x56
	.long	0x9c00
	.uleb128 0x1
	.long	0x9c00
	.uleb128 0x1
	.long	0x56
	.byte	0
	.uleb128 0xd
	.long	0x9374
	.uleb128 0x8
	.long	.LASF1261
	.byte	0x43
	.byte	0x26
	.byte	0x1b
	.long	0x3e
	.uleb128 0x8
	.long	.LASF1262
	.byte	0x44
	.byte	0x30
	.byte	0x1a
	.long	0x9c1d
	.uleb128 0xd
	.long	0x9197
	.uleb128 0x25
	.long	.LASF1263
	.byte	0x43
	.byte	0x9f
	.byte	0xc
	.long	0x56
	.long	0x9c3d
	.uleb128 0x1
	.long	0x756b
	.uleb128 0x1
	.long	0x9c05
	.byte	0
	.uleb128 0x25
	.long	.LASF1264
	.byte	0x44
	.byte	0x37
	.byte	0xf
	.long	0x756b
	.long	0x9c58
	.uleb128 0x1
	.long	0x756b
	.uleb128 0x1
	.long	0x9c11
	.byte	0
	.uleb128 0x25
	.long	.LASF1265
	.byte	0x44
	.byte	0x34
	.byte	0x12
	.long	0x9c11
	.long	0x9c6e
	.uleb128 0x1
	.long	0x77aa
	.byte	0
	.uleb128 0x25
	.long	.LASF1266
	.byte	0x43
	.byte	0x9b
	.byte	0x11
	.long	0x9c05
	.long	0x9c84
	.uleb128 0x1
	.long	0x77aa
	.byte	0
	.uleb128 0x99
	.long	0x808b
	.uleb128 0xc3
	.string	"fs"
	.byte	0x4
	.byte	0x9
	.byte	0xb
	.long	0xa42
	.uleb128 0xd
	.long	0xac1
	.uleb128 0x7
	.long	0x9c96
	.uleb128 0xa
	.long	0xc5f
	.uleb128 0xa
	.long	0xac1
	.uleb128 0xd
	.long	0x37
	.uleb128 0x7
	.long	0x9caa
	.uleb128 0xd
	.long	0xc5f
	.uleb128 0x7
	.long	0x9cb4
	.uleb128 0xa
	.long	0x37
	.uleb128 0xd
	.long	0x8f90
	.uleb128 0xa
	.long	0x8f90
	.uleb128 0xd
	.long	0xc64
	.uleb128 0x7
	.long	0x9ccd
	.uleb128 0xa
	.long	0xce8
	.uleb128 0xa
	.long	0xc64
	.uleb128 0xa
	.long	0xd28
	.uleb128 0xa
	.long	0xd35
	.uleb128 0xa
	.long	0x814b
	.uleb128 0xa
	.long	0x8157
	.uleb128 0xd
	.long	0xdf8
	.uleb128 0x7
	.long	0x9cf5
	.uleb128 0x28
	.long	0xdf8
	.uleb128 0xa
	.long	0xe9e
	.uleb128 0xa
	.long	0xdf8
	.uleb128 0xd
	.long	0xeaf
	.uleb128 0x7
	.long	0x9d0e
	.uleb128 0xa
	.long	0xf81
	.uleb128 0x28
	.long	0xeaf
	.uleb128 0x28
	.long	0xf75
	.uleb128 0xa
	.long	0xf75
	.uleb128 0xd
	.long	0xdeb
	.uleb128 0x7
	.long	0x9d2c
	.uleb128 0xd
	.long	0x118c
	.uleb128 0xa
	.long	0xfcf
	.uleb128 0x28
	.long	0xdeb
	.uleb128 0xa
	.long	0x1277
	.uleb128 0xd
	.long	0x11b4
	.uleb128 0x7
	.long	0x9d4a
	.uleb128 0xa
	.long	0x12ce
	.uleb128 0xa
	.long	0x1341
	.uleb128 0xa
	.long	0x1d8d
	.uleb128 0x28
	.long	0x11b4
	.uleb128 0xa
	.long	0x1d9e
	.uleb128 0xa
	.long	0x11b4
	.uleb128 0xd
	.long	0x1d8d
	.uleb128 0x7
	.long	0x9d72
	.uleb128 0x28
	.long	0x1334
	.uleb128 0xa
	.long	0x1284
	.uleb128 0x1b
	.long	.LASF1267
	.byte	0x28
	.byte	0x4
	.byte	0xb
	.byte	0x8
	.long	0x9e6b
	.uleb128 0xf
	.long	.LASF1268
	.byte	0x4
	.byte	0xc
	.byte	0xc
	.long	0x7515
	.byte	0
	.uleb128 0xf
	.long	.LASF1269
	.byte	0x4
	.byte	0xd
	.byte	0xc
	.long	0x7515
	.byte	0x8
	.uleb128 0xf
	.long	.LASF221
	.byte	0x4
	.byte	0xe
	.byte	0x20
	.long	0x11b4
	.byte	0x10
	.uleb128 0x42
	.long	.LASF1270
	.byte	0x4
	.byte	0x10
	.byte	0x13
	.long	.LASF1271
	.long	0x7515
	.long	0x9dd2
	.long	0x9de7
	.uleb128 0x2
	.long	0x9e70
	.uleb128 0x1
	.long	0x7515
	.uleb128 0x1
	.long	0x7515
	.uleb128 0x1
	.long	0x7515
	.byte	0
	.uleb128 0x9a
	.string	"at"
	.byte	0x1d
	.byte	0x1b
	.long	.LASF1272
	.long	0x9cbe
	.long	0x9dfe
	.long	0x9e13
	.uleb128 0x2
	.long	0x9e75
	.uleb128 0x1
	.long	0x7515
	.uleb128 0x1
	.long	0x7515
	.uleb128 0x1
	.long	0x7515
	.byte	0
	.uleb128 0x9a
	.string	"at"
	.byte	0x21
	.byte	0x21
	.long	.LASF1273
	.long	0x9cc8
	.long	0x9e2a
	.long	0x9e3f
	.uleb128 0x2
	.long	0x9e70
	.uleb128 0x1
	.long	0x7515
	.uleb128 0x1
	.long	0x7515
	.uleb128 0x1
	.long	0x7515
	.byte	0
	.uleb128 0xc4
	.long	.LASF1274
	.long	.LASF1468
	.long	0x9e51
	.long	0x9e57
	.uleb128 0x2
	.long	0x9e75
	.byte	0
	.uleb128 0x6b
	.long	.LASF1267
	.long	.LASF1275
	.long	0x9e64
	.uleb128 0x2
	.long	0x9e75
	.byte	0
	.byte	0
	.uleb128 0x7
	.long	0x9d86
	.uleb128 0xd
	.long	0x9e6b
	.uleb128 0xd
	.long	0x9d86
	.uleb128 0x7
	.long	0x9e75
	.uleb128 0x1b
	.long	.LASF1276
	.byte	0x30
	.byte	0x4
	.byte	0x26
	.byte	0x8
	.long	0x9eb0
	.uleb128 0xf
	.long	.LASF221
	.byte	0x4
	.byte	0x27
	.byte	0xf
	.long	0x9d86
	.byte	0
	.uleb128 0x41
	.string	"u"
	.byte	0x4
	.byte	0x28
	.byte	0xb
	.long	0x30
	.byte	0x28
	.uleb128 0x41
	.string	"v"
	.byte	0x4
	.byte	0x29
	.byte	0xb
	.long	0x30
	.byte	0x2c
	.byte	0
	.uleb128 0x7
	.long	0x9e7f
	.uleb128 0x8
	.long	.LASF1277
	.byte	0x45
	.byte	0xa7
	.byte	0xf
	.long	0x30
	.uleb128 0x8
	.long	.LASF1278
	.byte	0x45
	.byte	0xa8
	.byte	0x10
	.long	0x7d14
	.uleb128 0x2b
	.byte	0x8
	.byte	0x4
	.long	.LASF1279
	.uleb128 0x2b
	.byte	0x10
	.byte	0x4
	.long	.LASF1280
	.uleb128 0x69
	.long	.LASF1281
	.byte	0x46
	.byte	0xf
	.byte	0xb
	.long	0x9efa
	.uleb128 0xc5
	.long	.LASF1469
	.byte	0x46
	.byte	0x11
	.byte	0xb
	.uleb128 0x88
	.string	"v1"
	.byte	0x46
	.byte	0x13
	.byte	0x12
	.byte	0
	.byte	0
	.uleb128 0x8
	.long	.LASF1282
	.byte	0x47
	.byte	0x2c
	.byte	0xd
	.long	0x9f06
	.uleb128 0x59
	.long	0x56
	.long	0x9f12
	.uleb128 0x5a
	.byte	0x1
	.byte	0
	.uleb128 0x7e
	.long	.LASF1283
	.byte	0x47
	.byte	0x31
	.byte	0xd
	.long	0x9f06
	.uleb128 0x5
	.byte	0x48
	.byte	0x27
	.byte	0xc
	.long	0x93c3
	.uleb128 0x5
	.byte	0x48
	.byte	0x2b
	.byte	0xe
	.long	0x93e1
	.uleb128 0x5
	.byte	0x48
	.byte	0x2e
	.byte	0xe
	.long	0x9539
	.uleb128 0x5
	.byte	0x48
	.byte	0x36
	.byte	0xc
	.long	0x92b3
	.uleb128 0x5
	.byte	0x48
	.byte	0x37
	.byte	0xc
	.long	0x92e7
	.uleb128 0x5
	.byte	0x48
	.byte	0x39
	.byte	0xc
	.long	0x1dc4
	.uleb128 0x5
	.byte	0x48
	.byte	0x39
	.byte	0xc
	.long	0x1ddd
	.uleb128 0x5
	.byte	0x48
	.byte	0x39
	.byte	0xc
	.long	0x1df6
	.uleb128 0x5
	.byte	0x48
	.byte	0x39
	.byte	0xc
	.long	0x1e0f
	.uleb128 0x5
	.byte	0x48
	.byte	0x39
	.byte	0xc
	.long	0x1e28
	.uleb128 0x5
	.byte	0x48
	.byte	0x39
	.byte	0xc
	.long	0x1e41
	.uleb128 0x5
	.byte	0x48
	.byte	0x39
	.byte	0xc
	.long	0x1e5a
	.uleb128 0x5
	.byte	0x48
	.byte	0x3a
	.byte	0xc
	.long	0x93fc
	.uleb128 0x5
	.byte	0x48
	.byte	0x3b
	.byte	0xc
	.long	0x9412
	.uleb128 0x5
	.byte	0x48
	.byte	0x3c
	.byte	0xc
	.long	0x9429
	.uleb128 0x5
	.byte	0x48
	.byte	0x3d
	.byte	0xc
	.long	0x9440
	.uleb128 0x5
	.byte	0x48
	.byte	0x3f
	.byte	0xc
	.long	0x8042
	.uleb128 0x5
	.byte	0x48
	.byte	0x3f
	.byte	0xc
	.long	0x1e73
	.uleb128 0x5
	.byte	0x48
	.byte	0x3f
	.byte	0xc
	.long	0x946a
	.uleb128 0x5
	.byte	0x48
	.byte	0x41
	.byte	0xc
	.long	0x9487
	.uleb128 0x5
	.byte	0x48
	.byte	0x43
	.byte	0xc
	.long	0x949e
	.uleb128 0x5
	.byte	0x48
	.byte	0x46
	.byte	0xc
	.long	0x94ba
	.uleb128 0x5
	.byte	0x48
	.byte	0x47
	.byte	0xc
	.long	0x94d6
	.uleb128 0x5
	.byte	0x48
	.byte	0x48
	.byte	0xc
	.long	0x94f7
	.uleb128 0x5
	.byte	0x48
	.byte	0x4a
	.byte	0xc
	.long	0x9518
	.uleb128 0x5
	.byte	0x48
	.byte	0x4b
	.byte	0xc
	.long	0x954d
	.uleb128 0x5
	.byte	0x48
	.byte	0x4d
	.byte	0xc
	.long	0x955b
	.uleb128 0x5
	.byte	0x48
	.byte	0x4e
	.byte	0xc
	.long	0x956d
	.uleb128 0x5
	.byte	0x48
	.byte	0x4f
	.byte	0xc
	.long	0x958d
	.uleb128 0x5
	.byte	0x48
	.byte	0x50
	.byte	0xc
	.long	0x95b1
	.uleb128 0x5
	.byte	0x48
	.byte	0x51
	.byte	0xc
	.long	0x95d5
	.uleb128 0x5
	.byte	0x48
	.byte	0x53
	.byte	0xc
	.long	0x95ec
	.uleb128 0x5
	.byte	0x48
	.byte	0x54
	.byte	0xc
	.long	0x960d
	.uleb128 0x2b
	.byte	0x4
	.byte	0x4
	.long	.LASF2
	.uleb128 0x8
	.long	.LASF1284
	.byte	0xe
	.byte	0x2f
	.byte	0xe
	.long	0xa039
	.uleb128 0x59
	.long	0x4a
	.long	0xa045
	.uleb128 0x5a
	.byte	0xf
	.byte	0
	.uleb128 0x8
	.long	.LASF1285
	.byte	0xe
	.byte	0x35
	.byte	0x13
	.long	0xa051
	.uleb128 0x59
	.long	0x8f03
	.long	0xa05d
	.uleb128 0x5a
	.byte	0x1
	.byte	0
	.uleb128 0x7e
	.long	.LASF1286
	.byte	0xe
	.byte	0x39
	.byte	0x13
	.long	0xa051
	.uleb128 0x7
	.long	0xa05d
	.uleb128 0x2b
	.byte	0x8
	.byte	0x4
	.long	.LASF932
	.uleb128 0x8
	.long	.LASF1287
	.byte	0xd
	.byte	0x2a
	.byte	0xf
	.long	0xa081
	.uleb128 0x59
	.long	0x30
	.long	0xa08d
	.uleb128 0x5a
	.byte	0x7
	.byte	0
	.uleb128 0x8
	.long	.LASF1288
	.byte	0xd
	.byte	0x2d
	.byte	0xd
	.long	0xa099
	.uleb128 0x59
	.long	0x56
	.long	0xa0a5
	.uleb128 0x5a
	.byte	0x7
	.byte	0
	.uleb128 0x8
	.long	.LASF1289
	.byte	0xd
	.byte	0x37
	.byte	0xf
	.long	0xa0b6
	.uleb128 0x7
	.long	0xa0a5
	.uleb128 0x59
	.long	0x30
	.long	0xa0c2
	.uleb128 0x5a
	.byte	0x7
	.byte	0
	.uleb128 0x8
	.long	.LASF1290
	.byte	0xd
	.byte	0x39
	.byte	0x13
	.long	0xa0ce
	.uleb128 0x59
	.long	0x8f03
	.long	0xa0da
	.uleb128 0x5a
	.byte	0x3
	.byte	0
	.uleb128 0x7e
	.long	.LASF1291
	.byte	0xd
	.byte	0x3f
	.byte	0xf
	.long	0xa0b6
	.uleb128 0x2b
	.byte	0x2
	.byte	0x4
	.long	.LASF1292
	.uleb128 0x2b
	.byte	0x2
	.byte	0x4
	.long	.LASF1293
	.uleb128 0xc6
	.long	0xa193
	.uleb128 0x1b
	.long	.LASF1294
	.byte	0x30
	.byte	0x1
	.byte	0x1a
	.byte	0x8
	.long	0xa18d
	.uleb128 0x41
	.string	"sx"
	.byte	0x1
	.byte	0x1b
	.byte	0x9
	.long	0x56
	.byte	0
	.uleb128 0x41
	.string	"sy"
	.byte	0x1
	.byte	0x1b
	.byte	0xd
	.long	0x56
	.byte	0x4
	.uleb128 0x41
	.string	"A"
	.byte	0x1
	.byte	0x1c
	.byte	0xb
	.long	0x30
	.byte	0x8
	.uleb128 0x41
	.string	"B"
	.byte	0x1
	.byte	0x1c
	.byte	0xe
	.long	0x30
	.byte	0xc
	.uleb128 0x41
	.string	"C"
	.byte	0x1
	.byte	0x1c
	.byte	0x11
	.long	0x30
	.byte	0x10
	.uleb128 0x41
	.string	"D"
	.byte	0x1
	.byte	0x1c
	.byte	0x14
	.long	0x30
	.byte	0x14
	.uleb128 0xf
	.long	.LASF1295
	.byte	0x1
	.byte	0x1d
	.byte	0x9
	.long	0x56
	.byte	0x18
	.uleb128 0xf
	.long	.LASF1296
	.byte	0x1
	.byte	0x1d
	.byte	0x12
	.long	0x56
	.byte	0x1c
	.uleb128 0xf
	.long	.LASF1297
	.byte	0x1
	.byte	0x1d
	.byte	0x19
	.long	0x56
	.byte	0x20
	.uleb128 0xf
	.long	.LASF1298
	.byte	0x1
	.byte	0x1d
	.byte	0x22
	.long	0x56
	.byte	0x24
	.uleb128 0x41
	.string	"SUB"
	.byte	0x1
	.byte	0x1e
	.byte	0x1a
	.long	0x9cc3
	.byte	0x28
	.byte	0
	.uleb128 0x7
	.long	0xa0fa
	.byte	0
	.uleb128 0xd
	.long	0x1e91
	.uleb128 0xa
	.long	0x202f
	.uleb128 0xa
	.long	0x1e91
	.uleb128 0xd
	.long	0x9e7f
	.uleb128 0x7
	.long	0xa1a2
	.uleb128 0xd
	.long	0x202f
	.uleb128 0xa
	.long	0x9e7f
	.uleb128 0xd
	.long	0x9eb0
	.uleb128 0x7
	.long	0xa1b6
	.uleb128 0xa
	.long	0x9eb0
	.uleb128 0xd
	.long	0x2034
	.uleb128 0xa
	.long	0x20b8
	.uleb128 0xa
	.long	0x2034
	.uleb128 0xa
	.long	0x20f8
	.uleb128 0xa
	.long	0x2105
	.uleb128 0xa
	.long	0x8492
	.uleb128 0xa
	.long	0x849e
	.uleb128 0xd
	.long	0x21c8
	.uleb128 0x28
	.long	0x21c8
	.uleb128 0xa
	.long	0x226e
	.uleb128 0xa
	.long	0x21c8
	.uleb128 0xd
	.long	0x227f
	.uleb128 0xa
	.long	0x2338
	.uleb128 0x28
	.long	0x227f
	.uleb128 0x28
	.long	0x232c
	.uleb128 0xa
	.long	0x232c
	.uleb128 0xd
	.long	0x21bb
	.uleb128 0xd
	.long	0x2543
	.uleb128 0xa
	.long	0x2386
	.uleb128 0x28
	.long	0x21bb
	.uleb128 0xa
	.long	0x262e
	.uleb128 0xd
	.long	0x256b
	.uleb128 0x7
	.long	0xa22e
	.uleb128 0xa
	.long	0x2685
	.uleb128 0xa
	.long	0x26f3
	.uleb128 0xa
	.long	0x3113
	.uleb128 0x28
	.long	0x256b
	.uleb128 0xa
	.long	0x3124
	.uleb128 0xa
	.long	0x256b
	.uleb128 0xd
	.long	0x3113
	.uleb128 0x7
	.long	0xa256
	.uleb128 0x28
	.long	0x26e6
	.uleb128 0xa
	.long	0x263b
	.uleb128 0xd
	.long	0x3138
	.uleb128 0x7
	.long	0xa26a
	.uleb128 0xa
	.long	0x32e4
	.uleb128 0xa
	.long	0x3138
	.uleb128 0xd
	.long	0xa0fa
	.uleb128 0x7
	.long	0xa27e
	.uleb128 0xd
	.long	0x32e4
	.uleb128 0x7
	.long	0xa288
	.uleb128 0xa
	.long	0xa0fa
	.uleb128 0xd
	.long	0xa18d
	.uleb128 0xa
	.long	0xa18d
	.uleb128 0xd
	.long	0x32e9
	.uleb128 0x7
	.long	0xa2a1
	.uleb128 0xa
	.long	0x3361
	.uleb128 0xa
	.long	0x32e9
	.uleb128 0xa
	.long	0x339d
	.uleb128 0xa
	.long	0x33aa
	.uleb128 0xa
	.long	0x89ed
	.uleb128 0xa
	.long	0x89f9
	.uleb128 0xd
	.long	0x348f
	.uleb128 0x7
	.long	0xa2c9
	.uleb128 0x28
	.long	0x348f
	.uleb128 0xa
	.long	0x3522
	.uleb128 0xa
	.long	0x348f
	.uleb128 0xd
	.long	0x3533
	.uleb128 0x7
	.long	0xa2e2
	.uleb128 0xa
	.long	0x35e4
	.uleb128 0x28
	.long	0x3533
	.uleb128 0x28
	.long	0x35d8
	.uleb128 0xa
	.long	0x35d8
	.uleb128 0xd
	.long	0x3482
	.uleb128 0x7
	.long	0xa300
	.uleb128 0xd
	.long	0x37bd
	.uleb128 0x7
	.long	0xa30a
	.uleb128 0xa
	.long	0x362a
	.uleb128 0x28
	.long	0x3482
	.uleb128 0xa
	.long	0x389d
	.uleb128 0xd
	.long	0x37e5
	.uleb128 0x7
	.long	0xa323
	.uleb128 0xa
	.long	0x38ed
	.uleb128 0xa
	.long	0x3958
	.uleb128 0xa
	.long	0x4341
	.uleb128 0x28
	.long	0x37e5
	.uleb128 0xa
	.long	0x4352
	.uleb128 0xa
	.long	0x37e5
	.uleb128 0xd
	.long	0x4341
	.uleb128 0x7
	.long	0xa34b
	.uleb128 0x28
	.long	0x394b
	.uleb128 0xa
	.long	0x38aa
	.uleb128 0xd
	.long	0x84f4
	.uleb128 0x7
	.long	0xa35f
	.uleb128 0xa
	.long	0xa1a7
	.uleb128 0xd
	.long	0x8722
	.uleb128 0x7
	.long	0xa36e
	.uleb128 0xa
	.long	0x84f4
	.uleb128 0xd
	.long	0x43a1
	.uleb128 0x7
	.long	0xa37d
	.uleb128 0xa
	.long	0x453f
	.uleb128 0xa
	.long	0x43a1
	.uleb128 0xd
	.long	0x56
	.uleb128 0x7
	.long	0xa391
	.uleb128 0xd
	.long	0x453f
	.uleb128 0x7
	.long	0xa39b
	.uleb128 0xa
	.long	0x56
	.uleb128 0xa
	.long	0x5e
	.uleb128 0xd
	.long	0x4544
	.uleb128 0x7
	.long	0xa3af
	.uleb128 0xa
	.long	0x45c8
	.uleb128 0xa
	.long	0x4544
	.uleb128 0xa
	.long	0x4608
	.uleb128 0xa
	.long	0x4615
	.uleb128 0xa
	.long	0x8cfc
	.uleb128 0xa
	.long	0x8d08
	.uleb128 0xd
	.long	0x46d8
	.uleb128 0x7
	.long	0xa3d7
	.uleb128 0x28
	.long	0x46d8
	.uleb128 0xa
	.long	0x477e
	.uleb128 0xa
	.long	0x46d8
	.uleb128 0xd
	.long	0x478f
	.uleb128 0x7
	.long	0xa3f0
	.uleb128 0xa
	.long	0x4861
	.uleb128 0x28
	.long	0x478f
	.uleb128 0x28
	.long	0x4855
	.uleb128 0xa
	.long	0x4855
	.uleb128 0xd
	.long	0x46cb
	.uleb128 0x7
	.long	0xa40e
	.uleb128 0xd
	.long	0x4a6c
	.uleb128 0xa
	.long	0x48af
	.uleb128 0x28
	.long	0x46cb
	.uleb128 0xa
	.long	0x4b57
	.uleb128 0xd
	.long	0x4a94
	.uleb128 0x7
	.long	0xa42c
	.uleb128 0xa
	.long	0x4bae
	.uleb128 0xa
	.long	0x4c1c
	.uleb128 0xa
	.long	0x563c
	.uleb128 0x28
	.long	0x4a94
	.uleb128 0xa
	.long	0x564d
	.uleb128 0xa
	.long	0x4a94
	.uleb128 0xd
	.long	0x563c
	.uleb128 0x28
	.long	0x4c0f
	.uleb128 0xa
	.long	0x4b64
	.uleb128 0xd
	.long	0x5652
	.uleb128 0xd
	.long	0x573f
	.uleb128 0xd
	.long	0x8a4f
	.uleb128 0x7
	.long	0xa46d
	.uleb128 0xa
	.long	0xa283
	.uleb128 0xd
	.long	0x8c45
	.uleb128 0x7
	.long	0xa47c
	.uleb128 0xa
	.long	0x8a4f
	.uleb128 0xd
	.long	0x5789
	.uleb128 0x7
	.long	0xa48b
	.uleb128 0xa
	.long	0x5927
	.uleb128 0xa
	.long	0x5789
	.uleb128 0xd
	.long	0x30
	.uleb128 0x7
	.long	0xa49f
	.uleb128 0xd
	.long	0x5927
	.uleb128 0x7
	.long	0xa4a9
	.uleb128 0xa
	.long	0x30
	.uleb128 0xd
	.long	0x7d3c
	.uleb128 0xa
	.long	0x7d3c
	.uleb128 0xd
	.long	0x592c
	.uleb128 0x7
	.long	0xa4c2
	.uleb128 0xa
	.long	0x59b0
	.uleb128 0xa
	.long	0x592c
	.uleb128 0xa
	.long	0x59f0
	.uleb128 0xa
	.long	0x59fd
	.uleb128 0xa
	.long	0x8e15
	.uleb128 0xa
	.long	0x8e21
	.uleb128 0xd
	.long	0x5ac0
	.uleb128 0x7
	.long	0xa4ea
	.uleb128 0x28
	.long	0x5ac0
	.uleb128 0xa
	.long	0x5b66
	.uleb128 0xa
	.long	0x5ac0
	.uleb128 0xd
	.long	0x5b77
	.uleb128 0x7
	.long	0xa503
	.uleb128 0xa
	.long	0x5c49
	.uleb128 0x28
	.long	0x5b77
	.uleb128 0x28
	.long	0x5c3d
	.uleb128 0xa
	.long	0x5c3d
	.uleb128 0xd
	.long	0x5ab3
	.uleb128 0x7
	.long	0xa521
	.uleb128 0xd
	.long	0x5e54
	.uleb128 0xa
	.long	0x5c97
	.uleb128 0x28
	.long	0x5ab3
	.uleb128 0xa
	.long	0x5f3f
	.uleb128 0xd
	.long	0x5e7c
	.uleb128 0x7
	.long	0xa53f
	.uleb128 0xa
	.long	0x5f96
	.uleb128 0xa
	.long	0x6004
	.uleb128 0xa
	.long	0x6a50
	.uleb128 0x28
	.long	0x5e7c
	.uleb128 0xa
	.long	0x6a61
	.uleb128 0xa
	.long	0x5e7c
	.uleb128 0xd
	.long	0x6a50
	.uleb128 0x7
	.long	0xa567
	.uleb128 0x28
	.long	0x5ff7
	.uleb128 0xa
	.long	0x5f4c
	.uleb128 0xd
	.long	0x6a66
	.uleb128 0xd
	.long	0x6b53
	.uleb128 0xd
	.long	0x8727
	.uleb128 0xa
	.long	0xa1bb
	.uleb128 0xd
	.long	0x8955
	.uleb128 0xa
	.long	0x8727
	.uleb128 0xd
	.long	0x81ad
	.uleb128 0x7
	.long	0xa599
	.uleb128 0xa
	.long	0x9caf
	.uleb128 0xd
	.long	0x83db
	.uleb128 0x7
	.long	0xa5a8
	.uleb128 0xa
	.long	0x81ad
	.uleb128 0xa
	.long	0x424b
	.uleb128 0xd
	.long	0x4258
	.uleb128 0x7
	.long	0xa5bc
	.uleb128 0xa
	.long	0x42fd
	.uleb128 0xd
	.long	0x6c03
	.uleb128 0x7
	.long	0xa5cb
	.uleb128 0xa
	.long	0xa391
	.uleb128 0xd
	.long	0xa391
	.uleb128 0xa
	.long	0x6cd0
	.uleb128 0xd
	.long	0x6cd5
	.uleb128 0x7
	.long	0xa5e4
	.uleb128 0xa
	.long	0xa49f
	.uleb128 0xd
	.long	0xa49f
	.uleb128 0xa
	.long	0x6da2
	.uleb128 0x99
	.long	0x6da7
	.uleb128 0x49
	.long	.LASF1299
	.byte	0x49
	.byte	0x6e
	.byte	0x6
	.long	.LASF1300
	.long	0xa61e
	.uleb128 0x1
	.long	0x7568
	.uleb128 0x1
	.long	0x2c3
	.byte	0
	.uleb128 0x35
	.long	.LASF1301
	.byte	0x49
	.byte	0x63
	.byte	0x1a
	.long	.LASF1302
	.long	0x7568
	.long	0xa638
	.uleb128 0x1
	.long	0x2c3
	.byte	0
	.uleb128 0xb
	.long	0xbbe
	.long	0xa646
	.byte	0x3
	.long	0xa661
	.uleb128 0x9
	.long	.LASF1303
	.long	0x9c9b
	.uleb128 0x26
	.string	"__n"
	.byte	0x6
	.byte	0x81
	.byte	0x1a
	.long	0xbe7
	.uleb128 0x1
	.long	0x8fc9
	.byte	0
	.uleb128 0xb
	.long	0xc37
	.long	0xa66f
	.byte	0x3
	.long	0xa679
	.uleb128 0x9
	.long	.LASF1303
	.long	0x9cb9
	.byte	0
	.uleb128 0x15
	.long	0x6d6f
	.byte	0x3
	.long	0xa6a5
	.uleb128 0xc
	.long	.LASF742
	.long	0xa49f
	.uleb128 0x3b
	.long	.LASF1304
	.byte	0xc
	.byte	0x8e
	.byte	0x13
	.long	0xa49f
	.uleb128 0x3b
	.long	.LASF1305
	.byte	0xc
	.byte	0x8e
	.byte	0x22
	.long	0xa49f
	.byte	0
	.uleb128 0x15
	.long	0x6c9d
	.byte	0x3
	.long	0xa6d1
	.uleb128 0xc
	.long	.LASF742
	.long	0xa391
	.uleb128 0x3b
	.long	.LASF1304
	.byte	0xc
	.byte	0x8e
	.byte	0x13
	.long	0xa391
	.uleb128 0x3b
	.long	.LASF1305
	.byte	0xc
	.byte	0x8e
	.byte	0x22
	.long	0xa391
	.byte	0
	.uleb128 0x15
	.long	0xd08
	.byte	0x3
	.long	0xa6f6
	.uleb128 0xe
	.string	"__a"
	.byte	0x8
	.value	0x27d
	.byte	0x20
	.long	0x9ce1
	.uleb128 0xe
	.string	"__n"
	.byte	0x8
	.value	0x27d
	.byte	0x2f
	.long	0xd3a
	.byte	0
	.uleb128 0xb
	.long	0xc18
	.long	0xa704
	.byte	0x3
	.long	0xa70e
	.uleb128 0x9
	.long	.LASF1303
	.long	0x9cb9
	.byte	0
	.uleb128 0xb
	.long	0x6d1b
	.long	0xa71c
	.byte	0x3
	.long	0xa726
	.uleb128 0x9
	.long	.LASF1303
	.long	0xa5e9
	.byte	0
	.uleb128 0x15
	.long	0x6de4
	.byte	0x3
	.long	0xa763
	.uleb128 0x11
	.string	"_Tp"
	.long	0x30
	.uleb128 0x47
	.long	.LASF427
	.long	0xa748
	.uleb128 0x48
	.long	0xa4bd
	.byte	0
	.uleb128 0x26
	.string	"__p"
	.byte	0xb
	.byte	0x7b
	.byte	0x15
	.long	0xa49f
	.uleb128 0x7f
	.long	.LASF1308
	.byte	0xb
	.byte	0x7b
	.byte	0x21
	.uleb128 0x1
	.long	0xa4bd
	.byte	0
	.byte	0
	.uleb128 0xb
	.long	0x6d01
	.long	0xa771
	.byte	0x2
	.long	0xa77b
	.uleb128 0x9
	.long	.LASF1303
	.long	0xa5e9
	.byte	0
	.uleb128 0x1a
	.long	0xa763
	.long	.LASF1306
	.long	0xa78c
	.long	0xa792
	.uleb128 0x3
	.long	0xa771
	.byte	0
	.uleb128 0xb
	.long	0x6ce2
	.long	0xa7a0
	.byte	0x2
	.long	0xa7b6
	.uleb128 0x9
	.long	.LASF1303
	.long	0xa5e9
	.uleb128 0x3b
	.long	.LASF1304
	.byte	0xc
	.byte	0x71
	.byte	0x2d
	.long	0xa5ee
	.byte	0
	.uleb128 0x1a
	.long	0xa792
	.long	.LASF1307
	.long	0xa7c7
	.long	0xa7d2
	.uleb128 0x3
	.long	0xa7a0
	.uleb128 0x3
	.long	0xa7a9
	.byte	0
	.uleb128 0xb
	.long	0x5886
	.long	0xa7e0
	.byte	0x3
	.long	0xa7fb
	.uleb128 0x9
	.long	.LASF1303
	.long	0xa490
	.uleb128 0x26
	.string	"__n"
	.byte	0x6
	.byte	0x81
	.byte	0x1a
	.long	0x58af
	.uleb128 0x1
	.long	0x8fc9
	.byte	0
	.uleb128 0xb
	.long	0x58ff
	.long	0xa809
	.byte	0x3
	.long	0xa813
	.uleb128 0x9
	.long	.LASF1303
	.long	0xa4ae
	.byte	0
	.uleb128 0xb
	.long	0x6c49
	.long	0xa821
	.byte	0x3
	.long	0xa82b
	.uleb128 0x9
	.long	.LASF1303
	.long	0xa5d0
	.byte	0
	.uleb128 0x15
	.long	0x6e17
	.byte	0x3
	.long	0xa868
	.uleb128 0x11
	.string	"_Tp"
	.long	0x56
	.uleb128 0x47
	.long	.LASF427
	.long	0xa84d
	.uleb128 0x48
	.long	0xa3aa
	.byte	0
	.uleb128 0x26
	.string	"__p"
	.byte	0xb
	.byte	0x7b
	.byte	0x15
	.long	0xa391
	.uleb128 0x7f
	.long	.LASF1308
	.byte	0xb
	.byte	0x7b
	.byte	0x21
	.uleb128 0x1
	.long	0xa3aa
	.byte	0
	.byte	0
	.uleb128 0xb
	.long	0x6c2f
	.long	0xa876
	.byte	0x2
	.long	0xa880
	.uleb128 0x9
	.long	.LASF1303
	.long	0xa5d0
	.byte	0
	.uleb128 0x1a
	.long	0xa868
	.long	.LASF1309
	.long	0xa891
	.long	0xa897
	.uleb128 0x3
	.long	0xa876
	.byte	0
	.uleb128 0xb
	.long	0x6c10
	.long	0xa8a5
	.byte	0x2
	.long	0xa8bb
	.uleb128 0x9
	.long	.LASF1303
	.long	0xa5d0
	.uleb128 0x3b
	.long	.LASF1304
	.byte	0xc
	.byte	0x71
	.byte	0x2d
	.long	0xa5d5
	.byte	0
	.uleb128 0x1a
	.long	0xa897
	.long	.LASF1310
	.long	0xa8cc
	.long	0xa8d7
	.uleb128 0x3
	.long	0xa8a5
	.uleb128 0x3
	.long	0xa8ae
	.byte	0
	.uleb128 0xb
	.long	0x449e
	.long	0xa8e5
	.byte	0x3
	.long	0xa900
	.uleb128 0x9
	.long	.LASF1303
	.long	0xa382
	.uleb128 0x26
	.string	"__n"
	.byte	0x6
	.byte	0x81
	.byte	0x1a
	.long	0x44c7
	.uleb128 0x1
	.long	0x8fc9
	.byte	0
	.uleb128 0xb
	.long	0x4517
	.long	0xa90e
	.byte	0x3
	.long	0xa918
	.uleb128 0x9
	.long	.LASF1303
	.long	0xa3a0
	.byte	0
	.uleb128 0x15
	.long	0x6e4a
	.byte	0x3
	.long	0xa978
	.uleb128 0x11
	.string	"_Up"
	.long	0x37
	.uleb128 0x11
	.string	"_Tp"
	.long	0x37
	.uleb128 0x13
	.long	.LASF1304
	.byte	0xa
	.value	0x3a7
	.byte	0x14
	.long	0x9caa
	.uleb128 0x13
	.long	.LASF1305
	.byte	0xa
	.value	0x3a7
	.byte	0x22
	.long	0x9caa
	.uleb128 0xe
	.string	"__x"
	.byte	0xa
	.value	0x3a7
	.byte	0x35
	.long	0x9cc8
	.uleb128 0x29
	.long	.LASF1311
	.byte	0xa
	.value	0x3ab
	.byte	0x11
	.long	0x8f90
	.uleb128 0x45
	.uleb128 0x29
	.long	.LASF1312
	.byte	0xa
	.value	0x3b4
	.byte	0x18
	.long	0x2d0
	.byte	0
	.byte	0
	.uleb128 0xb
	.long	0x1112
	.long	0xa986
	.byte	0x3
	.long	0xa99d
	.uleb128 0x9
	.long	.LASF1303
	.long	0x9d31
	.uleb128 0xe
	.string	"__n"
	.byte	0x2
	.value	0x182
	.byte	0x1a
	.long	0x2c3
	.byte	0
	.uleb128 0x15
	.long	0xd9a
	.byte	0x3
	.long	0xa9b5
	.uleb128 0xe
	.string	"__a"
	.byte	0x8
	.value	0x2ed
	.byte	0x26
	.long	0x9ce6
	.byte	0
	.uleb128 0x15
	.long	0x6e7d
	.byte	0x1
	.long	0xaa0f
	.uleb128 0xc
	.long	.LASF743
	.long	0xa49f
	.uleb128 0xc
	.long	.LASF765
	.long	0x3e
	.uleb128 0x11
	.string	"_Tp"
	.long	0x30
	.uleb128 0x13
	.long	.LASF1304
	.byte	0xc
	.value	0x1dd
	.byte	0x29
	.long	0xa49f
	.uleb128 0xe
	.string	"__n"
	.byte	0xc
	.value	0x1dd
	.byte	0x38
	.long	0x3e
	.uleb128 0xe
	.string	"__x"
	.byte	0xc
	.value	0x1dd
	.byte	0x48
	.long	0xa4bd
	.uleb128 0x29
	.long	.LASF1313
	.byte	0xc
	.value	0x1df
	.byte	0x2d
	.long	0x6cd5
	.byte	0
	.uleb128 0xb
	.long	0x58bb
	.long	0xaa1d
	.byte	0x3
	.long	0xaa3f
	.uleb128 0x9
	.long	.LASF1303
	.long	0xa490
	.uleb128 0x26
	.string	"__p"
	.byte	0x6
	.byte	0xa7
	.byte	0x17
	.long	0xa49f
	.uleb128 0x26
	.string	"__n"
	.byte	0x6
	.byte	0xa7
	.byte	0x26
	.long	0x58af
	.byte	0
	.uleb128 0x15
	.long	0x59d0
	.byte	0x3
	.long	0xaa64
	.uleb128 0xe
	.string	"__a"
	.byte	0x8
	.value	0x27d
	.byte	0x20
	.long	0xa4d6
	.uleb128 0xe
	.string	"__n"
	.byte	0x8
	.value	0x27d
	.byte	0x2f
	.long	0x5a02
	.byte	0
	.uleb128 0xb
	.long	0x58e0
	.long	0xaa72
	.byte	0x3
	.long	0xaa7c
	.uleb128 0x9
	.long	.LASF1303
	.long	0xa4ae
	.byte	0
	.uleb128 0x15
	.long	0x6ebd
	.byte	0x1
	.long	0xaad6
	.uleb128 0xc
	.long	.LASF743
	.long	0xa391
	.uleb128 0xc
	.long	.LASF765
	.long	0x3e
	.uleb128 0x11
	.string	"_Tp"
	.long	0x56
	.uleb128 0x13
	.long	.LASF1304
	.byte	0xc
	.value	0x1dd
	.byte	0x29
	.long	0xa391
	.uleb128 0xe
	.string	"__n"
	.byte	0xc
	.value	0x1dd
	.byte	0x38
	.long	0x3e
	.uleb128 0xe
	.string	"__x"
	.byte	0xc
	.value	0x1dd
	.byte	0x48
	.long	0xa3aa
	.uleb128 0x29
	.long	.LASF1313
	.byte	0xc
	.value	0x1df
	.byte	0x2d
	.long	0x6c03
	.byte	0
	.uleb128 0xb
	.long	0x44d3
	.long	0xaae4
	.byte	0x3
	.long	0xab06
	.uleb128 0x9
	.long	.LASF1303
	.long	0xa382
	.uleb128 0x26
	.string	"__p"
	.byte	0x6
	.byte	0xa7
	.byte	0x17
	.long	0xa391
	.uleb128 0x26
	.string	"__n"
	.byte	0x6
	.byte	0xa7
	.byte	0x26
	.long	0x44c7
	.byte	0
	.uleb128 0x15
	.long	0x45e8
	.byte	0x3
	.long	0xab2b
	.uleb128 0xe
	.string	"__a"
	.byte	0x8
	.value	0x27d
	.byte	0x20
	.long	0xa3c3
	.uleb128 0xe
	.string	"__n"
	.byte	0x8
	.value	0x27d
	.byte	0x2f
	.long	0x461a
	.byte	0
	.uleb128 0xb
	.long	0x44f8
	.long	0xab39
	.byte	0x3
	.long	0xab43
	.uleb128 0x9
	.long	.LASF1303
	.long	0xa3a0
	.byte	0
	.uleb128 0xb
	.long	0x3287
	.long	0xab51
	.byte	0x3
	.long	0xab5b
	.uleb128 0x9
	.long	.LASF1303
	.long	0xa28d
	.byte	0
	.uleb128 0xb
	.long	0x326c
	.long	0xab69
	.byte	0x3
	.long	0xab73
	.uleb128 0x9
	.long	.LASF1303
	.long	0xa28d
	.byte	0
	.uleb128 0x15
	.long	0x6efd
	.byte	0x3
	.long	0xabb7
	.uleb128 0xc
	.long	.LASF770
	.long	0x9caa
	.uleb128 0x11
	.string	"_Tp"
	.long	0x37
	.uleb128 0x13
	.long	.LASF1304
	.byte	0xa
	.value	0x3d0
	.byte	0x14
	.long	0x9caa
	.uleb128 0x13
	.long	.LASF1305
	.byte	0xa
	.value	0x3d0
	.byte	0x23
	.long	0x9caa
	.uleb128 0x13
	.long	.LASF841
	.byte	0xa
	.value	0x3d0
	.byte	0x36
	.long	0x9cc8
	.byte	0
	.uleb128 0x15
	.long	0x6f30
	.byte	0x3
	.long	0xabd8
	.uleb128 0xc
	.long	.LASF443
	.long	0x9caa
	.uleb128 0x13
	.long	.LASF1314
	.byte	0x3
	.value	0xbce
	.byte	0x1c
	.long	0x9caa
	.byte	0
	.uleb128 0x15
	.long	0x6f54
	.byte	0x3
	.long	0xac25
	.uleb128 0xc
	.long	.LASF775
	.long	0x9caa
	.uleb128 0xc
	.long	.LASF776
	.long	0x11b4
	.uleb128 0x11
	.string	"_Tp"
	.long	0x37
	.uleb128 0x13
	.long	.LASF1304
	.byte	0xa
	.value	0x3bc
	.byte	0x3b
	.long	0x81ad
	.uleb128 0x13
	.long	.LASF1305
	.byte	0xa
	.value	0x3bd
	.byte	0x34
	.long	0x81ad
	.uleb128 0x13
	.long	.LASF841
	.byte	0xa
	.value	0x3be
	.byte	0x13
	.long	0x9cc8
	.byte	0
	.uleb128 0xb
	.long	0x83a8
	.long	0xac33
	.byte	0x3
	.long	0xac3d
	.uleb128 0x9
	.long	.LASF1303
	.long	0xa5ad
	.byte	0
	.uleb128 0xb
	.long	0x1158
	.long	0xac4b
	.byte	0x3
	.long	0xac62
	.uleb128 0x9
	.long	.LASF1303
	.long	0x9d31
	.uleb128 0xe
	.string	"__n"
	.byte	0x2
	.value	0x195
	.byte	0x20
	.long	0x2c3
	.byte	0
	.uleb128 0xb
	.long	0xee0
	.long	0xac70
	.byte	0x2
	.long	0xac86
	.uleb128 0x9
	.long	.LASF1303
	.long	0x9d13
	.uleb128 0x26
	.string	"__a"
	.byte	0x2
	.byte	0x98
	.byte	0x25
	.long	0x9d18
	.byte	0
	.uleb128 0x1a
	.long	0xac62
	.long	.LASF1315
	.long	0xac97
	.long	0xaca2
	.uleb128 0x3
	.long	0xac70
	.uleb128 0x3
	.long	0xac79
	.byte	0
	.uleb128 0x15
	.long	0x1c81
	.byte	0x3
	.long	0xacd4
	.uleb128 0xe
	.string	"__a"
	.byte	0x2
	.value	0x8a4
	.byte	0x29
	.long	0x9d81
	.uleb128 0x29
	.long	.LASF1316
	.byte	0x2
	.value	0x8a9
	.byte	0xf
	.long	0x2d0
	.uleb128 0x29
	.long	.LASF1317
	.byte	0x2
	.value	0x8ab
	.byte	0xf
	.long	0x2d0
	.byte	0
	.uleb128 0x15
	.long	0x6f90
	.byte	0x3
	.long	0xad21
	.uleb128 0xc
	.long	.LASF743
	.long	0xa49f
	.uleb128 0xc
	.long	.LASF765
	.long	0x3e
	.uleb128 0x11
	.string	"_Tp"
	.long	0x30
	.uleb128 0x13
	.long	.LASF1304
	.byte	0xc
	.value	0x226
	.byte	0x2b
	.long	0xa49f
	.uleb128 0xe
	.string	"__n"
	.byte	0xc
	.value	0x226
	.byte	0x3a
	.long	0x3e
	.uleb128 0xe
	.string	"__x"
	.byte	0xc
	.value	0x226
	.byte	0x4a
	.long	0xa4bd
	.byte	0
	.uleb128 0x15
	.long	0x5a41
	.byte	0x3
	.long	0xad53
	.uleb128 0xe
	.string	"__a"
	.byte	0x8
	.value	0x2b0
	.byte	0x22
	.long	0xa4d6
	.uleb128 0xe
	.string	"__p"
	.byte	0x8
	.value	0x2b0
	.byte	0x2f
	.long	0x59c3
	.uleb128 0xe
	.string	"__n"
	.byte	0x8
	.value	0x2b0
	.byte	0x3e
	.long	0x5a02
	.byte	0
	.uleb128 0xb
	.long	0x5dda
	.long	0xad61
	.byte	0x3
	.long	0xad78
	.uleb128 0x9
	.long	.LASF1303
	.long	0xa526
	.uleb128 0xe
	.string	"__n"
	.byte	0x2
	.value	0x182
	.byte	0x1a
	.long	0x2c3
	.byte	0
	.uleb128 0xb
	.long	0x5af4
	.long	0xad86
	.byte	0x2
	.long	0xad90
	.uleb128 0x9
	.long	.LASF1303
	.long	0xa4ef
	.byte	0
	.uleb128 0x1a
	.long	0xad78
	.long	.LASF1318
	.long	0xada1
	.long	0xada7
	.uleb128 0x3
	.long	0xad86
	.byte	0
	.uleb128 0xb
	.long	0x57b0
	.long	0xadb5
	.byte	0x2
	.long	0xadc4
	.uleb128 0x9
	.long	.LASF1303
	.long	0xa490
	.uleb128 0x1
	.long	0xa495
	.byte	0
	.uleb128 0x1a
	.long	0xada7
	.long	.LASF1319
	.long	0xadd5
	.long	0xade0
	.uleb128 0x3
	.long	0xadb5
	.uleb128 0x3
	.long	0xadbe
	.byte	0
	.uleb128 0x15
	.long	0x5a62
	.byte	0x3
	.long	0xadf8
	.uleb128 0xe
	.string	"__a"
	.byte	0x8
	.value	0x2ed
	.byte	0x26
	.long	0xa4db
	.byte	0
	.uleb128 0x15
	.long	0x6fd0
	.byte	0x3
	.long	0xae45
	.uleb128 0xc
	.long	.LASF743
	.long	0xa391
	.uleb128 0xc
	.long	.LASF765
	.long	0x3e
	.uleb128 0x11
	.string	"_Tp"
	.long	0x56
	.uleb128 0x13
	.long	.LASF1304
	.byte	0xc
	.value	0x226
	.byte	0x2b
	.long	0xa391
	.uleb128 0xe
	.string	"__n"
	.byte	0xc
	.value	0x226
	.byte	0x3a
	.long	0x3e
	.uleb128 0xe
	.string	"__x"
	.byte	0xc
	.value	0x226
	.byte	0x4a
	.long	0xa3aa
	.byte	0
	.uleb128 0x15
	.long	0x4659
	.byte	0x3
	.long	0xae77
	.uleb128 0xe
	.string	"__a"
	.byte	0x8
	.value	0x2b0
	.byte	0x22
	.long	0xa3c3
	.uleb128 0xe
	.string	"__p"
	.byte	0x8
	.value	0x2b0
	.byte	0x2f
	.long	0x45db
	.uleb128 0xe
	.string	"__n"
	.byte	0x8
	.value	0x2b0
	.byte	0x3e
	.long	0x461a
	.byte	0
	.uleb128 0xb
	.long	0x49f2
	.long	0xae85
	.byte	0x3
	.long	0xae9c
	.uleb128 0x9
	.long	.LASF1303
	.long	0xa413
	.uleb128 0xe
	.string	"__n"
	.byte	0x2
	.value	0x182
	.byte	0x1a
	.long	0x2c3
	.byte	0
	.uleb128 0xb
	.long	0x470c
	.long	0xaeaa
	.byte	0x2
	.long	0xaeb4
	.uleb128 0x9
	.long	.LASF1303
	.long	0xa3dc
	.byte	0
	.uleb128 0x1a
	.long	0xae9c
	.long	.LASF1320
	.long	0xaec5
	.long	0xaecb
	.uleb128 0x3
	.long	0xaeaa
	.byte	0
	.uleb128 0xb
	.long	0x43c8
	.long	0xaed9
	.byte	0x2
	.long	0xaee8
	.uleb128 0x9
	.long	.LASF1303
	.long	0xa382
	.uleb128 0x1
	.long	0xa387
	.byte	0
	.uleb128 0x1a
	.long	0xaecb
	.long	.LASF1321
	.long	0xaef9
	.long	0xaf04
	.uleb128 0x3
	.long	0xaed9
	.uleb128 0x3
	.long	0xaee2
	.byte	0
	.uleb128 0x15
	.long	0x467a
	.byte	0x3
	.long	0xaf1c
	.uleb128 0xe
	.string	"__a"
	.byte	0x8
	.value	0x2ed
	.byte	0x26
	.long	0xa3c8
	.byte	0
	.uleb128 0xa
	.long	0x7526
	.uleb128 0x15
	.long	0x7010
	.byte	0x3
	.long	0xaf4f
	.uleb128 0x11
	.string	"_Tp"
	.long	0x3e
	.uleb128 0xe
	.string	"__a"
	.byte	0xa
	.value	0x100
	.byte	0x14
	.long	0xaf1c
	.uleb128 0xe
	.string	"__b"
	.byte	0xa
	.value	0x100
	.byte	0x24
	.long	0xaf1c
	.byte	0
	.uleb128 0xb
	.long	0x321b
	.long	0xaf5d
	.byte	0x3
	.long	0xaf78
	.uleb128 0x9
	.long	.LASF1303
	.long	0xa26f
	.uleb128 0x26
	.string	"__n"
	.byte	0x6
	.byte	0x81
	.byte	0x1a
	.long	0x3240
	.uleb128 0x1
	.long	0x8fc9
	.byte	0
	.uleb128 0x15
	.long	0x3407
	.byte	0x3
	.long	0xaf90
	.uleb128 0xe
	.string	"__a"
	.byte	0x8
	.value	0x2ed
	.byte	0x26
	.long	0xa2ba
	.byte	0
	.uleb128 0xb
	.long	0x324c
	.long	0xaf9e
	.byte	0x3
	.long	0xafc0
	.uleb128 0x9
	.long	.LASF1303
	.long	0xa26f
	.uleb128 0x26
	.string	"__p"
	.byte	0x6
	.byte	0xa7
	.byte	0x17
	.long	0xa27e
	.uleb128 0x26
	.string	"__n"
	.byte	0x6
	.byte	0xa7
	.byte	0x26
	.long	0x3240
	.byte	0
	.uleb128 0x15
	.long	0x7039
	.byte	0x3
	.long	0xb02c
	.uleb128 0xc
	.long	.LASF785
	.long	0x9caa
	.uleb128 0xc
	.long	.LASF765
	.long	0x3e
	.uleb128 0x11
	.string	"_Tp"
	.long	0x37
	.uleb128 0x13
	.long	.LASF1304
	.byte	0xa
	.value	0x475
	.byte	0x20
	.long	0x9caa
	.uleb128 0xe
	.string	"__n"
	.byte	0xa
	.value	0x475
	.byte	0x2f
	.long	0x3e
	.uleb128 0x13
	.long	.LASF841
	.byte	0xa
	.value	0x475
	.byte	0x3f
	.long	0x9cc8
	.uleb128 0x1
	.long	0x6a2
	.uleb128 0x62
	.string	"__d"
	.byte	0xa
	.value	0x47e
	.byte	0x42
	.long	0x6bd5
	.uleb128 0x29
	.long	.LASF1305
	.byte	0xa
	.value	0x481
	.byte	0x17
	.long	0x9caa
	.byte	0
	.uleb128 0x15
	.long	0x707e
	.byte	0x3
	.long	0xb08a
	.uleb128 0xc
	.long	.LASF743
	.long	0x9caa
	.uleb128 0xc
	.long	.LASF765
	.long	0x3e
	.uleb128 0x11
	.string	"_Tp"
	.long	0x37
	.uleb128 0x13
	.long	.LASF1304
	.byte	0xc
	.value	0x226
	.byte	0x2b
	.long	0x9caa
	.uleb128 0xe
	.string	"__n"
	.byte	0xc
	.value	0x226
	.byte	0x3a
	.long	0x3e
	.uleb128 0xe
	.string	"__x"
	.byte	0xc
	.value	0x226
	.byte	0x4a
	.long	0x9cc8
	.uleb128 0x45
	.uleb128 0x45
	.uleb128 0x29
	.long	.LASF1322
	.byte	0xc
	.value	0x23e
	.byte	0xb
	.long	0x7568
	.byte	0
	.byte	0
	.byte	0
	.uleb128 0x15
	.long	0x70be
	.byte	0x3
	.long	0xb0ce
	.uleb128 0xc
	.long	.LASF770
	.long	0x81ad
	.uleb128 0x11
	.string	"_Tp"
	.long	0x37
	.uleb128 0x13
	.long	.LASF1304
	.byte	0xa
	.value	0x3d0
	.byte	0x14
	.long	0x81ad
	.uleb128 0x13
	.long	.LASF1305
	.byte	0xa
	.value	0x3d0
	.byte	0x23
	.long	0x81ad
	.uleb128 0x13
	.long	.LASF841
	.byte	0xa
	.value	0x3d0
	.byte	0x36
	.long	0x9cc8
	.byte	0
	.uleb128 0xb
	.long	0x81df
	.long	0xb0dc
	.byte	0x2
	.long	0xb0f3
	.uleb128 0x9
	.long	.LASF1303
	.long	0xa59e
	.uleb128 0xe
	.string	"__i"
	.byte	0x3
	.value	0x422
	.byte	0x2a
	.long	0xa5a3
	.byte	0
	.uleb128 0x1a
	.long	0xb0ce
	.long	.LASF1323
	.long	0xb104
	.long	0xb10f
	.uleb128 0x3
	.long	0xb0dc
	.uleb128 0x3
	.long	0xb0e5
	.byte	0
	.uleb128 0xb
	.long	0xe65
	.long	0xb11d
	.byte	0x3
	.long	0xb133
	.uleb128 0x9
	.long	.LASF1303
	.long	0x9cfa
	.uleb128 0x26
	.string	"__x"
	.byte	0x2
	.byte	0x77
	.byte	0x28
	.long	0x9d04
	.byte	0
	.uleb128 0xb
	.long	0x1ae6
	.long	0xb141
	.byte	0x3
	.long	0xb165
	.uleb128 0x9
	.long	.LASF1303
	.long	0x9d4f
	.uleb128 0xe
	.string	"__n"
	.byte	0x2
	.value	0x7c3
	.byte	0x24
	.long	0x12f7
	.uleb128 0x13
	.long	.LASF841
	.byte	0x2
	.value	0x7c3
	.byte	0x3b
	.long	0x9d59
	.byte	0
	.uleb128 0xb
	.long	0x1047
	.long	0xb173
	.byte	0x2
	.long	0xb197
	.uleb128 0x9
	.long	.LASF1303
	.long	0x9d31
	.uleb128 0xe
	.string	"__n"
	.byte	0x2
	.value	0x153
	.byte	0x1b
	.long	0x2c3
	.uleb128 0xe
	.string	"__a"
	.byte	0x2
	.value	0x153
	.byte	0x36
	.long	0x9d3b
	.byte	0
	.uleb128 0x1a
	.long	0xb165
	.long	.LASF1324
	.long	0xb1a8
	.long	0xb1b8
	.uleb128 0x3
	.long	0xb173
	.uleb128 0x3
	.long	0xb17c
	.uleb128 0x3
	.long	0xb189
	.byte	0
	.uleb128 0x15
	.long	0x1c63
	.byte	0x3
	.long	0xb1dd
	.uleb128 0xe
	.string	"__n"
	.byte	0x2
	.value	0x89b
	.byte	0x23
	.long	0x12f7
	.uleb128 0xe
	.string	"__a"
	.byte	0x2
	.value	0x89b
	.byte	0x3e
	.long	0x9d54
	.byte	0
	.uleb128 0xb
	.long	0xbf3
	.long	0xb1eb
	.byte	0x3
	.long	0xb20d
	.uleb128 0x9
	.long	.LASF1303
	.long	0x9c9b
	.uleb128 0x26
	.string	"__p"
	.byte	0x6
	.byte	0xa7
	.byte	0x17
	.long	0x9caa
	.uleb128 0x26
	.string	"__n"
	.byte	0x6
	.byte	0xa7
	.byte	0x26
	.long	0xbe7
	.byte	0
	.uleb128 0xb
	.long	0xae8
	.long	0xb21b
	.byte	0x2
	.long	0xb22a
	.uleb128 0x9
	.long	.LASF1303
	.long	0x9c9b
	.uleb128 0x1
	.long	0x9ca0
	.byte	0
	.uleb128 0x1a
	.long	0xb20d
	.long	.LASF1325
	.long	0xb23b
	.long	0xb246
	.uleb128 0x3
	.long	0xb21b
	.uleb128 0x3
	.long	0xb224
	.byte	0
	.uleb128 0x15
	.long	0x70f1
	.byte	0x3
	.long	0xb272
	.uleb128 0xc
	.long	.LASF743
	.long	0xa49f
	.uleb128 0x3b
	.long	.LASF1304
	.byte	0xb
	.byte	0xdb
	.byte	0x1f
	.long	0xa49f
	.uleb128 0x3b
	.long	.LASF1305
	.byte	0xb
	.byte	0xdb
	.byte	0x39
	.long	0xa49f
	.byte	0
	.uleb128 0x15
	.long	0x7115
	.byte	0x3
	.long	0xb2cd
	.uleb128 0xc
	.long	.LASF743
	.long	0xa49f
	.uleb128 0xc
	.long	.LASF765
	.long	0x3e
	.uleb128 0x11
	.string	"_Tp"
	.long	0x30
	.uleb128 0xc
	.long	.LASF794
	.long	0x30
	.uleb128 0x13
	.long	.LASF1304
	.byte	0xc
	.value	0x303
	.byte	0x2f
	.long	0xa49f
	.uleb128 0xe
	.string	"__n"
	.byte	0xc
	.value	0x303
	.byte	0x3e
	.long	0x3e
	.uleb128 0xe
	.string	"__x"
	.byte	0xc
	.value	0x304
	.byte	0x14
	.long	0xa4bd
	.uleb128 0x1
	.long	0xa4d1
	.byte	0
	.uleb128 0xb
	.long	0x5dfd
	.long	0xb2db
	.byte	0x3
	.long	0xb2ff
	.uleb128 0x9
	.long	.LASF1303
	.long	0xa526
	.uleb128 0xe
	.string	"__p"
	.byte	0x2
	.value	0x18a
	.byte	0x1d
	.long	0x5b6b
	.uleb128 0xe
	.string	"__n"
	.byte	0x2
	.value	0x18a
	.byte	0x29
	.long	0x2c3
	.byte	0
	.uleb128 0xb
	.long	0x5e20
	.long	0xb30d
	.byte	0x3
	.long	0xb324
	.uleb128 0x9
	.long	.LASF1303
	.long	0xa526
	.uleb128 0xe
	.string	"__n"
	.byte	0x2
	.value	0x195
	.byte	0x20
	.long	0x2c3
	.byte	0
	.uleb128 0xb
	.long	0x5ba8
	.long	0xb332
	.byte	0x2
	.long	0xb348
	.uleb128 0x9
	.long	.LASF1303
	.long	0xa508
	.uleb128 0x26
	.string	"__a"
	.byte	0x2
	.byte	0x98
	.byte	0x25
	.long	0xa50d
	.byte	0
	.uleb128 0x1a
	.long	0xb324
	.long	.LASF1326
	.long	0xb359
	.long	0xb364
	.uleb128 0x3
	.long	0xb332
	.uleb128 0x3
	.long	0xb33b
	.byte	0
	.uleb128 0xb
	.long	0x5959
	.long	0xb372
	.byte	0x2
	.long	0xb388
	.uleb128 0x9
	.long	.LASF1303
	.long	0xa4c7
	.uleb128 0x26
	.string	"__a"
	.byte	0x5
	.byte	0xac
	.byte	0x22
	.long	0xa4cc
	.byte	0
	.uleb128 0x1a
	.long	0xb364
	.long	.LASF1327
	.long	0xb399
	.long	0xb3a4
	.uleb128 0x3
	.long	0xb372
	.uleb128 0x3
	.long	0xb37b
	.byte	0
	.uleb128 0x15
	.long	0x6944
	.byte	0x3
	.long	0xb3d6
	.uleb128 0xe
	.string	"__a"
	.byte	0x2
	.value	0x8a4
	.byte	0x29
	.long	0xa576
	.uleb128 0x29
	.long	.LASF1316
	.byte	0x2
	.value	0x8a9
	.byte	0xf
	.long	0x2d0
	.uleb128 0x29
	.long	.LASF1317
	.byte	0x2
	.value	0x8ab
	.byte	0xf
	.long	0x2d0
	.byte	0
	.uleb128 0x15
	.long	0x7163
	.byte	0x3
	.long	0xb402
	.uleb128 0xc
	.long	.LASF743
	.long	0xa391
	.uleb128 0x3b
	.long	.LASF1304
	.byte	0xb
	.byte	0xdb
	.byte	0x1f
	.long	0xa391
	.uleb128 0x3b
	.long	.LASF1305
	.byte	0xb
	.byte	0xdb
	.byte	0x39
	.long	0xa391
	.byte	0
	.uleb128 0x15
	.long	0x7187
	.byte	0x3
	.long	0xb45d
	.uleb128 0xc
	.long	.LASF743
	.long	0xa391
	.uleb128 0xc
	.long	.LASF765
	.long	0x3e
	.uleb128 0x11
	.string	"_Tp"
	.long	0x56
	.uleb128 0xc
	.long	.LASF794
	.long	0x56
	.uleb128 0x13
	.long	.LASF1304
	.byte	0xc
	.value	0x303
	.byte	0x2f
	.long	0xa391
	.uleb128 0xe
	.string	"__n"
	.byte	0xc
	.value	0x303
	.byte	0x3e
	.long	0x3e
	.uleb128 0xe
	.string	"__x"
	.byte	0xc
	.value	0x304
	.byte	0x14
	.long	0xa3aa
	.uleb128 0x1
	.long	0xa3be
	.byte	0
	.uleb128 0xb
	.long	0x4a15
	.long	0xb46b
	.byte	0x3
	.long	0xb48f
	.uleb128 0x9
	.long	.LASF1303
	.long	0xa413
	.uleb128 0xe
	.string	"__p"
	.byte	0x2
	.value	0x18a
	.byte	0x1d
	.long	0x4783
	.uleb128 0xe
	.string	"__n"
	.byte	0x2
	.value	0x18a
	.byte	0x29
	.long	0x2c3
	.byte	0
	.uleb128 0xb
	.long	0x4a38
	.long	0xb49d
	.byte	0x3
	.long	0xb4b4
	.uleb128 0x9
	.long	.LASF1303
	.long	0xa413
	.uleb128 0xe
	.string	"__n"
	.byte	0x2
	.value	0x195
	.byte	0x20
	.long	0x2c3
	.byte	0
	.uleb128 0xb
	.long	0x47c0
	.long	0xb4c2
	.byte	0x2
	.long	0xb4d8
	.uleb128 0x9
	.long	.LASF1303
	.long	0xa3f5
	.uleb128 0x26
	.string	"__a"
	.byte	0x2
	.byte	0x98
	.byte	0x25
	.long	0xa3fa
	.byte	0
	.uleb128 0x1a
	.long	0xb4b4
	.long	.LASF1328
	.long	0xb4e9
	.long	0xb4f4
	.uleb128 0x3
	.long	0xb4c2
	.uleb128 0x3
	.long	0xb4cb
	.byte	0
	.uleb128 0xb
	.long	0x4571
	.long	0xb502
	.byte	0x2
	.long	0xb518
	.uleb128 0x9
	.long	.LASF1303
	.long	0xa3b4
	.uleb128 0x26
	.string	"__a"
	.byte	0x5
	.byte	0xac
	.byte	0x22
	.long	0xa3b9
	.byte	0
	.uleb128 0x1a
	.long	0xb4f4
	.long	.LASF1329
	.long	0xb529
	.long	0xb534
	.uleb128 0x3
	.long	0xb502
	.uleb128 0x3
	.long	0xb50b
	.byte	0
	.uleb128 0x15
	.long	0x555c
	.byte	0x3
	.long	0xb566
	.uleb128 0xe
	.string	"__a"
	.byte	0x2
	.value	0x8a4
	.byte	0x29
	.long	0xa45e
	.uleb128 0x29
	.long	.LASF1316
	.byte	0x2
	.value	0x8a9
	.byte	0xf
	.long	0x2d0
	.uleb128 0x29
	.long	.LASF1317
	.byte	0x2
	.value	0x8ab
	.byte	0xf
	.long	0x2d0
	.byte	0
	.uleb128 0x15
	.long	0x71d5
	.byte	0x3
	.long	0xb586
	.uleb128 0x11
	.string	"_Tp"
	.long	0xa0fa
	.uleb128 0x3b
	.long	.LASF1330
	.byte	0x27
	.byte	0xcf
	.byte	0x17
	.long	0xa27e
	.byte	0
	.uleb128 0xb
	.long	0x42b2
	.long	0xb594
	.byte	0x2
	.long	0xb59e
	.uleb128 0x9
	.long	.LASF1303
	.long	0xa5c1
	.byte	0
	.uleb128 0x3e
	.long	0xb586
	.long	0xb5ab
	.long	0xb5b1
	.uleb128 0x3
	.long	0xb594
	.byte	0
	.uleb128 0xb
	.long	0x428d
	.long	0xb5bf
	.byte	0x2
	.long	0xb5f0
	.uleb128 0x9
	.long	.LASF1303
	.long	0xa5c1
	.uleb128 0xe
	.string	"__s"
	.byte	0x2
	.value	0x749
	.byte	0x17
	.long	0x386a
	.uleb128 0xe
	.string	"__l"
	.byte	0x2
	.value	0x749
	.byte	0x26
	.long	0x3912
	.uleb128 0x13
	.long	.LASF1331
	.byte	0x2
	.value	0x749
	.byte	0x32
	.long	0xa5b7
	.byte	0
	.uleb128 0x3e
	.long	0xb5b1
	.long	0xb5fd
	.long	0xb612
	.uleb128 0x3
	.long	0xb5bf
	.uleb128 0x3
	.long	0xb5c8
	.uleb128 0x3
	.long	0xb5d5
	.uleb128 0x3
	.long	0xb5e2
	.byte	0
	.uleb128 0xb
	.long	0x4152
	.long	0xb620
	.byte	0x3
	.long	0xb651
	.uleb128 0x9
	.long	.LASF1303
	.long	0xa350
	.uleb128 0xe
	.string	"__n"
	.byte	0x2
	.value	0x890
	.byte	0x1e
	.long	0x3912
	.uleb128 0xe
	.string	"__s"
	.byte	0x2
	.value	0x890
	.byte	0x2f
	.long	0x77aa
	.uleb128 0x29
	.long	.LASF1312
	.byte	0x2
	.value	0x895
	.byte	0x12
	.long	0x391f
	.byte	0
	.uleb128 0xb
	.long	0x32a2
	.long	0xb677
	.byte	0x3
	.long	0xb69b
	.uleb128 0x11
	.string	"_Up"
	.long	0xa0fa
	.uleb128 0x47
	.long	.LASF427
	.long	0xb677
	.uleb128 0x48
	.long	0xa29c
	.byte	0
	.uleb128 0x9
	.long	.LASF1303
	.long	0xa26f
	.uleb128 0x26
	.string	"__p"
	.byte	0x6
	.byte	0xc9
	.byte	0x11
	.long	0xa27e
	.uleb128 0x7f
	.long	.LASF1308
	.byte	0x6
	.byte	0xc9
	.byte	0x1d
	.uleb128 0x1
	.long	0xa29c
	.byte	0
	.byte	0
	.uleb128 0x15
	.long	0x7201
	.byte	0x3
	.long	0xb6f9
	.uleb128 0x11
	.string	"_Tp"
	.long	0xa0fa
	.uleb128 0x11
	.string	"_Up"
	.long	0xa0fa
	.uleb128 0x13
	.long	.LASF1304
	.byte	0xc
	.value	0x561
	.byte	0x19
	.long	0xa27e
	.uleb128 0x13
	.long	.LASF1305
	.byte	0xc
	.value	0x561
	.byte	0x27
	.long	0xa27e
	.uleb128 0x13
	.long	.LASF1332
	.byte	0xc
	.value	0x562
	.byte	0xb
	.long	0xa27e
	.uleb128 0x13
	.long	.LASF1333
	.byte	0xc
	.value	0x563
	.byte	0x2b
	.long	0xa2b0
	.uleb128 0x29
	.long	.LASF840
	.byte	0xc
	.value	0x565
	.byte	0x11
	.long	0x635
	.byte	0
	.uleb128 0x15
	.long	0x7239
	.byte	0x3
	.long	0xb71a
	.uleb128 0xc
	.long	.LASF443
	.long	0xa27e
	.uleb128 0x13
	.long	.LASF1314
	.byte	0x3
	.value	0xbce
	.byte	0x1c
	.long	0xa27e
	.byte	0
	.uleb128 0x15
	.long	0x3381
	.byte	0x3
	.long	0xb73f
	.uleb128 0xe
	.string	"__a"
	.byte	0x8
	.value	0x27d
	.byte	0x20
	.long	0xa2b5
	.uleb128 0xe
	.string	"__n"
	.byte	0x8
	.value	0x27d
	.byte	0x2f
	.long	0x33af
	.byte	0
	.uleb128 0xb
	.long	0x3603
	.long	0xb74d
	.byte	0x3
	.long	0xb757
	.uleb128 0x9
	.long	.LASF1303
	.long	0xa30f
	.byte	0
	.uleb128 0x15
	.long	0x4193
	.byte	0x3
	.long	0xb789
	.uleb128 0xe
	.string	"__a"
	.byte	0x2
	.value	0x8a4
	.byte	0x29
	.long	0xa35a
	.uleb128 0x29
	.long	.LASF1316
	.byte	0x2
	.value	0x8a9
	.byte	0xf
	.long	0x2d0
	.uleb128 0x29
	.long	.LASF1317
	.byte	0x2
	.value	0x8ab
	.byte	0xf
	.long	0x2d0
	.byte	0
	.uleb128 0x15
	.long	0x7259
	.byte	0x3
	.long	0xb7b5
	.uleb128 0xc
	.long	.LASF743
	.long	0xa27e
	.uleb128 0x3b
	.long	.LASF1304
	.byte	0xb
	.byte	0xdb
	.byte	0x1f
	.long	0xa27e
	.uleb128 0x3b
	.long	.LASF1305
	.byte	0xb
	.byte	0xdb
	.byte	0x39
	.long	0xa27e
	.byte	0
	.uleb128 0x15
	.long	0x33ea
	.byte	0x3
	.long	0xb7e7
	.uleb128 0xe
	.string	"__a"
	.byte	0x8
	.value	0x2b0
	.byte	0x22
	.long	0xa2b5
	.uleb128 0xe
	.string	"__p"
	.byte	0x8
	.value	0x2b0
	.byte	0x2f
	.long	0x3374
	.uleb128 0xe
	.string	"__n"
	.byte	0x8
	.value	0x2b0
	.byte	0x3e
	.long	0x33af
	.byte	0
	.uleb128 0xb
	.long	0x3144
	.long	0xb7f5
	.byte	0x2
	.long	0xb7ff
	.uleb128 0x9
	.long	.LASF1303
	.long	0xa26f
	.byte	0
	.uleb128 0x3e
	.long	0xb7e7
	.long	0xb80c
	.long	0xb812
	.uleb128 0x3
	.long	0xb7f5
	.byte	0
	.uleb128 0x15
	.long	0x727a
	.byte	0x3
	.long	0xb85f
	.uleb128 0x11
	.string	"_OI"
	.long	0x9caa
	.uleb128 0xc
	.long	.LASF765
	.long	0x3e
	.uleb128 0x11
	.string	"_Tp"
	.long	0x37
	.uleb128 0x13
	.long	.LASF1304
	.byte	0xa
	.value	0x49b
	.byte	0x10
	.long	0x9caa
	.uleb128 0xe
	.string	"__n"
	.byte	0xa
	.value	0x49b
	.byte	0x1f
	.long	0x3e
	.uleb128 0x13
	.long	.LASF841
	.byte	0xa
	.value	0x49b
	.byte	0x2f
	.long	0x9cc8
	.byte	0
	.uleb128 0xb
	.long	0x1c9a
	.long	0xb86d
	.byte	0x3
	.long	0xb893
	.uleb128 0x9
	.long	.LASF1303
	.long	0x9d4f
	.uleb128 0x13
	.long	.LASF1192
	.byte	0x2
	.value	0x8b5
	.byte	0x1f
	.long	0x1240
	.uleb128 0x45
	.uleb128 0x62
	.string	"__n"
	.byte	0x2
	.value	0x8b7
	.byte	0x10
	.long	0x12f7
	.byte	0
	.byte	0
	.uleb128 0x15
	.long	0x72ba
	.byte	0x3
	.long	0xb8ee
	.uleb128 0xc
	.long	.LASF743
	.long	0x9caa
	.uleb128 0xc
	.long	.LASF765
	.long	0x3e
	.uleb128 0x11
	.string	"_Tp"
	.long	0x37
	.uleb128 0xc
	.long	.LASF794
	.long	0x37
	.uleb128 0x13
	.long	.LASF1304
	.byte	0xc
	.value	0x303
	.byte	0x2f
	.long	0x9caa
	.uleb128 0xe
	.string	"__n"
	.byte	0xc
	.value	0x303
	.byte	0x3e
	.long	0x3e
	.uleb128 0xe
	.string	"__x"
	.byte	0xc
	.value	0x304
	.byte	0x14
	.long	0x9cc8
	.uleb128 0x1
	.long	0x9cdc
	.byte	0
	.uleb128 0x15
	.long	0x7308
	.byte	0x3
	.long	0xb932
	.uleb128 0xc
	.long	.LASF743
	.long	0x81ad
	.uleb128 0x11
	.string	"_Tp"
	.long	0x37
	.uleb128 0x13
	.long	.LASF1304
	.byte	0xa
	.value	0x3e9
	.byte	0x1b
	.long	0x81ad
	.uleb128 0x13
	.long	.LASF1305
	.byte	0xa
	.value	0x3e9
	.byte	0x35
	.long	0x81ad
	.uleb128 0x13
	.long	.LASF841
	.byte	0xa
	.value	0x3e9
	.byte	0x48
	.long	0x9cc8
	.byte	0
	.uleb128 0xb
	.long	0x1572
	.long	0xb940
	.byte	0x3
	.long	0xb94a
	.uleb128 0x9
	.long	.LASF1303
	.long	0x9d4f
	.byte	0
	.uleb128 0xb
	.long	0x1525
	.long	0xb958
	.byte	0x3
	.long	0xb962
	.uleb128 0x9
	.long	.LASF1303
	.long	0x9d4f
	.byte	0
	.uleb128 0xb
	.long	0xe84
	.long	0xb970
	.byte	0x3
	.long	0xb992
	.uleb128 0x9
	.long	.LASF1303
	.long	0x9cfa
	.uleb128 0x26
	.string	"__x"
	.byte	0x2
	.byte	0x80
	.byte	0x22
	.long	0x9d09
	.uleb128 0x30
	.long	.LASF1334
	.byte	0x2
	.byte	0x84
	.byte	0x16
	.long	0xdf8
	.byte	0
	.uleb128 0xb
	.long	0x1309
	.long	0xb9a0
	.byte	0x2
	.long	0xb9d1
	.uleb128 0x9
	.long	.LASF1303
	.long	0x9d4f
	.uleb128 0xe
	.string	"__n"
	.byte	0x2
	.value	0x24d
	.byte	0x18
	.long	0x12f7
	.uleb128 0x13
	.long	.LASF841
	.byte	0x2
	.value	0x24d
	.byte	0x2f
	.long	0x9d59
	.uleb128 0xe
	.string	"__a"
	.byte	0x2
	.value	0x24e
	.byte	0x1d
	.long	0x9d54
	.byte	0
	.uleb128 0x1a
	.long	0xb992
	.long	.LASF1335
	.long	0xb9e2
	.long	0xb9f7
	.uleb128 0x3
	.long	0xb9a0
	.uleb128 0x3
	.long	0xb9a9
	.uleb128 0x3
	.long	0xb9b6
	.uleb128 0x3
	.long	0xb9c3
	.byte	0
	.uleb128 0xb
	.long	0x1769
	.long	0xba05
	.byte	0x3
	.long	0xba1c
	.uleb128 0x9
	.long	.LASF1303
	.long	0x9d77
	.uleb128 0x29
	.long	.LASF1336
	.byte	0x2
	.value	0x4b0
	.byte	0xc
	.long	0x635
	.byte	0
	.uleb128 0x15
	.long	0x733b
	.byte	0x3
	.long	0xba48
	.uleb128 0xc
	.long	.LASF743
	.long	0x9caa
	.uleb128 0x3b
	.long	.LASF1304
	.byte	0xb
	.byte	0xdb
	.byte	0x1f
	.long	0x9caa
	.uleb128 0x3b
	.long	.LASF1305
	.byte	0xb
	.byte	0xdb
	.byte	0x39
	.long	0x9caa
	.byte	0
	.uleb128 0x15
	.long	0xd79
	.byte	0x3
	.long	0xba7a
	.uleb128 0xe
	.string	"__a"
	.byte	0x8
	.value	0x2b0
	.byte	0x22
	.long	0x9ce1
	.uleb128 0xe
	.string	"__p"
	.byte	0x8
	.value	0x2b0
	.byte	0x2f
	.long	0xcfb
	.uleb128 0xe
	.string	"__n"
	.byte	0x8
	.value	0x2b0
	.byte	0x3e
	.long	0xd3a
	.byte	0
	.uleb128 0xb
	.long	0xacd
	.long	0xba88
	.byte	0x2
	.long	0xba92
	.uleb128 0x9
	.long	.LASF1303
	.long	0x9c9b
	.byte	0
	.uleb128 0x1a
	.long	0xba7a
	.long	.LASF1337
	.long	0xbaa3
	.long	0xbaa9
	.uleb128 0x3
	.long	0xba88
	.byte	0
	.uleb128 0x15
	.long	0x735f
	.byte	0x3
	.long	0xbad5
	.uleb128 0x11
	.string	"_Tp"
	.long	0x3e
	.uleb128 0x26
	.string	"__a"
	.byte	0xa
	.byte	0xe8
	.byte	0x14
	.long	0xaf1c
	.uleb128 0x26
	.string	"__b"
	.byte	0xa
	.byte	0xe8
	.byte	0x24
	.long	0xaf1c
	.byte	0
	.uleb128 0xb
	.long	0xc91
	.long	0xbae3
	.byte	0x2
	.long	0xbaf9
	.uleb128 0x9
	.long	.LASF1303
	.long	0x9cd2
	.uleb128 0x26
	.string	"__a"
	.byte	0x5
	.byte	0xac
	.byte	0x22
	.long	0x9cd7
	.byte	0
	.uleb128 0x1a
	.long	0xbad5
	.long	.LASF1338
	.long	0xbb0a
	.long	0xbb15
	.uleb128 0x3
	.long	0xbae3
	.uleb128 0x3
	.long	0xbaec
	.byte	0
	.uleb128 0xb
	.long	0x6a11
	.long	0xbb2c
	.byte	0x3
	.long	0xbb43
	.uleb128 0x11
	.string	"_Up"
	.long	0x30
	.uleb128 0x9
	.long	.LASF1303
	.long	0xa56c
	.uleb128 0x13
	.long	.LASF1330
	.byte	0x2
	.value	0x8ee
	.byte	0x13
	.long	0xa49f
	.byte	0
	.uleb128 0x15
	.long	0x7387
	.byte	0x3
	.long	0xbb7f
	.uleb128 0xc
	.long	.LASF743
	.long	0xa49f
	.uleb128 0x11
	.string	"_Tp"
	.long	0x30
	.uleb128 0x13
	.long	.LASF1304
	.byte	0x8
	.value	0x43a
	.byte	0x1f
	.long	0xa49f
	.uleb128 0x13
	.long	.LASF1305
	.byte	0x8
	.value	0x43a
	.byte	0x39
	.long	0xa49f
	.uleb128 0x1
	.long	0xa4d1
	.byte	0
	.uleb128 0xb
	.long	0x5c4e
	.long	0xbb8d
	.byte	0x3
	.long	0xbb97
	.uleb128 0x9
	.long	.LASF1303
	.long	0xa526
	.byte	0
	.uleb128 0xb
	.long	0x67a9
	.long	0xbba5
	.byte	0x3
	.long	0xbbc9
	.uleb128 0x9
	.long	.LASF1303
	.long	0xa544
	.uleb128 0xe
	.string	"__n"
	.byte	0x2
	.value	0x7c3
	.byte	0x24
	.long	0x5fbf
	.uleb128 0x13
	.long	.LASF841
	.byte	0x2
	.value	0x7c3
	.byte	0x3b
	.long	0xa54e
	.byte	0
	.uleb128 0xb
	.long	0x5db4
	.long	0xbbd7
	.byte	0x2
	.long	0xbbf0
	.uleb128 0x9
	.long	.LASF1303
	.long	0xa526
	.uleb128 0x45
	.uleb128 0x62
	.string	"__n"
	.byte	0x2
	.value	0x177
	.byte	0xc
	.long	0x635
	.byte	0
	.byte	0
	.uleb128 0x1a
	.long	0xbbc9
	.long	.LASF1339
	.long	0xbc01
	.long	0xbc12
	.uleb128 0x3
	.long	0xbbd7
	.uleb128 0x72
	.long	0xbbe0
	.uleb128 0x38
	.long	0xbbe1
	.byte	0
	.byte	0
	.uleb128 0xb
	.long	0x5d0f
	.long	0xbc20
	.byte	0x2
	.long	0xbc44
	.uleb128 0x9
	.long	.LASF1303
	.long	0xa526
	.uleb128 0xe
	.string	"__n"
	.byte	0x2
	.value	0x153
	.byte	0x1b
	.long	0x2c3
	.uleb128 0xe
	.string	"__a"
	.byte	0x2
	.value	0x153
	.byte	0x36
	.long	0xa530
	.byte	0
	.uleb128 0x1a
	.long	0xbc12
	.long	.LASF1340
	.long	0xbc55
	.long	0xbc65
	.uleb128 0x3
	.long	0xbc20
	.uleb128 0x3
	.long	0xbc29
	.uleb128 0x3
	.long	0xbc36
	.byte	0
	.uleb128 0x63
	.long	0x5c29
	.byte	0x2
	.byte	0x8b
	.byte	0xe
	.long	0xbc75
	.long	0xbc7f
	.uleb128 0x9
	.long	.LASF1303
	.long	0xa508
	.byte	0
	.uleb128 0x1a
	.long	0xbc65
	.long	.LASF1341
	.long	0xbc90
	.long	0xbc96
	.uleb128 0x3
	.long	0xbc75
	.byte	0
	.uleb128 0x15
	.long	0x6926
	.byte	0x3
	.long	0xbcbb
	.uleb128 0xe
	.string	"__n"
	.byte	0x2
	.value	0x89b
	.byte	0x23
	.long	0x5fbf
	.uleb128 0xe
	.string	"__a"
	.byte	0x2
	.value	0x89b
	.byte	0x3e
	.long	0xa549
	.byte	0
	.uleb128 0xb
	.long	0x57f3
	.long	0xbcc9
	.byte	0x2
	.long	0xbcd3
	.uleb128 0x9
	.long	.LASF1303
	.long	0xa490
	.byte	0
	.uleb128 0x1a
	.long	0xbcbb
	.long	.LASF1342
	.long	0xbce4
	.long	0xbcea
	.uleb128 0x3
	.long	0xbcc9
	.byte	0
	.uleb128 0xb
	.long	0x5795
	.long	0xbcf8
	.byte	0x2
	.long	0xbd02
	.uleb128 0x9
	.long	.LASF1303
	.long	0xa490
	.byte	0
	.uleb128 0x1a
	.long	0xbcea
	.long	.LASF1343
	.long	0xbd13
	.long	0xbd19
	.uleb128 0x3
	.long	0xbcf8
	.byte	0
	.uleb128 0xb
	.long	0x8a7d
	.long	0xbd27
	.byte	0x2
	.long	0xbd3e
	.uleb128 0x9
	.long	.LASF1303
	.long	0xa472
	.uleb128 0xe
	.string	"__i"
	.byte	0x3
	.value	0x422
	.byte	0x2a
	.long	0xa477
	.byte	0
	.uleb128 0x3e
	.long	0xbd19
	.long	0xbd4b
	.long	0xbd56
	.uleb128 0x3
	.long	0xbd27
	.uleb128 0x3
	.long	0xbd30
	.byte	0
	.uleb128 0x15
	.long	0x73ba
	.byte	0x3
	.long	0xbd92
	.uleb128 0xc
	.long	.LASF743
	.long	0xa391
	.uleb128 0x11
	.string	"_Tp"
	.long	0x56
	.uleb128 0x13
	.long	.LASF1304
	.byte	0x8
	.value	0x43a
	.byte	0x1f
	.long	0xa391
	.uleb128 0x13
	.long	.LASF1305
	.byte	0x8
	.value	0x43a
	.byte	0x39
	.long	0xa391
	.uleb128 0x1
	.long	0xa3be
	.byte	0
	.uleb128 0xb
	.long	0x4866
	.long	0xbda0
	.byte	0x3
	.long	0xbdaa
	.uleb128 0x9
	.long	.LASF1303
	.long	0xa413
	.byte	0
	.uleb128 0xb
	.long	0x53c1
	.long	0xbdb8
	.byte	0x3
	.long	0xbddc
	.uleb128 0x9
	.long	.LASF1303
	.long	0xa431
	.uleb128 0xe
	.string	"__n"
	.byte	0x2
	.value	0x7c3
	.byte	0x24
	.long	0x4bd7
	.uleb128 0x13
	.long	.LASF841
	.byte	0x2
	.value	0x7c3
	.byte	0x3b
	.long	0xa43b
	.byte	0
	.uleb128 0xb
	.long	0x49cc
	.long	0xbdea
	.byte	0x2
	.long	0xbe03
	.uleb128 0x9
	.long	.LASF1303
	.long	0xa413
	.uleb128 0x45
	.uleb128 0x62
	.string	"__n"
	.byte	0x2
	.value	0x177
	.byte	0xc
	.long	0x635
	.byte	0
	.byte	0
	.uleb128 0x1a
	.long	0xbddc
	.long	.LASF1344
	.long	0xbe14
	.long	0xbe25
	.uleb128 0x3
	.long	0xbdea
	.uleb128 0x72
	.long	0xbdf3
	.uleb128 0x38
	.long	0xbdf4
	.byte	0
	.byte	0
	.uleb128 0xb
	.long	0x4927
	.long	0xbe33
	.byte	0x2
	.long	0xbe57
	.uleb128 0x9
	.long	.LASF1303
	.long	0xa413
	.uleb128 0xe
	.string	"__n"
	.byte	0x2
	.value	0x153
	.byte	0x1b
	.long	0x2c3
	.uleb128 0xe
	.string	"__a"
	.byte	0x2
	.value	0x153
	.byte	0x36
	.long	0xa41d
	.byte	0
	.uleb128 0x1a
	.long	0xbe25
	.long	.LASF1345
	.long	0xbe68
	.long	0xbe78
	.uleb128 0x3
	.long	0xbe33
	.uleb128 0x3
	.long	0xbe3c
	.uleb128 0x3
	.long	0xbe49
	.byte	0
	.uleb128 0x63
	.long	0x4841
	.byte	0x2
	.byte	0x8b
	.byte	0xe
	.long	0xbe88
	.long	0xbe92
	.uleb128 0x9
	.long	.LASF1303
	.long	0xa3f5
	.byte	0
	.uleb128 0x1a
	.long	0xbe78
	.long	.LASF1346
	.long	0xbea3
	.long	0xbea9
	.uleb128 0x3
	.long	0xbe88
	.byte	0
	.uleb128 0x15
	.long	0x553e
	.byte	0x3
	.long	0xbece
	.uleb128 0xe
	.string	"__n"
	.byte	0x2
	.value	0x89b
	.byte	0x23
	.long	0x4bd7
	.uleb128 0xe
	.string	"__a"
	.byte	0x2
	.value	0x89b
	.byte	0x3e
	.long	0xa436
	.byte	0
	.uleb128 0xb
	.long	0x440b
	.long	0xbedc
	.byte	0x2
	.long	0xbee6
	.uleb128 0x9
	.long	.LASF1303
	.long	0xa382
	.byte	0
	.uleb128 0x1a
	.long	0xbece
	.long	.LASF1347
	.long	0xbef7
	.long	0xbefd
	.uleb128 0x3
	.long	0xbedc
	.byte	0
	.uleb128 0xb
	.long	0x43ad
	.long	0xbf0b
	.byte	0x2
	.long	0xbf15
	.uleb128 0x9
	.long	.LASF1303
	.long	0xa382
	.byte	0
	.uleb128 0x1a
	.long	0xbefd
	.long	.LASF1348
	.long	0xbf26
	.long	0xbf2c
	.uleb128 0x3
	.long	0xbf0b
	.byte	0
	.uleb128 0xb
	.long	0x4302
	.long	0xbf49
	.byte	0x1
	.long	0xbfc4
	.uleb128 0x47
	.long	.LASF427
	.long	0xbf49
	.uleb128 0x48
	.long	0xa29c
	.byte	0
	.uleb128 0x9
	.long	.LASF1303
	.long	0xa328
	.uleb128 0xc7
	.long	.LASF1308
	.byte	0x7
	.value	0x236
	.byte	0x20
	.long	0xbf66
	.uleb128 0x1
	.long	0xa29c
	.byte	0
	.uleb128 0x29
	.long	.LASF1312
	.byte	0x7
	.value	0x23e
	.byte	0x17
	.long	0x391f
	.uleb128 0x29
	.long	.LASF1349
	.byte	0x7
	.value	0x241
	.byte	0xf
	.long	0x386a
	.uleb128 0x29
	.long	.LASF1350
	.byte	0x7
	.value	0x242
	.byte	0xf
	.long	0x386a
	.uleb128 0x29
	.long	.LASF1351
	.byte	0x7
	.value	0x243
	.byte	0x17
	.long	0x391f
	.uleb128 0x29
	.long	.LASF1352
	.byte	0x7
	.value	0x244
	.byte	0xf
	.long	0x386a
	.uleb128 0x29
	.long	.LASF1353
	.byte	0x7
	.value	0x245
	.byte	0xf
	.long	0x386a
	.uleb128 0x45
	.uleb128 0x29
	.long	.LASF1313
	.byte	0x7
	.value	0x248
	.byte	0xf
	.long	0x4258
	.byte	0
	.byte	0
	.uleb128 0x15
	.long	0x344f
	.byte	0x3
	.long	0xc011
	.uleb128 0x11
	.string	"_Up"
	.long	0xa0fa
	.uleb128 0x47
	.long	.LASF427
	.long	0xbfe6
	.uleb128 0x48
	.long	0xa29c
	.byte	0
	.uleb128 0xe
	.string	"__a"
	.byte	0x8
	.value	0x2c1
	.byte	0x1c
	.long	0xa2b5
	.uleb128 0xe
	.string	"__p"
	.byte	0x8
	.value	0x2c2
	.byte	0xa
	.long	0xa27e
	.uleb128 0xc8
	.long	.LASF1308
	.byte	0x8
	.value	0x2c2
	.byte	0x16
	.uleb128 0x1
	.long	0xa29c
	.byte	0
	.byte	0
	.uleb128 0xb
	.long	0x1d4e
	.long	0xc028
	.byte	0x3
	.long	0xc03f
	.uleb128 0x11
	.string	"_Up"
	.long	0x37
	.uleb128 0x9
	.long	.LASF1303
	.long	0x9d77
	.uleb128 0x13
	.long	.LASF1330
	.byte	0x2
	.value	0x8ee
	.byte	0x13
	.long	0x9caa
	.byte	0
	.uleb128 0xb
	.long	0x8526
	.long	0xc04d
	.byte	0x2
	.long	0xc064
	.uleb128 0x9
	.long	.LASF1303
	.long	0xa364
	.uleb128 0xe
	.string	"__i"
	.byte	0x3
	.value	0x422
	.byte	0x2a
	.long	0xa369
	.byte	0
	.uleb128 0x1a
	.long	0xc03f
	.long	.LASF1354
	.long	0xc075
	.long	0xc080
	.uleb128 0x3
	.long	0xc04d
	.uleb128 0x3
	.long	0xc056
	.byte	0
	.uleb128 0x15
	.long	0x73ed
	.byte	0x3
	.long	0xc0da
	.uleb128 0xc
	.long	.LASF819
	.long	0xa27e
	.uleb128 0xc
	.long	.LASF743
	.long	0xa27e
	.uleb128 0xc
	.long	.LASF820
	.long	0x32e9
	.uleb128 0x13
	.long	.LASF1304
	.byte	0xc
	.value	0x57c
	.byte	0x21
	.long	0xa27e
	.uleb128 0x13
	.long	.LASF1305
	.byte	0xc
	.value	0x57c
	.byte	0x39
	.long	0xa27e
	.uleb128 0x13
	.long	.LASF1332
	.byte	0xc
	.value	0x57d
	.byte	0x15
	.long	0xa27e
	.uleb128 0x13
	.long	.LASF1333
	.byte	0xc
	.value	0x57d
	.byte	0x2b
	.long	0xa2b0
	.byte	0
	.uleb128 0xb
	.long	0x374e
	.long	0xc0e8
	.byte	0x3
	.long	0xc0ff
	.uleb128 0x9
	.long	.LASF1303
	.long	0xa305
	.uleb128 0xe
	.string	"__n"
	.byte	0x2
	.value	0x182
	.byte	0x1a
	.long	0x2c3
	.byte	0
	.uleb128 0xb
	.long	0x3c7c
	.long	0xc10d
	.byte	0x3
	.long	0xc124
	.uleb128 0x9
	.long	.LASF1303
	.long	0xa350
	.uleb128 0x29
	.long	.LASF1336
	.byte	0x2
	.value	0x455
	.byte	0xc
	.long	0x635
	.byte	0
	.uleb128 0xb
	.long	0x3d0b
	.long	0xc132
	.byte	0x3
	.long	0xc149
	.uleb128 0x9
	.long	.LASF1303
	.long	0xa350
	.uleb128 0x29
	.long	.LASF1336
	.byte	0x2
	.value	0x4b0
	.byte	0xc
	.long	0x635
	.byte	0
	.uleb128 0xb
	.long	0x3c98
	.long	0xc157
	.byte	0x3
	.long	0xc161
	.uleb128 0x9
	.long	.LASF1303
	.long	0xa350
	.byte	0
	.uleb128 0x15
	.long	0x742e
	.byte	0x3
	.long	0xc19d
	.uleb128 0xc
	.long	.LASF743
	.long	0xa27e
	.uleb128 0x11
	.string	"_Tp"
	.long	0xa0fa
	.uleb128 0x13
	.long	.LASF1304
	.byte	0x8
	.value	0x43a
	.byte	0x1f
	.long	0xa27e
	.uleb128 0x13
	.long	.LASF1305
	.byte	0x8
	.value	0x43a
	.byte	0x39
	.long	0xa27e
	.uleb128 0x1
	.long	0xa2b0
	.byte	0
	.uleb128 0xb
	.long	0x35e9
	.long	0xc1ab
	.byte	0x3
	.long	0xc1b5
	.uleb128 0x9
	.long	.LASF1303
	.long	0xa305
	.byte	0
	.uleb128 0xb
	.long	0x376d
	.long	0xc1c3
	.byte	0x3
	.long	0xc1e7
	.uleb128 0x9
	.long	.LASF1303
	.long	0xa305
	.uleb128 0xe
	.string	"__p"
	.byte	0x2
	.value	0x18a
	.byte	0x1d
	.long	0x3527
	.uleb128 0xe
	.string	"__n"
	.byte	0x2
	.value	0x18a
	.byte	0x29
	.long	0x2c3
	.byte	0
	.uleb128 0xb
	.long	0x3195
	.long	0xc1f5
	.byte	0x2
	.long	0xc1ff
	.uleb128 0x9
	.long	.LASF1303
	.long	0xa26f
	.byte	0
	.uleb128 0x3e
	.long	0xc1e7
	.long	0xc20c
	.long	0xc212
	.uleb128 0x3
	.long	0xc1f5
	.byte	0
	.uleb128 0xb
	.long	0x34c3
	.long	0xc220
	.byte	0x2
	.long	0xc22a
	.uleb128 0x9
	.long	.LASF1303
	.long	0xa2ce
	.byte	0
	.uleb128 0x3e
	.long	0xc212
	.long	0xc237
	.long	0xc23d
	.uleb128 0x3
	.long	0xc220
	.byte	0
	.uleb128 0xb
	.long	0x32fb
	.long	0xc24b
	.byte	0x2
	.long	0xc255
	.uleb128 0x9
	.long	.LASF1303
	.long	0xa2a6
	.byte	0
	.uleb128 0x3e
	.long	0xc23d
	.long	0xc262
	.long	0xc268
	.uleb128 0x3
	.long	0xc24b
	.byte	0
	.uleb128 0xb
	.long	0x1b2d
	.long	0xc276
	.byte	0x1
	.long	0xc2ca
	.uleb128 0x9
	.long	.LASF1303
	.long	0x9d4f
	.uleb128 0xe
	.string	"__n"
	.byte	0x7
	.value	0x113
	.byte	0x1b
	.long	0x2c3
	.uleb128 0x13
	.long	.LASF1311
	.byte	0x7
	.value	0x113
	.byte	0x32
	.long	0x9d59
	.uleb128 0x29
	.long	.LASF1355
	.byte	0x7
	.value	0x115
	.byte	0x17
	.long	0x1304
	.uleb128 0xc9
	.long	0xc2ba
	.uleb128 0x29
	.long	.LASF1334
	.byte	0x7
	.value	0x11a
	.byte	0xb
	.long	0x11b4
	.byte	0
	.uleb128 0x45
	.uleb128 0x29
	.long	.LASF1356
	.byte	0x7
	.value	0x120
	.byte	0x14
	.long	0x1304
	.byte	0
	.byte	0
	.uleb128 0x15
	.long	0x745d
	.byte	0x3
	.long	0xc306
	.uleb128 0xc
	.long	.LASF743
	.long	0x9caa
	.uleb128 0x11
	.string	"_Tp"
	.long	0x37
	.uleb128 0x13
	.long	.LASF1304
	.byte	0x8
	.value	0x43a
	.byte	0x1f
	.long	0x9caa
	.uleb128 0x13
	.long	.LASF1305
	.byte	0x8
	.value	0x43a
	.byte	0x39
	.long	0x9caa
	.uleb128 0x1
	.long	0x9cdc
	.byte	0
	.uleb128 0xb
	.long	0xf86
	.long	0xc314
	.byte	0x3
	.long	0xc31e
	.uleb128 0x9
	.long	.LASF1303
	.long	0x9d31
	.byte	0
	.uleb128 0xb
	.long	0x1135
	.long	0xc32c
	.byte	0x3
	.long	0xc350
	.uleb128 0x9
	.long	.LASF1303
	.long	0x9d31
	.uleb128 0xe
	.string	"__p"
	.byte	0x2
	.value	0x18a
	.byte	0x1d
	.long	0xea3
	.uleb128 0xe
	.string	"__n"
	.byte	0x2
	.value	0x18a
	.byte	0x29
	.long	0x2c3
	.byte	0
	.uleb128 0xb
	.long	0xb2b
	.long	0xc35e
	.byte	0x2
	.long	0xc368
	.uleb128 0x9
	.long	.LASF1303
	.long	0x9c9b
	.byte	0
	.uleb128 0x1a
	.long	0xc350
	.long	.LASF1357
	.long	0xc379
	.long	0xc37f
	.uleb128 0x3
	.long	0xc35e
	.byte	0
	.uleb128 0xb
	.long	0xe2c
	.long	0xc38d
	.byte	0x2
	.long	0xc397
	.uleb128 0x9
	.long	.LASF1303
	.long	0x9cfa
	.byte	0
	.uleb128 0x1a
	.long	0xc37f
	.long	.LASF1358
	.long	0xc3a8
	.long	0xc3ae
	.uleb128 0x3
	.long	0xc38d
	.byte	0
	.uleb128 0xb
	.long	0xc76
	.long	0xc3bc
	.byte	0x2
	.long	0xc3c6
	.uleb128 0x9
	.long	.LASF1303
	.long	0x9cd2
	.byte	0
	.uleb128 0x1a
	.long	0xc3ae
	.long	.LASF1359
	.long	0xc3d7
	.long	0xc3dd
	.uleb128 0x3
	.long	0xc3bc
	.byte	0
	.uleb128 0xb
	.long	0x16c6
	.long	0xc3eb
	.byte	0x3
	.long	0xc402
	.uleb128 0x9
	.long	.LASF1303
	.long	0x9d77
	.uleb128 0x29
	.long	.LASF1336
	.byte	0x2
	.value	0x455
	.byte	0xc
	.long	0x635
	.byte	0
	.uleb128 0xb
	.long	0x65d3
	.long	0xc410
	.byte	0x3
	.long	0xc41a
	.uleb128 0x9
	.long	.LASF1303
	.long	0xa544
	.byte	0
	.uleb128 0xb
	.long	0x610a
	.long	0xc428
	.byte	0x2
	.long	0xc432
	.uleb128 0x9
	.long	.LASF1303
	.long	0xa544
	.byte	0
	.uleb128 0x1a
	.long	0xc41a
	.long	.LASF1360
	.long	0xc443
	.long	0xc449
	.uleb128 0x3
	.long	0xc428
	.byte	0
	.uleb128 0xb
	.long	0x5fcc
	.long	0xc457
	.byte	0x2
	.long	0xc488
	.uleb128 0x9
	.long	.LASF1303
	.long	0xa544
	.uleb128 0xe
	.string	"__n"
	.byte	0x2
	.value	0x24d
	.byte	0x18
	.long	0x5fbf
	.uleb128 0x13
	.long	.LASF841
	.byte	0x2
	.value	0x24d
	.byte	0x2f
	.long	0xa54e
	.uleb128 0xe
	.string	"__a"
	.byte	0x2
	.value	0x24e
	.byte	0x1d
	.long	0xa549
	.byte	0
	.uleb128 0x1a
	.long	0xc449
	.long	.LASF1361
	.long	0xc499
	.long	0xc4ae
	.uleb128 0x3
	.long	0xc457
	.uleb128 0x3
	.long	0xc460
	.uleb128 0x3
	.long	0xc46d
	.uleb128 0x3
	.long	0xc47a
	.byte	0
	.uleb128 0xb
	.long	0x599c
	.long	0xc4bc
	.byte	0x2
	.long	0xc4c6
	.uleb128 0x9
	.long	.LASF1303
	.long	0xa4c7
	.byte	0
	.uleb128 0x1a
	.long	0xc4ae
	.long	.LASF1362
	.long	0xc4d7
	.long	0xc4dd
	.uleb128 0x3
	.long	0xc4bc
	.byte	0
	.uleb128 0xb
	.long	0x593e
	.long	0xc4eb
	.byte	0x2
	.long	0xc4f5
	.uleb128 0x9
	.long	.LASF1303
	.long	0xa4c7
	.byte	0
	.uleb128 0x1a
	.long	0xc4dd
	.long	.LASF1363
	.long	0xc506
	.long	0xc50c
	.uleb128 0x3
	.long	0xc4eb
	.byte	0
	.uleb128 0xb
	.long	0x50b1
	.long	0xc51a
	.byte	0x3
	.long	0xc531
	.uleb128 0x9
	.long	.LASF1303
	.long	0xa431
	.uleb128 0xe
	.string	"__n"
	.byte	0x2
	.value	0x4e3
	.byte	0x1c
	.long	0x4bd7
	.byte	0
	.uleb128 0xb
	.long	0x3b50
	.long	0xc53f
	.byte	0x3
	.long	0xc549
	.uleb128 0x9
	.long	.LASF1303
	.long	0xa328
	.byte	0
	.uleb128 0xb
	.long	0x3b0b
	.long	0xc557
	.byte	0x3
	.long	0xc561
	.uleb128 0x9
	.long	.LASF1303
	.long	0xa328
	.byte	0
	.uleb128 0xb
	.long	0x4d22
	.long	0xc56f
	.byte	0x2
	.long	0xc579
	.uleb128 0x9
	.long	.LASF1303
	.long	0xa431
	.byte	0
	.uleb128 0x1a
	.long	0xc561
	.long	.LASF1364
	.long	0xc58a
	.long	0xc590
	.uleb128 0x3
	.long	0xc56f
	.byte	0
	.uleb128 0xb
	.long	0x4be4
	.long	0xc59e
	.byte	0x2
	.long	0xc5cf
	.uleb128 0x9
	.long	.LASF1303
	.long	0xa431
	.uleb128 0xe
	.string	"__n"
	.byte	0x2
	.value	0x24d
	.byte	0x18
	.long	0x4bd7
	.uleb128 0x13
	.long	.LASF841
	.byte	0x2
	.value	0x24d
	.byte	0x2f
	.long	0xa43b
	.uleb128 0xe
	.string	"__a"
	.byte	0x2
	.value	0x24e
	.byte	0x1d
	.long	0xa436
	.byte	0
	.uleb128 0x1a
	.long	0xc590
	.long	.LASF1365
	.long	0xc5e0
	.long	0xc5f5
	.uleb128 0x3
	.long	0xc59e
	.uleb128 0x3
	.long	0xc5a7
	.uleb128 0x3
	.long	0xc5b4
	.uleb128 0x3
	.long	0xc5c1
	.byte	0
	.uleb128 0xb
	.long	0x45b4
	.long	0xc603
	.byte	0x2
	.long	0xc60d
	.uleb128 0x9
	.long	.LASF1303
	.long	0xa3b4
	.byte	0
	.uleb128 0x1a
	.long	0xc5f5
	.long	.LASF1366
	.long	0xc61e
	.long	0xc624
	.uleb128 0x3
	.long	0xc603
	.byte	0
	.uleb128 0xb
	.long	0x4556
	.long	0xc632
	.byte	0x2
	.long	0xc63c
	.uleb128 0x9
	.long	.LASF1303
	.long	0xa3b4
	.byte	0
	.uleb128 0x1a
	.long	0xc624
	.long	.LASF1367
	.long	0xc64d
	.long	0xc653
	.uleb128 0x3
	.long	0xc632
	.byte	0
	.uleb128 0xb
	.long	0x3eb9
	.long	0xc661
	.byte	0x3
	.long	0xc678
	.uleb128 0x9
	.long	.LASF1303
	.long	0xa328
	.uleb128 0xe
	.string	"__x"
	.byte	0x2
	.value	0x57e
	.byte	0x23
	.long	0xa332
	.byte	0
	.uleb128 0xb
	.long	0x1910
	.long	0xc686
	.byte	0x3
	.long	0xc690
	.uleb128 0x9
	.long	.LASF1303
	.long	0x9d4f
	.byte	0
	.uleb128 0x15
	.long	0x7490
	.byte	0x3
	.long	0xc6bc
	.uleb128 0x11
	.string	"_Tp"
	.long	0x56
	.uleb128 0x26
	.string	"__a"
	.byte	0xa
	.byte	0xe8
	.byte	0x14
	.long	0xa3aa
	.uleb128 0x26
	.string	"__b"
	.byte	0xa
	.byte	0xe8
	.byte	0x24
	.long	0xa3aa
	.byte	0
	.uleb128 0x15
	.long	0x74b8
	.byte	0x3
	.long	0xc6ea
	.uleb128 0x11
	.string	"_Tp"
	.long	0x56
	.uleb128 0xe
	.string	"__a"
	.byte	0xa
	.value	0x100
	.byte	0x14
	.long	0xa3aa
	.uleb128 0xe
	.string	"__b"
	.byte	0xa
	.value	0x100
	.byte	0x24
	.long	0xa3aa
	.byte	0
	.uleb128 0xb
	.long	0x2924
	.long	0xc6f8
	.byte	0x3
	.long	0xc702
	.uleb128 0x9
	.long	.LASF1303
	.long	0xa233
	.byte	0
	.uleb128 0xb
	.long	0x28d7
	.long	0xc710
	.byte	0x3
	.long	0xc71a
	.uleb128 0x9
	.long	.LASF1303
	.long	0xa233
	.byte	0
	.uleb128 0xb
	.long	0x3d43
	.long	0xc728
	.byte	0x1
	.long	0xc758
	.uleb128 0x9
	.long	.LASF1303
	.long	0xa328
	.uleb128 0x26
	.string	"__n"
	.byte	0x7
	.byte	0x47
	.byte	0x17
	.long	0x3912
	.uleb128 0x45
	.uleb128 0x30
	.long	.LASF1368
	.byte	0x7
	.byte	0x4d
	.byte	0x14
	.long	0x391f
	.uleb128 0x30
	.long	.LASF1334
	.byte	0x7
	.byte	0x4e
	.byte	0xc
	.long	0x386a
	.byte	0
	.byte	0
	.uleb128 0xb
	.long	0x2a78
	.long	0xc766
	.byte	0x3
	.long	0xc77d
	.uleb128 0x9
	.long	.LASF1303
	.long	0xa25b
	.uleb128 0x29
	.long	.LASF1336
	.byte	0x2
	.value	0x455
	.byte	0xc
	.long	0x635
	.byte	0
	.uleb128 0xb
	.long	0x3a45
	.long	0xc78b
	.byte	0x2
	.long	0xc795
	.uleb128 0x9
	.long	.LASF1303
	.long	0xa328
	.byte	0
	.uleb128 0x3e
	.long	0xc77d
	.long	0xc7a2
	.long	0xc7a8
	.uleb128 0x3
	.long	0xc78b
	.byte	0
	.uleb128 0xb
	.long	0x372b
	.long	0xc7b6
	.byte	0x2
	.long	0xc7cf
	.uleb128 0x9
	.long	.LASF1303
	.long	0xa305
	.uleb128 0x45
	.uleb128 0x62
	.string	"__n"
	.byte	0x2
	.value	0x177
	.byte	0xc
	.long	0x635
	.byte	0
	.byte	0
	.uleb128 0x3e
	.long	0xc7a8
	.long	0xc7dc
	.long	0xc7ed
	.uleb128 0x3
	.long	0xc7b6
	.uleb128 0x72
	.long	0xc7bf
	.uleb128 0x38
	.long	0xc7c0
	.byte	0
	.byte	0
	.uleb128 0xb
	.long	0x334c
	.long	0xc7fb
	.byte	0x2
	.long	0xc805
	.uleb128 0x9
	.long	.LASF1303
	.long	0xa2a6
	.byte	0
	.uleb128 0x3e
	.long	0xc7ed
	.long	0xc812
	.long	0xc818
	.uleb128 0x3
	.long	0xc7fb
	.byte	0
	.uleb128 0xb
	.long	0x354a
	.long	0xc826
	.byte	0x2
	.long	0xc830
	.uleb128 0x9
	.long	.LASF1303
	.long	0xa2e7
	.byte	0
	.uleb128 0x3e
	.long	0xc818
	.long	0xc83d
	.long	0xc843
	.uleb128 0x3
	.long	0xc826
	.byte	0
	.uleb128 0xb
	.long	0x14d1
	.long	0xc851
	.byte	0x3
	.long	0xc875
	.uleb128 0x9
	.long	.LASF1303
	.long	0x9d4f
	.uleb128 0xe
	.string	"__n"
	.byte	0x2
	.value	0x361
	.byte	0x18
	.long	0x12f7
	.uleb128 0x13
	.long	.LASF1311
	.byte	0x2
	.value	0x361
	.byte	0x2f
	.long	0x9d59
	.byte	0
	.uleb128 0xb
	.long	0x1447
	.long	0xc883
	.byte	0x2
	.long	0xc88d
	.uleb128 0x9
	.long	.LASF1303
	.long	0x9d4f
	.byte	0
	.uleb128 0x1a
	.long	0xc875
	.long	.LASF1369
	.long	0xc89e
	.long	0xc8a4
	.uleb128 0x3
	.long	0xc883
	.byte	0
	.uleb128 0xb
	.long	0x10ec
	.long	0xc8b2
	.byte	0x2
	.long	0xc8cb
	.uleb128 0x9
	.long	.LASF1303
	.long	0x9d31
	.uleb128 0x45
	.uleb128 0x62
	.string	"__n"
	.byte	0x2
	.value	0x177
	.byte	0xc
	.long	0x635
	.byte	0
	.byte	0
	.uleb128 0x1a
	.long	0xc8a4
	.long	.LASF1370
	.long	0xc8dc
	.long	0xc8ed
	.uleb128 0x3
	.long	0xc8b2
	.uleb128 0x72
	.long	0xc8bb
	.uleb128 0x38
	.long	0xc8bc
	.byte	0
	.byte	0
	.uleb128 0xb
	.long	0xcd4
	.long	0xc8fb
	.byte	0x2
	.long	0xc905
	.uleb128 0x9
	.long	.LASF1303
	.long	0x9cd2
	.byte	0
	.uleb128 0x1a
	.long	0xc8ed
	.long	.LASF1371
	.long	0xc916
	.long	0xc91c
	.uleb128 0x3
	.long	0xc8fb
	.byte	0
	.uleb128 0xb
	.long	0xec6
	.long	0xc92a
	.byte	0x2
	.long	0xc934
	.uleb128 0x9
	.long	.LASF1303
	.long	0x9d13
	.byte	0
	.uleb128 0x1a
	.long	0xc91c
	.long	.LASF1372
	.long	0xc945
	.long	0xc94b
	.uleb128 0x3
	.long	0xc92a
	.byte	0
	.uleb128 0xb
	.long	0x2c42
	.long	0xc959
	.byte	0x3
	.long	0xc963
	.uleb128 0x9
	.long	.LASF1303
	.long	0xa233
	.byte	0
	.uleb128 0xca
	.long	.LASF1373
	.byte	0x1
	.byte	0x22
	.byte	0xb
	.long	.LASF1374
	.long	0x9d86
	.long	.LLRL0
	.uleb128 0x1
	.byte	0x9c
	.long	0x114dd
	.uleb128 0x9b
	.long	.LASF1375
	.byte	0x40
	.long	0xa251
	.long	.LLST1
	.long	.LVUS1
	.uleb128 0x9b
	.long	.LASF1376
	.byte	0x54
	.long	0x30
	.long	.LLST2
	.long	.LVUS2
	.uleb128 0x30
	.long	.LASF1268
	.byte	0x1
	.byte	0x23
	.byte	0x12
	.long	0x7521
	.uleb128 0x30
	.long	.LASF1269
	.byte	0x1
	.byte	0x24
	.byte	0x12
	.long	0x7521
	.uleb128 0x80
	.string	"w"
	.byte	0x25
	.byte	0xf
	.long	0x5e
	.uleb128 0x80
	.string	"h"
	.byte	0x26
	.byte	0xf
	.long	0x5e
	.uleb128 0x31
	.long	.LASF1377
	.byte	0x28
	.byte	0xf
	.long	0x9d86
	.long	.LLST3
	.long	.LVUS3
	.uleb128 0x31
	.long	.LASF1378
	.byte	0x2e
	.byte	0x1c
	.long	0x37e5
	.long	.LLST4
	.long	.LVUS4
	.uleb128 0x30
	.long	.LASF1379
	.byte	0x1
	.byte	0x46
	.byte	0x16
	.long	0x4a94
	.uleb128 0x30
	.long	.LASF1380
	.byte	0x1
	.byte	0x47
	.byte	0x16
	.long	0x4a94
	.uleb128 0x30
	.long	.LASF1381
	.byte	0x1
	.byte	0x59
	.byte	0x18
	.long	0x5e7c
	.uleb128 0x5b
	.long	.LLRL107
	.long	0xd21c
	.uleb128 0x2d
	.string	"sub"
	.byte	0x30
	.byte	0x10
	.long	0xa1b1
	.long	.LLST108
	.long	.LVUS108
	.uleb128 0x9c
	.long	.LASF1382
	.long	0xa251
	.long	.LLST109
	.long	.LVUS109
	.uleb128 0x5c
	.long	.LASF1383
	.long	0x28ca
	.uleb128 0x5c
	.long	.LASF1384
	.long	0x28ca
	.uleb128 0x5b
	.long	.LLRL116
	.long	0xd146
	.uleb128 0x2d
	.string	"p"
	.byte	0x31
	.byte	0x13
	.long	0xa0fa
	.long	.LLST117
	.long	.LVUS117
	.uleb128 0x31
	.long	.LASF1385
	.byte	0x32
	.byte	0xf
	.long	0x30
	.long	.LLST118
	.long	.LVUS118
	.uleb128 0x31
	.long	.LASF1386
	.byte	0x33
	.byte	0xf
	.long	0x30
	.long	.LLST119
	.long	.LVUS119
	.uleb128 0x2d
	.string	"dx"
	.byte	0x36
	.byte	0xf
	.long	0x30
	.long	.LLST120
	.long	.LVUS120
	.uleb128 0x2d
	.string	"dy"
	.byte	0x37
	.byte	0xf
	.long	0x30
	.long	.LLST121
	.long	.LVUS121
	.uleb128 0x1f
	.long	0x118ab
	.quad	.LBI2501
	.value	.LVU98
	.quad	.LBB2501
	.quad	.LBE2501-.LBB2501
	.byte	0x1
	.byte	0x34
	.byte	0x2b
	.long	0xcaf2
	.uleb128 0x4
	.long	0x118b5
	.long	.LLST122
	.long	.LVUS122
	.byte	0
	.uleb128 0x1f
	.long	0x118ab
	.quad	.LBI2503
	.value	.LVU104
	.quad	.LBB2503
	.quad	.LBE2503-.LBB2503
	.byte	0x1
	.byte	0x35
	.byte	0x2b
	.long	0xcb26
	.uleb128 0x4
	.long	0x118b5
	.long	.LLST123
	.long	.LVUS123
	.byte	0
	.uleb128 0x1f
	.long	0xc6bc
	.quad	.LBI2505
	.value	.LVU116
	.quad	.LBB2505
	.quad	.LBE2505-.LBB2505
	.byte	0x1
	.byte	0x3c
	.byte	0x1d
	.long	0xcb57
	.uleb128 0x3
	.long	0xc6cf
	.uleb128 0x3
	.long	0xc6dc
	.byte	0
	.uleb128 0x2a
	.long	0xc690
	.quad	.LBI2506
	.value	.LVU121
	.long	.LLRL124
	.byte	0x1
	.byte	0x3d
	.byte	0x1d
	.long	0xcb84
	.uleb128 0x4
	.long	0xc6a3
	.long	.LLST125
	.long	.LVUS125
	.uleb128 0x3
	.long	0xc6af
	.byte	0
	.uleb128 0x1f
	.long	0xc6bc
	.quad	.LBI2509
	.value	.LVU127
	.quad	.LBB2509
	.quad	.LBE2509-.LBB2509
	.byte	0x1
	.byte	0x3e
	.byte	0x1d
	.long	0xcbb5
	.uleb128 0x3
	.long	0xc6cf
	.uleb128 0x3
	.long	0xc6dc
	.byte	0
	.uleb128 0x2a
	.long	0xc690
	.quad	.LBI2510
	.value	.LVU130
	.long	.LLRL126
	.byte	0x1
	.byte	0x3f
	.byte	0x1d
	.long	0xcbe2
	.uleb128 0x4
	.long	0xc6a3
	.long	.LLST127
	.long	.LVUS127
	.uleb128 0x3
	.long	0xc6af
	.byte	0
	.uleb128 0x2a
	.long	0xc678
	.quad	.LBI2513
	.value	.LVU136
	.long	.LLRL128
	.byte	0x1
	.byte	0x40
	.byte	0x23
	.long	0xcc0a
	.uleb128 0x4
	.long	0xc686
	.long	.LLST129
	.long	.LVUS129
	.byte	0
	.uleb128 0x4d
	.long	0xc653
	.quad	.LBI2518
	.value	.LVU154
	.long	.LLRL130
	.byte	0x1
	.byte	0x42
	.byte	0x19
	.uleb128 0x4
	.long	0xc661
	.long	.LLST131
	.long	.LVUS131
	.uleb128 0x4
	.long	0xc66a
	.long	.LLST132
	.long	.LVUS132
	.uleb128 0x3a
	.long	0xbfc4
	.quad	.LBI2520
	.value	.LVU156
	.long	.LLRL133
	.byte	0x2
	.value	0x583
	.byte	0x1e
	.long	0xccac
	.uleb128 0x4
	.long	0xbfe6
	.long	.LLST134
	.long	.LVUS134
	.uleb128 0x3
	.long	0xbff3
	.uleb128 0x4
	.long	0xc00a
	.long	.LLST135
	.long	.LVUS135
	.uleb128 0x18
	.long	0xb651
	.quad	.LBI2521
	.value	.LVU157
	.long	.LLRL133
	.byte	0x8
	.value	0x2ca
	.byte	0x11
	.uleb128 0x4
	.long	0xb677
	.long	.LLST136
	.long	.LVUS136
	.uleb128 0x3
	.long	0xb680
	.uleb128 0x4
	.long	0xb694
	.long	.LLST137
	.long	.LVUS137
	.byte	0
	.byte	0
	.uleb128 0x18
	.long	0xbf2c
	.quad	.LBI2526
	.value	.LVU1318
	.long	.LLRL138
	.byte	0x2
	.value	0x589
	.byte	0x15
	.uleb128 0x4
	.long	0xbf49
	.long	.LLST139
	.long	.LVUS139
	.uleb128 0x4
	.long	0xbf60
	.long	.LLST140
	.long	.LVUS140
	.uleb128 0x38
	.long	0xbf66
	.uleb128 0x3c
	.long	0xbf73
	.long	.LLST141
	.long	.LVUS141
	.uleb128 0x3c
	.long	0xbf80
	.long	.LLST142
	.long	.LVUS142
	.uleb128 0x3c
	.long	0xbf8d
	.long	.LLST143
	.long	.LVUS143
	.uleb128 0x3c
	.long	0xbf9a
	.long	.LLST144
	.long	.LVUS144
	.uleb128 0x3c
	.long	0xbfa7
	.long	.LLST145
	.long	.LVUS145
	.uleb128 0x3a
	.long	0xb612
	.quad	.LBI2528
	.value	.LVU1319
	.long	.LLRL146
	.byte	0x7
	.value	0x23e
	.byte	0x2b
	.long	0xcdf7
	.uleb128 0x4
	.long	0xb620
	.long	.LLST147
	.long	.LVUS147
	.uleb128 0x4
	.long	0xb629
	.long	.LLST148
	.long	.LVUS148
	.uleb128 0x4
	.long	0xb636
	.long	.LLST149
	.long	.LVUS149
	.uleb128 0x38
	.long	0xb643
	.uleb128 0x73
	.long	0xc0ff
	.quad	.LBI2530
	.value	.LVU1320
	.quad	.LBB2530
	.quad	.LBE2530-.LBB2530
	.value	0x892
	.byte	0x17
	.byte	0x1
	.long	0xcdac
	.uleb128 0x4
	.long	0xc10d
	.long	.LLST150
	.long	.LVUS150
	.uleb128 0x3c
	.long	0xc116
	.long	.LLST151
	.long	.LVUS151
	.byte	0
	.uleb128 0x57
	.long	0xaf21
	.quad	.LBI2532
	.value	.LVU1330
	.long	.LLRL152
	.byte	0x2
	.value	0x895
	.byte	0x2d
	.byte	0x2
	.long	0xcddb
	.uleb128 0x3
	.long	0xaf34
	.uleb128 0x4
	.long	0xaf41
	.long	.LLST153
	.long	.LVUS153
	.byte	0
	.uleb128 0x2e
	.quad	.LVL287
	.long	0x6dcd
	.uleb128 0x20
	.uleb128 0x1
	.byte	0x55
	.uleb128 0x9
	.byte	0x3
	.quad	.LC2
	.byte	0
	.byte	0
	.uleb128 0x3a
	.long	0xc0da
	.quad	.LBI2537
	.value	.LVU1332
	.long	.LLRL154
	.byte	0x7
	.value	0x244
	.byte	0x2c
	.long	0xce9c
	.uleb128 0x4
	.long	0xc0e8
	.long	.LLST155
	.long	.LVUS155
	.uleb128 0x3
	.long	0xc0f1
	.uleb128 0x5d
	.long	0xb71a
	.quad	.LBI2539
	.value	.LVU1333
	.long	.LLRL156
	.byte	0x2
	.value	0x185
	.byte	0x1
	.uleb128 0x4
	.long	0xb724
	.long	.LLST157
	.long	.LVUS157
	.uleb128 0x3
	.long	0xb731
	.uleb128 0x18
	.long	0xaf4f
	.quad	.LBI2540
	.value	.LVU1334
	.long	.LLRL158
	.byte	0x8
	.value	0x27e
	.byte	0x1c
	.uleb128 0x4
	.long	0xaf72
	.long	.LLST159
	.long	.LVUS159
	.uleb128 0x4
	.long	0xaf5d
	.long	.LLST160
	.long	.LVUS160
	.uleb128 0x3
	.long	0xaf66
	.uleb128 0x2e
	.quad	.LVL233
	.long	0xa61e
	.uleb128 0x20
	.uleb128 0x1
	.byte	0x55
	.uleb128 0x4
	.byte	0x77
	.sleb128 160
	.byte	0x6
	.byte	0
	.byte	0
	.byte	0
	.byte	0
	.uleb128 0x74
	.long	0xbfb4
	.long	.LLRL161
	.uleb128 0x38
	.long	0xbfb5
	.uleb128 0x57
	.long	0xbfc4
	.quad	.LBI2556
	.value	.LVU1345
	.long	.LLRL162
	.byte	0x7
	.value	0x252
	.byte	0x1a
	.byte	0x1
	.long	0xcf2d
	.uleb128 0x4
	.long	0xbfe6
	.long	.LLST163
	.long	.LVUS163
	.uleb128 0x4
	.long	0xbff3
	.long	.LLST164
	.long	.LVUS164
	.uleb128 0x4
	.long	0xc00a
	.long	.LLST165
	.long	.LVUS165
	.uleb128 0x18
	.long	0xb651
	.quad	.LBI2557
	.value	.LVU1346
	.long	.LLRL162
	.byte	0x8
	.value	0x2ca
	.byte	0x11
	.uleb128 0x4
	.long	0xb677
	.long	.LLST166
	.long	.LVUS166
	.uleb128 0x4
	.long	0xb680
	.long	.LLST167
	.long	.LVUS167
	.uleb128 0x4
	.long	0xb694
	.long	.LLST168
	.long	.LVUS168
	.byte	0
	.byte	0
	.uleb128 0x3a
	.long	0xc080
	.quad	.LBI2571
	.value	.LVU1357
	.long	.LLRL169
	.byte	0x7
	.value	0x25f
	.byte	0x26
	.long	0xcfea
	.uleb128 0x4
	.long	0xc0a5
	.long	.LLST170
	.long	.LVUS170
	.uleb128 0x3
	.long	0xc0b2
	.uleb128 0x4
	.long	0xc0bf
	.long	.LLST171
	.long	.LVUS171
	.uleb128 0x4
	.long	0xc0cc
	.long	.LLST172
	.long	.LVUS172
	.uleb128 0x5d
	.long	0xb69b
	.quad	.LBI2572
	.value	.LVU1358
	.long	.LLRL169
	.byte	0xc
	.value	0x582
	.byte	0x3
	.uleb128 0x4
	.long	0xb6b7
	.long	.LLST173
	.long	.LVUS173
	.uleb128 0x3
	.long	0xb6c4
	.uleb128 0x4
	.long	0xb6d1
	.long	.LLST174
	.long	.LVUS174
	.uleb128 0x4
	.long	0xb6de
	.long	.LLST175
	.long	.LVUS175
	.uleb128 0x3c
	.long	0xb6eb
	.long	.LLST176
	.long	.LVUS176
	.uleb128 0x2e
	.quad	.LVL237
	.long	0x11920
	.uleb128 0x20
	.uleb128 0x1
	.byte	0x55
	.uleb128 0x4
	.byte	0x77
	.sleb128 168
	.byte	0x6
	.uleb128 0x20
	.uleb128 0x1
	.byte	0x54
	.uleb128 0x4
	.byte	0x77
	.sleb128 96
	.byte	0x6
	.uleb128 0x20
	.uleb128 0x1
	.byte	0x51
	.uleb128 0x2
	.byte	0x7c
	.sleb128 0
	.byte	0
	.byte	0
	.byte	0
	.uleb128 0x2f
	.long	0xb5b1
	.quad	.LBI2583
	.value	.LVU1343
	.quad	.LBB2583
	.quad	.LBE2583-.LBB2583
	.byte	0x7
	.value	0x248
	.byte	0xf
	.long	0xd03e
	.uleb128 0x4
	.long	0xb5bf
	.long	.LLST177
	.long	.LVUS177
	.uleb128 0x4
	.long	0xb5c8
	.long	.LLST178
	.long	.LVUS178
	.uleb128 0x3
	.long	0xb5d5
	.uleb128 0x4
	.long	0xb5e2
	.long	.LLST179
	.long	.LVUS179
	.byte	0
	.uleb128 0x18
	.long	0xb586
	.quad	.LBI2595
	.value	.LVU1367
	.long	.LLRL180
	.byte	0x7
	.value	0x289
	.byte	0x7
	.uleb128 0x4
	.long	0xb594
	.long	.LLST181
	.long	.LVUS181
	.uleb128 0x18
	.long	0xc1b5
	.quad	.LBI2597
	.value	.LVU1372
	.long	.LLRL182
	.byte	0x2
	.value	0x751
	.byte	0x1b
	.uleb128 0x3
	.long	0xc1c3
	.uleb128 0x4
	.long	0xc1cc
	.long	.LLST183
	.long	.LVUS183
	.uleb128 0x3
	.long	0xc1d9
	.uleb128 0x18
	.long	0xc1b5
	.quad	.LBI2599
	.value	.LVU1373
	.long	.LLRL184
	.byte	0x2
	.value	0x18a
	.byte	0x7
	.uleb128 0x3
	.long	0xc1c3
	.uleb128 0x4
	.long	0xc1cc
	.long	.LLST185
	.long	.LVUS185
	.uleb128 0x3
	.long	0xc1d9
	.uleb128 0x18
	.long	0xb7b5
	.quad	.LBI2601
	.value	.LVU1374
	.long	.LLRL186
	.byte	0x2
	.value	0x18e
	.byte	0x13
	.uleb128 0x3
	.long	0xb7bf
	.uleb128 0x4
	.long	0xb7cc
	.long	.LLST187
	.long	.LVUS187
	.uleb128 0x3
	.long	0xb7d9
	.uleb128 0x18
	.long	0xaf90
	.quad	.LBI2602
	.value	.LVU1375
	.long	.LLRL188
	.byte	0x8
	.value	0x2b1
	.byte	0x17
	.uleb128 0x3
	.long	0xaf9e
	.uleb128 0x4
	.long	0xafa7
	.long	.LLST189
	.long	.LVUS189
	.uleb128 0x3
	.long	0xafb3
	.uleb128 0x2e
	.quad	.LVL241
	.long	0xa603
	.uleb128 0x20
	.uleb128 0x1
	.byte	0x55
	.uleb128 0x4
	.byte	0x77
	.sleb128 96
	.byte	0x6
	.uleb128 0x20
	.uleb128 0x1
	.byte	0x54
	.uleb128 0x9
	.byte	0x77
	.sleb128 208
	.byte	0x6
	.byte	0x77
	.sleb128 96
	.byte	0x6
	.byte	0x1c
	.byte	0
	.byte	0
	.byte	0
	.byte	0
	.byte	0
	.byte	0
	.byte	0
	.byte	0
	.byte	0
	.byte	0
	.uleb128 0x2a
	.long	0xc702
	.quad	.LBI2494
	.value	.LVU79
	.long	.LLRL110
	.byte	0x1
	.byte	0x30
	.byte	0x16
	.long	0xd198
	.uleb128 0x4
	.long	0xc710
	.long	.LLST111
	.long	.LVUS111
	.uleb128 0x18
	.long	0xc03f
	.quad	.LBI2495
	.value	.LVU80
	.long	.LLRL110
	.byte	0x2
	.value	0x3dd
	.byte	0x10
	.uleb128 0x3
	.long	0xc04d
	.uleb128 0x4
	.long	0xc056
	.long	.LLST112
	.long	.LVUS112
	.byte	0
	.byte	0
	.uleb128 0x32
	.long	0xc6ea
	.quad	.LBI2497
	.value	.LVU82
	.long	.LLRL113
	.byte	0x1
	.byte	0x30
	.byte	0x16
	.byte	0x1
	.long	0xd1eb
	.uleb128 0x4
	.long	0xc6f8
	.long	.LLST114
	.long	.LVUS114
	.uleb128 0x18
	.long	0xc03f
	.quad	.LBI2498
	.value	.LVU83
	.long	.LLRL113
	.byte	0x2
	.value	0x3f1
	.byte	0x10
	.uleb128 0x3
	.long	0xc04d
	.uleb128 0x4
	.long	0xc056
	.long	.LLST115
	.long	.LVUS115
	.byte	0
	.byte	0
	.uleb128 0x75
	.long	0x114f5
	.quad	.LBI2631
	.value	.LVU164
	.quad	.LBB2631
	.quad	.LBE2631-.LBB2631
	.byte	0x1
	.byte	0x30
	.byte	0x4
	.uleb128 0x4
	.long	0x11503
	.long	.LLST190
	.long	.LVUS190
	.byte	0
	.byte	0
	.uleb128 0x81
	.quad	.LBB2768
	.quad	.LBE2768-.LBB2768
	.long	0xd445
	.uleb128 0x2d
	.string	"p"
	.byte	0x49
	.byte	0x16
	.long	0xa29c
	.long	.LLST295
	.long	.LVUS295
	.uleb128 0x9c
	.long	.LASF1382
	.long	0xa346
	.long	.LLST296
	.long	.LVUS296
	.uleb128 0x5c
	.long	.LASF1383
	.long	0x3afe
	.uleb128 0x5c
	.long	.LASF1384
	.long	0x3afe
	.uleb128 0x1f
	.long	0xc549
	.quad	.LBI2769
	.value	.LVU265
	.quad	.LBB2769
	.quad	.LBE2769-.LBB2769
	.byte	0x1
	.byte	0x49
	.byte	0x1a
	.long	0xd2d1
	.uleb128 0x4
	.long	0xc557
	.long	.LLST297
	.long	.LVUS297
	.uleb128 0x12
	.long	0xbd19
	.quad	.LBI2770
	.value	.LVU266
	.quad	.LBB2770
	.quad	.LBE2770-.LBB2770
	.byte	0x2
	.value	0x3dd
	.byte	0x10
	.uleb128 0x3
	.long	0xbd27
	.uleb128 0x4
	.long	0xbd30
	.long	.LLST298
	.long	.LVUS298
	.byte	0
	.byte	0
	.uleb128 0x58
	.long	0xc531
	.quad	.LBI2771
	.value	.LVU268
	.quad	.LBB2771
	.quad	.LBE2771-.LBB2771
	.byte	0x49
	.byte	0x1a
	.byte	0x1
	.long	0xd33b
	.uleb128 0x4
	.long	0xc53f
	.long	.LLST299
	.long	.LVUS299
	.uleb128 0x12
	.long	0xbd19
	.quad	.LBI2772
	.value	.LVU269
	.quad	.LBB2772
	.quad	.LBE2772-.LBB2772
	.byte	0x2
	.value	0x3f1
	.byte	0x10
	.uleb128 0x3
	.long	0xbd27
	.uleb128 0x4
	.long	0xbd30
	.long	.LLST300
	.long	.LVUS300
	.byte	0
	.byte	0
	.uleb128 0x32
	.long	0x114dd
	.quad	.LBI2773
	.value	.LVU307
	.long	.LLRL301
	.byte	0x1
	.byte	0x49
	.byte	0x1a
	.byte	0x4
	.long	0xd364
	.uleb128 0x4
	.long	0x114eb
	.long	.LLST302
	.long	.LVUS302
	.byte	0
	.uleb128 0x1f
	.long	0xc50c
	.quad	.LBI2775
	.value	.LVU281
	.quad	.LBB2775
	.quad	.LBE2775-.LBB2775
	.byte	0x1
	.byte	0x4a
	.byte	0x31
	.long	0xd39d
	.uleb128 0x3
	.long	0xc51a
	.uleb128 0x4
	.long	0xc523
	.long	.LLST303
	.long	.LVUS303
	.byte	0
	.uleb128 0x1f
	.long	0xc50c
	.quad	.LBI2777
	.value	.LVU289
	.quad	.LBB2777
	.quad	.LBE2777-.LBB2777
	.byte	0x1
	.byte	0x4b
	.byte	0x31
	.long	0xd3d6
	.uleb128 0x3
	.long	0xc51a
	.uleb128 0x4
	.long	0xc523
	.long	.LLST304
	.long	.LVUS304
	.byte	0
	.uleb128 0x1f
	.long	0xc50c
	.quad	.LBI2779
	.value	.LVU295
	.quad	.LBB2779
	.quad	.LBE2779-.LBB2779
	.byte	0x1
	.byte	0x4c
	.byte	0x31
	.long	0xd40f
	.uleb128 0x3
	.long	0xc51a
	.uleb128 0x4
	.long	0xc523
	.long	.LLST305
	.long	.LVUS305
	.byte	0
	.uleb128 0x22
	.long	0xc50c
	.quad	.LBI2781
	.value	.LVU301
	.quad	.LBB2781
	.quad	.LBE2781-.LBB2781
	.byte	0x1
	.byte	0x4d
	.byte	0x31
	.uleb128 0x3
	.long	0xc51a
	.uleb128 0x4
	.long	0xc523
	.long	.LLST306
	.long	.LVUS306
	.byte	0
	.byte	0
	.uleb128 0x81
	.quad	.LBB2784
	.quad	.LBE2784-.LBB2784
	.long	0xd49d
	.uleb128 0x2d
	.string	"y"
	.byte	0x50
	.byte	0xe
	.long	0x56
	.long	.LLST307
	.long	.LVUS307
	.uleb128 0x4a
	.long	.LLRL308
	.uleb128 0x2d
	.string	"row"
	.byte	0x51
	.byte	0xd
	.long	0x56
	.long	.LLST309
	.long	.LVUS309
	.uleb128 0x4a
	.long	.LLRL310
	.uleb128 0x2d
	.string	"x"
	.byte	0x52
	.byte	0x12
	.long	0x56
	.long	.LLST311
	.long	.LVUS311
	.byte	0
	.byte	0
	.byte	0
	.uleb128 0x5b
	.long	.LLRL360
	.long	0xe7aa
	.uleb128 0x2d
	.string	"p"
	.byte	0x5b
	.byte	0x1b
	.long	0xa29c
	.long	.LLST361
	.long	.LVUS361
	.uleb128 0x5c
	.long	.LASF1382
	.long	0xa346
	.uleb128 0x5c
	.long	.LASF1383
	.long	0x3afe
	.uleb128 0x5c
	.long	.LASF1384
	.long	0x3afe
	.uleb128 0x4a
	.long	.LLRL362
	.uleb128 0x2d
	.string	"Avx"
	.byte	0x5c
	.byte	0x16
	.long	0xa0b1
	.long	.LLST363
	.long	.LVUS363
	.uleb128 0x2d
	.string	"Bvx"
	.byte	0x5d
	.byte	0x16
	.long	0xa0b1
	.long	.LLST364
	.long	.LVUS364
	.uleb128 0x2d
	.string	"Cvx"
	.byte	0x5e
	.byte	0x16
	.long	0xa0b1
	.long	.LLST365
	.long	.LVUS365
	.uleb128 0x2d
	.string	"Dvx"
	.byte	0x5f
	.byte	0x16
	.long	0xa0b1
	.long	.LLST366
	.long	.LVUS366
	.uleb128 0x5b
	.long	.LLRL367
	.long	0xe70c
	.uleb128 0x2d
	.string	"y"
	.byte	0x61
	.byte	0x12
	.long	0x56
	.long	.LLST368
	.long	.LVUS368
	.uleb128 0x4a
	.long	.LLRL369
	.uleb128 0x31
	.long	.LASF1387
	.byte	0x62
	.byte	0x14
	.long	0x7515
	.long	.LLST370
	.long	.LVUS370
	.uleb128 0x31
	.long	.LASF1388
	.byte	0x63
	.byte	0x14
	.long	0x7515
	.long	.LLST371
	.long	.LVUS371
	.uleb128 0x31
	.long	.LASF1389
	.byte	0x64
	.byte	0x14
	.long	0x7515
	.long	.LLST372
	.long	.LVUS372
	.uleb128 0x31
	.long	.LASF1390
	.byte	0x65
	.byte	0x14
	.long	0x7515
	.long	.LLST373
	.long	.LVUS373
	.uleb128 0x2d
	.string	"vp"
	.byte	0x67
	.byte	0x14
	.long	0xa49f
	.long	.LLST374
	.long	.LVUS374
	.uleb128 0x2d
	.string	"x"
	.byte	0x6b
	.byte	0x11
	.long	0x56
	.long	.LLST375
	.long	.LVUS375
	.uleb128 0x30
	.long	.LASF1391
	.byte	0x1
	.byte	0x6c
	.byte	0x17
	.long	0x5e
	.uleb128 0x31
	.long	.LASF1392
	.byte	0xb3
	.byte	0x11
	.long	0x56
	.long	.LLST376
	.long	.LVUS376
	.uleb128 0x5b
	.long	.LLRL416
	.long	0xe0ee
	.uleb128 0x30
	.long	.LASF1393
	.byte	0x1
	.byte	0x71
	.byte	0x19
	.long	0xa045
	.uleb128 0x30
	.long	.LASF1394
	.byte	0x1
	.byte	0x72
	.byte	0x19
	.long	0xa045
	.uleb128 0x30
	.long	.LASF1395
	.byte	0x1
	.byte	0x73
	.byte	0x19
	.long	0xa045
	.uleb128 0x30
	.long	.LASF1396
	.byte	0x1
	.byte	0x74
	.byte	0x19
	.long	0xa045
	.uleb128 0x30
	.long	.LASF1397
	.byte	0x1
	.byte	0x76
	.byte	0x19
	.long	0xa045
	.uleb128 0x30
	.long	.LASF1398
	.byte	0x1
	.byte	0x77
	.byte	0x19
	.long	0xa045
	.uleb128 0x30
	.long	.LASF1399
	.byte	0x1
	.byte	0x78
	.byte	0x19
	.long	0xa045
	.uleb128 0x30
	.long	.LASF1400
	.byte	0x1
	.byte	0x79
	.byte	0x19
	.long	0xa045
	.uleb128 0x31
	.long	.LASF1401
	.byte	0x7b
	.byte	0x18
	.long	0xa0a5
	.long	.LLST417
	.long	.LVUS417
	.uleb128 0x31
	.long	.LASF1402
	.byte	0x7c
	.byte	0x18
	.long	0xa0a5
	.long	.LLST418
	.long	.LVUS418
	.uleb128 0x31
	.long	.LASF1403
	.byte	0x7d
	.byte	0x18
	.long	0xa0a5
	.long	.LLST419
	.long	.LVUS419
	.uleb128 0x31
	.long	.LASF1404
	.byte	0x7e
	.byte	0x18
	.long	0xa0a5
	.long	.LLST420
	.long	.LVUS420
	.uleb128 0x30
	.long	.LASF1405
	.byte	0x1
	.byte	0x80
	.byte	0x18
	.long	0xa0a5
	.uleb128 0x31
	.long	.LASF1406
	.byte	0x81
	.byte	0x18
	.long	0xa0a5
	.long	.LLST421
	.long	.LVUS421
	.uleb128 0x31
	.long	.LASF1407
	.byte	0x82
	.byte	0x18
	.long	0xa0a5
	.long	.LLST422
	.long	.LVUS422
	.uleb128 0x31
	.long	.LASF1408
	.byte	0x83
	.byte	0x18
	.long	0xa0a5
	.long	.LLST423
	.long	.LVUS423
	.uleb128 0x31
	.long	.LASF1409
	.byte	0x85
	.byte	0x18
	.long	0xa0a5
	.long	.LLST424
	.long	.LVUS424
	.uleb128 0x31
	.long	.LASF1410
	.byte	0x86
	.byte	0x18
	.long	0xa0a5
	.long	.LLST425
	.long	.LVUS425
	.uleb128 0x2a
	.long	0x11826
	.quad	.LBI2972
	.value	.LVU454
	.long	.LLRL426
	.byte	0x1
	.byte	0x71
	.byte	0x33
	.long	0xd784
	.uleb128 0x3
	.long	0x1183a
	.uleb128 0x12
	.long	0x1184d
	.quad	.LBI2974
	.value	.LVU459
	.quad	.LBB2974
	.quad	.LBE2974-.LBB2974
	.byte	0xe
	.value	0x2c9
	.byte	0x18
	.uleb128 0x3
	.long	0x11861
	.uleb128 0x4
	.long	0x1186e
	.long	.LLST427
	.long	.LVUS427
	.uleb128 0x12
	.long	0x1187c
	.quad	.LBI2976
	.value	.LVU461
	.quad	.LBB2976
	.quad	.LBE2976-.LBB2976
	.byte	0xe
	.value	0x25a
	.byte	0x19
	.uleb128 0x4
	.long	0x11890
	.long	.LLST428
	.long	.LVUS428
	.uleb128 0x4
	.long	0x1189d
	.long	.LLST429
	.long	.LVUS429
	.byte	0
	.byte	0
	.byte	0
	.uleb128 0x2a
	.long	0x11770
	.quad	.LBI2979
	.value	.LVU535
	.long	.LLRL430
	.byte	0x1
	.byte	0x7c
	.byte	0x35
	.long	0xd7a4
	.uleb128 0x3
	.long	0x11784
	.byte	0
	.uleb128 0x2a
	.long	0x11770
	.quad	.LBI2982
	.value	.LVU564
	.long	.LLRL431
	.byte	0x1
	.byte	0x81
	.byte	0x35
	.long	0xd7c4
	.uleb128 0x3
	.long	0x11784
	.byte	0
	.uleb128 0x1f
	.long	0x11826
	.quad	.LBI2986
	.value	.LVU465
	.quad	.LBB2986
	.quad	.LBE2986-.LBB2986
	.byte	0x1
	.byte	0x72
	.byte	0x33
	.long	0xd86c
	.uleb128 0x4
	.long	0x1183a
	.long	.LLST432
	.long	.LVUS432
	.uleb128 0x12
	.long	0x1184d
	.quad	.LBI2988
	.value	.LVU467
	.quad	.LBB2988
	.quad	.LBE2988-.LBB2988
	.byte	0xe
	.value	0x2c9
	.byte	0x18
	.uleb128 0x3
	.long	0x11861
	.uleb128 0x4
	.long	0x1186e
	.long	.LLST433
	.long	.LVUS433
	.uleb128 0x12
	.long	0x1187c
	.quad	.LBI2990
	.value	.LVU469
	.quad	.LBB2990
	.quad	.LBE2990-.LBB2990
	.byte	0xe
	.value	0x25a
	.byte	0x19
	.uleb128 0x4
	.long	0x11890
	.long	.LLST434
	.long	.LVUS434
	.uleb128 0x4
	.long	0x1189d
	.long	.LLST435
	.long	.LVUS435
	.byte	0
	.byte	0
	.byte	0
	.uleb128 0x1f
	.long	0x11826
	.quad	.LBI2992
	.value	.LVU473
	.quad	.LBB2992
	.quad	.LBE2992-.LBB2992
	.byte	0x1
	.byte	0x73
	.byte	0x33
	.long	0xd90c
	.uleb128 0x3
	.long	0x1183a
	.uleb128 0x12
	.long	0x1184d
	.quad	.LBI2994
	.value	.LVU475
	.quad	.LBB2994
	.quad	.LBE2994-.LBB2994
	.byte	0xe
	.value	0x2c9
	.byte	0x18
	.uleb128 0x3
	.long	0x11861
	.uleb128 0x4
	.long	0x1186e
	.long	.LLST436
	.long	.LVUS436
	.uleb128 0x12
	.long	0x1187c
	.quad	.LBI2996
	.value	.LVU477
	.quad	.LBB2996
	.quad	.LBE2996-.LBB2996
	.byte	0xe
	.value	0x25a
	.byte	0x19
	.uleb128 0x4
	.long	0x11890
	.long	.LLST437
	.long	.LVUS437
	.uleb128 0x4
	.long	0x1189d
	.long	.LLST438
	.long	.LVUS438
	.byte	0
	.byte	0
	.byte	0
	.uleb128 0x1f
	.long	0x11826
	.quad	.LBI2998
	.value	.LVU481
	.quad	.LBB2998
	.quad	.LBE2998-.LBB2998
	.byte	0x1
	.byte	0x74
	.byte	0x33
	.long	0xd9b4
	.uleb128 0x4
	.long	0x1183a
	.long	.LLST439
	.long	.LVUS439
	.uleb128 0x12
	.long	0x1184d
	.quad	.LBI3000
	.value	.LVU483
	.quad	.LBB3000
	.quad	.LBE3000-.LBB3000
	.byte	0xe
	.value	0x2c9
	.byte	0x18
	.uleb128 0x3
	.long	0x11861
	.uleb128 0x4
	.long	0x1186e
	.long	.LLST440
	.long	.LVUS440
	.uleb128 0x12
	.long	0x1187c
	.quad	.LBI3002
	.value	.LVU485
	.quad	.LBB3002
	.quad	.LBE3002-.LBB3002
	.byte	0xe
	.value	0x25a
	.byte	0x19
	.uleb128 0x4
	.long	0x11890
	.long	.LLST441
	.long	.LVUS441
	.uleb128 0x4
	.long	0x1189d
	.long	.LLST442
	.long	.LVUS442
	.byte	0
	.byte	0
	.byte	0
	.uleb128 0x1f
	.long	0x11826
	.quad	.LBI3004
	.value	.LVU489
	.quad	.LBB3004
	.quad	.LBE3004-.LBB3004
	.byte	0x1
	.byte	0x76
	.byte	0x33
	.long	0xda54
	.uleb128 0x3
	.long	0x1183a
	.uleb128 0x12
	.long	0x1184d
	.quad	.LBI3006
	.value	.LVU491
	.quad	.LBB3006
	.quad	.LBE3006-.LBB3006
	.byte	0xe
	.value	0x2c9
	.byte	0x18
	.uleb128 0x3
	.long	0x11861
	.uleb128 0x4
	.long	0x1186e
	.long	.LLST443
	.long	.LVUS443
	.uleb128 0x12
	.long	0x1187c
	.quad	.LBI3008
	.value	.LVU493
	.quad	.LBB3008
	.quad	.LBE3008-.LBB3008
	.byte	0xe
	.value	0x25a
	.byte	0x19
	.uleb128 0x4
	.long	0x11890
	.long	.LLST444
	.long	.LVUS444
	.uleb128 0x4
	.long	0x1189d
	.long	.LLST445
	.long	.LVUS445
	.byte	0
	.byte	0
	.byte	0
	.uleb128 0x1f
	.long	0x11826
	.quad	.LBI3010
	.value	.LVU497
	.quad	.LBB3010
	.quad	.LBE3010-.LBB3010
	.byte	0x1
	.byte	0x77
	.byte	0x33
	.long	0xdafc
	.uleb128 0x4
	.long	0x1183a
	.long	.LLST446
	.long	.LVUS446
	.uleb128 0x12
	.long	0x1184d
	.quad	.LBI3012
	.value	.LVU499
	.quad	.LBB3012
	.quad	.LBE3012-.LBB3012
	.byte	0xe
	.value	0x2c9
	.byte	0x18
	.uleb128 0x3
	.long	0x11861
	.uleb128 0x4
	.long	0x1186e
	.long	.LLST447
	.long	.LVUS447
	.uleb128 0x12
	.long	0x1187c
	.quad	.LBI3014
	.value	.LVU501
	.quad	.LBB3014
	.quad	.LBE3014-.LBB3014
	.byte	0xe
	.value	0x25a
	.byte	0x19
	.uleb128 0x4
	.long	0x11890
	.long	.LLST448
	.long	.LVUS448
	.uleb128 0x4
	.long	0x1189d
	.long	.LLST449
	.long	.LVUS449
	.byte	0
	.byte	0
	.byte	0
	.uleb128 0x1f
	.long	0x11826
	.quad	.LBI3016
	.value	.LVU505
	.quad	.LBB3016
	.quad	.LBE3016-.LBB3016
	.byte	0x1
	.byte	0x78
	.byte	0x33
	.long	0xdb9c
	.uleb128 0x3
	.long	0x1183a
	.uleb128 0x12
	.long	0x1184d
	.quad	.LBI3018
	.value	.LVU507
	.quad	.LBB3018
	.quad	.LBE3018-.LBB3018
	.byte	0xe
	.value	0x2c9
	.byte	0x18
	.uleb128 0x3
	.long	0x11861
	.uleb128 0x4
	.long	0x1186e
	.long	.LLST450
	.long	.LVUS450
	.uleb128 0x12
	.long	0x1187c
	.quad	.LBI3020
	.value	.LVU509
	.quad	.LBB3020
	.quad	.LBE3020-.LBB3020
	.byte	0xe
	.value	0x25a
	.byte	0x19
	.uleb128 0x4
	.long	0x11890
	.long	.LLST451
	.long	.LVUS451
	.uleb128 0x4
	.long	0x1189d
	.long	.LLST452
	.long	.LVUS452
	.byte	0
	.byte	0
	.byte	0
	.uleb128 0x1f
	.long	0x11826
	.quad	.LBI3022
	.value	.LVU513
	.quad	.LBB3022
	.quad	.LBE3022-.LBB3022
	.byte	0x1
	.byte	0x79
	.byte	0x33
	.long	0xdc44
	.uleb128 0x4
	.long	0x1183a
	.long	.LLST453
	.long	.LVUS453
	.uleb128 0x12
	.long	0x1184d
	.quad	.LBI3024
	.value	.LVU515
	.quad	.LBB3024
	.quad	.LBE3024-.LBB3024
	.byte	0xe
	.value	0x2c9
	.byte	0x18
	.uleb128 0x3
	.long	0x11861
	.uleb128 0x4
	.long	0x1186e
	.long	.LLST454
	.long	.LVUS454
	.uleb128 0x12
	.long	0x1187c
	.quad	.LBI3026
	.value	.LVU517
	.quad	.LBB3026
	.quad	.LBE3026-.LBB3026
	.byte	0xe
	.value	0x25a
	.byte	0x19
	.uleb128 0x4
	.long	0x11890
	.long	.LLST455
	.long	.LVUS455
	.uleb128 0x4
	.long	0x1189d
	.long	.LLST456
	.long	.LVUS456
	.byte	0
	.byte	0
	.byte	0
	.uleb128 0x2a
	.long	0x11770
	.quad	.LBI3028
	.value	.LVU521
	.long	.LLRL457
	.byte	0x1
	.byte	0x7b
	.byte	0x35
	.long	0xdc64
	.uleb128 0x3
	.long	0x11784
	.byte	0
	.uleb128 0x2a
	.long	0x11770
	.quad	.LBI3031
	.value	.LVU552
	.long	.LLRL458
	.byte	0x1
	.byte	0x7e
	.byte	0x35
	.long	0xdc84
	.uleb128 0x3
	.long	0x11784
	.byte	0
	.uleb128 0x2a
	.long	0x11770
	.quad	.LBI3034
	.value	.LVU578
	.long	.LLRL459
	.byte	0x1
	.byte	0x83
	.byte	0x35
	.long	0xdca4
	.uleb128 0x3
	.long	0x11784
	.byte	0
	.uleb128 0x32
	.long	0x11804
	.quad	.LBI3038
	.value	.LVU527
	.long	.LLRL460
	.byte	0x1
	.byte	0x7b
	.byte	0x35
	.byte	0x1
	.long	0xdccd
	.uleb128 0x4
	.long	0x11818
	.long	.LLST461
	.long	.LVUS461
	.byte	0
	.uleb128 0x2a
	.long	0x11770
	.quad	.LBI3041
	.value	.LVU558
	.long	.LLRL462
	.byte	0x1
	.byte	0x80
	.byte	0x35
	.long	0xdced
	.uleb128 0x3
	.long	0x11784
	.byte	0
	.uleb128 0x32
	.long	0x11804
	.quad	.LBI3044
	.value	.LVU537
	.long	.LLRL463
	.byte	0x1
	.byte	0x7c
	.byte	0x35
	.byte	0x1
	.long	0xdd0e
	.uleb128 0x3
	.long	0x11818
	.byte	0
	.uleb128 0x32
	.long	0x11804
	.quad	.LBI3047
	.value	.LVU566
	.long	.LLRL464
	.byte	0x1
	.byte	0x81
	.byte	0x35
	.byte	0x1
	.long	0xdd2f
	.uleb128 0x3
	.long	0x11818
	.byte	0
	.uleb128 0x2a
	.long	0x11770
	.quad	.LBI3050
	.value	.LVU541
	.long	.LLRL465
	.byte	0x1
	.byte	0x7d
	.byte	0x35
	.long	0xdd4f
	.uleb128 0x3
	.long	0x11784
	.byte	0
	.uleb128 0x2a
	.long	0x11770
	.quad	.LBI3053
	.value	.LVU570
	.long	.LLRL466
	.byte	0x1
	.byte	0x82
	.byte	0x35
	.long	0xdd6f
	.uleb128 0x3
	.long	0x11784
	.byte	0
	.uleb128 0x32
	.long	0x11804
	.quad	.LBI3056
	.value	.LVU554
	.long	.LLRL467
	.byte	0x1
	.byte	0x7e
	.byte	0x35
	.byte	0x1
	.long	0xdd90
	.uleb128 0x3
	.long	0x11818
	.byte	0
	.uleb128 0x32
	.long	0x11804
	.quad	.LBI3059
	.value	.LVU580
	.long	.LLRL468
	.byte	0x1
	.byte	0x83
	.byte	0x35
	.byte	0x1
	.long	0xddb1
	.uleb128 0x3
	.long	0x11818
	.byte	0
	.uleb128 0x32
	.long	0x11804
	.quad	.LBI3066
	.value	.LVU544
	.long	.LLRL469
	.byte	0x1
	.byte	0x7d
	.byte	0x35
	.byte	0x1
	.long	0xddda
	.uleb128 0x4
	.long	0x11818
	.long	.LLST470
	.long	.LVUS470
	.byte	0
	.uleb128 0x32
	.long	0x11804
	.quad	.LBI3069
	.value	.LVU561
	.long	.LLRL471
	.byte	0x1
	.byte	0x80
	.byte	0x35
	.byte	0x1
	.long	0xddfb
	.uleb128 0x3
	.long	0x11818
	.byte	0
	.uleb128 0x2a
	.long	0x11735
	.quad	.LBI3072
	.value	.LVU590
	.long	.LLRL472
	.byte	0x1
	.byte	0x88
	.byte	0x28
	.long	0xde25
	.uleb128 0x3
	.long	0x1174b
	.uleb128 0x3
	.long	0x11757
	.uleb128 0x3
	.long	0x11763
	.byte	0
	.uleb128 0x2a
	.long	0x11735
	.quad	.LBI3075
	.value	.LVU594
	.long	.LLRL473
	.byte	0x1
	.byte	0x89
	.byte	0x28
	.long	0xde4f
	.uleb128 0x3
	.long	0x1174b
	.uleb128 0x3
	.long	0x11757
	.uleb128 0x3
	.long	0x11763
	.byte	0
	.uleb128 0x58
	.long	0x11804
	.quad	.LBI3086
	.value	.LVU573
	.quad	.LBB3086
	.quad	.LBE3086-.LBB3086
	.byte	0x82
	.byte	0x35
	.byte	0x1
	.long	0xde83
	.uleb128 0x4
	.long	0x11818
	.long	.LLST474
	.long	.LVUS474
	.byte	0
	.uleb128 0x1f
	.long	0x117e2
	.quad	.LBI3090
	.value	.LVU584
	.quad	.LBB3090
	.quad	.LBE3090-.LBB3090
	.byte	0x1
	.byte	0x85
	.byte	0x2f
	.long	0xdeaf
	.uleb128 0x3
	.long	0x117f6
	.byte	0
	.uleb128 0x1f
	.long	0x117e2
	.quad	.LBI3092
	.value	.LVU587
	.quad	.LBB3092
	.quad	.LBE3092-.LBB3092
	.byte	0x1
	.byte	0x86
	.byte	0x2f
	.long	0xdedb
	.uleb128 0x3
	.long	0x117f6
	.byte	0
	.uleb128 0x1f
	.long	0x11735
	.quad	.LBI3096
	.value	.LVU598
	.quad	.LBB3096
	.quad	.LBE3096-.LBB3096
	.byte	0x1
	.byte	0x8b
	.byte	0x28
	.long	0xdf21
	.uleb128 0x3
	.long	0x1174b
	.uleb128 0x4
	.long	0x11757
	.long	.LLST475
	.long	.LVUS475
	.uleb128 0x4
	.long	0x11763
	.long	.LLST476
	.long	.LVUS476
	.byte	0
	.uleb128 0x1f
	.long	0x11735
	.quad	.LBI3098
	.value	.LVU603
	.quad	.LBB3098
	.quad	.LBE3098-.LBB3098
	.byte	0x1
	.byte	0x8c
	.byte	0x28
	.long	0xdf67
	.uleb128 0x3
	.long	0x1174b
	.uleb128 0x4
	.long	0x11757
	.long	.LLST477
	.long	.LVUS477
	.uleb128 0x4
	.long	0x11763
	.long	.LLST478
	.long	.LVUS478
	.byte	0
	.uleb128 0x1f
	.long	0x11735
	.quad	.LBI3100
	.value	.LVU608
	.quad	.LBB3100
	.quad	.LBE3100-.LBB3100
	.byte	0x1
	.byte	0x8e
	.byte	0x28
	.long	0xdfad
	.uleb128 0x3
	.long	0x1174b
	.uleb128 0x4
	.long	0x11757
	.long	.LLST479
	.long	.LVUS479
	.uleb128 0x4
	.long	0x11763
	.long	.LLST480
	.long	.LVUS480
	.byte	0
	.uleb128 0x1f
	.long	0x11735
	.quad	.LBI3102
	.value	.LVU613
	.quad	.LBB3102
	.quad	.LBE3102-.LBB3102
	.byte	0x1
	.byte	0x8f
	.byte	0x28
	.long	0xdff3
	.uleb128 0x3
	.long	0x1174b
	.uleb128 0x4
	.long	0x11757
	.long	.LLST481
	.long	.LVUS481
	.uleb128 0x4
	.long	0x11763
	.long	.LLST482
	.long	.LVUS482
	.byte	0
	.uleb128 0x1f
	.long	0x11735
	.quad	.LBI3104
	.value	.LVU618
	.quad	.LBB3104
	.quad	.LBE3104-.LBB3104
	.byte	0x1
	.byte	0x91
	.byte	0x28
	.long	0xe039
	.uleb128 0x3
	.long	0x1174b
	.uleb128 0x4
	.long	0x11757
	.long	.LLST483
	.long	.LVUS483
	.uleb128 0x4
	.long	0x11763
	.long	.LLST484
	.long	.LVUS484
	.byte	0
	.uleb128 0x1f
	.long	0x11735
	.quad	.LBI3106
	.value	.LVU623
	.quad	.LBB3106
	.quad	.LBE3106-.LBB3106
	.byte	0x1
	.byte	0x92
	.byte	0x28
	.long	0xe07f
	.uleb128 0x3
	.long	0x1174b
	.uleb128 0x4
	.long	0x11757
	.long	.LLST485
	.long	.LVUS485
	.uleb128 0x4
	.long	0x11763
	.long	.LLST486
	.long	.LVUS486
	.byte	0
	.uleb128 0x1f
	.long	0x117b4
	.quad	.LBI3108
	.value	.LVU628
	.quad	.LBB3108
	.quad	.LBE3108-.LBB3108
	.byte	0x1
	.byte	0x94
	.byte	0x21
	.long	0xe0b8
	.uleb128 0x3
	.long	0x117c7
	.uleb128 0x4
	.long	0x117d4
	.long	.LLST487
	.long	.LVUS487
	.byte	0
	.uleb128 0x22
	.long	0x117b4
	.quad	.LBI3110
	.value	.LVU633
	.quad	.LBB3110
	.quad	.LBE3110-.LBB3110
	.byte	0x1
	.byte	0x95
	.byte	0x21
	.uleb128 0x3
	.long	0x117c7
	.uleb128 0x4
	.long	0x117d4
	.long	.LLST488
	.long	.LVUS488
	.byte	0
	.byte	0
	.uleb128 0x81
	.quad	.LBB2897
	.quad	.LBE2897-.LBB2897
	.long	0xe6a5
	.uleb128 0x30
	.long	.LASF1411
	.byte	0x1
	.byte	0x9c
	.byte	0x19
	.long	0xa045
	.uleb128 0x30
	.long	.LASF1412
	.byte	0x1
	.byte	0x9d
	.byte	0x19
	.long	0xa045
	.uleb128 0x30
	.long	.LASF1413
	.byte	0x1
	.byte	0x9e
	.byte	0x19
	.long	0xa045
	.uleb128 0x30
	.long	.LASF1414
	.byte	0x1
	.byte	0x9f
	.byte	0x19
	.long	0xa045
	.uleb128 0x31
	.long	.LASF1415
	.byte	0xa1
	.byte	0x18
	.long	0xa0a5
	.long	.LLST377
	.long	.LVUS377
	.uleb128 0x31
	.long	.LASF1416
	.byte	0xa2
	.byte	0x18
	.long	0xa0a5
	.long	.LLST378
	.long	.LVUS378
	.uleb128 0x31
	.long	.LASF1417
	.byte	0xa3
	.byte	0x18
	.long	0xa0a5
	.long	.LLST379
	.long	.LVUS379
	.uleb128 0x31
	.long	.LASF1418
	.byte	0xa4
	.byte	0x18
	.long	0xa0a5
	.long	.LLST380
	.long	.LVUS380
	.uleb128 0x2d
	.string	"val"
	.byte	0xa6
	.byte	0x18
	.long	0xa0a5
	.long	.LLST381
	.long	.LVUS381
	.uleb128 0x1f
	.long	0x11826
	.quad	.LBI2898
	.value	.LVU648
	.quad	.LBB2898
	.quad	.LBE2898-.LBB2898
	.byte	0x1
	.byte	0x9c
	.byte	0x31
	.long	0xe23b
	.uleb128 0x4
	.long	0x1183a
	.long	.LLST382
	.long	.LVUS382
	.uleb128 0x12
	.long	0x1184d
	.quad	.LBI2900
	.value	.LVU650
	.quad	.LBB2900
	.quad	.LBE2900-.LBB2900
	.byte	0xe
	.value	0x2c9
	.byte	0x18
	.uleb128 0x3
	.long	0x11861
	.uleb128 0x4
	.long	0x1186e
	.long	.LLST383
	.long	.LVUS383
	.uleb128 0x12
	.long	0x1187c
	.quad	.LBI2902
	.value	.LVU652
	.quad	.LBB2902
	.quad	.LBE2902-.LBB2902
	.byte	0xe
	.value	0x25a
	.byte	0x19
	.uleb128 0x4
	.long	0x11890
	.long	.LLST384
	.long	.LVUS384
	.uleb128 0x4
	.long	0x1189d
	.long	.LLST385
	.long	.LVUS385
	.byte	0
	.byte	0
	.byte	0
	.uleb128 0x1f
	.long	0x11826
	.quad	.LBI2904
	.value	.LVU656
	.quad	.LBB2904
	.quad	.LBE2904-.LBB2904
	.byte	0x1
	.byte	0x9d
	.byte	0x31
	.long	0xe2e3
	.uleb128 0x4
	.long	0x1183a
	.long	.LLST386
	.long	.LVUS386
	.uleb128 0x12
	.long	0x1184d
	.quad	.LBI2906
	.value	.LVU658
	.quad	.LBB2906
	.quad	.LBE2906-.LBB2906
	.byte	0xe
	.value	0x2c9
	.byte	0x18
	.uleb128 0x3
	.long	0x11861
	.uleb128 0x4
	.long	0x1186e
	.long	.LLST387
	.long	.LVUS387
	.uleb128 0x12
	.long	0x1187c
	.quad	.LBI2908
	.value	.LVU660
	.quad	.LBB2908
	.quad	.LBE2908-.LBB2908
	.byte	0xe
	.value	0x25a
	.byte	0x19
	.uleb128 0x4
	.long	0x11890
	.long	.LLST388
	.long	.LVUS388
	.uleb128 0x4
	.long	0x1189d
	.long	.LLST389
	.long	.LVUS389
	.byte	0
	.byte	0
	.byte	0
	.uleb128 0x1f
	.long	0x11826
	.quad	.LBI2910
	.value	.LVU664
	.quad	.LBB2910
	.quad	.LBE2910-.LBB2910
	.byte	0x1
	.byte	0x9e
	.byte	0x31
	.long	0xe38b
	.uleb128 0x4
	.long	0x1183a
	.long	.LLST390
	.long	.LVUS390
	.uleb128 0x12
	.long	0x1184d
	.quad	.LBI2912
	.value	.LVU666
	.quad	.LBB2912
	.quad	.LBE2912-.LBB2912
	.byte	0xe
	.value	0x2c9
	.byte	0x18
	.uleb128 0x3
	.long	0x11861
	.uleb128 0x4
	.long	0x1186e
	.long	.LLST391
	.long	.LVUS391
	.uleb128 0x12
	.long	0x1187c
	.quad	.LBI2914
	.value	.LVU668
	.quad	.LBB2914
	.quad	.LBE2914-.LBB2914
	.byte	0xe
	.value	0x25a
	.byte	0x19
	.uleb128 0x4
	.long	0x11890
	.long	.LLST392
	.long	.LVUS392
	.uleb128 0x4
	.long	0x1189d
	.long	.LLST393
	.long	.LVUS393
	.byte	0
	.byte	0
	.byte	0
	.uleb128 0x1f
	.long	0x11826
	.quad	.LBI2916
	.value	.LVU672
	.quad	.LBB2916
	.quad	.LBE2916-.LBB2916
	.byte	0x1
	.byte	0x9f
	.byte	0x31
	.long	0xe433
	.uleb128 0x4
	.long	0x1183a
	.long	.LLST394
	.long	.LVUS394
	.uleb128 0x12
	.long	0x1184d
	.quad	.LBI2918
	.value	.LVU674
	.quad	.LBB2918
	.quad	.LBE2918-.LBB2918
	.byte	0xe
	.value	0x2c9
	.byte	0x18
	.uleb128 0x3
	.long	0x11861
	.uleb128 0x4
	.long	0x1186e
	.long	.LLST395
	.long	.LVUS395
	.uleb128 0x12
	.long	0x1187c
	.quad	.LBI2920
	.value	.LVU676
	.quad	.LBB2920
	.quad	.LBE2920-.LBB2920
	.byte	0xe
	.value	0x25a
	.byte	0x19
	.uleb128 0x4
	.long	0x11890
	.long	.LLST396
	.long	.LVUS396
	.uleb128 0x4
	.long	0x1189d
	.long	.LLST397
	.long	.LVUS397
	.byte	0
	.byte	0
	.byte	0
	.uleb128 0x2a
	.long	0x11770
	.quad	.LBI2922
	.value	.LVU680
	.long	.LLRL398
	.byte	0x1
	.byte	0xa1
	.byte	0x33
	.long	0xe453
	.uleb128 0x3
	.long	0x11784
	.byte	0
	.uleb128 0x2a
	.long	0x11770
	.quad	.LBI2925
	.value	.LVU707
	.long	.LLRL399
	.byte	0x1
	.byte	0xa3
	.byte	0x33
	.long	0xe473
	.uleb128 0x3
	.long	0x11784
	.byte	0
	.uleb128 0x2a
	.long	0x11770
	.quad	.LBI2928
	.value	.LVU701
	.long	.LLRL400
	.byte	0x1
	.byte	0xa2
	.byte	0x33
	.long	0xe493
	.uleb128 0x3
	.long	0x11784
	.byte	0
	.uleb128 0x2a
	.long	0x11770
	.quad	.LBI2931
	.value	.LVU713
	.long	.LLRL401
	.byte	0x1
	.byte	0xa4
	.byte	0x33
	.long	0xe4b3
	.uleb128 0x3
	.long	0x11784
	.byte	0
	.uleb128 0x32
	.long	0x11804
	.quad	.LBI2936
	.value	.LVU690
	.long	.LLRL402
	.byte	0x1
	.byte	0xa1
	.byte	0x33
	.byte	0x1
	.long	0xe4dc
	.uleb128 0x4
	.long	0x11818
	.long	.LLST403
	.long	.LVUS403
	.byte	0
	.uleb128 0x32
	.long	0x11804
	.quad	.LBI2939
	.value	.LVU709
	.long	.LLRL404
	.byte	0x1
	.byte	0xa3
	.byte	0x33
	.byte	0x1
	.long	0xe4fd
	.uleb128 0x3
	.long	0x11818
	.byte	0
	.uleb128 0x32
	.long	0x11804
	.quad	.LBI2942
	.value	.LVU703
	.long	.LLRL405
	.byte	0x1
	.byte	0xa2
	.byte	0x33
	.byte	0x1
	.long	0xe51e
	.uleb128 0x3
	.long	0x11818
	.byte	0
	.uleb128 0x32
	.long	0x11804
	.quad	.LBI2952
	.value	.LVU716
	.long	.LLRL406
	.byte	0x1
	.byte	0xa4
	.byte	0x33
	.byte	0x1
	.long	0xe547
	.uleb128 0x4
	.long	0x11818
	.long	.LLST407
	.long	.LVUS407
	.byte	0
	.uleb128 0x2a
	.long	0x11735
	.quad	.LBI2955
	.value	.LVU727
	.long	.LLRL408
	.byte	0x1
	.byte	0xa7
	.byte	0x26
	.long	0xe571
	.uleb128 0x3
	.long	0x1174b
	.uleb128 0x3
	.long	0x11757
	.uleb128 0x3
	.long	0x11763
	.byte	0
	.uleb128 0x1f
	.long	0x117e2
	.quad	.LBI2959
	.value	.LVU724
	.quad	.LBB2959
	.quad	.LBE2959-.LBB2959
	.byte	0x1
	.byte	0xa6
	.byte	0x2d
	.long	0xe59d
	.uleb128 0x3
	.long	0x117f6
	.byte	0
	.uleb128 0x1f
	.long	0x11735
	.quad	.LBI2962
	.value	.LVU731
	.quad	.LBB2962
	.quad	.LBE2962-.LBB2962
	.byte	0x1
	.byte	0xa8
	.byte	0x26
	.long	0xe5e3
	.uleb128 0x3
	.long	0x1174b
	.uleb128 0x4
	.long	0x11757
	.long	.LLST409
	.long	.LVUS409
	.uleb128 0x4
	.long	0x11763
	.long	.LLST410
	.long	.LVUS410
	.byte	0
	.uleb128 0x1f
	.long	0x11735
	.quad	.LBI2964
	.value	.LVU736
	.quad	.LBB2964
	.quad	.LBE2964-.LBB2964
	.byte	0x1
	.byte	0xa9
	.byte	0x26
	.long	0xe629
	.uleb128 0x3
	.long	0x1174b
	.uleb128 0x4
	.long	0x11757
	.long	.LLST411
	.long	.LVUS411
	.uleb128 0x4
	.long	0x11763
	.long	.LLST412
	.long	.LVUS412
	.byte	0
	.uleb128 0x1f
	.long	0x11735
	.quad	.LBI2966
	.value	.LVU741
	.quad	.LBB2966
	.quad	.LBE2966-.LBB2966
	.byte	0x1
	.byte	0xaa
	.byte	0x26
	.long	0xe66f
	.uleb128 0x3
	.long	0x1174b
	.uleb128 0x4
	.long	0x11757
	.long	.LLST413
	.long	.LVUS413
	.uleb128 0x4
	.long	0x11763
	.long	.LLST414
	.long	.LVUS414
	.byte	0
	.uleb128 0x22
	.long	0x117b4
	.quad	.LBI2968
	.value	.LVU746
	.quad	.LBB2968
	.quad	.LBE2968-.LBB2968
	.byte	0x1
	.byte	0xab
	.byte	0x21
	.uleb128 0x3
	.long	0x117c7
	.uleb128 0x4
	.long	0x117d4
	.long	.LLST415
	.long	.LVUS415
	.byte	0
	.byte	0
	.uleb128 0x4a
	.long	.LLRL489
	.uleb128 0x2d
	.string	"k"
	.byte	0xb4
	.byte	0x16
	.long	0x56
	.long	.LLST490
	.long	.LVUS490
	.uleb128 0x4a
	.long	.LLRL491
	.uleb128 0x2d
	.string	"TL"
	.byte	0xb5
	.byte	0x17
	.long	0x30
	.long	.LLST492
	.long	.LVUS492
	.uleb128 0x2d
	.string	"TR"
	.byte	0xb6
	.byte	0x17
	.long	0x30
	.long	.LLST493
	.long	.LVUS493
	.uleb128 0x2d
	.string	"BL"
	.byte	0xb7
	.byte	0x17
	.long	0x30
	.long	.LLST494
	.long	.LVUS494
	.uleb128 0x2d
	.string	"BR"
	.byte	0xb8
	.byte	0x17
	.long	0x30
	.long	.LLST495
	.long	.LVUS495
	.byte	0
	.byte	0
	.byte	0
	.byte	0
	.uleb128 0x2a
	.long	0x11792
	.quad	.LBI3149
	.value	.LVU393
	.long	.LLRL496
	.byte	0x1
	.byte	0x5c
	.byte	0x2a
	.long	0xe734
	.uleb128 0x4
	.long	0x117a6
	.long	.LLST497
	.long	.LVUS497
	.byte	0
	.uleb128 0x2a
	.long	0x11792
	.quad	.LBI3152
	.value	.LVU397
	.long	.LLRL498
	.byte	0x1
	.byte	0x5d
	.byte	0x2a
	.long	0xe75c
	.uleb128 0x4
	.long	0x117a6
	.long	.LLST499
	.long	.LVUS499
	.byte	0
	.uleb128 0x2a
	.long	0x11792
	.quad	.LBI3155
	.value	.LVU401
	.long	.LLRL500
	.byte	0x1
	.byte	0x5e
	.byte	0x2a
	.long	0xe784
	.uleb128 0x4
	.long	0x117a6
	.long	.LLST501
	.long	.LVUS501
	.byte	0
	.uleb128 0x4d
	.long	0x11792
	.quad	.LBI3158
	.value	.LVU405
	.long	.LLRL502
	.byte	0x1
	.byte	0x5f
	.byte	0x2a
	.uleb128 0x4
	.long	0x117a6
	.long	.LLST503
	.long	.LVUS503
	.byte	0
	.byte	0
	.byte	0
	.uleb128 0x5b
	.long	.LLRL504
	.long	0xe886
	.uleb128 0x2d
	.string	"y"
	.byte	0xbf
	.byte	0xe
	.long	0x56
	.long	.LLST505
	.long	.LVUS505
	.uleb128 0x4a
	.long	.LLRL506
	.uleb128 0x80
	.string	"vp"
	.byte	0xc0
	.byte	0x16
	.long	0xa4b8
	.uleb128 0x30
	.long	.LASF1419
	.byte	0x1
	.byte	0xc1
	.byte	0x18
	.long	0x9caa
	.uleb128 0x5b
	.long	.LLRL507
	.long	0xe854
	.uleb128 0x2d
	.string	"x"
	.byte	0xc2
	.byte	0x12
	.long	0x56
	.long	.LLST508
	.long	.LVUS508
	.uleb128 0x4a
	.long	.LLRL509
	.uleb128 0x2d
	.string	"c"
	.byte	0xc3
	.byte	0x11
	.long	0x56
	.long	.LLST510
	.long	.LVUS510
	.uleb128 0x31
	.long	.LASF1420
	.byte	0xc8
	.byte	0x13
	.long	0x30
	.long	.LLST511
	.long	.LVUS511
	.uleb128 0x4a
	.long	.LLRL512
	.uleb128 0x2d
	.string	"ch"
	.byte	0xc9
	.byte	0x16
	.long	0x56
	.long	.LLST513
	.long	.LVUS513
	.uleb128 0x4a
	.long	.LLRL514
	.uleb128 0x2d
	.string	"v"
	.byte	0xca
	.byte	0x17
	.long	0x30
	.long	.LLST515
	.long	.LVUS515
	.byte	0
	.byte	0
	.byte	0
	.byte	0
	.uleb128 0x22
	.long	0xc678
	.quad	.LBI3195
	.value	.LVU1079
	.quad	.LBB3195
	.quad	.LBE3195-.LBB3195
	.byte	0x1
	.byte	0xc1
	.byte	0x2f
	.uleb128 0x4
	.long	0xc686
	.long	.LLST516
	.long	.LVUS516
	.byte	0
	.byte	0
	.byte	0
	.uleb128 0x2a
	.long	0x11675
	.quad	.LBI2324
	.value	.LVU27
	.long	.LLRL5
	.byte	0x1
	.byte	0x28
	.byte	0xf
	.long	0xe96d
	.uleb128 0x3
	.long	0x11685
	.uleb128 0x4d
	.long	0x116a6
	.quad	.LBI2325
	.value	.LVU28
	.long	.LLRL5
	.byte	0x4
	.byte	0xb
	.byte	0x8
	.uleb128 0x3
	.long	0x116b4
	.uleb128 0x18
	.long	0x116d5
	.quad	.LBI2326
	.value	.LVU29
	.long	.LLRL5
	.byte	0x2
	.value	0x227
	.byte	0x7
	.uleb128 0x3
	.long	0x116e3
	.uleb128 0x18
	.long	0xc91c
	.quad	.LBI2327
	.value	.LVU30
	.long	.LLRL5
	.byte	0x2
	.value	0x141
	.byte	0x7
	.uleb128 0x3
	.long	0xc92a
	.uleb128 0x32
	.long	0xc37f
	.quad	.LBI2328
	.value	.LVU34
	.long	.LLRL6
	.byte	0x2
	.byte	0x94
	.byte	0x13
	.byte	0x1
	.long	0xe919
	.uleb128 0x3
	.long	0xc38d
	.byte	0
	.uleb128 0x22
	.long	0xc3ae
	.quad	.LBI2332
	.value	.LVU31
	.quad	.LBB2332
	.quad	.LBE2332-.LBB2332
	.byte	0x2
	.byte	0x94
	.byte	0x13
	.uleb128 0x3
	.long	0xc3bc
	.uleb128 0x22
	.long	0xba7a
	.quad	.LBI2333
	.value	.LVU32
	.quad	.LBB2333
	.quad	.LBE2333-.LBB2333
	.byte	0x5
	.byte	0xa8
	.byte	0x24
	.uleb128 0x3
	.long	0xba88
	.byte	0
	.byte	0
	.byte	0
	.byte	0
	.byte	0
	.byte	0
	.uleb128 0x2a
	.long	0xc94b
	.quad	.LBI2341
	.value	.LVU7
	.long	.LLRL7
	.byte	0x1
	.byte	0x23
	.byte	0x2d
	.long	0xe9e4
	.uleb128 0x4
	.long	0xc959
	.long	.LLST8
	.long	.LVUS8
	.uleb128 0x18
	.long	0xc702
	.quad	.LBI2342
	.value	.LVU9
	.long	.LLRL7
	.byte	0x2
	.value	0x539
	.byte	0xf
	.uleb128 0x4
	.long	0xc710
	.long	.LLST9
	.long	.LVUS9
	.uleb128 0x18
	.long	0xc03f
	.quad	.LBI2343
	.value	.LVU10
	.long	.LLRL7
	.byte	0x2
	.value	0x3dd
	.byte	0x10
	.uleb128 0x3
	.long	0xc04d
	.uleb128 0x4
	.long	0xc056
	.long	.LLST10
	.long	.LVUS10
	.byte	0
	.byte	0
	.byte	0
	.uleb128 0x1f
	.long	0xc94b
	.quad	.LBI2349
	.value	.LVU19
	.quad	.LBB2349
	.quad	.LBE2349-.LBB2349
	.byte	0x1
	.byte	0x24
	.byte	0x2d
	.long	0xea7f
	.uleb128 0x4
	.long	0xc959
	.long	.LLST11
	.long	.LVUS11
	.uleb128 0x12
	.long	0xc702
	.quad	.LBI2350
	.value	.LVU21
	.quad	.LBB2350
	.quad	.LBE2350-.LBB2350
	.byte	0x2
	.value	0x539
	.byte	0xf
	.uleb128 0x4
	.long	0xc710
	.long	.LLST12
	.long	.LVUS12
	.uleb128 0x12
	.long	0xc03f
	.quad	.LBI2351
	.value	.LVU22
	.quad	.LBB2351
	.quad	.LBE2351-.LBB2351
	.byte	0x2
	.value	0x3dd
	.byte	0x10
	.uleb128 0x3
	.long	0xc04d
	.uleb128 0x4
	.long	0xc056
	.long	.LLST13
	.long	.LVUS13
	.byte	0
	.byte	0
	.byte	0
	.uleb128 0x2a
	.long	0xc843
	.quad	.LBI2353
	.value	.LVU42
	.long	.LLRL14
	.byte	0x1
	.byte	0x2b
	.byte	0x17
	.long	0xf1fe
	.uleb128 0x4
	.long	0xc851
	.long	.LLST15
	.long	.LVUS15
	.uleb128 0x4
	.long	0xc85a
	.long	.LLST16
	.long	.LVUS16
	.uleb128 0x3
	.long	0xc867
	.uleb128 0x18
	.long	0xc268
	.quad	.LBI2354
	.value	.LVU43
	.long	.LLRL14
	.byte	0x2
	.value	0x362
	.byte	0x17
	.uleb128 0x4
	.long	0xc276
	.long	.LLST18
	.long	.LVUS18
	.uleb128 0x4
	.long	0xc27f
	.long	.LLST19
	.long	.LVUS19
	.uleb128 0x3
	.long	0xc28c
	.uleb128 0xcb
	.long	0xc299
	.byte	0
	.uleb128 0x74
	.long	0xc2a6
	.long	.LLRL21
	.uleb128 0x38
	.long	0xc2ac
	.uleb128 0x57
	.long	0xb992
	.quad	.LBI2358
	.value	.LVU1238
	.long	.LLRL22
	.byte	0x7
	.value	0x11a
	.byte	0xb
	.byte	0x1
	.long	0xef6a
	.uleb128 0x4
	.long	0xb9a0
	.long	.LLST23
	.long	.LVUS23
	.uleb128 0x4
	.long	0xb9a9
	.long	.LLST24
	.long	.LVUS24
	.uleb128 0x3
	.long	0xb9b6
	.uleb128 0x4
	.long	0xb9c3
	.long	.LLST26
	.long	.LVUS26
	.uleb128 0x3a
	.long	0xb1b8
	.quad	.LBI2359
	.value	.LVU1239
	.long	.LLRL27
	.byte	0x2
	.value	0x24f
	.byte	0x2f
	.long	0xec60
	.uleb128 0x4
	.long	0xb1c2
	.long	.LLST28
	.long	.LVUS28
	.uleb128 0x4
	.long	0xb1cf
	.long	.LLST29
	.long	.LVUS29
	.uleb128 0x2f
	.long	0xbad5
	.quad	.LBI2361
	.value	.LVU1240
	.quad	.LBB2361
	.quad	.LBE2361-.LBB2361
	.byte	0x2
	.value	0x89d
	.byte	0x18
	.long	0xebef
	.uleb128 0x3
	.long	0xbae3
	.uleb128 0x4
	.long	0xbaec
	.long	.LLST30
	.long	.LVUS30
	.uleb128 0x22
	.long	0xb20d
	.quad	.LBI2362
	.value	.LVU1241
	.quad	.LBB2362
	.quad	.LBE2362-.LBB2362
	.byte	0x5
	.byte	0xad
	.byte	0x22
	.uleb128 0x3
	.long	0xb21b
	.uleb128 0x4
	.long	0xb224
	.long	.LLST31
	.long	.LVUS31
	.byte	0
	.byte	0
	.uleb128 0x73
	.long	0xc8ed
	.quad	.LBI2363
	.value	.LVU1243
	.quad	.LBB2363
	.quad	.LBE2363-.LBB2363
	.value	0x89d
	.byte	0x18
	.byte	0x2
	.long	0xec44
	.uleb128 0x3
	.long	0xc8fb
	.uleb128 0x22
	.long	0xc350
	.quad	.LBI2364
	.value	.LVU1244
	.quad	.LBB2364
	.quad	.LBE2364-.LBB2364
	.byte	0x5
	.byte	0xbd
	.byte	0x27
	.uleb128 0x3
	.long	0xc35e
	.byte	0
	.byte	0
	.uleb128 0x2e
	.quad	.LVL286
	.long	0x6dcd
	.uleb128 0x20
	.uleb128 0x1
	.byte	0x55
	.uleb128 0x9
	.byte	0x3
	.quad	.LC0
	.byte	0
	.byte	0
	.uleb128 0x57
	.long	0xb165
	.quad	.LBI2366
	.value	.LVU1248
	.long	.LLRL32
	.byte	0x2
	.value	0x24f
	.byte	0x2f
	.byte	0x1
	.long	0xee7d
	.uleb128 0x4
	.long	0xb173
	.long	.LLST33
	.long	.LVUS33
	.uleb128 0x4
	.long	0xb17c
	.long	.LLST34
	.long	.LVUS34
	.uleb128 0x4
	.long	0xb189
	.long	.LLST35
	.long	.LVUS35
	.uleb128 0x3a
	.long	0xac3d
	.quad	.LBI2367
	.value	.LVU1255
	.long	.LLRL36
	.byte	0x2
	.value	0x155
	.byte	0x1a
	.long	0xed90
	.uleb128 0x4
	.long	0xac4b
	.long	.LLST37
	.long	.LVUS37
	.uleb128 0x4
	.long	0xac54
	.long	.LLST38
	.long	.LVUS38
	.uleb128 0x18
	.long	0xa978
	.quad	.LBI2369
	.value	.LVU1256
	.long	.LLRL39
	.byte	0x2
	.value	0x197
	.byte	0x2c
	.uleb128 0x4
	.long	0xa986
	.long	.LLST40
	.long	.LVUS40
	.uleb128 0x4
	.long	0xa98f
	.long	.LLST41
	.long	.LVUS41
	.uleb128 0x5d
	.long	0xa6d1
	.quad	.LBI2371
	.value	.LVU1257
	.long	.LLRL42
	.byte	0x2
	.value	0x185
	.byte	0x1
	.uleb128 0x4
	.long	0xa6db
	.long	.LLST43
	.long	.LVUS43
	.uleb128 0x4
	.long	0xa6e8
	.long	.LLST44
	.long	.LVUS44
	.uleb128 0x18
	.long	0xa638
	.quad	.LBI2372
	.value	.LVU1258
	.long	.LLRL45
	.byte	0x8
	.value	0x27e
	.byte	0x1c
	.uleb128 0x4
	.long	0xa646
	.long	.LLST46
	.long	.LVUS46
	.uleb128 0x4
	.long	0xa64f
	.long	.LLST47
	.long	.LVUS47
	.uleb128 0x4
	.long	0xa65b
	.long	.LLST48
	.long	.LVUS48
	.uleb128 0x2e
	.quad	.LVL219
	.long	0xa61e
	.uleb128 0x20
	.uleb128 0x1
	.byte	0x55
	.uleb128 0x2
	.byte	0x7f
	.sleb128 0
	.byte	0
	.byte	0
	.byte	0
	.byte	0
	.byte	0
	.uleb128 0x12
	.long	0xac62
	.quad	.LBI2382
	.value	.LVU1249
	.quad	.LBB2382
	.quad	.LBE2382-.LBB2382
	.byte	0x2
	.value	0x154
	.byte	0x9
	.uleb128 0x4
	.long	0xac70
	.long	.LLST49
	.long	.LVUS49
	.uleb128 0x4
	.long	0xac79
	.long	.LLST50
	.long	.LVUS50
	.uleb128 0x1f
	.long	0xbad5
	.quad	.LBI2383
	.value	.LVU1250
	.quad	.LBB2383
	.quad	.LBE2383-.LBB2383
	.byte	0x2
	.byte	0x99
	.byte	0x16
	.long	0xee4b
	.uleb128 0x4
	.long	0xbae3
	.long	.LLST51
	.long	.LVUS51
	.uleb128 0x4
	.long	0xbaec
	.long	.LLST52
	.long	.LVUS52
	.uleb128 0x22
	.long	0xb20d
	.quad	.LBI2384
	.value	.LVU1251
	.quad	.LBB2384
	.quad	.LBE2384-.LBB2384
	.byte	0x5
	.byte	0xad
	.byte	0x22
	.uleb128 0x4
	.long	0xb21b
	.long	.LLST53
	.long	.LVUS53
	.uleb128 0x4
	.long	0xb224
	.long	.LLST54
	.long	.LVUS54
	.byte	0
	.byte	0
	.uleb128 0x75
	.long	0xc37f
	.quad	.LBI2385
	.value	.LVU1253
	.quad	.LBB2385
	.quad	.LBE2385-.LBB2385
	.byte	0x2
	.byte	0x99
	.byte	0x1
	.uleb128 0x4
	.long	0xc38d
	.long	.LLST55
	.long	.LVUS55
	.byte	0
	.byte	0
	.byte	0
	.uleb128 0x18
	.long	0xb133
	.quad	.LBI2389
	.value	.LVU1265
	.long	.LLRL56
	.byte	0x2
	.value	0x250
	.byte	0x1b
	.uleb128 0x4
	.long	0xb141
	.long	.LLST57
	.long	.LVUS57
	.uleb128 0x4
	.long	0xb14a
	.long	.LLST58
	.long	.LVUS58
	.uleb128 0x3
	.long	0xb157
	.uleb128 0x18
	.long	0xb893
	.quad	.LBI2390
	.value	.LVU1266
	.long	.LLRL56
	.byte	0x2
	.value	0x7c6
	.byte	0x21
	.uleb128 0x4
	.long	0xb8c1
	.long	.LLST60
	.long	.LVUS60
	.uleb128 0x4
	.long	0xb8ce
	.long	.LLST61
	.long	.LVUS61
	.uleb128 0x3
	.long	0xb8db
	.uleb128 0x4
	.long	0xb8e8
	.long	.LLST63
	.long	.LVUS63
	.uleb128 0x18
	.long	0xb02c
	.quad	.LBI2391
	.value	.LVU1267
	.long	.LLRL56
	.byte	0xc
	.value	0x30a
	.byte	0x27
	.uleb128 0x4
	.long	0xb051
	.long	.LLST64
	.long	.LVUS64
	.uleb128 0x4
	.long	0xb05e
	.long	.LLST65
	.long	.LVUS65
	.uleb128 0x3
	.long	0xb06b
	.uleb128 0x74
	.long	0xb078
	.long	.LLRL67
	.uleb128 0x74
	.long	0xb079
	.long	.LLRL68
	.uleb128 0x3c
	.long	0xb07a
	.long	.LLST69
	.long	.LVUS69
	.uleb128 0x2e
	.quad	.LVL222
	.long	0x1192a
	.uleb128 0x20
	.uleb128 0x1
	.byte	0x54
	.uleb128 0x1
	.byte	0x30
	.uleb128 0x20
	.uleb128 0x1
	.byte	0x51
	.uleb128 0x2
	.byte	0x7f
	.sleb128 0
	.byte	0
	.byte	0
	.byte	0
	.byte	0
	.byte	0
	.byte	0
	.byte	0
	.uleb128 0x2f
	.long	0xb962
	.quad	.LBI2414
	.value	.LVU1275
	.quad	.LBB2414
	.quad	.LBE2414-.LBB2414
	.byte	0x7
	.value	0x11b
	.byte	0x1e
	.long	0xf022
	.uleb128 0x4
	.long	0xb970
	.long	.LLST70
	.long	.LVUS70
	.uleb128 0x4
	.long	0xb979
	.long	.LLST71
	.long	.LVUS71
	.uleb128 0x38
	.long	0xb985
	.uleb128 0x1f
	.long	0xc37f
	.quad	.LBI2416
	.value	.LVU1276
	.quad	.LBB2416
	.quad	.LBE2416-.LBB2416
	.byte	0x2
	.byte	0x84
	.byte	0x16
	.long	0xefe4
	.uleb128 0x4
	.long	0xc38d
	.long	.LLST72
	.long	.LVUS72
	.byte	0
	.uleb128 0x22
	.long	0xb10f
	.quad	.LBI2417
	.value	.LVU1278
	.quad	.LBB2417
	.quad	.LBE2417-.LBB2417
	.byte	0x2
	.byte	0x87
	.byte	0x14
	.uleb128 0x4
	.long	0xb11d
	.long	.LLST73
	.long	.LVUS73
	.uleb128 0x4
	.long	0xb126
	.long	.LLST74
	.long	.LVUS74
	.byte	0
	.byte	0
	.uleb128 0x12
	.long	0xc875
	.quad	.LBI2419
	.value	.LVU1284
	.quad	.LBB2419
	.quad	.LBE2419-.LBB2419
	.byte	0x7
	.value	0x11c
	.byte	0x2
	.uleb128 0x4
	.long	0xc883
	.long	.LLST75
	.long	.LVUS75
	.uleb128 0x2f
	.long	0xc306
	.quad	.LBI2420
	.value	.LVU1285
	.quad	.LBB2420
	.quad	.LBE2420-.LBB2420
	.byte	0x2
	.value	0x319
	.byte	0x1c
	.long	0xf087
	.uleb128 0x4
	.long	0xc314
	.long	.LLST76
	.long	.LVUS76
	.byte	0
	.uleb128 0x2f
	.long	0xc2ca
	.quad	.LBI2421
	.value	.LVU1287
	.quad	.LBB2421
	.quad	.LBE2421-.LBB2421
	.byte	0x2
	.value	0x318
	.byte	0xf
	.long	0xf0c6
	.uleb128 0x3
	.long	0xc2e6
	.uleb128 0x3
	.long	0xc2f3
	.uleb128 0x4
	.long	0xc300
	.long	.LLST77
	.long	.LVUS77
	.byte	0
	.uleb128 0x12
	.long	0xc8a4
	.quad	.LBI2422
	.value	.LVU1289
	.quad	.LBB2422
	.quad	.LBE2422-.LBB2422
	.byte	0x2
	.value	0x31b
	.byte	0x7
	.uleb128 0x4
	.long	0xc8b2
	.long	.LLST78
	.long	.LVUS78
	.uleb128 0x76
	.long	0xc8bb
	.quad	.LBB2423
	.quad	.LBE2423-.LBB2423
	.long	0xf168
	.uleb128 0x3c
	.long	0xc8bc
	.long	.LLST79
	.long	.LVUS79
	.uleb128 0x12
	.long	0xc31e
	.quad	.LBI2424
	.value	.LVU1290
	.quad	.LBB2424
	.quad	.LBE2424-.LBB2424
	.byte	0x2
	.value	0x17a
	.byte	0xf
	.uleb128 0x4
	.long	0xc32c
	.long	.LLST80
	.long	.LVUS80
	.uleb128 0x4
	.long	0xc335
	.long	.LLST81
	.long	.LVUS81
	.uleb128 0x4
	.long	0xc342
	.long	.LLST81
	.long	.LVUS81
	.byte	0
	.byte	0
	.uleb128 0x12
	.long	0x11704
	.quad	.LBI2425
	.value	.LVU1292
	.quad	.LBB2425
	.quad	.LBE2425-.LBB2425
	.byte	0x2
	.value	0x17b
	.byte	0x7
	.uleb128 0x4
	.long	0x11714
	.long	.LLST83
	.long	.LVUS83
	.uleb128 0x22
	.long	0xc8ed
	.quad	.LBI2426
	.value	.LVU1293
	.quad	.LBB2426
	.quad	.LBE2426-.LBB2426
	.byte	0x2
	.byte	0x8b
	.byte	0xe
	.uleb128 0x4
	.long	0xc8fb
	.long	.LLST84
	.long	.LVUS84
	.uleb128 0x22
	.long	0xc350
	.quad	.LBI2427
	.value	.LVU1294
	.quad	.LBB2427
	.quad	.LBE2427-.LBB2427
	.byte	0x5
	.byte	0xbd
	.byte	0x27
	.uleb128 0x4
	.long	0xc35e
	.long	.LLST85
	.long	.LVUS85
	.byte	0
	.byte	0
	.byte	0
	.byte	0
	.byte	0
	.byte	0
	.byte	0
	.byte	0
	.uleb128 0x2a
	.long	0x115c1
	.quad	.LBI2440
	.value	.LVU47
	.long	.LLRL86
	.byte	0x1
	.byte	0x2e
	.byte	0x1c
	.long	0xf2e0
	.uleb128 0x4
	.long	0x115cf
	.long	.LLST87
	.long	.LVUS87
	.uleb128 0x18
	.long	0x115ec
	.quad	.LBI2441
	.value	.LVU48
	.long	.LLRL86
	.byte	0x2
	.value	0x227
	.byte	0x7
	.uleb128 0x4
	.long	0x115fa
	.long	.LLST88
	.long	.LVUS88
	.uleb128 0x18
	.long	0xc818
	.quad	.LBI2442
	.value	.LVU49
	.long	.LLRL86
	.byte	0x2
	.value	0x141
	.byte	0x7
	.uleb128 0x4
	.long	0xc826
	.long	.LLST89
	.long	.LVUS89
	.uleb128 0x2a
	.long	0xc23d
	.quad	.LBI2443
	.value	.LVU50
	.long	.LLRL90
	.byte	0x2
	.byte	0x94
	.byte	0x13
	.long	0xf2b9
	.uleb128 0x4
	.long	0xc24b
	.long	.LLST91
	.long	.LVUS91
	.uleb128 0x4d
	.long	0xb7e7
	.quad	.LBI2444
	.value	.LVU51
	.long	.LLRL90
	.byte	0x5
	.byte	0xa8
	.byte	0x24
	.uleb128 0x4
	.long	0xb7f5
	.long	.LLST92
	.long	.LVUS92
	.byte	0
	.byte	0
	.uleb128 0x9d
	.long	0xc212
	.quad	.LBI2446
	.value	.LVU53
	.long	.LLRL93
	.byte	0x94
	.byte	0x13
	.uleb128 0x4
	.long	0xc220
	.long	.LLST94
	.long	.LVUS94
	.byte	0
	.byte	0
	.byte	0
	.byte	0
	.uleb128 0x2a
	.long	0xc758
	.quad	.LBI2471
	.value	.LVU56
	.long	.LLRL95
	.byte	0x1
	.byte	0x2f
	.byte	0x13
	.long	0xf30d
	.uleb128 0x4
	.long	0xc766
	.long	.LLST96
	.long	.LVUS96
	.uleb128 0x38
	.long	0xc76f
	.byte	0
	.uleb128 0x32
	.long	0xc71a
	.quad	.LBI2476
	.value	.LVU59
	.long	.LLRL97
	.byte	0x1
	.byte	0x2f
	.byte	0x13
	.byte	0x1
	.long	0xf41e
	.uleb128 0x4
	.long	0xc728
	.long	.LLST98
	.long	.LVUS98
	.uleb128 0x4
	.long	0xc731
	.long	.LLST99
	.long	.LVUS99
	.uleb128 0xcc
	.long	0xc73d
	.quad	.LBB2478
	.quad	.LBE2478-.LBB2478
	.uleb128 0x3c
	.long	0xc73e
	.long	.LLST100
	.long	.LVUS100
	.uleb128 0x3c
	.long	0xc74a
	.long	.LLST101
	.long	.LVUS101
	.uleb128 0x22
	.long	0xc0da
	.quad	.LBI2479
	.value	.LVU67
	.quad	.LBB2479
	.quad	.LBE2479-.LBB2479
	.byte	0x7
	.byte	0x52
	.byte	0x21
	.uleb128 0x4
	.long	0xc0e8
	.long	.LLST102
	.long	.LVUS102
	.uleb128 0x3
	.long	0xc0f1
	.uleb128 0x5d
	.long	0xb71a
	.quad	.LBI2481
	.value	.LVU68
	.long	.LLRL103
	.byte	0x2
	.value	0x185
	.byte	0x1
	.uleb128 0x4
	.long	0xb724
	.long	.LLST104
	.long	.LVUS104
	.uleb128 0x3
	.long	0xb731
	.uleb128 0x18
	.long	0xaf4f
	.quad	.LBI2482
	.value	.LVU69
	.long	.LLRL103
	.byte	0x8
	.value	0x27e
	.byte	0x1c
	.uleb128 0x4
	.long	0xaf72
	.long	.LLST105
	.long	.LVUS105
	.uleb128 0x4
	.long	0xaf5d
	.long	.LLST106
	.long	.LVUS106
	.uleb128 0x3
	.long	0xaf66
	.uleb128 0x2e
	.quad	.LVL13
	.long	0xa61e
	.uleb128 0x20
	.uleb128 0x1
	.byte	0x55
	.uleb128 0x2
	.byte	0x73
	.sleb128 0
	.byte	0
	.byte	0
	.byte	0
	.byte	0
	.byte	0
	.byte	0
	.uleb128 0x32
	.long	0xc77d
	.quad	.LBI2639
	.value	.LVU1182
	.long	.LLRL191
	.byte	0x1
	.byte	0xd1
	.byte	0x1
	.byte	0x3
	.long	0xf69d
	.uleb128 0x4
	.long	0xc78b
	.long	.LLST192
	.long	.LVUS192
	.uleb128 0x3a
	.long	0xc7a8
	.quad	.LBI2640
	.value	.LVU1187
	.long	.LLRL193
	.byte	0x2
	.value	0x31b
	.byte	0x7
	.long	0xf62c
	.uleb128 0x4
	.long	0xc7b6
	.long	.LLST194
	.long	.LVUS194
	.uleb128 0x68
	.long	0xc7bf
	.long	.LLRL195
	.long	0xf59a
	.uleb128 0x38
	.long	0xc7c0
	.uleb128 0x12
	.long	0xc1b5
	.quad	.LBI2642
	.value	.LVU1188
	.quad	.LBB2642
	.quad	.LBE2642-.LBB2642
	.byte	0x2
	.value	0x17a
	.byte	0xf
	.uleb128 0x4
	.long	0xc1c3
	.long	.LLST196
	.long	.LVUS196
	.uleb128 0x4
	.long	0xc1cc
	.long	.LLST197
	.long	.LVUS197
	.uleb128 0x3
	.long	0xc1d9
	.uleb128 0x12
	.long	0xc1b5
	.quad	.LBI2644
	.value	.LVU1190
	.quad	.LBB2644
	.quad	.LBE2644-.LBB2644
	.byte	0x2
	.value	0x18a
	.byte	0x7
	.uleb128 0x4
	.long	0xc1c3
	.long	.LLST198
	.long	.LVUS198
	.uleb128 0x4
	.long	0xc1cc
	.long	.LLST199
	.long	.LVUS199
	.uleb128 0x3
	.long	0xc1d9
	.uleb128 0x12
	.long	0xb7b5
	.quad	.LBI2646
	.value	.LVU1191
	.quad	.LBB2646
	.quad	.LBE2646-.LBB2646
	.byte	0x2
	.value	0x18e
	.byte	0x13
	.uleb128 0x3
	.long	0xb7bf
	.uleb128 0x4
	.long	0xb7cc
	.long	.LLST200
	.long	.LVUS200
	.uleb128 0x3
	.long	0xb7d9
	.uleb128 0x12
	.long	0xaf90
	.quad	.LBI2647
	.value	.LVU1192
	.quad	.LBB2647
	.quad	.LBE2647-.LBB2647
	.byte	0x8
	.value	0x2b1
	.byte	0x17
	.uleb128 0x3
	.long	0xaf9e
	.uleb128 0x4
	.long	0xafa7
	.long	.LLST201
	.long	.LVUS201
	.uleb128 0x3
	.long	0xafb3
	.uleb128 0x2e
	.quad	.LVL205
	.long	0xa603
	.uleb128 0x20
	.uleb128 0x1
	.byte	0x55
	.uleb128 0x4
	.byte	0x77
	.sleb128 96
	.byte	0x6
	.uleb128 0x20
	.uleb128 0x1
	.byte	0x54
	.uleb128 0x3
	.byte	0x77
	.sleb128 32
	.byte	0x6
	.byte	0
	.byte	0
	.byte	0
	.byte	0
	.byte	0
	.byte	0
	.uleb128 0x12
	.long	0x11617
	.quad	.LBI2650
	.value	.LVU1195
	.quad	.LBB2650
	.quad	.LBE2650-.LBB2650
	.byte	0x2
	.value	0x17b
	.byte	0x7
	.uleb128 0x4
	.long	0x11627
	.long	.LLST202
	.long	.LVUS202
	.uleb128 0x22
	.long	0xc7ed
	.quad	.LBI2651
	.value	.LVU1196
	.quad	.LBB2651
	.quad	.LBE2651-.LBB2651
	.byte	0x2
	.byte	0x8b
	.byte	0xe
	.uleb128 0x4
	.long	0xc7fb
	.long	.LLST203
	.long	.LVUS203
	.uleb128 0x22
	.long	0xc1e7
	.quad	.LBI2652
	.value	.LVU1197
	.quad	.LBB2652
	.quad	.LBE2652-.LBB2652
	.byte	0x5
	.byte	0xbd
	.byte	0x27
	.uleb128 0x4
	.long	0xc1f5
	.long	.LLST204
	.long	.LVUS204
	.byte	0
	.byte	0
	.byte	0
	.byte	0
	.uleb128 0x2f
	.long	0xc19d
	.quad	.LBI2653
	.value	.LVU1183
	.quad	.LBB2653
	.quad	.LBE2653-.LBB2653
	.byte	0x2
	.value	0x319
	.byte	0x1c
	.long	0xf661
	.uleb128 0x4
	.long	0xc1ab
	.long	.LLST205
	.long	.LVUS205
	.byte	0
	.uleb128 0x12
	.long	0xc161
	.quad	.LBI2654
	.value	.LVU1185
	.quad	.LBB2654
	.quad	.LBE2654-.LBB2654
	.byte	0x2
	.value	0x318
	.byte	0xf
	.uleb128 0x3
	.long	0xc17d
	.uleb128 0x3
	.long	0xc18a
	.uleb128 0x4
	.long	0xc197
	.long	.LLST206
	.long	.LVUS206
	.byte	0
	.byte	0
	.uleb128 0x1f
	.long	0xc624
	.quad	.LBI2656
	.value	.LVU172
	.quad	.LBB2656
	.quad	.LBE2656-.LBB2656
	.byte	0x1
	.byte	0x46
	.byte	0x2e
	.long	0xf6f1
	.uleb128 0x3
	.long	0xc632
	.uleb128 0x22
	.long	0xbefd
	.quad	.LBI2657
	.value	.LVU173
	.quad	.LBB2657
	.quad	.LBE2657-.LBB2657
	.byte	0x5
	.byte	0xa8
	.byte	0x24
	.uleb128 0x3
	.long	0xbf0b
	.byte	0
	.byte	0
	.uleb128 0x32
	.long	0xc590
	.quad	.LBI2658
	.value	.LVU175
	.long	.LLRL209
	.byte	0x1
	.byte	0x46
	.byte	0x2e
	.byte	0x1
	.long	0xfb66
	.uleb128 0x3
	.long	0xc59e
	.uleb128 0x4
	.long	0xc5a7
	.long	.LLST210
	.long	.LVUS210
	.uleb128 0x3
	.long	0xc5b4
	.uleb128 0x3
	.long	0xc5c1
	.uleb128 0x3a
	.long	0xbea9
	.quad	.LBI2659
	.value	.LVU176
	.long	.LLRL213
	.byte	0x2
	.value	0x24f
	.byte	0x2f
	.long	0xf825
	.uleb128 0x4
	.long	0xbeb3
	.long	.LLST214
	.long	.LVUS214
	.uleb128 0x3
	.long	0xbec0
	.uleb128 0x2f
	.long	0xb4f4
	.quad	.LBI2661
	.value	.LVU177
	.quad	.LBB2661
	.quad	.LBE2661-.LBB2661
	.byte	0x2
	.value	0x89d
	.byte	0x18
	.long	0xf7b4
	.uleb128 0x3
	.long	0xb502
	.uleb128 0x3
	.long	0xb50b
	.uleb128 0x22
	.long	0xaecb
	.quad	.LBI2662
	.value	.LVU178
	.quad	.LBB2662
	.quad	.LBE2662-.LBB2662
	.byte	0x5
	.byte	0xad
	.byte	0x22
	.uleb128 0x3
	.long	0xaed9
	.uleb128 0x3
	.long	0xaee2
	.byte	0
	.byte	0
	.uleb128 0x73
	.long	0xc5f5
	.quad	.LBI2663
	.value	.LVU180
	.quad	.LBB2663
	.quad	.LBE2663-.LBB2663
	.value	0x89d
	.byte	0x18
	.byte	0x2
	.long	0xf809
	.uleb128 0x3
	.long	0xc603
	.uleb128 0x22
	.long	0xbece
	.quad	.LBI2664
	.value	.LVU181
	.quad	.LBB2664
	.quad	.LBE2664-.LBB2664
	.byte	0x5
	.byte	0xbd
	.byte	0x27
	.uleb128 0x3
	.long	0xbedc
	.byte	0
	.byte	0
	.uleb128 0x2e
	.quad	.LVL281
	.long	0x6dcd
	.uleb128 0x20
	.uleb128 0x1
	.byte	0x55
	.uleb128 0x9
	.byte	0x3
	.quad	.LC0
	.byte	0
	.byte	0
	.uleb128 0x57
	.long	0xbe25
	.quad	.LBI2666
	.value	.LVU184
	.long	.LLRL218
	.byte	0x2
	.value	0x24f
	.byte	0x2f
	.byte	0x1
	.long	0xf9da
	.uleb128 0x3
	.long	0xbe33
	.uleb128 0x4
	.long	0xbe3c
	.long	.LLST219
	.long	.LVUS219
	.uleb128 0x3
	.long	0xbe49
	.uleb128 0x2f
	.long	0xb4b4
	.quad	.LBI2667
	.value	.LVU185
	.quad	.LBB2667
	.quad	.LBE2667-.LBB2667
	.byte	0x2
	.value	0x154
	.byte	0x9
	.long	0xf910
	.uleb128 0x3
	.long	0xb4c2
	.uleb128 0x3
	.long	0xb4cb
	.uleb128 0x1f
	.long	0xb4f4
	.quad	.LBI2668
	.value	.LVU186
	.quad	.LBB2668
	.quad	.LBE2668-.LBB2668
	.byte	0x2
	.byte	0x99
	.byte	0x16
	.long	0xf8e7
	.uleb128 0x3
	.long	0xb502
	.uleb128 0x3
	.long	0xb50b
	.uleb128 0x22
	.long	0xaecb
	.quad	.LBI2669
	.value	.LVU187
	.quad	.LBB2669
	.quad	.LBE2669-.LBB2669
	.byte	0x5
	.byte	0xad
	.byte	0x22
	.uleb128 0x3
	.long	0xaed9
	.uleb128 0x3
	.long	0xaee2
	.byte	0
	.byte	0
	.uleb128 0x75
	.long	0xae9c
	.quad	.LBI2670
	.value	.LVU189
	.quad	.LBB2670
	.quad	.LBE2670-.LBB2670
	.byte	0x2
	.byte	0x99
	.byte	0x1
	.uleb128 0x3
	.long	0xaeaa
	.byte	0
	.byte	0
	.uleb128 0x18
	.long	0xb48f
	.quad	.LBI2671
	.value	.LVU191
	.long	.LLRL224
	.byte	0x2
	.value	0x155
	.byte	0x1a
	.uleb128 0x3
	.long	0xb49d
	.uleb128 0x4
	.long	0xb4a6
	.long	.LLST225
	.long	.LVUS225
	.uleb128 0x18
	.long	0xae77
	.quad	.LBI2673
	.value	.LVU192
	.long	.LLRL226
	.byte	0x2
	.value	0x197
	.byte	0x2c
	.uleb128 0x3
	.long	0xae85
	.uleb128 0x4
	.long	0xae8e
	.long	.LLST227
	.long	.LVUS227
	.uleb128 0x5d
	.long	0xab06
	.quad	.LBI2675
	.value	.LVU194
	.long	.LLRL228
	.byte	0x2
	.value	0x185
	.byte	0x1
	.uleb128 0x3
	.long	0xab10
	.uleb128 0x4
	.long	0xab1d
	.long	.LLST229
	.long	.LVUS229
	.uleb128 0x18
	.long	0xa8d7
	.quad	.LBI2676
	.value	.LVU195
	.long	.LLRL228
	.byte	0x8
	.value	0x27e
	.byte	0x1c
	.uleb128 0x3
	.long	0xa8e5
	.uleb128 0x4
	.long	0xa8fa
	.long	.LLST230
	.long	.LVUS230
	.uleb128 0x4
	.long	0xa8ee
	.long	.LLST231
	.long	.LVUS231
	.uleb128 0x2e
	.quad	.LVL45
	.long	0xa61e
	.uleb128 0x20
	.uleb128 0x1
	.byte	0x55
	.uleb128 0x2
	.byte	0x73
	.sleb128 0
	.byte	0
	.byte	0
	.byte	0
	.byte	0
	.byte	0
	.byte	0
	.uleb128 0x18
	.long	0xbdaa
	.quad	.LBI2689
	.value	.LVU200
	.long	.LLRL232
	.byte	0x2
	.value	0x250
	.byte	0x1b
	.uleb128 0x3
	.long	0xbdb8
	.uleb128 0x4
	.long	0xbdc1
	.long	.LLST233
	.long	.LVUS233
	.uleb128 0x3
	.long	0xbdce
	.uleb128 0x18
	.long	0xb402
	.quad	.LBI2690
	.value	.LVU201
	.long	.LLRL232
	.byte	0x2
	.value	0x7c6
	.byte	0x21
	.uleb128 0x4
	.long	0xb430
	.long	.LLST235
	.long	.LVUS235
	.uleb128 0x4
	.long	0xb43d
	.long	.LLST236
	.long	.LVUS236
	.uleb128 0x3
	.long	0xb44a
	.uleb128 0x3
	.long	0xb457
	.uleb128 0x18
	.long	0xadf8
	.quad	.LBI2691
	.value	.LVU202
	.long	.LLRL232
	.byte	0xc
	.value	0x30a
	.byte	0x27
	.uleb128 0x4
	.long	0xae1d
	.long	.LLST238
	.long	.LVUS238
	.uleb128 0x4
	.long	0xae2a
	.long	.LLST239
	.long	.LVUS239
	.uleb128 0x3
	.long	0xae37
	.uleb128 0x18
	.long	0xaa7c
	.quad	.LBI2693
	.value	.LVU203
	.long	.LLRL241
	.byte	0xc
	.value	0x253
	.byte	0x25
	.uleb128 0x4
	.long	0xaaa1
	.long	.LLST242
	.long	.LVUS242
	.uleb128 0x4
	.long	0xaaae
	.long	.LLST243
	.long	.LVUS243
	.uleb128 0x3
	.long	0xaabb
	.uleb128 0x38
	.long	0xaac8
	.uleb128 0x82
	.long	0xa82b
	.long	.LLRL245
	.long	0xfaee
	.uleb128 0x3
	.long	0xa84d
	.uleb128 0x3
	.long	0xa861
	.uleb128 0x2e
	.quad	.LVL47
	.long	0x1192a
	.uleb128 0x20
	.uleb128 0x1
	.byte	0x55
	.uleb128 0x4
	.byte	0x77
	.sleb128 64
	.byte	0x6
	.uleb128 0x20
	.uleb128 0x1
	.byte	0x54
	.uleb128 0x1
	.byte	0x30
	.uleb128 0x20
	.uleb128 0x1
	.byte	0x51
	.uleb128 0x2
	.byte	0x73
	.sleb128 0
	.byte	0
	.byte	0
	.uleb128 0x2f
	.long	0xa897
	.quad	.LBI2698
	.value	.LVU204
	.quad	.LBB2698
	.quad	.LBE2698-.LBB2698
	.byte	0xc
	.value	0x1df
	.byte	0x2d
	.long	0xfb30
	.uleb128 0x4
	.long	0xa8a5
	.long	.LLST246
	.long	.LVUS246
	.uleb128 0x4
	.long	0xa8ae
	.long	.LLST247
	.long	.LVUS247
	.byte	0
	.uleb128 0x12
	.long	0xa868
	.quad	.LBI2700
	.value	.LVU210
	.quad	.LBB2700
	.quad	.LBE2700-.LBB2700
	.byte	0xc
	.value	0x1ef
	.byte	0x5
	.uleb128 0x4
	.long	0xa876
	.long	.LLST248
	.long	.LVUS248
	.byte	0
	.byte	0
	.byte	0
	.byte	0
	.byte	0
	.byte	0
	.uleb128 0x58
	.long	0xc5f5
	.quad	.LBI2710
	.value	.LVU212
	.quad	.LBB2710
	.quad	.LBE2710-.LBB2710
	.byte	0x46
	.byte	0x2e
	.byte	0x2
	.long	0xfbba
	.uleb128 0x3
	.long	0xc603
	.uleb128 0x22
	.long	0xbece
	.quad	.LBI2711
	.value	.LVU213
	.quad	.LBB2711
	.quad	.LBE2711-.LBB2711
	.byte	0x5
	.byte	0xbd
	.byte	0x27
	.uleb128 0x3
	.long	0xbedc
	.byte	0
	.byte	0
	.uleb128 0x1f
	.long	0xc624
	.quad	.LBI2712
	.value	.LVU216
	.quad	.LBB2712
	.quad	.LBE2712-.LBB2712
	.byte	0x1
	.byte	0x47
	.byte	0x38
	.long	0xfc0e
	.uleb128 0x3
	.long	0xc632
	.uleb128 0x22
	.long	0xbefd
	.quad	.LBI2713
	.value	.LVU217
	.quad	.LBB2713
	.quad	.LBE2713-.LBB2713
	.byte	0x5
	.byte	0xa8
	.byte	0x24
	.uleb128 0x3
	.long	0xbf0b
	.byte	0
	.byte	0
	.uleb128 0x32
	.long	0xc590
	.quad	.LBI2714
	.value	.LVU222
	.long	.LLRL253
	.byte	0x1
	.byte	0x47
	.byte	0x38
	.byte	0x1
	.long	0x10083
	.uleb128 0x3
	.long	0xc59e
	.uleb128 0x4
	.long	0xc5a7
	.long	.LLST254
	.long	.LVUS254
	.uleb128 0x3
	.long	0xc5b4
	.uleb128 0x3
	.long	0xc5c1
	.uleb128 0x3a
	.long	0xbea9
	.quad	.LBI2715
	.value	.LVU223
	.long	.LLRL257
	.byte	0x2
	.value	0x24f
	.byte	0x2f
	.long	0xfd42
	.uleb128 0x4
	.long	0xbeb3
	.long	.LLST258
	.long	.LVUS258
	.uleb128 0x3
	.long	0xbec0
	.uleb128 0x2f
	.long	0xb4f4
	.quad	.LBI2717
	.value	.LVU224
	.quad	.LBB2717
	.quad	.LBE2717-.LBB2717
	.byte	0x2
	.value	0x89d
	.byte	0x18
	.long	0xfcd1
	.uleb128 0x3
	.long	0xb502
	.uleb128 0x3
	.long	0xb50b
	.uleb128 0x22
	.long	0xaecb
	.quad	.LBI2718
	.value	.LVU225
	.quad	.LBB2718
	.quad	.LBE2718-.LBB2718
	.byte	0x5
	.byte	0xad
	.byte	0x22
	.uleb128 0x3
	.long	0xaed9
	.uleb128 0x3
	.long	0xaee2
	.byte	0
	.byte	0
	.uleb128 0x73
	.long	0xc5f5
	.quad	.LBI2719
	.value	.LVU227
	.quad	.LBB2719
	.quad	.LBE2719-.LBB2719
	.value	0x89d
	.byte	0x18
	.byte	0x2
	.long	0xfd26
	.uleb128 0x3
	.long	0xc603
	.uleb128 0x22
	.long	0xbece
	.quad	.LBI2720
	.value	.LVU228
	.quad	.LBB2720
	.quad	.LBE2720-.LBB2720
	.byte	0x5
	.byte	0xbd
	.byte	0x27
	.uleb128 0x3
	.long	0xbedc
	.byte	0
	.byte	0
	.uleb128 0x2e
	.quad	.LVL280
	.long	0x6dcd
	.uleb128 0x20
	.uleb128 0x1
	.byte	0x55
	.uleb128 0x9
	.byte	0x3
	.quad	.LC0
	.byte	0
	.byte	0
	.uleb128 0x57
	.long	0xbe25
	.quad	.LBI2722
	.value	.LVU232
	.long	.LLRL262
	.byte	0x2
	.value	0x24f
	.byte	0x2f
	.byte	0x1
	.long	0xfef8
	.uleb128 0x3
	.long	0xbe33
	.uleb128 0x4
	.long	0xbe3c
	.long	.LLST263
	.long	.LVUS263
	.uleb128 0x3
	.long	0xbe49
	.uleb128 0x2f
	.long	0xb4b4
	.quad	.LBI2723
	.value	.LVU233
	.quad	.LBB2723
	.quad	.LBE2723-.LBB2723
	.byte	0x2
	.value	0x154
	.byte	0x9
	.long	0xfe2d
	.uleb128 0x3
	.long	0xb4c2
	.uleb128 0x3
	.long	0xb4cb
	.uleb128 0x1f
	.long	0xb4f4
	.quad	.LBI2724
	.value	.LVU234
	.quad	.LBB2724
	.quad	.LBE2724-.LBB2724
	.byte	0x2
	.byte	0x99
	.byte	0x16
	.long	0xfe04
	.uleb128 0x3
	.long	0xb502
	.uleb128 0x3
	.long	0xb50b
	.uleb128 0x22
	.long	0xaecb
	.quad	.LBI2725
	.value	.LVU235
	.quad	.LBB2725
	.quad	.LBE2725-.LBB2725
	.byte	0x5
	.byte	0xad
	.byte	0x22
	.uleb128 0x3
	.long	0xaed9
	.uleb128 0x3
	.long	0xaee2
	.byte	0
	.byte	0
	.uleb128 0x75
	.long	0xae9c
	.quad	.LBI2726
	.value	.LVU237
	.quad	.LBB2726
	.quad	.LBE2726-.LBB2726
	.byte	0x2
	.byte	0x99
	.byte	0x1
	.uleb128 0x3
	.long	0xaeaa
	.byte	0
	.byte	0
	.uleb128 0x18
	.long	0xb48f
	.quad	.LBI2727
	.value	.LVU239
	.long	.LLRL268
	.byte	0x2
	.value	0x155
	.byte	0x1a
	.uleb128 0x3
	.long	0xb49d
	.uleb128 0x4
	.long	0xb4a6
	.long	.LLST269
	.long	.LVUS269
	.uleb128 0x18
	.long	0xae77
	.quad	.LBI2729
	.value	.LVU240
	.long	.LLRL270
	.byte	0x2
	.value	0x197
	.byte	0x2c
	.uleb128 0x3
	.long	0xae85
	.uleb128 0x4
	.long	0xae8e
	.long	.LLST271
	.long	.LVUS271
	.uleb128 0x5d
	.long	0xab06
	.quad	.LBI2731
	.value	.LVU242
	.long	.LLRL272
	.byte	0x2
	.value	0x185
	.byte	0x1
	.uleb128 0x3
	.long	0xab10
	.uleb128 0x4
	.long	0xab1d
	.long	.LLST273
	.long	.LVUS273
	.uleb128 0x18
	.long	0xa8d7
	.quad	.LBI2732
	.value	.LVU243
	.long	.LLRL272
	.byte	0x8
	.value	0x27e
	.byte	0x1c
	.uleb128 0x3
	.long	0xa8e5
	.uleb128 0x4
	.long	0xa8fa
	.long	.LLST274
	.long	.LVUS274
	.uleb128 0x4
	.long	0xa8ee
	.long	.LLST275
	.long	.LVUS275
	.uleb128 0x2e
	.quad	.LVL53
	.long	0xa61e
	.uleb128 0x20
	.uleb128 0x1
	.byte	0x55
	.uleb128 0x3
	.byte	0x77
	.sleb128 48
	.byte	0x6
	.byte	0
	.byte	0
	.byte	0
	.byte	0
	.byte	0
	.byte	0
	.uleb128 0x18
	.long	0xbdaa
	.quad	.LBI2745
	.value	.LVU249
	.long	.LLRL276
	.byte	0x2
	.value	0x250
	.byte	0x1b
	.uleb128 0x3
	.long	0xbdb8
	.uleb128 0x4
	.long	0xbdc1
	.long	.LLST277
	.long	.LVUS277
	.uleb128 0x3
	.long	0xbdce
	.uleb128 0x18
	.long	0xb402
	.quad	.LBI2746
	.value	.LVU250
	.long	.LLRL276
	.byte	0x2
	.value	0x7c6
	.byte	0x21
	.uleb128 0x4
	.long	0xb430
	.long	.LLST279
	.long	.LVUS279
	.uleb128 0x4
	.long	0xb43d
	.long	.LLST280
	.long	.LVUS280
	.uleb128 0x3
	.long	0xb44a
	.uleb128 0x3
	.long	0xb457
	.uleb128 0x18
	.long	0xadf8
	.quad	.LBI2747
	.value	.LVU251
	.long	.LLRL276
	.byte	0xc
	.value	0x30a
	.byte	0x27
	.uleb128 0x4
	.long	0xae1d
	.long	.LLST282
	.long	.LVUS282
	.uleb128 0x4
	.long	0xae2a
	.long	.LLST283
	.long	.LVUS283
	.uleb128 0x3
	.long	0xae37
	.uleb128 0x18
	.long	0xaa7c
	.quad	.LBI2749
	.value	.LVU252
	.long	.LLRL285
	.byte	0xc
	.value	0x253
	.byte	0x25
	.uleb128 0x4
	.long	0xaaa1
	.long	.LLST286
	.long	.LVUS286
	.uleb128 0x4
	.long	0xaaae
	.long	.LLST287
	.long	.LVUS287
	.uleb128 0x3
	.long	0xaabb
	.uleb128 0x38
	.long	0xaac8
	.uleb128 0x82
	.long	0xa82b
	.long	.LLRL289
	.long	0x1000b
	.uleb128 0x3
	.long	0xa84d
	.uleb128 0x3
	.long	0xa861
	.uleb128 0x2e
	.quad	.LVL55
	.long	0x1192a
	.uleb128 0x20
	.uleb128 0x1
	.byte	0x55
	.uleb128 0x2
	.byte	0x73
	.sleb128 0
	.uleb128 0x20
	.uleb128 0x1
	.byte	0x54
	.uleb128 0x1
	.byte	0x30
	.uleb128 0x20
	.uleb128 0x1
	.byte	0x51
	.uleb128 0x3
	.byte	0x77
	.sleb128 48
	.byte	0x6
	.byte	0
	.byte	0
	.uleb128 0x2f
	.long	0xa897
	.quad	.LBI2754
	.value	.LVU253
	.quad	.LBB2754
	.quad	.LBE2754-.LBB2754
	.byte	0xc
	.value	0x1df
	.byte	0x2d
	.long	0x1004d
	.uleb128 0x4
	.long	0xa8a5
	.long	.LLST290
	.long	.LVUS290
	.uleb128 0x4
	.long	0xa8ae
	.long	.LLST291
	.long	.LVUS291
	.byte	0
	.uleb128 0x12
	.long	0xa868
	.quad	.LBI2756
	.value	.LVU259
	.quad	.LBB2756
	.quad	.LBE2756-.LBB2756
	.byte	0xc
	.value	0x1ef
	.byte	0x5
	.uleb128 0x4
	.long	0xa876
	.long	.LLST292
	.long	.LVUS292
	.byte	0
	.byte	0
	.byte	0
	.byte	0
	.byte	0
	.byte	0
	.uleb128 0x58
	.long	0xc5f5
	.quad	.LBI2766
	.value	.LVU261
	.quad	.LBB2766
	.quad	.LBE2766-.LBB2766
	.byte	0x47
	.byte	0x38
	.byte	0x2
	.long	0x100d7
	.uleb128 0x3
	.long	0xc603
	.uleb128 0x22
	.long	0xbece
	.quad	.LBI2767
	.value	.LVU262
	.quad	.LBB2767
	.quad	.LBE2767-.LBB2767
	.byte	0x5
	.byte	0xbd
	.byte	0x27
	.uleb128 0x3
	.long	0xbedc
	.byte	0
	.byte	0
	.uleb128 0x2a
	.long	0xc4dd
	.quad	.LBI2795
	.value	.LVU344
	.long	.LLRL312
	.byte	0x1
	.byte	0x59
	.byte	0x35
	.long	0x10113
	.uleb128 0x3
	.long	0xc4eb
	.uleb128 0x4d
	.long	0xbcea
	.quad	.LBI2796
	.value	.LVU345
	.long	.LLRL312
	.byte	0x5
	.byte	0xa8
	.byte	0x24
	.uleb128 0x3
	.long	0xbcf8
	.byte	0
	.byte	0
	.uleb128 0x32
	.long	0xc449
	.quad	.LBI2798
	.value	.LVU347
	.long	.LLRL315
	.byte	0x1
	.byte	0x59
	.byte	0x35
	.byte	0x1
	.long	0x104ef
	.uleb128 0x3
	.long	0xc457
	.uleb128 0x4
	.long	0xc460
	.long	.LLST316
	.long	.LVUS316
	.uleb128 0x3
	.long	0xc46d
	.uleb128 0x3
	.long	0xc47a
	.uleb128 0x3a
	.long	0xbc96
	.quad	.LBI2799
	.value	.LVU348
	.long	.LLRL319
	.byte	0x2
	.value	0x24f
	.byte	0x2f
	.long	0x10218
	.uleb128 0x4
	.long	0xbca0
	.long	.LLST320
	.long	.LVUS320
	.uleb128 0x3
	.long	0xbcad
	.uleb128 0x3a
	.long	0xb364
	.quad	.LBI2801
	.value	.LVU349
	.long	.LLRL322
	.byte	0x2
	.value	0x89d
	.byte	0x18
	.long	0x101be
	.uleb128 0x3
	.long	0xb372
	.uleb128 0x3
	.long	0xb37b
	.uleb128 0x4d
	.long	0xada7
	.quad	.LBI2802
	.value	.LVU350
	.long	.LLRL322
	.byte	0x5
	.byte	0xad
	.byte	0x22
	.uleb128 0x3
	.long	0xadb5
	.uleb128 0x3
	.long	0xadbe
	.byte	0
	.byte	0
	.uleb128 0x57
	.long	0xc4ae
	.quad	.LBI2804
	.value	.LVU352
	.long	.LLRL325
	.byte	0x2
	.value	0x89d
	.byte	0x18
	.byte	0x2
	.long	0x101fc
	.uleb128 0x3
	.long	0xc4bc
	.uleb128 0x4d
	.long	0xbcbb
	.quad	.LBI2805
	.value	.LVU353
	.long	.LLRL325
	.byte	0x5
	.byte	0xbd
	.byte	0x27
	.uleb128 0x3
	.long	0xbcc9
	.byte	0
	.byte	0
	.uleb128 0x2e
	.quad	.LVL264
	.long	0x6dcd
	.uleb128 0x20
	.uleb128 0x1
	.byte	0x55
	.uleb128 0x9
	.byte	0x3
	.quad	.LC0
	.byte	0
	.byte	0
	.uleb128 0x57
	.long	0xbc12
	.quad	.LBI2811
	.value	.LVU356
	.long	.LLRL326
	.byte	0x2
	.value	0x24f
	.byte	0x2f
	.byte	0x1
	.long	0x1039e
	.uleb128 0x3
	.long	0xbc20
	.uleb128 0x4
	.long	0xbc29
	.long	.LLST327
	.long	.LVUS327
	.uleb128 0x3
	.long	0xbc36
	.uleb128 0x3a
	.long	0xb324
	.quad	.LBI2812
	.value	.LVU357
	.long	.LLRL329
	.byte	0x2
	.value	0x154
	.byte	0x9
	.long	0x102d3
	.uleb128 0x3
	.long	0xb332
	.uleb128 0x3
	.long	0xb33b
	.uleb128 0x2a
	.long	0xb364
	.quad	.LBI2813
	.value	.LVU358
	.long	.LLRL331
	.byte	0x2
	.byte	0x99
	.byte	0x16
	.long	0x102b6
	.uleb128 0x3
	.long	0xb372
	.uleb128 0x3
	.long	0xb37b
	.uleb128 0x4d
	.long	0xada7
	.quad	.LBI2814
	.value	.LVU359
	.long	.LLRL331
	.byte	0x5
	.byte	0xad
	.byte	0x22
	.uleb128 0x3
	.long	0xadb5
	.uleb128 0x3
	.long	0xadbe
	.byte	0
	.byte	0
	.uleb128 0x9d
	.long	0xad78
	.quad	.LBI2816
	.value	.LVU361
	.long	.LLRL334
	.byte	0x99
	.byte	0x16
	.uleb128 0x3
	.long	0xad86
	.byte	0
	.byte	0
	.uleb128 0x18
	.long	0xb2ff
	.quad	.LBI2819
	.value	.LVU363
	.long	.LLRL335
	.byte	0x2
	.value	0x155
	.byte	0x1a
	.uleb128 0x3
	.long	0xb30d
	.uleb128 0x4
	.long	0xb316
	.long	.LLST336
	.long	.LVUS336
	.uleb128 0x18
	.long	0xad53
	.quad	.LBI2821
	.value	.LVU364
	.long	.LLRL337
	.byte	0x2
	.value	0x197
	.byte	0x2c
	.uleb128 0x3
	.long	0xad61
	.uleb128 0x4
	.long	0xad6a
	.long	.LLST338
	.long	.LVUS338
	.uleb128 0x5d
	.long	0xaa3f
	.quad	.LBI2823
	.value	.LVU368
	.long	.LLRL339
	.byte	0x2
	.value	0x185
	.byte	0x1
	.uleb128 0x3
	.long	0xaa49
	.uleb128 0x4
	.long	0xaa56
	.long	.LLST340
	.long	.LVUS340
	.uleb128 0x18
	.long	0xa7d2
	.quad	.LBI2824
	.value	.LVU369
	.long	.LLRL341
	.byte	0x8
	.value	0x27e
	.byte	0x1c
	.uleb128 0x3
	.long	0xa7e0
	.uleb128 0x4
	.long	0xa7f5
	.long	.LLST342
	.long	.LVUS342
	.uleb128 0x4
	.long	0xa7e9
	.long	.LLST343
	.long	.LVUS343
	.uleb128 0x2e
	.quad	.LVL82
	.long	0xa61e
	.uleb128 0x20
	.uleb128 0x1
	.byte	0x55
	.uleb128 0x3
	.byte	0x77
	.sleb128 56
	.byte	0x6
	.byte	0
	.byte	0
	.byte	0
	.byte	0
	.byte	0
	.byte	0
	.uleb128 0x18
	.long	0xbb97
	.quad	.LBI2858
	.value	.LVU375
	.long	.LLRL344
	.byte	0x2
	.value	0x250
	.byte	0x1b
	.uleb128 0x3
	.long	0xbba5
	.uleb128 0x4
	.long	0xbbae
	.long	.LLST345
	.long	.LVUS345
	.uleb128 0x3
	.long	0xbbbb
	.uleb128 0x18
	.long	0xb272
	.quad	.LBI2859
	.value	.LVU376
	.long	.LLRL344
	.byte	0x2
	.value	0x7c6
	.byte	0x21
	.uleb128 0x4
	.long	0xb2a0
	.long	.LLST347
	.long	.LVUS347
	.uleb128 0x4
	.long	0xb2ad
	.long	.LLST348
	.long	.LVUS348
	.uleb128 0x3
	.long	0xb2ba
	.uleb128 0x3
	.long	0xb2c7
	.uleb128 0x18
	.long	0xacd4
	.quad	.LBI2860
	.value	.LVU377
	.long	.LLRL344
	.byte	0xc
	.value	0x30a
	.byte	0x27
	.uleb128 0x4
	.long	0xacf9
	.long	.LLST350
	.long	.LVUS350
	.uleb128 0x4
	.long	0xad06
	.long	.LLST351
	.long	.LVUS351
	.uleb128 0x3
	.long	0xad13
	.uleb128 0x18
	.long	0xa9b5
	.quad	.LBI2862
	.value	.LVU378
	.long	.LLRL353
	.byte	0xc
	.value	0x253
	.byte	0x25
	.uleb128 0x4
	.long	0xa9da
	.long	.LLST354
	.long	.LVUS354
	.uleb128 0x4
	.long	0xa9e7
	.long	.LLST355
	.long	.LVUS355
	.uleb128 0x3
	.long	0xa9f4
	.uleb128 0x38
	.long	0xaa01
	.uleb128 0x82
	.long	0xa726
	.long	.LLRL357
	.long	0x104ac
	.uleb128 0x3
	.long	0xa748
	.uleb128 0x3
	.long	0xa75c
	.uleb128 0x2e
	.quad	.LVL84
	.long	0x1192a
	.uleb128 0x20
	.uleb128 0x1
	.byte	0x54
	.uleb128 0x1
	.byte	0x30
	.uleb128 0x20
	.uleb128 0x1
	.byte	0x51
	.uleb128 0x4
	.byte	0x77
	.sleb128 216
	.byte	0x6
	.byte	0
	.byte	0
	.uleb128 0x12
	.long	0xa792
	.quad	.LBI2868
	.value	.LVU379
	.quad	.LBB2868
	.quad	.LBE2868-.LBB2868
	.byte	0xc
	.value	0x1df
	.byte	0x2d
	.uleb128 0x4
	.long	0xa7a0
	.long	.LLST358
	.long	.LVUS358
	.uleb128 0x4
	.long	0xa7a9
	.long	.LLST359
	.long	.LVUS359
	.byte	0
	.byte	0
	.byte	0
	.byte	0
	.byte	0
	.byte	0
	.uleb128 0x1f
	.long	0xc41a
	.quad	.LBI3202
	.value	.LVU1134
	.quad	.LBB3202
	.quad	.LBE3202-.LBB3202
	.byte	0x1
	.byte	0xd1
	.byte	0x1
	.long	0x10726
	.uleb128 0x3
	.long	0xc428
	.uleb128 0x2f
	.long	0xbb7f
	.quad	.LBI3203
	.value	.LVU1135
	.quad	.LBB3203
	.quad	.LBE3203-.LBB3203
	.byte	0x2
	.value	0x319
	.byte	0x1c
	.long	0x10547
	.uleb128 0x3
	.long	0xbb8d
	.byte	0
	.uleb128 0x2f
	.long	0xbb43
	.quad	.LBI3204
	.value	.LVU1137
	.quad	.LBB3204
	.quad	.LBE3204-.LBB3204
	.byte	0x2
	.value	0x318
	.byte	0xf
	.long	0x1057e
	.uleb128 0x3
	.long	0xbb5f
	.uleb128 0x3
	.long	0xbb6c
	.uleb128 0x3
	.long	0xbb79
	.byte	0
	.uleb128 0x12
	.long	0xbbc9
	.quad	.LBI3205
	.value	.LVU1139
	.quad	.LBB3205
	.quad	.LBE3205-.LBB3205
	.byte	0x2
	.value	0x31b
	.byte	0x7
	.uleb128 0x3
	.long	0xbbd7
	.uleb128 0x76
	.long	0xbbe0
	.quad	.LBB3206
	.quad	.LBE3206-.LBB3206
	.long	0x106ab
	.uleb128 0x3c
	.long	0xbbe1
	.long	.LLST517
	.long	.LVUS517
	.uleb128 0x12
	.long	0xb2cd
	.quad	.LBI3207
	.value	.LVU1140
	.quad	.LBB3207
	.quad	.LBE3207-.LBB3207
	.byte	0x2
	.value	0x17a
	.byte	0xf
	.uleb128 0x3
	.long	0xb2db
	.uleb128 0x4
	.long	0xb2e4
	.long	.LLST518
	.long	.LVUS518
	.uleb128 0x4
	.long	0xb2f1
	.long	.LLST519
	.long	.LVUS519
	.uleb128 0x12
	.long	0xad21
	.quad	.LBI3209
	.value	.LVU1142
	.quad	.LBB3209
	.quad	.LBE3209-.LBB3209
	.byte	0x2
	.value	0x18e
	.byte	0x13
	.uleb128 0x3
	.long	0xad2b
	.uleb128 0x4
	.long	0xad38
	.long	.LLST520
	.long	.LVUS520
	.uleb128 0x4
	.long	0xad45
	.long	.LLST521
	.long	.LVUS521
	.uleb128 0x12
	.long	0xaa0f
	.quad	.LBI3210
	.value	.LVU1143
	.quad	.LBB3210
	.quad	.LBE3210-.LBB3210
	.byte	0x8
	.value	0x2b1
	.byte	0x17
	.uleb128 0x3
	.long	0xaa1d
	.uleb128 0x4
	.long	0xaa26
	.long	.LLST522
	.long	.LVUS522
	.uleb128 0x4
	.long	0xaa32
	.long	.LLST523
	.long	.LVUS523
	.uleb128 0x2e
	.quad	.LVL199
	.long	0xa603
	.uleb128 0x20
	.uleb128 0x1
	.byte	0x54
	.uleb128 0x3
	.byte	0x77
	.sleb128 56
	.byte	0x6
	.byte	0
	.byte	0
	.byte	0
	.byte	0
	.byte	0
	.uleb128 0x12
	.long	0xbc65
	.quad	.LBI3212
	.value	.LVU1146
	.quad	.LBB3212
	.quad	.LBE3212-.LBB3212
	.byte	0x2
	.value	0x17b
	.byte	0x7
	.uleb128 0x3
	.long	0xbc75
	.uleb128 0x22
	.long	0xc4ae
	.quad	.LBI3213
	.value	.LVU1147
	.quad	.LBB3213
	.quad	.LBE3213-.LBB3213
	.byte	0x2
	.byte	0x8b
	.byte	0xe
	.uleb128 0x3
	.long	0xc4bc
	.uleb128 0x22
	.long	0xbcbb
	.quad	.LBI3214
	.value	.LVU1148
	.quad	.LBB3214
	.quad	.LBE3214-.LBB3214
	.byte	0x5
	.byte	0xbd
	.byte	0x27
	.uleb128 0x3
	.long	0xbcc9
	.byte	0
	.byte	0
	.byte	0
	.byte	0
	.byte	0
	.uleb128 0x58
	.long	0xc561
	.quad	.LBI3215
	.value	.LVU1150
	.quad	.LBB3215
	.quad	.LBE3215-.LBB3215
	.byte	0xd1
	.byte	0x1
	.byte	0x1
	.long	0x10943
	.uleb128 0x3
	.long	0xc56f
	.uleb128 0x2f
	.long	0xbd92
	.quad	.LBI3216
	.value	.LVU1151
	.quad	.LBB3216
	.quad	.LBE3216-.LBB3216
	.byte	0x2
	.value	0x319
	.byte	0x1c
	.long	0x1077e
	.uleb128 0x3
	.long	0xbda0
	.byte	0
	.uleb128 0x2f
	.long	0xbd56
	.quad	.LBI3217
	.value	.LVU1153
	.quad	.LBB3217
	.quad	.LBE3217-.LBB3217
	.byte	0x2
	.value	0x318
	.byte	0xf
	.long	0x107b5
	.uleb128 0x3
	.long	0xbd72
	.uleb128 0x3
	.long	0xbd7f
	.uleb128 0x3
	.long	0xbd8c
	.byte	0
	.uleb128 0x12
	.long	0xbddc
	.quad	.LBI3218
	.value	.LVU1155
	.quad	.LBB3218
	.quad	.LBE3218-.LBB3218
	.byte	0x2
	.value	0x31b
	.byte	0x7
	.uleb128 0x3
	.long	0xbdea
	.uleb128 0x76
	.long	0xbdf3
	.quad	.LBB3219
	.quad	.LBE3219-.LBB3219
	.long	0x108c8
	.uleb128 0x38
	.long	0xbdf4
	.uleb128 0x12
	.long	0xb45d
	.quad	.LBI3220
	.value	.LVU1156
	.quad	.LBB3220
	.quad	.LBE3220-.LBB3220
	.byte	0x2
	.value	0x17a
	.byte	0xf
	.uleb128 0x3
	.long	0xb46b
	.uleb128 0x4
	.long	0xb474
	.long	.LLST524
	.long	.LVUS524
	.uleb128 0x3
	.long	0xb481
	.uleb128 0x12
	.long	0xae45
	.quad	.LBI3222
	.value	.LVU1158
	.quad	.LBB3222
	.quad	.LBE3222-.LBB3222
	.byte	0x2
	.value	0x18e
	.byte	0x13
	.uleb128 0x3
	.long	0xae4f
	.uleb128 0x4
	.long	0xae5c
	.long	.LLST525
	.long	.LVUS525
	.uleb128 0x3
	.long	0xae69
	.uleb128 0x12
	.long	0xaad6
	.quad	.LBI3223
	.value	.LVU1159
	.quad	.LBB3223
	.quad	.LBE3223-.LBB3223
	.byte	0x8
	.value	0x2b1
	.byte	0x17
	.uleb128 0x3
	.long	0xaae4
	.uleb128 0x4
	.long	0xaaed
	.long	.LLST526
	.long	.LVUS526
	.uleb128 0x3
	.long	0xaaf9
	.uleb128 0x2e
	.quad	.LVL201
	.long	0xa603
	.uleb128 0x20
	.uleb128 0x1
	.byte	0x55
	.uleb128 0x2
	.byte	0x73
	.sleb128 0
	.uleb128 0x20
	.uleb128 0x1
	.byte	0x54
	.uleb128 0x3
	.byte	0x77
	.sleb128 48
	.byte	0x6
	.byte	0
	.byte	0
	.byte	0
	.byte	0
	.byte	0
	.uleb128 0x12
	.long	0xbe78
	.quad	.LBI3225
	.value	.LVU1162
	.quad	.LBB3225
	.quad	.LBE3225-.LBB3225
	.byte	0x2
	.value	0x17b
	.byte	0x7
	.uleb128 0x3
	.long	0xbe88
	.uleb128 0x22
	.long	0xc5f5
	.quad	.LBI3226
	.value	.LVU1163
	.quad	.LBB3226
	.quad	.LBE3226-.LBB3226
	.byte	0x2
	.byte	0x8b
	.byte	0xe
	.uleb128 0x3
	.long	0xc603
	.uleb128 0x22
	.long	0xbece
	.quad	.LBI3227
	.value	.LVU1164
	.quad	.LBB3227
	.quad	.LBE3227-.LBB3227
	.byte	0x5
	.byte	0xbd
	.byte	0x27
	.uleb128 0x3
	.long	0xbedc
	.byte	0
	.byte	0
	.byte	0
	.byte	0
	.byte	0
	.uleb128 0x58
	.long	0xc561
	.quad	.LBI3228
	.value	.LVU1166
	.quad	.LBB3228
	.quad	.LBE3228-.LBB3228
	.byte	0xd1
	.byte	0x1
	.byte	0x2
	.long	0x10b62
	.uleb128 0x3
	.long	0xc56f
	.uleb128 0x2f
	.long	0xbd92
	.quad	.LBI3229
	.value	.LVU1167
	.quad	.LBB3229
	.quad	.LBE3229-.LBB3229
	.byte	0x2
	.value	0x319
	.byte	0x1c
	.long	0x1099b
	.uleb128 0x3
	.long	0xbda0
	.byte	0
	.uleb128 0x2f
	.long	0xbd56
	.quad	.LBI3230
	.value	.LVU1169
	.quad	.LBB3230
	.quad	.LBE3230-.LBB3230
	.byte	0x2
	.value	0x318
	.byte	0xf
	.long	0x109d2
	.uleb128 0x3
	.long	0xbd72
	.uleb128 0x3
	.long	0xbd7f
	.uleb128 0x3
	.long	0xbd8c
	.byte	0
	.uleb128 0x12
	.long	0xbddc
	.quad	.LBI3231
	.value	.LVU1171
	.quad	.LBB3231
	.quad	.LBE3231-.LBB3231
	.byte	0x2
	.value	0x31b
	.byte	0x7
	.uleb128 0x3
	.long	0xbdea
	.uleb128 0x76
	.long	0xbdf3
	.quad	.LBB3232
	.quad	.LBE3232-.LBB3232
	.long	0x10ae7
	.uleb128 0x38
	.long	0xbdf4
	.uleb128 0x12
	.long	0xb45d
	.quad	.LBI3233
	.value	.LVU1172
	.quad	.LBB3233
	.quad	.LBE3233-.LBB3233
	.byte	0x2
	.value	0x17a
	.byte	0xf
	.uleb128 0x3
	.long	0xb46b
	.uleb128 0x4
	.long	0xb474
	.long	.LLST527
	.long	.LVUS527
	.uleb128 0x3
	.long	0xb481
	.uleb128 0x12
	.long	0xae45
	.quad	.LBI3235
	.value	.LVU1174
	.quad	.LBB3235
	.quad	.LBE3235-.LBB3235
	.byte	0x2
	.value	0x18e
	.byte	0x13
	.uleb128 0x3
	.long	0xae4f
	.uleb128 0x4
	.long	0xae5c
	.long	.LLST528
	.long	.LVUS528
	.uleb128 0x3
	.long	0xae69
	.uleb128 0x12
	.long	0xaad6
	.quad	.LBI3236
	.value	.LVU1175
	.quad	.LBB3236
	.quad	.LBE3236-.LBB3236
	.byte	0x8
	.value	0x2b1
	.byte	0x17
	.uleb128 0x3
	.long	0xaae4
	.uleb128 0x4
	.long	0xaaed
	.long	.LLST529
	.long	.LVUS529
	.uleb128 0x3
	.long	0xaaf9
	.uleb128 0x2e
	.quad	.LVL203
	.long	0xa603
	.uleb128 0x20
	.uleb128 0x1
	.byte	0x55
	.uleb128 0x4
	.byte	0x77
	.sleb128 64
	.byte	0x6
	.uleb128 0x20
	.uleb128 0x1
	.byte	0x54
	.uleb128 0x3
	.byte	0x77
	.sleb128 24
	.byte	0x6
	.byte	0
	.byte	0
	.byte	0
	.byte	0
	.byte	0
	.uleb128 0x12
	.long	0xbe78
	.quad	.LBI3238
	.value	.LVU1178
	.quad	.LBB3238
	.quad	.LBE3238-.LBB3238
	.byte	0x2
	.value	0x17b
	.byte	0x7
	.uleb128 0x3
	.long	0xbe88
	.uleb128 0x22
	.long	0xc5f5
	.quad	.LBI3239
	.value	.LVU1179
	.quad	.LBB3239
	.quad	.LBE3239-.LBB3239
	.byte	0x2
	.byte	0x8b
	.byte	0xe
	.uleb128 0x3
	.long	0xc603
	.uleb128 0x22
	.long	0xbece
	.quad	.LBI3240
	.value	.LVU1180
	.quad	.LBB3240
	.quad	.LBE3240-.LBB3240
	.byte	0x5
	.byte	0xbd
	.byte	0x27
	.uleb128 0x3
	.long	0xbedc
	.byte	0
	.byte	0
	.byte	0
	.byte	0
	.byte	0
	.uleb128 0x58
	.long	0xc561
	.quad	.LBI3270
	.value	.LVU1436
	.quad	.LBB3270
	.quad	.LBE3270-.LBB3270
	.byte	0xd1
	.byte	0x1
	.byte	0x5
	.long	0x10d7d
	.uleb128 0x3
	.long	0xc56f
	.uleb128 0x3a
	.long	0xbddc
	.quad	.LBI3271
	.value	.LVU1441
	.long	.LLRL530
	.byte	0x2
	.value	0x31b
	.byte	0x7
	.long	0x10d1c
	.uleb128 0x3
	.long	0xbdea
	.uleb128 0x68
	.long	0xbdf3
	.long	.LLRL531
	.long	0x10ca2
	.uleb128 0x3c
	.long	0xbdf4
	.long	.LLST532
	.long	.LVUS532
	.uleb128 0x18
	.long	0xb45d
	.quad	.LBI3273
	.value	.LVU1442
	.long	.LLRL531
	.byte	0x2
	.value	0x17a
	.byte	0xf
	.uleb128 0x3
	.long	0xb46b
	.uleb128 0x4
	.long	0xb474
	.long	.LLST533
	.long	.LVUS533
	.uleb128 0x4
	.long	0xb481
	.long	.LLST534
	.long	.LVUS534
	.uleb128 0x12
	.long	0xae45
	.quad	.LBI3275
	.value	.LVU1444
	.quad	.LBB3275
	.quad	.LBE3275-.LBB3275
	.byte	0x2
	.value	0x18e
	.byte	0x13
	.uleb128 0x3
	.long	0xae4f
	.uleb128 0x4
	.long	0xae5c
	.long	.LLST535
	.long	.LVUS535
	.uleb128 0x4
	.long	0xae69
	.long	.LLST536
	.long	.LVUS536
	.uleb128 0x12
	.long	0xaad6
	.quad	.LBI3276
	.value	.LVU1445
	.quad	.LBB3276
	.quad	.LBE3276-.LBB3276
	.byte	0x8
	.value	0x2b1
	.byte	0x17
	.uleb128 0x3
	.long	0xaae4
	.uleb128 0x4
	.long	0xaaed
	.long	.LLST537
	.long	.LVUS537
	.uleb128 0x4
	.long	0xaaf9
	.long	.LLST538
	.long	.LVUS538
	.uleb128 0x2e
	.quad	.LVL267
	.long	0xa603
	.uleb128 0x20
	.uleb128 0x1
	.byte	0x55
	.uleb128 0x4
	.byte	0x77
	.sleb128 64
	.byte	0x6
	.uleb128 0x20
	.uleb128 0x1
	.byte	0x54
	.uleb128 0x3
	.byte	0x77
	.sleb128 24
	.byte	0x6
	.byte	0
	.byte	0
	.byte	0
	.byte	0
	.byte	0
	.uleb128 0x12
	.long	0xbe78
	.quad	.LBI3281
	.value	.LVU1448
	.quad	.LBB3281
	.quad	.LBE3281-.LBB3281
	.byte	0x2
	.value	0x17b
	.byte	0x7
	.uleb128 0x3
	.long	0xbe88
	.uleb128 0x22
	.long	0xc5f5
	.quad	.LBI3282
	.value	.LVU1449
	.quad	.LBB3282
	.quad	.LBE3282-.LBB3282
	.byte	0x2
	.byte	0x8b
	.byte	0xe
	.uleb128 0x3
	.long	0xc603
	.uleb128 0x22
	.long	0xbece
	.quad	.LBI3283
	.value	.LVU1450
	.quad	.LBB3283
	.quad	.LBE3283-.LBB3283
	.byte	0x5
	.byte	0xbd
	.byte	0x27
	.uleb128 0x3
	.long	0xbedc
	.byte	0
	.byte	0
	.byte	0
	.byte	0
	.uleb128 0x2f
	.long	0xbd92
	.quad	.LBI3284
	.value	.LVU1437
	.quad	.LBB3284
	.quad	.LBE3284-.LBB3284
	.byte	0x2
	.value	0x319
	.byte	0x1c
	.long	0x10d49
	.uleb128 0x3
	.long	0xbda0
	.byte	0
	.uleb128 0x12
	.long	0xbd56
	.quad	.LBI3285
	.value	.LVU1439
	.quad	.LBB3285
	.quad	.LBE3285-.LBB3285
	.byte	0x2
	.value	0x318
	.byte	0xf
	.uleb128 0x3
	.long	0xbd72
	.uleb128 0x3
	.long	0xbd7f
	.uleb128 0x3
	.long	0xbd8c
	.byte	0
	.byte	0
	.uleb128 0x32
	.long	0xc77d
	.quad	.LBI3287
	.value	.LVU1452
	.long	.LLRL539
	.byte	0x1
	.byte	0xd1
	.byte	0x1
	.byte	0x6
	.long	0x10fd6
	.uleb128 0x4
	.long	0xc78b
	.long	.LLST540
	.long	.LVUS540
	.uleb128 0x2f
	.long	0xc19d
	.quad	.LBI3288
	.value	.LVU1453
	.quad	.LBB3288
	.quad	.LBE3288-.LBB3288
	.byte	0x2
	.value	0x319
	.byte	0x1c
	.long	0x10dda
	.uleb128 0x4
	.long	0xc1ab
	.long	.LLST541
	.long	.LVUS541
	.byte	0
	.uleb128 0x2f
	.long	0xc161
	.quad	.LBI3289
	.value	.LVU1455
	.quad	.LBB3289
	.quad	.LBE3289-.LBB3289
	.byte	0x2
	.value	0x318
	.byte	0xf
	.long	0x10e19
	.uleb128 0x3
	.long	0xc17d
	.uleb128 0x3
	.long	0xc18a
	.uleb128 0x4
	.long	0xc197
	.long	.LLST542
	.long	.LVUS542
	.byte	0
	.uleb128 0x18
	.long	0xc7a8
	.quad	.LBI3290
	.value	.LVU1457
	.long	.LLRL543
	.byte	0x2
	.value	0x31b
	.byte	0x7
	.uleb128 0x4
	.long	0xc7b6
	.long	.LLST544
	.long	.LVUS544
	.uleb128 0x68
	.long	0xc7bf
	.long	.LLRL545
	.long	0x10f43
	.uleb128 0x38
	.long	0xc7c0
	.uleb128 0x18
	.long	0xc1b5
	.quad	.LBI3292
	.value	.LVU1458
	.long	.LLRL546
	.byte	0x2
	.value	0x17a
	.byte	0xf
	.uleb128 0x4
	.long	0xc1c3
	.long	.LLST547
	.long	.LVUS547
	.uleb128 0x4
	.long	0xc1cc
	.long	.LLST548
	.long	.LVUS548
	.uleb128 0x3
	.long	0xc1d9
	.uleb128 0x18
	.long	0xc1b5
	.quad	.LBI3294
	.value	.LVU1460
	.long	.LLRL549
	.byte	0x2
	.value	0x18a
	.byte	0x7
	.uleb128 0x4
	.long	0xc1c3
	.long	.LLST550
	.long	.LVUS550
	.uleb128 0x4
	.long	0xc1cc
	.long	.LLST551
	.long	.LVUS551
	.uleb128 0x3
	.long	0xc1d9
	.uleb128 0x18
	.long	0xb7b5
	.quad	.LBI3296
	.value	.LVU1461
	.long	.LLRL552
	.byte	0x2
	.value	0x18e
	.byte	0x13
	.uleb128 0x3
	.long	0xb7bf
	.uleb128 0x4
	.long	0xb7cc
	.long	.LLST553
	.long	.LVUS553
	.uleb128 0x3
	.long	0xb7d9
	.uleb128 0x3a
	.long	0xaf90
	.quad	.LBI3297
	.value	.LVU1462
	.long	.LLRL554
	.byte	0x8
	.value	0x2b1
	.byte	0x17
	.long	0x10f1c
	.uleb128 0x3
	.long	0xaf9e
	.uleb128 0x4
	.long	0xafa7
	.long	.LLST555
	.long	.LVUS555
	.uleb128 0x3
	.long	0xafb3
	.byte	0
	.uleb128 0x2e
	.quad	.LVL269
	.long	0xa603
	.uleb128 0x20
	.uleb128 0x1
	.byte	0x55
	.uleb128 0x4
	.byte	0x77
	.sleb128 96
	.byte	0x6
	.uleb128 0x20
	.uleb128 0x1
	.byte	0x54
	.uleb128 0x9
	.byte	0x77
	.sleb128 208
	.byte	0x6
	.byte	0x77
	.sleb128 96
	.byte	0x6
	.byte	0x1c
	.byte	0
	.byte	0
	.byte	0
	.byte	0
	.byte	0
	.uleb128 0x12
	.long	0x11617
	.quad	.LBI3307
	.value	.LVU1466
	.quad	.LBB3307
	.quad	.LBE3307-.LBB3307
	.byte	0x2
	.value	0x17b
	.byte	0x7
	.uleb128 0x4
	.long	0x11627
	.long	.LLST556
	.long	.LVUS556
	.uleb128 0x22
	.long	0xc7ed
	.quad	.LBI3308
	.value	.LVU1467
	.quad	.LBB3308
	.quad	.LBE3308-.LBB3308
	.byte	0x2
	.byte	0x8b
	.byte	0xe
	.uleb128 0x4
	.long	0xc7fb
	.long	.LLST557
	.long	.LVUS557
	.uleb128 0x22
	.long	0xc1e7
	.quad	.LBI3309
	.value	.LVU1468
	.quad	.LBB3309
	.quad	.LBE3309-.LBB3309
	.byte	0x5
	.byte	0xbd
	.byte	0x27
	.uleb128 0x4
	.long	0xc1f5
	.long	.LLST558
	.long	.LVUS558
	.byte	0
	.byte	0
	.byte	0
	.byte	0
	.byte	0
	.uleb128 0x32
	.long	0x11644
	.quad	.LBI3312
	.value	.LVU1470
	.long	.LLRL559
	.byte	0x1
	.byte	0xd1
	.byte	0x1
	.byte	0x7
	.long	0x11247
	.uleb128 0x4
	.long	0x11654
	.long	.LLST560
	.long	.LVUS560
	.uleb128 0x4d
	.long	0xc875
	.quad	.LBI3313
	.value	.LVU1471
	.long	.LLRL559
	.byte	0x4
	.byte	0xb
	.byte	0x8
	.uleb128 0x4
	.long	0xc883
	.long	.LLST561
	.long	.LVUS561
	.uleb128 0x2f
	.long	0xc306
	.quad	.LBI3314
	.value	.LVU1472
	.quad	.LBB3314
	.quad	.LBE3314-.LBB3314
	.byte	0x2
	.value	0x319
	.byte	0x1c
	.long	0x11056
	.uleb128 0x4
	.long	0xc314
	.long	.LLST562
	.long	.LVUS562
	.byte	0
	.uleb128 0x2f
	.long	0xc2ca
	.quad	.LBI3315
	.value	.LVU1474
	.quad	.LBB3315
	.quad	.LBE3315-.LBB3315
	.byte	0x2
	.value	0x318
	.byte	0xf
	.long	0x110a5
	.uleb128 0x4
	.long	0xc2e6
	.long	.LLST563
	.long	.LVUS563
	.uleb128 0x4
	.long	0xc2f3
	.long	.LLST564
	.long	.LVUS564
	.uleb128 0x4
	.long	0xc300
	.long	.LLST565
	.long	.LVUS565
	.byte	0
	.uleb128 0x18
	.long	0xc8a4
	.quad	.LBI3316
	.value	.LVU1476
	.long	.LLRL566
	.byte	0x2
	.value	0x31b
	.byte	0x7
	.uleb128 0x4
	.long	0xc8b2
	.long	.LLST567
	.long	.LVUS567
	.uleb128 0x68
	.long	0xc8bb
	.long	.LLRL568
	.long	0x111b3
	.uleb128 0x3c
	.long	0xc8bc
	.long	.LLST569
	.long	.LVUS569
	.uleb128 0x18
	.long	0xc31e
	.quad	.LBI3318
	.value	.LVU1478
	.long	.LLRL570
	.byte	0x2
	.value	0x17a
	.byte	0xf
	.uleb128 0x4
	.long	0xc32c
	.long	.LLST571
	.long	.LVUS571
	.uleb128 0x4
	.long	0xc335
	.long	.LLST572
	.long	.LVUS572
	.uleb128 0x4
	.long	0xc342
	.long	.LLST569
	.long	.LVUS569
	.uleb128 0x18
	.long	0xba48
	.quad	.LBI3320
	.value	.LVU1480
	.long	.LLRL574
	.byte	0x2
	.value	0x18e
	.byte	0x13
	.uleb128 0x4
	.long	0xba52
	.long	.LLST575
	.long	.LVUS575
	.uleb128 0x4
	.long	0xba5f
	.long	.LLST576
	.long	.LVUS576
	.uleb128 0x4
	.long	0xba6c
	.long	.LLST577
	.long	.LVUS577
	.uleb128 0x3a
	.long	0xb1dd
	.quad	.LBI3321
	.value	.LVU1481
	.long	.LLRL574
	.byte	0x8
	.value	0x2b1
	.byte	0x17
	.long	0x111a2
	.uleb128 0x4
	.long	0xb1eb
	.long	.LLST578
	.long	.LVUS578
	.uleb128 0x4
	.long	0xb1f4
	.long	.LLST579
	.long	.LVUS579
	.uleb128 0x4
	.long	0xb200
	.long	.LLST580
	.long	.LVUS580
	.byte	0
	.uleb128 0xcd
	.quad	.LVL272
	.long	0xa603
	.byte	0
	.byte	0
	.byte	0
	.uleb128 0x12
	.long	0x11704
	.quad	.LBI3327
	.value	.LVU1485
	.quad	.LBB3327
	.quad	.LBE3327-.LBB3327
	.byte	0x2
	.value	0x17b
	.byte	0x7
	.uleb128 0x4
	.long	0x11714
	.long	.LLST581
	.long	.LVUS581
	.uleb128 0x22
	.long	0xc8ed
	.quad	.LBI3328
	.value	.LVU1486
	.quad	.LBB3328
	.quad	.LBE3328-.LBB3328
	.byte	0x2
	.byte	0x8b
	.byte	0xe
	.uleb128 0x4
	.long	0xc8fb
	.long	.LLST582
	.long	.LVUS582
	.uleb128 0x22
	.long	0xc350
	.quad	.LBI3329
	.value	.LVU1487
	.quad	.LBB3329
	.quad	.LBE3329-.LBB3329
	.byte	0x5
	.byte	0xbd
	.byte	0x27
	.uleb128 0x4
	.long	0xc35e
	.long	.LLST583
	.long	.LVUS583
	.byte	0
	.byte	0
	.byte	0
	.byte	0
	.byte	0
	.byte	0
	.uleb128 0x58
	.long	0xc561
	.quad	.LBI3333
	.value	.LVU1491
	.quad	.LBB3333
	.quad	.LBE3333-.LBB3333
	.byte	0xd1
	.byte	0x1
	.byte	0x4
	.long	0x1146b
	.uleb128 0x3
	.long	0xc56f
	.uleb128 0x3a
	.long	0xbddc
	.quad	.LBI3334
	.value	.LVU1496
	.long	.LLRL584
	.byte	0x2
	.value	0x31b
	.byte	0x7
	.long	0x1140a
	.uleb128 0x3
	.long	0xbdea
	.uleb128 0x68
	.long	0xbdf3
	.long	.LLRL585
	.long	0x11390
	.uleb128 0x3c
	.long	0xbdf4
	.long	.LLST586
	.long	.LVUS586
	.uleb128 0x18
	.long	0xb45d
	.quad	.LBI3336
	.value	.LVU1497
	.long	.LLRL585
	.byte	0x2
	.value	0x17a
	.byte	0xf
	.uleb128 0x3
	.long	0xb46b
	.uleb128 0x4
	.long	0xb474
	.long	.LLST587
	.long	.LVUS587
	.uleb128 0x4
	.long	0xb481
	.long	.LLST588
	.long	.LVUS588
	.uleb128 0x12
	.long	0xae45
	.quad	.LBI3338
	.value	.LVU1505
	.quad	.LBB3338
	.quad	.LBE3338-.LBB3338
	.byte	0x2
	.value	0x18e
	.byte	0x13
	.uleb128 0x3
	.long	0xae4f
	.uleb128 0x4
	.long	0xae5c
	.long	.LLST589
	.long	.LVUS589
	.uleb128 0x4
	.long	0xae69
	.long	.LLST590
	.long	.LVUS590
	.uleb128 0x12
	.long	0xaad6
	.quad	.LBI3339
	.value	.LVU1506
	.quad	.LBB3339
	.quad	.LBE3339-.LBB3339
	.byte	0x8
	.value	0x2b1
	.byte	0x17
	.uleb128 0x3
	.long	0xaae4
	.uleb128 0x4
	.long	0xaaed
	.long	.LLST591
	.long	.LVUS591
	.uleb128 0x4
	.long	0xaaf9
	.long	.LLST592
	.long	.LVUS592
	.uleb128 0x4e
	.quad	.LVL277
	.uleb128 0x1
	.byte	0x30
	.uleb128 0x2e
	.quad	.LVL278
	.long	0xa603
	.uleb128 0x20
	.uleb128 0x1
	.byte	0x55
	.uleb128 0x2
	.byte	0x73
	.sleb128 0
	.uleb128 0x20
	.uleb128 0x1
	.byte	0x54
	.uleb128 0x3
	.byte	0x77
	.sleb128 48
	.byte	0x6
	.byte	0
	.byte	0
	.byte	0
	.byte	0
	.byte	0
	.uleb128 0x12
	.long	0xbe78
	.quad	.LBI3346
	.value	.LVU1500
	.quad	.LBB3346
	.quad	.LBE3346-.LBB3346
	.byte	0x2
	.value	0x17b
	.byte	0x7
	.uleb128 0x3
	.long	0xbe88
	.uleb128 0x22
	.long	0xc5f5
	.quad	.LBI3347
	.value	.LVU1501
	.quad	.LBB3347
	.quad	.LBE3347-.LBB3347
	.byte	0x2
	.byte	0x8b
	.byte	0xe
	.uleb128 0x3
	.long	0xc603
	.uleb128 0x22
	.long	0xbece
	.quad	.LBI3348
	.value	.LVU1502
	.quad	.LBB3348
	.quad	.LBE3348-.LBB3348
	.byte	0x5
	.byte	0xbd
	.byte	0x27
	.uleb128 0x3
	.long	0xbedc
	.byte	0
	.byte	0
	.byte	0
	.byte	0
	.uleb128 0x2f
	.long	0xbd92
	.quad	.LBI3350
	.value	.LVU1492
	.quad	.LBB3350
	.quad	.LBE3350-.LBB3350
	.byte	0x2
	.value	0x319
	.byte	0x1c
	.long	0x11437
	.uleb128 0x3
	.long	0xbda0
	.byte	0
	.uleb128 0x12
	.long	0xbd56
	.quad	.LBI3351
	.value	.LVU1494
	.quad	.LBB3351
	.quad	.LBE3351-.LBB3351
	.byte	0x2
	.value	0x318
	.byte	0xf
	.uleb128 0x3
	.long	0xbd72
	.uleb128 0x3
	.long	0xbd7f
	.uleb128 0x3
	.long	0xbd8c
	.byte	0
	.byte	0
	.uleb128 0x4e
	.quad	.LVL177
	.uleb128 0x1
	.byte	0x30
	.uleb128 0x4e
	.quad	.LVL250
	.uleb128 0x1
	.byte	0x30
	.uleb128 0x4e
	.quad	.LVL259
	.uleb128 0x1
	.byte	0x30
	.uleb128 0x4e
	.quad	.LVL265
	.uleb128 0x1
	.byte	0x30
	.uleb128 0xce
	.quad	.LVL273
	.long	0x11934
	.long	0x114b0
	.uleb128 0x20
	.uleb128 0x1
	.byte	0x55
	.uleb128 0x2
	.byte	0x73
	.sleb128 0
	.byte	0
	.uleb128 0x4e
	.quad	.LVL275
	.uleb128 0x1
	.byte	0x30
	.uleb128 0x4e
	.quad	.LVL282
	.uleb128 0x1
	.byte	0x30
	.uleb128 0x4e
	.quad	.LVL284
	.uleb128 0x1
	.byte	0x30
	.uleb128 0x4e
	.quad	.LVL289
	.uleb128 0x1
	.byte	0x30
	.byte	0
	.uleb128 0xb
	.long	0x8aea
	.long	0x114eb
	.byte	0x3
	.long	0x114f5
	.uleb128 0x9
	.long	.LASF1303
	.long	0xa472
	.byte	0
	.uleb128 0xb
	.long	0x859f
	.long	0x11503
	.byte	0x3
	.long	0x1150d
	.uleb128 0x9
	.long	.LASF1303
	.long	0xa364
	.byte	0
	.uleb128 0xb
	.long	0x8aa5
	.long	0x1151b
	.byte	0x3
	.long	0x11525
	.uleb128 0x9
	.long	.LASF1303
	.long	0xa481
	.byte	0
	.uleb128 0xb
	.long	0x8c16
	.long	0x11533
	.byte	0x3
	.long	0x1153d
	.uleb128 0x9
	.long	.LASF1303
	.long	0xa481
	.byte	0
	.uleb128 0xa
	.long	0x8c45
	.uleb128 0x15
	.long	0x8e81
	.byte	0x3
	.long	0x11567
	.uleb128 0x13
	.long	.LASF1421
	.byte	0x3
	.value	0x4dd
	.byte	0x2b
	.long	0x1153d
	.uleb128 0x13
	.long	.LASF1422
	.byte	0x3
	.value	0x4dd
	.byte	0x4b
	.long	0x1153d
	.byte	0
	.uleb128 0xb
	.long	0x8552
	.long	0x11575
	.byte	0x3
	.long	0x1157f
	.uleb128 0x9
	.long	.LASF1303
	.long	0xa373
	.byte	0
	.uleb128 0xb
	.long	0x86ef
	.long	0x1158d
	.byte	0x3
	.long	0x11597
	.uleb128 0x9
	.long	.LASF1303
	.long	0xa373
	.byte	0
	.uleb128 0xa
	.long	0x8722
	.uleb128 0x15
	.long	0x8e9d
	.byte	0x3
	.long	0x115c1
	.uleb128 0x13
	.long	.LASF1421
	.byte	0x3
	.value	0x4dd
	.byte	0x2b
	.long	0x11597
	.uleb128 0x13
	.long	.LASF1422
	.byte	0x3
	.value	0x4dd
	.byte	0x4b
	.long	0x11597
	.byte	0
	.uleb128 0xb
	.long	0x38af
	.long	0x115cf
	.byte	0x2
	.long	0x115d9
	.uleb128 0x9
	.long	.LASF1303
	.long	0xa328
	.byte	0
	.uleb128 0x3e
	.long	0x115c1
	.long	0x115e6
	.long	0x115ec
	.uleb128 0x3
	.long	0x115cf
	.byte	0
	.uleb128 0xb
	.long	0x3649
	.long	0x115fa
	.byte	0x2
	.long	0x11604
	.uleb128 0x9
	.long	.LASF1303
	.long	0xa305
	.byte	0
	.uleb128 0x3e
	.long	0x115ec
	.long	0x11611
	.long	0x11617
	.uleb128 0x3
	.long	0x115fa
	.byte	0
	.uleb128 0x63
	.long	0x35c7
	.byte	0x2
	.byte	0x8b
	.byte	0xe
	.long	0x11627
	.long	0x11631
	.uleb128 0x9
	.long	.LASF1303
	.long	0xa2e7
	.byte	0
	.uleb128 0x3e
	.long	0x11617
	.long	0x1163e
	.long	0x11644
	.uleb128 0x3
	.long	0x11627
	.byte	0
	.uleb128 0x63
	.long	0x9e3f
	.byte	0x4
	.byte	0xb
	.byte	0x8
	.long	0x11654
	.long	0x1165e
	.uleb128 0x9
	.long	.LASF1303
	.long	0x9e7a
	.byte	0
	.uleb128 0x1a
	.long	0x11644
	.long	.LASF1423
	.long	0x1166f
	.long	0x11675
	.uleb128 0x3
	.long	0x11654
	.byte	0
	.uleb128 0x63
	.long	0x9e57
	.byte	0x4
	.byte	0xb
	.byte	0x8
	.long	0x11685
	.long	0x1168f
	.uleb128 0x9
	.long	.LASF1303
	.long	0x9e7a
	.byte	0
	.uleb128 0x1a
	.long	0x11675
	.long	.LASF1424
	.long	0x116a0
	.long	0x116a6
	.uleb128 0x3
	.long	0x11685
	.byte	0
	.uleb128 0xb
	.long	0x1289
	.long	0x116b4
	.byte	0x2
	.long	0x116be
	.uleb128 0x9
	.long	.LASF1303
	.long	0x9d4f
	.byte	0
	.uleb128 0x1a
	.long	0x116a6
	.long	.LASF1425
	.long	0x116cf
	.long	0x116d5
	.uleb128 0x3
	.long	0x116b4
	.byte	0
	.uleb128 0xb
	.long	0xff2
	.long	0x116e3
	.byte	0x2
	.long	0x116ed
	.uleb128 0x9
	.long	.LASF1303
	.long	0x9d31
	.byte	0
	.uleb128 0x1a
	.long	0x116d5
	.long	.LASF1426
	.long	0x116fe
	.long	0x11704
	.uleb128 0x3
	.long	0x116e3
	.byte	0
	.uleb128 0x63
	.long	0xf61
	.byte	0x2
	.byte	0x8b
	.byte	0xe
	.long	0x11714
	.long	0x1171e
	.uleb128 0x9
	.long	.LASF1303
	.long	0x9d13
	.byte	0
	.uleb128 0x1a
	.long	0x11704
	.long	.LASF1427
	.long	0x1172f
	.long	0x11735
	.uleb128 0x3
	.long	0x11714
	.byte	0
	.uleb128 0xcf
	.long	.LASF1428
	.byte	0x10
	.byte	0x3f
	.byte	0x1
	.long	.LASF1429
	.long	0xa0a5
	.byte	0x3
	.long	0x11770
	.uleb128 0x26
	.string	"__A"
	.byte	0x10
	.byte	0x3f
	.byte	0x19
	.long	0xa0a5
	.uleb128 0x26
	.string	"__B"
	.byte	0x10
	.byte	0x3f
	.byte	0x25
	.long	0xa0a5
	.uleb128 0x26
	.string	"__C"
	.byte	0x10
	.byte	0x3f
	.byte	0x31
	.long	0xa0a5
	.byte	0
	.uleb128 0x5e
	.long	.LASF1430
	.byte	0xf
	.value	0x1e9
	.long	.LASF1431
	.long	0xa0c2
	.long	0x11792
	.uleb128 0xe
	.string	"__X"
	.byte	0xf
	.value	0x1e9
	.byte	0x1f
	.long	0xa045
	.byte	0
	.uleb128 0x5e
	.long	.LASF1432
	.byte	0xd
	.value	0x4f7
	.long	.LASF1433
	.long	0xa0a5
	.long	0x117b4
	.uleb128 0xe
	.string	"__A"
	.byte	0xd
	.value	0x4f7
	.byte	0x17
	.long	0x30
	.byte	0
	.uleb128 0xd0
	.long	.LASF1434
	.byte	0xd
	.value	0x355
	.byte	0x1
	.long	.LASF1435
	.byte	0x3
	.long	0x117e2
	.uleb128 0xe
	.string	"__P"
	.byte	0xd
	.value	0x355
	.byte	0x1a
	.long	0xa49f
	.uleb128 0xe
	.string	"__A"
	.byte	0xd
	.value	0x355
	.byte	0x26
	.long	0xa0a5
	.byte	0
	.uleb128 0x5e
	.long	.LASF1436
	.byte	0xd
	.value	0x34f
	.long	.LASF1437
	.long	0xa0a5
	.long	0x11804
	.uleb128 0xe
	.string	"__P"
	.byte	0xd
	.value	0x34f
	.byte	0x1f
	.long	0xa4b8
	.byte	0
	.uleb128 0x5e
	.long	.LASF1438
	.byte	0xd
	.value	0x195
	.long	.LASF1439
	.long	0xa0a5
	.long	0x11826
	.uleb128 0xe
	.string	"__A"
	.byte	0xd
	.value	0x195
	.byte	0x1d
	.long	0xa0c2
	.byte	0
	.uleb128 0x5e
	.long	.LASF1440
	.byte	0xe
	.value	0x2c7
	.long	.LASF1441
	.long	0xa045
	.long	0x11848
	.uleb128 0xe
	.string	"__P"
	.byte	0xe
	.value	0x2c7
	.byte	0x23
	.long	0x11848
	.byte	0
	.uleb128 0xd
	.long	0xa069
	.uleb128 0x5e
	.long	.LASF1442
	.byte	0xe
	.value	0x258
	.long	.LASF1443
	.long	0xa045
	.long	0x1187c
	.uleb128 0x13
	.long	.LASF1444
	.byte	0xe
	.value	0x258
	.byte	0x16
	.long	0x9efa
	.uleb128 0x13
	.long	.LASF1445
	.byte	0xe
	.value	0x258
	.byte	0x23
	.long	0x9efa
	.byte	0
	.uleb128 0x5e
	.long	.LASF1446
	.byte	0xe
	.value	0x252
	.long	.LASF1447
	.long	0xa045
	.long	0x118ab
	.uleb128 0x13
	.long	.LASF1444
	.byte	0xe
	.value	0x252
	.byte	0x1b
	.long	0x8f03
	.uleb128 0x13
	.long	.LASF1445
	.byte	0xe
	.value	0x252
	.byte	0x2b
	.long	0x8f03
	.byte	0
	.uleb128 0x15
	.long	0x74e1
	.byte	0x3
	.long	0x118c3
	.uleb128 0xe
	.string	"__x"
	.byte	0x9
	.value	0x108
	.byte	0xf
	.long	0x30
	.byte	0
	.uleb128 0x15
	.long	0x74fc
	.byte	0x3
	.long	0x118db
	.uleb128 0xe
	.string	"__n"
	.byte	0xa
	.value	0x3fd
	.byte	0x23
	.long	0x3e
	.byte	0
	.uleb128 0xd1
	.long	.LASF1299
	.byte	0x49
	.byte	0xb1
	.byte	0x23
	.long	.LASF1448
	.byte	0x3
	.long	0x118f8
	.uleb128 0x1
	.long	0x7568
	.uleb128 0x1
	.long	0x7568
	.byte	0
	.uleb128 0xd2
	.long	.LASF1301
	.byte	0x49
	.byte	0xa8
	.byte	0x7
	.long	.LASF1449
	.long	0x7568
	.byte	0x3
	.long	0x11920
	.uleb128 0x1
	.long	0x2c3
	.uleb128 0x26
	.string	"__p"
	.byte	0x49
	.byte	0xa8
	.byte	0x27
	.long	0x7568
	.byte	0
	.uleb128 0x83
	.long	.LASF1450
	.long	.LASF1452
	.uleb128 0x83
	.long	.LASF1451
	.long	.LASF1453
	.uleb128 0x83
	.long	.LASF1454
	.long	.LASF1455
	.byte	0
	.section	.debug_abbrev,"",@progbits
.Ldebug_abbrev0:
	.uleb128 0x1
	.uleb128 0x5
	.byte	0
	.uleb128 0x49
	.uleb128 0x13
	.byte	0
	.byte	0
	.uleb128 0x2
	.uleb128 0x5
	.byte	0
	.uleb128 0x49
	.uleb128 0x13
	.uleb128 0x34
	.uleb128 0x19
	.byte	0
	.byte	0
	.uleb128 0x3
	.uleb128 0x5
	.byte	0
	.uleb128 0x31
	.uleb128 0x13
	.byte	0
	.byte	0
	.uleb128 0x4
	.uleb128 0x5
	.byte	0
	.uleb128 0x31
	.uleb128 0x13
	.uleb128 0x2
	.uleb128 0x17
	.uleb128 0x2137
	.uleb128 0x17
	.byte	0
	.byte	0
	.uleb128 0x5
	.uleb128 0x8
	.byte	0
	.uleb128 0x3a
	.uleb128 0xb
	.uleb128 0x3b
	.uleb128 0xb
	.uleb128 0x39
	.uleb128 0xb
	.uleb128 0x18
	.uleb128 0x13
	.byte	0
	.byte	0
	.uleb128 0x6
	.uleb128 0x2e
	.byte	0x1
	.uleb128 0x3f
	.uleb128 0x19
	.uleb128 0x3
	.uleb128 0xe
	.uleb128 0x3a
	.uleb128 0xb
	.uleb128 0x3b
	.uleb128 0x5
	.uleb128 0x39
	.uleb128 0xb
	.uleb128 0x6e
	.uleb128 0xe
	.uleb128 0x49
	.uleb128 0x13
	.uleb128 0x32
	.uleb128 0xb
	.uleb128 0x3c
	.uleb128 0x19
	.uleb128 0x64
	.uleb128 0x13
	.uleb128 0x1
	.uleb128 0x13
	.byte	0
	.byte	0
	.uleb128 0x7
	.uleb128 0x26
	.byte	0
	.uleb128 0x49
	.uleb128 0x13
	.byte	0
	.byte	0
	.uleb128 0x8
	.uleb128 0x16
	.byte	0
	.uleb128 0x3
	.uleb128 0xe
	.uleb128 0x3a
	.uleb128 0xb
	.uleb128 0x3b
	.uleb128 0xb
	.uleb128 0x39
	.uleb128 0xb
	.uleb128 0x49
	.uleb128 0x13
	.byte	0
	.byte	0
	.uleb128 0x9
	.uleb128 0x5
	.byte	0
	.uleb128 0x3
	.uleb128 0xe
	.uleb128 0x49
	.uleb128 0x13
	.uleb128 0x34
	.uleb128 0x19
	.byte	0
	.byte	0
	.uleb128 0xa
	.uleb128 0x10
	.byte	0
	.uleb128 0xb
	.uleb128 0x21
	.sleb128 8
	.uleb128 0x49
	.uleb128 0x13
	.byte	0
	.byte	0
	.uleb128 0xb
	.uleb128 0x2e
	.byte	0x1
	.uleb128 0x47
	.uleb128 0x13
	.uleb128 0x64
	.uleb128 0x13
	.uleb128 0x20
	.uleb128 0xb
	.uleb128 0x1
	.uleb128 0x13
	.byte	0
	.byte	0
	.uleb128 0xc
	.uleb128 0x2f
	.byte	0
	.uleb128 0x3
	.uleb128 0xe
	.uleb128 0x49
	.uleb128 0x13
	.byte	0
	.byte	0
	.uleb128 0xd
	.uleb128 0xf
	.byte	0
	.uleb128 0xb
	.uleb128 0x21
	.sleb128 8
	.uleb128 0x49
	.uleb128 0x13
	.byte	0
	.byte	0
	.uleb128 0xe
	.uleb128 0x5
	.byte	0
	.uleb128 0x3
	.uleb128 0x8
	.uleb128 0x3a
	.uleb128 0xb
	.uleb128 0x3b
	.uleb128 0x5
	.uleb128 0x39
	.uleb128 0xb
	.uleb128 0x49
	.uleb128 0x13
	.byte	0
	.byte	0
	.uleb128 0xf
	.uleb128 0xd
	.byte	0
	.uleb128 0x3
	.uleb128 0xe
	.uleb128 0x3a
	.uleb128 0xb
	.uleb128 0x3b
	.uleb128 0xb
	.uleb128 0x39
	.uleb128 0xb
	.uleb128 0x49
	.uleb128 0x13
	.uleb128 0x38
	.uleb128 0xb
	.byte	0
	.byte	0
	.uleb128 0x10
	.uleb128 0x2e
	.byte	0x1
	.uleb128 0x3f
	.uleb128 0x19
	.uleb128 0x3
	.uleb128 0xe
	.uleb128 0x3a
	.uleb128 0xb
	.uleb128 0x3b
	.uleb128 0x5
	.uleb128 0x39
	.uleb128 0xb
	.uleb128 0x6e
	.uleb128 0xe
	.uleb128 0x32
	.uleb128 0xb
	.uleb128 0x3c
	.uleb128 0x19
	.uleb128 0x64
	.uleb128 0x13
	.uleb128 0x1
	.uleb128 0x13
	.byte	0
	.byte	0
	.uleb128 0x11
	.uleb128 0x2f
	.byte	0
	.uleb128 0x3
	.uleb128 0x8
	.uleb128 0x49
	.uleb128 0x13
	.byte	0
	.byte	0
	.uleb128 0x12
	.uleb128 0x1d
	.byte	0x1
	.uleb128 0x31
	.uleb128 0x13
	.uleb128 0x52
	.uleb128 0x1
	.uleb128 0x2138
	.uleb128 0x5
	.uleb128 0x11
	.uleb128 0x1
	.uleb128 0x12
	.uleb128 0x7
	.uleb128 0x58
	.uleb128 0xb
	.uleb128 0x59
	.uleb128 0x5
	.uleb128 0x57
	.uleb128 0xb
	.byte	0
	.byte	0
	.uleb128 0x13
	.uleb128 0x5
	.byte	0
	.uleb128 0x3
	.uleb128 0xe
	.uleb128 0x3a
	.uleb128 0xb
	.uleb128 0x3b
	.uleb128 0x5
	.uleb128 0x39
	.uleb128 0xb
	.uleb128 0x49
	.uleb128 0x13
	.byte	0
	.byte	0
	.uleb128 0x14
	.uleb128 0x16
	.byte	0
	.uleb128 0x3
	.uleb128 0xe
	.uleb128 0x3a
	.uleb128 0xb
	.uleb128 0x3b
	.uleb128 0x5
	.uleb128 0x39
	.uleb128 0xb
	.uleb128 0x49
	.uleb128 0x13
	.uleb128 0x32
	.uleb128 0x21
	.sleb128 1
	.byte	0
	.byte	0
	.uleb128 0x15
	.uleb128 0x2e
	.byte	0x1
	.uleb128 0x47
	.uleb128 0x13
	.uleb128 0x20
	.uleb128 0xb
	.uleb128 0x1
	.uleb128 0x13
	.byte	0
	.byte	0
	.uleb128 0x16
	.uleb128 0x2e
	.byte	0x1
	.uleb128 0x3f
	.uleb128 0x19
	.uleb128 0x3
	.uleb128 0xe
	.uleb128 0x3a
	.uleb128 0xb
	.uleb128 0x3b
	.uleb128 0x5
	.uleb128 0x39
	.uleb128 0xb
	.uleb128 0x49
	.uleb128 0x13
	.uleb128 0x3c
	.uleb128 0x19
	.uleb128 0x1
	.uleb128 0x13
	.byte	0
	.byte	0
	.uleb128 0x17
	.uleb128 0x2e
	.byte	0x1
	.uleb128 0x3f
	.uleb128 0x19
	.uleb128 0x3
	.uleb128 0xe
	.uleb128 0x3a
	.uleb128 0xb
	.uleb128 0x3b
	.uleb128 0x5
	.uleb128 0x39
	.uleb128 0xb
	.uleb128 0x6e
	.uleb128 0xe
	.uleb128 0x49
	.uleb128 0x13
	.uleb128 0x3c
	.uleb128 0x19
	.uleb128 0x1
	.uleb128 0x13
	.byte	0
	.byte	0
	.uleb128 0x18
	.uleb128 0x1d
	.byte	0x1
	.uleb128 0x31
	.uleb128 0x13
	.uleb128 0x52
	.uleb128 0x1
	.uleb128 0x2138
	.uleb128 0x5
	.uleb128 0x55
	.uleb128 0x17
	.uleb128 0x58
	.uleb128 0xb
	.uleb128 0x59
	.uleb128 0x5
	.uleb128 0x57
	.uleb128 0xb
	.byte	0
	.byte	0
	.uleb128 0x19
	.uleb128 0x8
	.byte	0
	.uleb128 0x3a
	.uleb128 0xb
	.uleb128 0x3b
	.uleb128 0x5
	.uleb128 0x39
	.uleb128 0xb
	.uleb128 0x18
	.uleb128 0x13
	.byte	0
	.byte	0
	.uleb128 0x1a
	.uleb128 0x2e
	.byte	0x1
	.uleb128 0x31
	.uleb128 0x13
	.uleb128 0x6e
	.uleb128 0xe
	.uleb128 0x64
	.uleb128 0x13
	.uleb128 0x1
	.uleb128 0x13
	.byte	0
	.byte	0
	.uleb128 0x1b
	.uleb128 0x13
	.byte	0x1
	.uleb128 0x3
	.uleb128 0xe
	.uleb128 0xb
	.uleb128 0xb
	.uleb128 0x3a
	.uleb128 0xb
	.uleb128 0x3b
	.uleb128 0xb
	.uleb128 0x39
	.uleb128 0xb
	.uleb128 0x1
	.uleb128 0x13
	.byte	0
	.byte	0
	.uleb128 0x1c
	.uleb128 0x2e
	.byte	0x1
	.uleb128 0x3f
	.uleb128 0x19
	.uleb128 0x3
	.uleb128 0xe
	.uleb128 0x3a
	.uleb128 0x21
	.sleb128 2
	.uleb128 0x3b
	.uleb128 0x5
	.uleb128 0x39
	.uleb128 0x21
	.sleb128 7
	.uleb128 0x6e
	.uleb128 0xe
	.uleb128 0x3c
	.uleb128 0x19
	.uleb128 0x64
	.uleb128 0x13
	.uleb128 0x1
	.uleb128 0x13
	.byte	0
	.byte	0
	.uleb128 0x1d
	.uleb128 0x16
	.byte	0
	.uleb128 0x3
	.uleb128 0xe
	.uleb128 0x3a
	.uleb128 0xb
	.uleb128 0x3b
	.uleb128 0x5
	.uleb128 0x39
	.uleb128 0xb
	.uleb128 0x49
	.uleb128 0x13
	.byte	0
	.byte	0
	.uleb128 0x1e
	.uleb128 0x2e
	.byte	0x1
	.uleb128 0x3
	.uleb128 0xe
	.uleb128 0x3a
	.uleb128 0xb
	.uleb128 0x3b
	.uleb128 0x5
	.uleb128 0x39
	.uleb128 0xb
	.uleb128 0x49
	.uleb128 0x13
	.uleb128 0x32
	.uleb128 0xb
	.uleb128 0x3c
	.uleb128 0x19
	.uleb128 0x64
	.uleb128 0x13
	.uleb128 0x1
	.uleb128 0x13
	.byte	0
	.byte	0
	.uleb128 0x1f
	.uleb128 0x1d
	.byte	0x1
	.uleb128 0x31
	.uleb128 0x13
	.uleb128 0x52
	.uleb128 0x1
	.uleb128 0x2138
	.uleb128 0x5
	.uleb128 0x11
	.uleb128 0x1
	.uleb128 0x12
	.uleb128 0x7
	.uleb128 0x58
	.uleb128 0xb
	.uleb128 0x59
	.uleb128 0xb
	.uleb128 0x57
	.uleb128 0xb
	.uleb128 0x1
	.uleb128 0x13
	.byte	0
	.byte	0
	.uleb128 0x20
	.uleb128 0x49
	.byte	0
	.uleb128 0x2
	.uleb128 0x18
	.uleb128 0x7e
	.uleb128 0x18
	.byte	0
	.byte	0
	.uleb128 0x21
	.uleb128 0x2e
	.byte	0x1
	.uleb128 0x3f
	.uleb128 0x19
	.uleb128 0x3
	.uleb128 0xe
	.uleb128 0x3a
	.uleb128 0xb
	.uleb128 0x3b
	.uleb128 0xb
	.uleb128 0x39
	.uleb128 0xb
	.uleb128 0x6e
	.uleb128 0xe
	.uleb128 0x3c
	.uleb128 0x19
	.uleb128 0x64
	.uleb128 0x13
	.uleb128 0x1
	.uleb128 0x13
	.byte	0
	.byte	0
	.uleb128 0x22
	.uleb128 0x1d
	.byte	0x1
	.uleb128 0x31
	.uleb128 0x13
	.uleb128 0x52
	.uleb128 0x1
	.uleb128 0x2138
	.uleb128 0x5
	.uleb128 0x11
	.uleb128 0x1
	.uleb128 0x12
	.uleb128 0x7
	.uleb128 0x58
	.uleb128 0xb
	.uleb128 0x59
	.uleb128 0xb
	.uleb128 0x57
	.uleb128 0xb
	.byte	0
	.byte	0
	.uleb128 0x23
	.uleb128 0x2e
	.byte	0x1
	.uleb128 0x3f
	.uleb128 0x19
	.uleb128 0x3
	.uleb128 0xe
	.uleb128 0x3a
	.uleb128 0xb
	.uleb128 0x3b
	.uleb128 0xb
	.uleb128 0x39
	.uleb128 0xb
	.uleb128 0x6e
	.uleb128 0xe
	.uleb128 0x32
	.uleb128 0xb
	.uleb128 0x3c
	.uleb128 0x19
	.uleb128 0x64
	.uleb128 0x13
	.uleb128 0x1
	.uleb128 0x13
	.byte	0
	.byte	0
	.uleb128 0x24
	.uleb128 0x2e
	.byte	0x1
	.uleb128 0x3f
	.uleb128 0x19
	.uleb128 0x3
	.uleb128 0xe
	.uleb128 0x3a
	.uleb128 0xb
	.uleb128 0x3b
	.uleb128 0xb
	.uleb128 0x39
	.uleb128 0xb
	.uleb128 0x6e
	.uleb128 0xe
	.uleb128 0x49
	.uleb128 0x13
	.uleb128 0x32
	.uleb128 0xb
	.uleb128 0x3c
	.uleb128 0x19
	.uleb128 0x64
	.uleb128 0x13
	.uleb128 0x1
	.uleb128 0x13
	.byte	0
	.byte	0
	.uleb128 0x25
	.uleb128 0x2e
	.byte	0x1
	.uleb128 0x3f
	.uleb128 0x19
	.uleb128 0x3
	.uleb128 0xe
	.uleb128 0x3a
	.uleb128 0xb
	.uleb128 0x3b
	.uleb128 0xb
	.uleb128 0x39
	.uleb128 0xb
	.uleb128 0x49
	.uleb128 0x13
	.uleb128 0x3c
	.uleb128 0x19
	.uleb128 0x1
	.uleb128 0x13
	.byte	0
	.byte	0
	.uleb128 0x26
	.uleb128 0x5
	.byte	0
	.uleb128 0x3
	.uleb128 0x8
	.uleb128 0x3a
	.uleb128 0xb
	.uleb128 0x3b
	.uleb128 0xb
	.uleb128 0x39
	.uleb128 0xb
	.uleb128 0x49
	.uleb128 0x13
	.byte	0
	.byte	0
	.uleb128 0x27
	.uleb128 0x16
	.byte	0
	.uleb128 0x3
	.uleb128 0xe
	.uleb128 0x3a
	.uleb128 0xb
	.uleb128 0x3b
	.uleb128 0xb
	.uleb128 0x39
	.uleb128 0xb
	.uleb128 0x49
	.uleb128 0x13
	.uleb128 0x32
	.uleb128 0x21
	.sleb128 1
	.byte	0
	.byte	0
	.uleb128 0x28
	.uleb128 0x42
	.byte	0
	.uleb128 0xb
	.uleb128 0x21
	.sleb128 8
	.uleb128 0x49
	.uleb128 0x13
	.byte	0
	.byte	0
	.uleb128 0x29
	.uleb128 0x34
	.byte	0
	.uleb128 0x3
	.uleb128 0xe
	.uleb128 0x3a
	.uleb128 0xb
	.uleb128 0x3b
	.uleb128 0x5
	.uleb128 0x39
	.uleb128 0xb
	.uleb128 0x49
	.uleb128 0x13
	.byte	0
	.byte	0
	.uleb128 0x2a
	.uleb128 0x1d
	.byte	0x1
	.uleb128 0x31
	.uleb128 0x13
	.uleb128 0x52
	.uleb128 0x1
	.uleb128 0x2138
	.uleb128 0x5
	.uleb128 0x55
	.uleb128 0x17
	.uleb128 0x58
	.uleb128 0xb
	.uleb128 0x59
	.uleb128 0xb
	.uleb128 0x57
	.uleb128 0xb
	.uleb128 0x1
	.uleb128 0x13
	.byte	0
	.byte	0
	.uleb128 0x2b
	.uleb128 0x24
	.byte	0
	.uleb128 0xb
	.uleb128 0xb
	.uleb128 0x3e
	.uleb128 0xb
	.uleb128 0x3
	.uleb128 0xe
	.byte	0
	.byte	0
	.uleb128 0x2c
	.uleb128 0x2e
	.byte	0x1
	.uleb128 0x3
	.uleb128 0xe
	.uleb128 0x3a
	.uleb128 0xb
	.uleb128 0x3b
	.uleb128 0x5
	.uleb128 0x39
	.uleb128 0xb
	.uleb128 0x32
	.uleb128 0xb
	.uleb128 0x3c
	.uleb128 0x19
	.uleb128 0x64
	.uleb128 0x13
	.uleb128 0x1
	.uleb128 0x13
	.byte	0
	.byte	0
	.uleb128 0x2d
	.uleb128 0x34
	.byte	0
	.uleb128 0x3
	.uleb128 0x8
	.uleb128 0x3a
	.uleb128 0x21
	.sleb128 1
	.uleb128 0x3b
	.uleb128 0xb
	.uleb128 0x39
	.uleb128 0xb
	.uleb128 0x49
	.uleb128 0x13
	.uleb128 0x2
	.uleb128 0x17
	.uleb128 0x2137
	.uleb128 0x17
	.byte	0
	.byte	0
	.uleb128 0x2e
	.uleb128 0x48
	.byte	0x1
	.uleb128 0x7d
	.uleb128 0x1
	.uleb128 0x7f
	.uleb128 0x13
	.byte	0
	.byte	0
	.uleb128 0x2f
	.uleb128 0x1d
	.byte	0x1
	.uleb128 0x31
	.uleb128 0x13
	.uleb128 0x52
	.uleb128 0x1
	.uleb128 0x2138
	.uleb128 0x5
	.uleb128 0x11
	.uleb128 0x1
	.uleb128 0x12
	.uleb128 0x7
	.uleb128 0x58
	.uleb128 0xb
	.uleb128 0x59
	.uleb128 0x5
	.uleb128 0x57
	.uleb128 0xb
	.uleb128 0x1
	.uleb128 0x13
	.byte	0
	.byte	0
	.uleb128 0x30
	.uleb128 0x34
	.byte	0
	.uleb128 0x3
	.uleb128 0xe
	.uleb128 0x3a
	.uleb128 0xb
	.uleb128 0x3b
	.uleb128 0xb
	.uleb128 0x39
	.uleb128 0xb
	.uleb128 0x49
	.uleb128 0x13
	.byte	0
	.byte	0
	.uleb128 0x31
	.uleb128 0x34
	.byte	0
	.uleb128 0x3
	.uleb128 0xe
	.uleb128 0x3a
	.uleb128 0x21
	.sleb128 1
	.uleb128 0x3b
	.uleb128 0xb
	.uleb128 0x39
	.uleb128 0xb
	.uleb128 0x49
	.uleb128 0x13
	.uleb128 0x2
	.uleb128 0x17
	.uleb128 0x2137
	.uleb128 0x17
	.byte	0
	.byte	0
	.uleb128 0x32
	.uleb128 0x1d
	.byte	0x1
	.uleb128 0x31
	.uleb128 0x13
	.uleb128 0x52
	.uleb128 0x1
	.uleb128 0x2138
	.uleb128 0x5
	.uleb128 0x55
	.uleb128 0x17
	.uleb128 0x58
	.uleb128 0xb
	.uleb128 0x59
	.uleb128 0xb
	.uleb128 0x57
	.uleb128 0xb
	.uleb128 0x2136
	.uleb128 0xb
	.uleb128 0x1
	.uleb128 0x13
	.byte	0
	.byte	0
	.uleb128 0x33
	.uleb128 0x2
	.byte	0
	.uleb128 0x3
	.uleb128 0xe
	.uleb128 0x3c
	.uleb128 0x19
	.byte	0
	.byte	0
	.uleb128 0x34
	.uleb128 0x2e
	.byte	0
	.uleb128 0x3f
	.uleb128 0x19
	.uleb128 0x3
	.uleb128 0xe
	.uleb128 0x3a
	.uleb128 0x21
	.sleb128 50
	.uleb128 0x3b
	.uleb128 0xb
	.uleb128 0x39
	.uleb128 0x21
	.sleb128 27
	.uleb128 0x6e
	.uleb128 0xe
	.uleb128 0x49
	.uleb128 0x13
	.uleb128 0x3c
	.uleb128 0x19
	.byte	0
	.byte	0
	.uleb128 0x35
	.uleb128 0x2e
	.byte	0x1
	.uleb128 0x3f
	.uleb128 0x19
	.uleb128 0x3
	.uleb128 0xe
	.uleb128 0x3a
	.uleb128 0xb
	.uleb128 0x3b
	.uleb128 0xb
	.uleb128 0x39
	.uleb128 0xb
	.uleb128 0x6e
	.uleb128 0xe
	.uleb128 0x49
	.uleb128 0x13
	.uleb128 0x3c
	.uleb128 0x19
	.uleb128 0x1
	.uleb128 0x13
	.byte	0
	.byte	0
	.uleb128 0x36
	.uleb128 0x1c
	.byte	0
	.uleb128 0x49
	.uleb128 0x13
	.uleb128 0x38
	.uleb128 0x21
	.sleb128 0
	.byte	0
	.byte	0
	.uleb128 0x37
	.uleb128 0x2e
	.byte	0x1
	.uleb128 0x3f
	.uleb128 0x19
	.uleb128 0x3
	.uleb128 0xe
	.uleb128 0x3a
	.uleb128 0x21
	.sleb128 2
	.uleb128 0x3b
	.uleb128 0x5
	.uleb128 0x39
	.uleb128 0xb
	.uleb128 0x6e
	.uleb128 0xe
	.uleb128 0x49
	.uleb128 0x13
	.uleb128 0x3c
	.uleb128 0x19
	.uleb128 0x64
	.uleb128 0x13
	.uleb128 0x1
	.uleb128 0x13
	.byte	0
	.byte	0
	.uleb128 0x38
	.uleb128 0x34
	.byte	0
	.uleb128 0x31
	.uleb128 0x13
	.byte	0
	.byte	0
	.uleb128 0x39
	.uleb128 0x2e
	.byte	0x1
	.uleb128 0x3f
	.uleb128 0x19
	.uleb128 0x3
	.uleb128 0x8
	.uleb128 0x3a
	.uleb128 0x21
	.sleb128 2
	.uleb128 0x3b
	.uleb128 0x5
	.uleb128 0x39
	.uleb128 0x21
	.sleb128 7
	.uleb128 0x6e
	.uleb128 0xe
	.uleb128 0x49
	.uleb128 0x13
	.uleb128 0x32
	.uleb128 0x21
	.sleb128 1
	.uleb128 0x3c
	.uleb128 0x19
	.uleb128 0x64
	.uleb128 0x13
	.uleb128 0x1
	.uleb128 0x13
	.byte	0
	.byte	0
	.uleb128 0x3a
	.uleb128 0x1d
	.byte	0x1
	.uleb128 0x31
	.uleb128 0x13
	.uleb128 0x52
	.uleb128 0x1
	.uleb128 0x2138
	.uleb128 0x5
	.uleb128 0x55
	.uleb128 0x17
	.uleb128 0x58
	.uleb128 0xb
	.uleb128 0x59
	.uleb128 0x5
	.uleb128 0x57
	.uleb128 0xb
	.uleb128 0x1
	.uleb128 0x13
	.byte	0
	.byte	0
	.uleb128 0x3b
	.uleb128 0x5
	.byte	0
	.uleb128 0x3
	.uleb128 0xe
	.uleb128 0x3a
	.uleb128 0xb
	.uleb128 0x3b
	.uleb128 0xb
	.uleb128 0x39
	.uleb128 0xb
	.uleb128 0x49
	.uleb128 0x13
	.byte	0
	.byte	0
	.uleb128 0x3c
	.uleb128 0x34
	.byte	0
	.uleb128 0x31
	.uleb128 0x13
	.uleb128 0x2
	.uleb128 0x17
	.uleb128 0x2137
	.uleb128 0x17
	.byte	0
	.byte	0
	.uleb128 0x3d
	.uleb128 0x2e
	.byte	0x1
	.uleb128 0x3
	.uleb128 0xe
	.uleb128 0x3a
	.uleb128 0x21
	.sleb128 2
	.uleb128 0x3b
	.uleb128 0x5
	.uleb128 0x39
	.uleb128 0xb
	.uleb128 0x3c
	.uleb128 0x19
	.uleb128 0x64
	.uleb128 0x13
	.uleb128 0x1
	.uleb128 0x13
	.byte	0
	.byte	0
	.uleb128 0x3e
	.uleb128 0x2e
	.byte	0x1
	.uleb128 0x31
	.uleb128 0x13
	.uleb128 0x64
	.uleb128 0x13
	.uleb128 0x1
	.uleb128 0x13
	.byte	0
	.byte	0
	.uleb128 0x3f
	.uleb128 0x2
	.byte	0x1
	.uleb128 0x3
	.uleb128 0xe
	.uleb128 0xb
	.uleb128 0xb
	.uleb128 0x3a
	.uleb128 0xb
	.uleb128 0x3b
	.uleb128 0xb
	.uleb128 0x39
	.uleb128 0x21
	.sleb128 11
	.uleb128 0x1
	.uleb128 0x13
	.byte	0
	.byte	0
	.uleb128 0x40
	.uleb128 0x2e
	.byte	0x1
	.uleb128 0x3f
	.uleb128 0x19
	.uleb128 0x3
	.uleb128 0xe
	.uleb128 0x3a
	.uleb128 0xb
	.uleb128 0x3b
	.uleb128 0x5
	.uleb128 0x39
	.uleb128 0xb
	.uleb128 0x6e
	.uleb128 0xe
	.uleb128 0x3c
	.uleb128 0x19
	.uleb128 0x1
	.uleb128 0x13
	.byte	0
	.byte	0
	.uleb128 0x41
	.uleb128 0xd
	.byte	0
	.uleb128 0x3
	.uleb128 0x8
	.uleb128 0x3a
	.uleb128 0xb
	.uleb128 0x3b
	.uleb128 0xb
	.uleb128 0x39
	.uleb128 0xb
	.uleb128 0x49
	.uleb128 0x13
	.uleb128 0x38
	.uleb128 0xb
	.byte	0
	.byte	0
	.uleb128 0x42
	.uleb128 0x2e
	.byte	0x1
	.uleb128 0x3f
	.uleb128 0x19
	.uleb128 0x3
	.uleb128 0xe
	.uleb128 0x3a
	.uleb128 0xb
	.uleb128 0x3b
	.uleb128 0xb
	.uleb128 0x39
	.uleb128 0xb
	.uleb128 0x6e
	.uleb128 0xe
	.uleb128 0x49
	.uleb128 0x13
	.uleb128 0x3c
	.uleb128 0x19
	.uleb128 0x64
	.uleb128 0x13
	.uleb128 0x1
	.uleb128 0x13
	.byte	0
	.byte	0
	.uleb128 0x43
	.uleb128 0x2e
	.byte	0x1
	.uleb128 0x3f
	.uleb128 0x19
	.uleb128 0x3
	.uleb128 0xe
	.uleb128 0x3a
	.uleb128 0xb
	.uleb128 0x3b
	.uleb128 0x5
	.uleb128 0x39
	.uleb128 0x21
	.sleb128 7
	.uleb128 0x6e
	.uleb128 0xe
	.uleb128 0x32
	.uleb128 0x21
	.sleb128 1
	.uleb128 0x3c
	.uleb128 0x19
	.uleb128 0x63
	.uleb128 0x19
	.uleb128 0x64
	.uleb128 0x13
	.uleb128 0x1
	.uleb128 0x13
	.byte	0
	.byte	0
	.uleb128 0x44
	.uleb128 0x2e
	.byte	0x1
	.uleb128 0x3
	.uleb128 0xe
	.uleb128 0x3a
	.uleb128 0xb
	.uleb128 0x3b
	.uleb128 0x5
	.uleb128 0x39
	.uleb128 0xb
	.uleb128 0x49
	.uleb128 0x13
	.uleb128 0x3c
	.uleb128 0x19
	.uleb128 0x1
	.uleb128 0x13
	.byte	0
	.byte	0
	.uleb128 0x45
	.uleb128 0xb
	.byte	0x1
	.byte	0
	.byte	0
	.uleb128 0x46
	.uleb128 0x1c
	.byte	0
	.uleb128 0x49
	.uleb128 0x13
	.uleb128 0x38
	.uleb128 0x21
	.sleb128 0
	.uleb128 0x32
	.uleb128 0xb
	.byte	0
	.byte	0
	.uleb128 0x47
	.uleb128 0x4107
	.byte	0x1
	.uleb128 0x3
	.uleb128 0xe
	.uleb128 0x1
	.uleb128 0x13
	.byte	0
	.byte	0
	.uleb128 0x48
	.uleb128 0x2f
	.byte	0
	.uleb128 0x49
	.uleb128 0x13
	.byte	0
	.byte	0
	.uleb128 0x49
	.uleb128 0x2e
	.byte	0x1
	.uleb128 0x3f
	.uleb128 0x19
	.uleb128 0x3
	.uleb128 0xe
	.uleb128 0x3a
	.uleb128 0xb
	.uleb128 0x3b
	.uleb128 0xb
	.uleb128 0x39
	.uleb128 0xb
	.uleb128 0x6e
	.uleb128 0xe
	.uleb128 0x3c
	.uleb128 0x19
	.uleb128 0x1
	.uleb128 0x13
	.byte	0
	.byte	0
	.uleb128 0x4a
	.uleb128 0xb
	.byte	0x1
	.uleb128 0x55
	.uleb128 0x17
	.byte	0
	.byte	0
	.uleb128 0x4b
	.uleb128 0x2
	.byte	0x1
	.uleb128 0x3
	.uleb128 0xe
	.uleb128 0xb
	.uleb128 0xb
	.uleb128 0x3a
	.uleb128 0xb
	.uleb128 0x3b
	.uleb128 0x5
	.uleb128 0x39
	.uleb128 0x21
	.sleb128 11
	.uleb128 0x1
	.uleb128 0x13
	.byte	0
	.byte	0
	.uleb128 0x4c
	.uleb128 0x2e
	.byte	0x1
	.uleb128 0x3f
	.uleb128 0x19
	.uleb128 0x3
	.uleb128 0x8
	.uleb128 0x3a
	.uleb128 0xb
	.uleb128 0x3b
	.uleb128 0xb
	.uleb128 0x39
	.uleb128 0x21
	.sleb128 3
	.uleb128 0x6e
	.uleb128 0xe
	.uleb128 0x49
	.uleb128 0x13
	.uleb128 0x3c
	.uleb128 0x19
	.uleb128 0x1
	.uleb128 0x13
	.byte	0
	.byte	0
	.uleb128 0x4d
	.uleb128 0x1d
	.byte	0x1
	.uleb128 0x31
	.uleb128 0x13
	.uleb128 0x52
	.uleb128 0x1
	.uleb128 0x2138
	.uleb128 0x5
	.uleb128 0x55
	.uleb128 0x17
	.uleb128 0x58
	.uleb128 0xb
	.uleb128 0x59
	.uleb128 0xb
	.uleb128 0x57
	.uleb128 0xb
	.byte	0
	.byte	0
	.uleb128 0x4e
	.uleb128 0x48
	.byte	0
	.uleb128 0x7d
	.uleb128 0x1
	.uleb128 0x83
	.uleb128 0x18
	.byte	0
	.byte	0
	.uleb128 0x4f
	.uleb128 0x2e
	.byte	0x1
	.uleb128 0x3f
	.uleb128 0x19
	.uleb128 0x3
	.uleb128 0xe
	.uleb128 0x3a
	.uleb128 0xb
	.uleb128 0x3b
	.uleb128 0xb
	.uleb128 0x39
	.uleb128 0xb
	.uleb128 0x6e
	.uleb128 0xe
	.uleb128 0x49
	.uleb128 0x13
	.uleb128 0x32
	.uleb128 0x21
	.sleb128 1
	.uleb128 0x3c
	.uleb128 0x19
	.uleb128 0x8b
	.uleb128 0x21
	.sleb128 1
	.uleb128 0x64
	.uleb128 0x13
	.uleb128 0x1
	.uleb128 0x13
	.byte	0
	.byte	0
	.uleb128 0x50
	.uleb128 0x2e
	.byte	0x1
	.uleb128 0x3f
	.uleb128 0x19
	.uleb128 0x3
	.uleb128 0xe
	.uleb128 0x3a
	.uleb128 0x21
	.sleb128 2
	.uleb128 0x3b
	.uleb128 0x5
	.uleb128 0x39
	.uleb128 0x21
	.sleb128 7
	.uleb128 0x6e
	.uleb128 0xe
	.uleb128 0x3c
	.uleb128 0x19
	.uleb128 0x8b
	.uleb128 0x21
	.sleb128 1
	.uleb128 0x64
	.uleb128 0x13
	.uleb128 0x1
	.uleb128 0x13
	.byte	0
	.byte	0
	.uleb128 0x51
	.uleb128 0xd
	.byte	0
	.uleb128 0x3
	.uleb128 0xe
	.uleb128 0x3a
	.uleb128 0x21
	.sleb128 2
	.uleb128 0x3b
	.uleb128 0x5
	.uleb128 0x39
	.uleb128 0xb
	.uleb128 0x49
	.uleb128 0x13
	.uleb128 0x38
	.uleb128 0xb
	.byte	0
	.byte	0
	.uleb128 0x52
	.uleb128 0x2e
	.byte	0x1
	.uleb128 0x3f
	.uleb128 0x19
	.uleb128 0x3
	.uleb128 0xe
	.uleb128 0x3a
	.uleb128 0x21
	.sleb128 2
	.uleb128 0x3b
	.uleb128 0x5
	.uleb128 0x39
	.uleb128 0x21
	.sleb128 7
	.uleb128 0x6e
	.uleb128 0xe
	.uleb128 0x32
	.uleb128 0x21
	.sleb128 1
	.uleb128 0x3c
	.uleb128 0x19
	.uleb128 0x8b
	.uleb128 0x21
	.sleb128 1
	.uleb128 0x64
	.uleb128 0x13
	.uleb128 0x1
	.uleb128 0x13
	.byte	0
	.byte	0
	.uleb128 0x53
	.uleb128 0x2e
	.byte	0x1
	.uleb128 0x3f
	.uleb128 0x19
	.uleb128 0x3
	.uleb128 0xe
	.uleb128 0x3a
	.uleb128 0x21
	.sleb128 2
	.uleb128 0x3b
	.uleb128 0x5
	.uleb128 0x39
	.uleb128 0x21
	.sleb128 7
	.uleb128 0x6e
	.uleb128 0xe
	.uleb128 0x49
	.uleb128 0x13
	.uleb128 0x32
	.uleb128 0x21
	.sleb128 2
	.uleb128 0x3c
	.uleb128 0x19
	.uleb128 0x1
	.uleb128 0x13
	.byte	0
	.byte	0
	.uleb128 0x54
	.uleb128 0x2e
	.byte	0x1
	.uleb128 0x3
	.uleb128 0xe
	.uleb128 0x3a
	.uleb128 0xb
	.uleb128 0x3b
	.uleb128 0xb
	.uleb128 0x39
	.uleb128 0xb
	.uleb128 0x32
	.uleb128 0x21
	.sleb128 1
	.uleb128 0x3c
	.uleb128 0x19
	.uleb128 0x64
	.uleb128 0x13
	.uleb128 0x1
	.uleb128 0x13
	.byte	0
	.byte	0
	.uleb128 0x55
	.uleb128 0x2e
	.byte	0x1
	.uleb128 0x3
	.uleb128 0xe
	.uleb128 0x3a
	.uleb128 0xb
	.uleb128 0x3b
	.uleb128 0xb
	.uleb128 0x39
	.uleb128 0xb
	.uleb128 0x49
	.uleb128 0x13
	.uleb128 0x32
	.uleb128 0xb
	.uleb128 0x3c
	.uleb128 0x19
	.uleb128 0x64
	.uleb128 0x13
	.uleb128 0x1
	.uleb128 0x13
	.byte	0
	.byte	0
	.uleb128 0x56
	.uleb128 0x2e
	.byte	0x1
	.uleb128 0x3
	.uleb128 0xe
	.uleb128 0x3a
	.uleb128 0x21
	.sleb128 2
	.uleb128 0x3b
	.uleb128 0xb
	.uleb128 0x39
	.uleb128 0x21
	.sleb128 2
	.uleb128 0x3c
	.uleb128 0x19
	.uleb128 0x64
	.uleb128 0x13
	.uleb128 0x1
	.uleb128 0x13
	.byte	0
	.byte	0
	.uleb128 0x57
	.uleb128 0x1d
	.byte	0x1
	.uleb128 0x31
	.uleb128 0x13
	.uleb128 0x52
	.uleb128 0x1
	.uleb128 0x2138
	.uleb128 0x5
	.uleb128 0x55
	.uleb128 0x17
	.uleb128 0x58
	.uleb128 0xb
	.uleb128 0x59
	.uleb128 0x5
	.uleb128 0x57
	.uleb128 0xb
	.uleb128 0x2136
	.uleb128 0xb
	.uleb128 0x1
	.uleb128 0x13
	.byte	0
	.byte	0
	.uleb128 0x58
	.uleb128 0x1d
	.byte	0x1
	.uleb128 0x31
	.uleb128 0x13
	.uleb128 0x52
	.uleb128 0x1
	.uleb128 0x2138
	.uleb128 0x5
	.uleb128 0x11
	.uleb128 0x1
	.uleb128 0x12
	.uleb128 0x7
	.uleb128 0x58
	.uleb128 0x21
	.sleb128 1
	.uleb128 0x59
	.uleb128 0xb
	.uleb128 0x57
	.uleb128 0xb
	.uleb128 0x2136
	.uleb128 0xb
	.uleb128 0x1
	.uleb128 0x13
	.byte	0
	.byte	0
	.uleb128 0x59
	.uleb128 0x1
	.byte	0x1
	.uleb128 0x2107
	.uleb128 0x19
	.uleb128 0x49
	.uleb128 0x13
	.uleb128 0x1
	.uleb128 0x13
	.byte	0
	.byte	0
	.uleb128 0x5a
	.uleb128 0x21
	.byte	0
	.uleb128 0x2f
	.uleb128 0xb
	.byte	0
	.byte	0
	.uleb128 0x5b
	.uleb128 0xb
	.byte	0x1
	.uleb128 0x55
	.uleb128 0x17
	.uleb128 0x1
	.uleb128 0x13
	.byte	0
	.byte	0
	.uleb128 0x5c
	.uleb128 0x34
	.byte	0
	.uleb128 0x3
	.uleb128 0xe
	.uleb128 0x49
	.uleb128 0x13
	.uleb128 0x34
	.uleb128 0x19
	.byte	0
	.byte	0
	.uleb128 0x5d
	.uleb128 0x1d
	.byte	0x1
	.uleb128 0x31
	.uleb128 0x13
	.uleb128 0x52
	.uleb128 0x1
	.uleb128 0x2138
	.uleb128 0x5
	.uleb128 0x55
	.uleb128 0x17
	.uleb128 0x58
	.uleb128 0xb
	.uleb128 0x59
	.uleb128 0x5
	.uleb128 0x57
	.uleb128 0x21
	.sleb128 33
	.uleb128 0x2136
	.uleb128 0xb
	.byte	0
	.byte	0
	.uleb128 0x5e
	.uleb128 0x2e
	.byte	0x1
	.uleb128 0x3f
	.uleb128 0x19
	.uleb128 0x3
	.uleb128 0xe
	.uleb128 0x3a
	.uleb128 0xb
	.uleb128 0x3b
	.uleb128 0x5
	.uleb128 0x39
	.uleb128 0x21
	.sleb128 1
	.uleb128 0x6e
	.uleb128 0xe
	.uleb128 0x49
	.uleb128 0x13
	.uleb128 0x20
	.uleb128 0x21
	.sleb128 3
	.uleb128 0x34
	.uleb128 0x19
	.uleb128 0x1
	.uleb128 0x13
	.byte	0
	.byte	0
	.uleb128 0x5f
	.uleb128 0x13
	.byte	0x1
	.uleb128 0x3
	.uleb128 0xe
	.uleb128 0xb
	.uleb128 0xb
	.uleb128 0x3a
	.uleb128 0xb
	.uleb128 0x3b
	.uleb128 0x5
	.uleb128 0x39
	.uleb128 0xb
	.uleb128 0x1
	.uleb128 0x13
	.byte	0
	.byte	0
	.uleb128 0x60
	.uleb128 0x18
	.byte	0
	.byte	0
	.byte	0
	.uleb128 0x61
	.uleb128 0x2e
	.byte	0x1
	.uleb128 0x3f
	.uleb128 0x19
	.uleb128 0x3
	.uleb128 0xe
	.uleb128 0x3a
	.uleb128 0xb
	.uleb128 0x3b
	.uleb128 0x5
	.uleb128 0x39
	.uleb128 0x21
	.sleb128 13
	.uleb128 0x3c
	.uleb128 0x19
	.uleb128 0x1
	.uleb128 0x13
	.byte	0
	.byte	0
	.uleb128 0x62
	.uleb128 0x34
	.byte	0
	.uleb128 0x3
	.uleb128 0x8
	.uleb128 0x3a
	.uleb128 0xb
	.uleb128 0x3b
	.uleb128 0x5
	.uleb128 0x39
	.uleb128 0xb
	.uleb128 0x49
	.uleb128 0x13
	.byte	0
	.byte	0
	.uleb128 0x63
	.uleb128 0x2e
	.byte	0x1
	.uleb128 0x47
	.uleb128 0x13
	.uleb128 0x3a
	.uleb128 0xb
	.uleb128 0x3b
	.uleb128 0xb
	.uleb128 0x39
	.uleb128 0xb
	.uleb128 0x64
	.uleb128 0x13
	.uleb128 0x20
	.uleb128 0x21
	.sleb128 2
	.uleb128 0x1
	.uleb128 0x13
	.byte	0
	.byte	0
	.uleb128 0x64
	.uleb128 0x2e
	.byte	0x1
	.uleb128 0x3f
	.uleb128 0x19
	.uleb128 0x3
	.uleb128 0xe
	.uleb128 0x3a
	.uleb128 0x21
	.sleb128 2
	.uleb128 0x3b
	.uleb128 0xb
	.uleb128 0x39
	.uleb128 0x21
	.sleb128 2
	.uleb128 0x6e
	.uleb128 0xe
	.uleb128 0x3c
	.uleb128 0x19
	.uleb128 0x64
	.uleb128 0x13
	.byte	0
	.byte	0
	.uleb128 0x65
	.uleb128 0x2f
	.byte	0
	.uleb128 0x3
	.uleb128 0xe
	.uleb128 0x49
	.uleb128 0x13
	.uleb128 0x1e
	.uleb128 0x19
	.byte	0
	.byte	0
	.uleb128 0x66
	.uleb128 0x2e
	.byte	0x1
	.uleb128 0x3
	.uleb128 0xe
	.uleb128 0x3a
	.uleb128 0x21
	.sleb128 2
	.uleb128 0x3b
	.uleb128 0x5
	.uleb128 0x39
	.uleb128 0xb
	.uleb128 0x49
	.uleb128 0x13
	.uleb128 0x3c
	.uleb128 0x19
	.uleb128 0x64
	.uleb128 0x13
	.uleb128 0x1
	.uleb128 0x13
	.byte	0
	.byte	0
	.uleb128 0x67
	.uleb128 0x2e
	.byte	0
	.uleb128 0x3
	.uleb128 0xe
	.uleb128 0x3a
	.uleb128 0x21
	.sleb128 50
	.uleb128 0x3b
	.uleb128 0xb
	.uleb128 0x39
	.uleb128 0x21
	.sleb128 27
	.uleb128 0x49
	.uleb128 0x13
	.uleb128 0x3c
	.uleb128 0x19
	.byte	0
	.byte	0
	.uleb128 0x68
	.uleb128 0xb
	.byte	0x1
	.uleb128 0x31
	.uleb128 0x13
	.uleb128 0x55
	.uleb128 0x17
	.uleb128 0x1
	.uleb128 0x13
	.byte	0
	.byte	0
	.uleb128 0x69
	.uleb128 0x39
	.byte	0x1
	.uleb128 0x3
	.uleb128 0xe
	.uleb128 0x3a
	.uleb128 0xb
	.uleb128 0x3b
	.uleb128 0xb
	.uleb128 0x39
	.uleb128 0xb
	.uleb128 0x1
	.uleb128 0x13
	.byte	0
	.byte	0
	.uleb128 0x6a
	.uleb128 0x2e
	.byte	0x1
	.uleb128 0x3f
	.uleb128 0x19
	.uleb128 0x3
	.uleb128 0xe
	.uleb128 0x3a
	.uleb128 0x21
	.sleb128 5
	.uleb128 0x3b
	.uleb128 0x21
	.sleb128 189
	.uleb128 0x39
	.uleb128 0x21
	.sleb128 7
	.uleb128 0x6e
	.uleb128 0xe
	.uleb128 0x32
	.uleb128 0x21
	.sleb128 1
	.uleb128 0x3c
	.uleb128 0x19
	.uleb128 0x64
	.uleb128 0x13
	.byte	0
	.byte	0
	.uleb128 0x6b
	.uleb128 0x2e
	.byte	0x1
	.uleb128 0x3f
	.uleb128 0x19
	.uleb128 0x3
	.uleb128 0xe
	.uleb128 0x6e
	.uleb128 0xe
	.uleb128 0x34
	.uleb128 0x19
	.uleb128 0x3c
	.uleb128 0x19
	.uleb128 0x64
	.uleb128 0x13
	.byte	0
	.byte	0
	.uleb128 0x6c
	.uleb128 0x2e
	.byte	0
	.uleb128 0x3f
	.uleb128 0x19
	.uleb128 0x3
	.uleb128 0xe
	.uleb128 0x3a
	.uleb128 0x21
	.sleb128 2
	.uleb128 0x3b
	.uleb128 0x21
	.sleb128 515
	.uleb128 0x39
	.uleb128 0x21
	.sleb128 7
	.uleb128 0x6e
	.uleb128 0xe
	.uleb128 0x49
	.uleb128 0x13
	.uleb128 0x3c
	.uleb128 0x19
	.byte	0
	.byte	0
	.uleb128 0x6d
	.uleb128 0x2e
	.byte	0x1
	.uleb128 0x3
	.uleb128 0x8
	.uleb128 0x3a
	.uleb128 0x21
	.sleb128 2
	.uleb128 0x3b
	.uleb128 0x5
	.uleb128 0x39
	.uleb128 0x21
	.sleb128 7
	.uleb128 0x49
	.uleb128 0x13
	.uleb128 0x32
	.uleb128 0x21
	.sleb128 1
	.uleb128 0x3c
	.uleb128 0x19
	.uleb128 0x64
	.uleb128 0x13
	.uleb128 0x1
	.uleb128 0x13
	.byte	0
	.byte	0
	.uleb128 0x6e
	.uleb128 0xd
	.byte	0
	.uleb128 0x3
	.uleb128 0xe
	.uleb128 0x3a
	.uleb128 0x21
	.sleb128 41
	.uleb128 0x3b
	.uleb128 0x21
	.sleb128 0
	.uleb128 0x49
	.uleb128 0x13
	.uleb128 0x38
	.uleb128 0xb
	.byte	0
	.byte	0
	.uleb128 0x6f
	.uleb128 0x13
	.byte	0x1
	.uleb128 0xb
	.uleb128 0xb
	.uleb128 0x3a
	.uleb128 0xb
	.uleb128 0x3b
	.uleb128 0xb
	.uleb128 0x39
	.uleb128 0xb
	.uleb128 0x6e
	.uleb128 0xe
	.uleb128 0x1
	.uleb128 0x13
	.byte	0
	.byte	0
	.uleb128 0x70
	.uleb128 0xd
	.byte	0
	.uleb128 0x3
	.uleb128 0xe
	.uleb128 0x3a
	.uleb128 0x21
	.sleb128 3
	.uleb128 0x3b
	.uleb128 0x21
	.sleb128 1029
	.uleb128 0x39
	.uleb128 0x21
	.sleb128 17
	.uleb128 0x49
	.uleb128 0x13
	.uleb128 0x38
	.uleb128 0x21
	.sleb128 0
	.uleb128 0x32
	.uleb128 0x21
	.sleb128 2
	.byte	0
	.byte	0
	.uleb128 0x71
	.uleb128 0x2e
	.byte	0
	.uleb128 0x3f
	.uleb128 0x19
	.uleb128 0x3
	.uleb128 0xe
	.uleb128 0x3a
	.uleb128 0xb
	.uleb128 0x3b
	.uleb128 0xb
	.uleb128 0x39
	.uleb128 0xb
	.uleb128 0x49
	.uleb128 0x13
	.uleb128 0x3c
	.uleb128 0x19
	.byte	0
	.byte	0
	.uleb128 0x72
	.uleb128 0xb
	.byte	0x1
	.uleb128 0x31
	.uleb128 0x13
	.byte	0
	.byte	0
	.uleb128 0x73
	.uleb128 0x1d
	.byte	0x1
	.uleb128 0x31
	.uleb128 0x13
	.uleb128 0x52
	.uleb128 0x1
	.uleb128 0x2138
	.uleb128 0x5
	.uleb128 0x11
	.uleb128 0x1
	.uleb128 0x12
	.uleb128 0x7
	.uleb128 0x58
	.uleb128 0x21
	.sleb128 2
	.uleb128 0x59
	.uleb128 0x5
	.uleb128 0x57
	.uleb128 0xb
	.uleb128 0x2136
	.uleb128 0xb
	.uleb128 0x1
	.uleb128 0x13
	.byte	0
	.byte	0
	.uleb128 0x74
	.uleb128 0xb
	.byte	0x1
	.uleb128 0x31
	.uleb128 0x13
	.uleb128 0x55
	.uleb128 0x17
	.byte	0
	.byte	0
	.uleb128 0x75
	.uleb128 0x1d
	.byte	0x1
	.uleb128 0x31
	.uleb128 0x13
	.uleb128 0x52
	.uleb128 0x1
	.uleb128 0x2138
	.uleb128 0x5
	.uleb128 0x11
	.uleb128 0x1
	.uleb128 0x12
	.uleb128 0x7
	.uleb128 0x58
	.uleb128 0xb
	.uleb128 0x59
	.uleb128 0xb
	.uleb128 0x57
	.uleb128 0x21
	.sleb128 22
	.uleb128 0x2136
	.uleb128 0xb
	.byte	0
	.byte	0
	.uleb128 0x76
	.uleb128 0xb
	.byte	0x1
	.uleb128 0x31
	.uleb128 0x13
	.uleb128 0x11
	.uleb128 0x1
	.uleb128 0x12
	.uleb128 0x7
	.uleb128 0x1
	.uleb128 0x13
	.byte	0
	.byte	0
	.uleb128 0x77
	.uleb128 0x2e
	.byte	0x1
	.uleb128 0x3f
	.uleb128 0x19
	.uleb128 0x3
	.uleb128 0xe
	.uleb128 0x3a
	.uleb128 0xb
	.uleb128 0x3b
	.uleb128 0xb
	.uleb128 0x39
	.uleb128 0xb
	.uleb128 0x6e
	.uleb128 0xe
	.uleb128 0x3c
	.uleb128 0x19
	.uleb128 0x63
	.uleb128 0x19
	.uleb128 0x64
	.uleb128 0x13
	.uleb128 0x1
	.uleb128 0x13
	.byte	0
	.byte	0
	.uleb128 0x78
	.uleb128 0x39
	.byte	0
	.uleb128 0x3
	.uleb128 0xe
	.uleb128 0x3a
	.uleb128 0xb
	.uleb128 0x3b
	.uleb128 0xb
	.uleb128 0x39
	.uleb128 0xb
	.byte	0
	.byte	0
	.uleb128 0x79
	.uleb128 0x2e
	.byte	0x1
	.uleb128 0x3
	.uleb128 0xe
	.uleb128 0x3a
	.uleb128 0xb
	.uleb128 0x3b
	.uleb128 0x5
	.uleb128 0x39
	.uleb128 0x21
	.sleb128 7
	.uleb128 0x32
	.uleb128 0x21
	.sleb128 1
	.uleb128 0x3c
	.uleb128 0x19
	.uleb128 0x63
	.uleb128 0x19
	.uleb128 0x64
	.uleb128 0x13
	.uleb128 0x1
	.uleb128 0x13
	.byte	0
	.byte	0
	.uleb128 0x7a
	.uleb128 0x1
	.byte	0x1
	.uleb128 0x49
	.uleb128 0x13
	.uleb128 0x1
	.uleb128 0x13
	.byte	0
	.byte	0
	.uleb128 0x7b
	.uleb128 0x21
	.byte	0
	.uleb128 0x49
	.uleb128 0x13
	.uleb128 0x2f
	.uleb128 0xb
	.byte	0
	.byte	0
	.uleb128 0x7c
	.uleb128 0x28
	.byte	0
	.uleb128 0x3
	.uleb128 0xe
	.uleb128 0x1c
	.uleb128 0xb
	.byte	0
	.byte	0
	.uleb128 0x7d
	.uleb128 0x13
	.byte	0
	.uleb128 0x3
	.uleb128 0xe
	.uleb128 0x3c
	.uleb128 0x19
	.byte	0
	.byte	0
	.uleb128 0x7e
	.uleb128 0x16
	.byte	0
	.uleb128 0x3
	.uleb128 0xe
	.uleb128 0x3a
	.uleb128 0xb
	.uleb128 0x3b
	.uleb128 0xb
	.uleb128 0x39
	.uleb128 0xb
	.uleb128 0x49
	.uleb128 0x13
	.uleb128 0x88
	.uleb128 0x21
	.sleb128 1
	.byte	0
	.byte	0
	.uleb128 0x7f
	.uleb128 0x4108
	.byte	0x1
	.uleb128 0x3
	.uleb128 0xe
	.uleb128 0x3a
	.uleb128 0xb
	.uleb128 0x3b
	.uleb128 0xb
	.uleb128 0x39
	.uleb128 0xb
	.byte	0
	.byte	0
	.uleb128 0x80
	.uleb128 0x34
	.byte	0
	.uleb128 0x3
	.uleb128 0x8
	.uleb128 0x3a
	.uleb128 0x21
	.sleb128 1
	.uleb128 0x3b
	.uleb128 0xb
	.uleb128 0x39
	.uleb128 0xb
	.uleb128 0x49
	.uleb128 0x13
	.byte	0
	.byte	0
	.uleb128 0x81
	.uleb128 0xb
	.byte	0x1
	.uleb128 0x11
	.uleb128 0x1
	.uleb128 0x12
	.uleb128 0x7
	.uleb128 0x1
	.uleb128 0x13
	.byte	0
	.byte	0
	.uleb128 0x82
	.uleb128 0x1d
	.byte	0x1
	.uleb128 0x31
	.uleb128 0x13
	.uleb128 0x55
	.uleb128 0x17
	.uleb128 0x58
	.uleb128 0x21
	.sleb128 12
	.uleb128 0x59
	.uleb128 0x21
	.sleb128 492
	.uleb128 0x57
	.uleb128 0x21
	.sleb128 17
	.uleb128 0x1
	.uleb128 0x13
	.byte	0
	.byte	0
	.uleb128 0x83
	.uleb128 0x2e
	.byte	0
	.uleb128 0x3f
	.uleb128 0x19
	.uleb128 0x3c
	.uleb128 0x19
	.uleb128 0x6e
	.uleb128 0xe
	.uleb128 0x3
	.uleb128 0xe
	.byte	0
	.byte	0
	.uleb128 0x84
	.uleb128 0x30
	.byte	0
	.uleb128 0x3
	.uleb128 0x8
	.uleb128 0x49
	.uleb128 0x13
	.uleb128 0x1c
	.uleb128 0xb
	.byte	0
	.byte	0
	.uleb128 0x85
	.uleb128 0x39
	.byte	0
	.uleb128 0x3
	.uleb128 0xe
	.uleb128 0x3a
	.uleb128 0x21
	.sleb128 19
	.uleb128 0x3b
	.uleb128 0x5
	.uleb128 0x39
	.uleb128 0x21
	.sleb128 13
	.byte	0
	.byte	0
	.uleb128 0x86
	.uleb128 0x2e
	.byte	0x1
	.uleb128 0x3f
	.uleb128 0x19
	.uleb128 0x3
	.uleb128 0xe
	.uleb128 0x3a
	.uleb128 0xb
	.uleb128 0x3b
	.uleb128 0xb
	.uleb128 0x39
	.uleb128 0xb
	.uleb128 0x6e
	.uleb128 0xe
	.uleb128 0x87
	.uleb128 0x19
	.uleb128 0x3c
	.uleb128 0x19
	.uleb128 0x1
	.uleb128 0x13
	.byte	0
	.byte	0
	.uleb128 0x87
	.uleb128 0x39
	.byte	0
	.uleb128 0x3
	.uleb128 0xe
	.uleb128 0x3a
	.uleb128 0xb
	.uleb128 0x3b
	.uleb128 0x5
	.uleb128 0x39
	.uleb128 0xb
	.uleb128 0x89
	.uleb128 0x19
	.byte	0
	.byte	0
	.uleb128 0x88
	.uleb128 0x39
	.byte	0
	.uleb128 0x3
	.uleb128 0x8
	.uleb128 0x3a
	.uleb128 0xb
	.uleb128 0x3b
	.uleb128 0xb
	.uleb128 0x39
	.uleb128 0xb
	.uleb128 0x89
	.uleb128 0x19
	.byte	0
	.byte	0
	.uleb128 0x89
	.uleb128 0x2e
	.byte	0x1
	.uleb128 0x3
	.uleb128 0xe
	.uleb128 0x3a
	.uleb128 0xb
	.uleb128 0x3b
	.uleb128 0xb
	.uleb128 0x39
	.uleb128 0xb
	.uleb128 0x49
	.uleb128 0x13
	.uleb128 0x32
	.uleb128 0x21
	.sleb128 1
	.uleb128 0x3c
	.uleb128 0x19
	.uleb128 0x8b
	.uleb128 0x21
	.sleb128 1
	.uleb128 0x64
	.uleb128 0x13
	.uleb128 0x1
	.uleb128 0x13
	.byte	0
	.byte	0
	.uleb128 0x8a
	.uleb128 0x2e
	.byte	0x1
	.uleb128 0x3
	.uleb128 0xe
	.uleb128 0x3a
	.uleb128 0x21
	.sleb128 8
	.uleb128 0x3b
	.uleb128 0x5
	.uleb128 0x39
	.uleb128 0xb
	.uleb128 0x3c
	.uleb128 0x19
	.uleb128 0x1
	.uleb128 0x13
	.byte	0
	.byte	0
	.uleb128 0x8b
	.uleb128 0x2e
	.byte	0x1
	.uleb128 0x3
	.uleb128 0xe
	.uleb128 0x3a
	.uleb128 0x21
	.sleb128 2
	.uleb128 0x3b
	.uleb128 0x5
	.uleb128 0x39
	.uleb128 0x21
	.sleb128 7
	.uleb128 0x3c
	.uleb128 0x19
	.uleb128 0x8b
	.uleb128 0x21
	.sleb128 1
	.uleb128 0x64
	.uleb128 0x13
	.uleb128 0x1
	.uleb128 0x13
	.byte	0
	.byte	0
	.uleb128 0x8c
	.uleb128 0x2e
	.byte	0x1
	.uleb128 0x3
	.uleb128 0xe
	.uleb128 0x3a
	.uleb128 0x21
	.sleb128 2
	.uleb128 0x3b
	.uleb128 0x5
	.uleb128 0x39
	.uleb128 0x21
	.sleb128 7
	.uleb128 0x32
	.uleb128 0x21
	.sleb128 1
	.uleb128 0x3c
	.uleb128 0x19
	.uleb128 0x8b
	.uleb128 0x21
	.sleb128 1
	.uleb128 0x64
	.uleb128 0x13
	.uleb128 0x1
	.uleb128 0x13
	.byte	0
	.byte	0
	.uleb128 0x8d
	.uleb128 0x2e
	.byte	0x1
	.uleb128 0x3
	.uleb128 0xe
	.uleb128 0x3a
	.uleb128 0x21
	.sleb128 2
	.uleb128 0x3b
	.uleb128 0x5
	.uleb128 0x39
	.uleb128 0x21
	.sleb128 7
	.uleb128 0x49
	.uleb128 0x13
	.uleb128 0x32
	.uleb128 0x21
	.sleb128 2
	.uleb128 0x3c
	.uleb128 0x19
	.uleb128 0x1
	.uleb128 0x13
	.byte	0
	.byte	0
	.uleb128 0x8e
	.uleb128 0x2e
	.byte	0x1
	.uleb128 0x3f
	.uleb128 0x19
	.uleb128 0x3
	.uleb128 0x8
	.uleb128 0x3a
	.uleb128 0x21
	.sleb128 36
	.uleb128 0x3b
	.uleb128 0xb
	.uleb128 0x39
	.uleb128 0x21
	.sleb128 7
	.uleb128 0x6e
	.uleb128 0xe
	.uleb128 0x49
	.uleb128 0x13
	.uleb128 0x32
	.uleb128 0x21
	.sleb128 1
	.uleb128 0x3c
	.uleb128 0x19
	.uleb128 0x64
	.uleb128 0x13
	.uleb128 0x1
	.uleb128 0x13
	.byte	0
	.byte	0
	.uleb128 0x8f
	.uleb128 0x2e
	.byte	0x1
	.uleb128 0x3f
	.uleb128 0x19
	.uleb128 0x3
	.uleb128 0xe
	.uleb128 0x3a
	.uleb128 0x21
	.sleb128 12
	.uleb128 0x3b
	.uleb128 0xb
	.uleb128 0x39
	.uleb128 0x21
	.sleb128 2
	.uleb128 0x6e
	.uleb128 0xe
	.uleb128 0x32
	.uleb128 0x21
	.sleb128 3
	.uleb128 0x3c
	.uleb128 0x19
	.uleb128 0x1
	.uleb128 0x13
	.byte	0
	.byte	0
	.uleb128 0x90
	.uleb128 0x2f
	.byte	0
	.uleb128 0x3
	.uleb128 0xe
	.byte	0
	.byte	0
	.uleb128 0x91
	.uleb128 0x2e
	.byte	0
	.uleb128 0x3f
	.uleb128 0x19
	.uleb128 0x3
	.uleb128 0xe
	.uleb128 0x3a
	.uleb128 0x21
	.sleb128 37
	.uleb128 0x3b
	.uleb128 0xb
	.uleb128 0x39
	.uleb128 0x21
	.sleb128 3
	.uleb128 0x6e
	.uleb128 0xe
	.uleb128 0x87
	.uleb128 0x19
	.uleb128 0x3c
	.uleb128 0x19
	.byte	0
	.byte	0
	.uleb128 0x92
	.uleb128 0x2e
	.byte	0x1
	.uleb128 0x3
	.uleb128 0xe
	.uleb128 0x3a
	.uleb128 0xb
	.uleb128 0x3b
	.uleb128 0xb
	.uleb128 0x39
	.uleb128 0xb
	.uleb128 0x49
	.uleb128 0x13
	.uleb128 0x3c
	.uleb128 0x19
	.uleb128 0x1
	.uleb128 0x13
	.byte	0
	.byte	0
	.uleb128 0x93
	.uleb128 0x2e
	.byte	0x1
	.uleb128 0x3
	.uleb128 0xe
	.uleb128 0x3a
	.uleb128 0xb
	.uleb128 0x3b
	.uleb128 0xb
	.uleb128 0x39
	.uleb128 0xb
	.uleb128 0x3c
	.uleb128 0x19
	.uleb128 0x1
	.uleb128 0x13
	.byte	0
	.byte	0
	.uleb128 0x94
	.uleb128 0x2e
	.byte	0x1
	.uleb128 0x3f
	.uleb128 0x19
	.uleb128 0x3
	.uleb128 0xe
	.uleb128 0x3a
	.uleb128 0xb
	.uleb128 0x3b
	.uleb128 0x5
	.uleb128 0x39
	.uleb128 0xb
	.uleb128 0x6e
	.uleb128 0xe
	.uleb128 0x49
	.uleb128 0x13
	.uleb128 0x3c
	.uleb128 0x19
	.byte	0
	.byte	0
	.uleb128 0x95
	.uleb128 0xd
	.byte	0
	.uleb128 0x3
	.uleb128 0xe
	.uleb128 0x3a
	.uleb128 0x21
	.sleb128 43
	.uleb128 0x3b
	.uleb128 0xb
	.uleb128 0x39
	.uleb128 0xb
	.uleb128 0x49
	.uleb128 0x13
	.byte	0
	.byte	0
	.uleb128 0x96
	.uleb128 0x2e
	.byte	0
	.uleb128 0x3f
	.uleb128 0x19
	.uleb128 0x3
	.uleb128 0xe
	.uleb128 0x3a
	.uleb128 0xb
	.uleb128 0x3b
	.uleb128 0x5
	.uleb128 0x39
	.uleb128 0xb
	.uleb128 0x49
	.uleb128 0x13
	.uleb128 0x3c
	.uleb128 0x19
	.byte	0
	.byte	0
	.uleb128 0x97
	.uleb128 0x39
	.byte	0x1
	.uleb128 0x3
	.uleb128 0xe
	.uleb128 0x3a
	.uleb128 0xb
	.uleb128 0x3b
	.uleb128 0x5
	.uleb128 0x39
	.uleb128 0x21
	.sleb128 11
	.uleb128 0x1
	.uleb128 0x13
	.byte	0
	.byte	0
	.uleb128 0x98
	.uleb128 0xd
	.byte	0
	.uleb128 0x3
	.uleb128 0xe
	.uleb128 0x3a
	.uleb128 0x21
	.sleb128 40
	.uleb128 0x3b
	.uleb128 0x5
	.uleb128 0x39
	.uleb128 0xb
	.uleb128 0x49
	.uleb128 0x13
	.uleb128 0x88
	.uleb128 0xb
	.uleb128 0x38
	.uleb128 0xb
	.byte	0
	.byte	0
	.uleb128 0x99
	.uleb128 0x34
	.byte	0
	.uleb128 0x47
	.uleb128 0x13
	.byte	0
	.byte	0
	.uleb128 0x9a
	.uleb128 0x2e
	.byte	0x1
	.uleb128 0x3f
	.uleb128 0x19
	.uleb128 0x3
	.uleb128 0x8
	.uleb128 0x3a
	.uleb128 0x21
	.sleb128 4
	.uleb128 0x3b
	.uleb128 0xb
	.uleb128 0x39
	.uleb128 0xb
	.uleb128 0x6e
	.uleb128 0xe
	.uleb128 0x49
	.uleb128 0x13
	.uleb128 0x3c
	.uleb128 0x19
	.uleb128 0x64
	.uleb128 0x13
	.uleb128 0x1
	.uleb128 0x13
	.byte	0
	.byte	0
	.uleb128 0x9b
	.uleb128 0x5
	.byte	0
	.uleb128 0x3
	.uleb128 0xe
	.uleb128 0x3a
	.uleb128 0x21
	.sleb128 1
	.uleb128 0x3b
	.uleb128 0x21
	.sleb128 34
	.uleb128 0x39
	.uleb128 0xb
	.uleb128 0x49
	.uleb128 0x13
	.uleb128 0x2
	.uleb128 0x17
	.uleb128 0x2137
	.uleb128 0x17
	.byte	0
	.byte	0
	.uleb128 0x9c
	.uleb128 0x34
	.byte	0
	.uleb128 0x3
	.uleb128 0xe
	.uleb128 0x49
	.uleb128 0x13
	.uleb128 0x34
	.uleb128 0x19
	.uleb128 0x2
	.uleb128 0x17
	.uleb128 0x2137
	.uleb128 0x17
	.byte	0
	.byte	0
	.uleb128 0x9d
	.uleb128 0x1d
	.byte	0x1
	.uleb128 0x31
	.uleb128 0x13
	.uleb128 0x52
	.uleb128 0x1
	.uleb128 0x2138
	.uleb128 0x5
	.uleb128 0x55
	.uleb128 0x17
	.uleb128 0x58
	.uleb128 0x21
	.sleb128 2
	.uleb128 0x59
	.uleb128 0xb
	.uleb128 0x57
	.uleb128 0xb
	.uleb128 0x2136
	.uleb128 0x21
	.sleb128 1
	.byte	0
	.byte	0
	.uleb128 0x9e
	.uleb128 0x11
	.byte	0x1
	.uleb128 0x25
	.uleb128 0xe
	.uleb128 0x13
	.uleb128 0xb
	.uleb128 0x90
	.uleb128 0xb
	.uleb128 0x91
	.uleb128 0x6
	.uleb128 0x3
	.uleb128 0x1f
	.uleb128 0x1b
	.uleb128 0x1f
	.uleb128 0x55
	.uleb128 0x17
	.uleb128 0x11
	.uleb128 0x1
	.uleb128 0x10
	.uleb128 0x17
	.byte	0
	.byte	0
	.uleb128 0x9f
	.uleb128 0x24
	.byte	0
	.uleb128 0xb
	.uleb128 0xb
	.uleb128 0x3e
	.uleb128 0xb
	.uleb128 0x3
	.uleb128 0x8
	.byte	0
	.byte	0
	.uleb128 0xa0
	.uleb128 0x39
	.byte	0x1
	.uleb128 0x3
	.uleb128 0x8
	.uleb128 0x3a
	.uleb128 0xb
	.uleb128 0x3b
	.uleb128 0x5
	.uleb128 0x39
	.uleb128 0xb
	.uleb128 0x1
	.uleb128 0x13
	.byte	0
	.byte	0
	.uleb128 0xa1
	.uleb128 0x2e
	.byte	0x1
	.uleb128 0x3f
	.uleb128 0x19
	.uleb128 0x3
	.uleb128 0xe
	.uleb128 0x3a
	.uleb128 0xb
	.uleb128 0x3b
	.uleb128 0xb
	.uleb128 0x39
	.uleb128 0xb
	.uleb128 0x6e
	.uleb128 0xe
	.uleb128 0x49
	.uleb128 0x13
	.uleb128 0x32
	.uleb128 0xb
	.uleb128 0x3c
	.uleb128 0x19
	.uleb128 0x63
	.uleb128 0x19
	.uleb128 0x64
	.uleb128 0x13
	.uleb128 0x1
	.uleb128 0x13
	.byte	0
	.byte	0
	.uleb128 0xa2
	.uleb128 0x2e
	.byte	0x1
	.uleb128 0x3f
	.uleb128 0x19
	.uleb128 0x3
	.uleb128 0xe
	.uleb128 0x3a
	.uleb128 0xb
	.uleb128 0x3b
	.uleb128 0xb
	.uleb128 0x39
	.uleb128 0xb
	.uleb128 0x6e
	.uleb128 0xe
	.uleb128 0x49
	.uleb128 0x13
	.uleb128 0x32
	.uleb128 0xb
	.uleb128 0x3c
	.uleb128 0x19
	.uleb128 0x64
	.uleb128 0x13
	.byte	0
	.byte	0
	.uleb128 0xa3
	.uleb128 0x2e
	.byte	0x1
	.uleb128 0x3f
	.uleb128 0x19
	.uleb128 0x3
	.uleb128 0xe
	.uleb128 0x3a
	.uleb128 0xb
	.uleb128 0x3b
	.uleb128 0x5
	.uleb128 0x39
	.uleb128 0xb
	.uleb128 0x6e
	.uleb128 0xe
	.uleb128 0x3c
	.uleb128 0x19
	.byte	0
	.byte	0
	.uleb128 0xa4
	.uleb128 0x13
	.byte	0
	.uleb128 0x3
	.uleb128 0xe
	.uleb128 0xb
	.uleb128 0xb
	.uleb128 0x3a
	.uleb128 0xb
	.uleb128 0x3b
	.uleb128 0xb
	.uleb128 0x39
	.uleb128 0xb
	.byte	0
	.byte	0
	.uleb128 0xa5
	.uleb128 0x39
	.byte	0
	.uleb128 0x3
	.uleb128 0x8
	.uleb128 0x3a
	.uleb128 0xb
	.uleb128 0x3b
	.uleb128 0xb
	.uleb128 0x39
	.uleb128 0xb
	.byte	0
	.byte	0
	.uleb128 0xa6
	.uleb128 0x39
	.byte	0
	.uleb128 0x3
	.uleb128 0x8
	.uleb128 0x3a
	.uleb128 0xb
	.uleb128 0x3b
	.uleb128 0x5
	.uleb128 0x39
	.uleb128 0xb
	.uleb128 0x89
	.uleb128 0x19
	.byte	0
	.byte	0
	.uleb128 0xa7
	.uleb128 0x3a
	.byte	0
	.uleb128 0x3a
	.uleb128 0xb
	.uleb128 0x3b
	.uleb128 0x5
	.uleb128 0x39
	.uleb128 0xb
	.uleb128 0x18
	.uleb128 0x13
	.byte	0
	.byte	0
	.uleb128 0xa8
	.uleb128 0x39
	.byte	0x1
	.uleb128 0x3
	.uleb128 0xe
	.uleb128 0x3a
	.uleb128 0xb
	.uleb128 0x3b
	.uleb128 0x5
	.uleb128 0x39
	.uleb128 0xb
	.uleb128 0x89
	.uleb128 0x19
	.uleb128 0x1
	.uleb128 0x13
	.byte	0
	.byte	0
	.uleb128 0xa9
	.uleb128 0x39
	.byte	0x1
	.uleb128 0x3
	.uleb128 0xe
	.uleb128 0x3a
	.uleb128 0xb
	.uleb128 0x3b
	.uleb128 0xb
	.uleb128 0x39
	.uleb128 0xb
	.uleb128 0x89
	.uleb128 0x19
	.byte	0
	.byte	0
	.uleb128 0xaa
	.uleb128 0x2e
	.byte	0x1
	.uleb128 0x3
	.uleb128 0xe
	.uleb128 0x3a
	.uleb128 0xb
	.uleb128 0x3b
	.uleb128 0xb
	.uleb128 0x39
	.uleb128 0xb
	.uleb128 0x49
	.uleb128 0x13
	.uleb128 0x3c
	.uleb128 0x19
	.uleb128 0x64
	.uleb128 0x13
	.uleb128 0x1
	.uleb128 0x13
	.byte	0
	.byte	0
	.uleb128 0xab
	.uleb128 0x2e
	.byte	0x1
	.uleb128 0x3
	.uleb128 0xe
	.uleb128 0x3a
	.uleb128 0xb
	.uleb128 0x3b
	.uleb128 0xb
	.uleb128 0x39
	.uleb128 0xb
	.uleb128 0x32
	.uleb128 0xb
	.uleb128 0x3c
	.uleb128 0x19
	.uleb128 0x64
	.uleb128 0x13
	.byte	0
	.byte	0
	.uleb128 0xac
	.uleb128 0x2e
	.byte	0x1
	.uleb128 0x3
	.uleb128 0xe
	.uleb128 0x3a
	.uleb128 0xb
	.uleb128 0x3b
	.uleb128 0x5
	.uleb128 0x39
	.uleb128 0xb
	.uleb128 0x3c
	.uleb128 0x19
	.byte	0
	.byte	0
	.uleb128 0xad
	.uleb128 0x2e
	.byte	0x1
	.uleb128 0x3
	.uleb128 0xe
	.uleb128 0x3a
	.uleb128 0xb
	.uleb128 0x3b
	.uleb128 0xb
	.uleb128 0x39
	.uleb128 0xb
	.uleb128 0x3c
	.uleb128 0x19
	.uleb128 0x64
	.uleb128 0x13
	.byte	0
	.byte	0
	.uleb128 0xae
	.uleb128 0x2e
	.byte	0x1
	.uleb128 0x3
	.uleb128 0xe
	.uleb128 0x34
	.uleb128 0x19
	.uleb128 0x3c
	.uleb128 0x19
	.uleb128 0x64
	.uleb128 0x13
	.byte	0
	.byte	0
	.uleb128 0xaf
	.uleb128 0x2e
	.byte	0
	.uleb128 0x3
	.uleb128 0xe
	.uleb128 0x3a
	.uleb128 0xb
	.uleb128 0x3b
	.uleb128 0x5
	.uleb128 0x39
	.uleb128 0xb
	.uleb128 0x49
	.uleb128 0x13
	.uleb128 0x3c
	.uleb128 0x19
	.byte	0
	.byte	0
	.uleb128 0xb0
	.uleb128 0x2e
	.byte	0x1
	.uleb128 0x3
	.uleb128 0xe
	.uleb128 0x3a
	.uleb128 0xb
	.uleb128 0x3b
	.uleb128 0x5
	.uleb128 0x39
	.uleb128 0xb
	.uleb128 0x32
	.uleb128 0xb
	.uleb128 0x3c
	.uleb128 0x19
	.uleb128 0x64
	.uleb128 0x13
	.byte	0
	.byte	0
	.uleb128 0xb1
	.uleb128 0x34
	.byte	0
	.uleb128 0x3
	.uleb128 0xe
	.uleb128 0x3a
	.uleb128 0xb
	.uleb128 0x3b
	.uleb128 0x5
	.uleb128 0x39
	.uleb128 0xb
	.uleb128 0x49
	.uleb128 0x13
	.uleb128 0x3c
	.uleb128 0x19
	.uleb128 0x1c
	.uleb128 0xb
	.uleb128 0x6c
	.uleb128 0x19
	.uleb128 0x20
	.uleb128 0xb
	.byte	0
	.byte	0
	.uleb128 0xb2
	.uleb128 0x13
	.byte	0x1
	.uleb128 0x3
	.uleb128 0xe
	.uleb128 0xb
	.uleb128 0xb
	.uleb128 0x3a
	.uleb128 0xb
	.uleb128 0x3b
	.uleb128 0xb
	.uleb128 0x1
	.uleb128 0x13
	.byte	0
	.byte	0
	.uleb128 0xb3
	.uleb128 0xf
	.byte	0
	.uleb128 0xb
	.uleb128 0xb
	.byte	0
	.byte	0
	.uleb128 0xb4
	.uleb128 0x17
	.byte	0x1
	.uleb128 0xb
	.uleb128 0xb
	.uleb128 0x3a
	.uleb128 0xb
	.uleb128 0x3b
	.uleb128 0xb
	.uleb128 0x39
	.uleb128 0xb
	.uleb128 0x1
	.uleb128 0x13
	.byte	0
	.byte	0
	.uleb128 0xb5
	.uleb128 0xd
	.byte	0
	.uleb128 0x3
	.uleb128 0xe
	.uleb128 0x3a
	.uleb128 0xb
	.uleb128 0x3b
	.uleb128 0xb
	.uleb128 0x39
	.uleb128 0xb
	.uleb128 0x49
	.uleb128 0x13
	.uleb128 0xd
	.uleb128 0xb
	.uleb128 0x6b
	.uleb128 0x5
	.byte	0
	.byte	0
	.uleb128 0xb6
	.uleb128 0x13
	.byte	0x1
	.uleb128 0x3
	.uleb128 0x8
	.uleb128 0xb
	.uleb128 0xb
	.uleb128 0x3a
	.uleb128 0xb
	.uleb128 0x3b
	.uleb128 0xb
	.uleb128 0x39
	.uleb128 0xb
	.uleb128 0x1
	.uleb128 0x13
	.byte	0
	.byte	0
	.uleb128 0xb7
	.uleb128 0x4
	.byte	0x1
	.uleb128 0x3
	.uleb128 0xe
	.uleb128 0x3e
	.uleb128 0xb
	.uleb128 0xb
	.uleb128 0xb
	.uleb128 0x49
	.uleb128 0x13
	.uleb128 0x3a
	.uleb128 0xb
	.uleb128 0x3b
	.uleb128 0xb
	.uleb128 0x39
	.uleb128 0xb
	.uleb128 0x1
	.uleb128 0x13
	.byte	0
	.byte	0
	.uleb128 0xb8
	.uleb128 0x34
	.byte	0
	.uleb128 0x3
	.uleb128 0xe
	.uleb128 0x3a
	.uleb128 0xb
	.uleb128 0x3b
	.uleb128 0xb
	.uleb128 0x39
	.uleb128 0xb
	.uleb128 0x6e
	.uleb128 0xe
	.uleb128 0x49
	.uleb128 0x13
	.uleb128 0x3f
	.uleb128 0x19
	.uleb128 0x3c
	.uleb128 0x19
	.uleb128 0x1c
	.uleb128 0xb
	.uleb128 0x20
	.uleb128 0xb
	.byte	0
	.byte	0
	.uleb128 0xb9
	.uleb128 0x13
	.byte	0x1
	.uleb128 0xb
	.uleb128 0xb
	.uleb128 0x88
	.uleb128 0xb
	.uleb128 0x3a
	.uleb128 0xb
	.uleb128 0x3b
	.uleb128 0x5
	.uleb128 0x39
	.uleb128 0xb
	.uleb128 0x6e
	.uleb128 0xe
	.uleb128 0x1
	.uleb128 0x13
	.byte	0
	.byte	0
	.uleb128 0xba
	.uleb128 0x16
	.byte	0
	.uleb128 0x3
	.uleb128 0xe
	.uleb128 0x3a
	.uleb128 0xb
	.uleb128 0x3b
	.uleb128 0x5
	.uleb128 0x39
	.uleb128 0xb
	.uleb128 0x49
	.uleb128 0x13
	.uleb128 0x88
	.uleb128 0xb
	.byte	0
	.byte	0
	.uleb128 0xbb
	.uleb128 0x3b
	.byte	0
	.uleb128 0x3
	.uleb128 0xe
	.byte	0
	.byte	0
	.uleb128 0xbc
	.uleb128 0x26
	.byte	0
	.byte	0
	.byte	0
	.uleb128 0xbd
	.uleb128 0x3a
	.byte	0
	.uleb128 0x3a
	.uleb128 0xb
	.uleb128 0x3b
	.uleb128 0xb
	.uleb128 0x39
	.uleb128 0xb
	.uleb128 0x18
	.uleb128 0x13
	.byte	0
	.byte	0
	.uleb128 0xbe
	.uleb128 0x15
	.byte	0x1
	.uleb128 0x49
	.uleb128 0x13
	.uleb128 0x1
	.uleb128 0x13
	.byte	0
	.byte	0
	.uleb128 0xbf
	.uleb128 0x15
	.byte	0
	.byte	0
	.byte	0
	.uleb128 0xc0
	.uleb128 0x2e
	.byte	0x1
	.uleb128 0x3f
	.uleb128 0x19
	.uleb128 0x3
	.uleb128 0x8
	.uleb128 0x3a
	.uleb128 0xb
	.uleb128 0x3b
	.uleb128 0x5
	.uleb128 0x39
	.uleb128 0xb
	.uleb128 0x49
	.uleb128 0x13
	.uleb128 0x3c
	.uleb128 0x19
	.uleb128 0x1
	.uleb128 0x13
	.byte	0
	.byte	0
	.uleb128 0xc1
	.uleb128 0x2e
	.byte	0x1
	.uleb128 0x3f
	.uleb128 0x19
	.uleb128 0x3
	.uleb128 0xe
	.uleb128 0x3a
	.uleb128 0xb
	.uleb128 0x3b
	.uleb128 0x5
	.uleb128 0x39
	.uleb128 0xb
	.uleb128 0x87
	.uleb128 0x19
	.uleb128 0x3c
	.uleb128 0x19
	.uleb128 0x1
	.uleb128 0x13
	.byte	0
	.byte	0
	.uleb128 0xc2
	.uleb128 0x16
	.byte	0
	.uleb128 0x3
	.uleb128 0xe
	.uleb128 0x3a
	.uleb128 0xb
	.uleb128 0x3b
	.uleb128 0xb
	.uleb128 0x39
	.uleb128 0xb
	.byte	0
	.byte	0
	.uleb128 0xc3
	.uleb128 0x8
	.byte	0
	.uleb128 0x3
	.uleb128 0x8
	.uleb128 0x3a
	.uleb128 0xb
	.uleb128 0x3b
	.uleb128 0xb
	.uleb128 0x39
	.uleb128 0xb
	.uleb128 0x18
	.uleb128 0x13
	.byte	0
	.byte	0
	.uleb128 0xc4
	.uleb128 0x2e
	.byte	0x1
	.uleb128 0x3f
	.uleb128 0x19
	.uleb128 0x3
	.uleb128 0xe
	.uleb128 0x6e
	.uleb128 0xe
	.uleb128 0x34
	.uleb128 0x19
	.uleb128 0x3c
	.uleb128 0x19
	.uleb128 0x64
	.uleb128 0x13
	.uleb128 0x1
	.uleb128 0x13
	.byte	0
	.byte	0
	.uleb128 0xc5
	.uleb128 0x39
	.byte	0x1
	.uleb128 0x3
	.uleb128 0xe
	.uleb128 0x3a
	.uleb128 0xb
	.uleb128 0x3b
	.uleb128 0xb
	.uleb128 0x39
	.uleb128 0xb
	.byte	0
	.byte	0
	.uleb128 0xc6
	.uleb128 0x39
	.byte	0x1
	.uleb128 0x89
	.uleb128 0x19
	.uleb128 0x1
	.uleb128 0x13
	.byte	0
	.byte	0
	.uleb128 0xc7
	.uleb128 0x4108
	.byte	0x1
	.uleb128 0x3
	.uleb128 0xe
	.uleb128 0x3a
	.uleb128 0xb
	.uleb128 0x3b
	.uleb128 0x5
	.uleb128 0x39
	.uleb128 0xb
	.uleb128 0x1
	.uleb128 0x13
	.byte	0
	.byte	0
	.uleb128 0xc8
	.uleb128 0x4108
	.byte	0x1
	.uleb128 0x3
	.uleb128 0xe
	.uleb128 0x3a
	.uleb128 0xb
	.uleb128 0x3b
	.uleb128 0x5
	.uleb128 0x39
	.uleb128 0xb
	.byte	0
	.byte	0
	.uleb128 0xc9
	.uleb128 0xb
	.byte	0x1
	.uleb128 0x1
	.uleb128 0x13
	.byte	0
	.byte	0
	.uleb128 0xca
	.uleb128 0x2e
	.byte	0x1
	.uleb128 0x3f
	.uleb128 0x19
	.uleb128 0x3
	.uleb128 0xe
	.uleb128 0x3a
	.uleb128 0xb
	.uleb128 0x3b
	.uleb128 0xb
	.uleb128 0x39
	.uleb128 0xb
	.uleb128 0x6e
	.uleb128 0xe
	.uleb128 0x49
	.uleb128 0x13
	.uleb128 0x55
	.uleb128 0x17
	.uleb128 0x40
	.uleb128 0x18
	.uleb128 0x7a
	.uleb128 0x19
	.uleb128 0x1
	.uleb128 0x13
	.byte	0
	.byte	0
	.uleb128 0xcb
	.uleb128 0x34
	.byte	0
	.uleb128 0x31
	.uleb128 0x13
	.uleb128 0x1c
	.uleb128 0xb
	.byte	0
	.byte	0
	.uleb128 0xcc
	.uleb128 0xb
	.byte	0x1
	.uleb128 0x31
	.uleb128 0x13
	.uleb128 0x11
	.uleb128 0x1
	.uleb128 0x12
	.uleb128 0x7
	.byte	0
	.byte	0
	.uleb128 0xcd
	.uleb128 0x48
	.byte	0
	.uleb128 0x7d
	.uleb128 0x1
	.uleb128 0x7f
	.uleb128 0x13
	.byte	0
	.byte	0
	.uleb128 0xce
	.uleb128 0x48
	.byte	0x1
	.uleb128 0x7d
	.uleb128 0x1
	.uleb128 0x7f
	.uleb128 0x13
	.uleb128 0x1
	.uleb128 0x13
	.byte	0
	.byte	0
	.uleb128 0xcf
	.uleb128 0x2e
	.byte	0x1
	.uleb128 0x3f
	.uleb128 0x19
	.uleb128 0x3
	.uleb128 0xe
	.uleb128 0x3a
	.uleb128 0xb
	.uleb128 0x3b
	.uleb128 0xb
	.uleb128 0x39
	.uleb128 0xb
	.uleb128 0x6e
	.uleb128 0xe
	.uleb128 0x49
	.uleb128 0x13
	.uleb128 0x20
	.uleb128 0xb
	.uleb128 0x34
	.uleb128 0x19
	.uleb128 0x1
	.uleb128 0x13
	.byte	0
	.byte	0
	.uleb128 0xd0
	.uleb128 0x2e
	.byte	0x1
	.uleb128 0x3f
	.uleb128 0x19
	.uleb128 0x3
	.uleb128 0xe
	.uleb128 0x3a
	.uleb128 0xb
	.uleb128 0x3b
	.uleb128 0x5
	.uleb128 0x39
	.uleb128 0xb
	.uleb128 0x6e
	.uleb128 0xe
	.uleb128 0x20
	.uleb128 0xb
	.uleb128 0x34
	.uleb128 0x19
	.uleb128 0x1
	.uleb128 0x13
	.byte	0
	.byte	0
	.uleb128 0xd1
	.uleb128 0x2e
	.byte	0x1
	.uleb128 0x3f
	.uleb128 0x19
	.uleb128 0x3
	.uleb128 0xe
	.uleb128 0x3a
	.uleb128 0xb
	.uleb128 0x3b
	.uleb128 0xb
	.uleb128 0x39
	.uleb128 0xb
	.uleb128 0x6e
	.uleb128 0xe
	.uleb128 0x20
	.uleb128 0xb
	.uleb128 0x1
	.uleb128 0x13
	.byte	0
	.byte	0
	.uleb128 0xd2
	.uleb128 0x2e
	.byte	0x1
	.uleb128 0x3f
	.uleb128 0x19
	.uleb128 0x3
	.uleb128 0xe
	.uleb128 0x3a
	.uleb128 0xb
	.uleb128 0x3b
	.uleb128 0xb
	.uleb128 0x39
	.uleb128 0xb
	.uleb128 0x6e
	.uleb128 0xe
	.uleb128 0x49
	.uleb128 0x13
	.uleb128 0x20
	.uleb128 0xb
	.uleb128 0x1
	.uleb128 0x13
	.byte	0
	.byte	0
	.byte	0
	.section	.debug_loclists,"",@progbits
	.long	.Ldebug_loc3-.Ldebug_loc2
.Ldebug_loc2:
	.value	0x5
	.byte	0x8
	.byte	0
	.long	0
.Ldebug_loc0:
.LVUS1:
	.uleb128 0
	.uleb128 .LVU40
	.uleb128 .LVU40
	.uleb128 .LVU65
	.uleb128 .LVU65
	.uleb128 .LVU1202
	.uleb128 .LVU1202
	.uleb128 .LVU1216
	.uleb128 .LVU1216
	.uleb128 .LVU1237
	.uleb128 .LVU1237
	.uleb128 .LVU1317
	.uleb128 .LVU1317
	.uleb128 0
	.uleb128 0
	.uleb128 .LVU1516
	.uleb128 .LVU1516
	.uleb128 .LVU1518
	.uleb128 .LVU1518
	.uleb128 0
.LLST1:
	.byte	0x6
	.quad	.LVL0
	.byte	0x4
	.uleb128 .LVL0-.LVL0
	.uleb128 .LVL5-.LVL0
	.uleb128 0x1
	.byte	0x54
	.byte	0x4
	.uleb128 .LVL5-.LVL0
	.uleb128 .LVL11-.LVL0
	.uleb128 0x1
	.byte	0x53
	.byte	0x4
	.uleb128 .LVL11-.LVL0
	.uleb128 .LVL208-.LVL0
	.uleb128 0x4
	.byte	0xa3
	.uleb128 0x1
	.byte	0x54
	.byte	0x9f
	.byte	0x4
	.uleb128 .LVL208-.LVL0
	.uleb128 .LVL210-.LVL0
	.uleb128 0x1
	.byte	0x53
	.byte	0x4
	.uleb128 .LVL210-.LVL0
	.uleb128 .LVL217-.LVL0
	.uleb128 0x4
	.byte	0xa3
	.uleb128 0x1
	.byte	0x54
	.byte	0x9f
	.byte	0x4
	.uleb128 .LVL217-.LVL0
	.uleb128 .LVL229-.LVL0
	.uleb128 0x1
	.byte	0x53
	.byte	0x4
	.uleb128 .LVL229-.LVL0
	.uleb128 .LHOTE4-.LVL0
	.uleb128 0x4
	.byte	0xa3
	.uleb128 0x1
	.byte	0x54
	.byte	0x9f
	.byte	0x6
	.quad	.LFSB11707
	.byte	0x4
	.uleb128 .LFSB11707-.LFSB11707
	.uleb128 .LVL285-.LFSB11707
	.uleb128 0x4
	.byte	0xa3
	.uleb128 0x1
	.byte	0x54
	.byte	0x9f
	.byte	0x4
	.uleb128 .LVL285-.LFSB11707
	.uleb128 .LVL286-.LFSB11707
	.uleb128 0x1
	.byte	0x53
	.byte	0x4
	.uleb128 .LVL286-.LFSB11707
	.uleb128 .LFE11707-.LFSB11707
	.uleb128 0x4
	.byte	0xa3
	.uleb128 0x1
	.byte	0x54
	.byte	0x9f
	.byte	0
.LVUS2:
	.uleb128 0
	.uleb128 .LVU13
	.uleb128 .LVU13
	.uleb128 .LVU64
	.uleb128 .LVU64
	.uleb128 .LVU1202
	.uleb128 .LVU1202
	.uleb128 .LVU1216
	.uleb128 .LVU1216
	.uleb128 .LVU1237
	.uleb128 .LVU1237
	.uleb128 .LVU1260
	.uleb128 .LVU1260
	.uleb128 .LVU1317
	.uleb128 .LVU1317
	.uleb128 0
	.uleb128 0
	.uleb128 .LVU1516
	.uleb128 .LVU1516
	.uleb128 .LVU1518
	.uleb128 .LVU1518
	.uleb128 0
.LLST2:
	.byte	0x6
	.quad	.LVL0
	.byte	0x4
	.uleb128 .LVL0-.LVL0
	.uleb128 .LVL2-.LVL0
	.uleb128 0x1
	.byte	0x61
	.byte	0x4
	.uleb128 .LVL2-.LVL0
	.uleb128 .LVL10-.LVL0
	.uleb128 0x1
	.byte	0x65
	.byte	0x4
	.uleb128 .LVL10-.LVL0
	.uleb128 .LVL208-.LVL0
	.uleb128 0x6
	.byte	0xa3
	.uleb128 0x3
	.byte	0xa5
	.uleb128 0x11
	.uleb128 0x30
	.byte	0x9f
	.byte	0x4
	.uleb128 .LVL208-.LVL0
	.uleb128 .LVL210-.LVL0
	.uleb128 0x1
	.byte	0x65
	.byte	0x4
	.uleb128 .LVL210-.LVL0
	.uleb128 .LVL217-.LVL0
	.uleb128 0x6
	.byte	0xa3
	.uleb128 0x3
	.byte	0xa5
	.uleb128 0x11
	.uleb128 0x30
	.byte	0x9f
	.byte	0x4
	.uleb128 .LVL217-.LVL0
	.uleb128 .LVL219-1-.LVL0
	.uleb128 0x1
	.byte	0x65
	.byte	0x4
	.uleb128 .LVL219-1-.LVL0
	.uleb128 .LVL229-.LVL0
	.uleb128 0x3
	.byte	0x77
	.sleb128 184
	.byte	0x4
	.uleb128 .LVL229-.LVL0
	.uleb128 .LHOTE4-.LVL0
	.uleb128 0x6
	.byte	0xa3
	.uleb128 0x3
	.byte	0xa5
	.uleb128 0x11
	.uleb128 0x30
	.byte	0x9f
	.byte	0x6
	.quad	.LFSB11707
	.byte	0x4
	.uleb128 .LFSB11707-.LFSB11707
	.uleb128 .LVL285-.LFSB11707
	.uleb128 0x6
	.byte	0xa3
	.uleb128 0x3
	.byte	0xa5
	.uleb128 0x11
	.uleb128 0x30
	.byte	0x9f
	.byte	0x4
	.uleb128 .LVL285-.LFSB11707
	.uleb128 .LVL286-1-.LFSB11707
	.uleb128 0x1
	.byte	0x65
	.byte	0x4
	.uleb128 .LVL286-1-.LFSB11707
	.uleb128 .LFE11707-.LFSB11707
	.uleb128 0x6
	.byte	0xa3
	.uleb128 0x3
	.byte	0xa5
	.uleb128 0x11
	.uleb128 0x30
	.byte	0x9f
	.byte	0
.LVUS3:
	.uleb128 0
	.uleb128 .LVU17
	.uleb128 .LVU17
	.uleb128 .LVU1200
	.uleb128 .LVU1200
	.uleb128 .LVU1201
	.uleb128 .LVU1201
	.uleb128 .LVU1202
	.uleb128 .LVU1202
	.uleb128 0
	.uleb128 0
	.uleb128 0
.LLST3:
	.byte	0x6
	.quad	.LVL0
	.byte	0x4
	.uleb128 .LVL0-.LVL0
	.uleb128 .LVL3-.LVL0
	.uleb128 0x2
	.byte	0x75
	.sleb128 0
	.byte	0x4
	.uleb128 .LVL3-.LVL0
	.uleb128 .LVL206-.LVL0
	.uleb128 0x3
	.byte	0x77
	.sleb128 40
	.byte	0x6
	.byte	0x4
	.uleb128 .LVL206-.LVL0
	.uleb128 .LVL207-.LVL0
	.uleb128 0x9
	.byte	0x76
	.sleb128 -40
	.byte	0x9
	.byte	0xe0
	.byte	0x1a
	.byte	0x8
	.byte	0xb8
	.byte	0x1c
	.byte	0x6
	.byte	0x4
	.uleb128 .LVL207-.LVL0
	.uleb128 .LVL208-.LVL0
	.uleb128 0x9
	.byte	0x77
	.sleb128 -48
	.byte	0x9
	.byte	0xe0
	.byte	0x1a
	.byte	0x8
	.byte	0xb8
	.byte	0x1c
	.byte	0x6
	.byte	0x4
	.uleb128 .LVL208-.LVL0
	.uleb128 .LHOTE4-.LVL0
	.uleb128 0x3
	.byte	0x77
	.sleb128 40
	.byte	0x6
	.byte	0x8
	.quad	.LFSB11707
	.uleb128 .LCOLDE4-.LFSB11707
	.uleb128 0x3
	.byte	0x77
	.sleb128 40
	.byte	0x6
	.byte	0
.LVUS4:
	.uleb128 .LVU54
	.uleb128 .LVU72
	.uleb128 .LVU72
	.uleb128 .LVU74
	.uleb128 .LVU74
	.uleb128 .LVU75
	.uleb128 .LVU90
	.uleb128 .LVU162
	.uleb128 .LVU162
	.uleb128 .LVU170
	.uleb128 .LVU170
	.uleb128 .LVU183
	.uleb128 .LVU1202
	.uleb128 .LVU1216
	.uleb128 .LVU1304
	.uleb128 .LVU1317
	.uleb128 .LVU1317
	.uleb128 .LVU1365
	.uleb128 .LVU1365
	.uleb128 .LVU1367
	.uleb128 .LVU1367
	.uleb128 .LVU1379
	.uleb128 .LVU1379
	.uleb128 .LVU1381
	.uleb128 .LVU1381
	.uleb128 .LVU1384
	.uleb128 .LVU1430
	.uleb128 .LVU1431
	.uleb128 .LVU1451
	.uleb128 .LVU1469
	.uleb128 .LVU1511
	.uleb128 .LVU1512
	.uleb128 .LVU1514
	.uleb128 .LVU1516
	.uleb128 .LVU1518
	.uleb128 0
.LLST4:
	.byte	0x6
	.quad	.LVL7
	.byte	0x4
	.uleb128 .LVL7-.LVL7
	.uleb128 .LVL14-.LVL7
	.uleb128 0xc
	.byte	0x30
	.byte	0x9f
	.byte	0x93
	.uleb128 0x8
	.byte	0x30
	.byte	0x9f
	.byte	0x93
	.uleb128 0x8
	.byte	0x30
	.byte	0x9f
	.byte	0x93
	.uleb128 0x8
	.byte	0x4
	.uleb128 .LVL14-.LVL7
	.uleb128 .LVL15-.LVL7
	.uleb128 0xa
	.byte	0x50
	.byte	0x93
	.uleb128 0x8
	.byte	0x50
	.byte	0x93
	.uleb128 0x8
	.byte	0x30
	.byte	0x9f
	.byte	0x93
	.uleb128 0x8
	.byte	0x4
	.uleb128 .LVL15-.LVL7
	.uleb128 .LVL16-.LVL7
	.uleb128 0xa
	.byte	0x5c
	.byte	0x93
	.uleb128 0x8
	.byte	0x5c
	.byte	0x93
	.uleb128 0x8
	.byte	0x30
	.byte	0x9f
	.byte	0x93
	.uleb128 0x8
	.byte	0x4
	.uleb128 .LVL19-.LVL7
	.uleb128 .LVL40-.LVL7
	.uleb128 0x7
	.byte	0x77
	.sleb128 96
	.byte	0x93
	.uleb128 0x8
	.byte	0x93
	.uleb128 0x10
	.byte	0x4
	.uleb128 .LVL40-.LVL7
	.uleb128 .LVL42-.LVL7
	.uleb128 0x7
	.byte	0x77
	.sleb128 96
	.byte	0x93
	.uleb128 0x8
	.byte	0x93
	.uleb128 0x10
	.byte	0x4
	.uleb128 .LVL42-.LVL7
	.uleb128 .LVL43-.LVL7
	.uleb128 0x7
	.byte	0x77
	.sleb128 96
	.byte	0x93
	.uleb128 0x8
	.byte	0x93
	.uleb128 0x10
	.byte	0x4
	.uleb128 .LVL208-.LVL7
	.uleb128 .LVL210-.LVL7
	.uleb128 0xc
	.byte	0x30
	.byte	0x9f
	.byte	0x93
	.uleb128 0x8
	.byte	0x30
	.byte	0x9f
	.byte	0x93
	.uleb128 0x8
	.byte	0x30
	.byte	0x9f
	.byte	0x93
	.uleb128 0x8
	.byte	0x4
	.uleb128 .LVL225-.LVL7
	.uleb128 .LVL229-.LVL7
	.uleb128 0xc
	.byte	0x30
	.byte	0x9f
	.byte	0x93
	.uleb128 0x8
	.byte	0x30
	.byte	0x9f
	.byte	0x93
	.uleb128 0x8
	.byte	0x30
	.byte	0x9f
	.byte	0x93
	.uleb128 0x8
	.byte	0x4
	.uleb128 .LVL229-.LVL7
	.uleb128 .LVL238-.LVL7
	.uleb128 0x7
	.byte	0x77
	.sleb128 96
	.byte	0x93
	.uleb128 0x8
	.byte	0x93
	.uleb128 0x10
	.byte	0x4
	.uleb128 .LVL238-.LVL7
	.uleb128 .LVL239-.LVL7
	.uleb128 0x13
	.byte	0x77
	.sleb128 96
	.byte	0x93
	.uleb128 0x8
	.byte	0x77
	.sleb128 168
	.byte	0x6
	.byte	0x7c
	.sleb128 0
	.byte	0x22
	.byte	0x23
	.uleb128 0x30
	.byte	0x9f
	.byte	0x93
	.uleb128 0x8
	.byte	0x93
	.uleb128 0x8
	.byte	0x4
	.uleb128 .LVL239-.LVL7
	.uleb128 .LVL243-.LVL7
	.uleb128 0xa
	.byte	0x77
	.sleb128 96
	.byte	0x93
	.uleb128 0x8
	.byte	0x5c
	.byte	0x93
	.uleb128 0x8
	.byte	0x93
	.uleb128 0x8
	.byte	0x4
	.uleb128 .LVL243-.LVL7
	.uleb128 .LVL244-.LVL7
	.uleb128 0x14
	.byte	0x77
	.sleb128 168
	.byte	0x93
	.uleb128 0x8
	.byte	0x5c
	.byte	0x93
	.uleb128 0x8
	.byte	0x77
	.sleb128 168
	.byte	0x6
	.byte	0x77
	.sleb128 160
	.byte	0x6
	.byte	0x22
	.byte	0x9f
	.byte	0x93
	.uleb128 0x8
	.byte	0x4
	.uleb128 .LVL244-.LVL7
	.uleb128 .LVL247-.LVL7
	.uleb128 0xb
	.byte	0x77
	.sleb128 168
	.byte	0x93
	.uleb128 0x8
	.byte	0x5c
	.byte	0x93
	.uleb128 0x8
	.byte	0x50
	.byte	0x93
	.uleb128 0x8
	.byte	0x4
	.uleb128 .LVL262-.LVL7
	.uleb128 .LVL263-.LVL7
	.uleb128 0x7
	.byte	0x77
	.sleb128 96
	.byte	0x93
	.uleb128 0x8
	.byte	0x93
	.uleb128 0x10
	.byte	0x6
	.quad	.LVL267
	.byte	0x4
	.uleb128 .LVL267-.LVL267
	.uleb128 .LVL269-.LVL267
	.uleb128 0x7
	.byte	0x77
	.sleb128 96
	.byte	0x93
	.uleb128 0x8
	.byte	0x93
	.uleb128 0x10
	.byte	0x4
	.uleb128 .LVL280-.LVL267
	.uleb128 .LVL281-.LVL267
	.uleb128 0x7
	.byte	0x77
	.sleb128 96
	.byte	0x93
	.uleb128 0x8
	.byte	0x93
	.uleb128 0x10
	.byte	0x4
	.uleb128 .LVL283-.LVL267
	.uleb128 .LVL285-.LVL267
	.uleb128 0x7
	.byte	0x77
	.sleb128 96
	.byte	0x93
	.uleb128 0x8
	.byte	0x93
	.uleb128 0x10
	.byte	0x4
	.uleb128 .LVL286-.LVL267
	.uleb128 .LFE11707-.LVL267
	.uleb128 0x7
	.byte	0x77
	.sleb128 96
	.byte	0x93
	.uleb128 0x8
	.byte	0x93
	.uleb128 0x10
	.byte	0
.LVUS108:
	.uleb128 .LVU90
	.uleb128 .LVU162
	.uleb128 .LVU1317
	.uleb128 .LVU1338
	.uleb128 .LVU1338
	.uleb128 .LVU1384
	.uleb128 .LVU1430
	.uleb128 .LVU1431
	.uleb128 .LVU1518
	.uleb128 .LVU1520
.LLST108:
	.byte	0x6
	.quad	.LVL19
	.byte	0x4
	.uleb128 .LVL19-.LVL19
	.uleb128 .LVL40-.LVL19
	.uleb128 0x1
	.byte	0x52
	.byte	0x4
	.uleb128 .LVL229-.LVL19
	.uleb128 .LVL233-1-.LVL19
	.uleb128 0x1
	.byte	0x52
	.byte	0x4
	.uleb128 .LVL233-1-.LVL19
	.uleb128 .LVL247-.LVL19
	.uleb128 0x3
	.byte	0x77
	.sleb128 72
	.byte	0x4
	.uleb128 .LVL262-.LVL19
	.uleb128 .LVL263-.LVL19
	.uleb128 0x3
	.byte	0x77
	.sleb128 72
	.byte	0x8
	.quad	.LVL286
	.uleb128 .LVL287-1-.LVL286
	.uleb128 0x1
	.byte	0x52
	.byte	0
.LVUS109:
	.uleb128 .LVU79
	.uleb128 .LVU1202
	.uleb128 .LVU1206
	.uleb128 .LVU1216
	.uleb128 .LVU1216
	.uleb128 .LVU1237
	.uleb128 .LVU1317
	.uleb128 .LVU1428
	.uleb128 .LVU1429
	.uleb128 0
	.uleb128 0
	.uleb128 .LVU1469
	.uleb128 .LVU1489
	.uleb128 .LVU1512
	.uleb128 .LVU1514
	.uleb128 .LVU1516
	.uleb128 .LVU1518
	.uleb128 0
.LLST109:
	.byte	0x6
	.quad	.LVL17
	.byte	0x4
	.uleb128 .LVL17-.LVL17
	.uleb128 .LVL208-.LVL17
	.uleb128 0x4
	.byte	0xa3
	.uleb128 0x1
	.byte	0x54
	.byte	0x9f
	.byte	0x4
	.uleb128 .LVL209-.LVL17
	.uleb128 .LVL210-.LVL17
	.uleb128 0x1
	.byte	0x53
	.byte	0x4
	.uleb128 .LVL210-.LVL17
	.uleb128 .LVL217-.LVL17
	.uleb128 0x4
	.byte	0xa3
	.uleb128 0x1
	.byte	0x54
	.byte	0x9f
	.byte	0x4
	.uleb128 .LVL229-.LVL17
	.uleb128 .LVL260-.LVL17
	.uleb128 0x4
	.byte	0xa3
	.uleb128 0x1
	.byte	0x54
	.byte	0x9f
	.byte	0x4
	.uleb128 .LVL261-.LVL17
	.uleb128 .LHOTE4-.LVL17
	.uleb128 0x4
	.byte	0xa3
	.uleb128 0x1
	.byte	0x54
	.byte	0x9f
	.byte	0x6
	.quad	.LFSB11707
	.byte	0x4
	.uleb128 .LFSB11707-.LFSB11707
	.uleb128 .LVL269-.LFSB11707
	.uleb128 0x4
	.byte	0xa3
	.uleb128 0x1
	.byte	0x54
	.byte	0x9f
	.byte	0x4
	.uleb128 .LVL273-.LFSB11707
	.uleb128 .LVL281-.LFSB11707
	.uleb128 0x4
	.byte	0xa3
	.uleb128 0x1
	.byte	0x54
	.byte	0x9f
	.byte	0x4
	.uleb128 .LVL283-.LFSB11707
	.uleb128 .LVL285-.LFSB11707
	.uleb128 0x4
	.byte	0xa3
	.uleb128 0x1
	.byte	0x54
	.byte	0x9f
	.byte	0x4
	.uleb128 .LVL286-.LFSB11707
	.uleb128 .LFE11707-.LFSB11707
	.uleb128 0x4
	.byte	0xa3
	.uleb128 0x1
	.byte	0x54
	.byte	0x9f
	.byte	0
.LVUS117:
	.uleb128 .LVU103
	.uleb128 .LVU109
	.uleb128 .LVU109
	.uleb128 .LVU112
	.uleb128 .LVU112
	.uleb128 .LVU113
	.uleb128 .LVU113
	.uleb128 .LVU114
	.uleb128 .LVU114
	.uleb128 .LVU115
	.uleb128 .LVU115
	.uleb128 .LVU120
	.uleb128 .LVU120
	.uleb128 .LVU125
	.uleb128 .LVU125
	.uleb128 .LVU142
	.uleb128 .LVU142
	.uleb128 .LVU143
	.uleb128 .LVU143
	.uleb128 .LVU145
	.uleb128 .LVU145
	.uleb128 .LVU146
	.uleb128 .LVU146
	.uleb128 .LVU148
	.uleb128 .LVU148
	.uleb128 .LVU149
	.uleb128 .LVU149
	.uleb128 .LVU150
	.uleb128 .LVU150
	.uleb128 .LVU153
	.uleb128 .LVU153
	.uleb128 .LVU162
	.uleb128 .LVU1317
	.uleb128 .LVU1338
	.uleb128 .LVU1338
	.uleb128 .LVU1363
	.uleb128 .LVU1363
	.uleb128 .LVU1384
	.uleb128 .LVU1430
	.uleb128 .LVU1431
	.uleb128 .LVU1518
	.uleb128 .LVU1520
	.uleb128 .LVU1520
	.uleb128 .LVU1521
.LLST117:
	.byte	0x6
	.quad	.LVL23
	.byte	0x4
	.uleb128 .LVL23-.LVL23
	.uleb128 .LVL25-.LVL23
	.uleb128 0x5
	.byte	0x5a
	.byte	0x93
	.uleb128 0x4
	.byte	0x93
	.uleb128 0x2c
	.byte	0x4
	.uleb128 .LVL25-.LVL23
	.uleb128 .LVL25-.LVL23
	.uleb128 0x8
	.byte	0x5a
	.byte	0x93
	.uleb128 0x4
	.byte	0x58
	.byte	0x93
	.uleb128 0x4
	.byte	0x93
	.uleb128 0x28
	.byte	0x4
	.uleb128 .LVL25-.LVL23
	.uleb128 .LVL25-.LVL23
	.uleb128 0x2a
	.byte	0x5a
	.byte	0x93
	.uleb128 0x4
	.byte	0x58
	.byte	0x93
	.uleb128 0x4
	.byte	0xa5
	.uleb128 0x11
	.uleb128 0x30
	.byte	0xa4
	.uleb128 0x30
	.byte	0x4
	.long	0x3f800000
	.byte	0x22
	.byte	0xa5
	.uleb128 0x14
	.uleb128 0x30
	.byte	0x1c
	.byte	0xa5
	.uleb128 0x12
	.uleb128 0x30
	.byte	0xa4
	.uleb128 0x30
	.byte	0x4
	.long	0x3f800000
	.byte	0x22
	.byte	0xa5
	.uleb128 0x13
	.uleb128 0x30
	.byte	0x1c
	.byte	0x1e
	.byte	0x9f
	.byte	0x93
	.uleb128 0x4
	.byte	0x93
	.uleb128 0x24
	.byte	0x4
	.uleb128 .LVL25-.LVL23
	.uleb128 .LVL25-.LVL23
	.uleb128 0x44
	.byte	0x5a
	.byte	0x93
	.uleb128 0x4
	.byte	0x58
	.byte	0x93
	.uleb128 0x4
	.byte	0xa5
	.uleb128 0x11
	.uleb128 0x30
	.byte	0xa4
	.uleb128 0x30
	.byte	0x4
	.long	0x3f800000
	.byte	0x22
	.byte	0xa5
	.uleb128 0x14
	.uleb128 0x30
	.byte	0x1c
	.byte	0xa5
	.uleb128 0x12
	.uleb128 0x30
	.byte	0xa4
	.uleb128 0x30
	.byte	0x4
	.long	0x3f800000
	.byte	0x22
	.byte	0xa5
	.uleb128 0x13
	.uleb128 0x30
	.byte	0x1c
	.byte	0x1e
	.byte	0x9f
	.byte	0x93
	.uleb128 0x4
	.byte	0xa5
	.uleb128 0x12
	.uleb128 0x30
	.byte	0xa4
	.uleb128 0x30
	.byte	0x4
	.long	0x3f800000
	.byte	0x22
	.byte	0xa5
	.uleb128 0x13
	.uleb128 0x30
	.byte	0x1c
	.byte	0xa5
	.uleb128 0x14
	.uleb128 0x30
	.byte	0xa5
	.uleb128 0x11
	.uleb128 0x30
	.byte	0x1c
	.byte	0x1e
	.byte	0x9f
	.byte	0x93
	.uleb128 0x4
	.byte	0x93
	.uleb128 0x20
	.byte	0x4
	.uleb128 .LVL25-.LVL23
	.uleb128 .LVL25-.LVL23
	.uleb128 0x5e
	.byte	0x5a
	.byte	0x93
	.uleb128 0x4
	.byte	0x58
	.byte	0x93
	.uleb128 0x4
	.byte	0xa5
	.uleb128 0x11
	.uleb128 0x30
	.byte	0xa4
	.uleb128 0x30
	.byte	0x4
	.long	0x3f800000
	.byte	0x22
	.byte	0xa5
	.uleb128 0x14
	.uleb128 0x30
	.byte	0x1c
	.byte	0xa5
	.uleb128 0x12
	.uleb128 0x30
	.byte	0xa4
	.uleb128 0x30
	.byte	0x4
	.long	0x3f800000
	.byte	0x22
	.byte	0xa5
	.uleb128 0x13
	.uleb128 0x30
	.byte	0x1c
	.byte	0x1e
	.byte	0x9f
	.byte	0x93
	.uleb128 0x4
	.byte	0xa5
	.uleb128 0x12
	.uleb128 0x30
	.byte	0xa4
	.uleb128 0x30
	.byte	0x4
	.long	0x3f800000
	.byte	0x22
	.byte	0xa5
	.uleb128 0x13
	.uleb128 0x30
	.byte	0x1c
	.byte	0xa5
	.uleb128 0x14
	.uleb128 0x30
	.byte	0xa5
	.uleb128 0x11
	.uleb128 0x30
	.byte	0x1c
	.byte	0x1e
	.byte	0x9f
	.byte	0x93
	.uleb128 0x4
	.byte	0xa5
	.uleb128 0x11
	.uleb128 0x30
	.byte	0xa4
	.uleb128 0x30
	.byte	0x4
	.long	0x3f800000
	.byte	0x22
	.byte	0xa5
	.uleb128 0x14
	.uleb128 0x30
	.byte	0x1c
	.byte	0xa5
	.uleb128 0x13
	.uleb128 0x30
	.byte	0xa5
	.uleb128 0x12
	.uleb128 0x30
	.byte	0x1c
	.byte	0x1e
	.byte	0x9f
	.byte	0x93
	.uleb128 0x4
	.byte	0x93
	.uleb128 0x1c
	.byte	0x4
	.uleb128 .LVL25-.LVL23
	.uleb128 .LVL26-.LVL23
	.uleb128 0x70
	.byte	0x5a
	.byte	0x93
	.uleb128 0x4
	.byte	0x58
	.byte	0x93
	.uleb128 0x4
	.byte	0xa5
	.uleb128 0x11
	.uleb128 0x30
	.byte	0xa4
	.uleb128 0x30
	.byte	0x4
	.long	0x3f800000
	.byte	0x22
	.byte	0xa5
	.uleb128 0x14
	.uleb128 0x30
	.byte	0x1c
	.byte	0xa5
	.uleb128 0x12
	.uleb128 0x30
	.byte	0xa4
	.uleb128 0x30
	.byte	0x4
	.long	0x3f800000
	.byte	0x22
	.byte	0xa5
	.uleb128 0x13
	.uleb128 0x30
	.byte	0x1c
	.byte	0x1e
	.byte	0x9f
	.byte	0x93
	.uleb128 0x4
	.byte	0xa5
	.uleb128 0x12
	.uleb128 0x30
	.byte	0xa4
	.uleb128 0x30
	.byte	0x4
	.long	0x3f800000
	.byte	0x22
	.byte	0xa5
	.uleb128 0x13
	.uleb128 0x30
	.byte	0x1c
	.byte	0xa5
	.uleb128 0x14
	.uleb128 0x30
	.byte	0xa5
	.uleb128 0x11
	.uleb128 0x30
	.byte	0x1c
	.byte	0x1e
	.byte	0x9f
	.byte	0x93
	.uleb128 0x4
	.byte	0xa5
	.uleb128 0x11
	.uleb128 0x30
	.byte	0xa4
	.uleb128 0x30
	.byte	0x4
	.long	0x3f800000
	.byte	0x22
	.byte	0xa5
	.uleb128 0x14
	.uleb128 0x30
	.byte	0x1c
	.byte	0xa5
	.uleb128 0x13
	.uleb128 0x30
	.byte	0xa5
	.uleb128 0x12
	.uleb128 0x30
	.byte	0x1c
	.byte	0x1e
	.byte	0x9f
	.byte	0x93
	.uleb128 0x4
	.byte	0xa5
	.uleb128 0x14
	.uleb128 0x30
	.byte	0xa5
	.uleb128 0x11
	.uleb128 0x30
	.byte	0x1c
	.byte	0xa5
	.uleb128 0x13
	.uleb128 0x30
	.byte	0xa5
	.uleb128 0x12
	.uleb128 0x30
	.byte	0x1c
	.byte	0x1e
	.byte	0x9f
	.byte	0x93
	.uleb128 0x4
	.byte	0x93
	.uleb128 0x18
	.byte	0x4
	.uleb128 .LVL26-.LVL23
	.uleb128 .LVL27-.LVL23
	.uleb128 0x73
	.byte	0x5a
	.byte	0x93
	.uleb128 0x4
	.byte	0x58
	.byte	0x93
	.uleb128 0x4
	.byte	0xa5
	.uleb128 0x11
	.uleb128 0x30
	.byte	0xa4
	.uleb128 0x30
	.byte	0x4
	.long	0x3f800000
	.byte	0x22
	.byte	0xa5
	.uleb128 0x14
	.uleb128 0x30
	.byte	0x1c
	.byte	0xa5
	.uleb128 0x12
	.uleb128 0x30
	.byte	0xa4
	.uleb128 0x30
	.byte	0x4
	.long	0x3f800000
	.byte	0x22
	.byte	0xa5
	.uleb128 0x13
	.uleb128 0x30
	.byte	0x1c
	.byte	0x1e
	.byte	0x9f
	.byte	0x93
	.uleb128 0x4
	.byte	0xa5
	.uleb128 0x12
	.uleb128 0x30
	.byte	0xa4
	.uleb128 0x30
	.byte	0x4
	.long	0x3f800000
	.byte	0x22
	.byte	0xa5
	.uleb128 0x13
	.uleb128 0x30
	.byte	0x1c
	.byte	0xa5
	.uleb128 0x14
	.uleb128 0x30
	.byte	0xa5
	.uleb128 0x11
	.uleb128 0x30
	.byte	0x1c
	.byte	0x1e
	.byte	0x9f
	.byte	0x93
	.uleb128 0x4
	.byte	0xa5
	.uleb128 0x11
	.uleb128 0x30
	.byte	0xa4
	.uleb128 0x30
	.byte	0x4
	.long	0x3f800000
	.byte	0x22
	.byte	0xa5
	.uleb128 0x14
	.uleb128 0x30
	.byte	0x1c
	.byte	0xa5
	.uleb128 0x13
	.uleb128 0x30
	.byte	0xa5
	.uleb128 0x12
	.uleb128 0x30
	.byte	0x1c
	.byte	0x1e
	.byte	0x9f
	.byte	0x93
	.uleb128 0x4
	.byte	0xa5
	.uleb128 0x14
	.uleb128 0x30
	.byte	0xa5
	.uleb128 0x11
	.uleb128 0x30
	.byte	0x1c
	.byte	0xa5
	.uleb128 0x13
	.uleb128 0x30
	.byte	0xa5
	.uleb128 0x12
	.uleb128 0x30
	.byte	0x1c
	.byte	0x1e
	.byte	0x9f
	.byte	0x93
	.uleb128 0x4
	.byte	0x54
	.byte	0x93
	.uleb128 0x4
	.byte	0x93
	.uleb128 0x14
	.byte	0x4
	.uleb128 .LVL27-.LVL23
	.uleb128 .LVL30-.LVL23
	.uleb128 0x76
	.byte	0x5a
	.byte	0x93
	.uleb128 0x4
	.byte	0x58
	.byte	0x93
	.uleb128 0x4
	.byte	0xa5
	.uleb128 0x11
	.uleb128 0x30
	.byte	0xa4
	.uleb128 0x30
	.byte	0x4
	.long	0x3f800000
	.byte	0x22
	.byte	0xa5
	.uleb128 0x14
	.uleb128 0x30
	.byte	0x1c
	.byte	0xa5
	.uleb128 0x12
	.uleb128 0x30
	.byte	0xa4
	.uleb128 0x30
	.byte	0x4
	.long	0x3f800000
	.byte	0x22
	.byte	0xa5
	.uleb128 0x13
	.uleb128 0x30
	.byte	0x1c
	.byte	0x1e
	.byte	0x9f
	.byte	0x93
	.uleb128 0x4
	.byte	0xa5
	.uleb128 0x12
	.uleb128 0x30
	.byte	0xa4
	.uleb128 0x30
	.byte	0x4
	.long	0x3f800000
	.byte	0x22
	.byte	0xa5
	.uleb128 0x13
	.uleb128 0x30
	.byte	0x1c
	.byte	0xa5
	.uleb128 0x14
	.uleb128 0x30
	.byte	0xa5
	.uleb128 0x11
	.uleb128 0x30
	.byte	0x1c
	.byte	0x1e
	.byte	0x9f
	.byte	0x93
	.uleb128 0x4
	.byte	0xa5
	.uleb128 0x11
	.uleb128 0x30
	.byte	0xa4
	.uleb128 0x30
	.byte	0x4
	.long	0x3f800000
	.byte	0x22
	.byte	0xa5
	.uleb128 0x14
	.uleb128 0x30
	.byte	0x1c
	.byte	0xa5
	.uleb128 0x13
	.uleb128 0x30
	.byte	0xa5
	.uleb128 0x12
	.uleb128 0x30
	.byte	0x1c
	.byte	0x1e
	.byte	0x9f
	.byte	0x93
	.uleb128 0x4
	.byte	0xa5
	.uleb128 0x14
	.uleb128 0x30
	.byte	0xa5
	.uleb128 0x11
	.uleb128 0x30
	.byte	0x1c
	.byte	0xa5
	.uleb128 0x13
	.uleb128 0x30
	.byte	0xa5
	.uleb128 0x12
	.uleb128 0x30
	.byte	0x1c
	.byte	0x1e
	.byte	0x9f
	.byte	0x93
	.uleb128 0x4
	.byte	0x54
	.byte	0x93
	.uleb128 0x4
	.byte	0x53
	.byte	0x93
	.uleb128 0x4
	.byte	0x93
	.uleb128 0x10
	.byte	0x4
	.uleb128 .LVL30-.LVL23
	.uleb128 .LVL31-.LVL23
	.uleb128 0x6e
	.byte	0x5a
	.byte	0x93
	.uleb128 0x4
	.byte	0x58
	.byte	0x93
	.uleb128 0x4
	.byte	0xa5
	.uleb128 0x11
	.uleb128 0x30
	.byte	0xa4
	.uleb128 0x30
	.byte	0x4
	.long	0x3f800000
	.byte	0x22
	.byte	0xa5
	.uleb128 0x14
	.uleb128 0x30
	.byte	0x1c
	.byte	0xa5
	.uleb128 0x12
	.uleb128 0x30
	.byte	0xa4
	.uleb128 0x30
	.byte	0x4
	.long	0x3f800000
	.byte	0x22
	.byte	0xa5
	.uleb128 0x13
	.uleb128 0x30
	.byte	0x1c
	.byte	0x1e
	.byte	0x9f
	.byte	0x93
	.uleb128 0x4
	.byte	0xa5
	.uleb128 0x12
	.uleb128 0x30
	.byte	0xa4
	.uleb128 0x30
	.byte	0x4
	.long	0x3f800000
	.byte	0x22
	.byte	0xa5
	.uleb128 0x13
	.uleb128 0x30
	.byte	0x1c
	.byte	0xa5
	.uleb128 0x14
	.uleb128 0x30
	.byte	0xa5
	.uleb128 0x11
	.uleb128 0x30
	.byte	0x1c
	.byte	0x1e
	.byte	0x9f
	.byte	0x93
	.uleb128 0x4
	.byte	0xa5
	.uleb128 0x11
	.uleb128 0x30
	.byte	0xa4
	.uleb128 0x30
	.byte	0x4
	.long	0x3f800000
	.byte	0x22
	.byte	0xa5
	.uleb128 0x14
	.uleb128 0x30
	.byte	0x1c
	.byte	0xa5
	.uleb128 0x17
	.uleb128 0x30
	.byte	0x1e
	.byte	0x9f
	.byte	0x93
	.uleb128 0x4
	.byte	0xa5
	.uleb128 0x14
	.uleb128 0x30
	.byte	0xa5
	.uleb128 0x11
	.uleb128 0x30
	.byte	0x1c
	.byte	0xa5
	.uleb128 0x17
	.uleb128 0x30
	.byte	0x1e
	.byte	0x9f
	.byte	0x93
	.uleb128 0x4
	.byte	0x54
	.byte	0x93
	.uleb128 0x4
	.byte	0x53
	.byte	0x93
	.uleb128 0x4
	.byte	0x93
	.uleb128 0x10
	.byte	0x4
	.uleb128 .LVL31-.LVL23
	.uleb128 .LVL32-.LVL23
	.uleb128 0x66
	.byte	0x5a
	.byte	0x93
	.uleb128 0x4
	.byte	0x58
	.byte	0x93
	.uleb128 0x4
	.byte	0xa5
	.uleb128 0x11
	.uleb128 0x30
	.byte	0xa4
	.uleb128 0x30
	.byte	0x4
	.long	0x3f800000
	.byte	0x22
	.byte	0xa5
	.uleb128 0x14
	.uleb128 0x30
	.byte	0x1c
	.byte	0xa5
	.uleb128 0x12
	.uleb128 0x30
	.byte	0xa4
	.uleb128 0x30
	.byte	0x4
	.long	0x3f800000
	.byte	0x22
	.byte	0xa5
	.uleb128 0x13
	.uleb128 0x30
	.byte	0x1c
	.byte	0x1e
	.byte	0x9f
	.byte	0x93
	.uleb128 0x4
	.byte	0xa5
	.uleb128 0x12
	.uleb128 0x30
	.byte	0xa4
	.uleb128 0x30
	.byte	0x4
	.long	0x3f800000
	.byte	0x22
	.byte	0xa5
	.uleb128 0x13
	.uleb128 0x30
	.byte	0x1c
	.byte	0xa5
	.uleb128 0x16
	.uleb128 0x30
	.byte	0x1e
	.byte	0x9f
	.byte	0x93
	.uleb128 0x4
	.byte	0xa5
	.uleb128 0x11
	.uleb128 0x30
	.byte	0xa4
	.uleb128 0x30
	.byte	0x4
	.long	0x3f800000
	.byte	0x22
	.byte	0xa5
	.uleb128 0x14
	.uleb128 0x30
	.byte	0x1c
	.byte	0xa5
	.uleb128 0x17
	.uleb128 0x30
	.byte	0x1e
	.byte	0x9f
	.byte	0x93
	.uleb128 0x4
	.byte	0xa5
	.uleb128 0x16
	.uleb128 0x30
	.byte	0xa5
	.uleb128 0x17
	.uleb128 0x30
	.byte	0x1e
	.byte	0x9f
	.byte	0x93
	.uleb128 0x4
	.byte	0x54
	.byte	0x93
	.uleb128 0x4
	.byte	0x53
	.byte	0x93
	.uleb128 0x4
	.byte	0x93
	.uleb128 0x10
	.byte	0x4
	.uleb128 .LVL32-.LVL23
	.uleb128 .LVL33-.LVL23
	.uleb128 0x56
	.byte	0x5a
	.byte	0x93
	.uleb128 0x4
	.byte	0x58
	.byte	0x93
	.uleb128 0x4
	.byte	0xa5
	.uleb128 0x11
	.uleb128 0x30
	.byte	0xa5
	.uleb128 0x14
	.uleb128 0x30
	.byte	0x1c
	.byte	0xa5
	.uleb128 0x12
	.uleb128 0x30
	.byte	0xa4
	.uleb128 0x30
	.byte	0x4
	.long	0x3f800000
	.byte	0x22
	.byte	0xa5
	.uleb128 0x13
	.uleb128 0x30
	.byte	0x1c
	.byte	0x1e
	.byte	0x9f
	.byte	0x93
	.uleb128 0x4
	.byte	0xa5
	.uleb128 0x12
	.uleb128 0x30
	.byte	0xa4
	.uleb128 0x30
	.byte	0x4
	.long	0x3f800000
	.byte	0x22
	.byte	0xa5
	.uleb128 0x13
	.uleb128 0x30
	.byte	0x1c
	.byte	0xa5
	.uleb128 0x16
	.uleb128 0x30
	.byte	0x1e
	.byte	0x9f
	.byte	0x93
	.uleb128 0x4
	.byte	0xa5
	.uleb128 0x11
	.uleb128 0x30
	.byte	0xa5
	.uleb128 0x14
	.uleb128 0x30
	.byte	0x1c
	.byte	0xa5
	.uleb128 0x17
	.uleb128 0x30
	.byte	0x1e
	.byte	0x9f
	.byte	0x93
	.uleb128 0x4
	.byte	0xa5
	.uleb128 0x16
	.uleb128 0x30
	.byte	0xa5
	.uleb128 0x17
	.uleb128 0x30
	.byte	0x1e
	.byte	0x9f
	.byte	0x93
	.uleb128 0x4
	.byte	0x54
	.byte	0x93
	.uleb128 0x4
	.byte	0x53
	.byte	0x93
	.uleb128 0x4
	.byte	0x93
	.uleb128 0x10
	.byte	0x4
	.uleb128 .LVL33-.LVL23
	.uleb128 .LVL34-.LVL23
	.uleb128 0x46
	.byte	0x5a
	.byte	0x93
	.uleb128 0x4
	.byte	0x58
	.byte	0x93
	.uleb128 0x4
	.byte	0xa5
	.uleb128 0x11
	.uleb128 0x30
	.byte	0xa5
	.uleb128 0x14
	.uleb128 0x30
	.byte	0x1c
	.byte	0xa5
	.uleb128 0x12
	.uleb128 0x30
	.byte	0xa5
	.uleb128 0x13
	.uleb128 0x30
	.byte	0x1c
	.byte	0x1e
	.byte	0x9f
	.byte	0x93
	.uleb128 0x4
	.byte	0xa5
	.uleb128 0x12
	.uleb128 0x30
	.byte	0xa5
	.uleb128 0x13
	.uleb128 0x30
	.byte	0x1c
	.byte	0xa5
	.uleb128 0x16
	.uleb128 0x30
	.byte	0x1e
	.byte	0x9f
	.byte	0x93
	.uleb128 0x4
	.byte	0xa5
	.uleb128 0x11
	.uleb128 0x30
	.byte	0xa5
	.uleb128 0x14
	.uleb128 0x30
	.byte	0x1c
	.byte	0xa5
	.uleb128 0x17
	.uleb128 0x30
	.byte	0x1e
	.byte	0x9f
	.byte	0x93
	.uleb128 0x4
	.byte	0xa5
	.uleb128 0x16
	.uleb128 0x30
	.byte	0xa5
	.uleb128 0x17
	.uleb128 0x30
	.byte	0x1e
	.byte	0x9f
	.byte	0x93
	.uleb128 0x4
	.byte	0x54
	.byte	0x93
	.uleb128 0x4
	.byte	0x53
	.byte	0x93
	.uleb128 0x4
	.byte	0x93
	.uleb128 0x10
	.byte	0x4
	.uleb128 .LVL34-.LVL23
	.uleb128 .LVL35-.LVL23
	.uleb128 0x2a
	.byte	0x5a
	.byte	0x93
	.uleb128 0x4
	.byte	0x58
	.byte	0x93
	.uleb128 0x4
	.byte	0x93
	.uleb128 0x4
	.byte	0xa5
	.uleb128 0x12
	.uleb128 0x30
	.byte	0xa5
	.uleb128 0x13
	.uleb128 0x30
	.byte	0x1c
	.byte	0xa5
	.uleb128 0x16
	.uleb128 0x30
	.byte	0x1e
	.byte	0x9f
	.byte	0x93
	.uleb128 0x4
	.byte	0x93
	.uleb128 0x4
	.byte	0xa5
	.uleb128 0x16
	.uleb128 0x30
	.byte	0xa5
	.uleb128 0x17
	.uleb128 0x30
	.byte	0x1e
	.byte	0x9f
	.byte	0x93
	.uleb128 0x4
	.byte	0x54
	.byte	0x93
	.uleb128 0x4
	.byte	0x53
	.byte	0x93
	.uleb128 0x4
	.byte	0x93
	.uleb128 0x10
	.byte	0x4
	.uleb128 .LVL35-.LVL23
	.uleb128 .LVL36-.LVL23
	.uleb128 0x1a
	.byte	0x5a
	.byte	0x93
	.uleb128 0x4
	.byte	0x58
	.byte	0x93
	.uleb128 0x4
	.byte	0x93
	.uleb128 0xc
	.byte	0xa5
	.uleb128 0x16
	.uleb128 0x30
	.byte	0xa5
	.uleb128 0x17
	.uleb128 0x30
	.byte	0x1e
	.byte	0x9f
	.byte	0x93
	.uleb128 0x4
	.byte	0x54
	.byte	0x93
	.uleb128 0x4
	.byte	0x53
	.byte	0x93
	.uleb128 0x4
	.byte	0x93
	.uleb128 0x10
	.byte	0x4
	.uleb128 .LVL36-.LVL23
	.uleb128 .LVL37-.LVL23
	.uleb128 0x1a
	.byte	0x5a
	.byte	0x93
	.uleb128 0x4
	.byte	0x58
	.byte	0x93
	.uleb128 0x4
	.byte	0x93
	.uleb128 0xc
	.byte	0xa5
	.uleb128 0x16
	.uleb128 0x30
	.byte	0xa5
	.uleb128 0x17
	.uleb128 0x30
	.byte	0x1e
	.byte	0x9f
	.byte	0x93
	.uleb128 0x4
	.byte	0x54
	.byte	0x93
	.uleb128 0x4
	.byte	0x53
	.byte	0x93
	.uleb128 0x4
	.byte	0x93
	.uleb128 0x10
	.byte	0x4
	.uleb128 .LVL37-.LVL23
	.uleb128 .LVL40-.LVL23
	.uleb128 0x10
	.byte	0x5a
	.byte	0x93
	.uleb128 0x4
	.byte	0x58
	.byte	0x93
	.uleb128 0x4
	.byte	0x93
	.uleb128 0x10
	.byte	0x54
	.byte	0x93
	.uleb128 0x4
	.byte	0x53
	.byte	0x93
	.uleb128 0x4
	.byte	0x93
	.uleb128 0x10
	.byte	0x4
	.uleb128 .LVL229-.LVL23
	.uleb128 .LVL233-1-.LVL23
	.uleb128 0x10
	.byte	0x5a
	.byte	0x93
	.uleb128 0x4
	.byte	0x58
	.byte	0x93
	.uleb128 0x4
	.byte	0x93
	.uleb128 0x10
	.byte	0x54
	.byte	0x93
	.uleb128 0x4
	.byte	0x53
	.byte	0x93
	.uleb128 0x4
	.byte	0x93
	.uleb128 0x10
	.byte	0x4
	.uleb128 .LVL233-1-.LVL23
	.uleb128 .LVL236-.LVL23
	.uleb128 0x16
	.byte	0x77
	.sleb128 144
	.byte	0x93
	.uleb128 0x4
	.byte	0x77
	.sleb128 136
	.byte	0x93
	.uleb128 0x4
	.byte	0x93
	.uleb128 0x10
	.byte	0x77
	.sleb128 88
	.byte	0x93
	.uleb128 0x4
	.byte	0x53
	.byte	0x93
	.uleb128 0x4
	.byte	0x93
	.uleb128 0x10
	.byte	0x4
	.uleb128 .LVL236-.LVL23
	.uleb128 .LVL247-.LVL23
	.uleb128 0x13
	.byte	0x93
	.uleb128 0x4
	.byte	0x77
	.sleb128 136
	.byte	0x93
	.uleb128 0x4
	.byte	0x93
	.uleb128 0x10
	.byte	0x77
	.sleb128 88
	.byte	0x93
	.uleb128 0x4
	.byte	0x53
	.byte	0x93
	.uleb128 0x4
	.byte	0x93
	.uleb128 0x10
	.byte	0x4
	.uleb128 .LVL262-.LVL23
	.uleb128 .LVL263-.LVL23
	.uleb128 0x16
	.byte	0x77
	.sleb128 144
	.byte	0x93
	.uleb128 0x4
	.byte	0x77
	.sleb128 136
	.byte	0x93
	.uleb128 0x4
	.byte	0x93
	.uleb128 0x10
	.byte	0x77
	.sleb128 88
	.byte	0x93
	.uleb128 0x4
	.byte	0x53
	.byte	0x93
	.uleb128 0x4
	.byte	0x93
	.uleb128 0x10
	.byte	0x6
	.quad	.LVL286
	.byte	0x4
	.uleb128 .LVL286-.LVL286
	.uleb128 .LVL287-1-.LVL286
	.uleb128 0x10
	.byte	0x5a
	.byte	0x93
	.uleb128 0x4
	.byte	0x58
	.byte	0x93
	.uleb128 0x4
	.byte	0x93
	.uleb128 0x10
	.byte	0x54
	.byte	0x93
	.uleb128 0x4
	.byte	0x53
	.byte	0x93
	.uleb128 0x4
	.byte	0x93
	.uleb128 0x10
	.byte	0x4
	.uleb128 .LVL287-1-.LVL286
	.uleb128 .LVL288-.LVL286
	.uleb128 0x7
	.byte	0x93
	.uleb128 0x1c
	.byte	0x53
	.byte	0x93
	.uleb128 0x4
	.byte	0x93
	.uleb128 0x10
	.byte	0
.LVUS118:
	.uleb128 .LVU93
	.uleb128 .LVU162
	.uleb128 .LVU1317
	.uleb128 .LVU1338
	.uleb128 .LVU1518
	.uleb128 .LVU1520
.LLST118:
	.byte	0x6
	.quad	.LVL20
	.byte	0x4
	.uleb128 .LVL20-.LVL20
	.uleb128 .LVL40-.LVL20
	.uleb128 0x1
	.byte	0x64
	.byte	0x4
	.uleb128 .LVL229-.LVL20
	.uleb128 .LVL233-1-.LVL20
	.uleb128 0x1
	.byte	0x64
	.byte	0x8
	.quad	.LVL286
	.uleb128 .LVL287-1-.LVL286
	.uleb128 0x1
	.byte	0x64
	.byte	0
.LVUS119:
	.uleb128 .LVU97
	.uleb128 .LVU150
	.uleb128 .LVU150
	.uleb128 .LVU162
	.uleb128 .LVU1317
	.uleb128 .LVU1338
	.uleb128 .LVU1518
	.uleb128 .LVU1520
.LLST119:
	.byte	0x6
	.quad	.LVL21
	.byte	0x4
	.uleb128 .LVL21-.LVL21
	.uleb128 .LVL36-.LVL21
	.uleb128 0x1
	.byte	0x63
	.byte	0x4
	.uleb128 .LVL36-.LVL21
	.uleb128 .LVL40-.LVL21
	.uleb128 0xa
	.byte	0xa5
	.uleb128 0x15
	.uleb128 0x30
	.byte	0x72
	.sleb128 44
	.byte	0xa6
	.byte	0x4
	.uleb128 0x30
	.byte	0x1e
	.byte	0x9f
	.byte	0x4
	.uleb128 .LVL229-.LVL21
	.uleb128 .LVL233-1-.LVL21
	.uleb128 0xa
	.byte	0xa5
	.uleb128 0x15
	.uleb128 0x30
	.byte	0x72
	.sleb128 44
	.byte	0xa6
	.byte	0x4
	.uleb128 0x30
	.byte	0x1e
	.byte	0x9f
	.byte	0x8
	.quad	.LVL286
	.uleb128 .LVL287-1-.LVL286
	.uleb128 0xa
	.byte	0xa5
	.uleb128 0x15
	.uleb128 0x30
	.byte	0x72
	.sleb128 44
	.byte	0xa6
	.byte	0x4
	.uleb128 0x30
	.byte	0x1e
	.byte	0x9f
	.byte	0
.LVUS120:
	.uleb128 .LVU110
	.uleb128 .LVU143
	.uleb128 .LVU143
	.uleb128 .LVU153
.LLST120:
	.byte	0x6
	.quad	.LVL25
	.byte	0x4
	.uleb128 .LVL25-.LVL25
	.uleb128 .LVL31-.LVL25
	.uleb128 0x8
	.byte	0xa5
	.uleb128 0x14
	.uleb128 0x30
	.byte	0xa5
	.uleb128 0x11
	.uleb128 0x30
	.byte	0x1c
	.byte	0x9f
	.byte	0x4
	.uleb128 .LVL31-.LVL25
	.uleb128 .LVL37-.LVL25
	.uleb128 0x1
	.byte	0x66
	.byte	0
.LVUS121:
	.uleb128 .LVU111
	.uleb128 .LVU142
	.uleb128 .LVU142
	.uleb128 .LVU162
	.uleb128 .LVU1317
	.uleb128 .LVU1338
	.uleb128 .LVU1518
	.uleb128 .LVU1520
.LLST121:
	.byte	0x6
	.quad	.LVL25
	.byte	0x4
	.uleb128 .LVL25-.LVL25
	.uleb128 .LVL30-.LVL25
	.uleb128 0x8
	.byte	0xa5
	.uleb128 0x13
	.uleb128 0x30
	.byte	0xa5
	.uleb128 0x12
	.uleb128 0x30
	.byte	0x1c
	.byte	0x9f
	.byte	0x4
	.uleb128 .LVL30-.LVL25
	.uleb128 .LVL40-.LVL25
	.uleb128 0x1
	.byte	0x67
	.byte	0x4
	.uleb128 .LVL229-.LVL25
	.uleb128 .LVL233-1-.LVL25
	.uleb128 0x1
	.byte	0x67
	.byte	0x8
	.quad	.LVL286
	.uleb128 .LVL287-1-.LVL286
	.uleb128 0x1
	.byte	0x67
	.byte	0
.LVUS122:
	.uleb128 .LVU98
	.uleb128 .LVU101
.LLST122:
	.byte	0x8
	.quad	.LVL21
	.uleb128 .LVL22-.LVL21
	.uleb128 0x1
	.byte	0x64
	.byte	0
.LVUS123:
	.uleb128 .LVU104
	.uleb128 .LVU107
.LLST123:
	.byte	0x8
	.quad	.LVL23
	.uleb128 .LVL24-.LVL23
	.uleb128 0x1
	.byte	0x63
	.byte	0
.LVUS125:
	.uleb128 .LVU121
	.uleb128 .LVU125
.LLST125:
	.byte	0x8
	.quad	.LVL26
	.uleb128 .LVL27-.LVL26
	.uleb128 0x6
	.byte	0xa0
	.long	.Ldebug_info0+51644
	.sleb128 0
	.byte	0
.LVUS127:
	.uleb128 .LVU130
	.uleb128 .LVU134
.LLST127:
	.byte	0x8
	.quad	.LVL28
	.uleb128 .LVL29-.LVL28
	.uleb128 0x6
	.byte	0xa0
	.long	.Ldebug_info0+51654
	.sleb128 0
	.byte	0
.LVUS129:
	.uleb128 .LVU136
	.uleb128 .LVU137
.LLST129:
	.byte	0x8
	.quad	.LVL29
	.uleb128 .LVL29-.LVL29
	.uleb128 0x3
	.byte	0x72
	.sleb128 16
	.byte	0x9f
	.byte	0
.LVUS131:
	.uleb128 .LVU154
	.uleb128 .LVU162
	.uleb128 .LVU1317
	.uleb128 .LVU1384
	.uleb128 .LVU1430
	.uleb128 .LVU1431
	.uleb128 .LVU1518
	.uleb128 0
.LLST131:
	.byte	0x6
	.quad	.LVL37
	.byte	0x4
	.uleb128 .LVL37-.LVL37
	.uleb128 .LVL40-.LVL37
	.uleb128 0x6
	.byte	0xa0
	.long	.Ldebug_info0+51683
	.sleb128 0
	.byte	0x4
	.uleb128 .LVL229-.LVL37
	.uleb128 .LVL247-.LVL37
	.uleb128 0x6
	.byte	0xa0
	.long	.Ldebug_info0+51683
	.sleb128 0
	.byte	0x4
	.uleb128 .LVL262-.LVL37
	.uleb128 .LVL263-.LVL37
	.uleb128 0x6
	.byte	0xa0
	.long	.Ldebug_info0+51683
	.sleb128 0
	.byte	0x8
	.quad	.LVL286
	.uleb128 .LFE11707-.LVL286
	.uleb128 0x6
	.byte	0xa0
	.long	.Ldebug_info0+51683
	.sleb128 0
	.byte	0
.LVUS132:
	.uleb128 .LVU154
	.uleb128 .LVU162
	.uleb128 .LVU1317
	.uleb128 .LVU1384
	.uleb128 .LVU1430
	.uleb128 .LVU1431
	.uleb128 .LVU1518
	.uleb128 0
.LLST132:
	.byte	0x6
	.quad	.LVL37
	.byte	0x4
	.uleb128 .LVL37-.LVL37
	.uleb128 .LVL40-.LVL37
	.uleb128 0x6
	.byte	0xa0
	.long	.Ldebug_info0+51811
	.sleb128 0
	.byte	0x4
	.uleb128 .LVL229-.LVL37
	.uleb128 .LVL247-.LVL37
	.uleb128 0x6
	.byte	0xa0
	.long	.Ldebug_info0+51811
	.sleb128 0
	.byte	0x4
	.uleb128 .LVL262-.LVL37
	.uleb128 .LVL263-.LVL37
	.uleb128 0x6
	.byte	0xa0
	.long	.Ldebug_info0+51811
	.sleb128 0
	.byte	0x8
	.quad	.LVL286
	.uleb128 .LFE11707-.LVL286
	.uleb128 0x6
	.byte	0xa0
	.long	.Ldebug_info0+51811
	.sleb128 0
	.byte	0
.LVUS134:
	.uleb128 .LVU156
	.uleb128 .LVU161
.LLST134:
	.byte	0x8
	.quad	.LVL38
	.uleb128 .LVL39-.LVL38
	.uleb128 0x6
	.byte	0xa0
	.long	.Ldebug_info0+51683
	.sleb128 0
	.byte	0
.LVUS135:
	.uleb128 .LVU156
	.uleb128 .LVU161
.LLST135:
	.byte	0x8
	.quad	.LVL38
	.uleb128 .LVL39-.LVL38
	.uleb128 0x6
	.byte	0xa0
	.long	.Ldebug_info0+51811
	.sleb128 0
	.byte	0
.LVUS136:
	.uleb128 .LVU157
	.uleb128 .LVU161
.LLST136:
	.byte	0x8
	.quad	.LVL38
	.uleb128 .LVL39-.LVL38
	.uleb128 0x6
	.byte	0xa0
	.long	.Ldebug_info0+51683
	.sleb128 0
	.byte	0
.LVUS137:
	.uleb128 .LVU157
	.uleb128 .LVU161
.LLST137:
	.byte	0x8
	.quad	.LVL38
	.uleb128 .LVL39-.LVL38
	.uleb128 0x6
	.byte	0xa0
	.long	.Ldebug_info0+51811
	.sleb128 0
	.byte	0
.LVUS139:
	.uleb128 .LVU1317
	.uleb128 .LVU1383
	.uleb128 .LVU1430
	.uleb128 .LVU1431
	.uleb128 .LVU1518
	.uleb128 0
.LLST139:
	.byte	0x6
	.quad	.LVL229
	.byte	0x4
	.uleb128 .LVL229-.LVL229
	.uleb128 .LVL246-.LVL229
	.uleb128 0x6
	.byte	0xa0
	.long	.Ldebug_info0+51683
	.sleb128 0
	.byte	0x4
	.uleb128 .LVL262-.LVL229
	.uleb128 .LVL263-.LVL229
	.uleb128 0x6
	.byte	0xa0
	.long	.Ldebug_info0+51683
	.sleb128 0
	.byte	0x8
	.quad	.LVL286
	.uleb128 .LFE11707-.LVL286
	.uleb128 0x6
	.byte	0xa0
	.long	.Ldebug_info0+51683
	.sleb128 0
	.byte	0
.LVUS140:
	.uleb128 .LVU1317
	.uleb128 .LVU1383
	.uleb128 .LVU1430
	.uleb128 .LVU1431
	.uleb128 .LVU1518
	.uleb128 0
.LLST140:
	.byte	0x6
	.quad	.LVL229
	.byte	0x4
	.uleb128 .LVL229-.LVL229
	.uleb128 .LVL246-.LVL229
	.uleb128 0x6
	.byte	0xa0
	.long	.Ldebug_info0+51811
	.sleb128 0
	.byte	0x4
	.uleb128 .LVL262-.LVL229
	.uleb128 .LVL263-.LVL229
	.uleb128 0x6
	.byte	0xa0
	.long	.Ldebug_info0+51811
	.sleb128 0
	.byte	0x8
	.quad	.LVL286
	.uleb128 .LFE11707-.LVL286
	.uleb128 0x6
	.byte	0xa0
	.long	.Ldebug_info0+51811
	.sleb128 0
	.byte	0
.LVUS141:
	.uleb128 .LVU1331
	.uleb128 .LVU1382
	.uleb128 .LVU1430
	.uleb128 .LVU1431
.LLST141:
	.byte	0x6
	.quad	.LVL232
	.byte	0x4
	.uleb128 .LVL232-.LVL232
	.uleb128 .LVL245-.LVL232
	.uleb128 0x3
	.byte	0x77
	.sleb128 96
	.byte	0x4
	.uleb128 .LVL262-.LVL232
	.uleb128 .LVL263-.LVL232
	.uleb128 0x3
	.byte	0x77
	.sleb128 96
	.byte	0
.LVUS142:
	.uleb128 .LVU1365
	.uleb128 .LVU1367
	.uleb128 .LVU1367
	.uleb128 .LVU1384
.LLST142:
	.byte	0x6
	.quad	.LVL238
	.byte	0x4
	.uleb128 .LVL238-.LVL238
	.uleb128 .LVL239-.LVL238
	.uleb128 0xa
	.byte	0x77
	.sleb128 168
	.byte	0x6
	.byte	0x7c
	.sleb128 0
	.byte	0x22
	.byte	0x23
	.uleb128 0x30
	.byte	0x9f
	.byte	0x4
	.uleb128 .LVL239-.LVL238
	.uleb128 .LVL247-.LVL238
	.uleb128 0x1
	.byte	0x5c
	.byte	0
.LVUS143:
	.uleb128 .LVU1331
	.uleb128 .LVU1367
	.uleb128 .LVU1367
	.uleb128 .LVU1382
	.uleb128 .LVU1430
	.uleb128 .LVU1431
.LLST143:
	.byte	0x6
	.quad	.LVL232
	.byte	0x4
	.uleb128 .LVL232-.LVL232
	.uleb128 .LVL239-.LVL232
	.uleb128 0x6
	.byte	0x7c
	.sleb128 0
	.byte	0x8
	.byte	0x30
	.byte	0x1b
	.byte	0x9f
	.byte	0x4
	.uleb128 .LVL239-.LVL232
	.uleb128 .LVL245-.LVL232
	.uleb128 0xd
	.byte	0x77
	.sleb128 208
	.byte	0x6
	.byte	0x77
	.sleb128 96
	.byte	0x6
	.byte	0x1c
	.byte	0x8
	.byte	0x30
	.byte	0x1b
	.byte	0x9f
	.byte	0x4
	.uleb128 .LVL262-.LVL232
	.uleb128 .LVL263-.LVL232
	.uleb128 0x6
	.byte	0x7c
	.sleb128 0
	.byte	0x8
	.byte	0x30
	.byte	0x1b
	.byte	0x9f
	.byte	0
.LVUS144:
	.uleb128 .LVU1342
	.uleb128 .LVU1364
	.uleb128 .LVU1364
	.uleb128 .LVU1384
.LLST144:
	.byte	0x6
	.quad	.LVL234
	.byte	0x4
	.uleb128 .LVL234-.LVL234
	.uleb128 .LVL237-1-.LVL234
	.uleb128 0x1
	.byte	0x50
	.byte	0x4
	.uleb128 .LVL237-1-.LVL234
	.uleb128 .LVL247-.LVL234
	.uleb128 0x3
	.byte	0x77
	.sleb128 168
	.byte	0
.LVUS145:
	.uleb128 .LVU1342
	.uleb128 .LVU1364
	.uleb128 .LVU1364
	.uleb128 .LVU1365
	.uleb128 .LVU1365
	.uleb128 .LVU1367
	.uleb128 .LVU1367
	.uleb128 .LVU1383
.LLST145:
	.byte	0x6
	.quad	.LVL234
	.byte	0x4
	.uleb128 .LVL234-.LVL234
	.uleb128 .LVL237-1-.LVL234
	.uleb128 0x1
	.byte	0x50
	.byte	0x4
	.uleb128 .LVL237-1-.LVL234
	.uleb128 .LVL238-.LVL234
	.uleb128 0x3
	.byte	0x77
	.sleb128 168
	.byte	0x4
	.uleb128 .LVL238-.LVL234
	.uleb128 .LVL239-.LVL234
	.uleb128 0x8
	.byte	0x77
	.sleb128 168
	.byte	0x6
	.byte	0x7c
	.sleb128 0
	.byte	0x22
	.byte	0x9f
	.byte	0x4
	.uleb128 .LVL239-.LVL234
	.uleb128 .LVL246-.LVL234
	.uleb128 0x1
	.byte	0x5c
	.byte	0
.LVUS147:
	.uleb128 .LVU1319
	.uleb128 .LVU1331
	.uleb128 .LVU1518
	.uleb128 .LVU1520
.LLST147:
	.byte	0x8
	.quad	.LVL229
	.uleb128 .LVL232-.LVL229
	.uleb128 0x6
	.byte	0xa0
	.long	.Ldebug_info0+51683
	.sleb128 0
	.byte	0x8
	.quad	.LVL286
	.uleb128 .LVL287-.LVL286
	.uleb128 0x6
	.byte	0xa0
	.long	.Ldebug_info0+51683
	.sleb128 0
	.byte	0
.LVUS148:
	.uleb128 .LVU1319
	.uleb128 .LVU1331
	.uleb128 .LVU1518
	.uleb128 .LVU1520
.LLST148:
	.byte	0x8
	.quad	.LVL229
	.uleb128 .LVL232-.LVL229
	.uleb128 0x2
	.byte	0x31
	.byte	0x9f
	.byte	0x8
	.quad	.LVL286
	.uleb128 .LVL287-.LVL286
	.uleb128 0x2
	.byte	0x31
	.byte	0x9f
	.byte	0
.LVUS149:
	.uleb128 .LVU1319
	.uleb128 .LVU1331
	.uleb128 .LVU1518
	.uleb128 .LVU1520
.LLST149:
	.byte	0x8
	.quad	.LVL229
	.uleb128 .LVL232-.LVL229
	.uleb128 0xa
	.byte	0x3
	.quad	.LC2
	.byte	0x9f
	.byte	0x8
	.quad	.LVL286
	.uleb128 .LVL287-.LVL286
	.uleb128 0xa
	.byte	0x3
	.quad	.LC2
	.byte	0x9f
	.byte	0
.LVUS150:
	.uleb128 .LVU1320
	.uleb128 .LVU1325
.LLST150:
	.byte	0x8
	.quad	.LVL229
	.uleb128 .LVL231-.LVL229
	.uleb128 0x6
	.byte	0xa0
	.long	.Ldebug_info0+51683
	.sleb128 0
	.byte	0
.LVUS151:
	.uleb128 .LVU1324
	.uleb128 .LVU1325
.LLST151:
	.byte	0x8
	.quad	.LVL230
	.uleb128 .LVL231-.LVL230
	.uleb128 0x6
	.byte	0x7c
	.sleb128 0
	.byte	0x8
	.byte	0x30
	.byte	0x1b
	.byte	0x9f
	.byte	0
.LVUS153:
	.uleb128 .LVU1330
	.uleb128 .LVU1331
.LLST153:
	.byte	0x8
	.quad	.LVL232
	.uleb128 .LVL232-.LVL232
	.uleb128 0x6
	.byte	0xa0
	.long	.Ldebug_info0+52555
	.sleb128 0
	.byte	0
.LVUS155:
	.uleb128 .LVU1331
	.uleb128 .LVU1342
	.uleb128 .LVU1430
	.uleb128 .LVU1431
.LLST155:
	.byte	0x6
	.quad	.LVL232
	.byte	0x4
	.uleb128 .LVL232-.LVL232
	.uleb128 .LVL234-.LVL232
	.uleb128 0x6
	.byte	0xa0
	.long	.Ldebug_info0+51683
	.sleb128 0
	.byte	0x4
	.uleb128 .LVL262-.LVL232
	.uleb128 .LVL263-.LVL232
	.uleb128 0x6
	.byte	0xa0
	.long	.Ldebug_info0+51683
	.sleb128 0
	.byte	0
.LVUS157:
	.uleb128 .LVU1333
	.uleb128 .LVU1342
	.uleb128 .LVU1430
	.uleb128 .LVU1431
.LLST157:
	.byte	0x6
	.quad	.LVL232
	.byte	0x4
	.uleb128 .LVL232-.LVL232
	.uleb128 .LVL234-.LVL232
	.uleb128 0x6
	.byte	0xa0
	.long	.Ldebug_info0+51683
	.sleb128 0
	.byte	0x4
	.uleb128 .LVL262-.LVL232
	.uleb128 .LVL263-.LVL232
	.uleb128 0x6
	.byte	0xa0
	.long	.Ldebug_info0+51683
	.sleb128 0
	.byte	0
.LVUS159:
	.uleb128 .LVU1335
	.uleb128 .LVU1342
	.uleb128 .LVU1430
	.uleb128 .LVU1431
.LLST159:
	.byte	0x6
	.quad	.LVL232
	.byte	0x4
	.uleb128 .LVL232-.LVL232
	.uleb128 .LVL234-.LVL232
	.uleb128 0x2
	.byte	0x30
	.byte	0x9f
	.byte	0x4
	.uleb128 .LVL262-.LVL232
	.uleb128 .LVL263-.LVL232
	.uleb128 0x2
	.byte	0x30
	.byte	0x9f
	.byte	0
.LVUS160:
	.uleb128 .LVU1335
	.uleb128 .LVU1342
	.uleb128 .LVU1430
	.uleb128 .LVU1431
.LLST160:
	.byte	0x6
	.quad	.LVL232
	.byte	0x4
	.uleb128 .LVL232-.LVL232
	.uleb128 .LVL234-.LVL232
	.uleb128 0x6
	.byte	0xa0
	.long	.Ldebug_info0+51683
	.sleb128 0
	.byte	0x4
	.uleb128 .LVL262-.LVL232
	.uleb128 .LVL263-.LVL232
	.uleb128 0x6
	.byte	0xa0
	.long	.Ldebug_info0+51683
	.sleb128 0
	.byte	0
.LVUS163:
	.uleb128 .LVU1344
	.uleb128 .LVU1356
.LLST163:
	.byte	0x8
	.quad	.LVL234
	.uleb128 .LVL235-.LVL234
	.uleb128 0x6
	.byte	0xa0
	.long	.Ldebug_info0+51683
	.sleb128 0
	.byte	0
.LVUS164:
	.uleb128 .LVU1344
	.uleb128 .LVU1356
.LLST164:
	.byte	0x8
	.quad	.LVL234
	.uleb128 .LVL235-.LVL234
	.uleb128 0x6
	.byte	0x70
	.sleb128 0
	.byte	0x7c
	.sleb128 0
	.byte	0x22
	.byte	0x9f
	.byte	0
.LVUS165:
	.uleb128 .LVU1344
	.uleb128 .LVU1356
.LLST165:
	.byte	0x8
	.quad	.LVL234
	.uleb128 .LVL235-.LVL234
	.uleb128 0x6
	.byte	0xa0
	.long	.Ldebug_info0+51811
	.sleb128 0
	.byte	0
.LVUS166:
	.uleb128 .LVU1346
	.uleb128 .LVU1356
.LLST166:
	.byte	0x8
	.quad	.LVL234
	.uleb128 .LVL235-.LVL234
	.uleb128 0x6
	.byte	0xa0
	.long	.Ldebug_info0+51683
	.sleb128 0
	.byte	0
.LVUS167:
	.uleb128 .LVU1346
	.uleb128 .LVU1356
.LLST167:
	.byte	0x8
	.quad	.LVL234
	.uleb128 .LVL235-.LVL234
	.uleb128 0x6
	.byte	0x70
	.sleb128 0
	.byte	0x7c
	.sleb128 0
	.byte	0x22
	.byte	0x9f
	.byte	0
.LVUS168:
	.uleb128 .LVU1346
	.uleb128 .LVU1356
.LLST168:
	.byte	0x8
	.quad	.LVL234
	.uleb128 .LVL235-.LVL234
	.uleb128 0x6
	.byte	0xa0
	.long	.Ldebug_info0+51811
	.sleb128 0
	.byte	0
.LVUS170:
	.uleb128 .LVU1356
	.uleb128 .LVU1365
.LLST170:
	.byte	0x8
	.quad	.LVL235
	.uleb128 .LVL238-.LVL235
	.uleb128 0x3
	.byte	0x77
	.sleb128 96
	.byte	0
.LVUS171:
	.uleb128 .LVU1356
	.uleb128 .LVU1364
	.uleb128 .LVU1364
	.uleb128 .LVU1365
.LLST171:
	.byte	0x6
	.quad	.LVL235
	.byte	0x4
	.uleb128 .LVL235-.LVL235
	.uleb128 .LVL237-1-.LVL235
	.uleb128 0x1
	.byte	0x50
	.byte	0x4
	.uleb128 .LVL237-1-.LVL235
	.uleb128 .LVL238-.LVL235
	.uleb128 0x3
	.byte	0x77
	.sleb128 168
	.byte	0
.LVUS172:
	.uleb128 .LVU1356
	.uleb128 .LVU1365
.LLST172:
	.byte	0x8
	.quad	.LVL235
	.uleb128 .LVL238-.LVL235
	.uleb128 0x6
	.byte	0xa0
	.long	.Ldebug_info0+51683
	.sleb128 0
	.byte	0
.LVUS173:
	.uleb128 .LVU1358
	.uleb128 .LVU1365
.LLST173:
	.byte	0x8
	.quad	.LVL235
	.uleb128 .LVL238-.LVL235
	.uleb128 0x3
	.byte	0x77
	.sleb128 96
	.byte	0
.LVUS174:
	.uleb128 .LVU1358
	.uleb128 .LVU1364
	.uleb128 .LVU1364
	.uleb128 .LVU1365
.LLST174:
	.byte	0x6
	.quad	.LVL235
	.byte	0x4
	.uleb128 .LVL235-.LVL235
	.uleb128 .LVL237-1-.LVL235
	.uleb128 0x1
	.byte	0x50
	.byte	0x4
	.uleb128 .LVL237-1-.LVL235
	.uleb128 .LVL238-.LVL235
	.uleb128 0x3
	.byte	0x77
	.sleb128 168
	.byte	0
.LVUS175:
	.uleb128 .LVU1358
	.uleb128 .LVU1365
.LLST175:
	.byte	0x8
	.quad	.LVL235
	.uleb128 .LVL238-.LVL235
	.uleb128 0x6
	.byte	0xa0
	.long	.Ldebug_info0+51683
	.sleb128 0
	.byte	0
.LVUS176:
	.uleb128 .LVU1359
	.uleb128 .LVU1367
	.uleb128 .LVU1367
	.uleb128 .LVU1382
.LLST176:
	.byte	0x6
	.quad	.LVL235
	.byte	0x4
	.uleb128 .LVL235-.LVL235
	.uleb128 .LVL239-.LVL235
	.uleb128 0x6
	.byte	0x7c
	.sleb128 0
	.byte	0x8
	.byte	0x30
	.byte	0x1b
	.byte	0x9f
	.byte	0x4
	.uleb128 .LVL239-.LVL235
	.uleb128 .LVL245-.LVL235
	.uleb128 0xd
	.byte	0x77
	.sleb128 208
	.byte	0x6
	.byte	0x77
	.sleb128 96
	.byte	0x6
	.byte	0x1c
	.byte	0x8
	.byte	0x30
	.byte	0x1b
	.byte	0x9f
	.byte	0
.LVUS177:
	.uleb128 .LVU1342
	.uleb128 .LVU1344
.LLST177:
	.byte	0x8
	.quad	.LVL234
	.uleb128 .LVL234-.LVL234
	.uleb128 0x6
	.byte	0xa0
	.long	.Ldebug_info0+52901
	.sleb128 0
	.byte	0
.LVUS178:
	.uleb128 .LVU1342
	.uleb128 .LVU1344
.LLST178:
	.byte	0x8
	.quad	.LVL234
	.uleb128 .LVL234-.LVL234
	.uleb128 0x1
	.byte	0x50
	.byte	0
.LVUS179:
	.uleb128 .LVU1342
	.uleb128 .LVU1344
.LLST179:
	.byte	0x8
	.quad	.LVL234
	.uleb128 .LVL234-.LVL234
	.uleb128 0x6
	.byte	0xa0
	.long	.Ldebug_info0+51683
	.sleb128 0
	.byte	0
.LVUS181:
	.uleb128 .LVU1367
	.uleb128 .LVU1379
.LLST181:
	.byte	0x8
	.quad	.LVL239
	.uleb128 .LVL243-.LVL239
	.uleb128 0x6
	.byte	0xa0
	.long	.Ldebug_info0+52901
	.sleb128 0
	.byte	0
.LVUS183:
	.uleb128 .LVU1371
	.uleb128 .LVU1379
.LLST183:
	.byte	0x8
	.quad	.LVL240
	.uleb128 .LVL243-.LVL240
	.uleb128 0x3
	.byte	0x77
	.sleb128 96
	.byte	0
.LVUS185:
	.uleb128 .LVU1373
	.uleb128 .LVU1378
.LLST185:
	.byte	0x8
	.quad	.LVL240
	.uleb128 .LVL242-.LVL240
	.uleb128 0x3
	.byte	0x77
	.sleb128 96
	.byte	0
.LVUS187:
	.uleb128 .LVU1374
	.uleb128 .LVU1378
.LLST187:
	.byte	0x8
	.quad	.LVL240
	.uleb128 .LVL242-.LVL240
	.uleb128 0x3
	.byte	0x77
	.sleb128 96
	.byte	0
.LVUS189:
	.uleb128 .LVU1375
	.uleb128 .LVU1378
.LLST189:
	.byte	0x8
	.quad	.LVL240
	.uleb128 .LVL242-.LVL240
	.uleb128 0x3
	.byte	0x77
	.sleb128 96
	.byte	0
.LVUS111:
	.uleb128 .LVU79
	.uleb128 .LVU81
	.uleb128 .LVU1206
	.uleb128 .LVU1208
.LLST111:
	.byte	0x8
	.quad	.LVL17
	.uleb128 .LVL17-.LVL17
	.uleb128 0x4
	.byte	0xa3
	.uleb128 0x1
	.byte	0x54
	.byte	0x9f
	.byte	0x8
	.quad	.LVL209
	.uleb128 .LVL209-.LVL209
	.uleb128 0x1
	.byte	0x53
	.byte	0
.LVUS112:
	.uleb128 .LVU80
	.uleb128 .LVU81
	.uleb128 .LVU1207
	.uleb128 .LVU1208
.LLST112:
	.byte	0x8
	.quad	.LVL17
	.uleb128 .LVL17-.LVL17
	.uleb128 0x4
	.byte	0xa3
	.uleb128 0x1
	.byte	0x54
	.byte	0x9f
	.byte	0x8
	.quad	.LVL209
	.uleb128 .LVL209-.LVL209
	.uleb128 0x1
	.byte	0x53
	.byte	0
.LVUS114:
	.uleb128 .LVU81
	.uleb128 .LVU84
	.uleb128 .LVU1208
	.uleb128 .LVU1211
.LLST114:
	.byte	0x8
	.quad	.LVL17
	.uleb128 .LVL17-.LVL17
	.uleb128 0x4
	.byte	0xa3
	.uleb128 0x1
	.byte	0x54
	.byte	0x9f
	.byte	0x8
	.quad	.LVL209
	.uleb128 .LVL209-.LVL209
	.uleb128 0x1
	.byte	0x53
	.byte	0
.LVUS115:
	.uleb128 .LVU83
	.uleb128 .LVU84
	.uleb128 .LVU1210
	.uleb128 .LVU1211
.LLST115:
	.byte	0x8
	.quad	.LVL17
	.uleb128 .LVL17-.LVL17
	.uleb128 0x6
	.byte	0xa3
	.uleb128 0x1
	.byte	0x54
	.byte	0x23
	.uleb128 0x8
	.byte	0x9f
	.byte	0x8
	.quad	.LVL209
	.uleb128 .LVL209-.LVL209
	.uleb128 0x3
	.byte	0x73
	.sleb128 8
	.byte	0x9f
	.byte	0
.LVUS190:
	.uleb128 .LVU164
	.uleb128 .LVU166
.LLST190:
	.byte	0x8
	.quad	.LVL40
	.uleb128 .LVL41-.LVL40
	.uleb128 0x6
	.byte	0xa0
	.long	.Ldebug_info0+51784
	.sleb128 0
	.byte	0
.LVUS295:
	.uleb128 .LVU274
	.uleb128 .LVU278
	.uleb128 .LVU278
	.uleb128 .LVU311
.LLST295:
	.byte	0x6
	.quad	.LVL57
	.byte	0x4
	.uleb128 .LVL57-.LVL57
	.uleb128 .LVL58-.LVL57
	.uleb128 0x1
	.byte	0x50
	.byte	0x4
	.uleb128 .LVL58-.LVL57
	.uleb128 .LVL64-.LVL57
	.uleb128 0x3
	.byte	0x70
	.sleb128 -48
	.byte	0x9f
	.byte	0
.LVUS296:
	.uleb128 .LVU265
	.uleb128 .LVU1202
	.uleb128 .LVU1219
	.uleb128 .LVU1237
	.uleb128 .LVU1386
	.uleb128 .LVU1421
	.uleb128 .LVU1423
	.uleb128 .LVU1426
	.uleb128 .LVU1429
	.uleb128 .LVU1430
	.uleb128 .LVU1431
	.uleb128 0
	.uleb128 0
	.uleb128 .LVU1433
	.uleb128 .LVU1489
	.uleb128 .LVU1509
.LLST296:
	.byte	0x6
	.quad	.LVL55
	.byte	0x4
	.uleb128 .LVL55-.LVL55
	.uleb128 .LVL208-.LVL55
	.uleb128 0x6
	.byte	0xa0
	.long	.Ldebug_info0+51683
	.sleb128 0
	.byte	0x4
	.uleb128 .LVL211-.LVL55
	.uleb128 .LVL217-.LVL55
	.uleb128 0x6
	.byte	0xa0
	.long	.Ldebug_info0+51683
	.sleb128 0
	.byte	0x4
	.uleb128 .LVL248-.LVL55
	.uleb128 .LVL255-.LVL55
	.uleb128 0x6
	.byte	0xa0
	.long	.Ldebug_info0+51683
	.sleb128 0
	.byte	0x4
	.uleb128 .LVL256-.LVL55
	.uleb128 .LVL257-.LVL55
	.uleb128 0x6
	.byte	0xa0
	.long	.Ldebug_info0+51683
	.sleb128 0
	.byte	0x4
	.uleb128 .LVL261-.LVL55
	.uleb128 .LVL262-.LVL55
	.uleb128 0x6
	.byte	0xa0
	.long	.Ldebug_info0+51683
	.sleb128 0
	.byte	0x4
	.uleb128 .LVL263-.LVL55
	.uleb128 .LHOTE4-.LVL55
	.uleb128 0x6
	.byte	0xa0
	.long	.Ldebug_info0+51683
	.sleb128 0
	.byte	0x6
	.quad	.LFSB11707
	.byte	0x4
	.uleb128 .LFSB11707-.LFSB11707
	.uleb128 .LVL264-.LFSB11707
	.uleb128 0x6
	.byte	0xa0
	.long	.Ldebug_info0+51683
	.sleb128 0
	.byte	0x4
	.uleb128 .LVL273-.LFSB11707
	.uleb128 .LVL279-.LFSB11707
	.uleb128 0x6
	.byte	0xa0
	.long	.Ldebug_info0+51683
	.sleb128 0
	.byte	0
.LVUS297:
	.uleb128 .LVU265
	.uleb128 .LVU267
.LLST297:
	.byte	0x8
	.quad	.LVL55
	.uleb128 .LVL55-.LVL55
	.uleb128 0x6
	.byte	0xa0
	.long	.Ldebug_info0+51683
	.sleb128 0
	.byte	0
.LVUS298:
	.uleb128 .LVU266
	.uleb128 .LVU267
.LLST298:
	.byte	0x8
	.quad	.LVL55
	.uleb128 .LVL55-.LVL55
	.uleb128 0x6
	.byte	0xa0
	.long	.Ldebug_info0+51683
	.sleb128 0
	.byte	0
.LVUS299:
	.uleb128 .LVU267
	.uleb128 .LVU270
.LLST299:
	.byte	0x8
	.quad	.LVL55
	.uleb128 .LVL55-.LVL55
	.uleb128 0x6
	.byte	0xa0
	.long	.Ldebug_info0+51683
	.sleb128 0
	.byte	0
.LVUS300:
	.uleb128 .LVU269
	.uleb128 .LVU270
.LLST300:
	.byte	0x8
	.quad	.LVL55
	.uleb128 .LVL55-.LVL55
	.uleb128 0x6
	.byte	0xa0
	.long	.Ldebug_info0+51683
	.sleb128 8
	.byte	0
.LVUS302:
	.uleb128 .LVU307
	.uleb128 .LVU308
.LLST302:
	.byte	0x8
	.quad	.LVL63
	.uleb128 .LVL63-.LVL63
	.uleb128 0x6
	.byte	0xa0
	.long	.Ldebug_info0+53845
	.sleb128 0
	.byte	0
.LVUS303:
	.uleb128 .LVU281
	.uleb128 .LVU283
.LLST303:
	.byte	0x8
	.quad	.LVL59
	.uleb128 .LVL59-.LVL59
	.uleb128 0x6
	.byte	0x71
	.sleb128 0
	.byte	0x74
	.sleb128 0
	.byte	0x22
	.byte	0x9f
	.byte	0
.LVUS304:
	.uleb128 .LVU289
	.uleb128 .LVU291
.LLST304:
	.byte	0x8
	.quad	.LVL60
	.uleb128 .LVL60-.LVL60
	.uleb128 0x6
	.byte	0x71
	.sleb128 0
	.byte	0x72
	.sleb128 0
	.byte	0x22
	.byte	0x9f
	.byte	0
.LVUS305:
	.uleb128 .LVU295
	.uleb128 .LVU297
.LLST305:
	.byte	0x8
	.quad	.LVL61
	.uleb128 .LVL61-.LVL61
	.uleb128 0x6
	.byte	0x74
	.sleb128 0
	.byte	0x75
	.sleb128 0
	.byte	0x22
	.byte	0x9f
	.byte	0
.LVUS306:
	.uleb128 .LVU301
	.uleb128 .LVU303
.LLST306:
	.byte	0x8
	.quad	.LVL62
	.uleb128 .LVL62-.LVL62
	.uleb128 0x6
	.byte	0x72
	.sleb128 0
	.byte	0x75
	.sleb128 0
	.byte	0x22
	.byte	0x9f
	.byte	0
.LVUS307:
	.uleb128 .LVU311
	.uleb128 .LVU324
	.uleb128 .LVU324
	.uleb128 .LVU327
	.uleb128 .LVU327
	.uleb128 .LVU342
	.uleb128 .LVU1393
	.uleb128 .LVU1421
.LLST307:
	.byte	0x6
	.quad	.LVL64
	.byte	0x4
	.uleb128 .LVL64-.LVL64
	.uleb128 .LVL70-.LVL64
	.uleb128 0x2
	.byte	0x30
	.byte	0x9f
	.byte	0x4
	.uleb128 .LVL70-.LVL64
	.uleb128 .LVL71-.LVL64
	.uleb128 0x2
	.byte	0x31
	.byte	0x9f
	.byte	0x4
	.uleb128 .LVL71-.LVL64
	.uleb128 .LVL78-.LVL64
	.uleb128 0x1
	.byte	0x5b
	.byte	0x4
	.uleb128 .LVL252-.LVL64
	.uleb128 .LVL255-.LVL64
	.uleb128 0x2
	.byte	0x30
	.byte	0x9f
	.byte	0
.LVUS309:
	.uleb128 .LVU313
	.uleb128 .LVU316
	.uleb128 .LVU316
	.uleb128 .LVU327
	.uleb128 .LVU327
	.uleb128 .LVU330
	.uleb128 .LVU331
	.uleb128 .LVU342
.LLST309:
	.byte	0x6
	.quad	.LVL65
	.byte	0x4
	.uleb128 .LVL65-.LVL65
	.uleb128 .LVL66-.LVL65
	.uleb128 0x2
	.byte	0x30
	.byte	0x9f
	.byte	0x4
	.uleb128 .LVL66-.LVL65
	.uleb128 .LVL71-.LVL65
	.uleb128 0x1
	.byte	0x51
	.byte	0x4
	.uleb128 .LVL71-.LVL65
	.uleb128 .LVL72-.LVL65
	.uleb128 0x2
	.byte	0x30
	.byte	0x9f
	.byte	0x4
	.uleb128 .LVL73-.LVL65
	.uleb128 .LVL78-.LVL65
	.uleb128 0x1
	.byte	0x51
	.byte	0
.LVUS311:
	.uleb128 .LVU313
	.uleb128 .LVU316
	.uleb128 .LVU316
	.uleb128 .LVU321
	.uleb128 .LVU321
	.uleb128 .LVU322
	.uleb128 .LVU327
	.uleb128 .LVU330
	.uleb128 .LVU331
	.uleb128 .LVU338
	.uleb128 .LVU338
	.uleb128 .LVU339
.LLST311:
	.byte	0x6
	.quad	.LVL65
	.byte	0x4
	.uleb128 .LVL65-.LVL65
	.uleb128 .LVL66-.LVL65
	.uleb128 0x2
	.byte	0x30
	.byte	0x9f
	.byte	0x4
	.uleb128 .LVL66-.LVL65
	.uleb128 .LVL68-.LVL65
	.uleb128 0x1
	.byte	0x50
	.byte	0x4
	.uleb128 .LVL68-.LVL65
	.uleb128 .LVL69-.LVL65
	.uleb128 0x3
	.byte	0x70
	.sleb128 1
	.byte	0x9f
	.byte	0x4
	.uleb128 .LVL71-.LVL65
	.uleb128 .LVL72-.LVL65
	.uleb128 0x2
	.byte	0x30
	.byte	0x9f
	.byte	0x4
	.uleb128 .LVL73-.LVL65
	.uleb128 .LVL75-.LVL65
	.uleb128 0x1
	.byte	0x50
	.byte	0x4
	.uleb128 .LVL75-.LVL65
	.uleb128 .LVL76-.LVL65
	.uleb128 0x3
	.byte	0x70
	.sleb128 1
	.byte	0x9f
	.byte	0
.LVUS361:
	.uleb128 .LVU391
	.uleb128 .LVU1067
	.uleb128 .LVU1219
	.uleb128 .LVU1237
.LLST361:
	.byte	0x6
	.quad	.LVL87
	.byte	0x4
	.uleb128 .LVL87-.LVL87
	.uleb128 .LVL175-.LVL87
	.uleb128 0x3
	.byte	0x77
	.sleb128 160
	.byte	0x4
	.uleb128 .LVL211-.LVL87
	.uleb128 .LVL217-.LVL87
	.uleb128 0x3
	.byte	0x77
	.sleb128 160
	.byte	0
.LVUS363:
	.uleb128 .LVU395
	.uleb128 .LVU437
.LLST363:
	.byte	0x8
	.quad	.LVL87
	.uleb128 .LVL90-.LVL87
	.uleb128 0x40
	.byte	0x77
	.sleb128 160
	.byte	0x6
	.byte	0x23
	.uleb128 0x8
	.byte	0x93
	.uleb128 0x4
	.byte	0x77
	.sleb128 160
	.byte	0x6
	.byte	0x23
	.uleb128 0x8
	.byte	0x93
	.uleb128 0x4
	.byte	0x77
	.sleb128 160
	.byte	0x6
	.byte	0x23
	.uleb128 0x8
	.byte	0x93
	.uleb128 0x4
	.byte	0x77
	.sleb128 160
	.byte	0x6
	.byte	0x23
	.uleb128 0x8
	.byte	0x93
	.uleb128 0x4
	.byte	0x77
	.sleb128 160
	.byte	0x6
	.byte	0x23
	.uleb128 0x8
	.byte	0x93
	.uleb128 0x4
	.byte	0x77
	.sleb128 160
	.byte	0x6
	.byte	0x23
	.uleb128 0x8
	.byte	0x93
	.uleb128 0x4
	.byte	0x77
	.sleb128 160
	.byte	0x6
	.byte	0x23
	.uleb128 0x8
	.byte	0x93
	.uleb128 0x4
	.byte	0x77
	.sleb128 160
	.byte	0x6
	.byte	0x23
	.uleb128 0x8
	.byte	0x93
	.uleb128 0x4
	.byte	0
.LVUS364:
	.uleb128 .LVU399
	.uleb128 .LVU437
.LLST364:
	.byte	0x8
	.quad	.LVL87
	.uleb128 .LVL90-.LVL87
	.uleb128 0x40
	.byte	0x77
	.sleb128 160
	.byte	0x6
	.byte	0x23
	.uleb128 0xc
	.byte	0x93
	.uleb128 0x4
	.byte	0x77
	.sleb128 160
	.byte	0x6
	.byte	0x23
	.uleb128 0xc
	.byte	0x93
	.uleb128 0x4
	.byte	0x77
	.sleb128 160
	.byte	0x6
	.byte	0x23
	.uleb128 0xc
	.byte	0x93
	.uleb128 0x4
	.byte	0x77
	.sleb128 160
	.byte	0x6
	.byte	0x23
	.uleb128 0xc
	.byte	0x93
	.uleb128 0x4
	.byte	0x77
	.sleb128 160
	.byte	0x6
	.byte	0x23
	.uleb128 0xc
	.byte	0x93
	.uleb128 0x4
	.byte	0x77
	.sleb128 160
	.byte	0x6
	.byte	0x23
	.uleb128 0xc
	.byte	0x93
	.uleb128 0x4
	.byte	0x77
	.sleb128 160
	.byte	0x6
	.byte	0x23
	.uleb128 0xc
	.byte	0x93
	.uleb128 0x4
	.byte	0x77
	.sleb128 160
	.byte	0x6
	.byte	0x23
	.uleb128 0xc
	.byte	0x93
	.uleb128 0x4
	.byte	0
.LVUS365:
	.uleb128 .LVU403
	.uleb128 .LVU437
.LLST365:
	.byte	0x8
	.quad	.LVL87
	.uleb128 .LVL90-.LVL87
	.uleb128 0x40
	.byte	0x77
	.sleb128 160
	.byte	0x6
	.byte	0x23
	.uleb128 0x10
	.byte	0x93
	.uleb128 0x4
	.byte	0x77
	.sleb128 160
	.byte	0x6
	.byte	0x23
	.uleb128 0x10
	.byte	0x93
	.uleb128 0x4
	.byte	0x77
	.sleb128 160
	.byte	0x6
	.byte	0x23
	.uleb128 0x10
	.byte	0x93
	.uleb128 0x4
	.byte	0x77
	.sleb128 160
	.byte	0x6
	.byte	0x23
	.uleb128 0x10
	.byte	0x93
	.uleb128 0x4
	.byte	0x77
	.sleb128 160
	.byte	0x6
	.byte	0x23
	.uleb128 0x10
	.byte	0x93
	.uleb128 0x4
	.byte	0x77
	.sleb128 160
	.byte	0x6
	.byte	0x23
	.uleb128 0x10
	.byte	0x93
	.uleb128 0x4
	.byte	0x77
	.sleb128 160
	.byte	0x6
	.byte	0x23
	.uleb128 0x10
	.byte	0x93
	.uleb128 0x4
	.byte	0x77
	.sleb128 160
	.byte	0x6
	.byte	0x23
	.uleb128 0x10
	.byte	0x93
	.uleb128 0x4
	.byte	0
.LVUS366:
	.uleb128 .LVU407
	.uleb128 .LVU437
.LLST366:
	.byte	0x8
	.quad	.LVL87
	.uleb128 .LVL90-.LVL87
	.uleb128 0x40
	.byte	0x77
	.sleb128 160
	.byte	0x6
	.byte	0x23
	.uleb128 0x14
	.byte	0x93
	.uleb128 0x4
	.byte	0x77
	.sleb128 160
	.byte	0x6
	.byte	0x23
	.uleb128 0x14
	.byte	0x93
	.uleb128 0x4
	.byte	0x77
	.sleb128 160
	.byte	0x6
	.byte	0x23
	.uleb128 0x14
	.byte	0x93
	.uleb128 0x4
	.byte	0x77
	.sleb128 160
	.byte	0x6
	.byte	0x23
	.uleb128 0x14
	.byte	0x93
	.uleb128 0x4
	.byte	0x77
	.sleb128 160
	.byte	0x6
	.byte	0x23
	.uleb128 0x14
	.byte	0x93
	.uleb128 0x4
	.byte	0x77
	.sleb128 160
	.byte	0x6
	.byte	0x23
	.uleb128 0x14
	.byte	0x93
	.uleb128 0x4
	.byte	0x77
	.sleb128 160
	.byte	0x6
	.byte	0x23
	.uleb128 0x14
	.byte	0x93
	.uleb128 0x4
	.byte	0x77
	.sleb128 160
	.byte	0x6
	.byte	0x23
	.uleb128 0x14
	.byte	0x93
	.uleb128 0x4
	.byte	0
.LVUS368:
	.uleb128 .LVU412
	.uleb128 .LVU435
	.uleb128 .LVU435
	.uleb128 .LVU437
	.uleb128 .LVU437
	.uleb128 .LVU1060
	.uleb128 .LVU1062
	.uleb128 .LVU1063
	.uleb128 .LVU1219
	.uleb128 .LVU1237
.LLST368:
	.byte	0x6
	.quad	.LVL88
	.byte	0x4
	.uleb128 .LVL88-.LVL88
	.uleb128 .LVL89-.LVL88
	.uleb128 0x1
	.byte	0x55
	.byte	0x4
	.uleb128 .LVL89-.LVL88
	.uleb128 .LVL90-.LVL88
	.uleb128 0x6
	.byte	0x77
	.sleb128 160
	.byte	0x6
	.byte	0x23
	.uleb128 0x20
	.byte	0x4
	.uleb128 .LVL90-.LVL88
	.uleb128 .LVL172-.LVL88
	.uleb128 0x3
	.byte	0x77
	.sleb128 192
	.byte	0x4
	.uleb128 .LVL173-.LVL88
	.uleb128 .LVL174-.LVL88
	.uleb128 0x1
	.byte	0x50
	.byte	0x4
	.uleb128 .LVL211-.LVL88
	.uleb128 .LVL217-.LVL88
	.uleb128 0x3
	.byte	0x77
	.sleb128 192
	.byte	0
.LVUS370:
	.uleb128 .LVU439
	.uleb128 .LVU453
	.uleb128 .LVU752
	.uleb128 .LVU756
	.uleb128 .LVU756
	.uleb128 .LVU918
	.uleb128 .LVU1219
	.uleb128 .LVU1234
	.uleb128 .LVU1234
	.uleb128 .LVU1237
.LLST370:
	.byte	0x6
	.quad	.LVL90
	.byte	0x4
	.uleb128 .LVL90-.LVL90
	.uleb128 .LVL93-.LVL90
	.uleb128 0x1
	.byte	0x5e
	.byte	0x4
	.uleb128 .LVL124-.LVL90
	.uleb128 .LVL124-.LVL90
	.uleb128 0x1
	.byte	0x53
	.byte	0x4
	.uleb128 .LVL124-.LVL90
	.uleb128 .LVL140-.LVL90
	.uleb128 0x3
	.byte	0x77
	.sleb128 216
	.byte	0x4
	.uleb128 .LVL211-.LVL90
	.uleb128 .LVL215-.LVL90
	.uleb128 0x1
	.byte	0x5e
	.byte	0x4
	.uleb128 .LVL215-.LVL90
	.uleb128 .LVL217-.LVL90
	.uleb128 0x3
	.byte	0x77
	.sleb128 216
	.byte	0
.LVUS371:
	.uleb128 .LVU445
	.uleb128 .LVU453
	.uleb128 .LVU453
	.uleb128 .LVU525
	.uleb128 .LVU525
	.uleb128 .LVU643
	.uleb128 .LVU753
	.uleb128 .LVU1063
	.uleb128 .LVU1219
	.uleb128 .LVU1237
.LLST371:
	.byte	0x6
	.quad	.LVL91
	.byte	0x4
	.uleb128 .LVL91-.LVL91
	.uleb128 .LVL93-.LVL91
	.uleb128 0x1
	.byte	0x54
	.byte	0x4
	.uleb128 .LVL93-.LVL91
	.uleb128 .LVL96-.LVL91
	.uleb128 0x6
	.byte	0x70
	.sleb128 0
	.byte	0x75
	.sleb128 0
	.byte	0x1c
	.byte	0x9f
	.byte	0x4
	.uleb128 .LVL96-.LVL91
	.uleb128 .LVL109-.LVL91
	.uleb128 0x8
	.byte	0x70
	.sleb128 0
	.byte	0x75
	.sleb128 0
	.byte	0x1c
	.byte	0x40
	.byte	0x1c
	.byte	0x9f
	.byte	0x4
	.uleb128 .LVL124-.LVL91
	.uleb128 .LVL174-.LVL91
	.uleb128 0x1
	.byte	0x54
	.byte	0x4
	.uleb128 .LVL211-.LVL91
	.uleb128 .LVL217-.LVL91
	.uleb128 0x1
	.byte	0x54
	.byte	0
.LVUS372:
	.uleb128 .LVU446
	.uleb128 .LVU453
	.uleb128 .LVU754
	.uleb128 .LVU1063
	.uleb128 .LVU1219
	.uleb128 .LVU1237
.LLST372:
	.byte	0x6
	.quad	.LVL91
	.byte	0x4
	.uleb128 .LVL91-.LVL91
	.uleb128 .LVL93-.LVL91
	.uleb128 0x1
	.byte	0x58
	.byte	0x4
	.uleb128 .LVL124-.LVL91
	.uleb128 .LVL174-.LVL91
	.uleb128 0x1
	.byte	0x58
	.byte	0x4
	.uleb128 .LVL211-.LVL91
	.uleb128 .LVL217-.LVL91
	.uleb128 0x1
	.byte	0x58
	.byte	0
.LVUS373:
	.uleb128 .LVU447
	.uleb128 .LVU452
	.uleb128 .LVU452
	.uleb128 .LVU453
	.uleb128 .LVU453
	.uleb128 .LVU525
	.uleb128 .LVU525
	.uleb128 .LVU643
	.uleb128 .LVU755
	.uleb128 .LVU756
	.uleb128 .LVU756
	.uleb128 .LVU918
	.uleb128 .LVU1219
	.uleb128 .LVU1221
	.uleb128 .LVU1221
	.uleb128 .LVU1230
	.uleb128 .LVU1230
	.uleb128 .LVU1233
	.uleb128 .LVU1233
	.uleb128 .LVU1234
	.uleb128 .LVU1234
	.uleb128 .LVU1237
.LLST373:
	.byte	0x6
	.quad	.LVL91
	.byte	0x4
	.uleb128 .LVL91-.LVL91
	.uleb128 .LVL92-.LVL91
	.uleb128 0x1
	.byte	0x50
	.byte	0x4
	.uleb128 .LVL92-.LVL91
	.uleb128 .LVL93-.LVL91
	.uleb128 0x3
	.byte	0x77
	.sleb128 184
	.byte	0x4
	.uleb128 .LVL93-.LVL91
	.uleb128 .LVL96-.LVL91
	.uleb128 0x8
	.byte	0x70
	.sleb128 0
	.byte	0x75
	.sleb128 0
	.byte	0x1c
	.byte	0x23
	.uleb128 0x3
	.byte	0x9f
	.byte	0x4
	.uleb128 .LVL96-.LVL91
	.uleb128 .LVL109-.LVL91
	.uleb128 0x8
	.byte	0x70
	.sleb128 0
	.byte	0x75
	.sleb128 0
	.byte	0x1c
	.byte	0x3d
	.byte	0x1c
	.byte	0x9f
	.byte	0x4
	.uleb128 .LVL124-.LVL91
	.uleb128 .LVL124-.LVL91
	.uleb128 0x1
	.byte	0x52
	.byte	0x4
	.uleb128 .LVL124-.LVL91
	.uleb128 .LVL140-.LVL91
	.uleb128 0x3
	.byte	0x77
	.sleb128 208
	.byte	0x4
	.uleb128 .LVL211-.LVL91
	.uleb128 .LVL212-.LVL91
	.uleb128 0x1
	.byte	0x50
	.byte	0x4
	.uleb128 .LVL212-.LVL91
	.uleb128 .LVL213-.LVL91
	.uleb128 0x3
	.byte	0x77
	.sleb128 184
	.byte	0x4
	.uleb128 .LVL213-.LVL91
	.uleb128 .LVL214-.LVL91
	.uleb128 0x1
	.byte	0x50
	.byte	0x4
	.uleb128 .LVL214-.LVL91
	.uleb128 .LVL215-.LVL91
	.uleb128 0x3
	.byte	0x77
	.sleb128 184
	.byte	0x4
	.uleb128 .LVL215-.LVL91
	.uleb128 .LVL217-.LVL91
	.uleb128 0x3
	.byte	0x77
	.sleb128 208
	.byte	0
.LVUS374:
	.uleb128 .LVU451
	.uleb128 .LVU458
	.uleb128 .LVU458
	.uleb128 .LVU643
	.uleb128 .LVU643
	.uleb128 .LVU684
	.uleb128 .LVU684
	.uleb128 .LVU751
	.uleb128 .LVU751
	.uleb128 .LVU918
	.uleb128 .LVU1219
	.uleb128 .LVU1221
	.uleb128 .LVU1221
	.uleb128 .LVU1230
	.uleb128 .LVU1230
	.uleb128 .LVU1237
.LLST374:
	.byte	0x6
	.quad	.LVL91
	.byte	0x4
	.uleb128 .LVL91-.LVL91
	.uleb128 .LVL94-.LVL91
	.uleb128 0x1
	.byte	0x51
	.byte	0x4
	.uleb128 .LVL94-.LVL91
	.uleb128 .LVL109-.LVL91
	.uleb128 0x3
	.byte	0x71
	.sleb128 -64
	.byte	0x9f
	.byte	0x4
	.uleb128 .LVL109-.LVL91
	.uleb128 .LVL112-.LVL91
	.uleb128 0x1
	.byte	0x51
	.byte	0x4
	.uleb128 .LVL112-.LVL91
	.uleb128 .LVL124-.LVL91
	.uleb128 0x3
	.byte	0x71
	.sleb128 -32
	.byte	0x9f
	.byte	0x4
	.uleb128 .LVL124-.LVL91
	.uleb128 .LVL140-.LVL91
	.uleb128 0x1
	.byte	0x51
	.byte	0x4
	.uleb128 .LVL211-.LVL91
	.uleb128 .LVL212-.LVL91
	.uleb128 0x1
	.byte	0x51
	.byte	0x4
	.uleb128 .LVL212-.LVL91
	.uleb128 .LVL213-.LVL91
	.uleb128 0x3
	.byte	0x77
	.sleb128 168
	.byte	0x4
	.uleb128 .LVL213-.LVL91
	.uleb128 .LVL217-.LVL91
	.uleb128 0x1
	.byte	0x51
	.byte	0
.LVUS375:
	.uleb128 .LVU451
	.uleb128 .LVU453
	.uleb128 .LVU453
	.uleb128 .LVU525
	.uleb128 .LVU756
	.uleb128 .LVU762
	.uleb128 .LVU1219
	.uleb128 .LVU1234
.LLST375:
	.byte	0x6
	.quad	.LVL91
	.byte	0x4
	.uleb128 .LVL91-.LVL91
	.uleb128 .LVL93-.LVL91
	.uleb128 0x2
	.byte	0x30
	.byte	0x9f
	.byte	0x4
	.uleb128 .LVL93-.LVL91
	.uleb128 .LVL96-.LVL91
	.uleb128 0x9
	.byte	0x70
	.sleb128 0
	.byte	0x75
	.sleb128 0
	.byte	0x1c
	.byte	0x74
	.sleb128 0
	.byte	0x1c
	.byte	0x9f
	.byte	0x4
	.uleb128 .LVL124-.LVL91
	.uleb128 .LVL126-.LVL91
	.uleb128 0x1
	.byte	0x50
	.byte	0x4
	.uleb128 .LVL211-.LVL91
	.uleb128 .LVL215-.LVL91
	.uleb128 0x2
	.byte	0x30
	.byte	0x9f
	.byte	0
.LVUS376:
	.uleb128 .LVU759
	.uleb128 .LVU1063
	.uleb128 .LVU1223
	.uleb128 .LVU1230
	.uleb128 .LVU1234
	.uleb128 .LVU1237
.LLST376:
	.byte	0x6
	.quad	.LVL125
	.byte	0x4
	.uleb128 .LVL125-.LVL125
	.uleb128 .LVL174-.LVL125
	.uleb128 0x1
	.byte	0x5a
	.byte	0x4
	.uleb128 .LVL212-.LVL125
	.uleb128 .LVL213-.LVL125
	.uleb128 0x1
	.byte	0x5a
	.byte	0x4
	.uleb128 .LVL215-.LVL125
	.uleb128 .LVL217-.LVL125
	.uleb128 0x1
	.byte	0x5a
	.byte	0
.LVUS417:
	.uleb128 .LVU533
	.uleb128 .LVU548
.LLST417:
	.byte	0x8
	.quad	.LVL98
	.uleb128 .LVL99-.LVL98
	.uleb128 0x2
	.byte	0x90
	.uleb128 0x47
	.byte	0
.LVUS418:
	.uleb128 .LVU539
	.uleb128 .LVU611
.LLST418:
	.byte	0x8
	.quad	.LVL98
	.uleb128 .LVL104-.LVL98
	.uleb128 0x1
	.byte	0x69
	.byte	0
.LVUS419:
	.uleb128 .LVU550
	.uleb128 .LVU601
.LLST419:
	.byte	0x8
	.quad	.LVL100
	.uleb128 .LVL102-.LVL100
	.uleb128 0x1
	.byte	0x6f
	.byte	0
.LVUS420:
	.uleb128 .LVU556
	.uleb128 .LVU621
.LLST420:
	.byte	0x8
	.quad	.LVL100
	.uleb128 .LVL106-.LVL100
	.uleb128 0x1
	.byte	0x67
	.byte	0
.LVUS421:
	.uleb128 .LVU568
	.uleb128 .LVU616
.LLST421:
	.byte	0x8
	.quad	.LVL100
	.uleb128 .LVL105-.LVL100
	.uleb128 0x1
	.byte	0x68
	.byte	0
.LVUS422:
	.uleb128 .LVU576
	.uleb128 .LVU606
.LLST422:
	.byte	0x8
	.quad	.LVL101
	.uleb128 .LVL103-.LVL101
	.uleb128 0x1
	.byte	0x6a
	.byte	0
.LVUS423:
	.uleb128 .LVU582
	.uleb128 .LVU626
.LLST423:
	.byte	0x8
	.quad	.LVL101
	.uleb128 .LVL107-.LVL101
	.uleb128 0x1
	.byte	0x65
	.byte	0
.LVUS424:
	.uleb128 .LVU592
	.uleb128 .LVU601
	.uleb128 .LVU601
	.uleb128 .LVU611
	.uleb128 .LVU611
	.uleb128 .LVU621
	.uleb128 .LVU621
	.uleb128 .LVU647
.LLST424:
	.byte	0x6
	.quad	.LVL101
	.byte	0x4
	.uleb128 .LVL101-.LVL101
	.uleb128 .LVL102-.LVL101
	.uleb128 0x2
	.byte	0x90
	.uleb128 0x47
	.byte	0x4
	.uleb128 .LVL102-.LVL101
	.uleb128 .LVL104-.LVL101
	.uleb128 0x1
	.byte	0x6f
	.byte	0x4
	.uleb128 .LVL104-.LVL101
	.uleb128 .LVL106-.LVL101
	.uleb128 0x1
	.byte	0x69
	.byte	0x4
	.uleb128 .LVL106-.LVL101
	.uleb128 .LVL111-.LVL101
	.uleb128 0x1
	.byte	0x67
	.byte	0
.LVUS425:
	.uleb128 .LVU596
	.uleb128 .LVU606
	.uleb128 .LVU606
	.uleb128 .LVU616
	.uleb128 .LVU616
	.uleb128 .LVU626
	.uleb128 .LVU626
	.uleb128 .LVU647
.LLST425:
	.byte	0x6
	.quad	.LVL101
	.byte	0x4
	.uleb128 .LVL101-.LVL101
	.uleb128 .LVL103-.LVL101
	.uleb128 0x2
	.byte	0x90
	.uleb128 0x46
	.byte	0x4
	.uleb128 .LVL103-.LVL101
	.uleb128 .LVL105-.LVL101
	.uleb128 0x1
	.byte	0x6a
	.byte	0x4
	.uleb128 .LVL105-.LVL101
	.uleb128 .LVL107-.LVL101
	.uleb128 0x1
	.byte	0x68
	.byte	0x4
	.uleb128 .LVL107-.LVL101
	.uleb128 .LVL111-.LVL101
	.uleb128 0x1
	.byte	0x65
	.byte	0
.LVUS427:
	.uleb128 .LVU459
	.uleb128 .LVU463
.LLST427:
	.byte	0x8
	.quad	.LVL95
	.uleb128 .LVL95-.LVL95
	.uleb128 0x5
	.byte	0x72
	.sleb128 0
	.byte	0x7e
	.sleb128 0
	.byte	0x22
	.byte	0
.LVUS428:
	.uleb128 .LVU461
	.uleb128 .LVU463
.LLST428:
	.byte	0x8
	.quad	.LVL95
	.uleb128 .LVL95-.LVL95
	.uleb128 0x2
	.byte	0x30
	.byte	0x9f
	.byte	0
.LVUS429:
	.uleb128 .LVU461
	.uleb128 .LVU463
.LLST429:
	.byte	0x8
	.quad	.LVL95
	.uleb128 .LVL95-.LVL95
	.uleb128 0x5
	.byte	0x72
	.sleb128 0
	.byte	0x7e
	.sleb128 0
	.byte	0x22
	.byte	0
.LVUS432:
	.uleb128 .LVU465
	.uleb128 .LVU471
.LLST432:
	.byte	0x8
	.quad	.LVL95
	.uleb128 .LVL95-.LVL95
	.uleb128 0x1
	.byte	0x50
	.byte	0
.LVUS433:
	.uleb128 .LVU467
	.uleb128 .LVU471
.LLST433:
	.byte	0x8
	.quad	.LVL95
	.uleb128 .LVL95-.LVL95
	.uleb128 0x2
	.byte	0x70
	.sleb128 0
	.byte	0
.LVUS434:
	.uleb128 .LVU469
	.uleb128 .LVU471
.LLST434:
	.byte	0x8
	.quad	.LVL95
	.uleb128 .LVL95-.LVL95
	.uleb128 0x2
	.byte	0x30
	.byte	0x9f
	.byte	0
.LVUS435:
	.uleb128 .LVU469
	.uleb128 .LVU471
.LLST435:
	.byte	0x8
	.quad	.LVL95
	.uleb128 .LVL95-.LVL95
	.uleb128 0x2
	.byte	0x70
	.sleb128 0
	.byte	0
.LVUS436:
	.uleb128 .LVU475
	.uleb128 .LVU479
.LLST436:
	.byte	0x8
	.quad	.LVL95
	.uleb128 .LVL95-.LVL95
	.uleb128 0x7
	.byte	0x72
	.sleb128 0
	.byte	0x7e
	.sleb128 0
	.byte	0x22
	.byte	0x23
	.uleb128 0x3
	.byte	0
.LVUS437:
	.uleb128 .LVU477
	.uleb128 .LVU479
.LLST437:
	.byte	0x8
	.quad	.LVL95
	.uleb128 .LVL95-.LVL95
	.uleb128 0x2
	.byte	0x30
	.byte	0x9f
	.byte	0
.LVUS438:
	.uleb128 .LVU477
	.uleb128 .LVU479
.LLST438:
	.byte	0x8
	.quad	.LVL95
	.uleb128 .LVL95-.LVL95
	.uleb128 0x7
	.byte	0x72
	.sleb128 0
	.byte	0x7e
	.sleb128 0
	.byte	0x22
	.byte	0x23
	.uleb128 0x3
	.byte	0
.LVUS439:
	.uleb128 .LVU481
	.uleb128 .LVU487
.LLST439:
	.byte	0x8
	.quad	.LVL95
	.uleb128 .LVL95-.LVL95
	.uleb128 0x3
	.byte	0x70
	.sleb128 3
	.byte	0x9f
	.byte	0
.LVUS440:
	.uleb128 .LVU483
	.uleb128 .LVU487
.LLST440:
	.byte	0x8
	.quad	.LVL95
	.uleb128 .LVL95-.LVL95
	.uleb128 0x2
	.byte	0x70
	.sleb128 3
	.byte	0
.LVUS441:
	.uleb128 .LVU485
	.uleb128 .LVU487
.LLST441:
	.byte	0x8
	.quad	.LVL95
	.uleb128 .LVL95-.LVL95
	.uleb128 0x2
	.byte	0x30
	.byte	0x9f
	.byte	0
.LVUS442:
	.uleb128 .LVU485
	.uleb128 .LVU487
.LLST442:
	.byte	0x8
	.quad	.LVL95
	.uleb128 .LVL95-.LVL95
	.uleb128 0x2
	.byte	0x70
	.sleb128 3
	.byte	0
.LVUS443:
	.uleb128 .LVU491
	.uleb128 .LVU495
.LLST443:
	.byte	0x8
	.quad	.LVL95
	.uleb128 .LVL95-.LVL95
	.uleb128 0x7
	.byte	0x72
	.sleb128 0
	.byte	0x7e
	.sleb128 0
	.byte	0x22
	.byte	0x23
	.uleb128 0x8
	.byte	0
.LVUS444:
	.uleb128 .LVU493
	.uleb128 .LVU495
.LLST444:
	.byte	0x8
	.quad	.LVL95
	.uleb128 .LVL95-.LVL95
	.uleb128 0x2
	.byte	0x30
	.byte	0x9f
	.byte	0
.LVUS445:
	.uleb128 .LVU493
	.uleb128 .LVU495
.LLST445:
	.byte	0x8
	.quad	.LVL95
	.uleb128 .LVL95-.LVL95
	.uleb128 0x7
	.byte	0x72
	.sleb128 0
	.byte	0x7e
	.sleb128 0
	.byte	0x22
	.byte	0x23
	.uleb128 0x8
	.byte	0
.LVUS446:
	.uleb128 .LVU497
	.uleb128 .LVU503
.LLST446:
	.byte	0x8
	.quad	.LVL95
	.uleb128 .LVL95-.LVL95
	.uleb128 0x3
	.byte	0x70
	.sleb128 8
	.byte	0x9f
	.byte	0
.LVUS447:
	.uleb128 .LVU499
	.uleb128 .LVU503
.LLST447:
	.byte	0x8
	.quad	.LVL95
	.uleb128 .LVL95-.LVL95
	.uleb128 0x2
	.byte	0x70
	.sleb128 8
	.byte	0
.LVUS448:
	.uleb128 .LVU501
	.uleb128 .LVU503
.LLST448:
	.byte	0x8
	.quad	.LVL95
	.uleb128 .LVL95-.LVL95
	.uleb128 0x2
	.byte	0x30
	.byte	0x9f
	.byte	0
.LVUS449:
	.uleb128 .LVU501
	.uleb128 .LVU503
.LLST449:
	.byte	0x8
	.quad	.LVL95
	.uleb128 .LVL95-.LVL95
	.uleb128 0x2
	.byte	0x70
	.sleb128 8
	.byte	0
.LVUS450:
	.uleb128 .LVU507
	.uleb128 .LVU511
.LLST450:
	.byte	0x8
	.quad	.LVL95
	.uleb128 .LVL95-.LVL95
	.uleb128 0x7
	.byte	0x72
	.sleb128 0
	.byte	0x7e
	.sleb128 0
	.byte	0x22
	.byte	0x23
	.uleb128 0xb
	.byte	0
.LVUS451:
	.uleb128 .LVU509
	.uleb128 .LVU511
.LLST451:
	.byte	0x8
	.quad	.LVL95
	.uleb128 .LVL95-.LVL95
	.uleb128 0x2
	.byte	0x30
	.byte	0x9f
	.byte	0
.LVUS452:
	.uleb128 .LVU509
	.uleb128 .LVU511
.LLST452:
	.byte	0x8
	.quad	.LVL95
	.uleb128 .LVL95-.LVL95
	.uleb128 0x7
	.byte	0x72
	.sleb128 0
	.byte	0x7e
	.sleb128 0
	.byte	0x22
	.byte	0x23
	.uleb128 0xb
	.byte	0
.LVUS453:
	.uleb128 .LVU513
	.uleb128 .LVU519
.LLST453:
	.byte	0x8
	.quad	.LVL95
	.uleb128 .LVL95-.LVL95
	.uleb128 0x3
	.byte	0x70
	.sleb128 11
	.byte	0x9f
	.byte	0
.LVUS454:
	.uleb128 .LVU515
	.uleb128 .LVU519
.LLST454:
	.byte	0x8
	.quad	.LVL95
	.uleb128 .LVL95-.LVL95
	.uleb128 0x2
	.byte	0x70
	.sleb128 11
	.byte	0
.LVUS455:
	.uleb128 .LVU517
	.uleb128 .LVU519
.LLST455:
	.byte	0x8
	.quad	.LVL95
	.uleb128 .LVL95-.LVL95
	.uleb128 0x2
	.byte	0x30
	.byte	0x9f
	.byte	0
.LVUS456:
	.uleb128 .LVU517
	.uleb128 .LVU519
.LLST456:
	.byte	0x8
	.quad	.LVL95
	.uleb128 .LVL95-.LVL95
	.uleb128 0x2
	.byte	0x70
	.sleb128 11
	.byte	0
.LVUS461:
	.uleb128 .LVU526
	.uleb128 .LVU533
.LLST461:
	.byte	0x8
	.quad	.LVL97
	.uleb128 .LVL98-.LVL97
	.uleb128 0x2
	.byte	0x90
	.uleb128 0x47
	.byte	0
.LVUS470:
	.uleb128 .LVU543
	.uleb128 .LVU550
.LLST470:
	.byte	0x8
	.quad	.LVL98
	.uleb128 .LVL100-.LVL98
	.uleb128 0x1
	.byte	0x6f
	.byte	0
.LVUS474:
	.uleb128 .LVU572
	.uleb128 .LVU576
.LLST474:
	.byte	0x8
	.quad	.LVL100
	.uleb128 .LVL101-.LVL100
	.uleb128 0x1
	.byte	0x6a
	.byte	0
.LVUS475:
	.uleb128 .LVU598
	.uleb128 .LVU601
.LLST475:
	.byte	0x8
	.quad	.LVL101
	.uleb128 .LVL102-.LVL101
	.uleb128 0x1
	.byte	0x6f
	.byte	0
.LVUS476:
	.uleb128 .LVU598
	.uleb128 .LVU601
.LLST476:
	.byte	0x8
	.quad	.LVL101
	.uleb128 .LVL102-.LVL101
	.uleb128 0x2
	.byte	0x90
	.uleb128 0x47
	.byte	0
.LVUS477:
	.uleb128 .LVU603
	.uleb128 .LVU606
.LLST477:
	.byte	0x8
	.quad	.LVL102
	.uleb128 .LVL103-.LVL102
	.uleb128 0x1
	.byte	0x6a
	.byte	0
.LVUS478:
	.uleb128 .LVU603
	.uleb128 .LVU606
.LLST478:
	.byte	0x8
	.quad	.LVL102
	.uleb128 .LVL103-.LVL102
	.uleb128 0x2
	.byte	0x90
	.uleb128 0x46
	.byte	0
.LVUS479:
	.uleb128 .LVU608
	.uleb128 .LVU611
.LLST479:
	.byte	0x8
	.quad	.LVL103
	.uleb128 .LVL104-.LVL103
	.uleb128 0x1
	.byte	0x69
	.byte	0
.LVUS480:
	.uleb128 .LVU608
	.uleb128 .LVU611
.LLST480:
	.byte	0x8
	.quad	.LVL103
	.uleb128 .LVL104-.LVL103
	.uleb128 0x1
	.byte	0x6f
	.byte	0
.LVUS481:
	.uleb128 .LVU613
	.uleb128 .LVU616
.LLST481:
	.byte	0x8
	.quad	.LVL104
	.uleb128 .LVL105-.LVL104
	.uleb128 0x1
	.byte	0x68
	.byte	0
.LVUS482:
	.uleb128 .LVU613
	.uleb128 .LVU616
.LLST482:
	.byte	0x8
	.quad	.LVL104
	.uleb128 .LVL105-.LVL104
	.uleb128 0x1
	.byte	0x6a
	.byte	0
.LVUS483:
	.uleb128 .LVU618
	.uleb128 .LVU621
.LLST483:
	.byte	0x8
	.quad	.LVL105
	.uleb128 .LVL106-.LVL105
	.uleb128 0x1
	.byte	0x67
	.byte	0
.LVUS484:
	.uleb128 .LVU618
	.uleb128 .LVU621
.LLST484:
	.byte	0x8
	.quad	.LVL105
	.uleb128 .LVL106-.LVL105
	.uleb128 0x1
	.byte	0x69
	.byte	0
.LVUS485:
	.uleb128 .LVU623
	.uleb128 .LVU626
.LLST485:
	.byte	0x8
	.quad	.LVL106
	.uleb128 .LVL107-.LVL106
	.uleb128 0x1
	.byte	0x65
	.byte	0
.LVUS486:
	.uleb128 .LVU623
	.uleb128 .LVU626
.LLST486:
	.byte	0x8
	.quad	.LVL106
	.uleb128 .LVL107-.LVL106
	.uleb128 0x1
	.byte	0x68
	.byte	0
.LVUS487:
	.uleb128 .LVU628
	.uleb128 .LVU631
.LLST487:
	.byte	0x8
	.quad	.LVL107
	.uleb128 .LVL108-.LVL107
	.uleb128 0x1
	.byte	0x67
	.byte	0
.LVUS488:
	.uleb128 .LVU633
	.uleb128 .LVU636
.LLST488:
	.byte	0x8
	.quad	.LVL108
	.uleb128 .LVL109-.LVL108
	.uleb128 0x1
	.byte	0x65
	.byte	0
.LVUS377:
	.uleb128 .LVU699
	.uleb128 .LVU719
.LLST377:
	.byte	0x8
	.quad	.LVL117
	.uleb128 .LVL118-.LVL117
	.uleb128 0x1
	.byte	0x69
	.byte	0
.LVUS378:
	.uleb128 .LVU705
	.uleb128 .LVU739
.LLST378:
	.byte	0x8
	.quad	.LVL117
	.uleb128 .LVL122-.LVL117
	.uleb128 0x1
	.byte	0x67
	.byte	0
.LVUS379:
	.uleb128 .LVU711
	.uleb128 .LVU734
.LLST379:
	.byte	0x8
	.quad	.LVL117
	.uleb128 .LVL121-.LVL117
	.uleb128 0x1
	.byte	0x68
	.byte	0
.LVUS380:
	.uleb128 .LVU722
	.uleb128 .LVU744
.LLST380:
	.byte	0x8
	.quad	.LVL120
	.uleb128 .LVL123-.LVL120
	.uleb128 0x1
	.byte	0x65
	.byte	0
.LVUS381:
	.uleb128 .LVU729
	.uleb128 .LVU734
	.uleb128 .LVU734
	.uleb128 .LVU739
	.uleb128 .LVU739
	.uleb128 .LVU744
	.uleb128 .LVU744
	.uleb128 .LVU756
.LLST381:
	.byte	0x6
	.quad	.LVL120
	.byte	0x4
	.uleb128 .LVL120-.LVL120
	.uleb128 .LVL121-.LVL120
	.uleb128 0x1
	.byte	0x69
	.byte	0x4
	.uleb128 .LVL121-.LVL120
	.uleb128 .LVL122-.LVL120
	.uleb128 0x1
	.byte	0x68
	.byte	0x4
	.uleb128 .LVL122-.LVL120
	.uleb128 .LVL123-.LVL120
	.uleb128 0x1
	.byte	0x67
	.byte	0x4
	.uleb128 .LVL123-.LVL120
	.uleb128 .LVL124-.LVL120
	.uleb128 0x1
	.byte	0x65
	.byte	0
.LVUS382:
	.uleb128 .LVU648
	.uleb128 .LVU654
.LLST382:
	.byte	0x8
	.quad	.LVL111
	.uleb128 .LVL111-.LVL111
	.uleb128 0x8
	.byte	0x75
	.sleb128 0
	.byte	0x77
	.sleb128 216
	.byte	0x6
	.byte	0x22
	.byte	0x9f
	.byte	0
.LVUS383:
	.uleb128 .LVU650
	.uleb128 .LVU654
.LLST383:
	.byte	0x8
	.quad	.LVL111
	.uleb128 .LVL111-.LVL111
	.uleb128 0x7
	.byte	0x75
	.sleb128 0
	.byte	0x77
	.sleb128 216
	.byte	0x6
	.byte	0x22
	.byte	0
.LVUS384:
	.uleb128 .LVU652
	.uleb128 .LVU654
.LLST384:
	.byte	0x8
	.quad	.LVL111
	.uleb128 .LVL111-.LVL111
	.uleb128 0x2
	.byte	0x30
	.byte	0x9f
	.byte	0
.LVUS385:
	.uleb128 .LVU652
	.uleb128 .LVU654
.LLST385:
	.byte	0x8
	.quad	.LVL111
	.uleb128 .LVL111-.LVL111
	.uleb128 0x7
	.byte	0x75
	.sleb128 0
	.byte	0x77
	.sleb128 216
	.byte	0x6
	.byte	0x22
	.byte	0
.LVUS386:
	.uleb128 .LVU656
	.uleb128 .LVU662
.LLST386:
	.byte	0x8
	.quad	.LVL111
	.uleb128 .LVL111-.LVL111
	.uleb128 0x6
	.byte	0x75
	.sleb128 0
	.byte	0x74
	.sleb128 0
	.byte	0x22
	.byte	0x9f
	.byte	0
.LVUS387:
	.uleb128 .LVU658
	.uleb128 .LVU662
.LLST387:
	.byte	0x8
	.quad	.LVL111
	.uleb128 .LVL111-.LVL111
	.uleb128 0x5
	.byte	0x75
	.sleb128 0
	.byte	0x74
	.sleb128 0
	.byte	0x22
	.byte	0
.LVUS388:
	.uleb128 .LVU660
	.uleb128 .LVU662
.LLST388:
	.byte	0x8
	.quad	.LVL111
	.uleb128 .LVL111-.LVL111
	.uleb128 0x2
	.byte	0x30
	.byte	0x9f
	.byte	0
.LVUS389:
	.uleb128 .LVU660
	.uleb128 .LVU662
.LLST389:
	.byte	0x8
	.quad	.LVL111
	.uleb128 .LVL111-.LVL111
	.uleb128 0x5
	.byte	0x75
	.sleb128 0
	.byte	0x74
	.sleb128 0
	.byte	0x22
	.byte	0
.LVUS390:
	.uleb128 .LVU664
	.uleb128 .LVU670
.LLST390:
	.byte	0x8
	.quad	.LVL111
	.uleb128 .LVL111-.LVL111
	.uleb128 0x6
	.byte	0x75
	.sleb128 0
	.byte	0x78
	.sleb128 0
	.byte	0x22
	.byte	0x9f
	.byte	0
.LVUS391:
	.uleb128 .LVU666
	.uleb128 .LVU670
.LLST391:
	.byte	0x8
	.quad	.LVL111
	.uleb128 .LVL111-.LVL111
	.uleb128 0x5
	.byte	0x75
	.sleb128 0
	.byte	0x78
	.sleb128 0
	.byte	0x22
	.byte	0
.LVUS392:
	.uleb128 .LVU668
	.uleb128 .LVU670
.LLST392:
	.byte	0x8
	.quad	.LVL111
	.uleb128 .LVL111-.LVL111
	.uleb128 0x2
	.byte	0x30
	.byte	0x9f
	.byte	0
.LVUS393:
	.uleb128 .LVU668
	.uleb128 .LVU670
.LLST393:
	.byte	0x8
	.quad	.LVL111
	.uleb128 .LVL111-.LVL111
	.uleb128 0x5
	.byte	0x75
	.sleb128 0
	.byte	0x78
	.sleb128 0
	.byte	0x22
	.byte	0
.LVUS394:
	.uleb128 .LVU672
	.uleb128 .LVU678
.LLST394:
	.byte	0x8
	.quad	.LVL111
	.uleb128 .LVL111-.LVL111
	.uleb128 0x8
	.byte	0x75
	.sleb128 0
	.byte	0x77
	.sleb128 208
	.byte	0x6
	.byte	0x22
	.byte	0x9f
	.byte	0
.LVUS395:
	.uleb128 .LVU674
	.uleb128 .LVU678
.LLST395:
	.byte	0x8
	.quad	.LVL111
	.uleb128 .LVL111-.LVL111
	.uleb128 0x7
	.byte	0x75
	.sleb128 0
	.byte	0x77
	.sleb128 208
	.byte	0x6
	.byte	0x22
	.byte	0
.LVUS396:
	.uleb128 .LVU676
	.uleb128 .LVU678
.LLST396:
	.byte	0x8
	.quad	.LVL111
	.uleb128 .LVL111-.LVL111
	.uleb128 0x2
	.byte	0x30
	.byte	0x9f
	.byte	0
.LVUS397:
	.uleb128 .LVU676
	.uleb128 .LVU678
.LLST397:
	.byte	0x8
	.quad	.LVL111
	.uleb128 .LVL111-.LVL111
	.uleb128 0x7
	.byte	0x75
	.sleb128 0
	.byte	0x77
	.sleb128 208
	.byte	0x6
	.byte	0x22
	.byte	0
.LVUS403:
	.uleb128 .LVU689
	.uleb128 .LVU699
.LLST403:
	.byte	0x8
	.quad	.LVL115
	.uleb128 .LVL117-.LVL115
	.uleb128 0x1
	.byte	0x69
	.byte	0
.LVUS407:
	.uleb128 .LVU715
	.uleb128 .LVU722
.LLST407:
	.byte	0x8
	.quad	.LVL117
	.uleb128 .LVL120-.LVL117
	.uleb128 0x1
	.byte	0x65
	.byte	0
.LVUS409:
	.uleb128 .LVU731
	.uleb128 .LVU734
.LLST409:
	.byte	0x8
	.quad	.LVL120
	.uleb128 .LVL121-.LVL120
	.uleb128 0x1
	.byte	0x68
	.byte	0
.LVUS410:
	.uleb128 .LVU731
	.uleb128 .LVU734
.LLST410:
	.byte	0x8
	.quad	.LVL120
	.uleb128 .LVL121-.LVL120
	.uleb128 0x1
	.byte	0x69
	.byte	0
.LVUS411:
	.uleb128 .LVU736
	.uleb128 .LVU739
.LLST411:
	.byte	0x8
	.quad	.LVL121
	.uleb128 .LVL122-.LVL121
	.uleb128 0x1
	.byte	0x67
	.byte	0
.LVUS412:
	.uleb128 .LVU736
	.uleb128 .LVU739
.LLST412:
	.byte	0x8
	.quad	.LVL121
	.uleb128 .LVL122-.LVL121
	.uleb128 0x1
	.byte	0x68
	.byte	0
.LVUS413:
	.uleb128 .LVU741
	.uleb128 .LVU744
.LLST413:
	.byte	0x8
	.quad	.LVL122
	.uleb128 .LVL123-.LVL122
	.uleb128 0x1
	.byte	0x65
	.byte	0
.LVUS414:
	.uleb128 .LVU741
	.uleb128 .LVU744
.LLST414:
	.byte	0x8
	.quad	.LVL122
	.uleb128 .LVL123-.LVL122
	.uleb128 0x1
	.byte	0x67
	.byte	0
.LVUS415:
	.uleb128 .LVU746
	.uleb128 .LVU749
.LLST415:
	.byte	0x8
	.quad	.LVL123
	.uleb128 .LVL124-.LVL123
	.uleb128 0x1
	.byte	0x65
	.byte	0
.LVUS490:
	.uleb128 .LVU760
	.uleb128 .LVU764
	.uleb128 .LVU936
	.uleb128 .LVU951
	.uleb128 .LVU951
	.uleb128 .LVU956
	.uleb128 .LVU956
	.uleb128 .LVU968
	.uleb128 .LVU968
	.uleb128 .LVU975
	.uleb128 .LVU975
	.uleb128 .LVU987
	.uleb128 .LVU987
	.uleb128 .LVU994
	.uleb128 .LVU994
	.uleb128 .LVU1007
	.uleb128 .LVU1007
	.uleb128 .LVU1014
	.uleb128 .LVU1014
	.uleb128 .LVU1023
	.uleb128 .LVU1023
	.uleb128 .LVU1025
	.uleb128 .LVU1037
	.uleb128 .LVU1045
	.uleb128 .LVU1224
	.uleb128 .LVU1230
	.uleb128 .LVU1234
	.uleb128 .LVU1236
.LLST490:
	.byte	0x6
	.quad	.LVL125
	.byte	0x4
	.uleb128 .LVL125-.LVL125
	.uleb128 .LVL127-.LVL125
	.uleb128 0x2
	.byte	0x30
	.byte	0x9f
	.byte	0x4
	.uleb128 .LVL143-.LVL125
	.uleb128 .LVL145-.LVL125
	.uleb128 0x1
	.byte	0x52
	.byte	0x4
	.uleb128 .LVL145-.LVL125
	.uleb128 .LVL146-.LVL125
	.uleb128 0x3
	.byte	0x70
	.sleb128 1
	.byte	0x9f
	.byte	0x4
	.uleb128 .LVL146-.LVL125
	.uleb128 .LVL148-.LVL125
	.uleb128 0x1
	.byte	0x52
	.byte	0x4
	.uleb128 .LVL148-.LVL125
	.uleb128 .LVL149-.LVL125
	.uleb128 0x3
	.byte	0x70
	.sleb128 2
	.byte	0x9f
	.byte	0x4
	.uleb128 .LVL149-.LVL125
	.uleb128 .LVL151-.LVL125
	.uleb128 0x1
	.byte	0x52
	.byte	0x4
	.uleb128 .LVL151-.LVL125
	.uleb128 .LVL152-.LVL125
	.uleb128 0x3
	.byte	0x70
	.sleb128 3
	.byte	0x9f
	.byte	0x4
	.uleb128 .LVL152-.LVL125
	.uleb128 .LVL154-.LVL125
	.uleb128 0x1
	.byte	0x52
	.byte	0x4
	.uleb128 .LVL154-.LVL125
	.uleb128 .LVL155-.LVL125
	.uleb128 0x3
	.byte	0x70
	.sleb128 4
	.byte	0x9f
	.byte	0x4
	.uleb128 .LVL155-.LVL125
	.uleb128 .LVL157-.LVL125
	.uleb128 0x1
	.byte	0x52
	.byte	0x4
	.uleb128 .LVL157-.LVL125
	.uleb128 .LVL158-.LVL125
	.uleb128 0x3
	.byte	0x70
	.sleb128 5
	.byte	0x9f
	.byte	0x4
	.uleb128 .LVL164-.LVL125
	.uleb128 .LVL166-.LVL125
	.uleb128 0x1
	.byte	0x50
	.byte	0x4
	.uleb128 .LVL212-.LVL125
	.uleb128 .LVL213-.LVL125
	.uleb128 0x2
	.byte	0x30
	.byte	0x9f
	.byte	0x4
	.uleb128 .LVL215-.LVL125
	.uleb128 .LVL216-.LVL125
	.uleb128 0x2
	.byte	0x30
	.byte	0x9f
	.byte	0
.LVUS492:
	.uleb128 .LVU920
	.uleb128 .LVU927
	.uleb128 .LVU927
	.uleb128 .LVU939
	.uleb128 .LVU939
	.uleb128 .LVU951
	.uleb128 .LVU951
	.uleb128 .LVU959
	.uleb128 .LVU959
	.uleb128 .LVU968
	.uleb128 .LVU968
	.uleb128 .LVU978
	.uleb128 .LVU978
	.uleb128 .LVU987
	.uleb128 .LVU987
	.uleb128 .LVU997
	.uleb128 .LVU997
	.uleb128 .LVU1007
	.uleb128 .LVU1007
	.uleb128 .LVU1017
	.uleb128 .LVU1017
	.uleb128 .LVU1023
	.uleb128 .LVU1023
	.uleb128 .LVU1025
	.uleb128 .LVU1026
	.uleb128 .LVU1028
	.uleb128 .LVU1040
	.uleb128 .LVU1045
	.uleb128 .LVU1046
	.uleb128 .LVU1048
.LLST492:
	.byte	0x6
	.quad	.LVL141
	.byte	0x4
	.uleb128 .LVL141-.LVL141
	.uleb128 .LVL142-.LVL141
	.uleb128 0x11
	.byte	0x75
	.sleb128 0
	.byte	0x72
	.sleb128 0
	.byte	0x22
	.byte	0x77
	.sleb128 216
	.byte	0x6
	.byte	0x22
	.byte	0x94
	.byte	0x1
	.byte	0xa8
	.uleb128 0x37
	.byte	0xa8
	.uleb128 0x30
	.byte	0x9f
	.byte	0x4
	.uleb128 .LVL142-.LVL141
	.uleb128 .LVL144-.LVL141
	.uleb128 0x17
	.byte	0x70
	.sleb128 0
	.byte	0x8
	.byte	0x20
	.byte	0x24
	.byte	0x8
	.byte	0x20
	.byte	0x26
	.byte	0x75
	.sleb128 0
	.byte	0x22
	.byte	0x77
	.sleb128 216
	.byte	0x6
	.byte	0x22
	.byte	0x94
	.byte	0x1
	.byte	0xa8
	.uleb128 0x37
	.byte	0xa8
	.uleb128 0x30
	.byte	0x9f
	.byte	0x4
	.uleb128 .LVL144-.LVL141
	.uleb128 .LVL145-.LVL141
	.uleb128 0x11
	.byte	0x75
	.sleb128 0
	.byte	0x72
	.sleb128 0
	.byte	0x22
	.byte	0x77
	.sleb128 216
	.byte	0x6
	.byte	0x22
	.byte	0x94
	.byte	0x1
	.byte	0xa8
	.uleb128 0x37
	.byte	0xa8
	.uleb128 0x30
	.byte	0x9f
	.byte	0x4
	.uleb128 .LVL145-.LVL141
	.uleb128 .LVL147-.LVL141
	.uleb128 0x17
	.byte	0x70
	.sleb128 1
	.byte	0xc
	.long	0xffffffff
	.byte	0x1a
	.byte	0x75
	.sleb128 0
	.byte	0x22
	.byte	0x77
	.sleb128 216
	.byte	0x6
	.byte	0x22
	.byte	0x94
	.byte	0x1
	.byte	0xa8
	.uleb128 0x37
	.byte	0xa8
	.uleb128 0x30
	.byte	0x9f
	.byte	0x4
	.uleb128 .LVL147-.LVL141
	.uleb128 .LVL148-.LVL141
	.uleb128 0x11
	.byte	0x75
	.sleb128 0
	.byte	0x72
	.sleb128 0
	.byte	0x22
	.byte	0x77
	.sleb128 216
	.byte	0x6
	.byte	0x22
	.byte	0x94
	.byte	0x1
	.byte	0xa8
	.uleb128 0x37
	.byte	0xa8
	.uleb128 0x30
	.byte	0x9f
	.byte	0x4
	.uleb128 .LVL148-.LVL141
	.uleb128 .LVL150-.LVL141
	.uleb128 0x17
	.byte	0x70
	.sleb128 2
	.byte	0xc
	.long	0xffffffff
	.byte	0x1a
	.byte	0x75
	.sleb128 0
	.byte	0x22
	.byte	0x77
	.sleb128 216
	.byte	0x6
	.byte	0x22
	.byte	0x94
	.byte	0x1
	.byte	0xa8
	.uleb128 0x37
	.byte	0xa8
	.uleb128 0x30
	.byte	0x9f
	.byte	0x4
	.uleb128 .LVL150-.LVL141
	.uleb128 .LVL151-.LVL141
	.uleb128 0x11
	.byte	0x75
	.sleb128 0
	.byte	0x72
	.sleb128 0
	.byte	0x22
	.byte	0x77
	.sleb128 216
	.byte	0x6
	.byte	0x22
	.byte	0x94
	.byte	0x1
	.byte	0xa8
	.uleb128 0x37
	.byte	0xa8
	.uleb128 0x30
	.byte	0x9f
	.byte	0x4
	.uleb128 .LVL151-.LVL141
	.uleb128 .LVL153-.LVL141
	.uleb128 0x17
	.byte	0x70
	.sleb128 3
	.byte	0xc
	.long	0xffffffff
	.byte	0x1a
	.byte	0x75
	.sleb128 0
	.byte	0x22
	.byte	0x77
	.sleb128 216
	.byte	0x6
	.byte	0x22
	.byte	0x94
	.byte	0x1
	.byte	0xa8
	.uleb128 0x37
	.byte	0xa8
	.uleb128 0x30
	.byte	0x9f
	.byte	0x4
	.uleb128 .LVL153-.LVL141
	.uleb128 .LVL154-.LVL141
	.uleb128 0x11
	.byte	0x75
	.sleb128 0
	.byte	0x72
	.sleb128 0
	.byte	0x22
	.byte	0x77
	.sleb128 216
	.byte	0x6
	.byte	0x22
	.byte	0x94
	.byte	0x1
	.byte	0xa8
	.uleb128 0x37
	.byte	0xa8
	.uleb128 0x30
	.byte	0x9f
	.byte	0x4
	.uleb128 .LVL154-.LVL141
	.uleb128 .LVL156-.LVL141
	.uleb128 0x17
	.byte	0x70
	.sleb128 4
	.byte	0xc
	.long	0xffffffff
	.byte	0x1a
	.byte	0x75
	.sleb128 0
	.byte	0x22
	.byte	0x77
	.sleb128 216
	.byte	0x6
	.byte	0x22
	.byte	0x94
	.byte	0x1
	.byte	0xa8
	.uleb128 0x37
	.byte	0xa8
	.uleb128 0x30
	.byte	0x9f
	.byte	0x4
	.uleb128 .LVL156-.LVL141
	.uleb128 .LVL157-.LVL141
	.uleb128 0x11
	.byte	0x75
	.sleb128 0
	.byte	0x72
	.sleb128 0
	.byte	0x22
	.byte	0x77
	.sleb128 216
	.byte	0x6
	.byte	0x22
	.byte	0x94
	.byte	0x1
	.byte	0xa8
	.uleb128 0x37
	.byte	0xa8
	.uleb128 0x30
	.byte	0x9f
	.byte	0x4
	.uleb128 .LVL157-.LVL141
	.uleb128 .LVL158-.LVL141
	.uleb128 0x17
	.byte	0x70
	.sleb128 5
	.byte	0xc
	.long	0xffffffff
	.byte	0x1a
	.byte	0x75
	.sleb128 0
	.byte	0x22
	.byte	0x77
	.sleb128 216
	.byte	0x6
	.byte	0x22
	.byte	0x94
	.byte	0x1
	.byte	0xa8
	.uleb128 0x37
	.byte	0xa8
	.uleb128 0x30
	.byte	0x9f
	.byte	0x4
	.uleb128 .LVL159-.LVL141
	.uleb128 .LVL160-.LVL141
	.uleb128 0x7
	.byte	0x73
	.sleb128 0
	.byte	0xa8
	.uleb128 0x37
	.byte	0xa8
	.uleb128 0x30
	.byte	0x9f
	.byte	0x4
	.uleb128 .LVL165-.LVL141
	.uleb128 .LVL166-.LVL141
	.uleb128 0x11
	.byte	0x75
	.sleb128 0
	.byte	0x70
	.sleb128 0
	.byte	0x22
	.byte	0x77
	.sleb128 216
	.byte	0x6
	.byte	0x22
	.byte	0x94
	.byte	0x1
	.byte	0xa8
	.uleb128 0x37
	.byte	0xa8
	.uleb128 0x30
	.byte	0x9f
	.byte	0x4
	.uleb128 .LVL167-.LVL141
	.uleb128 .LVL168-.LVL141
	.uleb128 0x7
	.byte	0x72
	.sleb128 0
	.byte	0xa8
	.uleb128 0x37
	.byte	0xa8
	.uleb128 0x30
	.byte	0x9f
	.byte	0
.LVUS493:
	.uleb128 .LVU921
	.uleb128 .LVU927
	.uleb128 .LVU927
	.uleb128 .LVU940
	.uleb128 .LVU940
	.uleb128 .LVU951
	.uleb128 .LVU951
	.uleb128 .LVU960
	.uleb128 .LVU960
	.uleb128 .LVU968
	.uleb128 .LVU968
	.uleb128 .LVU979
	.uleb128 .LVU979
	.uleb128 .LVU987
	.uleb128 .LVU987
	.uleb128 .LVU998
	.uleb128 .LVU998
	.uleb128 .LVU1007
	.uleb128 .LVU1007
	.uleb128 .LVU1018
	.uleb128 .LVU1018
	.uleb128 .LVU1023
	.uleb128 .LVU1023
	.uleb128 .LVU1025
	.uleb128 .LVU1028
	.uleb128 .LVU1030
	.uleb128 .LVU1041
	.uleb128 .LVU1045
	.uleb128 .LVU1048
	.uleb128 .LVU1050
.LLST493:
	.byte	0x6
	.quad	.LVL141
	.byte	0x4
	.uleb128 .LVL141-.LVL141
	.uleb128 .LVL142-.LVL141
	.uleb128 0xf
	.byte	0x75
	.sleb128 0
	.byte	0x72
	.sleb128 0
	.byte	0x22
	.byte	0x78
	.sleb128 0
	.byte	0x22
	.byte	0x94
	.byte	0x1
	.byte	0xa8
	.uleb128 0x37
	.byte	0xa8
	.uleb128 0x30
	.byte	0x9f
	.byte	0x4
	.uleb128 .LVL142-.LVL141
	.uleb128 .LVL144-.LVL141
	.uleb128 0x15
	.byte	0x70
	.sleb128 0
	.byte	0x8
	.byte	0x20
	.byte	0x24
	.byte	0x8
	.byte	0x20
	.byte	0x26
	.byte	0x75
	.sleb128 0
	.byte	0x22
	.byte	0x78
	.sleb128 0
	.byte	0x22
	.byte	0x94
	.byte	0x1
	.byte	0xa8
	.uleb128 0x37
	.byte	0xa8
	.uleb128 0x30
	.byte	0x9f
	.byte	0x4
	.uleb128 .LVL144-.LVL141
	.uleb128 .LVL145-.LVL141
	.uleb128 0xf
	.byte	0x75
	.sleb128 0
	.byte	0x72
	.sleb128 0
	.byte	0x22
	.byte	0x78
	.sleb128 0
	.byte	0x22
	.byte	0x94
	.byte	0x1
	.byte	0xa8
	.uleb128 0x37
	.byte	0xa8
	.uleb128 0x30
	.byte	0x9f
	.byte	0x4
	.uleb128 .LVL145-.LVL141
	.uleb128 .LVL147-.LVL141
	.uleb128 0x15
	.byte	0x70
	.sleb128 1
	.byte	0xc
	.long	0xffffffff
	.byte	0x1a
	.byte	0x75
	.sleb128 0
	.byte	0x22
	.byte	0x78
	.sleb128 0
	.byte	0x22
	.byte	0x94
	.byte	0x1
	.byte	0xa8
	.uleb128 0x37
	.byte	0xa8
	.uleb128 0x30
	.byte	0x9f
	.byte	0x4
	.uleb128 .LVL147-.LVL141
	.uleb128 .LVL148-.LVL141
	.uleb128 0xf
	.byte	0x75
	.sleb128 0
	.byte	0x72
	.sleb128 0
	.byte	0x22
	.byte	0x78
	.sleb128 0
	.byte	0x22
	.byte	0x94
	.byte	0x1
	.byte	0xa8
	.uleb128 0x37
	.byte	0xa8
	.uleb128 0x30
	.byte	0x9f
	.byte	0x4
	.uleb128 .LVL148-.LVL141
	.uleb128 .LVL150-.LVL141
	.uleb128 0x15
	.byte	0x70
	.sleb128 2
	.byte	0xc
	.long	0xffffffff
	.byte	0x1a
	.byte	0x75
	.sleb128 0
	.byte	0x22
	.byte	0x78
	.sleb128 0
	.byte	0x22
	.byte	0x94
	.byte	0x1
	.byte	0xa8
	.uleb128 0x37
	.byte	0xa8
	.uleb128 0x30
	.byte	0x9f
	.byte	0x4
	.uleb128 .LVL150-.LVL141
	.uleb128 .LVL151-.LVL141
	.uleb128 0xf
	.byte	0x75
	.sleb128 0
	.byte	0x72
	.sleb128 0
	.byte	0x22
	.byte	0x78
	.sleb128 0
	.byte	0x22
	.byte	0x94
	.byte	0x1
	.byte	0xa8
	.uleb128 0x37
	.byte	0xa8
	.uleb128 0x30
	.byte	0x9f
	.byte	0x4
	.uleb128 .LVL151-.LVL141
	.uleb128 .LVL153-.LVL141
	.uleb128 0x15
	.byte	0x70
	.sleb128 3
	.byte	0xc
	.long	0xffffffff
	.byte	0x1a
	.byte	0x75
	.sleb128 0
	.byte	0x22
	.byte	0x78
	.sleb128 0
	.byte	0x22
	.byte	0x94
	.byte	0x1
	.byte	0xa8
	.uleb128 0x37
	.byte	0xa8
	.uleb128 0x30
	.byte	0x9f
	.byte	0x4
	.uleb128 .LVL153-.LVL141
	.uleb128 .LVL154-.LVL141
	.uleb128 0xf
	.byte	0x75
	.sleb128 0
	.byte	0x72
	.sleb128 0
	.byte	0x22
	.byte	0x78
	.sleb128 0
	.byte	0x22
	.byte	0x94
	.byte	0x1
	.byte	0xa8
	.uleb128 0x37
	.byte	0xa8
	.uleb128 0x30
	.byte	0x9f
	.byte	0x4
	.uleb128 .LVL154-.LVL141
	.uleb128 .LVL156-.LVL141
	.uleb128 0x15
	.byte	0x70
	.sleb128 4
	.byte	0xc
	.long	0xffffffff
	.byte	0x1a
	.byte	0x75
	.sleb128 0
	.byte	0x22
	.byte	0x78
	.sleb128 0
	.byte	0x22
	.byte	0x94
	.byte	0x1
	.byte	0xa8
	.uleb128 0x37
	.byte	0xa8
	.uleb128 0x30
	.byte	0x9f
	.byte	0x4
	.uleb128 .LVL156-.LVL141
	.uleb128 .LVL157-.LVL141
	.uleb128 0xf
	.byte	0x75
	.sleb128 0
	.byte	0x72
	.sleb128 0
	.byte	0x22
	.byte	0x78
	.sleb128 0
	.byte	0x22
	.byte	0x94
	.byte	0x1
	.byte	0xa8
	.uleb128 0x37
	.byte	0xa8
	.uleb128 0x30
	.byte	0x9f
	.byte	0x4
	.uleb128 .LVL157-.LVL141
	.uleb128 .LVL158-.LVL141
	.uleb128 0x15
	.byte	0x70
	.sleb128 5
	.byte	0xc
	.long	0xffffffff
	.byte	0x1a
	.byte	0x75
	.sleb128 0
	.byte	0x22
	.byte	0x78
	.sleb128 0
	.byte	0x22
	.byte	0x94
	.byte	0x1
	.byte	0xa8
	.uleb128 0x37
	.byte	0xa8
	.uleb128 0x30
	.byte	0x9f
	.byte	0x4
	.uleb128 .LVL160-.LVL141
	.uleb128 .LVL161-.LVL141
	.uleb128 0x7
	.byte	0x73
	.sleb128 0
	.byte	0xa8
	.uleb128 0x37
	.byte	0xa8
	.uleb128 0x30
	.byte	0x9f
	.byte	0x4
	.uleb128 .LVL165-.LVL141
	.uleb128 .LVL166-.LVL141
	.uleb128 0xf
	.byte	0x75
	.sleb128 0
	.byte	0x70
	.sleb128 0
	.byte	0x22
	.byte	0x78
	.sleb128 0
	.byte	0x22
	.byte	0x94
	.byte	0x1
	.byte	0xa8
	.uleb128 0x37
	.byte	0xa8
	.uleb128 0x30
	.byte	0x9f
	.byte	0x4
	.uleb128 .LVL168-.LVL141
	.uleb128 .LVL169-.LVL141
	.uleb128 0x7
	.byte	0x72
	.sleb128 0
	.byte	0xa8
	.uleb128 0x37
	.byte	0xa8
	.uleb128 0x30
	.byte	0x9f
	.byte	0
.LVUS494:
	.uleb128 .LVU922
	.uleb128 .LVU927
	.uleb128 .LVU927
	.uleb128 .LVU941
	.uleb128 .LVU941
	.uleb128 .LVU951
	.uleb128 .LVU951
	.uleb128 .LVU961
	.uleb128 .LVU961
	.uleb128 .LVU968
	.uleb128 .LVU968
	.uleb128 .LVU980
	.uleb128 .LVU980
	.uleb128 .LVU987
	.uleb128 .LVU987
	.uleb128 .LVU999
	.uleb128 .LVU999
	.uleb128 .LVU1007
	.uleb128 .LVU1007
	.uleb128 .LVU1019
	.uleb128 .LVU1019
	.uleb128 .LVU1023
	.uleb128 .LVU1023
	.uleb128 .LVU1025
	.uleb128 .LVU1030
	.uleb128 .LVU1032
	.uleb128 .LVU1042
	.uleb128 .LVU1045
	.uleb128 .LVU1050
	.uleb128 .LVU1058
.LLST494:
	.byte	0x6
	.quad	.LVL141
	.byte	0x4
	.uleb128 .LVL141-.LVL141
	.uleb128 .LVL142-.LVL141
	.uleb128 0xf
	.byte	0x75
	.sleb128 0
	.byte	0x72
	.sleb128 0
	.byte	0x22
	.byte	0x74
	.sleb128 0
	.byte	0x22
	.byte	0x94
	.byte	0x1
	.byte	0xa8
	.uleb128 0x37
	.byte	0xa8
	.uleb128 0x30
	.byte	0x9f
	.byte	0x4
	.uleb128 .LVL142-.LVL141
	.uleb128 .LVL144-.LVL141
	.uleb128 0x15
	.byte	0x70
	.sleb128 0
	.byte	0x8
	.byte	0x20
	.byte	0x24
	.byte	0x8
	.byte	0x20
	.byte	0x26
	.byte	0x75
	.sleb128 0
	.byte	0x22
	.byte	0x74
	.sleb128 0
	.byte	0x22
	.byte	0x94
	.byte	0x1
	.byte	0xa8
	.uleb128 0x37
	.byte	0xa8
	.uleb128 0x30
	.byte	0x9f
	.byte	0x4
	.uleb128 .LVL144-.LVL141
	.uleb128 .LVL145-.LVL141
	.uleb128 0xf
	.byte	0x75
	.sleb128 0
	.byte	0x72
	.sleb128 0
	.byte	0x22
	.byte	0x74
	.sleb128 0
	.byte	0x22
	.byte	0x94
	.byte	0x1
	.byte	0xa8
	.uleb128 0x37
	.byte	0xa8
	.uleb128 0x30
	.byte	0x9f
	.byte	0x4
	.uleb128 .LVL145-.LVL141
	.uleb128 .LVL147-.LVL141
	.uleb128 0x15
	.byte	0x70
	.sleb128 1
	.byte	0xc
	.long	0xffffffff
	.byte	0x1a
	.byte	0x75
	.sleb128 0
	.byte	0x22
	.byte	0x74
	.sleb128 0
	.byte	0x22
	.byte	0x94
	.byte	0x1
	.byte	0xa8
	.uleb128 0x37
	.byte	0xa8
	.uleb128 0x30
	.byte	0x9f
	.byte	0x4
	.uleb128 .LVL147-.LVL141
	.uleb128 .LVL148-.LVL141
	.uleb128 0xf
	.byte	0x75
	.sleb128 0
	.byte	0x72
	.sleb128 0
	.byte	0x22
	.byte	0x74
	.sleb128 0
	.byte	0x22
	.byte	0x94
	.byte	0x1
	.byte	0xa8
	.uleb128 0x37
	.byte	0xa8
	.uleb128 0x30
	.byte	0x9f
	.byte	0x4
	.uleb128 .LVL148-.LVL141
	.uleb128 .LVL150-.LVL141
	.uleb128 0x15
	.byte	0x70
	.sleb128 2
	.byte	0xc
	.long	0xffffffff
	.byte	0x1a
	.byte	0x75
	.sleb128 0
	.byte	0x22
	.byte	0x74
	.sleb128 0
	.byte	0x22
	.byte	0x94
	.byte	0x1
	.byte	0xa8
	.uleb128 0x37
	.byte	0xa8
	.uleb128 0x30
	.byte	0x9f
	.byte	0x4
	.uleb128 .LVL150-.LVL141
	.uleb128 .LVL151-.LVL141
	.uleb128 0xf
	.byte	0x75
	.sleb128 0
	.byte	0x72
	.sleb128 0
	.byte	0x22
	.byte	0x74
	.sleb128 0
	.byte	0x22
	.byte	0x94
	.byte	0x1
	.byte	0xa8
	.uleb128 0x37
	.byte	0xa8
	.uleb128 0x30
	.byte	0x9f
	.byte	0x4
	.uleb128 .LVL151-.LVL141
	.uleb128 .LVL153-.LVL141
	.uleb128 0x15
	.byte	0x70
	.sleb128 3
	.byte	0xc
	.long	0xffffffff
	.byte	0x1a
	.byte	0x75
	.sleb128 0
	.byte	0x22
	.byte	0x74
	.sleb128 0
	.byte	0x22
	.byte	0x94
	.byte	0x1
	.byte	0xa8
	.uleb128 0x37
	.byte	0xa8
	.uleb128 0x30
	.byte	0x9f
	.byte	0x4
	.uleb128 .LVL153-.LVL141
	.uleb128 .LVL154-.LVL141
	.uleb128 0xf
	.byte	0x75
	.sleb128 0
	.byte	0x72
	.sleb128 0
	.byte	0x22
	.byte	0x74
	.sleb128 0
	.byte	0x22
	.byte	0x94
	.byte	0x1
	.byte	0xa8
	.uleb128 0x37
	.byte	0xa8
	.uleb128 0x30
	.byte	0x9f
	.byte	0x4
	.uleb128 .LVL154-.LVL141
	.uleb128 .LVL156-.LVL141
	.uleb128 0x15
	.byte	0x70
	.sleb128 4
	.byte	0xc
	.long	0xffffffff
	.byte	0x1a
	.byte	0x75
	.sleb128 0
	.byte	0x22
	.byte	0x74
	.sleb128 0
	.byte	0x22
	.byte	0x94
	.byte	0x1
	.byte	0xa8
	.uleb128 0x37
	.byte	0xa8
	.uleb128 0x30
	.byte	0x9f
	.byte	0x4
	.uleb128 .LVL156-.LVL141
	.uleb128 .LVL157-.LVL141
	.uleb128 0xf
	.byte	0x75
	.sleb128 0
	.byte	0x72
	.sleb128 0
	.byte	0x22
	.byte	0x74
	.sleb128 0
	.byte	0x22
	.byte	0x94
	.byte	0x1
	.byte	0xa8
	.uleb128 0x37
	.byte	0xa8
	.uleb128 0x30
	.byte	0x9f
	.byte	0x4
	.uleb128 .LVL157-.LVL141
	.uleb128 .LVL158-.LVL141
	.uleb128 0x15
	.byte	0x70
	.sleb128 5
	.byte	0xc
	.long	0xffffffff
	.byte	0x1a
	.byte	0x75
	.sleb128 0
	.byte	0x22
	.byte	0x74
	.sleb128 0
	.byte	0x22
	.byte	0x94
	.byte	0x1
	.byte	0xa8
	.uleb128 0x37
	.byte	0xa8
	.uleb128 0x30
	.byte	0x9f
	.byte	0x4
	.uleb128 .LVL161-.LVL141
	.uleb128 .LVL162-.LVL141
	.uleb128 0x7
	.byte	0x73
	.sleb128 0
	.byte	0xa8
	.uleb128 0x37
	.byte	0xa8
	.uleb128 0x30
	.byte	0x9f
	.byte	0x4
	.uleb128 .LVL165-.LVL141
	.uleb128 .LVL166-.LVL141
	.uleb128 0xf
	.byte	0x75
	.sleb128 0
	.byte	0x70
	.sleb128 0
	.byte	0x22
	.byte	0x74
	.sleb128 0
	.byte	0x22
	.byte	0x94
	.byte	0x1
	.byte	0xa8
	.uleb128 0x37
	.byte	0xa8
	.uleb128 0x30
	.byte	0x9f
	.byte	0x4
	.uleb128 .LVL169-.LVL141
	.uleb128 .LVL171-.LVL141
	.uleb128 0x7
	.byte	0x72
	.sleb128 0
	.byte	0xa8
	.uleb128 0x37
	.byte	0xa8
	.uleb128 0x30
	.byte	0x9f
	.byte	0
.LVUS495:
	.uleb128 .LVU923
	.uleb128 .LVU927
	.uleb128 .LVU927
	.uleb128 .LVU942
	.uleb128 .LVU942
	.uleb128 .LVU951
	.uleb128 .LVU951
	.uleb128 .LVU962
	.uleb128 .LVU962
	.uleb128 .LVU968
	.uleb128 .LVU968
	.uleb128 .LVU981
	.uleb128 .LVU981
	.uleb128 .LVU987
	.uleb128 .LVU987
	.uleb128 .LVU1000
	.uleb128 .LVU1000
	.uleb128 .LVU1007
	.uleb128 .LVU1007
	.uleb128 .LVU1020
	.uleb128 .LVU1020
	.uleb128 .LVU1023
	.uleb128 .LVU1023
	.uleb128 .LVU1025
	.uleb128 .LVU1033
	.uleb128 .LVU1043
	.uleb128 .LVU1043
	.uleb128 .LVU1045
	.uleb128 .LVU1051
	.uleb128 .LVU1058
.LLST495:
	.byte	0x6
	.quad	.LVL141
	.byte	0x4
	.uleb128 .LVL141-.LVL141
	.uleb128 .LVL142-.LVL141
	.uleb128 0x11
	.byte	0x75
	.sleb128 0
	.byte	0x72
	.sleb128 0
	.byte	0x22
	.byte	0x77
	.sleb128 208
	.byte	0x6
	.byte	0x22
	.byte	0x94
	.byte	0x1
	.byte	0xa8
	.uleb128 0x37
	.byte	0xa8
	.uleb128 0x30
	.byte	0x9f
	.byte	0x4
	.uleb128 .LVL142-.LVL141
	.uleb128 .LVL144-.LVL141
	.uleb128 0x17
	.byte	0x70
	.sleb128 0
	.byte	0x8
	.byte	0x20
	.byte	0x24
	.byte	0x8
	.byte	0x20
	.byte	0x26
	.byte	0x75
	.sleb128 0
	.byte	0x22
	.byte	0x77
	.sleb128 208
	.byte	0x6
	.byte	0x22
	.byte	0x94
	.byte	0x1
	.byte	0xa8
	.uleb128 0x37
	.byte	0xa8
	.uleb128 0x30
	.byte	0x9f
	.byte	0x4
	.uleb128 .LVL144-.LVL141
	.uleb128 .LVL145-.LVL141
	.uleb128 0x11
	.byte	0x75
	.sleb128 0
	.byte	0x72
	.sleb128 0
	.byte	0x22
	.byte	0x77
	.sleb128 208
	.byte	0x6
	.byte	0x22
	.byte	0x94
	.byte	0x1
	.byte	0xa8
	.uleb128 0x37
	.byte	0xa8
	.uleb128 0x30
	.byte	0x9f
	.byte	0x4
	.uleb128 .LVL145-.LVL141
	.uleb128 .LVL147-.LVL141
	.uleb128 0x17
	.byte	0x70
	.sleb128 1
	.byte	0xc
	.long	0xffffffff
	.byte	0x1a
	.byte	0x75
	.sleb128 0
	.byte	0x22
	.byte	0x77
	.sleb128 208
	.byte	0x6
	.byte	0x22
	.byte	0x94
	.byte	0x1
	.byte	0xa8
	.uleb128 0x37
	.byte	0xa8
	.uleb128 0x30
	.byte	0x9f
	.byte	0x4
	.uleb128 .LVL147-.LVL141
	.uleb128 .LVL148-.LVL141
	.uleb128 0x11
	.byte	0x75
	.sleb128 0
	.byte	0x72
	.sleb128 0
	.byte	0x22
	.byte	0x77
	.sleb128 208
	.byte	0x6
	.byte	0x22
	.byte	0x94
	.byte	0x1
	.byte	0xa8
	.uleb128 0x37
	.byte	0xa8
	.uleb128 0x30
	.byte	0x9f
	.byte	0x4
	.uleb128 .LVL148-.LVL141
	.uleb128 .LVL150-.LVL141
	.uleb128 0x17
	.byte	0x70
	.sleb128 2
	.byte	0xc
	.long	0xffffffff
	.byte	0x1a
	.byte	0x75
	.sleb128 0
	.byte	0x22
	.byte	0x77
	.sleb128 208
	.byte	0x6
	.byte	0x22
	.byte	0x94
	.byte	0x1
	.byte	0xa8
	.uleb128 0x37
	.byte	0xa8
	.uleb128 0x30
	.byte	0x9f
	.byte	0x4
	.uleb128 .LVL150-.LVL141
	.uleb128 .LVL151-.LVL141
	.uleb128 0x11
	.byte	0x75
	.sleb128 0
	.byte	0x72
	.sleb128 0
	.byte	0x22
	.byte	0x77
	.sleb128 208
	.byte	0x6
	.byte	0x22
	.byte	0x94
	.byte	0x1
	.byte	0xa8
	.uleb128 0x37
	.byte	0xa8
	.uleb128 0x30
	.byte	0x9f
	.byte	0x4
	.uleb128 .LVL151-.LVL141
	.uleb128 .LVL153-.LVL141
	.uleb128 0x17
	.byte	0x70
	.sleb128 3
	.byte	0xc
	.long	0xffffffff
	.byte	0x1a
	.byte	0x75
	.sleb128 0
	.byte	0x22
	.byte	0x77
	.sleb128 208
	.byte	0x6
	.byte	0x22
	.byte	0x94
	.byte	0x1
	.byte	0xa8
	.uleb128 0x37
	.byte	0xa8
	.uleb128 0x30
	.byte	0x9f
	.byte	0x4
	.uleb128 .LVL153-.LVL141
	.uleb128 .LVL154-.LVL141
	.uleb128 0x11
	.byte	0x75
	.sleb128 0
	.byte	0x72
	.sleb128 0
	.byte	0x22
	.byte	0x77
	.sleb128 208
	.byte	0x6
	.byte	0x22
	.byte	0x94
	.byte	0x1
	.byte	0xa8
	.uleb128 0x37
	.byte	0xa8
	.uleb128 0x30
	.byte	0x9f
	.byte	0x4
	.uleb128 .LVL154-.LVL141
	.uleb128 .LVL156-.LVL141
	.uleb128 0x17
	.byte	0x70
	.sleb128 4
	.byte	0xc
	.long	0xffffffff
	.byte	0x1a
	.byte	0x75
	.sleb128 0
	.byte	0x22
	.byte	0x77
	.sleb128 208
	.byte	0x6
	.byte	0x22
	.byte	0x94
	.byte	0x1
	.byte	0xa8
	.uleb128 0x37
	.byte	0xa8
	.uleb128 0x30
	.byte	0x9f
	.byte	0x4
	.uleb128 .LVL156-.LVL141
	.uleb128 .LVL157-.LVL141
	.uleb128 0x11
	.byte	0x75
	.sleb128 0
	.byte	0x72
	.sleb128 0
	.byte	0x22
	.byte	0x77
	.sleb128 208
	.byte	0x6
	.byte	0x22
	.byte	0x94
	.byte	0x1
	.byte	0xa8
	.uleb128 0x37
	.byte	0xa8
	.uleb128 0x30
	.byte	0x9f
	.byte	0x4
	.uleb128 .LVL157-.LVL141
	.uleb128 .LVL158-.LVL141
	.uleb128 0x17
	.byte	0x70
	.sleb128 5
	.byte	0xc
	.long	0xffffffff
	.byte	0x1a
	.byte	0x75
	.sleb128 0
	.byte	0x22
	.byte	0x77
	.sleb128 208
	.byte	0x6
	.byte	0x22
	.byte	0x94
	.byte	0x1
	.byte	0xa8
	.uleb128 0x37
	.byte	0xa8
	.uleb128 0x30
	.byte	0x9f
	.byte	0x4
	.uleb128 .LVL163-.LVL141
	.uleb128 .LVL165-.LVL141
	.uleb128 0x7
	.byte	0x72
	.sleb128 0
	.byte	0xa8
	.uleb128 0x37
	.byte	0xa8
	.uleb128 0x30
	.byte	0x9f
	.byte	0x4
	.uleb128 .LVL165-.LVL141
	.uleb128 .LVL166-.LVL141
	.uleb128 0x11
	.byte	0x75
	.sleb128 0
	.byte	0x70
	.sleb128 0
	.byte	0x22
	.byte	0x77
	.sleb128 208
	.byte	0x6
	.byte	0x22
	.byte	0x94
	.byte	0x1
	.byte	0xa8
	.uleb128 0x37
	.byte	0xa8
	.uleb128 0x30
	.byte	0x9f
	.byte	0x4
	.uleb128 .LVL170-.LVL141
	.uleb128 .LVL171-.LVL141
	.uleb128 0x7
	.byte	0x70
	.sleb128 0
	.byte	0xa8
	.uleb128 0x37
	.byte	0xa8
	.uleb128 0x30
	.byte	0x9f
	.byte	0
.LVUS497:
	.uleb128 .LVU393
	.uleb128 .LVU395
.LLST497:
	.byte	0x8
	.quad	.LVL87
	.uleb128 .LVL87-.LVL87
	.uleb128 0x6
	.byte	0x77
	.sleb128 160
	.byte	0x6
	.byte	0x23
	.uleb128 0x8
	.byte	0
.LVUS499:
	.uleb128 .LVU397
	.uleb128 .LVU399
.LLST499:
	.byte	0x8
	.quad	.LVL87
	.uleb128 .LVL87-.LVL87
	.uleb128 0x6
	.byte	0x77
	.sleb128 160
	.byte	0x6
	.byte	0x23
	.uleb128 0xc
	.byte	0
.LVUS501:
	.uleb128 .LVU401
	.uleb128 .LVU403
.LLST501:
	.byte	0x8
	.quad	.LVL87
	.uleb128 .LVL87-.LVL87
	.uleb128 0x6
	.byte	0x77
	.sleb128 160
	.byte	0x6
	.byte	0x23
	.uleb128 0x10
	.byte	0
.LVUS503:
	.uleb128 .LVU405
	.uleb128 .LVU407
.LLST503:
	.byte	0x8
	.quad	.LVL87
	.uleb128 .LVL87-.LVL87
	.uleb128 0x6
	.byte	0x77
	.sleb128 160
	.byte	0x6
	.byte	0x23
	.uleb128 0x14
	.byte	0
.LVUS505:
	.uleb128 .LVU1069
	.uleb128 .LVU1070
	.uleb128 .LVU1076
	.uleb128 .LVU1132
	.uleb128 .LVU1390
	.uleb128 .LVU1393
.LLST505:
	.byte	0x6
	.quad	.LVL176
	.byte	0x4
	.uleb128 .LVL176-.LVL176
	.uleb128 .LVL177-.LVL176
	.uleb128 0x2
	.byte	0x30
	.byte	0x9f
	.byte	0x4
	.uleb128 .LVL178-.LVL176
	.uleb128 .LVL197-.LVL176
	.uleb128 0x1
	.byte	0x5e
	.byte	0x4
	.uleb128 .LVL249-.LVL176
	.uleb128 .LVL252-.LVL176
	.uleb128 0x2
	.byte	0x30
	.byte	0x9f
	.byte	0
.LVUS508:
	.uleb128 .LVU1082
	.uleb128 .LVU1084
	.uleb128 .LVU1084
	.uleb128 .LVU1092
	.uleb128 .LVU1092
	.uleb128 .LVU1093
	.uleb128 .LVU1093
	.uleb128 .LVU1094
	.uleb128 .LVU1094
	.uleb128 .LVU1122
	.uleb128 .LVU1122
	.uleb128 .LVU1128
.LLST508:
	.byte	0x6
	.quad	.LVL178
	.byte	0x4
	.uleb128 .LVL178-.LVL178
	.uleb128 .LVL179-.LVL178
	.uleb128 0x2
	.byte	0x30
	.byte	0x9f
	.byte	0x4
	.uleb128 .LVL179-.LVL178
	.uleb128 .LVL182-.LVL178
	.uleb128 0xb
	.byte	0x70
	.sleb128 0
	.byte	0xa8
	.uleb128 0x3e
	.byte	0x33
	.byte	0xa8
	.uleb128 0x3e
	.byte	0x1b
	.byte	0xa8
	.uleb128 0
	.byte	0x9f
	.byte	0x4
	.uleb128 .LVL182-.LVL178
	.uleb128 .LVL183-.LVL178
	.uleb128 0xd
	.byte	0x70
	.sleb128 0
	.byte	0xa8
	.uleb128 0x3e
	.byte	0x33
	.byte	0xa8
	.uleb128 0x3e
	.byte	0x1b
	.byte	0xa8
	.uleb128 0
	.byte	0x23
	.uleb128 0x1
	.byte	0x9f
	.byte	0x4
	.uleb128 .LVL183-.LVL178
	.uleb128 .LVL184-.LVL178
	.uleb128 0xd
	.byte	0x70
	.sleb128 -3
	.byte	0xa8
	.uleb128 0x3e
	.byte	0x33
	.byte	0xa8
	.uleb128 0x3e
	.byte	0x1b
	.byte	0xa8
	.uleb128 0
	.byte	0x23
	.uleb128 0x1
	.byte	0x9f
	.byte	0x4
	.uleb128 .LVL184-.LVL178
	.uleb128 .LVL192-.LVL178
	.uleb128 0xb
	.byte	0x70
	.sleb128 0
	.byte	0xa8
	.uleb128 0x3e
	.byte	0x33
	.byte	0xa8
	.uleb128 0x3e
	.byte	0x1b
	.byte	0xa8
	.uleb128 0
	.byte	0x9f
	.byte	0x4
	.uleb128 .LVL192-.LVL178
	.uleb128 .LVL194-.LVL178
	.uleb128 0xb
	.byte	0x70
	.sleb128 -3
	.byte	0xa8
	.uleb128 0x3e
	.byte	0x33
	.byte	0xa8
	.uleb128 0x3e
	.byte	0x1b
	.byte	0xa8
	.uleb128 0
	.byte	0x9f
	.byte	0
.LVUS510:
	.uleb128 .LVU1084
	.uleb128 .LVU1087
	.uleb128 .LVU1087
	.uleb128 .LVU1089
	.uleb128 .LVU1089
	.uleb128 .LVU1094
	.uleb128 .LVU1096
	.uleb128 .LVU1107
	.uleb128 .LVU1107
	.uleb128 .LVU1129
.LLST510:
	.byte	0x6
	.quad	.LVL179
	.byte	0x4
	.uleb128 .LVL179-.LVL179
	.uleb128 .LVL180-.LVL179
	.uleb128 0x1
	.byte	0x54
	.byte	0x4
	.uleb128 .LVL180-.LVL179
	.uleb128 .LVL181-.LVL179
	.uleb128 0x2
	.byte	0x71
	.sleb128 0
	.byte	0x4
	.uleb128 .LVL181-.LVL179
	.uleb128 .LVL184-.LVL179
	.uleb128 0x2
	.byte	0x71
	.sleb128 -4
	.byte	0x4
	.uleb128 .LVL185-.LVL179
	.uleb128 .LVL187-.LVL179
	.uleb128 0x1
	.byte	0x54
	.byte	0x4
	.uleb128 .LVL187-.LVL179
	.uleb128 .LVL195-.LVL179
	.uleb128 0x2
	.byte	0x71
	.sleb128 -4
	.byte	0
.LVUS511:
	.uleb128 .LVU1101
	.uleb128 .LVU1124
.LLST511:
	.byte	0x8
	.quad	.LVL186
	.uleb128 .LVL193-.LVL186
	.uleb128 0x1
	.byte	0x61
	.byte	0
.LVUS513:
	.uleb128 .LVU1102
	.uleb128 .LVU1109
	.uleb128 .LVU1109
	.uleb128 .LVU1117
	.uleb128 .LVU1117
	.uleb128 .LVU1126
	.uleb128 .LVU1126
	.uleb128 .LVU1129
.LLST513:
	.byte	0x6
	.quad	.LVL186
	.byte	0x4
	.uleb128 .LVL186-.LVL186
	.uleb128 .LVL188-.LVL186
	.uleb128 0x2
	.byte	0x30
	.byte	0x9f
	.byte	0x4
	.uleb128 .LVL188-.LVL186
	.uleb128 .LVL190-.LVL186
	.uleb128 0x2
	.byte	0x31
	.byte	0x9f
	.byte	0x4
	.uleb128 .LVL190-.LVL186
	.uleb128 .LVL194-.LVL186
	.uleb128 0x2
	.byte	0x32
	.byte	0x9f
	.byte	0x4
	.uleb128 .LVL194-.LVL186
	.uleb128 .LVL195-.LVL186
	.uleb128 0x2
	.byte	0x33
	.byte	0x9f
	.byte	0
.LVUS515:
	.uleb128 .LVU1104
	.uleb128 .LVU1112
	.uleb128 .LVU1112
	.uleb128 .LVU1124
.LLST515:
	.byte	0x6
	.quad	.LVL186
	.byte	0x4
	.uleb128 .LVL186-.LVL186
	.uleb128 .LVL189-.LVL186
	.uleb128 0xf
	.byte	0x70
	.sleb128 0
	.byte	0x32
	.byte	0x24
	.byte	0x7a
	.sleb128 0
	.byte	0x22
	.byte	0xa6
	.byte	0x4
	.uleb128 0x30
	.byte	0xa5
	.uleb128 0x11
	.uleb128 0x30
	.byte	0x1e
	.byte	0x9f
	.byte	0x4
	.uleb128 .LVL189-.LVL186
	.uleb128 .LVL193-.LVL186
	.uleb128 0x12
	.byte	0x74
	.sleb128 0
	.byte	0x32
	.byte	0x24
	.byte	0x75
	.sleb128 0
	.byte	0x22
	.byte	0x79
	.sleb128 0
	.byte	0x22
	.byte	0xa6
	.byte	0x4
	.uleb128 0x30
	.byte	0xa5
	.uleb128 0x11
	.uleb128 0x30
	.byte	0x1e
	.byte	0x9f
	.byte	0
.LVUS516:
	.uleb128 .LVU1079
	.uleb128 .LVU1080
.LLST516:
	.byte	0x8
	.quad	.LVL178
	.uleb128 .LVL178-.LVL178
	.uleb128 0x3
	.byte	0x73
	.sleb128 16
	.byte	0x9f
	.byte	0
.LVUS8:
	.uleb128 .LVU7
	.uleb128 .LVU11
.LLST8:
	.byte	0x8
	.quad	.LVL1
	.uleb128 .LVL1-.LVL1
	.uleb128 0x1
	.byte	0x54
	.byte	0
.LVUS9:
	.uleb128 .LVU9
	.uleb128 .LVU11
.LLST9:
	.byte	0x8
	.quad	.LVL1
	.uleb128 .LVL1-.LVL1
	.uleb128 0x1
	.byte	0x54
	.byte	0
.LVUS10:
	.uleb128 .LVU10
	.uleb128 .LVU11
.LLST10:
	.byte	0x8
	.quad	.LVL1
	.uleb128 .LVL1-.LVL1
	.uleb128 0x1
	.byte	0x54
	.byte	0
.LVUS11:
	.uleb128 .LVU19
	.uleb128 .LVU23
.LLST11:
	.byte	0x8
	.quad	.LVL4
	.uleb128 .LVL4-.LVL4
	.uleb128 0x1
	.byte	0x54
	.byte	0
.LVUS12:
	.uleb128 .LVU21
	.uleb128 .LVU23
.LLST12:
	.byte	0x8
	.quad	.LVL4
	.uleb128 .LVL4-.LVL4
	.uleb128 0x1
	.byte	0x54
	.byte	0
.LVUS13:
	.uleb128 .LVU22
	.uleb128 .LVU23
.LLST13:
	.byte	0x8
	.quad	.LVL4
	.uleb128 .LVL4-.LVL4
	.uleb128 0x1
	.byte	0x54
	.byte	0
.LVUS15:
	.uleb128 .LVU42
	.uleb128 .LVU45
	.uleb128 .LVU1237
	.uleb128 .LVU1295
	.uleb128 .LVU1516
	.uleb128 .LVU1518
.LLST15:
	.byte	0x6
	.quad	.LVL6
	.byte	0x4
	.uleb128 .LVL6-.LVL6
	.uleb128 .LVL7-.LVL6
	.uleb128 0x6
	.byte	0x77
	.sleb128 40
	.byte	0x6
	.byte	0x23
	.uleb128 0x10
	.byte	0x9f
	.byte	0x4
	.uleb128 .LVL217-.LVL6
	.uleb128 .LVL225-.LVL6
	.uleb128 0x6
	.byte	0x77
	.sleb128 40
	.byte	0x6
	.byte	0x23
	.uleb128 0x10
	.byte	0x9f
	.byte	0x8
	.quad	.LVL285
	.uleb128 .LVL286-.LVL285
	.uleb128 0x6
	.byte	0x77
	.sleb128 40
	.byte	0x6
	.byte	0x23
	.uleb128 0x10
	.byte	0x9f
	.byte	0
.LVUS16:
	.uleb128 .LVU42
	.uleb128 .LVU45
	.uleb128 .LVU1237
	.uleb128 .LVU1260
	.uleb128 .LVU1260
	.uleb128 .LVU1260
	.uleb128 .LVU1260
	.uleb128 .LVU1295
	.uleb128 .LVU1516
	.uleb128 .LVU1518
	.uleb128 .LVU1518
	.uleb128 .LVU1518
.LLST16:
	.byte	0x6
	.quad	.LVL6
	.byte	0x4
	.uleb128 .LVL6-.LVL6
	.uleb128 .LVL7-.LVL6
	.uleb128 0x1
	.byte	0x54
	.byte	0x4
	.uleb128 .LVL217-.LVL6
	.uleb128 .LVL219-1-.LVL6
	.uleb128 0x1
	.byte	0x54
	.byte	0x4
	.uleb128 .LVL219-1-.LVL6
	.uleb128 .LVL219-.LVL6
	.uleb128 0x3
	.byte	0x77
	.sleb128 192
	.byte	0x4
	.uleb128 .LVL219-.LVL6
	.uleb128 .LVL225-.LVL6
	.uleb128 0x1
	.byte	0x5f
	.byte	0x6
	.quad	.LVL285
	.byte	0x4
	.uleb128 .LVL285-.LVL285
	.uleb128 .LVL286-1-.LVL285
	.uleb128 0x1
	.byte	0x54
	.byte	0x4
	.uleb128 .LVL286-1-.LVL285
	.uleb128 .LVL286-.LVL285
	.uleb128 0x3
	.byte	0x77
	.sleb128 192
	.byte	0
.LVUS18:
	.uleb128 .LVU43
	.uleb128 .LVU45
	.uleb128 .LVU1237
	.uleb128 .LVU1295
	.uleb128 .LVU1516
	.uleb128 .LVU1518
.LLST18:
	.byte	0x6
	.quad	.LVL6
	.byte	0x4
	.uleb128 .LVL6-.LVL6
	.uleb128 .LVL7-.LVL6
	.uleb128 0x6
	.byte	0x77
	.sleb128 40
	.byte	0x6
	.byte	0x23
	.uleb128 0x10
	.byte	0x9f
	.byte	0x4
	.uleb128 .LVL217-.LVL6
	.uleb128 .LVL225-.LVL6
	.uleb128 0x6
	.byte	0x77
	.sleb128 40
	.byte	0x6
	.byte	0x23
	.uleb128 0x10
	.byte	0x9f
	.byte	0x8
	.quad	.LVL285
	.uleb128 .LVL286-.LVL285
	.uleb128 0x6
	.byte	0x77
	.sleb128 40
	.byte	0x6
	.byte	0x23
	.uleb128 0x10
	.byte	0x9f
	.byte	0
.LVUS19:
	.uleb128 .LVU43
	.uleb128 .LVU45
	.uleb128 .LVU1237
	.uleb128 .LVU1260
	.uleb128 .LVU1260
	.uleb128 .LVU1260
	.uleb128 .LVU1260
	.uleb128 .LVU1295
	.uleb128 .LVU1516
	.uleb128 .LVU1518
	.uleb128 .LVU1518
	.uleb128 .LVU1518
.LLST19:
	.byte	0x6
	.quad	.LVL6
	.byte	0x4
	.uleb128 .LVL6-.LVL6
	.uleb128 .LVL7-.LVL6
	.uleb128 0x1
	.byte	0x54
	.byte	0x4
	.uleb128 .LVL217-.LVL6
	.uleb128 .LVL219-1-.LVL6
	.uleb128 0x1
	.byte	0x54
	.byte	0x4
	.uleb128 .LVL219-1-.LVL6
	.uleb128 .LVL219-.LVL6
	.uleb128 0x3
	.byte	0x77
	.sleb128 192
	.byte	0x4
	.uleb128 .LVL219-.LVL6
	.uleb128 .LVL225-.LVL6
	.uleb128 0x1
	.byte	0x5f
	.byte	0x6
	.quad	.LVL285
	.byte	0x4
	.uleb128 .LVL285-.LVL285
	.uleb128 .LVL286-1-.LVL285
	.uleb128 0x1
	.byte	0x54
	.byte	0x4
	.uleb128 .LVL286-1-.LVL285
	.uleb128 .LVL286-.LVL285
	.uleb128 0x3
	.byte	0x77
	.sleb128 192
	.byte	0
.LVUS23:
	.uleb128 .LVU1237
	.uleb128 .LVU1274
	.uleb128 .LVU1516
	.uleb128 .LVU1518
.LLST23:
	.byte	0x8
	.quad	.LVL217
	.uleb128 .LVL223-.LVL217
	.uleb128 0x6
	.byte	0xa0
	.long	.Ldebug_info0+60158
	.sleb128 0
	.byte	0x8
	.quad	.LVL285
	.uleb128 .LVL286-.LVL285
	.uleb128 0x6
	.byte	0xa0
	.long	.Ldebug_info0+60158
	.sleb128 0
	.byte	0
.LVUS24:
	.uleb128 .LVU1237
	.uleb128 .LVU1260
	.uleb128 .LVU1260
	.uleb128 .LVU1260
	.uleb128 .LVU1260
	.uleb128 .LVU1274
	.uleb128 .LVU1516
	.uleb128 .LVU1518
	.uleb128 .LVU1518
	.uleb128 .LVU1518
.LLST24:
	.byte	0x6
	.quad	.LVL217
	.byte	0x4
	.uleb128 .LVL217-.LVL217
	.uleb128 .LVL219-1-.LVL217
	.uleb128 0x1
	.byte	0x54
	.byte	0x4
	.uleb128 .LVL219-1-.LVL217
	.uleb128 .LVL219-.LVL217
	.uleb128 0x3
	.byte	0x77
	.sleb128 192
	.byte	0x4
	.uleb128 .LVL219-.LVL217
	.uleb128 .LVL223-.LVL217
	.uleb128 0x1
	.byte	0x5f
	.byte	0x6
	.quad	.LVL285
	.byte	0x4
	.uleb128 .LVL285-.LVL285
	.uleb128 .LVL286-1-.LVL285
	.uleb128 0x1
	.byte	0x54
	.byte	0x4
	.uleb128 .LVL286-1-.LVL285
	.uleb128 .LVL286-.LVL285
	.uleb128 0x3
	.byte	0x77
	.sleb128 192
	.byte	0
.LVUS26:
	.uleb128 .LVU1237
	.uleb128 .LVU1274
	.uleb128 .LVU1516
	.uleb128 .LVU1518
.LLST26:
	.byte	0x8
	.quad	.LVL217
	.uleb128 .LVL223-.LVL217
	.uleb128 0x6
	.byte	0x77
	.sleb128 40
	.byte	0x6
	.byte	0x23
	.uleb128 0x10
	.byte	0x9f
	.byte	0x8
	.quad	.LVL285
	.uleb128 .LVL286-.LVL285
	.uleb128 0x6
	.byte	0x77
	.sleb128 40
	.byte	0x6
	.byte	0x23
	.uleb128 0x10
	.byte	0x9f
	.byte	0
.LVUS28:
	.uleb128 .LVU1239
	.uleb128 .LVU1247
	.uleb128 .LVU1516
	.uleb128 .LVU1518
	.uleb128 .LVU1518
	.uleb128 .LVU1518
.LLST28:
	.byte	0x8
	.quad	.LVL217
	.uleb128 .LVL218-.LVL217
	.uleb128 0x1
	.byte	0x54
	.byte	0x6
	.quad	.LVL285
	.byte	0x4
	.uleb128 .LVL285-.LVL285
	.uleb128 .LVL286-1-.LVL285
	.uleb128 0x1
	.byte	0x54
	.byte	0x4
	.uleb128 .LVL286-1-.LVL285
	.uleb128 .LVL286-.LVL285
	.uleb128 0x3
	.byte	0x77
	.sleb128 192
	.byte	0
.LVUS29:
	.uleb128 .LVU1239
	.uleb128 .LVU1247
	.uleb128 .LVU1516
	.uleb128 .LVU1518
.LLST29:
	.byte	0x8
	.quad	.LVL217
	.uleb128 .LVL218-.LVL217
	.uleb128 0x6
	.byte	0x77
	.sleb128 40
	.byte	0x6
	.byte	0x23
	.uleb128 0x10
	.byte	0x9f
	.byte	0x8
	.quad	.LVL285
	.uleb128 .LVL286-.LVL285
	.uleb128 0x6
	.byte	0x77
	.sleb128 40
	.byte	0x6
	.byte	0x23
	.uleb128 0x10
	.byte	0x9f
	.byte	0
.LVUS30:
	.uleb128 .LVU1240
	.uleb128 .LVU1242
.LLST30:
	.byte	0x8
	.quad	.LVL217
	.uleb128 .LVL217-.LVL217
	.uleb128 0x6
	.byte	0x77
	.sleb128 40
	.byte	0x6
	.byte	0x23
	.uleb128 0x10
	.byte	0x9f
	.byte	0
.LVUS31:
	.uleb128 .LVU1241
	.uleb128 .LVU1242
.LLST31:
	.byte	0x8
	.quad	.LVL217
	.uleb128 .LVL217-.LVL217
	.uleb128 0x6
	.byte	0x77
	.sleb128 40
	.byte	0x6
	.byte	0x23
	.uleb128 0x10
	.byte	0x9f
	.byte	0
.LVUS33:
	.uleb128 .LVU1247
	.uleb128 .LVU1264
.LLST33:
	.byte	0x8
	.quad	.LVL218
	.uleb128 .LVL221-.LVL218
	.uleb128 0x6
	.byte	0xa0
	.long	.Ldebug_info0+60158
	.sleb128 0
	.byte	0
.LVUS34:
	.uleb128 .LVU1247
	.uleb128 .LVU1260
	.uleb128 .LVU1260
	.uleb128 .LVU1260
	.uleb128 .LVU1260
	.uleb128 .LVU1264
.LLST34:
	.byte	0x6
	.quad	.LVL218
	.byte	0x4
	.uleb128 .LVL218-.LVL218
	.uleb128 .LVL219-1-.LVL218
	.uleb128 0x1
	.byte	0x54
	.byte	0x4
	.uleb128 .LVL219-1-.LVL218
	.uleb128 .LVL219-.LVL218
	.uleb128 0x3
	.byte	0x77
	.sleb128 192
	.byte	0x4
	.uleb128 .LVL219-.LVL218
	.uleb128 .LVL221-.LVL218
	.uleb128 0x1
	.byte	0x5f
	.byte	0
.LVUS35:
	.uleb128 .LVU1247
	.uleb128 .LVU1264
.LLST35:
	.byte	0x8
	.quad	.LVL218
	.uleb128 .LVL221-.LVL218
	.uleb128 0x6
	.byte	0x77
	.sleb128 40
	.byte	0x6
	.byte	0x23
	.uleb128 0x10
	.byte	0x9f
	.byte	0
.LVUS37:
	.uleb128 .LVU1254
	.uleb128 .LVU1264
.LLST37:
	.byte	0x8
	.quad	.LVL218
	.uleb128 .LVL221-.LVL218
	.uleb128 0x6
	.byte	0xa0
	.long	.Ldebug_info0+60158
	.sleb128 0
	.byte	0
.LVUS38:
	.uleb128 .LVU1254
	.uleb128 .LVU1260
	.uleb128 .LVU1260
	.uleb128 .LVU1260
	.uleb128 .LVU1260
	.uleb128 .LVU1264
.LLST38:
	.byte	0x6
	.quad	.LVL218
	.byte	0x4
	.uleb128 .LVL218-.LVL218
	.uleb128 .LVL219-1-.LVL218
	.uleb128 0x1
	.byte	0x54
	.byte	0x4
	.uleb128 .LVL219-1-.LVL218
	.uleb128 .LVL219-.LVL218
	.uleb128 0x3
	.byte	0x77
	.sleb128 192
	.byte	0x4
	.uleb128 .LVL219-.LVL218
	.uleb128 .LVL221-.LVL218
	.uleb128 0x1
	.byte	0x5f
	.byte	0
.LVUS40:
	.uleb128 .LVU1256
	.uleb128 .LVU1261
.LLST40:
	.byte	0x8
	.quad	.LVL218
	.uleb128 .LVL220-.LVL218
	.uleb128 0x6
	.byte	0xa0
	.long	.Ldebug_info0+60158
	.sleb128 0
	.byte	0
.LVUS41:
	.uleb128 .LVU1256
	.uleb128 .LVU1260
	.uleb128 .LVU1260
	.uleb128 .LVU1260
	.uleb128 .LVU1260
	.uleb128 .LVU1261
.LLST41:
	.byte	0x6
	.quad	.LVL218
	.byte	0x4
	.uleb128 .LVL218-.LVL218
	.uleb128 .LVL219-1-.LVL218
	.uleb128 0x1
	.byte	0x54
	.byte	0x4
	.uleb128 .LVL219-1-.LVL218
	.uleb128 .LVL219-.LVL218
	.uleb128 0x3
	.byte	0x77
	.sleb128 192
	.byte	0x4
	.uleb128 .LVL219-.LVL218
	.uleb128 .LVL220-.LVL218
	.uleb128 0x1
	.byte	0x5f
	.byte	0
.LVUS43:
	.uleb128 .LVU1257
	.uleb128 .LVU1261
.LLST43:
	.byte	0x8
	.quad	.LVL218
	.uleb128 .LVL220-.LVL218
	.uleb128 0x6
	.byte	0xa0
	.long	.Ldebug_info0+60158
	.sleb128 0
	.byte	0
.LVUS44:
	.uleb128 .LVU1257
	.uleb128 .LVU1260
	.uleb128 .LVU1260
	.uleb128 .LVU1260
	.uleb128 .LVU1260
	.uleb128 .LVU1261
.LLST44:
	.byte	0x6
	.quad	.LVL218
	.byte	0x4
	.uleb128 .LVL218-.LVL218
	.uleb128 .LVL219-1-.LVL218
	.uleb128 0x1
	.byte	0x54
	.byte	0x4
	.uleb128 .LVL219-1-.LVL218
	.uleb128 .LVL219-.LVL218
	.uleb128 0x3
	.byte	0x77
	.sleb128 192
	.byte	0x4
	.uleb128 .LVL219-.LVL218
	.uleb128 .LVL220-.LVL218
	.uleb128 0x1
	.byte	0x5f
	.byte	0
.LVUS46:
	.uleb128 .LVU1258
	.uleb128 .LVU1261
.LLST46:
	.byte	0x8
	.quad	.LVL218
	.uleb128 .LVL220-.LVL218
	.uleb128 0x6
	.byte	0xa0
	.long	.Ldebug_info0+60158
	.sleb128 0
	.byte	0
.LVUS47:
	.uleb128 .LVU1258
	.uleb128 .LVU1260
	.uleb128 .LVU1260
	.uleb128 .LVU1260
	.uleb128 .LVU1260
	.uleb128 .LVU1261
.LLST47:
	.byte	0x6
	.quad	.LVL218
	.byte	0x4
	.uleb128 .LVL218-.LVL218
	.uleb128 .LVL219-1-.LVL218
	.uleb128 0x1
	.byte	0x54
	.byte	0x4
	.uleb128 .LVL219-1-.LVL218
	.uleb128 .LVL219-.LVL218
	.uleb128 0x3
	.byte	0x77
	.sleb128 192
	.byte	0x4
	.uleb128 .LVL219-.LVL218
	.uleb128 .LVL220-.LVL218
	.uleb128 0x1
	.byte	0x5f
	.byte	0
.LVUS48:
	.uleb128 .LVU1258
	.uleb128 .LVU1261
.LLST48:
	.byte	0x8
	.quad	.LVL218
	.uleb128 .LVL220-.LVL218
	.uleb128 0x2
	.byte	0x30
	.byte	0x9f
	.byte	0
.LVUS49:
	.uleb128 .LVU1249
	.uleb128 .LVU1254
.LLST49:
	.byte	0x8
	.quad	.LVL218
	.uleb128 .LVL218-.LVL218
	.uleb128 0x6
	.byte	0xa0
	.long	.Ldebug_info0+60158
	.sleb128 0
	.byte	0
.LVUS50:
	.uleb128 .LVU1249
	.uleb128 .LVU1254
.LLST50:
	.byte	0x8
	.quad	.LVL218
	.uleb128 .LVL218-.LVL218
	.uleb128 0x6
	.byte	0x77
	.sleb128 40
	.byte	0x6
	.byte	0x23
	.uleb128 0x10
	.byte	0x9f
	.byte	0
.LVUS51:
	.uleb128 .LVU1250
	.uleb128 .LVU1252
.LLST51:
	.byte	0x8
	.quad	.LVL218
	.uleb128 .LVL218-.LVL218
	.uleb128 0x6
	.byte	0xa0
	.long	.Ldebug_info0+60158
	.sleb128 0
	.byte	0
.LVUS52:
	.uleb128 .LVU1250
	.uleb128 .LVU1252
.LLST52:
	.byte	0x8
	.quad	.LVL218
	.uleb128 .LVL218-.LVL218
	.uleb128 0x6
	.byte	0x77
	.sleb128 40
	.byte	0x6
	.byte	0x23
	.uleb128 0x10
	.byte	0x9f
	.byte	0
.LVUS53:
	.uleb128 .LVU1251
	.uleb128 .LVU1252
.LLST53:
	.byte	0x8
	.quad	.LVL218
	.uleb128 .LVL218-.LVL218
	.uleb128 0x6
	.byte	0xa0
	.long	.Ldebug_info0+60158
	.sleb128 0
	.byte	0
.LVUS54:
	.uleb128 .LVU1251
	.uleb128 .LVU1252
.LLST54:
	.byte	0x8
	.quad	.LVL218
	.uleb128 .LVL218-.LVL218
	.uleb128 0x6
	.byte	0x77
	.sleb128 40
	.byte	0x6
	.byte	0x23
	.uleb128 0x10
	.byte	0x9f
	.byte	0
.LVUS55:
	.uleb128 .LVU1252
	.uleb128 .LVU1254
.LLST55:
	.byte	0x8
	.quad	.LVL218
	.uleb128 .LVL218-.LVL218
	.uleb128 0x6
	.byte	0xa0
	.long	.Ldebug_info0+60158
	.sleb128 0
	.byte	0
.LVUS57:
	.uleb128 .LVU1264
	.uleb128 .LVU1274
.LLST57:
	.byte	0x8
	.quad	.LVL221
	.uleb128 .LVL223-.LVL221
	.uleb128 0x6
	.byte	0xa0
	.long	.Ldebug_info0+60158
	.sleb128 0
	.byte	0
.LVUS58:
	.uleb128 .LVU1264
	.uleb128 .LVU1274
.LLST58:
	.byte	0x8
	.quad	.LVL221
	.uleb128 .LVL223-.LVL221
	.uleb128 0x1
	.byte	0x5f
	.byte	0
.LVUS60:
	.uleb128 .LVU1266
	.uleb128 .LVU1271
.LLST60:
	.byte	0x8
	.quad	.LVL221
	.uleb128 .LVL222-1-.LVL221
	.uleb128 0x1
	.byte	0x50
	.byte	0
.LVUS61:
	.uleb128 .LVU1266
	.uleb128 .LVU1274
.LLST61:
	.byte	0x8
	.quad	.LVL221
	.uleb128 .LVL223-.LVL221
	.uleb128 0x1
	.byte	0x5f
	.byte	0
.LVUS63:
	.uleb128 .LVU1266
	.uleb128 .LVU1274
.LLST63:
	.byte	0x8
	.quad	.LVL221
	.uleb128 .LVL223-.LVL221
	.uleb128 0x6
	.byte	0xa0
	.long	.Ldebug_info0+60158
	.sleb128 0
	.byte	0
.LVUS64:
	.uleb128 .LVU1267
	.uleb128 .LVU1271
.LLST64:
	.byte	0x8
	.quad	.LVL221
	.uleb128 .LVL222-1-.LVL221
	.uleb128 0x1
	.byte	0x50
	.byte	0
.LVUS65:
	.uleb128 .LVU1267
	.uleb128 .LVU1274
.LLST65:
	.byte	0x8
	.quad	.LVL221
	.uleb128 .LVL223-.LVL221
	.uleb128 0x1
	.byte	0x5f
	.byte	0
.LVUS69:
	.uleb128 .LVU1268
	.uleb128 .LVU1271
.LLST69:
	.byte	0x8
	.quad	.LVL221
	.uleb128 .LVL222-1-.LVL221
	.uleb128 0x1
	.byte	0x50
	.byte	0
.LVUS70:
	.uleb128 .LVU1274
	.uleb128 .LVU1283
.LLST70:
	.byte	0x8
	.quad	.LVL223
	.uleb128 .LVL225-.LVL223
	.uleb128 0x6
	.byte	0xa0
	.long	.Ldebug_info0+60158
	.sleb128 0
	.byte	0
.LVUS71:
	.uleb128 .LVU1274
	.uleb128 .LVU1283
.LLST71:
	.byte	0x8
	.quad	.LVL223
	.uleb128 .LVL225-.LVL223
	.uleb128 0x6
	.byte	0x77
	.sleb128 40
	.byte	0x6
	.byte	0x23
	.uleb128 0x10
	.byte	0x9f
	.byte	0
.LVUS72:
	.uleb128 .LVU1276
	.uleb128 .LVU1277
.LLST72:
	.byte	0x8
	.quad	.LVL223
	.uleb128 .LVL223-.LVL223
	.uleb128 0x6
	.byte	0xa0
	.long	.Ldebug_info0+61355
	.sleb128 0
	.byte	0
.LVUS73:
	.uleb128 .LVU1277
	.uleb128 .LVU1283
.LLST73:
	.byte	0x8
	.quad	.LVL223
	.uleb128 .LVL225-.LVL223
	.uleb128 0x6
	.byte	0x77
	.sleb128 40
	.byte	0x6
	.byte	0x23
	.uleb128 0x10
	.byte	0x9f
	.byte	0
.LVUS74:
	.uleb128 .LVU1277
	.uleb128 .LVU1283
.LLST74:
	.byte	0x8
	.quad	.LVL223
	.uleb128 .LVL225-.LVL223
	.uleb128 0x6
	.byte	0xa0
	.long	.Ldebug_info0+61355
	.sleb128 0
	.byte	0
.LVUS75:
	.uleb128 .LVU1283
	.uleb128 .LVU1295
.LLST75:
	.byte	0x8
	.quad	.LVL225
	.uleb128 .LVL225-.LVL225
	.uleb128 0x6
	.byte	0xa0
	.long	.Ldebug_info0+60158
	.sleb128 0
	.byte	0
.LVUS76:
	.uleb128 .LVU1285
	.uleb128 .LVU1286
.LLST76:
	.byte	0x8
	.quad	.LVL225
	.uleb128 .LVL225-.LVL225
	.uleb128 0x6
	.byte	0xa0
	.long	.Ldebug_info0+60158
	.sleb128 0
	.byte	0
.LVUS77:
	.uleb128 .LVU1286
	.uleb128 .LVU1288
.LLST77:
	.byte	0x8
	.quad	.LVL225
	.uleb128 .LVL225-.LVL225
	.uleb128 0x6
	.byte	0xa0
	.long	.Ldebug_info0+60158
	.sleb128 0
	.byte	0
.LVUS78:
	.uleb128 .LVU1288
	.uleb128 .LVU1295
.LLST78:
	.byte	0x8
	.quad	.LVL225
	.uleb128 .LVL225-.LVL225
	.uleb128 0x6
	.byte	0xa0
	.long	.Ldebug_info0+60158
	.sleb128 0
	.byte	0
.LVUS79:
	.uleb128 .LVU1290
	.uleb128 .LVU1295
.LLST79:
	.byte	0x8
	.quad	.LVL225
	.uleb128 .LVL225-.LVL225
	.uleb128 0x2
	.byte	0x30
	.byte	0x9f
	.byte	0
.LVUS80:
	.uleb128 .LVU1290
	.uleb128 .LVU1291
.LLST80:
	.byte	0x8
	.quad	.LVL225
	.uleb128 .LVL225-.LVL225
	.uleb128 0x6
	.byte	0xa0
	.long	.Ldebug_info0+60158
	.sleb128 0
	.byte	0
.LVUS81:
	.uleb128 .LVU1290
	.uleb128 .LVU1291
.LLST81:
	.byte	0x8
	.quad	.LVL225
	.uleb128 .LVL225-.LVL225
	.uleb128 0x2
	.byte	0x30
	.byte	0x9f
	.byte	0
.LVUS83:
	.uleb128 .LVU1291
	.uleb128 .LVU1295
.LLST83:
	.byte	0x8
	.quad	.LVL225
	.uleb128 .LVL225-.LVL225
	.uleb128 0x6
	.byte	0xa0
	.long	.Ldebug_info0+60158
	.sleb128 0
	.byte	0
.LVUS84:
	.uleb128 .LVU1293
	.uleb128 .LVU1295
.LLST84:
	.byte	0x8
	.quad	.LVL225
	.uleb128 .LVL225-.LVL225
	.uleb128 0x6
	.byte	0xa0
	.long	.Ldebug_info0+60158
	.sleb128 0
	.byte	0
.LVUS85:
	.uleb128 .LVU1294
	.uleb128 .LVU1295
.LLST85:
	.byte	0x8
	.quad	.LVL225
	.uleb128 .LVL225-.LVL225
	.uleb128 0x6
	.byte	0xa0
	.long	.Ldebug_info0+60158
	.sleb128 0
	.byte	0
.LVUS87:
	.uleb128 .LVU47
	.uleb128 .LVU54
	.uleb128 .LVU1297
	.uleb128 .LVU1304
.LLST87:
	.byte	0x8
	.quad	.LVL7
	.uleb128 .LVL7-.LVL7
	.uleb128 0x6
	.byte	0xa0
	.long	.Ldebug_info0+51683
	.sleb128 0
	.byte	0x8
	.quad	.LVL225
	.uleb128 .LVL225-.LVL225
	.uleb128 0x6
	.byte	0xa0
	.long	.Ldebug_info0+51683
	.sleb128 0
	.byte	0
.LVUS88:
	.uleb128 .LVU48
	.uleb128 .LVU54
	.uleb128 .LVU1298
	.uleb128 .LVU1304
.LLST88:
	.byte	0x8
	.quad	.LVL7
	.uleb128 .LVL7-.LVL7
	.uleb128 0x6
	.byte	0xa0
	.long	.Ldebug_info0+51683
	.sleb128 0
	.byte	0x8
	.quad	.LVL225
	.uleb128 .LVL225-.LVL225
	.uleb128 0x6
	.byte	0xa0
	.long	.Ldebug_info0+51683
	.sleb128 0
	.byte	0
.LVUS89:
	.uleb128 .LVU49
	.uleb128 .LVU54
	.uleb128 .LVU1299
	.uleb128 .LVU1304
.LLST89:
	.byte	0x8
	.quad	.LVL7
	.uleb128 .LVL7-.LVL7
	.uleb128 0x6
	.byte	0xa0
	.long	.Ldebug_info0+51683
	.sleb128 0
	.byte	0x8
	.quad	.LVL225
	.uleb128 .LVL225-.LVL225
	.uleb128 0x6
	.byte	0xa0
	.long	.Ldebug_info0+51683
	.sleb128 0
	.byte	0
.LVUS91:
	.uleb128 .LVU50
	.uleb128 .LVU52
	.uleb128 .LVU1300
	.uleb128 .LVU1302
.LLST91:
	.byte	0x8
	.quad	.LVL7
	.uleb128 .LVL7-.LVL7
	.uleb128 0x6
	.byte	0xa0
	.long	.Ldebug_info0+51683
	.sleb128 0
	.byte	0x8
	.quad	.LVL225
	.uleb128 .LVL225-.LVL225
	.uleb128 0x6
	.byte	0xa0
	.long	.Ldebug_info0+51683
	.sleb128 0
	.byte	0
.LVUS92:
	.uleb128 .LVU51
	.uleb128 .LVU52
	.uleb128 .LVU1301
	.uleb128 .LVU1302
.LLST92:
	.byte	0x8
	.quad	.LVL7
	.uleb128 .LVL7-.LVL7
	.uleb128 0x6
	.byte	0xa0
	.long	.Ldebug_info0+51683
	.sleb128 0
	.byte	0x8
	.quad	.LVL225
	.uleb128 .LVL225-.LVL225
	.uleb128 0x6
	.byte	0xa0
	.long	.Ldebug_info0+51683
	.sleb128 0
	.byte	0
.LVUS94:
	.uleb128 .LVU52
	.uleb128 .LVU54
	.uleb128 .LVU1302
	.uleb128 .LVU1304
.LLST94:
	.byte	0x8
	.quad	.LVL7
	.uleb128 .LVL7-.LVL7
	.uleb128 0x6
	.byte	0xa0
	.long	.Ldebug_info0+51683
	.sleb128 0
	.byte	0x8
	.quad	.LVL225
	.uleb128 .LVL225-.LVL225
	.uleb128 0x6
	.byte	0xa0
	.long	.Ldebug_info0+51683
	.sleb128 0
	.byte	0
.LVUS96:
	.uleb128 .LVU56
	.uleb128 .LVU58
	.uleb128 .LVU1306
	.uleb128 .LVU1308
.LLST96:
	.byte	0x6
	.quad	.LVL7
	.byte	0x4
	.uleb128 .LVL7-.LVL7
	.uleb128 .LVL8-.LVL7
	.uleb128 0x1
	.byte	0x53
	.byte	0x4
	.uleb128 .LVL225-.LVL7
	.uleb128 .LVL226-.LVL7
	.uleb128 0x1
	.byte	0x53
	.byte	0
.LVUS98:
	.uleb128 .LVU58
	.uleb128 .LVU78
	.uleb128 .LVU1202
	.uleb128 .LVU1205
	.uleb128 .LVU1308
	.uleb128 .LVU1317
.LLST98:
	.byte	0x6
	.quad	.LVL8
	.byte	0x4
	.uleb128 .LVL8-.LVL8
	.uleb128 .LVL17-.LVL8
	.uleb128 0x6
	.byte	0xa0
	.long	.Ldebug_info0+51683
	.sleb128 0
	.byte	0x4
	.uleb128 .LVL208-.LVL8
	.uleb128 .LVL209-.LVL8
	.uleb128 0x6
	.byte	0xa0
	.long	.Ldebug_info0+51683
	.sleb128 0
	.byte	0x4
	.uleb128 .LVL226-.LVL8
	.uleb128 .LVL229-.LVL8
	.uleb128 0x6
	.byte	0xa0
	.long	.Ldebug_info0+51683
	.sleb128 0
	.byte	0
.LVUS99:
	.uleb128 .LVU58
	.uleb128 .LVU63
	.uleb128 .LVU63
	.uleb128 .LVU64
	.uleb128 .LVU1202
	.uleb128 .LVU1205
	.uleb128 .LVU1308
	.uleb128 .LVU1313
	.uleb128 .LVU1313
	.uleb128 .LVU1317
.LLST99:
	.byte	0x6
	.quad	.LVL8
	.byte	0x4
	.uleb128 .LVL8-.LVL8
	.uleb128 .LVL9-.LVL8
	.uleb128 0x9
	.byte	0x74
	.sleb128 0
	.byte	0x72
	.sleb128 0
	.byte	0x1c
	.byte	0x8
	.byte	0x30
	.byte	0x1b
	.byte	0x9f
	.byte	0x4
	.uleb128 .LVL9-.LVL8
	.uleb128 .LVL10-.LVL8
	.uleb128 0x6
	.byte	0x75
	.sleb128 0
	.byte	0x8
	.byte	0x30
	.byte	0x1b
	.byte	0x9f
	.byte	0x4
	.uleb128 .LVL208-.LVL8
	.uleb128 .LVL209-.LVL8
	.uleb128 0x6
	.byte	0x75
	.sleb128 0
	.byte	0x8
	.byte	0x30
	.byte	0x1b
	.byte	0x9f
	.byte	0x4
	.uleb128 .LVL226-.LVL8
	.uleb128 .LVL227-.LVL8
	.uleb128 0x9
	.byte	0x70
	.sleb128 0
	.byte	0x72
	.sleb128 0
	.byte	0x1c
	.byte	0x8
	.byte	0x30
	.byte	0x1b
	.byte	0x9f
	.byte	0x4
	.uleb128 .LVL227-.LVL8
	.uleb128 .LVL229-.LVL8
	.uleb128 0x6
	.byte	0x70
	.sleb128 0
	.byte	0x8
	.byte	0x30
	.byte	0x1b
	.byte	0x9f
	.byte	0
.LVUS100:
	.uleb128 .LVU66
	.uleb128 .LVU75
.LLST100:
	.byte	0x8
	.quad	.LVL12
	.uleb128 .LVL16-.LVL12
	.uleb128 0x2
	.byte	0x30
	.byte	0x9f
	.byte	0
.LVUS101:
	.uleb128 .LVU72
	.uleb128 .LVU74
	.uleb128 .LVU74
	.uleb128 .LVU75
.LLST101:
	.byte	0x6
	.quad	.LVL14
	.byte	0x4
	.uleb128 .LVL14-.LVL14
	.uleb128 .LVL15-.LVL14
	.uleb128 0x1
	.byte	0x50
	.byte	0x4
	.uleb128 .LVL15-.LVL14
	.uleb128 .LVL16-.LVL14
	.uleb128 0x1
	.byte	0x5c
	.byte	0
.LVUS102:
	.uleb128 .LVU66
	.uleb128 .LVU72
.LLST102:
	.byte	0x8
	.quad	.LVL12
	.uleb128 .LVL14-.LVL12
	.uleb128 0x6
	.byte	0xa0
	.long	.Ldebug_info0+51683
	.sleb128 0
	.byte	0
.LVUS104:
	.uleb128 .LVU68
	.uleb128 .LVU72
.LLST104:
	.byte	0x8
	.quad	.LVL12
	.uleb128 .LVL14-.LVL12
	.uleb128 0x6
	.byte	0xa0
	.long	.Ldebug_info0+51683
	.sleb128 0
	.byte	0
.LVUS105:
	.uleb128 .LVU70
	.uleb128 .LVU72
.LLST105:
	.byte	0x8
	.quad	.LVL12
	.uleb128 .LVL14-.LVL12
	.uleb128 0x2
	.byte	0x30
	.byte	0x9f
	.byte	0
.LVUS106:
	.uleb128 .LVU70
	.uleb128 .LVU72
.LLST106:
	.byte	0x8
	.quad	.LVL12
	.uleb128 .LVL14-.LVL12
	.uleb128 0x6
	.byte	0xa0
	.long	.Ldebug_info0+51683
	.sleb128 0
	.byte	0
.LVUS192:
	.uleb128 .LVU1181
	.uleb128 .LVU1198
.LLST192:
	.byte	0x8
	.quad	.LVL203
	.uleb128 .LVL205-.LVL203
	.uleb128 0x6
	.byte	0xa0
	.long	.Ldebug_info0+51683
	.sleb128 0
	.byte	0
.LVUS194:
	.uleb128 .LVU1186
	.uleb128 .LVU1198
.LLST194:
	.byte	0x8
	.quad	.LVL203
	.uleb128 .LVL205-.LVL203
	.uleb128 0x6
	.byte	0xa0
	.long	.Ldebug_info0+51683
	.sleb128 0
	.byte	0
.LVUS196:
	.uleb128 .LVU1188
	.uleb128 .LVU1194
.LLST196:
	.byte	0x8
	.quad	.LVL203
	.uleb128 .LVL205-.LVL203
	.uleb128 0x6
	.byte	0xa0
	.long	.Ldebug_info0+51683
	.sleb128 0
	.byte	0
.LVUS197:
	.uleb128 .LVU1188
	.uleb128 .LVU1194
.LLST197:
	.byte	0x8
	.quad	.LVL203
	.uleb128 .LVL205-.LVL203
	.uleb128 0x3
	.byte	0x77
	.sleb128 96
	.byte	0
.LVUS198:
	.uleb128 .LVU1191
	.uleb128 .LVU1194
.LLST198:
	.byte	0x8
	.quad	.LVL204
	.uleb128 .LVL205-.LVL204
	.uleb128 0x6
	.byte	0xa0
	.long	.Ldebug_info0+51683
	.sleb128 0
	.byte	0
.LVUS199:
	.uleb128 .LVU1190
	.uleb128 .LVU1194
.LLST199:
	.byte	0x8
	.quad	.LVL204
	.uleb128 .LVL205-.LVL204
	.uleb128 0x3
	.byte	0x77
	.sleb128 96
	.byte	0
.LVUS200:
	.uleb128 .LVU1191
	.uleb128 .LVU1194
.LLST200:
	.byte	0x8
	.quad	.LVL204
	.uleb128 .LVL205-.LVL204
	.uleb128 0x3
	.byte	0x77
	.sleb128 96
	.byte	0
.LVUS201:
	.uleb128 .LVU1192
	.uleb128 .LVU1194
.LLST201:
	.byte	0x8
	.quad	.LVL204
	.uleb128 .LVL205-.LVL204
	.uleb128 0x3
	.byte	0x77
	.sleb128 96
	.byte	0
.LVUS202:
	.uleb128 .LVU1194
	.uleb128 .LVU1198
.LLST202:
	.byte	0x8
	.quad	.LVL205
	.uleb128 .LVL205-.LVL205
	.uleb128 0x6
	.byte	0xa0
	.long	.Ldebug_info0+51683
	.sleb128 0
	.byte	0
.LVUS203:
	.uleb128 .LVU1196
	.uleb128 .LVU1198
.LLST203:
	.byte	0x8
	.quad	.LVL205
	.uleb128 .LVL205-.LVL205
	.uleb128 0x6
	.byte	0xa0
	.long	.Ldebug_info0+51683
	.sleb128 0
	.byte	0
.LVUS204:
	.uleb128 .LVU1197
	.uleb128 .LVU1198
.LLST204:
	.byte	0x8
	.quad	.LVL205
	.uleb128 .LVL205-.LVL205
	.uleb128 0x6
	.byte	0xa0
	.long	.Ldebug_info0+51683
	.sleb128 0
	.byte	0
.LVUS205:
	.uleb128 .LVU1183
	.uleb128 .LVU1184
.LLST205:
	.byte	0x8
	.quad	.LVL203
	.uleb128 .LVL203-.LVL203
	.uleb128 0x6
	.byte	0xa0
	.long	.Ldebug_info0+51683
	.sleb128 0
	.byte	0
.LVUS206:
	.uleb128 .LVU1184
	.uleb128 .LVU1186
.LLST206:
	.byte	0x8
	.quad	.LVL203
	.uleb128 .LVL203-.LVL203
	.uleb128 0x6
	.byte	0xa0
	.long	.Ldebug_info0+51683
	.sleb128 0
	.byte	0
.LVUS210:
	.uleb128 .LVU174
	.uleb128 .LVU183
	.uleb128 .LVU1511
	.uleb128 .LVU1512
	.uleb128 .LVU1514
	.uleb128 .LVU1516
.LLST210:
	.byte	0x8
	.quad	.LVL42
	.uleb128 .LVL43-.LVL42
	.uleb128 0x2
	.byte	0x77
	.sleb128 56
	.byte	0x6
	.quad	.LVL280
	.byte	0x4
	.uleb128 .LVL280-.LVL280
	.uleb128 .LVL281-.LVL280
	.uleb128 0x2
	.byte	0x77
	.sleb128 56
	.byte	0x4
	.uleb128 .LVL283-.LVL280
	.uleb128 .LVL285-.LVL280
	.uleb128 0x2
	.byte	0x77
	.sleb128 56
	.byte	0
.LVUS214:
	.uleb128 .LVU176
	.uleb128 .LVU183
	.uleb128 .LVU1511
	.uleb128 .LVU1512
	.uleb128 .LVU1514
	.uleb128 .LVU1516
.LLST214:
	.byte	0x8
	.quad	.LVL42
	.uleb128 .LVL43-.LVL42
	.uleb128 0x2
	.byte	0x77
	.sleb128 56
	.byte	0x6
	.quad	.LVL280
	.byte	0x4
	.uleb128 .LVL280-.LVL280
	.uleb128 .LVL281-.LVL280
	.uleb128 0x2
	.byte	0x77
	.sleb128 56
	.byte	0x4
	.uleb128 .LVL283-.LVL280
	.uleb128 .LVL285-.LVL280
	.uleb128 0x2
	.byte	0x77
	.sleb128 56
	.byte	0
.LVUS219:
	.uleb128 .LVU183
	.uleb128 .LVU199
	.uleb128 .LVU1427
	.uleb128 .LVU1428
.LLST219:
	.byte	0x6
	.quad	.LVL43
	.byte	0x4
	.uleb128 .LVL43-.LVL43
	.uleb128 .LVL46-.LVL43
	.uleb128 0x2
	.byte	0x77
	.sleb128 56
	.byte	0x4
	.uleb128 .LVL258-.LVL43
	.uleb128 .LVL260-.LVL43
	.uleb128 0x2
	.byte	0x77
	.sleb128 56
	.byte	0
.LVUS225:
	.uleb128 .LVU190
	.uleb128 .LVU199
	.uleb128 .LVU1427
	.uleb128 .LVU1428
.LLST225:
	.byte	0x6
	.quad	.LVL43
	.byte	0x4
	.uleb128 .LVL43-.LVL43
	.uleb128 .LVL46-.LVL43
	.uleb128 0x2
	.byte	0x77
	.sleb128 56
	.byte	0x4
	.uleb128 .LVL258-.LVL43
	.uleb128 .LVL260-.LVL43
	.uleb128 0x2
	.byte	0x77
	.sleb128 56
	.byte	0
.LVUS227:
	.uleb128 .LVU192
	.uleb128 .LVU199
	.uleb128 .LVU1427
	.uleb128 .LVU1428
.LLST227:
	.byte	0x6
	.quad	.LVL43
	.byte	0x4
	.uleb128 .LVL43-.LVL43
	.uleb128 .LVL46-.LVL43
	.uleb128 0x2
	.byte	0x77
	.sleb128 56
	.byte	0x4
	.uleb128 .LVL258-.LVL43
	.uleb128 .LVL260-.LVL43
	.uleb128 0x2
	.byte	0x77
	.sleb128 56
	.byte	0
.LVUS229:
	.uleb128 .LVU194
	.uleb128 .LVU199
	.uleb128 .LVU1427
	.uleb128 .LVU1428
.LLST229:
	.byte	0x6
	.quad	.LVL44
	.byte	0x4
	.uleb128 .LVL44-.LVL44
	.uleb128 .LVL46-.LVL44
	.uleb128 0x2
	.byte	0x77
	.sleb128 56
	.byte	0x4
	.uleb128 .LVL258-.LVL44
	.uleb128 .LVL260-.LVL44
	.uleb128 0x2
	.byte	0x77
	.sleb128 56
	.byte	0
.LVUS230:
	.uleb128 .LVU196
	.uleb128 .LVU199
	.uleb128 .LVU1427
	.uleb128 .LVU1428
.LLST230:
	.byte	0x6
	.quad	.LVL44
	.byte	0x4
	.uleb128 .LVL44-.LVL44
	.uleb128 .LVL46-.LVL44
	.uleb128 0x2
	.byte	0x30
	.byte	0x9f
	.byte	0x4
	.uleb128 .LVL258-.LVL44
	.uleb128 .LVL260-.LVL44
	.uleb128 0x2
	.byte	0x30
	.byte	0x9f
	.byte	0
.LVUS231:
	.uleb128 .LVU195
	.uleb128 .LVU199
	.uleb128 .LVU1427
	.uleb128 .LVU1428
.LLST231:
	.byte	0x6
	.quad	.LVL44
	.byte	0x4
	.uleb128 .LVL44-.LVL44
	.uleb128 .LVL46-.LVL44
	.uleb128 0x2
	.byte	0x77
	.sleb128 56
	.byte	0x4
	.uleb128 .LVL258-.LVL44
	.uleb128 .LVL260-.LVL44
	.uleb128 0x2
	.byte	0x77
	.sleb128 56
	.byte	0
.LVUS233:
	.uleb128 .LVU199
	.uleb128 .LVU209
.LLST233:
	.byte	0x8
	.quad	.LVL46
	.uleb128 .LVL47-.LVL46
	.uleb128 0x2
	.byte	0x77
	.sleb128 56
	.byte	0
.LVUS235:
	.uleb128 .LVU201
	.uleb128 .LVU209
	.uleb128 .LVU209
	.uleb128 .LVU209
.LLST235:
	.byte	0x6
	.quad	.LVL46
	.byte	0x4
	.uleb128 .LVL46-.LVL46
	.uleb128 .LVL47-1-.LVL46
	.uleb128 0x1
	.byte	0x50
	.byte	0x4
	.uleb128 .LVL47-1-.LVL46
	.uleb128 .LVL47-.LVL46
	.uleb128 0x3
	.byte	0x77
	.sleb128 64
	.byte	0
.LVUS236:
	.uleb128 .LVU201
	.uleb128 .LVU209
.LLST236:
	.byte	0x8
	.quad	.LVL46
	.uleb128 .LVL47-.LVL46
	.uleb128 0x2
	.byte	0x77
	.sleb128 56
	.byte	0
.LVUS238:
	.uleb128 .LVU202
	.uleb128 .LVU209
	.uleb128 .LVU209
	.uleb128 .LVU209
.LLST238:
	.byte	0x6
	.quad	.LVL46
	.byte	0x4
	.uleb128 .LVL46-.LVL46
	.uleb128 .LVL47-1-.LVL46
	.uleb128 0x1
	.byte	0x50
	.byte	0x4
	.uleb128 .LVL47-1-.LVL46
	.uleb128 .LVL47-.LVL46
	.uleb128 0x3
	.byte	0x77
	.sleb128 64
	.byte	0
.LVUS239:
	.uleb128 .LVU202
	.uleb128 .LVU209
.LLST239:
	.byte	0x8
	.quad	.LVL46
	.uleb128 .LVL47-.LVL46
	.uleb128 0x2
	.byte	0x77
	.sleb128 56
	.byte	0
.LVUS242:
	.uleb128 .LVU203
	.uleb128 .LVU209
	.uleb128 .LVU209
	.uleb128 .LVU209
.LLST242:
	.byte	0x6
	.quad	.LVL46
	.byte	0x4
	.uleb128 .LVL46-.LVL46
	.uleb128 .LVL47-1-.LVL46
	.uleb128 0x1
	.byte	0x50
	.byte	0x4
	.uleb128 .LVL47-1-.LVL46
	.uleb128 .LVL47-.LVL46
	.uleb128 0x3
	.byte	0x77
	.sleb128 64
	.byte	0
.LVUS243:
	.uleb128 .LVU203
	.uleb128 .LVU208
	.uleb128 .LVU208
	.uleb128 .LVU209
.LLST243:
	.byte	0x6
	.quad	.LVL46
	.byte	0x4
	.uleb128 .LVL46-.LVL46
	.uleb128 .LVL46-.LVL46
	.uleb128 0x2
	.byte	0x77
	.sleb128 56
	.byte	0x4
	.uleb128 .LVL46-.LVL46
	.uleb128 .LVL47-.LVL46
	.uleb128 0x6
	.byte	0x77
	.sleb128 56
	.byte	0x6
	.byte	0x31
	.byte	0x1c
	.byte	0x9f
	.byte	0
.LVUS246:
	.uleb128 .LVU204
	.uleb128 .LVU205
.LLST246:
	.byte	0x8
	.quad	.LVL46
	.uleb128 .LVL46-.LVL46
	.uleb128 0x6
	.byte	0xa0
	.long	.Ldebug_info0+64175
	.sleb128 0
	.byte	0
.LVUS247:
	.uleb128 .LVU204
	.uleb128 .LVU205
.LLST247:
	.byte	0x8
	.quad	.LVL46
	.uleb128 .LVL46-.LVL46
	.uleb128 0x6
	.byte	0xa0
	.long	.Ldebug_info0+64144
	.sleb128 0
	.byte	0
.LVUS248:
	.uleb128 .LVU209
	.uleb128 .LVU211
.LLST248:
	.byte	0x8
	.quad	.LVL47
	.uleb128 .LVL47-.LVL47
	.uleb128 0x6
	.byte	0xa0
	.long	.Ldebug_info0+64175
	.sleb128 0
	.byte	0
.LVUS254:
	.uleb128 .LVU222
	.uleb128 .LVU230
	.uleb128 .LVU230
	.uleb128 .LVU245
	.uleb128 .LVU245
	.uleb128 .LVU260
	.uleb128 .LVU1384
	.uleb128 .LVU1386
	.uleb128 .LVU1426
	.uleb128 .LVU1427
	.uleb128 .LVU1433
	.uleb128 .LVU1435
	.uleb128 .LVU1509
	.uleb128 .LVU1511
.LLST254:
	.byte	0x6
	.quad	.LVL48
	.byte	0x4
	.uleb128 .LVL48-.LVL48
	.uleb128 .LVL49-.LVL48
	.uleb128 0x1
	.byte	0x50
	.byte	0x4
	.uleb128 .LVL49-.LVL48
	.uleb128 .LVL52-.LVL48
	.uleb128 0x2
	.byte	0x77
	.sleb128 48
	.byte	0x4
	.uleb128 .LVL52-.LVL48
	.uleb128 .LVL55-.LVL48
	.uleb128 0xa
	.byte	0x77
	.sleb128 176
	.byte	0x6
	.byte	0x23
	.uleb128 0x1
	.byte	0x7e
	.sleb128 0
	.byte	0x1e
	.byte	0x9f
	.byte	0x4
	.uleb128 .LVL247-.LVL48
	.uleb128 .LVL248-.LVL48
	.uleb128 0x1
	.byte	0x50
	.byte	0x4
	.uleb128 .LVL257-.LVL48
	.uleb128 .LVL258-.LVL48
	.uleb128 0xa
	.byte	0x77
	.sleb128 176
	.byte	0x6
	.byte	0x23
	.uleb128 0x1
	.byte	0x7e
	.sleb128 0
	.byte	0x1e
	.byte	0x9f
	.byte	0x6
	.quad	.LVL264
	.byte	0x4
	.uleb128 .LVL264-.LVL264
	.uleb128 .LVL265-.LVL264
	.uleb128 0xa
	.byte	0x77
	.sleb128 176
	.byte	0x6
	.byte	0x23
	.uleb128 0x1
	.byte	0x7e
	.sleb128 0
	.byte	0x1e
	.byte	0x9f
	.byte	0x4
	.uleb128 .LVL279-.LVL264
	.uleb128 .LVL280-.LVL264
	.uleb128 0x2
	.byte	0x77
	.sleb128 48
	.byte	0
.LVUS258:
	.uleb128 .LVU223
	.uleb128 .LVU230
	.uleb128 .LVU230
	.uleb128 .LVU231
	.uleb128 .LVU1509
	.uleb128 .LVU1511
.LLST258:
	.byte	0x6
	.quad	.LVL48
	.byte	0x4
	.uleb128 .LVL48-.LVL48
	.uleb128 .LVL49-.LVL48
	.uleb128 0x1
	.byte	0x50
	.byte	0x4
	.uleb128 .LVL49-.LVL48
	.uleb128 .LVL50-.LVL48
	.uleb128 0x2
	.byte	0x77
	.sleb128 48
	.byte	0x8
	.quad	.LVL279
	.uleb128 .LVL280-.LVL279
	.uleb128 0x2
	.byte	0x77
	.sleb128 48
	.byte	0
.LVUS263:
	.uleb128 .LVU231
	.uleb128 .LVU245
	.uleb128 .LVU245
	.uleb128 .LVU248
	.uleb128 .LVU1384
	.uleb128 .LVU1386
	.uleb128 .LVU1426
	.uleb128 .LVU1427
.LLST263:
	.byte	0x6
	.quad	.LVL50
	.byte	0x4
	.uleb128 .LVL50-.LVL50
	.uleb128 .LVL52-.LVL50
	.uleb128 0x2
	.byte	0x77
	.sleb128 48
	.byte	0x4
	.uleb128 .LVL52-.LVL50
	.uleb128 .LVL54-.LVL50
	.uleb128 0xa
	.byte	0x77
	.sleb128 176
	.byte	0x6
	.byte	0x23
	.uleb128 0x1
	.byte	0x7e
	.sleb128 0
	.byte	0x1e
	.byte	0x9f
	.byte	0x4
	.uleb128 .LVL247-.LVL50
	.uleb128 .LVL248-.LVL50
	.uleb128 0x1
	.byte	0x50
	.byte	0x4
	.uleb128 .LVL257-.LVL50
	.uleb128 .LVL258-.LVL50
	.uleb128 0xa
	.byte	0x77
	.sleb128 176
	.byte	0x6
	.byte	0x23
	.uleb128 0x1
	.byte	0x7e
	.sleb128 0
	.byte	0x1e
	.byte	0x9f
	.byte	0
.LVUS269:
	.uleb128 .LVU238
	.uleb128 .LVU245
	.uleb128 .LVU245
	.uleb128 .LVU248
	.uleb128 .LVU1384
	.uleb128 .LVU1386
	.uleb128 .LVU1426
	.uleb128 .LVU1427
.LLST269:
	.byte	0x6
	.quad	.LVL50
	.byte	0x4
	.uleb128 .LVL50-.LVL50
	.uleb128 .LVL52-.LVL50
	.uleb128 0x2
	.byte	0x77
	.sleb128 48
	.byte	0x4
	.uleb128 .LVL52-.LVL50
	.uleb128 .LVL54-.LVL50
	.uleb128 0xa
	.byte	0x77
	.sleb128 176
	.byte	0x6
	.byte	0x23
	.uleb128 0x1
	.byte	0x7e
	.sleb128 0
	.byte	0x1e
	.byte	0x9f
	.byte	0x4
	.uleb128 .LVL247-.LVL50
	.uleb128 .LVL248-.LVL50
	.uleb128 0x1
	.byte	0x50
	.byte	0x4
	.uleb128 .LVL257-.LVL50
	.uleb128 .LVL258-.LVL50
	.uleb128 0xa
	.byte	0x77
	.sleb128 176
	.byte	0x6
	.byte	0x23
	.uleb128 0x1
	.byte	0x7e
	.sleb128 0
	.byte	0x1e
	.byte	0x9f
	.byte	0
.LVUS271:
	.uleb128 .LVU240
	.uleb128 .LVU245
	.uleb128 .LVU245
	.uleb128 .LVU248
	.uleb128 .LVU1384
	.uleb128 .LVU1386
	.uleb128 .LVU1426
	.uleb128 .LVU1427
.LLST271:
	.byte	0x6
	.quad	.LVL50
	.byte	0x4
	.uleb128 .LVL50-.LVL50
	.uleb128 .LVL52-.LVL50
	.uleb128 0x2
	.byte	0x77
	.sleb128 48
	.byte	0x4
	.uleb128 .LVL52-.LVL50
	.uleb128 .LVL54-.LVL50
	.uleb128 0xa
	.byte	0x77
	.sleb128 176
	.byte	0x6
	.byte	0x23
	.uleb128 0x1
	.byte	0x7e
	.sleb128 0
	.byte	0x1e
	.byte	0x9f
	.byte	0x4
	.uleb128 .LVL247-.LVL50
	.uleb128 .LVL248-.LVL50
	.uleb128 0x1
	.byte	0x50
	.byte	0x4
	.uleb128 .LVL257-.LVL50
	.uleb128 .LVL258-.LVL50
	.uleb128 0xa
	.byte	0x77
	.sleb128 176
	.byte	0x6
	.byte	0x23
	.uleb128 0x1
	.byte	0x7e
	.sleb128 0
	.byte	0x1e
	.byte	0x9f
	.byte	0
.LVUS273:
	.uleb128 .LVU242
	.uleb128 .LVU245
	.uleb128 .LVU245
	.uleb128 .LVU248
	.uleb128 .LVU1426
	.uleb128 .LVU1427
.LLST273:
	.byte	0x6
	.quad	.LVL51
	.byte	0x4
	.uleb128 .LVL51-.LVL51
	.uleb128 .LVL52-.LVL51
	.uleb128 0x2
	.byte	0x77
	.sleb128 48
	.byte	0x4
	.uleb128 .LVL52-.LVL51
	.uleb128 .LVL54-.LVL51
	.uleb128 0xa
	.byte	0x77
	.sleb128 176
	.byte	0x6
	.byte	0x23
	.uleb128 0x1
	.byte	0x7e
	.sleb128 0
	.byte	0x1e
	.byte	0x9f
	.byte	0x4
	.uleb128 .LVL257-.LVL51
	.uleb128 .LVL258-.LVL51
	.uleb128 0xa
	.byte	0x77
	.sleb128 176
	.byte	0x6
	.byte	0x23
	.uleb128 0x1
	.byte	0x7e
	.sleb128 0
	.byte	0x1e
	.byte	0x9f
	.byte	0
.LVUS274:
	.uleb128 .LVU244
	.uleb128 .LVU248
	.uleb128 .LVU1426
	.uleb128 .LVU1427
.LLST274:
	.byte	0x6
	.quad	.LVL51
	.byte	0x4
	.uleb128 .LVL51-.LVL51
	.uleb128 .LVL54-.LVL51
	.uleb128 0x2
	.byte	0x30
	.byte	0x9f
	.byte	0x4
	.uleb128 .LVL257-.LVL51
	.uleb128 .LVL258-.LVL51
	.uleb128 0x2
	.byte	0x30
	.byte	0x9f
	.byte	0
.LVUS275:
	.uleb128 .LVU243
	.uleb128 .LVU245
	.uleb128 .LVU245
	.uleb128 .LVU248
	.uleb128 .LVU1426
	.uleb128 .LVU1427
.LLST275:
	.byte	0x6
	.quad	.LVL51
	.byte	0x4
	.uleb128 .LVL51-.LVL51
	.uleb128 .LVL52-.LVL51
	.uleb128 0x2
	.byte	0x77
	.sleb128 48
	.byte	0x4
	.uleb128 .LVL52-.LVL51
	.uleb128 .LVL54-.LVL51
	.uleb128 0xa
	.byte	0x77
	.sleb128 176
	.byte	0x6
	.byte	0x23
	.uleb128 0x1
	.byte	0x7e
	.sleb128 0
	.byte	0x1e
	.byte	0x9f
	.byte	0x4
	.uleb128 .LVL257-.LVL51
	.uleb128 .LVL258-.LVL51
	.uleb128 0xa
	.byte	0x77
	.sleb128 176
	.byte	0x6
	.byte	0x23
	.uleb128 0x1
	.byte	0x7e
	.sleb128 0
	.byte	0x1e
	.byte	0x9f
	.byte	0
.LVUS277:
	.uleb128 .LVU248
	.uleb128 .LVU258
	.uleb128 .LVU258
	.uleb128 .LVU258
.LLST277:
	.byte	0x6
	.quad	.LVL54
	.byte	0x4
	.uleb128 .LVL54-.LVL54
	.uleb128 .LVL55-1-.LVL54
	.uleb128 0x1
	.byte	0x51
	.byte	0x4
	.uleb128 .LVL55-1-.LVL54
	.uleb128 .LVL55-.LVL54
	.uleb128 0x2
	.byte	0x77
	.sleb128 48
	.byte	0
.LVUS279:
	.uleb128 .LVU250
	.uleb128 .LVU258
	.uleb128 .LVU258
	.uleb128 .LVU258
.LLST279:
	.byte	0x6
	.quad	.LVL54
	.byte	0x4
	.uleb128 .LVL54-.LVL54
	.uleb128 .LVL55-1-.LVL54
	.uleb128 0x1
	.byte	0x50
	.byte	0x4
	.uleb128 .LVL55-1-.LVL54
	.uleb128 .LVL55-.LVL54
	.uleb128 0x1
	.byte	0x53
	.byte	0
.LVUS280:
	.uleb128 .LVU250
	.uleb128 .LVU258
	.uleb128 .LVU258
	.uleb128 .LVU258
.LLST280:
	.byte	0x6
	.quad	.LVL54
	.byte	0x4
	.uleb128 .LVL54-.LVL54
	.uleb128 .LVL55-1-.LVL54
	.uleb128 0x1
	.byte	0x51
	.byte	0x4
	.uleb128 .LVL55-1-.LVL54
	.uleb128 .LVL55-.LVL54
	.uleb128 0x2
	.byte	0x77
	.sleb128 48
	.byte	0
.LVUS282:
	.uleb128 .LVU251
	.uleb128 .LVU258
	.uleb128 .LVU258
	.uleb128 .LVU258
.LLST282:
	.byte	0x6
	.quad	.LVL54
	.byte	0x4
	.uleb128 .LVL54-.LVL54
	.uleb128 .LVL55-1-.LVL54
	.uleb128 0x1
	.byte	0x50
	.byte	0x4
	.uleb128 .LVL55-1-.LVL54
	.uleb128 .LVL55-.LVL54
	.uleb128 0x1
	.byte	0x53
	.byte	0
.LVUS283:
	.uleb128 .LVU251
	.uleb128 .LVU258
	.uleb128 .LVU258
	.uleb128 .LVU258
.LLST283:
	.byte	0x6
	.quad	.LVL54
	.byte	0x4
	.uleb128 .LVL54-.LVL54
	.uleb128 .LVL55-1-.LVL54
	.uleb128 0x1
	.byte	0x51
	.byte	0x4
	.uleb128 .LVL55-1-.LVL54
	.uleb128 .LVL55-.LVL54
	.uleb128 0x2
	.byte	0x77
	.sleb128 48
	.byte	0
.LVUS286:
	.uleb128 .LVU252
	.uleb128 .LVU258
	.uleb128 .LVU258
	.uleb128 .LVU258
.LLST286:
	.byte	0x6
	.quad	.LVL54
	.byte	0x4
	.uleb128 .LVL54-.LVL54
	.uleb128 .LVL55-1-.LVL54
	.uleb128 0x1
	.byte	0x50
	.byte	0x4
	.uleb128 .LVL55-1-.LVL54
	.uleb128 .LVL55-.LVL54
	.uleb128 0x1
	.byte	0x53
	.byte	0
.LVUS287:
	.uleb128 .LVU252
	.uleb128 .LVU257
	.uleb128 .LVU257
	.uleb128 .LVU258
	.uleb128 .LVU258
	.uleb128 .LVU258
.LLST287:
	.byte	0x6
	.quad	.LVL54
	.byte	0x4
	.uleb128 .LVL54-.LVL54
	.uleb128 .LVL54-.LVL54
	.uleb128 0x1
	.byte	0x51
	.byte	0x4
	.uleb128 .LVL54-.LVL54
	.uleb128 .LVL55-1-.LVL54
	.uleb128 0x3
	.byte	0x71
	.sleb128 -1
	.byte	0x9f
	.byte	0x4
	.uleb128 .LVL55-1-.LVL54
	.uleb128 .LVL55-.LVL54
	.uleb128 0x6
	.byte	0x77
	.sleb128 48
	.byte	0x6
	.byte	0x31
	.byte	0x1c
	.byte	0x9f
	.byte	0
.LVUS290:
	.uleb128 .LVU253
	.uleb128 .LVU254
.LLST290:
	.byte	0x8
	.quad	.LVL54
	.uleb128 .LVL54-.LVL54
	.uleb128 0x6
	.byte	0xa0
	.long	.Ldebug_info0+65485
	.sleb128 0
	.byte	0
.LVUS291:
	.uleb128 .LVU253
	.uleb128 .LVU254
.LLST291:
	.byte	0x8
	.quad	.LVL54
	.uleb128 .LVL54-.LVL54
	.uleb128 0x6
	.byte	0xa0
	.long	.Ldebug_info0+65454
	.sleb128 0
	.byte	0
.LVUS292:
	.uleb128 .LVU258
	.uleb128 .LVU260
.LLST292:
	.byte	0x8
	.quad	.LVL55
	.uleb128 .LVL55-.LVL55
	.uleb128 0x6
	.byte	0xa0
	.long	.Ldebug_info0+65485
	.sleb128 0
	.byte	0
.LVUS316:
	.uleb128 .LVU346
	.uleb128 .LVU367
	.uleb128 .LVU367
	.uleb128 .LVU371
	.uleb128 .LVU371
	.uleb128 .LVU387
	.uleb128 .LVU1397
	.uleb128 .LVU1417
	.uleb128 .LVU1429
	.uleb128 .LVU1430
	.uleb128 .LVU1431
	.uleb128 0
	.uleb128 0
	.uleb128 .LVU1433
	.uleb128 .LVU1489
	.uleb128 .LVU1509
.LLST316:
	.byte	0x6
	.quad	.LVL78
	.byte	0x4
	.uleb128 .LVL78-.LVL78
	.uleb128 .LVL80-.LVL78
	.uleb128 0x3
	.byte	0x77
	.sleb128 192
	.byte	0x4
	.uleb128 .LVL80-.LVL78
	.uleb128 .LVL81-.LVL78
	.uleb128 0x9
	.byte	0x77
	.sleb128 152
	.byte	0x6
	.byte	0x77
	.sleb128 56
	.byte	0x6
	.byte	0x22
	.byte	0x9f
	.byte	0x4
	.uleb128 .LVL81-.LVL78
	.uleb128 .LVL85-.LVL78
	.uleb128 0xf
	.byte	0x77
	.sleb128 104
	.byte	0x6
	.byte	0x77
	.sleb128 176
	.byte	0x6
	.byte	0x1e
	.byte	0x77
	.sleb128 152
	.byte	0x6
	.byte	0x22
	.byte	0x9f
	.byte	0x4
	.uleb128 .LVL252-.LVL78
	.uleb128 .LVL254-.LVL78
	.uleb128 0x3
	.byte	0x77
	.sleb128 192
	.byte	0x4
	.uleb128 .LVL261-.LVL78
	.uleb128 .LVL262-.LVL78
	.uleb128 0xf
	.byte	0x77
	.sleb128 104
	.byte	0x6
	.byte	0x77
	.sleb128 176
	.byte	0x6
	.byte	0x1e
	.byte	0x77
	.sleb128 152
	.byte	0x6
	.byte	0x22
	.byte	0x9f
	.byte	0x4
	.uleb128 .LVL263-.LVL78
	.uleb128 .LHOTE4-.LVL78
	.uleb128 0x3
	.byte	0x77
	.sleb128 192
	.byte	0x6
	.quad	.LFSB11707
	.byte	0x4
	.uleb128 .LFSB11707-.LFSB11707
	.uleb128 .LVL264-.LFSB11707
	.uleb128 0x3
	.byte	0x77
	.sleb128 192
	.byte	0x4
	.uleb128 .LVL273-.LFSB11707
	.uleb128 .LVL279-.LFSB11707
	.uleb128 0xf
	.byte	0x77
	.sleb128 104
	.byte	0x6
	.byte	0x77
	.sleb128 176
	.byte	0x6
	.byte	0x1e
	.byte	0x77
	.sleb128 152
	.byte	0x6
	.byte	0x22
	.byte	0x9f
	.byte	0
.LVUS320:
	.uleb128 .LVU348
	.uleb128 .LVU355
	.uleb128 .LVU1399
	.uleb128 .LVU1406
	.uleb128 .LVU1431
	.uleb128 0
	.uleb128 0
	.uleb128 .LVU1433
.LLST320:
	.byte	0x6
	.quad	.LVL78
	.byte	0x4
	.uleb128 .LVL78-.LVL78
	.uleb128 .LVL79-.LVL78
	.uleb128 0x3
	.byte	0x77
	.sleb128 192
	.byte	0x4
	.uleb128 .LVL252-.LVL78
	.uleb128 .LVL253-.LVL78
	.uleb128 0x3
	.byte	0x77
	.sleb128 192
	.byte	0x4
	.uleb128 .LVL263-.LVL78
	.uleb128 .LHOTE4-.LVL78
	.uleb128 0x3
	.byte	0x77
	.sleb128 192
	.byte	0x8
	.quad	.LFSB11707
	.uleb128 .LVL264-.LFSB11707
	.uleb128 0x3
	.byte	0x77
	.sleb128 192
	.byte	0
.LVUS327:
	.uleb128 .LVU355
	.uleb128 .LVU367
	.uleb128 .LVU367
	.uleb128 .LVU371
	.uleb128 .LVU371
	.uleb128 .LVU374
	.uleb128 .LVU1406
	.uleb128 .LVU1417
	.uleb128 .LVU1429
	.uleb128 .LVU1430
.LLST327:
	.byte	0x6
	.quad	.LVL79
	.byte	0x4
	.uleb128 .LVL79-.LVL79
	.uleb128 .LVL80-.LVL79
	.uleb128 0x3
	.byte	0x77
	.sleb128 192
	.byte	0x4
	.uleb128 .LVL80-.LVL79
	.uleb128 .LVL81-.LVL79
	.uleb128 0x9
	.byte	0x77
	.sleb128 152
	.byte	0x6
	.byte	0x77
	.sleb128 56
	.byte	0x6
	.byte	0x22
	.byte	0x9f
	.byte	0x4
	.uleb128 .LVL81-.LVL79
	.uleb128 .LVL83-.LVL79
	.uleb128 0xf
	.byte	0x77
	.sleb128 104
	.byte	0x6
	.byte	0x77
	.sleb128 176
	.byte	0x6
	.byte	0x1e
	.byte	0x77
	.sleb128 152
	.byte	0x6
	.byte	0x22
	.byte	0x9f
	.byte	0x4
	.uleb128 .LVL253-.LVL79
	.uleb128 .LVL254-.LVL79
	.uleb128 0x3
	.byte	0x77
	.sleb128 192
	.byte	0x4
	.uleb128 .LVL261-.LVL79
	.uleb128 .LVL262-.LVL79
	.uleb128 0xf
	.byte	0x77
	.sleb128 104
	.byte	0x6
	.byte	0x77
	.sleb128 176
	.byte	0x6
	.byte	0x1e
	.byte	0x77
	.sleb128 152
	.byte	0x6
	.byte	0x22
	.byte	0x9f
	.byte	0
.LVUS336:
	.uleb128 .LVU362
	.uleb128 .LVU367
	.uleb128 .LVU367
	.uleb128 .LVU371
	.uleb128 .LVU371
	.uleb128 .LVU374
	.uleb128 .LVU1413
	.uleb128 .LVU1417
	.uleb128 .LVU1429
	.uleb128 .LVU1430
.LLST336:
	.byte	0x6
	.quad	.LVL79
	.byte	0x4
	.uleb128 .LVL79-.LVL79
	.uleb128 .LVL80-.LVL79
	.uleb128 0x3
	.byte	0x77
	.sleb128 192
	.byte	0x4
	.uleb128 .LVL80-.LVL79
	.uleb128 .LVL81-.LVL79
	.uleb128 0x9
	.byte	0x77
	.sleb128 152
	.byte	0x6
	.byte	0x77
	.sleb128 56
	.byte	0x6
	.byte	0x22
	.byte	0x9f
	.byte	0x4
	.uleb128 .LVL81-.LVL79
	.uleb128 .LVL83-.LVL79
	.uleb128 0xf
	.byte	0x77
	.sleb128 104
	.byte	0x6
	.byte	0x77
	.sleb128 176
	.byte	0x6
	.byte	0x1e
	.byte	0x77
	.sleb128 152
	.byte	0x6
	.byte	0x22
	.byte	0x9f
	.byte	0x4
	.uleb128 .LVL253-.LVL79
	.uleb128 .LVL254-.LVL79
	.uleb128 0x3
	.byte	0x77
	.sleb128 192
	.byte	0x4
	.uleb128 .LVL261-.LVL79
	.uleb128 .LVL262-.LVL79
	.uleb128 0xf
	.byte	0x77
	.sleb128 104
	.byte	0x6
	.byte	0x77
	.sleb128 176
	.byte	0x6
	.byte	0x1e
	.byte	0x77
	.sleb128 152
	.byte	0x6
	.byte	0x22
	.byte	0x9f
	.byte	0
.LVUS338:
	.uleb128 .LVU364
	.uleb128 .LVU367
	.uleb128 .LVU367
	.uleb128 .LVU371
	.uleb128 .LVU371
	.uleb128 .LVU374
	.uleb128 .LVU1415
	.uleb128 .LVU1417
	.uleb128 .LVU1429
	.uleb128 .LVU1430
.LLST338:
	.byte	0x6
	.quad	.LVL79
	.byte	0x4
	.uleb128 .LVL79-.LVL79
	.uleb128 .LVL80-.LVL79
	.uleb128 0x3
	.byte	0x77
	.sleb128 192
	.byte	0x4
	.uleb128 .LVL80-.LVL79
	.uleb128 .LVL81-.LVL79
	.uleb128 0x9
	.byte	0x77
	.sleb128 152
	.byte	0x6
	.byte	0x77
	.sleb128 56
	.byte	0x6
	.byte	0x22
	.byte	0x9f
	.byte	0x4
	.uleb128 .LVL81-.LVL79
	.uleb128 .LVL83-.LVL79
	.uleb128 0xf
	.byte	0x77
	.sleb128 104
	.byte	0x6
	.byte	0x77
	.sleb128 176
	.byte	0x6
	.byte	0x1e
	.byte	0x77
	.sleb128 152
	.byte	0x6
	.byte	0x22
	.byte	0x9f
	.byte	0x4
	.uleb128 .LVL253-.LVL79
	.uleb128 .LVL254-.LVL79
	.uleb128 0x3
	.byte	0x77
	.sleb128 192
	.byte	0x4
	.uleb128 .LVL261-.LVL79
	.uleb128 .LVL262-.LVL79
	.uleb128 0xf
	.byte	0x77
	.sleb128 104
	.byte	0x6
	.byte	0x77
	.sleb128 176
	.byte	0x6
	.byte	0x1e
	.byte	0x77
	.sleb128 152
	.byte	0x6
	.byte	0x22
	.byte	0x9f
	.byte	0
.LVUS340:
	.uleb128 .LVU367
	.uleb128 .LVU371
	.uleb128 .LVU371
	.uleb128 .LVU374
	.uleb128 .LVU1429
	.uleb128 .LVU1430
.LLST340:
	.byte	0x6
	.quad	.LVL80
	.byte	0x4
	.uleb128 .LVL80-.LVL80
	.uleb128 .LVL81-.LVL80
	.uleb128 0x9
	.byte	0x77
	.sleb128 152
	.byte	0x6
	.byte	0x77
	.sleb128 56
	.byte	0x6
	.byte	0x22
	.byte	0x9f
	.byte	0x4
	.uleb128 .LVL81-.LVL80
	.uleb128 .LVL83-.LVL80
	.uleb128 0xf
	.byte	0x77
	.sleb128 104
	.byte	0x6
	.byte	0x77
	.sleb128 176
	.byte	0x6
	.byte	0x1e
	.byte	0x77
	.sleb128 152
	.byte	0x6
	.byte	0x22
	.byte	0x9f
	.byte	0x4
	.uleb128 .LVL261-.LVL80
	.uleb128 .LVL262-.LVL80
	.uleb128 0xf
	.byte	0x77
	.sleb128 104
	.byte	0x6
	.byte	0x77
	.sleb128 176
	.byte	0x6
	.byte	0x1e
	.byte	0x77
	.sleb128 152
	.byte	0x6
	.byte	0x22
	.byte	0x9f
	.byte	0
.LVUS342:
	.uleb128 .LVU370
	.uleb128 .LVU374
	.uleb128 .LVU1429
	.uleb128 .LVU1430
.LLST342:
	.byte	0x6
	.quad	.LVL80
	.byte	0x4
	.uleb128 .LVL80-.LVL80
	.uleb128 .LVL83-.LVL80
	.uleb128 0x2
	.byte	0x30
	.byte	0x9f
	.byte	0x4
	.uleb128 .LVL261-.LVL80
	.uleb128 .LVL262-.LVL80
	.uleb128 0x2
	.byte	0x30
	.byte	0x9f
	.byte	0
.LVUS343:
	.uleb128 .LVU369
	.uleb128 .LVU371
	.uleb128 .LVU371
	.uleb128 .LVU374
	.uleb128 .LVU1429
	.uleb128 .LVU1430
.LLST343:
	.byte	0x6
	.quad	.LVL80
	.byte	0x4
	.uleb128 .LVL80-.LVL80
	.uleb128 .LVL81-.LVL80
	.uleb128 0x9
	.byte	0x77
	.sleb128 152
	.byte	0x6
	.byte	0x77
	.sleb128 56
	.byte	0x6
	.byte	0x22
	.byte	0x9f
	.byte	0x4
	.uleb128 .LVL81-.LVL80
	.uleb128 .LVL83-.LVL80
	.uleb128 0xf
	.byte	0x77
	.sleb128 104
	.byte	0x6
	.byte	0x77
	.sleb128 176
	.byte	0x6
	.byte	0x1e
	.byte	0x77
	.sleb128 152
	.byte	0x6
	.byte	0x22
	.byte	0x9f
	.byte	0x4
	.uleb128 .LVL261-.LVL80
	.uleb128 .LVL262-.LVL80
	.uleb128 0xf
	.byte	0x77
	.sleb128 104
	.byte	0x6
	.byte	0x77
	.sleb128 176
	.byte	0x6
	.byte	0x1e
	.byte	0x77
	.sleb128 152
	.byte	0x6
	.byte	0x22
	.byte	0x9f
	.byte	0
.LVUS345:
	.uleb128 .LVU374
	.uleb128 .LVU387
.LLST345:
	.byte	0x8
	.quad	.LVL83
	.uleb128 .LVL85-.LVL83
	.uleb128 0xf
	.byte	0x77
	.sleb128 104
	.byte	0x6
	.byte	0x77
	.sleb128 176
	.byte	0x6
	.byte	0x1e
	.byte	0x77
	.sleb128 152
	.byte	0x6
	.byte	0x22
	.byte	0x9f
	.byte	0
.LVUS347:
	.uleb128 .LVU376
	.uleb128 .LVU384
.LLST347:
	.byte	0x8
	.quad	.LVL83
	.uleb128 .LVL84-1-.LVL83
	.uleb128 0x1
	.byte	0x50
	.byte	0
.LVUS348:
	.uleb128 .LVU376
	.uleb128 .LVU387
.LLST348:
	.byte	0x8
	.quad	.LVL83
	.uleb128 .LVL85-.LVL83
	.uleb128 0xf
	.byte	0x77
	.sleb128 104
	.byte	0x6
	.byte	0x77
	.sleb128 176
	.byte	0x6
	.byte	0x1e
	.byte	0x77
	.sleb128 152
	.byte	0x6
	.byte	0x22
	.byte	0x9f
	.byte	0
.LVUS350:
	.uleb128 .LVU377
	.uleb128 .LVU384
.LLST350:
	.byte	0x8
	.quad	.LVL83
	.uleb128 .LVL84-1-.LVL83
	.uleb128 0x1
	.byte	0x50
	.byte	0
.LVUS351:
	.uleb128 .LVU377
	.uleb128 .LVU387
.LLST351:
	.byte	0x8
	.quad	.LVL83
	.uleb128 .LVL85-.LVL83
	.uleb128 0xf
	.byte	0x77
	.sleb128 104
	.byte	0x6
	.byte	0x77
	.sleb128 176
	.byte	0x6
	.byte	0x1e
	.byte	0x77
	.sleb128 152
	.byte	0x6
	.byte	0x22
	.byte	0x9f
	.byte	0
.LVUS354:
	.uleb128 .LVU378
	.uleb128 .LVU384
.LLST354:
	.byte	0x8
	.quad	.LVL83
	.uleb128 .LVL84-1-.LVL83
	.uleb128 0x1
	.byte	0x50
	.byte	0
.LVUS355:
	.uleb128 .LVU378
	.uleb128 .LVU383
	.uleb128 .LVU383
	.uleb128 .LVU387
.LLST355:
	.byte	0x6
	.quad	.LVL83
	.byte	0x4
	.uleb128 .LVL83-.LVL83
	.uleb128 .LVL83-.LVL83
	.uleb128 0xf
	.byte	0x77
	.sleb128 104
	.byte	0x6
	.byte	0x77
	.sleb128 176
	.byte	0x6
	.byte	0x1e
	.byte	0x77
	.sleb128 152
	.byte	0x6
	.byte	0x22
	.byte	0x9f
	.byte	0x4
	.uleb128 .LVL83-.LVL83
	.uleb128 .LVL85-.LVL83
	.uleb128 0x11
	.byte	0x77
	.sleb128 104
	.byte	0x6
	.byte	0x77
	.sleb128 176
	.byte	0x6
	.byte	0x1e
	.byte	0x77
	.sleb128 152
	.byte	0x6
	.byte	0x22
	.byte	0x31
	.byte	0x1c
	.byte	0x9f
	.byte	0
.LVUS358:
	.uleb128 .LVU379
	.uleb128 .LVU380
.LLST358:
	.byte	0x8
	.quad	.LVL83
	.uleb128 .LVL83-.LVL83
	.uleb128 0x6
	.byte	0xa0
	.long	.Ldebug_info0+66675
	.sleb128 0
	.byte	0
.LVUS359:
	.uleb128 .LVU379
	.uleb128 .LVU380
.LLST359:
	.byte	0x8
	.quad	.LVL83
	.uleb128 .LVL83-.LVL83
	.uleb128 0x6
	.byte	0xa0
	.long	.Ldebug_info0+66644
	.sleb128 0
	.byte	0
.LVUS517:
	.uleb128 .LVU1140
	.uleb128 .LVU1156
.LLST517:
	.byte	0x8
	.quad	.LVL197
	.uleb128 .LVL199-.LVL197
	.uleb128 0x6
	.byte	0x77
	.sleb128 56
	.byte	0x6
	.byte	0x34
	.byte	0x1b
	.byte	0x9f
	.byte	0
.LVUS518:
	.uleb128 .LVU1140
	.uleb128 .LVU1145
.LLST518:
	.byte	0x8
	.quad	.LVL197
	.uleb128 .LVL199-1-.LVL197
	.uleb128 0x1
	.byte	0x55
	.byte	0
.LVUS519:
	.uleb128 .LVU1140
	.uleb128 .LVU1145
.LLST519:
	.byte	0x8
	.quad	.LVL197
	.uleb128 .LVL199-.LVL197
	.uleb128 0x6
	.byte	0x77
	.sleb128 56
	.byte	0x6
	.byte	0x34
	.byte	0x1b
	.byte	0x9f
	.byte	0
.LVUS520:
	.uleb128 .LVU1142
	.uleb128 .LVU1145
.LLST520:
	.byte	0x8
	.quad	.LVL198
	.uleb128 .LVL199-1-.LVL198
	.uleb128 0x1
	.byte	0x55
	.byte	0
.LVUS521:
	.uleb128 .LVU1142
	.uleb128 .LVU1145
.LLST521:
	.byte	0x8
	.quad	.LVL198
	.uleb128 .LVL199-.LVL198
	.uleb128 0x6
	.byte	0x77
	.sleb128 56
	.byte	0x6
	.byte	0x34
	.byte	0x1b
	.byte	0x9f
	.byte	0
.LVUS522:
	.uleb128 .LVU1143
	.uleb128 .LVU1145
.LLST522:
	.byte	0x8
	.quad	.LVL198
	.uleb128 .LVL199-1-.LVL198
	.uleb128 0x1
	.byte	0x55
	.byte	0
.LVUS523:
	.uleb128 .LVU1143
	.uleb128 .LVU1145
.LLST523:
	.byte	0x8
	.quad	.LVL198
	.uleb128 .LVL199-.LVL198
	.uleb128 0x6
	.byte	0x77
	.sleb128 56
	.byte	0x6
	.byte	0x34
	.byte	0x1b
	.byte	0x9f
	.byte	0
.LVUS524:
	.uleb128 .LVU1156
	.uleb128 .LVU1161
.LLST524:
	.byte	0x8
	.quad	.LVL199
	.uleb128 .LVL201-.LVL199
	.uleb128 0x1
	.byte	0x53
	.byte	0
.LVUS525:
	.uleb128 .LVU1158
	.uleb128 .LVU1161
.LLST525:
	.byte	0x8
	.quad	.LVL200
	.uleb128 .LVL201-.LVL200
	.uleb128 0x1
	.byte	0x53
	.byte	0
.LVUS526:
	.uleb128 .LVU1159
	.uleb128 .LVU1161
.LLST526:
	.byte	0x8
	.quad	.LVL200
	.uleb128 .LVL201-.LVL200
	.uleb128 0x1
	.byte	0x53
	.byte	0
.LVUS527:
	.uleb128 .LVU1172
	.uleb128 .LVU1177
.LLST527:
	.byte	0x8
	.quad	.LVL201
	.uleb128 .LVL203-.LVL201
	.uleb128 0x3
	.byte	0x77
	.sleb128 64
	.byte	0
.LVUS528:
	.uleb128 .LVU1174
	.uleb128 .LVU1177
.LLST528:
	.byte	0x8
	.quad	.LVL202
	.uleb128 .LVL203-.LVL202
	.uleb128 0x3
	.byte	0x77
	.sleb128 64
	.byte	0
.LVUS529:
	.uleb128 .LVU1175
	.uleb128 .LVU1177
.LLST529:
	.byte	0x8
	.quad	.LVL202
	.uleb128 .LVL203-.LVL202
	.uleb128 0x3
	.byte	0x77
	.sleb128 64
	.byte	0
.LVUS532:
	.uleb128 .LVU1442
	.uleb128 .LVU1451
.LLST532:
	.byte	0x8
	.quad	.LVL265
	.uleb128 .LVL267-.LVL265
	.uleb128 0x6
	.byte	0x77
	.sleb128 24
	.byte	0x6
	.byte	0x34
	.byte	0x1b
	.byte	0x9f
	.byte	0
.LVUS533:
	.uleb128 .LVU1442
	.uleb128 .LVU1447
.LLST533:
	.byte	0x8
	.quad	.LVL265
	.uleb128 .LVL267-.LVL265
	.uleb128 0x3
	.byte	0x77
	.sleb128 64
	.byte	0
.LVUS534:
	.uleb128 .LVU1442
	.uleb128 .LVU1447
.LLST534:
	.byte	0x8
	.quad	.LVL265
	.uleb128 .LVL267-.LVL265
	.uleb128 0x6
	.byte	0x77
	.sleb128 24
	.byte	0x6
	.byte	0x34
	.byte	0x1b
	.byte	0x9f
	.byte	0
.LVUS535:
	.uleb128 .LVU1444
	.uleb128 .LVU1447
.LLST535:
	.byte	0x8
	.quad	.LVL266
	.uleb128 .LVL267-.LVL266
	.uleb128 0x3
	.byte	0x77
	.sleb128 64
	.byte	0
.LVUS536:
	.uleb128 .LVU1444
	.uleb128 .LVU1447
.LLST536:
	.byte	0x8
	.quad	.LVL266
	.uleb128 .LVL267-.LVL266
	.uleb128 0x6
	.byte	0x77
	.sleb128 24
	.byte	0x6
	.byte	0x34
	.byte	0x1b
	.byte	0x9f
	.byte	0
.LVUS537:
	.uleb128 .LVU1445
	.uleb128 .LVU1447
.LLST537:
	.byte	0x8
	.quad	.LVL266
	.uleb128 .LVL267-.LVL266
	.uleb128 0x3
	.byte	0x77
	.sleb128 64
	.byte	0
.LVUS538:
	.uleb128 .LVU1445
	.uleb128 .LVU1447
.LLST538:
	.byte	0x8
	.quad	.LVL266
	.uleb128 .LVL267-.LVL266
	.uleb128 0x6
	.byte	0x77
	.sleb128 24
	.byte	0x6
	.byte	0x34
	.byte	0x1b
	.byte	0x9f
	.byte	0
.LVUS540:
	.uleb128 .LVU1451
	.uleb128 .LVU1469
.LLST540:
	.byte	0x8
	.quad	.LVL267
	.uleb128 .LVL269-.LVL267
	.uleb128 0x6
	.byte	0xa0
	.long	.Ldebug_info0+51683
	.sleb128 0
	.byte	0
.LVUS541:
	.uleb128 .LVU1453
	.uleb128 .LVU1454
.LLST541:
	.byte	0x8
	.quad	.LVL267
	.uleb128 .LVL267-.LVL267
	.uleb128 0x6
	.byte	0xa0
	.long	.Ldebug_info0+51683
	.sleb128 0
	.byte	0
.LVUS542:
	.uleb128 .LVU1454
	.uleb128 .LVU1456
.LLST542:
	.byte	0x8
	.quad	.LVL267
	.uleb128 .LVL267-.LVL267
	.uleb128 0x6
	.byte	0xa0
	.long	.Ldebug_info0+51683
	.sleb128 0
	.byte	0
.LVUS544:
	.uleb128 .LVU1456
	.uleb128 .LVU1469
.LLST544:
	.byte	0x8
	.quad	.LVL267
	.uleb128 .LVL269-.LVL267
	.uleb128 0x6
	.byte	0xa0
	.long	.Ldebug_info0+51683
	.sleb128 0
	.byte	0
.LVUS547:
	.uleb128 .LVU1458
	.uleb128 .LVU1465
.LLST547:
	.byte	0x8
	.quad	.LVL267
	.uleb128 .LVL269-.LVL267
	.uleb128 0x6
	.byte	0xa0
	.long	.Ldebug_info0+51683
	.sleb128 0
	.byte	0
.LVUS548:
	.uleb128 .LVU1458
	.uleb128 .LVU1465
.LLST548:
	.byte	0x8
	.quad	.LVL267
	.uleb128 .LVL269-.LVL267
	.uleb128 0x3
	.byte	0x77
	.sleb128 96
	.byte	0
.LVUS550:
	.uleb128 .LVU1461
	.uleb128 .LVU1465
.LLST550:
	.byte	0x8
	.quad	.LVL268
	.uleb128 .LVL269-.LVL268
	.uleb128 0x6
	.byte	0xa0
	.long	.Ldebug_info0+51683
	.sleb128 0
	.byte	0
.LVUS551:
	.uleb128 .LVU1460
	.uleb128 .LVU1465
.LLST551:
	.byte	0x8
	.quad	.LVL268
	.uleb128 .LVL269-.LVL268
	.uleb128 0x3
	.byte	0x77
	.sleb128 96
	.byte	0
.LVUS553:
	.uleb128 .LVU1461
	.uleb128 .LVU1465
.LLST553:
	.byte	0x8
	.quad	.LVL268
	.uleb128 .LVL269-.LVL268
	.uleb128 0x3
	.byte	0x77
	.sleb128 96
	.byte	0
.LVUS555:
	.uleb128 .LVU1462
	.uleb128 .LVU1465
.LLST555:
	.byte	0x8
	.quad	.LVL268
	.uleb128 .LVL269-.LVL268
	.uleb128 0x3
	.byte	0x77
	.sleb128 96
	.byte	0
.LVUS556:
	.uleb128 .LVU1465
	.uleb128 .LVU1469
.LLST556:
	.byte	0x8
	.quad	.LVL269
	.uleb128 .LVL269-.LVL269
	.uleb128 0x6
	.byte	0xa0
	.long	.Ldebug_info0+51683
	.sleb128 0
	.byte	0
.LVUS557:
	.uleb128 .LVU1467
	.uleb128 .LVU1469
.LLST557:
	.byte	0x8
	.quad	.LVL269
	.uleb128 .LVL269-.LVL269
	.uleb128 0x6
	.byte	0xa0
	.long	.Ldebug_info0+51683
	.sleb128 0
	.byte	0
.LVUS558:
	.uleb128 .LVU1468
	.uleb128 .LVU1469
.LLST558:
	.byte	0x8
	.quad	.LVL269
	.uleb128 .LVL269-.LVL269
	.uleb128 0x6
	.byte	0xa0
	.long	.Ldebug_info0+51683
	.sleb128 0
	.byte	0
.LVUS560:
	.uleb128 .LVU1469
	.uleb128 .LVU1488
.LLST560:
	.byte	0x8
	.quad	.LVL269
	.uleb128 .LVL272-.LVL269
	.uleb128 0x2
	.byte	0x77
	.sleb128 40
	.byte	0
.LVUS561:
	.uleb128 .LVU1471
	.uleb128 .LVU1488
.LLST561:
	.byte	0x8
	.quad	.LVL269
	.uleb128 .LVL272-.LVL269
	.uleb128 0x6
	.byte	0x77
	.sleb128 40
	.byte	0x6
	.byte	0x23
	.uleb128 0x10
	.byte	0x9f
	.byte	0
.LVUS562:
	.uleb128 .LVU1472
	.uleb128 .LVU1473
.LLST562:
	.byte	0x8
	.quad	.LVL269
	.uleb128 .LVL269-.LVL269
	.uleb128 0x6
	.byte	0x77
	.sleb128 40
	.byte	0x6
	.byte	0x23
	.uleb128 0x10
	.byte	0x9f
	.byte	0
.LVUS563:
	.uleb128 .LVU1473
	.uleb128 .LVU1475
.LLST563:
	.byte	0x8
	.quad	.LVL269
	.uleb128 .LVL269-.LVL269
	.uleb128 0x5
	.byte	0x77
	.sleb128 40
	.byte	0x6
	.byte	0x23
	.uleb128 0x10
	.byte	0
.LVUS564:
	.uleb128 .LVU1473
	.uleb128 .LVU1475
.LLST564:
	.byte	0x8
	.quad	.LVL269
	.uleb128 .LVL269-.LVL269
	.uleb128 0x5
	.byte	0x77
	.sleb128 40
	.byte	0x6
	.byte	0x23
	.uleb128 0x18
	.byte	0
.LVUS565:
	.uleb128 .LVU1473
	.uleb128 .LVU1475
.LLST565:
	.byte	0x8
	.quad	.LVL269
	.uleb128 .LVL269-.LVL269
	.uleb128 0x6
	.byte	0x77
	.sleb128 40
	.byte	0x6
	.byte	0x23
	.uleb128 0x10
	.byte	0x9f
	.byte	0
.LVUS567:
	.uleb128 .LVU1475
	.uleb128 .LVU1488
.LLST567:
	.byte	0x8
	.quad	.LVL269
	.uleb128 .LVL272-.LVL269
	.uleb128 0x6
	.byte	0x77
	.sleb128 40
	.byte	0x6
	.byte	0x23
	.uleb128 0x10
	.byte	0x9f
	.byte	0
.LVUS569:
	.uleb128 .LVU1478
	.uleb128 .LVU1484
.LLST569:
	.byte	0x8
	.quad	.LVL270
	.uleb128 .LVL272-1-.LVL270
	.uleb128 0xa
	.byte	0x77
	.sleb128 40
	.byte	0x6
	.byte	0x23
	.uleb128 0x20
	.byte	0x6
	.byte	0x75
	.sleb128 0
	.byte	0x1c
	.byte	0x9f
	.byte	0
.LVUS571:
	.uleb128 .LVU1478
	.uleb128 .LVU1484
.LLST571:
	.byte	0x8
	.quad	.LVL270
	.uleb128 .LVL272-.LVL270
	.uleb128 0x6
	.byte	0x77
	.sleb128 40
	.byte	0x6
	.byte	0x23
	.uleb128 0x10
	.byte	0x9f
	.byte	0
.LVUS572:
	.uleb128 .LVU1478
	.uleb128 .LVU1484
.LLST572:
	.byte	0x8
	.quad	.LVL270
	.uleb128 .LVL272-1-.LVL270
	.uleb128 0x1
	.byte	0x55
	.byte	0
.LVUS575:
	.uleb128 .LVU1480
	.uleb128 .LVU1484
.LLST575:
	.byte	0x8
	.quad	.LVL271
	.uleb128 .LVL272-.LVL271
	.uleb128 0x6
	.byte	0x77
	.sleb128 40
	.byte	0x6
	.byte	0x23
	.uleb128 0x10
	.byte	0x9f
	.byte	0
.LVUS576:
	.uleb128 .LVU1480
	.uleb128 .LVU1484
.LLST576:
	.byte	0x8
	.quad	.LVL271
	.uleb128 .LVL272-1-.LVL271
	.uleb128 0x1
	.byte	0x55
	.byte	0
.LVUS577:
	.uleb128 .LVU1480
	.uleb128 .LVU1484
.LLST577:
	.byte	0x8
	.quad	.LVL271
	.uleb128 .LVL272-1-.LVL271
	.uleb128 0xa
	.byte	0x77
	.sleb128 40
	.byte	0x6
	.byte	0x23
	.uleb128 0x20
	.byte	0x6
	.byte	0x75
	.sleb128 0
	.byte	0x1c
	.byte	0x9f
	.byte	0
.LVUS578:
	.uleb128 .LVU1481
	.uleb128 .LVU1484
.LLST578:
	.byte	0x8
	.quad	.LVL271
	.uleb128 .LVL272-.LVL271
	.uleb128 0x6
	.byte	0x77
	.sleb128 40
	.byte	0x6
	.byte	0x23
	.uleb128 0x10
	.byte	0x9f
	.byte	0
.LVUS579:
	.uleb128 .LVU1481
	.uleb128 .LVU1484
.LLST579:
	.byte	0x8
	.quad	.LVL271
	.uleb128 .LVL272-1-.LVL271
	.uleb128 0x1
	.byte	0x55
	.byte	0
.LVUS580:
	.uleb128 .LVU1481
	.uleb128 .LVU1484
.LLST580:
	.byte	0x8
	.quad	.LVL271
	.uleb128 .LVL272-1-.LVL271
	.uleb128 0xa
	.byte	0x77
	.sleb128 40
	.byte	0x6
	.byte	0x23
	.uleb128 0x20
	.byte	0x6
	.byte	0x75
	.sleb128 0
	.byte	0x1c
	.byte	0x9f
	.byte	0
.LVUS581:
	.uleb128 .LVU1484
	.uleb128 .LVU1488
.LLST581:
	.byte	0x8
	.quad	.LVL272
	.uleb128 .LVL272-.LVL272
	.uleb128 0x6
	.byte	0x77
	.sleb128 40
	.byte	0x6
	.byte	0x23
	.uleb128 0x10
	.byte	0x9f
	.byte	0
.LVUS582:
	.uleb128 .LVU1486
	.uleb128 .LVU1488
.LLST582:
	.byte	0x8
	.quad	.LVL272
	.uleb128 .LVL272-.LVL272
	.uleb128 0x6
	.byte	0x77
	.sleb128 40
	.byte	0x6
	.byte	0x23
	.uleb128 0x10
	.byte	0x9f
	.byte	0
.LVUS583:
	.uleb128 .LVU1487
	.uleb128 .LVU1488
.LLST583:
	.byte	0x8
	.quad	.LVL272
	.uleb128 .LVL272-.LVL272
	.uleb128 0x6
	.byte	0x77
	.sleb128 40
	.byte	0x6
	.byte	0x23
	.uleb128 0x10
	.byte	0x9f
	.byte	0
.LVUS586:
	.uleb128 .LVU1497
	.uleb128 .LVU1509
.LLST586:
	.byte	0x8
	.quad	.LVL274
	.uleb128 .LVL279-.LVL274
	.uleb128 0x6
	.byte	0x77
	.sleb128 48
	.byte	0x6
	.byte	0x34
	.byte	0x1b
	.byte	0x9f
	.byte	0
.LVUS587:
	.uleb128 .LVU1497
	.uleb128 .LVU1499
	.uleb128 .LVU1504
	.uleb128 .LVU1509
.LLST587:
	.byte	0x6
	.quad	.LVL274
	.byte	0x4
	.uleb128 .LVL274-.LVL274
	.uleb128 .LVL275-.LVL274
	.uleb128 0x1
	.byte	0x53
	.byte	0x4
	.uleb128 .LVL276-.LVL274
	.uleb128 .LVL279-.LVL274
	.uleb128 0x1
	.byte	0x53
	.byte	0
.LVUS588:
	.uleb128 .LVU1497
	.uleb128 .LVU1499
	.uleb128 .LVU1504
	.uleb128 .LVU1509
.LLST588:
	.byte	0x6
	.quad	.LVL274
	.byte	0x4
	.uleb128 .LVL274-.LVL274
	.uleb128 .LVL275-.LVL274
	.uleb128 0x6
	.byte	0x77
	.sleb128 48
	.byte	0x6
	.byte	0x34
	.byte	0x1b
	.byte	0x9f
	.byte	0x4
	.uleb128 .LVL276-.LVL274
	.uleb128 .LVL279-.LVL274
	.uleb128 0x6
	.byte	0x77
	.sleb128 48
	.byte	0x6
	.byte	0x34
	.byte	0x1b
	.byte	0x9f
	.byte	0
.LVUS589:
	.uleb128 .LVU1504
	.uleb128 .LVU1508
.LLST589:
	.byte	0x8
	.quad	.LVL276
	.uleb128 .LVL278-.LVL276
	.uleb128 0x1
	.byte	0x53
	.byte	0
.LVUS590:
	.uleb128 .LVU1504
	.uleb128 .LVU1508
.LLST590:
	.byte	0x8
	.quad	.LVL276
	.uleb128 .LVL278-.LVL276
	.uleb128 0x6
	.byte	0x77
	.sleb128 48
	.byte	0x6
	.byte	0x34
	.byte	0x1b
	.byte	0x9f
	.byte	0
.LVUS591:
	.uleb128 .LVU1506
	.uleb128 .LVU1508
.LLST591:
	.byte	0x8
	.quad	.LVL276
	.uleb128 .LVL278-.LVL276
	.uleb128 0x1
	.byte	0x53
	.byte	0
.LVUS592:
	.uleb128 .LVU1506
	.uleb128 .LVU1508
.LLST592:
	.byte	0x8
	.quad	.LVL276
	.uleb128 .LVL278-.LVL276
	.uleb128 0x6
	.byte	0x77
	.sleb128 48
	.byte	0x6
	.byte	0x34
	.byte	0x1b
	.byte	0x9f
	.byte	0
.Ldebug_loc3:
	.section	.debug_aranges,"",@progbits
	.long	0x3c
	.value	0x2
	.long	.Ldebug_info0
	.byte	0x8
	.byte	0
	.value	0
	.value	0
	.quad	.Ltext0
	.quad	.Letext0-.Ltext0
	.quad	.Ltext_cold0
	.quad	.Letext_cold0-.Ltext_cold0
	.quad	0
	.quad	0
	.section	.debug_rnglists,"",@progbits
.Ldebug_ranges0:
	.long	.Ldebug_ranges3-.Ldebug_ranges2
.Ldebug_ranges2:
	.value	0x5
	.byte	0x8
	.byte	0
	.long	0
.LLRL0:
	.byte	0x7
	.quad	.LFB11707
	.uleb128 .LHOTE4-.LFB11707
	.byte	0x7
	.quad	.LFSB11707
	.uleb128 .LCOLDE4-.LFSB11707
	.byte	0
.LLRL5:
	.byte	0x5
	.quad	.LBB2324
	.byte	0x4
	.uleb128 .LBB2324-.LBB2324
	.uleb128 .LBE2324-.LBB2324
	.byte	0x4
	.uleb128 .LBB2348-.LBB2324
	.uleb128 .LBE2348-.LBB2324
	.byte	0x4
	.uleb128 .LBB2352-.LBB2324
	.uleb128 .LBE2352-.LBB2324
	.byte	0
.LLRL6:
	.byte	0x5
	.quad	.LBB2328
	.byte	0x4
	.uleb128 .LBB2328-.LBB2328
	.uleb128 .LBE2328-.LBB2328
	.byte	0x4
	.uleb128 .LBB2331-.LBB2328
	.uleb128 .LBE2331-.LBB2328
	.byte	0x4
	.uleb128 .LBB2334-.LBB2328
	.uleb128 .LBE2334-.LBB2328
	.byte	0
.LLRL7:
	.byte	0x5
	.quad	.LBB2341
	.byte	0x4
	.uleb128 .LBB2341-.LBB2341
	.uleb128 .LBE2341-.LBB2341
	.byte	0x4
	.uleb128 .LBB2347-.LBB2341
	.uleb128 .LBE2347-.LBB2341
	.byte	0
.LLRL14:
	.byte	0x5
	.quad	.LBB2353
	.byte	0x4
	.uleb128 .LBB2353-.LBB2353
	.uleb128 .LBE2353-.LBB2353
	.byte	0x4
	.uleb128 .LBB3249-.LBB2353
	.uleb128 .LBE3249-.LBB2353
	.byte	0x4
	.uleb128 .LBB3251-.LBB2353
	.uleb128 .LBE3251-.LBB2353
	.byte	0x7
	.quad	.LBB3357
	.uleb128 .LBE3357-.LBB3357
	.byte	0
.LLRL21:
	.byte	0x5
	.quad	.LBB2357
	.byte	0x4
	.uleb128 .LBB2357-.LBB2357
	.uleb128 .LBE2357-.LBB2357
	.byte	0x4
	.uleb128 .LBB2429-.LBB2357
	.uleb128 .LBE2429-.LBB2357
	.byte	0x7
	.quad	.LBB2430
	.uleb128 .LBE2430-.LBB2430
	.byte	0
.LLRL22:
	.byte	0x5
	.quad	.LBB2358
	.byte	0x4
	.uleb128 .LBB2358-.LBB2358
	.uleb128 .LBE2358-.LBB2358
	.byte	0x4
	.uleb128 .LBB2413-.LBB2358
	.uleb128 .LBE2413-.LBB2358
	.byte	0x7
	.quad	.LBB2428
	.uleb128 .LBE2428-.LBB2428
	.byte	0
.LLRL27:
	.byte	0x7
	.quad	.LBB2359
	.uleb128 .LBE2359-.LBB2359
	.byte	0x7
	.quad	.LBB2412
	.uleb128 .LBE2412-.LBB2412
	.byte	0
.LLRL32:
	.byte	0x5
	.quad	.LBB2366
	.byte	0x4
	.uleb128 .LBB2366-.LBB2366
	.uleb128 .LBE2366-.LBB2366
	.byte	0x4
	.uleb128 .LBB2407-.LBB2366
	.uleb128 .LBE2407-.LBB2366
	.byte	0x4
	.uleb128 .LBB2409-.LBB2366
	.uleb128 .LBE2409-.LBB2366
	.byte	0
.LLRL36:
	.byte	0x5
	.quad	.LBB2367
	.byte	0x4
	.uleb128 .LBB2367-.LBB2367
	.uleb128 .LBE2367-.LBB2367
	.byte	0x4
	.uleb128 .LBB2386-.LBB2367
	.uleb128 .LBE2386-.LBB2367
	.byte	0x4
	.uleb128 .LBB2387-.LBB2367
	.uleb128 .LBE2387-.LBB2367
	.byte	0x4
	.uleb128 .LBB2388-.LBB2367
	.uleb128 .LBE2388-.LBB2367
	.byte	0
.LLRL39:
	.byte	0x5
	.quad	.LBB2369
	.byte	0x4
	.uleb128 .LBB2369-.LBB2369
	.uleb128 .LBE2369-.LBB2369
	.byte	0x4
	.uleb128 .LBB2378-.LBB2369
	.uleb128 .LBE2378-.LBB2369
	.byte	0
.LLRL42:
	.byte	0x5
	.quad	.LBB2371
	.byte	0x4
	.uleb128 .LBB2371-.LBB2371
	.uleb128 .LBE2371-.LBB2371
	.byte	0x4
	.uleb128 .LBB2376-.LBB2371
	.uleb128 .LBE2376-.LBB2371
	.byte	0
.LLRL45:
	.byte	0x5
	.quad	.LBB2372
	.byte	0x4
	.uleb128 .LBB2372-.LBB2372
	.uleb128 .LBE2372-.LBB2372
	.byte	0x4
	.uleb128 .LBB2375-.LBB2372
	.uleb128 .LBE2375-.LBB2372
	.byte	0
.LLRL56:
	.byte	0x5
	.quad	.LBB2389
	.byte	0x4
	.uleb128 .LBB2389-.LBB2389
	.uleb128 .LBE2389-.LBB2389
	.byte	0x4
	.uleb128 .LBB2408-.LBB2389
	.uleb128 .LBE2408-.LBB2389
	.byte	0x4
	.uleb128 .LBB2410-.LBB2389
	.uleb128 .LBE2410-.LBB2389
	.byte	0x4
	.uleb128 .LBB2411-.LBB2389
	.uleb128 .LBE2411-.LBB2389
	.byte	0
.LLRL67:
	.byte	0x5
	.quad	.LBB2393
	.byte	0x4
	.uleb128 .LBB2393-.LBB2393
	.uleb128 .LBE2393-.LBB2393
	.byte	0x4
	.uleb128 .LBB2397-.LBB2393
	.uleb128 .LBE2397-.LBB2393
	.byte	0x4
	.uleb128 .LBB2398-.LBB2393
	.uleb128 .LBE2398-.LBB2393
	.byte	0
.LLRL68:
	.byte	0x5
	.quad	.LBB2394
	.byte	0x4
	.uleb128 .LBB2394-.LBB2394
	.uleb128 .LBE2394-.LBB2394
	.byte	0x4
	.uleb128 .LBB2395-.LBB2394
	.uleb128 .LBE2395-.LBB2394
	.byte	0x4
	.uleb128 .LBB2396-.LBB2394
	.uleb128 .LBE2396-.LBB2394
	.byte	0
.LLRL86:
	.byte	0x5
	.quad	.LBB2440
	.byte	0x4
	.uleb128 .LBB2440-.LBB2440
	.uleb128 .LBE2440-.LBB2440
	.byte	0x4
	.uleb128 .LBB2637-.LBB2440
	.uleb128 .LBE2637-.LBB2440
	.byte	0x4
	.uleb128 .LBB3242-.LBB2440
	.uleb128 .LBE3242-.LBB2440
	.byte	0x4
	.uleb128 .LBB3244-.LBB2440
	.uleb128 .LBE3244-.LBB2440
	.byte	0x4
	.uleb128 .LBB3246-.LBB2440
	.uleb128 .LBE3246-.LBB2440
	.byte	0x4
	.uleb128 .LBB3252-.LBB2440
	.uleb128 .LBE3252-.LBB2440
	.byte	0x4
	.uleb128 .LBB3257-.LBB2440
	.uleb128 .LBE3257-.LBB2440
	.byte	0
.LLRL90:
	.byte	0x5
	.quad	.LBB2443
	.byte	0x4
	.uleb128 .LBB2443-.LBB2443
	.uleb128 .LBE2443-.LBB2443
	.byte	0x4
	.uleb128 .LBB2456-.LBB2443
	.uleb128 .LBE2456-.LBB2443
	.byte	0
.LLRL93:
	.byte	0x5
	.quad	.LBB2446
	.byte	0x4
	.uleb128 .LBB2446-.LBB2446
	.uleb128 .LBE2446-.LBB2446
	.byte	0x4
	.uleb128 .LBB2452-.LBB2446
	.uleb128 .LBE2452-.LBB2446
	.byte	0x4
	.uleb128 .LBB2453-.LBB2446
	.uleb128 .LBE2453-.LBB2446
	.byte	0x4
	.uleb128 .LBB2454-.LBB2446
	.uleb128 .LBE2454-.LBB2446
	.byte	0x4
	.uleb128 .LBB2455-.LBB2446
	.uleb128 .LBE2455-.LBB2446
	.byte	0x4
	.uleb128 .LBB2457-.LBB2446
	.uleb128 .LBE2457-.LBB2446
	.byte	0x4
	.uleb128 .LBB2458-.LBB2446
	.uleb128 .LBE2458-.LBB2446
	.byte	0
.LLRL95:
	.byte	0x5
	.quad	.LBB2471
	.byte	0x4
	.uleb128 .LBB2471-.LBB2471
	.uleb128 .LBE2471-.LBB2471
	.byte	0x4
	.uleb128 .LBB2491-.LBB2471
	.uleb128 .LBE2491-.LBB2471
	.byte	0x4
	.uleb128 .LBB3253-.LBB2471
	.uleb128 .LBE3253-.LBB2471
	.byte	0x4
	.uleb128 .LBB3255-.LBB2471
	.uleb128 .LBE3255-.LBB2471
	.byte	0
.LLRL97:
	.byte	0x5
	.quad	.LBB2476
	.byte	0x4
	.uleb128 .LBB2476-.LBB2476
	.uleb128 .LBE2476-.LBB2476
	.byte	0x4
	.uleb128 .LBB2492-.LBB2476
	.uleb128 .LBE2492-.LBB2476
	.byte	0x4
	.uleb128 .LBB3250-.LBB2476
	.uleb128 .LBE3250-.LBB2476
	.byte	0x4
	.uleb128 .LBB3254-.LBB2476
	.uleb128 .LBE3254-.LBB2476
	.byte	0x4
	.uleb128 .LBB3256-.LBB2476
	.uleb128 .LBE3256-.LBB2476
	.byte	0
.LLRL103:
	.byte	0x5
	.quad	.LBB2481
	.byte	0x4
	.uleb128 .LBB2481-.LBB2481
	.uleb128 .LBE2481-.LBB2481
	.byte	0x4
	.uleb128 .LBB2486-.LBB2481
	.uleb128 .LBE2486-.LBB2481
	.byte	0
.LLRL107:
	.byte	0x5
	.quad	.LBB2493
	.byte	0x4
	.uleb128 .LBB2493-.LBB2493
	.uleb128 .LBE2493-.LBB2493
	.byte	0x4
	.uleb128 .LBB2638-.LBB2493
	.uleb128 .LBE2638-.LBB2493
	.byte	0x4
	.uleb128 .LBB3243-.LBB2493
	.uleb128 .LBE3243-.LBB2493
	.byte	0x4
	.uleb128 .LBB3245-.LBB2493
	.uleb128 .LBE3245-.LBB2493
	.byte	0x4
	.uleb128 .LBB3258-.LBB2493
	.uleb128 .LBE3258-.LBB2493
	.byte	0x4
	.uleb128 .LBB3267-.LBB2493
	.uleb128 .LBE3267-.LBB2493
	.byte	0x7
	.quad	.LBB3358
	.uleb128 .LBE3358-.LBB3358
	.byte	0
.LLRL110:
	.byte	0x5
	.quad	.LBB2494
	.byte	0x4
	.uleb128 .LBB2494-.LBB2494
	.uleb128 .LBE2494-.LBB2494
	.byte	0x4
	.uleb128 .LBB2633-.LBB2494
	.uleb128 .LBE2633-.LBB2494
	.byte	0
.LLRL113:
	.byte	0x5
	.quad	.LBB2497
	.byte	0x4
	.uleb128 .LBB2497-.LBB2497
	.uleb128 .LBE2497-.LBB2497
	.byte	0x4
	.uleb128 .LBB2634-.LBB2497
	.uleb128 .LBE2634-.LBB2497
	.byte	0
.LLRL116:
	.byte	0x5
	.quad	.LBB2500
	.byte	0x4
	.uleb128 .LBB2500-.LBB2500
	.uleb128 .LBE2500-.LBB2500
	.byte	0x4
	.uleb128 .LBB2635-.LBB2500
	.uleb128 .LBE2635-.LBB2500
	.byte	0x7
	.quad	.LBB2636
	.uleb128 .LBE2636-.LBB2636
	.byte	0
.LLRL124:
	.byte	0x5
	.quad	.LBB2506
	.byte	0x4
	.uleb128 .LBB2506-.LBB2506
	.uleb128 .LBE2506-.LBB2506
	.byte	0x4
	.uleb128 .LBB2508-.LBB2506
	.uleb128 .LBE2508-.LBB2506
	.byte	0
.LLRL126:
	.byte	0x5
	.quad	.LBB2510
	.byte	0x4
	.uleb128 .LBB2510-.LBB2510
	.uleb128 .LBE2510-.LBB2510
	.byte	0x4
	.uleb128 .LBB2512-.LBB2510
	.uleb128 .LBE2512-.LBB2510
	.byte	0
.LLRL128:
	.byte	0x5
	.quad	.LBB2513
	.byte	0x4
	.uleb128 .LBB2513-.LBB2513
	.uleb128 .LBE2513-.LBB2513
	.byte	0x4
	.uleb128 .LBB2516-.LBB2513
	.uleb128 .LBE2516-.LBB2513
	.byte	0x4
	.uleb128 .LBB2517-.LBB2513
	.uleb128 .LBE2517-.LBB2513
	.byte	0
.LLRL130:
	.byte	0x5
	.quad	.LBB2518
	.byte	0x4
	.uleb128 .LBB2518-.LBB2518
	.uleb128 .LBE2518-.LBB2518
	.byte	0x4
	.uleb128 .LBB2629-.LBB2518
	.uleb128 .LBE2629-.LBB2518
	.byte	0x7
	.quad	.LBB2630
	.uleb128 .LBE2630-.LBB2630
	.byte	0
.LLRL133:
	.byte	0x5
	.quad	.LBB2520
	.byte	0x4
	.uleb128 .LBB2520-.LBB2520
	.uleb128 .LBE2520-.LBB2520
	.byte	0x4
	.uleb128 .LBB2525-.LBB2520
	.uleb128 .LBE2525-.LBB2520
	.byte	0
.LLRL138:
	.byte	0x7
	.quad	.LBB2526
	.uleb128 .LBE2526-.LBB2526
	.byte	0x7
	.quad	.LBB2626
	.uleb128 .LBE2626-.LBB2626
	.byte	0
.LLRL146:
	.byte	0x5
	.quad	.LBB2528
	.byte	0x4
	.uleb128 .LBB2528-.LBB2528
	.uleb128 .LBE2528-.LBB2528
	.byte	0x4
	.uleb128 .LBB2553-.LBB2528
	.uleb128 .LBE2553-.LBB2528
	.byte	0x7
	.quad	.LBB2624
	.uleb128 .LBE2624-.LBB2624
	.byte	0
.LLRL152:
	.byte	0x5
	.quad	.LBB2532
	.byte	0x4
	.uleb128 .LBB2532-.LBB2532
	.uleb128 .LBE2532-.LBB2532
	.byte	0x4
	.uleb128 .LBB2534-.LBB2532
	.uleb128 .LBE2534-.LBB2532
	.byte	0
.LLRL154:
	.byte	0x5
	.quad	.LBB2537
	.byte	0x4
	.uleb128 .LBB2537-.LBB2537
	.uleb128 .LBE2537-.LBB2537
	.byte	0x4
	.uleb128 .LBB2554-.LBB2537
	.uleb128 .LBE2554-.LBB2537
	.byte	0x4
	.uleb128 .LBB2620-.LBB2537
	.uleb128 .LBE2620-.LBB2537
	.byte	0x4
	.uleb128 .LBB2622-.LBB2537
	.uleb128 .LBE2622-.LBB2537
	.byte	0
.LLRL156:
	.byte	0x5
	.quad	.LBB2539
	.byte	0x4
	.uleb128 .LBB2539-.LBB2539
	.uleb128 .LBE2539-.LBB2539
	.byte	0x4
	.uleb128 .LBB2547-.LBB2539
	.uleb128 .LBE2547-.LBB2539
	.byte	0x4
	.uleb128 .LBB2548-.LBB2539
	.uleb128 .LBE2548-.LBB2539
	.byte	0x4
	.uleb128 .LBB2549-.LBB2539
	.uleb128 .LBE2549-.LBB2539
	.byte	0
.LLRL158:
	.byte	0x5
	.quad	.LBB2540
	.byte	0x4
	.uleb128 .LBB2540-.LBB2540
	.uleb128 .LBE2540-.LBB2540
	.byte	0x4
	.uleb128 .LBB2544-.LBB2540
	.uleb128 .LBE2544-.LBB2540
	.byte	0x4
	.uleb128 .LBB2545-.LBB2540
	.uleb128 .LBE2545-.LBB2540
	.byte	0x4
	.uleb128 .LBB2546-.LBB2540
	.uleb128 .LBE2546-.LBB2540
	.byte	0
.LLRL161:
	.byte	0x5
	.quad	.LBB2555
	.byte	0x4
	.uleb128 .LBB2555-.LBB2555
	.uleb128 .LBE2555-.LBB2555
	.byte	0x4
	.uleb128 .LBB2621-.LBB2555
	.uleb128 .LBE2621-.LBB2555
	.byte	0x4
	.uleb128 .LBB2623-.LBB2555
	.uleb128 .LBE2623-.LBB2555
	.byte	0
.LLRL162:
	.byte	0x5
	.quad	.LBB2556
	.byte	0x4
	.uleb128 .LBB2556-.LBB2556
	.uleb128 .LBE2556-.LBB2556
	.byte	0x4
	.uleb128 .LBB2584-.LBB2556
	.uleb128 .LBE2584-.LBB2556
	.byte	0x4
	.uleb128 .LBB2585-.LBB2556
	.uleb128 .LBE2585-.LBB2556
	.byte	0x4
	.uleb128 .LBB2587-.LBB2556
	.uleb128 .LBE2587-.LBB2556
	.byte	0x4
	.uleb128 .LBB2589-.LBB2556
	.uleb128 .LBE2589-.LBB2556
	.byte	0x4
	.uleb128 .LBB2591-.LBB2556
	.uleb128 .LBE2591-.LBB2556
	.byte	0x4
	.uleb128 .LBB2593-.LBB2556
	.uleb128 .LBE2593-.LBB2556
	.byte	0
.LLRL169:
	.byte	0x5
	.quad	.LBB2571
	.byte	0x4
	.uleb128 .LBB2571-.LBB2571
	.uleb128 .LBE2571-.LBB2571
	.byte	0x4
	.uleb128 .LBB2586-.LBB2571
	.uleb128 .LBE2586-.LBB2571
	.byte	0x4
	.uleb128 .LBB2588-.LBB2571
	.uleb128 .LBE2588-.LBB2571
	.byte	0x4
	.uleb128 .LBB2590-.LBB2571
	.uleb128 .LBE2590-.LBB2571
	.byte	0x4
	.uleb128 .LBB2592-.LBB2571
	.uleb128 .LBE2592-.LBB2571
	.byte	0x4
	.uleb128 .LBB2594-.LBB2571
	.uleb128 .LBE2594-.LBB2571
	.byte	0
.LLRL180:
	.byte	0x5
	.quad	.LBB2595
	.byte	0x4
	.uleb128 .LBB2595-.LBB2595
	.uleb128 .LBE2595-.LBB2595
	.byte	0x4
	.uleb128 .LBB2618-.LBB2595
	.uleb128 .LBE2618-.LBB2595
	.byte	0x4
	.uleb128 .LBB2619-.LBB2595
	.uleb128 .LBE2619-.LBB2595
	.byte	0
.LLRL182:
	.byte	0x5
	.quad	.LBB2597
	.byte	0x4
	.uleb128 .LBB2597-.LBB2597
	.uleb128 .LBE2597-.LBB2597
	.byte	0x4
	.uleb128 .LBB2615-.LBB2597
	.uleb128 .LBE2615-.LBB2597
	.byte	0
.LLRL184:
	.byte	0x5
	.quad	.LBB2599
	.byte	0x4
	.uleb128 .LBB2599-.LBB2599
	.uleb128 .LBE2599-.LBB2599
	.byte	0x4
	.uleb128 .LBB2611-.LBB2599
	.uleb128 .LBE2611-.LBB2599
	.byte	0x4
	.uleb128 .LBB2612-.LBB2599
	.uleb128 .LBE2612-.LBB2599
	.byte	0
.LLRL186:
	.byte	0x5
	.quad	.LBB2601
	.byte	0x4
	.uleb128 .LBB2601-.LBB2601
	.uleb128 .LBE2601-.LBB2601
	.byte	0x4
	.uleb128 .LBB2607-.LBB2601
	.uleb128 .LBE2607-.LBB2601
	.byte	0x4
	.uleb128 .LBB2608-.LBB2601
	.uleb128 .LBE2608-.LBB2601
	.byte	0
.LLRL188:
	.byte	0x5
	.quad	.LBB2602
	.byte	0x4
	.uleb128 .LBB2602-.LBB2602
	.uleb128 .LBE2602-.LBB2602
	.byte	0x4
	.uleb128 .LBB2605-.LBB2602
	.uleb128 .LBE2605-.LBB2602
	.byte	0x4
	.uleb128 .LBB2606-.LBB2602
	.uleb128 .LBE2606-.LBB2602
	.byte	0
.LLRL191:
	.byte	0x5
	.quad	.LBB2639
	.byte	0x4
	.uleb128 .LBB2639-.LBB2639
	.uleb128 .LBE2639-.LBB2639
	.byte	0x4
	.uleb128 .LBB3241-.LBB2639
	.uleb128 .LBE3241-.LBB2639
	.byte	0
.LLRL193:
	.byte	0x5
	.quad	.LBB2640
	.byte	0x4
	.uleb128 .LBB2640-.LBB2640
	.uleb128 .LBE2640-.LBB2640
	.byte	0x4
	.uleb128 .LBB2655-.LBB2640
	.uleb128 .LBE2655-.LBB2640
	.byte	0
.LLRL195:
	.byte	0x5
	.quad	.LBB2641
	.byte	0x4
	.uleb128 .LBB2641-.LBB2641
	.uleb128 .LBE2641-.LBB2641
	.byte	0x4
	.uleb128 .LBB2649-.LBB2641
	.uleb128 .LBE2649-.LBB2641
	.byte	0
.LLRL209:
	.byte	0x5
	.quad	.LBB2658
	.byte	0x4
	.uleb128 .LBB2658-.LBB2658
	.uleb128 .LBE2658-.LBB2658
	.byte	0x4
	.uleb128 .LBB3247-.LBB2658
	.uleb128 .LBE3247-.LBB2658
	.byte	0x7
	.quad	.LBB3354
	.uleb128 .LBE3354-.LBB3354
	.byte	0
.LLRL213:
	.byte	0x7
	.quad	.LBB2659
	.uleb128 .LBE2659-.LBB2659
	.byte	0x7
	.quad	.LBB2709
	.uleb128 .LBE2709-.LBB2709
	.byte	0
.LLRL218:
	.byte	0x5
	.quad	.LBB2666
	.byte	0x4
	.uleb128 .LBB2666-.LBB2666
	.uleb128 .LBE2666-.LBB2666
	.byte	0x4
	.uleb128 .LBB2706-.LBB2666
	.uleb128 .LBE2706-.LBB2666
	.byte	0x4
	.uleb128 .LBB2708-.LBB2666
	.uleb128 .LBE2708-.LBB2666
	.byte	0
.LLRL224:
	.byte	0x5
	.quad	.LBB2671
	.byte	0x4
	.uleb128 .LBB2671-.LBB2671
	.uleb128 .LBE2671-.LBB2671
	.byte	0x4
	.uleb128 .LBB2687-.LBB2671
	.uleb128 .LBE2687-.LBB2671
	.byte	0x4
	.uleb128 .LBB2688-.LBB2671
	.uleb128 .LBE2688-.LBB2671
	.byte	0
.LLRL226:
	.byte	0x5
	.quad	.LBB2673
	.byte	0x4
	.uleb128 .LBB2673-.LBB2673
	.uleb128 .LBE2673-.LBB2673
	.byte	0x4
	.uleb128 .LBB2683-.LBB2673
	.uleb128 .LBE2683-.LBB2673
	.byte	0x4
	.uleb128 .LBB2684-.LBB2673
	.uleb128 .LBE2684-.LBB2673
	.byte	0
.LLRL228:
	.byte	0x5
	.quad	.LBB2675
	.byte	0x4
	.uleb128 .LBB2675-.LBB2675
	.uleb128 .LBE2675-.LBB2675
	.byte	0x4
	.uleb128 .LBB2680-.LBB2675
	.uleb128 .LBE2680-.LBB2675
	.byte	0
.LLRL232:
	.byte	0x5
	.quad	.LBB2689
	.byte	0x4
	.uleb128 .LBB2689-.LBB2689
	.uleb128 .LBE2689-.LBB2689
	.byte	0x4
	.uleb128 .LBB2707-.LBB2689
	.uleb128 .LBE2707-.LBB2689
	.byte	0
.LLRL241:
	.byte	0x5
	.quad	.LBB2693
	.byte	0x4
	.uleb128 .LBB2693-.LBB2693
	.uleb128 .LBE2693-.LBB2693
	.byte	0x4
	.uleb128 .LBB2702-.LBB2693
	.uleb128 .LBE2702-.LBB2693
	.byte	0
.LLRL245:
	.byte	0x5
	.quad	.LBB2695
	.byte	0x4
	.uleb128 .LBB2695-.LBB2695
	.uleb128 .LBE2695-.LBB2695
	.byte	0x4
	.uleb128 .LBB2699-.LBB2695
	.uleb128 .LBE2699-.LBB2695
	.byte	0
.LLRL253:
	.byte	0x5
	.quad	.LBB2714
	.byte	0x4
	.uleb128 .LBB2714-.LBB2714
	.uleb128 .LBE2714-.LBB2714
	.byte	0x4
	.uleb128 .LBB3259-.LBB2714
	.uleb128 .LBE3259-.LBB2714
	.byte	0x7
	.quad	.LBB3353
	.uleb128 .LBE3353-.LBB3353
	.byte	0
.LLRL257:
	.byte	0x7
	.quad	.LBB2715
	.uleb128 .LBE2715-.LBB2715
	.byte	0x7
	.quad	.LBB2765
	.uleb128 .LBE2765-.LBB2765
	.byte	0
.LLRL262:
	.byte	0x5
	.quad	.LBB2722
	.byte	0x4
	.uleb128 .LBB2722-.LBB2722
	.uleb128 .LBE2722-.LBB2722
	.byte	0x4
	.uleb128 .LBB2762-.LBB2722
	.uleb128 .LBE2762-.LBB2722
	.byte	0x4
	.uleb128 .LBB2764-.LBB2722
	.uleb128 .LBE2764-.LBB2722
	.byte	0
.LLRL268:
	.byte	0x5
	.quad	.LBB2727
	.byte	0x4
	.uleb128 .LBB2727-.LBB2727
	.uleb128 .LBE2727-.LBB2727
	.byte	0x4
	.uleb128 .LBB2743-.LBB2727
	.uleb128 .LBE2743-.LBB2727
	.byte	0x4
	.uleb128 .LBB2744-.LBB2727
	.uleb128 .LBE2744-.LBB2727
	.byte	0
.LLRL270:
	.byte	0x5
	.quad	.LBB2729
	.byte	0x4
	.uleb128 .LBB2729-.LBB2729
	.uleb128 .LBE2729-.LBB2729
	.byte	0x4
	.uleb128 .LBB2739-.LBB2729
	.uleb128 .LBE2739-.LBB2729
	.byte	0x4
	.uleb128 .LBB2740-.LBB2729
	.uleb128 .LBE2740-.LBB2729
	.byte	0
.LLRL272:
	.byte	0x5
	.quad	.LBB2731
	.byte	0x4
	.uleb128 .LBB2731-.LBB2731
	.uleb128 .LBE2731-.LBB2731
	.byte	0x4
	.uleb128 .LBB2736-.LBB2731
	.uleb128 .LBE2736-.LBB2731
	.byte	0
.LLRL276:
	.byte	0x5
	.quad	.LBB2745
	.byte	0x4
	.uleb128 .LBB2745-.LBB2745
	.uleb128 .LBE2745-.LBB2745
	.byte	0x4
	.uleb128 .LBB2763-.LBB2745
	.uleb128 .LBE2763-.LBB2745
	.byte	0
.LLRL285:
	.byte	0x5
	.quad	.LBB2749
	.byte	0x4
	.uleb128 .LBB2749-.LBB2749
	.uleb128 .LBE2749-.LBB2749
	.byte	0x4
	.uleb128 .LBB2758-.LBB2749
	.uleb128 .LBE2758-.LBB2749
	.byte	0
.LLRL289:
	.byte	0x5
	.quad	.LBB2751
	.byte	0x4
	.uleb128 .LBB2751-.LBB2751
	.uleb128 .LBE2751-.LBB2751
	.byte	0x4
	.uleb128 .LBB2755-.LBB2751
	.uleb128 .LBE2755-.LBB2751
	.byte	0
.LLRL301:
	.byte	0x5
	.quad	.LBB2773
	.byte	0x4
	.uleb128 .LBB2773-.LBB2773
	.uleb128 .LBE2773-.LBB2773
	.byte	0x4
	.uleb128 .LBB2783-.LBB2773
	.uleb128 .LBE2783-.LBB2773
	.byte	0
.LLRL308:
	.byte	0x5
	.quad	.LBB2785
	.byte	0x4
	.uleb128 .LBB2785-.LBB2785
	.uleb128 .LBE2785-.LBB2785
	.byte	0x4
	.uleb128 .LBB2791-.LBB2785
	.uleb128 .LBE2791-.LBB2785
	.byte	0x4
	.uleb128 .LBB2792-.LBB2785
	.uleb128 .LBE2792-.LBB2785
	.byte	0x4
	.uleb128 .LBB2793-.LBB2785
	.uleb128 .LBE2793-.LBB2785
	.byte	0x4
	.uleb128 .LBB2794-.LBB2785
	.uleb128 .LBE2794-.LBB2785
	.byte	0
.LLRL310:
	.byte	0x5
	.quad	.LBB2786
	.byte	0x4
	.uleb128 .LBB2786-.LBB2786
	.uleb128 .LBE2786-.LBB2786
	.byte	0x4
	.uleb128 .LBB2787-.LBB2786
	.uleb128 .LBE2787-.LBB2786
	.byte	0x4
	.uleb128 .LBB2788-.LBB2786
	.uleb128 .LBE2788-.LBB2786
	.byte	0x4
	.uleb128 .LBB2789-.LBB2786
	.uleb128 .LBE2789-.LBB2786
	.byte	0x4
	.uleb128 .LBB2790-.LBB2786
	.uleb128 .LBE2790-.LBB2786
	.byte	0
.LLRL312:
	.byte	0x5
	.quad	.LBB2795
	.byte	0x4
	.uleb128 .LBB2795-.LBB2795
	.uleb128 .LBE2795-.LBB2795
	.byte	0x4
	.uleb128 .LBB3263-.LBB2795
	.uleb128 .LBE3263-.LBB2795
	.byte	0
.LLRL315:
	.byte	0x5
	.quad	.LBB2798
	.byte	0x4
	.uleb128 .LBB2798-.LBB2798
	.uleb128 .LBE2798-.LBB2798
	.byte	0x4
	.uleb128 .LBB3174-.LBB2798
	.uleb128 .LBE3174-.LBB2798
	.byte	0x4
	.uleb128 .LBB3200-.LBB2798
	.uleb128 .LBE3200-.LBB2798
	.byte	0x4
	.uleb128 .LBB3261-.LBB2798
	.uleb128 .LBE3261-.LBB2798
	.byte	0x4
	.uleb128 .LBB3264-.LBB2798
	.uleb128 .LBE3264-.LBB2798
	.byte	0x4
	.uleb128 .LBB3266-.LBB2798
	.uleb128 .LBE3266-.LBB2798
	.byte	0x4
	.uleb128 .LBB3268-.LBB2798
	.uleb128 .LBE3268-.LBB2798
	.byte	0x7
	.quad	.LBB3269
	.uleb128 .LBE3269-.LBB3269
	.byte	0
.LLRL319:
	.byte	0x5
	.quad	.LBB2799
	.byte	0x4
	.uleb128 .LBB2799-.LBB2799
	.uleb128 .LBE2799-.LBB2799
	.byte	0x4
	.uleb128 .LBB2886-.LBB2799
	.uleb128 .LBE2886-.LBB2799
	.byte	0x7
	.quad	.LBB2891
	.uleb128 .LBE2891-.LBB2891
	.byte	0
.LLRL322:
	.byte	0x5
	.quad	.LBB2801
	.byte	0x4
	.uleb128 .LBB2801-.LBB2801
	.uleb128 .LBE2801-.LBB2801
	.byte	0x4
	.uleb128 .LBB2807-.LBB2801
	.uleb128 .LBE2807-.LBB2801
	.byte	0
.LLRL325:
	.byte	0x5
	.quad	.LBB2804
	.byte	0x4
	.uleb128 .LBB2804-.LBB2804
	.uleb128 .LBE2804-.LBB2804
	.byte	0x4
	.uleb128 .LBB2808-.LBB2804
	.uleb128 .LBE2808-.LBB2804
	.byte	0
.LLRL326:
	.byte	0x5
	.quad	.LBB2811
	.byte	0x4
	.uleb128 .LBB2811-.LBB2811
	.uleb128 .LBE2811-.LBB2811
	.byte	0x4
	.uleb128 .LBB2881-.LBB2811
	.uleb128 .LBE2881-.LBB2811
	.byte	0x4
	.uleb128 .LBB2884-.LBB2811
	.uleb128 .LBE2884-.LBB2811
	.byte	0x4
	.uleb128 .LBB2885-.LBB2811
	.uleb128 .LBE2885-.LBB2811
	.byte	0x4
	.uleb128 .LBB2887-.LBB2811
	.uleb128 .LBE2887-.LBB2811
	.byte	0x4
	.uleb128 .LBB2888-.LBB2811
	.uleb128 .LBE2888-.LBB2811
	.byte	0x4
	.uleb128 .LBB2889-.LBB2811
	.uleb128 .LBE2889-.LBB2811
	.byte	0x7
	.quad	.LBB2890
	.uleb128 .LBE2890-.LBB2890
	.byte	0
.LLRL329:
	.byte	0x5
	.quad	.LBB2812
	.byte	0x4
	.uleb128 .LBB2812-.LBB2812
	.uleb128 .LBE2812-.LBB2812
	.byte	0x4
	.uleb128 .LBB2853-.LBB2812
	.uleb128 .LBE2853-.LBB2812
	.byte	0
.LLRL331:
	.byte	0x5
	.quad	.LBB2813
	.byte	0x4
	.uleb128 .LBB2813-.LBB2813
	.uleb128 .LBE2813-.LBB2813
	.byte	0x4
	.uleb128 .LBB2817-.LBB2813
	.uleb128 .LBE2817-.LBB2813
	.byte	0
.LLRL334:
	.byte	0x5
	.quad	.LBB2816
	.byte	0x4
	.uleb128 .LBB2816-.LBB2816
	.uleb128 .LBE2816-.LBB2816
	.byte	0x4
	.uleb128 .LBB2818-.LBB2816
	.uleb128 .LBE2818-.LBB2816
	.byte	0
.LLRL335:
	.byte	0x5
	.quad	.LBB2819
	.byte	0x4
	.uleb128 .LBB2819-.LBB2819
	.uleb128 .LBE2819-.LBB2819
	.byte	0x4
	.uleb128 .LBB2850-.LBB2819
	.uleb128 .LBE2850-.LBB2819
	.byte	0x4
	.uleb128 .LBB2851-.LBB2819
	.uleb128 .LBE2851-.LBB2819
	.byte	0x4
	.uleb128 .LBB2852-.LBB2819
	.uleb128 .LBE2852-.LBB2819
	.byte	0x4
	.uleb128 .LBB2854-.LBB2819
	.uleb128 .LBE2854-.LBB2819
	.byte	0x4
	.uleb128 .LBB2855-.LBB2819
	.uleb128 .LBE2855-.LBB2819
	.byte	0x4
	.uleb128 .LBB2856-.LBB2819
	.uleb128 .LBE2856-.LBB2819
	.byte	0x7
	.quad	.LBB2857
	.uleb128 .LBE2857-.LBB2857
	.byte	0
.LLRL337:
	.byte	0x5
	.quad	.LBB2821
	.byte	0x4
	.uleb128 .LBB2821-.LBB2821
	.uleb128 .LBE2821-.LBB2821
	.byte	0x4
	.uleb128 .LBB2837-.LBB2821
	.uleb128 .LBE2837-.LBB2821
	.byte	0x4
	.uleb128 .LBB2838-.LBB2821
	.uleb128 .LBE2838-.LBB2821
	.byte	0x4
	.uleb128 .LBB2839-.LBB2821
	.uleb128 .LBE2839-.LBB2821
	.byte	0x4
	.uleb128 .LBB2840-.LBB2821
	.uleb128 .LBE2840-.LBB2821
	.byte	0x4
	.uleb128 .LBB2841-.LBB2821
	.uleb128 .LBE2841-.LBB2821
	.byte	0x7
	.quad	.LBB2842
	.uleb128 .LBE2842-.LBB2842
	.byte	0
.LLRL339:
	.byte	0x5
	.quad	.LBB2823
	.byte	0x4
	.uleb128 .LBB2823-.LBB2823
	.uleb128 .LBE2823-.LBB2823
	.byte	0x4
	.uleb128 .LBB2830-.LBB2823
	.uleb128 .LBE2830-.LBB2823
	.byte	0
.LLRL341:
	.byte	0x5
	.quad	.LBB2824
	.byte	0x4
	.uleb128 .LBB2824-.LBB2824
	.uleb128 .LBE2824-.LBB2824
	.byte	0x4
	.uleb128 .LBB2828-.LBB2824
	.uleb128 .LBE2828-.LBB2824
	.byte	0x4
	.uleb128 .LBB2829-.LBB2824
	.uleb128 .LBE2829-.LBB2824
	.byte	0
.LLRL344:
	.byte	0x5
	.quad	.LBB2858
	.byte	0x4
	.uleb128 .LBB2858-.LBB2858
	.uleb128 .LBE2858-.LBB2858
	.byte	0x4
	.uleb128 .LBB2882-.LBB2858
	.uleb128 .LBE2882-.LBB2858
	.byte	0x4
	.uleb128 .LBB2883-.LBB2858
	.uleb128 .LBE2883-.LBB2858
	.byte	0
.LLRL353:
	.byte	0x5
	.quad	.LBB2862
	.byte	0x4
	.uleb128 .LBB2862-.LBB2862
	.uleb128 .LBE2862-.LBB2862
	.byte	0x4
	.uleb128 .LBB2873-.LBB2862
	.uleb128 .LBE2873-.LBB2862
	.byte	0x4
	.uleb128 .LBB2874-.LBB2862
	.uleb128 .LBE2874-.LBB2862
	.byte	0
.LLRL357:
	.byte	0x5
	.quad	.LBB2864
	.byte	0x4
	.uleb128 .LBB2864-.LBB2864
	.uleb128 .LBE2864-.LBB2864
	.byte	0x4
	.uleb128 .LBB2869-.LBB2864
	.uleb128 .LBE2869-.LBB2864
	.byte	0x4
	.uleb128 .LBB2870-.LBB2864
	.uleb128 .LBE2870-.LBB2864
	.byte	0
.LLRL360:
	.byte	0x5
	.quad	.LBB2892
	.byte	0x4
	.uleb128 .LBB2892-.LBB2892
	.uleb128 .LBE2892-.LBB2892
	.byte	0x4
	.uleb128 .LBB3175-.LBB2892
	.uleb128 .LBE3175-.LBB2892
	.byte	0x4
	.uleb128 .LBB3248-.LBB2892
	.uleb128 .LBE3248-.LBB2892
	.byte	0x4
	.uleb128 .LBB3260-.LBB2892
	.uleb128 .LBE3260-.LBB2892
	.byte	0x4
	.uleb128 .LBB3265-.LBB2892
	.uleb128 .LBE3265-.LBB2892
	.byte	0
.LLRL362:
	.byte	0x5
	.quad	.LBB2893
	.byte	0x4
	.uleb128 .LBB2893-.LBB2893
	.uleb128 .LBE2893-.LBB2893
	.byte	0x4
	.uleb128 .LBB3173-.LBB2893
	.uleb128 .LBE3173-.LBB2893
	.byte	0
.LLRL367:
	.byte	0x5
	.quad	.LBB2894
	.byte	0x4
	.uleb128 .LBB2894-.LBB2894
	.uleb128 .LBE2894-.LBB2894
	.byte	0x4
	.uleb128 .LBB3161-.LBB2894
	.uleb128 .LBE3161-.LBB2894
	.byte	0x4
	.uleb128 .LBB3162-.LBB2894
	.uleb128 .LBE3162-.LBB2894
	.byte	0x4
	.uleb128 .LBB3163-.LBB2894
	.uleb128 .LBE3163-.LBB2894
	.byte	0x4
	.uleb128 .LBB3164-.LBB2894
	.uleb128 .LBE3164-.LBB2894
	.byte	0x4
	.uleb128 .LBB3165-.LBB2894
	.uleb128 .LBE3165-.LBB2894
	.byte	0x4
	.uleb128 .LBB3167-.LBB2894
	.uleb128 .LBE3167-.LBB2894
	.byte	0x4
	.uleb128 .LBB3171-.LBB2894
	.uleb128 .LBE3171-.LBB2894
	.byte	0x4
	.uleb128 .LBB3172-.LBB2894
	.uleb128 .LBE3172-.LBB2894
	.byte	0
.LLRL369:
	.byte	0x5
	.quad	.LBB2895
	.byte	0x4
	.uleb128 .LBB2895-.LBB2895
	.uleb128 .LBE2895-.LBB2895
	.byte	0x4
	.uleb128 .LBB3141-.LBB2895
	.uleb128 .LBE3141-.LBB2895
	.byte	0x4
	.uleb128 .LBB3142-.LBB2895
	.uleb128 .LBE3142-.LBB2895
	.byte	0x4
	.uleb128 .LBB3143-.LBB2895
	.uleb128 .LBE3143-.LBB2895
	.byte	0x4
	.uleb128 .LBB3144-.LBB2895
	.uleb128 .LBE3144-.LBB2895
	.byte	0x4
	.uleb128 .LBB3145-.LBB2895
	.uleb128 .LBE3145-.LBB2895
	.byte	0x4
	.uleb128 .LBB3146-.LBB2895
	.uleb128 .LBE3146-.LBB2895
	.byte	0x4
	.uleb128 .LBB3147-.LBB2895
	.uleb128 .LBE3147-.LBB2895
	.byte	0x4
	.uleb128 .LBB3148-.LBB2895
	.uleb128 .LBE3148-.LBB2895
	.byte	0
.LLRL398:
	.byte	0x5
	.quad	.LBB2922
	.byte	0x4
	.uleb128 .LBB2922-.LBB2922
	.uleb128 .LBE2922-.LBB2922
	.byte	0x4
	.uleb128 .LBB2935-.LBB2922
	.uleb128 .LBE2935-.LBB2922
	.byte	0
.LLRL399:
	.byte	0x5
	.quad	.LBB2925
	.byte	0x4
	.uleb128 .LBB2925-.LBB2925
	.uleb128 .LBE2925-.LBB2925
	.byte	0x4
	.uleb128 .LBB2949-.LBB2925
	.uleb128 .LBE2949-.LBB2925
	.byte	0
.LLRL400:
	.byte	0x5
	.quad	.LBB2928
	.byte	0x4
	.uleb128 .LBB2928-.LBB2928
	.uleb128 .LBE2928-.LBB2928
	.byte	0x4
	.uleb128 .LBB2947-.LBB2928
	.uleb128 .LBE2947-.LBB2928
	.byte	0
.LLRL401:
	.byte	0x5
	.quad	.LBB2931
	.byte	0x4
	.uleb128 .LBB2931-.LBB2931
	.uleb128 .LBE2931-.LBB2931
	.byte	0x4
	.uleb128 .LBB2945-.LBB2931
	.uleb128 .LBE2945-.LBB2931
	.byte	0x4
	.uleb128 .LBB2951-.LBB2931
	.uleb128 .LBE2951-.LBB2931
	.byte	0
.LLRL402:
	.byte	0x5
	.quad	.LBB2936
	.byte	0x4
	.uleb128 .LBB2936-.LBB2936
	.uleb128 .LBE2936-.LBB2936
	.byte	0x4
	.uleb128 .LBB2946-.LBB2936
	.uleb128 .LBE2946-.LBB2936
	.byte	0
.LLRL404:
	.byte	0x5
	.quad	.LBB2939
	.byte	0x4
	.uleb128 .LBB2939-.LBB2939
	.uleb128 .LBE2939-.LBB2939
	.byte	0x4
	.uleb128 .LBB2950-.LBB2939
	.uleb128 .LBE2950-.LBB2939
	.byte	0
.LLRL405:
	.byte	0x5
	.quad	.LBB2942
	.byte	0x4
	.uleb128 .LBB2942-.LBB2942
	.uleb128 .LBE2942-.LBB2942
	.byte	0x4
	.uleb128 .LBB2948-.LBB2942
	.uleb128 .LBE2948-.LBB2942
	.byte	0
.LLRL406:
	.byte	0x5
	.quad	.LBB2952
	.byte	0x4
	.uleb128 .LBB2952-.LBB2952
	.uleb128 .LBE2952-.LBB2952
	.byte	0x4
	.uleb128 .LBB2958-.LBB2952
	.uleb128 .LBE2958-.LBB2952
	.byte	0
.LLRL408:
	.byte	0x5
	.quad	.LBB2955
	.byte	0x4
	.uleb128 .LBB2955-.LBB2955
	.uleb128 .LBE2955-.LBB2955
	.byte	0x4
	.uleb128 .LBB2961-.LBB2955
	.uleb128 .LBE2961-.LBB2955
	.byte	0
.LLRL416:
	.byte	0x5
	.quad	.LBB2971
	.byte	0x4
	.uleb128 .LBB2971-.LBB2971
	.uleb128 .LBE2971-.LBB2971
	.byte	0x4
	.uleb128 .LBB3112-.LBB2971
	.uleb128 .LBE3112-.LBB2971
	.byte	0
.LLRL426:
	.byte	0x5
	.quad	.LBB2972
	.byte	0x4
	.uleb128 .LBB2972-.LBB2972
	.uleb128 .LBE2972-.LBB2972
	.byte	0x4
	.uleb128 .LBB2985-.LBB2972
	.uleb128 .LBE2985-.LBB2972
	.byte	0
.LLRL430:
	.byte	0x5
	.quad	.LBB2979
	.byte	0x4
	.uleb128 .LBB2979-.LBB2979
	.uleb128 .LBE2979-.LBB2979
	.byte	0x4
	.uleb128 .LBB3063-.LBB2979
	.uleb128 .LBE3063-.LBB2979
	.byte	0
.LLRL431:
	.byte	0x5
	.quad	.LBB2982
	.byte	0x4
	.uleb128 .LBB2982-.LBB2982
	.uleb128 .LBE2982-.LBB2982
	.byte	0x4
	.uleb128 .LBB3083-.LBB2982
	.uleb128 .LBE3083-.LBB2982
	.byte	0
.LLRL457:
	.byte	0x5
	.quad	.LBB3028
	.byte	0x4
	.uleb128 .LBB3028-.LBB3028
	.uleb128 .LBE3028-.LBB3028
	.byte	0x4
	.uleb128 .LBB3037-.LBB3028
	.uleb128 .LBE3037-.LBB3028
	.byte	0
.LLRL458:
	.byte	0x5
	.quad	.LBB3031
	.byte	0x4
	.uleb128 .LBB3031-.LBB3031
	.uleb128 .LBE3031-.LBB3031
	.byte	0x4
	.uleb128 .LBB3079-.LBB3031
	.uleb128 .LBE3079-.LBB3031
	.byte	0
.LLRL459:
	.byte	0x5
	.quad	.LBB3034
	.byte	0x4
	.uleb128 .LBB3034-.LBB3034
	.uleb128 .LBE3034-.LBB3034
	.byte	0x4
	.uleb128 .LBB3088-.LBB3034
	.uleb128 .LBE3088-.LBB3034
	.byte	0
.LLRL460:
	.byte	0x5
	.quad	.LBB3038
	.byte	0x4
	.uleb128 .LBB3038-.LBB3038
	.uleb128 .LBE3038-.LBB3038
	.byte	0x4
	.uleb128 .LBB3062-.LBB3038
	.uleb128 .LBE3062-.LBB3038
	.byte	0
.LLRL462:
	.byte	0x5
	.quad	.LBB3041
	.byte	0x4
	.uleb128 .LBB3041-.LBB3041
	.uleb128 .LBE3041-.LBB3041
	.byte	0x4
	.uleb128 .LBB3081-.LBB3041
	.uleb128 .LBE3081-.LBB3041
	.byte	0
.LLRL463:
	.byte	0x5
	.quad	.LBB3044
	.byte	0x4
	.uleb128 .LBB3044-.LBB3044
	.uleb128 .LBE3044-.LBB3044
	.byte	0x4
	.uleb128 .LBB3064-.LBB3044
	.uleb128 .LBE3064-.LBB3044
	.byte	0
.LLRL464:
	.byte	0x5
	.quad	.LBB3047
	.byte	0x4
	.uleb128 .LBB3047-.LBB3047
	.uleb128 .LBE3047-.LBB3047
	.byte	0x4
	.uleb128 .LBB3084-.LBB3047
	.uleb128 .LBE3084-.LBB3047
	.byte	0
.LLRL465:
	.byte	0x5
	.quad	.LBB3050
	.byte	0x4
	.uleb128 .LBB3050-.LBB3050
	.uleb128 .LBE3050-.LBB3050
	.byte	0x4
	.uleb128 .LBB3065-.LBB3050
	.uleb128 .LBE3065-.LBB3050
	.byte	0
.LLRL466:
	.byte	0x5
	.quad	.LBB3053
	.byte	0x4
	.uleb128 .LBB3053-.LBB3053
	.uleb128 .LBE3053-.LBB3053
	.byte	0x4
	.uleb128 .LBB3085-.LBB3053
	.uleb128 .LBE3085-.LBB3053
	.byte	0
.LLRL467:
	.byte	0x5
	.quad	.LBB3056
	.byte	0x4
	.uleb128 .LBB3056-.LBB3056
	.uleb128 .LBE3056-.LBB3056
	.byte	0x4
	.uleb128 .LBB3080-.LBB3056
	.uleb128 .LBE3080-.LBB3056
	.byte	0
.LLRL468:
	.byte	0x5
	.quad	.LBB3059
	.byte	0x4
	.uleb128 .LBB3059-.LBB3059
	.uleb128 .LBE3059-.LBB3059
	.byte	0x4
	.uleb128 .LBB3089-.LBB3059
	.uleb128 .LBE3089-.LBB3059
	.byte	0
.LLRL469:
	.byte	0x5
	.quad	.LBB3066
	.byte	0x4
	.uleb128 .LBB3066-.LBB3066
	.uleb128 .LBE3066-.LBB3066
	.byte	0x4
	.uleb128 .LBB3078-.LBB3066
	.uleb128 .LBE3078-.LBB3066
	.byte	0
.LLRL471:
	.byte	0x5
	.quad	.LBB3069
	.byte	0x4
	.uleb128 .LBB3069-.LBB3069
	.uleb128 .LBE3069-.LBB3069
	.byte	0x4
	.uleb128 .LBB3082-.LBB3069
	.uleb128 .LBE3082-.LBB3069
	.byte	0
.LLRL472:
	.byte	0x5
	.quad	.LBB3072
	.byte	0x4
	.uleb128 .LBB3072-.LBB3072
	.uleb128 .LBE3072-.LBB3072
	.byte	0x4
	.uleb128 .LBB3094-.LBB3072
	.uleb128 .LBE3094-.LBB3072
	.byte	0
.LLRL473:
	.byte	0x5
	.quad	.LBB3075
	.byte	0x4
	.uleb128 .LBB3075-.LBB3075
	.uleb128 .LBE3075-.LBB3075
	.byte	0x4
	.uleb128 .LBB3095-.LBB3075
	.uleb128 .LBE3095-.LBB3075
	.byte	0
.LLRL489:
	.byte	0x5
	.quad	.LBB3116
	.byte	0x4
	.uleb128 .LBB3116-.LBB3116
	.uleb128 .LBE3116-.LBB3116
	.byte	0x4
	.uleb128 .LBB3137-.LBB3116
	.uleb128 .LBE3137-.LBB3116
	.byte	0x4
	.uleb128 .LBB3138-.LBB3116
	.uleb128 .LBE3138-.LBB3116
	.byte	0x4
	.uleb128 .LBB3139-.LBB3116
	.uleb128 .LBE3139-.LBB3116
	.byte	0x4
	.uleb128 .LBB3140-.LBB3116
	.uleb128 .LBE3140-.LBB3116
	.byte	0
.LLRL491:
	.byte	0x5
	.quad	.LBB3117
	.byte	0x4
	.uleb128 .LBB3117-.LBB3117
	.uleb128 .LBE3117-.LBB3117
	.byte	0x4
	.uleb128 .LBB3118-.LBB3117
	.uleb128 .LBE3118-.LBB3117
	.byte	0x4
	.uleb128 .LBB3119-.LBB3117
	.uleb128 .LBE3119-.LBB3117
	.byte	0x4
	.uleb128 .LBB3120-.LBB3117
	.uleb128 .LBE3120-.LBB3117
	.byte	0x4
	.uleb128 .LBB3121-.LBB3117
	.uleb128 .LBE3121-.LBB3117
	.byte	0x4
	.uleb128 .LBB3122-.LBB3117
	.uleb128 .LBE3122-.LBB3117
	.byte	0x4
	.uleb128 .LBB3123-.LBB3117
	.uleb128 .LBE3123-.LBB3117
	.byte	0x4
	.uleb128 .LBB3124-.LBB3117
	.uleb128 .LBE3124-.LBB3117
	.byte	0x4
	.uleb128 .LBB3125-.LBB3117
	.uleb128 .LBE3125-.LBB3117
	.byte	0x4
	.uleb128 .LBB3126-.LBB3117
	.uleb128 .LBE3126-.LBB3117
	.byte	0x4
	.uleb128 .LBB3127-.LBB3117
	.uleb128 .LBE3127-.LBB3117
	.byte	0x4
	.uleb128 .LBB3128-.LBB3117
	.uleb128 .LBE3128-.LBB3117
	.byte	0x4
	.uleb128 .LBB3129-.LBB3117
	.uleb128 .LBE3129-.LBB3117
	.byte	0x4
	.uleb128 .LBB3130-.LBB3117
	.uleb128 .LBE3130-.LBB3117
	.byte	0x4
	.uleb128 .LBB3131-.LBB3117
	.uleb128 .LBE3131-.LBB3117
	.byte	0x4
	.uleb128 .LBB3132-.LBB3117
	.uleb128 .LBE3132-.LBB3117
	.byte	0x4
	.uleb128 .LBB3133-.LBB3117
	.uleb128 .LBE3133-.LBB3117
	.byte	0x4
	.uleb128 .LBB3134-.LBB3117
	.uleb128 .LBE3134-.LBB3117
	.byte	0x4
	.uleb128 .LBB3135-.LBB3117
	.uleb128 .LBE3135-.LBB3117
	.byte	0
.LLRL496:
	.byte	0x5
	.quad	.LBB3149
	.byte	0x4
	.uleb128 .LBB3149-.LBB3149
	.uleb128 .LBE3149-.LBB3149
	.byte	0x4
	.uleb128 .LBB3166-.LBB3149
	.uleb128 .LBE3166-.LBB3149
	.byte	0
.LLRL498:
	.byte	0x5
	.quad	.LBB3152
	.byte	0x4
	.uleb128 .LBB3152-.LBB3152
	.uleb128 .LBE3152-.LBB3152
	.byte	0x4
	.uleb128 .LBB3168-.LBB3152
	.uleb128 .LBE3168-.LBB3152
	.byte	0
.LLRL500:
	.byte	0x5
	.quad	.LBB3155
	.byte	0x4
	.uleb128 .LBB3155-.LBB3155
	.uleb128 .LBE3155-.LBB3155
	.byte	0x4
	.uleb128 .LBB3169-.LBB3155
	.uleb128 .LBE3169-.LBB3155
	.byte	0
.LLRL502:
	.byte	0x5
	.quad	.LBB3158
	.byte	0x4
	.uleb128 .LBB3158-.LBB3158
	.uleb128 .LBE3158-.LBB3158
	.byte	0x4
	.uleb128 .LBB3170-.LBB3158
	.uleb128 .LBE3170-.LBB3158
	.byte	0
.LLRL504:
	.byte	0x5
	.quad	.LBB3176
	.byte	0x4
	.uleb128 .LBB3176-.LBB3176
	.uleb128 .LBE3176-.LBB3176
	.byte	0x4
	.uleb128 .LBB3201-.LBB3176
	.uleb128 .LBE3201-.LBB3176
	.byte	0x4
	.uleb128 .LBB3262-.LBB3176
	.uleb128 .LBE3262-.LBB3176
	.byte	0
.LLRL506:
	.byte	0x5
	.quad	.LBB3177
	.byte	0x4
	.uleb128 .LBB3177-.LBB3177
	.uleb128 .LBE3177-.LBB3177
	.byte	0x4
	.uleb128 .LBB3198-.LBB3177
	.uleb128 .LBE3198-.LBB3177
	.byte	0x4
	.uleb128 .LBB3199-.LBB3177
	.uleb128 .LBE3199-.LBB3177
	.byte	0
.LLRL507:
	.byte	0x5
	.quad	.LBB3178
	.byte	0x4
	.uleb128 .LBB3178-.LBB3178
	.uleb128 .LBE3178-.LBB3178
	.byte	0x4
	.uleb128 .LBB3193-.LBB3178
	.uleb128 .LBE3193-.LBB3178
	.byte	0x4
	.uleb128 .LBB3194-.LBB3178
	.uleb128 .LBE3194-.LBB3178
	.byte	0x4
	.uleb128 .LBB3196-.LBB3178
	.uleb128 .LBE3196-.LBB3178
	.byte	0x4
	.uleb128 .LBB3197-.LBB3178
	.uleb128 .LBE3197-.LBB3178
	.byte	0
.LLRL509:
	.byte	0x5
	.quad	.LBB3179
	.byte	0x4
	.uleb128 .LBB3179-.LBB3179
	.uleb128 .LBE3179-.LBB3179
	.byte	0x4
	.uleb128 .LBB3186-.LBB3179
	.uleb128 .LBE3186-.LBB3179
	.byte	0x4
	.uleb128 .LBB3187-.LBB3179
	.uleb128 .LBE3187-.LBB3179
	.byte	0x4
	.uleb128 .LBB3188-.LBB3179
	.uleb128 .LBE3188-.LBB3179
	.byte	0x4
	.uleb128 .LBB3189-.LBB3179
	.uleb128 .LBE3189-.LBB3179
	.byte	0x4
	.uleb128 .LBB3190-.LBB3179
	.uleb128 .LBE3190-.LBB3179
	.byte	0x4
	.uleb128 .LBB3191-.LBB3179
	.uleb128 .LBE3191-.LBB3179
	.byte	0x4
	.uleb128 .LBB3192-.LBB3179
	.uleb128 .LBE3192-.LBB3179
	.byte	0
.LLRL512:
	.byte	0x5
	.quad	.LBB3180
	.byte	0x4
	.uleb128 .LBB3180-.LBB3180
	.uleb128 .LBE3180-.LBB3180
	.byte	0x4
	.uleb128 .LBB3185-.LBB3180
	.uleb128 .LBE3185-.LBB3180
	.byte	0
.LLRL514:
	.byte	0x5
	.quad	.LBB3181
	.byte	0x4
	.uleb128 .LBB3181-.LBB3181
	.uleb128 .LBE3181-.LBB3181
	.byte	0x4
	.uleb128 .LBB3182-.LBB3181
	.uleb128 .LBE3182-.LBB3181
	.byte	0x4
	.uleb128 .LBB3183-.LBB3181
	.uleb128 .LBE3183-.LBB3181
	.byte	0x4
	.uleb128 .LBB3184-.LBB3181
	.uleb128 .LBE3184-.LBB3181
	.byte	0
.LLRL530:
	.byte	0x5
	.quad	.LBB3271
	.byte	0x4
	.uleb128 .LBB3271-.LBB3271
	.uleb128 .LBE3271-.LBB3271
	.byte	0x4
	.uleb128 .LBB3286-.LBB3271
	.uleb128 .LBE3286-.LBB3271
	.byte	0
.LLRL531:
	.byte	0x5
	.quad	.LBB3272
	.byte	0x4
	.uleb128 .LBB3272-.LBB3272
	.uleb128 .LBE3272-.LBB3272
	.byte	0x4
	.uleb128 .LBB3280-.LBB3272
	.uleb128 .LBE3280-.LBB3272
	.byte	0
.LLRL539:
	.byte	0x5
	.quad	.LBB3287
	.byte	0x4
	.uleb128 .LBB3287-.LBB3287
	.uleb128 .LBE3287-.LBB3287
	.byte	0x4
	.uleb128 .LBB3356-.LBB3287
	.uleb128 .LBE3356-.LBB3287
	.byte	0
.LLRL543:
	.byte	0x5
	.quad	.LBB3290
	.byte	0x4
	.uleb128 .LBB3290-.LBB3290
	.uleb128 .LBE3290-.LBB3290
	.byte	0x4
	.uleb128 .LBB3311-.LBB3290
	.uleb128 .LBE3311-.LBB3290
	.byte	0
.LLRL545:
	.byte	0x5
	.quad	.LBB3291
	.byte	0x4
	.uleb128 .LBB3291-.LBB3291
	.uleb128 .LBE3291-.LBB3291
	.byte	0x4
	.uleb128 .LBB3310-.LBB3291
	.uleb128 .LBE3310-.LBB3291
	.byte	0
.LLRL546:
	.byte	0x5
	.quad	.LBB3292
	.byte	0x4
	.uleb128 .LBB3292-.LBB3292
	.uleb128 .LBE3292-.LBB3292
	.byte	0x4
	.uleb128 .LBB3305-.LBB3292
	.uleb128 .LBE3305-.LBB3292
	.byte	0x4
	.uleb128 .LBB3306-.LBB3292
	.uleb128 .LBE3306-.LBB3292
	.byte	0
.LLRL549:
	.byte	0x5
	.quad	.LBB3294
	.byte	0x4
	.uleb128 .LBB3294-.LBB3294
	.uleb128 .LBE3294-.LBB3294
	.byte	0x4
	.uleb128 .LBB3302-.LBB3294
	.uleb128 .LBE3302-.LBB3294
	.byte	0
.LLRL552:
	.byte	0x5
	.quad	.LBB3296
	.byte	0x4
	.uleb128 .LBB3296-.LBB3296
	.uleb128 .LBE3296-.LBB3296
	.byte	0x4
	.uleb128 .LBB3300-.LBB3296
	.uleb128 .LBE3300-.LBB3296
	.byte	0
.LLRL554:
	.byte	0x5
	.quad	.LBB3297
	.byte	0x4
	.uleb128 .LBB3297-.LBB3297
	.uleb128 .LBE3297-.LBB3297
	.byte	0x4
	.uleb128 .LBB3299-.LBB3297
	.uleb128 .LBE3299-.LBB3297
	.byte	0
.LLRL559:
	.byte	0x5
	.quad	.LBB3312
	.byte	0x4
	.uleb128 .LBB3312-.LBB3312
	.uleb128 .LBE3312-.LBB3312
	.byte	0x4
	.uleb128 .LBB3355-.LBB3312
	.uleb128 .LBE3355-.LBB3312
	.byte	0
.LLRL566:
	.byte	0x5
	.quad	.LBB3316
	.byte	0x4
	.uleb128 .LBB3316-.LBB3316
	.uleb128 .LBE3316-.LBB3316
	.byte	0x4
	.uleb128 .LBB3331-.LBB3316
	.uleb128 .LBE3331-.LBB3316
	.byte	0
.LLRL568:
	.byte	0x5
	.quad	.LBB3317
	.byte	0x4
	.uleb128 .LBB3317-.LBB3317
	.uleb128 .LBE3317-.LBB3317
	.byte	0x4
	.uleb128 .LBB3330-.LBB3317
	.uleb128 .LBE3330-.LBB3317
	.byte	0
.LLRL570:
	.byte	0x5
	.quad	.LBB3318
	.byte	0x4
	.uleb128 .LBB3318-.LBB3318
	.uleb128 .LBE3318-.LBB3318
	.byte	0x4
	.uleb128 .LBB3326-.LBB3318
	.uleb128 .LBE3326-.LBB3318
	.byte	0
.LLRL574:
	.byte	0x5
	.quad	.LBB3320
	.byte	0x4
	.uleb128 .LBB3320-.LBB3320
	.uleb128 .LBE3320-.LBB3320
	.byte	0x4
	.uleb128 .LBB3324-.LBB3320
	.uleb128 .LBE3324-.LBB3320
	.byte	0
.LLRL584:
	.byte	0x5
	.quad	.LBB3334
	.byte	0x4
	.uleb128 .LBB3334-.LBB3334
	.uleb128 .LBE3334-.LBB3334
	.byte	0x4
	.uleb128 .LBB3352-.LBB3334
	.uleb128 .LBE3352-.LBB3334
	.byte	0
.LLRL585:
	.byte	0x5
	.quad	.LBB3335
	.byte	0x4
	.uleb128 .LBB3335-.LBB3335
	.uleb128 .LBE3335-.LBB3335
	.byte	0x4
	.uleb128 .LBB3345-.LBB3335
	.uleb128 .LBE3345-.LBB3335
	.byte	0x4
	.uleb128 .LBB3349-.LBB3335
	.uleb128 .LBE3349-.LBB3335
	.byte	0
.LLRL593:
	.byte	0x7
	.quad	.Ltext0
	.uleb128 .Letext0-.Ltext0
	.byte	0x7
	.quad	.Ltext_cold0
	.uleb128 .Letext_cold0-.Ltext_cold0
	.byte	0
.Ldebug_ranges3:
	.section	.debug_line,"",@progbits
.Ldebug_line0:
	.section	.debug_str,"MS",@progbits,1
.LASF351:
	.string	"_ZNSt6vectorI16SubApertureImageSaIS0_EEC4EOS2_RKS1_St17integral_constantIbLb1EE"
.LASF1090:
	.string	"lconv"
.LASF666:
	.string	"_ZNKSt6vectorIfSaIfEE4cendEv"
.LASF147:
	.string	"_ZNSt6vectorIhSaIhEE19_S_nothrow_relocateESt17integral_constantIbLb1EE"
.LASF688:
	.string	"_ZNSt6vectorIfSaIfEE9push_backERKf"
.LASF529:
	.string	"_ZNKSt6vectorIiSaIiEE4sizeEv"
.LASF944:
	.string	"wmemmove"
.LASF576:
	.string	"initializer_list<int>"
.LASF130:
	.string	"_ZNSt12_Vector_baseIhSaIhEEC4EOS1_RKS0_"
.LASF1132:
	.string	"__int_least64_t"
.LASF1042:
	.string	"_ZNK9__gnu_cxx17__normal_iteratorIPK16SubApertureImageSt6vectorIS1_SaIS1_EEEmiEl"
.LASF414:
	.string	"_ZNSt6vectorI16SubApertureImageSaIS0_EE11_S_max_sizeERKS1_"
.LASF374:
	.string	"_ZNKSt6vectorI16SubApertureImageSaIS0_EE8max_sizeEv"
.LASF1314:
	.string	"__it"
.LASF161:
	.string	"_ZNSt6vectorIhSaIhEEC4EOS1_RKS0_"
.LASF1337:
	.string	"_ZNSt15__new_allocatorIhEC2Ev"
.LASF521:
	.string	"_ZNSt6vectorIiSaIiEE6rbeginEv"
.LASF178:
	.string	"reverse_iterator"
.LASF914:
	.string	"tm_sec"
.LASF420:
	.string	"initializer_list<SubApertureImage>"
.LASF591:
	.string	"_ZNKSt15__new_allocatorIfE7addressERf"
.LASF695:
	.string	"_ZNSt6vectorIfSaIfEE5eraseEN9__gnu_cxx17__normal_iteratorIPKfS1_EE"
.LASF417:
	.string	"_ZNSt6vectorI16SubApertureImageSaIS0_EE8_M_eraseEN9__gnu_cxx17__normal_iteratorIPS0_S2_EES6_"
.LASF1007:
	.string	"_ZN9__gnu_cxx14__alloc_traitsISaI16SubApertureImageES1_E10_S_on_swapERS2_S4_"
.LASF75:
	.string	"allocate"
.LASF358:
	.string	"_ZNSt6vectorI16SubApertureImageSaIS0_EEaSESt16initializer_listIS0_E"
.LASF691:
	.string	"_ZNSt6vectorIfSaIfEE6insertEN9__gnu_cxx17__normal_iteratorIPKfS1_EERS4_"
.LASF1317:
	.string	"__allocmax"
.LASF1331:
	.string	"__vect"
.LASF883:
	.string	"fwide"
.LASF612:
	.string	"_ZNSt12_Vector_baseIfSaIfEE17_Vector_impl_data12_M_swap_dataERS2_"
.LASF1058:
	.string	"__normal_iterator<int const*, std::vector<int, std::allocator<int> > >"
.LASF1110:
	.string	"int_p_sep_by_space"
.LASF507:
	.string	"_ZNSt6vectorIiSaIiEEC4EOS1_RKS0_St17integral_constantIbLb1EE"
.LASF305:
	.string	"_ZNSt16allocator_traitsISaI16SubApertureImageEE8allocateERS1_mPKv"
.LASF210:
	.string	"_ZNKSt6vectorIhSaIhEEixEm"
.LASF317:
	.string	"_ZNSt12_Vector_baseI16SubApertureImageSaIS0_EE12_Vector_implC4ERKS1_"
.LASF1119:
	.string	"__uint8_t"
.LASF887:
	.string	"getwc"
.LASF156:
	.string	"_ZNSt6vectorIhSaIhEEC4ERKS1_"
.LASF1148:
	.string	"7lldiv_t"
.LASF271:
	.string	"_ZNSt6vectorIhSaIhEE14_M_move_assignEOS1_St17integral_constantIbLb0EE"
.LASF643:
	.string	"_ZNSt6vectorIfSaIfEEC4EmRKfRKS0_"
.LASF965:
	.string	"_ZN9__gnu_cxx14__alloc_traitsISaIhEhE27_S_propagate_on_copy_assignEv"
.LASF1198:
	.string	"fpos_t"
.LASF299:
	.string	"_ZNSaI16SubApertureImageEC4Ev"
.LASF622:
	.string	"_ZNSt12_Vector_baseIfSaIfEEC4Ev"
.LASF1373:
	.string	"refocus_shift_and_sum"
.LASF630:
	.string	"_ZNSt12_Vector_baseIfSaIfEED4Ev"
.LASF1028:
	.string	"_ZNK9__gnu_cxx17__normal_iteratorIP16SubApertureImageSt6vectorIS1_SaIS1_EEE4baseEv"
.LASF1419:
	.string	"outp"
.LASF1276:
	.string	"SubApertureImage"
.LASF974:
	.string	"rebind<unsigned char>"
.LASF719:
	.string	"_ZNSt16initializer_listIfEC4EPKfm"
.LASF648:
	.string	"_ZNSt6vectorIfSaIfEEC4EOS1_RKS0_St17integral_constantIbLb0EE"
.LASF543:
	.string	"_ZNKSt6vectorIiSaIiEE5frontEv"
.LASF731:
	.string	"_UninitDestroyGuard"
.LASF610:
	.string	"_ZNSt12_Vector_baseIfSaIfEE17_Vector_impl_dataC4EOS2_"
.LASF446:
	.string	"_ZNSt15__new_allocatorIiEC4ERKS0_"
.LASF865:
	.string	"_shortbuf"
.LASF232:
	.string	"_ZNSt6vectorIhSaIhEE6insertEN9__gnu_cxx17__normal_iteratorIPKhS1_EESt16initializer_listIhE"
.LASF637:
	.string	"_ZNSt6vectorIfSaIfEE19_S_nothrow_relocateESt17integral_constantIbLb0EE"
.LASF794:
	.string	"_Tp2"
.LASF799:
	.string	"__to_address<(anonymous namespace)::SubParams>"
.LASF954:
	.string	"__gnu_cxx"
.LASF1344:
	.string	"_ZNSt12_Vector_baseIiSaIiEED2Ev"
.LASF164:
	.string	"_ZNSt6vectorIhSaIhEED4Ev"
.LASF1301:
	.string	"operator new"
.LASF517:
	.string	"_ZNSt6vectorIiSaIiEE5beginEv"
.LASF1037:
	.string	"_ZN9__gnu_cxx17__normal_iteratorIPK16SubApertureImageSt6vectorIS1_SaIS1_EEEmmEi"
.LASF960:
	.string	"_S_select_on_copy"
.LASF1113:
	.string	"int_p_sign_posn"
.LASF1275:
	.string	"_ZN9ImageDataC4Ev"
.LASF991:
	.string	"_ZN9__gnu_cxx17__normal_iteratorIPhSt6vectorIhSaIhEEEmmEi"
.LASF900:
	.string	"__isoc23_vfwscanf"
.LASF1036:
	.string	"_ZN9__gnu_cxx17__normal_iteratorIPK16SubApertureImageSt6vectorIS1_SaIS1_EEEmmEv"
.LASF927:
	.string	"wcsncmp"
.LASF239:
	.string	"_ZNSt6vectorIhSaIhEE5clearEv"
.LASF480:
	.string	"_ZNKSt12_Vector_baseIiSaIiEE19_M_get_Tp_allocatorEv"
.LASF309:
	.string	"_ZNSt16allocator_traitsISaI16SubApertureImageEE37select_on_container_copy_constructionERKS1_"
.LASF1410:
	.string	"val_1"
.LASF311:
	.string	"_ZNSt12_Vector_baseI16SubApertureImageSaIS0_EE17_Vector_impl_dataC4Ev"
.LASF202:
	.string	"capacity"
.LASF1316:
	.string	"__diffmax"
.LASF199:
	.string	"_ZNSt6vectorIhSaIhEE6resizeEmRKh"
.LASF384:
	.string	"_ZNSt6vectorI16SubApertureImageSaIS0_EE2atEm"
.LASF293:
	.string	"_ZNKSt15__new_allocatorI16SubApertureImageE7addressERKS0_"
.LASF583:
	.string	"reverse_iterator<__gnu_cxx::__normal_iterator<int*, std::vector<int, std::allocator<int> > > >"
.LASF693:
	.string	"_ZNSt6vectorIfSaIfEE6insertEN9__gnu_cxx17__normal_iteratorIPKfS1_EESt16initializer_listIfE"
.LASF198:
	.string	"_ZNSt6vectorIhSaIhEE6resizeEm"
.LASF1078:
	.string	"__isoc23_wcstoull"
.LASF1201:
	.string	"feof"
.LASF1225:
	.string	"uint16_t"
.LASF1445:
	.string	"__q0"
.LASF698:
	.string	"_ZNSt6vectorIfSaIfEE5clearEv"
.LASF330:
	.string	"_ZNSt12_Vector_baseI16SubApertureImageSaIS0_EEC4EOS2_RKS1_"
.LASF595:
	.string	"_ZNKSt15__new_allocatorIfE8max_sizeEv"
.LASF1151:
	.string	"time_t"
.LASF120:
	.string	"_ZNKSt12_Vector_baseIhSaIhEE19_M_get_Tp_allocatorEv"
.LASF1430:
	.string	"_mm256_cvtepu8_epi32"
.LASF100:
	.string	"_Vector_base<unsigned char, std::allocator<unsigned char> >"
.LASF1008:
	.string	"_ZN9__gnu_cxx14__alloc_traitsISaI16SubApertureImageES1_E27_S_propagate_on_copy_assignEv"
.LASF1277:
	.string	"float_t"
.LASF1068:
	.string	"__normal_iterator<float*, std::vector<float, std::allocator<float> > >"
.LASF762:
	.string	"_ZSt9__fill_a1IhhEN9__gnu_cxx11__enable_ifIXaasrSt9__is_byteIT_E7__valueoosrSt10__are_sameIS3_T0_E7__valuesrSt20__memcpyable_integerIS6_E7__widthEvE6__typeEPS3_SC_RKS6_"
.LASF203:
	.string	"_ZNKSt6vectorIhSaIhEE8capacityEv"
.LASF835:
	.string	"reg_save_area"
.LASF1319:
	.string	"_ZNSt15__new_allocatorIfEC2ERKS0_"
.LASF1363:
	.string	"_ZNSaIfEC2Ev"
.LASF824:
	.string	"min<int>"
.LASF1136:
	.string	"__off_t"
.LASF216:
	.string	"_ZNSt6vectorIhSaIhEE5frontEv"
.LASF72:
	.string	"const_pointer"
.LASF1379:
	.string	"counts"
.LASF430:
	.string	"vector<(anonymous namespace)::SubParams, std::allocator<(anonymous namespace)::SubParams> >"
.LASF659:
	.string	"_ZNSt6vectorIfSaIfEE3endEv"
.LASF81:
	.string	"_ZNKSt15__new_allocatorIhE8max_sizeEv"
.LASF15:
	.string	"_ZNKSt17integral_constantIbLb0EEcvbEv"
.LASF157:
	.string	"_ZNSt6vectorIhSaIhEEC4EOS1_"
.LASF78:
	.string	"deallocate"
.LASF1264:
	.string	"towctrans"
.LASF139:
	.string	"_M_create_storage"
.LASF8:
	.string	"operator std::integral_constant<bool, true>::value_type"
.LASF1427:
	.string	"_ZNSt12_Vector_baseIhSaIhEE12_Vector_implD2Ev"
.LASF682:
	.string	"_ZNSt6vectorIfSaIfEE5frontEv"
.LASF922:
	.string	"tm_isdst"
.LASF1250:
	.string	"_Float128"
.LASF1269:
	.string	"height"
.LASF206:
	.string	"reserve"
.LASF1093:
	.string	"grouping"
.LASF1310:
	.string	"_ZNSt19_UninitDestroyGuardIPivEC2ERS0_"
.LASF866:
	.string	"_lock"
.LASF85:
	.string	"allocator"
.LASF816:
	.string	"_Destroy<int*, int>"
.LASF1075:
	.string	"__isoc23_wcstoll"
.LASF1074:
	.string	"wcstoll"
.LASF131:
	.string	"_ZNSt12_Vector_baseIhSaIhEEC4ERKS0_OS1_"
.LASF522:
	.string	"_ZNKSt6vectorIiSaIiEE6rbeginEv"
.LASF1294:
	.string	"SubParams"
.LASF546:
	.string	"_ZNSt6vectorIiSaIiEE4dataEv"
.LASF777:
	.string	"uninitialized_fill_n<float*, long unsigned int, float>"
.LASF63:
	.string	"operator bool"
.LASF611:
	.string	"_ZNSt12_Vector_baseIfSaIfEE17_Vector_impl_data12_M_copy_dataERKS2_"
.LASF686:
	.string	"_ZNSt6vectorIfSaIfEE4dataEv"
.LASF80:
	.string	"max_size"
.LASF126:
	.string	"_ZNSt12_Vector_baseIhSaIhEEC4Em"
.LASF1081:
	.string	"__max_align_ld"
.LASF558:
	.string	"_ZNSt6vectorIiSaIiEE5clearEv"
.LASF1083:
	.string	"bool"
.LASF721:
	.string	"_ZNKSt16initializer_listIfE4sizeEv"
.LASF124:
	.string	"_ZNSt12_Vector_baseIhSaIhEEC4Ev"
.LASF1163:
	.string	"atoi"
.LASF1080:
	.string	"__max_align_ll"
.LASF1164:
	.string	"atol"
.LASF267:
	.string	"_ZNSt6vectorIhSaIhEE8_M_eraseEN9__gnu_cxx17__normal_iteratorIPhS1_EE"
.LASF10:
	.string	"_ZNKSt17integral_constantIbLb1EEcvbEv"
.LASF530:
	.string	"_ZNKSt6vectorIiSaIiEE8max_sizeEv"
.LASF928:
	.string	"wcsncpy"
.LASF1017:
	.string	"_ZNK9__gnu_cxx17__normal_iteratorIP16SubApertureImageSt6vectorIS1_SaIS1_EEEdeEv"
.LASF930:
	.string	"wcsspn"
.LASF1390:
	.string	"ind_rbot"
.LASF1360:
	.string	"_ZNSt6vectorIfSaIfEED2Ev"
.LASF217:
	.string	"_ZNKSt6vectorIhSaIhEE5frontEv"
.LASF363:
	.string	"_ZNSt6vectorI16SubApertureImageSaIS0_EE3endEv"
.LASF16:
	.string	"_ZNKSt17integral_constantIbLb0EEclEv"
.LASF795:
	.string	"_Destroy<int*>"
.LASF613:
	.string	"_ZNSt12_Vector_baseIfSaIfEE12_Vector_implC4Ev"
.LASF151:
	.string	"vector"
.LASF259:
	.string	"_ZNKSt6vectorIhSaIhEE12_M_check_lenEmPKc"
.LASF1154:
	.string	"int32_t"
.LASF1246:
	.string	"intmax_t"
.LASF1192:
	.string	"__pos"
.LASF297:
	.string	"_ZNKSt15__new_allocatorI16SubApertureImageE11_M_max_sizeEv"
.LASF53:
	.string	"__debug"
.LASF756:
	.string	"_ZSt20__throw_length_errorPKc"
.LASF1265:
	.string	"wctrans"
.LASF497:
	.string	"_ZNSt6vectorIiSaIiEE19_S_nothrow_relocateESt17integral_constantIbLb0EE"
.LASF229:
	.string	"insert"
.LASF257:
	.string	"_ZNSt6vectorIhSaIhEE14_M_emplace_auxEN9__gnu_cxx17__normal_iteratorIPKhS1_EEOh"
.LASF505:
	.string	"_ZNSt6vectorIiSaIiEEC4EOS1_"
.LASF537:
	.string	"_ZNSt6vectorIiSaIiEEixEm"
.LASF1115:
	.string	"setlocale"
.LASF1444:
	.string	"__q1"
.LASF170:
	.string	"_ZNSt6vectorIhSaIhEE6assignESt16initializer_listIhE"
.LASF1247:
	.string	"uintmax_t"
.LASF645:
	.string	"_ZNSt6vectorIfSaIfEEC4EOS1_"
.LASF1450:
	.string	"memcpy"
.LASF905:
	.string	"vwscanf"
.LASF54:
	.string	"__cxx11"
.LASF264:
	.string	"_M_erase_at_end"
.LASF487:
	.string	"_ZNSt12_Vector_baseIiSaIiEEC4EOS0_"
.LASF599:
	.string	"_ZNSaIfEC4ERKS_"
.LASF499:
	.string	"_ZNSt6vectorIiSaIiEE11_S_relocateEPiS2_S2_RS0_"
.LASF627:
	.string	"_ZNSt12_Vector_baseIfSaIfEEC4EOS0_"
.LASF61:
	.string	"_ZNSt15__new_allocatorIhEC4Ev"
.LASF1465:
	.string	"11max_align_t"
.LASF647:
	.string	"_ZNSt6vectorIfSaIfEEC4EOS1_RKS0_St17integral_constantIbLb1EE"
.LASF263:
	.string	"_ZNSt6vectorIhSaIhEE11_S_max_sizeERKS0_"
.LASF541:
	.string	"_ZNKSt6vectorIiSaIiEE2atEm"
.LASF356:
	.string	"_ZNSt6vectorI16SubApertureImageSaIS0_EEaSERKS2_"
.LASF457:
	.string	"_ZNSaIiEC4ERKS_"
.LASF1447:
	.string	"_Z14_mm_set_epi64xxx"
.LASF1131:
	.string	"__uint_least32_t"
.LASF1140:
	.string	"__syscall_slong_t"
.LASF1453:
	.string	"__builtin_memset"
.LASF886:
	.string	"__isoc23_fwscanf"
.LASF1456:
	.ascii	"GNU C++17 16.0.1 20260425 (prerelease) [gcc-16 r16-8812-gd9c"
	.ascii	"07462a22] -march=tigerlake -mmmx -mpopcnt -msse -msse2 -msse"
	.ascii	"3 -mssse3 -msse4.1 -msse4.2 -mavx -mno-sse4a -mno-fma4 -mno-"
	.ascii	"xop -mavx512f -mbmi -mbmi2 -maes -mpclmul -mavx512vl -mavx51"
	.ascii	"2bw -mavx512dq -mavx512cd -mavx512vbmi -mavx512ifma -mavx512"
	.ascii	"vpopcntdq -mavx512vbmi2 -mgfni -mvpclmulqdq -mavx512vnni -ma"
	.ascii	"vx512bitalg -mno-avx512bf16 -mavx512vp2intersect -mno-3dnow "
	.ascii	"-madx -mabm -mno-cldemote -mclflushopt -mclwb -mno-clzero -m"
	.ascii	"cx16 -mno-enqcmd -mf16c -mfsgsbase -mfxsr -mno-hle -msahf -m"
	.ascii	"no-lwp -mlzcnt -mmovbe -mmovdir64b -mmovdiri -mno-mwaitx -mn"
	.ascii	"o-pconfig -mpku -mprfchw -mno-ptwrite -mrdpid -mrdrnd -mrdse"
	.ascii	"ed -mno-rtm -mno-serialize -mno-sgx -msha -mshstk -mno-tbm -"
	.ascii	"mno-tsxldtrk -mvaes -mno-waitpkg -mno-wbnoinvd -mxsave -mxsa"
	.ascii	"vec -mxsaveopt -mxsaves -mno-amx-tile -mno-amx-int8 -mno-amx"
	.ascii	"-bf16 -mno-uintr -mno-hreset -mno-kl -mno-widekl -mno-avxvnn"
	.ascii	"i -mno-avx512fp16 -mno-avxifma -mno-avxvnniint8 -mno-avxneco"
	.ascii	"nvert -mno-cmpccxadd -mno-amx-fp16 -mno-prefetchi -mno-raoin"
	.ascii	"t -mno-amx-complex -mno-avxvnniint16 -mno-sm3 -mno-sha512 -m"
	.ascii	"no-sm4 -mno-apxf -mno-usermsr -mno-avx10.1 -mno-avx10.2 -mno"
	.ascii	"-amx-a"
	.string	"vx512 -mno-amx-tf32 -mno-amx-fp8 -mno-movrs -mno-amx-movrs -mno-avx512bmm --param=l1-cache-size=48 --param=l1-cache-line-size=64 --param=l2-cache-size=8192 -mtune=tigerlake -mavx2 -mfma -masm=intel -g -O3 -std=c++17 -ffast-math -fasynchronous-unwind-tables"
.LASF985:
	.string	"_ZNK9__gnu_cxx17__normal_iteratorIPhSt6vectorIhSaIhEEEptEv"
.LASF636:
	.string	"_ZNSt6vectorIfSaIfEE19_S_nothrow_relocateESt17integral_constantIbLb1EE"
.LASF99:
	.string	"rebind_alloc"
.LASF852:
	.string	"_IO_write_end"
.LASF1177:
	.string	"__isoc23_strtol"
.LASF79:
	.string	"_ZNSt15__new_allocatorIhE10deallocateEPhm"
.LASF459:
	.string	"_ZNSaIiED4Ev"
.LASF781:
	.string	"max<long unsigned int>"
.LASF486:
	.string	"_ZNSt12_Vector_baseIiSaIiEEC4EOS1_"
.LASF1346:
	.string	"_ZNSt12_Vector_baseIiSaIiEE12_Vector_implD2Ev"
.LASF709:
	.string	"_ZNSt6vectorIfSaIfEE17_S_check_init_lenEmRKS0_"
.LASF7:
	.string	"value_type"
.LASF1231:
	.string	"int_least64_t"
.LASF626:
	.string	"_ZNSt12_Vector_baseIfSaIfEEC4EOS1_"
.LASF1182:
	.string	"wctomb"
.LASF47:
	.string	"nullptr_t"
.LASF937:
	.string	"long int"
.LASF667:
	.string	"_ZNKSt6vectorIfSaIfEE7crbeginEv"
.LASF228:
	.string	"_ZNSt6vectorIhSaIhEE8pop_backEv"
.LASF1044:
	.string	"__alloc_traits<std::allocator<(anonymous namespace)::SubParams>, (anonymous namespace)::SubParams>"
.LASF614:
	.string	"_ZNSt12_Vector_baseIfSaIfEE12_Vector_implC4ERKS0_"
.LASF1229:
	.string	"int_least16_t"
.LASF831:
	.string	"_ZSt17__size_to_integerm"
.LASF1063:
	.string	"_ZN9__gnu_cxx14__alloc_traitsISaIfEfE27_S_propagate_on_move_assignEv"
.LASF1270:
	.string	"index"
.LASF90:
	.string	"_ZNSaIhED4Ev"
.LASF1327:
	.string	"_ZNSaIfEC2ERKS_"
.LASF262:
	.string	"_S_max_size"
.LASF1186:
	.string	"__isoc23_strtoll"
.LASF587:
	.string	"_ZNSt15__new_allocatorIfEC4Ev"
.LASF1217:
	.string	"rename"
.LASF1338:
	.string	"_ZNSaIhEC2ERKS_"
.LASF949:
	.string	"wcschr"
.LASF173:
	.string	"_ZNSt6vectorIhSaIhEE5beginEv"
.LASF29:
	.string	"_ZNKSt15__exception_ptr13exception_ptr6_M_getEv"
.LASF1329:
	.string	"_ZNSaIiEC2ERKS_"
.LASF754:
	.string	"_ZSt17__throw_bad_allocv"
.LASF1062:
	.string	"_ZN9__gnu_cxx14__alloc_traitsISaIfEfE27_S_propagate_on_copy_assignEv"
.LASF1259:
	.string	"localtime"
.LASF734:
	.string	"_ZNSt19_UninitDestroyGuardIPivED4Ev"
.LASF1228:
	.string	"int_least8_t"
.LASF952:
	.string	"wcsstr"
.LASF690:
	.string	"_ZNSt6vectorIfSaIfEE8pop_backEv"
.LASF1208:
	.string	"fread"
.LASF1101:
	.string	"int_frac_digits"
.LASF1071:
	.string	"_ZN9__gnu_cxxneERKNS_17__normal_iteratorIP16SubApertureImageSt6vectorIS1_SaIS1_EEEES8_"
.LASF1355:
	.string	"__sz"
.LASF804:
	.string	"fill_n<unsigned char*, long unsigned int, unsigned char>"
.LASF745:
	.string	"_ZNSt19_UninitDestroyGuardIPfvEC4ERS0_"
.LASF463:
	.string	"_ZNSt16allocator_traitsISaIiEE10deallocateERS0_Pim"
.LASF323:
	.string	"_ZNKSt12_Vector_baseI16SubApertureImageSaIS0_EE13get_allocatorEv"
.LASF1092:
	.string	"thousands_sep"
.LASF1349:
	.string	"__old_start"
.LASF56:
	.string	"chrono_literals"
.LASF1216:
	.string	"remove"
.LASF631:
	.string	"_ZNSt12_Vector_baseIfSaIfEE11_M_allocateEm"
.LASF931:
	.string	"wcstod"
.LASF1135:
	.string	"__uintmax_t"
.LASF933:
	.string	"wcstof"
.LASF1375:
	.string	"subapertures"
.LASF609:
	.string	"_ZNSt12_Vector_baseIfSaIfEE17_Vector_impl_dataC4Ev"
.LASF934:
	.string	"wcstok"
.LASF935:
	.string	"wcstol"
.LASF454:
	.string	"_ZNKSt15__new_allocatorIiE11_M_max_sizeEv"
.LASF110:
	.string	"_M_swap_data"
.LASF679:
	.string	"_ZNKSt6vectorIfSaIfEE14_M_range_checkEm"
.LASF412:
	.string	"_ZNKSt6vectorI16SubApertureImageSaIS0_EE12_M_check_lenEmPKc"
.LASF415:
	.string	"_ZNSt6vectorI16SubApertureImageSaIS0_EE15_M_erase_at_endEPS0_"
.LASF436:
	.string	"~_Guard_alloc"
.LASF146:
	.string	"_S_nothrow_relocate"
.LASF1304:
	.string	"__first"
.LASF236:
	.string	"_ZNSt6vectorIhSaIhEE5eraseEN9__gnu_cxx17__normal_iteratorIPKhS1_EES6_"
.LASF1422:
	.string	"__rhs"
.LASF223:
	.string	"_ZNKSt6vectorIhSaIhEE4dataEv"
.LASF1149:
	.string	"lldiv_t"
.LASF1204:
	.string	"fgetc"
.LASF1183:
	.string	"lldiv"
.LASF1138:
	.string	"__clock_t"
.LASF680:
	.string	"_ZNSt6vectorIfSaIfEE2atEm"
.LASF455:
	.string	"allocator<int>"
.LASF820:
	.string	"_Allocator"
.LASF790:
	.string	"_Destroy<float*>"
.LASF37:
	.string	"_ZNSt15__exception_ptr13exception_ptraSERKS0_"
.LASF273:
	.string	"_ZNKSt6vectorIhSaIhEE11_M_data_ptrIhEEPT_S4_"
.LASF437:
	.string	"_M_realloc_append<const (anonymous namespace)::SubParams&>"
.LASF737:
	.string	"_M_first"
.LASF1043:
	.string	"_ZNK9__gnu_cxx17__normal_iteratorIPK16SubApertureImageSt6vectorIS1_SaIS1_EEE4baseEv"
.LASF982:
	.string	"operator*"
.LASF995:
	.string	"operator+"
.LASF999:
	.string	"operator-"
.LASF1141:
	.string	"__gnu_debug"
.LASF394:
	.string	"_ZNSt6vectorI16SubApertureImageSaIS0_EE8pop_backEv"
.LASF815:
	.string	"_ZSt8_DestroyIPffEvT_S1_RSaIT0_E"
.LASF1120:
	.string	"__int16_t"
.LASF945:
	.string	"wmemset"
.LASF36:
	.string	"operator="
.LASF1121:
	.string	"__uint16_t"
.LASF481:
	.string	"_ZNKSt12_Vector_baseIiSaIiEE13get_allocatorEv"
.LASF877:
	.string	"btowc"
.LASF1388:
	.string	"ind_lbot"
.LASF168:
	.string	"assign"
.LASF1285:
	.string	"__m128i"
.LASF1308:
	.string	"__args"
.LASF694:
	.string	"_ZNSt6vectorIfSaIfEE6insertEN9__gnu_cxx17__normal_iteratorIPKfS1_EEmRS4_"
.LASF496:
	.string	"_ZNSt6vectorIiSaIiEE19_S_nothrow_relocateESt17integral_constantIbLb1EE"
.LASF253:
	.string	"_ZNSt6vectorIhSaIhEE16_M_shrink_to_fitEv"
.LASF893:
	.string	"putwchar"
.LASF628:
	.string	"_ZNSt12_Vector_baseIfSaIfEEC4EOS1_RKS0_"
.LASF1064:
	.string	"_ZN9__gnu_cxx14__alloc_traitsISaIfEfE20_S_propagate_on_swapEv"
.LASF500:
	.string	"_ZNSt6vectorIiSaIiEEC4Ev"
.LASF1129:
	.string	"__uint_least16_t"
.LASF561:
	.string	"_ZNSt6vectorIiSaIiEE14_M_fill_assignEmRKi"
.LASF654:
	.string	"_ZNSt6vectorIfSaIfEEaSESt16initializer_listIfE"
.LASF1095:
	.string	"currency_symbol"
.LASF1278:
	.string	"double_t"
.LASF1365:
	.string	"_ZNSt6vectorIiSaIiEEC2EmRKiRKS0_"
.LASF728:
	.string	"iterator_traits<const SubApertureImage*>"
.LASF784:
	.string	"_ZSt10__fill_n_aIPhmhET_S1_T0_RKT1_St26random_access_iterator_tag"
.LASF569:
	.string	"_ZNSt6vectorIiSaIiEE17_S_check_init_lenEmRKS0_"
.LASF283:
	.string	"_ZSt3absd"
.LASF155:
	.string	"_ZNSt6vectorIhSaIhEEC4EmRKhRKS0_"
.LASF295:
	.string	"_ZNSt15__new_allocatorI16SubApertureImageE10deallocateEPS0_m"
.LASF570:
	.string	"_ZNSt6vectorIiSaIiEE11_S_max_sizeERKS0_"
.LASF859:
	.string	"_chain"
.LASF115:
	.string	"_ZNSt12_Vector_baseIhSaIhEE12_Vector_implC4EOS0_"
.LASF1111:
	.string	"int_n_cs_precedes"
.LASF231:
	.string	"_ZNSt6vectorIhSaIhEE6insertEN9__gnu_cxx17__normal_iteratorIPKhS1_EEOh"
.LASF1012:
	.string	"_ZN9__gnu_cxx14__alloc_traitsISaI16SubApertureImageES1_E15_S_nothrow_moveEv"
.LASF578:
	.string	"initializer_list"
.LASF490:
	.string	"_ZNSt12_Vector_baseIiSaIiEED4Ev"
.LASF1432:
	.string	"_mm256_set1_ps"
.LASF700:
	.string	"_ZNSt6vectorIfSaIfEE21_M_default_initializeEm"
.LASF1142:
	.string	"11__mbstate_t"
.LASF549:
	.string	"_ZNSt6vectorIiSaIiEE9push_backEOi"
.LASF3:
	.string	"unsigned char"
.LASF1013:
	.string	"rebind<SubApertureImage>"
.LASF494:
	.string	"__type_identity<std::allocator<int> >"
.LASF1273:
	.string	"_ZNK9ImageData2atEmmm"
.LASF52:
	.string	"random_access_iterator_tag"
.LASF940:
	.string	"wcsxfrm"
.LASF450:
	.string	"_ZNKSt15__new_allocatorIiE7addressERKi"
.LASF1392:
	.string	"remaining"
.LASF925:
	.string	"wcslen"
.LASF479:
	.string	"_ZNSt12_Vector_baseIiSaIiEE19_M_get_Tp_allocatorEv"
.LASF1050:
	.string	"_ZN9__gnu_cxx14__alloc_traitsISaIiEiE10_S_on_swapERS1_S3_"
.LASF2:
	.string	"float"
.LASF83:
	.string	"_ZNKSt15__new_allocatorIhE11_M_max_sizeEv"
.LASF334:
	.string	"_ZNSt12_Vector_baseI16SubApertureImageSaIS0_EE13_M_deallocateEPS0_m"
.LASF687:
	.string	"_ZNKSt6vectorIfSaIfEE4dataEv"
.LASF18:
	.string	"__bool_constant"
.LASF461:
	.string	"_ZNSt16allocator_traitsISaIiEE8allocateERS0_m"
.LASF475:
	.string	"_ZNSt12_Vector_baseIiSaIiEE12_Vector_implC4EOS0_OS2_"
.LASF903:
	.string	"__isoc23_vswscanf"
.LASF429:
	.string	"__type_identity<std::allocator<(anonymous namespace)::SubParams> >"
.LASF1242:
	.string	"uint_fast32_t"
.LASF404:
	.string	"_ZNSt6vectorI16SubApertureImageSaIS0_EE21_M_default_initializeEm"
.LASF1377:
	.string	"output"
.LASF119:
	.string	"_ZNSt12_Vector_baseIhSaIhEE19_M_get_Tp_allocatorEv"
.LASF1234:
	.string	"uint_least32_t"
.LASF717:
	.string	"_ZNKSt6vectorIfSaIfEE11_M_data_ptrIfEEPT_S4_"
.LASF970:
	.string	"_S_always_equal"
.LASF315:
	.string	"_ZNSt12_Vector_baseI16SubApertureImageSaIS0_EE17_Vector_impl_data12_M_swap_dataERS3_"
.LASF817:
	.string	"_ZSt8_DestroyIPiiEvT_S1_RSaIT0_E"
.LASF598:
	.string	"_ZNSaIfEC4Ev"
.LASF689:
	.string	"_ZNSt6vectorIfSaIfEE9push_backEOf"
.LASF183:
	.string	"rend"
.LASF746:
	.string	"_ZNSt19_UninitDestroyGuardIPfvED4Ev"
.LASF1219:
	.string	"setbuf"
.LASF1431:
	.string	"_Z20_mm256_cvtepu8_epi32Dv2_x"
.LASF502:
	.string	"_ZNSt6vectorIiSaIiEEC4EmRKS0_"
.LASF337:
	.string	"vector<SubApertureImage, std::allocator<SubApertureImage> >"
.LASF1286:
	.string	"__m128i_u"
.LASF956:
	.string	"_S_single"
.LASF773:
	.string	"__fill_a1<unsigned char*, std::vector<unsigned char>, unsigned char>"
.LASF1395:
	.string	"rtop_b_0"
.LASF251:
	.string	"_ZNSt6vectorIhSaIhEE17_M_default_appendEm"
.LASF1399:
	.string	"rtop_b_1"
.LASF638:
	.string	"_ZNSt6vectorIfSaIfEE15_S_use_relocateEv"
.LASF40:
	.string	"_ZNSt15__exception_ptr13exception_ptrD4Ev"
.LASF1441:
	.string	"_Z15_mm_loadl_epi64PKDv2_x"
.LASF477:
	.string	"_ZNSt12_Vector_baseIhSaIhEE12_Vector_implD4Ev"
.LASF924:
	.string	"tm_zone"
.LASF1227:
	.string	"uint64_t"
.LASF66:
	.string	"~__new_allocator"
.LASF885:
	.string	"fwscanf"
.LASF1030:
	.string	"_ZN9__gnu_cxx17__normal_iteratorIPK16SubApertureImageSt6vectorIS1_SaIS1_EEEC4Ev"
.LASF254:
	.string	"_M_insert_rval"
.LASF913:
	.string	"wcsftime"
.LASF1032:
	.string	"_ZNK9__gnu_cxx17__normal_iteratorIPK16SubApertureImageSt6vectorIS1_SaIS1_EEEdeEv"
.LASF980:
	.string	"_ZN9__gnu_cxx17__normal_iteratorIPhSt6vectorIhSaIhEEEC4Ev"
.LASF460:
	.string	"allocator_traits<std::allocator<int> >"
.LASF24:
	.string	"_M_addref"
.LASF619:
	.string	"_ZNSt12_Vector_baseIfSaIfEE19_M_get_Tp_allocatorEv"
.LASF523:
	.string	"_ZNSt6vectorIiSaIiEE4rendEv"
.LASF379:
	.string	"_ZNKSt6vectorI16SubApertureImageSaIS0_EE5emptyEv"
.LASF64:
	.string	"_ZNKSt15__exception_ptr13exception_ptrcvbEv"
.LASF1274:
	.string	"~ImageData"
.LASF671:
	.string	"_ZNSt6vectorIfSaIfEE6resizeEm"
.LASF663:
	.string	"_ZNSt6vectorIfSaIfEE4rendEv"
.LASF1402:
	.string	"lbot_f_0"
.LASF1406:
	.string	"lbot_f_1"
.LASF77:
	.string	"size_type"
.LASF1218:
	.string	"rewind"
.LASF422:
	.string	"reverse_iterator<__gnu_cxx::__normal_iterator<const SubApertureImage*, std::vector<SubApertureImage, std::allocator<SubApertureImage> > > >"
.LASF1279:
	.string	"_Float32x"
.LASF372:
	.string	"_ZNKSt6vectorI16SubApertureImageSaIS0_EE5crendEv"
.LASF616:
	.string	"_ZNSt12_Vector_baseIfSaIfEE12_Vector_implC4EOS0_"
.LASF313:
	.string	"_ZNSt12_Vector_baseI16SubApertureImageSaIS0_EE17_Vector_impl_data12_M_copy_dataERKS3_"
.LASF1296:
	.string	"x_end"
.LASF1454:
	.string	"_Unwind_Resume"
.LASF550:
	.string	"_ZNSt6vectorIiSaIiEE8pop_backEv"
.LASF488:
	.string	"_ZNSt12_Vector_baseIiSaIiEEC4EOS1_RKS0_"
.LASF651:
	.string	"_ZNSt6vectorIfSaIfEED4Ev"
.LASF665:
	.string	"_ZNKSt6vectorIfSaIfEE6cbeginEv"
.LASF171:
	.string	"iterator"
.LASF1190:
	.string	"strtold"
.LASF1011:
	.string	"_ZN9__gnu_cxx14__alloc_traitsISaI16SubApertureImageES1_E15_S_always_equalEv"
.LASF1185:
	.string	"strtoll"
.LASF1039:
	.string	"_ZN9__gnu_cxx17__normal_iteratorIPK16SubApertureImageSt6vectorIS1_SaIS1_EEEpLEl"
.LASF699:
	.string	"_ZNSt6vectorIfSaIfEE18_M_fill_initializeEmRKf"
.LASF452:
	.string	"_ZNSt15__new_allocatorIiE10deallocateEPim"
.LASF594:
	.string	"_ZNSt15__new_allocatorIfE10deallocateEPfm"
.LASF994:
	.string	"_ZN9__gnu_cxx17__normal_iteratorIPhSt6vectorIhSaIhEEEpLEl"
.LASF290:
	.string	"_ZNSt15__new_allocatorI16SubApertureImageEaSERKS1_"
.LASF1160:
	.string	"atexit"
.LASF851:
	.string	"_IO_write_ptr"
.LASF1172:
	.string	"quick_exit"
.LASF669:
	.string	"_ZNKSt6vectorIfSaIfEE4sizeEv"
.LASF413:
	.string	"_ZNSt6vectorI16SubApertureImageSaIS0_EE17_S_check_init_lenEmRKS1_"
.LASF1455:
	.string	"__builtin_unwind_resume"
.LASF1100:
	.string	"negative_sign"
.LASF585:
	.string	"iterator_traits<(anonymous namespace)::SubParams*>"
.LASF411:
	.string	"_ZNSt6vectorI16SubApertureImageSaIS0_EE14_M_emplace_auxEN9__gnu_cxx17__normal_iteratorIPKS0_S2_EEOS0_"
.LASF1401:
	.string	"ltop_f_0"
.LASF1405:
	.string	"ltop_f_1"
.LASF1126:
	.string	"__int_least8_t"
.LASF908:
	.string	"wcscat"
.LASF1414:
	.string	"rbot_b"
.LASF653:
	.string	"_ZNSt6vectorIfSaIfEEaSEOS1_"
.LASF975:
	.string	"other"
.LASF805:
	.string	"_ZSt6fill_nIPhmhET_S1_T0_RKT1_"
.LASF140:
	.string	"_ZNSt12_Vector_baseIhSaIhEE17_M_create_storageEm"
.LASF635:
	.string	"vector<float, std::allocator<float> >"
.LASF432:
	.string	"_Guard_alloc"
.LASF163:
	.string	"~vector"
.LASF294:
	.string	"_ZNSt15__new_allocatorI16SubApertureImageE8allocateEmPKv"
.LASF600:
	.string	"_ZNSaIfEaSERKS_"
.LASF1212:
	.string	"ftell"
.LASF527:
	.string	"_ZNKSt6vectorIiSaIiEE7crbeginEv"
.LASF1266:
	.string	"wctype"
.LASF1094:
	.string	"int_curr_symbol"
.LASF11:
	.string	"_ZNKSt17integral_constantIbLb1EEclEv"
.LASF65:
	.string	"_ZNSt15__new_allocatorIhEaSERKS0_"
.LASF88:
	.string	"_ZNSaIhEaSERKS_"
.LASF153:
	.string	"_ZNSt6vectorIhSaIhEEC4ERKS0_"
.LASF803:
	.string	"_Destroy<(anonymous namespace)::SubParams*>"
.LASF458:
	.string	"_ZNSaIiEaSERKS_"
.LASF767:
	.string	"_ZSt18__do_uninit_fill_nIPimiET_S1_T0_RKT1_"
.LASF1015:
	.string	"_ZN9__gnu_cxx17__normal_iteratorIP16SubApertureImageSt6vectorIS1_SaIS1_EEEC4Ev"
.LASF615:
	.string	"_ZNSt12_Vector_baseIfSaIfEE12_Vector_implC4EOS2_"
.LASF1292:
	.string	"_Float16"
.LASF46:
	.string	"_ZSt17rethrow_exceptionNSt15__exception_ptr13exception_ptrE"
.LASF708:
	.string	"_ZNKSt6vectorIfSaIfEE12_M_check_lenEmPKc"
.LASF1024:
	.string	"_ZN9__gnu_cxx17__normal_iteratorIP16SubApertureImageSt6vectorIS1_SaIS1_EEEpLEl"
.LASF194:
	.string	"size"
.LASF519:
	.string	"_ZNSt6vectorIiSaIiEE3endEv"
.LASF1016:
	.string	"_ZN9__gnu_cxx17__normal_iteratorIP16SubApertureImageSt6vectorIS1_SaIS1_EEEC4ERKS2_"
.LASF19:
	.string	"__swappable_details"
.LASF1380:
	.string	"diff"
.LASF723:
	.string	"_ZNKSt16initializer_listIiE3endEv"
.LASF1272:
	.string	"_ZN9ImageData2atEmmm"
.LASF875:
	.string	"FILE"
.LASF214:
	.string	"_ZNKSt6vectorIhSaIhEE2atEm"
.LASF476:
	.string	"~_Vector_impl"
.LASF478:
	.string	"_ZNSt12_Vector_baseIiSaIiEE12_Vector_implD4Ev"
.LASF1423:
	.string	"_ZN9ImageDataD2Ev"
.LASF108:
	.string	"_M_copy_data"
.LASF1252:
	.string	"clock"
.LASF238:
	.string	"clear"
.LASF122:
	.string	"_ZNKSt12_Vector_baseIhSaIhEE13get_allocatorEv"
.LASF1256:
	.string	"asctime"
.LASF1018:
	.string	"_ZNK9__gnu_cxx17__normal_iteratorIP16SubApertureImageSt6vectorIS1_SaIS1_EEEptEv"
.LASF44:
	.string	"_ZNKSt15__exception_ptr13exception_ptr20__cxa_exception_typeEv"
.LASF1221:
	.string	"tmpfile"
.LASF107:
	.string	"_ZNSt12_Vector_baseIhSaIhEE17_Vector_impl_dataC4EOS2_"
.LASF703:
	.string	"_ZNSt6vectorIfSaIfEE14_M_fill_appendEmRKf"
.LASF747:
	.string	"_ZNSt19_UninitDestroyGuardIPfvE7releaseEv"
.LASF772:
	.string	"_ZSt12__niter_baseIPhET_S1_"
.LASF602:
	.string	"allocator_traits<std::allocator<float> >"
.LASF6:
	.string	"size_t"
.LASF807:
	.string	"_ZSt24__uninitialized_fill_n_aIPhmhhET_S1_T0_RKT1_RSaIT2_E"
.LASF624:
	.string	"_ZNSt12_Vector_baseIfSaIfEEC4Em"
.LASF1023:
	.string	"_ZNK9__gnu_cxx17__normal_iteratorIP16SubApertureImageSt6vectorIS1_SaIS1_EEEixEl"
.LASF1258:
	.string	"gmtime"
.LASF840:
	.string	"__count"
.LASF1284:
	.string	"__v16qi"
.LASF1224:
	.string	"uint8_t"
.LASF1144:
	.string	"quot"
.LASF715:
	.string	"_ZNSt6vectorIfSaIfEE14_M_move_assignEOS1_St17integral_constantIbLb0EE"
.LASF950:
	.string	"wcspbrk"
.LASF1391:
	.string	"x_stop"
.LASF215:
	.string	"front"
.LASF96:
	.string	"_ZNSt16allocator_traitsISaIhEE8max_sizeERKS0_"
.LASF300:
	.string	"_ZNSaI16SubApertureImageEC4ERKS0_"
.LASF288:
	.string	"_ZNSt15__new_allocatorI16SubApertureImageEC4Ev"
.LASF1348:
	.string	"_ZNSt15__new_allocatorIiEC2Ev"
.LASF770:
	.string	"_FIte"
.LASF1248:
	.string	"_Float32"
.LASF520:
	.string	"_ZNKSt6vectorIiSaIiEE3endEv"
.LASF1215:
	.string	"perror"
.LASF978:
	.string	"_M_current"
.LASF316:
	.string	"_ZNSt12_Vector_baseI16SubApertureImageSaIS0_EE12_Vector_implC4Ev"
.LASF342:
	.string	"_ZNSt6vectorI16SubApertureImageSaIS0_EE15_S_use_relocateEv"
.LASF1130:
	.string	"__int_least32_t"
.LASF402:
	.string	"_ZNSt6vectorI16SubApertureImageSaIS0_EE5clearEv"
.LASF725:
	.string	"reverse_iterator<__gnu_cxx::__normal_iterator<float*, std::vector<float, std::allocator<float> > > >"
.LASF513:
	.string	"_ZNSt6vectorIiSaIiEEaSEOS1_"
.LASF1315:
	.string	"_ZNSt12_Vector_baseIhSaIhEE12_Vector_implC2ERKS0_"
.LASF246:
	.string	"_M_fill_insert"
.LASF878:
	.string	"fgetwc"
.LASF855:
	.string	"_IO_save_base"
.LASF1238:
	.string	"int_fast32_t"
.LASF365:
	.string	"_ZNSt6vectorI16SubApertureImageSaIS0_EE6rbeginEv"
.LASF710:
	.string	"_ZNSt6vectorIfSaIfEE11_S_max_sizeERKS0_"
.LASF1457:
	.string	"_ZNSt15__exception_ptr4swapERNS_13exception_ptrES1_"
.LASF657:
	.string	"_ZNSt6vectorIfSaIfEE5beginEv"
.LASF268:
	.string	"_ZNSt6vectorIhSaIhEE8_M_eraseEN9__gnu_cxx17__normal_iteratorIPhS1_EES5_"
.LASF418:
	.string	"_ZNSt6vectorI16SubApertureImageSaIS0_EE14_M_move_assignEOS2_St17integral_constantIbLb1EE"
.LASF941:
	.string	"wctob"
.LASF874:
	.string	"_unused2"
.LASF620:
	.string	"_ZNKSt12_Vector_baseIfSaIfEE19_M_get_Tp_allocatorEv"
.LASF633:
	.string	"_ZNSt12_Vector_baseIfSaIfEE17_M_create_storageEm"
.LASF307:
	.string	"_ZNSt16allocator_traitsISaI16SubApertureImageEE10deallocateERS1_PS0_m"
.LASF884:
	.string	"fwprintf"
.LASF1433:
	.string	"_Z14_mm256_set1_psf"
.LASF1134:
	.string	"__intmax_t"
.LASF506:
	.string	"_ZNSt6vectorIiSaIiEEC4ERKS1_RKS0_"
.LASF138:
	.string	"_ZNSt12_Vector_baseIhSaIhEE13_M_deallocateEPhm"
.LASF435:
	.string	"_M_vect"
.LASF244:
	.string	"_M_fill_assign"
.LASF839:
	.string	"__wchb"
.LASF1267:
	.string	"ImageData"
.LASF676:
	.string	"_ZNSt6vectorIfSaIfEE7reserveEm"
.LASF1084:
	.string	"__int128 unsigned"
.LASF386:
	.string	"_ZNSt6vectorI16SubApertureImageSaIS0_EE5frontEv"
.LASF12:
	.string	"integral_constant<bool, true>"
.LASF738:
	.string	"_M_cur"
.LASF393:
	.string	"_ZNSt6vectorI16SubApertureImageSaIS0_EE9push_backEOS0_"
.LASF390:
	.string	"_ZNSt6vectorI16SubApertureImageSaIS0_EE4dataEv"
.LASF606:
	.string	"_ZNSt16allocator_traitsISaIfEE8max_sizeERKS0_"
.LASF750:
	.string	"_ZNSt19_UninitDestroyGuardIPfvE10_S_destroyIS0_EEvT_S3_"
.LASF258:
	.string	"_M_check_len"
.LASF470:
	.string	"_ZNSt12_Vector_baseIiSaIiEE17_Vector_impl_data12_M_swap_dataERS2_"
.LASF837:
	.string	"wint_t"
.LASF1168:
	.string	"mblen"
.LASF117:
	.string	"_Tp_alloc_type"
.LASF1411:
	.string	"ltop_b"
.LASF898:
	.string	"vfwprintf"
.LASF753:
	.string	"_ZSt28__throw_bad_array_new_lengthv"
.LASF1384:
	.string	"__for_end"
.LASF91:
	.string	"allocator_traits<std::allocator<unsigned char> >"
.LASF465:
	.string	"_ZNSt16allocator_traitsISaIiEE37select_on_container_copy_constructionERKS0_"
.LASF67:
	.string	"_ZNSt15__new_allocatorIhED4Ev"
.LASF1341:
	.string	"_ZNSt12_Vector_baseIfSaIfEE12_Vector_implD2Ev"
.LASF589:
	.string	"_ZNSt15__new_allocatorIfEaSERKS0_"
.LASF1077:
	.string	"wcstoull"
.LASF869:
	.string	"_wide_data"
.LASF510:
	.string	"_ZNSt6vectorIiSaIiEEC4ESt16initializer_listIiERKS0_"
.LASF969:
	.string	"_ZN9__gnu_cxx14__alloc_traitsISaIhEhE20_S_propagate_on_swapEv"
.LASF185:
	.string	"_ZNKSt6vectorIhSaIhEE4rendEv"
.LASF306:
	.string	"_ZNSt16allocator_traitsISaIhEE10deallocateERS0_Phm"
.LASF392:
	.string	"_ZNSt6vectorI16SubApertureImageSaIS0_EE9push_backERKS0_"
.LASF1060:
	.string	"_ZN9__gnu_cxx14__alloc_traitsISaIfEfE17_S_select_on_copyERKS1_"
.LASF713:
	.string	"_ZNSt6vectorIfSaIfEE8_M_eraseEN9__gnu_cxx17__normal_iteratorIPfS1_EES5_"
.LASF1203:
	.string	"fflush"
.LASF286:
	.string	"_ZSt3divll"
.LASF707:
	.string	"_ZNSt6vectorIfSaIfEE14_M_emplace_auxEN9__gnu_cxx17__normal_iteratorIPKfS1_EEOf"
.LASF1054:
	.string	"_ZN9__gnu_cxx14__alloc_traitsISaIiEiE15_S_always_equalEv"
.LASF881:
	.string	"fputwc"
.LASF1340:
	.string	"_ZNSt12_Vector_baseIfSaIfEEC2EmRKS0_"
.LASF1249:
	.string	"_Float64"
.LASF1300:
	.string	"_ZdlPvm"
.LASF400:
	.string	"_ZNSt6vectorI16SubApertureImageSaIS0_EE5eraseEN9__gnu_cxx17__normal_iteratorIPKS0_S2_EES7_"
.LASF408:
	.string	"_ZNSt6vectorI16SubApertureImageSaIS0_EE17_M_default_appendEm"
.LASF882:
	.string	"fputws"
.LASF395:
	.string	"_ZNSt6vectorI16SubApertureImageSaIS0_EE6insertEN9__gnu_cxx17__normal_iteratorIPKS0_S2_EERS5_"
.LASF1307:
	.string	"_ZNSt19_UninitDestroyGuardIPfvEC2ERS0_"
.LASF172:
	.string	"begin"
.LASF123:
	.string	"_Vector_base"
.LASF474:
	.string	"_ZNSt12_Vector_baseIiSaIiEE12_Vector_implC4EOS0_"
.LASF800:
	.string	"__enable_if_t"
.LASF779:
	.string	"uninitialized_fill_n<int*, long unsigned int, int>"
.LASF1357:
	.string	"_ZNSt15__new_allocatorIhED2Ev"
.LASF1330:
	.string	"__ptr"
.LASF98:
	.string	"_ZNSt16allocator_traitsISaIhEE37select_on_container_copy_constructionERKS0_"
.LASF1003:
	.string	"_Container"
.LASF992:
	.string	"_ZNK9__gnu_cxx17__normal_iteratorIPhSt6vectorIhSaIhEEEixEl"
.LASF1124:
	.string	"__int64_t"
.LASF134:
	.string	"_M_impl"
.LASF802:
	.string	"__niter_base<(anonymous namespace)::SubParams*>"
.LASF1125:
	.string	"__uint64_t"
.LASF355:
	.string	"_ZNSt6vectorI16SubApertureImageSaIS0_EED4Ev"
.LASF579:
	.string	"_ZNSt16initializer_listIiEC4EPKim"
.LASF1345:
	.string	"_ZNSt12_Vector_baseIiSaIiEEC2EmRKS0_"
.LASF87:
	.string	"_ZNSaIhEC4ERKS_"
.LASF1385:
	.string	"shift_x"
.LASF1386:
	.string	"shift_y"
.LASF186:
	.string	"cbegin"
.LASF121:
	.string	"get_allocator"
.LASF287:
	.string	"__new_allocator<SubApertureImage>"
.LASF1325:
	.string	"_ZNSt15__new_allocatorIhEC2ERKS0_"
.LASF201:
	.string	"_ZNSt6vectorIhSaIhEE13shrink_to_fitEv"
.LASF1378:
	.string	"params"
.LASF189:
	.string	"_ZNKSt6vectorIhSaIhEE4cendEv"
.LASF158:
	.string	"_ZNSt6vectorIhSaIhEEC4ERKS1_RKS0_"
.LASF1091:
	.string	"decimal_point"
.LASF349:
	.string	"_ZNSt6vectorI16SubApertureImageSaIS0_EEC4EOS2_"
.LASF426:
	.string	"allocator_traits<std::allocator<(anonymous namespace)::SubParams> >"
.LASF112:
	.string	"_ZNSt12_Vector_baseIhSaIhEE12_Vector_implC4Ev"
.LASF785:
	.string	"_OutputIterator"
.LASF1055:
	.string	"_ZN9__gnu_cxx14__alloc_traitsISaIiEiE15_S_nothrow_moveEv"
.LASF560:
	.string	"_ZNSt6vectorIiSaIiEE21_M_default_initializeEm"
.LASF399:
	.string	"_ZNSt6vectorI16SubApertureImageSaIS0_EE5eraseEN9__gnu_cxx17__normal_iteratorIPKS0_S2_EE"
.LASF73:
	.string	"_ZNKSt15__new_allocatorIhE7addressERKh"
.LASF1466:
	.string	"decltype(nullptr)"
.LASF1303:
	.string	"this"
.LASF524:
	.string	"_ZNKSt6vectorIiSaIiEE4rendEv"
.LASF192:
	.string	"crend"
.LASF664:
	.string	"_ZNKSt6vectorIfSaIfEE4rendEv"
.LASF1200:
	.string	"fclose"
.LASF1178:
	.string	"strtoul"
.LASF1342:
	.string	"_ZNSt15__new_allocatorIfED2Ev"
.LASF473:
	.string	"_ZNSt12_Vector_baseIiSaIiEE12_Vector_implC4EOS2_"
.LASF971:
	.string	"_ZN9__gnu_cxx14__alloc_traitsISaIhEhE15_S_always_equalEv"
.LASF961:
	.string	"_ZN9__gnu_cxx14__alloc_traitsISaIhEhE17_S_select_on_copyERKS1_"
.LASF714:
	.string	"_ZNSt6vectorIfSaIfEE14_M_move_assignEOS1_St17integral_constantIbLb1EE"
.LASF544:
	.string	"_ZNSt6vectorIiSaIiEE4backEv"
.LASF846:
	.string	"_flags"
.LASF1102:
	.string	"frac_digits"
.LASF516:
	.string	"_ZNSt6vectorIiSaIiEE6assignESt16initializer_listIiE"
.LASF1156:
	.string	"timespec"
.LASF364:
	.string	"_ZNKSt6vectorI16SubApertureImageSaIS0_EE3endEv"
.LASF573:
	.string	"_ZNSt6vectorIiSaIiEE8_M_eraseEN9__gnu_cxx17__normal_iteratorIPiS1_EES5_"
.LASF888:
	.string	"mbrlen"
.LASF684:
	.string	"_ZNSt6vectorIfSaIfEE4backEv"
.LASF1147:
	.string	"ldiv_t"
.LASF967:
	.string	"_ZN9__gnu_cxx14__alloc_traitsISaIhEhE27_S_propagate_on_move_assignEv"
.LASF208:
	.string	"operator[]"
.LASF58:
	.string	"__detail"
.LASF711:
	.string	"_ZNSt6vectorIfSaIfEE15_M_erase_at_endEPf"
.LASF1128:
	.string	"__int_least16_t"
.LASF705:
	.string	"_ZNSt6vectorIfSaIfEE16_M_shrink_to_fitEv"
.LASF343:
	.string	"_ZNSt6vectorI16SubApertureImageSaIS0_EE11_S_relocateEPS0_S3_S3_RS1_"
.LASF1283:
	.string	"__m64_u"
.LASF564:
	.string	"_ZNSt6vectorIiSaIiEE17_M_default_appendEm"
.LASF553:
	.string	"_ZNSt6vectorIiSaIiEE6insertEN9__gnu_cxx17__normal_iteratorIPKiS1_EESt16initializer_listIiE"
.LASF1311:
	.string	"__val"
.LASF1323:
	.string	"_ZN9__gnu_cxx17__normal_iteratorIPhSt6vectorIhSaIhEEEC2ERKS1_"
.LASF1005:
	.string	"__alloc_traits<std::allocator<SubApertureImage>, SubApertureImage>"
.LASF896:
	.string	"__isoc23_swscanf"
.LASF1324:
	.string	"_ZNSt12_Vector_baseIhSaIhEEC2EmRKS0_"
.LASF1181:
	.string	"wcstombs"
.LASF793:
	.string	"_ZSt24__uninitialized_fill_n_aIPfmffET_S1_T0_RKT1_RSaIT2_E"
.LASF673:
	.string	"_ZNSt6vectorIfSaIfEE13shrink_to_fitEv"
.LASF1367:
	.string	"_ZNSaIiEC2Ev"
.LASF1334:
	.string	"__tmp"
.LASF209:
	.string	"_ZNSt6vectorIhSaIhEEixEm"
.LASF243:
	.string	"_ZNSt6vectorIhSaIhEE21_M_default_initializeEm"
.LASF174:
	.string	"const_iterator"
.LASF1368:
	.string	"__old_size"
.LASF810:
	.string	"_Destroy<unsigned char*>"
.LASF407:
	.string	"_ZNSt6vectorI16SubApertureImageSaIS0_EE14_M_fill_appendEmRKS0_"
.LASF1049:
	.string	"_ZN9__gnu_cxx14__alloc_traitsISaIiEiE17_S_select_on_copyERKS1_"
.LASF1328:
	.string	"_ZNSt12_Vector_baseIiSaIiEE12_Vector_implC2ERKS0_"
.LASF607:
	.string	"_ZNSt16allocator_traitsISaIfEE37select_on_container_copy_constructionERKS0_"
.LASF92:
	.string	"allocator_type"
.LASF485:
	.string	"_ZNSt12_Vector_baseIiSaIiEEC4EmRKS0_"
.LASF1437:
	.string	"_Z15_mm256_loadu_psPKf"
.LASF518:
	.string	"_ZNKSt6vectorIiSaIiEE5beginEv"
.LASF1469:
	.string	"execution"
.LASF227:
	.string	"pop_back"
.LASF1396:
	.string	"rbot_b_0"
.LASF1400:
	.string	"rbot_b_1"
.LASF361:
	.string	"_ZNSt6vectorI16SubApertureImageSaIS0_EE5beginEv"
.LASF1356:
	.string	"__add"
.LASF828:
	.string	"floor"
.LASF352:
	.string	"_ZNSt6vectorI16SubApertureImageSaIS0_EEC4EOS2_RKS1_St17integral_constantIbLb0EE"
.LASF1237:
	.string	"int_fast16_t"
.LASF1194:
	.string	"__fpos_t"
.LASF697:
	.string	"_ZNSt6vectorIfSaIfEE4swapERS1_"
.LASF1359:
	.string	"_ZNSaIhEC2Ev"
.LASF538:
	.string	"_ZNKSt6vectorIiSaIiEEixEm"
.LASF308:
	.string	"_ZNSt16allocator_traitsISaI16SubApertureImageEE8max_sizeERKS1_"
.LASF789:
	.string	"_ZSt8__fill_aIN9__gnu_cxx17__normal_iteratorIPhSt6vectorIhSaIhEEEEhEvT_S7_RKT0_"
.LASF180:
	.string	"_ZNSt6vectorIhSaIhEE6rbeginEv"
.LASF405:
	.string	"_ZNSt6vectorI16SubApertureImageSaIS0_EE14_M_fill_assignEmRKS0_"
.LASF160:
	.string	"_ZNSt6vectorIhSaIhEEC4EOS1_RKS0_St17integral_constantIbLb0EE"
.LASF391:
	.string	"_ZNKSt6vectorI16SubApertureImageSaIS0_EE4dataEv"
.LASF105:
	.string	"_M_end_of_storage"
.LASF895:
	.string	"swscanf"
.LASF525:
	.string	"_ZNKSt6vectorIiSaIiEE6cbeginEv"
.LASF366:
	.string	"_ZNKSt6vectorI16SubApertureImageSaIS0_EE6rbeginEv"
.LASF1451:
	.string	"memset"
.LASF339:
	.string	"_ZNSt6vectorI16SubApertureImageSaIS0_EE19_S_nothrow_relocateESt17integral_constantIbLb0EE"
.LASF1438:
	.string	"_mm256_cvtepi32_ps"
.LASF759:
	.string	"_Construct<int, int const&>"
.LASF1199:
	.string	"clearerr"
.LASF444:
	.string	"__new_allocator<int>"
.LASF732:
	.string	"_ZNSt19_UninitDestroyGuardIPivEC4ERS0_"
.LASF776:
	.string	"_Cont"
.LASF535:
	.string	"_ZNKSt6vectorIiSaIiEE5emptyEv"
.LASF256:
	.string	"_M_emplace_aux"
.LASF588:
	.string	"_ZNSt15__new_allocatorIfEC4ERKS0_"
.LASF555:
	.string	"_ZNSt6vectorIiSaIiEE5eraseEN9__gnu_cxx17__normal_iteratorIPKiS1_EE"
.LASF1070:
	.string	"operator!="
.LASF1059:
	.string	"__alloc_traits<std::allocator<float>, float>"
.LASF1223:
	.string	"ungetc"
.LASF1152:
	.string	"int8_t"
.LASF493:
	.string	"_ZNSt12_Vector_baseIiSaIiEE17_M_create_storageEm"
.LASF857:
	.string	"_IO_save_end"
.LASF946:
	.string	"wprintf"
.LASF410:
	.string	"_ZNSt6vectorI16SubApertureImageSaIS0_EE14_M_insert_rvalEN9__gnu_cxx17__normal_iteratorIPKS0_S2_EEOS0_"
.LASF447:
	.string	"_ZNSt15__new_allocatorIiEaSERKS0_"
.LASF559:
	.string	"_ZNSt6vectorIiSaIiEE18_M_fill_initializeEmRKi"
.LASF964:
	.string	"_S_propagate_on_copy_assign"
.LASF801:
	.string	"__relocate_a_1<(anonymous namespace)::SubParams, (anonymous namespace)::SubParams>"
.LASF1241:
	.string	"uint_fast16_t"
.LASF1230:
	.string	"int_least32_t"
.LASF1174:
	.string	"srand"
.LASF59:
	.string	"__new_allocator<unsigned char>"
.LASF1103:
	.string	"p_cs_precedes"
.LASF909:
	.string	"wcscmp"
.LASF674:
	.string	"_ZNKSt6vectorIfSaIfEE8capacityEv"
.LASF662:
	.string	"_ZNKSt6vectorIfSaIfEE6rbeginEv"
.LASF568:
	.string	"_ZNKSt6vectorIiSaIiEE12_M_check_lenEmPKc"
.LASF798:
	.string	"_ZSt24__uninitialized_fill_n_aIPimiiET_S1_T0_RKT1_RSaIT2_E"
.LASF302:
	.string	"_ZNSaI16SubApertureImageED4Ev"
.LASF833:
	.string	"fp_offset"
.LASF143:
	.string	"type"
.LASF1139:
	.string	"__time_t"
.LASF891:
	.string	"mbsrtowcs"
.LASF28:
	.string	"_M_get"
.LASF1098:
	.string	"mon_grouping"
.LASF832:
	.string	"gp_offset"
.LASF70:
	.string	"pointer"
.LASF512:
	.string	"_ZNSt6vectorIiSaIiEEaSERKS1_"
.LASF250:
	.string	"_M_default_append"
.LASF1033:
	.string	"_ZNK9__gnu_cxx17__normal_iteratorIPK16SubApertureImageSt6vectorIS1_SaIS1_EEEptEv"
.LASF1087:
	.string	"__int128"
.LASF179:
	.string	"rbegin"
.LASF1009:
	.string	"_ZN9__gnu_cxx14__alloc_traitsISaI16SubApertureImageES1_E27_S_propagate_on_move_assignEv"
.LASF783:
	.string	"__fill_n_a<unsigned char*, long unsigned int, unsigned char>"
.LASF921:
	.string	"tm_yday"
.LASF890:
	.string	"mbsinit"
.LASF1412:
	.string	"lbot_b"
.LASF195:
	.string	"_ZNKSt6vectorIhSaIhEE4sizeEv"
.LASF1038:
	.string	"_ZNK9__gnu_cxx17__normal_iteratorIPK16SubApertureImageSt6vectorIS1_SaIS1_EEEixEl"
.LASF39:
	.string	"~exception_ptr"
.LASF547:
	.string	"_ZNKSt6vectorIiSaIiEE4dataEv"
.LASF1082:
	.string	"max_align_t"
.LASF440:
	.string	"reverse_iterator<__gnu_cxx::__normal_iterator<const (anonymous namespace)::SubParams*, std::vector<(anonymous namespace)::SubParams, std::allocator<(anonymous namespace)::SubParams> > > >"
.LASF1099:
	.string	"positive_sign"
.LASF915:
	.string	"tm_min"
.LASF939:
	.string	"__isoc23_wcstoul"
.LASF1468:
	.string	"_ZN9ImageDataD4Ev"
.LASF38:
	.string	"_ZNSt15__exception_ptr13exception_ptraSEOS0_"
.LASF1180:
	.string	"system"
.LASF1153:
	.string	"int16_t"
.LASF1034:
	.string	"_ZN9__gnu_cxx17__normal_iteratorIPK16SubApertureImageSt6vectorIS1_SaIS1_EEEppEv"
.LASF428:
	.string	"_Vector_base<(anonymous namespace)::SubParams, std::allocator<(anonymous namespace)::SubParams> >"
.LASF819:
	.string	"_InputIterator"
.LASF876:
	.string	"short unsigned int"
.LASF245:
	.string	"_ZNSt6vectorIhSaIhEE14_M_fill_assignEmRKh"
.LASF1085:
	.string	"signed char"
.LASF757:
	.string	"_Construct<float, float const&>"
.LASF196:
	.string	"_ZNKSt6vectorIhSaIhEE8max_sizeEv"
.LASF378:
	.string	"_ZNKSt6vectorI16SubApertureImageSaIS0_EE8capacityEv"
.LASF736:
	.string	"_ZNSt19_UninitDestroyGuardIPivE7releaseEv"
.LASF109:
	.string	"_ZNSt12_Vector_baseIhSaIhEE17_Vector_impl_data12_M_copy_dataERKS2_"
.LASF503:
	.string	"_ZNSt6vectorIiSaIiEEC4EmRKiRKS0_"
.LASF1295:
	.string	"x_begin"
.LASF176:
	.string	"_ZNSt6vectorIhSaIhEE3endEv"
.LASF456:
	.string	"_ZNSaIiEC4Ev"
.LASF983:
	.string	"_ZNK9__gnu_cxx17__normal_iteratorIPhSt6vectorIhSaIhEEEdeEv"
.LASF442:
	.string	"difference_type"
.LASF548:
	.string	"_ZNSt6vectorIiSaIiEE9push_backERKi"
.LASF48:
	.string	"ptrdiff_t"
.LASF894:
	.string	"swprintf"
.LASF34:
	.string	"_ZNSt15__exception_ptr13exception_ptrC4EDn"
.LASF425:
	.string	"allocator<(anonymous namespace)::SubParams>"
.LASF93:
	.string	"_ZNSt16allocator_traitsISaIhEE8allocateERS0_m"
.LASF692:
	.string	"_ZNSt6vectorIfSaIfEE6insertEN9__gnu_cxx17__normal_iteratorIPKfS1_EEOf"
.LASF354:
	.string	"_ZNSt6vectorI16SubApertureImageSaIS0_EEC4ESt16initializer_listIS0_ERKS1_"
.LASF218:
	.string	"back"
.LASF716:
	.string	"_M_data_ptr<float>"
.LASF660:
	.string	"_ZNKSt6vectorIfSaIfEE3endEv"
.LASF843:
	.string	"mbstate_t"
.LASF948:
	.string	"__isoc23_wscanf"
.LASF445:
	.string	"_ZNSt15__new_allocatorIiEC4Ev"
.LASF1362:
	.string	"_ZNSaIfED2Ev"
.LASF389:
	.string	"_ZNKSt6vectorI16SubApertureImageSaIS0_EE4backEv"
.LASF625:
	.string	"_ZNSt12_Vector_baseIfSaIfEEC4EmRKS0_"
.LASF536:
	.string	"_ZNSt6vectorIiSaIiEE7reserveEm"
.LASF68:
	.string	"address"
.LASF1137:
	.string	"__off64_t"
.LASF911:
	.string	"wcscpy"
.LASF880:
	.string	"wchar_t"
.LASF901:
	.string	"vswprintf"
.LASF1312:
	.string	"__len"
.LASF892:
	.string	"putwc"
.LASF152:
	.string	"_ZNSt6vectorIhSaIhEEC4Ev"
.LASF849:
	.string	"_IO_read_base"
.LASF1413:
	.string	"rtop_b"
.LASF182:
	.string	"_ZNKSt6vectorIhSaIhEE6rbeginEv"
.LASF377:
	.string	"_ZNSt6vectorI16SubApertureImageSaIS0_EE13shrink_to_fitEv"
.LASF1417:
	.string	"rtop_f"
.LASF867:
	.string	"_offset"
.LASF1409:
	.string	"val_0"
.LASF1025:
	.string	"_ZNK9__gnu_cxx17__normal_iteratorIP16SubApertureImageSt6vectorIS1_SaIS1_EEEplEl"
.LASF1350:
	.string	"__old_finish"
.LASF220:
	.string	"_ZNKSt6vectorIhSaIhEE4backEv"
.LASF491:
	.string	"_ZNSt12_Vector_baseIiSaIiEE11_M_allocateEm"
.LASF278:
	.string	"reverse_iterator<__gnu_cxx::__normal_iterator<unsigned char const*, std::vector<unsigned char, std::allocator<unsigned char> > > >"
.LASF197:
	.string	"resize"
.LASF854:
	.string	"_IO_buf_end"
.LASF726:
	.string	"reverse_iterator<__gnu_cxx::__normal_iterator<float const*, std::vector<float, std::allocator<float> > > >"
.LASF177:
	.string	"_ZNKSt6vectorIhSaIhEE3endEv"
.LASF1416:
	.string	"lbot_f"
.LASF1169:
	.string	"mbstowcs"
.LASF1069:
	.string	"__normal_iterator<float const*, std::vector<float, std::allocator<float> > >"
.LASF114:
	.string	"_ZNSt12_Vector_baseIhSaIhEE12_Vector_implC4EOS2_"
.LASF466:
	.string	"_Vector_base<int, std::allocator<int> >"
.LASF1067:
	.string	"rebind<float>"
.LASF1108:
	.string	"n_sign_posn"
.LASF586:
	.string	"__new_allocator<float>"
.LASF977:
	.string	"_flags2"
.LASF823:
	.string	"_ZSt8_DestroyIPhhEvT_S1_RSaIT0_E"
.LASF764:
	.string	"_ZSt18__do_uninit_fill_nIPfmfET_S1_T0_RKT1_"
.LASF55:
	.string	"chrono"
.LASF929:
	.string	"wcsrtombs"
.LASF1191:
	.string	"_G_fpos_t"
.LASF159:
	.string	"_ZNSt6vectorIhSaIhEEC4EOS1_RKS0_St17integral_constantIbLb1EE"
.LASF266:
	.string	"_M_erase"
.LASF920:
	.string	"tm_wday"
.LASF133:
	.string	"_ZNSt12_Vector_baseIhSaIhEED4Ev"
.LASF572:
	.string	"_ZNSt6vectorIiSaIiEE8_M_eraseEN9__gnu_cxx17__normal_iteratorIPiS1_EE"
.LASF912:
	.string	"wcscspn"
.LASF603:
	.string	"_ZNSt16allocator_traitsISaIfEE8allocateERS0_m"
.LASF25:
	.string	"_M_release"
.LASF873:
	.string	"_mode"
.LASF531:
	.string	"_ZNSt6vectorIiSaIiEE6resizeEm"
.LASF371:
	.string	"_ZNKSt6vectorI16SubApertureImageSaIS0_EE7crbeginEv"
.LASF136:
	.string	"_ZNSt12_Vector_baseIhSaIhEE11_M_allocateEm"
.LASF367:
	.string	"_ZNSt6vectorI16SubApertureImageSaIS0_EE4rendEv"
.LASF850:
	.string	"_IO_write_base"
.LASF1297:
	.string	"y_begin"
.LASF540:
	.string	"_ZNSt6vectorIiSaIiEE2atEm"
.LASF1449:
	.string	"_ZnwmPv"
.LASF338:
	.string	"_ZNSt6vectorI16SubApertureImageSaIS0_EE19_S_nothrow_relocateESt17integral_constantIbLb1EE"
.LASF187:
	.string	"_ZNKSt6vectorIhSaIhEE6cbeginEv"
.LASF838:
	.string	"__wch"
.LASF321:
	.string	"_ZNSt12_Vector_baseI16SubApertureImageSaIS0_EE19_M_get_Tp_allocatorEv"
.LASF814:
	.string	"_Destroy<float*, float>"
.LASF575:
	.string	"_ZNSt6vectorIiSaIiEE14_M_move_assignEOS1_St17integral_constantIbLb0EE"
.LASF618:
	.string	"_ZNSt12_Vector_baseIfSaIfEE12_Vector_implD4Ev"
.LASF581:
	.string	"_ZNKSt16initializer_listIiE4sizeEv"
.LASF191:
	.string	"_ZNKSt6vectorIhSaIhEE7crbeginEv"
.LASF1358:
	.string	"_ZNSt12_Vector_baseIhSaIhEE17_Vector_impl_dataC2Ev"
.LASF515:
	.string	"_ZNSt6vectorIiSaIiEE6assignEmRKi"
.LASF821:
	.string	"_Destroy<(anonymous namespace)::SubParams*, (anonymous namespace)::SubParams>"
.LASF902:
	.string	"vswscanf"
.LASF483:
	.string	"_ZNSt12_Vector_baseIiSaIiEEC4ERKS0_"
.LASF1322:
	.string	"__dest"
.LASF918:
	.string	"tm_mon"
.LASF501:
	.string	"_ZNSt6vectorIiSaIiEEC4ERKS0_"
.LASF1372:
	.string	"_ZNSt12_Vector_baseIhSaIhEE12_Vector_implC2Ev"
.LASF1076:
	.string	"long long int"
.LASF1255:
	.string	"time"
.LASF498:
	.string	"_ZNSt6vectorIiSaIiEE15_S_use_relocateEv"
.LASF1188:
	.string	"__isoc23_strtoull"
.LASF1245:
	.string	"uintptr_t"
.LASF296:
	.string	"_ZNKSt15__new_allocatorI16SubApertureImageE8max_sizeEv"
.LASF43:
	.string	"__cxa_exception_type"
.LASF545:
	.string	"_ZNKSt6vectorIiSaIiEE4backEv"
.LASF9:
	.string	"operator()"
.LASF1298:
	.string	"y_end"
.LASF1205:
	.string	"fgetpos"
.LASF495:
	.string	"vector<int, std::allocator<int> >"
.LASF1421:
	.string	"__lhs"
.LASF685:
	.string	"_ZNKSt6vectorIfSaIfEE4backEv"
.LASF1429:
	.string	"_Z15_mm256_fmadd_psDv8_fS_S_"
.LASF1026:
	.string	"_ZN9__gnu_cxx17__normal_iteratorIP16SubApertureImageSt6vectorIS1_SaIS1_EEEmIEl"
.LASF222:
	.string	"_ZNSt6vectorIhSaIhEE4dataEv"
.LASF387:
	.string	"_ZNKSt6vectorI16SubApertureImageSaIS0_EE5frontEv"
.LASF904:
	.string	"vwprintf"
.LASF1195:
	.string	"_IO_marker"
.LASF872:
	.string	"_prevchain"
.LASF504:
	.string	"_ZNSt6vectorIiSaIiEEC4ERKS1_"
.LASF1280:
	.string	"_Float64x"
.LASF919:
	.string	"tm_year"
.LASF1127:
	.string	"__uint_least8_t"
.LASF13:
	.string	"integral_constant<bool, false>"
.LASF320:
	.string	"_ZNSt12_Vector_baseI16SubApertureImageSaIS0_EE12_Vector_implC4EOS1_OS3_"
.LASF464:
	.string	"_ZNSt16allocator_traitsISaIiEE8max_sizeERKS0_"
.LASF1213:
	.string	"getc"
.LASF1309:
	.string	"_ZNSt19_UninitDestroyGuardIPivED2Ev"
.LASF947:
	.string	"wscanf"
.LASF357:
	.string	"_ZNSt6vectorI16SubApertureImageSaIS0_EEaSEOS2_"
.LASF712:
	.string	"_ZNSt6vectorIfSaIfEE8_M_eraseEN9__gnu_cxx17__normal_iteratorIPfS1_EE"
.LASF1313:
	.string	"__guard"
.LASF1162:
	.string	"atof"
.LASF655:
	.string	"_ZNSt6vectorIfSaIfEE6assignEmRKf"
.LASF554:
	.string	"_ZNSt6vectorIiSaIiEE6insertEN9__gnu_cxx17__normal_iteratorIPKiS1_EEmRS4_"
.LASF149:
	.string	"_S_relocate"
.LASF376:
	.string	"_ZNSt6vectorI16SubApertureImageSaIS0_EE6resizeEmRKS0_"
.LASF534:
	.string	"_ZNKSt6vectorIiSaIiEE8capacityEv"
.LASF421:
	.string	"reverse_iterator<__gnu_cxx::__normal_iterator<SubApertureImage*, std::vector<SubApertureImage, std::allocator<SubApertureImage> > > >"
.LASF1244:
	.string	"intptr_t"
.LASF729:
	.string	"iterator_traits<unsigned char*>"
.LASF842:
	.string	"__mbstate_t"
.LASF1293:
	.string	"__bf16"
.LASF1096:
	.string	"mon_decimal_point"
.LASF1097:
	.string	"mon_thousands_sep"
.LASF1302:
	.string	"_Znwm"
.LASF423:
	.string	"__new_allocator<(anonymous namespace)::SubParams>"
.LASF1226:
	.string	"uint32_t"
.LASF41:
	.string	"swap"
.LASF996:
	.string	"_ZNK9__gnu_cxx17__normal_iteratorIPhSt6vectorIhSaIhEEEplEl"
.LASF341:
	.string	"_ZNSt6vectorIhSaIhEE15_S_use_relocateEv"
.LASF1196:
	.string	"_IO_codecvt"
.LASF771:
	.string	"__niter_base<unsigned char*>"
.LASF1339:
	.string	"_ZNSt12_Vector_baseIfSaIfEED2Ev"
.LASF813:
	.string	"_ZSt3minImERKT_S2_S2_"
.LASF590:
	.string	"_ZNSt15__new_allocatorIfED4Ev"
.LASF678:
	.string	"_ZNKSt6vectorIfSaIfEEixEm"
.LASF230:
	.string	"_ZNSt6vectorIhSaIhEE6insertEN9__gnu_cxx17__normal_iteratorIPKhS1_EERS4_"
.LASF780:
	.string	"_ZSt20uninitialized_fill_nIPimiET_S1_T0_RKT1_"
.LASF1175:
	.string	"strtod"
.LASF1189:
	.string	"strtof"
.LASF806:
	.string	"__uninitialized_fill_n_a<unsigned char*, long unsigned int, unsigned char, unsigned char>"
.LASF1176:
	.string	"strtol"
.LASF959:
	.string	"__alloc_traits<std::allocator<unsigned char>, unsigned char>"
.LASF301:
	.string	"_ZNSaI16SubApertureImageEaSERKS0_"
.LASF1073:
	.string	"long double"
.LASF129:
	.string	"_ZNSt12_Vector_baseIhSaIhEEC4EOS0_"
.LASF84:
	.string	"allocator<unsigned char>"
.LASF706:
	.string	"_ZNSt6vectorIfSaIfEE14_M_insert_rvalEN9__gnu_cxx17__normal_iteratorIPKfS1_EEOf"
.LASF270:
	.string	"_ZNSt6vectorIhSaIhEE14_M_move_assignEOS1_St17integral_constantIbLb1EE"
.LASF1002:
	.string	"_ZNK9__gnu_cxx17__normal_iteratorIPhSt6vectorIhSaIhEEE4baseEv"
.LASF1014:
	.string	"__normal_iterator<SubApertureImage*, std::vector<SubApertureImage, std::allocator<SubApertureImage> > >"
.LASF1443:
	.string	"_Z13_mm_set_epi64Dv2_iS_"
.LASF345:
	.string	"_ZNSt6vectorI16SubApertureImageSaIS0_EEC4ERKS1_"
.LASF1104:
	.string	"p_sep_by_space"
.LASF752:
	.string	"__throw_bad_alloc"
.LASF4:
	.string	"long unsigned int"
.LASF701:
	.string	"_ZNSt6vectorIfSaIfEE14_M_fill_assignEmRKf"
.LASF962:
	.string	"_S_on_swap"
.LASF1442:
	.string	"_mm_set_epi64"
.LASF993:
	.string	"operator+="
.LASF749:
	.string	"_S_destroy<float*>"
.LASF727:
	.string	"enable_if<true, (anonymous namespace)::SubParams*>"
.LASF128:
	.string	"_ZNSt12_Vector_baseIhSaIhEEC4EOS1_"
.LASF1222:
	.string	"tmpnam"
.LASF419:
	.string	"_ZNSt6vectorI16SubApertureImageSaIS0_EE14_M_move_assignEOS2_St17integral_constantIbLb0EE"
.LASF17:
	.string	"false_type"
.LASF1202:
	.string	"ferror"
.LASF141:
	.string	"_Alloc"
.LASF348:
	.string	"_ZNSt6vectorI16SubApertureImageSaIS0_EEC4ERKS2_"
.LASF449:
	.string	"_ZNKSt15__new_allocatorIiE7addressERi"
.LASF247:
	.string	"_ZNSt6vectorIhSaIhEE14_M_fill_insertEN9__gnu_cxx17__normal_iteratorIPhS1_EEmRKh"
.LASF346:
	.string	"_ZNSt6vectorI16SubApertureImageSaIS0_EEC4EmRKS1_"
.LASF1425:
	.string	"_ZNSt6vectorIhSaIhEEC2Ev"
.LASF827:
	.string	"_ZSt3maxIiERKT_S2_S2_"
.LASF86:
	.string	"_ZNSaIhEC4Ev"
.LASF453:
	.string	"_ZNKSt15__new_allocatorIiE8max_sizeEv"
.LASF1261:
	.string	"wctype_t"
.LASF5:
	.string	"char"
.LASF314:
	.string	"_ZNSt12_Vector_baseIhSaIhEE17_Vector_impl_data12_M_swap_dataERS2_"
.LASF907:
	.string	"wcrtomb"
.LASF936:
	.string	"__isoc23_wcstol"
.LASF272:
	.string	"_M_data_ptr<unsigned char>"
.LASF788:
	.string	"__fill_a<__gnu_cxx::__normal_iterator<unsigned char*, std::vector<unsigned char> >, unsigned char>"
.LASF224:
	.string	"push_back"
.LASF1072:
	.string	"wcstold"
.LASF683:
	.string	"_ZNKSt6vectorIfSaIfEE5frontEv"
.LASF1370:
	.string	"_ZNSt12_Vector_baseIhSaIhEED2Ev"
.LASF986:
	.string	"operator++"
.LASF1106:
	.string	"n_sep_by_space"
.LASF577:
	.string	"_M_array"
.LASF424:
	.string	"construct<(anonymous namespace)::SubParams, const (anonymous namespace)::SubParams&>"
.LASF862:
	.string	"_old_offset"
.LASF451:
	.string	"_ZNSt15__new_allocatorIiE8allocateEmPKv"
.LASF1353:
	.string	"__new_finish"
.LASF1010:
	.string	"_ZN9__gnu_cxx14__alloc_traitsISaI16SubApertureImageES1_E20_S_propagate_on_swapEv"
.LASF188:
	.string	"cend"
.LASF826:
	.string	"max<int>"
.LASF233:
	.string	"_ZNSt6vectorIhSaIhEE6insertEN9__gnu_cxx17__normal_iteratorIPKhS1_EEmRS4_"
.LASF853:
	.string	"_IO_buf_base"
.LASF574:
	.string	"_ZNSt6vectorIiSaIiEE14_M_move_assignEOS1_St17integral_constantIbLb1EE"
.LASF252:
	.string	"_M_shrink_to_fit"
.LASF383:
	.string	"_ZNKSt6vectorI16SubApertureImageSaIS0_EE14_M_range_checkEm"
.LASF144:
	.string	"_Type"
.LASF989:
	.string	"operator--"
.LASF751:
	.string	"__throw_bad_array_new_length"
.LASF281:
	.string	"_ZSt3abse"
.LASF282:
	.string	"_ZSt3absf"
.LASF279:
	.string	"_ZSt3absg"
.LASF580:
	.string	"_ZNSt16initializer_listIiEC4Ev"
.LASF285:
	.string	"_ZSt3absl"
.LASF280:
	.string	"_ZSt3absn"
.LASF89:
	.string	"~allocator"
.LASF997:
	.string	"operator-="
.LASF984:
	.string	"operator->"
.LASF1253:
	.string	"difftime"
.LASF284:
	.string	"_ZSt3absx"
.LASF528:
	.string	"_ZNKSt6vectorIiSaIiEE5crendEv"
.LASF31:
	.string	"_ZNKSt15__exception_ptr13exception_ptr21_M_exception_ptr_castERKSt9type_info"
.LASF848:
	.string	"_IO_read_end"
.LASF511:
	.string	"_ZNSt6vectorIiSaIiEED4Ev"
.LASF1333:
	.string	"__alloc"
.LASF362:
	.string	"_ZNKSt6vectorI16SubApertureImageSaIS0_EE5beginEv"
.LASF744:
	.string	"_UninitDestroyGuard<float*, void>"
.LASF169:
	.string	"_ZNSt6vectorIhSaIhEE6assignEmRKh"
.LASF468:
	.string	"_ZNSt12_Vector_baseIiSaIiEE17_Vector_impl_dataC4EOS2_"
.LASF845:
	.string	"_IO_FILE"
.LASF427:
	.string	"_Args"
.LASF953:
	.string	"wmemchr"
.LASF1361:
	.string	"_ZNSt6vectorIfSaIfEEC2EmRKfRKS0_"
.LASF403:
	.string	"_ZNSt6vectorI16SubApertureImageSaIS0_EE18_M_fill_initializeEmRKS0_"
.LASF1197:
	.string	"_IO_wide_data"
.LASF1056:
	.string	"rebind<int>"
.LASF642:
	.string	"_ZNSt6vectorIfSaIfEEC4EmRKS0_"
.LASF467:
	.string	"_ZNSt12_Vector_baseIiSaIiEE17_Vector_impl_dataC4Ev"
.LASF45:
	.string	"rethrow_exception"
.LASF1464:
	.string	"_ZN9__gnu_cxx21__default_lock_policyE"
.LASF916:
	.string	"tm_hour"
.LASF382:
	.string	"_ZNKSt6vectorI16SubApertureImageSaIS0_EEixEm"
.LASF758:
	.string	"_ZSt10_ConstructIfJRKfEEvPT_DpOT0_"
.LASF369:
	.string	"_ZNKSt6vectorI16SubApertureImageSaIS0_EE6cbeginEv"
.LASF1418:
	.string	"rbot_f"
.LASF27:
	.string	"_ZNSt15__exception_ptr13exception_ptr10_M_releaseEv"
.LASF761:
	.string	"__fill_a1<unsigned char, unsigned char>"
.LASF1089:
	.string	"char32_t"
.LASF1184:
	.string	"atoll"
.LASF677:
	.string	"_ZNSt6vectorIfSaIfEEixEm"
.LASF235:
	.string	"_ZNSt6vectorIhSaIhEE5eraseEN9__gnu_cxx17__normal_iteratorIPKhS1_EE"
.LASF1210:
	.string	"fseek"
.LASF748:
	.string	"_ZNSt19_UninitDestroyGuardIPfvEC4ERKS1_"
.LASF106:
	.string	"_ZNSt12_Vector_baseIhSaIhEE17_Vector_impl_dataC4Ev"
.LASF248:
	.string	"_M_fill_append"
.LASF326:
	.string	"_ZNSt12_Vector_baseI16SubApertureImageSaIS0_EEC4Em"
.LASF1243:
	.string	"uint_fast64_t"
.LASF324:
	.string	"_ZNSt12_Vector_baseI16SubApertureImageSaIS0_EEC4Ev"
.LASF742:
	.string	"_Iter"
.LASF617:
	.string	"_ZNSt12_Vector_baseIfSaIfEE12_Vector_implC4EOS0_OS2_"
.LASF1165:
	.string	"bsearch"
.LASF226:
	.string	"_ZNSt6vectorIhSaIhEE9push_backEOh"
.LASF1326:
	.string	"_ZNSt12_Vector_baseIfSaIfEE12_Vector_implC2ERKS0_"
.LASF562:
	.string	"_ZNSt6vectorIiSaIiEE14_M_fill_insertEN9__gnu_cxx17__normal_iteratorIPiS1_EEmRKi"
.LASF1122:
	.string	"__int32_t"
.LASF181:
	.string	"const_reverse_iterator"
.LASF1209:
	.string	"freopen"
.LASF1116:
	.string	"getwchar"
.LASF822:
	.string	"_Destroy<unsigned char*, unsigned char>"
.LASF1022:
	.string	"_ZN9__gnu_cxx17__normal_iteratorIP16SubApertureImageSt6vectorIS1_SaIS1_EEEmmEi"
.LASF1381:
	.string	"vals"
.LASF1114:
	.string	"int_n_sign_posn"
.LASF94:
	.string	"_ZNSt16allocator_traitsISaIhEE8allocateERS0_mPKv"
.LASF359:
	.string	"_ZNSt6vectorI16SubApertureImageSaIS0_EE6assignEmRKS0_"
.LASF33:
	.string	"_ZNSt15__exception_ptr13exception_ptrC4ERKS0_"
.LASF26:
	.string	"_ZNSt15__exception_ptr13exception_ptr9_M_addrefEv"
.LASF917:
	.string	"tm_mday"
.LASF720:
	.string	"_ZNSt16initializer_listIfEC4Ev"
.LASF1057:
	.string	"__normal_iterator<int*, std::vector<int, std::allocator<int> > >"
.LASF431:
	.string	"_Base"
.LASF95:
	.string	"const_void_pointer"
.LASF74:
	.string	"const_reference"
.LASF406:
	.string	"_ZNSt6vectorI16SubApertureImageSaIS0_EE14_M_fill_insertEN9__gnu_cxx17__normal_iteratorIPS0_S2_EEmRKS0_"
.LASF1021:
	.string	"_ZN9__gnu_cxx17__normal_iteratorIP16SubApertureImageSt6vectorIS1_SaIS1_EEEmmEv"
.LASF82:
	.string	"_M_max_size"
.LASF812:
	.string	"min<long unsigned int>"
.LASF1299:
	.string	"operator delete"
.LASF768:
	.string	"__fill_a<unsigned char*, unsigned char>"
.LASF681:
	.string	"_ZNKSt6vectorIfSaIfEE2atEm"
.LASF1260:
	.string	"timespec_get"
.LASF1040:
	.string	"_ZNK9__gnu_cxx17__normal_iteratorIPK16SubApertureImageSt6vectorIS1_SaIS1_EEEplEl"
.LASF23:
	.string	"_ZNSt15__exception_ptr13exception_ptrC4EPv"
.LASF1045:
	.string	"rebind<(anonymous namespace)::SubParams>"
.LASF1320:
	.string	"_ZNSt12_Vector_baseIiSaIiEE17_Vector_impl_dataC2Ev"
.LASF565:
	.string	"_ZNSt6vectorIiSaIiEE16_M_shrink_to_fitEv"
.LASF1211:
	.string	"fsetpos"
.LASF601:
	.string	"_ZNSaIfED4Ev"
.LASF1428:
	.string	"_mm256_fmadd_ps"
.LASF829:
	.string	"_ZSt5floorf"
.LASF388:
	.string	"_ZNSt6vectorI16SubApertureImageSaIS0_EE4backEv"
.LASF42:
	.string	"_ZNSt15__exception_ptr13exception_ptr4swapERS0_"
.LASF858:
	.string	"_markers"
.LASF1155:
	.string	"int64_t"
.LASF484:
	.string	"_ZNSt12_Vector_baseIiSaIiEEC4Em"
.LASF958:
	.string	"_S_atomic"
.LASF782:
	.string	"_ZSt3maxImERKT_S2_S2_"
.LASF482:
	.string	"_ZNSt12_Vector_baseIiSaIiEEC4Ev"
.LASF1463:
	.string	"__default_lock_policy"
.LASF327:
	.string	"_ZNSt12_Vector_baseI16SubApertureImageSaIS0_EEC4EmRKS1_"
.LASF743:
	.string	"_ForwardIterator"
.LASF1364:
	.string	"_ZNSt6vectorIiSaIiEED2Ev"
.LASF304:
	.string	"_ZNSt16allocator_traitsISaI16SubApertureImageEE8allocateERS1_m"
.LASF1281:
	.string	"__pstl"
.LASF808:
	.string	"fill<__gnu_cxx::__normal_iterator<unsigned char*, std::vector<unsigned char> >, unsigned char>"
.LASF621:
	.string	"_ZNKSt12_Vector_baseIfSaIfEE13get_allocatorEv"
.LASF175:
	.string	"_ZNKSt6vectorIhSaIhEE5beginEv"
.LASF868:
	.string	"_codecvt"
.LASF1232:
	.string	"uint_least8_t"
.LASF292:
	.string	"_ZNKSt15__new_allocatorI16SubApertureImageE7addressERS0_"
.LASF1167:
	.string	"ldiv"
.LASF1239:
	.string	"int_fast64_t"
.LASF145:
	.string	"vector<unsigned char, std::allocator<unsigned char> >"
.LASF154:
	.string	"_ZNSt6vectorIhSaIhEEC4EmRKS0_"
.LASF604:
	.string	"_ZNSt16allocator_traitsISaIfEE8allocateERS0_mPKv"
.LASF735:
	.string	"release"
.LASF1439:
	.string	"_Z18_mm256_cvtepi32_psDv4_x"
.LASF234:
	.string	"erase"
.LASF932:
	.string	"double"
.LASF102:
	.string	"_M_exception_object"
.LASF249:
	.string	"_ZNSt6vectorIhSaIhEE14_M_fill_appendEmRKh"
.LASF20:
	.string	"__swappable_with_details"
.LASF658:
	.string	"_ZNKSt6vectorIfSaIfEE5beginEv"
.LASF1452:
	.string	"__builtin_memcpy"
.LASF834:
	.string	"overflow_arg_area"
.LASF844:
	.string	"__FILE"
.LASF1461:
	.string	"typedef __va_list_tag __va_list_tag"
.LASF976:
	.string	"__normal_iterator<unsigned char*, std::vector<unsigned char, std::allocator<unsigned char> > >"
.LASF350:
	.string	"_ZNSt6vectorI16SubApertureImageSaIS0_EEC4ERKS2_RKS1_"
.LASF1133:
	.string	"__uint_least64_t"
.LASF1415:
	.string	"ltop_f"
.LASF1053:
	.string	"_ZN9__gnu_cxx14__alloc_traitsISaIiEiE20_S_propagate_on_swapEv"
.LASF433:
	.string	"_M_storage"
.LASF566:
	.string	"_ZNSt6vectorIiSaIiEE14_M_insert_rvalEN9__gnu_cxx17__normal_iteratorIPKiS1_EEOi"
.LASF1257:
	.string	"ctime"
.LASF973:
	.string	"_ZN9__gnu_cxx14__alloc_traitsISaIhEhE15_S_nothrow_moveEv"
.LASF740:
	.string	"_S_destroy<int*>"
.LASF205:
	.string	"_ZNKSt6vectorIhSaIhEE5emptyEv"
.LASF443:
	.string	"_Iterator"
.LASF649:
	.string	"_ZNSt6vectorIfSaIfEEC4EOS1_RKS0_"
.LASF1383:
	.string	"__for_begin"
.LASF514:
	.string	"_ZNSt6vectorIiSaIiEEaSESt16initializer_listIiE"
.LASF584:
	.string	"reverse_iterator<__gnu_cxx::__normal_iterator<int const*, std::vector<int, std::allocator<int> > > >"
.LASF240:
	.string	"_M_fill_initialize"
.LASF1035:
	.string	"_ZN9__gnu_cxx17__normal_iteratorIPK16SubApertureImageSt6vectorIS1_SaIS1_EEEppEi"
.LASF696:
	.string	"_ZNSt6vectorIfSaIfEE5eraseEN9__gnu_cxx17__normal_iteratorIPKfS1_EES6_"
.LASF1123:
	.string	"__uint32_t"
.LASF1171:
	.string	"qsort"
.LASF1047:
	.string	"__normal_iterator<const (anonymous namespace)::SubParams*, std::vector<(anonymous namespace)::SubParams, std::allocator<(anonymous namespace)::SubParams> > >"
.LASF988:
	.string	"_ZN9__gnu_cxx17__normal_iteratorIPhSt6vectorIhSaIhEEEppEi"
.LASF137:
	.string	"_M_deallocate"
.LASF325:
	.string	"_ZNSt12_Vector_baseI16SubApertureImageSaIS0_EEC4ERKS1_"
.LASF193:
	.string	"_ZNKSt6vectorIhSaIhEE5crendEv"
.LASF221:
	.string	"data"
.LASF542:
	.string	"_ZNSt6vectorIiSaIiEE5frontEv"
.LASF942:
	.string	"wmemcmp"
.LASF774:
	.string	"_ZSt9__fill_a1IPhSt6vectorIhSaIhEEhEvN9__gnu_cxx17__normal_iteratorIT_T0_EES8_RKT1_"
.LASF797:
	.string	"__uninitialized_fill_n_a<int*, long unsigned int, int, int>"
.LASF310:
	.string	"_Vector_base<SubApertureImage, std::allocator<SubApertureImage> >"
.LASF987:
	.string	"_ZN9__gnu_cxx17__normal_iteratorIPhSt6vectorIhSaIhEEEppEv"
.LASF791:
	.string	"_ZSt8_DestroyIPfEvT_S1_"
.LASF213:
	.string	"_ZNSt6vectorIhSaIhEE2atEm"
.LASF841:
	.string	"__value"
.LASF675:
	.string	"_ZNKSt6vectorIfSaIfEE5emptyEv"
.LASF32:
	.string	"_ZNSt15__exception_ptr13exception_ptrC4Ev"
.LASF1420:
	.string	"inv_c"
.LASF556:
	.string	"_ZNSt6vectorIiSaIiEE5eraseEN9__gnu_cxx17__normal_iteratorIPKiS1_EES6_"
.LASF1446:
	.string	"_mm_set_epi64x"
.LASF1376:
	.string	"focus"
.LASF818:
	.string	"__relocate_a<(anonymous namespace)::SubParams*, (anonymous namespace)::SubParams*, std::allocator<(anonymous namespace)::SubParams> >"
.LASF1459:
	.string	"literals"
.LASF113:
	.string	"_ZNSt12_Vector_baseIhSaIhEE12_Vector_implC4ERKS0_"
.LASF298:
	.string	"allocator<SubApertureImage>"
.LASF1434:
	.string	"_mm256_storeu_ps"
.LASF1460:
	.string	"__is_nothrow_new_constructible"
.LASF1352:
	.string	"__new_start"
.LASF492:
	.string	"_ZNSt12_Vector_baseIiSaIiEE13_M_deallocateEPim"
.LASF241:
	.string	"_ZNSt6vectorIhSaIhEE18_M_fill_initializeEmRKh"
.LASF165:
	.string	"_ZNSt6vectorIhSaIhEEaSERKS1_"
.LASF1458:
	.string	"input_iterator_tag"
.LASF963:
	.string	"_ZN9__gnu_cxx14__alloc_traitsISaIhEhE10_S_on_swapERS1_S3_"
.LASF416:
	.string	"_ZNSt6vectorI16SubApertureImageSaIS0_EE8_M_eraseEN9__gnu_cxx17__normal_iteratorIPS0_S2_EE"
.LASF1268:
	.string	"width"
.LASF1001:
	.string	"base"
.LASF35:
	.string	"_ZNSt15__exception_ptr13exception_ptrC4EOS0_"
.LASF322:
	.string	"_ZNKSt12_Vector_baseI16SubApertureImageSaIS0_EE19_M_get_Tp_allocatorEv"
.LASF184:
	.string	"_ZNSt6vectorIhSaIhEE4rendEv"
.LASF1019:
	.string	"_ZN9__gnu_cxx17__normal_iteratorIP16SubApertureImageSt6vectorIS1_SaIS1_EEEppEv"
.LASF385:
	.string	"_ZNKSt6vectorI16SubApertureImageSaIS0_EE2atEm"
.LASF1220:
	.string	"setvbuf"
.LASF142:
	.string	"__type_identity<std::allocator<unsigned char> >"
.LASF652:
	.string	"_ZNSt6vectorIfSaIfEEaSERKS1_"
.LASF1179:
	.string	"__isoc23_strtoul"
.LASF811:
	.string	"_ZSt8_DestroyIPhEvT_S1_"
.LASF640:
	.string	"_ZNSt6vectorIfSaIfEEC4Ev"
.LASF596:
	.string	"_ZNKSt15__new_allocatorIfE11_M_max_sizeEv"
.LASF1143:
	.string	"5div_t"
.LASF1146:
	.string	"6ldiv_t"
.LASF1145:
	.string	"div_t"
.LASF650:
	.string	"_ZNSt6vectorIfSaIfEEC4ESt16initializer_listIfERKS0_"
.LASF353:
	.string	"_ZNSt6vectorI16SubApertureImageSaIS0_EEC4EOS2_RKS1_"
.LASF1161:
	.string	"at_quick_exit"
.LASF765:
	.string	"_Size"
.LASF1233:
	.string	"uint_least16_t"
.LASF289:
	.string	"_ZNSt15__new_allocatorI16SubApertureImageEC4ERKS1_"
.LASF204:
	.string	"empty"
.LASF871:
	.string	"_freeres_buf"
.LASF1027:
	.string	"_ZNK9__gnu_cxx17__normal_iteratorIP16SubApertureImageSt6vectorIS1_SaIS1_EEEmiEl"
.LASF672:
	.string	"_ZNSt6vectorIfSaIfEE6resizeEmRKf"
.LASF724:
	.string	"_ZNKSt16initializer_listIfE3endEv"
.LASF1170:
	.string	"mbtowc"
.LASF1020:
	.string	"_ZN9__gnu_cxx17__normal_iteratorIP16SubApertureImageSt6vectorIS1_SaIS1_EEEppEi"
.LASF166:
	.string	"_ZNSt6vectorIhSaIhEEaSEOS1_"
.LASF50:
	.string	"forward_iterator_tag"
.LASF207:
	.string	"_ZNSt6vectorIhSaIhEE7reserveEm"
.LASF1157:
	.string	"tv_sec"
.LASF104:
	.string	"_M_finish"
.LASF968:
	.string	"_S_propagate_on_swap"
.LASF242:
	.string	"_M_default_initialize"
.LASF1079:
	.string	"long long unsigned int"
.LASF792:
	.string	"__uninitialized_fill_n_a<float*, long unsigned int, float, float>"
.LASF796:
	.string	"_ZSt8_DestroyIPiEvT_S1_"
.LASF889:
	.string	"mbrtowc"
.LASF863:
	.string	"_cur_column"
.LASF775:
	.string	"_Ite"
.LASF30:
	.string	"_M_exception_ptr_cast"
.LASF943:
	.string	"wmemcpy"
.LASF1159:
	.string	"__compar_fn_t"
.LASF135:
	.string	"_M_allocate"
.LASF397:
	.string	"_ZNSt6vectorI16SubApertureImageSaIS0_EE6insertEN9__gnu_cxx17__normal_iteratorIPKS0_S2_EESt16initializer_listIS0_E"
.LASF291:
	.string	"_ZNSt15__new_allocatorI16SubApertureImageED4Ev"
.LASF1347:
	.string	"_ZNSt15__new_allocatorIiED2Ev"
.LASF225:
	.string	"_ZNSt6vectorIhSaIhEE9push_backERKh"
.LASF741:
	.string	"_ZNSt19_UninitDestroyGuardIPivE10_S_destroyIS0_EEvT_S3_"
.LASF592:
	.string	"_ZNKSt15__new_allocatorIfE7addressERKf"
.LASF1389:
	.string	"ind_rtop"
.LASF1150:
	.string	"clock_t"
.LASF132:
	.string	"~_Vector_base"
.LASF381:
	.string	"_ZNSt6vectorI16SubApertureImageSaIS0_EEixEm"
.LASF1336:
	.string	"__dif"
.LASF639:
	.string	"_ZNSt6vectorIfSaIfEE11_S_relocateEPfS2_S2_RS0_"
.LASF730:
	.string	"_UninitDestroyGuard<int*, void>"
.LASF1369:
	.string	"_ZNSt6vectorIhSaIhEED2Ev"
.LASF1440:
	.string	"_mm_loadl_epi64"
.LASF469:
	.string	"_ZNSt12_Vector_baseIiSaIiEE17_Vector_impl_data12_M_copy_dataERKS2_"
.LASF471:
	.string	"_ZNSt12_Vector_baseIiSaIiEE12_Vector_implC4Ev"
.LASF336:
	.string	"__type_identity<std::allocator<SubApertureImage> >"
.LASF1424:
	.string	"_ZN9ImageDataC2Ev"
.LASF926:
	.string	"wcsncat"
.LASF116:
	.string	"_ZNSt12_Vector_baseIhSaIhEE12_Vector_implC4EOS0_OS2_"
.LASF1207:
	.string	"fopen"
.LASF552:
	.string	"_ZNSt6vectorIiSaIiEE6insertEN9__gnu_cxx17__normal_iteratorIPKiS1_EEOi"
.LASF923:
	.string	"tm_gmtoff"
.LASF62:
	.string	"_ZNSt15__new_allocatorIhEC4ERKS0_"
.LASF370:
	.string	"_ZNKSt6vectorI16SubApertureImageSaIS0_EE4cendEv"
.LASF274:
	.string	"__type_identity_t"
.LASF57:
	.string	"filesystem"
.LASF605:
	.string	"_ZNSt16allocator_traitsISaIfEE10deallocateERS0_Pfm"
.LASF856:
	.string	"_IO_backup_base"
.LASF957:
	.string	"_S_mutex"
.LASF329:
	.string	"_ZNSt12_Vector_baseI16SubApertureImageSaIS0_EEC4EOS1_"
.LASF1404:
	.string	"rbot_f_0"
.LASF1408:
	.string	"rbot_f_1"
.LASF1112:
	.string	"int_n_sep_by_space"
.LASF847:
	.string	"_IO_read_ptr"
.LASF629:
	.string	"_ZNSt12_Vector_baseIfSaIfEEC4ERKS0_OS1_"
.LASF608:
	.string	"_Vector_base<float, std::allocator<float> >"
.LASF275:
	.string	"type_info"
.LASF1206:
	.string	"fgets"
.LASF49:
	.string	"true_type"
.LASF722:
	.string	"_ZNKSt16initializer_listIfE5beginEv"
.LASF1236:
	.string	"int_fast8_t"
.LASF1166:
	.string	"getenv"
.LASF870:
	.string	"_freeres_list"
.LASF990:
	.string	"_ZN9__gnu_cxx17__normal_iteratorIPhSt6vectorIhSaIhEEEmmEv"
.LASF1436:
	.string	"_mm256_loadu_ps"
.LASF1282:
	.string	"__m64"
.LASF1251:
	.string	"__float128"
.LASF787:
	.string	"_ZSt20uninitialized_fill_nIPhmhET_S1_T0_RKT1_"
.LASF162:
	.string	"_ZNSt6vectorIhSaIhEEC4ESt16initializer_listIhERKS0_"
.LASF380:
	.string	"_ZNSt6vectorI16SubApertureImageSaIS0_EE7reserveEm"
.LASF670:
	.string	"_ZNKSt6vectorIfSaIfEE8max_sizeEv"
.LASF879:
	.string	"fgetws"
.LASF1435:
	.string	"_Z16_mm256_storeu_psPfDv8_f"
.LASF328:
	.string	"_ZNSt12_Vector_baseI16SubApertureImageSaIS0_EEC4EOS2_"
.LASF1173:
	.string	"rand"
.LASF60:
	.string	"__new_allocator"
.LASF1403:
	.string	"rtop_f_0"
.LASF1407:
	.string	"rtop_f_1"
.LASF1374:
	.string	"_Z21refocus_shift_and_sumRSt6vectorI16SubApertureImageSaIS0_EEf"
.LASF439:
	.string	"reverse_iterator<__gnu_cxx::__normal_iterator<(anonymous namespace)::SubParams*, std::vector<(anonymous namespace)::SubParams, std::allocator<(anonymous namespace)::SubParams> > > >"
.LASF760:
	.string	"_ZSt10_ConstructIiJRKiEEvPT_DpOT0_"
.LASF125:
	.string	"_ZNSt12_Vector_baseIhSaIhEEC4ERKS0_"
.LASF396:
	.string	"_ZNSt6vectorI16SubApertureImageSaIS0_EE6insertEN9__gnu_cxx17__normal_iteratorIPKS0_S2_EEOS0_"
.LASF861:
	.string	"_short_backupbuf"
.LASF979:
	.string	"__normal_iterator"
.LASF766:
	.string	"__do_uninit_fill_n<int*, long unsigned int, int>"
.LASF1052:
	.string	"_ZN9__gnu_cxx14__alloc_traitsISaIiEiE27_S_propagate_on_move_assignEv"
.LASF597:
	.string	"allocator<float>"
.LASF981:
	.string	"_ZN9__gnu_cxx17__normal_iteratorIPhSt6vectorIhSaIhEEEC4ERKS1_"
.LASF910:
	.string	"wcscoll"
.LASF1448:
	.string	"_ZdlPvS_"
.LASF150:
	.string	"_ZNSt6vectorIhSaIhEE11_S_relocateEPhS2_S2_RS0_"
.LASF1262:
	.string	"wctrans_t"
.LASF97:
	.string	"select_on_container_copy_construction"
.LASF551:
	.string	"_ZNSt6vectorIiSaIiEE6insertEN9__gnu_cxx17__normal_iteratorIPKiS1_EERS4_"
.LASF269:
	.string	"_M_move_assign"
.LASF1031:
	.string	"_ZN9__gnu_cxx17__normal_iteratorIPK16SubApertureImageSt6vectorIS1_SaIS1_EEEC4ERKS3_"
.LASF786:
	.string	"uninitialized_fill_n<unsigned char*, long unsigned int, unsigned char>"
.LASF623:
	.string	"_ZNSt12_Vector_baseIfSaIfEEC4ERKS0_"
.LASF718:
	.string	"initializer_list<float>"
.LASF641:
	.string	"_ZNSt6vectorIfSaIfEEC4ERKS0_"
.LASF265:
	.string	"_ZNSt6vectorIhSaIhEE15_M_erase_at_endEPh"
.LASF1051:
	.string	"_ZN9__gnu_cxx14__alloc_traitsISaIiEiE27_S_propagate_on_copy_assignEv"
.LASF1107:
	.string	"p_sign_posn"
.LASF472:
	.string	"_ZNSt12_Vector_baseIiSaIiEE12_Vector_implC4ERKS0_"
.LASF398:
	.string	"_ZNSt6vectorI16SubApertureImageSaIS0_EE6insertEN9__gnu_cxx17__normal_iteratorIPKS0_S2_EEmRS5_"
.LASF951:
	.string	"wcsrchr"
.LASF656:
	.string	"_ZNSt6vectorIfSaIfEE6assignESt16initializer_listIfE"
.LASF1235:
	.string	"uint_least64_t"
.LASF668:
	.string	"_ZNKSt6vectorIfSaIfEE5crendEv"
.LASF333:
	.string	"_ZNSt12_Vector_baseI16SubApertureImageSaIS0_EE11_M_allocateEm"
.LASF1000:
	.string	"_ZNK9__gnu_cxx17__normal_iteratorIPhSt6vectorIhSaIhEEEmiEl"
.LASF509:
	.string	"_ZNSt6vectorIiSaIiEEC4EOS1_RKS0_"
.LASF704:
	.string	"_ZNSt6vectorIfSaIfEE17_M_default_appendEm"
.LASF347:
	.string	"_ZNSt6vectorI16SubApertureImageSaIS0_EEC4EmRKS0_RKS1_"
.LASF1066:
	.string	"_ZN9__gnu_cxx14__alloc_traitsISaIfEfE15_S_nothrow_moveEv"
.LASF1335:
	.string	"_ZNSt6vectorIhSaIhEEC2EmRKhRKS0_"
.LASF1394:
	.string	"lbot_b_0"
.LASF1398:
	.string	"lbot_b_1"
.LASF340:
	.string	"_S_use_relocate"
.LASF148:
	.string	"_ZNSt6vectorIhSaIhEE19_S_nothrow_relocateESt17integral_constantIbLb0EE"
.LASF111:
	.string	"_Vector_impl"
.LASF1426:
	.string	"_ZNSt12_Vector_baseIhSaIhEEC2Ev"
.LASF1254:
	.string	"mktime"
.LASF1354:
	.string	"_ZN9__gnu_cxx17__normal_iteratorIP16SubApertureImageSt6vectorIS1_SaIS1_EEEC2ERKS2_"
.LASF1214:
	.string	"getchar"
.LASF1158:
	.string	"tv_nsec"
.LASF733:
	.string	"~_UninitDestroyGuard"
.LASF526:
	.string	"_ZNKSt6vectorIiSaIiEE4cendEv"
.LASF644:
	.string	"_ZNSt6vectorIfSaIfEEC4ERKS1_"
.LASF830:
	.string	"__size_to_integer"
.LASF533:
	.string	"_ZNSt6vectorIiSaIiEE13shrink_to_fitEv"
.LASF319:
	.string	"_ZNSt12_Vector_baseI16SubApertureImageSaIS0_EE12_Vector_implC4EOS1_"
.LASF1046:
	.string	"__normal_iterator<(anonymous namespace)::SubParams*, std::vector<(anonymous namespace)::SubParams, std::allocator<(anonymous namespace)::SubParams> > >"
.LASF103:
	.string	"_M_start"
.LASF557:
	.string	"_ZNSt6vectorIiSaIiEE4swapERS1_"
.LASF1305:
	.string	"__last"
.LASF331:
	.string	"_ZNSt12_Vector_baseI16SubApertureImageSaIS0_EEC4ERKS1_OS2_"
.LASF972:
	.string	"_S_nothrow_move"
.LASF897:
	.string	"ungetwc"
.LASF276:
	.string	"initializer_list<unsigned char>"
.LASF1061:
	.string	"_ZN9__gnu_cxx14__alloc_traitsISaIfEfE10_S_on_swapERS1_S3_"
.LASF1393:
	.string	"ltop_b_0"
.LASF1397:
	.string	"ltop_b_1"
.LASF1287:
	.string	"__v8sf"
.LASF1048:
	.string	"__alloc_traits<std::allocator<int>, int>"
.LASF1288:
	.string	"__v8si"
.LASF966:
	.string	"_S_propagate_on_move_assign"
.LASF237:
	.string	"_ZNSt6vectorIhSaIhEE4swapERS1_"
.LASF508:
	.string	"_ZNSt6vectorIiSaIiEEC4EOS1_RKS0_St17integral_constantIbLb0EE"
.LASF1029:
	.string	"__normal_iterator<const SubApertureImage*, std::vector<SubApertureImage, std::allocator<SubApertureImage> > >"
.LASF769:
	.string	"_ZSt8__fill_aIPhhEvT_S1_RKT0_"
.LASF1004:
	.string	"__normal_iterator<unsigned char const*, std::vector<unsigned char, std::allocator<unsigned char> > >"
.LASF634:
	.string	"__type_identity<std::allocator<float> >"
.LASF955:
	.string	"_ZN9__gnu_cxx3divExx"
.LASF899:
	.string	"vfwscanf"
.LASF1105:
	.string	"n_cs_precedes"
.LASF539:
	.string	"_ZNKSt6vectorIiSaIiEE14_M_range_checkEm"
.LASF76:
	.string	"_ZNSt15__new_allocatorIhE8allocateEmPKv"
.LASF118:
	.string	"_M_get_Tp_allocator"
.LASF1193:
	.string	"__state"
.LASF360:
	.string	"_ZNSt6vectorI16SubApertureImageSaIS0_EE6assignESt16initializer_listIS0_E"
.LASF438:
	.string	"initializer_list<(anonymous namespace)::SubParams>"
.LASF462:
	.string	"_ZNSt16allocator_traitsISaIiEE8allocateERS0_mPKv"
.LASF1117:
	.string	"localeconv"
.LASF71:
	.string	"reference"
.LASF21:
	.string	"__exception_ptr"
.LASF344:
	.string	"_ZNSt6vectorI16SubApertureImageSaIS0_EEC4Ev"
.LASF1088:
	.string	"char16_t"
.LASF1332:
	.string	"__result"
.LASF303:
	.string	"allocator_traits<std::allocator<SubApertureImage> >"
.LASF1462:
	.string	"_Lock_policy"
.LASF127:
	.string	"_ZNSt12_Vector_baseIhSaIhEEC4EmRKS0_"
.LASF1187:
	.string	"strtoull"
.LASF1366:
	.string	"_ZNSaIiED2Ev"
.LASF409:
	.string	"_ZNSt6vectorI16SubApertureImageSaIS0_EE16_M_shrink_to_fitEv"
.LASF532:
	.string	"_ZNSt6vectorIiSaIiEE6resizeEmRKi"
.LASF318:
	.string	"_ZNSt12_Vector_baseI16SubApertureImageSaIS0_EE12_Vector_implC4EOS3_"
.LASF1118:
	.string	"__int8_t"
.LASF373:
	.string	"_ZNKSt6vectorI16SubApertureImageSaIS0_EE4sizeEv"
.LASF375:
	.string	"_ZNSt6vectorI16SubApertureImageSaIS0_EE6resizeEm"
.LASF1387:
	.string	"ind_ltop"
.LASF1290:
	.string	"__m256i"
.LASF200:
	.string	"shrink_to_fit"
.LASF368:
	.string	"_ZNKSt6vectorI16SubApertureImageSaIS0_EE4rendEv"
.LASF261:
	.string	"_ZNSt6vectorIhSaIhEE17_S_check_init_lenEmRKS0_"
.LASF277:
	.string	"reverse_iterator<__gnu_cxx::__normal_iterator<unsigned char*, std::vector<unsigned char, std::allocator<unsigned char> > > >"
.LASF1291:
	.string	"__m256_u"
.LASF1041:
	.string	"_ZN9__gnu_cxx17__normal_iteratorIPK16SubApertureImageSt6vectorIS1_SaIS1_EEEmIEl"
.LASF860:
	.string	"_fileno"
.LASF763:
	.string	"__do_uninit_fill_n<float*, long unsigned int, float>"
.LASF563:
	.string	"_ZNSt6vectorIiSaIiEE14_M_fill_appendEmRKi"
.LASF809:
	.string	"_ZSt4fillIN9__gnu_cxx17__normal_iteratorIPhSt6vectorIhSaIhEEEEhEvT_S7_RKT0_"
.LASF1371:
	.string	"_ZNSaIhED2Ev"
.LASF836:
	.string	"unsigned int"
.LASF739:
	.string	"_ZNSt19_UninitDestroyGuardIPivEC4ERKS1_"
.LASF1006:
	.string	"_ZN9__gnu_cxx14__alloc_traitsISaI16SubApertureImageES1_E17_S_select_on_copyERKS2_"
.LASF1343:
	.string	"_ZNSt15__new_allocatorIfEC2Ev"
.LASF1351:
	.string	"__elems"
.LASF332:
	.string	"_ZNSt12_Vector_baseI16SubApertureImageSaIS0_EED4Ev"
.LASF69:
	.string	"_ZNKSt15__new_allocatorIhE7addressERh"
.LASF22:
	.string	"exception_ptr"
.LASF1065:
	.string	"_ZN9__gnu_cxx14__alloc_traitsISaIfEfE15_S_always_equalEv"
.LASF1240:
	.string	"uint_fast8_t"
.LASF101:
	.string	"_Vector_impl_data"
.LASF167:
	.string	"_ZNSt6vectorIhSaIhEEaSESt16initializer_listIhE"
.LASF448:
	.string	"_ZNSt15__new_allocatorIiED4Ev"
.LASF441:
	.string	"iterator_traits<SubApertureImage*>"
.LASF1382:
	.string	"__for_range"
.LASF998:
	.string	"_ZN9__gnu_cxx17__normal_iteratorIPhSt6vectorIhSaIhEEEmIEl"
.LASF582:
	.string	"_ZNKSt16initializer_listIiE5beginEv"
.LASF646:
	.string	"_ZNSt6vectorIfSaIfEEC4ERKS1_RKS0_"
.LASF219:
	.string	"_ZNSt6vectorIhSaIhEE4backEv"
.LASF1263:
	.string	"iswctype"
.LASF567:
	.string	"_ZNSt6vectorIiSaIiEE14_M_emplace_auxEN9__gnu_cxx17__normal_iteratorIPKiS1_EEOi"
.LASF1086:
	.string	"short int"
.LASF1289:
	.string	"__m256"
.LASF1109:
	.string	"int_p_cs_precedes"
.LASF755:
	.string	"__throw_length_error"
.LASF938:
	.string	"wcstoul"
.LASF1271:
	.string	"_ZNK9ImageData5indexEmmm"
.LASF190:
	.string	"crbegin"
.LASF255:
	.string	"_ZNSt6vectorIhSaIhEE14_M_insert_rvalEN9__gnu_cxx17__normal_iteratorIPKhS1_EEOh"
.LASF825:
	.string	"_ZSt3minIiERKT_S2_S2_"
.LASF864:
	.string	"_vtable_offset"
.LASF312:
	.string	"_ZNSt12_Vector_baseI16SubApertureImageSaIS0_EE17_Vector_impl_dataC4EOS3_"
.LASF906:
	.string	"__isoc23_vwscanf"
.LASF489:
	.string	"_ZNSt12_Vector_baseIiSaIiEEC4ERKS0_OS1_"
.LASF1306:
	.string	"_ZNSt19_UninitDestroyGuardIPfvED2Ev"
.LASF401:
	.string	"_ZNSt6vectorI16SubApertureImageSaIS0_EE4swapERS2_"
.LASF335:
	.string	"_ZNSt12_Vector_baseI16SubApertureImageSaIS0_EE17_M_create_storageEm"
.LASF778:
	.string	"_ZSt20uninitialized_fill_nIPfmfET_S1_T0_RKT1_"
.LASF211:
	.string	"_M_range_check"
.LASF632:
	.string	"_ZNSt12_Vector_baseIfSaIfEE13_M_deallocateEPfm"
.LASF260:
	.string	"_S_check_init_len"
.LASF1467:
	.string	"_IO_lock_t"
.LASF212:
	.string	"_ZNKSt6vectorIhSaIhEE14_M_range_checkEm"
.LASF1318:
	.string	"_ZNSt12_Vector_baseIfSaIfEE17_Vector_impl_dataC2Ev"
.LASF571:
	.string	"_ZNSt6vectorIiSaIiEE15_M_erase_at_endEPi"
.LASF593:
	.string	"_ZNSt15__new_allocatorIfE8allocateEmPKv"
.LASF14:
	.string	"operator std::integral_constant<bool, false>::value_type"
.LASF661:
	.string	"_ZNSt6vectorIfSaIfEE6rbeginEv"
.LASF51:
	.string	"bidirectional_iterator_tag"
.LASF702:
	.string	"_ZNSt6vectorIfSaIfEE14_M_fill_insertEN9__gnu_cxx17__normal_iteratorIPfS1_EEmRKf"
.LASF1321:
	.string	"_ZNSt15__new_allocatorIiEC2ERKS0_"
.LASF434:
	.string	"_M_len"
	.section	.debug_line_str,"MS",@progbits,1
.LASF1:
	.string	"/home/team15/tomasz-worktree-dir/cpp_refocus"
.LASF0:
	.string	"src/avx_analysis_code_ablations/opt9_abl_hand_vec_no_tile_ilp.cpp"
	.hidden	"DW.ref.__gxx_personality_v0"
	.weak	"DW.ref.__gxx_personality_v0"
	.section	.data.rel.local.DW.ref.__gxx_personality_v0,"awG",@progbits,DW.ref.__gxx_personality_v0,comdat
	.align 8
	.type	"DW.ref.__gxx_personality_v0", @object
	.size	"DW.ref.__gxx_personality_v0", 8
"DW.ref.__gxx_personality_v0":
	.quad	"__gxx_personality_v0"
	.globl	"__gxx_personality_v0"
	.ident	"GCC: (Debian 16-20260425-1) 16.0.1 20260425 (prerelease) [gcc-16 r16-8812-gd9c07462a22]"
	.section	.note.GNU-stack,"",@progbits
