	.file	"opt9_abl_hand_vec_no_tile.cpp"
	.intel_syntax noprefix
# GNU C++17 (Debian 16-20260425-1) version 16.0.1 20260425 (prerelease) [gcc-16 r16-8812-gd9c07462a22] (x86_64-linux-gnu)
#	compiled by GNU C version 16.0.1 20260425 (prerelease) [gcc-16 r16-8812-gd9c07462a22], GMP version 6.3.0, MPFR version 4.2.2, MPC version 1.3.1, isl version isl-0.27-GMP

# GGC heuristics: --param ggc-min-expand=30 --param ggc-min-heapsize=4096
# options passed: -march=tigerlake -mmmx -mpopcnt -msse -msse2 -msse3 -mssse3 -msse4.1 -msse4.2 -mavx -mno-sse4a -mno-fma4 -mno-xop -mavx512f -mbmi -mbmi2 -maes -mpclmul -mavx512vl -mavx512bw -mavx512dq -mavx512cd -mavx512vbmi -mavx512ifma -mavx512vpopcntdq -mavx512vbmi2 -mgfni -mvpclmulqdq -mavx512vnni -mavx512bitalg -mno-avx512bf16 -mavx512vp2intersect -mno-3dnow -madx -mabm -mno-cldemote -mclflushopt -mclwb -mno-clzero -mcx16 -mno-enqcmd -mf16c -mfsgsbase -mfxsr -mno-hle -msahf -mno-lwp -mlzcnt -mmovbe -mmovdir64b -mmovdiri -mno-mwaitx -mno-pconfig -mpku -mprfchw -mno-ptwrite -mrdpid -mrdrnd -mrdseed -mno-rtm -mno-serialize -mno-sgx -msha -mshstk -mno-tbm -mno-tsxldtrk -mvaes -mno-waitpkg -mno-wbnoinvd -mxsave -mxsavec -mxsaveopt -mxsaves -mno-amx-tile -mno-amx-int8 -mno-amx-bf16 -mno-uintr -mno-hreset -mno-kl -mno-widekl -mno-avxvnni -mno-avx512fp16 -mno-avxifma -mno-avxvnniint8 -mno-avxneconvert -mno-cmpccxadd -mno-amx-fp16 -mno-prefetchi -mno-raoint -mno-amx-complex -mno-avxvnniint16 -mno-sm3 -mno-sha512 -mno-sm4 -mno-apxf -mno-usermsr -mno-avx10.1 -mno-avx10.2 -mno-amx-avx512 -mno-amx-tf32 -mno-amx-fp8 -mno-movrs -mno-amx-movrs -mno-avx512bmm --param=l1-cache-size=48 --param=l1-cache-line-size=64 --param=l2-cache-size=8192 -mtune=tigerlake -mavx2 -mfma -masm=intel -g -O3 -std=c++17 -ffast-math -fasynchronous-unwind-tables
	.text
.Ltext0:
	.file 0 "/home/team15/tomasz-worktree-dir/cpp_refocus" "src/avx_analysis_code_ablations/opt9_abl_hand_vec_no_tile.cpp"
	.section	.rodata.str1.8,"aMS",@progbits,1
	.align 8
.LC0:
	.string	"cannot create std::vector larger than max_size()"
	.section	.rodata.str1.1,"aMS",@progbits,1
.LC2:
	.string	"vector::_M_realloc_append"
	.section	.text.unlikely,"ax",@progbits
.LCOLDB4:
	.text
.LHOTB4:
	.p2align 4
	.section	.text.unlikely
.Ltext_cold0:
	.text
	.globl	"_Z21refocus_shift_and_sumRSt6vectorI16SubApertureImageSaIS0_EEf"
	.type	"_Z21refocus_shift_and_sumRSt6vectorI16SubApertureImageSaIS0_EEf", @function
"_Z21refocus_shift_and_sumRSt6vectorI16SubApertureImageSaIS0_EEf":
.LVL0:
.LFB11707:
	.file 1 "src/avx_analysis_code_ablations/opt9_abl_hand_vec_no_tile.cpp"
	.loc 1 33 91 view -0
	.cfi_startproc
	.cfi_personality 0x9b,"DW.ref.__gxx_personality_v0"
	.cfi_lsda 0x1b,.LLSDA11707
	.loc 1 33 91 is_stmt 0 view .LVU1
	push	rbp	#
	.cfi_def_cfa_offset 16
	.cfi_offset 6, -16
	vmovaps	xmm4, xmm0	# focus, focus
.LBB2006:
.LBB2007:
.LBB2008:
.LBB2009:
.LBB2010:
.LBB2011:
# /usr/include/c++/16/bits/stl_vector.h:106: 	: _M_start(), _M_finish(), _M_end_of_storage()
	.file 2 "/usr/include/c++/16/bits/stl_vector.h"
	.loc 2 106 4 view .LVU2
	vpxor	xmm1, xmm1, xmm1	# tmp784
.LBE2011:
.LBE2010:
.LBE2009:
.LBE2008:
.LBE2007:
.LBE2006:
# src/avx_analysis_code_ablations/opt9_abl_hand_vec_no_tile.cpp:33: ImageData refocus_shift_and_sum(std::vector<SubApertureImage>& subapertures, float focus) {
	.loc 1 33 91 view .LVU3
	mov	rbp, rsp	#,
	.cfi_def_cfa_register 6
	push	r15	#
	push	r14	#
	push	r13	#
	push	r12	#
	push	rbx	#
	.cfi_offset 15, -24
	.cfi_offset 14, -32
	.cfi_offset 13, -40
	.cfi_offset 12, -48
	.cfi_offset 3, -56
	mov	rbx, rsi	# subapertures, subapertures
	and	rsp, -32	#,
	sub	rsp, 256	#,
.LBB2023:
.LBB2024:
.LBB2025:
.LBB2026:
# /usr/include/c++/16/bits/stl_iterator.h:1059:       : _M_current(__i) { }
	.file 3 "/usr/include/c++/16/bits/stl_iterator.h"
	.loc 3 1059 9 view .LVU4
	mov	rcx, QWORD PTR [rsi]	# SR.270, MEM[(struct SubApertureImage * const &)subapertures_185(D)]
.LBE2026:
.LBE2025:
.LBE2024:
.LBE2023:
# src/avx_analysis_code_ablations/opt9_abl_hand_vec_no_tile.cpp:33: ImageData refocus_shift_and_sum(std::vector<SubApertureImage>& subapertures, float focus) {
	.loc 1 33 91 view .LVU5
	mov	QWORD PTR 72[rsp], rdi	# %sfp, <retval>
	.loc 1 34 5 is_stmt 1 view .LVU6
.LVL1:
.LBB2029:
.LBI2023:
	.loc 2 1334 7 view .LVU7
	.loc 2 1336 2 discriminator 2 view .LVU8
.LBB2028:
.LBI2024:
	.loc 2 988 7 view .LVU9
.LBB2027:
.LBI2025:
	.loc 3 1058 7 view .LVU10
	.loc 3 1058 7 is_stmt 0 view .LVU11
.LBE2027:
.LBE2028:
.LBE2029:
# src/avx_analysis_code_ablations/opt9_abl_hand_vec_no_tile.cpp:34:     const size_t width  = subapertures.front().data.width;
	.loc 1 34 53 discriminator 1 view .LVU12
	vmovdqu	xmm0, XMMWORD PTR [rcx]	# MEM <vector(2) long unsigned int> [(long unsigned int *)_319], MEM <vector(2) long unsigned int> [(long unsigned int *)_319]
.LVL2:
.LBB2030:
.LBB2021:
.LBB2019:
.LBB2017:
.LBB2013:
.LBB2012:
# /usr/include/c++/16/bits/stl_vector.h:106: 	: _M_start(), _M_finish(), _M_end_of_storage()
	.loc 2 106 29 view .LVU13
	mov	QWORD PTR 32[rdi], 0	# MEM[(struct _Vector_impl_data *)output_189(D) + 16B]._M_end_of_storage,
# /usr/include/c++/16/bits/stl_vector.h:106: 	: _M_start(), _M_finish(), _M_end_of_storage()
	.loc 2 106 4 view .LVU14
	vmovdqu	XMMWORD PTR 16[rdi], xmm1	# MEM <vector(2) long unsigned int> [(unsigned char * *)output_189(D) + 16B], tmp784
	vmovq	rax, xmm0	# _629, MEM <vector(2) long unsigned int> [(long unsigned int *)_319]
.LBE2012:
.LBE2013:
.LBE2017:
.LBE2019:
.LBE2021:
.LBE2030:
# src/avx_analysis_code_ablations/opt9_abl_hand_vec_no_tile.cpp:40:     output.width = width;
	.loc 1 40 18 view .LVU15
	vmovdqu	XMMWORD PTR [rdi], xmm0	# MEM <vector(2) long unsigned int> [(long unsigned int *)output_189(D)], MEM <vector(2) long unsigned int> [(long unsigned int *)_319]
# src/avx_analysis_code_ablations/opt9_abl_hand_vec_no_tile.cpp:42:     output.data.assign(width * height * 3, 0);
	.loc 1 42 30 view .LVU16
	vpextrq	rdi, xmm0, 1	# _500, MEM <vector(2) long unsigned int> [(long unsigned int *)_319]
.LVL3:
	.loc 1 42 30 view .LVU17
	vpextrq	QWORD PTR 208[rsp], xmm0, 1	# %sfp, MEM <vector(2) long unsigned int> [(long unsigned int *)_319]
	mov	rsi, rax	# _641, _629
.LVL4:
	.loc 1 42 30 view .LVU18
	vmovq	QWORD PTR 120[rsp], xmm0	# %sfp, _629
.LVL5:
	.loc 1 35 5 is_stmt 1 view .LVU19
.LBB2031:
.LBI2031:
	.loc 2 1334 7 view .LVU20
	.loc 2 1336 2 discriminator 2 view .LVU21
.LBB2032:
.LBI2032:
	.loc 2 988 7 view .LVU22
.LBB2033:
.LBI2033:
	.loc 3 1058 7 view .LVU23
	.loc 3 1058 7 is_stmt 0 view .LVU24
.LBE2033:
.LBE2032:
.LBE2031:
	.loc 1 36 5 is_stmt 1 view .LVU25
	.loc 1 37 5 view .LVU26
	.loc 1 39 5 view .LVU27
.LBB2034:
.LBI2006:
	.file 4 "include/utils.hpp"
	.loc 4 11 8 view .LVU28
.LBB2022:
.LBI2007:
	.loc 2 551 7 view .LVU29
.LBB2020:
.LBI2008:
	.loc 2 321 7 view .LVU30
.LBB2018:
.LBI2009:
	.loc 2 143 2 view .LVU31
.LBB2014:
.LBI2014:
	.file 5 "/usr/include/c++/16/bits/allocator.h"
	.loc 5 168 7 view .LVU32
.LBB2015:
.LBI2015:
	.file 6 "/usr/include/c++/16/bits/new_allocator.h"
	.loc 6 88 7 view .LVU33
	.loc 6 88 7 is_stmt 0 view .LVU34
.LBE2015:
.LBE2014:
.LBB2016:
.LBI2010:
	.loc 2 105 2 is_stmt 1 view .LVU35
	.loc 2 105 2 is_stmt 0 view .LVU36
.LBE2016:
.LBE2018:
.LBE2020:
.LBE2022:
.LBE2034:
	.loc 1 40 5 is_stmt 1 view .LVU37
	.loc 1 41 5 view .LVU38
	.loc 1 42 5 view .LVU39
# src/avx_analysis_code_ablations/opt9_abl_hand_vec_no_tile.cpp:42:     output.data.assign(width * height * 3, 0);
	.loc 1 42 30 is_stmt 0 view .LVU40
	imul	rsi, rdi	# _641, _500
# src/avx_analysis_code_ablations/opt9_abl_hand_vec_no_tile.cpp:42:     output.data.assign(width * height * 3, 0);
	.loc 1 42 23 view .LVU41
	lea	rdx, [rsi+rsi]	# tmp1491,
# src/avx_analysis_code_ablations/opt9_abl_hand_vec_no_tile.cpp:42:     output.data.assign(width * height * 3, 0);
	.loc 1 42 30 view .LVU42
	mov	QWORD PTR 80[rsp], rsi	# %sfp, _641
# src/avx_analysis_code_ablations/opt9_abl_hand_vec_no_tile.cpp:42:     output.data.assign(width * height * 3, 0);
	.loc 1 42 23 view .LVU43
	mov	QWORD PTR 184[rsp], rdx	# %sfp, tmp1491
	add	rdx, rsi	# _5, _641
	mov	QWORD PTR 224[rsp], rdx	# %sfp, _5
.LVL6:
.LBB2035:
.LBI2035:
	.loc 2 865 7 is_stmt 1 view .LVU44
.LBB2036:
.LBI2036:
	.file 7 "/usr/include/c++/16/bits/vector.tcc"
	.loc 7 274 5 view .LVU45
.LBB2037:
.LBB2038:
# /usr/include/c++/16/bits/vector.tcc:278:       if (__n > capacity())
	.loc 7 278 7 is_stmt 0 discriminator 1 view .LVU46
	test	rsi, rsi	# _641
	jne	.L2	#,
.LVL7:
	.loc 7 278 7 discriminator 1 view .LVU47
.LBE2038:
.LBE2037:
.LBE2036:
.LBE2035:
	.loc 1 45 5 is_stmt 1 view .LVU48
.LBB2122:
.LBI2122:
	.loc 2 551 7 view .LVU49
.LBB2123:
.LBI2123:
	.loc 2 321 7 view .LVU50
.LBB2124:
.LBI2124:
	.loc 2 143 2 view .LVU51
.LBB2125:
.LBI2125:
	.loc 5 168 7 view .LVU52
.LBB2126:
.LBI2126:
	.loc 6 88 7 view .LVU53
	.loc 6 88 7 is_stmt 0 view .LVU54
.LBE2126:
.LBE2125:
.LBB2128:
.LBI2128:
	.loc 2 105 2 is_stmt 1 view .LVU55
	.loc 2 105 2 is_stmt 0 view .LVU56
.LBE2128:
.LBE2124:
.LBE2123:
.LBE2122:
	.loc 1 46 5 is_stmt 1 view .LVU57
.LBB2157:
.LBI2157:
	.loc 2 1107 7 view .LVU58
.LBB2158:
# /usr/include/c++/16/bits/stl_vector.h:1109: 	ptrdiff_t __dif = this->_M_impl._M_finish - this->_M_impl._M_start;
	.loc 2 1109 34 is_stmt 0 view .LVU59
	mov	rsi, QWORD PTR 8[rbx]	# _704, MEM[(const struct vector *)subapertures_185(D)].D.139286._M_impl.D.138633._M_finish
.LVL8:
	.loc 2 1109 34 view .LVU60
.LBE2158:
.LBE2157:
.LBB2162:
.LBI2162:
	.loc 7 70 5 is_stmt 1 view .LVU61
.LBB2163:
# /usr/include/c++/16/bits/vector.tcc:75:       if (this->capacity() < __n)
	.loc 7 75 7 is_stmt 0 discriminator 1 view .LVU62
	mov	rdx, rsi	# _616, _704
.LBE2163:
.LBE2162:
.LBB2177:
.LBB2159:
# /usr/include/c++/16/bits/stl_vector.h:1109: 	ptrdiff_t __dif = this->_M_impl._M_finish - this->_M_impl._M_start;
	.loc 2 1109 34 view .LVU63
	mov	QWORD PTR 248[rsp], rsi	# %sfp, _704
.LBE2159:
.LBE2177:
.LBB2178:
.LBB2174:
# /usr/include/c++/16/bits/vector.tcc:75:       if (this->capacity() < __n)
	.loc 7 75 7 discriminator 1 view .LVU64
	sub	rdx, rcx	# _616, SR.270
.LVL9:
	.loc 7 75 7 discriminator 1 view .LVU65
	mov	QWORD PTR 56[rsp], rdx	# %sfp, _616
	je	.L157	#,
.LVL10:
.L4:
.LBB2164:
.LBB2165:
.LBB2166:
.LBB2167:
.LBB2168:
.LBB2169:
# /usr/include/c++/16/bits/new_allocator.h:162: 	  return static_cast<_Tp*>(_GLIBCXX_OPERATOR_NEW(__n * sizeof(_Tp)));
	.loc 6 162 68 view .LVU66
	mov	rbx, QWORD PTR 56[rsp]	# _616, %sfp
.LVL11:
	.loc 6 162 68 view .LVU67
	mov	QWORD PTR 216[rsp], rcx	# %sfp, SR.270
.LVL12:
	.loc 6 162 68 view .LVU68
.LBE2169:
.LBE2168:
.LBE2167:
.LBE2166:
.LBI2165:
	.loc 2 386 7 is_stmt 1 view .LVU69
.LBB2173:
.LBB2172:
.LBI2167:
	.file 8 "/usr/include/c++/16/bits/alloc_traits.h"
	.loc 8 637 7 view .LVU70
.LBB2171:
.LBI2168:
	.loc 6 129 7 view .LVU71
	.loc 6 129 7 is_stmt 0 view .LVU72
	vmovss	DWORD PTR 200[rsp], xmm4	# %sfp, focus
.LBB2170:
# /usr/include/c++/16/bits/new_allocator.h:162: 	  return static_cast<_Tp*>(_GLIBCXX_OPERATOR_NEW(__n * sizeof(_Tp)));
	.loc 6 162 68 view .LVU73
	mov	rdi, rbx	#, _616
.LEHB0:
	call	"_Znwm"@PLT	#
.LVL13:
.LEHE0:
	mov	rcx, QWORD PTR 216[rsp]	# SR.270, %sfp
	vmovss	xmm4, DWORD PTR 200[rsp]	# focus, %sfp
	mov	QWORD PTR 128[rsp], rax	# %sfp, __new_finish
.LVL14:
	.loc 6 162 68 view .LVU74
.LBE2170:
.LBE2171:
.LBE2172:
.LBE2173:
.LBE2165:
# /usr/include/c++/16/bits/vector.tcc:101: 	  this->_M_impl._M_end_of_storage = this->_M_impl._M_start + __n;
	.loc 7 101 61 view .LVU75
	add	rax, rbx	# params$_M_end_of_storage, _616
.LVL15:
	.loc 7 101 61 view .LVU76
	mov	QWORD PTR 240[rsp], rax	# %sfp, params$_M_end_of_storage
.LVL16:
.L8:
	.loc 7 101 61 view .LVU77
.LBE2164:
.LBE2174:
.LBE2178:
# src/avx_analysis_code_ablations/opt9_abl_hand_vec_no_tile.cpp:36:     const int w = static_cast<int>(width);
	.loc 1 36 15 view .LVU78
	mov	r15d, DWORD PTR 120[rsp]	# _1, %sfp
# src/avx_analysis_code_ablations/opt9_abl_hand_vec_no_tile.cpp:37:     const int h = static_cast<int>(height);
	.loc 1 37 15 view .LVU79
	mov	r13d, DWORD PTR 208[rsp]	# _2, %sfp
.LVL17:
	.loc 1 47 5 is_stmt 1 view .LVU80
.LBB2179:
.LBB2180:
.LBI2180:
	.loc 2 988 7 view .LVU81
.LBB2181:
.LBI2181:
	.loc 3 1058 7 view .LVU82
	.loc 3 1058 7 is_stmt 0 view .LVU83
.LBE2181:
.LBE2180:
.LBB2183:
.LBI2183:
	.loc 2 1008 7 is_stmt 1 view .LVU84
.LBB2184:
.LBI2184:
	.loc 3 1058 7 view .LVU85
	.loc 3 1058 7 is_stmt 0 view .LVU86
.LBE2184:
.LBE2183:
	.loc 1 47 22 is_stmt 1 discriminator 5 view .LVU87
# src/avx_analysis_code_ablations/opt9_abl_hand_vec_no_tile.cpp:47:     for (auto& sub : subapertures) {
	.loc 1 47 22 is_stmt 0 discriminator 6 view .LVU88
	cmp	rcx, QWORD PTR 248[rsp]	# SR.270, %sfp
	je	.L74	#,
.LVL18:
.L5:
	.loc 1 47 22 discriminator 6 view .LVU89
.LBE2179:
.LBB2326:
.LBB2150:
.LBB2143:
.LBB2135:
.LBB2129:
# /usr/include/c++/16/bits/stl_vector.h:106: 	: _M_start(), _M_finish(), _M_end_of_storage()
	.loc 2 106 29 view .LVU90
	mov	rax, QWORD PTR 128[rsp]	# __new_finish, %sfp
.LBE2129:
.LBE2135:
.LBE2143:
.LBE2150:
.LBE2326:
.LBB2327:
.LBB2186:
# src/avx_analysis_code_ablations/opt9_abl_hand_vec_no_tile.cpp:59:         p.x_begin = std::max(0, -p.sx);
	.loc 1 59 33 view .LVU91
	xor	r10d, r10d	# tmp1493
.LBE2186:
.LBE2327:
.LBB2328:
.LBB2151:
.LBB2144:
.LBB2136:
.LBB2130:
# /usr/include/c++/16/bits/stl_vector.h:106: 	: _M_start(), _M_finish(), _M_end_of_storage()
	.loc 2 106 29 view .LVU92
	mov	QWORD PTR 112[rsp], rax	# %sfp, __new_finish
	.p2align 4,,10
	.p2align 3
.L17:
.LVL19:
	.loc 2 106 29 view .LVU93
.LBE2130:
.LBE2136:
.LBE2144:
.LBE2151:
.LBE2328:
.LBB2329:
.LBB2319:
	.loc 1 48 9 is_stmt 1 view .LVU94
	.loc 1 49 9 view .LVU95
# src/avx_analysis_code_ablations/opt9_abl_hand_vec_no_tile.cpp:49:         float shift_x = focus * sub.u;
	.loc 1 49 15 is_stmt 0 view .LVU96
	vmulss	xmm3, xmm4, DWORD PTR 40[rcx]	# shift_x, focus, MEM[(float *)SR.270_672 + 40B]
.LVL20:
	.loc 1 50 9 is_stmt 1 view .LVU97
# src/avx_analysis_code_ablations/opt9_abl_hand_vec_no_tile.cpp:60:         p.x_end   = std::min(w, w - p.sx - 1);
	.loc 1 60 35 is_stmt 0 view .LVU98
	mov	ebx, r15d	# _19, _1
# src/avx_analysis_code_ablations/opt9_abl_hand_vec_no_tile.cpp:62:         p.y_end   = std::min(h, h - p.sy - 1);
	.loc 1 62 35 view .LVU99
	mov	r14d, r13d	# _24, _2
# src/avx_analysis_code_ablations/opt9_abl_hand_vec_no_tile.cpp:50:         float shift_y = focus * sub.v;
	.loc 1 50 15 view .LVU100
	vmulss	xmm2, xmm4, DWORD PTR 44[rcx]	# shift_y, focus, MEM[(float *)SR.270_672 + 44B]
.LVL21:
	.loc 1 51 9 is_stmt 1 view .LVU101
.LBB2187:
.LBI2187:
	.file 9 "/usr/include/c++/16/cmath"
	.loc 9 264 3 view .LVU102
.LBB2188:
	.loc 9 265 5 view .LVU103
# /usr/include/c++/16/cmath:265:   { return __builtin_floorf(__x); }
	.loc 9 265 28 is_stmt 0 view .LVU104
	vrndscaless	xmm0, xmm3, xmm3, 9	# _329, shift_x,
.LVL22:
	.loc 9 265 28 view .LVU105
.LBE2188:
.LBE2187:
# src/avx_analysis_code_ablations/opt9_abl_hand_vec_no_tile.cpp:51:         p.sx = static_cast<int>(std::floor(shift_x));
	.loc 1 51 16 discriminator 1 view .LVU106
	vcvttss2si	r9d, xmm0	# _9, _329
.LVL23:
	.loc 1 52 9 is_stmt 1 view .LVU107
.LBB2189:
.LBI2189:
	.loc 9 264 3 view .LVU108
.LBB2190:
	.loc 9 265 5 view .LVU109
# /usr/include/c++/16/cmath:265:   { return __builtin_floorf(__x); }
	.loc 9 265 28 is_stmt 0 view .LVU110
	vrndscaless	xmm1, xmm2, xmm2, 9	# _328, shift_y,
.LVL24:
	.loc 9 265 28 view .LVU111
.LBE2190:
.LBE2189:
# src/avx_analysis_code_ablations/opt9_abl_hand_vec_no_tile.cpp:52:         p.sy = static_cast<int>(std::floor(shift_y));
	.loc 1 52 16 discriminator 1 view .LVU112
	vcvttss2si	r8d, xmm1	# _10, _328
.LVL25:
	.loc 1 53 9 is_stmt 1 view .LVU113
	.loc 1 54 9 view .LVU114
	.loc 1 55 9 view .LVU115
	.loc 1 56 9 view .LVU116
	.loc 1 57 9 view .LVU117
	.loc 1 58 9 view .LVU118
	.loc 1 59 9 view .LVU119
.LBB2191:
.LBI2191:
	.file 10 "/usr/include/c++/16/bits/stl_algobase.h"
	.loc 10 256 5 view .LVU120
.LBE2191:
# src/avx_analysis_code_ablations/opt9_abl_hand_vec_no_tile.cpp:59:         p.x_begin = std::max(0, -p.sx);
	.loc 1 59 33 is_stmt 0 view .LVU121
	mov	esi, r9d	# tmp1492, _9
	neg	esi	# tmp1492
	test	r9d, r9d	# _9
# src/avx_analysis_code_ablations/opt9_abl_hand_vec_no_tile.cpp:61:         p.y_begin = std::max(0, -p.sy);
	.loc 1 61 33 view .LVU122
	mov	r11d, r8d	# tmp1494, _10
# src/avx_analysis_code_ablations/opt9_abl_hand_vec_no_tile.cpp:59:         p.x_begin = std::max(0, -p.sx);
	.loc 1 59 33 view .LVU123
	cmovns	esi, r10d	# tmp1492,, _17, tmp1493
.LVL26:
	.loc 1 60 9 is_stmt 1 view .LVU124
.LBB2192:
.LBI2192:
	.loc 10 232 5 view .LVU125
.LBE2192:
# src/avx_analysis_code_ablations/opt9_abl_hand_vec_no_tile.cpp:60:         p.x_end   = std::min(w, w - p.sx - 1);
	.loc 1 60 35 is_stmt 0 view .LVU126
	sub	ebx, r9d	# _19, _9
# src/avx_analysis_code_ablations/opt9_abl_hand_vec_no_tile.cpp:60:         p.x_end   = std::min(w, w - p.sx - 1);
	.loc 1 60 42 view .LVU127
	dec	ebx	# _20
.LBB2194:
.LBB2193:
# /usr/include/c++/16/bits/stl_algobase.h:237:       if (__b < __a)
	.loc 10 237 7 view .LVU128
	cmp	ebx, r15d	# _20, _1
	cmovg	ebx, r15d	# _20,, _6, _1
.LVL27:
	.loc 10 237 7 view .LVU129
.LBE2193:
.LBE2194:
	.loc 1 61 9 is_stmt 1 view .LVU130
.LBB2195:
.LBI2195:
	.loc 10 256 5 view .LVU131
.LBE2195:
# src/avx_analysis_code_ablations/opt9_abl_hand_vec_no_tile.cpp:61:         p.y_begin = std::max(0, -p.sy);
	.loc 1 61 33 is_stmt 0 view .LVU132
	neg	r11d	# tmp1494
	test	r8d, r8d	# _10
	cmovns	r11d, r10d	# tmp1494,, _21, tmp1493
	.loc 1 62 9 is_stmt 1 view .LVU133
.LVL28:
.LBB2196:
.LBI2196:
	.loc 10 232 5 view .LVU134
.LBE2196:
# src/avx_analysis_code_ablations/opt9_abl_hand_vec_no_tile.cpp:62:         p.y_end   = std::min(h, h - p.sy - 1);
	.loc 1 62 35 is_stmt 0 view .LVU135
	sub	r14d, r8d	# _24, _10
# src/avx_analysis_code_ablations/opt9_abl_hand_vec_no_tile.cpp:62:         p.y_end   = std::min(h, h - p.sy - 1);
	.loc 1 62 42 view .LVU136
	dec	r14d	# _25
.LBB2198:
.LBB2197:
# /usr/include/c++/16/bits/stl_algobase.h:237:       if (__b < __a)
	.loc 10 237 7 view .LVU137
	cmp	r14d, r13d	# _25, _2
	cmovg	r14d, r13d	# _25,, _404, _2
.LVL29:
	.loc 10 237 7 view .LVU138
.LBE2197:
.LBE2198:
	.loc 1 63 9 is_stmt 1 view .LVU139
.LBB2199:
.LBI2199:
	.loc 2 1385 7 view .LVU140
	.loc 2 1385 7 is_stmt 0 view .LVU141
.LBE2199:
	.loc 1 64 9 is_stmt 1 view .LVU142
# src/avx_analysis_code_ablations/opt9_abl_hand_vec_no_tile.cpp:64:         if (p.x_begin >= p.x_end || p.y_begin >= p.y_end) continue;  // skip degenerate
	.loc 1 64 34 is_stmt 0 discriminator 1 view .LVU143
	cmp	ebx, esi	# _6, _17
	jle	.L12	#,
	.loc 1 64 34 discriminator 1 view .LVU144
	cmp	r11d, r14d	# _21, _404
	jge	.L12	#,
# src/avx_analysis_code_ablations/opt9_abl_hand_vec_no_tile.cpp:54:         float dy = shift_y - p.sy;
	.loc 1 54 15 view .LVU145
	vsubss	xmm6, xmm2, xmm1	# dy, shift_y, _328
.LVL30:
# src/avx_analysis_code_ablations/opt9_abl_hand_vec_no_tile.cpp:53:         float dx = shift_x - p.sx;
	.loc 1 53 15 view .LVU146
	vsubss	xmm5, xmm3, xmm0	# dx, shift_x, _329
.LVL31:
.LBB2202:
.LBB2200:
# /usr/include/c++/16/bits/stl_vector.h:1386:       { return _M_data_ptr(this->_M_impl._M_start); }
	.loc 2 1386 42 view .LVU147
	mov	rdx, QWORD PTR 16[rcx]	# _327, MEM[(unsigned char * *)SR.270_672 + 16B]
.LBE2200:
.LBE2202:
.LBB2203:
.LBB2204:
# /usr/include/c++/16/bits/stl_vector.h:1408: 	if (this->_M_impl._M_finish != this->_M_impl._M_end_of_storage)
	.loc 2 1408 2 view .LVU148
	mov	rax, QWORD PTR 128[rsp]	# __new_finish, %sfp
.LBE2204:
.LBE2203:
# src/avx_analysis_code_ablations/opt9_abl_hand_vec_no_tile.cpp:55:         p.A = (1 - dx) * (1 - dy);
	.loc 1 55 18 view .LVU149
	vaddss	xmm0, xmm0, DWORD PTR .LC1[rip]	# _630, _329,
.LVL32:
# src/avx_analysis_code_ablations/opt9_abl_hand_vec_no_tile.cpp:55:         p.A = (1 - dx) * (1 - dy);
	.loc 1 55 29 view .LVU150
	vaddss	xmm1, xmm1, DWORD PTR .LC1[rip]	# _632, _328,
.LVL33:
.LBB2315:
.LBB2201:
# /usr/include/c++/16/bits/stl_vector.h:1386:       { return _M_data_ptr(this->_M_impl._M_start); }
	.loc 2 1386 42 view .LVU151
	mov	QWORD PTR 216[rsp], rdx	# %sfp, _327
.LBE2201:
.LBE2315:
# src/avx_analysis_code_ablations/opt9_abl_hand_vec_no_tile.cpp:55:         p.A = (1 - dx) * (1 - dy);
	.loc 1 55 18 view .LVU152
	vsubss	xmm0, xmm0, xmm3	# _11, _630, shift_x
.LVL34:
# src/avx_analysis_code_ablations/opt9_abl_hand_vec_no_tile.cpp:55:         p.A = (1 - dx) * (1 - dy);
	.loc 1 55 29 view .LVU153
	vsubss	xmm1, xmm1, xmm2	# _12, _632, shift_y
.LVL35:
# src/avx_analysis_code_ablations/opt9_abl_hand_vec_no_tile.cpp:55:         p.A = (1 - dx) * (1 - dy);
	.loc 1 55 24 view .LVU154
	vmulss	xmm2, xmm0, xmm1	# _13, _11, _12
.LVL36:
# src/avx_analysis_code_ablations/opt9_abl_hand_vec_no_tile.cpp:56:         p.B = dx       * (1 - dy);
	.loc 1 56 24 view .LVU155
	vmulss	xmm1, xmm1, xmm5	# _14, _12, dx
# src/avx_analysis_code_ablations/opt9_abl_hand_vec_no_tile.cpp:57:         p.C = (1 - dx) * dy;
	.loc 1 57 24 view .LVU156
	vmulss	xmm0, xmm0, xmm6	# _15, _11, dy
# src/avx_analysis_code_ablations/opt9_abl_hand_vec_no_tile.cpp:58:         p.D = dx       * dy;
	.loc 1 58 24 view .LVU157
	vmulss	xmm5, xmm5, xmm6	# _16, dx, dy
.LVL37:
	.loc 1 65 9 is_stmt 1 view .LVU158
.LBB2316:
.LBI2203:
	.loc 2 1406 7 view .LVU159
.LBB2312:
# /usr/include/c++/16/bits/stl_vector.h:1408: 	if (this->_M_impl._M_finish != this->_M_impl._M_end_of_storage)
	.loc 2 1408 2 is_stmt 0 view .LVU160
	cmp	QWORD PTR 240[rsp], rax	# %sfp, __new_finish
	je	.L13	#,
.LVL38:
.LBB2205:
.LBI2205:
	.loc 8 705 2 is_stmt 1 view .LVU161
.LBB2206:
.LBI2206:
	.loc 6 201 2 view .LVU162
.LBB2207:
# /usr/include/c++/16/bits/new_allocator.h:203: 	{ ::new((void *)__p) _Up(std::forward<_Args>(__args)...); }
	.loc 6 203 4 is_stmt 0 discriminator 1 view .LVU163
	vunpcklps	xmm0, xmm0, xmm5	# tmp808, _15, _16
	vunpcklps	xmm2, xmm2, xmm1	# tmp809, _13, _14
	mov	DWORD PTR [rax], r9d	# params$_M_finish_165->sx, _9
.LBE2207:
.LBE2206:
.LBE2205:
# /usr/include/c++/16/bits/stl_vector.h:1413: 	    ++this->_M_impl._M_finish;
	.loc 2 1413 6 view .LVU164
	add	rax, 48	# __new_finish,
.LBB2210:
.LBB2209:
.LBB2208:
# /usr/include/c++/16/bits/new_allocator.h:203: 	{ ::new((void *)__p) _Up(std::forward<_Args>(__args)...); }
	.loc 6 203 4 discriminator 1 view .LVU165
	vmovlhps	xmm2, xmm2, xmm0	# _275, tmp809, tmp808
	mov	DWORD PTR -44[rax], r8d	# params$_M_finish_165->sy, _10
	vmovups	XMMWORD PTR -40[rax], xmm2	# MEM <vector(4) float> [(float *)params$_M_finish_165 + 8B], _275
	mov	DWORD PTR -24[rax], esi	# params$_M_finish_165->x_begin, _17
	mov	DWORD PTR -20[rax], ebx	# params$_M_finish_165->x_end, _6
	mov	DWORD PTR -16[rax], r11d	# params$_M_finish_165->y_begin, _21
	mov	DWORD PTR -12[rax], r14d	# params$_M_finish_165->y_end, _404
	mov	QWORD PTR -8[rax], rdx	# MEM <const unsigned char *> [(struct SubParams *)params$_M_finish_165 + 40B], _327
.LVL39:
	.loc 6 203 4 discriminator 1 view .LVU166
.LBE2208:
.LBE2209:
.LBE2210:
# /usr/include/c++/16/bits/stl_vector.h:1413: 	    ++this->_M_impl._M_finish;
	.loc 2 1413 6 view .LVU167
	mov	QWORD PTR 128[rsp], rax	# %sfp, __new_finish
.LVL40:
.L12:
	.loc 2 1413 6 view .LVU168
.LBE2312:
.LBE2316:
.LBE2319:
	.loc 1 47 5 is_stmt 1 discriminator 4 view .LVU169
.LBB2320:
.LBI2320:
	.loc 3 1101 7 view .LVU170
.LBB2321:
# /usr/include/c++/16/bits/stl_iterator.h:1103: 	++_M_current;
	.loc 3 1103 2 is_stmt 0 view .LVU171
	add	rcx, 48	# SR.270,
.LVL41:
	.loc 3 1103 2 view .LVU172
.LBE2321:
.LBE2320:
	.loc 1 47 22 is_stmt 1 discriminator 5 view .LVU173
# src/avx_analysis_code_ablations/opt9_abl_hand_vec_no_tile.cpp:47:     for (auto& sub : subapertures) {
	.loc 1 47 22 is_stmt 0 discriminator 6 view .LVU174
	cmp	rcx, QWORD PTR 248[rsp]	# SR.270, %sfp
	jne	.L17	#,
.LBE2329:
.LBB2330:
.LBB2331:
.LBB2332:
# /usr/include/c++/16/bits/stl_vector.h:375: 	ptrdiff_t __n = _M_impl._M_end_of_storage - _M_impl._M_start;
	.loc 2 375 44 view .LVU175
	mov	rax, QWORD PTR 240[rsp]	# _616, %sfp
	sub	rax, QWORD PTR 112[rsp]	# _616, %sfp
	mov	QWORD PTR 56[rsp], rax	# %sfp, _616
.LVL42:
.L9:
	.loc 2 375 44 view .LVU176
.LBE2332:
.LBE2331:
.LBE2330:
	.loc 1 69 5 is_stmt 1 view .LVU177
.LBB2347:
.LBI2347:
	.loc 5 168 7 view .LVU178
.LBB2348:
.LBI2348:
	.loc 6 88 7 view .LVU179
	.loc 6 88 7 is_stmt 0 view .LVU180
.LBE2348:
.LBE2347:
.LBB2349:
.LBI2349:
	.loc 2 589 7 is_stmt 1 view .LVU181
.LBB2350:
.LBI2350:
	.loc 2 2203 7 view .LVU182
.LBB2351:
.LBB2352:
.LBI2352:
	.loc 5 172 7 view .LVU183
.LBB2353:
.LBI2353:
	.loc 6 92 7 view .LVU184
	.loc 6 92 7 is_stmt 0 view .LVU185
.LBE2353:
.LBE2352:
.LBB2354:
.LBI2354:
	.loc 5 189 7 is_stmt 1 view .LVU186
.LBB2355:
.LBI2355:
	.loc 6 104 7 view .LVU187
.LBE2355:
.LBE2354:
# /usr/include/c++/16/bits/stl_vector.h:2205: 	if (__n > _S_max_size(_Tp_alloc_type(__a)))
	.loc 2 2205 2 is_stmt 0 discriminator 3 view .LVU188
	mov	rax, QWORD PTR 80[rsp]	# tmp1563, %sfp
	shr	rax, 61	# tmp1563,
	jne	.L143	#,
.LVL43:
	.loc 2 2205 2 discriminator 3 view .LVU189
.LBE2351:
.LBE2350:
.LBB2357:
.LBI2357:
	.loc 2 339 7 is_stmt 1 view .LVU190
.LBB2358:
.LBI2358:
	.loc 2 152 2 view .LVU191
.LBB2359:
.LBI2359:
	.loc 5 172 7 view .LVU192
.LBB2360:
.LBI2360:
	.loc 6 92 7 view .LVU193
	.loc 6 92 7 is_stmt 0 view .LVU194
.LBE2360:
.LBE2359:
.LBB2361:
.LBI2361:
	.loc 2 105 2 is_stmt 1 view .LVU195
	.loc 2 105 2 is_stmt 0 view .LVU196
.LBE2361:
.LBE2358:
.LBB2362:
.LBI2362:
	.loc 2 405 7 is_stmt 1 view .LVU197
.LBB2363:
.LBB2364:
.LBI2364:
	.loc 2 386 7 view .LVU198
.LBB2365:
# /usr/include/c++/16/bits/stl_vector.h:389: 	return __n != 0 ? _Tr::allocate(_M_impl, __n) : pointer();
	.loc 2 389 18 is_stmt 0 view .LVU199
	mov	rax, QWORD PTR 80[rsp]	# _641, %sfp
	test	rax, rax	# _641
	je	.L77	#,
.LVL44:
.LBB2366:
.LBI2366:
	.loc 8 637 7 is_stmt 1 view .LVU200
.LBB2367:
.LBI2367:
	.loc 6 129 7 view .LVU201
.LBB2368:
# /usr/include/c++/16/bits/new_allocator.h:162: 	  return static_cast<_Tp*>(_GLIBCXX_OPERATOR_NEW(__n * sizeof(_Tp)));
	.loc 6 162 68 is_stmt 0 view .LVU202
	lea	rbx, 0[0+rax*4]	# _443,
	mov	rdi, rbx	#, _443
	mov	QWORD PTR 48[rsp], rbx	# %sfp, _443
.LEHB1:
	call	"_Znwm"@PLT	#
.LVL45:
.LEHE1:
.LBE2368:
.LBE2367:
.LBE2366:
.LBE2365:
.LBE2364:
.LBE2363:
.LBE2362:
.LBE2357:
.LBB2380:
.LBB2381:
.LBB2382:
.LBB2383:
.LBB2384:
.LBB2385:
.LBB2386:
.LBB2387:
# /usr/include/c++/16/bits/stl_construct.h:133:       ::new(static_cast<void*>(__p)) _Tp(std::forward<_Args>(__args)...);
	.file 11 "/usr/include/c++/16/bits/stl_construct.h"
	.loc 11 133 7 discriminator 1 view .LVU203
	mov	rdx, rbx	#, _443
	xor	esi, esi	#
	mov	rdi, rax	#, _445
.LBE2387:
.LBE2386:
.LBE2385:
.LBE2384:
.LBE2383:
.LBE2382:
.LBE2381:
.LBE2380:
.LBB2397:
.LBB2378:
.LBB2376:
.LBB2374:
.LBB2372:
.LBB2371:
.LBB2370:
.LBB2369:
# /usr/include/c++/16/bits/new_allocator.h:162: 	  return static_cast<_Tp*>(_GLIBCXX_OPERATOR_NEW(__n * sizeof(_Tp)));
	.loc 6 162 68 view .LVU204
	mov	QWORD PTR 88[rsp], rax	# %sfp, _445
.LVL46:
	.loc 6 162 68 view .LVU205
.LBE2369:
.LBE2370:
.LBE2371:
.LBE2372:
.LBE2374:
.LBE2376:
.LBE2378:
.LBE2397:
.LBB2398:
.LBI2380:
	.loc 2 1987 7 is_stmt 1 view .LVU206
.LBB2396:
.LBI2381:
	.file 12 "/usr/include/c++/16/bits/stl_uninitialized.h"
	.loc 12 771 5 view .LVU207
.LBB2395:
.LBI2382:
	.loc 12 550 5 view .LVU208
.LBB2394:
.LBB2393:
.LBI2384:
	.loc 12 477 5 view .LVU209
.LBB2392:
.LBB2389:
.LBI2389:
	.loc 12 113 7 view .LVU210
	.loc 12 113 7 is_stmt 0 view .LVU211
.LBE2389:
	.loc 12 485 2 is_stmt 1 discriminator 2 view .LVU212
	.loc 12 491 7 discriminator 2 view .LVU213
.LBB2390:
.LBB2388:
# /usr/include/c++/16/bits/stl_construct.h:133:       ::new(static_cast<void*>(__p)) _Tp(std::forward<_Args>(__args)...);
	.loc 11 133 7 is_stmt 0 discriminator 1 view .LVU214
	call	"memset"@PLT	#
.LVL47:
.L18:
	.loc 11 133 7 discriminator 1 view .LVU215
.LBE2388:
.LBE2390:
.LBB2391:
.LBI2391:
	.loc 12 118 7 is_stmt 1 view .LVU216
	.loc 12 118 7 is_stmt 0 view .LVU217
.LBE2391:
.LBE2392:
.LBE2393:
.LBE2394:
.LBE2395:
.LBE2396:
.LBE2398:
.LBE2349:
.LBB2401:
.LBI2401:
	.loc 5 189 7 is_stmt 1 view .LVU218
.LBB2402:
.LBI2402:
	.loc 6 104 7 view .LVU219
	.loc 6 104 7 is_stmt 0 view .LVU220
.LBE2402:
.LBE2401:
	.loc 1 70 5 is_stmt 1 view .LVU221
.LBB2403:
.LBI2403:
	.loc 5 168 7 view .LVU222
.LBB2404:
.LBI2404:
	.loc 6 88 7 view .LVU223
	.loc 6 88 7 is_stmt 0 view .LVU224
.LBE2404:
.LBE2403:
# src/avx_analysis_code_ablations/opt9_abl_hand_vec_no_tile.cpp:70:     std::vector<int> diff((width + 1) * (height + 1), 0);
	.loc 1 70 34 discriminator 1 view .LVU225
	mov	rax, QWORD PTR 120[rsp]	# _629, %sfp
	lea	r12, 1[rax]	# _26,
# src/avx_analysis_code_ablations/opt9_abl_hand_vec_no_tile.cpp:70:     std::vector<int> diff((width + 1) * (height + 1), 0);
	.loc 1 70 49 discriminator 1 view .LVU226
	mov	rax, QWORD PTR 208[rsp]	# _500, %sfp
	inc	rax	# _500
# src/avx_analysis_code_ablations/opt9_abl_hand_vec_no_tile.cpp:70:     std::vector<int> diff((width + 1) * (height + 1), 0);
	.loc 1 70 56 discriminator 1 view .LVU227
	imul	rax, r12	# _27, _26
	mov	QWORD PTR 64[rsp], rax	# %sfp, _28
.LVL48:
.LBB2405:
.LBI2405:
	.loc 2 589 7 is_stmt 1 view .LVU228
.LBB2406:
.LBI2406:
	.loc 2 2203 7 view .LVU229
.LBB2407:
.LBB2408:
.LBI2408:
	.loc 5 172 7 view .LVU230
.LBB2409:
.LBI2409:
	.loc 6 92 7 view .LVU231
	.loc 6 92 7 is_stmt 0 view .LVU232
.LBE2409:
.LBE2408:
.LBB2410:
.LBI2410:
	.loc 5 189 7 is_stmt 1 view .LVU233
.LBB2411:
.LBI2411:
	.loc 6 104 7 view .LVU234
.LBE2411:
.LBE2410:
# /usr/include/c++/16/bits/stl_vector.h:2205: 	if (__n > _S_max_size(_Tp_alloc_type(__a)))
	.loc 2 2205 2 is_stmt 0 discriminator 3 view .LVU235
	shr	rax, 61	# tmp1564,
.LVL49:
	.loc 2 2205 2 discriminator 3 view .LVU236
	jne	.L144	#,
.LVL50:
	.loc 2 2205 2 discriminator 3 view .LVU237
.LBE2407:
.LBE2406:
.LBB2413:
.LBI2413:
	.loc 2 339 7 is_stmt 1 view .LVU238
.LBB2414:
.LBI2414:
	.loc 2 152 2 view .LVU239
.LBB2415:
.LBI2415:
	.loc 5 172 7 view .LVU240
.LBB2416:
.LBI2416:
	.loc 6 92 7 view .LVU241
	.loc 6 92 7 is_stmt 0 view .LVU242
.LBE2416:
.LBE2415:
.LBB2417:
.LBI2417:
	.loc 2 105 2 is_stmt 1 view .LVU243
	.loc 2 105 2 is_stmt 0 view .LVU244
.LBE2417:
.LBE2414:
.LBB2418:
.LBI2418:
	.loc 2 405 7 is_stmt 1 view .LVU245
.LBB2419:
.LBB2420:
.LBI2420:
	.loc 2 386 7 view .LVU246
.LBB2421:
# /usr/include/c++/16/bits/stl_vector.h:389: 	return __n != 0 ? _Tr::allocate(_M_impl, __n) : pointer();
	.loc 2 389 18 is_stmt 0 view .LVU247
	mov	r14, QWORD PTR 64[rsp]	# _28, %sfp
	test	r14, r14	# _28
	je	.L78	#,
.LVL51:
.LBB2422:
.LBI2422:
	.loc 8 637 7 is_stmt 1 view .LVU248
.LBB2423:
.LBI2423:
	.loc 6 129 7 view .LVU249
.LBB2424:
# /usr/include/c++/16/bits/new_allocator.h:162: 	  return static_cast<_Tp*>(_GLIBCXX_OPERATOR_NEW(__n * sizeof(_Tp)));
	.loc 6 162 68 is_stmt 0 view .LVU250
	sal	r14, 2	# _28,
	mov	rdi, r14	#, _28
	mov	QWORD PTR 64[rsp], r14	# %sfp, _28
.LVL52:
.LEHB2:
	.loc 6 162 68 view .LVU251
	call	"_Znwm"@PLT	#
.LVL53:
.LEHE2:
.LBE2424:
.LBE2423:
.LBE2422:
.LBE2421:
.LBE2420:
.LBE2419:
.LBE2418:
.LBE2413:
.LBB2436:
.LBB2437:
.LBB2438:
.LBB2439:
.LBB2440:
.LBB2441:
.LBB2442:
.LBB2443:
# /usr/include/c++/16/bits/stl_construct.h:133:       ::new(static_cast<void*>(__p)) _Tp(std::forward<_Args>(__args)...);
	.loc 11 133 7 discriminator 1 view .LVU252
	mov	rdx, r14	#, _28
	xor	esi, esi	#
	mov	rdi, rax	#, _300
.LBE2443:
.LBE2442:
.LBE2441:
.LBE2440:
.LBE2439:
.LBE2438:
.LBE2437:
.LBE2436:
.LBB2453:
.LBB2434:
.LBB2432:
.LBB2430:
.LBB2428:
.LBB2427:
.LBB2426:
.LBB2425:
# /usr/include/c++/16/bits/new_allocator.h:162: 	  return static_cast<_Tp*>(_GLIBCXX_OPERATOR_NEW(__n * sizeof(_Tp)));
	.loc 6 162 68 view .LVU253
	mov	rbx, rax	# _300, _300
.LVL54:
	.loc 6 162 68 view .LVU254
.LBE2425:
.LBE2426:
.LBE2427:
.LBE2428:
.LBE2430:
.LBE2432:
.LBE2434:
.LBE2453:
.LBB2454:
.LBI2436:
	.loc 2 1987 7 is_stmt 1 view .LVU255
.LBB2452:
.LBI2437:
	.loc 12 771 5 view .LVU256
.LBB2451:
.LBI2438:
	.loc 12 550 5 view .LVU257
.LBB2450:
.LBB2449:
.LBI2440:
	.loc 12 477 5 view .LVU258
.LBB2448:
.LBB2445:
.LBI2445:
	.loc 12 113 7 view .LVU259
	.loc 12 113 7 is_stmt 0 view .LVU260
.LBE2445:
	.loc 12 485 2 is_stmt 1 discriminator 2 view .LVU261
	.loc 12 491 7 discriminator 2 view .LVU262
.LBB2446:
.LBB2444:
# /usr/include/c++/16/bits/stl_construct.h:133:       ::new(static_cast<void*>(__p)) _Tp(std::forward<_Args>(__args)...);
	.loc 11 133 7 is_stmt 0 discriminator 1 view .LVU263
	call	"memset"@PLT	#
.LVL55:
.L23:
	.loc 11 133 7 discriminator 1 view .LVU264
.LBE2444:
.LBE2446:
.LBB2447:
.LBI2447:
	.loc 12 118 7 is_stmt 1 view .LVU265
	.loc 12 118 7 is_stmt 0 view .LVU266
.LBE2447:
.LBE2448:
.LBE2449:
.LBE2450:
.LBE2451:
.LBE2452:
.LBE2454:
.LBE2405:
.LBB2457:
.LBI2457:
	.loc 5 189 7 is_stmt 1 view .LVU267
.LBB2458:
.LBI2458:
	.loc 6 104 7 view .LVU268
	.loc 6 104 7 is_stmt 0 view .LVU269
.LBE2458:
.LBE2457:
	.loc 1 72 5 is_stmt 1 view .LVU270
.LBB2459:
.LBB2460:
.LBI2460:
	.loc 2 988 7 view .LVU271
.LBB2461:
.LBI2461:
	.loc 3 1058 7 view .LVU272
	.loc 3 1058 7 is_stmt 0 view .LVU273
.LBE2461:
.LBE2460:
.LBB2462:
.LBI2462:
	.loc 2 1008 7 is_stmt 1 view .LVU274
.LBB2463:
.LBI2463:
	.loc 3 1058 7 view .LVU275
	.loc 3 1058 7 is_stmt 0 view .LVU276
.LBE2463:
.LBE2462:
	.loc 1 72 26 is_stmt 1 discriminator 5 view .LVU277
# src/avx_analysis_code_ablations/opt9_abl_hand_vec_no_tile.cpp:72:     for (const auto& p : params) {
	.loc 1 72 26 is_stmt 0 discriminator 6 view .LVU278
	mov	rax, QWORD PTR 112[rsp]	# params$_M_start, %sfp
	mov	r8, QWORD PTR 128[rsp]	# __new_finish, %sfp
	cmp	rax, r8	# params$_M_start, __new_finish
	je	.L24	#,
.LVL56:
	.loc 1 72 26 discriminator 6 view .LVU279
	.p2align 6
	.p2align 4,,10
	.p2align 3
.L25:
.LVL57:
	.loc 1 73 9 is_stmt 1 view .LVU280
# src/avx_analysis_code_ablations/opt9_abl_hand_vec_no_tile.cpp:73:         diff[p.y_begin * (width + 1) + p.x_begin] += 1;
	.loc 1 73 16 is_stmt 0 view .LVU281
	movsxd	rdx, DWORD PTR 32[rax]	# _30, MEM[(int *)SR.272_669 + 32B]
# src/avx_analysis_code_ablations/opt9_abl_hand_vec_no_tile.cpp:73:         diff[p.y_begin * (width + 1) + p.x_begin] += 1;
	.loc 1 73 42 view .LVU282
	movsxd	rsi, DWORD PTR 24[rax]	# _33, MEM[(int *)SR.272_669 + 24B]
.LBB2464:
.LBB2465:
# /usr/include/c++/16/bits/stl_iterator.h:1103: 	++_M_current;
	.loc 3 1103 2 view .LVU283
	add	rax, 48	# SR.272,
.LVL58:
	.loc 3 1103 2 view .LVU284
.LBE2465:
.LBE2464:
# src/avx_analysis_code_ablations/opt9_abl_hand_vec_no_tile.cpp:75:         diff[p.y_end   * (width + 1) + p.x_begin] -= 1;
	.loc 1 75 16 view .LVU285
	movsxd	rdi, DWORD PTR -12[rax]	# _46, MEM[(int *)SR.272_669 + 36B]
# src/avx_analysis_code_ablations/opt9_abl_hand_vec_no_tile.cpp:73:         diff[p.y_begin * (width + 1) + p.x_begin] += 1;
	.loc 1 73 24 view .LVU286
	imul	rdx, r12	# _31, _26
.LVL59:
.LBB2466:
.LBI2466:
	.loc 2 1251 7 is_stmt 1 view .LVU287
.LBB2467:
	.loc 2 1253 2 discriminator 2 view .LVU288
	.loc 2 1253 2 is_stmt 0 discriminator 2 view .LVU289
.LBE2467:
.LBE2466:
# src/avx_analysis_code_ablations/opt9_abl_hand_vec_no_tile.cpp:75:         diff[p.y_end   * (width + 1) + p.x_begin] -= 1;
	.loc 1 75 24 view .LVU290
	imul	rdi, r12	# _47, _26
# src/avx_analysis_code_ablations/opt9_abl_hand_vec_no_tile.cpp:73:         diff[p.y_begin * (width + 1) + p.x_begin] += 1;
	.loc 1 73 49 view .LVU291
	lea	rcx, [rdx+rsi]	# _34,
# src/avx_analysis_code_ablations/opt9_abl_hand_vec_no_tile.cpp:73:         diff[p.y_begin * (width + 1) + p.x_begin] += 1;
	.loc 1 73 51 discriminator 1 view .LVU292
	inc	DWORD PTR [rbx+rcx*4]	# *_340
	.loc 1 74 9 is_stmt 1 view .LVU293
# src/avx_analysis_code_ablations/opt9_abl_hand_vec_no_tile.cpp:74:         diff[p.y_begin * (width + 1) + p.x_end  ] -= 1;
	.loc 1 74 42 is_stmt 0 view .LVU294
	movsxd	rcx, DWORD PTR -20[rax]	# _41, MEM[(int *)SR.272_669 + 28B]
.LVL60:
.LBB2468:
.LBI2468:
	.loc 2 1251 7 is_stmt 1 view .LVU295
.LBB2469:
	.loc 2 1253 2 discriminator 2 view .LVU296
	.loc 2 1253 2 is_stmt 0 discriminator 2 view .LVU297
.LBE2469:
.LBE2468:
# src/avx_analysis_code_ablations/opt9_abl_hand_vec_no_tile.cpp:74:         diff[p.y_begin * (width + 1) + p.x_end  ] -= 1;
	.loc 1 74 49 view .LVU298
	add	rdx, rcx	# _42, _41
# src/avx_analysis_code_ablations/opt9_abl_hand_vec_no_tile.cpp:74:         diff[p.y_begin * (width + 1) + p.x_end  ] -= 1;
	.loc 1 74 51 discriminator 1 view .LVU299
	dec	DWORD PTR [rbx+rdx*4]	# *_337
	.loc 1 75 9 is_stmt 1 view .LVU300
.LVL61:
.LBB2470:
.LBI2470:
	.loc 2 1251 7 view .LVU301
.LBB2471:
	.loc 2 1253 2 discriminator 2 view .LVU302
	.loc 2 1253 2 is_stmt 0 discriminator 2 view .LVU303
.LBE2471:
.LBE2470:
# src/avx_analysis_code_ablations/opt9_abl_hand_vec_no_tile.cpp:75:         diff[p.y_end   * (width + 1) + p.x_begin] -= 1;
	.loc 1 75 49 view .LVU304
	lea	rdx, [rsi+rdi]	# _50,
# src/avx_analysis_code_ablations/opt9_abl_hand_vec_no_tile.cpp:75:         diff[p.y_end   * (width + 1) + p.x_begin] -= 1;
	.loc 1 75 51 discriminator 1 view .LVU305
	dec	DWORD PTR [rbx+rdx*4]	# *_335
	.loc 1 76 9 is_stmt 1 view .LVU306
.LVL62:
.LBB2472:
.LBI2472:
	.loc 2 1251 7 view .LVU307
.LBB2473:
	.loc 2 1253 2 discriminator 2 view .LVU308
	.loc 2 1253 2 is_stmt 0 discriminator 2 view .LVU309
.LBE2473:
.LBE2472:
# src/avx_analysis_code_ablations/opt9_abl_hand_vec_no_tile.cpp:76:         diff[p.y_end   * (width + 1) + p.x_end  ] += 1;
	.loc 1 76 49 view .LVU310
	lea	rdx, [rcx+rdi]	# _58,
# src/avx_analysis_code_ablations/opt9_abl_hand_vec_no_tile.cpp:76:         diff[p.y_end   * (width + 1) + p.x_end  ] += 1;
	.loc 1 76 51 discriminator 1 view .LVU311
	inc	DWORD PTR [rbx+rdx*4]	# *_333
	.loc 1 72 5 is_stmt 1 discriminator 4 view .LVU312
.LVL63:
.LBB2474:
.LBI2464:
	.loc 3 1101 7 view .LVU313
	.loc 3 1101 7 is_stmt 0 view .LVU314
.LBE2474:
	.loc 1 72 26 is_stmt 1 discriminator 5 view .LVU315
# src/avx_analysis_code_ablations/opt9_abl_hand_vec_no_tile.cpp:72:     for (const auto& p : params) {
	.loc 1 72 26 is_stmt 0 discriminator 6 view .LVU316
	cmp	rax, r8	# SR.272, __new_finish
	jne	.L25	#,
.LVL64:
.L24:
	.loc 1 72 26 discriminator 6 view .LVU317
.LBE2459:
.LBB2475:
	.loc 1 79 23 is_stmt 1 discriminator 2 view .LVU318
	vxorps	xmm4, xmm4, xmm4	# tmp1526
	test	r13d, r13d	# _2
	jle	.L26	#,
	test	r15d, r15d	# _1
	jle	.L145	#,
.LVL65:
.LBB2476:
.LBB2477:
	.loc 1 81 27 discriminator 2 view .LVU319
	mov	rax, QWORD PTR 120[rsp]	# _629, %sfp
.LBE2477:
# src/avx_analysis_code_ablations/opt9_abl_hand_vec_no_tile.cpp:80:         int row = 0;
	.loc 1 80 13 is_stmt 0 view .LVU320
	xor	edx, edx	# row
	lea	ecx, -1[rax]	# _797,
.LBE2476:
# src/avx_analysis_code_ablations/opt9_abl_hand_vec_no_tile.cpp:79:     for (int y = 0; y < h; ++y) {
	.loc 1 79 23 discriminator 2 view .LVU321
	xor	eax, eax	# ivtmp.549
	lea	r8, 1[rcx]	# _917,
	mov	rcx, QWORD PTR 88[rsp]	# _445, %sfp
.LVL66:
.L29:
.LBB2482:
.LBB2478:
	.loc 1 82 13 is_stmt 1 view .LVU322
# src/avx_analysis_code_ablations/opt9_abl_hand_vec_no_tile.cpp:82:             row += diff[y * (width + 1) + x];
	.loc 1 82 17 is_stmt 0 discriminator 1 view .LVU323
	add	edx, DWORD PTR [rbx+rax*4]	# row, MEM[(value_type &)_478 + ivtmp.549_793 * 4]
.LVL67:
	.loc 1 83 13 is_stmt 1 view .LVU324
# src/avx_analysis_code_ablations/opt9_abl_hand_vec_no_tile.cpp:83:             counts[y * w + x] = row + (y > 0 ? counts[(y - 1) * w + x] : 0);
	.loc 1 83 31 is_stmt 0 discriminator 5 view .LVU325
	mov	DWORD PTR [rcx+rax*4], edx	# MEM[(value_type &)_536 + ivtmp.549_793 * 4], row
	.loc 1 81 9 is_stmt 1 discriminator 1 view .LVU326
.LVL68:
	.loc 1 81 27 discriminator 2 view .LVU327
	inc	rax	# ivtmp.549
.LVL69:
	.loc 1 81 27 is_stmt 0 discriminator 2 view .LVU328
	cmp	rax, r8	# ivtmp.549, _917
	jne	.L29	#,
.LBE2478:
.LBE2482:
	.loc 1 79 5 is_stmt 1 discriminator 1 view .LVU329
.LVL70:
	.loc 1 79 23 discriminator 2 view .LVU330
	cmp	r13d, 1	# _2,
	je	.L145	#,
	lea	rax, 0[0+r12*4]	# _295,
.LBB2483:
.LBB2479:
# src/avx_analysis_code_ablations/opt9_abl_hand_vec_no_tile.cpp:81:         for (int x = 0; x < w; ++x) {
	.loc 1 81 27 is_stmt 0 discriminator 2 view .LVU331
	xor	ecx, ecx	# ivtmp.544
.LBE2479:
.LBE2483:
# src/avx_analysis_code_ablations/opt9_abl_hand_vec_no_tile.cpp:79:     for (int y = 0; y < h; ++y) {
	.loc 1 79 14 view .LVU332
	mov	r11d, 1	# y,
	mov	QWORD PTR 248[rsp], rax	# %sfp, _295
	lea	rdi, [rbx+rax]	# ivtmp.543,
	mov	eax, r15d	# _721, _1
	lea	r14, 0[0+rax*4]	# _720,
	mov	rax, QWORD PTR 88[rsp]	# _445, %sfp
	lea	rsi, [rax+r14]	# ivtmp.546,
.LVL71:
.L32:
.LBB2484:
.LBB2480:
	.loc 1 81 27 is_stmt 1 discriminator 2 view .LVU333
	mov	rdx, QWORD PTR 88[rsp]	# _445, %sfp
	movsxd	rax, ecx	# _1179, ivtmp.544
	add	ecx, DWORD PTR 120[rsp]	# ivtmp.544, %sfp
	lea	r10, [rdx+rax*4]	# _1192,
.LBE2480:
.LBE2484:
# src/avx_analysis_code_ablations/opt9_abl_hand_vec_no_tile.cpp:79:     for (int y = 0; y < h; ++y) {
	.loc 1 79 14 is_stmt 0 view .LVU334
	xor	eax, eax	# ivtmp.530
.LBB2485:
# src/avx_analysis_code_ablations/opt9_abl_hand_vec_no_tile.cpp:80:         int row = 0;
	.loc 1 80 13 view .LVU335
	xor	edx, edx	# row
.LVL72:
	.loc 1 80 13 view .LVU336
	.p2align 5
	.p2align 4,,10
	.p2align 3
.L31:
.LVL73:
.LBB2481:
	.loc 1 82 13 is_stmt 1 view .LVU337
# src/avx_analysis_code_ablations/opt9_abl_hand_vec_no_tile.cpp:83:             counts[y * w + x] = row + (y > 0 ? counts[(y - 1) * w + x] : 0);
	.loc 1 83 37 is_stmt 0 discriminator 4 view .LVU338
	mov	r9d, DWORD PTR [r10+rax*4]	# _966, MEM[(value_type &)_1192 + ivtmp.530_1154 * 4]
# src/avx_analysis_code_ablations/opt9_abl_hand_vec_no_tile.cpp:82:             row += diff[y * (width + 1) + x];
	.loc 1 82 17 discriminator 1 view .LVU339
	add	edx, DWORD PTR [rdi+rax*4]	# row, MEM[(value_type &)_1158 + ivtmp.530_1154 * 4]
.LVL74:
	.loc 1 83 13 is_stmt 1 view .LVU340
# src/avx_analysis_code_ablations/opt9_abl_hand_vec_no_tile.cpp:83:             counts[y * w + x] = row + (y > 0 ? counts[(y - 1) * w + x] : 0);
	.loc 1 83 37 is_stmt 0 discriminator 4 view .LVU341
	add	r9d, edx	# _966, row
# src/avx_analysis_code_ablations/opt9_abl_hand_vec_no_tile.cpp:83:             counts[y * w + x] = row + (y > 0 ? counts[(y - 1) * w + x] : 0);
	.loc 1 83 31 discriminator 5 view .LVU342
	mov	DWORD PTR [rsi+rax*4], r9d	# MEM[(value_type &)_1196 + ivtmp.530_1154 * 4], _966
	.loc 1 81 9 is_stmt 1 discriminator 1 view .LVU343
.LVL75:
	.loc 1 81 27 discriminator 2 view .LVU344
	inc	rax	# ivtmp.530
.LVL76:
	.loc 1 81 27 is_stmt 0 discriminator 2 view .LVU345
	cmp	r8, rax	# _917, ivtmp.530
	jne	.L31	#,
.LBE2481:
.LBE2485:
	.loc 1 79 5 is_stmt 1 discriminator 1 view .LVU346
	inc	r11d	# y
.LVL77:
	.loc 1 79 23 discriminator 2 view .LVU347
	add	rdi, QWORD PTR 248[rsp]	# ivtmp.543, %sfp
	add	rsi, r14	# ivtmp.546, _720
	cmp	r11d, r13d	# y, _2
	jl	.L32	#,
.LVL78:
.L145:
	.loc 1 79 23 is_stmt 0 discriminator 2 view .LVU348
.LBE2475:
	.loc 1 88 5 is_stmt 1 view .LVU349
.LBB2486:
.LBI2486:
	.loc 5 168 7 view .LVU350
.LBB2487:
.LBI2487:
	.loc 6 88 7 view .LVU351
	.loc 6 88 7 is_stmt 0 view .LVU352
.LBE2487:
.LBE2486:
.LBB2489:
.LBI2489:
	.loc 2 589 7 is_stmt 1 view .LVU353
.LBB2490:
.LBI2490:
	.loc 2 2203 7 view .LVU354
.LBB2491:
.LBB2492:
.LBI2492:
	.loc 5 172 7 view .LVU355
.LBB2493:
.LBI2493:
	.loc 6 92 7 view .LVU356
	.loc 6 92 7 is_stmt 0 view .LVU357
.LBE2493:
.LBE2492:
.LBB2495:
.LBI2495:
	.loc 5 189 7 is_stmt 1 view .LVU358
.LBB2496:
.LBI2496:
	.loc 6 104 7 view .LVU359
.LBE2496:
.LBE2495:
# /usr/include/c++/16/bits/stl_vector.h:2205: 	if (__n > _S_max_size(_Tp_alloc_type(__a)))
	.loc 2 2205 2 is_stmt 0 discriminator 3 view .LVU360
	mov	rax, QWORD PTR 224[rsp]	# _5, %sfp
	shr	rax, 61	# _5,
	jne	.L34	#,
.LVL79:
	.loc 2 2205 2 discriminator 3 view .LVU361
.LBE2491:
.LBE2490:
.LBB2502:
.LBI2502:
	.loc 2 339 7 is_stmt 1 view .LVU362
.LBB2503:
.LBI2503:
	.loc 2 152 2 view .LVU363
.LBB2504:
.LBI2504:
	.loc 5 172 7 view .LVU364
.LBB2505:
.LBI2505:
	.loc 6 92 7 view .LVU365
	.loc 6 92 7 is_stmt 0 view .LVU366
.LBE2505:
.LBE2504:
.LBB2507:
.LBI2507:
	.loc 2 105 2 is_stmt 1 view .LVU367
	.loc 2 105 2 is_stmt 0 view .LVU368
.LBE2507:
.LBE2503:
.LBB2510:
.LBI2510:
	.loc 2 405 7 is_stmt 1 view .LVU369
.LBB2511:
.LBB2512:
.LBI2512:
	.loc 2 386 7 view .LVU370
.LBB2513:
# /usr/include/c++/16/bits/stl_vector.h:389: 	return __n != 0 ? _Tr::allocate(_M_impl, __n) : pointer();
	.loc 2 389 18 is_stmt 0 view .LVU371
	cmp	QWORD PTR 80[rsp], 0	# %sfp,
	je	.L158	#,
.L35:
.LBB2514:
.LBB2515:
.LBB2516:
# /usr/include/c++/16/bits/new_allocator.h:162: 	  return static_cast<_Tp*>(_GLIBCXX_OPERATOR_NEW(__n * sizeof(_Tp)));
	.loc 6 162 68 view .LVU372
	mov	rdx, QWORD PTR 184[rsp]	# tmp1491, %sfp
	vmovaps	XMMWORD PTR 224[rsp], xmm4	# %sfp, tmp1526
.LVL80:
	.loc 6 162 68 view .LVU373
.LBE2516:
.LBE2515:
.LBI2514:
	.loc 8 637 7 is_stmt 1 view .LVU374
.LBB2519:
.LBI2515:
	.loc 6 129 7 view .LVU375
.LBB2517:
# /usr/include/c++/16/bits/new_allocator.h:162: 	  return static_cast<_Tp*>(_GLIBCXX_OPERATOR_NEW(__n * sizeof(_Tp)));
	.loc 6 162 68 is_stmt 0 view .LVU376
	add	rdx, QWORD PTR 80[rsp]	# tmp1491, %sfp
	sal	rdx, 2	# tmp886,
	mov	rdi, rdx	# _641, tmp886
	mov	QWORD PTR 248[rsp], rdx	# %sfp, tmp886
	mov	QWORD PTR 80[rsp], rdx	# %sfp, _641
.LVL81:
.LEHB3:
	.loc 6 162 68 view .LVU377
	call	"_Znwm"@PLT	#
.LVL82:
.LEHE3:
.LBE2517:
.LBE2519:
.LBE2514:
.LBE2513:
.LBE2512:
.LBE2511:
.LBE2510:
.LBE2502:
.LBB2549:
.LBB2550:
.LBB2551:
.LBB2552:
.LBB2553:
.LBB2554:
.LBB2555:
.LBB2556:
# /usr/include/c++/16/bits/stl_construct.h:133:       ::new(static_cast<void*>(__p)) _Tp(std::forward<_Args>(__args)...);
	.loc 11 133 7 discriminator 1 view .LVU378
	mov	rdx, QWORD PTR 248[rsp]	# tmp886, %sfp
.LBE2556:
.LBE2555:
.LBE2554:
.LBE2553:
.LBE2552:
.LBE2551:
.LBE2550:
.LBE2549:
.LBB2572:
.LBB2541:
.LBB2534:
.LBB2528:
.LBB2522:
.LBB2521:
.LBB2520:
.LBB2518:
# /usr/include/c++/16/bits/new_allocator.h:162: 	  return static_cast<_Tp*>(_GLIBCXX_OPERATOR_NEW(__n * sizeof(_Tp)));
	.loc 6 162 68 view .LVU379
	mov	rdi, rax	# _599, _599
.LVL83:
	.loc 6 162 68 view .LVU380
.LBE2518:
.LBE2520:
.LBE2521:
.LBE2522:
.LBE2528:
.LBE2534:
.LBE2541:
.LBE2572:
.LBB2573:
.LBI2549:
	.loc 2 1987 7 is_stmt 1 view .LVU381
.LBB2570:
.LBI2550:
	.loc 12 771 5 view .LVU382
.LBB2568:
.LBI2551:
	.loc 12 550 5 view .LVU383
.LBB2566:
.LBB2564:
.LBI2553:
	.loc 12 477 5 view .LVU384
.LBB2562:
.LBB2559:
.LBI2559:
	.loc 12 113 7 view .LVU385
	.loc 12 113 7 is_stmt 0 view .LVU386
.LBE2559:
	.loc 12 485 2 is_stmt 1 discriminator 2 view .LVU387
	.loc 12 491 7 discriminator 2 view .LVU388
.LBB2560:
.LBB2557:
# /usr/include/c++/16/bits/stl_construct.h:133:       ::new(static_cast<void*>(__p)) _Tp(std::forward<_Args>(__args)...);
	.loc 11 133 7 is_stmt 0 discriminator 1 view .LVU389
	xor	esi, esi	#
	call	"memset"@PLT	#
.LVL84:
	.loc 11 133 7 discriminator 1 view .LVU390
.LBE2557:
.LBE2560:
.LBE2562:
.LBE2564:
.LBE2566:
.LBE2568:
.LBE2570:
.LBE2573:
.LBE2489:
.LBB2583:
# src/avx_analysis_code_ablations/opt9_abl_hand_vec_no_tile.cpp:90:     for (const SubParams& p : params) {
	.loc 1 90 31 discriminator 6 view .LVU391
	mov	rcx, QWORD PTR 128[rsp]	# __new_finish, %sfp
	vmovaps	xmm4, XMMWORD PTR 224[rsp]	# tmp1526, %sfp
.LBE2583:
.LBB2718:
.LBB2574:
.LBB2571:
.LBB2569:
.LBB2567:
.LBB2565:
.LBB2563:
.LBB2561:
.LBB2558:
# /usr/include/c++/16/bits/stl_construct.h:133:       ::new(static_cast<void*>(__p)) _Tp(std::forward<_Args>(__args)...);
	.loc 11 133 7 discriminator 1 view .LVU392
	mov	rdi, rax	# _599,
.LVL85:
	.loc 11 133 7 discriminator 1 view .LVU393
.LBE2558:
.LBE2561:
.LBE2563:
.LBE2565:
.LBE2567:
.LBE2569:
.LBE2571:
.LBE2574:
.LBE2718:
.LBB2719:
	.loc 1 90 31 is_stmt 1 discriminator 5 view .LVU394
# src/avx_analysis_code_ablations/opt9_abl_hand_vec_no_tile.cpp:90:     for (const SubParams& p : params) {
	.loc 1 90 31 is_stmt 0 discriminator 6 view .LVU395
	cmp	QWORD PTR 112[rsp], rcx	# %sfp, __new_finish
	je	.L41	#,
.LVL86:
.L37:
.LBB2584:
.LBB2585:
.LBB2586:
# src/avx_analysis_code_ablations/opt9_abl_hand_vec_no_tile.cpp:98:             size_t ind_lbot = ind_ltop + width * 3;
	.loc 1 98 48 view .LVU396
	mov	rcx, QWORD PTR 120[rsp]	# _629, %sfp
	mov	rsi, QWORD PTR 112[rsp]	# params$_M_start, %sfp
	mov	DWORD PTR 44[rsp], r15d	# %sfp, _1
	mov	DWORD PTR 40[rsp], r13d	# %sfp, _2
	lea	rax, [rcx+rcx]	# tmp1490,
	mov	QWORD PTR 200[rsp], rsi	# %sfp, params$_M_start
	add	rcx, rax	# _86, tmp1490
	mov	QWORD PTR 96[rsp], r12	# %sfp, _26
	mov	QWORD PTR 176[rsp], rcx	# %sfp, _86
	sal	rcx, 2	# tmp898,
	mov	QWORD PTR 168[rsp], rcx	# %sfp, tmp898
	mov	QWORD PTR 32[rsp], rbx	# %sfp, _300
	mov	QWORD PTR 104[rsp], rdi	# %sfp, _599
	mov	QWORD PTR 24[rsp], rax	# %sfp, tmp1490
	.p2align 4,,10
	.p2align 3
.L51:
.LVL87:
	.loc 1 98 48 view .LVU397
.LBE2586:
.LBE2585:
	.loc 1 91 9 is_stmt 1 view .LVU398
.LBB2693:
.LBI2693:
	.file 13 "/usr/lib/gcc/x86_64-linux-gnu/16/include/avxintrin.h"
	.loc 13 1271 1 view .LVU399
.LBB2694:
	.loc 13 1273 3 view .LVU400
	.loc 13 1273 3 is_stmt 0 view .LVU401
.LBE2694:
.LBE2693:
	.loc 1 92 9 is_stmt 1 view .LVU402
.LBB2696:
.LBI2696:
	.loc 13 1271 1 view .LVU403
.LBB2697:
	.loc 13 1273 3 view .LVU404
	.loc 13 1273 3 is_stmt 0 view .LVU405
.LBE2697:
.LBE2696:
	.loc 1 93 9 is_stmt 1 view .LVU406
.LBB2699:
.LBI2699:
	.loc 13 1271 1 view .LVU407
.LBB2700:
	.loc 13 1273 3 view .LVU408
	.loc 13 1273 3 is_stmt 0 view .LVU409
.LBE2700:
.LBE2699:
	.loc 1 94 9 is_stmt 1 view .LVU410
.LBB2702:
.LBI2702:
	.loc 13 1271 1 view .LVU411
.LBB2703:
	.loc 13 1273 3 view .LVU412
	.loc 13 1273 3 is_stmt 0 view .LVU413
.LBE2703:
.LBE2702:
	.loc 1 96 9 is_stmt 1 view .LVU414
.LBB2705:
# src/avx_analysis_code_ablations/opt9_abl_hand_vec_no_tile.cpp:96:         for (int y = p.y_begin; y < p.y_end; ++y) {
	.loc 1 96 18 is_stmt 0 view .LVU415
	mov	rax, QWORD PTR 200[rsp]	# ivtmp.528, %sfp
	mov	ebx, DWORD PTR 32[rax]	# y, MEM[(int *)_1129 + 32B]
# src/avx_analysis_code_ablations/opt9_abl_hand_vec_no_tile.cpp:96:         for (int y = p.y_begin; y < p.y_end; ++y) {
	.loc 1 96 39 discriminator 2 view .LVU416
	mov	ecx, DWORD PTR 36[rax]	# _371, MEM[(int *)_1129 + 36B]
	mov	rdx, rax	# ivtmp.528, ivtmp.528
# src/avx_analysis_code_ablations/opt9_abl_hand_vec_no_tile.cpp:96:         for (int y = p.y_begin; y < p.y_end; ++y) {
	.loc 1 96 18 view .LVU417
	mov	DWORD PTR 240[rsp], ebx	# %sfp, y
.LVL88:
	.loc 1 96 35 is_stmt 1 discriminator 2 view .LVU418
# src/avx_analysis_code_ablations/opt9_abl_hand_vec_no_tile.cpp:96:         for (int y = p.y_begin; y < p.y_end; ++y) {
	.loc 1 96 39 is_stmt 0 discriminator 2 view .LVU419
	mov	DWORD PTR 184[rsp], ecx	# %sfp, _371
# src/avx_analysis_code_ablations/opt9_abl_hand_vec_no_tile.cpp:96:         for (int y = p.y_begin; y < p.y_end; ++y) {
	.loc 1 96 35 discriminator 2 view .LVU420
	cmp	ebx, ecx	# y, _371
	jge	.L42	#,
.LBB2685:
# src/avx_analysis_code_ablations/opt9_abl_hand_vec_no_tile.cpp:97:             size_t ind_ltop = ((y + p.sy) * width + (p.x_begin + p.sx)) * 3;
	.loc 1 97 56 view .LVU421
	movsxd	rsi, DWORD PTR 24[rax]	#, MEM[(int *)_1129 + 24B]
.LBE2685:
.LBE2705:
# src/avx_analysis_code_ablations/opt9_abl_hand_vec_no_tile.cpp:91:         const __m256 Avx = _mm256_set1_ps(p.A);
	.loc 1 91 45 view .LVU422
	vmovss	xmm16, DWORD PTR 8[rax]	# _73, MEM[(float *)_1129 + 8B]
# src/avx_analysis_code_ablations/opt9_abl_hand_vec_no_tile.cpp:92:         const __m256 Bvx = _mm256_set1_ps(p.B);
	.loc 1 92 45 view .LVU423
	vmovss	xmm15, DWORD PTR 12[rax]	# _74, MEM[(float *)_1129 + 12B]
# src/avx_analysis_code_ablations/opt9_abl_hand_vec_no_tile.cpp:93:         const __m256 Cvx = _mm256_set1_ps(p.C);
	.loc 1 93 45 view .LVU424
	vmovss	xmm14, DWORD PTR 16[rax]	# _75, MEM[(float *)_1129 + 16B]
# src/avx_analysis_code_ablations/opt9_abl_hand_vec_no_tile.cpp:94:         const __m256 Dvx = _mm256_set1_ps(p.D);
	.loc 1 94 45 view .LVU425
	vmovss	xmm13, DWORD PTR 20[rax]	# _76, MEM[(float *)_1129 + 20B]
.LBB2706:
.LBB2686:
# src/avx_analysis_code_ablations/opt9_abl_hand_vec_no_tile.cpp:97:             size_t ind_ltop = ((y + p.sy) * width + (p.x_begin + p.sx)) * 3;
	.loc 1 97 64 view .LVU426
	mov	ecx, DWORD PTR [rax]	# _83, MEM[(int *)_1129]
.LBE2686:
.LBE2706:
# src/avx_analysis_code_ablations/opt9_abl_hand_vec_no_tile.cpp:91:         const __m256 Avx = _mm256_set1_ps(p.A);
	.loc 1 91 45 view .LVU427
	vbroadcastss	ymm18, xmm16	# tmp1557, _73
.LBB2707:
.LBB2687:
# src/avx_analysis_code_ablations/opt9_abl_hand_vec_no_tile.cpp:107:             const int x_stop = (p.x_end - p.x_begin) * 3;
	.loc 1 107 41 view .LVU428
	mov	eax, DWORD PTR 28[rax]	# MEM[(int *)_1129 + 28B], MEM[(int *)_1129 + 28B]
	movsxd	r8, DWORD PTR 4[rdx]	# _391, MEM[(int *)_1129 + 4B]
.LBE2687:
.LBE2707:
# src/avx_analysis_code_ablations/opt9_abl_hand_vec_no_tile.cpp:92:         const __m256 Bvx = _mm256_set1_ps(p.B);
	.loc 1 92 45 view .LVU429
	vbroadcastss	ymm17, xmm15	# tmp1558, _74
# src/avx_analysis_code_ablations/opt9_abl_hand_vec_no_tile.cpp:93:         const __m256 Cvx = _mm256_set1_ps(p.C);
	.loc 1 93 45 view .LVU430
	vbroadcastss	ymm11, xmm14	# tmp1559, _75
	mov	rdx, QWORD PTR 120[rsp]	# _629, %sfp
.LBB2708:
.LBB2688:
# src/avx_analysis_code_ablations/opt9_abl_hand_vec_no_tile.cpp:97:             size_t ind_ltop = ((y + p.sy) * width + (p.x_begin + p.sx)) * 3;
	.loc 1 97 64 view .LVU431
	add	ecx, esi	# _83, _81
.LBE2688:
.LBE2708:
# src/avx_analysis_code_ablations/opt9_abl_hand_vec_no_tile.cpp:94:         const __m256 Dvx = _mm256_set1_ps(p.D);
	.loc 1 94 45 view .LVU432
	vbroadcastss	ymm19, xmm13	# tmp1560, _76
.LBB2709:
.LBB2695:
# /usr/lib/gcc/x86_64-linux-gnu/16/include/avxintrin.h:1274: 				 __A, __A, __A, __A };
	.loc 13 1274 25 view .LVU433
	vmovaps	ymm3, ymm18	# _257, tmp1557
.LBE2695:
.LBE2709:
.LBB2710:
.LBB2689:
# src/avx_analysis_code_ablations/opt9_abl_hand_vec_no_tile.cpp:107:             const int x_stop = (p.x_end - p.x_begin) * 3;
	.loc 1 107 41 view .LVU434
	sub	eax, esi	# MEM[(int *)_1129 + 28B], _81
.LBE2689:
.LBE2710:
.LBB2711:
.LBB2698:
# /usr/lib/gcc/x86_64-linux-gnu/16/include/avxintrin.h:1274: 				 __A, __A, __A, __A };
	.loc 13 1274 25 view .LVU435
	vmovaps	ymm2, ymm17	# _258, tmp1558
.LBE2698:
.LBE2711:
.LBB2712:
.LBB2701:
	vmovaps	ymm1, ymm11	# _259, tmp1559
.LBE2701:
.LBE2712:
.LBB2713:
.LBB2690:
# src/avx_analysis_code_ablations/opt9_abl_hand_vec_no_tile.cpp:97:             size_t ind_ltop = ((y + p.sy) * width + (p.x_begin + p.sx)) * 3;
	.loc 1 97 64 view .LVU436
	movsxd	rcx, ecx	# _84, _83
# src/avx_analysis_code_ablations/opt9_abl_hand_vec_no_tile.cpp:107:             const int x_stop = (p.x_end - p.x_begin) * 3;
	.loc 1 107 23 view .LVU437
	lea	edi, [rax+rax*2]	# x_stop_242,
	movsxd	rax, ebx	# _590, y
.LBE2690:
.LBE2713:
.LBB2714:
.LBB2704:
# /usr/lib/gcc/x86_64-linux-gnu/16/include/avxintrin.h:1274: 				 __A, __A, __A, __A };
	.loc 13 1274 25 view .LVU438
	vmovaps	ymm0, ymm19	# _260, tmp1560
	add	r8, rax	# _425, _590
	imul	rax, rdx	# _231, _629
.LBE2704:
.LBE2714:
.LBB2715:
.LBB2691:
# src/avx_analysis_code_ablations/opt9_abl_hand_vec_no_tile.cpp:107:             const int x_stop = (p.x_end - p.x_begin) * 3;
	.loc 1 107 23 view .LVU439
	mov	DWORD PTR 192[rsp], edi	# %sfp, x_stop_242
	imul	r8, rdx	# _679, _629
	add	rax, rsi	# _610, _89
	lea	r9, [rcx+r8]	# _683,
	add	rcx, QWORD PTR 96[rsp]	# _433, %sfp
	lea	rax, [rax+rax*2]	# _130,
	add	rcx, r8	# _269, _679
	lea	r15, [r9+r9*2]	# ivtmp.517,
	lea	rcx, [rcx+rcx*2]	# ivtmp.520,
	mov	QWORD PTR 224[rsp], rcx	# %sfp, ivtmp.520
	mov	rcx, QWORD PTR 104[rsp]	# _599, %sfp
	lea	rax, [rcx+rax*4]	# ivtmp.521,
	mov	QWORD PTR 216[rsp], rax	# %sfp, ivtmp.521
	lea	eax, -8[rdi]	# _607,
# src/avx_analysis_code_ablations/opt9_abl_hand_vec_no_tile.cpp:134:             int remaining = x_stop - x;
	.loc 1 134 17 view .LVU440
	mov	ecx, eax	# _277, _607
	shr	eax, 3	# _981,
	and	ecx, -8	# _277,
	inc	rax	# _1231
	add	ecx, 8	# _950,
	sub	edi, ecx	# _876, _950
	mov	rcx, rax	# _983, _1231
	sal	rax, 3	# _651,
	mov	DWORD PTR 248[rsp], edi	# %sfp, _876
	sal	rcx, 5	# _983,
	mov	QWORD PTR 136[rsp], rax	# %sfp, _651
	lea	eax, -1[rdi]	# _748,
	shr	edi, 5	# bnd.316,
	mov	DWORD PTR 152[rsp], eax	# %sfp, _748
	mov	eax, edi	# _325, bnd.316
	sal	rax, 5	# _325,
	mov	QWORD PTR 160[rsp], rcx	# %sfp, _983
	mov	DWORD PTR 156[rsp], edi	# %sfp, bnd.316
	mov	QWORD PTR 144[rsp], rax	# %sfp, _325
.LVL89:
	.p2align 4,,10
	.p2align 3
.L50:
	.loc 1 97 13 is_stmt 1 view .LVU441
	.loc 1 98 13 view .LVU442
# src/avx_analysis_code_ablations/opt9_abl_hand_vec_no_tile.cpp:98:             size_t ind_lbot = ind_ltop + width * 3;
	.loc 1 98 20 is_stmt 0 view .LVU443
	mov	rax, QWORD PTR 224[rsp]	# ivtmp.520, %sfp
.LBB2587:
# src/avx_analysis_code_ablations/opt9_abl_hand_vec_no_tile.cpp:110:             for (; x + 8 <= x_stop; x += 8) {
	.loc 1 110 26 discriminator 2 view .LVU444
	cmp	DWORD PTR 192[rsp], 7	# %sfp,
.LBE2587:
# src/avx_analysis_code_ablations/opt9_abl_hand_vec_no_tile.cpp:99:             size_t ind_rtop = ind_ltop + 3;
	.loc 1 99 20 view .LVU445
	lea	rcx, 3[r15]	# ind_rtop,
# src/avx_analysis_code_ablations/opt9_abl_hand_vec_no_tile.cpp:98:             size_t ind_lbot = ind_ltop + width * 3;
	.loc 1 98 20 view .LVU446
	lea	rdx, -3[rax]	# ind_lbot,
.LVL90:
	.loc 1 99 13 is_stmt 1 view .LVU447
	.loc 1 100 13 view .LVU448
	.loc 1 102 13 view .LVU449
# src/avx_analysis_code_ablations/opt9_abl_hand_vec_no_tile.cpp:104:                         + (size_t)p.x_begin * 3;
	.loc 1 104 47 is_stmt 0 view .LVU450
	mov	rax, QWORD PTR 216[rsp]	# vp, %sfp
.LVL91:
	.loc 1 106 13 is_stmt 1 view .LVU451
	.loc 1 107 13 view .LVU452
	.loc 1 110 13 view .LVU453
.LBB2662:
	.loc 1 110 26 discriminator 2 view .LVU454
	jle	.L159	#,
.LBB2588:
# src/avx_analysis_code_ablations/opt9_abl_hand_vec_no_tile.cpp:111:                 __m128i ltop_b = _mm_loadl_epi64(reinterpret_cast<const __m128i*>(p.SUB + ind_ltop));
	.loc 1 111 85 is_stmt 0 view .LVU455
	mov	rsi, QWORD PTR 200[rsp]	# ivtmp.528, %sfp
	mov	rdi, QWORD PTR 160[rsp]	# _983, %sfp
	mov	rsi, QWORD PTR 40[rsi]	# _94, MEM[(const unsigned char * *)_1129 + 40B]
	add	rdi, rax	# _985, ivtmp.521
	lea	r8, [rsi+rdx]	# ivtmp.509,
.LVL92:
	.p2align 4,,10
	.p2align 3
.L46:
	.loc 1 111 17 is_stmt 1 view .LVU456
.LBB2589:
.LBI2589:
	.file 14 "/usr/lib/gcc/x86_64-linux-gnu/16/include/emmintrin.h"
	.loc 14 711 1 view .LVU457
.LBB2590:
	.loc 14 713 3 view .LVU458
	mov	r9, r8	# _996, ivtmp.509
.LBE2590:
.LBE2589:
.LBB2596:
.LBB2597:
# /usr/lib/gcc/x86_64-linux-gnu/16/include/avx2intrin.h:491:   return (__m256i) __builtin_ia32_pmovzxbd256 ((__v16qi)__X);
	.file 15 "/usr/lib/gcc/x86_64-linux-gnu/16/include/avx2intrin.h"
	.loc 15 491 47 is_stmt 0 view .LVU459
	vpmovzxbd	ymm6, QWORD PTR [r8]	# tmp938, MEM[(__m64_u * {ref-all})_998]
.LBE2597:
.LBE2596:
.LBB2599:
.LBB2600:
	vpmovzxbd	ymm5, QWORD PTR 3[r8]	# tmp948, MEM[(__m64_u * {ref-all})_998 + 3B]
.LBE2600:
.LBE2599:
# src/avx_analysis_code_ablations/opt9_abl_hand_vec_no_tile.cpp:128:                 vp += 8;
	.loc 1 128 20 view .LVU460
	add	rax, 32	# vp,
.LVL93:
	.loc 1 128 20 view .LVU461
	sub	r9, rdx	# _996, ind_lbot
.LVL94:
.LBB2602:
.LBB2595:
.LBB2591:
.LBI2591:
	.loc 14 600 1 is_stmt 1 view .LVU462
.LBB2592:
	.loc 14 602 3 view .LVU463
.LBB2593:
.LBI2593:
	.loc 14 594 1 view .LVU464
.LBB2594:
	.loc 14 596 3 view .LVU465
	.loc 14 596 3 is_stmt 0 view .LVU466
.LBE2594:
.LBE2593:
.LBE2592:
.LBE2591:
.LBE2595:
.LBE2602:
	.loc 1 112 17 is_stmt 1 view .LVU467
.LBB2603:
.LBI2603:
	.loc 14 711 1 view .LVU468
.LBB2604:
	.loc 14 713 3 view .LVU469
.LBB2605:
.LBI2605:
	.loc 14 600 1 view .LVU470
.LBB2606:
	.loc 14 602 3 view .LVU471
.LBB2607:
.LBI2607:
	.loc 14 594 1 view .LVU472
.LBB2608:
	.loc 14 596 3 view .LVU473
	.loc 14 596 3 is_stmt 0 view .LVU474
.LBE2608:
.LBE2607:
.LBE2606:
.LBE2605:
.LBE2604:
.LBE2603:
	.loc 1 113 17 is_stmt 1 view .LVU475
.LBB2609:
.LBI2609:
	.loc 14 711 1 view .LVU476
.LBB2610:
	.loc 14 713 3 view .LVU477
.LBB2611:
.LBI2611:
	.loc 14 600 1 view .LVU478
.LBB2612:
	.loc 14 602 3 view .LVU479
.LBB2613:
.LBI2613:
	.loc 14 594 1 view .LVU480
.LBB2614:
	.loc 14 596 3 view .LVU481
	.loc 14 596 3 is_stmt 0 view .LVU482
.LBE2614:
.LBE2613:
.LBE2612:
.LBE2611:
.LBE2610:
.LBE2609:
	.loc 1 114 17 is_stmt 1 view .LVU483
.LBB2615:
.LBI2615:
	.loc 14 711 1 view .LVU484
.LBB2616:
	.loc 14 713 3 view .LVU485
.LBB2617:
.LBI2617:
	.loc 14 600 1 view .LVU486
.LBB2618:
	.loc 14 602 3 view .LVU487
.LBB2619:
.LBI2619:
	.loc 14 594 1 view .LVU488
.LBB2620:
	.loc 14 596 3 view .LVU489
	.loc 14 596 3 is_stmt 0 view .LVU490
.LBE2620:
.LBE2619:
.LBE2618:
.LBE2617:
.LBE2616:
.LBE2615:
	.loc 1 116 17 is_stmt 1 view .LVU491
.LBB2621:
.LBI2621:
	.loc 15 489 1 view .LVU492
.LBB2622:
	.loc 15 491 3 view .LVU493
.LBE2622:
.LBE2621:
.LBE2588:
# src/avx_analysis_code_ablations/opt9_abl_hand_vec_no_tile.cpp:110:             for (; x + 8 <= x_stop; x += 8) {
	.loc 1 110 26 is_stmt 0 discriminator 2 view .LVU494
	add	r8, 8	# ivtmp.509,
.LVL95:
.LBB2661:
.LBB2624:
.LBB2623:
# /usr/lib/gcc/x86_64-linux-gnu/16/include/avx2intrin.h:491:   return (__m256i) __builtin_ia32_pmovzxbd256 ((__v16qi)__X);
	.loc 15 491 47 view .LVU495
	vpmovzxbd	ymm8, QWORD PTR [r9+r15]	# tmp933, MEM[(__m64_u * {ref-all})_996 + ivtmp.517_63 * 1]
.LVL96:
	.loc 15 491 47 view .LVU496
.LBE2623:
.LBE2624:
.LBB2625:
.LBI2625:
	.loc 13 405 1 is_stmt 1 view .LVU497
.LBB2626:
	.loc 13 407 3 view .LVU498
.LBE2626:
.LBE2625:
.LBB2628:
.LBB2629:
# /usr/lib/gcc/x86_64-linux-gnu/16/include/avx2intrin.h:491:   return (__m256i) __builtin_ia32_pmovzxbd256 ((__v16qi)__X);
	.loc 15 491 47 is_stmt 0 view .LVU499
	vpmovzxbd	ymm7, QWORD PTR 3[r9+r15]	# tmp943, MEM[(__m64_u * {ref-all})_996 + 3B + ivtmp.517_63 * 1]
.LBE2629:
.LBE2628:
.LBB2631:
.LBB2632:
# /usr/lib/gcc/x86_64-linux-gnu/16/include/avxintrin.h:407:   return (__m256)__builtin_ia32_cvtdq2ps256 ((__v8si) __A);
	.loc 13 407 10 view .LVU500
	vcvtdq2ps	ymm6, ymm6	# tmp942, tmp938
.LBE2632:
.LBE2631:
.LBB2634:
.LBB2635:
	vcvtdq2ps	ymm5, ymm5	# tmp952, tmp948
.LBE2635:
.LBE2634:
.LBB2637:
.LBB2627:
	vcvtdq2ps	ymm8, ymm8	# tmp937, tmp933
.LVL97:
	.loc 13 407 10 view .LVU501
.LBE2627:
.LBE2637:
	.loc 1 117 17 is_stmt 1 view .LVU502
.LBB2638:
.LBI2596:
	.loc 15 489 1 view .LVU503
.LBB2598:
	.loc 15 491 3 view .LVU504
.LBE2598:
.LBE2638:
.LBB2639:
.LBI2631:
	.loc 13 405 1 view .LVU505
.LBB2633:
	.loc 13 407 3 view .LVU506
	.loc 13 407 3 is_stmt 0 view .LVU507
.LBE2633:
.LBE2639:
	.loc 1 118 17 is_stmt 1 view .LVU508
.LBB2640:
.LBI2628:
	.loc 15 489 1 view .LVU509
.LBB2630:
	.loc 15 491 3 view .LVU510
	.loc 15 491 3 is_stmt 0 view .LVU511
.LBE2630:
.LBE2640:
.LBB2641:
.LBI2641:
	.loc 13 405 1 is_stmt 1 view .LVU512
.LBB2642:
	.loc 13 407 3 view .LVU513
.LBE2642:
.LBE2641:
.LBB2644:
.LBB2645:
# /usr/lib/gcc/x86_64-linux-gnu/16/include/fmaintrin.h:65:   return (__m256)__builtin_ia32_vfmaddps256 ((__v8sf)__A, (__v8sf)__B,
	.file 16 "/usr/lib/gcc/x86_64-linux-gnu/16/include/fmaintrin.h"
	.loc 16 65 10 is_stmt 0 view .LVU514
	vfmadd213ps	ymm8, ymm3, YMMWORD PTR -32[rax]	# tmp953, _257, MEM[(__m256_u * {ref-all})vp_588]
.LVL98:
	.loc 16 65 10 view .LVU515
.LBE2645:
.LBE2644:
.LBB2647:
.LBB2643:
# /usr/lib/gcc/x86_64-linux-gnu/16/include/avxintrin.h:407:   return (__m256)__builtin_ia32_cvtdq2ps256 ((__v8si) __A);
	.loc 13 407 10 view .LVU516
	vcvtdq2ps	ymm7, ymm7	# tmp947, tmp943
.LVL99:
	.loc 13 407 10 view .LVU517
.LBE2643:
.LBE2647:
	.loc 1 119 17 is_stmt 1 view .LVU518
.LBB2648:
.LBI2599:
	.loc 15 489 1 view .LVU519
.LBB2601:
	.loc 15 491 3 view .LVU520
.LBE2601:
.LBE2648:
.LBB2649:
.LBI2634:
	.loc 13 405 1 view .LVU521
.LBB2636:
	.loc 13 407 3 view .LVU522
	.loc 13 407 3 is_stmt 0 view .LVU523
.LBE2636:
.LBE2649:
	.loc 1 121 17 is_stmt 1 view .LVU524
.LBB2650:
.LBI2650:
	.loc 13 847 1 view .LVU525
.LBB2651:
	.loc 13 849 3 view .LVU526
.LBE2651:
.LBE2650:
	.loc 1 122 17 view .LVU527
.LBB2652:
.LBI2644:
	.loc 16 63 1 view .LVU528
.LBB2646:
	.loc 16 65 3 view .LVU529
	.loc 16 65 3 is_stmt 0 view .LVU530
.LBE2646:
.LBE2652:
	.loc 1 123 17 is_stmt 1 view .LVU531
.LBB2653:
.LBI2653:
	.loc 16 63 1 view .LVU532
.LBB2654:
	.loc 16 65 3 view .LVU533
# /usr/lib/gcc/x86_64-linux-gnu/16/include/fmaintrin.h:65:   return (__m256)__builtin_ia32_vfmaddps256 ((__v8sf)__A, (__v8sf)__B,
	.loc 16 65 10 is_stmt 0 view .LVU534
	vfmadd132ps	ymm7, ymm8, ymm2	# tmp955, tmp953, _258
.LVL100:
	.loc 16 65 10 view .LVU535
.LBE2654:
.LBE2653:
	.loc 1 124 17 is_stmt 1 view .LVU536
.LBB2655:
.LBI2655:
	.loc 16 63 1 view .LVU537
.LBB2656:
	.loc 16 65 3 view .LVU538
# /usr/lib/gcc/x86_64-linux-gnu/16/include/fmaintrin.h:65:   return (__m256)__builtin_ia32_vfmaddps256 ((__v8sf)__A, (__v8sf)__B,
	.loc 16 65 10 is_stmt 0 view .LVU539
	vfmadd132ps	ymm6, ymm7, ymm1	# tmp956, tmp955, _259
.LVL101:
	.loc 16 65 10 view .LVU540
.LBE2656:
.LBE2655:
	.loc 1 125 17 is_stmt 1 view .LVU541
.LBB2657:
.LBI2657:
	.loc 16 63 1 view .LVU542
.LBB2658:
	.loc 16 65 3 view .LVU543
# /usr/lib/gcc/x86_64-linux-gnu/16/include/fmaintrin.h:65:   return (__m256)__builtin_ia32_vfmaddps256 ((__v8sf)__A, (__v8sf)__B,
	.loc 16 65 10 is_stmt 0 view .LVU544
	vfmadd132ps	ymm5, ymm6, ymm0	# tmp957, tmp956, _260
.LVL102:
	.loc 16 65 10 view .LVU545
.LBE2658:
.LBE2657:
	.loc 1 126 17 is_stmt 1 view .LVU546
.LBB2659:
.LBI2659:
	.loc 13 853 1 view .LVU547
.LBB2660:
	.loc 13 855 3 view .LVU548
# /usr/lib/gcc/x86_64-linux-gnu/16/include/avxintrin.h:855:   *(__m256_u *)__P = __A;
	.loc 13 855 20 is_stmt 0 view .LVU549
	vmovups	YMMWORD PTR -32[rax], ymm5	# MEM[(__m256_u * {ref-all})vp_588], tmp957
.LVL103:
	.loc 13 855 20 view .LVU550
.LBE2660:
.LBE2659:
	.loc 1 128 17 is_stmt 1 view .LVU551
	.loc 1 129 17 view .LVU552
	.loc 1 129 32 view .LVU553
	.loc 1 130 17 view .LVU554
	.loc 1 130 32 view .LVU555
.LBE2661:
	.loc 1 110 13 discriminator 1 view .LVU556
	.loc 1 110 26 discriminator 2 view .LVU557
	cmp	rax, rdi	# vp, _985
	jne	.L46	#,
.LBE2662:
	.loc 1 134 13 view .LVU558
	.loc 1 135 13 view .LVU559
.LVL104:
.LBB2663:
	.loc 1 135 31 discriminator 2 view .LVU560
	mov	r8d, DWORD PTR 248[rsp]	#, %sfp
.LVL105:
	.loc 1 135 31 is_stmt 0 discriminator 2 view .LVU561
	test	r8d, r8d	#
	jle	.L44	#,
	mov	rax, QWORD PTR 136[rsp]	# _651, %sfp
.LVL106:
	.loc 1 135 31 discriminator 2 view .LVU562
	mov	rbx, QWORD PTR 224[rsp]	# ivtmp.520, %sfp
	add	rcx, rax	# ind_rtop, _651
	lea	r14, [rbx+rax]	# ind_rbot,
	lea	r11, [r15+rax]	# ind_ltop,
	add	rdx, rax	# ind_lbot, _651
	cmp	DWORD PTR 152[rsp], 30	# %sfp,
	jbe	.L80	#,
	mov	r12, QWORD PTR 144[rsp]	# _370, %sfp
	lea	r10, [rsi+r14]	# vectp.320,
	lea	r9, [rsi+rdx]	# vectp.326,
.LVL107:
	.loc 1 135 31 discriminator 2 view .LVU563
	add	rcx, rsi	# tmp1487, _94
	lea	rbx, [rsi+r11]	# vectp.344,
	mov	rax, rdi	# ivtmp.482, _985
	xor	r8d, r8d	# ivtmp.484
.LVL108:
	.p2align 4,,10
	.p2align 3
.L48:
.LBB2664:
	.loc 1 136 17 is_stmt 1 view .LVU564
# src/avx_analysis_code_ablations/opt9_abl_hand_vec_no_tile.cpp:138:                 float BL = p.SUB[ind_lbot + k];
	.loc 1 138 46 is_stmt 0 discriminator 40960 view .LVU565
	vmovdqu	ymm5, YMMWORD PTR [r9+r8]	# MEM <const vector(32) unsigned char> [(const unsigned char *)vectp.326_718 + ivtmp.484_384 * 1], MEM <const vector(32) unsigned char> [(const unsigned char *)vectp.326_718 + ivtmp.484_384 * 1]
# src/avx_analysis_code_ablations/opt9_abl_hand_vec_no_tile.cpp:137:                 float TR = p.SUB[ind_rtop + k];
	.loc 1 137 46 discriminator 40960 view .LVU566
	vmovdqu	ymm6, YMMWORD PTR [rcx+r8]	# MEM <const vector(32) unsigned char> [(const unsigned char *)vectp.332_700 + ivtmp.484_384 * 1], MEM <const vector(32) unsigned char> [(const unsigned char *)vectp.332_700 + ivtmp.484_384 * 1]
	sub	rax, -128	# ivtmp.482,
# src/avx_analysis_code_ablations/opt9_abl_hand_vec_no_tile.cpp:136:                 float TL = p.SUB[ind_ltop + k];
	.loc 1 136 46 discriminator 40960 view .LVU567
	vmovdqu	ymm7, YMMWORD PTR [rbx+r8]	# MEM <const vector(32) unsigned char> [(const unsigned char *)vectp.344_595 + ivtmp.484_384 * 1], MEM <const vector(32) unsigned char> [(const unsigned char *)vectp.344_595 + ivtmp.484_384 * 1]
# src/avx_analysis_code_ablations/opt9_abl_hand_vec_no_tile.cpp:138:                 float BL = p.SUB[ind_lbot + k];
	.loc 1 138 23 discriminator 40960 view .LVU568
	vpmovzxbw	ymm9, xmm5	#, MEM <const vector(32) unsigned char> [(const unsigned char *)vectp.326_718 + ivtmp.484_384 * 1]
# src/avx_analysis_code_ablations/opt9_abl_hand_vec_no_tile.cpp:137:                 float TR = p.SUB[ind_rtop + k];
	.loc 1 137 23 discriminator 40960 view .LVU569
	vpmovzxbw	ymm8, xmm6	#, MEM <const vector(32) unsigned char> [(const unsigned char *)vectp.332_700 + ivtmp.484_384 * 1]
# src/avx_analysis_code_ablations/opt9_abl_hand_vec_no_tile.cpp:138:                 float BL = p.SUB[ind_lbot + k];
	.loc 1 138 23 discriminator 40960 view .LVU570
	vextracti32x4	xmm5, ymm5, 0x1	# tmp970, MEM <const vector(32) unsigned char> [(const unsigned char *)vectp.326_718 + ivtmp.484_384 * 1]
	vpmovsxwd	ymm12, xmm9	#, vect_BL_247.329
	vextracti32x4	xmm9, ymm9, 0x1	# tmp983, vect_BL_247.329
# src/avx_analysis_code_ablations/opt9_abl_hand_vec_no_tile.cpp:137:                 float TR = p.SUB[ind_rtop + k];
	.loc 1 137 23 discriminator 40960 view .LVU571
	vpmovsxwd	ymm10, xmm8	#, vect_TR_246.335
# src/avx_analysis_code_ablations/opt9_abl_hand_vec_no_tile.cpp:138:                 float BL = p.SUB[ind_lbot + k];
	.loc 1 138 23 discriminator 40960 view .LVU572
	vpmovsxwd	ymm9, xmm9	# tmp982, tmp983
# src/avx_analysis_code_ablations/opt9_abl_hand_vec_no_tile.cpp:137:                 float TR = p.SUB[ind_rtop + k];
	.loc 1 137 23 discriminator 40960 view .LVU573
	vextracti32x4	xmm8, ymm8, 0x1	# tmp980, vect_TR_246.335
# src/avx_analysis_code_ablations/opt9_abl_hand_vec_no_tile.cpp:138:                 float BL = p.SUB[ind_lbot + k];
	.loc 1 138 23 discriminator 40960 view .LVU574
	vpmovzxbw	ymm5, xmm5	# vect_BL_247.329, tmp970
	vcvtdq2ps	ymm12, ymm12	# vect_BL_247.328_712, tmp975
# src/avx_analysis_code_ablations/opt9_abl_hand_vec_no_tile.cpp:137:                 float TR = p.SUB[ind_rtop + k];
	.loc 1 137 23 discriminator 40960 view .LVU575
	vcvtdq2ps	ymm10, ymm10	# vect_TR_246.334_694, tmp972
# src/avx_analysis_code_ablations/opt9_abl_hand_vec_no_tile.cpp:138:                 float BL = p.SUB[ind_lbot + k];
	.loc 1 138 23 discriminator 40960 view .LVU576
	vcvtdq2ps	ymm9, ymm9	# vect_BL_247.328_711, tmp982
# src/avx_analysis_code_ablations/opt9_abl_hand_vec_no_tile.cpp:140:                 vp[k] += p.A*TL + p.B*TR + p.C*BL + p.D*BR;
	.loc 1 140 47 discriminator 40960 view .LVU577
	vmulps	ymm9, ymm9, ymm1	# vect__123.330_707, vect_BL_247.328_711, _259
# src/avx_analysis_code_ablations/opt9_abl_hand_vec_no_tile.cpp:137:                 float TR = p.SUB[ind_rtop + k];
	.loc 1 137 23 discriminator 40960 view .LVU578
	vpmovsxwd	ymm8, xmm8	# tmp979, tmp980
	vextracti32x4	xmm6, ymm6, 0x1	# tmp967, MEM <const vector(32) unsigned char> [(const unsigned char *)vectp.332_700 + ivtmp.484_384 * 1]
# src/avx_analysis_code_ablations/opt9_abl_hand_vec_no_tile.cpp:140:                 vp[k] += p.A*TL + p.B*TR + p.C*BL + p.D*BR;
	.loc 1 140 47 discriminator 40960 view .LVU579
	vmulps	ymm12, ymm12, ymm1	# vect__123.330_708, vect_BL_247.328_712, _259
# src/avx_analysis_code_ablations/opt9_abl_hand_vec_no_tile.cpp:137:                 float TR = p.SUB[ind_rtop + k];
	.loc 1 137 23 discriminator 40960 view .LVU580
	vcvtdq2ps	ymm8, ymm8	# vect_TR_246.334_693, tmp979
	vpmovzxbw	ymm6, xmm6	# vect_TR_246.335, tmp967
# src/avx_analysis_code_ablations/opt9_abl_hand_vec_no_tile.cpp:136:                 float TL = p.SUB[ind_ltop + k];
	.loc 1 136 23 discriminator 40960 view .LVU581
	vpmovzxbw	ymm22, xmm7	#, MEM <const vector(32) unsigned char> [(const unsigned char *)vectp.344_595 + ivtmp.484_384 * 1]
	vextracti32x4	xmm7, ymm7, 0x1	# tmp964, MEM <const vector(32) unsigned char> [(const unsigned char *)vectp.344_595 + ivtmp.484_384 * 1]
	vpmovzxbw	ymm7, xmm7	# vect_TL_245.347, tmp964
.LVL109:
	.loc 1 137 17 is_stmt 1 view .LVU582
	.loc 1 138 17 view .LVU583
	vfmadd132ps	ymm8, ymm9, ymm2	# _992, vect__123.330_707, _258
# src/avx_analysis_code_ablations/opt9_abl_hand_vec_no_tile.cpp:138:                 float BL = p.SUB[ind_lbot + k];
	.loc 1 138 23 is_stmt 0 discriminator 40960 view .LVU584
	vpmovsxwd	ymm9, xmm5	#, vect_BL_247.329
	vextracti32x4	xmm5, ymm5, 0x1	# tmp997, vect_BL_247.329
	vcvtdq2ps	ymm9, ymm9	# vect_BL_247.328_710, tmp989
# src/avx_analysis_code_ablations/opt9_abl_hand_vec_no_tile.cpp:140:                 vp[k] += p.A*TL + p.B*TR + p.C*BL + p.D*BR;
	.loc 1 140 47 discriminator 40960 view .LVU585
	vmulps	ymm9, ymm9, ymm1	# vect__123.330_706, vect_BL_247.328_710, _259
	vfmadd132ps	ymm10, ymm12, ymm2	# _875, vect__123.330_708, _258
# src/avx_analysis_code_ablations/opt9_abl_hand_vec_no_tile.cpp:138:                 float BL = p.SUB[ind_lbot + k];
	.loc 1 138 23 discriminator 40960 view .LVU586
	vpmovsxwd	ymm5, xmm5	# tmp996, tmp997
	vcvtdq2ps	ymm5, ymm5	# vect_BL_247.328_709, tmp996
# src/avx_analysis_code_ablations/opt9_abl_hand_vec_no_tile.cpp:140:                 vp[k] += p.A*TL + p.B*TR + p.C*BL + p.D*BR;
	.loc 1 140 47 discriminator 40960 view .LVU587
	vmulps	ymm5, ymm5, ymm1	# vect__123.330_705, vect_BL_247.328_709, _259
# src/avx_analysis_code_ablations/opt9_abl_hand_vec_no_tile.cpp:137:                 float TR = p.SUB[ind_rtop + k];
	.loc 1 137 23 discriminator 40960 view .LVU588
	vpmovsxwd	ymm12, xmm6	#, vect_TR_246.335
	vextracti32x4	xmm6, ymm6, 0x1	# tmp994, vect_TR_246.335
	vcvtdq2ps	ymm12, ymm12	# vect_TR_246.334_692, tmp986
	vpmovsxwd	ymm6, xmm6	# tmp993, tmp994
	vcvtdq2ps	ymm6, ymm6	# vect_TR_246.334_691, tmp993
	vfmadd132ps	ymm12, ymm9, ymm2	# _965, vect__123.330_706, _258
# src/avx_analysis_code_ablations/opt9_abl_hand_vec_no_tile.cpp:136:                 float TL = p.SUB[ind_ltop + k];
	.loc 1 136 23 discriminator 40960 view .LVU589
	vpmovsxwd	ymm9, xmm22	#, vect_TL_245.347
	vcvtdq2ps	ymm9, ymm9	# vect_TL_245.346_577, tmp1007
	vfmadd213ps	ymm9, ymm3, YMMWORD PTR -128[rax]	# tmp1005, _257, MEM <vector(8) float> [(float *)_1050]
	vfmadd132ps	ymm6, ymm5, ymm2	# _1014, vect__123.330_705, _258
.LVL110:
	.loc 1 139 17 is_stmt 1 view .LVU590
# src/avx_analysis_code_ablations/opt9_abl_hand_vec_no_tile.cpp:139:                 float BR = p.SUB[ind_rbot + k];
	.loc 1 139 46 is_stmt 0 discriminator 40960 view .LVU591
	vmovdqu	ymm5, YMMWORD PTR [r10+r8]	# MEM <const vector(32) unsigned char> [(const unsigned char *)vectp.320_736 + ivtmp.484_384 * 1], MEM <const vector(32) unsigned char> [(const unsigned char *)vectp.320_736 + ivtmp.484_384 * 1]
	add	r8, 32	# ivtmp.484,
# src/avx_analysis_code_ablations/opt9_abl_hand_vec_no_tile.cpp:139:                 float BR = p.SUB[ind_rbot + k];
	.loc 1 139 23 discriminator 40960 view .LVU592
	vpmovzxbw	ymm21, xmm5	#, MEM <const vector(32) unsigned char> [(const unsigned char *)vectp.320_736 + ivtmp.484_384 * 1]
	vextracti32x4	xmm5, ymm5, 0x1	# tmp1001, MEM <const vector(32) unsigned char> [(const unsigned char *)vectp.320_736 + ivtmp.484_384 * 1]
	vpmovsxwd	ymm20, xmm21	#, vect_BR_248.323
	vextracti32x4	xmm21, ymm21, 0x1	# tmp1012, vect_BR_248.323
	vpmovzxbw	ymm5, xmm5	# vect_BR_248.323, tmp1001
.LVL111:
	.loc 1 140 17 is_stmt 1 view .LVU593
# src/avx_analysis_code_ablations/opt9_abl_hand_vec_no_tile.cpp:139:                 float BR = p.SUB[ind_rbot + k];
	.loc 1 139 23 is_stmt 0 discriminator 40960 view .LVU594
	vcvtdq2ps	ymm20, ymm20	# vect_BR_248.322_730, tmp1003
	vpmovsxwd	ymm21, xmm21	# tmp1011, tmp1012
	vfmadd132ps	ymm20, ymm9, ymm0	# _926, tmp1005, _260
# src/avx_analysis_code_ablations/opt9_abl_hand_vec_no_tile.cpp:136:                 float TL = p.SUB[ind_ltop + k];
	.loc 1 136 23 discriminator 40960 view .LVU595
	vextracti32x4	xmm9, ymm22, 0x1	# tmp1016, vect_TL_245.347
	vpmovsxwd	ymm22, xmm7	#, vect_TL_245.347
# src/avx_analysis_code_ablations/opt9_abl_hand_vec_no_tile.cpp:139:                 float BR = p.SUB[ind_rbot + k];
	.loc 1 139 23 discriminator 40960 view .LVU596
	vcvtdq2ps	ymm21, ymm21	# vect_BR_248.322_729, tmp1011
# src/avx_analysis_code_ablations/opt9_abl_hand_vec_no_tile.cpp:136:                 float TL = p.SUB[ind_ltop + k];
	.loc 1 136 23 discriminator 40960 view .LVU597
	vpmovsxwd	ymm9, xmm9	# tmp1015, tmp1016
	vextracti32x4	xmm7, ymm7, 0x1	# tmp1033, vect_TL_245.347
	vcvtdq2ps	ymm22, ymm22	# vect_TL_245.346_575, tmp1023
	vcvtdq2ps	ymm9, ymm9	# vect_TL_245.346_576, tmp1015
	vfmadd213ps	ymm9, ymm3, YMMWORD PTR -96[rax]	# tmp1013, _257, MEM <vector(8) float> [(float *)_1050 + 32B]
	vfmadd213ps	ymm22, ymm3, YMMWORD PTR -64[rax]	# tmp1021, _257, MEM <vector(8) float> [(float *)_1050 + 64B]
	vpmovsxwd	ymm7, xmm7	# tmp1032, tmp1033
	vcvtdq2ps	ymm7, ymm7	# vect_TL_245.346_574, tmp1032
# src/avx_analysis_code_ablations/opt9_abl_hand_vec_no_tile.cpp:140:                 vp[k] += p.A*TL + p.B*TR + p.C*BL + p.D*BR;
	.loc 1 140 23 discriminator 40960 view .LVU598
	vfmadd213ps	ymm7, ymm3, YMMWORD PTR -32[rax]	# tmp1030, _257, MEM <vector(8) float> [(float *)_1050 + 96B]
	vaddps	ymm10, ymm10, ymm20	# vect__128.352_545, _875, _926
	vfmadd132ps	ymm21, ymm9, ymm0	# _1005, tmp1013, _260
# src/avx_analysis_code_ablations/opt9_abl_hand_vec_no_tile.cpp:139:                 float BR = p.SUB[ind_rbot + k];
	.loc 1 139 23 discriminator 40960 view .LVU599
	vpmovsxwd	ymm9, xmm5	#, vect_BR_248.323
	vextracti32x4	xmm5, ymm5, 0x1	# tmp1029, vect_BR_248.323
	vpmovsxwd	ymm5, xmm5	# tmp1028, tmp1029
	vcvtdq2ps	ymm9, ymm9	# vect_BR_248.322_728, tmp1019
	vfmadd132ps	ymm9, ymm22, ymm0	# _971, tmp1021, _260
# src/avx_analysis_code_ablations/opt9_abl_hand_vec_no_tile.cpp:140:                 vp[k] += p.A*TL + p.B*TR + p.C*BL + p.D*BR;
	.loc 1 140 23 discriminator 40960 view .LVU600
	vmovups	YMMWORD PTR -128[rax], ymm10	# MEM <vector(8) float> [(float *)_1050], vect__128.352_545
# src/avx_analysis_code_ablations/opt9_abl_hand_vec_no_tile.cpp:139:                 float BR = p.SUB[ind_rbot + k];
	.loc 1 139 23 discriminator 40960 view .LVU601
	vcvtdq2ps	ymm5, ymm5	# vect_BR_248.322_727, tmp1028
# src/avx_analysis_code_ablations/opt9_abl_hand_vec_no_tile.cpp:140:                 vp[k] += p.A*TL + p.B*TR + p.C*BL + p.D*BR;
	.loc 1 140 23 discriminator 40960 view .LVU602
	vfmadd132ps	ymm5, ymm7, ymm0	# tmp1026, tmp1030, _260
	vaddps	ymm8, ymm8, ymm21	# vect__128.352_544, _992, _1005
	vaddps	ymm12, ymm12, ymm9	# vect__128.352_543, _965, _971
	vaddps	ymm5, ymm5, ymm6	# vect__128.352, tmp1026, _1014
	vmovups	YMMWORD PTR -96[rax], ymm8	# MEM <vector(8) float> [(float *)_1050 + 32B], vect__128.352_544
	vmovups	YMMWORD PTR -64[rax], ymm12	# MEM <vector(8) float> [(float *)_1050 + 64B], vect__128.352_543
	vmovups	YMMWORD PTR -32[rax], ymm5	# MEM <vector(8) float> [(float *)_1050 + 96B], vect__128.352
.LBE2664:
	.loc 1 135 13 is_stmt 1 discriminator 1 view .LVU603
	.loc 1 135 31 discriminator 2 view .LVU604
	cmp	r12, r8	# _370, ivtmp.484
	jne	.L48	#,
	mov	ebx, DWORD PTR 156[rsp]	# niters_vector_mult_vf.317, %sfp
	sal	ebx, 5	# niters_vector_mult_vf.317,
	cmp	ebx, DWORD PTR 248[rsp]	# niters_vector_mult_vf.317, %sfp
	je	.L44	#,
	mov	r8d, ebx	# tmp.398, niters_vector_mult_vf.317
.LVL112:
.L47:
	.loc 1 135 31 is_stmt 0 discriminator 2 view .LVU605
	mov	r10d, DWORD PTR 248[rsp]	# niters.355, %sfp
	mov	rax, rdi	# vp, _985
	sub	r10d, ebx	# niters.355, niters_vector_mult_vf.317
	lea	r9d, -1[r10]	# _413,
	cmp	r9d, 14	# _413,
	jbe	.L81	#,
	mov	r12d, ebx	# _373, niters_vector_mult_vf.317
.LBB2665:
# src/avx_analysis_code_ablations/opt9_abl_hand_vec_no_tile.cpp:136:                 float TL = p.SUB[ind_ltop + k];
	.loc 1 136 46 discriminator 69632 view .LVU606
	lea	r13, [rsi+r12]	# tmp1045,
# src/avx_analysis_code_ablations/opt9_abl_hand_vec_no_tile.cpp:137:                 float TR = p.SUB[ind_rtop + k];
	.loc 1 137 46 discriminator 69632 view .LVU607
	vmovdqu	xmm6, XMMWORD PTR [rcx+r12]	# MEM <const vector(16) unsigned char> [(const unsigned char *)vectp.372_268], MEM <const vector(16) unsigned char> [(const unsigned char *)vectp.372_268]
	lea	r9, [r12+r14]	# _372,
# src/avx_analysis_code_ablations/opt9_abl_hand_vec_no_tile.cpp:138:                 float BL = p.SUB[ind_lbot + k];
	.loc 1 138 46 discriminator 69632 view .LVU608
	vmovdqu	xmm5, XMMWORD PTR 0[r13+rdx]	# MEM <const vector(16) unsigned char> [(const unsigned char *)vectp.366_331], MEM <const vector(16) unsigned char> [(const unsigned char *)vectp.366_331]
# src/avx_analysis_code_ablations/opt9_abl_hand_vec_no_tile.cpp:136:                 float TL = p.SUB[ind_ltop + k];
	.loc 1 136 46 discriminator 69632 view .LVU609
	vmovdqu	xmm7, XMMWORD PTR 0[r13+r11]	# MEM <const vector(16) unsigned char> [(const unsigned char *)vectp.384_146], MEM <const vector(16) unsigned char> [(const unsigned char *)vectp.384_146]
	mov	QWORD PTR 208[rsp], r9	# %sfp, _372
	lea	r9, [rdi+r12*4]	# vectp_vp.378,
	.loc 1 136 17 is_stmt 1 view .LVU610
# src/avx_analysis_code_ablations/opt9_abl_hand_vec_no_tile.cpp:137:                 float TR = p.SUB[ind_rtop + k];
	.loc 1 137 23 is_stmt 0 discriminator 69632 view .LVU611
	vpmovzxbw	xmm8, xmm6	# vect_TR_774.375, MEM <const vector(16) unsigned char> [(const unsigned char *)vectp.372_268]
	vpsrldq	xmm6, xmm6, 8	# tmp1052, MEM <const vector(16) unsigned char> [(const unsigned char *)vectp.372_268],
# src/avx_analysis_code_ablations/opt9_abl_hand_vec_no_tile.cpp:138:                 float BL = p.SUB[ind_lbot + k];
	.loc 1 138 23 discriminator 69632 view .LVU612
	vpmovzxbw	xmm9, xmm5	# vect_BL_770.369, MEM <const vector(16) unsigned char> [(const unsigned char *)vectp.366_331]
# src/avx_analysis_code_ablations/opt9_abl_hand_vec_no_tile.cpp:137:                 float TR = p.SUB[ind_rtop + k];
	.loc 1 137 23 discriminator 69632 view .LVU613
	vpmovsxwd	xmm20, xmm8	# tmp1058, vect_TR_774.375
# src/avx_analysis_code_ablations/opt9_abl_hand_vec_no_tile.cpp:136:                 float TL = p.SUB[ind_ltop + k];
	.loc 1 136 23 discriminator 69632 view .LVU614
	vpmovzxbw	xmm10, xmm7	# vect_TL_778.387, MEM <const vector(16) unsigned char> [(const unsigned char *)vectp.384_146]
# src/avx_analysis_code_ablations/opt9_abl_hand_vec_no_tile.cpp:138:                 float BL = p.SUB[ind_lbot + k];
	.loc 1 138 23 discriminator 69632 view .LVU615
	vpmovsxwd	xmm12, xmm9	# tmp1060, vect_BL_770.369
	vpsrldq	xmm9, xmm9, 8	# tmp1067, vect_BL_770.369,
# src/avx_analysis_code_ablations/opt9_abl_hand_vec_no_tile.cpp:137:                 float TR = p.SUB[ind_rtop + k];
	.loc 1 137 23 discriminator 69632 view .LVU616
	vpmovzxbw	xmm6, xmm6	# vect_TR_774.375, tmp1052
# src/avx_analysis_code_ablations/opt9_abl_hand_vec_no_tile.cpp:139:                 float BR = p.SUB[ind_rbot + k];
	.loc 1 139 46 discriminator 69632 view .LVU617
	mov	r13, QWORD PTR 208[rsp]	# _372, %sfp
# src/avx_analysis_code_ablations/opt9_abl_hand_vec_no_tile.cpp:137:                 float TR = p.SUB[ind_rtop + k];
	.loc 1 137 23 discriminator 69632 view .LVU618
	vcvtdq2ps	xmm20, xmm20	# vect_TR_774.374_207, tmp1058
# src/avx_analysis_code_ablations/opt9_abl_hand_vec_no_tile.cpp:138:                 float BL = p.SUB[ind_lbot + k];
	.loc 1 138 23 discriminator 69632 view .LVU619
	vpmovsxwd	xmm9, xmm9	# tmp1066, tmp1067
	vpsrldq	xmm5, xmm5, 8	# tmp1056, MEM <const vector(16) unsigned char> [(const unsigned char *)vectp.366_331],
	vcvtdq2ps	xmm12, xmm12	# vect_BL_770.368_316, tmp1060
# src/avx_analysis_code_ablations/opt9_abl_hand_vec_no_tile.cpp:136:                 float TL = p.SUB[ind_ltop + k];
	.loc 1 136 23 discriminator 69632 view .LVU620
	vpmovsxwd	xmm24, xmm10	# tmp1087, vect_TL_778.387
# src/avx_analysis_code_ablations/opt9_abl_hand_vec_no_tile.cpp:138:                 float BL = p.SUB[ind_lbot + k];
	.loc 1 138 23 discriminator 69632 view .LVU621
	vcvtdq2ps	xmm9, xmm9	# vect_BL_770.368_315, tmp1066
# src/avx_analysis_code_ablations/opt9_abl_hand_vec_no_tile.cpp:140:                 vp[k] += p.A*TL + p.B*TR + p.C*BL + p.D*BR;
	.loc 1 140 47 discriminator 69632 view .LVU622
	vmulps	xmm9, xmm9, xmm11	# vect__758.370_307, vect_BL_770.368_315, _1127
# src/avx_analysis_code_ablations/opt9_abl_hand_vec_no_tile.cpp:137:                 float TR = p.SUB[ind_rtop + k];
	.loc 1 137 23 discriminator 69632 view .LVU623
	vpsrldq	xmm8, xmm8, 8	# tmp1064, vect_TR_774.375,
# src/avx_analysis_code_ablations/opt9_abl_hand_vec_no_tile.cpp:138:                 float BL = p.SUB[ind_lbot + k];
	.loc 1 138 23 discriminator 69632 view .LVU624
	vpmovzxbw	xmm5, xmm5	# vect_BL_770.369, tmp1056
# src/avx_analysis_code_ablations/opt9_abl_hand_vec_no_tile.cpp:136:                 float TL = p.SUB[ind_ltop + k];
	.loc 1 136 23 discriminator 69632 view .LVU625
	vcvtdq2ps	xmm24, xmm24	# vect_TL_778.386_119, tmp1087
# src/avx_analysis_code_ablations/opt9_abl_hand_vec_no_tile.cpp:140:                 vp[k] += p.A*TL + p.B*TR + p.C*BL + p.D*BR;
	.loc 1 140 47 discriminator 69632 view .LVU626
	vmulps	xmm12, xmm12, xmm11	# vect__758.370_309, vect_BL_770.368_316, _1127
	vfmadd213ps	xmm24, xmm18, XMMWORD PTR [r9]	# tmp1085, tmp1557, MEM <vector(4) float> [(float *)vectp_vp.378_179]
# src/avx_analysis_code_ablations/opt9_abl_hand_vec_no_tile.cpp:137:                 float TR = p.SUB[ind_rtop + k];
	.loc 1 137 23 discriminator 69632 view .LVU627
	vpmovsxwd	xmm8, xmm8	# tmp1063, tmp1064
	vcvtdq2ps	xmm8, xmm8	# vect_TR_774.374_206, tmp1063
# src/avx_analysis_code_ablations/opt9_abl_hand_vec_no_tile.cpp:136:                 float TL = p.SUB[ind_ltop + k];
	.loc 1 136 23 discriminator 69632 view .LVU628
	vpsrldq	xmm7, xmm7, 8	# tmp1048, MEM <const vector(16) unsigned char> [(const unsigned char *)vectp.384_146],
	vpsrldq	xmm10, xmm10, 8	# tmp1095, vect_TL_778.387,
	vpmovzxbw	xmm7, xmm7	# vect_TL_778.387, tmp1048
.LVL113:
	.loc 1 137 17 is_stmt 1 view .LVU629
	.loc 1 138 17 view .LVU630
# src/avx_analysis_code_ablations/opt9_abl_hand_vec_no_tile.cpp:136:                 float TL = p.SUB[ind_ltop + k];
	.loc 1 136 23 is_stmt 0 discriminator 69632 view .LVU631
	vpmovsxwd	xmm10, xmm10	# tmp1094, tmp1095
	vcvtdq2ps	xmm10, xmm10	# vect_TL_778.386_117, tmp1094
	vfmadd213ps	xmm10, xmm18, XMMWORD PTR 16[r9]	# tmp1092, tmp1557, MEM <vector(4) float> [(float *)vectp_vp.378_179 + 16B]
	vfmadd132ps	xmm8, xmm9, xmm17	# _415, vect__758.370_307, tmp1558
# src/avx_analysis_code_ablations/opt9_abl_hand_vec_no_tile.cpp:138:                 float BL = p.SUB[ind_lbot + k];
	.loc 1 138 23 discriminator 69632 view .LVU632
	vpmovsxwd	xmm9, xmm5	# tmp1072, vect_BL_770.369
	vpsrldq	xmm5, xmm5, 8	# tmp1079, vect_BL_770.369,
	vcvtdq2ps	xmm9, xmm9	# vect_BL_770.368_314, tmp1072
	vfmadd132ps	xmm20, xmm12, xmm17	# _520, vect__758.370_309, tmp1558
# src/avx_analysis_code_ablations/opt9_abl_hand_vec_no_tile.cpp:137:                 float TR = p.SUB[ind_rtop + k];
	.loc 1 137 23 discriminator 69632 view .LVU633
	vpmovsxwd	xmm12, xmm6	# tmp1070, vect_TR_774.375
# src/avx_analysis_code_ablations/opt9_abl_hand_vec_no_tile.cpp:140:                 vp[k] += p.A*TL + p.B*TR + p.C*BL + p.D*BR;
	.loc 1 140 47 discriminator 69632 view .LVU634
	vmulps	xmm9, xmm9, xmm11	# vect__758.370_305, vect_BL_770.368_314, _1127
# src/avx_analysis_code_ablations/opt9_abl_hand_vec_no_tile.cpp:137:                 float TR = p.SUB[ind_rtop + k];
	.loc 1 137 23 discriminator 69632 view .LVU635
	vpsrldq	xmm6, xmm6, 8	# tmp1076, vect_TR_774.375,
# src/avx_analysis_code_ablations/opt9_abl_hand_vec_no_tile.cpp:138:                 float BL = p.SUB[ind_lbot + k];
	.loc 1 138 23 discriminator 69632 view .LVU636
	vpmovsxwd	xmm5, xmm5	# tmp1078, tmp1079
# src/avx_analysis_code_ablations/opt9_abl_hand_vec_no_tile.cpp:137:                 float TR = p.SUB[ind_rtop + k];
	.loc 1 137 23 discriminator 69632 view .LVU637
	vcvtdq2ps	xmm12, xmm12	# vect_TR_774.374_201, tmp1070
# src/avx_analysis_code_ablations/opt9_abl_hand_vec_no_tile.cpp:138:                 float BL = p.SUB[ind_lbot + k];
	.loc 1 138 23 discriminator 69632 view .LVU638
	vcvtdq2ps	xmm5, xmm5	# vect_BL_770.368_313, tmp1078
# src/avx_analysis_code_ablations/opt9_abl_hand_vec_no_tile.cpp:140:                 vp[k] += p.A*TL + p.B*TR + p.C*BL + p.D*BR;
	.loc 1 140 47 discriminator 69632 view .LVU639
	vmulps	xmm5, xmm5, xmm11	# vect__758.370_303, vect_BL_770.368_313, _1127
# src/avx_analysis_code_ablations/opt9_abl_hand_vec_no_tile.cpp:137:                 float TR = p.SUB[ind_rtop + k];
	.loc 1 137 23 discriminator 69632 view .LVU640
	vpmovsxwd	xmm6, xmm6	# tmp1075, tmp1076
	vcvtdq2ps	xmm6, xmm6	# vect_TR_774.374_200, tmp1075
	vfmadd132ps	xmm12, xmm9, xmm17	# _1004, vect__758.370_305, tmp1558
	vfmadd132ps	xmm6, xmm5, xmm17	# _970, vect__758.370_303, tmp1558
.LVL114:
	.loc 1 139 17 is_stmt 1 view .LVU641
# src/avx_analysis_code_ablations/opt9_abl_hand_vec_no_tile.cpp:139:                 float BR = p.SUB[ind_rbot + k];
	.loc 1 139 46 is_stmt 0 discriminator 69632 view .LVU642
	vmovdqu	xmm5, XMMWORD PTR [rsi+r13]	# MEM <const vector(16) unsigned char> [(const unsigned char *)vectp.360_376], MEM <const vector(16) unsigned char> [(const unsigned char *)vectp.360_376]
# src/avx_analysis_code_ablations/opt9_abl_hand_vec_no_tile.cpp:139:                 float BR = p.SUB[ind_rbot + k];
	.loc 1 139 23 discriminator 69632 view .LVU643
	vpmovzxbw	xmm9, xmm5	# vect_BR_766.363, MEM <const vector(16) unsigned char> [(const unsigned char *)vectp.360_376]
	vpsrldq	xmm5, xmm5, 8	# tmp1082, MEM <const vector(16) unsigned char> [(const unsigned char *)vectp.360_376],
	vpmovsxwd	xmm21, xmm9	# tmp1084, vect_BR_766.363
	vpsrldq	xmm9, xmm9, 8	# tmp1091, vect_BR_766.363,
	vpmovzxbw	xmm5, xmm5	# vect_BR_766.363, tmp1082
.LVL115:
	.loc 1 140 17 is_stmt 1 view .LVU644
# src/avx_analysis_code_ablations/opt9_abl_hand_vec_no_tile.cpp:139:                 float BR = p.SUB[ind_rbot + k];
	.loc 1 139 23 is_stmt 0 discriminator 69632 view .LVU645
	vcvtdq2ps	xmm21, xmm21	# vect_BR_766.362_361, tmp1084
	vfmadd132ps	xmm21, xmm24, xmm19	# _541, tmp1085, tmp1560
# src/avx_analysis_code_ablations/opt9_abl_hand_vec_no_tile.cpp:136:                 float TL = p.SUB[ind_ltop + k];
	.loc 1 136 23 discriminator 69632 view .LVU646
	vpmovsxwd	xmm24, xmm7	# tmp1101, vect_TL_778.387
# src/avx_analysis_code_ablations/opt9_abl_hand_vec_no_tile.cpp:139:                 float BR = p.SUB[ind_rbot + k];
	.loc 1 139 23 discriminator 69632 view .LVU647
	vpmovsxwd	xmm9, xmm9	# tmp1090, tmp1091
# src/avx_analysis_code_ablations/opt9_abl_hand_vec_no_tile.cpp:136:                 float TL = p.SUB[ind_ltop + k];
	.loc 1 136 23 discriminator 69632 view .LVU648
	vpsrldq	xmm7, xmm7, 8	# tmp1110, vect_TL_778.387,
	vcvtdq2ps	xmm24, xmm24	# vect_TL_778.386_57, tmp1101
	vfmadd213ps	xmm24, xmm18, XMMWORD PTR 32[r9]	# tmp1099, tmp1557, MEM <vector(4) float> [(float *)vectp_vp.378_179 + 32B]
# src/avx_analysis_code_ablations/opt9_abl_hand_vec_no_tile.cpp:139:                 float BR = p.SUB[ind_rbot + k];
	.loc 1 139 23 discriminator 69632 view .LVU649
	vcvtdq2ps	xmm9, xmm9	# vect_BR_766.362_360, tmp1090
# src/avx_analysis_code_ablations/opt9_abl_hand_vec_no_tile.cpp:136:                 float TL = p.SUB[ind_ltop + k];
	.loc 1 136 23 discriminator 69632 view .LVU650
	vpmovsxwd	xmm7, xmm7	# tmp1109, tmp1110
	vfmadd132ps	xmm9, xmm10, xmm19	# _432, tmp1092, tmp1560
# src/avx_analysis_code_ablations/opt9_abl_hand_vec_no_tile.cpp:139:                 float BR = p.SUB[ind_rbot + k];
	.loc 1 139 23 discriminator 69632 view .LVU651
	vpmovsxwd	xmm10, xmm5	# tmp1098, vect_BR_766.363
# src/avx_analysis_code_ablations/opt9_abl_hand_vec_no_tile.cpp:136:                 float TL = p.SUB[ind_ltop + k];
	.loc 1 136 23 discriminator 69632 view .LVU652
	vcvtdq2ps	xmm7, xmm7	# vect_TL_778.386_56, tmp1109
# src/avx_analysis_code_ablations/opt9_abl_hand_vec_no_tile.cpp:140:                 vp[k] += p.A*TL + p.B*TR + p.C*BL + p.D*BR;
	.loc 1 140 23 discriminator 69632 view .LVU653
	vfmadd213ps	xmm7, xmm18, XMMWORD PTR 48[r9]	# tmp1107, tmp1557, MEM <vector(4) float> [(float *)vectp_vp.378_179 + 48B]
# src/avx_analysis_code_ablations/opt9_abl_hand_vec_no_tile.cpp:139:                 float BR = p.SUB[ind_rbot + k];
	.loc 1 139 23 discriminator 69632 view .LVU654
	vpsrldq	xmm5, xmm5, 8	# tmp1106, vect_BR_766.363,
	vcvtdq2ps	xmm10, xmm10	# vect_BR_766.362_359, tmp1098
	vpmovsxwd	xmm5, xmm5	# tmp1105, tmp1106
	vcvtdq2ps	xmm5, xmm5	# vect_BR_766.362_358, tmp1105
# src/avx_analysis_code_ablations/opt9_abl_hand_vec_no_tile.cpp:140:                 vp[k] += p.A*TL + p.B*TR + p.C*BL + p.D*BR;
	.loc 1 140 23 discriminator 69632 view .LVU655
	vaddps	xmm20, xmm20, xmm21	# vect__754.392_357, _520, _541
	vfmadd132ps	xmm10, xmm24, xmm19	# _1024, tmp1099, tmp1560
	vaddps	xmm8, xmm8, xmm9	# vect__754.392_1037, _415, _432
	vfmadd132ps	xmm5, xmm7, xmm19	# tmp1103, tmp1107, tmp1560
	vmovups	XMMWORD PTR [r9], xmm20	# MEM <vector(4) float> [(float *)vectp_vp.378_179], vect__754.392_357
	.loc 1 140 23 discriminator 69632 view .LVU656
	vmovups	XMMWORD PTR 16[r9], xmm8	# MEM <vector(4) float> [(float *)vectp_vp.378_179 + 16B], vect__754.392_1037
	vaddps	xmm12, xmm12, xmm10	# vect__754.392_1038, _1004, _1024
	vaddps	xmm5, xmm5, xmm6	# vect__754.392, tmp1103, _970
	vmovups	XMMWORD PTR 32[r9], xmm12	# MEM <vector(4) float> [(float *)vectp_vp.378_179 + 32B], vect__754.392_1038
	vmovups	XMMWORD PTR 48[r9], xmm5	# MEM <vector(4) float> [(float *)vectp_vp.378_179 + 48B], vect__754.392
.LBE2665:
	.loc 1 135 13 is_stmt 1 discriminator 1 view .LVU657
	.loc 1 135 31 discriminator 2 view .LVU658
	mov	r9d, r10d	# niters_vector_mult_vf.357, niters.355
	and	r9d, -16	# niters_vector_mult_vf.357,
	test	r10b, 15	# niters.355,
	je	.L44	#,
	sub	r10d, r9d	# niters.395, niters_vector_mult_vf.357
	add	r8d, r9d	# tmp.398, niters_vector_mult_vf.357
	lea	r12d, -1[r10]	# _1095,
	cmp	r12d, 6	# _1095,
	jbe	.L82	#,
.LVL116:
.L161:
	.loc 1 135 31 is_stmt 0 discriminator 2 view .LVU659
	add	r9d, ebx	# _1108, niters_vector_mult_vf.317
.LBB2666:
# src/avx_analysis_code_ablations/opt9_abl_hand_vec_no_tile.cpp:136:                 float TL = p.SUB[ind_ltop + k];
	.loc 1 136 46 discriminator 133120 view .LVU660
	lea	r12, [rsi+r11]	# tmp1124,
	vmovaps	xmm20, xmm17	# _1152, tmp1558
	mov	r9d, r9d	# _1108, _1108
# src/avx_analysis_code_ablations/opt9_abl_hand_vec_no_tile.cpp:137:                 float TR = p.SUB[ind_rtop + k];
	.loc 1 137 46 discriminator 133120 view .LVU661
	vmovq	xmm7, QWORD PTR [rcx+r9]	# MEM <const vector(8) unsigned char> [(const unsigned char *)vectp.414_1156], MEM <const vector(8) unsigned char> [(const unsigned char *)vectp.414_1156]
# src/avx_analysis_code_ablations/opt9_abl_hand_vec_no_tile.cpp:136:                 float TL = p.SUB[ind_ltop + k];
	.loc 1 136 46 discriminator 133120 view .LVU662
	vmovq	xmm6, QWORD PTR [r12+r9]	# MEM <const vector(8) unsigned char> [(const unsigned char *)vectp.427_1194], MEM <const vector(8) unsigned char> [(const unsigned char *)vectp.427_1194]
# src/avx_analysis_code_ablations/opt9_abl_hand_vec_no_tile.cpp:138:                 float BL = p.SUB[ind_lbot + k];
	.loc 1 138 46 discriminator 133120 view .LVU663
	lea	r12, [rsi+rdx]	# tmp1132,
	lea	rbx, [r14+r9]	# _1109,
	vmovq	xmm5, QWORD PTR [r12+r9]	# MEM <const vector(8) unsigned char> [(const unsigned char *)vectp.407_1131], MEM <const vector(8) unsigned char> [(const unsigned char *)vectp.407_1131]
	lea	rdi, [rdi+r9*4]	# vectp_vp.421,
	.loc 1 136 17 is_stmt 1 view .LVU664
# src/avx_analysis_code_ablations/opt9_abl_hand_vec_no_tile.cpp:137:                 float TR = p.SUB[ind_rtop + k];
	.loc 1 137 23 is_stmt 0 discriminator 133120 view .LVU665
	vpmovzxbw	xmm10, xmm7	# vect_TR_487.417, MEM <const vector(8) unsigned char> [(const unsigned char *)vectp.414_1156]
	vpsrlq	xmm7, xmm7, 32	# tmp1131, MEM <const vector(8) unsigned char> [(const unsigned char *)vectp.414_1156],
# src/avx_analysis_code_ablations/opt9_abl_hand_vec_no_tile.cpp:136:                 float TL = p.SUB[ind_ltop + k];
	.loc 1 136 23 discriminator 133120 view .LVU666
	vpmovzxbw	xmm8, xmm6	# vect_TL_491.430, MEM <const vector(8) unsigned char> [(const unsigned char *)vectp.427_1194]
# src/avx_analysis_code_ablations/opt9_abl_hand_vec_no_tile.cpp:137:                 float TR = p.SUB[ind_rtop + k];
	.loc 1 137 23 discriminator 133120 view .LVU667
	vpmovzxwd	xmm12, xmm10	# vect_TR_487.416_1165, vect_TR_487.417
# src/avx_analysis_code_ablations/opt9_abl_hand_vec_no_tile.cpp:138:                 float BL = p.SUB[ind_lbot + k];
	.loc 1 138 23 discriminator 133120 view .LVU668
	vpmovzxbw	xmm9, xmm5	# vect_BL_482.410, MEM <const vector(8) unsigned char> [(const unsigned char *)vectp.407_1131]
# src/avx_analysis_code_ablations/opt9_abl_hand_vec_no_tile.cpp:137:                 float TR = p.SUB[ind_rtop + k];
	.loc 1 137 23 discriminator 133120 view .LVU669
	vpmovzxbw	xmm7, xmm7	# vect_TR_487.417, tmp1131
	vpsrlq	xmm10, xmm10, 32	# tmp1153, vect_TR_487.417,
# src/avx_analysis_code_ablations/opt9_abl_hand_vec_no_tile.cpp:138:                 float BL = p.SUB[ind_lbot + k];
	.loc 1 138 23 discriminator 133120 view .LVU670
	vpsrlq	xmm5, xmm5, 32	# tmp1135, MEM <const vector(8) unsigned char> [(const unsigned char *)vectp.407_1131],
# src/avx_analysis_code_ablations/opt9_abl_hand_vec_no_tile.cpp:137:                 float TR = p.SUB[ind_rtop + k];
	.loc 1 137 23 discriminator 133120 view .LVU671
	vmovq	xmm12, xmm12	# tmp1138, vect_TR_487.416_1165
	vcvtdq2ps	xmm22, xmm12	# tmp1139, tmp1138
# src/avx_analysis_code_ablations/opt9_abl_hand_vec_no_tile.cpp:138:                 float BL = p.SUB[ind_lbot + k];
	.loc 1 138 23 discriminator 133120 view .LVU672
	vpmovzxwd	xmm12, xmm9	# vect_BL_482.409_1140, vect_BL_482.410
	vpsrlq	xmm9, xmm9, 32	# tmp1158, vect_BL_482.410,
# src/avx_analysis_code_ablations/opt9_abl_hand_vec_no_tile.cpp:137:                 float TR = p.SUB[ind_rtop + k];
	.loc 1 137 23 discriminator 133120 view .LVU673
	vpmovzxwd	xmm10, xmm10	# vect_TR_487.416_1166, tmp1153
# src/avx_analysis_code_ablations/opt9_abl_hand_vec_no_tile.cpp:138:                 float BL = p.SUB[ind_lbot + k];
	.loc 1 138 23 discriminator 133120 view .LVU674
	vpmovzxwd	xmm9, xmm9	# vect_BL_482.409_1141, tmp1158
# src/avx_analysis_code_ablations/opt9_abl_hand_vec_no_tile.cpp:137:                 float TR = p.SUB[ind_rtop + k];
	.loc 1 137 23 discriminator 133120 view .LVU675
	vmovq	xmm10, xmm10	# tmp1155, vect_TR_487.416_1166
# src/avx_analysis_code_ablations/opt9_abl_hand_vec_no_tile.cpp:138:                 float BL = p.SUB[ind_lbot + k];
	.loc 1 138 23 discriminator 133120 view .LVU676
	vpmovzxbw	xmm5, xmm5	# vect_BL_482.410, tmp1135
	vmovq	xmm9, xmm9	# tmp1160, vect_BL_482.409_1141
# src/avx_analysis_code_ablations/opt9_abl_hand_vec_no_tile.cpp:137:                 float TR = p.SUB[ind_rtop + k];
	.loc 1 137 23 discriminator 133120 view .LVU677
	vcvtdq2ps	xmm10, xmm10	# tmp1156, tmp1155
# src/avx_analysis_code_ablations/opt9_abl_hand_vec_no_tile.cpp:136:                 float TL = p.SUB[ind_ltop + k];
	.loc 1 136 23 discriminator 133120 view .LVU678
	vpsrlq	xmm6, xmm6, 32	# tmp1127, MEM <const vector(8) unsigned char> [(const unsigned char *)vectp.427_1194],
# src/avx_analysis_code_ablations/opt9_abl_hand_vec_no_tile.cpp:138:                 float BL = p.SUB[ind_lbot + k];
	.loc 1 138 23 discriminator 133120 view .LVU679
	vmovq	xmm21, xmm12	# tmp1142, vect_BL_482.409_1140
	vcvtdq2ps	xmm9, xmm9	# tmp1161, tmp1160
# src/avx_analysis_code_ablations/opt9_abl_hand_vec_no_tile.cpp:140:                 vp[k] += p.A*TL + p.B*TR + p.C*BL + p.D*BR;
	.loc 1 140 47 discriminator 133120 view .LVU680
	vmulps	xmm9, xmm9, xmm11	# tmp1165, tmp1161, _1127
# src/avx_analysis_code_ablations/opt9_abl_hand_vec_no_tile.cpp:136:                 float TL = p.SUB[ind_ltop + k];
	.loc 1 136 23 discriminator 133120 view .LVU681
	vpmovzxbw	xmm6, xmm6	# vect_TL_491.430, tmp1127
.LVL117:
	.loc 1 137 17 is_stmt 1 view .LVU682
	.loc 1 138 17 view .LVU683
# src/avx_analysis_code_ablations/opt9_abl_hand_vec_no_tile.cpp:138:                 float BL = p.SUB[ind_lbot + k];
	.loc 1 138 23 is_stmt 0 discriminator 133120 view .LVU684
	vcvtdq2ps	xmm21, xmm21	# tmp1143, tmp1142
# src/avx_analysis_code_ablations/opt9_abl_hand_vec_no_tile.cpp:140:                 vp[k] += p.A*TL + p.B*TR + p.C*BL + p.D*BR;
	.loc 1 140 47 discriminator 133120 view .LVU685
	vmulps	xmm21, xmm21, xmm11	# tmp1147, tmp1143, _1127
	vfmadd132ps	xmm10, xmm9, xmm17	# tmp1156, tmp1165, _1152
# src/avx_analysis_code_ablations/opt9_abl_hand_vec_no_tile.cpp:137:                 float TR = p.SUB[ind_rtop + k];
	.loc 1 137 23 discriminator 133120 view .LVU686
	vpmovzxwd	xmm9, xmm7	# vect_TR_487.416_1167, vect_TR_487.417
	vpsrlq	xmm7, xmm7, 32	# tmp1187, vect_TR_487.417,
	vfmadd132ps	xmm22, xmm21, xmm17	# tmp1151, tmp1147, _1152
	vmovq	xmm9, xmm9	# tmp1172, vect_TR_487.416_1167
	vpmovzxwd	xmm7, xmm7	# vect_TR_487.416_1168, tmp1187
	vcvtdq2ps	xmm12, xmm9	# tmp1173, tmp1172
	vmovq	xmm7, xmm7	# tmp1189, vect_TR_487.416_1168
	vcvtdq2ps	xmm7, xmm7	# tmp1190, tmp1189
	vmovaps	xmm24, xmm10	# tmp1169, tmp1156
# src/avx_analysis_code_ablations/opt9_abl_hand_vec_no_tile.cpp:138:                 float BL = p.SUB[ind_lbot + k];
	.loc 1 138 23 discriminator 133120 view .LVU687
	vpmovzxwd	xmm10, xmm5	# vect_BL_482.409_1142, vect_BL_482.410
	vpsrlq	xmm5, xmm5, 32	# tmp1192, vect_BL_482.410,
	vmovq	xmm10, xmm10	# tmp1176, vect_BL_482.409_1142
	vpmovzxwd	xmm5, xmm5	# vect_BL_482.409_1143, tmp1192
	vcvtdq2ps	xmm10, xmm10	# tmp1177, tmp1176
# src/avx_analysis_code_ablations/opt9_abl_hand_vec_no_tile.cpp:140:                 vp[k] += p.A*TL + p.B*TR + p.C*BL + p.D*BR;
	.loc 1 140 47 discriminator 133120 view .LVU688
	vmulps	xmm10, xmm10, xmm11	# tmp1181, tmp1177, _1127
# src/avx_analysis_code_ablations/opt9_abl_hand_vec_no_tile.cpp:138:                 float BL = p.SUB[ind_lbot + k];
	.loc 1 138 23 discriminator 133120 view .LVU689
	vmovq	xmm5, xmm5	# tmp1194, vect_BL_482.409_1143
	vcvtdq2ps	xmm5, xmm5	# tmp1195, tmp1194
# src/avx_analysis_code_ablations/opt9_abl_hand_vec_no_tile.cpp:140:                 vp[k] += p.A*TL + p.B*TR + p.C*BL + p.D*BR;
	.loc 1 140 47 discriminator 133120 view .LVU690
	vmulps	xmm5, xmm5, xmm11	# tmp1199, tmp1195, _1127
	vfmadd132ps	xmm12, xmm10, xmm17	# tmp1173, tmp1181, _1152
# src/avx_analysis_code_ablations/opt9_abl_hand_vec_no_tile.cpp:140:                 vp[k] += p.A*TL + p.B*TR + p.C*BL + p.D*BR;
	.loc 1 140 21 discriminator 133120 view .LVU691
	vmovq	xmm10, QWORD PTR [rdi]	# vect__470.422_1183, MEM <vector(2) float> [(float *)vectp_vp.421_1177]
	vfmadd132ps	xmm20, xmm5, xmm7	# _1152, tmp1199, tmp1190
# src/avx_analysis_code_ablations/opt9_abl_hand_vec_no_tile.cpp:139:                 float BR = p.SUB[ind_rbot + k];
	.loc 1 139 46 discriminator 133120 view .LVU692
	vmovq	xmm5, QWORD PTR [rsi+rbx]	# MEM <const vector(8) unsigned char> [(const unsigned char *)vectp.400_1106], MEM <const vector(8) unsigned char> [(const unsigned char *)vectp.400_1106]
# src/avx_analysis_code_ablations/opt9_abl_hand_vec_no_tile.cpp:139:                 float BR = p.SUB[ind_rbot + k];
	.loc 1 139 23 discriminator 133120 view .LVU693
	vpmovzxbw	xmm7, xmm5	# vect_BR_473.403, MEM <const vector(8) unsigned char> [(const unsigned char *)vectp.400_1106]
	vpsrlq	xmm5, xmm5, 32	# tmp1205, MEM <const vector(8) unsigned char> [(const unsigned char *)vectp.400_1106],
	vpmovzxwd	xmm9, xmm7	# vect_BR_473.402_1115, vect_BR_473.403
	vpsrlq	xmm7, xmm7, 32	# tmp1225, vect_BR_473.403,
	vpmovzxbw	xmm5, xmm5	# vect_BR_473.403, tmp1205
	vmovq	xmm9, xmm9	# tmp1208, vect_BR_473.402_1115
	vpmovzxwd	xmm7, xmm7	# vect_BR_473.402_1116, tmp1225
	vmovaps	xmm25, xmm12	# tmp1185, tmp1173
	vcvtdq2ps	xmm23, xmm9	# tmp1209, tmp1208
# src/avx_analysis_code_ablations/opt9_abl_hand_vec_no_tile.cpp:136:                 float TL = p.SUB[ind_ltop + k];
	.loc 1 136 23 discriminator 133120 view .LVU694
	vpmovzxwd	xmm9, xmm8	# vect_TL_491.429_1203, vect_TL_491.430
	vpsrlq	xmm8, xmm8, 32	# tmp1231, vect_TL_491.430,
# src/avx_analysis_code_ablations/opt9_abl_hand_vec_no_tile.cpp:139:                 float BR = p.SUB[ind_rbot + k];
	.loc 1 139 23 discriminator 133120 view .LVU695
	vmovq	xmm7, xmm7	# tmp1227, vect_BR_473.402_1116
# src/avx_analysis_code_ablations/opt9_abl_hand_vec_no_tile.cpp:136:                 float TL = p.SUB[ind_ltop + k];
	.loc 1 136 23 discriminator 133120 view .LVU696
	vmovq	xmm9, xmm9	# tmp1213, vect_TL_491.429_1203
	vpmovzxwd	xmm8, xmm8	# vect_TL_491.429_1204, tmp1231
# src/avx_analysis_code_ablations/opt9_abl_hand_vec_no_tile.cpp:139:                 float BR = p.SUB[ind_rbot + k];
	.loc 1 139 23 discriminator 133120 view .LVU697
	vcvtdq2ps	xmm7, xmm7	# tmp1228, tmp1227
	vmovaps	xmm21, xmm20	# tmp1203, _1152
.LVL118:
	.loc 1 139 17 is_stmt 1 view .LVU698
	.loc 1 140 17 view .LVU699
# src/avx_analysis_code_ablations/opt9_abl_hand_vec_no_tile.cpp:136:                 float TL = p.SUB[ind_ltop + k];
	.loc 1 136 23 is_stmt 0 discriminator 133120 view .LVU700
	vcvtdq2ps	xmm9, xmm9	# tmp1214, tmp1213
	vfmadd231ps	xmm10, xmm18, xmm9	# tmp1219, _1190, tmp1214
# src/avx_analysis_code_ablations/opt9_abl_hand_vec_no_tile.cpp:140:                 vp[k] += p.A*TL + p.B*TR + p.C*BL + p.D*BR;
	.loc 1 140 21 discriminator 133120 view .LVU701
	vmovq	xmm9, QWORD PTR 8[rdi]	# vect__470.423_1185, MEM <vector(2) float> [(float *)vectp_vp.421_1177 + 8B]
# src/avx_analysis_code_ablations/opt9_abl_hand_vec_no_tile.cpp:136:                 float TL = p.SUB[ind_ltop + k];
	.loc 1 136 23 discriminator 133120 view .LVU702
	vmovq	xmm8, xmm8	# tmp1233, vect_TL_491.429_1204
	vmovaps	xmm20, xmm18	# _1190, tmp1557
	vcvtdq2ps	xmm8, xmm8	# tmp1234, tmp1233
	vmovaps	xmm12, xmm19	# _1102, tmp1560
	vfmadd132ps	xmm8, xmm9, xmm18	# tmp1239, vect__470.423_1185, _1190
	vpmovzxwd	xmm9, xmm6	# vect_TL_491.429_1205, vect_TL_491.430
	vmovq	xmm9, xmm9	# tmp1251, vect_TL_491.429_1205
	vpsrlq	xmm6, xmm6, 32	# tmp1270, vect_TL_491.430,
	vcvtdq2ps	xmm9, xmm9	# tmp1252, tmp1251
	vpmovzxwd	xmm6, xmm6	# vect_TL_491.429_1206, tmp1270
	vfmadd132ps	xmm23, xmm10, xmm19	# tmp1223, tmp1219, _1102
# src/avx_analysis_code_ablations/opt9_abl_hand_vec_no_tile.cpp:140:                 vp[k] += p.A*TL + p.B*TR + p.C*BL + p.D*BR;
	.loc 1 140 21 discriminator 133120 view .LVU703
	vmovq	xmm10, QWORD PTR 16[rdi]	# vect__470.424_1187, MEM <vector(2) float> [(float *)vectp_vp.421_1177 + 16B]
# src/avx_analysis_code_ablations/opt9_abl_hand_vec_no_tile.cpp:136:                 float TL = p.SUB[ind_ltop + k];
	.loc 1 136 23 discriminator 133120 view .LVU704
	vmovq	xmm6, xmm6	# tmp1272, vect_TL_491.429_1206
	vcvtdq2ps	xmm6, xmm6	# tmp1273, tmp1272
	vfmadd132ps	xmm9, xmm10, xmm18	# tmp1257, vect__470.424_1187, _1190
	vfmadd132ps	xmm7, xmm8, xmm19	# tmp1243, tmp1239, _1102
# src/avx_analysis_code_ablations/opt9_abl_hand_vec_no_tile.cpp:139:                 float BR = p.SUB[ind_rbot + k];
	.loc 1 139 23 discriminator 133120 view .LVU705
	vpmovzxwd	xmm8, xmm5	# vect_BR_473.402_1117, vect_BR_473.403
	vmovq	xmm8, xmm8	# tmp1246, vect_BR_473.402_1117
	vpsrlq	xmm5, xmm5, 32	# tmp1264, vect_BR_473.403,
	vcvtdq2ps	xmm8, xmm8	# tmp1247, tmp1246
	vpmovzxwd	xmm5, xmm5	# vect_BR_473.402_1118, tmp1264
	vmovq	xmm5, xmm5	# tmp1266, vect_BR_473.402_1118
	vcvtdq2ps	xmm5, xmm5	# tmp1267, tmp1266
	vfmadd132ps	xmm8, xmm9, xmm19	# tmp1261, tmp1257, _1102
# src/avx_analysis_code_ablations/opt9_abl_hand_vec_no_tile.cpp:140:                 vp[k] += p.A*TL + p.B*TR + p.C*BL + p.D*BR;
	.loc 1 140 21 discriminator 133120 view .LVU706
	vmovq	xmm9, QWORD PTR 24[rdi]	# vect__470.425_1189, MEM <vector(2) float> [(float *)vectp_vp.421_1177 + 24B]
# src/avx_analysis_code_ablations/opt9_abl_hand_vec_no_tile.cpp:140:                 vp[k] += p.A*TL + p.B*TR + p.C*BL + p.D*BR;
	.loc 1 140 23 discriminator 133120 view .LVU707
	vaddps	xmm7, xmm24, xmm7	# tmp1293, tmp1169, tmp1243
	vfmadd132ps	xmm20, xmm9, xmm6	# tmp1278, vect__470.425_1189, tmp1273
	vmovlps	QWORD PTR 8[rdi], xmm7	# MEM <vector(2) float> [(float *)vectp_vp.421_1177 + 8B], tmp1293
	.loc 1 140 23 discriminator 133120 view .LVU708
	vfmadd132ps	xmm12, xmm20, xmm5	# tmp1282, tmp1278, tmp1267
	vaddps	xmm5, xmm22, xmm23	# tmp1289, tmp1151, tmp1223
	vmovlps	QWORD PTR [rdi], xmm5	# MEM <vector(2) float> [(float *)vectp_vp.421_1177], tmp1289
	vaddps	xmm5, xmm25, xmm8	# tmp1297, tmp1185, tmp1261
	vaddps	xmm12, xmm12, xmm21	# tmp1285, tmp1282, tmp1203
	vmovlps	QWORD PTR 16[rdi], xmm5	# MEM <vector(2) float> [(float *)vectp_vp.421_1177 + 16B], tmp1297
	vmovlps	QWORD PTR 24[rdi], xmm12	# MEM <vector(2) float> [(float *)vectp_vp.421_1177 + 24B], tmp1285
.LBE2666:
	.loc 1 135 13 is_stmt 1 discriminator 1 view .LVU709
	.loc 1 135 31 discriminator 2 view .LVU710
	mov	edi, r10d	# niters_vector_mult_vf.397, niters.395
	and	edi, -8	# niters_vector_mult_vf.397,
	and	r10d, 7	# niters.395,
	je	.L44	#,
.LBB2667:
# src/avx_analysis_code_ablations/opt9_abl_hand_vec_no_tile.cpp:140:                 vp[k] += p.A*TL + p.B*TR + p.C*BL + p.D*BR;
	.loc 1 140 23 is_stmt 0 discriminator 133120 view .LVU711
	mov	r9d, DWORD PTR 248[rsp]	# prephitmp_764, %sfp
	add	r8d, edi	# tmp.398, niters_vector_mult_vf.397
.LVL119:
.L45:
	.loc 1 136 17 is_stmt 1 view .LVU712
# src/avx_analysis_code_ablations/opt9_abl_hand_vec_no_tile.cpp:136:                 float TL = p.SUB[ind_ltop + k];
	.loc 1 136 45 is_stmt 0 discriminator 163840 view .LVU713
	movsxd	rbx, r8d	# _311, tmp.398
.LVL120:
	.loc 1 137 17 is_stmt 1 view .LVU714
	.loc 1 138 17 view .LVU715
	.loc 1 139 17 view .LVU716
	.loc 1 140 17 view .LVU717
# src/avx_analysis_code_ablations/opt9_abl_hand_vec_no_tile.cpp:136:                 float TL = p.SUB[ind_ltop + k];
	.loc 1 136 46 is_stmt 0 discriminator 163840 view .LVU718
	lea	r10, [rsi+rbx]	# tmp1299,
# src/avx_analysis_code_ablations/opt9_abl_hand_vec_no_tile.cpp:140:                 vp[k] += p.A*TL + p.B*TR + p.C*BL + p.D*BR;
	.loc 1 140 21 discriminator 163840 view .LVU719
	lea	rdi, 0[0+rbx*4]	# _110,
# src/avx_analysis_code_ablations/opt9_abl_hand_vec_no_tile.cpp:137:                 float TR = p.SUB[ind_rtop + k];
	.loc 1 137 23 discriminator 163840 view .LVU720
	movzx	ebx, BYTE PTR [rcx+rbx]	# *_101, *_101
.LVL121:
# src/avx_analysis_code_ablations/opt9_abl_hand_vec_no_tile.cpp:136:                 float TL = p.SUB[ind_ltop + k];
	.loc 1 136 23 discriminator 163840 view .LVU721
	movzx	r13d, BYTE PTR [r10+r11]	# *_828, *_828
	vcvtusi2ss	xmm5, xmm4, r13d	# tmp1527, tmp1526, *_828
	vmovaps	xmm7, xmm5	# TL_879, TL_879
# src/avx_analysis_code_ablations/opt9_abl_hand_vec_no_tile.cpp:137:                 float TR = p.SUB[ind_rtop + k];
	.loc 1 137 23 discriminator 163840 view .LVU722
	vcvtusi2ss	xmm5, xmm4, ebx	# tmp1528, tmp1526, *_101
# src/avx_analysis_code_ablations/opt9_abl_hand_vec_no_tile.cpp:138:                 float BL = p.SUB[ind_lbot + k];
	.loc 1 138 23 discriminator 163840 view .LVU723
	movzx	ebx, BYTE PTR [r10+rdx]	# *_245, *_245
# src/avx_analysis_code_ablations/opt9_abl_hand_vec_no_tile.cpp:139:                 float BR = p.SUB[ind_rbot + k];
	.loc 1 139 23 discriminator 163840 view .LVU724
	movzx	r10d, BYTE PTR [r10+r14]	# *_246, *_246
	vfmadd213ss	xmm7, xmm16, DWORD PTR [rax+rdi]	# TL_879, _73, *_247
# src/avx_analysis_code_ablations/opt9_abl_hand_vec_no_tile.cpp:138:                 float BL = p.SUB[ind_lbot + k];
	.loc 1 138 23 discriminator 163840 view .LVU725
	vcvtusi2ss	xmm6, xmm4, ebx	# tmp1529, tmp1526, *_245
# src/avx_analysis_code_ablations/opt9_abl_hand_vec_no_tile.cpp:140:                 vp[k] += p.A*TL + p.B*TR + p.C*BL + p.D*BR;
	.loc 1 140 47 discriminator 163840 view .LVU726
	vmulss	xmm6, xmm6, xmm14	# _114, BL_106, _75
	vfmadd231ss	xmm6, xmm15, xmm5	# _963, _74, TR_103
# src/avx_analysis_code_ablations/opt9_abl_hand_vec_no_tile.cpp:139:                 float BR = p.SUB[ind_rbot + k];
	.loc 1 139 23 discriminator 163840 view .LVU727
	vcvtusi2ss	xmm5, xmm4, r10d	# tmp1530, tmp1526, *_246
.LBE2667:
# src/avx_analysis_code_ablations/opt9_abl_hand_vec_no_tile.cpp:135:             for (int k = 0; k < remaining; ++k) {
	.loc 1 135 13 discriminator 163841 view .LVU728
	lea	r10d, 1[r8]	#,
.LBB2668:
# src/avx_analysis_code_ablations/opt9_abl_hand_vec_no_tile.cpp:140:                 vp[k] += p.A*TL + p.B*TR + p.C*BL + p.D*BR;
	.loc 1 140 23 discriminator 163840 view .LVU729
	vfmadd132ss	xmm5, xmm7, xmm13	# tmp1312, _925, _76
	vaddss	xmm5, xmm5, xmm6	# _120, tmp1312, _963
	vmovss	DWORD PTR [rax+rdi], xmm5	# *_247, _120
.LBE2668:
	.loc 1 135 13 is_stmt 1 discriminator 1 view .LVU730
.LVL122:
	.loc 1 135 31 discriminator 2 view .LVU731
# src/avx_analysis_code_ablations/opt9_abl_hand_vec_no_tile.cpp:135:             for (int k = 0; k < remaining; ++k) {
	.loc 1 135 31 is_stmt 0 discriminator 163842 view .LVU732
	cmp	r10d, r9d	# k, prephitmp_764
	jge	.L44	#,
.LBB2669:
	.loc 1 136 17 is_stmt 1 view .LVU733
	.loc 1 137 17 view .LVU734
	.loc 1 138 17 view .LVU735
.LVL123:
	.loc 1 139 17 view .LVU736
	.loc 1 140 17 view .LVU737
# src/avx_analysis_code_ablations/opt9_abl_hand_vec_no_tile.cpp:136:                 float TL = p.SUB[ind_ltop + k];
	.loc 1 136 46 is_stmt 0 discriminator 196608 view .LVU738
	lea	rbx, [rsi+r11]	# tmp1319,
# src/avx_analysis_code_ablations/opt9_abl_hand_vec_no_tile.cpp:136:                 float TL = p.SUB[ind_ltop + k];
	.loc 1 136 23 discriminator 196608 view .LVU739
	movzx	r13d, BYTE PTR [rbx+r10]	# *_250, *_250
	vcvtusi2ss	xmm5, xmm4, r13d	# tmp1531, tmp1526, *_250
# src/avx_analysis_code_ablations/opt9_abl_hand_vec_no_tile.cpp:137:                 float TR = p.SUB[ind_rtop + k];
	.loc 1 137 23 discriminator 196608 view .LVU740
	movzx	r13d, BYTE PTR [rcx+r10]	# *_780, *_780
# src/avx_analysis_code_ablations/opt9_abl_hand_vec_no_tile.cpp:138:                 float BL = p.SUB[ind_lbot + k];
	.loc 1 138 46 discriminator 196608 view .LVU741
	add	r10, rsi	# tmp1327, _94
.LVL124:
	.loc 1 138 46 discriminator 196608 view .LVU742
	vmovaps	xmm7, xmm5	# TL_782, TL_782
# src/avx_analysis_code_ablations/opt9_abl_hand_vec_no_tile.cpp:137:                 float TR = p.SUB[ind_rtop + k];
	.loc 1 137 23 discriminator 196608 view .LVU743
	vcvtusi2ss	xmm5, xmm4, r13d	# tmp1532, tmp1526, *_780
# src/avx_analysis_code_ablations/opt9_abl_hand_vec_no_tile.cpp:138:                 float BL = p.SUB[ind_lbot + k];
	.loc 1 138 23 discriminator 196608 view .LVU744
	movzx	r13d, BYTE PTR [r10+rdx]	# *_776, *_776
# src/avx_analysis_code_ablations/opt9_abl_hand_vec_no_tile.cpp:139:                 float BR = p.SUB[ind_rbot + k];
	.loc 1 139 23 discriminator 196608 view .LVU745
	movzx	r10d, BYTE PTR [r10+r14]	# *_772, *_772
	vfmadd213ss	xmm7, xmm16, DWORD PTR 4[rax+rdi]	# TL_782, _73, *_768
# src/avx_analysis_code_ablations/opt9_abl_hand_vec_no_tile.cpp:138:                 float BL = p.SUB[ind_lbot + k];
	.loc 1 138 23 discriminator 196608 view .LVU746
	vcvtusi2ss	xmm6, xmm4, r13d	# tmp1533, tmp1526, *_776
# src/avx_analysis_code_ablations/opt9_abl_hand_vec_no_tile.cpp:140:                 vp[k] += p.A*TL + p.B*TR + p.C*BL + p.D*BR;
	.loc 1 140 47 discriminator 196608 view .LVU747
	vmulss	xmm6, xmm6, xmm14	# _763, BL_774, _75
	vfmadd231ss	xmm6, xmm15, xmm5	# _990, _74, TR_778
# src/avx_analysis_code_ablations/opt9_abl_hand_vec_no_tile.cpp:139:                 float BR = p.SUB[ind_rbot + k];
	.loc 1 139 23 discriminator 196608 view .LVU748
	vcvtusi2ss	xmm5, xmm4, r10d	# tmp1534, tmp1526, *_772
.LBE2669:
# src/avx_analysis_code_ablations/opt9_abl_hand_vec_no_tile.cpp:135:             for (int k = 0; k < remaining; ++k) {
	.loc 1 135 13 discriminator 196609 view .LVU749
	lea	r10d, 2[r8]	#,
.LBB2670:
# src/avx_analysis_code_ablations/opt9_abl_hand_vec_no_tile.cpp:140:                 vp[k] += p.A*TL + p.B*TR + p.C*BL + p.D*BR;
	.loc 1 140 23 discriminator 196608 view .LVU750
	vfmadd132ss	xmm5, xmm7, xmm13	# tmp1332, _975, _76
	vaddss	xmm5, xmm5, xmm6	# _758, tmp1332, _990
	vmovss	DWORD PTR 4[rax+rdi], xmm5	# *_768, _758
.LBE2670:
	.loc 1 135 13 is_stmt 1 discriminator 1 view .LVU751
.LVL125:
	.loc 1 135 31 discriminator 2 view .LVU752
# src/avx_analysis_code_ablations/opt9_abl_hand_vec_no_tile.cpp:135:             for (int k = 0; k < remaining; ++k) {
	.loc 1 135 31 is_stmt 0 discriminator 196610 view .LVU753
	cmp	r10d, r9d	# k, prephitmp_764
	jge	.L44	#,
.LBB2671:
	.loc 1 136 17 is_stmt 1 view .LVU754
	.loc 1 137 17 view .LVU755
	.loc 1 138 17 view .LVU756
.LVL126:
	.loc 1 139 17 view .LVU757
	.loc 1 140 17 view .LVU758
# src/avx_analysis_code_ablations/opt9_abl_hand_vec_no_tile.cpp:136:                 float TL = p.SUB[ind_ltop + k];
	.loc 1 136 23 is_stmt 0 discriminator 229376 view .LVU759
	movzx	r13d, BYTE PTR [rbx+r10]	# *_502, *_502
	vcvtusi2ss	xmm5, xmm4, r13d	# tmp1535, tmp1526, *_502
# src/avx_analysis_code_ablations/opt9_abl_hand_vec_no_tile.cpp:137:                 float TR = p.SUB[ind_rtop + k];
	.loc 1 137 23 discriminator 229376 view .LVU760
	movzx	r13d, BYTE PTR [rcx+r10]	# *_493, *_493
# src/avx_analysis_code_ablations/opt9_abl_hand_vec_no_tile.cpp:138:                 float BL = p.SUB[ind_lbot + k];
	.loc 1 138 46 discriminator 229376 view .LVU761
	add	r10, rsi	# tmp1347, _94
.LVL127:
	.loc 1 138 46 discriminator 229376 view .LVU762
	vmovaps	xmm7, xmm5	# TL_495, TL_495
# src/avx_analysis_code_ablations/opt9_abl_hand_vec_no_tile.cpp:137:                 float TR = p.SUB[ind_rtop + k];
	.loc 1 137 23 discriminator 229376 view .LVU763
	vcvtusi2ss	xmm5, xmm4, r13d	# tmp1536, tmp1526, *_493
# src/avx_analysis_code_ablations/opt9_abl_hand_vec_no_tile.cpp:138:                 float BL = p.SUB[ind_lbot + k];
	.loc 1 138 23 discriminator 229376 view .LVU764
	movzx	r13d, BYTE PTR [r10+rdx]	# *_488, *_488
# src/avx_analysis_code_ablations/opt9_abl_hand_vec_no_tile.cpp:139:                 float BR = p.SUB[ind_rbot + k];
	.loc 1 139 23 discriminator 229376 view .LVU765
	movzx	r10d, BYTE PTR [r10+r14]	# *_483, *_483
	vfmadd213ss	xmm7, xmm16, DWORD PTR 8[rax+rdi]	# TL_495, _73, *_474
# src/avx_analysis_code_ablations/opt9_abl_hand_vec_no_tile.cpp:138:                 float BL = p.SUB[ind_lbot + k];
	.loc 1 138 23 discriminator 229376 view .LVU766
	vcvtusi2ss	xmm6, xmm4, r13d	# tmp1537, tmp1526, *_488
# src/avx_analysis_code_ablations/opt9_abl_hand_vec_no_tile.cpp:140:                 vp[k] += p.A*TL + p.B*TR + p.C*BL + p.D*BR;
	.loc 1 140 47 discriminator 229376 view .LVU767
	vmulss	xmm6, xmm6, xmm14	# _468, BL_486, _75
	vfmadd231ss	xmm6, xmm15, xmm5	# _78, _74, TR_490
# src/avx_analysis_code_ablations/opt9_abl_hand_vec_no_tile.cpp:139:                 float BR = p.SUB[ind_rbot + k];
	.loc 1 139 23 discriminator 229376 view .LVU768
	vcvtusi2ss	xmm5, xmm4, r10d	# tmp1538, tmp1526, *_483
.LBE2671:
# src/avx_analysis_code_ablations/opt9_abl_hand_vec_no_tile.cpp:135:             for (int k = 0; k < remaining; ++k) {
	.loc 1 135 13 discriminator 229377 view .LVU769
	lea	r10d, 3[r8]	#,
.LBB2672:
# src/avx_analysis_code_ablations/opt9_abl_hand_vec_no_tile.cpp:140:                 vp[k] += p.A*TL + p.B*TR + p.C*BL + p.D*BR;
	.loc 1 140 23 discriminator 229376 view .LVU770
	vfmadd132ss	xmm5, xmm7, xmm13	# tmp1352, _1021, _76
	vaddss	xmm5, xmm5, xmm6	# _456, tmp1352, _78
	vmovss	DWORD PTR 8[rax+rdi], xmm5	# *_474, _456
.LBE2672:
	.loc 1 135 13 is_stmt 1 discriminator 1 view .LVU771
.LVL128:
	.loc 1 135 31 discriminator 2 view .LVU772
# src/avx_analysis_code_ablations/opt9_abl_hand_vec_no_tile.cpp:135:             for (int k = 0; k < remaining; ++k) {
	.loc 1 135 31 is_stmt 0 discriminator 229378 view .LVU773
	cmp	r10d, r9d	# k, prephitmp_764
	jge	.L44	#,
.LBB2673:
	.loc 1 136 17 is_stmt 1 view .LVU774
	.loc 1 137 17 view .LVU775
	.loc 1 138 17 view .LVU776
.LVL129:
	.loc 1 139 17 view .LVU777
	.loc 1 140 17 view .LVU778
# src/avx_analysis_code_ablations/opt9_abl_hand_vec_no_tile.cpp:136:                 float TL = p.SUB[ind_ltop + k];
	.loc 1 136 46 is_stmt 0 discriminator 262144 view .LVU779
	lea	r12, [rsi+r10]	# tmp1359,
	mov	QWORD PTR 208[rsp], r10	# %sfp, _426
# src/avx_analysis_code_ablations/opt9_abl_hand_vec_no_tile.cpp:136:                 float TL = p.SUB[ind_ltop + k];
	.loc 1 136 23 discriminator 262144 view .LVU780
	movzx	r10d, BYTE PTR [r12+r11]	# *_1054, *_1054
.LVL130:
	.loc 1 136 23 discriminator 262144 view .LVU781
	vcvtusi2ss	xmm5, xmm4, r10d	# tmp1539, tmp1526, *_1054
# src/avx_analysis_code_ablations/opt9_abl_hand_vec_no_tile.cpp:137:                 float TR = p.SUB[ind_rtop + k];
	.loc 1 137 23 discriminator 262144 view .LVU782
	mov	r10, QWORD PTR 208[rsp]	# _426, %sfp
	movzx	r10d, BYTE PTR [rcx+r10]	# *_927, *_927
	vmovaps	xmm7, xmm5	# TL_786, TL_786
	vcvtusi2ss	xmm5, xmm4, r10d	# tmp1540, tmp1526, *_927
# src/avx_analysis_code_ablations/opt9_abl_hand_vec_no_tile.cpp:138:                 float BL = p.SUB[ind_lbot + k];
	.loc 1 138 23 discriminator 262144 view .LVU783
	movzx	r10d, BYTE PTR [r12+rdx]	# *_566, *_566
	vfmadd213ss	xmm7, xmm16, DWORD PTR 12[rax+rdi]	# TL_786, _73, *_911
	vcvtusi2ss	xmm6, xmm4, r10d	# tmp1541, tmp1526, *_566
# src/avx_analysis_code_ablations/opt9_abl_hand_vec_no_tile.cpp:139:                 float BR = p.SUB[ind_rbot + k];
	.loc 1 139 23 discriminator 262144 view .LVU784
	movzx	r10d, BYTE PTR [r12+r14]	# *_674, *_674
# src/avx_analysis_code_ablations/opt9_abl_hand_vec_no_tile.cpp:140:                 vp[k] += p.A*TL + p.B*TR + p.C*BL + p.D*BR;
	.loc 1 140 47 discriminator 262144 view .LVU785
	vmulss	xmm6, xmm6, xmm14	# _907, BL_457, _75
	vfmadd231ss	xmm6, xmm15, xmm5	# _85, _74, TR_676
# src/avx_analysis_code_ablations/opt9_abl_hand_vec_no_tile.cpp:139:                 float BR = p.SUB[ind_rbot + k];
	.loc 1 139 23 discriminator 262144 view .LVU786
	vcvtusi2ss	xmm5, xmm4, r10d	# tmp1542, tmp1526, *_674
.LBE2673:
# src/avx_analysis_code_ablations/opt9_abl_hand_vec_no_tile.cpp:135:             for (int k = 0; k < remaining; ++k) {
	.loc 1 135 13 discriminator 262145 view .LVU787
	lea	r10d, 4[r8]	#,
.LBB2674:
# src/avx_analysis_code_ablations/opt9_abl_hand_vec_no_tile.cpp:140:                 vp[k] += p.A*TL + p.B*TR + p.C*BL + p.D*BR;
	.loc 1 140 23 discriminator 262144 view .LVU788
	vfmadd132ss	xmm5, xmm7, xmm13	# tmp1372, _80, _76
	vaddss	xmm5, xmm5, xmm6	# _551, tmp1372, _85
	vmovss	DWORD PTR 12[rax+rdi], xmm5	# *_911, _551
.LBE2674:
	.loc 1 135 13 is_stmt 1 discriminator 1 view .LVU789
.LVL131:
	.loc 1 135 31 discriminator 2 view .LVU790
# src/avx_analysis_code_ablations/opt9_abl_hand_vec_no_tile.cpp:135:             for (int k = 0; k < remaining; ++k) {
	.loc 1 135 31 is_stmt 0 discriminator 262146 view .LVU791
	cmp	r9d, r10d	# prephitmp_764, k
	jle	.L44	#,
.LBB2675:
	.loc 1 136 17 is_stmt 1 view .LVU792
	.loc 1 137 17 view .LVU793
	.loc 1 138 17 view .LVU794
.LVL132:
	.loc 1 139 17 view .LVU795
	.loc 1 140 17 view .LVU796
# src/avx_analysis_code_ablations/opt9_abl_hand_vec_no_tile.cpp:136:                 float TL = p.SUB[ind_ltop + k];
	.loc 1 136 23 is_stmt 0 discriminator 294912 view .LVU797
	movzx	r13d, BYTE PTR [rbx+r10]	# *_532, *_532
	vcvtusi2ss	xmm5, xmm4, r13d	# tmp1543, tmp1526, *_532
# src/avx_analysis_code_ablations/opt9_abl_hand_vec_no_tile.cpp:137:                 float TR = p.SUB[ind_rtop + k];
	.loc 1 137 23 discriminator 294912 view .LVU798
	movzx	r13d, BYTE PTR [rcx+r10]	# *_367, *_367
# src/avx_analysis_code_ablations/opt9_abl_hand_vec_no_tile.cpp:138:                 float BL = p.SUB[ind_lbot + k];
	.loc 1 138 46 discriminator 294912 view .LVU799
	add	r10, rsi	# tmp1387, _94
.LVL133:
	.loc 1 138 46 discriminator 294912 view .LVU800
	vmovaps	xmm7, xmm5	# TL_820, TL_820
# src/avx_analysis_code_ablations/opt9_abl_hand_vec_no_tile.cpp:137:                 float TR = p.SUB[ind_rtop + k];
	.loc 1 137 23 discriminator 294912 view .LVU801
	vcvtusi2ss	xmm5, xmm4, r13d	# tmp1544, tmp1526, *_367
# src/avx_analysis_code_ablations/opt9_abl_hand_vec_no_tile.cpp:138:                 float BL = p.SUB[ind_lbot + k];
	.loc 1 138 23 discriminator 294912 view .LVU802
	movzx	r13d, BYTE PTR [r10+rdx]	# *_817, *_817
# src/avx_analysis_code_ablations/opt9_abl_hand_vec_no_tile.cpp:139:                 float BR = p.SUB[ind_rbot + k];
	.loc 1 139 23 discriminator 294912 view .LVU803
	movzx	r10d, BYTE PTR [r10+r14]	# *_815, *_815
	vfmadd213ss	xmm7, xmm16, DWORD PTR 16[rax+rdi]	# TL_820, _73, *_811
# src/avx_analysis_code_ablations/opt9_abl_hand_vec_no_tile.cpp:138:                 float BL = p.SUB[ind_lbot + k];
	.loc 1 138 23 discriminator 294912 view .LVU804
	vcvtusi2ss	xmm6, xmm4, r13d	# tmp1545, tmp1526, *_817
# src/avx_analysis_code_ablations/opt9_abl_hand_vec_no_tile.cpp:140:                 vp[k] += p.A*TL + p.B*TR + p.C*BL + p.D*BR;
	.loc 1 140 47 discriminator 294912 view .LVU805
	vmulss	xmm6, xmm6, xmm14	# _809, BL_940, _75
	vfmadd231ss	xmm6, xmm5, xmm15	# _90, TR_66, _74
# src/avx_analysis_code_ablations/opt9_abl_hand_vec_no_tile.cpp:139:                 float BR = p.SUB[ind_rbot + k];
	.loc 1 139 23 discriminator 294912 view .LVU806
	vcvtusi2ss	xmm5, xmm4, r10d	# tmp1546, tmp1526, *_815
.LBE2675:
# src/avx_analysis_code_ablations/opt9_abl_hand_vec_no_tile.cpp:135:             for (int k = 0; k < remaining; ++k) {
	.loc 1 135 13 discriminator 294913 view .LVU807
	lea	r10d, 5[r8]	#,
.LBB2676:
# src/avx_analysis_code_ablations/opt9_abl_hand_vec_no_tile.cpp:140:                 vp[k] += p.A*TL + p.B*TR + p.C*BL + p.D*BR;
	.loc 1 140 23 discriminator 294912 view .LVU808
	vfmadd132ss	xmm5, xmm7, xmm13	# tmp1392, _88, _76
	vaddss	xmm5, xmm5, xmm6	# _807, tmp1392, _90
	vmovss	DWORD PTR 16[rax+rdi], xmm5	# *_811, _807
.LBE2676:
	.loc 1 135 13 is_stmt 1 discriminator 1 view .LVU809
.LVL134:
	.loc 1 135 31 discriminator 2 view .LVU810
# src/avx_analysis_code_ablations/opt9_abl_hand_vec_no_tile.cpp:135:             for (int k = 0; k < remaining; ++k) {
	.loc 1 135 31 is_stmt 0 discriminator 294914 view .LVU811
	cmp	r9d, r10d	# prephitmp_764, k
	jle	.L44	#,
.LBB2677:
	.loc 1 136 17 is_stmt 1 view .LVU812
	.loc 1 137 17 view .LVU813
	.loc 1 138 17 view .LVU814
.LVL135:
	.loc 1 139 17 view .LVU815
	.loc 1 140 17 view .LVU816
# src/avx_analysis_code_ablations/opt9_abl_hand_vec_no_tile.cpp:136:                 float TL = p.SUB[ind_ltop + k];
	.loc 1 136 46 is_stmt 0 discriminator 327680 view .LVU817
	lea	r12, [rsi+r10]	# tmp1399,
# src/avx_analysis_code_ablations/opt9_abl_hand_vec_no_tile.cpp:137:                 float TR = p.SUB[ind_rtop + k];
	.loc 1 137 23 discriminator 327680 view .LVU818
	movzx	r10d, BYTE PTR [rcx+r10]	# *_354, *_354
.LVL136:
	.loc 1 137 23 discriminator 327680 view .LVU819
.LBE2677:
# src/avx_analysis_code_ablations/opt9_abl_hand_vec_no_tile.cpp:135:             for (int k = 0; k < remaining; ++k) {
	.loc 1 135 13 discriminator 327681 view .LVU820
	add	r8d, 6	#,
.LVL137:
.LBB2678:
# src/avx_analysis_code_ablations/opt9_abl_hand_vec_no_tile.cpp:136:                 float TL = p.SUB[ind_ltop + k];
	.loc 1 136 23 discriminator 327680 view .LVU821
	movzx	r11d, BYTE PTR [r12+r11]	# *_663, *_663
	vcvtusi2ss	xmm5, xmm4, r11d	# tmp1547, tmp1526, *_663
	vmovaps	xmm7, xmm5	# TL_135, TL_135
# src/avx_analysis_code_ablations/opt9_abl_hand_vec_no_tile.cpp:137:                 float TR = p.SUB[ind_rtop + k];
	.loc 1 137 23 discriminator 327680 view .LVU822
	vcvtusi2ss	xmm5, xmm4, r10d	# tmp1548, tmp1526, *_354
# src/avx_analysis_code_ablations/opt9_abl_hand_vec_no_tile.cpp:138:                 float BL = p.SUB[ind_lbot + k];
	.loc 1 138 23 discriminator 327680 view .LVU823
	movzx	r10d, BYTE PTR [r12+rdx]	# *_1027, *_1027
.LVL138:
	.loc 1 138 23 discriminator 327680 view .LVU824
	vfmadd213ss	xmm7, xmm16, DWORD PTR 20[rax+rdi]	# TL_135, _73, *_898
	vcvtusi2ss	xmm6, xmm4, r10d	# tmp1549, tmp1526, *_1027
# src/avx_analysis_code_ablations/opt9_abl_hand_vec_no_tile.cpp:139:                 float BR = p.SUB[ind_rbot + k];
	.loc 1 139 23 discriminator 327680 view .LVU825
	movzx	r10d, BYTE PTR [r12+r14]	# *_900, *_900
.LVL139:
# src/avx_analysis_code_ablations/opt9_abl_hand_vec_no_tile.cpp:140:                 vp[k] += p.A*TL + p.B*TR + p.C*BL + p.D*BR;
	.loc 1 140 47 discriminator 327680 view .LVU826
	vmulss	xmm6, xmm6, xmm14	# _224, BL_957, _75
	vfmadd231ss	xmm6, xmm15, xmm5	# _96, _74, TR_223
# src/avx_analysis_code_ablations/opt9_abl_hand_vec_no_tile.cpp:139:                 float BR = p.SUB[ind_rbot + k];
	.loc 1 139 23 discriminator 327680 view .LVU827
	vcvtusi2ss	xmm5, xmm4, r10d	# tmp1550, tmp1526, *_900
# src/avx_analysis_code_ablations/opt9_abl_hand_vec_no_tile.cpp:140:                 vp[k] += p.A*TL + p.B*TR + p.C*BL + p.D*BR;
	.loc 1 140 23 discriminator 327680 view .LVU828
	vfmadd132ss	xmm5, xmm7, xmm13	# tmp1412, _95, _76
	vaddss	xmm5, xmm5, xmm6	# _636, tmp1412, _96
	vmovss	DWORD PTR 20[rax+rdi], xmm5	# *_898, _636
.LBE2678:
	.loc 1 135 13 is_stmt 1 discriminator 1 view .LVU829
.LVL140:
	.loc 1 135 31 discriminator 2 view .LVU830
# src/avx_analysis_code_ablations/opt9_abl_hand_vec_no_tile.cpp:135:             for (int k = 0; k < remaining; ++k) {
	.loc 1 135 31 is_stmt 0 discriminator 327682 view .LVU831
	cmp	r8d, r9d	# k, prephitmp_764
	jge	.L44	#,
.LBB2679:
	.loc 1 136 17 is_stmt 1 view .LVU832
	.loc 1 137 17 view .LVU833
	.loc 1 138 17 view .LVU834
.LVL141:
	.loc 1 139 17 view .LVU835
	.loc 1 140 17 view .LVU836
# src/avx_analysis_code_ablations/opt9_abl_hand_vec_no_tile.cpp:138:                 float BL = p.SUB[ind_lbot + k];
	.loc 1 138 46 is_stmt 0 discriminator 98304 view .LVU837
	add	rdx, rsi	# tmp1427, _94
.LVL142:
# src/avx_analysis_code_ablations/opt9_abl_hand_vec_no_tile.cpp:140:                 vp[k] += p.A*TL + p.B*TR + p.C*BL + p.D*BR;
	.loc 1 140 21 discriminator 98304 view .LVU838
	lea	rax, 24[rax+rdi]	# _1078,
# src/avx_analysis_code_ablations/opt9_abl_hand_vec_no_tile.cpp:136:                 float TL = p.SUB[ind_ltop + k];
	.loc 1 136 23 discriminator 98304 view .LVU839
	movzx	edi, BYTE PTR [rbx+r8]	# *_1062, *_1062
# src/avx_analysis_code_ablations/opt9_abl_hand_vec_no_tile.cpp:137:                 float TR = p.SUB[ind_rtop + k];
	.loc 1 137 23 discriminator 98304 view .LVU840
	movzx	ecx, BYTE PTR [rcx+r8]	# *_1066, *_1066
# src/avx_analysis_code_ablations/opt9_abl_hand_vec_no_tile.cpp:138:                 float BL = p.SUB[ind_lbot + k];
	.loc 1 138 23 discriminator 98304 view .LVU841
	movzx	edx, BYTE PTR [rdx+r8]	# *_1070, *_1070
.LVL143:
# src/avx_analysis_code_ablations/opt9_abl_hand_vec_no_tile.cpp:139:                 float BR = p.SUB[ind_rbot + k];
	.loc 1 139 46 discriminator 98304 view .LVU842
	add	rsi, r14	# tmp1433, ind_rbot
.LVL144:
# src/avx_analysis_code_ablations/opt9_abl_hand_vec_no_tile.cpp:136:                 float TL = p.SUB[ind_ltop + k];
	.loc 1 136 23 discriminator 98304 view .LVU843
	vcvtusi2ss	xmm5, xmm4, edi	# tmp1551, tmp1526, *_1062
# src/avx_analysis_code_ablations/opt9_abl_hand_vec_no_tile.cpp:138:                 float BL = p.SUB[ind_lbot + k];
	.loc 1 138 23 discriminator 98304 view .LVU844
	vcvtusi2ss	xmm6, xmm4, edx	# tmp1553, tmp1526, *_1070
# src/avx_analysis_code_ablations/opt9_abl_hand_vec_no_tile.cpp:139:                 float BR = p.SUB[ind_rbot + k];
	.loc 1 139 23 discriminator 98304 view .LVU845
	movzx	edx, BYTE PTR [rsi+r8]	# *_1074, *_1074
.LVL145:
	.loc 1 139 23 discriminator 98304 view .LVU846
	vmovaps	xmm7, xmm5	# TL_1064, TL_1064
# src/avx_analysis_code_ablations/opt9_abl_hand_vec_no_tile.cpp:137:                 float TR = p.SUB[ind_rtop + k];
	.loc 1 137 23 discriminator 98304 view .LVU847
	vcvtusi2ss	xmm5, xmm4, ecx	# tmp1552, tmp1526, *_1066
# src/avx_analysis_code_ablations/opt9_abl_hand_vec_no_tile.cpp:140:                 vp[k] += p.A*TL + p.B*TR + p.C*BL + p.D*BR;
	.loc 1 140 47 discriminator 98304 view .LVU848
	vmulss	xmm6, xmm6, xmm14	# _1083, BL_1072, _75
	vfmadd213ss	xmm7, xmm16, DWORD PTR [rax]	# TL_1064, _73, *_1078
	vfmadd231ss	xmm6, xmm15, xmm5	# _99, _74, TR_1068
# src/avx_analysis_code_ablations/opt9_abl_hand_vec_no_tile.cpp:139:                 float BR = p.SUB[ind_rbot + k];
	.loc 1 139 23 discriminator 98304 view .LVU849
	vcvtusi2ss	xmm5, xmm4, edx	# tmp1554, tmp1526, *_1074
# src/avx_analysis_code_ablations/opt9_abl_hand_vec_no_tile.cpp:140:                 vp[k] += p.A*TL + p.B*TR + p.C*BL + p.D*BR;
	.loc 1 140 23 discriminator 98304 view .LVU850
	vfmadd132ss	xmm5, xmm7, xmm13	# tmp1432, _98, _76
	vaddss	xmm5, xmm5, xmm6	# _1087, tmp1432, _99
	vmovss	DWORD PTR [rax], xmm5	# *_1078, _1087
.LBE2679:
	.loc 1 135 13 is_stmt 1 discriminator 1 view .LVU851
.LVL146:
	.loc 1 135 31 discriminator 2 view .LVU852
.L44:
	.loc 1 135 31 is_stmt 0 discriminator 2 view .LVU853
.LBE2663:
.LBE2691:
	.loc 1 96 9 is_stmt 1 discriminator 1 view .LVU854
	inc	DWORD PTR 240[rsp]	# %sfp
.LVL147:
# src/avx_analysis_code_ablations/opt9_abl_hand_vec_no_tile.cpp:96:         for (int y = p.y_begin; y < p.y_end; ++y) {
	.loc 1 96 35 is_stmt 0 discriminator 2 view .LVU855
	mov	rbx, QWORD PTR 176[rsp]	# _86, %sfp
	mov	rdx, QWORD PTR 168[rsp]	# tmp898, %sfp
	add	QWORD PTR 224[rsp], rbx	# %sfp, _86
	add	r15, rbx	# ivtmp.517, _86
	add	QWORD PTR 216[rsp], rdx	# %sfp, tmp898
# src/avx_analysis_code_ablations/opt9_abl_hand_vec_no_tile.cpp:96:         for (int y = p.y_begin; y < p.y_end; ++y) {
	.loc 1 96 9 discriminator 1 view .LVU856
	mov	eax, DWORD PTR 240[rsp]	# y, %sfp
.LVL148:
	.loc 1 96 35 is_stmt 1 discriminator 2 view .LVU857
	cmp	eax, DWORD PTR 184[rsp]	# y, %sfp
	jne	.L50	#,
.LVL149:
.L42:
	.loc 1 96 35 is_stmt 0 discriminator 2 view .LVU858
.LBE2715:
.LBE2584:
	.loc 1 90 5 is_stmt 1 discriminator 4 view .LVU859
	.loc 1 90 31 discriminator 5 view .LVU860
# src/avx_analysis_code_ablations/opt9_abl_hand_vec_no_tile.cpp:90:     for (const SubParams& p : params) {
	.loc 1 90 31 is_stmt 0 discriminator 6 view .LVU861
	add	QWORD PTR 200[rsp], 48	# %sfp,
.LVL150:
	.loc 1 90 31 discriminator 6 view .LVU862
	mov	rax, QWORD PTR 200[rsp]	# ivtmp.528, %sfp
	cmp	QWORD PTR 128[rsp], rax	# %sfp, ivtmp.528
	jne	.L51	#,
.LBE2719:
.LBB2720:
# src/avx_analysis_code_ablations/opt9_abl_hand_vec_no_tile.cpp:146:     for (int y = 0; y < h; ++y) {
	.loc 1 146 23 discriminator 2 view .LVU863
	mov	r13d, DWORD PTR 40[rsp]	# _2, %sfp
	mov	r15d, DWORD PTR 44[rsp]	# _1, %sfp
	mov	rbx, QWORD PTR 32[rsp]	# _300, %sfp
	mov	rdi, QWORD PTR 104[rsp]	# _599, %sfp
	mov	rax, QWORD PTR 24[rsp]	# tmp1490, %sfp
.LVL151:
	.loc 1 146 23 is_stmt 1 discriminator 2 view .LVU864
	test	r13d, r13d	# _2
	jle	.L148	#,
	test	r15d, r15d	# _1
	jle	.L148	#,
	vzeroupper
.LVL152:
.L40:
	.loc 1 146 23 is_stmt 0 discriminator 2 view .LVU865
	mov	rcx, QWORD PTR 120[rsp]	# _629, %sfp
.LBB2721:
.LBB2722:
.LBB2723:
# src/avx_analysis_code_ablations/opt9_abl_hand_vec_no_tile.cpp:155:             float inv_c = 1.0f / static_cast<float>(c);
	.loc 1 155 19 view .LVU866
	mov	DWORD PTR 224[rsp], r13d	# %sfp, _2
	mov	r11, rdi	# ivtmp.474, _599
.LBE2723:
.LBE2722:
.LBE2721:
.LBE2720:
.LBB2744:
.LBB2575:
.LBB2542:
.LBB2535:
# /usr/include/c++/16/bits/stl_vector.h:409: 	this->_M_impl._M_end_of_storage = this->_M_impl._M_start + __n;
	.loc 2 409 59 view .LVU867
	xor	r10d, r10d	# ivtmp.472
	mov	r12, QWORD PTR 88[rsp]	# ivtmp.475, %sfp
.LBE2535:
.LBE2542:
.LBE2575:
.LBE2744:
.LBB2745:
.LBB2742:
.LBB2737:
.LBB2730:
# src/avx_analysis_code_ablations/opt9_abl_hand_vec_no_tile.cpp:155:             float inv_c = 1.0f / static_cast<float>(c);
	.loc 1 155 19 view .LVU868
	vmovss	xmm2, DWORD PTR .LC1[rip]	# tmp1496,
	mov	QWORD PTR 216[rsp], rbx	# %sfp, _300
.LBE2730:
.LBE2737:
.LBE2742:
# src/avx_analysis_code_ablations/opt9_abl_hand_vec_no_tile.cpp:146:     for (int y = 0; y < h; ++y) {
	.loc 1 146 14 view .LVU869
	xor	r14d, r14d	# y
	add	rax, rcx	# _450, _629
.LBB2743:
.LBB2738:
.LBB2731:
# src/avx_analysis_code_ablations/opt9_abl_hand_vec_no_tile.cpp:155:             float inv_c = 1.0f / static_cast<float>(c);
	.loc 1 155 19 view .LVU870
	mov	rbx, QWORD PTR 72[rsp]	# <retval>, %sfp
	mov	QWORD PTR 248[rsp], rax	# %sfp, _450
	sal	rax, 2	# tmp1444,
	mov	QWORD PTR 240[rsp], rax	# %sfp, tmp1444
	mov	eax, r15d	# _1238, _1
	lea	r15, 0[0+rax*4]	# _1244,
	lea	eax, -1[rcx]	# _528,
	lea	r8, 3[rax+rax*2]	# _893,
	.p2align 4,,10
	.p2align 3
.L58:
.LVL153:
	.loc 1 155 19 view .LVU871
.LBE2731:
.LBE2738:
	.loc 1 147 9 is_stmt 1 view .LVU872
	.loc 1 148 9 view .LVU873
.LBB2739:
.LBI2739:
	.loc 2 1385 7 view .LVU874
	.loc 2 1385 7 is_stmt 0 view .LVU875
.LBE2739:
	.loc 1 149 9 is_stmt 1 view .LVU876
.LBB2740:
	.loc 1 149 27 discriminator 2 view .LVU877
.LBE2740:
# src/avx_analysis_code_ablations/opt9_abl_hand_vec_no_tile.cpp:148:         unsigned char* outp = output.data.data() + (size_t)y * width * 3;
	.loc 1 148 72 is_stmt 0 discriminator 1 view .LVU878
	mov	rcx, QWORD PTR 16[rbx]	# outp, MEM[(struct vector *)output_189(D) + 16B].D.87585._M_impl.D.86896._M_start
	lea	r9, 0[0+r10*4]	# _1093,
	mov	rdx, r12	# ivtmp.459, ivtmp.475
	xor	eax, eax	# ivtmp.467
	add	rcx, r10	# outp, ivtmp.472
	jmp	.L57	#
.LVL154:
	.loc 1 148 72 discriminator 1 view .LVU879
	.p2align 5
	.p2align 4,,10
	.p2align 3
.L55:
.LBB2741:
.LBB2732:
	.loc 1 152 17 is_stmt 1 view .LVU880
# src/avx_analysis_code_ablations/opt9_abl_hand_vec_no_tile.cpp:152:                 outp[x*3] = outp[x*3+1] = outp[x*3+2] = 0;
	.loc 1 152 27 is_stmt 0 view .LVU881
	xor	esi, esi	#
.LVL155:
# src/avx_analysis_code_ablations/opt9_abl_hand_vec_no_tile.cpp:152:                 outp[x*3] = outp[x*3+1] = outp[x*3+2] = 0;
	.loc 1 152 55 view .LVU882
	mov	BYTE PTR 2[rcx+rax], 0	# MEM[(unsigned char *)outp_938 + 2B + ivtmp.467_524 * 1],
.LBE2732:
# src/avx_analysis_code_ablations/opt9_abl_hand_vec_no_tile.cpp:149:         for (int x = 0; x < w; ++x) {
	.loc 1 149 27 discriminator 2 view .LVU883
	add	rdx, 4	# ivtmp.459,
.LVL156:
.LBB2733:
# src/avx_analysis_code_ablations/opt9_abl_hand_vec_no_tile.cpp:152:                 outp[x*3] = outp[x*3+1] = outp[x*3+2] = 0;
	.loc 1 152 27 view .LVU884
	mov	WORD PTR [rcx+rax], si	# MEM <vector(2) unsigned char> [(unsigned char *)outp_938 + ivtmp.467_524 * 1],
	.loc 1 153 17 is_stmt 1 view .LVU885
.LBE2733:
	.loc 1 149 9 discriminator 1 view .LVU886
.LVL157:
	.loc 1 149 27 discriminator 2 view .LVU887
	add	rax, 3	# ivtmp.467,
.LVL158:
	.loc 1 149 27 is_stmt 0 discriminator 2 view .LVU888
	cmp	rax, r8	# ivtmp.467, _893
	je	.L160	#,
.LVL159:
.L57:
.LBB2734:
	.loc 1 150 13 is_stmt 1 view .LVU889
# src/avx_analysis_code_ablations/opt9_abl_hand_vec_no_tile.cpp:150:             int c = counts[y * w + x];
	.loc 1 150 37 is_stmt 0 discriminator 1 view .LVU890
	mov	esi, DWORD PTR [rdx]	# c, MEM[(value_type &)_861]
.LVL160:
	.loc 1 151 13 is_stmt 1 view .LVU891
	test	esi, esi	# c
	je	.L55	#,
	.loc 1 155 13 view .LVU892
# src/avx_analysis_code_ablations/opt9_abl_hand_vec_no_tile.cpp:155:             float inv_c = 1.0f / static_cast<float>(c);
	.loc 1 155 34 is_stmt 0 view .LVU893
	vcvtsi2ss	xmm0, xmm4, esi	# tmp1555, tmp1526, c
.LBE2734:
# src/avx_analysis_code_ablations/opt9_abl_hand_vec_no_tile.cpp:149:         for (int x = 0; x < w; ++x) {
	.loc 1 149 27 discriminator 2 view .LVU894
	add	rdx, 4	# ivtmp.459,
.LBB2735:
# src/avx_analysis_code_ablations/opt9_abl_hand_vec_no_tile.cpp:155:             float inv_c = 1.0f / static_cast<float>(c);
	.loc 1 155 19 view .LVU895
	vdivss	xmm0, xmm2, xmm0	# inv_c, tmp1496, _859
.LVL161:
	.loc 1 156 13 is_stmt 1 view .LVU896
.LBB2724:
	.loc 1 156 33 discriminator 2 view .LVU897
.LBB2725:
	.loc 1 157 17 view .LVU898
	.loc 1 158 17 view .LVU899
# src/avx_analysis_code_ablations/opt9_abl_hand_vec_no_tile.cpp:157:                 float v = vp[x*3 + ch] * inv_c;
	.loc 1 157 23 is_stmt 0 discriminator 32768 view .LVU900
	vmulss	xmm1, xmm0, DWORD PTR [r11+rax*4]	# v_853, inv_c, MEM[(const float *)_562 + ivtmp.467_524 * 4]
# src/avx_analysis_code_ablations/opt9_abl_hand_vec_no_tile.cpp:158:                 outp[x*3 + ch] = static_cast<unsigned char>(v);
	.loc 1 158 34 discriminator 32768 view .LVU901
	vcvttss2si	esi, xmm1	# tmp1458, v_853
.LVL162:
	.loc 1 158 34 discriminator 32768 view .LVU902
	mov	BYTE PTR [rcx+rax], sil	# MEM[(unsigned char *)outp_938 + ivtmp.467_524 * 1], tmp1458
.LBE2725:
	.loc 1 156 13 is_stmt 1 discriminator 1 view .LVU903
.LVL163:
	.loc 1 156 33 discriminator 2 view .LVU904
.LBB2726:
	.loc 1 157 17 view .LVU905
# src/avx_analysis_code_ablations/opt9_abl_hand_vec_no_tile.cpp:157:                 float v = vp[x*3 + ch] * inv_c;
	.loc 1 157 34 is_stmt 0 discriminator 65536 view .LVU906
	lea	esi, 1[rax]	# _849,
.LVL164:
	.loc 1 158 17 is_stmt 1 view .LVU907
# src/avx_analysis_code_ablations/opt9_abl_hand_vec_no_tile.cpp:157:                 float v = vp[x*3 + ch] * inv_c;
	.loc 1 157 38 is_stmt 0 discriminator 65536 view .LVU908
	lea	r13, [rdi+rsi*4]	# tmp1460,
# src/avx_analysis_code_ablations/opt9_abl_hand_vec_no_tile.cpp:157:                 float v = vp[x*3 + ch] * inv_c;
	.loc 1 157 23 discriminator 65536 view .LVU909
	vmulss	xmm1, xmm0, DWORD PTR 0[r13+r9]	# v_844, inv_c, *_846
# src/avx_analysis_code_ablations/opt9_abl_hand_vec_no_tile.cpp:158:                 outp[x*3 + ch] = static_cast<unsigned char>(v);
	.loc 1 158 34 discriminator 65536 view .LVU910
	vcvttss2si	r13d, xmm1	# tmp1465, v_844
	mov	BYTE PTR [rcx+rsi], r13b	# *_843, tmp1465
.LBE2726:
	.loc 1 156 13 is_stmt 1 discriminator 1 view .LVU911
.LVL165:
	.loc 1 156 33 discriminator 2 view .LVU912
.LBB2727:
	.loc 1 157 17 view .LVU913
# src/avx_analysis_code_ablations/opt9_abl_hand_vec_no_tile.cpp:157:                 float v = vp[x*3 + ch] * inv_c;
	.loc 1 157 34 is_stmt 0 discriminator 98304 view .LVU914
	lea	esi, 2[rax]	# _839,
.LVL166:
	.loc 1 158 17 is_stmt 1 view .LVU915
.LBE2727:
.LBE2724:
.LBE2735:
# src/avx_analysis_code_ablations/opt9_abl_hand_vec_no_tile.cpp:149:         for (int x = 0; x < w; ++x) {
	.loc 1 149 27 is_stmt 0 discriminator 2 view .LVU916
	add	rax, 3	# ivtmp.467,
.LVL167:
.LBB2736:
.LBB2729:
.LBB2728:
# src/avx_analysis_code_ablations/opt9_abl_hand_vec_no_tile.cpp:157:                 float v = vp[x*3 + ch] * inv_c;
	.loc 1 157 38 discriminator 98304 view .LVU917
	lea	r13, [rdi+rsi*4]	# tmp1467,
# src/avx_analysis_code_ablations/opt9_abl_hand_vec_no_tile.cpp:157:                 float v = vp[x*3 + ch] * inv_c;
	.loc 1 157 23 discriminator 98304 view .LVU918
	vmulss	xmm0, xmm0, DWORD PTR 0[r13+r9]	# v_834, inv_c, *_836
.LVL168:
# src/avx_analysis_code_ablations/opt9_abl_hand_vec_no_tile.cpp:158:                 outp[x*3 + ch] = static_cast<unsigned char>(v);
	.loc 1 158 34 discriminator 98304 view .LVU919
	vcvttss2si	r13d, xmm0	# tmp1472, v_834
	mov	BYTE PTR [rcx+rsi], r13b	# *_833, tmp1472
.LBE2728:
	.loc 1 156 13 is_stmt 1 discriminator 1 view .LVU920
.LVL169:
	.loc 1 156 33 discriminator 2 view .LVU921
.LBE2729:
.LBE2736:
	.loc 1 149 9 discriminator 1 view .LVU922
	.loc 1 149 27 discriminator 2 view .LVU923
	cmp	rax, r8	# ivtmp.467, _893
	jne	.L57	#,
.LVL170:
.L160:
	.loc 1 149 27 is_stmt 0 discriminator 2 view .LVU924
.LBE2741:
.LBE2743:
	.loc 1 146 5 is_stmt 1 discriminator 1 view .LVU925
	inc	r14d	# y
.LVL171:
	.loc 1 146 23 discriminator 2 view .LVU926
	add	r10, QWORD PTR 248[rsp]	# ivtmp.472, %sfp
	add	r11, QWORD PTR 240[rsp]	# ivtmp.474, %sfp
	add	r12, r15	# ivtmp.475, _1244
	cmp	r14d, DWORD PTR 224[rsp]	# y, %sfp
	jne	.L58	#,
	mov	rbx, QWORD PTR 216[rsp]	# _300, %sfp
.LVL172:
.L53:
	.loc 1 146 23 is_stmt 0 discriminator 2 view .LVU927
.LBE2745:
	.loc 1 163 5 is_stmt 1 view .LVU928
.LBB2746:
.LBI2746:
	.loc 2 790 7 view .LVU929
.LBB2747:
.LBI2747:
	.loc 2 307 7 view .LVU930
	.loc 2 307 7 is_stmt 0 view .LVU931
.LBE2747:
.LBB2748:
.LBI2748:
	.loc 8 1082 5 is_stmt 1 view .LVU932
	.loc 8 1082 5 is_stmt 0 view .LVU933
.LBE2748:
.LBB2749:
.LBI2749:
	.loc 2 373 7 is_stmt 1 view .LVU934
.LBB2750:
.LBB2751:
.LBI2751:
	.loc 2 394 7 view .LVU935
.LBB2752:
# /usr/include/c++/16/bits/stl_vector.h:397: 	if (__p)
	.loc 2 397 2 is_stmt 0 view .LVU936
	test	rdi, rdi	# _599
	je	.L39	#,
.LVL173:
.L71:
.LBB2753:
.LBI2753:
	.loc 8 688 7 is_stmt 1 view .LVU937
.LBB2754:
.LBI2754:
	.loc 6 167 7 view .LVU938
.LBB2755:
# /usr/include/c++/16/bits/new_allocator.h:183: 	_GLIBCXX_OPERATOR_DELETE(_GLIBCXX_SIZED_DEALLOC(__p, __n));
	.loc 6 183 59 is_stmt 0 view .LVU939
	mov	rsi, QWORD PTR 80[rsp]	#, %sfp
	call	"_ZdlPvm"@PLT	#
.LVL174:
	.loc 6 183 59 view .LVU940
.LBE2755:
.LBE2754:
.LBE2753:
.LBE2752:
.LBE2751:
.LBE2750:
.LBB2756:
.LBI2756:
	.loc 2 139 14 is_stmt 1 view .LVU941
.LBB2757:
.LBI2757:
	.loc 5 189 7 view .LVU942
.LBB2758:
.LBI2758:
	.loc 6 104 7 view .LVU943
	.loc 6 104 7 is_stmt 0 view .LVU944
.LBE2758:
.LBE2757:
.LBE2756:
.LBE2749:
.LBE2746:
.LBB2759:
.LBI2759:
	.loc 2 790 7 is_stmt 1 view .LVU945
.LBB2760:
.LBI2760:
	.loc 2 307 7 view .LVU946
	.loc 2 307 7 is_stmt 0 view .LVU947
.LBE2760:
.LBB2761:
.LBI2761:
	.loc 8 1082 5 is_stmt 1 view .LVU948
	.loc 8 1082 5 is_stmt 0 view .LVU949
.LBE2761:
.LBB2762:
.LBI2762:
	.loc 2 373 7 is_stmt 1 view .LVU950
.L39:
.LBB2763:
.LBB2764:
.LBI2764:
	.loc 2 394 7 view .LVU951
.LBB2765:
# /usr/include/c++/16/bits/stl_vector.h:397: 	if (__p)
	.loc 2 397 2 is_stmt 0 view .LVU952
	test	rbx, rbx	# _300
	je	.L59	#,
.LVL175:
.LBB2766:
.LBI2766:
	.loc 8 688 7 is_stmt 1 view .LVU953
.LBB2767:
.LBI2767:
	.loc 6 167 7 view .LVU954
.LBB2768:
# /usr/include/c++/16/bits/new_allocator.h:183: 	_GLIBCXX_OPERATOR_DELETE(_GLIBCXX_SIZED_DEALLOC(__p, __n));
	.loc 6 183 59 is_stmt 0 view .LVU955
	mov	rsi, QWORD PTR 64[rsp]	#, %sfp
	mov	rdi, rbx	#, _300
	call	"_ZdlPvm"@PLT	#
.LVL176:
	.loc 6 183 59 view .LVU956
.LBE2768:
.LBE2767:
.LBE2766:
.LBE2765:
.LBE2764:
.LBE2763:
.LBB2769:
.LBI2769:
	.loc 2 139 14 is_stmt 1 view .LVU957
.LBB2770:
.LBI2770:
	.loc 5 189 7 view .LVU958
.LBB2771:
.LBI2771:
	.loc 6 104 7 view .LVU959
	.loc 6 104 7 is_stmt 0 view .LVU960
.LBE2771:
.LBE2770:
.LBE2769:
.LBE2762:
.LBE2759:
.LBB2772:
.LBI2772:
	.loc 2 790 7 is_stmt 1 view .LVU961
.LBB2773:
.LBI2773:
	.loc 2 307 7 view .LVU962
	.loc 2 307 7 is_stmt 0 view .LVU963
.LBE2773:
.LBB2774:
.LBI2774:
	.loc 8 1082 5 is_stmt 1 view .LVU964
	.loc 8 1082 5 is_stmt 0 view .LVU965
.LBE2774:
.LBB2775:
.LBI2775:
	.loc 2 373 7 is_stmt 1 view .LVU966
.L59:
.LBB2776:
.LBB2777:
.LBI2777:
	.loc 2 394 7 view .LVU967
.LBB2778:
# /usr/include/c++/16/bits/stl_vector.h:397: 	if (__p)
	.loc 2 397 2 is_stmt 0 view .LVU968
	mov	rax, QWORD PTR 88[rsp]	# _445, %sfp
	test	rax, rax	# _445
	je	.L60	#,
.LVL177:
.LBB2779:
.LBI2779:
	.loc 8 688 7 is_stmt 1 view .LVU969
.LBB2780:
.LBI2780:
	.loc 6 167 7 view .LVU970
.LBB2781:
# /usr/include/c++/16/bits/new_allocator.h:183: 	_GLIBCXX_OPERATOR_DELETE(_GLIBCXX_SIZED_DEALLOC(__p, __n));
	.loc 6 183 59 is_stmt 0 view .LVU971
	mov	rsi, QWORD PTR 48[rsp]	#, %sfp
	mov	rdi, rax	#, _445
	call	"_ZdlPvm"@PLT	#
.LVL178:
.L60:
	.loc 6 183 59 view .LVU972
.LBE2781:
.LBE2780:
.LBE2779:
.LBE2778:
.LBE2777:
.LBE2776:
.LBB2782:
.LBI2782:
	.loc 2 139 14 is_stmt 1 view .LVU973
.LBB2783:
.LBI2783:
	.loc 5 189 7 view .LVU974
.LBB2784:
.LBI2784:
	.loc 6 104 7 view .LVU975
	.loc 6 104 7 is_stmt 0 view .LVU976
.LBE2784:
.LBE2783:
.LBE2782:
.LBE2775:
.LBE2772:
.LBB2785:
.LBI2330:
	.loc 2 790 7 is_stmt 1 view .LVU977
.LBB2344:
.LBI2344:
	.loc 2 307 7 view .LVU978
	.loc 2 307 7 is_stmt 0 view .LVU979
.LBE2344:
.LBB2345:
.LBI2345:
	.loc 8 1082 5 is_stmt 1 view .LVU980
	.loc 8 1082 5 is_stmt 0 view .LVU981
.LBE2345:
.LBB2346:
.LBI2331:
	.loc 2 373 7 is_stmt 1 view .LVU982
.LBB2340:
.LBB2333:
.LBI2333:
	.loc 2 394 7 view .LVU983
.LBB2334:
# /usr/include/c++/16/bits/stl_vector.h:397: 	if (__p)
	.loc 2 397 2 is_stmt 0 view .LVU984
	mov	rax, QWORD PTR 112[rsp]	# params$_M_start, %sfp
	test	rax, rax	# params$_M_start
	je	.L1	#,
.LVL179:
.LBB2335:
.LBI2335:
	.loc 2 394 7 is_stmt 1 view .LVU985
.LBB2336:
.LBB2337:
.LBI2337:
	.loc 8 688 7 view .LVU986
.LBB2338:
.LBI2338:
	.loc 6 167 7 view .LVU987
.LBB2339:
# /usr/include/c++/16/bits/new_allocator.h:183: 	_GLIBCXX_OPERATOR_DELETE(_GLIBCXX_SIZED_DEALLOC(__p, __n));
	.loc 6 183 59 is_stmt 0 view .LVU988
	mov	rsi, QWORD PTR 56[rsp]	#, %sfp
	mov	rdi, rax	#, params$_M_start
	call	"_ZdlPvm"@PLT	#
.LVL180:
	.loc 6 183 59 view .LVU989
.LBE2339:
.LBE2338:
.LBE2337:
.LBE2336:
.LBE2335:
.LBE2334:
.LBE2333:
.LBE2340:
.LBB2341:
.LBI2341:
	.loc 2 139 14 is_stmt 1 view .LVU990
.LBB2342:
.LBI2342:
	.loc 5 189 7 view .LVU991
.LBB2343:
.LBI2343:
	.loc 6 104 7 view .LVU992
.L1:
	.loc 6 104 7 is_stmt 0 view .LVU993
.LBE2343:
.LBE2342:
.LBE2341:
.LBE2346:
.LBE2785:
# src/avx_analysis_code_ablations/opt9_abl_hand_vec_no_tile.cpp:164: }
	.loc 1 164 1 view .LVU994
	mov	rax, QWORD PTR 72[rsp]	#, %sfp
	lea	rsp, -40[rbp]	#,
.LVL181:
	.loc 1 164 1 view .LVU995
	pop	rbx	#
	pop	r12	#
	pop	r13	#
	pop	r14	#
	pop	r15	#
	pop	rbp	#
	.cfi_remember_state
	.cfi_def_cfa 7, 8
.LVL182:
	.loc 1 164 1 view .LVU996
	ret	
.LVL183:
.L157:
	.cfi_restore_state
.LBB2786:
.LBB2152:
.LBB2145:
.LBB2137:
.LBB2131:
# /usr/include/c++/16/bits/stl_vector.h:106: 	: _M_start(), _M_finish(), _M_end_of_storage()
	.loc 2 106 4 view .LVU997
	mov	QWORD PTR 128[rsp], 0	# %sfp,
.LBE2131:
.LBE2137:
.LBE2145:
.LBE2152:
.LBE2786:
# src/avx_analysis_code_ablations/opt9_abl_hand_vec_no_tile.cpp:36:     const int w = static_cast<int>(width);
	.loc 1 36 15 view .LVU998
	mov	r15d, eax	# _1, _629
# src/avx_analysis_code_ablations/opt9_abl_hand_vec_no_tile.cpp:37:     const int h = static_cast<int>(height);
	.loc 1 37 15 view .LVU999
	mov	r13d, edi	# _2, _500
.LVL184:
	.loc 1 47 5 is_stmt 1 view .LVU1000
.LBB2787:
.LBB2322:
	.loc 2 988 7 view .LVU1001
.LBB2182:
	.loc 3 1058 7 view .LVU1002
	.loc 3 1058 7 is_stmt 0 view .LVU1003
.LBE2182:
.LBE2322:
.LBB2323:
	.loc 2 1008 7 is_stmt 1 view .LVU1004
.LBB2185:
	.loc 3 1058 7 view .LVU1005
	.loc 3 1058 7 is_stmt 0 view .LVU1006
.LBE2185:
.LBE2323:
	.loc 1 47 22 is_stmt 1 discriminator 5 view .LVU1007
.LBE2787:
.LBB2788:
.LBB2153:
.LBB2146:
.LBB2138:
.LBB2132:
# /usr/include/c++/16/bits/stl_vector.h:106: 	: _M_start(), _M_finish(), _M_end_of_storage()
	.loc 2 106 29 is_stmt 0 view .LVU1008
	mov	QWORD PTR 240[rsp], 0	# %sfp,
.LBE2132:
.LBE2138:
.LBE2146:
.LBE2153:
.LBE2788:
.LBB2789:
# src/avx_analysis_code_ablations/opt9_abl_hand_vec_no_tile.cpp:47:     for (auto& sub : subapertures) {
	.loc 1 47 22 discriminator 6 view .LVU1009
	cmp	rcx, rsi	# SR.270, _704
	jne	.L5	#,
.LBE2789:
.LBB2790:
.LBB2154:
.LBB2147:
.LBB2139:
.LBB2133:
# /usr/include/c++/16/bits/stl_vector.h:106: 	: _M_start(), _M_finish(), _M_end_of_storage()
	.loc 2 106 4 view .LVU1010
	mov	QWORD PTR 112[rsp], 0	# %sfp,
.LVL185:
.L77:
	.loc 2 106 4 view .LVU1011
.LBE2133:
.LBE2139:
.LBE2147:
.LBE2154:
.LBE2790:
.LBB2791:
.LBB2399:
.LBB2379:
.LBB2377:
# /usr/include/c++/16/bits/stl_vector.h:409: 	this->_M_impl._M_end_of_storage = this->_M_impl._M_start + __n;
	.loc 2 409 59 view .LVU1012
	mov	QWORD PTR 48[rsp], 0	# %sfp,
.LBB2375:
.LBB2373:
# /usr/include/c++/16/bits/stl_vector.h:389: 	return __n != 0 ? _Tr::allocate(_M_impl, __n) : pointer();
	.loc 2 389 58 discriminator 3 view .LVU1013
	mov	QWORD PTR 88[rsp], 0	# %sfp,
	jmp	.L18	#
.LVL186:
	.p2align 4,,10
	.p2align 3
.L159:
	.loc 2 389 58 discriminator 3 view .LVU1014
.LBE2373:
.LBE2375:
.LBE2377:
.LBE2379:
.LBE2399:
.LBE2791:
.LBB2792:
.LBB2717:
.LBB2716:
.LBB2692:
	.loc 1 134 13 is_stmt 1 view .LVU1015
	.loc 1 135 13 view .LVU1016
.LBB2683:
	.loc 1 135 31 discriminator 2 view .LVU1017
	mov	r9d, DWORD PTR 192[rsp]	# x_stop_242, %sfp
	test	r9d, r9d	# x_stop_242
	jle	.L44	#,
.LBB2680:
# src/avx_analysis_code_ablations/opt9_abl_hand_vec_no_tile.cpp:136:                 float TL = p.SUB[ind_ltop + k];
	.loc 1 136 30 is_stmt 0 view .LVU1018
	mov	rsi, QWORD PTR 200[rsp]	# ivtmp.528, %sfp
.LBE2680:
.LBE2683:
# src/avx_analysis_code_ablations/opt9_abl_hand_vec_no_tile.cpp:100:             size_t ind_rbot = ind_lbot + 3;
	.loc 1 100 20 view .LVU1019
	mov	r14, QWORD PTR 224[rsp]	# ind_rbot, %sfp
# src/avx_analysis_code_ablations/opt9_abl_hand_vec_no_tile.cpp:97:             size_t ind_ltop = ((y + p.sy) * width + (p.x_begin + p.sx)) * 3;
	.loc 1 97 20 view .LVU1020
	mov	r11, r15	# ind_ltop, ivtmp.517
.LBB2684:
# src/avx_analysis_code_ablations/opt9_abl_hand_vec_no_tile.cpp:135:             for (int k = 0; k < remaining; ++k) {
	.loc 1 135 22 view .LVU1021
	xor	r8d, r8d	# tmp.398
.LBB2681:
# src/avx_analysis_code_ablations/opt9_abl_hand_vec_no_tile.cpp:136:                 float TL = p.SUB[ind_ltop + k];
	.loc 1 136 30 view .LVU1022
	mov	rsi, QWORD PTR 40[rsi]	# _94, MEM[(const unsigned char * *)_1129 + 40B]
	add	rcx, rsi	# tmp1487, _94
.LVL187:
	.loc 1 136 30 view .LVU1023
	jmp	.L45	#
.LVL188:
.L81:
	.loc 1 136 30 view .LVU1024
.LBE2681:
# src/avx_analysis_code_ablations/opt9_abl_hand_vec_no_tile.cpp:135:             for (int k = 0; k < remaining; ++k) {
	.loc 1 135 22 view .LVU1025
	xor	r9d, r9d	# niters_vector_mult_vf.357
	sub	r10d, r9d	# niters.395, niters_vector_mult_vf.357
	lea	r12d, -1[r10]	# _1095,
	cmp	r12d, 6	# _1095,
	ja	.L161	#,
.L82:
.LBB2682:
# src/avx_analysis_code_ablations/opt9_abl_hand_vec_no_tile.cpp:140:                 vp[k] += p.A*TL + p.B*TR + p.C*BL + p.D*BR;
	.loc 1 140 23 discriminator 133120 view .LVU1026
	mov	r9d, DWORD PTR 248[rsp]	# prephitmp_764, %sfp
	jmp	.L45	#
.LVL189:
.L80:
	.loc 1 140 23 discriminator 133120 view .LVU1027
.LBE2682:
# src/avx_analysis_code_ablations/opt9_abl_hand_vec_no_tile.cpp:135:             for (int k = 0; k < remaining; ++k) {
	.loc 1 135 31 discriminator 2 view .LVU1028
	xor	ebx, ebx	# niters_vector_mult_vf.317
# src/avx_analysis_code_ablations/opt9_abl_hand_vec_no_tile.cpp:135:             for (int k = 0; k < remaining; ++k) {
	.loc 1 135 22 view .LVU1029
	xor	r8d, r8d	# tmp.398
	add	rcx, rsi	# tmp1487, _94
	jmp	.L47	#
.LVL190:
.L2:
	.loc 1 135 22 view .LVU1030
.LBE2684:
.LBE2692:
.LBE2716:
.LBE2717:
.LBE2792:
.LBB2793:
.LBB2119:
.LBB2116:
.LBB2113:
.LBB2039:
.LBB2040:
.LBI2040:
	.loc 2 589 7 is_stmt 1 view .LVU1031
.LBB2041:
.LBI2041:
	.loc 2 2203 7 view .LVU1032
.LBB2042:
.LBB2043:
.LBI2043:
	.loc 5 172 7 view .LVU1033
.LBB2044:
.LBI2044:
	.loc 6 92 7 view .LVU1034
	.loc 6 92 7 is_stmt 0 view .LVU1035
.LBE2044:
.LBE2043:
.LBB2045:
.LBI2045:
	.loc 5 189 7 is_stmt 1 view .LVU1036
.LBB2046:
.LBI2046:
	.loc 6 104 7 view .LVU1037
.LBE2046:
.LBE2045:
# /usr/include/c++/16/bits/stl_vector.h:2205: 	if (__n > _S_max_size(_Tp_alloc_type(__a)))
	.loc 2 2205 2 is_stmt 0 discriminator 3 view .LVU1038
	cmp	QWORD PTR 224[rsp], 0	# %sfp,
	js	.L141	#,
.LBE2042:
.LBE2041:
.LBB2048:
.LBB2049:
.LBB2050:
.LBB2051:
.LBB2052:
.LBB2053:
.LBB2054:
.LBB2055:
# /usr/include/c++/16/bits/new_allocator.h:162: 	  return static_cast<_Tp*>(_GLIBCXX_OPERATOR_NEW(__n * sizeof(_Tp)));
	.loc 6 162 68 view .LVU1039
	mov	rdi, rdx	#, _5
	mov	QWORD PTR 240[rsp], rcx	# %sfp, SR.270
.LVL191:
	.loc 6 162 68 view .LVU1040
.LBE2055:
.LBE2054:
.LBE2053:
.LBE2052:
.LBE2051:
.LBE2050:
.LBE2049:
.LBI2048:
	.loc 2 339 7 is_stmt 1 view .LVU1041
.LBB2064:
.LBI2064:
	.loc 2 152 2 view .LVU1042
.LBB2065:
.LBI2065:
	.loc 5 172 7 view .LVU1043
.LBB2066:
.LBI2066:
	.loc 6 92 7 view .LVU1044
	.loc 6 92 7 is_stmt 0 view .LVU1045
.LBE2066:
.LBE2065:
.LBB2067:
.LBI2067:
	.loc 2 105 2 is_stmt 1 view .LVU1046
	.loc 2 105 2 is_stmt 0 view .LVU1047
.LBE2067:
.LBE2064:
.LBB2068:
.LBI2049:
	.loc 2 405 7 is_stmt 1 view .LVU1048
.LBB2061:
.LBB2060:
.LBI2051:
	.loc 2 386 7 view .LVU1049
.LBB2059:
.LBB2058:
.LBI2053:
	.loc 8 637 7 view .LVU1050
.LBB2057:
.LBI2054:
	.loc 6 129 7 view .LVU1051
	mov	r14, rdx	# _5, _5
	vmovss	DWORD PTR 216[rsp], xmm4	# %sfp, focus
.LEHB4:
.LBB2056:
# /usr/include/c++/16/bits/new_allocator.h:162: 	  return static_cast<_Tp*>(_GLIBCXX_OPERATOR_NEW(__n * sizeof(_Tp)));
	.loc 6 162 68 is_stmt 0 view .LVU1052
	call	"_Znwm"@PLT	#
.LVL192:
.LEHE4:
	.loc 6 162 68 view .LVU1053
	mov	rdi, rax	# tmp1514,
.LVL193:
	.loc 6 162 68 view .LVU1054
.LBE2056:
.LBE2057:
.LBE2058:
.LBE2059:
.LBE2060:
.LBE2061:
.LBE2068:
.LBE2048:
.LBB2071:
.LBB2072:
.LBB2073:
.LBB2074:
.LBB2075:
.LBB2076:
# /usr/include/c++/16/bits/stl_uninitialized.h:577: 		      __builtin_memset(__dest, (unsigned char)__x, __n);
	.loc 12 577 25 view .LVU1055
	xor	esi, esi	#
.LBE2076:
.LBE2075:
.LBE2074:
.LBE2073:
.LBE2072:
.LBE2071:
.LBB2089:
.LBB2069:
.LBB2062:
# /usr/include/c++/16/bits/stl_vector.h:409: 	this->_M_impl._M_end_of_storage = this->_M_impl._M_start + __n;
	.loc 2 409 59 view .LVU1056
	lea	r12, [rax+r14]	# _434,
.LVL194:
	.loc 2 409 59 view .LVU1057
.LBE2062:
.LBE2069:
.LBE2089:
.LBB2090:
.LBI2071:
	.loc 2 1987 7 is_stmt 1 view .LVU1058
.LBB2086:
.LBI2072:
	.loc 12 771 5 view .LVU1059
.LBB2083:
.LBI2073:
	.loc 12 550 5 view .LVU1060
	.loc 12 550 5 is_stmt 0 view .LVU1061
.LBE2083:
.LBE2086:
.LBE2090:
.LBB2091:
.LBB2070:
.LBB2063:
# /usr/include/c++/16/bits/stl_vector.h:409: 	this->_M_impl._M_end_of_storage = this->_M_impl._M_start + __n;
	.loc 2 409 59 view .LVU1062
	mov	rdx, r14	# _5, _5
.LBE2063:
.LBE2070:
.LBE2091:
.LBB2092:
.LBB2087:
.LBB2084:
.LBB2081:
.LBB2079:
.LBB2077:
# /usr/include/c++/16/bits/stl_uninitialized.h:577: 		      __builtin_memset(__dest, (unsigned char)__x, __n);
	.loc 12 577 25 view .LVU1063
	call	"memset"@PLT	#
.LVL195:
	.loc 12 577 25 view .LVU1064
.LBE2077:
.LBE2079:
.LBE2081:
.LBE2084:
.LBE2087:
.LBE2092:
.LBE2040:
.LBE2039:
.LBE2113:
.LBE2116:
.LBE2119:
.LBE2793:
.LBB2794:
.LBB2175:
# /usr/include/c++/16/bits/vector.tcc:75:       if (this->capacity() < __n)
	.loc 7 75 7 discriminator 1 view .LVU1065
	mov	rcx, QWORD PTR 240[rsp]	# SR.270, %sfp
	vmovss	xmm4, DWORD PTR 216[rsp]	# focus, %sfp
.LBE2175:
.LBE2794:
.LBB2795:
.LBB2120:
.LBB2117:
.LBB2114:
.LBB2111:
.LBB2095:
.LBB2093:
.LBB2088:
.LBB2085:
.LBB2082:
.LBB2080:
.LBB2078:
# /usr/include/c++/16/bits/stl_uninitialized.h:577: 		      __builtin_memset(__dest, (unsigned char)__x, __n);
	.loc 12 577 25 view .LVU1066
	mov	rdi, rax	# tmp1514,
.LVL196:
	.loc 12 577 25 view .LVU1067
.LBE2078:
.LBE2080:
.LBE2082:
.LBE2085:
.LBE2088:
.LBE2093:
.LBE2095:
.LBB2096:
.LBI2096:
	.loc 2 128 2 is_stmt 1 view .LVU1068
.LBB2097:
.LBB2098:
.LBI2098:
	.loc 2 105 2 view .LVU1069
	.loc 2 105 2 is_stmt 0 view .LVU1070
.LBE2098:
.LBB2099:
.LBI2099:
	.loc 2 119 2 is_stmt 1 view .LVU1071
.LBB2100:
# /usr/include/c++/16/bits/stl_vector.h:121: 	  _M_start = __x._M_start;
	.loc 2 121 13 is_stmt 0 view .LVU1072
	mov	rax, QWORD PTR 72[rsp]	# <retval>, %sfp
.LVL197:
	.loc 2 121 13 view .LVU1073
	mov	QWORD PTR 16[rax], rdi	# MEM[(struct _Vector_impl_data *)output_189(D) + 16B]._M_start, tmp1514
# /usr/include/c++/16/bits/stl_vector.h:122: 	  _M_finish = __x._M_finish;
	.loc 2 122 14 view .LVU1074
	mov	QWORD PTR 24[rax], r12	# MEM[(struct _Vector_impl_data *)output_189(D) + 16B]._M_finish, _434
# /usr/include/c++/16/bits/stl_vector.h:123: 	  _M_end_of_storage = __x._M_end_of_storage;
	.loc 2 123 22 view .LVU1075
	mov	QWORD PTR 32[rax], r12	# MEM[(struct _Vector_impl_data *)output_189(D) + 16B]._M_end_of_storage, _434
.LVL198:
	.loc 2 123 22 view .LVU1076
.LBE2100:
.LBE2099:
.LBE2097:
.LBE2096:
.LBB2101:
.LBI2101:
	.loc 2 790 7 is_stmt 1 view .LVU1077
.LBB2102:
.LBI2102:
	.loc 2 307 7 view .LVU1078
	.loc 2 307 7 is_stmt 0 view .LVU1079
.LBE2102:
.LBB2103:
.LBI2103:
	.loc 8 1082 5 is_stmt 1 view .LVU1080
	.loc 8 1082 5 is_stmt 0 view .LVU1081
.LBE2103:
.LBB2104:
.LBI2104:
	.loc 2 373 7 is_stmt 1 view .LVU1082
.LBB2105:
.LBB2106:
.LBI2106:
	.loc 2 394 7 view .LVU1083
	.loc 2 394 7 is_stmt 0 view .LVU1084
.LBE2106:
.LBE2105:
.LBB2107:
.LBI2107:
	.loc 2 139 14 is_stmt 1 view .LVU1085
.LBB2108:
.LBI2108:
	.loc 5 189 7 view .LVU1086
.LBB2109:
.LBI2109:
	.loc 6 104 7 view .LVU1087
	.loc 6 104 7 is_stmt 0 view .LVU1088
.LBE2109:
.LBE2108:
.LBE2107:
.LBE2104:
.LBE2101:
.LBE2111:
.LBE2114:
.LBE2117:
.LBE2120:
.LBE2795:
	.loc 1 45 5 is_stmt 1 view .LVU1089
.LBB2796:
	.loc 2 551 7 view .LVU1090
.LBB2155:
	.loc 2 321 7 view .LVU1091
.LBB2148:
	.loc 2 143 2 view .LVU1092
.LBB2140:
	.loc 5 168 7 view .LVU1093
.LBB2127:
	.loc 6 88 7 view .LVU1094
	.loc 6 88 7 is_stmt 0 view .LVU1095
.LBE2127:
.LBE2140:
.LBB2141:
	.loc 2 105 2 is_stmt 1 view .LVU1096
	.loc 2 105 2 is_stmt 0 view .LVU1097
.LBE2141:
.LBE2148:
.LBE2155:
.LBE2796:
	.loc 1 46 5 is_stmt 1 view .LVU1098
.LBB2797:
	.loc 2 1107 7 view .LVU1099
.LBB2160:
# /usr/include/c++/16/bits/stl_vector.h:1109: 	ptrdiff_t __dif = this->_M_impl._M_finish - this->_M_impl._M_start;
	.loc 2 1109 34 is_stmt 0 view .LVU1100
	mov	rax, QWORD PTR 8[rbx]	# _704, MEM[(const struct vector *)subapertures_185(D)].D.139286._M_impl.D.138633._M_finish
.LVL199:
	.loc 2 1109 34 view .LVU1101
.LBE2160:
.LBE2797:
.LBB2798:
	.loc 7 70 5 is_stmt 1 view .LVU1102
	.loc 7 70 5 is_stmt 0 view .LVU1103
.LBE2798:
.LBB2799:
.LBB2161:
# /usr/include/c++/16/bits/stl_vector.h:1109: 	ptrdiff_t __dif = this->_M_impl._M_finish - this->_M_impl._M_start;
	.loc 2 1109 34 view .LVU1104
	mov	QWORD PTR 248[rsp], rax	# %sfp, _704
.LBE2161:
.LBE2799:
.LBB2800:
.LBB2176:
# /usr/include/c++/16/bits/vector.tcc:75:       if (this->capacity() < __n)
	.loc 7 75 7 discriminator 1 view .LVU1105
	sub	rax, rcx	# _616, SR.270
.LVL200:
	.loc 7 75 7 discriminator 1 view .LVU1106
	mov	QWORD PTR 56[rsp], rax	# %sfp, _616
	jne	.L4	#,
.LBE2176:
.LBE2800:
.LBB2801:
.LBB2156:
.LBB2149:
.LBB2142:
.LBB2134:
# /usr/include/c++/16/bits/stl_vector.h:106: 	: _M_start(), _M_finish(), _M_end_of_storage()
	.loc 2 106 29 view .LVU1107
	mov	QWORD PTR 240[rsp], 0	# %sfp,
# /usr/include/c++/16/bits/stl_vector.h:106: 	: _M_start(), _M_finish(), _M_end_of_storage()
	.loc 2 106 4 view .LVU1108
	mov	QWORD PTR 128[rsp], 0	# %sfp,
	jmp	.L8	#
.LVL201:
.L13:
	.loc 2 106 4 view .LVU1109
.LBE2134:
.LBE2142:
.LBE2149:
.LBE2156:
.LBE2801:
.LBB2802:
.LBB2324:
.LBB2317:
.LBB2313:
.LBB2211:
.LBI2211:
	.loc 7 565 7 is_stmt 1 view .LVU1110
.LBB2212:
.LBB2213:
.LBI2213:
	.loc 2 2192 7 view .LVU1111
.LBB2214:
.LBB2215:
.LBI2215:
	.loc 2 1107 7 view .LVU1112
.LBB2216:
# /usr/include/c++/16/bits/stl_vector.h:1109: 	ptrdiff_t __dif = this->_M_impl._M_finish - this->_M_impl._M_start;
	.loc 2 1109 44 is_stmt 0 view .LVU1113
	mov	r12, QWORD PTR 240[rsp]	# _504, %sfp
# /usr/include/c++/16/bits/stl_vector.h:1109: 	ptrdiff_t __dif = this->_M_impl._M_finish - this->_M_impl._M_start;
	.loc 2 1109 12 view .LVU1114
	movabs	rax, -6148914691236517205	# tmp812,
# /usr/include/c++/16/bits/stl_vector.h:1109: 	ptrdiff_t __dif = this->_M_impl._M_finish - this->_M_impl._M_start;
	.loc 2 1109 44 view .LVU1115
	sub	r12, QWORD PTR 112[rsp]	# _504, %sfp
.LVL202:
# /usr/include/c++/16/bits/stl_vector.h:1109: 	ptrdiff_t __dif = this->_M_impl._M_finish - this->_M_impl._M_start;
	.loc 2 1109 12 view .LVU1116
	mov	rdx, r12	# tmp810, _504
	sar	rdx, 4	# tmp810,
	imul	rdx, rax	# __dif_505, tmp812
.LVL203:
	.loc 2 1109 12 view .LVU1117
.LBE2216:
.LBE2215:
# /usr/include/c++/16/bits/stl_vector.h:2194: 	if (max_size() - size() < __n)
	.loc 2 2194 2 discriminator 2 view .LVU1118
	movabs	rax, 192153584101141162	# tmp813,
	cmp	rdx, rax	# __dif_505, tmp813
	je	.L142	#,
.LBB2217:
.LBB2218:
# /usr/include/c++/16/bits/stl_algobase.h:261:       if (__a < __b)
	.loc 10 261 7 view .LVU1119
	test	rdx, rdx	# __dif_505
	mov	eax, 1	# tmp1561,
	mov	QWORD PTR 104[rsp], rcx	# %sfp, SR.270
	cmovne	rax, rdx	# __dif_505,, _507
	mov	DWORD PTR 128[rsp], r11d	# %sfp, _21
	mov	DWORD PTR 152[rsp], esi	# %sfp, _17
.LBE2218:
.LBE2217:
# /usr/include/c++/16/bits/stl_vector.h:2197: 	const size_type __len = size() + (std::max)(size(), __n);
	.loc 2 2197 18 discriminator 3 view .LVU1120
	add	rax, rdx	# __len_508, __dif_505
# /usr/include/c++/16/bits/stl_vector.h:2198: 	return (__len < size() || __len > max_size()) ? max_size() : __len;
	.loc 2 2198 25 discriminator 3 view .LVU1121
	movabs	rdx, 192153584101141162	# tmp1562,
	mov	DWORD PTR 168[rsp], r8d	# %sfp, _10
	cmp	rax, rdx	# __len_508, tmp1562
	mov	DWORD PTR 176[rsp], r9d	# %sfp, _9
.LVL204:
.LBB2219:
.LBI2217:
	.loc 10 256 5 is_stmt 1 view .LVU1122
	.loc 10 256 5 is_stmt 0 view .LVU1123
.LBE2219:
.LBE2214:
.LBE2213:
.LBB2222:
.LBI2222:
	.loc 2 386 7 is_stmt 1 view .LVU1124
.LBB2223:
.LBB2224:
.LBI2224:
	.loc 8 637 7 view .LVU1125
.LBB2225:
.LBI2225:
	.loc 6 129 7 view .LVU1126
	.loc 6 129 7 is_stmt 0 view .LVU1127
.LBE2225:
.LBE2224:
.LBE2223:
.LBE2222:
.LBB2238:
.LBB2220:
# /usr/include/c++/16/bits/stl_vector.h:2198: 	return (__len < size() || __len > max_size()) ? max_size() : __len;
	.loc 2 2198 25 discriminator 3 view .LVU1128
	cmova	rax, rdx	# __len_508,, __len_508, tmp1562
	vmovss	DWORD PTR 96[rsp], xmm4	# %sfp, focus
	vmovss	DWORD PTR 136[rsp], xmm5	# %sfp, _16
.LBE2220:
.LBE2238:
.LBB2239:
.LBB2235:
.LBB2232:
.LBB2229:
.LBB2226:
# /usr/include/c++/16/bits/new_allocator.h:162: 	  return static_cast<_Tp*>(_GLIBCXX_OPERATOR_NEW(__n * sizeof(_Tp)));
	.loc 6 162 68 view .LVU1129
	lea	rax, [rax+rax*2]	# _525,
	vmovss	DWORD PTR 144[rsp], xmm0	# %sfp, _15
	sal	rax, 4	# _525,
	vmovss	DWORD PTR 156[rsp], xmm1	# %sfp, _14
	mov	rdi, rax	#, tmp820
	mov	QWORD PTR 192[rsp], rax	# %sfp, tmp820
	vmovss	DWORD PTR 160[rsp], xmm2	# %sfp, _13
.LEHB5:
	call	"_Znwm"@PLT	#
.LVL205:
.LEHE5:
	.loc 6 162 68 view .LVU1130
.LBE2226:
.LBE2229:
.LBE2232:
.LBE2235:
.LBE2239:
.LBB2240:
.LBB2241:
.LBB2242:
.LBB2243:
# /usr/include/c++/16/bits/new_allocator.h:203: 	{ ::new((void *)__p) _Up(std::forward<_Args>(__args)...); }
	.loc 6 203 4 discriminator 1 view .LVU1131
	vmovss	xmm0, DWORD PTR 144[rsp]	# _15, %sfp
	vmovss	xmm2, DWORD PTR 160[rsp]	# _13, %sfp
.LBE2243:
.LBE2242:
.LBE2241:
.LBB2256:
.LBB2257:
.LBB2258:
# /usr/include/c++/16/bits/stl_uninitialized.h:1382:       if (__count > 0)
	.loc 12 1382 7 view .LVU1132
	test	r12, r12	# _504
.LBE2258:
.LBE2257:
.LBE2256:
.LBE2240:
.LBB2305:
.LBB2236:
.LBB2233:
.LBB2230:
.LBB2227:
# /usr/include/c++/16/bits/new_allocator.h:162: 	  return static_cast<_Tp*>(_GLIBCXX_OPERATOR_NEW(__n * sizeof(_Tp)));
	.loc 6 162 68 view .LVU1133
	mov	QWORD PTR 200[rsp], rax	# %sfp, _526
.LVL206:
	.loc 6 162 68 view .LVU1134
.LBE2227:
.LBE2230:
.LBE2233:
.LBE2236:
.LBE2305:
.LBB2306:
.LBB2268:
.LBI2268:
	.loc 2 1865 2 is_stmt 1 view .LVU1135
	.loc 2 1865 2 is_stmt 0 view .LVU1136
.LBE2268:
.LBB2269:
.LBI2241:
	.loc 8 705 2 is_stmt 1 view .LVU1137
.LBB2250:
.LBI2242:
	.loc 6 201 2 view .LVU1138
.LBB2244:
# /usr/include/c++/16/bits/new_allocator.h:203: 	{ ::new((void *)__p) _Up(std::forward<_Args>(__args)...); }
	.loc 6 203 4 is_stmt 0 discriminator 1 view .LVU1139
	mov	rcx, QWORD PTR 216[rsp]	# _327, %sfp
	mov	r9d, DWORD PTR 176[rsp]	# _9, %sfp
	mov	DWORD PTR 28[rax+r12], ebx	# _513->x_end, _6
.LBE2244:
.LBE2250:
.LBE2269:
.LBE2306:
.LBB2307:
.LBB2237:
.LBB2234:
.LBB2231:
.LBB2228:
# /usr/include/c++/16/bits/new_allocator.h:162: 	  return static_cast<_Tp*>(_GLIBCXX_OPERATOR_NEW(__n * sizeof(_Tp)));
	.loc 6 162 68 view .LVU1140
	mov	rdi, rax	# _526,
.LBE2228:
.LBE2231:
.LBE2234:
.LBE2237:
.LBE2307:
.LBB2308:
.LBB2270:
.LBB2251:
.LBB2245:
# /usr/include/c++/16/bits/new_allocator.h:203: 	{ ::new((void *)__p) _Up(std::forward<_Args>(__args)...); }
	.loc 6 203 4 discriminator 1 view .LVU1141
	mov	r8d, DWORD PTR 168[rsp]	# _10, %sfp
	vinsertps	xmm0, xmm0, DWORD PTR 136[rsp], 0x10	# tmp823, _15, %sfp
	mov	DWORD PTR 36[rax+r12], r14d	# _513->y_end, _404
.LBE2245:
.LBE2251:
.LBE2270:
.LBB2271:
.LBB2263:
.LBB2259:
# /usr/include/c++/16/bits/stl_uninitialized.h:1382:       if (__count > 0)
	.loc 12 1382 7 view .LVU1142
	mov	r10d, 0	# tmp1493,
.LBE2259:
.LBE2263:
.LBE2271:
.LBB2272:
.LBB2252:
.LBB2246:
# /usr/include/c++/16/bits/new_allocator.h:203: 	{ ::new((void *)__p) _Up(std::forward<_Args>(__args)...); }
	.loc 6 203 4 discriminator 1 view .LVU1143
	vinsertps	xmm2, xmm2, DWORD PTR 156[rsp], 0x10	# tmp824, _13, %sfp
	mov	esi, DWORD PTR 152[rsp]	# _17, %sfp
	mov	QWORD PTR 40[rax+r12], rcx	# MEM <const unsigned char *> [(struct SubParams *)_513 + 40B], _327
.LVL207:
	.loc 6 203 4 discriminator 1 view .LVU1144
.LBE2246:
.LBE2252:
.LBE2272:
.LBB2273:
.LBI2256:
	.loc 12 1404 5 is_stmt 1 view .LVU1145
.LBB2264:
.LBI2257:
	.loc 12 1377 5 view .LVU1146
	.loc 12 1377 5 is_stmt 0 view .LVU1147
.LBE2264:
.LBE2273:
.LBB2274:
.LBB2253:
.LBB2247:
# /usr/include/c++/16/bits/new_allocator.h:203: 	{ ::new((void *)__p) _Up(std::forward<_Args>(__args)...); }
	.loc 6 203 4 discriminator 1 view .LVU1148
	mov	r11d, DWORD PTR 128[rsp]	# _21, %sfp
.LBE2247:
.LBE2253:
.LBE2274:
.LBB2275:
.LBB2265:
.LBB2260:
# /usr/include/c++/16/bits/stl_uninitialized.h:1382:       if (__count > 0)
	.loc 12 1382 7 view .LVU1149
	mov	rcx, QWORD PTR 104[rsp]	# SR.270, %sfp
.LBE2260:
.LBE2265:
.LBE2275:
.LBB2276:
.LBB2254:
.LBB2248:
# /usr/include/c++/16/bits/new_allocator.h:203: 	{ ::new((void *)__p) _Up(std::forward<_Args>(__args)...); }
	.loc 6 203 4 discriminator 1 view .LVU1150
	mov	DWORD PTR [rax+r12], r9d	# _513->sx, _9
	vmovlhps	xmm2, xmm2, xmm0	# _68, tmp824, tmp823
	mov	DWORD PTR 4[rax+r12], r8d	# _513->sy, _10
.LBE2248:
.LBE2254:
.LBE2276:
.LBB2277:
.LBB2266:
.LBB2261:
# /usr/include/c++/16/bits/stl_uninitialized.h:1382:       if (__count > 0)
	.loc 12 1382 7 view .LVU1151
	vmovss	xmm4, DWORD PTR 96[rsp]	# focus, %sfp
.LBE2261:
.LBE2266:
.LBE2277:
.LBB2278:
.LBB2255:
.LBB2249:
# /usr/include/c++/16/bits/new_allocator.h:203: 	{ ::new((void *)__p) _Up(std::forward<_Args>(__args)...); }
	.loc 6 203 4 discriminator 1 view .LVU1152
	mov	DWORD PTR 24[rax+r12], esi	# _513->x_begin, _17
	mov	DWORD PTR 32[rax+r12], r11d	# _513->y_begin, _21
	vmovups	XMMWORD PTR 8[rax+r12], xmm2	# MEM <vector(4) float> [(float *)_513 + 8B], _68
.LBE2249:
.LBE2255:
.LBE2278:
.LBB2279:
.LBB2267:
.LBB2262:
# /usr/include/c++/16/bits/stl_uninitialized.h:1382:       if (__count > 0)
	.loc 12 1382 7 view .LVU1153
	je	.L15	#,
# /usr/include/c++/16/bits/stl_uninitialized.h:1394: 	  __builtin_memcpy(__result, __first, __count * sizeof(_Tp));
	.loc 12 1394 20 view .LVU1154
	mov	rsi, QWORD PTR 112[rsp]	#, %sfp
	mov	rdx, r12	#, _504
	mov	QWORD PTR 216[rsp], rcx	# %sfp, SR.270
	vmovss	DWORD PTR 176[rsp], xmm4	# %sfp, focus
.LVL208:
	.loc 12 1394 20 view .LVU1155
	call	"memcpy"@PLT	#
.LVL209:
	.loc 12 1394 20 view .LVU1156
	vmovss	xmm4, DWORD PTR 176[rsp]	# focus, %sfp
	mov	rcx, QWORD PTR 216[rsp]	# SR.270, %sfp
	xor	r10d, r10d	# tmp1493
.L15:
.LVL210:
	.loc 12 1394 20 view .LVU1157
.LBE2262:
.LBE2267:
.LBE2279:
# /usr/include/c++/16/bits/vector.tcc:610: 	    ++__new_finish;
	.loc 7 610 6 view .LVU1158
	mov	rax, QWORD PTR 200[rsp]	# _526, %sfp
	lea	rax, 48[rax+r12]	# __new_finish,
.LVL211:
	.loc 7 610 6 view .LVU1159
	mov	QWORD PTR 128[rsp], rax	# %sfp, __new_finish
.LVL212:
.LBB2280:
.LBI2280:
	.loc 2 1870 2 is_stmt 1 view .LVU1160
.LBB2281:
# /usr/include/c++/16/bits/stl_vector.h:1872: 	  if (_M_storage)
	.loc 2 1872 4 is_stmt 0 view .LVU1161
	mov	rax, QWORD PTR 112[rsp]	# params$_M_start, %sfp
.LVL213:
	.loc 2 1872 4 view .LVU1162
	test	rax, rax	# params$_M_start
	je	.L16	#,
.LBE2281:
.LBE2280:
# /usr/include/c++/16/bits/vector.tcc:648: 	__guard._M_len = this->_M_impl._M_end_of_storage - __old_start;
	.loc 7 648 51 view .LVU1163
	mov	rsi, QWORD PTR 240[rsp]	# params$_M_end_of_storage, %sfp
.LBB2303:
.LBB2301:
.LBB2282:
.LBB2283:
.LBB2284:
.LBB2285:
.LBB2286:
.LBB2287:
.LBB2288:
# /usr/include/c++/16/bits/new_allocator.h:183: 	_GLIBCXX_OPERATOR_DELETE(_GLIBCXX_SIZED_DEALLOC(__p, __n));
	.loc 6 183 59 view .LVU1164
	mov	rdi, rax	#, params$_M_start
	mov	QWORD PTR 216[rsp], rcx	# %sfp, SR.270
.LVL214:
	.loc 6 183 59 view .LVU1165
.LBE2288:
.LBE2287:
.LBE2286:
.LBE2285:
.LBE2284:
.LBE2283:
.LBI2282:
	.loc 2 394 7 is_stmt 1 view .LVU1166
.LBB2298:
.LBB2296:
.LBI2284:
	.loc 2 394 7 view .LVU1167
.LBB2294:
.LBB2292:
.LBI2286:
	.loc 8 688 7 view .LVU1168
.LBB2290:
.LBI2287:
	.loc 6 167 7 view .LVU1169
	vmovss	DWORD PTR 176[rsp], xmm4	# %sfp, focus
.LBE2290:
.LBE2292:
.LBE2294:
.LBE2296:
.LBE2298:
.LBE2282:
.LBE2301:
.LBE2303:
# /usr/include/c++/16/bits/vector.tcc:648: 	__guard._M_len = this->_M_impl._M_end_of_storage - __old_start;
	.loc 7 648 51 is_stmt 0 view .LVU1170
	sub	rsi, rax	# params$_M_end_of_storage, params$_M_start
.LBB2304:
.LBB2302:
.LBB2300:
.LBB2299:
.LBB2297:
.LBB2295:
.LBB2293:
.LBB2291:
.LBB2289:
# /usr/include/c++/16/bits/new_allocator.h:183: 	_GLIBCXX_OPERATOR_DELETE(_GLIBCXX_SIZED_DEALLOC(__p, __n));
	.loc 6 183 59 view .LVU1171
	call	"_ZdlPvm"@PLT	#
.LVL215:
	vmovss	xmm4, DWORD PTR 176[rsp]	# focus, %sfp
	mov	rcx, QWORD PTR 216[rsp]	# SR.270, %sfp
.LVL216:
	.loc 6 183 59 view .LVU1172
	xor	r10d, r10d	# tmp1493
.LVL217:
.L16:
	.loc 6 183 59 view .LVU1173
.LBE2289:
.LBE2291:
.LBE2293:
.LBE2295:
.LBE2297:
.LBE2299:
.LBE2300:
.LBE2302:
.LBE2304:
.LBE2308:
# /usr/include/c++/16/bits/vector.tcc:655:       this->_M_impl._M_end_of_storage = __new_start + __len;
	.loc 7 655 53 view .LVU1174
	mov	rsi, QWORD PTR 200[rsp]	# _526, %sfp
	mov	rax, QWORD PTR 192[rsp]	# tmp820, %sfp
	add	rax, rsi	# tmp820, _526
.LVL218:
# /usr/include/c++/16/bits/vector.tcc:653:       this->_M_impl._M_start = __new_start;
	.loc 7 653 30 view .LVU1175
	mov	QWORD PTR 112[rsp], rsi	# %sfp, _526
.LVL219:
# /usr/include/c++/16/bits/vector.tcc:655:       this->_M_impl._M_end_of_storage = __new_start + __len;
	.loc 7 655 53 view .LVU1176
	mov	QWORD PTR 240[rsp], rax	# %sfp, tmp820
.LVL220:
	.loc 7 655 53 view .LVU1177
	jmp	.L12	#
.LVL221:
.L78:
	.loc 7 655 53 view .LVU1178
.LBE2212:
.LBE2211:
.LBE2313:
.LBE2317:
.LBE2324:
.LBE2802:
.LBB2803:
.LBB2455:
.LBB2435:
.LBB2433:
.LBB2431:
.LBB2429:
# /usr/include/c++/16/bits/stl_vector.h:389: 	return __n != 0 ? _Tr::allocate(_M_impl, __n) : pointer();
	.loc 2 389 58 discriminator 3 view .LVU1179
	xor	ebx, ebx	# _300
	jmp	.L23	#
.LVL222:
.L158:
	.loc 2 389 58 discriminator 3 view .LVU1180
.LBE2429:
.LBE2431:
.LBE2433:
.LBE2435:
.LBE2455:
.LBE2803:
.LBB2804:
	.loc 1 90 31 is_stmt 1 discriminator 5 view .LVU1181
# src/avx_analysis_code_ablations/opt9_abl_hand_vec_no_tile.cpp:90:     for (const SubParams& p : params) {
	.loc 1 90 31 is_stmt 0 discriminator 6 view .LVU1182
	mov	rcx, QWORD PTR 128[rsp]	# __new_finish, %sfp
	cmp	QWORD PTR 112[rsp], rcx	# %sfp, __new_finish
	je	.L36	#,
.LBE2804:
.LBB2805:
.LBB2576:
.LBB2543:
.LBB2536:
.LBB2529:
.LBB2523:
# /usr/include/c++/16/bits/stl_vector.h:389: 	return __n != 0 ? _Tr::allocate(_M_impl, __n) : pointer();
	.loc 2 389 58 discriminator 3 view .LVU1183
	xor	edi, edi	# _599
	jmp	.L37	#
.LVL223:
.L148:
	.loc 2 389 58 discriminator 3 view .LVU1184
	vzeroupper
.LVL224:
	jmp	.L53	#
.LVL225:
.L41:
	.loc 2 389 58 discriminator 3 view .LVU1185
.LBE2523:
.LBE2529:
.LBE2536:
.LBE2543:
.LBE2576:
.LBE2805:
.LBB2806:
	.loc 1 146 23 is_stmt 1 discriminator 2 view .LVU1186
	test	r13d, r13d	# _2
	jle	.L71	#,
	mov	rax, QWORD PTR 120[rsp]	# _629, %sfp
	add	rax, rax	# tmp1490, _629
	test	r15d, r15d	# _1
	jg	.L40	#,
	jmp	.L71	#
.LVL226:
	.p2align 4,,10
	.p2align 3
.L26:
	.loc 1 146 23 is_stmt 0 discriminator 2 view .LVU1187
.LBE2806:
	.loc 1 88 5 is_stmt 1 view .LVU1188
.LBB2807:
	.loc 5 168 7 view .LVU1189
.LBB2488:
	.loc 6 88 7 view .LVU1190
	.loc 6 88 7 is_stmt 0 view .LVU1191
.LBE2488:
.LBE2807:
.LBB2808:
	.loc 2 589 7 is_stmt 1 view .LVU1192
.LBB2577:
	.loc 2 2203 7 view .LVU1193
.LBB2500:
.LBB2498:
	.loc 5 172 7 view .LVU1194
.LBB2494:
	.loc 6 92 7 view .LVU1195
	.loc 6 92 7 is_stmt 0 view .LVU1196
.LBE2494:
.LBE2498:
.LBB2499:
	.loc 5 189 7 is_stmt 1 view .LVU1197
.LBB2497:
	.loc 6 104 7 view .LVU1198
.LBE2497:
.LBE2499:
# /usr/include/c++/16/bits/stl_vector.h:2205: 	if (__n > _S_max_size(_Tp_alloc_type(__a)))
	.loc 2 2205 2 is_stmt 0 discriminator 3 view .LVU1199
	mov	rax, QWORD PTR 224[rsp]	# _5, %sfp
	shr	rax, 61	# _5,
	jne	.L34	#,
.LVL227:
	.loc 2 2205 2 discriminator 3 view .LVU1200
.LBE2500:
.LBE2577:
.LBB2578:
	.loc 2 339 7 is_stmt 1 view .LVU1201
.LBB2544:
	.loc 2 152 2 view .LVU1202
.LBB2508:
	.loc 5 172 7 view .LVU1203
.LBB2506:
	.loc 6 92 7 view .LVU1204
	.loc 6 92 7 is_stmt 0 view .LVU1205
.LBE2506:
.LBE2508:
.LBB2509:
	.loc 2 105 2 is_stmt 1 view .LVU1206
	.loc 2 105 2 is_stmt 0 view .LVU1207
.LBE2509:
.LBE2544:
.LBB2545:
	.loc 2 405 7 is_stmt 1 view .LVU1208
.LBB2537:
.LBB2530:
	.loc 2 386 7 view .LVU1209
.LBB2524:
# /usr/include/c++/16/bits/stl_vector.h:389: 	return __n != 0 ? _Tr::allocate(_M_impl, __n) : pointer();
	.loc 2 389 18 is_stmt 0 view .LVU1210
	cmp	QWORD PTR 80[rsp], 0	# %sfp,
	jne	.L35	#,
.LVL228:
	.loc 2 389 18 view .LVU1211
.LBE2524:
.LBE2530:
.LBE2537:
.LBE2545:
.LBE2578:
.LBE2808:
.LBB2809:
	.loc 1 90 31 is_stmt 1 discriminator 5 view .LVU1212
# src/avx_analysis_code_ablations/opt9_abl_hand_vec_no_tile.cpp:90:     for (const SubParams& p : params) {
	.loc 1 90 31 is_stmt 0 discriminator 6 view .LVU1213
	mov	rcx, QWORD PTR 128[rsp]	# __new_finish, %sfp
	cmp	QWORD PTR 112[rsp], rcx	# %sfp, __new_finish
	je	.L39	#,
.LBE2809:
.LBB2810:
.LBB2579:
.LBB2546:
.LBB2538:
.LBB2531:
.LBB2525:
# /usr/include/c++/16/bits/stl_vector.h:389: 	return __n != 0 ? _Tr::allocate(_M_impl, __n) : pointer();
	.loc 2 389 58 discriminator 3 view .LVU1214
	xor	edi, edi	# _599
	jmp	.L37	#
.LVL229:
.L74:
	.loc 2 389 58 discriminator 3 view .LVU1215
.LBE2525:
.LBE2531:
.LBE2538:
.LBE2546:
.LBE2579:
.LBE2810:
.LBB2811:
# src/avx_analysis_code_ablations/opt9_abl_hand_vec_no_tile.cpp:47:     for (auto& sub : subapertures) {
	.loc 1 47 22 discriminator 6 view .LVU1216
	mov	rax, QWORD PTR 128[rsp]	# __new_finish, %sfp
	mov	QWORD PTR 112[rsp], rax	# %sfp, __new_finish
	jmp	.L9	#
.LVL230:
.L36:
	.loc 1 47 22 discriminator 6 view .LVU1217
	mov	rax, QWORD PTR 120[rsp]	# _629, %sfp
.LBE2811:
.LBB2812:
.LBB2580:
.LBB2547:
.LBB2539:
# /usr/include/c++/16/bits/stl_vector.h:409: 	this->_M_impl._M_end_of_storage = this->_M_impl._M_start + __n;
	.loc 2 409 59 view .LVU1218
	mov	QWORD PTR 80[rsp], 0	# %sfp,
.LBB2532:
.LBB2526:
# /usr/include/c++/16/bits/stl_vector.h:389: 	return __n != 0 ? _Tr::allocate(_M_impl, __n) : pointer();
	.loc 2 389 58 discriminator 3 view .LVU1219
	xor	edi, edi	# _599
	add	rax, rax	# tmp1490, _629
	test	r15d, r15d	# _1
	jg	.L40	#,
	jmp	.L39	#
.LVL231:
.L135:
	.loc 2 389 58 discriminator 3 view .LVU1220
	jmp	.L136	#
.LVL232:
.L87:
	.loc 2 389 58 discriminator 3 view .LVU1221
	mov	rbx, rax	# tmp1479, tmp1518
	vzeroupper
.LVL233:
	jmp	.L21	#
.LVL234:
.L133:
	.loc 2 389 58 discriminator 3 view .LVU1222
	jmp	.L134	#
.LVL235:
.L137:
	.loc 2 389 58 discriminator 3 view .LVU1223
	jmp	.L138	#
.LVL236:
.L139:
	.loc 2 389 58 discriminator 3 view .LVU1224
	jmp	.L140	#
.LVL237:
	.loc 2 389 58 discriminator 3 view .LVU1225
.LBE2526:
.LBE2532:
.LBE2539:
.LBE2547:
.LBE2580:
.LBE2812:
	.section	.gcc_except_table,"a",@progbits
.LLSDA11707:
	.byte	0xff
	.byte	0xff
	.byte	0x1
	.uleb128 .LLSDACSE11707-.LLSDACSB11707
.LLSDACSB11707:
	.uleb128 .LEHB0-.LFB11707
	.uleb128 .LEHE0-.LEHB0
	.uleb128 .L133-.LFB11707
	.uleb128 0
	.uleb128 .LEHB1-.LFB11707
	.uleb128 .LEHE1-.LEHB1
	.uleb128 .L87-.LFB11707
	.uleb128 0
	.uleb128 .LEHB2-.LFB11707
	.uleb128 .LEHE2-.LEHB2
	.uleb128 .L135-.LFB11707
	.uleb128 0
	.uleb128 .LEHB3-.LFB11707
	.uleb128 .LEHE3-.LEHB3
	.uleb128 .L137-.LFB11707
	.uleb128 0
	.uleb128 .LEHB4-.LFB11707
	.uleb128 .LEHE4-.LEHB4
	.uleb128 .L133-.LFB11707
	.uleb128 0
	.uleb128 .LEHB5-.LFB11707
	.uleb128 .LEHE5-.LEHB5
	.uleb128 .L139-.LFB11707
	.uleb128 0
.LLSDACSE11707:
	.text
	.cfi_endproc
	.section	.text.unlikely
	.cfi_startproc
	.cfi_personality 0x9b,"DW.ref.__gxx_personality_v0"
	.cfi_lsda 0x1b,.LLSDAC11707
	.type	"_Z21refocus_shift_and_sumRSt6vectorI16SubApertureImageSaIS0_EEf.cold", @function
"_Z21refocus_shift_and_sumRSt6vectorI16SubApertureImageSaIS0_EEf.cold":
.LFSB11707:
.LBB2813:
.LBB2581:
.LBB2548:
.LBB2540:
.LBB2533:
.LBB2527:
.L34:
	.cfi_def_cfa 6, 16
	.cfi_offset 3, -56
	.cfi_offset 6, -16
	.cfi_offset 12, -48
	.cfi_offset 13, -40
	.cfi_offset 14, -32
	.cfi_offset 15, -24
.LBE2527:
.LBE2533:
.LBE2540:
.LBE2548:
.LBE2581:
.LBB2582:
.LBB2501:
# /usr/include/c++/16/bits/stl_vector.h:2206: 	  __throw_length_error(
	.loc 2 2206 24 view -0
	lea	rdi, .LC0[rip]	#,
.LEHB6:
	call	"_ZSt20__throw_length_errorPKc"@PLT	#
.LVL238:
.LEHE6:
.L85:
.L136:
	.loc 2 2206 24 view .LVU1227
.LBE2501:
.LBE2582:
.LBE2813:
.LBB2814:
.LBB2815:
.LBB2816:
.LBB2817:
.LBB2818:
# /usr/include/c++/16/bits/stl_vector.h:397: 	if (__p)
	.loc 2 397 2 view .LVU1228
	mov	rbx, rax	# tmp1475, tmp1522
	vzeroupper
.LVL239:
.L64:
	.loc 2 397 2 view .LVU1229
.LBE2818:
.LBE2817:
.LBE2816:
.LBE2815:
.LBI2814:
	.loc 2 790 7 is_stmt 1 view .LVU1230
.LBB2828:
.LBI2828:
	.loc 2 307 7 view .LVU1231
	.loc 2 307 7 is_stmt 0 view .LVU1232
.LBE2828:
.LBB2829:
.LBI2829:
	.loc 8 1082 5 is_stmt 1 view .LVU1233
	.loc 8 1082 5 is_stmt 0 view .LVU1234
.LBE2829:
.LBB2830:
.LBI2815:
	.loc 2 373 7 is_stmt 1 view .LVU1235
.LBB2824:
.LBB2823:
.LBI2817:
	.loc 2 394 7 view .LVU1236
.LBB2822:
# /usr/include/c++/16/bits/stl_vector.h:397: 	if (__p)
	.loc 2 397 2 is_stmt 0 view .LVU1237
	cmp	QWORD PTR 88[rsp], 0	# %sfp,
	je	.L21	#,
.LVL240:
.LBB2819:
.LBI2819:
	.loc 8 688 7 is_stmt 1 view .LVU1238
.LBB2820:
.LBI2820:
	.loc 6 167 7 view .LVU1239
.LBB2821:
# /usr/include/c++/16/bits/new_allocator.h:183: 	_GLIBCXX_OPERATOR_DELETE(_GLIBCXX_SIZED_DEALLOC(__p, __n));
	.loc 6 183 59 is_stmt 0 view .LVU1240
	mov	rsi, QWORD PTR 48[rsp]	#, %sfp
	mov	rdi, QWORD PTR 88[rsp]	#, %sfp
	call	"_ZdlPvm"@PLT	#
.LVL241:
	.loc 6 183 59 view .LVU1241
.LBE2821:
.LBE2820:
.LBE2819:
.LBE2822:
.LBE2823:
.LBE2824:
.LBB2825:
.LBI2825:
	.loc 2 139 14 is_stmt 1 view .LVU1242
.LBB2826:
.LBI2826:
	.loc 5 189 7 view .LVU1243
.LBB2827:
.LBI2827:
	.loc 6 104 7 view .LVU1244
.L21:
	.loc 6 104 7 is_stmt 0 view .LVU1245
.LBE2827:
.LBE2826:
.LBE2825:
.LBE2830:
.LBE2814:
.LBB2831:
.LBI2831:
	.loc 2 790 7 is_stmt 1 view .LVU1246
.LBB2832:
.LBI2832:
	.loc 2 307 7 view .LVU1247
	.loc 2 307 7 is_stmt 0 view .LVU1248
.LBE2832:
.LBB2833:
.LBI2833:
	.loc 8 1082 5 is_stmt 1 view .LVU1249
	.loc 8 1082 5 is_stmt 0 view .LVU1250
.LBE2833:
.LBB2834:
.LBI2834:
	.loc 2 373 7 is_stmt 1 view .LVU1251
.LBB2835:
.LBB2836:
.LBI2836:
	.loc 2 394 7 view .LVU1252
.LBB2837:
# /usr/include/c++/16/bits/stl_vector.h:397: 	if (__p)
	.loc 2 397 2 is_stmt 0 view .LVU1253
	cmp	QWORD PTR 112[rsp], 0	# %sfp,
	je	.L68	#,
.LVL242:
.LBB2838:
.LBI2838:
	.loc 2 394 7 is_stmt 1 view .LVU1254
.LBB2839:
.LBB2840:
.LBI2840:
	.loc 8 688 7 view .LVU1255
.LBB2841:
.LBI2841:
	.loc 6 167 7 view .LVU1256
.LBE2841:
.LBE2840:
.LBE2839:
.LBE2838:
.LBE2837:
.LBE2836:
# /usr/include/c++/16/bits/stl_vector.h:375: 	ptrdiff_t __n = _M_impl._M_end_of_storage - _M_impl._M_start;
	.loc 2 375 44 is_stmt 0 view .LVU1257
	mov	rsi, QWORD PTR 240[rsp]	# params$_M_end_of_storage, %sfp
	mov	rdi, QWORD PTR 112[rsp]	# params$_M_start, %sfp
	sub	rsi, rdi	# params$_M_end_of_storage, params$_M_start
.LBB2849:
.LBB2847:
.LBB2846:
.LBB2845:
.LBB2844:
.LBB2843:
.LBB2842:
# /usr/include/c++/16/bits/new_allocator.h:183: 	_GLIBCXX_OPERATOR_DELETE(_GLIBCXX_SIZED_DEALLOC(__p, __n));
	.loc 6 183 59 view .LVU1258
	call	"_ZdlPvm"@PLT	#
.LVL243:
	.loc 6 183 59 view .LVU1259
.LBE2842:
.LBE2843:
.LBE2844:
.LBE2845:
.LBE2846:
.LBE2847:
.LBE2849:
.LBE2835:
.LBB2851:
.LBI2851:
	.loc 2 139 14 is_stmt 1 view .LVU1260
.LBB2852:
.LBI2852:
	.loc 5 189 7 view .LVU1261
.LBB2853:
.LBI2853:
	.loc 6 104 7 view .LVU1262
.L68:
	.loc 6 104 7 is_stmt 0 view .LVU1263
.LBE2853:
.LBE2852:
.LBE2851:
.LBE2834:
.LBE2831:
.LBB2856:
.LBI2856:
	.loc 4 11 8 is_stmt 1 view .LVU1264
.LBB2857:
.LBI2857:
	.loc 2 790 7 view .LVU1265
.LBB2858:
.LBI2858:
	.loc 2 307 7 view .LVU1266
	.loc 2 307 7 is_stmt 0 view .LVU1267
.LBE2858:
.LBB2859:
.LBI2859:
	.loc 8 1082 5 is_stmt 1 view .LVU1268
	.loc 8 1082 5 is_stmt 0 view .LVU1269
.LBE2859:
.LBB2860:
.LBI2860:
	.loc 2 373 7 is_stmt 1 view .LVU1270
.LBB2861:
# /usr/include/c++/16/bits/stl_vector.h:375: 	ptrdiff_t __n = _M_impl._M_end_of_storage - _M_impl._M_start;
	.loc 2 375 54 is_stmt 0 view .LVU1271
	mov	rax, QWORD PTR 72[rsp]	# <retval>, %sfp
	mov	rdi, QWORD PTR 16[rax]	# _386, MEM[(struct _Vector_base *)output_189(D) + 16B]._M_impl.D.86896._M_start
.LVL244:
.LBB2862:
.LBI2862:
	.loc 2 394 7 is_stmt 1 view .LVU1272
.LBB2863:
# /usr/include/c++/16/bits/stl_vector.h:397: 	if (__p)
	.loc 2 397 2 is_stmt 0 view .LVU1273
	test	rdi, rdi	# _386
	je	.L69	#,
.LVL245:
.LBB2864:
.LBI2864:
	.loc 8 688 7 is_stmt 1 view .LVU1274
.LBB2865:
.LBI2865:
	.loc 6 167 7 view .LVU1275
.LBE2865:
.LBE2864:
.LBE2863:
.LBE2862:
# /usr/include/c++/16/bits/stl_vector.h:375: 	ptrdiff_t __n = _M_impl._M_end_of_storage - _M_impl._M_start;
	.loc 2 375 12 is_stmt 0 view .LVU1276
	mov	rsi, QWORD PTR 32[rax]	# MEM[(struct _Vector_base *)output_189(D) + 16B]._M_impl.D.86896._M_end_of_storage, MEM[(struct _Vector_base *)output_189(D) + 16B]._M_impl.D.86896._M_end_of_storage
	sub	rsi, rdi	# __n_387, _386
.LBB2870:
.LBB2869:
.LBB2868:
.LBB2867:
.LBB2866:
# /usr/include/c++/16/bits/new_allocator.h:183: 	_GLIBCXX_OPERATOR_DELETE(_GLIBCXX_SIZED_DEALLOC(__p, __n));
	.loc 6 183 59 view .LVU1277
	call	"_ZdlPvm"@PLT	#
.LVL246:
.L69:
	.loc 6 183 59 view .LVU1278
.LBE2866:
.LBE2867:
.LBE2868:
.LBE2869:
.LBE2870:
.LBE2861:
.LBB2871:
.LBI2871:
	.loc 2 139 14 is_stmt 1 view .LVU1279
.LBB2872:
.LBI2872:
	.loc 5 189 7 view .LVU1280
.LBB2873:
.LBI2873:
	.loc 6 104 7 view .LVU1281
	.loc 6 104 7 is_stmt 0 view .LVU1282
	mov	rdi, rbx	#, tmp1482
.LEHB7:
	call	"_Unwind_Resume"@PLT	#
.LVL247:
.LEHE7:
.L86:
.L138:
	.loc 6 104 7 view .LVU1283
.LBE2873:
.LBE2872:
.LBE2871:
.LBE2860:
.LBE2857:
.LBE2856:
.LBB2877:
.LBB2878:
.LBB2879:
.LBB2880:
.LBB2881:
# /usr/include/c++/16/bits/stl_vector.h:397: 	if (__p)
	.loc 2 397 2 view .LVU1284
	mov	r12, rax	# tmp1521,
.LBE2881:
.LBE2880:
.LBE2879:
.LBE2878:
.LBI2877:
	.loc 2 790 7 is_stmt 1 view .LVU1285
.LVL248:
.LBB2894:
.LBI2894:
	.loc 2 307 7 view .LVU1286
	.loc 2 307 7 is_stmt 0 view .LVU1287
.LBE2894:
.LBB2895:
.LBI2895:
	.loc 8 1082 5 is_stmt 1 view .LVU1288
	.loc 8 1082 5 is_stmt 0 view .LVU1289
.LBE2895:
.LBB2896:
.LBI2878:
	.loc 2 373 7 is_stmt 1 view .LVU1290
.LBB2889:
.LBB2887:
.LBI2880:
	.loc 2 394 7 view .LVU1291
.LBB2885:
# /usr/include/c++/16/bits/stl_vector.h:397: 	if (__p)
	.loc 2 397 2 is_stmt 0 view .LVU1292
	test	rbx, rbx	# _300
	jne	.L162	#,
	vzeroupper
.LVL249:
.L63:
	.loc 2 397 2 view .LVU1293
.LBE2885:
.LBE2887:
.LBE2889:
.LBB2890:
.LBI2890:
	.loc 2 139 14 is_stmt 1 view .LVU1294
.LBB2891:
.LBI2891:
	.loc 5 189 7 view .LVU1295
.LBB2892:
.LBI2892:
	.loc 6 104 7 view .LVU1296
	.loc 6 104 7 is_stmt 0 view .LVU1297
	mov	rbx, r12	# tmp1475, tmp1521
	jmp	.L64	#
.LVL250:
.L162:
	.loc 6 104 7 view .LVU1298
.LBE2892:
.LBE2891:
.LBE2890:
.LBB2893:
.LBB2888:
.LBB2886:
.LBB2882:
.LBI2882:
	.loc 8 688 7 is_stmt 1 view .LVU1299
.LBB2883:
.LBI2883:
	.loc 6 167 7 view .LVU1300
.LBB2884:
# /usr/include/c++/16/bits/new_allocator.h:183: 	_GLIBCXX_OPERATOR_DELETE(_GLIBCXX_SIZED_DEALLOC(__p, __n));
	.loc 6 183 59 is_stmt 0 view .LVU1301
	mov	rsi, QWORD PTR 64[rsp]	#, %sfp
	mov	rdi, rbx	#, _300
	vzeroupper
.LVL251:
	call	"_ZdlPvm"@PLT	#
.LVL252:
	.loc 6 183 59 view .LVU1302
	jmp	.L63	#
.LVL253:
.L144:
	.loc 6 183 59 view .LVU1303
.LBE2884:
.LBE2883:
.LBE2882:
.LBE2886:
.LBE2888:
.LBE2893:
.LBE2896:
.LBE2877:
.LBB2897:
.LBB2456:
.LBB2412:
# /usr/include/c++/16/bits/stl_vector.h:2206: 	  __throw_length_error(
	.loc 2 2206 24 view .LVU1304
	lea	rdi, .LC0[rip]	#,
.LEHB8:
	call	"_ZSt20__throw_length_errorPKc"@PLT	#
.LVL254:
.LEHE8:
.L143:
	.loc 2 2206 24 view .LVU1305
.LBE2412:
.LBE2456:
.LBE2897:
.LBB2898:
.LBB2400:
.LBB2356:
	lea	rdi, .LC0[rip]	#,
.LEHB9:
	call	"_ZSt20__throw_length_errorPKc"@PLT	#
.LVL255:
.LEHE9:
.L83:
.L134:
	.loc 2 2206 24 view .LVU1306
.LBE2356:
.LBE2400:
.LBE2898:
.LBB2899:
.LBB2876:
.LBB2875:
.LBB2874:
# /usr/include/c++/16/bits/stl_vector.h:375: 	ptrdiff_t __n = _M_impl._M_end_of_storage - _M_impl._M_start;
	.loc 2 375 54 view .LVU1307
	mov	rbx, rax	# tmp1482, tmp1525
	vzeroupper
.LVL256:
	jmp	.L68	#
.LVL257:
.L84:
	.loc 2 375 54 view .LVU1308
.LBE2874:
.LBE2875:
.LBE2876:
.LBE2899:
.LBB2900:
.LBB2855:
.LBB2854:
.LBB2850:
.LBB2848:
# /usr/include/c++/16/bits/stl_vector.h:397: 	if (__p)
	.loc 2 397 2 view .LVU1309
	mov	rbx, rax	# tmp1479, tmp1524
	vzeroupper
.LVL258:
	jmp	.L21	#
.LVL259:
.L141:
	.loc 2 397 2 view .LVU1310
.LBE2848:
.LBE2850:
.LBE2854:
.LBE2855:
.LBE2900:
.LBB2901:
.LBB2121:
.LBB2118:
.LBB2115:
.LBB2112:
.LBB2110:
.LBB2094:
.LBB2047:
# /usr/include/c++/16/bits/stl_vector.h:2206: 	  __throw_length_error(
	.loc 2 2206 24 view .LVU1311
	lea	rdi, .LC0[rip]	#,
.LEHB10:
	call	"_ZSt20__throw_length_errorPKc"@PLT	#
.LVL260:
.LEHE10:
.L142:
	.loc 2 2206 24 view .LVU1312
.LBE2047:
.LBE2094:
.LBE2110:
.LBE2112:
.LBE2115:
.LBE2118:
.LBE2121:
.LBE2901:
.LBB2902:
.LBB2325:
.LBB2318:
.LBB2314:
.LBB2311:
.LBB2310:
.LBB2309:
.LBB2221:
# /usr/include/c++/16/bits/stl_vector.h:2195: 	  __throw_length_error(__N(__s));
	.loc 2 2195 24 view .LVU1313
	lea	rdi, .LC2[rip]	#,
.LEHB11:
	call	"_ZSt20__throw_length_errorPKc"@PLT	#
.LVL261:
.LEHE11:
.L88:
.L140:
	.loc 2 2195 24 view .LVU1314
	mov	rbx, rax	# tmp1479, tmp1523
.LVL262:
	.loc 2 2195 24 view .LVU1315
	vzeroupper
.LVL263:
	jmp	.L21	#
.LBE2221:
.LBE2309:
.LBE2310:
.LBE2311:
.LBE2314:
.LBE2318:
.LBE2325:
.LBE2902:
	.cfi_endproc
.LFE11707:
	.section	.gcc_except_table
.LLSDAC11707:
	.byte	0xff
	.byte	0xff
	.byte	0x1
	.uleb128 .LLSDACSEC11707-.LLSDACSBC11707
.LLSDACSBC11707:
	.uleb128 .LEHB6-.LCOLDB4
	.uleb128 .LEHE6-.LEHB6
	.uleb128 .L86-.LCOLDB4
	.uleb128 0
	.uleb128 .LEHB7-.LCOLDB4
	.uleb128 .LEHE7-.LEHB7
	.uleb128 0
	.uleb128 0
	.uleb128 .LEHB8-.LCOLDB4
	.uleb128 .LEHE8-.LEHB8
	.uleb128 .L85-.LCOLDB4
	.uleb128 0
	.uleb128 .LEHB9-.LCOLDB4
	.uleb128 .LEHE9-.LEHB9
	.uleb128 .L84-.LCOLDB4
	.uleb128 0
	.uleb128 .LEHB10-.LCOLDB4
	.uleb128 .LEHE10-.LEHB10
	.uleb128 .L83-.LCOLDB4
	.uleb128 0
	.uleb128 .LEHB11-.LCOLDB4
	.uleb128 .LEHE11-.LEHB11
	.uleb128 .L88-.LCOLDB4
	.uleb128 0
.LLSDACSEC11707:
	.section	.text.unlikely
	.text
	.size	"_Z21refocus_shift_and_sumRSt6vectorI16SubApertureImageSaIS0_EEf", .-"_Z21refocus_shift_and_sumRSt6vectorI16SubApertureImageSaIS0_EEf"
	.section	.text.unlikely
	.size	"_Z21refocus_shift_and_sumRSt6vectorI16SubApertureImageSaIS0_EEf.cold", .-"_Z21refocus_shift_and_sumRSt6vectorI16SubApertureImageSaIS0_EEf.cold"
.LCOLDE4:
	.text
.LHOTE4:
	.section	.rodata.cst4,"aM",@progbits,4
	.align 4
.LC1:
	.long	1065353216
	.text
.Letext0:
	.section	.text.unlikely
.Letext_cold0:
	.file 17 "/usr/include/c++/16/cwchar"
	.file 18 "/usr/include/x86_64-linux-gnu/c++/16/bits/c++config.h"
	.file 19 "/usr/include/c++/16/type_traits"
	.file 20 "/usr/include/c++/16/bits/exception_ptr.h"
	.file 21 "/usr/include/c++/16/clocale"
	.file 22 "/usr/include/c++/16/bits/stl_iterator_base_types.h"
	.file 23 "/usr/include/c++/16/debug/debug.h"
	.file 24 "/usr/include/c++/16/cstdlib"
	.file 25 "/usr/include/c++/16/cstdio"
	.file 26 "/usr/include/c++/16/cstddef"
	.file 27 "/usr/include/c++/16/cstdint"
	.file 28 "/usr/include/c++/16/ctime"
	.file 29 "/usr/include/c++/16/bits/chrono.h"
	.file 30 "/usr/include/c++/16/system_error"
	.file 31 "/usr/include/c++/16/bits/fs_fwd.h"
	.file 32 "/usr/include/c++/16/bits/fs_path.h"
	.file 33 "/usr/include/c++/16/cwctype"
	.file 34 "/usr/include/c++/16/bits/shared_ptr_base.h"
	.file 35 "/usr/include/c++/16/bits/std_abs.h"
	.file 36 "/usr/include/c++/16/initializer_list"
	.file 37 "/usr/include/c++/16/bits/new_throw.h"
	.file 38 "/usr/include/c++/16/bits/stdexcept_throwfwd.h"
	.file 39 "/usr/include/c++/16/bits/ptr_traits.h"
	.file 40 "/usr/lib/gcc/x86_64-linux-gnu/16/include/stddef.h"
	.file 41 "<built-in>"
	.file 42 "/usr/include/x86_64-linux-gnu/bits/types/wint_t.h"
	.file 43 "/usr/include/x86_64-linux-gnu/bits/types/__mbstate_t.h"
	.file 44 "/usr/include/x86_64-linux-gnu/bits/types/mbstate_t.h"
	.file 45 "/usr/include/x86_64-linux-gnu/bits/types/__FILE.h"
	.file 46 "/usr/include/x86_64-linux-gnu/bits/types/struct_FILE.h"
	.file 47 "/usr/include/x86_64-linux-gnu/bits/types/FILE.h"
	.file 48 "/usr/include/wchar.h"
	.file 49 "/usr/include/x86_64-linux-gnu/bits/types/struct_tm.h"
	.file 50 "/usr/include/c++/16/ext/alloc_traits.h"
	.file 51 "/usr/include/locale.h"
	.file 52 "/usr/include/x86_64-linux-gnu/bits/types.h"
	.file 53 "/usr/include/stdlib.h"
	.file 54 "/usr/include/x86_64-linux-gnu/bits/types/clock_t.h"
	.file 55 "/usr/include/x86_64-linux-gnu/bits/types/time_t.h"
	.file 56 "/usr/include/x86_64-linux-gnu/bits/stdint-intn.h"
	.file 57 "/usr/include/x86_64-linux-gnu/bits/types/struct_timespec.h"
	.file 58 "/usr/include/x86_64-linux-gnu/bits/stdlib-float.h"
	.file 59 "/usr/include/x86_64-linux-gnu/bits/stdlib-bsearch.h"
	.file 60 "/usr/include/x86_64-linux-gnu/bits/types/__fpos_t.h"
	.file 61 "/usr/include/stdio.h"
	.file 62 "/usr/include/x86_64-linux-gnu/bits/stdio.h"
	.file 63 "/usr/include/x86_64-linux-gnu/bits/stdint-uintn.h"
	.file 64 "/usr/include/x86_64-linux-gnu/bits/stdint-least.h"
	.file 65 "/usr/include/stdint.h"
	.file 66 "/usr/include/time.h"
	.file 67 "/usr/include/x86_64-linux-gnu/bits/wctype-wchar.h"
	.file 68 "/usr/include/wctype.h"
	.file 69 "/usr/include/math.h"
	.file 70 "/usr/include/c++/16/pstl/execution_defs.h"
	.file 71 "/usr/lib/gcc/x86_64-linux-gnu/16/include/mmintrin.h"
	.file 72 "/usr/include/c++/16/stdlib.h"
	.file 73 "/usr/include/c++/16/new"
	.file 74 "/usr/include/c++/16/bits/memory_resource.h"
	.file 75 "/usr/include/c++/16/string_view"
	.file 76 "/usr/include/c++/16/ext/concurrence.h"
	.section	.data.rel.local.DW.ref.__gxx_personality_v0,"awG",@progbits,DW.ref.__gxx_personality_v0,comdat
	.align 8
	.type	"DW.ref.__gxx_personality_v0", @object
	.size	"DW.ref.__gxx_personality_v0", 8
"DW.ref.__gxx_personality_v0":
	.quad	"__gxx_personality_v0"
	.globl	"__gxx_personality_v0"
	.ident	"GCC: (Debian 16-20260425-1) 16.0.1 20260425 (prerelease) [gcc-16 r16-8812-gd9c07462a22]"
	.section	.note.GNU-stack,"",@progbits
